ARM GAS  C:\Users\USUARIO\AppData\Local\Temp\ccgyuR3R.s 			page 1


   1              		.syntax unified
   2              		.cpu cortex-m3
   3              		.fpu softvfp
   4              		.eabi_attribute 20, 1
   5              		.eabi_attribute 21, 1
   6              		.eabi_attribute 23, 3
   7              		.eabi_attribute 24, 1
   8              		.eabi_attribute 25, 1
   9              		.eabi_attribute 26, 1
  10              		.eabi_attribute 30, 1
  11              		.eabi_attribute 34, 1
  12              		.eabi_attribute 18, 4
  13              		.thumb
  14              		.syntax unified
  15              		.file	"Funciones.c"
  16              		.text
  17              	.Ltext0:
  18              		.cfi_sections	.debug_frame
  19              		.global	__aeabi_f2uiz
  20              		.global	__aeabi_ui2f
  21              		.global	__aeabi_fsub
  22              		.global	__aeabi_fmul
  23              		.section	.text.extraeDecimal,"ax",%progbits
  24              		.align	2
  25              		.global	extraeDecimal
  26              		.thumb
  27              		.thumb_func
  28              		.type	extraeDecimal, %function
  29              	extraeDecimal:
  30              	.LFB64:
  31              		.file 1 "Funciones.c"
   1:Funciones.c   **** /* ========================================
   2:Funciones.c   ****  *
   3:Funciones.c   ****  * Copyright YOUR COMPANY, THE YEAR
   4:Funciones.c   ****  * All Rights Reserved
   5:Funciones.c   ****  * UNPUBLISHED, LICENSED SOFTWARE.
   6:Funciones.c   ****  *
   7:Funciones.c   ****  * CONFIDENTIAL AND PROPRIETARY INFORMATION
   8:Funciones.c   ****  * WHICH IS THE PROPERTY OF your company.
   9:Funciones.c   ****  *
  10:Funciones.c   ****  * ========================================
  11:Funciones.c   **** */
  12:Funciones.c   **** 
  13:Funciones.c   **** #include <Funciones.h>
  14:Funciones.c   **** #include <ks0108.h>
  15:Funciones.c   **** #include <main.h>
  16:Funciones.c   **** 
  17:Funciones.c   **** 
  18:Funciones.c   **** uint8 extraeDecimal(float data){
  32              		.loc 1 18 0
  33              		.cfi_startproc
  34              		@ args = 0, pretend = 0, frame = 0
  35              		@ frame_needed = 0, uses_anonymous_args = 0
  36              	.LVL0:
  37 0000 10B5     		push	{r4, lr}
  38              		.cfi_def_cfa_offset 8
  39              		.cfi_offset 4, -8
ARM GAS  C:\Users\USUARIO\AppData\Local\Temp\ccgyuR3R.s 			page 2


  40              		.cfi_offset 14, -4
  41 0002 0446     		mov	r4, r0
  42              	.LVL1:
  19:Funciones.c   ****    float entero=0;
  20:Funciones.c   ****    float tmp=0.0;
  21:Funciones.c   ****    
  22:Funciones.c   ****    entero=(uint8)data;
  43              		.loc 1 22 0
  44 0004 FFF7FEFF 		bl	__aeabi_f2uiz
  45              	.LVL2:
  46 0008 C0B2     		uxtb	r0, r0
  47 000a FFF7FEFF 		bl	__aeabi_ui2f
  48              	.LVL3:
  23:Funciones.c   ****    tmp=(data-entero)*100;
  49              		.loc 1 23 0
  50 000e 0146     		mov	r1, r0
  51 0010 2046     		mov	r0, r4
  52              	.LVL4:
  53 0012 FFF7FEFF 		bl	__aeabi_fsub
  54              	.LVL5:
  55 0016 0349     		ldr	r1, .L3
  56 0018 FFF7FEFF 		bl	__aeabi_fmul
  57              	.LVL6:
  24:Funciones.c   ****    return (uint8)tmp;
  58              		.loc 1 24 0
  59 001c FFF7FEFF 		bl	__aeabi_f2uiz
  60              	.LVL7:
  25:Funciones.c   **** }
  61              		.loc 1 25 0
  62 0020 C0B2     		uxtb	r0, r0
  63 0022 10BD     		pop	{r4, pc}
  64              	.LVL8:
  65              	.L4:
  66              		.align	2
  67              	.L3:
  68 0024 0000C842 		.word	1120403456
  69              		.cfi_endproc
  70              	.LFE64:
  71              		.size	extraeDecimal, .-extraeDecimal
  72              		.global	__aeabi_fdiv
  73              		.section	.text.inttofloat,"ax",%progbits
  74              		.align	2
  75              		.global	inttofloat
  76              		.thumb
  77              		.thumb_func
  78              		.type	inttofloat, %function
  79              	inttofloat:
  80              	.LFB65:
  26:Funciones.c   **** 
  27:Funciones.c   **** float inttofloat(uint8 decimal){
  81              		.loc 1 27 0
  82              		.cfi_startproc
  83              		@ args = 0, pretend = 0, frame = 0
  84              		@ frame_needed = 0, uses_anonymous_args = 0
  85              	.LVL9:
  86 0000 08B5     		push	{r3, lr}
  87              		.cfi_def_cfa_offset 8
ARM GAS  C:\Users\USUARIO\AppData\Local\Temp\ccgyuR3R.s 			page 3


  88              		.cfi_offset 3, -8
  89              		.cfi_offset 14, -4
  28:Funciones.c   ****    float tmp;
  29:Funciones.c   ****    tmp=decimal;
  90              		.loc 1 29 0
  91 0002 FFF7FEFF 		bl	__aeabi_ui2f
  92              	.LVL10:
  30:Funciones.c   ****    return tmp/10;
  93              		.loc 1 30 0
  94 0006 0249     		ldr	r1, .L7
  95 0008 FFF7FEFF 		bl	__aeabi_fdiv
  96              	.LVL11:
  31:Funciones.c   **** }
  97              		.loc 1 31 0
  98 000c 08BD     		pop	{r3, pc}
  99              	.L8:
 100 000e 00BF     		.align	2
 101              	.L7:
 102 0010 00002041 		.word	1092616192
 103              		.cfi_endproc
 104              	.LFE65:
 105              		.size	inttofloat, .-inttofloat
 106              		.section	.text.convert8,"ax",%progbits
 107              		.align	2
 108              		.global	convert8
 109              		.thumb
 110              		.thumb_func
 111              		.type	convert8, %function
 112              	convert8:
 113              	.LFB66:
  32:Funciones.c   **** 
  33:Funciones.c   **** uint8 convert8(uint16 data,uint8 nible){
 114              		.loc 1 33 0
 115              		.cfi_startproc
 116              		@ args = 0, pretend = 0, frame = 0
 117              		@ frame_needed = 0, uses_anonymous_args = 0
 118              		@ link register save eliminated.
 119              	.LVL12:
  34:Funciones.c   ****     uint8 dato=0;
  35:Funciones.c   ****     if(nible==0){
 120              		.loc 1 35 0
 121 0000 09B9     		cbnz	r1, .L10
  36:Funciones.c   ****         dato=(uint8)data;   
 122              		.loc 1 36 0
 123 0002 C0B2     		uxtb	r0, r0
 124              	.LVL13:
 125 0004 7047     		bx	lr
 126              	.LVL14:
 127              	.L10:
  37:Funciones.c   ****     }else if(nible==1){
 128              		.loc 1 37 0
 129 0006 0129     		cmp	r1, #1
 130 0008 01D1     		bne	.L12
  38:Funciones.c   ****         dato=data>>8;
 131              		.loc 1 38 0
 132 000a 000A     		lsrs	r0, r0, #8
 133              	.LVL15:
ARM GAS  C:\Users\USUARIO\AppData\Local\Temp\ccgyuR3R.s 			page 4


 134 000c 7047     		bx	lr
 135              	.LVL16:
 136              	.L12:
  34:Funciones.c   ****     if(nible==0){
 137              		.loc 1 34 0
 138 000e 0020     		movs	r0, #0
 139              	.LVL17:
  39:Funciones.c   ****     }
  40:Funciones.c   ****     return dato;
  41:Funciones.c   **** }
 140              		.loc 1 41 0
 141 0010 7047     		bx	lr
 142              		.cfi_endproc
 143              	.LFE66:
 144              		.size	convert8, .-convert8
 145 0012 00BF     		.section	.text.convert16,"ax",%progbits
 146              		.align	2
 147              		.global	convert16
 148              		.thumb
 149              		.thumb_func
 150              		.type	convert16, %function
 151              	convert16:
 152              	.LFB67:
  42:Funciones.c   **** 
  43:Funciones.c   **** uint16 convert16(uint8 nibleh,uint8 niblel){
 153              		.loc 1 43 0
 154              		.cfi_startproc
 155              		@ args = 0, pretend = 0, frame = 0
 156              		@ frame_needed = 0, uses_anonymous_args = 0
 157              		@ link register save eliminated.
 158              	.LVL18:
  44:Funciones.c   ****     uint16 temp,var;
  45:Funciones.c   ****     temp=(uint16)nibleh;
  46:Funciones.c   ****     var=temp<<8 | (uint16)niblel;
  47:Funciones.c   ****     return var;
  48:Funciones.c   **** }
 159              		.loc 1 48 0
 160 0000 41EA0020 		orr	r0, r1, r0, lsl #8
 161              	.LVL19:
 162 0004 7047     		bx	lr
 163              		.cfi_endproc
 164              	.LFE67:
 165              		.size	convert16, .-convert16
 166              		.global	__aeabi_fcmpgt
 167              		.global	__aeabi_fcmpeq
 168              		.global	__aeabi_fcmplt
 169              		.global	__aeabi_i2f
 170              		.global	__aeabi_fadd
 171              		.global	__aeabi_f2d
 172              		.global	__aeabi_dcmplt
 173 0006 00BF     		.section	.text.leeEEPROM,"ax",%progbits
 174              		.align	2
 175              		.global	leeEEPROM
 176              		.thumb
 177              		.thumb_func
 178              		.type	leeEEPROM, %function
 179              	leeEEPROM:
ARM GAS  C:\Users\USUARIO\AppData\Local\Temp\ccgyuR3R.s 			page 5


 180              	.LFB68:
  49:Funciones.c   **** 
  50:Funciones.c   **** void leeEEPROM(){ 
 181              		.loc 1 50 0
 182              		.cfi_startproc
 183              		@ args = 0, pretend = 0, frame = 0
 184              		@ frame_needed = 0, uses_anonymous_args = 0
 185 0000 2DE9F047 		push	{r4, r5, r6, r7, r8, r9, r10, lr}
 186              		.cfi_def_cfa_offset 32
 187              		.cfi_offset 4, -32
 188              		.cfi_offset 5, -28
 189              		.cfi_offset 6, -24
 190              		.cfi_offset 7, -20
 191              		.cfi_offset 8, -16
 192              		.cfi_offset 9, -12
 193              		.cfi_offset 10, -8
 194              		.cfi_offset 14, -4
 195              	.LVL20:
  51:Funciones.c   ****     uint8 j;
  52:Funciones.c   ****    for(j=1;j<6;j++){
 196              		.loc 1 52 0
 197 0004 4FF00108 		mov	r8, #1
 198 0008 96E0     		b	.L15
 199              	.LVL21:
 200              	.L21:
  53:Funciones.c   ****       for(i=0;i<Pasos;i++){
 201              		.loc 1 53 0
 202 000a 0022     		movs	r2, #0
 203 000c 014B     		ldr	r3, .L50
 204 000e 1A70     		strb	r2, [r3]
 205 0010 89E0     		b	.L16
 206              	.L51:
 207 0012 00BF     		.align	2
 208              	.L50:
 209 0014 00000000 		.word	i
 210              	.L20:
  54:Funciones.c   ****          CyDelay(10); 
 211              		.loc 1 54 0
 212 0018 0A20     		movs	r0, #10
 213 001a FFF7FEFF 		bl	CyDelay
 214              	.LVL22:
  55:Funciones.c   ****          Temperatura1[i+((j-1)*Pasos)]=convert16(EEPROM_ReadByte((i*2)+1+((j-1)*(Pasos*4))),EEPROM_
 215              		.loc 1 55 0
 216 001e C94F     		ldr	r7, .L52
 217 0020 3878     		ldrb	r0, [r7]	@ zero_extendqisi2
 218 0022 08F1FF35 		add	r5, r8, #-1
 219 0026 2C01     		lsls	r4, r5, #4
 220 0028 00EB0409 		add	r9, r0, r4
 221 002c 6E01     		lsls	r6, r5, #5
 222 002e B6B2     		uxth	r6, r6
 223 0030 3044     		add	r0, r0, r6
 224 0032 4000     		lsls	r0, r0, #1
 225 0034 0130     		adds	r0, r0, #1
 226 0036 80B2     		uxth	r0, r0
 227 0038 FFF7FEFF 		bl	EEPROM_ReadByte
 228              	.LVL23:
 229 003c 8246     		mov	r10, r0
ARM GAS  C:\Users\USUARIO\AppData\Local\Temp\ccgyuR3R.s 			page 6


 230 003e 6D01     		lsls	r5, r5, #5
 231 0040 3878     		ldrb	r0, [r7]	@ zero_extendqisi2
 232 0042 2844     		add	r0, r0, r5
 233 0044 4000     		lsls	r0, r0, #1
 234 0046 80B2     		uxth	r0, r0
 235 0048 FFF7FEFF 		bl	EEPROM_ReadByte
 236              	.LVL24:
 237 004c 0146     		mov	r1, r0
 238 004e 5046     		mov	r0, r10
 239 0050 FFF7FEFF 		bl	convert16
 240              	.LVL25:
 241 0054 BC4B     		ldr	r3, .L52+4
 242 0056 23F81900 		strh	r0, [r3, r9, lsl #1]	@ movhi
  56:Funciones.c   ****          if(Temperatura1[i+((j-1)*Pasos)]>1200 || Temperatura1[i+((j-1)*Pasos)]<0){
 243              		.loc 1 56 0
 244 005a 3978     		ldrb	r1, [r7]	@ zero_extendqisi2
 245 005c 0A19     		adds	r2, r1, r4
 246 005e 33F81230 		ldrh	r3, [r3, r2, lsl #1]
 247 0062 B3F5966F 		cmp	r3, #1200
 248 0066 18D9     		bls	.L17
  57:Funciones.c   ****             Temperatura1[i+((j-1)*Pasos)]=0;
 249              		.loc 1 57 0
 250 0068 0027     		movs	r7, #0
 251 006a B74B     		ldr	r3, .L52+4
 252 006c 23F81270 		strh	r7, [r3, r2, lsl #1]	@ movhi
  58:Funciones.c   ****             EEPROM_WriteByte(0,(i*2)+1+((j-1)*(Pasos*4)));
 253              		.loc 1 58 0
 254 0070 3144     		add	r1, r1, r6
 255 0072 4900     		lsls	r1, r1, #1
 256 0074 0131     		adds	r1, r1, #1
 257 0076 89B2     		uxth	r1, r1
 258 0078 3846     		mov	r0, r7
 259 007a FFF7FEFF 		bl	EEPROM_WriteByte
 260              	.LVL26:
  59:Funciones.c   ****             CyDelay(20);
 261              		.loc 1 59 0
 262 007e 1420     		movs	r0, #20
 263 0080 FFF7FEFF 		bl	CyDelay
 264              	.LVL27:
  60:Funciones.c   ****             EEPROM_WriteByte(0,(i*2)+((j-1)*(Pasos*4)));
 265              		.loc 1 60 0
 266 0084 AF4B     		ldr	r3, .L52
 267 0086 1978     		ldrb	r1, [r3]	@ zero_extendqisi2
 268 0088 2944     		add	r1, r1, r5
 269 008a 4900     		lsls	r1, r1, #1
 270 008c 89B2     		uxth	r1, r1
 271 008e 3846     		mov	r0, r7
 272 0090 FFF7FEFF 		bl	EEPROM_WriteByte
 273              	.LVL28:
  61:Funciones.c   ****             CyDelay(20);
 274              		.loc 1 61 0
 275 0094 1420     		movs	r0, #20
 276 0096 FFF7FEFF 		bl	CyDelay
 277              	.LVL29:
 278              	.L17:
  62:Funciones.c   ****          }
  63:Funciones.c   ****          CyDelay(10);
ARM GAS  C:\Users\USUARIO\AppData\Local\Temp\ccgyuR3R.s 			page 7


 279              		.loc 1 63 0
 280 009a 0A20     		movs	r0, #10
 281 009c FFF7FEFF 		bl	CyDelay
 282              	.LVL30:
  64:Funciones.c   ****          Horas1[i+((j-1)*Pasos)]=EEPROM_ReadByte(i+(((Pasos*4)*j)-(Pasos*2)));     
 283              		.loc 1 64 0
 284 00a0 A84E     		ldr	r6, .L52
 285 00a2 3078     		ldrb	r0, [r6]	@ zero_extendqisi2
 286 00a4 0719     		adds	r7, r0, r4
 287 00a6 4FEA8815 		lsl	r5, r8, #6
 288 00aa 2844     		add	r0, r0, r5
 289 00ac 2038     		subs	r0, r0, #32
 290 00ae 80B2     		uxth	r0, r0
 291 00b0 FFF7FEFF 		bl	EEPROM_ReadByte
 292              	.LVL31:
 293 00b4 A54B     		ldr	r3, .L52+8
 294 00b6 23F81700 		strh	r0, [r3, r7, lsl #1]	@ movhi
  65:Funciones.c   ****          if(Horas1[i+((j-1)*Pasos)]>99){
 295              		.loc 1 65 0
 296 00ba 3178     		ldrb	r1, [r6]	@ zero_extendqisi2
 297 00bc 0A19     		adds	r2, r1, r4
 298 00be 33F91230 		ldrsh	r3, [r3, r2, lsl #1]
 299 00c2 632B     		cmp	r3, #99
 300 00c4 0BDD     		ble	.L18
  66:Funciones.c   ****             Horas1[i+((j-1)*Pasos)]=0;
 301              		.loc 1 66 0
 302 00c6 0020     		movs	r0, #0
 303 00c8 A04B     		ldr	r3, .L52+8
 304 00ca 23F81200 		strh	r0, [r3, r2, lsl #1]	@ movhi
  67:Funciones.c   ****             EEPROM_WriteByte(0,i+(((Pasos*4)*j)-(Pasos*2)));
 305              		.loc 1 67 0
 306 00ce 2944     		add	r1, r1, r5
 307 00d0 2039     		subs	r1, r1, #32
 308 00d2 89B2     		uxth	r1, r1
 309 00d4 FFF7FEFF 		bl	EEPROM_WriteByte
 310              	.LVL32:
  68:Funciones.c   ****             CyDelay(20);
 311              		.loc 1 68 0
 312 00d8 1420     		movs	r0, #20
 313 00da FFF7FEFF 		bl	CyDelay
 314              	.LVL33:
 315              	.L18:
  69:Funciones.c   ****          }
  70:Funciones.c   ****          CyDelay(10);    
 316              		.loc 1 70 0
 317 00de 0A20     		movs	r0, #10
 318 00e0 FFF7FEFF 		bl	CyDelay
 319              	.LVL34:
  71:Funciones.c   ****          Minutos1[i+((j-1)*Pasos)]=EEPROM_ReadByte(i+(((Pasos*4)*j)-Pasos));
 320              		.loc 1 71 0
 321 00e4 974E     		ldr	r6, .L52
 322 00e6 3078     		ldrb	r0, [r6]	@ zero_extendqisi2
 323 00e8 0719     		adds	r7, r0, r4
 324 00ea 2844     		add	r0, r0, r5
 325 00ec 1038     		subs	r0, r0, #16
 326 00ee 80B2     		uxth	r0, r0
 327 00f0 FFF7FEFF 		bl	EEPROM_ReadByte
ARM GAS  C:\Users\USUARIO\AppData\Local\Temp\ccgyuR3R.s 			page 8


 328              	.LVL35:
 329 00f4 964B     		ldr	r3, .L52+12
 330 00f6 23F81700 		strh	r0, [r3, r7, lsl #1]	@ movhi
  72:Funciones.c   ****          if(Minutos1[i+((j-1)*Pasos)]>59){
 331              		.loc 1 72 0
 332 00fa 3178     		ldrb	r1, [r6]	@ zero_extendqisi2
 333 00fc 0C44     		add	r4, r4, r1
 334 00fe 33F91430 		ldrsh	r3, [r3, r4, lsl #1]
 335 0102 3B2B     		cmp	r3, #59
 336 0104 0BDD     		ble	.L19
  73:Funciones.c   ****             Minutos1[i+((j-1)*Pasos)]=0;
 337              		.loc 1 73 0
 338 0106 0020     		movs	r0, #0
 339 0108 914B     		ldr	r3, .L52+12
 340 010a 23F81400 		strh	r0, [r3, r4, lsl #1]	@ movhi
  74:Funciones.c   ****             EEPROM_WriteByte(0,i+(((Pasos*4)*j)-Pasos));
 341              		.loc 1 74 0
 342 010e 2944     		add	r1, r1, r5
 343 0110 1039     		subs	r1, r1, #16
 344 0112 89B2     		uxth	r1, r1
 345 0114 FFF7FEFF 		bl	EEPROM_WriteByte
 346              	.LVL36:
  75:Funciones.c   ****             CyDelay(20);
 347              		.loc 1 75 0
 348 0118 1420     		movs	r0, #20
 349 011a FFF7FEFF 		bl	CyDelay
 350              	.LVL37:
 351              	.L19:
  53:Funciones.c   ****          CyDelay(10); 
 352              		.loc 1 53 0 discriminator 2
 353 011e 894A     		ldr	r2, .L52
 354 0120 1378     		ldrb	r3, [r2]	@ zero_extendqisi2
 355 0122 0133     		adds	r3, r3, #1
 356 0124 1370     		strb	r3, [r2]
 357              	.L16:
  53:Funciones.c   ****          CyDelay(10); 
 358              		.loc 1 53 0 is_stmt 0 discriminator 1
 359 0126 874B     		ldr	r3, .L52
 360 0128 1B78     		ldrb	r3, [r3]	@ zero_extendqisi2
 361 012a 0F2B     		cmp	r3, #15
 362 012c 7FF674AF 		bls	.L20
  52:Funciones.c   ****       for(i=0;i<Pasos;i++){
 363              		.loc 1 52 0 is_stmt 1 discriminator 2
 364 0130 08F10108 		add	r8, r8, #1
 365              	.LVL38:
 366 0134 5FFA88F8 		uxtb	r8, r8
 367              	.LVL39:
 368              	.L15:
  52:Funciones.c   ****       for(i=0;i<Pasos;i++){
 369              		.loc 1 52 0 is_stmt 0 discriminator 1
 370 0138 B8F1050F 		cmp	r8, #5
 371 013c 7FF665AF 		bls	.L21
  76:Funciones.c   ****          }
  77:Funciones.c   ****       }
  78:Funciones.c   ****    }
  79:Funciones.c   ****    
  80:Funciones.c   ****    CyDelay(50);   
ARM GAS  C:\Users\USUARIO\AppData\Local\Temp\ccgyuR3R.s 			page 9


 372              		.loc 1 80 0 is_stmt 1
 373 0140 3220     		movs	r0, #50
 374 0142 FFF7FEFF 		bl	CyDelay
 375              	.LVL40:
  81:Funciones.c   ****    Ganancia=EEPROM_ReadByte(450);
 376              		.loc 1 81 0
 377 0146 4FF4E170 		mov	r0, #450
 378 014a FFF7FEFF 		bl	EEPROM_ReadByte
 379              	.LVL41:
 380 014e 814C     		ldr	r4, .L52+16
 381 0150 FFF7FEFF 		bl	__aeabi_ui2f
 382              	.LVL42:
 383 0154 2060     		str	r0, [r4]	@ float
  82:Funciones.c   ****    CyDelay(50);   
 384              		.loc 1 82 0
 385 0156 3220     		movs	r0, #50
 386 0158 FFF7FEFF 		bl	CyDelay
 387              	.LVL43:
  83:Funciones.c   ****    if(Ganancia>40 || Ganancia==0){
 388              		.loc 1 83 0
 389 015c 2468     		ldr	r4, [r4]	@ float
 390 015e 7E49     		ldr	r1, .L52+20
 391 0160 2046     		mov	r0, r4
 392 0162 FFF7FEFF 		bl	__aeabi_fcmpgt
 393              	.LVL44:
 394 0166 20B9     		cbnz	r0, .L22
 395              		.loc 1 83 0 is_stmt 0 discriminator 1
 396 0168 0021     		movs	r1, #0
 397 016a 2046     		mov	r0, r4
 398 016c FFF7FEFF 		bl	__aeabi_fcmpeq
 399              	.LVL45:
 400 0170 50B1     		cbz	r0, .L23
 401              	.L22:
  84:Funciones.c   ****       Ganancia=3;
 402              		.loc 1 84 0 is_stmt 1
 403 0172 7A4A     		ldr	r2, .L52+24
 404 0174 774B     		ldr	r3, .L52+16
 405 0176 1A60     		str	r2, [r3]	@ float
  85:Funciones.c   ****       EEPROM_WriteByte(3,450);
 406              		.loc 1 85 0
 407 0178 4FF4E171 		mov	r1, #450
 408 017c 0320     		movs	r0, #3
 409 017e FFF7FEFF 		bl	EEPROM_WriteByte
 410              	.LVL46:
  86:Funciones.c   ****       CyDelay(20);
 411              		.loc 1 86 0
 412 0182 1420     		movs	r0, #20
 413 0184 FFF7FEFF 		bl	CyDelay
 414              	.LVL47:
 415              	.L23:
  87:Funciones.c   ****    }
  88:Funciones.c   ****    GananciaIn=Ganancia;
 416              		.loc 1 88 0
 417 0188 724B     		ldr	r3, .L52+16
 418 018a 1A68     		ldr	r2, [r3]	@ float
 419 018c 744B     		ldr	r3, .L52+28
 420 018e 1A60     		str	r2, [r3]	@ float
ARM GAS  C:\Users\USUARIO\AppData\Local\Temp\ccgyuR3R.s 			page 10


  89:Funciones.c   ****    Tciclo=EEPROM_ReadByte(451);
 421              		.loc 1 89 0
 422 0190 40F2C310 		movw	r0, #451
 423 0194 FFF7FEFF 		bl	EEPROM_ReadByte
 424              	.LVL48:
 425 0198 724C     		ldr	r4, .L52+32
 426 019a 2070     		strb	r0, [r4]
  90:Funciones.c   ****    CyDelay(50);   
 427              		.loc 1 90 0
 428 019c 3220     		movs	r0, #50
 429 019e FFF7FEFF 		bl	CyDelay
 430              	.LVL49:
  91:Funciones.c   ****    if(Tciclo>20 || Tciclo<5){
 431              		.loc 1 91 0
 432 01a2 2378     		ldrb	r3, [r4]	@ zero_extendqisi2
 433 01a4 053B     		subs	r3, r3, #5
 434 01a6 DBB2     		uxtb	r3, r3
 435 01a8 0F2B     		cmp	r3, #15
 436 01aa 08D9     		bls	.L25
  92:Funciones.c   ****       Tciclo=10;
 437              		.loc 1 92 0
 438 01ac 0A20     		movs	r0, #10
 439 01ae 2070     		strb	r0, [r4]
  93:Funciones.c   ****       EEPROM_WriteByte(10,451);
 440              		.loc 1 93 0
 441 01b0 40F2C311 		movw	r1, #451
 442 01b4 FFF7FEFF 		bl	EEPROM_WriteByte
 443              	.LVL50:
  94:Funciones.c   ****       CyDelay(20);
 444              		.loc 1 94 0
 445 01b8 1420     		movs	r0, #20
 446 01ba FFF7FEFF 		bl	CyDelay
 447              	.LVL51:
 448              	.L25:
  95:Funciones.c   ****    }
  96:Funciones.c   ****    Ajuste=EEPROM_ReadByte(452);
 449              		.loc 1 96 0
 450 01be 4FF4E270 		mov	r0, #452
 451 01c2 FFF7FEFF 		bl	EEPROM_ReadByte
 452              	.LVL52:
 453 01c6 684C     		ldr	r4, .L52+36
 454 01c8 2070     		strb	r0, [r4]
  97:Funciones.c   ****    CyDelay(50);
 455              		.loc 1 97 0
 456 01ca 3220     		movs	r0, #50
 457 01cc FFF7FEFF 		bl	CyDelay
 458              	.LVL53:
  98:Funciones.c   ****    if(Ajuste>30){
 459              		.loc 1 98 0
 460 01d0 2378     		ldrb	r3, [r4]	@ zero_extendqisi2
 461 01d2 1E2B     		cmp	r3, #30
 462 01d4 08D9     		bls	.L26
  99:Funciones.c   ****       Ajuste=0;
 463              		.loc 1 99 0
 464 01d6 0020     		movs	r0, #0
 465 01d8 2070     		strb	r0, [r4]
 100:Funciones.c   ****       EEPROM_WriteByte(0,452);
ARM GAS  C:\Users\USUARIO\AppData\Local\Temp\ccgyuR3R.s 			page 11


 466              		.loc 1 100 0
 467 01da 4FF4E271 		mov	r1, #452
 468 01de FFF7FEFF 		bl	EEPROM_WriteByte
 469              	.LVL54:
 101:Funciones.c   ****       CyDelay(20);
 470              		.loc 1 101 0
 471 01e2 1420     		movs	r0, #20
 472 01e4 FFF7FEFF 		bl	CyDelay
 473              	.LVL55:
 474              	.L26:
 102:Funciones.c   ****    }
 103:Funciones.c   ****    Ajusten=EEPROM_ReadByte(453);
 475              		.loc 1 103 0
 476 01e8 40F2C510 		movw	r0, #453
 477 01ec FFF7FEFF 		bl	EEPROM_ReadByte
 478              	.LVL56:
 479 01f0 5E4C     		ldr	r4, .L52+40
 480 01f2 2070     		strb	r0, [r4]
 104:Funciones.c   ****    CyDelay(50);
 481              		.loc 1 104 0
 482 01f4 3220     		movs	r0, #50
 483 01f6 FFF7FEFF 		bl	CyDelay
 484              	.LVL57:
 105:Funciones.c   ****    if(Ajusten>30){
 485              		.loc 1 105 0
 486 01fa 2378     		ldrb	r3, [r4]	@ zero_extendqisi2
 487 01fc 1E2B     		cmp	r3, #30
 488 01fe 08D9     		bls	.L27
 106:Funciones.c   ****       Ajusten=0;
 489              		.loc 1 106 0
 490 0200 0020     		movs	r0, #0
 491 0202 2070     		strb	r0, [r4]
 107:Funciones.c   ****       EEPROM_WriteByte(0,453);
 492              		.loc 1 107 0
 493 0204 40F2C511 		movw	r1, #453
 494 0208 FFF7FEFF 		bl	EEPROM_WriteByte
 495              	.LVL58:
 108:Funciones.c   ****       CyDelay(20);
 496              		.loc 1 108 0
 497 020c 1420     		movs	r0, #20
 498 020e FFF7FEFF 		bl	CyDelay
 499              	.LVL59:
 500              	.L27:
 109:Funciones.c   ****    }
 110:Funciones.c   ****    MediaMovil=EEPROM_ReadByte(454);
 501              		.loc 1 110 0
 502 0212 4FF4E370 		mov	r0, #454
 503 0216 FFF7FEFF 		bl	EEPROM_ReadByte
 504              	.LVL60:
 505 021a 554C     		ldr	r4, .L52+44
 506 021c 2070     		strb	r0, [r4]
 111:Funciones.c   ****    CyDelay(50);   
 507              		.loc 1 111 0
 508 021e 3220     		movs	r0, #50
 509 0220 FFF7FEFF 		bl	CyDelay
 510              	.LVL61:
 112:Funciones.c   ****    if(MediaMovil>80 || MediaMovil<10){
ARM GAS  C:\Users\USUARIO\AppData\Local\Temp\ccgyuR3R.s 			page 12


 511              		.loc 1 112 0
 512 0224 2378     		ldrb	r3, [r4]	@ zero_extendqisi2
 513 0226 0A3B     		subs	r3, r3, #10
 514 0228 DBB2     		uxtb	r3, r3
 515 022a 462B     		cmp	r3, #70
 516 022c 0AD9     		bls	.L28
 113:Funciones.c   ****       MediaMovil=20;
 517              		.loc 1 113 0
 518 022e 1424     		movs	r4, #20
 519 0230 4F4B     		ldr	r3, .L52+44
 520 0232 1C70     		strb	r4, [r3]
 114:Funciones.c   ****       EEPROM_WriteByte(20,454);
 521              		.loc 1 114 0
 522 0234 4FF4E371 		mov	r1, #454
 523 0238 2046     		mov	r0, r4
 524 023a FFF7FEFF 		bl	EEPROM_WriteByte
 525              	.LVL62:
 115:Funciones.c   ****       CyDelay(20);
 526              		.loc 1 115 0
 527 023e 2046     		mov	r0, r4
 528 0240 FFF7FEFF 		bl	CyDelay
 529              	.LVL63:
 530              	.L28:
 116:Funciones.c   ****    }
 117:Funciones.c   ****    Coeficiente=EEPROM_ReadByte(455);
 531              		.loc 1 117 0
 532 0244 40F2C710 		movw	r0, #455
 533 0248 FFF7FEFF 		bl	EEPROM_ReadByte
 534              	.LVL64:
 535 024c 494B     		ldr	r3, .L52+48
 536 024e 1880     		strh	r0, [r3]	@ movhi
 118:Funciones.c   ****    CyDelay(50);   
 537              		.loc 1 118 0
 538 0250 3220     		movs	r0, #50
 539 0252 FFF7FEFF 		bl	CyDelay
 540              	.LVL65:
 119:Funciones.c   **** 
 120:Funciones.c   ****    penMufla=EEPROM_ReadByte(458);
 541              		.loc 1 120 0
 542 0256 4FF4E570 		mov	r0, #458
 543 025a FFF7FEFF 		bl	EEPROM_ReadByte
 544              	.LVL66:
 545 025e 464C     		ldr	r4, .L52+52
 546 0260 FFF7FEFF 		bl	__aeabi_ui2f
 547              	.LVL67:
 548 0264 2060     		str	r0, [r4]	@ float
 121:Funciones.c   ****    CyDelay(50); 
 549              		.loc 1 121 0
 550 0266 3220     		movs	r0, #50
 551 0268 FFF7FEFF 		bl	CyDelay
 552              	.LVL68:
 122:Funciones.c   ****    if(penMufla>150 || penMufla<10){
 553              		.loc 1 122 0
 554 026c 2468     		ldr	r4, [r4]	@ float
 555 026e 4349     		ldr	r1, .L52+56
 556 0270 2046     		mov	r0, r4
 557 0272 FFF7FEFF 		bl	__aeabi_fcmpgt
ARM GAS  C:\Users\USUARIO\AppData\Local\Temp\ccgyuR3R.s 			page 13


 558              	.LVL69:
 559 0276 20B9     		cbnz	r0, .L29
 560              		.loc 1 122 0 is_stmt 0 discriminator 1
 561 0278 4149     		ldr	r1, .L52+60
 562 027a 2046     		mov	r0, r4
 563 027c FFF7FEFF 		bl	__aeabi_fcmplt
 564              	.LVL70:
 565 0280 50B1     		cbz	r0, .L30
 566              	.L29:
 123:Funciones.c   ****       penMufla=50;
 567              		.loc 1 123 0 is_stmt 1
 568 0282 404A     		ldr	r2, .L52+64
 569 0284 3C4B     		ldr	r3, .L52+52
 570 0286 1A60     		str	r2, [r3]	@ float
 124:Funciones.c   ****       EEPROM_WriteByte(50,458);
 571              		.loc 1 124 0
 572 0288 4FF4E571 		mov	r1, #458
 573 028c 3220     		movs	r0, #50
 574 028e FFF7FEFF 		bl	EEPROM_WriteByte
 575              	.LVL71:
 125:Funciones.c   ****       CyDelay(20);
 576              		.loc 1 125 0
 577 0292 1420     		movs	r0, #20
 578 0294 FFF7FEFF 		bl	CyDelay
 579              	.LVL72:
 580              	.L30:
 126:Funciones.c   ****    }
 127:Funciones.c   ****    
 128:Funciones.c   ****    Password[0]=EEPROM_ReadByte(460);
 581              		.loc 1 128 0
 582 0298 4FF4E670 		mov	r0, #460
 583 029c FFF7FEFF 		bl	EEPROM_ReadByte
 584              	.LVL73:
 585 02a0 394C     		ldr	r4, .L52+68
 586 02a2 2070     		strb	r0, [r4]
 129:Funciones.c   ****    CyDelay(50);   
 587              		.loc 1 129 0
 588 02a4 3220     		movs	r0, #50
 589 02a6 FFF7FEFF 		bl	CyDelay
 590              	.LVL74:
 130:Funciones.c   ****    if(Password[0]>9 || Password[0]<0){
 591              		.loc 1 130 0
 592 02aa 2378     		ldrb	r3, [r4]	@ zero_extendqisi2
 593 02ac 092B     		cmp	r3, #9
 594 02ae 08D9     		bls	.L32
 131:Funciones.c   ****       Password[0]=0;
 595              		.loc 1 131 0
 596 02b0 0020     		movs	r0, #0
 597 02b2 2070     		strb	r0, [r4]
 132:Funciones.c   ****       EEPROM_WriteByte(0,460);
 598              		.loc 1 132 0
 599 02b4 4FF4E671 		mov	r1, #460
 600 02b8 FFF7FEFF 		bl	EEPROM_WriteByte
 601              	.LVL75:
 133:Funciones.c   ****       CyDelay(20);
 602              		.loc 1 133 0
 603 02bc 1420     		movs	r0, #20
ARM GAS  C:\Users\USUARIO\AppData\Local\Temp\ccgyuR3R.s 			page 14


 604 02be FFF7FEFF 		bl	CyDelay
 605              	.LVL76:
 606              	.L32:
 134:Funciones.c   ****    }
 135:Funciones.c   ****    Password[1]=EEPROM_ReadByte(461);
 607              		.loc 1 135 0
 608 02c2 40F2CD10 		movw	r0, #461
 609 02c6 FFF7FEFF 		bl	EEPROM_ReadByte
 610              	.LVL77:
 611 02ca 2F4C     		ldr	r4, .L52+68
 612 02cc 6070     		strb	r0, [r4, #1]
 136:Funciones.c   ****    CyDelay(50);   
 613              		.loc 1 136 0
 614 02ce 3220     		movs	r0, #50
 615 02d0 FFF7FEFF 		bl	CyDelay
 616              	.LVL78:
 137:Funciones.c   ****    if(Password[1]>9 || Password[1]<0){
 617              		.loc 1 137 0
 618 02d4 6378     		ldrb	r3, [r4, #1]	@ zero_extendqisi2
 619 02d6 092B     		cmp	r3, #9
 620 02d8 08D9     		bls	.L33
 138:Funciones.c   ****       Password[1]=0;
 621              		.loc 1 138 0
 622 02da 0020     		movs	r0, #0
 623 02dc 6070     		strb	r0, [r4, #1]
 139:Funciones.c   ****       EEPROM_WriteByte(0,461);
 624              		.loc 1 139 0
 625 02de 40F2CD11 		movw	r1, #461
 626 02e2 FFF7FEFF 		bl	EEPROM_WriteByte
 627              	.LVL79:
 140:Funciones.c   ****       CyDelay(20);
 628              		.loc 1 140 0
 629 02e6 1420     		movs	r0, #20
 630 02e8 FFF7FEFF 		bl	CyDelay
 631              	.LVL80:
 632              	.L33:
 141:Funciones.c   ****    }
 142:Funciones.c   ****    Password[2]=EEPROM_ReadByte(462);
 633              		.loc 1 142 0
 634 02ec 4FF4E770 		mov	r0, #462
 635 02f0 FFF7FEFF 		bl	EEPROM_ReadByte
 636              	.LVL81:
 637 02f4 244C     		ldr	r4, .L52+68
 638 02f6 A070     		strb	r0, [r4, #2]
 143:Funciones.c   ****    CyDelay(50);   
 639              		.loc 1 143 0
 640 02f8 3220     		movs	r0, #50
 641 02fa FFF7FEFF 		bl	CyDelay
 642              	.LVL82:
 144:Funciones.c   ****    if(Password[2]>9 || Password[2]<0){
 643              		.loc 1 144 0
 644 02fe A378     		ldrb	r3, [r4, #2]	@ zero_extendqisi2
 645 0300 092B     		cmp	r3, #9
 646 0302 08D9     		bls	.L34
 145:Funciones.c   ****       Password[2]=0;
 647              		.loc 1 145 0
 648 0304 0020     		movs	r0, #0
ARM GAS  C:\Users\USUARIO\AppData\Local\Temp\ccgyuR3R.s 			page 15


 649 0306 A070     		strb	r0, [r4, #2]
 146:Funciones.c   ****       EEPROM_WriteByte(0,462);
 650              		.loc 1 146 0
 651 0308 4FF4E771 		mov	r1, #462
 652 030c FFF7FEFF 		bl	EEPROM_WriteByte
 653              	.LVL83:
 147:Funciones.c   ****       CyDelay(20);
 654              		.loc 1 147 0
 655 0310 1420     		movs	r0, #20
 656 0312 FFF7FEFF 		bl	CyDelay
 657              	.LVL84:
 658              	.L34:
 148:Funciones.c   ****    }
 149:Funciones.c   ****    Password[3]=EEPROM_ReadByte(463);
 659              		.loc 1 149 0
 660 0316 40F2CF10 		movw	r0, #463
 661 031a FFF7FEFF 		bl	EEPROM_ReadByte
 662              	.LVL85:
 663 031e 1A4C     		ldr	r4, .L52+68
 664 0320 E070     		strb	r0, [r4, #3]
 150:Funciones.c   ****    CyDelay(50);
 665              		.loc 1 150 0
 666 0322 3220     		movs	r0, #50
 667 0324 FFF7FEFF 		bl	CyDelay
 668              	.LVL86:
 151:Funciones.c   ****    if(Password[3]>9 || Password[3]<0){
 669              		.loc 1 151 0
 670 0328 E378     		ldrb	r3, [r4, #3]	@ zero_extendqisi2
 671 032a 092B     		cmp	r3, #9
 672 032c 2ED9     		bls	.L35
 152:Funciones.c   ****       Password[3]=0;
 673              		.loc 1 152 0
 674 032e 0020     		movs	r0, #0
 675 0330 E070     		strb	r0, [r4, #3]
 153:Funciones.c   ****       EEPROM_WriteByte(0,463);
 676              		.loc 1 153 0
 677 0332 40F2CF11 		movw	r1, #463
 678 0336 FFF7FEFF 		bl	EEPROM_WriteByte
 679              	.LVL87:
 154:Funciones.c   ****       CyDelay(20);
 680              		.loc 1 154 0
 681 033a 1420     		movs	r0, #20
 682 033c FFF7FEFF 		bl	CyDelay
 683              	.LVL88:
 684 0340 24E0     		b	.L53
 685              	.L54:
 686 0342 00BF     		.align	2
 687              	.L52:
 688 0344 00000000 		.word	i
 689 0348 00000000 		.word	Temperatura1
 690 034c 00000000 		.word	Horas1
 691 0350 00000000 		.word	Minutos1
 692 0354 00000000 		.word	Ganancia
 693 0358 00002042 		.word	1109393408
 694 035c 00004040 		.word	1077936128
 695 0360 00000000 		.word	GananciaIn
 696 0364 00000000 		.word	Tciclo
ARM GAS  C:\Users\USUARIO\AppData\Local\Temp\ccgyuR3R.s 			page 16


 697 0368 00000000 		.word	Ajuste
 698 036c 00000000 		.word	Ajusten
 699 0370 00000000 		.word	MediaMovil
 700 0374 00000000 		.word	Coeficiente
 701 0378 00000000 		.word	penMufla
 702 037c 00001643 		.word	1125515264
 703 0380 00002041 		.word	1092616192
 704 0384 00004842 		.word	1112014848
 705 0388 00000000 		.word	Password
 706              	.L53:
 707              	.L35:
 155:Funciones.c   ****    }
 156:Funciones.c   **** 
 157:Funciones.c   ****    Tempocp[0]=EEPROM_ReadByte(465);
 708              		.loc 1 157 0
 709 038c 40F2D110 		movw	r0, #465
 710 0390 FFF7FEFF 		bl	EEPROM_ReadByte
 711              	.LVL89:
 712 0394 9C4C     		ldr	r4, .L55+8
 713 0396 2070     		strb	r0, [r4]
 158:Funciones.c   ****    CyDelay(50);
 714              		.loc 1 158 0
 715 0398 3220     		movs	r0, #50
 716 039a FFF7FEFF 		bl	CyDelay
 717              	.LVL90:
 159:Funciones.c   ****    if(Tempocp[0]>9 || Tempocp[0]<0){
 718              		.loc 1 159 0
 719 039e 2378     		ldrb	r3, [r4]	@ zero_extendqisi2
 720 03a0 092B     		cmp	r3, #9
 721 03a2 08D9     		bls	.L36
 160:Funciones.c   ****       Tempocp[0]=0;
 722              		.loc 1 160 0
 723 03a4 0020     		movs	r0, #0
 724 03a6 2070     		strb	r0, [r4]
 161:Funciones.c   ****       EEPROM_WriteByte(0,465);
 725              		.loc 1 161 0
 726 03a8 40F2D111 		movw	r1, #465
 727 03ac FFF7FEFF 		bl	EEPROM_WriteByte
 728              	.LVL91:
 162:Funciones.c   ****       CyDelay(20);
 729              		.loc 1 162 0
 730 03b0 1420     		movs	r0, #20
 731 03b2 FFF7FEFF 		bl	CyDelay
 732              	.LVL92:
 733              	.L36:
 163:Funciones.c   ****    } 
 164:Funciones.c   ****    
 165:Funciones.c   ****    Tempocp[1]=EEPROM_ReadByte(466);
 734              		.loc 1 165 0
 735 03b6 4FF4E970 		mov	r0, #466
 736 03ba FFF7FEFF 		bl	EEPROM_ReadByte
 737              	.LVL93:
 738 03be 924C     		ldr	r4, .L55+8
 739 03c0 6070     		strb	r0, [r4, #1]
 166:Funciones.c   ****    CyDelay(50);
 740              		.loc 1 166 0
 741 03c2 3220     		movs	r0, #50
ARM GAS  C:\Users\USUARIO\AppData\Local\Temp\ccgyuR3R.s 			page 17


 742 03c4 FFF7FEFF 		bl	CyDelay
 743              	.LVL94:
 167:Funciones.c   ****    if(Tempocp[1]>9 || Tempocp[1]<0){
 744              		.loc 1 167 0
 745 03c8 6378     		ldrb	r3, [r4, #1]	@ zero_extendqisi2
 746 03ca 092B     		cmp	r3, #9
 747 03cc 08D9     		bls	.L37
 168:Funciones.c   ****       Tempocp[1]=1;
 748              		.loc 1 168 0
 749 03ce 0120     		movs	r0, #1
 750 03d0 6070     		strb	r0, [r4, #1]
 169:Funciones.c   ****       EEPROM_WriteByte(1,466);
 751              		.loc 1 169 0
 752 03d2 4FF4E971 		mov	r1, #466
 753 03d6 FFF7FEFF 		bl	EEPROM_WriteByte
 754              	.LVL95:
 170:Funciones.c   ****       CyDelay(20);
 755              		.loc 1 170 0
 756 03da 1420     		movs	r0, #20
 757 03dc FFF7FEFF 		bl	CyDelay
 758              	.LVL96:
 759              	.L37:
 171:Funciones.c   ****    } 
 172:Funciones.c   **** 
 173:Funciones.c   ****    Tempocp[2]=EEPROM_ReadByte(467);
 760              		.loc 1 173 0
 761 03e0 40F2D310 		movw	r0, #467
 762 03e4 FFF7FEFF 		bl	EEPROM_ReadByte
 763              	.LVL97:
 764 03e8 874C     		ldr	r4, .L55+8
 765 03ea A070     		strb	r0, [r4, #2]
 174:Funciones.c   ****    CyDelay(50);
 766              		.loc 1 174 0
 767 03ec 3220     		movs	r0, #50
 768 03ee FFF7FEFF 		bl	CyDelay
 769              	.LVL98:
 175:Funciones.c   ****    if(Tempocp[2]>9 || Tempocp[2]<0){
 770              		.loc 1 175 0
 771 03f2 A378     		ldrb	r3, [r4, #2]	@ zero_extendqisi2
 772 03f4 092B     		cmp	r3, #9
 773 03f6 08D9     		bls	.L38
 176:Funciones.c   ****       Tempocp[2]=0;
 774              		.loc 1 176 0
 775 03f8 0020     		movs	r0, #0
 776 03fa A070     		strb	r0, [r4, #2]
 177:Funciones.c   ****       EEPROM_WriteByte(0,467);
 777              		.loc 1 177 0
 778 03fc 40F2D311 		movw	r1, #467
 779 0400 FFF7FEFF 		bl	EEPROM_WriteByte
 780              	.LVL99:
 178:Funciones.c   ****       CyDelay(20);
 781              		.loc 1 178 0
 782 0404 1420     		movs	r0, #20
 783 0406 FFF7FEFF 		bl	CyDelay
 784              	.LVL100:
 785              	.L38:
 179:Funciones.c   ****    } 
ARM GAS  C:\Users\USUARIO\AppData\Local\Temp\ccgyuR3R.s 			page 18


 180:Funciones.c   **** 
 181:Funciones.c   ****    Tempocp[3]=EEPROM_ReadByte(468);
 786              		.loc 1 181 0
 787 040a 4FF4EA70 		mov	r0, #468
 788 040e FFF7FEFF 		bl	EEPROM_ReadByte
 789              	.LVL101:
 790 0412 7D4C     		ldr	r4, .L55+8
 791 0414 E070     		strb	r0, [r4, #3]
 182:Funciones.c   ****    CyDelay(50);
 792              		.loc 1 182 0
 793 0416 3220     		movs	r0, #50
 794 0418 FFF7FEFF 		bl	CyDelay
 795              	.LVL102:
 183:Funciones.c   ****    if(Tempocp[3]>9 || Tempocp[3]<0){
 796              		.loc 1 183 0
 797 041c E378     		ldrb	r3, [r4, #3]	@ zero_extendqisi2
 798 041e 092B     		cmp	r3, #9
 799 0420 08D9     		bls	.L39
 184:Funciones.c   ****       Tempocp[3]=0;
 800              		.loc 1 184 0
 801 0422 0020     		movs	r0, #0
 802 0424 E070     		strb	r0, [r4, #3]
 185:Funciones.c   ****       EEPROM_WriteByte(0,468);
 803              		.loc 1 185 0
 804 0426 4FF4EA71 		mov	r1, #468
 805 042a FFF7FEFF 		bl	EEPROM_WriteByte
 806              	.LVL103:
 186:Funciones.c   ****       CyDelay(20);
 807              		.loc 1 186 0
 808 042e 1420     		movs	r0, #20
 809 0430 FFF7FEFF 		bl	CyDelay
 810              	.LVL104:
 811              	.L39:
 187:Funciones.c   ****    } 
 188:Funciones.c   **** 
 189:Funciones.c   ****    Integral=EEPROM_ReadByte(470);
 812              		.loc 1 189 0
 813 0434 4FF4EB70 		mov	r0, #470
 814 0438 FFF7FEFF 		bl	EEPROM_ReadByte
 815              	.LVL105:
 816 043c 734C     		ldr	r4, .L55+12
 817 043e 2070     		strb	r0, [r4]
 190:Funciones.c   ****    CyDelay(50); 
 818              		.loc 1 190 0
 819 0440 3220     		movs	r0, #50
 820 0442 FFF7FEFF 		bl	CyDelay
 821              	.LVL106:
 191:Funciones.c   ****    if(Integral>5 || Integral==0){
 822              		.loc 1 191 0
 823 0446 2378     		ldrb	r3, [r4]	@ zero_extendqisi2
 824 0448 013B     		subs	r3, r3, #1
 825 044a DBB2     		uxtb	r3, r3
 826 044c 042B     		cmp	r3, #4
 827 044e 08D9     		bls	.L40
 192:Funciones.c   ****       Integral=1;
 828              		.loc 1 192 0
 829 0450 0120     		movs	r0, #1
ARM GAS  C:\Users\USUARIO\AppData\Local\Temp\ccgyuR3R.s 			page 19


 830 0452 2070     		strb	r0, [r4]
 193:Funciones.c   ****       EEPROM_WriteByte(1,470);
 831              		.loc 1 193 0
 832 0454 4FF4EB71 		mov	r1, #470
 833 0458 FFF7FEFF 		bl	EEPROM_WriteByte
 834              	.LVL107:
 194:Funciones.c   ****       CyDelay(20);
 835              		.loc 1 194 0
 836 045c 1420     		movs	r0, #20
 837 045e FFF7FEFF 		bl	CyDelay
 838              	.LVL108:
 839              	.L40:
 195:Funciones.c   ****    }
 196:Funciones.c   ****    Derivativo=EEPROM_ReadByte(471);
 840              		.loc 1 196 0
 841 0462 40F2D710 		movw	r0, #471
 842 0466 FFF7FEFF 		bl	EEPROM_ReadByte
 843              	.LVL109:
 844 046a 694C     		ldr	r4, .L55+16
 845 046c 2070     		strb	r0, [r4]
 197:Funciones.c   ****    CyDelay(50); 
 846              		.loc 1 197 0
 847 046e 3220     		movs	r0, #50
 848 0470 FFF7FEFF 		bl	CyDelay
 849              	.LVL110:
 198:Funciones.c   ****    if(Derivativo>40 || Derivativo<5){
 850              		.loc 1 198 0
 851 0474 2378     		ldrb	r3, [r4]	@ zero_extendqisi2
 852 0476 053B     		subs	r3, r3, #5
 853 0478 DBB2     		uxtb	r3, r3
 854 047a 232B     		cmp	r3, #35
 855 047c 08D9     		bls	.L41
 199:Funciones.c   ****       Derivativo=30;
 856              		.loc 1 199 0
 857 047e 1E20     		movs	r0, #30
 858 0480 2070     		strb	r0, [r4]
 200:Funciones.c   ****       EEPROM_WriteByte(30,471);
 859              		.loc 1 200 0
 860 0482 40F2D711 		movw	r1, #471
 861 0486 FFF7FEFF 		bl	EEPROM_WriteByte
 862              	.LVL111:
 201:Funciones.c   ****       CyDelay(20);
 863              		.loc 1 201 0
 864 048a 1420     		movs	r0, #20
 865 048c FFF7FEFF 		bl	CyDelay
 866              	.LVL112:
 867              	.L41:
 202:Funciones.c   ****    }
 203:Funciones.c   ****    AlTem=convert16(EEPROM_ReadByte(473),EEPROM_ReadByte(472));
 868              		.loc 1 203 0
 869 0490 40F2D910 		movw	r0, #473
 870 0494 FFF7FEFF 		bl	EEPROM_ReadByte
 871              	.LVL113:
 872 0498 0446     		mov	r4, r0
 873 049a 4FF4EC70 		mov	r0, #472
 874 049e FFF7FEFF 		bl	EEPROM_ReadByte
 875              	.LVL114:
ARM GAS  C:\Users\USUARIO\AppData\Local\Temp\ccgyuR3R.s 			page 20


 876 04a2 0146     		mov	r1, r0
 877 04a4 2046     		mov	r0, r4
 878 04a6 FFF7FEFF 		bl	convert16
 879              	.LVL115:
 880 04aa 5A4C     		ldr	r4, .L55+20
 881 04ac 2080     		strh	r0, [r4]	@ movhi
 204:Funciones.c   ****    CyDelay(50); 
 882              		.loc 1 204 0
 883 04ae 3220     		movs	r0, #50
 884 04b0 FFF7FEFF 		bl	CyDelay
 885              	.LVL116:
 205:Funciones.c   ****    if(AlTem>500){
 886              		.loc 1 205 0
 887 04b4 2388     		ldrh	r3, [r4]
 888 04b6 B3F5FA7F 		cmp	r3, #500
 889 04ba 10D9     		bls	.L42
 206:Funciones.c   ****       AlTem=200;
 890              		.loc 1 206 0
 891 04bc C820     		movs	r0, #200
 892 04be 2080     		strh	r0, [r4]	@ movhi
 207:Funciones.c   ****       EEPROM_WriteByte(200,472);
 893              		.loc 1 207 0
 894 04c0 4FF4EC71 		mov	r1, #472
 895 04c4 FFF7FEFF 		bl	EEPROM_WriteByte
 896              	.LVL117:
 208:Funciones.c   ****       CyDelay(20);
 897              		.loc 1 208 0
 898 04c8 1420     		movs	r0, #20
 899 04ca FFF7FEFF 		bl	CyDelay
 900              	.LVL118:
 209:Funciones.c   ****       EEPROM_WriteByte(0,473);
 901              		.loc 1 209 0
 902 04ce 40F2D911 		movw	r1, #473
 903 04d2 0020     		movs	r0, #0
 904 04d4 FFF7FEFF 		bl	EEPROM_WriteByte
 905              	.LVL119:
 210:Funciones.c   ****       CyDelay(20);
 906              		.loc 1 210 0
 907 04d8 1420     		movs	r0, #20
 908 04da FFF7FEFF 		bl	CyDelay
 909              	.LVL120:
 910              	.L42:
 211:Funciones.c   ****    }
 212:Funciones.c   ****    //Modo=EEPROM_ReadByte(480);
 213:Funciones.c   ****    //CyDelay(50); 
 214:Funciones.c   ****    m_int=EEPROM_ReadByte(490);
 911              		.loc 1 214 0
 912 04de 4FF4F570 		mov	r0, #490
 913 04e2 FFF7FEFF 		bl	EEPROM_ReadByte
 914              	.LVL121:
 915 04e6 4C4C     		ldr	r4, .L55+24
 916 04e8 2070     		strb	r0, [r4]
 215:Funciones.c   ****    CyDelay(50); 
 917              		.loc 1 215 0
 918 04ea 3220     		movs	r0, #50
 919 04ec FFF7FEFF 		bl	CyDelay
 920              	.LVL122:
ARM GAS  C:\Users\USUARIO\AppData\Local\Temp\ccgyuR3R.s 			page 21


 216:Funciones.c   ****    m_dec=EEPROM_ReadByte(491);
 921              		.loc 1 216 0
 922 04f0 40F2EB10 		movw	r0, #491
 923 04f4 FFF7FEFF 		bl	EEPROM_ReadByte
 924              	.LVL123:
 925 04f8 484D     		ldr	r5, .L55+28
 926 04fa 2870     		strb	r0, [r5]
 217:Funciones.c   ****    CyDelay(50); 
 927              		.loc 1 217 0
 928 04fc 3220     		movs	r0, #50
 929 04fe FFF7FEFF 		bl	CyDelay
 930              	.LVL124:
 218:Funciones.c   ****    m=m_int+((float)m_dec/100);
 931              		.loc 1 218 0
 932 0502 2878     		ldrb	r0, [r5]	@ zero_extendqisi2
 933 0504 FFF7FEFF 		bl	__aeabi_ui2f
 934              	.LVL125:
 935 0508 4549     		ldr	r1, .L55+32
 936 050a FFF7FEFF 		bl	__aeabi_fdiv
 937              	.LVL126:
 938 050e 0546     		mov	r5, r0
 939 0510 2078     		ldrb	r0, [r4]	@ zero_extendqisi2
 940 0512 FFF7FEFF 		bl	__aeabi_i2f
 941              	.LVL127:
 942 0516 2946     		mov	r1, r5
 943 0518 FFF7FEFF 		bl	__aeabi_fadd
 944              	.LVL128:
 945 051c 414B     		ldr	r3, .L55+36
 946 051e 1860     		str	r0, [r3]	@ float
 219:Funciones.c   ****    b16=convert16(EEPROM_ReadByte(493),EEPROM_ReadByte(492));
 947              		.loc 1 219 0
 948 0520 40F2ED10 		movw	r0, #493
 949 0524 FFF7FEFF 		bl	EEPROM_ReadByte
 950              	.LVL129:
 951 0528 0446     		mov	r4, r0
 952 052a 4FF4F670 		mov	r0, #492
 953 052e FFF7FEFF 		bl	EEPROM_ReadByte
 954              	.LVL130:
 955 0532 0146     		mov	r1, r0
 956 0534 2046     		mov	r0, r4
 957 0536 FFF7FEFF 		bl	convert16
 958              	.LVL131:
 959 053a 3B4C     		ldr	r4, .L55+40
 960 053c 2080     		strh	r0, [r4]	@ movhi
 220:Funciones.c   ****    b_dec=EEPROM_ReadByte(494);
 961              		.loc 1 220 0
 962 053e 4FF4F770 		mov	r0, #494
 963 0542 FFF7FEFF 		bl	EEPROM_ReadByte
 964              	.LVL132:
 965 0546 394D     		ldr	r5, .L55+44
 966 0548 2870     		strb	r0, [r5]
 221:Funciones.c   ****    CyDelay(50); 
 967              		.loc 1 221 0
 968 054a 3220     		movs	r0, #50
 969 054c FFF7FEFF 		bl	CyDelay
 970              	.LVL133:
 222:Funciones.c   ****    b=b16+((float)b_dec/100);
ARM GAS  C:\Users\USUARIO\AppData\Local\Temp\ccgyuR3R.s 			page 22


 971              		.loc 1 222 0
 972 0550 2878     		ldrb	r0, [r5]	@ zero_extendqisi2
 973 0552 FFF7FEFF 		bl	__aeabi_ui2f
 974              	.LVL134:
 975 0556 3249     		ldr	r1, .L55+32
 976 0558 FFF7FEFF 		bl	__aeabi_fdiv
 977              	.LVL135:
 978 055c 0546     		mov	r5, r0
 979 055e 2088     		ldrh	r0, [r4]
 980 0560 FFF7FEFF 		bl	__aeabi_i2f
 981              	.LVL136:
 982 0564 2946     		mov	r1, r5
 983 0566 FFF7FEFF 		bl	__aeabi_fadd
 984              	.LVL137:
 985 056a 314B     		ldr	r3, .L55+48
 986 056c 1860     		str	r0, [r3]	@ float
 223:Funciones.c   ****    if(b>200){
 987              		.loc 1 223 0
 988 056e 3149     		ldr	r1, .L55+52
 989 0570 FFF7FEFF 		bl	__aeabi_fcmpgt
 990              	.LVL138:
 991 0574 D0B1     		cbz	r0, .L43
 224:Funciones.c   ****       b=0;
 992              		.loc 1 224 0
 993 0576 0022     		movs	r2, #0
 994 0578 2D4B     		ldr	r3, .L55+48
 995 057a 1A60     		str	r2, [r3]	@ float
 225:Funciones.c   ****       EEPROM_WriteByte(0,492);
 996              		.loc 1 225 0
 997 057c 4FF4F671 		mov	r1, #492
 998 0580 0020     		movs	r0, #0
 999 0582 FFF7FEFF 		bl	EEPROM_WriteByte
 1000              	.LVL139:
 226:Funciones.c   ****       CyDelay(10);
 1001              		.loc 1 226 0
 1002 0586 0A20     		movs	r0, #10
 1003 0588 FFF7FEFF 		bl	CyDelay
 1004              	.LVL140:
 227:Funciones.c   ****       EEPROM_WriteByte(0,493);
 1005              		.loc 1 227 0
 1006 058c 40F2ED11 		movw	r1, #493
 1007 0590 0020     		movs	r0, #0
 1008 0592 FFF7FEFF 		bl	EEPROM_WriteByte
 1009              	.LVL141:
 228:Funciones.c   ****       CyDelay(10);
 1010              		.loc 1 228 0
 1011 0596 0A20     		movs	r0, #10
 1012 0598 FFF7FEFF 		bl	CyDelay
 1013              	.LVL142:
 229:Funciones.c   ****       EEPROM_WriteByte(66,494);
 1014              		.loc 1 229 0
 1015 059c 4FF4F771 		mov	r1, #494
 1016 05a0 4220     		movs	r0, #66
 1017 05a2 FFF7FEFF 		bl	EEPROM_WriteByte
 1018              	.LVL143:
 230:Funciones.c   ****       CyDelay(10);
 1019              		.loc 1 230 0
ARM GAS  C:\Users\USUARIO\AppData\Local\Temp\ccgyuR3R.s 			page 23


 1020 05a6 0A20     		movs	r0, #10
 1021 05a8 FFF7FEFF 		bl	CyDelay
 1022              	.LVL144:
 1023              	.L43:
 231:Funciones.c   ****    }
 232:Funciones.c   ****    if(m<0.1 || m>2.0){
 1024              		.loc 1 232 0
 1025 05ac 1D4B     		ldr	r3, .L55+36
 1026 05ae 1C68     		ldr	r4, [r3]	@ float
 1027 05b0 2046     		mov	r0, r4
 1028 05b2 FFF7FEFF 		bl	__aeabi_f2d
 1029              	.LVL145:
 1030 05b6 12A3     		adr	r3, .L55
 1031 05b8 D3E90023 		ldrd	r2, [r3]
 1032 05bc FFF7FEFF 		bl	__aeabi_dcmplt
 1033              	.LVL146:
 1034 05c0 28B9     		cbnz	r0, .L45
 1035              		.loc 1 232 0 is_stmt 0 discriminator 1
 1036 05c2 4FF08041 		mov	r1, #1073741824
 1037 05c6 2046     		mov	r0, r4
 1038 05c8 FFF7FEFF 		bl	__aeabi_fcmpgt
 1039              	.LVL147:
 1040 05cc 98B1     		cbz	r0, .L14
 1041              	.L45:
 233:Funciones.c   ****       m=1.0;
 1042              		.loc 1 233 0 is_stmt 1
 1043 05ce 4FF07E52 		mov	r2, #1065353216
 1044 05d2 144B     		ldr	r3, .L55+36
 1045 05d4 1A60     		str	r2, [r3]	@ float
 234:Funciones.c   ****       EEPROM_WriteByte(1,490);
 1046              		.loc 1 234 0
 1047 05d6 4FF4F571 		mov	r1, #490
 1048 05da 0120     		movs	r0, #1
 1049 05dc FFF7FEFF 		bl	EEPROM_WriteByte
 1050              	.LVL148:
 235:Funciones.c   ****       CyDelay(10);
 1051              		.loc 1 235 0
 1052 05e0 0A20     		movs	r0, #10
 1053 05e2 FFF7FEFF 		bl	CyDelay
 1054              	.LVL149:
 236:Funciones.c   ****       EEPROM_WriteByte(0,491);
 1055              		.loc 1 236 0
 1056 05e6 40F2EB11 		movw	r1, #491
 1057 05ea 0020     		movs	r0, #0
 1058 05ec FFF7FEFF 		bl	EEPROM_WriteByte
 1059              	.LVL150:
 237:Funciones.c   ****       CyDelay(10);
 1060              		.loc 1 237 0
 1061 05f0 0A20     		movs	r0, #10
 1062 05f2 FFF7FEFF 		bl	CyDelay
 1063              	.LVL151:
 1064              	.L14:
 1065 05f6 BDE8F087 		pop	{r4, r5, r6, r7, r8, r9, r10, pc}
 1066              	.LVL152:
 1067              	.L56:
 1068 05fa 00BFAFF3 		.align	3
 1068      0080
ARM GAS  C:\Users\USUARIO\AppData\Local\Temp\ccgyuR3R.s 			page 24


 1069              	.L55:
 1070 0600 9A999999 		.word	-1717986918
 1071 0604 9999B93F 		.word	1069128089
 1072 0608 00000000 		.word	Tempocp
 1073 060c 00000000 		.word	Integral
 1074 0610 00000000 		.word	Derivativo
 1075 0614 00000000 		.word	AlTem
 1076 0618 00000000 		.word	m_int
 1077 061c 00000000 		.word	m_dec
 1078 0620 0000C842 		.word	1120403456
 1079 0624 00000000 		.word	m
 1080 0628 00000000 		.word	b16
 1081 062c 00000000 		.word	b_dec
 1082 0630 00000000 		.word	b
 1083 0634 00004843 		.word	1128792064
 1084              		.cfi_endproc
 1085              	.LFE68:
 1086              		.size	leeEEPROM, .-leeEEPROM
 1087              		.section	.text.PidePassword,"ax",%progbits
 1088              		.align	2
 1089              		.global	PidePassword
 1090              		.thumb
 1091              		.thumb_func
 1092              		.type	PidePassword, %function
 1093              	PidePassword:
 1094              	.LFB69:
 238:Funciones.c   ****    }
 239:Funciones.c   **** }
 240:Funciones.c   **** 
 241:Funciones.c   **** 
 242:Funciones.c   **** short PidePassword(uint8 MenuAnt, uint8 MenuActual, uint8 MenuPost, uint8 clave0,uint8 clave1, uint
 1095              		.loc 1 242 0
 1096              		.cfi_startproc
 1097              		@ args = 12, pretend = 0, frame = 0
 1098              		@ frame_needed = 0, uses_anonymous_args = 0
 1099              	.LVL153:
 1100 0000 2DE9F047 		push	{r4, r5, r6, r7, r8, r9, r10, lr}
 1101              		.cfi_def_cfa_offset 32
 1102              		.cfi_offset 4, -32
 1103              		.cfi_offset 5, -28
 1104              		.cfi_offset 6, -24
 1105              		.cfi_offset 7, -20
 1106              		.cfi_offset 8, -16
 1107              		.cfi_offset 9, -12
 1108              		.cfi_offset 10, -8
 1109              		.cfi_offset 14, -4
 1110 0004 82B0     		sub	sp, sp, #8
 1111              		.cfi_def_cfa_offset 40
 1112 0006 0446     		mov	r4, r0
 1113 0008 1646     		mov	r6, r2
 1114 000a 1D46     		mov	r5, r3
 1115              	.LVL154:
 243:Funciones.c   ****       MenuActual=0;
 244:Funciones.c   ****       if(n==0){
 1116              		.loc 1 244 0
 1117 000c B64B     		ldr	r3, .L84
 1118              	.LVL155:
ARM GAS  C:\Users\USUARIO\AppData\Local\Temp\ccgyuR3R.s 			page 25


 1119 000e 1B78     		ldrb	r3, [r3]	@ zero_extendqisi2
 1120 0010 4BBB     		cbnz	r3, .L58
 245:Funciones.c   ****          displayContrasena(Contrasena[0],20,30,1);displayContrasena(Contrasena[1],40,30,0);
 1121              		.loc 1 245 0
 1122 0012 B64F     		ldr	r7, .L84+4
 1123 0014 0123     		movs	r3, #1
 1124 0016 1E22     		movs	r2, #30
 1125              	.LVL156:
 1126 0018 1421     		movs	r1, #20
 1127 001a 3878     		ldrb	r0, [r7]	@ zero_extendqisi2
 1128              	.LVL157:
 1129 001c FFF7FEFF 		bl	displayContrasena
 1130              	.LVL158:
 1131 0020 0023     		movs	r3, #0
 1132 0022 1E22     		movs	r2, #30
 1133 0024 2821     		movs	r1, #40
 1134 0026 7878     		ldrb	r0, [r7, #1]	@ zero_extendqisi2
 1135 0028 FFF7FEFF 		bl	displayContrasena
 1136              	.LVL159:
 246:Funciones.c   ****          displayContrasena(Contrasena[2],60,30,0);displayContrasena(Contrasena[0],80,30,0);
 1137              		.loc 1 246 0
 1138 002c 0023     		movs	r3, #0
 1139 002e 1E22     		movs	r2, #30
 1140 0030 3C21     		movs	r1, #60
 1141 0032 B878     		ldrb	r0, [r7, #2]	@ zero_extendqisi2
 1142 0034 FFF7FEFF 		bl	displayContrasena
 1143              	.LVL160:
 1144 0038 0023     		movs	r3, #0
 1145 003a 1E22     		movs	r2, #30
 1146 003c 5021     		movs	r1, #80
 1147 003e 3878     		ldrb	r0, [r7]	@ zero_extendqisi2
 1148 0040 FFF7FEFF 		bl	displayContrasena
 1149              	.LVL161:
 247:Funciones.c   ****          strcpy(Menus.Letra,"Clave");
 1150              		.loc 1 247 0
 1151 0044 AA4F     		ldr	r7, .L84+8
 1152 0046 AB4B     		ldr	r3, .L84+12
 1153 0048 1868     		ldr	r0, [r3]	@ unaligned
 1154 004a 3860     		str	r0, [r7]	@ unaligned
 1155 004c 9B88     		ldrh	r3, [r3, #4]	@ unaligned
 1156 004e BB80     		strh	r3, [r7, #4]	@ unaligned
 248:Funciones.c   ****          displayMenu(Menus.Letra,20,0,1,3);
 1157              		.loc 1 248 0
 1158 0050 0323     		movs	r3, #3
 1159 0052 0093     		str	r3, [sp]
 1160 0054 0123     		movs	r3, #1
 1161 0056 0022     		movs	r2, #0
 1162 0058 1421     		movs	r1, #20
 1163 005a 3846     		mov	r0, r7
 1164 005c FFF7FEFF 		bl	displayMenu
 1165              	.LVL162:
 249:Funciones.c   ****          n=1;
 1166              		.loc 1 249 0
 1167 0060 0122     		movs	r2, #1
 1168 0062 A14B     		ldr	r3, .L84
 1169 0064 1A70     		strb	r2, [r3]
 1170              	.L58:
ARM GAS  C:\Users\USUARIO\AppData\Local\Temp\ccgyuR3R.s 			page 26


 250:Funciones.c   ****       }
 251:Funciones.c   ****       
 252:Funciones.c   ****       if(UP_Read()==0){
 1171              		.loc 1 252 0
 1172 0066 FFF7FEFF 		bl	UP_Read
 1173              	.LVL163:
 1174 006a 0028     		cmp	r0, #0
 1175 006c 3DD1     		bne	.L59
 253:Funciones.c   ****          if(Flanco == 0){
 1176              		.loc 1 253 0
 1177 006e A24B     		ldr	r3, .L84+16
 1178 0070 B3F90030 		ldrsh	r3, [r3]
 1179 0074 002B     		cmp	r3, #0
 1180 0076 3BD1     		bne	.L60
 254:Funciones.c   ****             Flanco = 1;CyDelay(200);
 1181              		.loc 1 254 0
 1182 0078 0127     		movs	r7, #1
 1183 007a 9F4B     		ldr	r3, .L84+16
 1184 007c 1F80     		strh	r7, [r3]	@ movhi
 1185 007e C820     		movs	r0, #200
 1186 0080 FFF7FEFF 		bl	CyDelay
 1187              	.LVL164:
 255:Funciones.c   ****             for(i=1;i<=4;i++){
 1188              		.loc 1 255 0
 1189 0084 9D4B     		ldr	r3, .L84+20
 1190 0086 1F70     		strb	r7, [r3]
 1191 0088 2AE0     		b	.L61
 1192              	.L65:
 256:Funciones.c   ****                if(unidad==i){
 1193              		.loc 1 256 0
 1194 008a 9D4A     		ldr	r2, .L84+24
 1195 008c 1278     		ldrb	r2, [r2]	@ zero_extendqisi2
 1196 008e 9342     		cmp	r3, r2
 1197 0090 16D1     		bne	.L62
 257:Funciones.c   ****                   Contrasena[i-1]++;
 1198              		.loc 1 257 0
 1199 0092 581E     		subs	r0, r3, #1
 1200 0094 9549     		ldr	r1, .L84+4
 1201 0096 0A56     		ldrsb	r2, [r1, r0]
 1202 0098 0132     		adds	r2, r2, #1
 1203 009a 52B2     		sxtb	r2, r2
 1204 009c 0A54     		strb	r2, [r1, r0]
 258:Funciones.c   ****                   if(Contrasena[i-1]>9){
 1205              		.loc 1 258 0
 1206 009e 092A     		cmp	r2, #9
 1207 00a0 02DD     		ble	.L63
 259:Funciones.c   ****                      Contrasena[i-1]=0;
 1208              		.loc 1 259 0
 1209 00a2 0021     		movs	r1, #0
 1210 00a4 914A     		ldr	r2, .L84+4
 1211 00a6 1154     		strb	r1, [r2, r0]
 1212              	.L63:
 260:Funciones.c   ****                   }
 261:Funciones.c   ****                   displayContrasena(Contrasena[i-1],i*20,30,1);
 1213              		.loc 1 261 0
 1214 00a8 03EB8303 		add	r3, r3, r3, lsl #2
 1215 00ac 9900     		lsls	r1, r3, #2
ARM GAS  C:\Users\USUARIO\AppData\Local\Temp\ccgyuR3R.s 			page 27


 1216 00ae 0123     		movs	r3, #1
 1217 00b0 1E22     		movs	r2, #30
 1218 00b2 01F0FC01 		and	r1, r1, #252
 1219 00b6 8D4F     		ldr	r7, .L84+4
 1220 00b8 385C     		ldrb	r0, [r7, r0]	@ zero_extendqisi2
 1221 00ba FFF7FEFF 		bl	displayContrasena
 1222              	.LVL165:
 1223 00be 0BE0     		b	.L64
 1224              	.L62:
 262:Funciones.c   ****                }else{
 263:Funciones.c   ****                   displayContrasena(Contrasena[i-1],i*20,30,0);
 1225              		.loc 1 263 0
 1226 00c0 581E     		subs	r0, r3, #1
 1227 00c2 03EB8303 		add	r3, r3, r3, lsl #2
 1228 00c6 9900     		lsls	r1, r3, #2
 1229 00c8 0023     		movs	r3, #0
 1230 00ca 1E22     		movs	r2, #30
 1231 00cc 01F0FC01 		and	r1, r1, #252
 1232 00d0 864F     		ldr	r7, .L84+4
 1233 00d2 385C     		ldrb	r0, [r7, r0]	@ zero_extendqisi2
 1234 00d4 FFF7FEFF 		bl	displayContrasena
 1235              	.LVL166:
 1236              	.L64:
 255:Funciones.c   ****                if(unidad==i){
 1237              		.loc 1 255 0 discriminator 2
 1238 00d8 884A     		ldr	r2, .L84+20
 1239 00da 1378     		ldrb	r3, [r2]	@ zero_extendqisi2
 1240 00dc 0133     		adds	r3, r3, #1
 1241 00de 1370     		strb	r3, [r2]
 1242              	.L61:
 255:Funciones.c   ****                if(unidad==i){
 1243              		.loc 1 255 0 is_stmt 0 discriminator 1
 1244 00e0 864B     		ldr	r3, .L84+20
 1245 00e2 1B78     		ldrb	r3, [r3]	@ zero_extendqisi2
 1246 00e4 042B     		cmp	r3, #4
 1247 00e6 D0D9     		bls	.L65
 1248 00e8 02E0     		b	.L60
 1249              	.L59:
 264:Funciones.c   ****                }
 265:Funciones.c   ****             }
 266:Funciones.c   ****          }
 267:Funciones.c   ****       }else{
 268:Funciones.c   ****          Flanco = 0;
 1250              		.loc 1 268 0 is_stmt 1
 1251 00ea 0022     		movs	r2, #0
 1252 00ec 824B     		ldr	r3, .L84+16
 1253 00ee 1A80     		strh	r2, [r3]	@ movhi
 1254              	.L60:
 269:Funciones.c   ****       }
 270:Funciones.c   ****             
 271:Funciones.c   ****       if(DOWN_Read()==0){
 1255              		.loc 1 271 0
 1256 00f0 FFF7FEFF 		bl	DOWN_Read
 1257              	.LVL167:
 1258 00f4 0028     		cmp	r0, #0
 1259 00f6 3DD1     		bne	.L66
 272:Funciones.c   ****          if(Flanco2 == 0){
ARM GAS  C:\Users\USUARIO\AppData\Local\Temp\ccgyuR3R.s 			page 28


 1260              		.loc 1 272 0
 1261 00f8 824B     		ldr	r3, .L84+28
 1262 00fa B3F90030 		ldrsh	r3, [r3]
 1263 00fe 002B     		cmp	r3, #0
 1264 0100 3BD1     		bne	.L67
 273:Funciones.c   ****             Flanco2 = 1;CyDelay(200);
 1265              		.loc 1 273 0
 1266 0102 0127     		movs	r7, #1
 1267 0104 7F4B     		ldr	r3, .L84+28
 1268 0106 1F80     		strh	r7, [r3]	@ movhi
 1269 0108 C820     		movs	r0, #200
 1270 010a FFF7FEFF 		bl	CyDelay
 1271              	.LVL168:
 274:Funciones.c   ****             for(i=1;i<=4;i++){
 1272              		.loc 1 274 0
 1273 010e 7B4B     		ldr	r3, .L84+20
 1274 0110 1F70     		strb	r7, [r3]
 1275 0112 2AE0     		b	.L68
 1276              	.L72:
 275:Funciones.c   ****                if(unidad==i){
 1277              		.loc 1 275 0
 1278 0114 7A4A     		ldr	r2, .L84+24
 1279 0116 1278     		ldrb	r2, [r2]	@ zero_extendqisi2
 1280 0118 9342     		cmp	r3, r2
 1281 011a 16D1     		bne	.L69
 276:Funciones.c   ****                   Contrasena[i-1]--;
 1282              		.loc 1 276 0
 1283 011c 581E     		subs	r0, r3, #1
 1284 011e 7349     		ldr	r1, .L84+4
 1285 0120 0A56     		ldrsb	r2, [r1, r0]
 1286 0122 013A     		subs	r2, r2, #1
 1287 0124 52B2     		sxtb	r2, r2
 1288 0126 0A54     		strb	r2, [r1, r0]
 277:Funciones.c   ****                   if(Contrasena[i-1]<0){
 1289              		.loc 1 277 0
 1290 0128 002A     		cmp	r2, #0
 1291 012a 02DA     		bge	.L70
 278:Funciones.c   ****                      Contrasena[i-1]=9;
 1292              		.loc 1 278 0
 1293 012c 0921     		movs	r1, #9
 1294 012e 6F4A     		ldr	r2, .L84+4
 1295 0130 1154     		strb	r1, [r2, r0]
 1296              	.L70:
 279:Funciones.c   ****                   }
 280:Funciones.c   ****                   displayContrasena(Contrasena[i-1],i*20,30,1);
 1297              		.loc 1 280 0
 1298 0132 03EB8303 		add	r3, r3, r3, lsl #2
 1299 0136 9900     		lsls	r1, r3, #2
 1300 0138 0123     		movs	r3, #1
 1301 013a 1E22     		movs	r2, #30
 1302 013c 01F0FC01 		and	r1, r1, #252
 1303 0140 6A4F     		ldr	r7, .L84+4
 1304 0142 385C     		ldrb	r0, [r7, r0]	@ zero_extendqisi2
 1305 0144 FFF7FEFF 		bl	displayContrasena
 1306              	.LVL169:
 1307 0148 0BE0     		b	.L71
 1308              	.L69:
ARM GAS  C:\Users\USUARIO\AppData\Local\Temp\ccgyuR3R.s 			page 29


 281:Funciones.c   ****                }else{
 282:Funciones.c   ****                   displayContrasena(Contrasena[i-1],i*20,30,0);
 1309              		.loc 1 282 0
 1310 014a 581E     		subs	r0, r3, #1
 1311 014c 03EB8303 		add	r3, r3, r3, lsl #2
 1312 0150 9900     		lsls	r1, r3, #2
 1313 0152 0023     		movs	r3, #0
 1314 0154 1E22     		movs	r2, #30
 1315 0156 01F0FC01 		and	r1, r1, #252
 1316 015a 644F     		ldr	r7, .L84+4
 1317 015c 385C     		ldrb	r0, [r7, r0]	@ zero_extendqisi2
 1318 015e FFF7FEFF 		bl	displayContrasena
 1319              	.LVL170:
 1320              	.L71:
 274:Funciones.c   ****                if(unidad==i){
 1321              		.loc 1 274 0 discriminator 2
 1322 0162 664A     		ldr	r2, .L84+20
 1323 0164 1378     		ldrb	r3, [r2]	@ zero_extendqisi2
 1324 0166 0133     		adds	r3, r3, #1
 1325 0168 1370     		strb	r3, [r2]
 1326              	.L68:
 274:Funciones.c   ****                if(unidad==i){
 1327              		.loc 1 274 0 is_stmt 0 discriminator 1
 1328 016a 644B     		ldr	r3, .L84+20
 1329 016c 1B78     		ldrb	r3, [r3]	@ zero_extendqisi2
 1330 016e 042B     		cmp	r3, #4
 1331 0170 D0D9     		bls	.L72
 1332 0172 02E0     		b	.L67
 1333              	.L66:
 283:Funciones.c   ****                }
 284:Funciones.c   ****             }      
 285:Funciones.c   ****          }     
 286:Funciones.c   ****       }else{
 287:Funciones.c   ****          Flanco2 = 0;
 1334              		.loc 1 287 0 is_stmt 1
 1335 0174 0022     		movs	r2, #0
 1336 0176 634B     		ldr	r3, .L84+28
 1337 0178 1A80     		strh	r2, [r3]	@ movhi
 1338              	.L67:
 288:Funciones.c   ****       }
 289:Funciones.c   ****             
 290:Funciones.c   ****       if(RIGHT_Read()==0){
 1339              		.loc 1 290 0
 1340 017a FFF7FEFF 		bl	RIGHT_Read
 1341              	.LVL171:
 1342 017e 0028     		cmp	r0, #0
 1343 0180 37D1     		bne	.L73
 291:Funciones.c   ****          if(Flanco1 == 0){
 1344              		.loc 1 291 0
 1345 0182 614B     		ldr	r3, .L84+32
 1346 0184 B3F90030 		ldrsh	r3, [r3]
 1347 0188 002B     		cmp	r3, #0
 1348 018a 35D1     		bne	.L74
 292:Funciones.c   ****             Flanco1 = 1;CyDelay(200);unidad++;
 1349              		.loc 1 292 0
 1350 018c 0127     		movs	r7, #1
 1351 018e 5E4B     		ldr	r3, .L84+32
ARM GAS  C:\Users\USUARIO\AppData\Local\Temp\ccgyuR3R.s 			page 30


 1352 0190 1F80     		strh	r7, [r3]	@ movhi
 1353 0192 C820     		movs	r0, #200
 1354 0194 FFF7FEFF 		bl	CyDelay
 1355              	.LVL172:
 1356 0198 594A     		ldr	r2, .L84+24
 1357 019a 1378     		ldrb	r3, [r2]	@ zero_extendqisi2
 1358 019c 3B44     		add	r3, r3, r7
 1359 019e 1370     		strb	r3, [r2]
 293:Funciones.c   ****             for(i=1;i<=4;i++){
 1360              		.loc 1 293 0
 1361 01a0 564B     		ldr	r3, .L84+20
 1362 01a2 1F70     		strb	r7, [r3]
 1363 01a4 20E0     		b	.L75
 1364              	.L78:
 294:Funciones.c   ****                if(unidad==i){
 1365              		.loc 1 294 0
 1366 01a6 564A     		ldr	r2, .L84+24
 1367 01a8 1278     		ldrb	r2, [r2]	@ zero_extendqisi2
 1368 01aa 9342     		cmp	r3, r2
 1369 01ac 0CD1     		bne	.L76
 295:Funciones.c   ****                   displayContrasena(Contrasena[i-1],i*20,30,1);
 1370              		.loc 1 295 0
 1371 01ae 581E     		subs	r0, r3, #1
 1372 01b0 03EB8303 		add	r3, r3, r3, lsl #2
 1373 01b4 9900     		lsls	r1, r3, #2
 1374 01b6 0123     		movs	r3, #1
 1375 01b8 1E22     		movs	r2, #30
 1376 01ba 01F0FC01 		and	r1, r1, #252
 1377 01be 4B4F     		ldr	r7, .L84+4
 1378 01c0 385C     		ldrb	r0, [r7, r0]	@ zero_extendqisi2
 1379 01c2 FFF7FEFF 		bl	displayContrasena
 1380              	.LVL173:
 1381 01c6 0BE0     		b	.L77
 1382              	.L76:
 296:Funciones.c   ****                }else{
 297:Funciones.c   ****                   displayContrasena(Contrasena[i-1],i*20,30,0);
 1383              		.loc 1 297 0
 1384 01c8 581E     		subs	r0, r3, #1
 1385 01ca 03EB8303 		add	r3, r3, r3, lsl #2
 1386 01ce 9900     		lsls	r1, r3, #2
 1387 01d0 0023     		movs	r3, #0
 1388 01d2 1E22     		movs	r2, #30
 1389 01d4 01F0FC01 		and	r1, r1, #252
 1390 01d8 444F     		ldr	r7, .L84+4
 1391 01da 385C     		ldrb	r0, [r7, r0]	@ zero_extendqisi2
 1392 01dc FFF7FEFF 		bl	displayContrasena
 1393              	.LVL174:
 1394              	.L77:
 293:Funciones.c   ****                if(unidad==i){
 1395              		.loc 1 293 0 discriminator 2
 1396 01e0 464A     		ldr	r2, .L84+20
 1397 01e2 1378     		ldrb	r3, [r2]	@ zero_extendqisi2
 1398 01e4 0133     		adds	r3, r3, #1
 1399 01e6 1370     		strb	r3, [r2]
 1400              	.L75:
 293:Funciones.c   ****                if(unidad==i){
 1401              		.loc 1 293 0 is_stmt 0 discriminator 1
ARM GAS  C:\Users\USUARIO\AppData\Local\Temp\ccgyuR3R.s 			page 31


 1402 01e8 444B     		ldr	r3, .L84+20
 1403 01ea 1B78     		ldrb	r3, [r3]	@ zero_extendqisi2
 1404 01ec 042B     		cmp	r3, #4
 1405 01ee DAD9     		bls	.L78
 1406 01f0 02E0     		b	.L74
 1407              	.L73:
 298:Funciones.c   ****                }
 299:Funciones.c   ****             }
 300:Funciones.c   ****          }
 301:Funciones.c   ****       }else{
 302:Funciones.c   ****          Flanco1 = 0;
 1408              		.loc 1 302 0 is_stmt 1
 1409 01f2 0022     		movs	r2, #0
 1410 01f4 444B     		ldr	r3, .L84+32
 1411 01f6 1A80     		strh	r2, [r3]	@ movhi
 1412              	.L74:
 303:Funciones.c   ****       }
 304:Funciones.c   ****       
 305:Funciones.c   ****       if(LEFT_Read()==0){
 1413              		.loc 1 305 0
 1414 01f8 FFF7FEFF 		bl	LEFT_Read
 1415              	.LVL175:
 1416 01fc E0B9     		cbnz	r0, .L79
 306:Funciones.c   ****          CyDelay(100);
 1417              		.loc 1 306 0
 1418 01fe 6420     		movs	r0, #100
 1419 0200 FFF7FEFF 		bl	CyDelay
 1420              	.LVL176:
 307:Funciones.c   ****          if(LEFT_Read()==0){
 1421              		.loc 1 307 0
 1422 0204 FFF7FEFF 		bl	LEFT_Read
 1423              	.LVL177:
 1424 0208 B0B9     		cbnz	r0, .L79
 308:Funciones.c   ****             Menu=MenuAnt;glcd_fillScreen(OFF);n=0;Opcion=1;unidad=1;
 1425              		.loc 1 308 0
 1426 020a 404B     		ldr	r3, .L84+36
 1427 020c 1C70     		strb	r4, [r3]
 1428 020e FFF7FEFF 		bl	glcd_fillScreen
 1429              	.LVL178:
 1430 0212 0020     		movs	r0, #0
 1431 0214 344B     		ldr	r3, .L84
 1432 0216 1870     		strb	r0, [r3]
 1433 0218 0125     		movs	r5, #1
 1434 021a 3D4B     		ldr	r3, .L84+40
 1435 021c 1D70     		strb	r5, [r3]
 1436 021e 384B     		ldr	r3, .L84+24
 1437 0220 1D70     		strb	r5, [r3]
 309:Funciones.c   ****             Contrasena[0]=0;Contrasena[1]=0;Contrasena[2]=0;Contrasena[3]=0;
 1438              		.loc 1 309 0
 1439 0222 324B     		ldr	r3, .L84+4
 1440 0224 1870     		strb	r0, [r3]
 1441 0226 5870     		strb	r0, [r3, #1]
 1442 0228 9870     		strb	r0, [r3, #2]
 1443 022a D870     		strb	r0, [r3, #3]
 310:Funciones.c   ****             glcd_fillScreen(OFF);glcd_update();
 1444              		.loc 1 310 0
 1445 022c FFF7FEFF 		bl	glcd_fillScreen
ARM GAS  C:\Users\USUARIO\AppData\Local\Temp\ccgyuR3R.s 			page 32


 1446              	.LVL179:
 1447 0230 FFF7FEFF 		bl	glcd_update
 1448              	.LVL180:
 311:Funciones.c   ****             return 1;
 1449              		.loc 1 311 0
 1450 0234 2846     		mov	r0, r5
 1451 0236 DFE0     		b	.L80
 1452              	.L79:
 312:Funciones.c   ****          }
 313:Funciones.c   ****       }
 314:Funciones.c   ****     
 315:Funciones.c   ****       if(unidad>4){
 1453              		.loc 1 315 0
 1454 0238 314B     		ldr	r3, .L84+24
 1455 023a 1B78     		ldrb	r3, [r3]	@ zero_extendqisi2
 1456 023c 042B     		cmp	r3, #4
 1457 023e 40F2DA80 		bls	.L82
 316:Funciones.c   ****          glcd_fillScreen(OFF);unidad=1;
 1458              		.loc 1 316 0
 1459 0242 0020     		movs	r0, #0
 1460 0244 FFF7FEFF 		bl	glcd_fillScreen
 1461              	.LVL181:
 1462 0248 0122     		movs	r2, #1
 1463 024a 2D4B     		ldr	r3, .L84+24
 1464 024c 1A70     		strb	r2, [r3]
 317:Funciones.c   ****          /*
 318:Funciones.c   ****          if(Contrasena[0]==3&&Contrasena[1]==8&&Contrasena[2]==9&&Contrasena[3]==2 && MenuActual==0
 319:Funciones.c   ****             EEPROM_WriteByte(0,0);CyDelay(20);EEPROM_WriteByte(1,0);CyDelay(20);// Reestablece a co
 320:Funciones.c   ****             EEPROM_WriteByte(2,0);CyDelay(20);EEPROM_WriteByte(3,0);CyDelay(20);
 321:Funciones.c   ****             reset_cpu();
 322:Funciones.c   ****          }
 323:Funciones.c   ****       */
 324:Funciones.c   ****          if((Contrasena[0]==clave0)&&(Contrasena[1]==clave1)&&(Contrasena[2]==clave2)&&(Contrasena[
 1465              		.loc 1 324 0
 1466 024e 274B     		ldr	r3, .L84+4
 1467 0250 93F90030 		ldrsb	r3, [r3]
 1468 0254 AB42     		cmp	r3, r5
 1469 0256 5FD1     		bne	.L81
 1470              		.loc 1 324 0 is_stmt 0 discriminator 1
 1471 0258 244B     		ldr	r3, .L84+4
 1472 025a 93F90120 		ldrsb	r2, [r3, #1]
 1473 025e 9DF82830 		ldrb	r3, [sp, #40]	@ zero_extendqisi2
 1474 0262 9A42     		cmp	r2, r3
 1475 0264 58D1     		bne	.L81
 1476              		.loc 1 324 0 discriminator 2
 1477 0266 214B     		ldr	r3, .L84+4
 1478 0268 93F90220 		ldrsb	r2, [r3, #2]
 1479 026c 9DF82C30 		ldrb	r3, [sp, #44]	@ zero_extendqisi2
 1480 0270 9A42     		cmp	r2, r3
 1481 0272 51D1     		bne	.L81
 1482              		.loc 1 324 0 discriminator 3
 1483 0274 1D4B     		ldr	r3, .L84+4
 1484 0276 93F90320 		ldrsb	r2, [r3, #3]
 1485 027a 9DF83030 		ldrb	r3, [sp, #48]	@ zero_extendqisi2
 1486 027e 9A42     		cmp	r2, r3
 1487 0280 4AD1     		bne	.L81
 325:Funciones.c   ****             glcd_fillScreen(OFF);
ARM GAS  C:\Users\USUARIO\AppData\Local\Temp\ccgyuR3R.s 			page 33


 1488              		.loc 1 325 0 is_stmt 1
 1489 0282 0020     		movs	r0, #0
 1490 0284 FFF7FEFF 		bl	glcd_fillScreen
 1491              	.LVL182:
 326:Funciones.c   ****             strcpy(Menus.Letra,"Clave");
 1492              		.loc 1 326 0
 1493 0288 194C     		ldr	r4, .L84+8
 1494 028a 1A4B     		ldr	r3, .L84+12
 1495 028c 1868     		ldr	r0, [r3]	@ unaligned
 1496 028e 2060     		str	r0, [r4]	@ unaligned
 1497 0290 9B88     		ldrh	r3, [r3, #4]	@ unaligned
 1498 0292 A380     		strh	r3, [r4, #4]	@ unaligned
 327:Funciones.c   ****             displayMenu(Menus.Letra,30,0,0,2);
 1499              		.loc 1 327 0
 1500 0294 0225     		movs	r5, #2
 1501 0296 0095     		str	r5, [sp]
 1502 0298 0023     		movs	r3, #0
 1503 029a 1A46     		mov	r2, r3
 1504 029c 1E21     		movs	r1, #30
 1505 029e 2046     		mov	r0, r4
 1506 02a0 FFF7FEFF 		bl	displayMenu
 1507              	.LVL183:
 328:Funciones.c   ****             strcpy(Menus.Letra,"Correcta");
 1508              		.loc 1 328 0
 1509 02a4 1B4B     		ldr	r3, .L84+44
 1510 02a6 03CB     		ldmia	r3!, {r0, r1}
 1511 02a8 2060     		str	r0, [r4]	@ unaligned
 1512 02aa 6160     		str	r1, [r4, #4]	@ unaligned
 1513 02ac 1B78     		ldrb	r3, [r3]	@ zero_extendqisi2
 1514 02ae 2372     		strb	r3, [r4, #8]
 329:Funciones.c   ****             displayMenu(Menus.Letra,15,30,0,2);
 1515              		.loc 1 329 0
 1516 02b0 0095     		str	r5, [sp]
 1517 02b2 0023     		movs	r3, #0
 1518 02b4 1E22     		movs	r2, #30
 1519 02b6 0F21     		movs	r1, #15
 1520 02b8 2046     		mov	r0, r4
 1521 02ba FFF7FEFF 		bl	displayMenu
 1522              	.LVL184:
 330:Funciones.c   ****             Menu=MenuPost;glcd_update();CyDelay(1000);glcd_fillScreen(OFF);
 1523              		.loc 1 330 0
 1524 02be 134B     		ldr	r3, .L84+36
 1525 02c0 1E70     		strb	r6, [r3]
 1526 02c2 FFF7FEFF 		bl	glcd_update
 1527              	.LVL185:
 1528 02c6 4FF47A70 		mov	r0, #1000
 1529 02ca FFF7FEFF 		bl	CyDelay
 1530              	.LVL186:
 1531 02ce 0020     		movs	r0, #0
 1532 02d0 FFF7FEFF 		bl	glcd_fillScreen
 1533              	.LVL187:
 331:Funciones.c   ****             Contrasena[0]=0;Contrasena[1]=0;Contrasena[2]=0;Contrasena[3]=0;
 1534              		.loc 1 331 0
 1535 02d4 054A     		ldr	r2, .L84+4
 1536 02d6 0023     		movs	r3, #0
 1537 02d8 1370     		strb	r3, [r2]
 1538 02da 5370     		strb	r3, [r2, #1]
ARM GAS  C:\Users\USUARIO\AppData\Local\Temp\ccgyuR3R.s 			page 34


 1539 02dc 9370     		strb	r3, [r2, #2]
 1540 02de D370     		strb	r3, [r2, #3]
 332:Funciones.c   ****             n=0;
 1541              		.loc 1 332 0
 1542 02e0 014A     		ldr	r2, .L84
 1543 02e2 1370     		strb	r3, [r2]
 333:Funciones.c   ****             return 1;
 1544              		.loc 1 333 0
 1545 02e4 0120     		movs	r0, #1
 1546 02e6 87E0     		b	.L80
 1547              	.L85:
 1548              		.align	2
 1549              	.L84:
 1550 02e8 00000000 		.word	n
 1551 02ec 00000000 		.word	Contrasena
 1552 02f0 00000000 		.word	Menus
 1553 02f4 00000000 		.word	.LC0
 1554 02f8 00000000 		.word	Flanco
 1555 02fc 00000000 		.word	i
 1556 0300 00000000 		.word	unidad
 1557 0304 00000000 		.word	Flanco2
 1558 0308 00000000 		.word	Flanco1
 1559 030c 00000000 		.word	Menu
 1560 0310 00000000 		.word	Opcion
 1561 0314 08000000 		.word	.LC1
 1562              	.L81:
 334:Funciones.c   ****          }else{
 335:Funciones.c   ****             glcd_fillScreen(OFF);
 1563              		.loc 1 335 0
 1564 0318 0020     		movs	r0, #0
 1565 031a FFF7FEFF 		bl	glcd_fillScreen
 1566              	.LVL188:
 336:Funciones.c   ****             strcpy(Menus.Letra,"Clave");
 1567              		.loc 1 336 0
 1568 031e 384E     		ldr	r6, .L86
 1569 0320 DFF8F490 		ldr	r9, .L86+24
 1570 0324 D9F80000 		ldr	r0, [r9]	@ unaligned
 1571 0328 3060     		str	r0, [r6]	@ unaligned
 1572 032a B9F804A0 		ldrh	r10, [r9, #4]	@ unaligned
 1573 032e A6F804A0 		strh	r10, [r6, #4]	@ unaligned
 337:Funciones.c   ****             displayMenu(Menus.Letra,30,0,0,2);
 1574              		.loc 1 337 0
 1575 0332 0225     		movs	r5, #2
 1576 0334 0095     		str	r5, [sp]
 1577 0336 0023     		movs	r3, #0
 1578 0338 1A46     		mov	r2, r3
 1579 033a 1E21     		movs	r1, #30
 1580 033c 3046     		mov	r0, r6
 1581 033e FFF7FEFF 		bl	displayMenu
 1582              	.LVL189:
 338:Funciones.c   ****             strcpy(Menus.Letra,"Incorrecta");
 1583              		.loc 1 338 0
 1584 0342 304B     		ldr	r3, .L86+4
 1585 0344 03CB     		ldmia	r3!, {r0, r1}
 1586 0346 3060     		str	r0, [r6]	@ unaligned
 1587 0348 7160     		str	r1, [r6, #4]	@ unaligned
 1588 034a 1A88     		ldrh	r2, [r3]	@ unaligned
ARM GAS  C:\Users\USUARIO\AppData\Local\Temp\ccgyuR3R.s 			page 35


 1589 034c 9B78     		ldrb	r3, [r3, #2]	@ zero_extendqisi2
 1590 034e 3281     		strh	r2, [r6, #8]	@ unaligned
 1591 0350 B372     		strb	r3, [r6, #10]
 339:Funciones.c   ****             displayMenu(Menus.Letra,0,30,0,2);
 1592              		.loc 1 339 0
 1593 0352 0095     		str	r5, [sp]
 1594 0354 0023     		movs	r3, #0
 1595 0356 1E22     		movs	r2, #30
 1596 0358 1946     		mov	r1, r3
 1597 035a 3046     		mov	r0, r6
 1598 035c FFF7FEFF 		bl	displayMenu
 1599              	.LVL190:
 340:Funciones.c   ****             unidad=1;glcd_update();CyDelay(1000);Contrasena[0]=0;Contrasena[1]=0;Contrasena[2]=0;Co
 1600              		.loc 1 340 0
 1601 0360 4FF00108 		mov	r8, #1
 1602 0364 284B     		ldr	r3, .L86+8
 1603 0366 83F80080 		strb	r8, [r3]
 1604 036a FFF7FEFF 		bl	glcd_update
 1605              	.LVL191:
 1606 036e 4FF47A70 		mov	r0, #1000
 1607 0372 FFF7FEFF 		bl	CyDelay
 1608              	.LVL192:
 1609 0376 254F     		ldr	r7, .L86+12
 1610 0378 0025     		movs	r5, #0
 1611 037a 3D70     		strb	r5, [r7]
 1612 037c 7D70     		strb	r5, [r7, #1]
 1613 037e BD70     		strb	r5, [r7, #2]
 1614 0380 FD70     		strb	r5, [r7, #3]
 1615 0382 2846     		mov	r0, r5
 1616 0384 FFF7FEFF 		bl	glcd_fillScreen
 1617              	.LVL193:
 341:Funciones.c   ****             glcd_rect(0, 0, 127, 25, YES, ON);strcpy(Menus.Letra,"Clave");glcd_text57(25, 1, Menus.
 1618              		.loc 1 341 0
 1619 0388 CDF80480 		str	r8, [sp, #4]
 1620 038c CDF80080 		str	r8, [sp]
 1621 0390 1923     		movs	r3, #25
 1622 0392 7F22     		movs	r2, #127
 1623 0394 2946     		mov	r1, r5
 1624 0396 2846     		mov	r0, r5
 1625 0398 FFF7FEFF 		bl	glcd_rect
 1626              	.LVL194:
 1627 039c D9F80000 		ldr	r0, [r9]	@ unaligned
 1628 03a0 3060     		str	r0, [r6]	@ unaligned
 1629 03a2 A6F804A0 		strh	r10, [r6, #4]	@ unaligned
 1630 03a6 0095     		str	r5, [sp]
 1631 03a8 0323     		movs	r3, #3
 1632 03aa 3246     		mov	r2, r6
 1633 03ac 4146     		mov	r1, r8
 1634 03ae 1920     		movs	r0, #25
 1635 03b0 FFF7FEFF 		bl	glcd_text57
 1636              	.LVL195:
 1637 03b4 4346     		mov	r3, r8
 1638 03b6 1E22     		movs	r2, #30
 1639 03b8 1421     		movs	r1, #20
 1640 03ba 3878     		ldrb	r0, [r7]	@ zero_extendqisi2
 1641 03bc FFF7FEFF 		bl	displayContrasena
 1642              	.LVL196:
ARM GAS  C:\Users\USUARIO\AppData\Local\Temp\ccgyuR3R.s 			page 36


 342:Funciones.c   ****             displayContrasena(Contrasena[1],40,30,0);displayContrasena(Contrasena[2],60,30,0);displ
 1643              		.loc 1 342 0
 1644 03c0 2B46     		mov	r3, r5
 1645 03c2 1E22     		movs	r2, #30
 1646 03c4 2821     		movs	r1, #40
 1647 03c6 7878     		ldrb	r0, [r7, #1]	@ zero_extendqisi2
 1648 03c8 FFF7FEFF 		bl	displayContrasena
 1649              	.LVL197:
 1650 03cc 2B46     		mov	r3, r5
 1651 03ce 1E22     		movs	r2, #30
 1652 03d0 3C21     		movs	r1, #60
 1653 03d2 B878     		ldrb	r0, [r7, #2]	@ zero_extendqisi2
 1654 03d4 FFF7FEFF 		bl	displayContrasena
 1655              	.LVL198:
 1656 03d8 2B46     		mov	r3, r5
 1657 03da 1E22     		movs	r2, #30
 1658 03dc 5021     		movs	r1, #80
 1659 03de 3878     		ldrb	r0, [r7]	@ zero_extendqisi2
 1660 03e0 FFF7FEFF 		bl	displayContrasena
 1661              	.LVL199:
 343:Funciones.c   ****             Menu=MenuAnt;glcd_fillScreen(OFF);n=0;
 1662              		.loc 1 343 0
 1663 03e4 0A4B     		ldr	r3, .L86+16
 1664 03e6 1C70     		strb	r4, [r3]
 1665 03e8 2846     		mov	r0, r5
 1666 03ea FFF7FEFF 		bl	glcd_fillScreen
 1667              	.LVL200:
 1668 03ee 094B     		ldr	r3, .L86+20
 1669 03f0 1D70     		strb	r5, [r3]
 344:Funciones.c   ****             return 0;
 1670              		.loc 1 344 0
 1671 03f2 2846     		mov	r0, r5
 1672 03f4 00E0     		b	.L80
 1673              	.L82:
 345:Funciones.c   ****          }
 346:Funciones.c   ****       }else{
 347:Funciones.c   ****         return 0;
 1674              		.loc 1 347 0
 1675 03f6 0020     		movs	r0, #0
 1676              	.L80:
 348:Funciones.c   ****       }
 349:Funciones.c   **** }
 1677              		.loc 1 349 0
 1678 03f8 02B0     		add	sp, sp, #8
 1679              		.cfi_def_cfa_offset 32
 1680              		@ sp needed
 1681 03fa BDE8F087 		pop	{r4, r5, r6, r7, r8, r9, r10, pc}
 1682              	.LVL201:
 1683              	.L87:
 1684 03fe 00BF     		.align	2
 1685              	.L86:
 1686 0400 00000000 		.word	Menus
 1687 0404 14000000 		.word	.LC2
 1688 0408 00000000 		.word	unidad
 1689 040c 00000000 		.word	Contrasena
 1690 0410 00000000 		.word	Menu
 1691 0414 00000000 		.word	n
ARM GAS  C:\Users\USUARIO\AppData\Local\Temp\ccgyuR3R.s 			page 37


 1692 0418 00000000 		.word	.LC0
 1693              		.cfi_endproc
 1694              	.LFE69:
 1695              		.size	PidePassword, .-PidePassword
 1696              		.section	.text.MuestraSegmento,"ax",%progbits
 1697              		.align	2
 1698              		.global	MuestraSegmento
 1699              		.thumb
 1700              		.thumb_func
 1701              		.type	MuestraSegmento, %function
 1702              	MuestraSegmento:
 1703              	.LFB70:
 350:Funciones.c   **** 
 351:Funciones.c   **** void MuestraSegmento(uint8 Opcio,uint8 l,uint8 Prog ){
 1704              		.loc 1 351 0
 1705              		.cfi_startproc
 1706              		@ args = 0, pretend = 0, frame = 0
 1707              		@ frame_needed = 0, uses_anonymous_args = 0
 1708              	.LVL202:
 1709 0000 2DE9F047 		push	{r4, r5, r6, r7, r8, r9, r10, lr}
 1710              		.cfi_def_cfa_offset 32
 1711              		.cfi_offset 4, -32
 1712              		.cfi_offset 5, -28
 1713              		.cfi_offset 6, -24
 1714              		.cfi_offset 7, -20
 1715              		.cfi_offset 8, -16
 1716              		.cfi_offset 9, -12
 1717              		.cfi_offset 10, -8
 1718              		.cfi_offset 14, -4
 1719 0004 82B0     		sub	sp, sp, #8
 1720              		.cfi_def_cfa_offset 40
 1721 0006 8046     		mov	r8, r0
 1722 0008 0F46     		mov	r7, r1
 1723 000a 1646     		mov	r6, r2
 352:Funciones.c   ****          if(Temperatura1[l+((Prog-1)*Pasos)]>1200)
 1724              		.loc 1 352 0
 1725 000c 02F1FF39 		add	r9, r2, #-1
 1726 0010 4FEA0919 		lsl	r9, r9, #4
 1727 0014 01EB0905 		add	r5, r1, r9
 1728 0018 BB4B     		ldr	r3, .L119
 1729 001a 33F91530 		ldrsh	r3, [r3, r5, lsl #1]
 1730 001e B3F5966F 		cmp	r3, #1200
 1731 0022 03DD     		ble	.L89
 353:Funciones.c   ****             Temperatura1[l+((Prog-1)*Pasos)]=0;
 1732              		.loc 1 353 0
 1733 0024 0022     		movs	r2, #0
 1734              	.LVL203:
 1735 0026 B84B     		ldr	r3, .L119
 1736 0028 23F81520 		strh	r2, [r3, r5, lsl #1]	@ movhi
 1737              	.L89:
 354:Funciones.c   ****          
 355:Funciones.c   ****          if(Temperatura1[l+((Prog-1)*Pasos)]<0)
 1738              		.loc 1 355 0
 1739 002c B64B     		ldr	r3, .L119
 1740 002e 33F91530 		ldrsh	r3, [r3, r5, lsl #1]
 1741 0032 002B     		cmp	r3, #0
 1742 0034 04DA     		bge	.L90
ARM GAS  C:\Users\USUARIO\AppData\Local\Temp\ccgyuR3R.s 			page 38


 356:Funciones.c   ****             Temperatura1[l+((Prog-1)*Pasos)]=1200;
 1743              		.loc 1 356 0
 1744 0036 4FF49662 		mov	r2, #1200
 1745 003a B34B     		ldr	r3, .L119
 1746 003c 23F81520 		strh	r2, [r3, r5, lsl #1]	@ movhi
 1747              	.L90:
 357:Funciones.c   ****          
 358:Funciones.c   ****          if(Temperatura1[l+((Prog-1)*Pasos)]>1100)
 1748              		.loc 1 358 0
 1749 0040 B14B     		ldr	r3, .L119
 1750 0042 33F91520 		ldrsh	r2, [r3, r5, lsl #1]
 1751 0046 40F24C43 		movw	r3, #1100
 1752 004a 9A42     		cmp	r2, r3
 1753 004c 03DD     		ble	.L91
 359:Funciones.c   ****             Horas1[l+((Prog-1)*Pasos)]=0;
 1754              		.loc 1 359 0
 1755 004e 0022     		movs	r2, #0
 1756 0050 AE4B     		ldr	r3, .L119+4
 1757 0052 23F81520 		strh	r2, [r3, r5, lsl #1]	@ movhi
 1758              	.L91:
 360:Funciones.c   ****          
 361:Funciones.c   ****          strcpy(Menus.Letra,"P 0");
 1759              		.loc 1 361 0
 1760 0056 AE4C     		ldr	r4, .L119+8
 1761 0058 AE4B     		ldr	r3, .L119+12
 1762 005a 1868     		ldr	r0, [r3]	@ unaligned
 1763              	.LVL204:
 1764 005c 2060     		str	r0, [r4]	@ unaligned
 362:Funciones.c   ****          displayMenu(Menus.Letra,30,0,1,2);
 1765              		.loc 1 362 0
 1766 005e 4FF0020A 		mov	r10, #2
 1767 0062 CDF800A0 		str	r10, [sp]
 1768 0066 0123     		movs	r3, #1
 1769 0068 0022     		movs	r2, #0
 1770 006a 1E21     		movs	r1, #30
 1771              	.LVL205:
 1772 006c 2046     		mov	r0, r4
 1773 006e FFF7FEFF 		bl	displayMenu
 1774              	.LVL206:
 363:Funciones.c   ****          displayTiempo(Prog,68,0,1,2);
 1775              		.loc 1 363 0
 1776 0072 CDF800A0 		str	r10, [sp]
 1777 0076 0123     		movs	r3, #1
 1778 0078 0022     		movs	r2, #0
 1779 007a 4421     		movs	r1, #68
 1780 007c 3046     		mov	r0, r6
 1781 007e FFF7FEFF 		bl	displayTiempo
 1782              	.LVL207:
 364:Funciones.c   ****          
 365:Funciones.c   ****          strcpy(Menus.Letra,"Segmento ");
 1783              		.loc 1 365 0
 1784 0082 A54B     		ldr	r3, .L119+16
 1785 0084 03CB     		ldmia	r3!, {r0, r1}
 1786 0086 2060     		str	r0, [r4]	@ unaligned
 1787 0088 6160     		str	r1, [r4, #4]	@ unaligned
 1788 008a 1B88     		ldrh	r3, [r3]	@ unaligned
 1789 008c 2381     		strh	r3, [r4, #8]	@ unaligned
ARM GAS  C:\Users\USUARIO\AppData\Local\Temp\ccgyuR3R.s 			page 39


 366:Funciones.c   ****          displayMenu(Menus.Letra,0,20,1,1);
 1790              		.loc 1 366 0
 1791 008e 0126     		movs	r6, #1
 1792 0090 0096     		str	r6, [sp]
 1793 0092 3346     		mov	r3, r6
 1794 0094 1422     		movs	r2, #20
 1795 0096 0021     		movs	r1, #0
 1796 0098 2046     		mov	r0, r4
 1797 009a FFF7FEFF 		bl	displayMenu
 1798              	.LVL208:
 367:Funciones.c   ****          displayTiempo(l,63,20,1,1);
 1799              		.loc 1 367 0
 1800 009e 0096     		str	r6, [sp]
 1801 00a0 3346     		mov	r3, r6
 1802 00a2 1422     		movs	r2, #20
 1803 00a4 3F21     		movs	r1, #63
 1804 00a6 3846     		mov	r0, r7
 1805 00a8 FFF7FEFF 		bl	displayTiempo
 1806              	.LVL209:
 368:Funciones.c   ****          
 369:Funciones.c   ****          strcpy(Menus.Letra,"TA:");
 1807              		.loc 1 369 0
 1808 00ac 9B4B     		ldr	r3, .L119+20
 1809 00ae 1868     		ldr	r0, [r3]	@ unaligned
 1810 00b0 2060     		str	r0, [r4]	@ unaligned
 370:Funciones.c   ****          displayMenu(Menus.Letra,80,20,3,1);
 1811              		.loc 1 370 0
 1812 00b2 0096     		str	r6, [sp]
 1813 00b4 0323     		movs	r3, #3
 1814 00b6 1422     		movs	r2, #20
 1815 00b8 5021     		movs	r1, #80
 1816 00ba 2046     		mov	r0, r4
 1817 00bc FFF7FEFF 		bl	displayMenu
 1818              	.LVL210:
 371:Funciones.c   ****          
 372:Funciones.c   ****          if(l>0)
 1819              		.loc 1 372 0
 1820 00c0 57B1     		cbz	r7, .L92
 373:Funciones.c   ****             displayTemperatura(Temperatura1[l-1+((Prog-1)*Pasos)],100,20,1,1);
 1821              		.loc 1 373 0
 1822 00c2 7B1E     		subs	r3, r7, #1
 1823 00c4 4B44     		add	r3, r3, r9
 1824 00c6 904A     		ldr	r2, .L119
 1825 00c8 32F91300 		ldrsh	r0, [r2, r3, lsl #1]
 1826 00cc 3346     		mov	r3, r6
 1827 00ce 0096     		str	r6, [sp]
 1828 00d0 1422     		movs	r2, #20
 1829 00d2 6421     		movs	r1, #100
 1830 00d4 FFF7FEFF 		bl	displayTemperatura
 1831              	.LVL211:
 1832              	.L92:
 374:Funciones.c   ****          
 375:Funciones.c   ****          if(Opcio==1){
 1833              		.loc 1 375 0
 1834 00d8 B8F1010F 		cmp	r8, #1
 1835 00dc 40F0AC80 		bne	.L93
 376:Funciones.c   ****             strcpy(Menus.Letra,"Temperatura:");
ARM GAS  C:\Users\USUARIO\AppData\Local\Temp\ccgyuR3R.s 			page 40


 1836              		.loc 1 376 0
 1837 00e0 8B4C     		ldr	r4, .L119+8
 1838 00e2 8F4B     		ldr	r3, .L119+24
 1839 00e4 07CB     		ldmia	r3!, {r0, r1, r2}
 1840 00e6 2060     		str	r0, [r4]	@ unaligned
 1841 00e8 6160     		str	r1, [r4, #4]	@ unaligned
 1842 00ea A260     		str	r2, [r4, #8]	@ unaligned
 1843 00ec 1B78     		ldrb	r3, [r3]	@ zero_extendqisi2
 1844 00ee 2373     		strb	r3, [r4, #12]
 377:Funciones.c   ****             displayTemps(Menus.Letra,Temperatura1[l+((Prog-1)*Pasos)],0,32,1,1);
 1845              		.loc 1 377 0
 1846 00f0 854B     		ldr	r3, .L119
 1847 00f2 33F81510 		ldrh	r1, [r3, r5, lsl #1]
 1848 00f6 0126     		movs	r6, #1
 1849 00f8 0196     		str	r6, [sp, #4]
 1850 00fa 0096     		str	r6, [sp]
 1851 00fc 2023     		movs	r3, #32
 1852 00fe 0022     		movs	r2, #0
 1853 0100 2046     		mov	r0, r4
 1854 0102 FFF7FEFF 		bl	displayTemps
 1855              	.LVL212:
 378:Funciones.c   ****             strcpy(Menus.Letra,"Horas:");
 1856              		.loc 1 378 0
 1857 0106 874B     		ldr	r3, .L119+28
 1858 0108 1868     		ldr	r0, [r3]	@ unaligned
 1859 010a 2060     		str	r0, [r4]	@ unaligned
 1860 010c 9A88     		ldrh	r2, [r3, #4]	@ unaligned
 1861 010e 9B79     		ldrb	r3, [r3, #6]	@ zero_extendqisi2
 1862 0110 A280     		strh	r2, [r4, #4]	@ unaligned
 1863 0112 A371     		strb	r3, [r4, #6]
 379:Funciones.c   ****             displayTemps(Menus.Letra,Horas1[l+((Prog-1)*Pasos)],0,44,10,1);
 1864              		.loc 1 379 0
 1865 0114 7D4B     		ldr	r3, .L119+4
 1866 0116 33F81510 		ldrh	r1, [r3, r5, lsl #1]
 1867 011a 0196     		str	r6, [sp, #4]
 1868 011c 4FF00A0A 		mov	r10, #10
 1869 0120 CDF800A0 		str	r10, [sp]
 1870 0124 2C23     		movs	r3, #44
 1871 0126 0022     		movs	r2, #0
 1872 0128 2046     		mov	r0, r4
 1873 012a FFF7FEFF 		bl	displayTemps
 1874              	.LVL213:
 380:Funciones.c   ****             strcpy(Menus.Letra,"Minutos:");
 1875              		.loc 1 380 0
 1876 012e 7E4B     		ldr	r3, .L119+32
 1877 0130 03CB     		ldmia	r3!, {r0, r1}
 1878 0132 2060     		str	r0, [r4]	@ unaligned
 1879 0134 6160     		str	r1, [r4, #4]	@ unaligned
 1880 0136 1B78     		ldrb	r3, [r3]	@ zero_extendqisi2
 1881 0138 2372     		strb	r3, [r4, #8]
 381:Funciones.c   ****             displayTemps(Menus.Letra,Minutos1[l+((Prog-1)*Pasos)],0,55,10,1);
 1882              		.loc 1 381 0
 1883 013a 7C4B     		ldr	r3, .L119+36
 1884 013c 33F81510 		ldrh	r1, [r3, r5, lsl #1]
 1885 0140 0196     		str	r6, [sp, #4]
 1886 0142 CDF800A0 		str	r10, [sp]
 1887 0146 3723     		movs	r3, #55
ARM GAS  C:\Users\USUARIO\AppData\Local\Temp\ccgyuR3R.s 			page 41


 1888 0148 0022     		movs	r2, #0
 1889 014a 2046     		mov	r0, r4
 1890 014c FFF7FEFF 		bl	displayTemps
 1891              	.LVL214:
 382:Funciones.c   ****             if(UP_Read()==0)//Si oprime hacia arriba
 1892              		.loc 1 382 0
 1893 0150 FFF7FEFF 		bl	UP_Read
 1894              	.LVL215:
 1895 0154 90BB     		cbnz	r0, .L94
 383:Funciones.c   ****             {
 384:Funciones.c   ****                BUZZER_Write(1);CyDelay(10);BUZZER_Write(0);
 1896              		.loc 1 384 0
 1897 0156 3046     		mov	r0, r6
 1898 0158 FFF7FEFF 		bl	BUZZER_Write
 1899              	.LVL216:
 1900 015c 5046     		mov	r0, r10
 1901 015e FFF7FEFF 		bl	CyDelay
 1902              	.LVL217:
 1903 0162 0020     		movs	r0, #0
 1904 0164 FFF7FEFF 		bl	BUZZER_Write
 1905              	.LVL218:
 385:Funciones.c   ****                if(tiempoup<4){
 1906              		.loc 1 385 0
 1907 0168 714B     		ldr	r3, .L119+40
 1908 016a 1B88     		ldrh	r3, [r3]
 1909 016c 032B     		cmp	r3, #3
 1910 016e 08D8     		bhi	.L95
 386:Funciones.c   ****                   flagup=1;
 1911              		.loc 1 386 0
 1912 0170 704B     		ldr	r3, .L119+44
 1913 0172 1E80     		strh	r6, [r3]	@ movhi
 387:Funciones.c   ****                   Temperatura1[l+((Prog-1)*Pasos)]++;
 1914              		.loc 1 387 0
 1915 0174 644A     		ldr	r2, .L119
 1916 0176 32F91530 		ldrsh	r3, [r2, r5, lsl #1]
 1917 017a 3344     		add	r3, r3, r6
 1918 017c 22F81530 		strh	r3, [r2, r5, lsl #1]	@ movhi
 1919 0180 08E0     		b	.L96
 1920              	.L95:
 388:Funciones.c   ****                }
 389:Funciones.c   ****                else{
 390:Funciones.c   ****                   flagup=0;
 1921              		.loc 1 390 0
 1922 0182 0022     		movs	r2, #0
 1923 0184 6B4B     		ldr	r3, .L119+44
 1924 0186 1A80     		strh	r2, [r3]	@ movhi
 391:Funciones.c   ****                   Temperatura1[l+((Prog-1)*Pasos)]+=10;
 1925              		.loc 1 391 0
 1926 0188 5F4A     		ldr	r2, .L119
 1927 018a 32F81530 		ldrh	r3, [r2, r5, lsl #1]
 1928 018e 0A33     		adds	r3, r3, #10
 1929 0190 22F81530 		strh	r3, [r2, r5, lsl #1]	@ movhi
 1930              	.L96:
 392:Funciones.c   ****                } 
 393:Funciones.c   ****                if(l<Pasos-1)
 1931              		.loc 1 393 0
 1932 0194 0E2F     		cmp	r7, #14
ARM GAS  C:\Users\USUARIO\AppData\Local\Temp\ccgyuR3R.s 			page 42


 1933 0196 06D8     		bhi	.L97
 394:Funciones.c   ****                   Temperatura1[l+1+((Prog-1)*Pasos)]=Temperatura1[l+((Prog-1)*Pasos)]; 
 1934              		.loc 1 394 0
 1935 0198 7B1C     		adds	r3, r7, #1
 1936 019a 4B44     		add	r3, r3, r9
 1937 019c 5A4A     		ldr	r2, .L119
 1938 019e 32F91510 		ldrsh	r1, [r2, r5, lsl #1]
 1939 01a2 22F81310 		strh	r1, [r2, r3, lsl #1]	@ movhi
 1940              	.L97:
 395:Funciones.c   ****                   
 396:Funciones.c   ****                if(Temperatura1[l+((Prog-1)*Pasos)]>1200)
 1941              		.loc 1 396 0
 1942 01a6 584B     		ldr	r3, .L119
 1943 01a8 33F91530 		ldrsh	r3, [r3, r5, lsl #1]
 1944 01ac B3F5966F 		cmp	r3, #1200
 1945 01b0 09DD     		ble	.L98
 397:Funciones.c   ****                   Temperatura1[l+((Prog-1)*Pasos)]=0;
 1946              		.loc 1 397 0
 1947 01b2 0022     		movs	r2, #0
 1948 01b4 544B     		ldr	r3, .L119
 1949 01b6 23F81520 		strh	r2, [r3, r5, lsl #1]	@ movhi
 1950 01ba 04E0     		b	.L98
 1951              	.L94:
 398:Funciones.c   ****             }
 399:Funciones.c   ****             else
 400:Funciones.c   ****             {
 401:Funciones.c   ****                flagup=0;tiempoup=0;
 1952              		.loc 1 401 0
 1953 01bc 0023     		movs	r3, #0
 1954 01be 5D4A     		ldr	r2, .L119+44
 1955 01c0 1380     		strh	r3, [r2]	@ movhi
 1956 01c2 5B4A     		ldr	r2, .L119+40
 1957 01c4 1380     		strh	r3, [r2]	@ movhi
 1958              	.L98:
 402:Funciones.c   ****             }
 403:Funciones.c   ****                      
 404:Funciones.c   ****             if(DOWN_Read()==0)//Si oprime hacia abajo
 1959              		.loc 1 404 0
 1960 01c6 FFF7FEFF 		bl	DOWN_Read
 1961              	.LVL219:
 1962 01ca 80BB     		cbnz	r0, .L99
 405:Funciones.c   ****             {
 406:Funciones.c   ****                BUZZER_Write(1);CyDelay(10);BUZZER_Write(0);
 1963              		.loc 1 406 0
 1964 01cc 0120     		movs	r0, #1
 1965 01ce FFF7FEFF 		bl	BUZZER_Write
 1966              	.LVL220:
 1967 01d2 0A20     		movs	r0, #10
 1968 01d4 FFF7FEFF 		bl	CyDelay
 1969              	.LVL221:
 1970 01d8 0020     		movs	r0, #0
 1971 01da FFF7FEFF 		bl	BUZZER_Write
 1972              	.LVL222:
 407:Funciones.c   ****                if(tiempodn<4){
 1973              		.loc 1 407 0
 1974 01de 564B     		ldr	r3, .L119+48
 1975 01e0 1B88     		ldrh	r3, [r3]
ARM GAS  C:\Users\USUARIO\AppData\Local\Temp\ccgyuR3R.s 			page 43


 1976 01e2 032B     		cmp	r3, #3
 1977 01e4 09D8     		bhi	.L100
 408:Funciones.c   ****                   flagdn=1;
 1978              		.loc 1 408 0
 1979 01e6 0122     		movs	r2, #1
 1980 01e8 544B     		ldr	r3, .L119+52
 1981 01ea 1A80     		strh	r2, [r3]	@ movhi
 409:Funciones.c   ****                   Temperatura1[l+((Prog-1)*Pasos)]--;
 1982              		.loc 1 409 0
 1983 01ec 464A     		ldr	r2, .L119
 1984 01ee 32F91530 		ldrsh	r3, [r2, r5, lsl #1]
 1985 01f2 013B     		subs	r3, r3, #1
 1986 01f4 22F81530 		strh	r3, [r2, r5, lsl #1]	@ movhi
 1987 01f8 08E0     		b	.L101
 1988              	.L100:
 410:Funciones.c   ****                }
 411:Funciones.c   ****                else{
 412:Funciones.c   ****                   flagdn=0;
 1989              		.loc 1 412 0
 1990 01fa 0022     		movs	r2, #0
 1991 01fc 4F4B     		ldr	r3, .L119+52
 1992 01fe 1A80     		strh	r2, [r3]	@ movhi
 413:Funciones.c   ****                   Temperatura1[l+((Prog-1)*Pasos)]-=10;
 1993              		.loc 1 413 0
 1994 0200 414A     		ldr	r2, .L119
 1995 0202 32F81530 		ldrh	r3, [r2, r5, lsl #1]
 1996 0206 0A3B     		subs	r3, r3, #10
 1997 0208 22F81530 		strh	r3, [r2, r5, lsl #1]	@ movhi
 1998              	.L101:
 414:Funciones.c   ****                }
 415:Funciones.c   ****                Temperatura1[l+1+((Prog-1)*Pasos)]=Temperatura1[l+((Prog-1)*Pasos)]; 
 1999              		.loc 1 415 0
 2000 020c 0137     		adds	r7, r7, #1
 2001 020e 4F44     		add	r7, r7, r9
 2002 0210 3D4B     		ldr	r3, .L119
 2003 0212 33F91520 		ldrsh	r2, [r3, r5, lsl #1]
 2004 0216 23F81720 		strh	r2, [r3, r7, lsl #1]	@ movhi
 416:Funciones.c   ****                
 417:Funciones.c   ****                if(Temperatura1[l+((Prog-1)*Pasos)]<0)
 2005              		.loc 1 417 0
 2006 021a 33F91530 		ldrsh	r3, [r3, r5, lsl #1]
 2007 021e 002B     		cmp	r3, #0
 2008 0220 0ADA     		bge	.L93
 418:Funciones.c   ****                   Temperatura1[l+((Prog-1)*Pasos)]=1200;
 2009              		.loc 1 418 0
 2010 0222 4FF49662 		mov	r2, #1200
 2011 0226 384B     		ldr	r3, .L119
 2012 0228 23F81520 		strh	r2, [r3, r5, lsl #1]	@ movhi
 2013 022c 04E0     		b	.L93
 2014              	.L99:
 419:Funciones.c   ****             }
 420:Funciones.c   ****             else{
 421:Funciones.c   ****                flagdn=0;tiempodn=0;
 2015              		.loc 1 421 0
 2016 022e 0023     		movs	r3, #0
 2017 0230 424A     		ldr	r2, .L119+52
 2018 0232 1380     		strh	r3, [r2]	@ movhi
ARM GAS  C:\Users\USUARIO\AppData\Local\Temp\ccgyuR3R.s 			page 44


 2019 0234 404A     		ldr	r2, .L119+48
 2020 0236 1380     		strh	r3, [r2]	@ movhi
 2021              	.L93:
 422:Funciones.c   ****             }
 423:Funciones.c   ****          }
 424:Funciones.c   ****          
 425:Funciones.c   ****          if(Opcio==2){
 2022              		.loc 1 425 0
 2023 0238 B8F1020F 		cmp	r8, #2
 2024 023c 40F0B780 		bne	.L102
 426:Funciones.c   ****             strcpy(Menus.Letra,"Temperatura:");
 2025              		.loc 1 426 0
 2026 0240 334C     		ldr	r4, .L119+8
 2027 0242 374B     		ldr	r3, .L119+24
 2028 0244 07CB     		ldmia	r3!, {r0, r1, r2}
 2029 0246 2060     		str	r0, [r4]	@ unaligned
 2030 0248 6160     		str	r1, [r4, #4]	@ unaligned
 2031 024a A260     		str	r2, [r4, #8]	@ unaligned
 2032 024c 1B78     		ldrb	r3, [r3]	@ zero_extendqisi2
 2033 024e 2373     		strb	r3, [r4, #12]
 427:Funciones.c   ****             displayTemps(Menus.Letra,Temperatura1[l+((Prog-1)*Pasos)],0,32,0,1);
 2034              		.loc 1 427 0
 2035 0250 2D4B     		ldr	r3, .L119
 2036 0252 33F81510 		ldrh	r1, [r3, r5, lsl #1]
 2037 0256 0127     		movs	r7, #1
 2038 0258 0197     		str	r7, [sp, #4]
 2039 025a 0026     		movs	r6, #0
 2040 025c 0096     		str	r6, [sp]
 2041 025e 2023     		movs	r3, #32
 2042 0260 3246     		mov	r2, r6
 2043 0262 2046     		mov	r0, r4
 2044 0264 FFF7FEFF 		bl	displayTemps
 2045              	.LVL223:
 428:Funciones.c   ****             strcpy(Menus.Letra,"Horas:");
 2046              		.loc 1 428 0
 2047 0268 2E4B     		ldr	r3, .L119+28
 2048 026a 1868     		ldr	r0, [r3]	@ unaligned
 2049 026c 2060     		str	r0, [r4]	@ unaligned
 2050 026e 9A88     		ldrh	r2, [r3, #4]	@ unaligned
 2051 0270 9B79     		ldrb	r3, [r3, #6]	@ zero_extendqisi2
 2052 0272 A280     		strh	r2, [r4, #4]	@ unaligned
 2053 0274 A371     		strb	r3, [r4, #6]
 429:Funciones.c   ****             displayTemps(Menus.Letra,Horas1[l+((Prog-1)*Pasos)],0,44,11,1);
 2054              		.loc 1 429 0
 2055 0276 254B     		ldr	r3, .L119+4
 2056 0278 33F81510 		ldrh	r1, [r3, r5, lsl #1]
 2057 027c 0197     		str	r7, [sp, #4]
 2058 027e 0B23     		movs	r3, #11
 2059 0280 0093     		str	r3, [sp]
 2060 0282 2C23     		movs	r3, #44
 2061 0284 3246     		mov	r2, r6
 2062 0286 2046     		mov	r0, r4
 2063 0288 FFF7FEFF 		bl	displayTemps
 2064              	.LVL224:
 430:Funciones.c   ****             strcpy(Menus.Letra,"Minutos:");
 2065              		.loc 1 430 0
 2066 028c 264B     		ldr	r3, .L119+32
ARM GAS  C:\Users\USUARIO\AppData\Local\Temp\ccgyuR3R.s 			page 45


 2067 028e 03CB     		ldmia	r3!, {r0, r1}
 2068 0290 2060     		str	r0, [r4]	@ unaligned
 2069 0292 6160     		str	r1, [r4, #4]	@ unaligned
 2070 0294 1B78     		ldrb	r3, [r3]	@ zero_extendqisi2
 2071 0296 2372     		strb	r3, [r4, #8]
 431:Funciones.c   ****             displayTemps(Menus.Letra,Minutos1[l+((Prog-1)*Pasos)],0,55,10,1);
 2072              		.loc 1 431 0
 2073 0298 244B     		ldr	r3, .L119+36
 2074 029a 33F81510 		ldrh	r1, [r3, r5, lsl #1]
 2075 029e 0197     		str	r7, [sp, #4]
 2076 02a0 0A23     		movs	r3, #10
 2077 02a2 0093     		str	r3, [sp]
 2078 02a4 3723     		movs	r3, #55
 2079 02a6 3246     		mov	r2, r6
 2080 02a8 2046     		mov	r0, r4
 2081 02aa FFF7FEFF 		bl	displayTemps
 2082              	.LVL225:
 432:Funciones.c   ****             if(UP_Read()==0)//Si oprime hacia arriba
 2083              		.loc 1 432 0
 2084 02ae FFF7FEFF 		bl	UP_Read
 2085              	.LVL226:
 2086 02b2 0028     		cmp	r0, #0
 2087 02b4 44D1     		bne	.L103
 433:Funciones.c   ****             {
 434:Funciones.c   ****                BUZZER_Write(1);CyDelay(10);BUZZER_Write(0);
 2088              		.loc 1 434 0
 2089 02b6 3846     		mov	r0, r7
 2090 02b8 FFF7FEFF 		bl	BUZZER_Write
 2091              	.LVL227:
 2092 02bc 0A20     		movs	r0, #10
 2093 02be FFF7FEFF 		bl	CyDelay
 2094              	.LVL228:
 2095 02c2 3046     		mov	r0, r6
 2096 02c4 FFF7FEFF 		bl	BUZZER_Write
 2097              	.LVL229:
 435:Funciones.c   ****                if(tiempoup<4){
 2098              		.loc 1 435 0
 2099 02c8 194B     		ldr	r3, .L119+40
 2100 02ca 1B88     		ldrh	r3, [r3]
 2101 02cc 032B     		cmp	r3, #3
 2102 02ce 08D8     		bhi	.L104
 436:Funciones.c   ****                   flagup=1;
 2103              		.loc 1 436 0
 2104 02d0 184B     		ldr	r3, .L119+44
 2105 02d2 1F80     		strh	r7, [r3]	@ movhi
 437:Funciones.c   ****                   Horas1[l+((Prog-1)*Pasos)]++;
 2106              		.loc 1 437 0
 2107 02d4 0D4A     		ldr	r2, .L119+4
 2108 02d6 32F91530 		ldrsh	r3, [r2, r5, lsl #1]
 2109 02da 3B44     		add	r3, r3, r7
 2110 02dc 22F81530 		strh	r3, [r2, r5, lsl #1]	@ movhi
 2111 02e0 08E0     		b	.L105
 2112              	.L104:
 438:Funciones.c   ****                }
 439:Funciones.c   ****                else{
 440:Funciones.c   ****                   flagup=0;
 2113              		.loc 1 440 0
ARM GAS  C:\Users\USUARIO\AppData\Local\Temp\ccgyuR3R.s 			page 46


 2114 02e2 0022     		movs	r2, #0
 2115 02e4 134B     		ldr	r3, .L119+44
 2116 02e6 1A80     		strh	r2, [r3]	@ movhi
 441:Funciones.c   ****                   Horas1[l+((Prog-1)*Pasos)]+=10;
 2117              		.loc 1 441 0
 2118 02e8 084A     		ldr	r2, .L119+4
 2119 02ea 32F81530 		ldrh	r3, [r2, r5, lsl #1]
 2120 02ee 0A33     		adds	r3, r3, #10
 2121 02f0 22F81530 		strh	r3, [r2, r5, lsl #1]	@ movhi
 2122              	.L105:
 442:Funciones.c   ****                }
 443:Funciones.c   ****                if(Horas1[l+((Prog-1)*Pasos)]>99)
 2123              		.loc 1 443 0
 2124 02f4 054B     		ldr	r3, .L119+4
 2125 02f6 33F91530 		ldrsh	r3, [r3, r5, lsl #1]
 2126 02fa 632B     		cmp	r3, #99
 2127 02fc 25DD     		ble	.L106
 444:Funciones.c   ****                   Horas1[l+((Prog-1)*Pasos)]=0;
 2128              		.loc 1 444 0
 2129 02fe 0022     		movs	r2, #0
 2130 0300 024B     		ldr	r3, .L119+4
 2131 0302 23F81520 		strh	r2, [r3, r5, lsl #1]	@ movhi
 2132 0306 20E0     		b	.L106
 2133              	.L120:
 2134              		.align	2
 2135              	.L119:
 2136 0308 00000000 		.word	Temperatura1
 2137 030c 00000000 		.word	Horas1
 2138 0310 00000000 		.word	Menus
 2139 0314 20000000 		.word	.LC3
 2140 0318 24000000 		.word	.LC4
 2141 031c 30000000 		.word	.LC5
 2142 0320 34000000 		.word	.LC6
 2143 0324 44000000 		.word	.LC7
 2144 0328 4C000000 		.word	.LC8
 2145 032c 00000000 		.word	Minutos1
 2146 0330 00000000 		.word	tiempoup
 2147 0334 00000000 		.word	flagup
 2148 0338 00000000 		.word	tiempodn
 2149 033c 00000000 		.word	flagdn
 2150              	.L103:
 445:Funciones.c   ****             }
 446:Funciones.c   ****             else{
 447:Funciones.c   ****                flagup=0;tiempoup=0;
 2151              		.loc 1 447 0
 2152 0340 0023     		movs	r3, #0
 2153 0342 6B4A     		ldr	r2, .L121
 2154 0344 1380     		strh	r3, [r2]	@ movhi
 2155 0346 6B4A     		ldr	r2, .L121+4
 2156 0348 1380     		strh	r3, [r2]	@ movhi
 2157              	.L106:
 448:Funciones.c   ****             }
 449:Funciones.c   ****                      
 450:Funciones.c   ****             if(DOWN_Read()==0)//Si oprime hacia abajo
 2158              		.loc 1 450 0
 2159 034a FFF7FEFF 		bl	DOWN_Read
 2160              	.LVL230:
ARM GAS  C:\Users\USUARIO\AppData\Local\Temp\ccgyuR3R.s 			page 47


 2161 034e 48BB     		cbnz	r0, .L107
 451:Funciones.c   ****             {
 452:Funciones.c   ****                BUZZER_Write(1);CyDelay(10);BUZZER_Write(0);
 2162              		.loc 1 452 0
 2163 0350 0120     		movs	r0, #1
 2164 0352 FFF7FEFF 		bl	BUZZER_Write
 2165              	.LVL231:
 2166 0356 0A20     		movs	r0, #10
 2167 0358 FFF7FEFF 		bl	CyDelay
 2168              	.LVL232:
 2169 035c 0020     		movs	r0, #0
 2170 035e FFF7FEFF 		bl	BUZZER_Write
 2171              	.LVL233:
 453:Funciones.c   ****                if(tiempodn<4){
 2172              		.loc 1 453 0
 2173 0362 654B     		ldr	r3, .L121+8
 2174 0364 1B88     		ldrh	r3, [r3]
 2175 0366 032B     		cmp	r3, #3
 2176 0368 09D8     		bhi	.L108
 454:Funciones.c   ****                   flagdn=1;
 2177              		.loc 1 454 0
 2178 036a 0122     		movs	r2, #1
 2179 036c 634B     		ldr	r3, .L121+12
 2180 036e 1A80     		strh	r2, [r3]	@ movhi
 455:Funciones.c   ****                   Horas1[l+((Prog-1)*Pasos)]--;
 2181              		.loc 1 455 0
 2182 0370 634A     		ldr	r2, .L121+16
 2183 0372 32F91530 		ldrsh	r3, [r2, r5, lsl #1]
 2184 0376 013B     		subs	r3, r3, #1
 2185 0378 22F81530 		strh	r3, [r2, r5, lsl #1]	@ movhi
 2186 037c 08E0     		b	.L109
 2187              	.L108:
 456:Funciones.c   ****                }
 457:Funciones.c   ****                else{
 458:Funciones.c   ****                   flagdn=0;
 2188              		.loc 1 458 0
 2189 037e 0022     		movs	r2, #0
 2190 0380 5E4B     		ldr	r3, .L121+12
 2191 0382 1A80     		strh	r2, [r3]	@ movhi
 459:Funciones.c   ****                   Horas1[l+((Prog-1)*Pasos)]-=10;
 2192              		.loc 1 459 0
 2193 0384 5E4A     		ldr	r2, .L121+16
 2194 0386 32F81530 		ldrh	r3, [r2, r5, lsl #1]
 2195 038a 0A3B     		subs	r3, r3, #10
 2196 038c 22F81530 		strh	r3, [r2, r5, lsl #1]	@ movhi
 2197              	.L109:
 460:Funciones.c   ****                }
 461:Funciones.c   ****                if(Horas1[l+((Prog-1)*Pasos)]<0)
 2198              		.loc 1 461 0
 2199 0390 5B4B     		ldr	r3, .L121+16
 2200 0392 33F91530 		ldrsh	r3, [r3, r5, lsl #1]
 2201 0396 002B     		cmp	r3, #0
 2202 0398 09DA     		bge	.L102
 462:Funciones.c   ****                   Horas1[l+((Prog-1)*Pasos)]=99;
 2203              		.loc 1 462 0
 2204 039a 6322     		movs	r2, #99
 2205 039c 584B     		ldr	r3, .L121+16
ARM GAS  C:\Users\USUARIO\AppData\Local\Temp\ccgyuR3R.s 			page 48


 2206 039e 23F81520 		strh	r2, [r3, r5, lsl #1]	@ movhi
 2207 03a2 04E0     		b	.L102
 2208              	.L107:
 463:Funciones.c   ****             }
 464:Funciones.c   ****             else{
 465:Funciones.c   ****                flagdn=0;tiempodn=0;
 2209              		.loc 1 465 0
 2210 03a4 0023     		movs	r3, #0
 2211 03a6 554A     		ldr	r2, .L121+12
 2212 03a8 1380     		strh	r3, [r2]	@ movhi
 2213 03aa 534A     		ldr	r2, .L121+8
 2214 03ac 1380     		strh	r3, [r2]	@ movhi
 2215              	.L102:
 466:Funciones.c   ****             }
 467:Funciones.c   ****          }
 468:Funciones.c   ****          
 469:Funciones.c   ****          if(Opcio==3){
 2216              		.loc 1 469 0
 2217 03ae B8F1030F 		cmp	r8, #3
 2218 03b2 40F09A80 		bne	.L88
 470:Funciones.c   ****             strcpy(Menus.Letra,"Temperatura:");
 2219              		.loc 1 470 0
 2220 03b6 534C     		ldr	r4, .L121+20
 2221 03b8 534B     		ldr	r3, .L121+24
 2222 03ba 07CB     		ldmia	r3!, {r0, r1, r2}
 2223 03bc 2060     		str	r0, [r4]	@ unaligned
 2224 03be 6160     		str	r1, [r4, #4]	@ unaligned
 2225 03c0 A260     		str	r2, [r4, #8]	@ unaligned
 2226 03c2 1B78     		ldrb	r3, [r3]	@ zero_extendqisi2
 2227 03c4 2373     		strb	r3, [r4, #12]
 471:Funciones.c   ****             displayTemps(Menus.Letra,Temperatura1[l+((Prog-1)*Pasos)],0,32,0,1);
 2228              		.loc 1 471 0
 2229 03c6 514B     		ldr	r3, .L121+28
 2230 03c8 33F81510 		ldrh	r1, [r3, r5, lsl #1]
 2231 03cc 0127     		movs	r7, #1
 2232 03ce 0197     		str	r7, [sp, #4]
 2233 03d0 0026     		movs	r6, #0
 2234 03d2 0096     		str	r6, [sp]
 2235 03d4 2023     		movs	r3, #32
 2236 03d6 3246     		mov	r2, r6
 2237 03d8 2046     		mov	r0, r4
 2238 03da FFF7FEFF 		bl	displayTemps
 2239              	.LVL234:
 472:Funciones.c   ****             strcpy(Menus.Letra,"Horas:");
 2240              		.loc 1 472 0
 2241 03de 4C4B     		ldr	r3, .L121+32
 2242 03e0 1868     		ldr	r0, [r3]	@ unaligned
 2243 03e2 2060     		str	r0, [r4]	@ unaligned
 2244 03e4 9A88     		ldrh	r2, [r3, #4]	@ unaligned
 2245 03e6 9B79     		ldrb	r3, [r3, #6]	@ zero_extendqisi2
 2246 03e8 A280     		strh	r2, [r4, #4]	@ unaligned
 2247 03ea A371     		strb	r3, [r4, #6]
 473:Funciones.c   ****             displayTemps(Menus.Letra,Horas1[l+((Prog-1)*Pasos)],0,44,10,1);
 2248              		.loc 1 473 0
 2249 03ec 444B     		ldr	r3, .L121+16
 2250 03ee 33F81510 		ldrh	r1, [r3, r5, lsl #1]
 2251 03f2 0197     		str	r7, [sp, #4]
ARM GAS  C:\Users\USUARIO\AppData\Local\Temp\ccgyuR3R.s 			page 49


 2252 03f4 0A23     		movs	r3, #10
 2253 03f6 0093     		str	r3, [sp]
 2254 03f8 2C23     		movs	r3, #44
 2255 03fa 3246     		mov	r2, r6
 2256 03fc 2046     		mov	r0, r4
 2257 03fe FFF7FEFF 		bl	displayTemps
 2258              	.LVL235:
 474:Funciones.c   ****             strcpy(Menus.Letra,"Minutos:");
 2259              		.loc 1 474 0
 2260 0402 444B     		ldr	r3, .L121+36
 2261 0404 03CB     		ldmia	r3!, {r0, r1}
 2262 0406 2060     		str	r0, [r4]	@ unaligned
 2263 0408 6160     		str	r1, [r4, #4]	@ unaligned
 2264 040a 1B78     		ldrb	r3, [r3]	@ zero_extendqisi2
 2265 040c 2372     		strb	r3, [r4, #8]
 475:Funciones.c   ****             displayTemps(Menus.Letra,Minutos1[l+((Prog-1)*Pasos)],0,55,11,1);
 2266              		.loc 1 475 0
 2267 040e 424B     		ldr	r3, .L121+40
 2268 0410 33F81510 		ldrh	r1, [r3, r5, lsl #1]
 2269 0414 0197     		str	r7, [sp, #4]
 2270 0416 0B23     		movs	r3, #11
 2271 0418 0093     		str	r3, [sp]
 2272 041a 3723     		movs	r3, #55
 2273 041c 3246     		mov	r2, r6
 2274 041e 2046     		mov	r0, r4
 2275 0420 FFF7FEFF 		bl	displayTemps
 2276              	.LVL236:
 476:Funciones.c   ****             if(UP_Read()==0)//Si oprime hacia arriba
 2277              		.loc 1 476 0
 2278 0424 FFF7FEFF 		bl	UP_Read
 2279              	.LVL237:
 2280 0428 40BB     		cbnz	r0, .L111
 477:Funciones.c   ****             {
 478:Funciones.c   ****                BUZZER_Write(1);CyDelay(10);BUZZER_Write(0);
 2281              		.loc 1 478 0
 2282 042a 3846     		mov	r0, r7
 2283 042c FFF7FEFF 		bl	BUZZER_Write
 2284              	.LVL238:
 2285 0430 0A20     		movs	r0, #10
 2286 0432 FFF7FEFF 		bl	CyDelay
 2287              	.LVL239:
 2288 0436 3046     		mov	r0, r6
 2289 0438 FFF7FEFF 		bl	BUZZER_Write
 2290              	.LVL240:
 479:Funciones.c   ****                if(tiempoup<4){
 2291              		.loc 1 479 0
 2292 043c 2D4B     		ldr	r3, .L121+4
 2293 043e 1B88     		ldrh	r3, [r3]
 2294 0440 032B     		cmp	r3, #3
 2295 0442 08D8     		bhi	.L112
 480:Funciones.c   ****                   flagup=1;
 2296              		.loc 1 480 0
 2297 0444 2A4B     		ldr	r3, .L121
 2298 0446 1F80     		strh	r7, [r3]	@ movhi
 481:Funciones.c   ****                   Minutos1[l+((Prog-1)*Pasos)]++;
 2299              		.loc 1 481 0
 2300 0448 334A     		ldr	r2, .L121+40
ARM GAS  C:\Users\USUARIO\AppData\Local\Temp\ccgyuR3R.s 			page 50


 2301 044a 32F91530 		ldrsh	r3, [r2, r5, lsl #1]
 2302 044e 3B44     		add	r3, r3, r7
 2303 0450 22F81530 		strh	r3, [r2, r5, lsl #1]	@ movhi
 2304 0454 08E0     		b	.L113
 2305              	.L112:
 482:Funciones.c   ****                }  
 483:Funciones.c   ****                else{
 484:Funciones.c   ****                   flagup=0;
 2306              		.loc 1 484 0
 2307 0456 0022     		movs	r2, #0
 2308 0458 254B     		ldr	r3, .L121
 2309 045a 1A80     		strh	r2, [r3]	@ movhi
 485:Funciones.c   ****                   Minutos1[l+((Prog-1)*Pasos)]+=10;
 2310              		.loc 1 485 0
 2311 045c 2E4A     		ldr	r2, .L121+40
 2312 045e 32F81530 		ldrh	r3, [r2, r5, lsl #1]
 2313 0462 0A33     		adds	r3, r3, #10
 2314 0464 22F81530 		strh	r3, [r2, r5, lsl #1]	@ movhi
 2315              	.L113:
 486:Funciones.c   ****                }
 487:Funciones.c   ****                if(Minutos1[l+((Prog-1)*Pasos)]>59)
 2316              		.loc 1 487 0
 2317 0468 2B4B     		ldr	r3, .L121+40
 2318 046a 33F91530 		ldrsh	r3, [r3, r5, lsl #1]
 2319 046e 3B2B     		cmp	r3, #59
 2320 0470 09DD     		ble	.L114
 488:Funciones.c   ****                   Minutos1[l+((Prog-1)*Pasos)]=0;
 2321              		.loc 1 488 0
 2322 0472 0022     		movs	r2, #0
 2323 0474 284B     		ldr	r3, .L121+40
 2324 0476 23F81520 		strh	r2, [r3, r5, lsl #1]	@ movhi
 2325 047a 04E0     		b	.L114
 2326              	.L111:
 489:Funciones.c   ****             }
 490:Funciones.c   ****             else{
 491:Funciones.c   ****                flagup=0;tiempoup=0;
 2327              		.loc 1 491 0
 2328 047c 0023     		movs	r3, #0
 2329 047e 1C4A     		ldr	r2, .L121
 2330 0480 1380     		strh	r3, [r2]	@ movhi
 2331 0482 1C4A     		ldr	r2, .L121+4
 2332 0484 1380     		strh	r3, [r2]	@ movhi
 2333              	.L114:
 492:Funciones.c   ****             }
 493:Funciones.c   ****                      
 494:Funciones.c   ****             if(DOWN_Read()==0)//Si oprime hacia abajo
 2334              		.loc 1 494 0
 2335 0486 FFF7FEFF 		bl	DOWN_Read
 2336              	.LVL241:
 2337 048a 48BB     		cbnz	r0, .L115
 495:Funciones.c   ****             {
 496:Funciones.c   ****                BUZZER_Write(1);CyDelay(10);BUZZER_Write(0);
 2338              		.loc 1 496 0
 2339 048c 0120     		movs	r0, #1
 2340 048e FFF7FEFF 		bl	BUZZER_Write
 2341              	.LVL242:
 2342 0492 0A20     		movs	r0, #10
ARM GAS  C:\Users\USUARIO\AppData\Local\Temp\ccgyuR3R.s 			page 51


 2343 0494 FFF7FEFF 		bl	CyDelay
 2344              	.LVL243:
 2345 0498 0020     		movs	r0, #0
 2346 049a FFF7FEFF 		bl	BUZZER_Write
 2347              	.LVL244:
 497:Funciones.c   ****                if(tiempodn<4){
 2348              		.loc 1 497 0
 2349 049e 164B     		ldr	r3, .L121+8
 2350 04a0 1B88     		ldrh	r3, [r3]
 2351 04a2 032B     		cmp	r3, #3
 2352 04a4 09D8     		bhi	.L116
 498:Funciones.c   ****                   flagdn=1;
 2353              		.loc 1 498 0
 2354 04a6 0122     		movs	r2, #1
 2355 04a8 144B     		ldr	r3, .L121+12
 2356 04aa 1A80     		strh	r2, [r3]	@ movhi
 499:Funciones.c   ****                   Minutos1[l+((Prog-1)*Pasos)]--;
 2357              		.loc 1 499 0
 2358 04ac 1A4A     		ldr	r2, .L121+40
 2359 04ae 32F91530 		ldrsh	r3, [r2, r5, lsl #1]
 2360 04b2 013B     		subs	r3, r3, #1
 2361 04b4 22F81530 		strh	r3, [r2, r5, lsl #1]	@ movhi
 2362 04b8 08E0     		b	.L117
 2363              	.L116:
 500:Funciones.c   ****                }
 501:Funciones.c   ****                else{
 502:Funciones.c   ****                   flagdn=0;
 2364              		.loc 1 502 0
 2365 04ba 0022     		movs	r2, #0
 2366 04bc 0F4B     		ldr	r3, .L121+12
 2367 04be 1A80     		strh	r2, [r3]	@ movhi
 503:Funciones.c   ****                   Minutos1[l+((Prog-1)*Pasos)]-=10;
 2368              		.loc 1 503 0
 2369 04c0 154A     		ldr	r2, .L121+40
 2370 04c2 32F81530 		ldrh	r3, [r2, r5, lsl #1]
 2371 04c6 0A3B     		subs	r3, r3, #10
 2372 04c8 22F81530 		strh	r3, [r2, r5, lsl #1]	@ movhi
 2373              	.L117:
 504:Funciones.c   ****                }
 505:Funciones.c   ****                if(Minutos1[l+((Prog-1)*Pasos)]<0)
 2374              		.loc 1 505 0
 2375 04cc 124B     		ldr	r3, .L121+40
 2376 04ce 33F91530 		ldrsh	r3, [r3, r5, lsl #1]
 2377 04d2 002B     		cmp	r3, #0
 2378 04d4 09DA     		bge	.L88
 506:Funciones.c   ****                   Minutos1[l+((Prog-1)*Pasos)]=59;
 2379              		.loc 1 506 0
 2380 04d6 3B22     		movs	r2, #59
 2381 04d8 0F4B     		ldr	r3, .L121+40
 2382 04da 23F81520 		strh	r2, [r3, r5, lsl #1]	@ movhi
 2383 04de 04E0     		b	.L88
 2384              	.L115:
 507:Funciones.c   ****             }
 508:Funciones.c   ****             else{
 509:Funciones.c   ****                flagdn=0;tiempodn=0;
 2385              		.loc 1 509 0
 2386 04e0 0023     		movs	r3, #0
ARM GAS  C:\Users\USUARIO\AppData\Local\Temp\ccgyuR3R.s 			page 52


 2387 04e2 064A     		ldr	r2, .L121+12
 2388 04e4 1380     		strh	r3, [r2]	@ movhi
 2389 04e6 044A     		ldr	r2, .L121+8
 2390 04e8 1380     		strh	r3, [r2]	@ movhi
 2391              	.L88:
 510:Funciones.c   ****             }
 511:Funciones.c   ****          }
 512:Funciones.c   **** }
 2392              		.loc 1 512 0
 2393 04ea 02B0     		add	sp, sp, #8
 2394              		.cfi_def_cfa_offset 32
 2395              		@ sp needed
 2396 04ec BDE8F087 		pop	{r4, r5, r6, r7, r8, r9, r10, pc}
 2397              	.L122:
 2398              		.align	2
 2399              	.L121:
 2400 04f0 00000000 		.word	flagup
 2401 04f4 00000000 		.word	tiempoup
 2402 04f8 00000000 		.word	tiempodn
 2403 04fc 00000000 		.word	flagdn
 2404 0500 00000000 		.word	Horas1
 2405 0504 00000000 		.word	Menus
 2406 0508 34000000 		.word	.LC6
 2407 050c 00000000 		.word	Temperatura1
 2408 0510 44000000 		.word	.LC7
 2409 0514 4C000000 		.word	.LC8
 2410 0518 00000000 		.word	Minutos1
 2411              		.cfi_endproc
 2412              	.LFE70:
 2413              		.size	MuestraSegmento, .-MuestraSegmento
 2414              		.comm	displayData,1024,4
 2415              		.comm	Menus,30,4
 2416              		.section	.rodata.str1.4,"aMS",%progbits,1
 2417              		.align	2
 2418              	.LC0:
 2419 0000 436C6176 		.ascii	"Clave\000"
 2419      6500
 2420 0006 0000     		.space	2
 2421              	.LC1:
 2422 0008 436F7272 		.ascii	"Correcta\000"
 2422      65637461 
 2422      00
 2423 0011 000000   		.space	3
 2424              	.LC2:
 2425 0014 496E636F 		.ascii	"Incorrecta\000"
 2425      72726563 
 2425      746100
 2426 001f 00       		.space	1
 2427              	.LC3:
 2428 0020 50203000 		.ascii	"P 0\000"
 2429              	.LC4:
 2430 0024 5365676D 		.ascii	"Segmento \000"
 2430      656E746F 
 2430      2000
 2431 002e 0000     		.space	2
 2432              	.LC5:
 2433 0030 54413A00 		.ascii	"TA:\000"
ARM GAS  C:\Users\USUARIO\AppData\Local\Temp\ccgyuR3R.s 			page 53


 2434              	.LC6:
 2435 0034 54656D70 		.ascii	"Temperatura:\000"
 2435      65726174 
 2435      7572613A 
 2435      00
 2436 0041 000000   		.space	3
 2437              	.LC7:
 2438 0044 486F7261 		.ascii	"Horas:\000"
 2438      733A00
 2439 004b 00       		.space	1
 2440              	.LC8:
 2441 004c 4D696E75 		.ascii	"Minutos:\000"
 2441      746F733A 
 2441      00
 2442              		.text
 2443              	.Letext0:
 2444              		.file 2 "c:\\program files (x86)\\cypress\\psoc creator\\4.3\\psoc creator\\import\\gnu\\arm\\5.4.
 2445              		.file 3 "c:\\program files (x86)\\cypress\\psoc creator\\4.3\\psoc creator\\import\\gnu\\arm\\5.4.
 2446              		.file 4 "Generated_Source\\PSoC5/cytypes.h"
 2447              		.file 5 "./main.h"
 2448              		.file 6 "./ks0108.h"
 2449              		.file 7 "Generated_Source\\PSoC5/core_cm3.h"
 2450              		.file 8 "Generated_Source\\PSoC5/CyLib.h"
 2451              		.file 9 "Generated_Source\\PSoC5/EEPROM.h"
 2452              		.file 10 "Generated_Source\\PSoC5/UP.h"
 2453              		.file 11 "Generated_Source\\PSoC5/DOWN.h"
 2454              		.file 12 "Generated_Source\\PSoC5/RIGHT.h"
 2455              		.file 13 "Generated_Source\\PSoC5/LEFT.h"
 2456              		.file 14 "Generated_Source\\PSoC5/BUZZER.h"
 2457              		.section	.debug_info,"",%progbits
 2458              	.Ldebug_info0:
 2459 0000 FB160000 		.4byte	0x16fb
 2460 0004 0400     		.2byte	0x4
 2461 0006 00000000 		.4byte	.Ldebug_abbrev0
 2462 000a 04       		.byte	0x4
 2463 000b 01       		.uleb128 0x1
 2464 000c 8C030000 		.4byte	.LASF100
 2465 0010 0C       		.byte	0xc
 2466 0011 A1020000 		.4byte	.LASF101
 2467 0015 53040000 		.4byte	.LASF102
 2468 0019 00000000 		.4byte	.Ldebug_ranges0+0
 2469 001d 00000000 		.4byte	0
 2470 0021 00000000 		.4byte	.Ldebug_line0
 2471 0025 02       		.uleb128 0x2
 2472 0026 04       		.byte	0x4
 2473 0027 04       		.byte	0x4
 2474 0028 EF000000 		.4byte	.LASF0
 2475 002c 02       		.uleb128 0x2
 2476 002d 01       		.byte	0x1
 2477 002e 06       		.byte	0x6
 2478 002f 2C000000 		.4byte	.LASF1
 2479 0033 03       		.uleb128 0x3
 2480 0034 43040000 		.4byte	.LASF5
 2481 0038 02       		.byte	0x2
 2482 0039 1D       		.byte	0x1d
 2483 003a 3E000000 		.4byte	0x3e
 2484 003e 02       		.uleb128 0x2
ARM GAS  C:\Users\USUARIO\AppData\Local\Temp\ccgyuR3R.s 			page 54


 2485 003f 01       		.byte	0x1
 2486 0040 08       		.byte	0x8
 2487 0041 9B010000 		.4byte	.LASF2
 2488 0045 02       		.uleb128 0x2
 2489 0046 02       		.byte	0x2
 2490 0047 05       		.byte	0x5
 2491 0048 48000000 		.4byte	.LASF3
 2492 004c 02       		.uleb128 0x2
 2493 004d 02       		.byte	0x2
 2494 004e 07       		.byte	0x7
 2495 004f 5E020000 		.4byte	.LASF4
 2496 0053 03       		.uleb128 0x3
 2497 0054 1C030000 		.4byte	.LASF6
 2498 0058 02       		.byte	0x2
 2499 0059 3F       		.byte	0x3f
 2500 005a 5E000000 		.4byte	0x5e
 2501 005e 02       		.uleb128 0x2
 2502 005f 04       		.byte	0x4
 2503 0060 05       		.byte	0x5
 2504 0061 26010000 		.4byte	.LASF7
 2505 0065 02       		.uleb128 0x2
 2506 0066 04       		.byte	0x4
 2507 0067 07       		.byte	0x7
 2508 0068 3E020000 		.4byte	.LASF8
 2509 006c 02       		.uleb128 0x2
 2510 006d 08       		.byte	0x8
 2511 006e 05       		.byte	0x5
 2512 006f 01010000 		.4byte	.LASF9
 2513 0073 02       		.uleb128 0x2
 2514 0074 08       		.byte	0x8
 2515 0075 07       		.byte	0x7
 2516 0076 DD010000 		.4byte	.LASF10
 2517 007a 04       		.uleb128 0x4
 2518 007b 04       		.byte	0x4
 2519 007c 05       		.byte	0x5
 2520 007d 696E7400 		.ascii	"int\000"
 2521 0081 02       		.uleb128 0x2
 2522 0082 04       		.byte	0x4
 2523 0083 07       		.byte	0x7
 2524 0084 14020000 		.4byte	.LASF11
 2525 0088 03       		.uleb128 0x3
 2526 0089 C8000000 		.4byte	.LASF12
 2527 008d 03       		.byte	0x3
 2528 008e 18       		.byte	0x18
 2529 008f 33000000 		.4byte	0x33
 2530 0093 03       		.uleb128 0x3
 2531 0094 4A010000 		.4byte	.LASF13
 2532 0098 03       		.byte	0x3
 2533 0099 2C       		.byte	0x2c
 2534 009a 53000000 		.4byte	0x53
 2535 009e 05       		.uleb128 0x5
 2536 009f D6000000 		.4byte	.LASF14
 2537 00a3 04       		.byte	0x4
 2538 00a4 E801     		.2byte	0x1e8
 2539 00a6 3E000000 		.4byte	0x3e
 2540 00aa 05       		.uleb128 0x5
 2541 00ab BB000000 		.4byte	.LASF15
ARM GAS  C:\Users\USUARIO\AppData\Local\Temp\ccgyuR3R.s 			page 55


 2542 00af 04       		.byte	0x4
 2543 00b0 E901     		.2byte	0x1e9
 2544 00b2 4C000000 		.4byte	0x4c
 2545 00b6 05       		.uleb128 0x5
 2546 00b7 0F010000 		.4byte	.LASF16
 2547 00bb 04       		.byte	0x4
 2548 00bc EB01     		.2byte	0x1eb
 2549 00be 2C000000 		.4byte	0x2c
 2550 00c2 05       		.uleb128 0x5
 2551 00c3 D0000000 		.4byte	.LASF17
 2552 00c7 04       		.byte	0x4
 2553 00c8 EC01     		.2byte	0x1ec
 2554 00ca 45000000 		.4byte	0x45
 2555 00ce 02       		.uleb128 0x2
 2556 00cf 08       		.byte	0x8
 2557 00d0 04       		.byte	0x4
 2558 00d1 F5000000 		.4byte	.LASF18
 2559 00d5 02       		.uleb128 0x2
 2560 00d6 01       		.byte	0x1
 2561 00d7 08       		.byte	0x8
 2562 00d8 7A020000 		.4byte	.LASF19
 2563 00dc 02       		.uleb128 0x2
 2564 00dd 08       		.byte	0x8
 2565 00de 04       		.byte	0x4
 2566 00df 7D000000 		.4byte	.LASF20
 2567 00e3 02       		.uleb128 0x2
 2568 00e4 04       		.byte	0x4
 2569 00e5 07       		.byte	0x7
 2570 00e6 52000000 		.4byte	.LASF21
 2571 00ea 06       		.uleb128 0x6
 2572 00eb 1E       		.byte	0x1e
 2573 00ec 05       		.byte	0x5
 2574 00ed 99       		.byte	0x99
 2575 00ee FF000000 		.4byte	0xff
 2576 00f2 07       		.uleb128 0x7
 2577 00f3 E1000000 		.4byte	.LASF23
 2578 00f7 05       		.byte	0x5
 2579 00f8 9A       		.byte	0x9a
 2580 00f9 FF000000 		.4byte	0xff
 2581 00fd 00       		.byte	0
 2582 00fe 00       		.byte	0
 2583 00ff 08       		.uleb128 0x8
 2584 0100 D5000000 		.4byte	0xd5
 2585 0104 0F010000 		.4byte	0x10f
 2586 0108 09       		.uleb128 0x9
 2587 0109 E3000000 		.4byte	0xe3
 2588 010d 1D       		.byte	0x1d
 2589 010e 00       		.byte	0
 2590 010f 03       		.uleb128 0x3
 2591 0110 4D040000 		.4byte	.LASF22
 2592 0114 05       		.byte	0x5
 2593 0115 9B       		.byte	0x9b
 2594 0116 EA000000 		.4byte	0xea
 2595 011a 0A       		.uleb128 0xa
 2596 011b 0004     		.2byte	0x400
 2597 011d 06       		.byte	0x6
 2598 011e 5C       		.byte	0x5c
ARM GAS  C:\Users\USUARIO\AppData\Local\Temp\ccgyuR3R.s 			page 56


 2599 011f 3D010000 		.4byte	0x13d
 2600 0123 07       		.uleb128 0x7
 2601 0124 50020000 		.4byte	.LASF24
 2602 0128 06       		.byte	0x6
 2603 0129 5E       		.byte	0x5e
 2604 012a 3D010000 		.4byte	0x13d
 2605 012e 00       		.byte	0
 2606 012f 0B       		.uleb128 0xb
 2607 0130 1B000000 		.4byte	.LASF25
 2608 0134 06       		.byte	0x6
 2609 0135 5F       		.byte	0x5f
 2610 0136 3D010000 		.4byte	0x13d
 2611 013a 0002     		.2byte	0x200
 2612 013c 00       		.byte	0
 2613 013d 08       		.uleb128 0x8
 2614 013e 9E000000 		.4byte	0x9e
 2615 0142 4E010000 		.4byte	0x14e
 2616 0146 0C       		.uleb128 0xc
 2617 0147 E3000000 		.4byte	0xe3
 2618 014b FF01     		.2byte	0x1ff
 2619 014d 00       		.byte	0
 2620 014e 0D       		.uleb128 0xd
 2621 014f 0E030000 		.4byte	.LASF27
 2622 0153 01       		.byte	0x1
 2623 0154 12       		.byte	0x12
 2624 0155 9E000000 		.4byte	0x9e
 2625 0159 00000000 		.4byte	.LFB64
 2626 015d 28000000 		.4byte	.LFE64-.LFB64
 2627 0161 01       		.uleb128 0x1
 2628 0162 9C       		.byte	0x9c
 2629 0163 95010000 		.4byte	0x195
 2630 0167 0E       		.uleb128 0xe
 2631 0168 C6020000 		.4byte	.LASF29
 2632 016c 01       		.byte	0x1
 2633 016d 12       		.byte	0x12
 2634 016e 25000000 		.4byte	0x25
 2635 0172 00000000 		.4byte	.LLST0
 2636 0176 0F       		.uleb128 0xf
 2637 0177 82010000 		.4byte	.LASF26
 2638 017b 01       		.byte	0x1
 2639 017c 13       		.byte	0x13
 2640 017d 25000000 		.4byte	0x25
 2641 0181 2E000000 		.4byte	.LLST1
 2642 0185 10       		.uleb128 0x10
 2643 0186 746D7000 		.ascii	"tmp\000"
 2644 018a 01       		.byte	0x1
 2645 018b 14       		.byte	0x14
 2646 018c 25000000 		.4byte	0x25
 2647 0190 5C000000 		.4byte	.LLST2
 2648 0194 00       		.byte	0
 2649 0195 0D       		.uleb128 0xd
 2650 0196 5B000000 		.4byte	.LASF28
 2651 019a 01       		.byte	0x1
 2652 019b 1B       		.byte	0x1b
 2653 019c 25000000 		.4byte	0x25
 2654 01a0 00000000 		.4byte	.LFB65
 2655 01a4 14000000 		.4byte	.LFE65-.LFB65
ARM GAS  C:\Users\USUARIO\AppData\Local\Temp\ccgyuR3R.s 			page 57


 2656 01a8 01       		.uleb128 0x1
 2657 01a9 9C       		.byte	0x9c
 2658 01aa CD010000 		.4byte	0x1cd
 2659 01ae 0E       		.uleb128 0xe
 2660 01af CB020000 		.4byte	.LASF30
 2661 01b3 01       		.byte	0x1
 2662 01b4 1B       		.byte	0x1b
 2663 01b5 9E000000 		.4byte	0x9e
 2664 01b9 7F000000 		.4byte	.LLST3
 2665 01bd 10       		.uleb128 0x10
 2666 01be 746D7000 		.ascii	"tmp\000"
 2667 01c2 01       		.byte	0x1
 2668 01c3 1C       		.byte	0x1c
 2669 01c4 25000000 		.4byte	0x25
 2670 01c8 A0000000 		.4byte	.LLST4
 2671 01cc 00       		.byte	0
 2672 01cd 11       		.uleb128 0x11
 2673 01ce 55030000 		.4byte	.LASF31
 2674 01d2 01       		.byte	0x1
 2675 01d3 21       		.byte	0x21
 2676 01d4 9E000000 		.4byte	0x9e
 2677 01d8 00000000 		.4byte	.LFB66
 2678 01dc 12000000 		.4byte	.LFE66-.LFB66
 2679 01e0 01       		.uleb128 0x1
 2680 01e1 9C       		.byte	0x9c
 2681 01e2 12020000 		.4byte	0x212
 2682 01e6 0E       		.uleb128 0xe
 2683 01e7 C6020000 		.4byte	.LASF29
 2684 01eb 01       		.byte	0x1
 2685 01ec 21       		.byte	0x21
 2686 01ed AA000000 		.4byte	0xaa
 2687 01f1 B3000000 		.4byte	.LLST5
 2688 01f5 12       		.uleb128 0x12
 2689 01f6 72030000 		.4byte	.LASF32
 2690 01fa 01       		.byte	0x1
 2691 01fb 21       		.byte	0x21
 2692 01fc 9E000000 		.4byte	0x9e
 2693 0200 01       		.uleb128 0x1
 2694 0201 51       		.byte	0x51
 2695 0202 0F       		.uleb128 0xf
 2696 0203 E7020000 		.4byte	.LASF33
 2697 0207 01       		.byte	0x1
 2698 0208 22       		.byte	0x22
 2699 0209 9E000000 		.4byte	0x9e
 2700 020d 06010000 		.4byte	.LLST6
 2701 0211 00       		.byte	0
 2702 0212 11       		.uleb128 0x11
 2703 0213 F4010000 		.4byte	.LASF34
 2704 0217 01       		.byte	0x1
 2705 0218 2B       		.byte	0x2b
 2706 0219 AA000000 		.4byte	0xaa
 2707 021d 00000000 		.4byte	.LFB67
 2708 0221 06000000 		.4byte	.LFE67-.LFB67
 2709 0225 01       		.uleb128 0x1
 2710 0226 9C       		.byte	0x9c
 2711 0227 66020000 		.4byte	0x266
 2712 022b 0E       		.uleb128 0xe
ARM GAS  C:\Users\USUARIO\AppData\Local\Temp\ccgyuR3R.s 			page 58


 2713 022c 2F010000 		.4byte	.LASF35
 2714 0230 01       		.byte	0x1
 2715 0231 2B       		.byte	0x2b
 2716 0232 9E000000 		.4byte	0x9e
 2717 0236 53010000 		.4byte	.LLST7
 2718 023a 12       		.uleb128 0x12
 2719 023b AD020000 		.4byte	.LASF36
 2720 023f 01       		.byte	0x1
 2721 0240 2B       		.byte	0x2b
 2722 0241 9E000000 		.4byte	0x9e
 2723 0245 01       		.uleb128 0x1
 2724 0246 51       		.byte	0x51
 2725 0247 0F       		.uleb128 0xf
 2726 0248 FC000000 		.4byte	.LASF37
 2727 024c 01       		.byte	0x1
 2728 024d 2C       		.byte	0x2c
 2729 024e AA000000 		.4byte	0xaa
 2730 0252 74010000 		.4byte	.LLST8
 2731 0256 10       		.uleb128 0x10
 2732 0257 76617200 		.ascii	"var\000"
 2733 025b 01       		.byte	0x1
 2734 025c 2C       		.byte	0x2c
 2735 025d AA000000 		.4byte	0xaa
 2736 0261 9D010000 		.4byte	.LLST9
 2737 0265 00       		.byte	0
 2738 0266 13       		.uleb128 0x13
 2739 0267 68030000 		.4byte	.LASF46
 2740 026b 01       		.byte	0x1
 2741 026c 32       		.byte	0x32
 2742 026d 00000000 		.4byte	.LFB68
 2743 0271 38060000 		.4byte	.LFE68-.LFB68
 2744 0275 01       		.uleb128 0x1
 2745 0276 9C       		.byte	0x9c
 2746 0277 780B0000 		.4byte	0xb78
 2747 027b 10       		.uleb128 0x10
 2748 027c 6A00     		.ascii	"j\000"
 2749 027e 01       		.byte	0x1
 2750 027f 33       		.byte	0x33
 2751 0280 9E000000 		.4byte	0x9e
 2752 0284 B7010000 		.4byte	.LLST10
 2753 0288 14       		.uleb128 0x14
 2754 0289 1E000000 		.4byte	.LVL22
 2755 028d 43160000 		.4byte	0x1643
 2756 0291 9B020000 		.4byte	0x29b
 2757 0295 15       		.uleb128 0x15
 2758 0296 01       		.uleb128 0x1
 2759 0297 50       		.byte	0x50
 2760 0298 01       		.uleb128 0x1
 2761 0299 3A       		.byte	0x3a
 2762 029a 00       		.byte	0
 2763 029b 16       		.uleb128 0x16
 2764 029c 3C000000 		.4byte	.LVL23
 2765 02a0 4E160000 		.4byte	0x164e
 2766 02a4 16       		.uleb128 0x16
 2767 02a5 4C000000 		.4byte	.LVL24
 2768 02a9 4E160000 		.4byte	0x164e
 2769 02ad 14       		.uleb128 0x14
ARM GAS  C:\Users\USUARIO\AppData\Local\Temp\ccgyuR3R.s 			page 59


 2770 02ae 54000000 		.4byte	.LVL25
 2771 02b2 12020000 		.4byte	0x212
 2772 02b6 C1020000 		.4byte	0x2c1
 2773 02ba 15       		.uleb128 0x15
 2774 02bb 01       		.uleb128 0x1
 2775 02bc 50       		.byte	0x50
 2776 02bd 02       		.uleb128 0x2
 2777 02be 7A       		.byte	0x7a
 2778 02bf 00       		.sleb128 0
 2779 02c0 00       		.byte	0
 2780 02c1 14       		.uleb128 0x14
 2781 02c2 7E000000 		.4byte	.LVL26
 2782 02c6 59160000 		.4byte	0x1659
 2783 02ca D5020000 		.4byte	0x2d5
 2784 02ce 15       		.uleb128 0x15
 2785 02cf 01       		.uleb128 0x1
 2786 02d0 50       		.byte	0x50
 2787 02d1 02       		.uleb128 0x2
 2788 02d2 77       		.byte	0x77
 2789 02d3 00       		.sleb128 0
 2790 02d4 00       		.byte	0
 2791 02d5 14       		.uleb128 0x14
 2792 02d6 84000000 		.4byte	.LVL27
 2793 02da 43160000 		.4byte	0x1643
 2794 02de E8020000 		.4byte	0x2e8
 2795 02e2 15       		.uleb128 0x15
 2796 02e3 01       		.uleb128 0x1
 2797 02e4 50       		.byte	0x50
 2798 02e5 01       		.uleb128 0x1
 2799 02e6 44       		.byte	0x44
 2800 02e7 00       		.byte	0
 2801 02e8 14       		.uleb128 0x14
 2802 02e9 94000000 		.4byte	.LVL28
 2803 02ed 59160000 		.4byte	0x1659
 2804 02f1 FC020000 		.4byte	0x2fc
 2805 02f5 15       		.uleb128 0x15
 2806 02f6 01       		.uleb128 0x1
 2807 02f7 50       		.byte	0x50
 2808 02f8 02       		.uleb128 0x2
 2809 02f9 77       		.byte	0x77
 2810 02fa 00       		.sleb128 0
 2811 02fb 00       		.byte	0
 2812 02fc 14       		.uleb128 0x14
 2813 02fd 9A000000 		.4byte	.LVL29
 2814 0301 43160000 		.4byte	0x1643
 2815 0305 0F030000 		.4byte	0x30f
 2816 0309 15       		.uleb128 0x15
 2817 030a 01       		.uleb128 0x1
 2818 030b 50       		.byte	0x50
 2819 030c 01       		.uleb128 0x1
 2820 030d 44       		.byte	0x44
 2821 030e 00       		.byte	0
 2822 030f 14       		.uleb128 0x14
 2823 0310 A0000000 		.4byte	.LVL30
 2824 0314 43160000 		.4byte	0x1643
 2825 0318 22030000 		.4byte	0x322
 2826 031c 15       		.uleb128 0x15
ARM GAS  C:\Users\USUARIO\AppData\Local\Temp\ccgyuR3R.s 			page 60


 2827 031d 01       		.uleb128 0x1
 2828 031e 50       		.byte	0x50
 2829 031f 01       		.uleb128 0x1
 2830 0320 3A       		.byte	0x3a
 2831 0321 00       		.byte	0
 2832 0322 16       		.uleb128 0x16
 2833 0323 B4000000 		.4byte	.LVL31
 2834 0327 4E160000 		.4byte	0x164e
 2835 032b 14       		.uleb128 0x14
 2836 032c D8000000 		.4byte	.LVL32
 2837 0330 59160000 		.4byte	0x1659
 2838 0334 3E030000 		.4byte	0x33e
 2839 0338 15       		.uleb128 0x15
 2840 0339 01       		.uleb128 0x1
 2841 033a 50       		.byte	0x50
 2842 033b 01       		.uleb128 0x1
 2843 033c 30       		.byte	0x30
 2844 033d 00       		.byte	0
 2845 033e 14       		.uleb128 0x14
 2846 033f DE000000 		.4byte	.LVL33
 2847 0343 43160000 		.4byte	0x1643
 2848 0347 51030000 		.4byte	0x351
 2849 034b 15       		.uleb128 0x15
 2850 034c 01       		.uleb128 0x1
 2851 034d 50       		.byte	0x50
 2852 034e 01       		.uleb128 0x1
 2853 034f 44       		.byte	0x44
 2854 0350 00       		.byte	0
 2855 0351 14       		.uleb128 0x14
 2856 0352 E4000000 		.4byte	.LVL34
 2857 0356 43160000 		.4byte	0x1643
 2858 035a 64030000 		.4byte	0x364
 2859 035e 15       		.uleb128 0x15
 2860 035f 01       		.uleb128 0x1
 2861 0360 50       		.byte	0x50
 2862 0361 01       		.uleb128 0x1
 2863 0362 3A       		.byte	0x3a
 2864 0363 00       		.byte	0
 2865 0364 16       		.uleb128 0x16
 2866 0365 F4000000 		.4byte	.LVL35
 2867 0369 4E160000 		.4byte	0x164e
 2868 036d 14       		.uleb128 0x14
 2869 036e 18010000 		.4byte	.LVL36
 2870 0372 59160000 		.4byte	0x1659
 2871 0376 80030000 		.4byte	0x380
 2872 037a 15       		.uleb128 0x15
 2873 037b 01       		.uleb128 0x1
 2874 037c 50       		.byte	0x50
 2875 037d 01       		.uleb128 0x1
 2876 037e 30       		.byte	0x30
 2877 037f 00       		.byte	0
 2878 0380 14       		.uleb128 0x14
 2879 0381 1E010000 		.4byte	.LVL37
 2880 0385 43160000 		.4byte	0x1643
 2881 0389 93030000 		.4byte	0x393
 2882 038d 15       		.uleb128 0x15
 2883 038e 01       		.uleb128 0x1
ARM GAS  C:\Users\USUARIO\AppData\Local\Temp\ccgyuR3R.s 			page 61


 2884 038f 50       		.byte	0x50
 2885 0390 01       		.uleb128 0x1
 2886 0391 44       		.byte	0x44
 2887 0392 00       		.byte	0
 2888 0393 14       		.uleb128 0x14
 2889 0394 46010000 		.4byte	.LVL40
 2890 0398 43160000 		.4byte	0x1643
 2891 039c A7030000 		.4byte	0x3a7
 2892 03a0 15       		.uleb128 0x15
 2893 03a1 01       		.uleb128 0x1
 2894 03a2 50       		.byte	0x50
 2895 03a3 02       		.uleb128 0x2
 2896 03a4 08       		.byte	0x8
 2897 03a5 32       		.byte	0x32
 2898 03a6 00       		.byte	0
 2899 03a7 14       		.uleb128 0x14
 2900 03a8 4E010000 		.4byte	.LVL41
 2901 03ac 4E160000 		.4byte	0x164e
 2902 03b0 BC030000 		.4byte	0x3bc
 2903 03b4 15       		.uleb128 0x15
 2904 03b5 01       		.uleb128 0x1
 2905 03b6 50       		.byte	0x50
 2906 03b7 03       		.uleb128 0x3
 2907 03b8 0A       		.byte	0xa
 2908 03b9 C201     		.2byte	0x1c2
 2909 03bb 00       		.byte	0
 2910 03bc 14       		.uleb128 0x14
 2911 03bd 5C010000 		.4byte	.LVL43
 2912 03c1 43160000 		.4byte	0x1643
 2913 03c5 D0030000 		.4byte	0x3d0
 2914 03c9 15       		.uleb128 0x15
 2915 03ca 01       		.uleb128 0x1
 2916 03cb 50       		.byte	0x50
 2917 03cc 02       		.uleb128 0x2
 2918 03cd 08       		.byte	0x8
 2919 03ce 32       		.byte	0x32
 2920 03cf 00       		.byte	0
 2921 03d0 14       		.uleb128 0x14
 2922 03d1 82010000 		.4byte	.LVL46
 2923 03d5 59160000 		.4byte	0x1659
 2924 03d9 EA030000 		.4byte	0x3ea
 2925 03dd 15       		.uleb128 0x15
 2926 03de 01       		.uleb128 0x1
 2927 03df 50       		.byte	0x50
 2928 03e0 01       		.uleb128 0x1
 2929 03e1 33       		.byte	0x33
 2930 03e2 15       		.uleb128 0x15
 2931 03e3 01       		.uleb128 0x1
 2932 03e4 51       		.byte	0x51
 2933 03e5 03       		.uleb128 0x3
 2934 03e6 0A       		.byte	0xa
 2935 03e7 C201     		.2byte	0x1c2
 2936 03e9 00       		.byte	0
 2937 03ea 14       		.uleb128 0x14
 2938 03eb 88010000 		.4byte	.LVL47
 2939 03ef 43160000 		.4byte	0x1643
 2940 03f3 FD030000 		.4byte	0x3fd
ARM GAS  C:\Users\USUARIO\AppData\Local\Temp\ccgyuR3R.s 			page 62


 2941 03f7 15       		.uleb128 0x15
 2942 03f8 01       		.uleb128 0x1
 2943 03f9 50       		.byte	0x50
 2944 03fa 01       		.uleb128 0x1
 2945 03fb 44       		.byte	0x44
 2946 03fc 00       		.byte	0
 2947 03fd 14       		.uleb128 0x14
 2948 03fe 98010000 		.4byte	.LVL48
 2949 0402 4E160000 		.4byte	0x164e
 2950 0406 12040000 		.4byte	0x412
 2951 040a 15       		.uleb128 0x15
 2952 040b 01       		.uleb128 0x1
 2953 040c 50       		.byte	0x50
 2954 040d 03       		.uleb128 0x3
 2955 040e 0A       		.byte	0xa
 2956 040f C301     		.2byte	0x1c3
 2957 0411 00       		.byte	0
 2958 0412 14       		.uleb128 0x14
 2959 0413 A2010000 		.4byte	.LVL49
 2960 0417 43160000 		.4byte	0x1643
 2961 041b 26040000 		.4byte	0x426
 2962 041f 15       		.uleb128 0x15
 2963 0420 01       		.uleb128 0x1
 2964 0421 50       		.byte	0x50
 2965 0422 02       		.uleb128 0x2
 2966 0423 08       		.byte	0x8
 2967 0424 32       		.byte	0x32
 2968 0425 00       		.byte	0
 2969 0426 14       		.uleb128 0x14
 2970 0427 B8010000 		.4byte	.LVL50
 2971 042b 59160000 		.4byte	0x1659
 2972 042f 40040000 		.4byte	0x440
 2973 0433 15       		.uleb128 0x15
 2974 0434 01       		.uleb128 0x1
 2975 0435 50       		.byte	0x50
 2976 0436 01       		.uleb128 0x1
 2977 0437 3A       		.byte	0x3a
 2978 0438 15       		.uleb128 0x15
 2979 0439 01       		.uleb128 0x1
 2980 043a 51       		.byte	0x51
 2981 043b 03       		.uleb128 0x3
 2982 043c 0A       		.byte	0xa
 2983 043d C301     		.2byte	0x1c3
 2984 043f 00       		.byte	0
 2985 0440 14       		.uleb128 0x14
 2986 0441 BE010000 		.4byte	.LVL51
 2987 0445 43160000 		.4byte	0x1643
 2988 0449 53040000 		.4byte	0x453
 2989 044d 15       		.uleb128 0x15
 2990 044e 01       		.uleb128 0x1
 2991 044f 50       		.byte	0x50
 2992 0450 01       		.uleb128 0x1
 2993 0451 44       		.byte	0x44
 2994 0452 00       		.byte	0
 2995 0453 14       		.uleb128 0x14
 2996 0454 C6010000 		.4byte	.LVL52
 2997 0458 4E160000 		.4byte	0x164e
ARM GAS  C:\Users\USUARIO\AppData\Local\Temp\ccgyuR3R.s 			page 63


 2998 045c 68040000 		.4byte	0x468
 2999 0460 15       		.uleb128 0x15
 3000 0461 01       		.uleb128 0x1
 3001 0462 50       		.byte	0x50
 3002 0463 03       		.uleb128 0x3
 3003 0464 0A       		.byte	0xa
 3004 0465 C401     		.2byte	0x1c4
 3005 0467 00       		.byte	0
 3006 0468 14       		.uleb128 0x14
 3007 0469 D0010000 		.4byte	.LVL53
 3008 046d 43160000 		.4byte	0x1643
 3009 0471 7C040000 		.4byte	0x47c
 3010 0475 15       		.uleb128 0x15
 3011 0476 01       		.uleb128 0x1
 3012 0477 50       		.byte	0x50
 3013 0478 02       		.uleb128 0x2
 3014 0479 08       		.byte	0x8
 3015 047a 32       		.byte	0x32
 3016 047b 00       		.byte	0
 3017 047c 14       		.uleb128 0x14
 3018 047d E2010000 		.4byte	.LVL54
 3019 0481 59160000 		.4byte	0x1659
 3020 0485 96040000 		.4byte	0x496
 3021 0489 15       		.uleb128 0x15
 3022 048a 01       		.uleb128 0x1
 3023 048b 50       		.byte	0x50
 3024 048c 01       		.uleb128 0x1
 3025 048d 30       		.byte	0x30
 3026 048e 15       		.uleb128 0x15
 3027 048f 01       		.uleb128 0x1
 3028 0490 51       		.byte	0x51
 3029 0491 03       		.uleb128 0x3
 3030 0492 0A       		.byte	0xa
 3031 0493 C401     		.2byte	0x1c4
 3032 0495 00       		.byte	0
 3033 0496 14       		.uleb128 0x14
 3034 0497 E8010000 		.4byte	.LVL55
 3035 049b 43160000 		.4byte	0x1643
 3036 049f A9040000 		.4byte	0x4a9
 3037 04a3 15       		.uleb128 0x15
 3038 04a4 01       		.uleb128 0x1
 3039 04a5 50       		.byte	0x50
 3040 04a6 01       		.uleb128 0x1
 3041 04a7 44       		.byte	0x44
 3042 04a8 00       		.byte	0
 3043 04a9 14       		.uleb128 0x14
 3044 04aa F0010000 		.4byte	.LVL56
 3045 04ae 4E160000 		.4byte	0x164e
 3046 04b2 BE040000 		.4byte	0x4be
 3047 04b6 15       		.uleb128 0x15
 3048 04b7 01       		.uleb128 0x1
 3049 04b8 50       		.byte	0x50
 3050 04b9 03       		.uleb128 0x3
 3051 04ba 0A       		.byte	0xa
 3052 04bb C501     		.2byte	0x1c5
 3053 04bd 00       		.byte	0
 3054 04be 14       		.uleb128 0x14
ARM GAS  C:\Users\USUARIO\AppData\Local\Temp\ccgyuR3R.s 			page 64


 3055 04bf FA010000 		.4byte	.LVL57
 3056 04c3 43160000 		.4byte	0x1643
 3057 04c7 D2040000 		.4byte	0x4d2
 3058 04cb 15       		.uleb128 0x15
 3059 04cc 01       		.uleb128 0x1
 3060 04cd 50       		.byte	0x50
 3061 04ce 02       		.uleb128 0x2
 3062 04cf 08       		.byte	0x8
 3063 04d0 32       		.byte	0x32
 3064 04d1 00       		.byte	0
 3065 04d2 14       		.uleb128 0x14
 3066 04d3 0C020000 		.4byte	.LVL58
 3067 04d7 59160000 		.4byte	0x1659
 3068 04db EC040000 		.4byte	0x4ec
 3069 04df 15       		.uleb128 0x15
 3070 04e0 01       		.uleb128 0x1
 3071 04e1 50       		.byte	0x50
 3072 04e2 01       		.uleb128 0x1
 3073 04e3 30       		.byte	0x30
 3074 04e4 15       		.uleb128 0x15
 3075 04e5 01       		.uleb128 0x1
 3076 04e6 51       		.byte	0x51
 3077 04e7 03       		.uleb128 0x3
 3078 04e8 0A       		.byte	0xa
 3079 04e9 C501     		.2byte	0x1c5
 3080 04eb 00       		.byte	0
 3081 04ec 14       		.uleb128 0x14
 3082 04ed 12020000 		.4byte	.LVL59
 3083 04f1 43160000 		.4byte	0x1643
 3084 04f5 FF040000 		.4byte	0x4ff
 3085 04f9 15       		.uleb128 0x15
 3086 04fa 01       		.uleb128 0x1
 3087 04fb 50       		.byte	0x50
 3088 04fc 01       		.uleb128 0x1
 3089 04fd 44       		.byte	0x44
 3090 04fe 00       		.byte	0
 3091 04ff 14       		.uleb128 0x14
 3092 0500 1A020000 		.4byte	.LVL60
 3093 0504 4E160000 		.4byte	0x164e
 3094 0508 14050000 		.4byte	0x514
 3095 050c 15       		.uleb128 0x15
 3096 050d 01       		.uleb128 0x1
 3097 050e 50       		.byte	0x50
 3098 050f 03       		.uleb128 0x3
 3099 0510 0A       		.byte	0xa
 3100 0511 C601     		.2byte	0x1c6
 3101 0513 00       		.byte	0
 3102 0514 14       		.uleb128 0x14
 3103 0515 24020000 		.4byte	.LVL61
 3104 0519 43160000 		.4byte	0x1643
 3105 051d 28050000 		.4byte	0x528
 3106 0521 15       		.uleb128 0x15
 3107 0522 01       		.uleb128 0x1
 3108 0523 50       		.byte	0x50
 3109 0524 02       		.uleb128 0x2
 3110 0525 08       		.byte	0x8
 3111 0526 32       		.byte	0x32
ARM GAS  C:\Users\USUARIO\AppData\Local\Temp\ccgyuR3R.s 			page 65


 3112 0527 00       		.byte	0
 3113 0528 14       		.uleb128 0x14
 3114 0529 3E020000 		.4byte	.LVL62
 3115 052d 59160000 		.4byte	0x1659
 3116 0531 43050000 		.4byte	0x543
 3117 0535 15       		.uleb128 0x15
 3118 0536 01       		.uleb128 0x1
 3119 0537 50       		.byte	0x50
 3120 0538 02       		.uleb128 0x2
 3121 0539 74       		.byte	0x74
 3122 053a 00       		.sleb128 0
 3123 053b 15       		.uleb128 0x15
 3124 053c 01       		.uleb128 0x1
 3125 053d 51       		.byte	0x51
 3126 053e 03       		.uleb128 0x3
 3127 053f 0A       		.byte	0xa
 3128 0540 C601     		.2byte	0x1c6
 3129 0542 00       		.byte	0
 3130 0543 14       		.uleb128 0x14
 3131 0544 44020000 		.4byte	.LVL63
 3132 0548 43160000 		.4byte	0x1643
 3133 054c 57050000 		.4byte	0x557
 3134 0550 15       		.uleb128 0x15
 3135 0551 01       		.uleb128 0x1
 3136 0552 50       		.byte	0x50
 3137 0553 02       		.uleb128 0x2
 3138 0554 74       		.byte	0x74
 3139 0555 00       		.sleb128 0
 3140 0556 00       		.byte	0
 3141 0557 14       		.uleb128 0x14
 3142 0558 4C020000 		.4byte	.LVL64
 3143 055c 4E160000 		.4byte	0x164e
 3144 0560 6C050000 		.4byte	0x56c
 3145 0564 15       		.uleb128 0x15
 3146 0565 01       		.uleb128 0x1
 3147 0566 50       		.byte	0x50
 3148 0567 03       		.uleb128 0x3
 3149 0568 0A       		.byte	0xa
 3150 0569 C701     		.2byte	0x1c7
 3151 056b 00       		.byte	0
 3152 056c 14       		.uleb128 0x14
 3153 056d 56020000 		.4byte	.LVL65
 3154 0571 43160000 		.4byte	0x1643
 3155 0575 80050000 		.4byte	0x580
 3156 0579 15       		.uleb128 0x15
 3157 057a 01       		.uleb128 0x1
 3158 057b 50       		.byte	0x50
 3159 057c 02       		.uleb128 0x2
 3160 057d 08       		.byte	0x8
 3161 057e 32       		.byte	0x32
 3162 057f 00       		.byte	0
 3163 0580 14       		.uleb128 0x14
 3164 0581 5E020000 		.4byte	.LVL66
 3165 0585 4E160000 		.4byte	0x164e
 3166 0589 95050000 		.4byte	0x595
 3167 058d 15       		.uleb128 0x15
 3168 058e 01       		.uleb128 0x1
ARM GAS  C:\Users\USUARIO\AppData\Local\Temp\ccgyuR3R.s 			page 66


 3169 058f 50       		.byte	0x50
 3170 0590 03       		.uleb128 0x3
 3171 0591 0A       		.byte	0xa
 3172 0592 CA01     		.2byte	0x1ca
 3173 0594 00       		.byte	0
 3174 0595 14       		.uleb128 0x14
 3175 0596 6C020000 		.4byte	.LVL68
 3176 059a 43160000 		.4byte	0x1643
 3177 059e A9050000 		.4byte	0x5a9
 3178 05a2 15       		.uleb128 0x15
 3179 05a3 01       		.uleb128 0x1
 3180 05a4 50       		.byte	0x50
 3181 05a5 02       		.uleb128 0x2
 3182 05a6 08       		.byte	0x8
 3183 05a7 32       		.byte	0x32
 3184 05a8 00       		.byte	0
 3185 05a9 14       		.uleb128 0x14
 3186 05aa 92020000 		.4byte	.LVL71
 3187 05ae 59160000 		.4byte	0x1659
 3188 05b2 C4050000 		.4byte	0x5c4
 3189 05b6 15       		.uleb128 0x15
 3190 05b7 01       		.uleb128 0x1
 3191 05b8 50       		.byte	0x50
 3192 05b9 02       		.uleb128 0x2
 3193 05ba 08       		.byte	0x8
 3194 05bb 32       		.byte	0x32
 3195 05bc 15       		.uleb128 0x15
 3196 05bd 01       		.uleb128 0x1
 3197 05be 51       		.byte	0x51
 3198 05bf 03       		.uleb128 0x3
 3199 05c0 0A       		.byte	0xa
 3200 05c1 CA01     		.2byte	0x1ca
 3201 05c3 00       		.byte	0
 3202 05c4 14       		.uleb128 0x14
 3203 05c5 98020000 		.4byte	.LVL72
 3204 05c9 43160000 		.4byte	0x1643
 3205 05cd D7050000 		.4byte	0x5d7
 3206 05d1 15       		.uleb128 0x15
 3207 05d2 01       		.uleb128 0x1
 3208 05d3 50       		.byte	0x50
 3209 05d4 01       		.uleb128 0x1
 3210 05d5 44       		.byte	0x44
 3211 05d6 00       		.byte	0
 3212 05d7 14       		.uleb128 0x14
 3213 05d8 A0020000 		.4byte	.LVL73
 3214 05dc 4E160000 		.4byte	0x164e
 3215 05e0 EC050000 		.4byte	0x5ec
 3216 05e4 15       		.uleb128 0x15
 3217 05e5 01       		.uleb128 0x1
 3218 05e6 50       		.byte	0x50
 3219 05e7 03       		.uleb128 0x3
 3220 05e8 0A       		.byte	0xa
 3221 05e9 CC01     		.2byte	0x1cc
 3222 05eb 00       		.byte	0
 3223 05ec 14       		.uleb128 0x14
 3224 05ed AA020000 		.4byte	.LVL74
 3225 05f1 43160000 		.4byte	0x1643
ARM GAS  C:\Users\USUARIO\AppData\Local\Temp\ccgyuR3R.s 			page 67


 3226 05f5 00060000 		.4byte	0x600
 3227 05f9 15       		.uleb128 0x15
 3228 05fa 01       		.uleb128 0x1
 3229 05fb 50       		.byte	0x50
 3230 05fc 02       		.uleb128 0x2
 3231 05fd 08       		.byte	0x8
 3232 05fe 32       		.byte	0x32
 3233 05ff 00       		.byte	0
 3234 0600 14       		.uleb128 0x14
 3235 0601 BC020000 		.4byte	.LVL75
 3236 0605 59160000 		.4byte	0x1659
 3237 0609 1A060000 		.4byte	0x61a
 3238 060d 15       		.uleb128 0x15
 3239 060e 01       		.uleb128 0x1
 3240 060f 50       		.byte	0x50
 3241 0610 01       		.uleb128 0x1
 3242 0611 30       		.byte	0x30
 3243 0612 15       		.uleb128 0x15
 3244 0613 01       		.uleb128 0x1
 3245 0614 51       		.byte	0x51
 3246 0615 03       		.uleb128 0x3
 3247 0616 0A       		.byte	0xa
 3248 0617 CC01     		.2byte	0x1cc
 3249 0619 00       		.byte	0
 3250 061a 14       		.uleb128 0x14
 3251 061b C2020000 		.4byte	.LVL76
 3252 061f 43160000 		.4byte	0x1643
 3253 0623 2D060000 		.4byte	0x62d
 3254 0627 15       		.uleb128 0x15
 3255 0628 01       		.uleb128 0x1
 3256 0629 50       		.byte	0x50
 3257 062a 01       		.uleb128 0x1
 3258 062b 44       		.byte	0x44
 3259 062c 00       		.byte	0
 3260 062d 14       		.uleb128 0x14
 3261 062e CA020000 		.4byte	.LVL77
 3262 0632 4E160000 		.4byte	0x164e
 3263 0636 42060000 		.4byte	0x642
 3264 063a 15       		.uleb128 0x15
 3265 063b 01       		.uleb128 0x1
 3266 063c 50       		.byte	0x50
 3267 063d 03       		.uleb128 0x3
 3268 063e 0A       		.byte	0xa
 3269 063f CD01     		.2byte	0x1cd
 3270 0641 00       		.byte	0
 3271 0642 14       		.uleb128 0x14
 3272 0643 D4020000 		.4byte	.LVL78
 3273 0647 43160000 		.4byte	0x1643
 3274 064b 56060000 		.4byte	0x656
 3275 064f 15       		.uleb128 0x15
 3276 0650 01       		.uleb128 0x1
 3277 0651 50       		.byte	0x50
 3278 0652 02       		.uleb128 0x2
 3279 0653 08       		.byte	0x8
 3280 0654 32       		.byte	0x32
 3281 0655 00       		.byte	0
 3282 0656 14       		.uleb128 0x14
ARM GAS  C:\Users\USUARIO\AppData\Local\Temp\ccgyuR3R.s 			page 68


 3283 0657 E6020000 		.4byte	.LVL79
 3284 065b 59160000 		.4byte	0x1659
 3285 065f 70060000 		.4byte	0x670
 3286 0663 15       		.uleb128 0x15
 3287 0664 01       		.uleb128 0x1
 3288 0665 50       		.byte	0x50
 3289 0666 01       		.uleb128 0x1
 3290 0667 30       		.byte	0x30
 3291 0668 15       		.uleb128 0x15
 3292 0669 01       		.uleb128 0x1
 3293 066a 51       		.byte	0x51
 3294 066b 03       		.uleb128 0x3
 3295 066c 0A       		.byte	0xa
 3296 066d CD01     		.2byte	0x1cd
 3297 066f 00       		.byte	0
 3298 0670 14       		.uleb128 0x14
 3299 0671 EC020000 		.4byte	.LVL80
 3300 0675 43160000 		.4byte	0x1643
 3301 0679 83060000 		.4byte	0x683
 3302 067d 15       		.uleb128 0x15
 3303 067e 01       		.uleb128 0x1
 3304 067f 50       		.byte	0x50
 3305 0680 01       		.uleb128 0x1
 3306 0681 44       		.byte	0x44
 3307 0682 00       		.byte	0
 3308 0683 14       		.uleb128 0x14
 3309 0684 F4020000 		.4byte	.LVL81
 3310 0688 4E160000 		.4byte	0x164e
 3311 068c 98060000 		.4byte	0x698
 3312 0690 15       		.uleb128 0x15
 3313 0691 01       		.uleb128 0x1
 3314 0692 50       		.byte	0x50
 3315 0693 03       		.uleb128 0x3
 3316 0694 0A       		.byte	0xa
 3317 0695 CE01     		.2byte	0x1ce
 3318 0697 00       		.byte	0
 3319 0698 14       		.uleb128 0x14
 3320 0699 FE020000 		.4byte	.LVL82
 3321 069d 43160000 		.4byte	0x1643
 3322 06a1 AC060000 		.4byte	0x6ac
 3323 06a5 15       		.uleb128 0x15
 3324 06a6 01       		.uleb128 0x1
 3325 06a7 50       		.byte	0x50
 3326 06a8 02       		.uleb128 0x2
 3327 06a9 08       		.byte	0x8
 3328 06aa 32       		.byte	0x32
 3329 06ab 00       		.byte	0
 3330 06ac 14       		.uleb128 0x14
 3331 06ad 10030000 		.4byte	.LVL83
 3332 06b1 59160000 		.4byte	0x1659
 3333 06b5 C6060000 		.4byte	0x6c6
 3334 06b9 15       		.uleb128 0x15
 3335 06ba 01       		.uleb128 0x1
 3336 06bb 50       		.byte	0x50
 3337 06bc 01       		.uleb128 0x1
 3338 06bd 30       		.byte	0x30
 3339 06be 15       		.uleb128 0x15
ARM GAS  C:\Users\USUARIO\AppData\Local\Temp\ccgyuR3R.s 			page 69


 3340 06bf 01       		.uleb128 0x1
 3341 06c0 51       		.byte	0x51
 3342 06c1 03       		.uleb128 0x3
 3343 06c2 0A       		.byte	0xa
 3344 06c3 CE01     		.2byte	0x1ce
 3345 06c5 00       		.byte	0
 3346 06c6 14       		.uleb128 0x14
 3347 06c7 16030000 		.4byte	.LVL84
 3348 06cb 43160000 		.4byte	0x1643
 3349 06cf D9060000 		.4byte	0x6d9
 3350 06d3 15       		.uleb128 0x15
 3351 06d4 01       		.uleb128 0x1
 3352 06d5 50       		.byte	0x50
 3353 06d6 01       		.uleb128 0x1
 3354 06d7 44       		.byte	0x44
 3355 06d8 00       		.byte	0
 3356 06d9 14       		.uleb128 0x14
 3357 06da 1E030000 		.4byte	.LVL85
 3358 06de 4E160000 		.4byte	0x164e
 3359 06e2 EE060000 		.4byte	0x6ee
 3360 06e6 15       		.uleb128 0x15
 3361 06e7 01       		.uleb128 0x1
 3362 06e8 50       		.byte	0x50
 3363 06e9 03       		.uleb128 0x3
 3364 06ea 0A       		.byte	0xa
 3365 06eb CF01     		.2byte	0x1cf
 3366 06ed 00       		.byte	0
 3367 06ee 14       		.uleb128 0x14
 3368 06ef 28030000 		.4byte	.LVL86
 3369 06f3 43160000 		.4byte	0x1643
 3370 06f7 02070000 		.4byte	0x702
 3371 06fb 15       		.uleb128 0x15
 3372 06fc 01       		.uleb128 0x1
 3373 06fd 50       		.byte	0x50
 3374 06fe 02       		.uleb128 0x2
 3375 06ff 08       		.byte	0x8
 3376 0700 32       		.byte	0x32
 3377 0701 00       		.byte	0
 3378 0702 14       		.uleb128 0x14
 3379 0703 3A030000 		.4byte	.LVL87
 3380 0707 59160000 		.4byte	0x1659
 3381 070b 1C070000 		.4byte	0x71c
 3382 070f 15       		.uleb128 0x15
 3383 0710 01       		.uleb128 0x1
 3384 0711 50       		.byte	0x50
 3385 0712 01       		.uleb128 0x1
 3386 0713 30       		.byte	0x30
 3387 0714 15       		.uleb128 0x15
 3388 0715 01       		.uleb128 0x1
 3389 0716 51       		.byte	0x51
 3390 0717 03       		.uleb128 0x3
 3391 0718 0A       		.byte	0xa
 3392 0719 CF01     		.2byte	0x1cf
 3393 071b 00       		.byte	0
 3394 071c 14       		.uleb128 0x14
 3395 071d 40030000 		.4byte	.LVL88
 3396 0721 43160000 		.4byte	0x1643
ARM GAS  C:\Users\USUARIO\AppData\Local\Temp\ccgyuR3R.s 			page 70


 3397 0725 2F070000 		.4byte	0x72f
 3398 0729 15       		.uleb128 0x15
 3399 072a 01       		.uleb128 0x1
 3400 072b 50       		.byte	0x50
 3401 072c 01       		.uleb128 0x1
 3402 072d 44       		.byte	0x44
 3403 072e 00       		.byte	0
 3404 072f 14       		.uleb128 0x14
 3405 0730 94030000 		.4byte	.LVL89
 3406 0734 4E160000 		.4byte	0x164e
 3407 0738 44070000 		.4byte	0x744
 3408 073c 15       		.uleb128 0x15
 3409 073d 01       		.uleb128 0x1
 3410 073e 50       		.byte	0x50
 3411 073f 03       		.uleb128 0x3
 3412 0740 0A       		.byte	0xa
 3413 0741 D101     		.2byte	0x1d1
 3414 0743 00       		.byte	0
 3415 0744 14       		.uleb128 0x14
 3416 0745 9E030000 		.4byte	.LVL90
 3417 0749 43160000 		.4byte	0x1643
 3418 074d 58070000 		.4byte	0x758
 3419 0751 15       		.uleb128 0x15
 3420 0752 01       		.uleb128 0x1
 3421 0753 50       		.byte	0x50
 3422 0754 02       		.uleb128 0x2
 3423 0755 08       		.byte	0x8
 3424 0756 32       		.byte	0x32
 3425 0757 00       		.byte	0
 3426 0758 14       		.uleb128 0x14
 3427 0759 B0030000 		.4byte	.LVL91
 3428 075d 59160000 		.4byte	0x1659
 3429 0761 72070000 		.4byte	0x772
 3430 0765 15       		.uleb128 0x15
 3431 0766 01       		.uleb128 0x1
 3432 0767 50       		.byte	0x50
 3433 0768 01       		.uleb128 0x1
 3434 0769 30       		.byte	0x30
 3435 076a 15       		.uleb128 0x15
 3436 076b 01       		.uleb128 0x1
 3437 076c 51       		.byte	0x51
 3438 076d 03       		.uleb128 0x3
 3439 076e 0A       		.byte	0xa
 3440 076f D101     		.2byte	0x1d1
 3441 0771 00       		.byte	0
 3442 0772 14       		.uleb128 0x14
 3443 0773 B6030000 		.4byte	.LVL92
 3444 0777 43160000 		.4byte	0x1643
 3445 077b 85070000 		.4byte	0x785
 3446 077f 15       		.uleb128 0x15
 3447 0780 01       		.uleb128 0x1
 3448 0781 50       		.byte	0x50
 3449 0782 01       		.uleb128 0x1
 3450 0783 44       		.byte	0x44
 3451 0784 00       		.byte	0
 3452 0785 14       		.uleb128 0x14
 3453 0786 BE030000 		.4byte	.LVL93
ARM GAS  C:\Users\USUARIO\AppData\Local\Temp\ccgyuR3R.s 			page 71


 3454 078a 4E160000 		.4byte	0x164e
 3455 078e 9A070000 		.4byte	0x79a
 3456 0792 15       		.uleb128 0x15
 3457 0793 01       		.uleb128 0x1
 3458 0794 50       		.byte	0x50
 3459 0795 03       		.uleb128 0x3
 3460 0796 0A       		.byte	0xa
 3461 0797 D201     		.2byte	0x1d2
 3462 0799 00       		.byte	0
 3463 079a 14       		.uleb128 0x14
 3464 079b C8030000 		.4byte	.LVL94
 3465 079f 43160000 		.4byte	0x1643
 3466 07a3 AE070000 		.4byte	0x7ae
 3467 07a7 15       		.uleb128 0x15
 3468 07a8 01       		.uleb128 0x1
 3469 07a9 50       		.byte	0x50
 3470 07aa 02       		.uleb128 0x2
 3471 07ab 08       		.byte	0x8
 3472 07ac 32       		.byte	0x32
 3473 07ad 00       		.byte	0
 3474 07ae 14       		.uleb128 0x14
 3475 07af DA030000 		.4byte	.LVL95
 3476 07b3 59160000 		.4byte	0x1659
 3477 07b7 C8070000 		.4byte	0x7c8
 3478 07bb 15       		.uleb128 0x15
 3479 07bc 01       		.uleb128 0x1
 3480 07bd 50       		.byte	0x50
 3481 07be 01       		.uleb128 0x1
 3482 07bf 31       		.byte	0x31
 3483 07c0 15       		.uleb128 0x15
 3484 07c1 01       		.uleb128 0x1
 3485 07c2 51       		.byte	0x51
 3486 07c3 03       		.uleb128 0x3
 3487 07c4 0A       		.byte	0xa
 3488 07c5 D201     		.2byte	0x1d2
 3489 07c7 00       		.byte	0
 3490 07c8 14       		.uleb128 0x14
 3491 07c9 E0030000 		.4byte	.LVL96
 3492 07cd 43160000 		.4byte	0x1643
 3493 07d1 DB070000 		.4byte	0x7db
 3494 07d5 15       		.uleb128 0x15
 3495 07d6 01       		.uleb128 0x1
 3496 07d7 50       		.byte	0x50
 3497 07d8 01       		.uleb128 0x1
 3498 07d9 44       		.byte	0x44
 3499 07da 00       		.byte	0
 3500 07db 14       		.uleb128 0x14
 3501 07dc E8030000 		.4byte	.LVL97
 3502 07e0 4E160000 		.4byte	0x164e
 3503 07e4 F0070000 		.4byte	0x7f0
 3504 07e8 15       		.uleb128 0x15
 3505 07e9 01       		.uleb128 0x1
 3506 07ea 50       		.byte	0x50
 3507 07eb 03       		.uleb128 0x3
 3508 07ec 0A       		.byte	0xa
 3509 07ed D301     		.2byte	0x1d3
 3510 07ef 00       		.byte	0
ARM GAS  C:\Users\USUARIO\AppData\Local\Temp\ccgyuR3R.s 			page 72


 3511 07f0 14       		.uleb128 0x14
 3512 07f1 F2030000 		.4byte	.LVL98
 3513 07f5 43160000 		.4byte	0x1643
 3514 07f9 04080000 		.4byte	0x804
 3515 07fd 15       		.uleb128 0x15
 3516 07fe 01       		.uleb128 0x1
 3517 07ff 50       		.byte	0x50
 3518 0800 02       		.uleb128 0x2
 3519 0801 08       		.byte	0x8
 3520 0802 32       		.byte	0x32
 3521 0803 00       		.byte	0
 3522 0804 14       		.uleb128 0x14
 3523 0805 04040000 		.4byte	.LVL99
 3524 0809 59160000 		.4byte	0x1659
 3525 080d 1E080000 		.4byte	0x81e
 3526 0811 15       		.uleb128 0x15
 3527 0812 01       		.uleb128 0x1
 3528 0813 50       		.byte	0x50
 3529 0814 01       		.uleb128 0x1
 3530 0815 30       		.byte	0x30
 3531 0816 15       		.uleb128 0x15
 3532 0817 01       		.uleb128 0x1
 3533 0818 51       		.byte	0x51
 3534 0819 03       		.uleb128 0x3
 3535 081a 0A       		.byte	0xa
 3536 081b D301     		.2byte	0x1d3
 3537 081d 00       		.byte	0
 3538 081e 14       		.uleb128 0x14
 3539 081f 0A040000 		.4byte	.LVL100
 3540 0823 43160000 		.4byte	0x1643
 3541 0827 31080000 		.4byte	0x831
 3542 082b 15       		.uleb128 0x15
 3543 082c 01       		.uleb128 0x1
 3544 082d 50       		.byte	0x50
 3545 082e 01       		.uleb128 0x1
 3546 082f 44       		.byte	0x44
 3547 0830 00       		.byte	0
 3548 0831 14       		.uleb128 0x14
 3549 0832 12040000 		.4byte	.LVL101
 3550 0836 4E160000 		.4byte	0x164e
 3551 083a 46080000 		.4byte	0x846
 3552 083e 15       		.uleb128 0x15
 3553 083f 01       		.uleb128 0x1
 3554 0840 50       		.byte	0x50
 3555 0841 03       		.uleb128 0x3
 3556 0842 0A       		.byte	0xa
 3557 0843 D401     		.2byte	0x1d4
 3558 0845 00       		.byte	0
 3559 0846 14       		.uleb128 0x14
 3560 0847 1C040000 		.4byte	.LVL102
 3561 084b 43160000 		.4byte	0x1643
 3562 084f 5A080000 		.4byte	0x85a
 3563 0853 15       		.uleb128 0x15
 3564 0854 01       		.uleb128 0x1
 3565 0855 50       		.byte	0x50
 3566 0856 02       		.uleb128 0x2
 3567 0857 08       		.byte	0x8
ARM GAS  C:\Users\USUARIO\AppData\Local\Temp\ccgyuR3R.s 			page 73


 3568 0858 32       		.byte	0x32
 3569 0859 00       		.byte	0
 3570 085a 14       		.uleb128 0x14
 3571 085b 2E040000 		.4byte	.LVL103
 3572 085f 59160000 		.4byte	0x1659
 3573 0863 74080000 		.4byte	0x874
 3574 0867 15       		.uleb128 0x15
 3575 0868 01       		.uleb128 0x1
 3576 0869 50       		.byte	0x50
 3577 086a 01       		.uleb128 0x1
 3578 086b 30       		.byte	0x30
 3579 086c 15       		.uleb128 0x15
 3580 086d 01       		.uleb128 0x1
 3581 086e 51       		.byte	0x51
 3582 086f 03       		.uleb128 0x3
 3583 0870 0A       		.byte	0xa
 3584 0871 D401     		.2byte	0x1d4
 3585 0873 00       		.byte	0
 3586 0874 14       		.uleb128 0x14
 3587 0875 34040000 		.4byte	.LVL104
 3588 0879 43160000 		.4byte	0x1643
 3589 087d 87080000 		.4byte	0x887
 3590 0881 15       		.uleb128 0x15
 3591 0882 01       		.uleb128 0x1
 3592 0883 50       		.byte	0x50
 3593 0884 01       		.uleb128 0x1
 3594 0885 44       		.byte	0x44
 3595 0886 00       		.byte	0
 3596 0887 14       		.uleb128 0x14
 3597 0888 3C040000 		.4byte	.LVL105
 3598 088c 4E160000 		.4byte	0x164e
 3599 0890 9C080000 		.4byte	0x89c
 3600 0894 15       		.uleb128 0x15
 3601 0895 01       		.uleb128 0x1
 3602 0896 50       		.byte	0x50
 3603 0897 03       		.uleb128 0x3
 3604 0898 0A       		.byte	0xa
 3605 0899 D601     		.2byte	0x1d6
 3606 089b 00       		.byte	0
 3607 089c 14       		.uleb128 0x14
 3608 089d 46040000 		.4byte	.LVL106
 3609 08a1 43160000 		.4byte	0x1643
 3610 08a5 B0080000 		.4byte	0x8b0
 3611 08a9 15       		.uleb128 0x15
 3612 08aa 01       		.uleb128 0x1
 3613 08ab 50       		.byte	0x50
 3614 08ac 02       		.uleb128 0x2
 3615 08ad 08       		.byte	0x8
 3616 08ae 32       		.byte	0x32
 3617 08af 00       		.byte	0
 3618 08b0 14       		.uleb128 0x14
 3619 08b1 5C040000 		.4byte	.LVL107
 3620 08b5 59160000 		.4byte	0x1659
 3621 08b9 CA080000 		.4byte	0x8ca
 3622 08bd 15       		.uleb128 0x15
 3623 08be 01       		.uleb128 0x1
 3624 08bf 50       		.byte	0x50
ARM GAS  C:\Users\USUARIO\AppData\Local\Temp\ccgyuR3R.s 			page 74


 3625 08c0 01       		.uleb128 0x1
 3626 08c1 31       		.byte	0x31
 3627 08c2 15       		.uleb128 0x15
 3628 08c3 01       		.uleb128 0x1
 3629 08c4 51       		.byte	0x51
 3630 08c5 03       		.uleb128 0x3
 3631 08c6 0A       		.byte	0xa
 3632 08c7 D601     		.2byte	0x1d6
 3633 08c9 00       		.byte	0
 3634 08ca 14       		.uleb128 0x14
 3635 08cb 62040000 		.4byte	.LVL108
 3636 08cf 43160000 		.4byte	0x1643
 3637 08d3 DD080000 		.4byte	0x8dd
 3638 08d7 15       		.uleb128 0x15
 3639 08d8 01       		.uleb128 0x1
 3640 08d9 50       		.byte	0x50
 3641 08da 01       		.uleb128 0x1
 3642 08db 44       		.byte	0x44
 3643 08dc 00       		.byte	0
 3644 08dd 14       		.uleb128 0x14
 3645 08de 6A040000 		.4byte	.LVL109
 3646 08e2 4E160000 		.4byte	0x164e
 3647 08e6 F2080000 		.4byte	0x8f2
 3648 08ea 15       		.uleb128 0x15
 3649 08eb 01       		.uleb128 0x1
 3650 08ec 50       		.byte	0x50
 3651 08ed 03       		.uleb128 0x3
 3652 08ee 0A       		.byte	0xa
 3653 08ef D701     		.2byte	0x1d7
 3654 08f1 00       		.byte	0
 3655 08f2 14       		.uleb128 0x14
 3656 08f3 74040000 		.4byte	.LVL110
 3657 08f7 43160000 		.4byte	0x1643
 3658 08fb 06090000 		.4byte	0x906
 3659 08ff 15       		.uleb128 0x15
 3660 0900 01       		.uleb128 0x1
 3661 0901 50       		.byte	0x50
 3662 0902 02       		.uleb128 0x2
 3663 0903 08       		.byte	0x8
 3664 0904 32       		.byte	0x32
 3665 0905 00       		.byte	0
 3666 0906 14       		.uleb128 0x14
 3667 0907 8A040000 		.4byte	.LVL111
 3668 090b 59160000 		.4byte	0x1659
 3669 090f 20090000 		.4byte	0x920
 3670 0913 15       		.uleb128 0x15
 3671 0914 01       		.uleb128 0x1
 3672 0915 50       		.byte	0x50
 3673 0916 01       		.uleb128 0x1
 3674 0917 4E       		.byte	0x4e
 3675 0918 15       		.uleb128 0x15
 3676 0919 01       		.uleb128 0x1
 3677 091a 51       		.byte	0x51
 3678 091b 03       		.uleb128 0x3
 3679 091c 0A       		.byte	0xa
 3680 091d D701     		.2byte	0x1d7
 3681 091f 00       		.byte	0
ARM GAS  C:\Users\USUARIO\AppData\Local\Temp\ccgyuR3R.s 			page 75


 3682 0920 14       		.uleb128 0x14
 3683 0921 90040000 		.4byte	.LVL112
 3684 0925 43160000 		.4byte	0x1643
 3685 0929 33090000 		.4byte	0x933
 3686 092d 15       		.uleb128 0x15
 3687 092e 01       		.uleb128 0x1
 3688 092f 50       		.byte	0x50
 3689 0930 01       		.uleb128 0x1
 3690 0931 44       		.byte	0x44
 3691 0932 00       		.byte	0
 3692 0933 14       		.uleb128 0x14
 3693 0934 98040000 		.4byte	.LVL113
 3694 0938 4E160000 		.4byte	0x164e
 3695 093c 48090000 		.4byte	0x948
 3696 0940 15       		.uleb128 0x15
 3697 0941 01       		.uleb128 0x1
 3698 0942 50       		.byte	0x50
 3699 0943 03       		.uleb128 0x3
 3700 0944 0A       		.byte	0xa
 3701 0945 D901     		.2byte	0x1d9
 3702 0947 00       		.byte	0
 3703 0948 14       		.uleb128 0x14
 3704 0949 A2040000 		.4byte	.LVL114
 3705 094d 4E160000 		.4byte	0x164e
 3706 0951 5D090000 		.4byte	0x95d
 3707 0955 15       		.uleb128 0x15
 3708 0956 01       		.uleb128 0x1
 3709 0957 50       		.byte	0x50
 3710 0958 03       		.uleb128 0x3
 3711 0959 0A       		.byte	0xa
 3712 095a D801     		.2byte	0x1d8
 3713 095c 00       		.byte	0
 3714 095d 14       		.uleb128 0x14
 3715 095e AA040000 		.4byte	.LVL115
 3716 0962 12020000 		.4byte	0x212
 3717 0966 71090000 		.4byte	0x971
 3718 096a 15       		.uleb128 0x15
 3719 096b 01       		.uleb128 0x1
 3720 096c 50       		.byte	0x50
 3721 096d 02       		.uleb128 0x2
 3722 096e 74       		.byte	0x74
 3723 096f 00       		.sleb128 0
 3724 0970 00       		.byte	0
 3725 0971 14       		.uleb128 0x14
 3726 0972 B4040000 		.4byte	.LVL116
 3727 0976 43160000 		.4byte	0x1643
 3728 097a 85090000 		.4byte	0x985
 3729 097e 15       		.uleb128 0x15
 3730 097f 01       		.uleb128 0x1
 3731 0980 50       		.byte	0x50
 3732 0981 02       		.uleb128 0x2
 3733 0982 08       		.byte	0x8
 3734 0983 32       		.byte	0x32
 3735 0984 00       		.byte	0
 3736 0985 14       		.uleb128 0x14
 3737 0986 C8040000 		.4byte	.LVL117
 3738 098a 59160000 		.4byte	0x1659
ARM GAS  C:\Users\USUARIO\AppData\Local\Temp\ccgyuR3R.s 			page 76


 3739 098e A0090000 		.4byte	0x9a0
 3740 0992 15       		.uleb128 0x15
 3741 0993 01       		.uleb128 0x1
 3742 0994 50       		.byte	0x50
 3743 0995 02       		.uleb128 0x2
 3744 0996 09       		.byte	0x9
 3745 0997 C8       		.byte	0xc8
 3746 0998 15       		.uleb128 0x15
 3747 0999 01       		.uleb128 0x1
 3748 099a 51       		.byte	0x51
 3749 099b 03       		.uleb128 0x3
 3750 099c 0A       		.byte	0xa
 3751 099d D801     		.2byte	0x1d8
 3752 099f 00       		.byte	0
 3753 09a0 14       		.uleb128 0x14
 3754 09a1 CE040000 		.4byte	.LVL118
 3755 09a5 43160000 		.4byte	0x1643
 3756 09a9 B3090000 		.4byte	0x9b3
 3757 09ad 15       		.uleb128 0x15
 3758 09ae 01       		.uleb128 0x1
 3759 09af 50       		.byte	0x50
 3760 09b0 01       		.uleb128 0x1
 3761 09b1 44       		.byte	0x44
 3762 09b2 00       		.byte	0
 3763 09b3 14       		.uleb128 0x14
 3764 09b4 D8040000 		.4byte	.LVL119
 3765 09b8 59160000 		.4byte	0x1659
 3766 09bc CD090000 		.4byte	0x9cd
 3767 09c0 15       		.uleb128 0x15
 3768 09c1 01       		.uleb128 0x1
 3769 09c2 50       		.byte	0x50
 3770 09c3 01       		.uleb128 0x1
 3771 09c4 30       		.byte	0x30
 3772 09c5 15       		.uleb128 0x15
 3773 09c6 01       		.uleb128 0x1
 3774 09c7 51       		.byte	0x51
 3775 09c8 03       		.uleb128 0x3
 3776 09c9 0A       		.byte	0xa
 3777 09ca D901     		.2byte	0x1d9
 3778 09cc 00       		.byte	0
 3779 09cd 14       		.uleb128 0x14
 3780 09ce DE040000 		.4byte	.LVL120
 3781 09d2 43160000 		.4byte	0x1643
 3782 09d6 E0090000 		.4byte	0x9e0
 3783 09da 15       		.uleb128 0x15
 3784 09db 01       		.uleb128 0x1
 3785 09dc 50       		.byte	0x50
 3786 09dd 01       		.uleb128 0x1
 3787 09de 44       		.byte	0x44
 3788 09df 00       		.byte	0
 3789 09e0 14       		.uleb128 0x14
 3790 09e1 E6040000 		.4byte	.LVL121
 3791 09e5 4E160000 		.4byte	0x164e
 3792 09e9 F5090000 		.4byte	0x9f5
 3793 09ed 15       		.uleb128 0x15
 3794 09ee 01       		.uleb128 0x1
 3795 09ef 50       		.byte	0x50
ARM GAS  C:\Users\USUARIO\AppData\Local\Temp\ccgyuR3R.s 			page 77


 3796 09f0 03       		.uleb128 0x3
 3797 09f1 0A       		.byte	0xa
 3798 09f2 EA01     		.2byte	0x1ea
 3799 09f4 00       		.byte	0
 3800 09f5 14       		.uleb128 0x14
 3801 09f6 F0040000 		.4byte	.LVL122
 3802 09fa 43160000 		.4byte	0x1643
 3803 09fe 090A0000 		.4byte	0xa09
 3804 0a02 15       		.uleb128 0x15
 3805 0a03 01       		.uleb128 0x1
 3806 0a04 50       		.byte	0x50
 3807 0a05 02       		.uleb128 0x2
 3808 0a06 08       		.byte	0x8
 3809 0a07 32       		.byte	0x32
 3810 0a08 00       		.byte	0
 3811 0a09 14       		.uleb128 0x14
 3812 0a0a F8040000 		.4byte	.LVL123
 3813 0a0e 4E160000 		.4byte	0x164e
 3814 0a12 1E0A0000 		.4byte	0xa1e
 3815 0a16 15       		.uleb128 0x15
 3816 0a17 01       		.uleb128 0x1
 3817 0a18 50       		.byte	0x50
 3818 0a19 03       		.uleb128 0x3
 3819 0a1a 0A       		.byte	0xa
 3820 0a1b EB01     		.2byte	0x1eb
 3821 0a1d 00       		.byte	0
 3822 0a1e 14       		.uleb128 0x14
 3823 0a1f 02050000 		.4byte	.LVL124
 3824 0a23 43160000 		.4byte	0x1643
 3825 0a27 320A0000 		.4byte	0xa32
 3826 0a2b 15       		.uleb128 0x15
 3827 0a2c 01       		.uleb128 0x1
 3828 0a2d 50       		.byte	0x50
 3829 0a2e 02       		.uleb128 0x2
 3830 0a2f 08       		.byte	0x8
 3831 0a30 32       		.byte	0x32
 3832 0a31 00       		.byte	0
 3833 0a32 14       		.uleb128 0x14
 3834 0a33 28050000 		.4byte	.LVL129
 3835 0a37 4E160000 		.4byte	0x164e
 3836 0a3b 470A0000 		.4byte	0xa47
 3837 0a3f 15       		.uleb128 0x15
 3838 0a40 01       		.uleb128 0x1
 3839 0a41 50       		.byte	0x50
 3840 0a42 03       		.uleb128 0x3
 3841 0a43 0A       		.byte	0xa
 3842 0a44 ED01     		.2byte	0x1ed
 3843 0a46 00       		.byte	0
 3844 0a47 14       		.uleb128 0x14
 3845 0a48 32050000 		.4byte	.LVL130
 3846 0a4c 4E160000 		.4byte	0x164e
 3847 0a50 5C0A0000 		.4byte	0xa5c
 3848 0a54 15       		.uleb128 0x15
 3849 0a55 01       		.uleb128 0x1
 3850 0a56 50       		.byte	0x50
 3851 0a57 03       		.uleb128 0x3
 3852 0a58 0A       		.byte	0xa
ARM GAS  C:\Users\USUARIO\AppData\Local\Temp\ccgyuR3R.s 			page 78


 3853 0a59 EC01     		.2byte	0x1ec
 3854 0a5b 00       		.byte	0
 3855 0a5c 14       		.uleb128 0x14
 3856 0a5d 3A050000 		.4byte	.LVL131
 3857 0a61 12020000 		.4byte	0x212
 3858 0a65 700A0000 		.4byte	0xa70
 3859 0a69 15       		.uleb128 0x15
 3860 0a6a 01       		.uleb128 0x1
 3861 0a6b 50       		.byte	0x50
 3862 0a6c 02       		.uleb128 0x2
 3863 0a6d 74       		.byte	0x74
 3864 0a6e 00       		.sleb128 0
 3865 0a6f 00       		.byte	0
 3866 0a70 14       		.uleb128 0x14
 3867 0a71 46050000 		.4byte	.LVL132
 3868 0a75 4E160000 		.4byte	0x164e
 3869 0a79 850A0000 		.4byte	0xa85
 3870 0a7d 15       		.uleb128 0x15
 3871 0a7e 01       		.uleb128 0x1
 3872 0a7f 50       		.byte	0x50
 3873 0a80 03       		.uleb128 0x3
 3874 0a81 0A       		.byte	0xa
 3875 0a82 EE01     		.2byte	0x1ee
 3876 0a84 00       		.byte	0
 3877 0a85 14       		.uleb128 0x14
 3878 0a86 50050000 		.4byte	.LVL133
 3879 0a8a 43160000 		.4byte	0x1643
 3880 0a8e 990A0000 		.4byte	0xa99
 3881 0a92 15       		.uleb128 0x15
 3882 0a93 01       		.uleb128 0x1
 3883 0a94 50       		.byte	0x50
 3884 0a95 02       		.uleb128 0x2
 3885 0a96 08       		.byte	0x8
 3886 0a97 32       		.byte	0x32
 3887 0a98 00       		.byte	0
 3888 0a99 14       		.uleb128 0x14
 3889 0a9a 86050000 		.4byte	.LVL139
 3890 0a9e 59160000 		.4byte	0x1659
 3891 0aa2 B30A0000 		.4byte	0xab3
 3892 0aa6 15       		.uleb128 0x15
 3893 0aa7 01       		.uleb128 0x1
 3894 0aa8 50       		.byte	0x50
 3895 0aa9 01       		.uleb128 0x1
 3896 0aaa 30       		.byte	0x30
 3897 0aab 15       		.uleb128 0x15
 3898 0aac 01       		.uleb128 0x1
 3899 0aad 51       		.byte	0x51
 3900 0aae 03       		.uleb128 0x3
 3901 0aaf 0A       		.byte	0xa
 3902 0ab0 EC01     		.2byte	0x1ec
 3903 0ab2 00       		.byte	0
 3904 0ab3 14       		.uleb128 0x14
 3905 0ab4 8C050000 		.4byte	.LVL140
 3906 0ab8 43160000 		.4byte	0x1643
 3907 0abc C60A0000 		.4byte	0xac6
 3908 0ac0 15       		.uleb128 0x15
 3909 0ac1 01       		.uleb128 0x1
ARM GAS  C:\Users\USUARIO\AppData\Local\Temp\ccgyuR3R.s 			page 79


 3910 0ac2 50       		.byte	0x50
 3911 0ac3 01       		.uleb128 0x1
 3912 0ac4 3A       		.byte	0x3a
 3913 0ac5 00       		.byte	0
 3914 0ac6 14       		.uleb128 0x14
 3915 0ac7 96050000 		.4byte	.LVL141
 3916 0acb 59160000 		.4byte	0x1659
 3917 0acf E00A0000 		.4byte	0xae0
 3918 0ad3 15       		.uleb128 0x15
 3919 0ad4 01       		.uleb128 0x1
 3920 0ad5 50       		.byte	0x50
 3921 0ad6 01       		.uleb128 0x1
 3922 0ad7 30       		.byte	0x30
 3923 0ad8 15       		.uleb128 0x15
 3924 0ad9 01       		.uleb128 0x1
 3925 0ada 51       		.byte	0x51
 3926 0adb 03       		.uleb128 0x3
 3927 0adc 0A       		.byte	0xa
 3928 0add ED01     		.2byte	0x1ed
 3929 0adf 00       		.byte	0
 3930 0ae0 14       		.uleb128 0x14
 3931 0ae1 9C050000 		.4byte	.LVL142
 3932 0ae5 43160000 		.4byte	0x1643
 3933 0ae9 F30A0000 		.4byte	0xaf3
 3934 0aed 15       		.uleb128 0x15
 3935 0aee 01       		.uleb128 0x1
 3936 0aef 50       		.byte	0x50
 3937 0af0 01       		.uleb128 0x1
 3938 0af1 3A       		.byte	0x3a
 3939 0af2 00       		.byte	0
 3940 0af3 14       		.uleb128 0x14
 3941 0af4 A6050000 		.4byte	.LVL143
 3942 0af8 59160000 		.4byte	0x1659
 3943 0afc 0E0B0000 		.4byte	0xb0e
 3944 0b00 15       		.uleb128 0x15
 3945 0b01 01       		.uleb128 0x1
 3946 0b02 50       		.byte	0x50
 3947 0b03 02       		.uleb128 0x2
 3948 0b04 08       		.byte	0x8
 3949 0b05 42       		.byte	0x42
 3950 0b06 15       		.uleb128 0x15
 3951 0b07 01       		.uleb128 0x1
 3952 0b08 51       		.byte	0x51
 3953 0b09 03       		.uleb128 0x3
 3954 0b0a 0A       		.byte	0xa
 3955 0b0b EE01     		.2byte	0x1ee
 3956 0b0d 00       		.byte	0
 3957 0b0e 14       		.uleb128 0x14
 3958 0b0f AC050000 		.4byte	.LVL144
 3959 0b13 43160000 		.4byte	0x1643
 3960 0b17 210B0000 		.4byte	0xb21
 3961 0b1b 15       		.uleb128 0x15
 3962 0b1c 01       		.uleb128 0x1
 3963 0b1d 50       		.byte	0x50
 3964 0b1e 01       		.uleb128 0x1
 3965 0b1f 3A       		.byte	0x3a
 3966 0b20 00       		.byte	0
ARM GAS  C:\Users\USUARIO\AppData\Local\Temp\ccgyuR3R.s 			page 80


 3967 0b21 14       		.uleb128 0x14
 3968 0b22 E0050000 		.4byte	.LVL148
 3969 0b26 59160000 		.4byte	0x1659
 3970 0b2a 3B0B0000 		.4byte	0xb3b
 3971 0b2e 15       		.uleb128 0x15
 3972 0b2f 01       		.uleb128 0x1
 3973 0b30 50       		.byte	0x50
 3974 0b31 01       		.uleb128 0x1
 3975 0b32 31       		.byte	0x31
 3976 0b33 15       		.uleb128 0x15
 3977 0b34 01       		.uleb128 0x1
 3978 0b35 51       		.byte	0x51
 3979 0b36 03       		.uleb128 0x3
 3980 0b37 0A       		.byte	0xa
 3981 0b38 EA01     		.2byte	0x1ea
 3982 0b3a 00       		.byte	0
 3983 0b3b 14       		.uleb128 0x14
 3984 0b3c E6050000 		.4byte	.LVL149
 3985 0b40 43160000 		.4byte	0x1643
 3986 0b44 4E0B0000 		.4byte	0xb4e
 3987 0b48 15       		.uleb128 0x15
 3988 0b49 01       		.uleb128 0x1
 3989 0b4a 50       		.byte	0x50
 3990 0b4b 01       		.uleb128 0x1
 3991 0b4c 3A       		.byte	0x3a
 3992 0b4d 00       		.byte	0
 3993 0b4e 14       		.uleb128 0x14
 3994 0b4f F0050000 		.4byte	.LVL150
 3995 0b53 59160000 		.4byte	0x1659
 3996 0b57 680B0000 		.4byte	0xb68
 3997 0b5b 15       		.uleb128 0x15
 3998 0b5c 01       		.uleb128 0x1
 3999 0b5d 50       		.byte	0x50
 4000 0b5e 01       		.uleb128 0x1
 4001 0b5f 30       		.byte	0x30
 4002 0b60 15       		.uleb128 0x15
 4003 0b61 01       		.uleb128 0x1
 4004 0b62 51       		.byte	0x51
 4005 0b63 03       		.uleb128 0x3
 4006 0b64 0A       		.byte	0xa
 4007 0b65 EB01     		.2byte	0x1eb
 4008 0b67 00       		.byte	0
 4009 0b68 17       		.uleb128 0x17
 4010 0b69 F6050000 		.4byte	.LVL151
 4011 0b6d 43160000 		.4byte	0x1643
 4012 0b71 15       		.uleb128 0x15
 4013 0b72 01       		.uleb128 0x1
 4014 0b73 50       		.byte	0x50
 4015 0b74 01       		.uleb128 0x1
 4016 0b75 3A       		.byte	0x3a
 4017 0b76 00       		.byte	0
 4018 0b77 00       		.byte	0
 4019 0b78 11       		.uleb128 0x11
 4020 0b79 89000000 		.4byte	.LASF38
 4021 0b7d 01       		.byte	0x1
 4022 0b7e F2       		.byte	0xf2
 4023 0b7f 45000000 		.4byte	0x45
ARM GAS  C:\Users\USUARIO\AppData\Local\Temp\ccgyuR3R.s 			page 81


 4024 0b83 00000000 		.4byte	.LFB69
 4025 0b87 1C040000 		.4byte	.LFE69-.LFB69
 4026 0b8b 01       		.uleb128 0x1
 4027 0b8c 9C       		.byte	0x9c
 4028 0b8d FA0F0000 		.4byte	0xffa
 4029 0b91 0E       		.uleb128 0xe
 4030 0b92 E7000000 		.4byte	.LASF39
 4031 0b96 01       		.byte	0x1
 4032 0b97 F2       		.byte	0xf2
 4033 0b98 9E000000 		.4byte	0x9e
 4034 0b9c E1010000 		.4byte	.LLST11
 4035 0ba0 0E       		.uleb128 0xe
 4036 0ba1 A4000000 		.4byte	.LASF40
 4037 0ba5 01       		.byte	0x1
 4038 0ba6 F2       		.byte	0xf2
 4039 0ba7 9E000000 		.4byte	0x9e
 4040 0bab 02020000 		.4byte	.LLST12
 4041 0baf 0E       		.uleb128 0xe
 4042 0bb0 FE010000 		.4byte	.LASF41
 4043 0bb4 01       		.byte	0x1
 4044 0bb5 F2       		.byte	0xf2
 4045 0bb6 9E000000 		.4byte	0x9e
 4046 0bba 21020000 		.4byte	.LLST13
 4047 0bbe 0E       		.uleb128 0xe
 4048 0bbf 7F020000 		.4byte	.LASF42
 4049 0bc3 01       		.byte	0x1
 4050 0bc4 F2       		.byte	0xf2
 4051 0bc5 9E000000 		.4byte	0x9e
 4052 0bc9 42020000 		.4byte	.LLST14
 4053 0bcd 0E       		.uleb128 0xe
 4054 0bce 86020000 		.4byte	.LASF43
 4055 0bd2 01       		.byte	0x1
 4056 0bd3 F2       		.byte	0xf2
 4057 0bd4 9E000000 		.4byte	0x9e
 4058 0bd8 63020000 		.4byte	.LLST15
 4059 0bdc 0E       		.uleb128 0xe
 4060 0bdd 8D020000 		.4byte	.LASF44
 4061 0be1 01       		.byte	0x1
 4062 0be2 F2       		.byte	0xf2
 4063 0be3 9E000000 		.4byte	0x9e
 4064 0be7 83020000 		.4byte	.LLST16
 4065 0beb 0E       		.uleb128 0xe
 4066 0bec 94020000 		.4byte	.LASF45
 4067 0bf0 01       		.byte	0x1
 4068 0bf1 F2       		.byte	0xf2
 4069 0bf2 9E000000 		.4byte	0x9e
 4070 0bf6 A3020000 		.4byte	.LLST17
 4071 0bfa 14       		.uleb128 0x14
 4072 0bfb 20000000 		.4byte	.LVL158
 4073 0bff 64160000 		.4byte	0x1664
 4074 0c03 170C0000 		.4byte	0xc17
 4075 0c07 15       		.uleb128 0x15
 4076 0c08 01       		.uleb128 0x1
 4077 0c09 51       		.byte	0x51
 4078 0c0a 01       		.uleb128 0x1
 4079 0c0b 44       		.byte	0x44
 4080 0c0c 15       		.uleb128 0x15
ARM GAS  C:\Users\USUARIO\AppData\Local\Temp\ccgyuR3R.s 			page 82


 4081 0c0d 01       		.uleb128 0x1
 4082 0c0e 52       		.byte	0x52
 4083 0c0f 01       		.uleb128 0x1
 4084 0c10 4E       		.byte	0x4e
 4085 0c11 15       		.uleb128 0x15
 4086 0c12 01       		.uleb128 0x1
 4087 0c13 53       		.byte	0x53
 4088 0c14 01       		.uleb128 0x1
 4089 0c15 31       		.byte	0x31
 4090 0c16 00       		.byte	0
 4091 0c17 14       		.uleb128 0x14
 4092 0c18 2C000000 		.4byte	.LVL159
 4093 0c1c 64160000 		.4byte	0x1664
 4094 0c20 350C0000 		.4byte	0xc35
 4095 0c24 15       		.uleb128 0x15
 4096 0c25 01       		.uleb128 0x1
 4097 0c26 51       		.byte	0x51
 4098 0c27 02       		.uleb128 0x2
 4099 0c28 08       		.byte	0x8
 4100 0c29 28       		.byte	0x28
 4101 0c2a 15       		.uleb128 0x15
 4102 0c2b 01       		.uleb128 0x1
 4103 0c2c 52       		.byte	0x52
 4104 0c2d 01       		.uleb128 0x1
 4105 0c2e 4E       		.byte	0x4e
 4106 0c2f 15       		.uleb128 0x15
 4107 0c30 01       		.uleb128 0x1
 4108 0c31 53       		.byte	0x53
 4109 0c32 01       		.uleb128 0x1
 4110 0c33 30       		.byte	0x30
 4111 0c34 00       		.byte	0
 4112 0c35 14       		.uleb128 0x14
 4113 0c36 38000000 		.4byte	.LVL160
 4114 0c3a 64160000 		.4byte	0x1664
 4115 0c3e 530C0000 		.4byte	0xc53
 4116 0c42 15       		.uleb128 0x15
 4117 0c43 01       		.uleb128 0x1
 4118 0c44 51       		.byte	0x51
 4119 0c45 02       		.uleb128 0x2
 4120 0c46 08       		.byte	0x8
 4121 0c47 3C       		.byte	0x3c
 4122 0c48 15       		.uleb128 0x15
 4123 0c49 01       		.uleb128 0x1
 4124 0c4a 52       		.byte	0x52
 4125 0c4b 01       		.uleb128 0x1
 4126 0c4c 4E       		.byte	0x4e
 4127 0c4d 15       		.uleb128 0x15
 4128 0c4e 01       		.uleb128 0x1
 4129 0c4f 53       		.byte	0x53
 4130 0c50 01       		.uleb128 0x1
 4131 0c51 30       		.byte	0x30
 4132 0c52 00       		.byte	0
 4133 0c53 14       		.uleb128 0x14
 4134 0c54 44000000 		.4byte	.LVL161
 4135 0c58 64160000 		.4byte	0x1664
 4136 0c5c 710C0000 		.4byte	0xc71
 4137 0c60 15       		.uleb128 0x15
ARM GAS  C:\Users\USUARIO\AppData\Local\Temp\ccgyuR3R.s 			page 83


 4138 0c61 01       		.uleb128 0x1
 4139 0c62 51       		.byte	0x51
 4140 0c63 02       		.uleb128 0x2
 4141 0c64 08       		.byte	0x8
 4142 0c65 50       		.byte	0x50
 4143 0c66 15       		.uleb128 0x15
 4144 0c67 01       		.uleb128 0x1
 4145 0c68 52       		.byte	0x52
 4146 0c69 01       		.uleb128 0x1
 4147 0c6a 4E       		.byte	0x4e
 4148 0c6b 15       		.uleb128 0x15
 4149 0c6c 01       		.uleb128 0x1
 4150 0c6d 53       		.byte	0x53
 4151 0c6e 01       		.uleb128 0x1
 4152 0c6f 30       		.byte	0x30
 4153 0c70 00       		.byte	0
 4154 0c71 14       		.uleb128 0x14
 4155 0c72 60000000 		.4byte	.LVL162
 4156 0c76 6F160000 		.4byte	0x166f
 4157 0c7a 9A0C0000 		.4byte	0xc9a
 4158 0c7e 15       		.uleb128 0x15
 4159 0c7f 01       		.uleb128 0x1
 4160 0c80 50       		.byte	0x50
 4161 0c81 02       		.uleb128 0x2
 4162 0c82 77       		.byte	0x77
 4163 0c83 00       		.sleb128 0
 4164 0c84 15       		.uleb128 0x15
 4165 0c85 01       		.uleb128 0x1
 4166 0c86 51       		.byte	0x51
 4167 0c87 01       		.uleb128 0x1
 4168 0c88 44       		.byte	0x44
 4169 0c89 15       		.uleb128 0x15
 4170 0c8a 01       		.uleb128 0x1
 4171 0c8b 52       		.byte	0x52
 4172 0c8c 01       		.uleb128 0x1
 4173 0c8d 30       		.byte	0x30
 4174 0c8e 15       		.uleb128 0x15
 4175 0c8f 01       		.uleb128 0x1
 4176 0c90 53       		.byte	0x53
 4177 0c91 01       		.uleb128 0x1
 4178 0c92 31       		.byte	0x31
 4179 0c93 15       		.uleb128 0x15
 4180 0c94 02       		.uleb128 0x2
 4181 0c95 7D       		.byte	0x7d
 4182 0c96 00       		.sleb128 0
 4183 0c97 01       		.uleb128 0x1
 4184 0c98 33       		.byte	0x33
 4185 0c99 00       		.byte	0
 4186 0c9a 16       		.uleb128 0x16
 4187 0c9b 6A000000 		.4byte	.LVL163
 4188 0c9f 7A160000 		.4byte	0x167a
 4189 0ca3 14       		.uleb128 0x14
 4190 0ca4 84000000 		.4byte	.LVL164
 4191 0ca8 43160000 		.4byte	0x1643
 4192 0cac B70C0000 		.4byte	0xcb7
 4193 0cb0 15       		.uleb128 0x15
 4194 0cb1 01       		.uleb128 0x1
ARM GAS  C:\Users\USUARIO\AppData\Local\Temp\ccgyuR3R.s 			page 84


 4195 0cb2 50       		.byte	0x50
 4196 0cb3 02       		.uleb128 0x2
 4197 0cb4 08       		.byte	0x8
 4198 0cb5 C8       		.byte	0xc8
 4199 0cb6 00       		.byte	0
 4200 0cb7 14       		.uleb128 0x14
 4201 0cb8 BE000000 		.4byte	.LVL165
 4202 0cbc 64160000 		.4byte	0x1664
 4203 0cc0 CF0C0000 		.4byte	0xccf
 4204 0cc4 15       		.uleb128 0x15
 4205 0cc5 01       		.uleb128 0x1
 4206 0cc6 52       		.byte	0x52
 4207 0cc7 01       		.uleb128 0x1
 4208 0cc8 4E       		.byte	0x4e
 4209 0cc9 15       		.uleb128 0x15
 4210 0cca 01       		.uleb128 0x1
 4211 0ccb 53       		.byte	0x53
 4212 0ccc 01       		.uleb128 0x1
 4213 0ccd 31       		.byte	0x31
 4214 0cce 00       		.byte	0
 4215 0ccf 14       		.uleb128 0x14
 4216 0cd0 D8000000 		.4byte	.LVL166
 4217 0cd4 64160000 		.4byte	0x1664
 4218 0cd8 E70C0000 		.4byte	0xce7
 4219 0cdc 15       		.uleb128 0x15
 4220 0cdd 01       		.uleb128 0x1
 4221 0cde 52       		.byte	0x52
 4222 0cdf 01       		.uleb128 0x1
 4223 0ce0 4E       		.byte	0x4e
 4224 0ce1 15       		.uleb128 0x15
 4225 0ce2 01       		.uleb128 0x1
 4226 0ce3 53       		.byte	0x53
 4227 0ce4 01       		.uleb128 0x1
 4228 0ce5 30       		.byte	0x30
 4229 0ce6 00       		.byte	0
 4230 0ce7 16       		.uleb128 0x16
 4231 0ce8 F4000000 		.4byte	.LVL167
 4232 0cec 85160000 		.4byte	0x1685
 4233 0cf0 14       		.uleb128 0x14
 4234 0cf1 0E010000 		.4byte	.LVL168
 4235 0cf5 43160000 		.4byte	0x1643
 4236 0cf9 040D0000 		.4byte	0xd04
 4237 0cfd 15       		.uleb128 0x15
 4238 0cfe 01       		.uleb128 0x1
 4239 0cff 50       		.byte	0x50
 4240 0d00 02       		.uleb128 0x2
 4241 0d01 08       		.byte	0x8
 4242 0d02 C8       		.byte	0xc8
 4243 0d03 00       		.byte	0
 4244 0d04 14       		.uleb128 0x14
 4245 0d05 48010000 		.4byte	.LVL169
 4246 0d09 64160000 		.4byte	0x1664
 4247 0d0d 1C0D0000 		.4byte	0xd1c
 4248 0d11 15       		.uleb128 0x15
 4249 0d12 01       		.uleb128 0x1
 4250 0d13 52       		.byte	0x52
 4251 0d14 01       		.uleb128 0x1
ARM GAS  C:\Users\USUARIO\AppData\Local\Temp\ccgyuR3R.s 			page 85


 4252 0d15 4E       		.byte	0x4e
 4253 0d16 15       		.uleb128 0x15
 4254 0d17 01       		.uleb128 0x1
 4255 0d18 53       		.byte	0x53
 4256 0d19 01       		.uleb128 0x1
 4257 0d1a 31       		.byte	0x31
 4258 0d1b 00       		.byte	0
 4259 0d1c 14       		.uleb128 0x14
 4260 0d1d 62010000 		.4byte	.LVL170
 4261 0d21 64160000 		.4byte	0x1664
 4262 0d25 340D0000 		.4byte	0xd34
 4263 0d29 15       		.uleb128 0x15
 4264 0d2a 01       		.uleb128 0x1
 4265 0d2b 52       		.byte	0x52
 4266 0d2c 01       		.uleb128 0x1
 4267 0d2d 4E       		.byte	0x4e
 4268 0d2e 15       		.uleb128 0x15
 4269 0d2f 01       		.uleb128 0x1
 4270 0d30 53       		.byte	0x53
 4271 0d31 01       		.uleb128 0x1
 4272 0d32 30       		.byte	0x30
 4273 0d33 00       		.byte	0
 4274 0d34 16       		.uleb128 0x16
 4275 0d35 7E010000 		.4byte	.LVL171
 4276 0d39 90160000 		.4byte	0x1690
 4277 0d3d 14       		.uleb128 0x14
 4278 0d3e 98010000 		.4byte	.LVL172
 4279 0d42 43160000 		.4byte	0x1643
 4280 0d46 510D0000 		.4byte	0xd51
 4281 0d4a 15       		.uleb128 0x15
 4282 0d4b 01       		.uleb128 0x1
 4283 0d4c 50       		.byte	0x50
 4284 0d4d 02       		.uleb128 0x2
 4285 0d4e 08       		.byte	0x8
 4286 0d4f C8       		.byte	0xc8
 4287 0d50 00       		.byte	0
 4288 0d51 14       		.uleb128 0x14
 4289 0d52 C6010000 		.4byte	.LVL173
 4290 0d56 64160000 		.4byte	0x1664
 4291 0d5a 690D0000 		.4byte	0xd69
 4292 0d5e 15       		.uleb128 0x15
 4293 0d5f 01       		.uleb128 0x1
 4294 0d60 52       		.byte	0x52
 4295 0d61 01       		.uleb128 0x1
 4296 0d62 4E       		.byte	0x4e
 4297 0d63 15       		.uleb128 0x15
 4298 0d64 01       		.uleb128 0x1
 4299 0d65 53       		.byte	0x53
 4300 0d66 01       		.uleb128 0x1
 4301 0d67 31       		.byte	0x31
 4302 0d68 00       		.byte	0
 4303 0d69 14       		.uleb128 0x14
 4304 0d6a E0010000 		.4byte	.LVL174
 4305 0d6e 64160000 		.4byte	0x1664
 4306 0d72 810D0000 		.4byte	0xd81
 4307 0d76 15       		.uleb128 0x15
 4308 0d77 01       		.uleb128 0x1
ARM GAS  C:\Users\USUARIO\AppData\Local\Temp\ccgyuR3R.s 			page 86


 4309 0d78 52       		.byte	0x52
 4310 0d79 01       		.uleb128 0x1
 4311 0d7a 4E       		.byte	0x4e
 4312 0d7b 15       		.uleb128 0x15
 4313 0d7c 01       		.uleb128 0x1
 4314 0d7d 53       		.byte	0x53
 4315 0d7e 01       		.uleb128 0x1
 4316 0d7f 30       		.byte	0x30
 4317 0d80 00       		.byte	0
 4318 0d81 16       		.uleb128 0x16
 4319 0d82 FC010000 		.4byte	.LVL175
 4320 0d86 9B160000 		.4byte	0x169b
 4321 0d8a 14       		.uleb128 0x14
 4322 0d8b 04020000 		.4byte	.LVL176
 4323 0d8f 43160000 		.4byte	0x1643
 4324 0d93 9E0D0000 		.4byte	0xd9e
 4325 0d97 15       		.uleb128 0x15
 4326 0d98 01       		.uleb128 0x1
 4327 0d99 50       		.byte	0x50
 4328 0d9a 02       		.uleb128 0x2
 4329 0d9b 08       		.byte	0x8
 4330 0d9c 64       		.byte	0x64
 4331 0d9d 00       		.byte	0
 4332 0d9e 16       		.uleb128 0x16
 4333 0d9f 08020000 		.4byte	.LVL177
 4334 0da3 9B160000 		.4byte	0x169b
 4335 0da7 16       		.uleb128 0x16
 4336 0da8 12020000 		.4byte	.LVL178
 4337 0dac A6160000 		.4byte	0x16a6
 4338 0db0 14       		.uleb128 0x14
 4339 0db1 30020000 		.4byte	.LVL179
 4340 0db5 A6160000 		.4byte	0x16a6
 4341 0db9 C30D0000 		.4byte	0xdc3
 4342 0dbd 15       		.uleb128 0x15
 4343 0dbe 01       		.uleb128 0x1
 4344 0dbf 50       		.byte	0x50
 4345 0dc0 01       		.uleb128 0x1
 4346 0dc1 30       		.byte	0x30
 4347 0dc2 00       		.byte	0
 4348 0dc3 16       		.uleb128 0x16
 4349 0dc4 34020000 		.4byte	.LVL180
 4350 0dc8 B1160000 		.4byte	0x16b1
 4351 0dcc 14       		.uleb128 0x14
 4352 0dcd 48020000 		.4byte	.LVL181
 4353 0dd1 A6160000 		.4byte	0x16a6
 4354 0dd5 DF0D0000 		.4byte	0xddf
 4355 0dd9 15       		.uleb128 0x15
 4356 0dda 01       		.uleb128 0x1
 4357 0ddb 50       		.byte	0x50
 4358 0ddc 01       		.uleb128 0x1
 4359 0ddd 30       		.byte	0x30
 4360 0dde 00       		.byte	0
 4361 0ddf 14       		.uleb128 0x14
 4362 0de0 88020000 		.4byte	.LVL182
 4363 0de4 A6160000 		.4byte	0x16a6
 4364 0de8 F20D0000 		.4byte	0xdf2
 4365 0dec 15       		.uleb128 0x15
ARM GAS  C:\Users\USUARIO\AppData\Local\Temp\ccgyuR3R.s 			page 87


 4366 0ded 01       		.uleb128 0x1
 4367 0dee 50       		.byte	0x50
 4368 0def 01       		.uleb128 0x1
 4369 0df0 30       		.byte	0x30
 4370 0df1 00       		.byte	0
 4371 0df2 14       		.uleb128 0x14
 4372 0df3 A4020000 		.4byte	.LVL183
 4373 0df7 6F160000 		.4byte	0x166f
 4374 0dfb 1C0E0000 		.4byte	0xe1c
 4375 0dff 15       		.uleb128 0x15
 4376 0e00 01       		.uleb128 0x1
 4377 0e01 50       		.byte	0x50
 4378 0e02 02       		.uleb128 0x2
 4379 0e03 74       		.byte	0x74
 4380 0e04 00       		.sleb128 0
 4381 0e05 15       		.uleb128 0x15
 4382 0e06 01       		.uleb128 0x1
 4383 0e07 51       		.byte	0x51
 4384 0e08 01       		.uleb128 0x1
 4385 0e09 4E       		.byte	0x4e
 4386 0e0a 15       		.uleb128 0x15
 4387 0e0b 01       		.uleb128 0x1
 4388 0e0c 52       		.byte	0x52
 4389 0e0d 01       		.uleb128 0x1
 4390 0e0e 30       		.byte	0x30
 4391 0e0f 15       		.uleb128 0x15
 4392 0e10 01       		.uleb128 0x1
 4393 0e11 53       		.byte	0x53
 4394 0e12 01       		.uleb128 0x1
 4395 0e13 30       		.byte	0x30
 4396 0e14 15       		.uleb128 0x15
 4397 0e15 02       		.uleb128 0x2
 4398 0e16 7D       		.byte	0x7d
 4399 0e17 00       		.sleb128 0
 4400 0e18 02       		.uleb128 0x2
 4401 0e19 75       		.byte	0x75
 4402 0e1a 00       		.sleb128 0
 4403 0e1b 00       		.byte	0
 4404 0e1c 14       		.uleb128 0x14
 4405 0e1d BE020000 		.4byte	.LVL184
 4406 0e21 6F160000 		.4byte	0x166f
 4407 0e25 460E0000 		.4byte	0xe46
 4408 0e29 15       		.uleb128 0x15
 4409 0e2a 01       		.uleb128 0x1
 4410 0e2b 50       		.byte	0x50
 4411 0e2c 02       		.uleb128 0x2
 4412 0e2d 74       		.byte	0x74
 4413 0e2e 00       		.sleb128 0
 4414 0e2f 15       		.uleb128 0x15
 4415 0e30 01       		.uleb128 0x1
 4416 0e31 51       		.byte	0x51
 4417 0e32 01       		.uleb128 0x1
 4418 0e33 3F       		.byte	0x3f
 4419 0e34 15       		.uleb128 0x15
 4420 0e35 01       		.uleb128 0x1
 4421 0e36 52       		.byte	0x52
 4422 0e37 01       		.uleb128 0x1
ARM GAS  C:\Users\USUARIO\AppData\Local\Temp\ccgyuR3R.s 			page 88


 4423 0e38 4E       		.byte	0x4e
 4424 0e39 15       		.uleb128 0x15
 4425 0e3a 01       		.uleb128 0x1
 4426 0e3b 53       		.byte	0x53
 4427 0e3c 01       		.uleb128 0x1
 4428 0e3d 30       		.byte	0x30
 4429 0e3e 15       		.uleb128 0x15
 4430 0e3f 02       		.uleb128 0x2
 4431 0e40 7D       		.byte	0x7d
 4432 0e41 00       		.sleb128 0
 4433 0e42 02       		.uleb128 0x2
 4434 0e43 75       		.byte	0x75
 4435 0e44 00       		.sleb128 0
 4436 0e45 00       		.byte	0
 4437 0e46 16       		.uleb128 0x16
 4438 0e47 C6020000 		.4byte	.LVL185
 4439 0e4b B1160000 		.4byte	0x16b1
 4440 0e4f 14       		.uleb128 0x14
 4441 0e50 CE020000 		.4byte	.LVL186
 4442 0e54 43160000 		.4byte	0x1643
 4443 0e58 640E0000 		.4byte	0xe64
 4444 0e5c 15       		.uleb128 0x15
 4445 0e5d 01       		.uleb128 0x1
 4446 0e5e 50       		.byte	0x50
 4447 0e5f 03       		.uleb128 0x3
 4448 0e60 0A       		.byte	0xa
 4449 0e61 E803     		.2byte	0x3e8
 4450 0e63 00       		.byte	0
 4451 0e64 14       		.uleb128 0x14
 4452 0e65 D4020000 		.4byte	.LVL187
 4453 0e69 A6160000 		.4byte	0x16a6
 4454 0e6d 770E0000 		.4byte	0xe77
 4455 0e71 15       		.uleb128 0x15
 4456 0e72 01       		.uleb128 0x1
 4457 0e73 50       		.byte	0x50
 4458 0e74 01       		.uleb128 0x1
 4459 0e75 30       		.byte	0x30
 4460 0e76 00       		.byte	0
 4461 0e77 14       		.uleb128 0x14
 4462 0e78 1E030000 		.4byte	.LVL188
 4463 0e7c A6160000 		.4byte	0x16a6
 4464 0e80 8A0E0000 		.4byte	0xe8a
 4465 0e84 15       		.uleb128 0x15
 4466 0e85 01       		.uleb128 0x1
 4467 0e86 50       		.byte	0x50
 4468 0e87 01       		.uleb128 0x1
 4469 0e88 30       		.byte	0x30
 4470 0e89 00       		.byte	0
 4471 0e8a 14       		.uleb128 0x14
 4472 0e8b 42030000 		.4byte	.LVL189
 4473 0e8f 6F160000 		.4byte	0x166f
 4474 0e93 B40E0000 		.4byte	0xeb4
 4475 0e97 15       		.uleb128 0x15
 4476 0e98 01       		.uleb128 0x1
 4477 0e99 50       		.byte	0x50
 4478 0e9a 02       		.uleb128 0x2
 4479 0e9b 76       		.byte	0x76
ARM GAS  C:\Users\USUARIO\AppData\Local\Temp\ccgyuR3R.s 			page 89


 4480 0e9c 00       		.sleb128 0
 4481 0e9d 15       		.uleb128 0x15
 4482 0e9e 01       		.uleb128 0x1
 4483 0e9f 51       		.byte	0x51
 4484 0ea0 01       		.uleb128 0x1
 4485 0ea1 4E       		.byte	0x4e
 4486 0ea2 15       		.uleb128 0x15
 4487 0ea3 01       		.uleb128 0x1
 4488 0ea4 52       		.byte	0x52
 4489 0ea5 01       		.uleb128 0x1
 4490 0ea6 30       		.byte	0x30
 4491 0ea7 15       		.uleb128 0x15
 4492 0ea8 01       		.uleb128 0x1
 4493 0ea9 53       		.byte	0x53
 4494 0eaa 01       		.uleb128 0x1
 4495 0eab 30       		.byte	0x30
 4496 0eac 15       		.uleb128 0x15
 4497 0ead 02       		.uleb128 0x2
 4498 0eae 7D       		.byte	0x7d
 4499 0eaf 00       		.sleb128 0
 4500 0eb0 02       		.uleb128 0x2
 4501 0eb1 75       		.byte	0x75
 4502 0eb2 00       		.sleb128 0
 4503 0eb3 00       		.byte	0
 4504 0eb4 14       		.uleb128 0x14
 4505 0eb5 60030000 		.4byte	.LVL190
 4506 0eb9 6F160000 		.4byte	0x166f
 4507 0ebd DE0E0000 		.4byte	0xede
 4508 0ec1 15       		.uleb128 0x15
 4509 0ec2 01       		.uleb128 0x1
 4510 0ec3 50       		.byte	0x50
 4511 0ec4 02       		.uleb128 0x2
 4512 0ec5 76       		.byte	0x76
 4513 0ec6 00       		.sleb128 0
 4514 0ec7 15       		.uleb128 0x15
 4515 0ec8 01       		.uleb128 0x1
 4516 0ec9 51       		.byte	0x51
 4517 0eca 01       		.uleb128 0x1
 4518 0ecb 30       		.byte	0x30
 4519 0ecc 15       		.uleb128 0x15
 4520 0ecd 01       		.uleb128 0x1
 4521 0ece 52       		.byte	0x52
 4522 0ecf 01       		.uleb128 0x1
 4523 0ed0 4E       		.byte	0x4e
 4524 0ed1 15       		.uleb128 0x15
 4525 0ed2 01       		.uleb128 0x1
 4526 0ed3 53       		.byte	0x53
 4527 0ed4 01       		.uleb128 0x1
 4528 0ed5 30       		.byte	0x30
 4529 0ed6 15       		.uleb128 0x15
 4530 0ed7 02       		.uleb128 0x2
 4531 0ed8 7D       		.byte	0x7d
 4532 0ed9 00       		.sleb128 0
 4533 0eda 02       		.uleb128 0x2
 4534 0edb 75       		.byte	0x75
 4535 0edc 00       		.sleb128 0
 4536 0edd 00       		.byte	0
ARM GAS  C:\Users\USUARIO\AppData\Local\Temp\ccgyuR3R.s 			page 90


 4537 0ede 16       		.uleb128 0x16
 4538 0edf 6E030000 		.4byte	.LVL191
 4539 0ee3 B1160000 		.4byte	0x16b1
 4540 0ee7 14       		.uleb128 0x14
 4541 0ee8 76030000 		.4byte	.LVL192
 4542 0eec 43160000 		.4byte	0x1643
 4543 0ef0 FC0E0000 		.4byte	0xefc
 4544 0ef4 15       		.uleb128 0x15
 4545 0ef5 01       		.uleb128 0x1
 4546 0ef6 50       		.byte	0x50
 4547 0ef7 03       		.uleb128 0x3
 4548 0ef8 0A       		.byte	0xa
 4549 0ef9 E803     		.2byte	0x3e8
 4550 0efb 00       		.byte	0
 4551 0efc 14       		.uleb128 0x14
 4552 0efd 88030000 		.4byte	.LVL193
 4553 0f01 A6160000 		.4byte	0x16a6
 4554 0f05 100F0000 		.4byte	0xf10
 4555 0f09 15       		.uleb128 0x15
 4556 0f0a 01       		.uleb128 0x1
 4557 0f0b 50       		.byte	0x50
 4558 0f0c 02       		.uleb128 0x2
 4559 0f0d 75       		.byte	0x75
 4560 0f0e 00       		.sleb128 0
 4561 0f0f 00       		.byte	0
 4562 0f10 14       		.uleb128 0x14
 4563 0f11 9C030000 		.4byte	.LVL194
 4564 0f15 BC160000 		.4byte	0x16bc
 4565 0f19 430F0000 		.4byte	0xf43
 4566 0f1d 15       		.uleb128 0x15
 4567 0f1e 01       		.uleb128 0x1
 4568 0f1f 50       		.byte	0x50
 4569 0f20 02       		.uleb128 0x2
 4570 0f21 75       		.byte	0x75
 4571 0f22 00       		.sleb128 0
 4572 0f23 15       		.uleb128 0x15
 4573 0f24 01       		.uleb128 0x1
 4574 0f25 51       		.byte	0x51
 4575 0f26 02       		.uleb128 0x2
 4576 0f27 75       		.byte	0x75
 4577 0f28 00       		.sleb128 0
 4578 0f29 15       		.uleb128 0x15
 4579 0f2a 01       		.uleb128 0x1
 4580 0f2b 52       		.byte	0x52
 4581 0f2c 02       		.uleb128 0x2
 4582 0f2d 08       		.byte	0x8
 4583 0f2e 7F       		.byte	0x7f
 4584 0f2f 15       		.uleb128 0x15
 4585 0f30 01       		.uleb128 0x1
 4586 0f31 53       		.byte	0x53
 4587 0f32 01       		.uleb128 0x1
 4588 0f33 49       		.byte	0x49
 4589 0f34 15       		.uleb128 0x15
 4590 0f35 02       		.uleb128 0x2
 4591 0f36 7D       		.byte	0x7d
 4592 0f37 00       		.sleb128 0
 4593 0f38 02       		.uleb128 0x2
ARM GAS  C:\Users\USUARIO\AppData\Local\Temp\ccgyuR3R.s 			page 91


 4594 0f39 78       		.byte	0x78
 4595 0f3a 00       		.sleb128 0
 4596 0f3b 15       		.uleb128 0x15
 4597 0f3c 02       		.uleb128 0x2
 4598 0f3d 7D       		.byte	0x7d
 4599 0f3e 04       		.sleb128 4
 4600 0f3f 02       		.uleb128 0x2
 4601 0f40 78       		.byte	0x78
 4602 0f41 00       		.sleb128 0
 4603 0f42 00       		.byte	0
 4604 0f43 14       		.uleb128 0x14
 4605 0f44 B4030000 		.4byte	.LVL195
 4606 0f48 C7160000 		.4byte	0x16c7
 4607 0f4c 6E0F0000 		.4byte	0xf6e
 4608 0f50 15       		.uleb128 0x15
 4609 0f51 01       		.uleb128 0x1
 4610 0f52 50       		.byte	0x50
 4611 0f53 01       		.uleb128 0x1
 4612 0f54 49       		.byte	0x49
 4613 0f55 15       		.uleb128 0x15
 4614 0f56 01       		.uleb128 0x1
 4615 0f57 51       		.byte	0x51
 4616 0f58 02       		.uleb128 0x2
 4617 0f59 78       		.byte	0x78
 4618 0f5a 00       		.sleb128 0
 4619 0f5b 15       		.uleb128 0x15
 4620 0f5c 01       		.uleb128 0x1
 4621 0f5d 52       		.byte	0x52
 4622 0f5e 02       		.uleb128 0x2
 4623 0f5f 76       		.byte	0x76
 4624 0f60 00       		.sleb128 0
 4625 0f61 15       		.uleb128 0x15
 4626 0f62 01       		.uleb128 0x1
 4627 0f63 53       		.byte	0x53
 4628 0f64 01       		.uleb128 0x1
 4629 0f65 33       		.byte	0x33
 4630 0f66 15       		.uleb128 0x15
 4631 0f67 02       		.uleb128 0x2
 4632 0f68 7D       		.byte	0x7d
 4633 0f69 00       		.sleb128 0
 4634 0f6a 02       		.uleb128 0x2
 4635 0f6b 75       		.byte	0x75
 4636 0f6c 00       		.sleb128 0
 4637 0f6d 00       		.byte	0
 4638 0f6e 14       		.uleb128 0x14
 4639 0f6f C0030000 		.4byte	.LVL196
 4640 0f73 64160000 		.4byte	0x1664
 4641 0f77 8C0F0000 		.4byte	0xf8c
 4642 0f7b 15       		.uleb128 0x15
 4643 0f7c 01       		.uleb128 0x1
 4644 0f7d 51       		.byte	0x51
 4645 0f7e 01       		.uleb128 0x1
 4646 0f7f 44       		.byte	0x44
 4647 0f80 15       		.uleb128 0x15
 4648 0f81 01       		.uleb128 0x1
 4649 0f82 52       		.byte	0x52
 4650 0f83 01       		.uleb128 0x1
ARM GAS  C:\Users\USUARIO\AppData\Local\Temp\ccgyuR3R.s 			page 92


 4651 0f84 4E       		.byte	0x4e
 4652 0f85 15       		.uleb128 0x15
 4653 0f86 01       		.uleb128 0x1
 4654 0f87 53       		.byte	0x53
 4655 0f88 02       		.uleb128 0x2
 4656 0f89 78       		.byte	0x78
 4657 0f8a 00       		.sleb128 0
 4658 0f8b 00       		.byte	0
 4659 0f8c 14       		.uleb128 0x14
 4660 0f8d CC030000 		.4byte	.LVL197
 4661 0f91 64160000 		.4byte	0x1664
 4662 0f95 AB0F0000 		.4byte	0xfab
 4663 0f99 15       		.uleb128 0x15
 4664 0f9a 01       		.uleb128 0x1
 4665 0f9b 51       		.byte	0x51
 4666 0f9c 02       		.uleb128 0x2
 4667 0f9d 08       		.byte	0x8
 4668 0f9e 28       		.byte	0x28
 4669 0f9f 15       		.uleb128 0x15
 4670 0fa0 01       		.uleb128 0x1
 4671 0fa1 52       		.byte	0x52
 4672 0fa2 01       		.uleb128 0x1
 4673 0fa3 4E       		.byte	0x4e
 4674 0fa4 15       		.uleb128 0x15
 4675 0fa5 01       		.uleb128 0x1
 4676 0fa6 53       		.byte	0x53
 4677 0fa7 02       		.uleb128 0x2
 4678 0fa8 75       		.byte	0x75
 4679 0fa9 00       		.sleb128 0
 4680 0faa 00       		.byte	0
 4681 0fab 14       		.uleb128 0x14
 4682 0fac D8030000 		.4byte	.LVL198
 4683 0fb0 64160000 		.4byte	0x1664
 4684 0fb4 CA0F0000 		.4byte	0xfca
 4685 0fb8 15       		.uleb128 0x15
 4686 0fb9 01       		.uleb128 0x1
 4687 0fba 51       		.byte	0x51
 4688 0fbb 02       		.uleb128 0x2
 4689 0fbc 08       		.byte	0x8
 4690 0fbd 3C       		.byte	0x3c
 4691 0fbe 15       		.uleb128 0x15
 4692 0fbf 01       		.uleb128 0x1
 4693 0fc0 52       		.byte	0x52
 4694 0fc1 01       		.uleb128 0x1
 4695 0fc2 4E       		.byte	0x4e
 4696 0fc3 15       		.uleb128 0x15
 4697 0fc4 01       		.uleb128 0x1
 4698 0fc5 53       		.byte	0x53
 4699 0fc6 02       		.uleb128 0x2
 4700 0fc7 75       		.byte	0x75
 4701 0fc8 00       		.sleb128 0
 4702 0fc9 00       		.byte	0
 4703 0fca 14       		.uleb128 0x14
 4704 0fcb E4030000 		.4byte	.LVL199
 4705 0fcf 64160000 		.4byte	0x1664
 4706 0fd3 E90F0000 		.4byte	0xfe9
 4707 0fd7 15       		.uleb128 0x15
ARM GAS  C:\Users\USUARIO\AppData\Local\Temp\ccgyuR3R.s 			page 93


 4708 0fd8 01       		.uleb128 0x1
 4709 0fd9 51       		.byte	0x51
 4710 0fda 02       		.uleb128 0x2
 4711 0fdb 08       		.byte	0x8
 4712 0fdc 50       		.byte	0x50
 4713 0fdd 15       		.uleb128 0x15
 4714 0fde 01       		.uleb128 0x1
 4715 0fdf 52       		.byte	0x52
 4716 0fe0 01       		.uleb128 0x1
 4717 0fe1 4E       		.byte	0x4e
 4718 0fe2 15       		.uleb128 0x15
 4719 0fe3 01       		.uleb128 0x1
 4720 0fe4 53       		.byte	0x53
 4721 0fe5 02       		.uleb128 0x2
 4722 0fe6 75       		.byte	0x75
 4723 0fe7 00       		.sleb128 0
 4724 0fe8 00       		.byte	0
 4725 0fe9 17       		.uleb128 0x17
 4726 0fea EE030000 		.4byte	.LVL200
 4727 0fee A6160000 		.4byte	0x16a6
 4728 0ff2 15       		.uleb128 0x15
 4729 0ff3 01       		.uleb128 0x1
 4730 0ff4 50       		.byte	0x50
 4731 0ff5 02       		.uleb128 0x2
 4732 0ff6 75       		.byte	0x75
 4733 0ff7 00       		.sleb128 0
 4734 0ff8 00       		.byte	0
 4735 0ff9 00       		.byte	0
 4736 0ffa 18       		.uleb128 0x18
 4737 0ffb 00000000 		.4byte	.LASF47
 4738 0fff 01       		.byte	0x1
 4739 1000 5F01     		.2byte	0x15f
 4740 1002 00000000 		.4byte	.LFB70
 4741 1006 1C050000 		.4byte	.LFE70-.LFB70
 4742 100a 01       		.uleb128 0x1
 4743 100b 9C       		.byte	0x9c
 4744 100c 67140000 		.4byte	0x1467
 4745 1010 19       		.uleb128 0x19
 4746 1011 FA020000 		.4byte	.LASF48
 4747 1015 01       		.byte	0x1
 4748 1016 5F01     		.2byte	0x15f
 4749 1018 9E000000 		.4byte	0x9e
 4750 101c C3020000 		.4byte	.LLST18
 4751 1020 1A       		.uleb128 0x1a
 4752 1021 6C00     		.ascii	"l\000"
 4753 1023 01       		.byte	0x1
 4754 1024 5F01     		.2byte	0x15f
 4755 1026 9E000000 		.4byte	0x9e
 4756 102a E4020000 		.4byte	.LLST19
 4757 102e 19       		.uleb128 0x19
 4758 102f DC000000 		.4byte	.LASF49
 4759 1033 01       		.byte	0x1
 4760 1034 5F01     		.2byte	0x15f
 4761 1036 9E000000 		.4byte	0x9e
 4762 103a 05030000 		.4byte	.LLST20
 4763 103e 14       		.uleb128 0x14
 4764 103f 72000000 		.4byte	.LVL206
ARM GAS  C:\Users\USUARIO\AppData\Local\Temp\ccgyuR3R.s 			page 94


 4765 1043 6F160000 		.4byte	0x166f
 4766 1047 68100000 		.4byte	0x1068
 4767 104b 15       		.uleb128 0x15
 4768 104c 01       		.uleb128 0x1
 4769 104d 50       		.byte	0x50
 4770 104e 02       		.uleb128 0x2
 4771 104f 74       		.byte	0x74
 4772 1050 00       		.sleb128 0
 4773 1051 15       		.uleb128 0x15
 4774 1052 01       		.uleb128 0x1
 4775 1053 51       		.byte	0x51
 4776 1054 01       		.uleb128 0x1
 4777 1055 4E       		.byte	0x4e
 4778 1056 15       		.uleb128 0x15
 4779 1057 01       		.uleb128 0x1
 4780 1058 52       		.byte	0x52
 4781 1059 01       		.uleb128 0x1
 4782 105a 30       		.byte	0x30
 4783 105b 15       		.uleb128 0x15
 4784 105c 01       		.uleb128 0x1
 4785 105d 53       		.byte	0x53
 4786 105e 01       		.uleb128 0x1
 4787 105f 31       		.byte	0x31
 4788 1060 15       		.uleb128 0x15
 4789 1061 02       		.uleb128 0x2
 4790 1062 7D       		.byte	0x7d
 4791 1063 00       		.sleb128 0
 4792 1064 02       		.uleb128 0x2
 4793 1065 7A       		.byte	0x7a
 4794 1066 00       		.sleb128 0
 4795 1067 00       		.byte	0
 4796 1068 14       		.uleb128 0x14
 4797 1069 82000000 		.4byte	.LVL207
 4798 106d D2160000 		.4byte	0x16d2
 4799 1071 93100000 		.4byte	0x1093
 4800 1075 15       		.uleb128 0x15
 4801 1076 01       		.uleb128 0x1
 4802 1077 50       		.byte	0x50
 4803 1078 02       		.uleb128 0x2
 4804 1079 76       		.byte	0x76
 4805 107a 00       		.sleb128 0
 4806 107b 15       		.uleb128 0x15
 4807 107c 01       		.uleb128 0x1
 4808 107d 51       		.byte	0x51
 4809 107e 02       		.uleb128 0x2
 4810 107f 08       		.byte	0x8
 4811 1080 44       		.byte	0x44
 4812 1081 15       		.uleb128 0x15
 4813 1082 01       		.uleb128 0x1
 4814 1083 52       		.byte	0x52
 4815 1084 01       		.uleb128 0x1
 4816 1085 30       		.byte	0x30
 4817 1086 15       		.uleb128 0x15
 4818 1087 01       		.uleb128 0x1
 4819 1088 53       		.byte	0x53
 4820 1089 01       		.uleb128 0x1
 4821 108a 31       		.byte	0x31
ARM GAS  C:\Users\USUARIO\AppData\Local\Temp\ccgyuR3R.s 			page 95


 4822 108b 15       		.uleb128 0x15
 4823 108c 02       		.uleb128 0x2
 4824 108d 7D       		.byte	0x7d
 4825 108e 00       		.sleb128 0
 4826 108f 02       		.uleb128 0x2
 4827 1090 7A       		.byte	0x7a
 4828 1091 00       		.sleb128 0
 4829 1092 00       		.byte	0
 4830 1093 14       		.uleb128 0x14
 4831 1094 9E000000 		.4byte	.LVL208
 4832 1098 6F160000 		.4byte	0x166f
 4833 109c BE100000 		.4byte	0x10be
 4834 10a0 15       		.uleb128 0x15
 4835 10a1 01       		.uleb128 0x1
 4836 10a2 50       		.byte	0x50
 4837 10a3 02       		.uleb128 0x2
 4838 10a4 74       		.byte	0x74
 4839 10a5 00       		.sleb128 0
 4840 10a6 15       		.uleb128 0x15
 4841 10a7 01       		.uleb128 0x1
 4842 10a8 51       		.byte	0x51
 4843 10a9 01       		.uleb128 0x1
 4844 10aa 30       		.byte	0x30
 4845 10ab 15       		.uleb128 0x15
 4846 10ac 01       		.uleb128 0x1
 4847 10ad 52       		.byte	0x52
 4848 10ae 01       		.uleb128 0x1
 4849 10af 44       		.byte	0x44
 4850 10b0 15       		.uleb128 0x15
 4851 10b1 01       		.uleb128 0x1
 4852 10b2 53       		.byte	0x53
 4853 10b3 02       		.uleb128 0x2
 4854 10b4 76       		.byte	0x76
 4855 10b5 00       		.sleb128 0
 4856 10b6 15       		.uleb128 0x15
 4857 10b7 02       		.uleb128 0x2
 4858 10b8 7D       		.byte	0x7d
 4859 10b9 00       		.sleb128 0
 4860 10ba 02       		.uleb128 0x2
 4861 10bb 76       		.byte	0x76
 4862 10bc 00       		.sleb128 0
 4863 10bd 00       		.byte	0
 4864 10be 14       		.uleb128 0x14
 4865 10bf AC000000 		.4byte	.LVL209
 4866 10c3 D2160000 		.4byte	0x16d2
 4867 10c7 EA100000 		.4byte	0x10ea
 4868 10cb 15       		.uleb128 0x15
 4869 10cc 01       		.uleb128 0x1
 4870 10cd 50       		.byte	0x50
 4871 10ce 02       		.uleb128 0x2
 4872 10cf 77       		.byte	0x77
 4873 10d0 00       		.sleb128 0
 4874 10d1 15       		.uleb128 0x15
 4875 10d2 01       		.uleb128 0x1
 4876 10d3 51       		.byte	0x51
 4877 10d4 02       		.uleb128 0x2
 4878 10d5 08       		.byte	0x8
ARM GAS  C:\Users\USUARIO\AppData\Local\Temp\ccgyuR3R.s 			page 96


 4879 10d6 3F       		.byte	0x3f
 4880 10d7 15       		.uleb128 0x15
 4881 10d8 01       		.uleb128 0x1
 4882 10d9 52       		.byte	0x52
 4883 10da 01       		.uleb128 0x1
 4884 10db 44       		.byte	0x44
 4885 10dc 15       		.uleb128 0x15
 4886 10dd 01       		.uleb128 0x1
 4887 10de 53       		.byte	0x53
 4888 10df 02       		.uleb128 0x2
 4889 10e0 76       		.byte	0x76
 4890 10e1 00       		.sleb128 0
 4891 10e2 15       		.uleb128 0x15
 4892 10e3 02       		.uleb128 0x2
 4893 10e4 7D       		.byte	0x7d
 4894 10e5 00       		.sleb128 0
 4895 10e6 02       		.uleb128 0x2
 4896 10e7 76       		.byte	0x76
 4897 10e8 00       		.sleb128 0
 4898 10e9 00       		.byte	0
 4899 10ea 14       		.uleb128 0x14
 4900 10eb C0000000 		.4byte	.LVL210
 4901 10ef 6F160000 		.4byte	0x166f
 4902 10f3 15110000 		.4byte	0x1115
 4903 10f7 15       		.uleb128 0x15
 4904 10f8 01       		.uleb128 0x1
 4905 10f9 50       		.byte	0x50
 4906 10fa 02       		.uleb128 0x2
 4907 10fb 74       		.byte	0x74
 4908 10fc 00       		.sleb128 0
 4909 10fd 15       		.uleb128 0x15
 4910 10fe 01       		.uleb128 0x1
 4911 10ff 51       		.byte	0x51
 4912 1100 02       		.uleb128 0x2
 4913 1101 08       		.byte	0x8
 4914 1102 50       		.byte	0x50
 4915 1103 15       		.uleb128 0x15
 4916 1104 01       		.uleb128 0x1
 4917 1105 52       		.byte	0x52
 4918 1106 01       		.uleb128 0x1
 4919 1107 44       		.byte	0x44
 4920 1108 15       		.uleb128 0x15
 4921 1109 01       		.uleb128 0x1
 4922 110a 53       		.byte	0x53
 4923 110b 01       		.uleb128 0x1
 4924 110c 33       		.byte	0x33
 4925 110d 15       		.uleb128 0x15
 4926 110e 02       		.uleb128 0x2
 4927 110f 7D       		.byte	0x7d
 4928 1110 00       		.sleb128 0
 4929 1111 02       		.uleb128 0x2
 4930 1112 76       		.byte	0x76
 4931 1113 00       		.sleb128 0
 4932 1114 00       		.byte	0
 4933 1115 14       		.uleb128 0x14
 4934 1116 D8000000 		.4byte	.LVL211
 4935 111a DD160000 		.4byte	0x16dd
ARM GAS  C:\Users\USUARIO\AppData\Local\Temp\ccgyuR3R.s 			page 97


 4936 111e 3B110000 		.4byte	0x113b
 4937 1122 15       		.uleb128 0x15
 4938 1123 01       		.uleb128 0x1
 4939 1124 51       		.byte	0x51
 4940 1125 02       		.uleb128 0x2
 4941 1126 08       		.byte	0x8
 4942 1127 64       		.byte	0x64
 4943 1128 15       		.uleb128 0x15
 4944 1129 01       		.uleb128 0x1
 4945 112a 52       		.byte	0x52
 4946 112b 01       		.uleb128 0x1
 4947 112c 44       		.byte	0x44
 4948 112d 15       		.uleb128 0x15
 4949 112e 01       		.uleb128 0x1
 4950 112f 53       		.byte	0x53
 4951 1130 02       		.uleb128 0x2
 4952 1131 76       		.byte	0x76
 4953 1132 00       		.sleb128 0
 4954 1133 15       		.uleb128 0x15
 4955 1134 02       		.uleb128 0x2
 4956 1135 7D       		.byte	0x7d
 4957 1136 00       		.sleb128 0
 4958 1137 02       		.uleb128 0x2
 4959 1138 76       		.byte	0x76
 4960 1139 00       		.sleb128 0
 4961 113a 00       		.byte	0
 4962 113b 14       		.uleb128 0x14
 4963 113c 06010000 		.4byte	.LVL212
 4964 1140 E8160000 		.4byte	0x16e8
 4965 1144 68110000 		.4byte	0x1168
 4966 1148 15       		.uleb128 0x15
 4967 1149 01       		.uleb128 0x1
 4968 114a 50       		.byte	0x50
 4969 114b 02       		.uleb128 0x2
 4970 114c 74       		.byte	0x74
 4971 114d 00       		.sleb128 0
 4972 114e 15       		.uleb128 0x15
 4973 114f 01       		.uleb128 0x1
 4974 1150 52       		.byte	0x52
 4975 1151 01       		.uleb128 0x1
 4976 1152 30       		.byte	0x30
 4977 1153 15       		.uleb128 0x15
 4978 1154 01       		.uleb128 0x1
 4979 1155 53       		.byte	0x53
 4980 1156 02       		.uleb128 0x2
 4981 1157 08       		.byte	0x8
 4982 1158 20       		.byte	0x20
 4983 1159 15       		.uleb128 0x15
 4984 115a 02       		.uleb128 0x2
 4985 115b 7D       		.byte	0x7d
 4986 115c 00       		.sleb128 0
 4987 115d 02       		.uleb128 0x2
 4988 115e 76       		.byte	0x76
 4989 115f 00       		.sleb128 0
 4990 1160 15       		.uleb128 0x15
 4991 1161 02       		.uleb128 0x2
 4992 1162 7D       		.byte	0x7d
ARM GAS  C:\Users\USUARIO\AppData\Local\Temp\ccgyuR3R.s 			page 98


 4993 1163 04       		.sleb128 4
 4994 1164 02       		.uleb128 0x2
 4995 1165 76       		.byte	0x76
 4996 1166 00       		.sleb128 0
 4997 1167 00       		.byte	0
 4998 1168 14       		.uleb128 0x14
 4999 1169 2E010000 		.4byte	.LVL213
 5000 116d E8160000 		.4byte	0x16e8
 5001 1171 95110000 		.4byte	0x1195
 5002 1175 15       		.uleb128 0x15
 5003 1176 01       		.uleb128 0x1
 5004 1177 50       		.byte	0x50
 5005 1178 02       		.uleb128 0x2
 5006 1179 74       		.byte	0x74
 5007 117a 00       		.sleb128 0
 5008 117b 15       		.uleb128 0x15
 5009 117c 01       		.uleb128 0x1
 5010 117d 52       		.byte	0x52
 5011 117e 01       		.uleb128 0x1
 5012 117f 30       		.byte	0x30
 5013 1180 15       		.uleb128 0x15
 5014 1181 01       		.uleb128 0x1
 5015 1182 53       		.byte	0x53
 5016 1183 02       		.uleb128 0x2
 5017 1184 08       		.byte	0x8
 5018 1185 2C       		.byte	0x2c
 5019 1186 15       		.uleb128 0x15
 5020 1187 02       		.uleb128 0x2
 5021 1188 7D       		.byte	0x7d
 5022 1189 00       		.sleb128 0
 5023 118a 02       		.uleb128 0x2
 5024 118b 7A       		.byte	0x7a
 5025 118c 00       		.sleb128 0
 5026 118d 15       		.uleb128 0x15
 5027 118e 02       		.uleb128 0x2
 5028 118f 7D       		.byte	0x7d
 5029 1190 04       		.sleb128 4
 5030 1191 02       		.uleb128 0x2
 5031 1192 76       		.byte	0x76
 5032 1193 00       		.sleb128 0
 5033 1194 00       		.byte	0
 5034 1195 14       		.uleb128 0x14
 5035 1196 50010000 		.4byte	.LVL214
 5036 119a E8160000 		.4byte	0x16e8
 5037 119e C2110000 		.4byte	0x11c2
 5038 11a2 15       		.uleb128 0x15
 5039 11a3 01       		.uleb128 0x1
 5040 11a4 50       		.byte	0x50
 5041 11a5 02       		.uleb128 0x2
 5042 11a6 74       		.byte	0x74
 5043 11a7 00       		.sleb128 0
 5044 11a8 15       		.uleb128 0x15
 5045 11a9 01       		.uleb128 0x1
 5046 11aa 52       		.byte	0x52
 5047 11ab 01       		.uleb128 0x1
 5048 11ac 30       		.byte	0x30
 5049 11ad 15       		.uleb128 0x15
ARM GAS  C:\Users\USUARIO\AppData\Local\Temp\ccgyuR3R.s 			page 99


 5050 11ae 01       		.uleb128 0x1
 5051 11af 53       		.byte	0x53
 5052 11b0 02       		.uleb128 0x2
 5053 11b1 08       		.byte	0x8
 5054 11b2 37       		.byte	0x37
 5055 11b3 15       		.uleb128 0x15
 5056 11b4 02       		.uleb128 0x2
 5057 11b5 7D       		.byte	0x7d
 5058 11b6 00       		.sleb128 0
 5059 11b7 02       		.uleb128 0x2
 5060 11b8 7A       		.byte	0x7a
 5061 11b9 00       		.sleb128 0
 5062 11ba 15       		.uleb128 0x15
 5063 11bb 02       		.uleb128 0x2
 5064 11bc 7D       		.byte	0x7d
 5065 11bd 04       		.sleb128 4
 5066 11be 02       		.uleb128 0x2
 5067 11bf 76       		.byte	0x76
 5068 11c0 00       		.sleb128 0
 5069 11c1 00       		.byte	0
 5070 11c2 16       		.uleb128 0x16
 5071 11c3 54010000 		.4byte	.LVL215
 5072 11c7 7A160000 		.4byte	0x167a
 5073 11cb 14       		.uleb128 0x14
 5074 11cc 5C010000 		.4byte	.LVL216
 5075 11d0 F3160000 		.4byte	0x16f3
 5076 11d4 DF110000 		.4byte	0x11df
 5077 11d8 15       		.uleb128 0x15
 5078 11d9 01       		.uleb128 0x1
 5079 11da 50       		.byte	0x50
 5080 11db 02       		.uleb128 0x2
 5081 11dc 76       		.byte	0x76
 5082 11dd 00       		.sleb128 0
 5083 11de 00       		.byte	0
 5084 11df 14       		.uleb128 0x14
 5085 11e0 62010000 		.4byte	.LVL217
 5086 11e4 43160000 		.4byte	0x1643
 5087 11e8 F3110000 		.4byte	0x11f3
 5088 11ec 15       		.uleb128 0x15
 5089 11ed 01       		.uleb128 0x1
 5090 11ee 50       		.byte	0x50
 5091 11ef 02       		.uleb128 0x2
 5092 11f0 7A       		.byte	0x7a
 5093 11f1 00       		.sleb128 0
 5094 11f2 00       		.byte	0
 5095 11f3 14       		.uleb128 0x14
 5096 11f4 68010000 		.4byte	.LVL218
 5097 11f8 F3160000 		.4byte	0x16f3
 5098 11fc 06120000 		.4byte	0x1206
 5099 1200 15       		.uleb128 0x15
 5100 1201 01       		.uleb128 0x1
 5101 1202 50       		.byte	0x50
 5102 1203 01       		.uleb128 0x1
 5103 1204 30       		.byte	0x30
 5104 1205 00       		.byte	0
 5105 1206 16       		.uleb128 0x16
 5106 1207 CA010000 		.4byte	.LVL219
ARM GAS  C:\Users\USUARIO\AppData\Local\Temp\ccgyuR3R.s 			page 100


 5107 120b 85160000 		.4byte	0x1685
 5108 120f 14       		.uleb128 0x14
 5109 1210 D2010000 		.4byte	.LVL220
 5110 1214 F3160000 		.4byte	0x16f3
 5111 1218 23120000 		.4byte	0x1223
 5112 121c 15       		.uleb128 0x15
 5113 121d 01       		.uleb128 0x1
 5114 121e 50       		.byte	0x50
 5115 121f 02       		.uleb128 0x2
 5116 1220 76       		.byte	0x76
 5117 1221 00       		.sleb128 0
 5118 1222 00       		.byte	0
 5119 1223 14       		.uleb128 0x14
 5120 1224 D8010000 		.4byte	.LVL221
 5121 1228 43160000 		.4byte	0x1643
 5122 122c 37120000 		.4byte	0x1237
 5123 1230 15       		.uleb128 0x15
 5124 1231 01       		.uleb128 0x1
 5125 1232 50       		.byte	0x50
 5126 1233 02       		.uleb128 0x2
 5127 1234 7A       		.byte	0x7a
 5128 1235 00       		.sleb128 0
 5129 1236 00       		.byte	0
 5130 1237 14       		.uleb128 0x14
 5131 1238 DE010000 		.4byte	.LVL222
 5132 123c F3160000 		.4byte	0x16f3
 5133 1240 4A120000 		.4byte	0x124a
 5134 1244 15       		.uleb128 0x15
 5135 1245 01       		.uleb128 0x1
 5136 1246 50       		.byte	0x50
 5137 1247 01       		.uleb128 0x1
 5138 1248 30       		.byte	0x30
 5139 1249 00       		.byte	0
 5140 124a 14       		.uleb128 0x14
 5141 124b 68020000 		.4byte	.LVL223
 5142 124f E8160000 		.4byte	0x16e8
 5143 1253 78120000 		.4byte	0x1278
 5144 1257 15       		.uleb128 0x15
 5145 1258 01       		.uleb128 0x1
 5146 1259 50       		.byte	0x50
 5147 125a 02       		.uleb128 0x2
 5148 125b 74       		.byte	0x74
 5149 125c 00       		.sleb128 0
 5150 125d 15       		.uleb128 0x15
 5151 125e 01       		.uleb128 0x1
 5152 125f 52       		.byte	0x52
 5153 1260 02       		.uleb128 0x2
 5154 1261 76       		.byte	0x76
 5155 1262 00       		.sleb128 0
 5156 1263 15       		.uleb128 0x15
 5157 1264 01       		.uleb128 0x1
 5158 1265 53       		.byte	0x53
 5159 1266 02       		.uleb128 0x2
 5160 1267 08       		.byte	0x8
 5161 1268 20       		.byte	0x20
 5162 1269 15       		.uleb128 0x15
 5163 126a 02       		.uleb128 0x2
ARM GAS  C:\Users\USUARIO\AppData\Local\Temp\ccgyuR3R.s 			page 101


 5164 126b 7D       		.byte	0x7d
 5165 126c 00       		.sleb128 0
 5166 126d 02       		.uleb128 0x2
 5167 126e 76       		.byte	0x76
 5168 126f 00       		.sleb128 0
 5169 1270 15       		.uleb128 0x15
 5170 1271 02       		.uleb128 0x2
 5171 1272 7D       		.byte	0x7d
 5172 1273 04       		.sleb128 4
 5173 1274 02       		.uleb128 0x2
 5174 1275 77       		.byte	0x77
 5175 1276 00       		.sleb128 0
 5176 1277 00       		.byte	0
 5177 1278 14       		.uleb128 0x14
 5178 1279 8C020000 		.4byte	.LVL224
 5179 127d E8160000 		.4byte	0x16e8
 5180 1281 A5120000 		.4byte	0x12a5
 5181 1285 15       		.uleb128 0x15
 5182 1286 01       		.uleb128 0x1
 5183 1287 50       		.byte	0x50
 5184 1288 02       		.uleb128 0x2
 5185 1289 74       		.byte	0x74
 5186 128a 00       		.sleb128 0
 5187 128b 15       		.uleb128 0x15
 5188 128c 01       		.uleb128 0x1
 5189 128d 52       		.byte	0x52
 5190 128e 02       		.uleb128 0x2
 5191 128f 76       		.byte	0x76
 5192 1290 00       		.sleb128 0
 5193 1291 15       		.uleb128 0x15
 5194 1292 01       		.uleb128 0x1
 5195 1293 53       		.byte	0x53
 5196 1294 02       		.uleb128 0x2
 5197 1295 08       		.byte	0x8
 5198 1296 2C       		.byte	0x2c
 5199 1297 15       		.uleb128 0x15
 5200 1298 02       		.uleb128 0x2
 5201 1299 7D       		.byte	0x7d
 5202 129a 00       		.sleb128 0
 5203 129b 01       		.uleb128 0x1
 5204 129c 3B       		.byte	0x3b
 5205 129d 15       		.uleb128 0x15
 5206 129e 02       		.uleb128 0x2
 5207 129f 7D       		.byte	0x7d
 5208 12a0 04       		.sleb128 4
 5209 12a1 02       		.uleb128 0x2
 5210 12a2 77       		.byte	0x77
 5211 12a3 00       		.sleb128 0
 5212 12a4 00       		.byte	0
 5213 12a5 14       		.uleb128 0x14
 5214 12a6 AE020000 		.4byte	.LVL225
 5215 12aa E8160000 		.4byte	0x16e8
 5216 12ae D2120000 		.4byte	0x12d2
 5217 12b2 15       		.uleb128 0x15
 5218 12b3 01       		.uleb128 0x1
 5219 12b4 50       		.byte	0x50
 5220 12b5 02       		.uleb128 0x2
ARM GAS  C:\Users\USUARIO\AppData\Local\Temp\ccgyuR3R.s 			page 102


 5221 12b6 74       		.byte	0x74
 5222 12b7 00       		.sleb128 0
 5223 12b8 15       		.uleb128 0x15
 5224 12b9 01       		.uleb128 0x1
 5225 12ba 52       		.byte	0x52
 5226 12bb 02       		.uleb128 0x2
 5227 12bc 76       		.byte	0x76
 5228 12bd 00       		.sleb128 0
 5229 12be 15       		.uleb128 0x15
 5230 12bf 01       		.uleb128 0x1
 5231 12c0 53       		.byte	0x53
 5232 12c1 02       		.uleb128 0x2
 5233 12c2 08       		.byte	0x8
 5234 12c3 37       		.byte	0x37
 5235 12c4 15       		.uleb128 0x15
 5236 12c5 02       		.uleb128 0x2
 5237 12c6 7D       		.byte	0x7d
 5238 12c7 00       		.sleb128 0
 5239 12c8 01       		.uleb128 0x1
 5240 12c9 3A       		.byte	0x3a
 5241 12ca 15       		.uleb128 0x15
 5242 12cb 02       		.uleb128 0x2
 5243 12cc 7D       		.byte	0x7d
 5244 12cd 04       		.sleb128 4
 5245 12ce 02       		.uleb128 0x2
 5246 12cf 77       		.byte	0x77
 5247 12d0 00       		.sleb128 0
 5248 12d1 00       		.byte	0
 5249 12d2 16       		.uleb128 0x16
 5250 12d3 B2020000 		.4byte	.LVL226
 5251 12d7 7A160000 		.4byte	0x167a
 5252 12db 14       		.uleb128 0x14
 5253 12dc BC020000 		.4byte	.LVL227
 5254 12e0 F3160000 		.4byte	0x16f3
 5255 12e4 EF120000 		.4byte	0x12ef
 5256 12e8 15       		.uleb128 0x15
 5257 12e9 01       		.uleb128 0x1
 5258 12ea 50       		.byte	0x50
 5259 12eb 02       		.uleb128 0x2
 5260 12ec 77       		.byte	0x77
 5261 12ed 00       		.sleb128 0
 5262 12ee 00       		.byte	0
 5263 12ef 14       		.uleb128 0x14
 5264 12f0 C2020000 		.4byte	.LVL228
 5265 12f4 43160000 		.4byte	0x1643
 5266 12f8 02130000 		.4byte	0x1302
 5267 12fc 15       		.uleb128 0x15
 5268 12fd 01       		.uleb128 0x1
 5269 12fe 50       		.byte	0x50
 5270 12ff 01       		.uleb128 0x1
 5271 1300 3A       		.byte	0x3a
 5272 1301 00       		.byte	0
 5273 1302 14       		.uleb128 0x14
 5274 1303 C8020000 		.4byte	.LVL229
 5275 1307 F3160000 		.4byte	0x16f3
 5276 130b 16130000 		.4byte	0x1316
 5277 130f 15       		.uleb128 0x15
ARM GAS  C:\Users\USUARIO\AppData\Local\Temp\ccgyuR3R.s 			page 103


 5278 1310 01       		.uleb128 0x1
 5279 1311 50       		.byte	0x50
 5280 1312 02       		.uleb128 0x2
 5281 1313 76       		.byte	0x76
 5282 1314 00       		.sleb128 0
 5283 1315 00       		.byte	0
 5284 1316 16       		.uleb128 0x16
 5285 1317 4E030000 		.4byte	.LVL230
 5286 131b 85160000 		.4byte	0x1685
 5287 131f 14       		.uleb128 0x14
 5288 1320 56030000 		.4byte	.LVL231
 5289 1324 F3160000 		.4byte	0x16f3
 5290 1328 33130000 		.4byte	0x1333
 5291 132c 15       		.uleb128 0x15
 5292 132d 01       		.uleb128 0x1
 5293 132e 50       		.byte	0x50
 5294 132f 02       		.uleb128 0x2
 5295 1330 77       		.byte	0x77
 5296 1331 00       		.sleb128 0
 5297 1332 00       		.byte	0
 5298 1333 14       		.uleb128 0x14
 5299 1334 5C030000 		.4byte	.LVL232
 5300 1338 43160000 		.4byte	0x1643
 5301 133c 46130000 		.4byte	0x1346
 5302 1340 15       		.uleb128 0x15
 5303 1341 01       		.uleb128 0x1
 5304 1342 50       		.byte	0x50
 5305 1343 01       		.uleb128 0x1
 5306 1344 3A       		.byte	0x3a
 5307 1345 00       		.byte	0
 5308 1346 14       		.uleb128 0x14
 5309 1347 62030000 		.4byte	.LVL233
 5310 134b F3160000 		.4byte	0x16f3
 5311 134f 5A130000 		.4byte	0x135a
 5312 1353 15       		.uleb128 0x15
 5313 1354 01       		.uleb128 0x1
 5314 1355 50       		.byte	0x50
 5315 1356 02       		.uleb128 0x2
 5316 1357 76       		.byte	0x76
 5317 1358 00       		.sleb128 0
 5318 1359 00       		.byte	0
 5319 135a 14       		.uleb128 0x14
 5320 135b DE030000 		.4byte	.LVL234
 5321 135f E8160000 		.4byte	0x16e8
 5322 1363 88130000 		.4byte	0x1388
 5323 1367 15       		.uleb128 0x15
 5324 1368 01       		.uleb128 0x1
 5325 1369 50       		.byte	0x50
 5326 136a 02       		.uleb128 0x2
 5327 136b 74       		.byte	0x74
 5328 136c 00       		.sleb128 0
 5329 136d 15       		.uleb128 0x15
 5330 136e 01       		.uleb128 0x1
 5331 136f 52       		.byte	0x52
 5332 1370 02       		.uleb128 0x2
 5333 1371 76       		.byte	0x76
 5334 1372 00       		.sleb128 0
ARM GAS  C:\Users\USUARIO\AppData\Local\Temp\ccgyuR3R.s 			page 104


 5335 1373 15       		.uleb128 0x15
 5336 1374 01       		.uleb128 0x1
 5337 1375 53       		.byte	0x53
 5338 1376 02       		.uleb128 0x2
 5339 1377 08       		.byte	0x8
 5340 1378 20       		.byte	0x20
 5341 1379 15       		.uleb128 0x15
 5342 137a 02       		.uleb128 0x2
 5343 137b 7D       		.byte	0x7d
 5344 137c 00       		.sleb128 0
 5345 137d 02       		.uleb128 0x2
 5346 137e 76       		.byte	0x76
 5347 137f 00       		.sleb128 0
 5348 1380 15       		.uleb128 0x15
 5349 1381 02       		.uleb128 0x2
 5350 1382 7D       		.byte	0x7d
 5351 1383 04       		.sleb128 4
 5352 1384 02       		.uleb128 0x2
 5353 1385 77       		.byte	0x77
 5354 1386 00       		.sleb128 0
 5355 1387 00       		.byte	0
 5356 1388 14       		.uleb128 0x14
 5357 1389 02040000 		.4byte	.LVL235
 5358 138d E8160000 		.4byte	0x16e8
 5359 1391 B5130000 		.4byte	0x13b5
 5360 1395 15       		.uleb128 0x15
 5361 1396 01       		.uleb128 0x1
 5362 1397 50       		.byte	0x50
 5363 1398 02       		.uleb128 0x2
 5364 1399 74       		.byte	0x74
 5365 139a 00       		.sleb128 0
 5366 139b 15       		.uleb128 0x15
 5367 139c 01       		.uleb128 0x1
 5368 139d 52       		.byte	0x52
 5369 139e 02       		.uleb128 0x2
 5370 139f 76       		.byte	0x76
 5371 13a0 00       		.sleb128 0
 5372 13a1 15       		.uleb128 0x15
 5373 13a2 01       		.uleb128 0x1
 5374 13a3 53       		.byte	0x53
 5375 13a4 02       		.uleb128 0x2
 5376 13a5 08       		.byte	0x8
 5377 13a6 2C       		.byte	0x2c
 5378 13a7 15       		.uleb128 0x15
 5379 13a8 02       		.uleb128 0x2
 5380 13a9 7D       		.byte	0x7d
 5381 13aa 00       		.sleb128 0
 5382 13ab 01       		.uleb128 0x1
 5383 13ac 3A       		.byte	0x3a
 5384 13ad 15       		.uleb128 0x15
 5385 13ae 02       		.uleb128 0x2
 5386 13af 7D       		.byte	0x7d
 5387 13b0 04       		.sleb128 4
 5388 13b1 02       		.uleb128 0x2
 5389 13b2 77       		.byte	0x77
 5390 13b3 00       		.sleb128 0
 5391 13b4 00       		.byte	0
ARM GAS  C:\Users\USUARIO\AppData\Local\Temp\ccgyuR3R.s 			page 105


 5392 13b5 14       		.uleb128 0x14
 5393 13b6 24040000 		.4byte	.LVL236
 5394 13ba E8160000 		.4byte	0x16e8
 5395 13be E2130000 		.4byte	0x13e2
 5396 13c2 15       		.uleb128 0x15
 5397 13c3 01       		.uleb128 0x1
 5398 13c4 50       		.byte	0x50
 5399 13c5 02       		.uleb128 0x2
 5400 13c6 74       		.byte	0x74
 5401 13c7 00       		.sleb128 0
 5402 13c8 15       		.uleb128 0x15
 5403 13c9 01       		.uleb128 0x1
 5404 13ca 52       		.byte	0x52
 5405 13cb 02       		.uleb128 0x2
 5406 13cc 76       		.byte	0x76
 5407 13cd 00       		.sleb128 0
 5408 13ce 15       		.uleb128 0x15
 5409 13cf 01       		.uleb128 0x1
 5410 13d0 53       		.byte	0x53
 5411 13d1 02       		.uleb128 0x2
 5412 13d2 08       		.byte	0x8
 5413 13d3 37       		.byte	0x37
 5414 13d4 15       		.uleb128 0x15
 5415 13d5 02       		.uleb128 0x2
 5416 13d6 7D       		.byte	0x7d
 5417 13d7 00       		.sleb128 0
 5418 13d8 01       		.uleb128 0x1
 5419 13d9 3B       		.byte	0x3b
 5420 13da 15       		.uleb128 0x15
 5421 13db 02       		.uleb128 0x2
 5422 13dc 7D       		.byte	0x7d
 5423 13dd 04       		.sleb128 4
 5424 13de 02       		.uleb128 0x2
 5425 13df 77       		.byte	0x77
 5426 13e0 00       		.sleb128 0
 5427 13e1 00       		.byte	0
 5428 13e2 16       		.uleb128 0x16
 5429 13e3 28040000 		.4byte	.LVL237
 5430 13e7 7A160000 		.4byte	0x167a
 5431 13eb 14       		.uleb128 0x14
 5432 13ec 30040000 		.4byte	.LVL238
 5433 13f0 F3160000 		.4byte	0x16f3
 5434 13f4 FF130000 		.4byte	0x13ff
 5435 13f8 15       		.uleb128 0x15
 5436 13f9 01       		.uleb128 0x1
 5437 13fa 50       		.byte	0x50
 5438 13fb 02       		.uleb128 0x2
 5439 13fc 77       		.byte	0x77
 5440 13fd 00       		.sleb128 0
 5441 13fe 00       		.byte	0
 5442 13ff 14       		.uleb128 0x14
 5443 1400 36040000 		.4byte	.LVL239
 5444 1404 43160000 		.4byte	0x1643
 5445 1408 12140000 		.4byte	0x1412
 5446 140c 15       		.uleb128 0x15
 5447 140d 01       		.uleb128 0x1
 5448 140e 50       		.byte	0x50
ARM GAS  C:\Users\USUARIO\AppData\Local\Temp\ccgyuR3R.s 			page 106


 5449 140f 01       		.uleb128 0x1
 5450 1410 3A       		.byte	0x3a
 5451 1411 00       		.byte	0
 5452 1412 14       		.uleb128 0x14
 5453 1413 3C040000 		.4byte	.LVL240
 5454 1417 F3160000 		.4byte	0x16f3
 5455 141b 26140000 		.4byte	0x1426
 5456 141f 15       		.uleb128 0x15
 5457 1420 01       		.uleb128 0x1
 5458 1421 50       		.byte	0x50
 5459 1422 02       		.uleb128 0x2
 5460 1423 76       		.byte	0x76
 5461 1424 00       		.sleb128 0
 5462 1425 00       		.byte	0
 5463 1426 16       		.uleb128 0x16
 5464 1427 8A040000 		.4byte	.LVL241
 5465 142b 85160000 		.4byte	0x1685
 5466 142f 14       		.uleb128 0x14
 5467 1430 92040000 		.4byte	.LVL242
 5468 1434 F3160000 		.4byte	0x16f3
 5469 1438 43140000 		.4byte	0x1443
 5470 143c 15       		.uleb128 0x15
 5471 143d 01       		.uleb128 0x1
 5472 143e 50       		.byte	0x50
 5473 143f 02       		.uleb128 0x2
 5474 1440 77       		.byte	0x77
 5475 1441 00       		.sleb128 0
 5476 1442 00       		.byte	0
 5477 1443 14       		.uleb128 0x14
 5478 1444 98040000 		.4byte	.LVL243
 5479 1448 43160000 		.4byte	0x1643
 5480 144c 56140000 		.4byte	0x1456
 5481 1450 15       		.uleb128 0x15
 5482 1451 01       		.uleb128 0x1
 5483 1452 50       		.byte	0x50
 5484 1453 01       		.uleb128 0x1
 5485 1454 3A       		.byte	0x3a
 5486 1455 00       		.byte	0
 5487 1456 17       		.uleb128 0x17
 5488 1457 9E040000 		.4byte	.LVL244
 5489 145b F3160000 		.4byte	0x16f3
 5490 145f 15       		.uleb128 0x15
 5491 1460 01       		.uleb128 0x1
 5492 1461 50       		.byte	0x50
 5493 1462 02       		.uleb128 0x2
 5494 1463 76       		.byte	0x76
 5495 1464 00       		.sleb128 0
 5496 1465 00       		.byte	0
 5497 1466 00       		.byte	0
 5498 1467 1B       		.uleb128 0x1b
 5499 1468 7F030000 		.4byte	.LASF50
 5500 146c 07       		.byte	0x7
 5501 146d 1207     		.2byte	0x712
 5502 146f 73140000 		.4byte	0x1473
 5503 1473 1C       		.uleb128 0x1c
 5504 1474 93000000 		.4byte	0x93
 5505 1478 08       		.uleb128 0x8
ARM GAS  C:\Users\USUARIO\AppData\Local\Temp\ccgyuR3R.s 			page 107


 5506 1479 B6000000 		.4byte	0xb6
 5507 147d 88140000 		.4byte	0x1488
 5508 1481 09       		.uleb128 0x9
 5509 1482 E3000000 		.4byte	0xe3
 5510 1486 03       		.byte	0x3
 5511 1487 00       		.byte	0
 5512 1488 1D       		.uleb128 0x1d
 5513 1489 89010000 		.4byte	.LASF51
 5514 148d 05       		.byte	0x5
 5515 148e 53       		.byte	0x53
 5516 148f 78140000 		.4byte	0x1478
 5517 1493 1E       		.uleb128 0x1e
 5518 1494 6900     		.ascii	"i\000"
 5519 1496 05       		.byte	0x5
 5520 1497 60       		.byte	0x60
 5521 1498 88000000 		.4byte	0x88
 5522 149c 1E       		.uleb128 0x1e
 5523 149d 6E00     		.ascii	"n\000"
 5524 149f 05       		.byte	0x5
 5525 14a0 60       		.byte	0x60
 5526 14a1 88000000 		.4byte	0x88
 5527 14a5 1D       		.uleb128 0x1d
 5528 14a6 36010000 		.4byte	.LASF52
 5529 14aa 05       		.byte	0x5
 5530 14ab 8B       		.byte	0x8b
 5531 14ac 9E000000 		.4byte	0x9e
 5532 14b0 1D       		.uleb128 0x1d
 5533 14b1 41010000 		.4byte	.LASF53
 5534 14b5 05       		.byte	0x5
 5535 14b6 8B       		.byte	0x8b
 5536 14b7 9E000000 		.4byte	0x9e
 5537 14bb 1D       		.uleb128 0x1d
 5538 14bc 10000000 		.4byte	.LASF54
 5539 14c0 05       		.byte	0x5
 5540 14c1 8B       		.byte	0x8b
 5541 14c2 9E000000 		.4byte	0x9e
 5542 14c6 1D       		.uleb128 0x1d
 5543 14c7 94010000 		.4byte	.LASF55
 5544 14cb 05       		.byte	0x5
 5545 14cc 8B       		.byte	0x8b
 5546 14cd 9E000000 		.4byte	0x9e
 5547 14d1 1D       		.uleb128 0x1d
 5548 14d2 6F010000 		.4byte	.LASF56
 5549 14d6 05       		.byte	0x5
 5550 14d7 8B       		.byte	0x8b
 5551 14d8 9E000000 		.4byte	0x9e
 5552 14dc 1D       		.uleb128 0x1d
 5553 14dd 67010000 		.4byte	.LASF57
 5554 14e1 05       		.byte	0x5
 5555 14e2 8B       		.byte	0x8b
 5556 14e3 9E000000 		.4byte	0x9e
 5557 14e7 1D       		.uleb128 0x1d
 5558 14e8 B2010000 		.4byte	.LASF58
 5559 14ec 05       		.byte	0x5
 5560 14ed 64       		.byte	0x64
 5561 14ee 45000000 		.4byte	0x45
 5562 14f2 1D       		.uleb128 0x1d
ARM GAS  C:\Users\USUARIO\AppData\Local\Temp\ccgyuR3R.s 			page 108


 5563 14f3 6D000000 		.4byte	.LASF59
 5564 14f7 05       		.byte	0x5
 5565 14f8 64       		.byte	0x64
 5566 14f9 45000000 		.4byte	0x45
 5567 14fd 1D       		.uleb128 0x1d
 5568 14fe 75000000 		.4byte	.LASF60
 5569 1502 05       		.byte	0x5
 5570 1503 64       		.byte	0x64
 5571 1504 45000000 		.4byte	0x45
 5572 1508 1E       		.uleb128 0x1e
 5573 1509 6200     		.ascii	"b\000"
 5574 150b 05       		.byte	0x5
 5575 150c 65       		.byte	0x65
 5576 150d 25000000 		.4byte	0x25
 5577 1511 1D       		.uleb128 0x1d
 5578 1512 55020000 		.4byte	.LASF61
 5579 1516 05       		.byte	0x5
 5580 1517 8C       		.byte	0x8c
 5581 1518 25000000 		.4byte	0x25
 5582 151c 1D       		.uleb128 0x1d
 5583 151d 21000000 		.4byte	.LASF62
 5584 1521 05       		.byte	0x5
 5585 1522 8C       		.byte	0x8c
 5586 1523 25000000 		.4byte	0x25
 5587 1527 1D       		.uleb128 0x1d
 5588 1528 EC020000 		.4byte	.LASF63
 5589 152c 05       		.byte	0x5
 5590 152d 76       		.byte	0x76
 5591 152e 9E000000 		.4byte	0x9e
 5592 1532 1D       		.uleb128 0x1d
 5593 1533 66000000 		.4byte	.LASF64
 5594 1537 05       		.byte	0x5
 5595 1538 76       		.byte	0x76
 5596 1539 9E000000 		.4byte	0x9e
 5597 153d 08       		.uleb128 0x8
 5598 153e 9E000000 		.4byte	0x9e
 5599 1542 4D150000 		.4byte	0x154d
 5600 1546 09       		.uleb128 0x9
 5601 1547 E3000000 		.4byte	0xe3
 5602 154b 03       		.byte	0x3
 5603 154c 00       		.byte	0
 5604 154d 1D       		.uleb128 0x1d
 5605 154e F1020000 		.4byte	.LASF65
 5606 1552 05       		.byte	0x5
 5607 1553 8A       		.byte	0x8a
 5608 1554 3D150000 		.4byte	0x153d
 5609 1558 1D       		.uleb128 0x1d
 5610 1559 D6010000 		.4byte	.LASF66
 5611 155d 05       		.byte	0x5
 5612 155e 79       		.byte	0x79
 5613 155f 9E000000 		.4byte	0x9e
 5614 1563 1D       		.uleb128 0x1d
 5615 1564 5E010000 		.4byte	.LASF67
 5616 1568 05       		.byte	0x5
 5617 1569 7A       		.byte	0x7a
 5618 156a AA000000 		.4byte	0xaa
 5619 156e 1D       		.uleb128 0x1d
ARM GAS  C:\Users\USUARIO\AppData\Local\Temp\ccgyuR3R.s 			page 109


 5620 156f 71020000 		.4byte	.LASF68
 5621 1573 05       		.byte	0x5
 5622 1574 7A       		.byte	0x7a
 5623 1575 AA000000 		.4byte	0xaa
 5624 1579 1D       		.uleb128 0x1d
 5625 157a 49030000 		.4byte	.LASF69
 5626 157e 05       		.byte	0x5
 5627 157f 7A       		.byte	0x7a
 5628 1580 AA000000 		.4byte	0xaa
 5629 1584 1D       		.uleb128 0x1d
 5630 1585 B9010000 		.4byte	.LASF70
 5631 1589 05       		.byte	0x5
 5632 158a 7A       		.byte	0x7a
 5633 158b AA000000 		.4byte	0xaa
 5634 158f 1D       		.uleb128 0x1d
 5635 1590 78030000 		.4byte	.LASF71
 5636 1594 05       		.byte	0x5
 5637 1595 7B       		.byte	0x7b
 5638 1596 45000000 		.4byte	0x45
 5639 159a 1D       		.uleb128 0x1d
 5640 159b 14010000 		.4byte	.LASF72
 5641 159f 05       		.byte	0x5
 5642 15a0 7B       		.byte	0x7b
 5643 15a1 45000000 		.4byte	0x45
 5644 15a5 1D       		.uleb128 0x1d
 5645 15a6 22040000 		.4byte	.LASF73
 5646 15aa 05       		.byte	0x5
 5647 15ab 7E       		.byte	0x7e
 5648 15ac 25000000 		.4byte	0x25
 5649 15b0 1E       		.uleb128 0x1e
 5650 15b1 62313600 		.ascii	"b16\000"
 5651 15b5 05       		.byte	0x5
 5652 15b6 80       		.byte	0x80
 5653 15b7 AA000000 		.4byte	0xaa
 5654 15bb 1E       		.uleb128 0x1e
 5655 15bc 6D00     		.ascii	"m\000"
 5656 15be 05       		.byte	0x5
 5657 15bf 83       		.byte	0x83
 5658 15c0 25000000 		.4byte	0x25
 5659 15c4 08       		.uleb128 0x8
 5660 15c5 C2000000 		.4byte	0xc2
 5661 15c9 D4150000 		.4byte	0x15d4
 5662 15cd 09       		.uleb128 0x9
 5663 15ce E3000000 		.4byte	0xe3
 5664 15d2 4F       		.byte	0x4f
 5665 15d3 00       		.byte	0
 5666 15d4 1D       		.uleb128 0x1d
 5667 15d5 BF010000 		.4byte	.LASF74
 5668 15d9 05       		.byte	0x5
 5669 15da 84       		.byte	0x84
 5670 15db C4150000 		.4byte	0x15c4
 5671 15df 1D       		.uleb128 0x1d
 5672 15e0 2B040000 		.4byte	.LASF75
 5673 15e4 05       		.byte	0x5
 5674 15e5 85       		.byte	0x85
 5675 15e6 C4150000 		.4byte	0x15c4
 5676 15ea 1D       		.uleb128 0x1d
ARM GAS  C:\Users\USUARIO\AppData\Local\Temp\ccgyuR3R.s 			page 110


 5677 15eb A9010000 		.4byte	.LASF76
 5678 15ef 05       		.byte	0x5
 5679 15f0 86       		.byte	0x86
 5680 15f1 C4150000 		.4byte	0x15c4
 5681 15f5 1D       		.uleb128 0x1d
 5682 15f6 2B020000 		.4byte	.LASF77
 5683 15fa 05       		.byte	0x5
 5684 15fb 87       		.byte	0x87
 5685 15fc 9E000000 		.4byte	0x9e
 5686 1600 1D       		.uleb128 0x1d
 5687 1601 9B020000 		.4byte	.LASF78
 5688 1605 05       		.byte	0x5
 5689 1606 87       		.byte	0x87
 5690 1607 9E000000 		.4byte	0x9e
 5691 160b 1D       		.uleb128 0x1d
 5692 160c C2000000 		.4byte	.LASF79
 5693 1610 05       		.byte	0x5
 5694 1611 87       		.byte	0x87
 5695 1612 9E000000 		.4byte	0x9e
 5696 1616 1D       		.uleb128 0x1d
 5697 1617 96000000 		.4byte	.LASF80
 5698 161b 05       		.byte	0x5
 5699 161c 88       		.byte	0x88
 5700 161d 78140000 		.4byte	0x1478
 5701 1621 1F       		.uleb128 0x1f
 5702 1622 9E000000 		.4byte	.LASF81
 5703 1626 05       		.byte	0x5
 5704 1627 9F       		.byte	0x9f
 5705 1628 0F010000 		.4byte	0x10f
 5706 162c 05       		.uleb128 0x5
 5707 162d 03       		.byte	0x3
 5708 162e 00000000 		.4byte	Menus
 5709 1632 1F       		.uleb128 0x1f
 5710 1633 52010000 		.4byte	.LASF82
 5711 1637 06       		.byte	0x6
 5712 1638 60       		.byte	0x60
 5713 1639 1A010000 		.4byte	0x11a
 5714 163d 05       		.uleb128 0x5
 5715 163e 03       		.byte	0x3
 5716 163f 00000000 		.4byte	displayData
 5717 1643 20       		.uleb128 0x20
 5718 1644 1A040000 		.4byte	.LASF83
 5719 1648 1A040000 		.4byte	.LASF83
 5720 164c 08       		.byte	0x8
 5721 164d 76       		.byte	0x76
 5722 164e 20       		.uleb128 0x20
 5723 164f 38000000 		.4byte	.LASF84
 5724 1653 38000000 		.4byte	.LASF84
 5725 1657 09       		.byte	0x9
 5726 1658 23       		.byte	0x23
 5727 1659 20       		.uleb128 0x20
 5728 165a 32040000 		.4byte	.LASF85
 5729 165e 32040000 		.4byte	.LASF85
 5730 1662 09       		.byte	0x9
 5731 1663 21       		.byte	0x21
 5732 1664 20       		.uleb128 0x20
 5733 1665 B4020000 		.4byte	.LASF86
ARM GAS  C:\Users\USUARIO\AppData\Local\Temp\ccgyuR3R.s 			page 111


 5734 1669 B4020000 		.4byte	.LASF86
 5735 166d 06       		.byte	0x6
 5736 166e 53       		.byte	0x53
 5737 166f 20       		.uleb128 0x20
 5738 1670 D3020000 		.4byte	.LASF87
 5739 1674 D3020000 		.4byte	.LASF87
 5740 1678 06       		.byte	0x6
 5741 1679 4A       		.byte	0x4a
 5742 167a 20       		.uleb128 0x20
 5743 167b DF020000 		.4byte	.LASF88
 5744 167f DF020000 		.4byte	.LASF88
 5745 1683 0A       		.byte	0xa
 5746 1684 29       		.byte	0x29
 5747 1685 20       		.uleb128 0x20
 5748 1686 21020000 		.4byte	.LASF89
 5749 168a 21020000 		.4byte	.LASF89
 5750 168e 0B       		.byte	0xb
 5751 168f 29       		.byte	0x29
 5752 1690 20       		.uleb128 0x20
 5753 1691 1B010000 		.4byte	.LASF90
 5754 1695 1B010000 		.4byte	.LASF90
 5755 1699 0C       		.byte	0xc
 5756 169a 29       		.byte	0x29
 5757 169b 20       		.uleb128 0x20
 5758 169c 5E030000 		.4byte	.LASF91
 5759 16a0 5E030000 		.4byte	.LASF91
 5760 16a4 0D       		.byte	0xd
 5761 16a5 29       		.byte	0x29
 5762 16a6 20       		.uleb128 0x20
 5763 16a7 26030000 		.4byte	.LASF92
 5764 16ab 26030000 		.4byte	.LASF92
 5765 16af 06       		.byte	0x6
 5766 16b0 56       		.byte	0x56
 5767 16b1 20       		.uleb128 0x20
 5768 16b2 76010000 		.4byte	.LASF93
 5769 16b6 76010000 		.4byte	.LASF93
 5770 16ba 06       		.byte	0x6
 5771 16bb 59       		.byte	0x59
 5772 16bc 20       		.uleb128 0x20
 5773 16bd CC010000 		.4byte	.LASF94
 5774 16c1 CC010000 		.4byte	.LASF94
 5775 16c5 06       		.byte	0x6
 5776 16c6 47       		.byte	0x47
 5777 16c7 20       		.uleb128 0x20
 5778 16c8 AF000000 		.4byte	.LASF95
 5779 16cc AF000000 		.4byte	.LASF95
 5780 16d0 06       		.byte	0x6
 5781 16d1 49       		.byte	0x49
 5782 16d2 20       		.uleb128 0x20
 5783 16d3 00030000 		.4byte	.LASF96
 5784 16d7 00030000 		.4byte	.LASF96
 5785 16db 06       		.byte	0x6
 5786 16dc 4C       		.byte	0x4c
 5787 16dd 20       		.uleb128 0x20
 5788 16de 36030000 		.4byte	.LASF97
 5789 16e2 36030000 		.4byte	.LASF97
 5790 16e6 06       		.byte	0x6
ARM GAS  C:\Users\USUARIO\AppData\Local\Temp\ccgyuR3R.s 			page 112


 5791 16e7 4D       		.byte	0x4d
 5792 16e8 20       		.uleb128 0x20
 5793 16e9 31020000 		.4byte	.LASF98
 5794 16ed 31020000 		.4byte	.LASF98
 5795 16f1 06       		.byte	0x6
 5796 16f2 4B       		.byte	0x4b
 5797 16f3 20       		.uleb128 0x20
 5798 16f4 07020000 		.4byte	.LASF99
 5799 16f8 07020000 		.4byte	.LASF99
 5800 16fc 0E       		.byte	0xe
 5801 16fd 26       		.byte	0x26
 5802 16fe 00       		.byte	0
 5803              		.section	.debug_abbrev,"",%progbits
 5804              	.Ldebug_abbrev0:
 5805 0000 01       		.uleb128 0x1
 5806 0001 11       		.uleb128 0x11
 5807 0002 01       		.byte	0x1
 5808 0003 25       		.uleb128 0x25
 5809 0004 0E       		.uleb128 0xe
 5810 0005 13       		.uleb128 0x13
 5811 0006 0B       		.uleb128 0xb
 5812 0007 03       		.uleb128 0x3
 5813 0008 0E       		.uleb128 0xe
 5814 0009 1B       		.uleb128 0x1b
 5815 000a 0E       		.uleb128 0xe
 5816 000b 55       		.uleb128 0x55
 5817 000c 17       		.uleb128 0x17
 5818 000d 11       		.uleb128 0x11
 5819 000e 01       		.uleb128 0x1
 5820 000f 10       		.uleb128 0x10
 5821 0010 17       		.uleb128 0x17
 5822 0011 00       		.byte	0
 5823 0012 00       		.byte	0
 5824 0013 02       		.uleb128 0x2
 5825 0014 24       		.uleb128 0x24
 5826 0015 00       		.byte	0
 5827 0016 0B       		.uleb128 0xb
 5828 0017 0B       		.uleb128 0xb
 5829 0018 3E       		.uleb128 0x3e
 5830 0019 0B       		.uleb128 0xb
 5831 001a 03       		.uleb128 0x3
 5832 001b 0E       		.uleb128 0xe
 5833 001c 00       		.byte	0
 5834 001d 00       		.byte	0
 5835 001e 03       		.uleb128 0x3
 5836 001f 16       		.uleb128 0x16
 5837 0020 00       		.byte	0
 5838 0021 03       		.uleb128 0x3
 5839 0022 0E       		.uleb128 0xe
 5840 0023 3A       		.uleb128 0x3a
 5841 0024 0B       		.uleb128 0xb
 5842 0025 3B       		.uleb128 0x3b
 5843 0026 0B       		.uleb128 0xb
 5844 0027 49       		.uleb128 0x49
 5845 0028 13       		.uleb128 0x13
 5846 0029 00       		.byte	0
 5847 002a 00       		.byte	0
ARM GAS  C:\Users\USUARIO\AppData\Local\Temp\ccgyuR3R.s 			page 113


 5848 002b 04       		.uleb128 0x4
 5849 002c 24       		.uleb128 0x24
 5850 002d 00       		.byte	0
 5851 002e 0B       		.uleb128 0xb
 5852 002f 0B       		.uleb128 0xb
 5853 0030 3E       		.uleb128 0x3e
 5854 0031 0B       		.uleb128 0xb
 5855 0032 03       		.uleb128 0x3
 5856 0033 08       		.uleb128 0x8
 5857 0034 00       		.byte	0
 5858 0035 00       		.byte	0
 5859 0036 05       		.uleb128 0x5
 5860 0037 16       		.uleb128 0x16
 5861 0038 00       		.byte	0
 5862 0039 03       		.uleb128 0x3
 5863 003a 0E       		.uleb128 0xe
 5864 003b 3A       		.uleb128 0x3a
 5865 003c 0B       		.uleb128 0xb
 5866 003d 3B       		.uleb128 0x3b
 5867 003e 05       		.uleb128 0x5
 5868 003f 49       		.uleb128 0x49
 5869 0040 13       		.uleb128 0x13
 5870 0041 00       		.byte	0
 5871 0042 00       		.byte	0
 5872 0043 06       		.uleb128 0x6
 5873 0044 13       		.uleb128 0x13
 5874 0045 01       		.byte	0x1
 5875 0046 0B       		.uleb128 0xb
 5876 0047 0B       		.uleb128 0xb
 5877 0048 3A       		.uleb128 0x3a
 5878 0049 0B       		.uleb128 0xb
 5879 004a 3B       		.uleb128 0x3b
 5880 004b 0B       		.uleb128 0xb
 5881 004c 01       		.uleb128 0x1
 5882 004d 13       		.uleb128 0x13
 5883 004e 00       		.byte	0
 5884 004f 00       		.byte	0
 5885 0050 07       		.uleb128 0x7
 5886 0051 0D       		.uleb128 0xd
 5887 0052 00       		.byte	0
 5888 0053 03       		.uleb128 0x3
 5889 0054 0E       		.uleb128 0xe
 5890 0055 3A       		.uleb128 0x3a
 5891 0056 0B       		.uleb128 0xb
 5892 0057 3B       		.uleb128 0x3b
 5893 0058 0B       		.uleb128 0xb
 5894 0059 49       		.uleb128 0x49
 5895 005a 13       		.uleb128 0x13
 5896 005b 38       		.uleb128 0x38
 5897 005c 0B       		.uleb128 0xb
 5898 005d 00       		.byte	0
 5899 005e 00       		.byte	0
 5900 005f 08       		.uleb128 0x8
 5901 0060 01       		.uleb128 0x1
 5902 0061 01       		.byte	0x1
 5903 0062 49       		.uleb128 0x49
 5904 0063 13       		.uleb128 0x13
ARM GAS  C:\Users\USUARIO\AppData\Local\Temp\ccgyuR3R.s 			page 114


 5905 0064 01       		.uleb128 0x1
 5906 0065 13       		.uleb128 0x13
 5907 0066 00       		.byte	0
 5908 0067 00       		.byte	0
 5909 0068 09       		.uleb128 0x9
 5910 0069 21       		.uleb128 0x21
 5911 006a 00       		.byte	0
 5912 006b 49       		.uleb128 0x49
 5913 006c 13       		.uleb128 0x13
 5914 006d 2F       		.uleb128 0x2f
 5915 006e 0B       		.uleb128 0xb
 5916 006f 00       		.byte	0
 5917 0070 00       		.byte	0
 5918 0071 0A       		.uleb128 0xa
 5919 0072 13       		.uleb128 0x13
 5920 0073 01       		.byte	0x1
 5921 0074 0B       		.uleb128 0xb
 5922 0075 05       		.uleb128 0x5
 5923 0076 3A       		.uleb128 0x3a
 5924 0077 0B       		.uleb128 0xb
 5925 0078 3B       		.uleb128 0x3b
 5926 0079 0B       		.uleb128 0xb
 5927 007a 01       		.uleb128 0x1
 5928 007b 13       		.uleb128 0x13
 5929 007c 00       		.byte	0
 5930 007d 00       		.byte	0
 5931 007e 0B       		.uleb128 0xb
 5932 007f 0D       		.uleb128 0xd
 5933 0080 00       		.byte	0
 5934 0081 03       		.uleb128 0x3
 5935 0082 0E       		.uleb128 0xe
 5936 0083 3A       		.uleb128 0x3a
 5937 0084 0B       		.uleb128 0xb
 5938 0085 3B       		.uleb128 0x3b
 5939 0086 0B       		.uleb128 0xb
 5940 0087 49       		.uleb128 0x49
 5941 0088 13       		.uleb128 0x13
 5942 0089 38       		.uleb128 0x38
 5943 008a 05       		.uleb128 0x5
 5944 008b 00       		.byte	0
 5945 008c 00       		.byte	0
 5946 008d 0C       		.uleb128 0xc
 5947 008e 21       		.uleb128 0x21
 5948 008f 00       		.byte	0
 5949 0090 49       		.uleb128 0x49
 5950 0091 13       		.uleb128 0x13
 5951 0092 2F       		.uleb128 0x2f
 5952 0093 05       		.uleb128 0x5
 5953 0094 00       		.byte	0
 5954 0095 00       		.byte	0
 5955 0096 0D       		.uleb128 0xd
 5956 0097 2E       		.uleb128 0x2e
 5957 0098 01       		.byte	0x1
 5958 0099 3F       		.uleb128 0x3f
 5959 009a 19       		.uleb128 0x19
 5960 009b 03       		.uleb128 0x3
 5961 009c 0E       		.uleb128 0xe
ARM GAS  C:\Users\USUARIO\AppData\Local\Temp\ccgyuR3R.s 			page 115


 5962 009d 3A       		.uleb128 0x3a
 5963 009e 0B       		.uleb128 0xb
 5964 009f 3B       		.uleb128 0x3b
 5965 00a0 0B       		.uleb128 0xb
 5966 00a1 27       		.uleb128 0x27
 5967 00a2 19       		.uleb128 0x19
 5968 00a3 49       		.uleb128 0x49
 5969 00a4 13       		.uleb128 0x13
 5970 00a5 11       		.uleb128 0x11
 5971 00a6 01       		.uleb128 0x1
 5972 00a7 12       		.uleb128 0x12
 5973 00a8 06       		.uleb128 0x6
 5974 00a9 40       		.uleb128 0x40
 5975 00aa 18       		.uleb128 0x18
 5976 00ab 9642     		.uleb128 0x2116
 5977 00ad 19       		.uleb128 0x19
 5978 00ae 01       		.uleb128 0x1
 5979 00af 13       		.uleb128 0x13
 5980 00b0 00       		.byte	0
 5981 00b1 00       		.byte	0
 5982 00b2 0E       		.uleb128 0xe
 5983 00b3 05       		.uleb128 0x5
 5984 00b4 00       		.byte	0
 5985 00b5 03       		.uleb128 0x3
 5986 00b6 0E       		.uleb128 0xe
 5987 00b7 3A       		.uleb128 0x3a
 5988 00b8 0B       		.uleb128 0xb
 5989 00b9 3B       		.uleb128 0x3b
 5990 00ba 0B       		.uleb128 0xb
 5991 00bb 49       		.uleb128 0x49
 5992 00bc 13       		.uleb128 0x13
 5993 00bd 02       		.uleb128 0x2
 5994 00be 17       		.uleb128 0x17
 5995 00bf 00       		.byte	0
 5996 00c0 00       		.byte	0
 5997 00c1 0F       		.uleb128 0xf
 5998 00c2 34       		.uleb128 0x34
 5999 00c3 00       		.byte	0
 6000 00c4 03       		.uleb128 0x3
 6001 00c5 0E       		.uleb128 0xe
 6002 00c6 3A       		.uleb128 0x3a
 6003 00c7 0B       		.uleb128 0xb
 6004 00c8 3B       		.uleb128 0x3b
 6005 00c9 0B       		.uleb128 0xb
 6006 00ca 49       		.uleb128 0x49
 6007 00cb 13       		.uleb128 0x13
 6008 00cc 02       		.uleb128 0x2
 6009 00cd 17       		.uleb128 0x17
 6010 00ce 00       		.byte	0
 6011 00cf 00       		.byte	0
 6012 00d0 10       		.uleb128 0x10
 6013 00d1 34       		.uleb128 0x34
 6014 00d2 00       		.byte	0
 6015 00d3 03       		.uleb128 0x3
 6016 00d4 08       		.uleb128 0x8
 6017 00d5 3A       		.uleb128 0x3a
 6018 00d6 0B       		.uleb128 0xb
ARM GAS  C:\Users\USUARIO\AppData\Local\Temp\ccgyuR3R.s 			page 116


 6019 00d7 3B       		.uleb128 0x3b
 6020 00d8 0B       		.uleb128 0xb
 6021 00d9 49       		.uleb128 0x49
 6022 00da 13       		.uleb128 0x13
 6023 00db 02       		.uleb128 0x2
 6024 00dc 17       		.uleb128 0x17
 6025 00dd 00       		.byte	0
 6026 00de 00       		.byte	0
 6027 00df 11       		.uleb128 0x11
 6028 00e0 2E       		.uleb128 0x2e
 6029 00e1 01       		.byte	0x1
 6030 00e2 3F       		.uleb128 0x3f
 6031 00e3 19       		.uleb128 0x19
 6032 00e4 03       		.uleb128 0x3
 6033 00e5 0E       		.uleb128 0xe
 6034 00e6 3A       		.uleb128 0x3a
 6035 00e7 0B       		.uleb128 0xb
 6036 00e8 3B       		.uleb128 0x3b
 6037 00e9 0B       		.uleb128 0xb
 6038 00ea 27       		.uleb128 0x27
 6039 00eb 19       		.uleb128 0x19
 6040 00ec 49       		.uleb128 0x49
 6041 00ed 13       		.uleb128 0x13
 6042 00ee 11       		.uleb128 0x11
 6043 00ef 01       		.uleb128 0x1
 6044 00f0 12       		.uleb128 0x12
 6045 00f1 06       		.uleb128 0x6
 6046 00f2 40       		.uleb128 0x40
 6047 00f3 18       		.uleb128 0x18
 6048 00f4 9742     		.uleb128 0x2117
 6049 00f6 19       		.uleb128 0x19
 6050 00f7 01       		.uleb128 0x1
 6051 00f8 13       		.uleb128 0x13
 6052 00f9 00       		.byte	0
 6053 00fa 00       		.byte	0
 6054 00fb 12       		.uleb128 0x12
 6055 00fc 05       		.uleb128 0x5
 6056 00fd 00       		.byte	0
 6057 00fe 03       		.uleb128 0x3
 6058 00ff 0E       		.uleb128 0xe
 6059 0100 3A       		.uleb128 0x3a
 6060 0101 0B       		.uleb128 0xb
 6061 0102 3B       		.uleb128 0x3b
 6062 0103 0B       		.uleb128 0xb
 6063 0104 49       		.uleb128 0x49
 6064 0105 13       		.uleb128 0x13
 6065 0106 02       		.uleb128 0x2
 6066 0107 18       		.uleb128 0x18
 6067 0108 00       		.byte	0
 6068 0109 00       		.byte	0
 6069 010a 13       		.uleb128 0x13
 6070 010b 2E       		.uleb128 0x2e
 6071 010c 01       		.byte	0x1
 6072 010d 3F       		.uleb128 0x3f
 6073 010e 19       		.uleb128 0x19
 6074 010f 03       		.uleb128 0x3
 6075 0110 0E       		.uleb128 0xe
ARM GAS  C:\Users\USUARIO\AppData\Local\Temp\ccgyuR3R.s 			page 117


 6076 0111 3A       		.uleb128 0x3a
 6077 0112 0B       		.uleb128 0xb
 6078 0113 3B       		.uleb128 0x3b
 6079 0114 0B       		.uleb128 0xb
 6080 0115 27       		.uleb128 0x27
 6081 0116 19       		.uleb128 0x19
 6082 0117 11       		.uleb128 0x11
 6083 0118 01       		.uleb128 0x1
 6084 0119 12       		.uleb128 0x12
 6085 011a 06       		.uleb128 0x6
 6086 011b 40       		.uleb128 0x40
 6087 011c 18       		.uleb128 0x18
 6088 011d 9642     		.uleb128 0x2116
 6089 011f 19       		.uleb128 0x19
 6090 0120 01       		.uleb128 0x1
 6091 0121 13       		.uleb128 0x13
 6092 0122 00       		.byte	0
 6093 0123 00       		.byte	0
 6094 0124 14       		.uleb128 0x14
 6095 0125 898201   		.uleb128 0x4109
 6096 0128 01       		.byte	0x1
 6097 0129 11       		.uleb128 0x11
 6098 012a 01       		.uleb128 0x1
 6099 012b 31       		.uleb128 0x31
 6100 012c 13       		.uleb128 0x13
 6101 012d 01       		.uleb128 0x1
 6102 012e 13       		.uleb128 0x13
 6103 012f 00       		.byte	0
 6104 0130 00       		.byte	0
 6105 0131 15       		.uleb128 0x15
 6106 0132 8A8201   		.uleb128 0x410a
 6107 0135 00       		.byte	0
 6108 0136 02       		.uleb128 0x2
 6109 0137 18       		.uleb128 0x18
 6110 0138 9142     		.uleb128 0x2111
 6111 013a 18       		.uleb128 0x18
 6112 013b 00       		.byte	0
 6113 013c 00       		.byte	0
 6114 013d 16       		.uleb128 0x16
 6115 013e 898201   		.uleb128 0x4109
 6116 0141 00       		.byte	0
 6117 0142 11       		.uleb128 0x11
 6118 0143 01       		.uleb128 0x1
 6119 0144 31       		.uleb128 0x31
 6120 0145 13       		.uleb128 0x13
 6121 0146 00       		.byte	0
 6122 0147 00       		.byte	0
 6123 0148 17       		.uleb128 0x17
 6124 0149 898201   		.uleb128 0x4109
 6125 014c 01       		.byte	0x1
 6126 014d 11       		.uleb128 0x11
 6127 014e 01       		.uleb128 0x1
 6128 014f 31       		.uleb128 0x31
 6129 0150 13       		.uleb128 0x13
 6130 0151 00       		.byte	0
 6131 0152 00       		.byte	0
 6132 0153 18       		.uleb128 0x18
ARM GAS  C:\Users\USUARIO\AppData\Local\Temp\ccgyuR3R.s 			page 118


 6133 0154 2E       		.uleb128 0x2e
 6134 0155 01       		.byte	0x1
 6135 0156 3F       		.uleb128 0x3f
 6136 0157 19       		.uleb128 0x19
 6137 0158 03       		.uleb128 0x3
 6138 0159 0E       		.uleb128 0xe
 6139 015a 3A       		.uleb128 0x3a
 6140 015b 0B       		.uleb128 0xb
 6141 015c 3B       		.uleb128 0x3b
 6142 015d 05       		.uleb128 0x5
 6143 015e 27       		.uleb128 0x27
 6144 015f 19       		.uleb128 0x19
 6145 0160 11       		.uleb128 0x11
 6146 0161 01       		.uleb128 0x1
 6147 0162 12       		.uleb128 0x12
 6148 0163 06       		.uleb128 0x6
 6149 0164 40       		.uleb128 0x40
 6150 0165 18       		.uleb128 0x18
 6151 0166 9742     		.uleb128 0x2117
 6152 0168 19       		.uleb128 0x19
 6153 0169 01       		.uleb128 0x1
 6154 016a 13       		.uleb128 0x13
 6155 016b 00       		.byte	0
 6156 016c 00       		.byte	0
 6157 016d 19       		.uleb128 0x19
 6158 016e 05       		.uleb128 0x5
 6159 016f 00       		.byte	0
 6160 0170 03       		.uleb128 0x3
 6161 0171 0E       		.uleb128 0xe
 6162 0172 3A       		.uleb128 0x3a
 6163 0173 0B       		.uleb128 0xb
 6164 0174 3B       		.uleb128 0x3b
 6165 0175 05       		.uleb128 0x5
 6166 0176 49       		.uleb128 0x49
 6167 0177 13       		.uleb128 0x13
 6168 0178 02       		.uleb128 0x2
 6169 0179 17       		.uleb128 0x17
 6170 017a 00       		.byte	0
 6171 017b 00       		.byte	0
 6172 017c 1A       		.uleb128 0x1a
 6173 017d 05       		.uleb128 0x5
 6174 017e 00       		.byte	0
 6175 017f 03       		.uleb128 0x3
 6176 0180 08       		.uleb128 0x8
 6177 0181 3A       		.uleb128 0x3a
 6178 0182 0B       		.uleb128 0xb
 6179 0183 3B       		.uleb128 0x3b
 6180 0184 05       		.uleb128 0x5
 6181 0185 49       		.uleb128 0x49
 6182 0186 13       		.uleb128 0x13
 6183 0187 02       		.uleb128 0x2
 6184 0188 17       		.uleb128 0x17
 6185 0189 00       		.byte	0
 6186 018a 00       		.byte	0
 6187 018b 1B       		.uleb128 0x1b
 6188 018c 34       		.uleb128 0x34
 6189 018d 00       		.byte	0
ARM GAS  C:\Users\USUARIO\AppData\Local\Temp\ccgyuR3R.s 			page 119


 6190 018e 03       		.uleb128 0x3
 6191 018f 0E       		.uleb128 0xe
 6192 0190 3A       		.uleb128 0x3a
 6193 0191 0B       		.uleb128 0xb
 6194 0192 3B       		.uleb128 0x3b
 6195 0193 05       		.uleb128 0x5
 6196 0194 49       		.uleb128 0x49
 6197 0195 13       		.uleb128 0x13
 6198 0196 3F       		.uleb128 0x3f
 6199 0197 19       		.uleb128 0x19
 6200 0198 3C       		.uleb128 0x3c
 6201 0199 19       		.uleb128 0x19
 6202 019a 00       		.byte	0
 6203 019b 00       		.byte	0
 6204 019c 1C       		.uleb128 0x1c
 6205 019d 35       		.uleb128 0x35
 6206 019e 00       		.byte	0
 6207 019f 49       		.uleb128 0x49
 6208 01a0 13       		.uleb128 0x13
 6209 01a1 00       		.byte	0
 6210 01a2 00       		.byte	0
 6211 01a3 1D       		.uleb128 0x1d
 6212 01a4 34       		.uleb128 0x34
 6213 01a5 00       		.byte	0
 6214 01a6 03       		.uleb128 0x3
 6215 01a7 0E       		.uleb128 0xe
 6216 01a8 3A       		.uleb128 0x3a
 6217 01a9 0B       		.uleb128 0xb
 6218 01aa 3B       		.uleb128 0x3b
 6219 01ab 0B       		.uleb128 0xb
 6220 01ac 49       		.uleb128 0x49
 6221 01ad 13       		.uleb128 0x13
 6222 01ae 3F       		.uleb128 0x3f
 6223 01af 19       		.uleb128 0x19
 6224 01b0 3C       		.uleb128 0x3c
 6225 01b1 19       		.uleb128 0x19
 6226 01b2 00       		.byte	0
 6227 01b3 00       		.byte	0
 6228 01b4 1E       		.uleb128 0x1e
 6229 01b5 34       		.uleb128 0x34
 6230 01b6 00       		.byte	0
 6231 01b7 03       		.uleb128 0x3
 6232 01b8 08       		.uleb128 0x8
 6233 01b9 3A       		.uleb128 0x3a
 6234 01ba 0B       		.uleb128 0xb
 6235 01bb 3B       		.uleb128 0x3b
 6236 01bc 0B       		.uleb128 0xb
 6237 01bd 49       		.uleb128 0x49
 6238 01be 13       		.uleb128 0x13
 6239 01bf 3F       		.uleb128 0x3f
 6240 01c0 19       		.uleb128 0x19
 6241 01c1 3C       		.uleb128 0x3c
 6242 01c2 19       		.uleb128 0x19
 6243 01c3 00       		.byte	0
 6244 01c4 00       		.byte	0
 6245 01c5 1F       		.uleb128 0x1f
 6246 01c6 34       		.uleb128 0x34
ARM GAS  C:\Users\USUARIO\AppData\Local\Temp\ccgyuR3R.s 			page 120


 6247 01c7 00       		.byte	0
 6248 01c8 03       		.uleb128 0x3
 6249 01c9 0E       		.uleb128 0xe
 6250 01ca 3A       		.uleb128 0x3a
 6251 01cb 0B       		.uleb128 0xb
 6252 01cc 3B       		.uleb128 0x3b
 6253 01cd 0B       		.uleb128 0xb
 6254 01ce 49       		.uleb128 0x49
 6255 01cf 13       		.uleb128 0x13
 6256 01d0 3F       		.uleb128 0x3f
 6257 01d1 19       		.uleb128 0x19
 6258 01d2 02       		.uleb128 0x2
 6259 01d3 18       		.uleb128 0x18
 6260 01d4 00       		.byte	0
 6261 01d5 00       		.byte	0
 6262 01d6 20       		.uleb128 0x20
 6263 01d7 2E       		.uleb128 0x2e
 6264 01d8 00       		.byte	0
 6265 01d9 3F       		.uleb128 0x3f
 6266 01da 19       		.uleb128 0x19
 6267 01db 3C       		.uleb128 0x3c
 6268 01dc 19       		.uleb128 0x19
 6269 01dd 6E       		.uleb128 0x6e
 6270 01de 0E       		.uleb128 0xe
 6271 01df 03       		.uleb128 0x3
 6272 01e0 0E       		.uleb128 0xe
 6273 01e1 3A       		.uleb128 0x3a
 6274 01e2 0B       		.uleb128 0xb
 6275 01e3 3B       		.uleb128 0x3b
 6276 01e4 0B       		.uleb128 0xb
 6277 01e5 00       		.byte	0
 6278 01e6 00       		.byte	0
 6279 01e7 00       		.byte	0
 6280              		.section	.debug_loc,"",%progbits
 6281              	.Ldebug_loc0:
 6282              	.LLST0:
 6283 0000 00000000 		.4byte	.LVL0
 6284 0004 07000000 		.4byte	.LVL2-1
 6285 0008 0100     		.2byte	0x1
 6286 000a 50       		.byte	0x50
 6287 000b 07000000 		.4byte	.LVL2-1
 6288 000f 24000000 		.4byte	.LVL8
 6289 0013 0100     		.2byte	0x1
 6290 0015 54       		.byte	0x54
 6291 0016 24000000 		.4byte	.LVL8
 6292 001a 28000000 		.4byte	.LFE64
 6293 001e 0600     		.2byte	0x6
 6294 0020 F3       		.byte	0xf3
 6295 0021 03       		.uleb128 0x3
 6296 0022 F5       		.byte	0xf5
 6297 0023 00       		.uleb128 0
 6298 0024 25       		.uleb128 0x25
 6299 0025 9F       		.byte	0x9f
 6300 0026 00000000 		.4byte	0
 6301 002a 00000000 		.4byte	0
 6302              	.LLST1:
 6303 002e 04000000 		.4byte	.LVL1
ARM GAS  C:\Users\USUARIO\AppData\Local\Temp\ccgyuR3R.s 			page 121


 6304 0032 0E000000 		.4byte	.LVL3
 6305 0036 0600     		.2byte	0x6
 6306 0038 9E       		.byte	0x9e
 6307 0039 04       		.uleb128 0x4
 6308 003a 00000000 		.4byte	0
 6309 003e 0E000000 		.4byte	.LVL3
 6310 0042 12000000 		.4byte	.LVL4
 6311 0046 0100     		.2byte	0x1
 6312 0048 50       		.byte	0x50
 6313 0049 12000000 		.4byte	.LVL4
 6314 004d 15000000 		.4byte	.LVL5-1
 6315 0051 0100     		.2byte	0x1
 6316 0053 51       		.byte	0x51
 6317 0054 00000000 		.4byte	0
 6318 0058 00000000 		.4byte	0
 6319              	.LLST2:
 6320 005c 04000000 		.4byte	.LVL1
 6321 0060 1C000000 		.4byte	.LVL6
 6322 0064 0600     		.2byte	0x6
 6323 0066 9E       		.byte	0x9e
 6324 0067 04       		.uleb128 0x4
 6325 0068 00000000 		.4byte	0
 6326 006c 1C000000 		.4byte	.LVL6
 6327 0070 1F000000 		.4byte	.LVL7-1
 6328 0074 0100     		.2byte	0x1
 6329 0076 50       		.byte	0x50
 6330 0077 00000000 		.4byte	0
 6331 007b 00000000 		.4byte	0
 6332              	.LLST3:
 6333 007f 00000000 		.4byte	.LVL9
 6334 0083 05000000 		.4byte	.LVL10-1
 6335 0087 0100     		.2byte	0x1
 6336 0089 50       		.byte	0x50
 6337 008a 05000000 		.4byte	.LVL10-1
 6338 008e 14000000 		.4byte	.LFE65
 6339 0092 0400     		.2byte	0x4
 6340 0094 F3       		.byte	0xf3
 6341 0095 01       		.uleb128 0x1
 6342 0096 50       		.byte	0x50
 6343 0097 9F       		.byte	0x9f
 6344 0098 00000000 		.4byte	0
 6345 009c 00000000 		.4byte	0
 6346              	.LLST4:
 6347 00a0 06000000 		.4byte	.LVL10
 6348 00a4 0B000000 		.4byte	.LVL11-1
 6349 00a8 0100     		.2byte	0x1
 6350 00aa 50       		.byte	0x50
 6351 00ab 00000000 		.4byte	0
 6352 00af 00000000 		.4byte	0
 6353              	.LLST5:
 6354 00b3 00000000 		.4byte	.LVL12
 6355 00b7 04000000 		.4byte	.LVL13
 6356 00bb 0100     		.2byte	0x1
 6357 00bd 50       		.byte	0x50
 6358 00be 04000000 		.4byte	.LVL13
 6359 00c2 06000000 		.4byte	.LVL14
 6360 00c6 0400     		.2byte	0x4
ARM GAS  C:\Users\USUARIO\AppData\Local\Temp\ccgyuR3R.s 			page 122


 6361 00c8 F3       		.byte	0xf3
 6362 00c9 01       		.uleb128 0x1
 6363 00ca 50       		.byte	0x50
 6364 00cb 9F       		.byte	0x9f
 6365 00cc 06000000 		.4byte	.LVL14
 6366 00d0 0C000000 		.4byte	.LVL15
 6367 00d4 0100     		.2byte	0x1
 6368 00d6 50       		.byte	0x50
 6369 00d7 0C000000 		.4byte	.LVL15
 6370 00db 0E000000 		.4byte	.LVL16
 6371 00df 0400     		.2byte	0x4
 6372 00e1 F3       		.byte	0xf3
 6373 00e2 01       		.uleb128 0x1
 6374 00e3 50       		.byte	0x50
 6375 00e4 9F       		.byte	0x9f
 6376 00e5 0E000000 		.4byte	.LVL16
 6377 00e9 10000000 		.4byte	.LVL17
 6378 00ed 0100     		.2byte	0x1
 6379 00ef 50       		.byte	0x50
 6380 00f0 10000000 		.4byte	.LVL17
 6381 00f4 12000000 		.4byte	.LFE66
 6382 00f8 0400     		.2byte	0x4
 6383 00fa F3       		.byte	0xf3
 6384 00fb 01       		.uleb128 0x1
 6385 00fc 50       		.byte	0x50
 6386 00fd 9F       		.byte	0x9f
 6387 00fe 00000000 		.4byte	0
 6388 0102 00000000 		.4byte	0
 6389              	.LLST6:
 6390 0106 00000000 		.4byte	.LVL12
 6391 010a 04000000 		.4byte	.LVL13
 6392 010e 0200     		.2byte	0x2
 6393 0110 30       		.byte	0x30
 6394 0111 9F       		.byte	0x9f
 6395 0112 04000000 		.4byte	.LVL13
 6396 0116 06000000 		.4byte	.LVL14
 6397 011a 0100     		.2byte	0x1
 6398 011c 50       		.byte	0x50
 6399 011d 06000000 		.4byte	.LVL14
 6400 0121 0C000000 		.4byte	.LVL15
 6401 0125 0200     		.2byte	0x2
 6402 0127 30       		.byte	0x30
 6403 0128 9F       		.byte	0x9f
 6404 0129 0C000000 		.4byte	.LVL15
 6405 012d 0E000000 		.4byte	.LVL16
 6406 0131 0100     		.2byte	0x1
 6407 0133 50       		.byte	0x50
 6408 0134 0E000000 		.4byte	.LVL16
 6409 0138 10000000 		.4byte	.LVL17
 6410 013c 0200     		.2byte	0x2
 6411 013e 30       		.byte	0x30
 6412 013f 9F       		.byte	0x9f
 6413 0140 10000000 		.4byte	.LVL17
 6414 0144 12000000 		.4byte	.LFE66
 6415 0148 0100     		.2byte	0x1
 6416 014a 50       		.byte	0x50
 6417 014b 00000000 		.4byte	0
ARM GAS  C:\Users\USUARIO\AppData\Local\Temp\ccgyuR3R.s 			page 123


 6418 014f 00000000 		.4byte	0
 6419              	.LLST7:
 6420 0153 00000000 		.4byte	.LVL18
 6421 0157 04000000 		.4byte	.LVL19
 6422 015b 0100     		.2byte	0x1
 6423 015d 50       		.byte	0x50
 6424 015e 04000000 		.4byte	.LVL19
 6425 0162 06000000 		.4byte	.LFE67
 6426 0166 0400     		.2byte	0x4
 6427 0168 F3       		.byte	0xf3
 6428 0169 01       		.uleb128 0x1
 6429 016a 50       		.byte	0x50
 6430 016b 9F       		.byte	0x9f
 6431 016c 00000000 		.4byte	0
 6432 0170 00000000 		.4byte	0
 6433              	.LLST8:
 6434 0174 00000000 		.4byte	.LVL18
 6435 0178 04000000 		.4byte	.LVL19
 6436 017c 0600     		.2byte	0x6
 6437 017e 70       		.byte	0x70
 6438 017f 00       		.sleb128 0
 6439 0180 08       		.byte	0x8
 6440 0181 FF       		.byte	0xff
 6441 0182 1A       		.byte	0x1a
 6442 0183 9F       		.byte	0x9f
 6443 0184 04000000 		.4byte	.LVL19
 6444 0188 06000000 		.4byte	.LFE67
 6445 018c 0700     		.2byte	0x7
 6446 018e F3       		.byte	0xf3
 6447 018f 01       		.uleb128 0x1
 6448 0190 50       		.byte	0x50
 6449 0191 08       		.byte	0x8
 6450 0192 FF       		.byte	0xff
 6451 0193 1A       		.byte	0x1a
 6452 0194 9F       		.byte	0x9f
 6453 0195 00000000 		.4byte	0
 6454 0199 00000000 		.4byte	0
 6455              	.LLST9:
 6456 019d 00000000 		.4byte	.LVL18
 6457 01a1 04000000 		.4byte	.LVL19
 6458 01a5 0800     		.2byte	0x8
 6459 01a7 70       		.byte	0x70
 6460 01a8 00       		.sleb128 0
 6461 01a9 38       		.byte	0x38
 6462 01aa 24       		.byte	0x24
 6463 01ab 71       		.byte	0x71
 6464 01ac 00       		.sleb128 0
 6465 01ad 21       		.byte	0x21
 6466 01ae 9F       		.byte	0x9f
 6467 01af 00000000 		.4byte	0
 6468 01b3 00000000 		.4byte	0
 6469              	.LLST10:
 6470 01b7 04000000 		.4byte	.LVL20
 6471 01bb 0A000000 		.4byte	.LVL21
 6472 01bf 0200     		.2byte	0x2
 6473 01c1 31       		.byte	0x31
 6474 01c2 9F       		.byte	0x9f
ARM GAS  C:\Users\USUARIO\AppData\Local\Temp\ccgyuR3R.s 			page 124


 6475 01c3 0A000000 		.4byte	.LVL21
 6476 01c7 34010000 		.4byte	.LVL38
 6477 01cb 0100     		.2byte	0x1
 6478 01cd 58       		.byte	0x58
 6479 01ce 38010000 		.4byte	.LVL39
 6480 01d2 FA050000 		.4byte	.LVL152
 6481 01d6 0100     		.2byte	0x1
 6482 01d8 58       		.byte	0x58
 6483 01d9 00000000 		.4byte	0
 6484 01dd 00000000 		.4byte	0
 6485              	.LLST11:
 6486 01e1 00000000 		.4byte	.LVL153
 6487 01e5 1C000000 		.4byte	.LVL157
 6488 01e9 0100     		.2byte	0x1
 6489 01eb 50       		.byte	0x50
 6490 01ec 1C000000 		.4byte	.LVL157
 6491 01f0 1C040000 		.4byte	.LFE69
 6492 01f4 0400     		.2byte	0x4
 6493 01f6 F3       		.byte	0xf3
 6494 01f7 01       		.uleb128 0x1
 6495 01f8 50       		.byte	0x50
 6496 01f9 9F       		.byte	0x9f
 6497 01fa 00000000 		.4byte	0
 6498 01fe 00000000 		.4byte	0
 6499              	.LLST12:
 6500 0202 00000000 		.4byte	.LVL153
 6501 0206 0C000000 		.4byte	.LVL154
 6502 020a 0100     		.2byte	0x1
 6503 020c 51       		.byte	0x51
 6504 020d 0C000000 		.4byte	.LVL154
 6505 0211 1C040000 		.4byte	.LFE69
 6506 0215 0200     		.2byte	0x2
 6507 0217 30       		.byte	0x30
 6508 0218 9F       		.byte	0x9f
 6509 0219 00000000 		.4byte	0
 6510 021d 00000000 		.4byte	0
 6511              	.LLST13:
 6512 0221 00000000 		.4byte	.LVL153
 6513 0225 18000000 		.4byte	.LVL156
 6514 0229 0100     		.2byte	0x1
 6515 022b 52       		.byte	0x52
 6516 022c 18000000 		.4byte	.LVL156
 6517 0230 1C040000 		.4byte	.LFE69
 6518 0234 0400     		.2byte	0x4
 6519 0236 F3       		.byte	0xf3
 6520 0237 01       		.uleb128 0x1
 6521 0238 52       		.byte	0x52
 6522 0239 9F       		.byte	0x9f
 6523 023a 00000000 		.4byte	0
 6524 023e 00000000 		.4byte	0
 6525              	.LLST14:
 6526 0242 00000000 		.4byte	.LVL153
 6527 0246 0E000000 		.4byte	.LVL155
 6528 024a 0100     		.2byte	0x1
 6529 024c 53       		.byte	0x53
 6530 024d 0E000000 		.4byte	.LVL155
 6531 0251 1C040000 		.4byte	.LFE69
ARM GAS  C:\Users\USUARIO\AppData\Local\Temp\ccgyuR3R.s 			page 125


 6532 0255 0400     		.2byte	0x4
 6533 0257 F3       		.byte	0xf3
 6534 0258 01       		.uleb128 0x1
 6535 0259 53       		.byte	0x53
 6536 025a 9F       		.byte	0x9f
 6537 025b 00000000 		.4byte	0
 6538 025f 00000000 		.4byte	0
 6539              	.LLST15:
 6540 0263 00000000 		.4byte	.LVL153
 6541 0267 FE030000 		.4byte	.LVL201
 6542 026b 0200     		.2byte	0x2
 6543 026d 91       		.byte	0x91
 6544 026e 00       		.sleb128 0
 6545 026f FE030000 		.4byte	.LVL201
 6546 0273 1C040000 		.4byte	.LFE69
 6547 0277 0200     		.2byte	0x2
 6548 0279 7D       		.byte	0x7d
 6549 027a 00       		.sleb128 0
 6550 027b 00000000 		.4byte	0
 6551 027f 00000000 		.4byte	0
 6552              	.LLST16:
 6553 0283 00000000 		.4byte	.LVL153
 6554 0287 FE030000 		.4byte	.LVL201
 6555 028b 0200     		.2byte	0x2
 6556 028d 91       		.byte	0x91
 6557 028e 04       		.sleb128 4
 6558 028f FE030000 		.4byte	.LVL201
 6559 0293 1C040000 		.4byte	.LFE69
 6560 0297 0200     		.2byte	0x2
 6561 0299 7D       		.byte	0x7d
 6562 029a 04       		.sleb128 4
 6563 029b 00000000 		.4byte	0
 6564 029f 00000000 		.4byte	0
 6565              	.LLST17:
 6566 02a3 00000000 		.4byte	.LVL153
 6567 02a7 FE030000 		.4byte	.LVL201
 6568 02ab 0200     		.2byte	0x2
 6569 02ad 91       		.byte	0x91
 6570 02ae 08       		.sleb128 8
 6571 02af FE030000 		.4byte	.LVL201
 6572 02b3 1C040000 		.4byte	.LFE69
 6573 02b7 0200     		.2byte	0x2
 6574 02b9 7D       		.byte	0x7d
 6575 02ba 08       		.sleb128 8
 6576 02bb 00000000 		.4byte	0
 6577 02bf 00000000 		.4byte	0
 6578              	.LLST18:
 6579 02c3 00000000 		.4byte	.LVL202
 6580 02c7 5C000000 		.4byte	.LVL204
 6581 02cb 0100     		.2byte	0x1
 6582 02cd 50       		.byte	0x50
 6583 02ce 5C000000 		.4byte	.LVL204
 6584 02d2 1C050000 		.4byte	.LFE70
 6585 02d6 0400     		.2byte	0x4
 6586 02d8 F3       		.byte	0xf3
 6587 02d9 01       		.uleb128 0x1
 6588 02da 50       		.byte	0x50
ARM GAS  C:\Users\USUARIO\AppData\Local\Temp\ccgyuR3R.s 			page 126


 6589 02db 9F       		.byte	0x9f
 6590 02dc 00000000 		.4byte	0
 6591 02e0 00000000 		.4byte	0
 6592              	.LLST19:
 6593 02e4 00000000 		.4byte	.LVL202
 6594 02e8 6C000000 		.4byte	.LVL205
 6595 02ec 0100     		.2byte	0x1
 6596 02ee 51       		.byte	0x51
 6597 02ef 6C000000 		.4byte	.LVL205
 6598 02f3 1C050000 		.4byte	.LFE70
 6599 02f7 0400     		.2byte	0x4
 6600 02f9 F3       		.byte	0xf3
 6601 02fa 01       		.uleb128 0x1
 6602 02fb 51       		.byte	0x51
 6603 02fc 9F       		.byte	0x9f
 6604 02fd 00000000 		.4byte	0
 6605 0301 00000000 		.4byte	0
 6606              	.LLST20:
 6607 0305 00000000 		.4byte	.LVL202
 6608 0309 26000000 		.4byte	.LVL203
 6609 030d 0100     		.2byte	0x1
 6610 030f 52       		.byte	0x52
 6611 0310 26000000 		.4byte	.LVL203
 6612 0314 1C050000 		.4byte	.LFE70
 6613 0318 0400     		.2byte	0x4
 6614 031a F3       		.byte	0xf3
 6615 031b 01       		.uleb128 0x1
 6616 031c 52       		.byte	0x52
 6617 031d 9F       		.byte	0x9f
 6618 031e 00000000 		.4byte	0
 6619 0322 00000000 		.4byte	0
 6620              		.section	.debug_aranges,"",%progbits
 6621 0000 4C000000 		.4byte	0x4c
 6622 0004 0200     		.2byte	0x2
 6623 0006 00000000 		.4byte	.Ldebug_info0
 6624 000a 04       		.byte	0x4
 6625 000b 00       		.byte	0
 6626 000c 0000     		.2byte	0
 6627 000e 0000     		.2byte	0
 6628 0010 00000000 		.4byte	.LFB64
 6629 0014 28000000 		.4byte	.LFE64-.LFB64
 6630 0018 00000000 		.4byte	.LFB65
 6631 001c 14000000 		.4byte	.LFE65-.LFB65
 6632 0020 00000000 		.4byte	.LFB66
 6633 0024 12000000 		.4byte	.LFE66-.LFB66
 6634 0028 00000000 		.4byte	.LFB67
 6635 002c 06000000 		.4byte	.LFE67-.LFB67
 6636 0030 00000000 		.4byte	.LFB68
 6637 0034 38060000 		.4byte	.LFE68-.LFB68
 6638 0038 00000000 		.4byte	.LFB69
 6639 003c 1C040000 		.4byte	.LFE69-.LFB69
 6640 0040 00000000 		.4byte	.LFB70
 6641 0044 1C050000 		.4byte	.LFE70-.LFB70
 6642 0048 00000000 		.4byte	0
 6643 004c 00000000 		.4byte	0
 6644              		.section	.debug_ranges,"",%progbits
 6645              	.Ldebug_ranges0:
ARM GAS  C:\Users\USUARIO\AppData\Local\Temp\ccgyuR3R.s 			page 127


 6646 0000 00000000 		.4byte	.LFB64
 6647 0004 28000000 		.4byte	.LFE64
 6648 0008 00000000 		.4byte	.LFB65
 6649 000c 14000000 		.4byte	.LFE65
 6650 0010 00000000 		.4byte	.LFB66
 6651 0014 12000000 		.4byte	.LFE66
 6652 0018 00000000 		.4byte	.LFB67
 6653 001c 06000000 		.4byte	.LFE67
 6654 0020 00000000 		.4byte	.LFB68
 6655 0024 38060000 		.4byte	.LFE68
 6656 0028 00000000 		.4byte	.LFB69
 6657 002c 1C040000 		.4byte	.LFE69
 6658 0030 00000000 		.4byte	.LFB70
 6659 0034 1C050000 		.4byte	.LFE70
 6660 0038 00000000 		.4byte	0
 6661 003c 00000000 		.4byte	0
 6662              		.section	.debug_line,"",%progbits
 6663              	.Ldebug_line0:
 6664 0000 ED030000 		.section	.debug_str,"MS",%progbits,1
 6664      0200B501 
 6664      00000201 
 6664      FB0E0D00 
 6664      01010101 
 6665              	.LASF47:
 6666 0000 4D756573 		.ascii	"MuestraSegmento\000"
 6666      74726153 
 6666      65676D65 
 6666      6E746F00 
 6667              	.LASF54:
 6668 0010 4D656469 		.ascii	"MediaMovil\000"
 6668      614D6F76 
 6668      696C00
 6669              	.LASF25:
 6670 001b 72696768 		.ascii	"right\000"
 6670      7400
 6671              	.LASF62:
 6672 0021 47616E61 		.ascii	"GananciaIn\000"
 6672      6E636961 
 6672      496E00
 6673              	.LASF1:
 6674 002c 7369676E 		.ascii	"signed char\000"
 6674      65642063 
 6674      68617200 
 6675              	.LASF84:
 6676 0038 45455052 		.ascii	"EEPROM_ReadByte\000"
 6676      4F4D5F52 
 6676      65616442 
 6676      79746500 
 6677              	.LASF3:
 6678 0048 73686F72 		.ascii	"short int\000"
 6678      7420696E 
 6678      7400
 6679              	.LASF21:
 6680 0052 73697A65 		.ascii	"sizetype\000"
 6680      74797065 
 6680      00
 6681              	.LASF28:
ARM GAS  C:\Users\USUARIO\AppData\Local\Temp\ccgyuR3R.s 			page 128


 6682 005b 696E7474 		.ascii	"inttofloat\000"
 6682      6F666C6F 
 6682      617400
 6683              	.LASF64:
 6684 0066 4F706369 		.ascii	"Opcion\000"
 6684      6F6E00
 6685              	.LASF59:
 6686 006d 466C616E 		.ascii	"Flanco1\000"
 6686      636F3100 
 6687              	.LASF60:
 6688 0075 466C616E 		.ascii	"Flanco2\000"
 6688      636F3200 
 6689              	.LASF20:
 6690 007d 6C6F6E67 		.ascii	"long double\000"
 6690      20646F75 
 6690      626C6500 
 6691              	.LASF38:
 6692 0089 50696465 		.ascii	"PidePassword\000"
 6692      50617373 
 6692      776F7264 
 6692      00
 6693              	.LASF80:
 6694 0096 54656D70 		.ascii	"Tempocp\000"
 6694      6F637000 
 6695              	.LASF81:
 6696 009e 4D656E75 		.ascii	"Menus\000"
 6696      7300
 6697              	.LASF40:
 6698 00a4 4D656E75 		.ascii	"MenuActual\000"
 6698      41637475 
 6698      616C00
 6699              	.LASF95:
 6700 00af 676C6364 		.ascii	"glcd_text57\000"
 6700      5F746578 
 6700      74353700 
 6701              	.LASF15:
 6702 00bb 75696E74 		.ascii	"uint16\000"
 6702      313600
 6703              	.LASF79:
 6704 00c2 625F6465 		.ascii	"b_dec\000"
 6704      6300
 6705              	.LASF12:
 6706 00c8 75696E74 		.ascii	"uint8_t\000"
 6706      385F7400 
 6707              	.LASF17:
 6708 00d0 696E7431 		.ascii	"int16\000"
 6708      3600
 6709              	.LASF14:
 6710 00d6 75696E74 		.ascii	"uint8\000"
 6710      3800
 6711              	.LASF49:
 6712 00dc 50726F67 		.ascii	"Prog\000"
 6712      00
 6713              	.LASF23:
 6714 00e1 4C657472 		.ascii	"Letra\000"
 6714      6100
 6715              	.LASF39:
ARM GAS  C:\Users\USUARIO\AppData\Local\Temp\ccgyuR3R.s 			page 129


 6716 00e7 4D656E75 		.ascii	"MenuAnt\000"
 6716      416E7400 
 6717              	.LASF0:
 6718 00ef 666C6F61 		.ascii	"float\000"
 6718      7400
 6719              	.LASF18:
 6720 00f5 646F7562 		.ascii	"double\000"
 6720      6C6500
 6721              	.LASF37:
 6722 00fc 74656D70 		.ascii	"temp\000"
 6722      00
 6723              	.LASF9:
 6724 0101 6C6F6E67 		.ascii	"long long int\000"
 6724      206C6F6E 
 6724      6720696E 
 6724      7400
 6725              	.LASF16:
 6726 010f 696E7438 		.ascii	"int8\000"
 6726      00
 6727              	.LASF72:
 6728 0114 666C6167 		.ascii	"flagdn\000"
 6728      646E00
 6729              	.LASF90:
 6730 011b 52494748 		.ascii	"RIGHT_Read\000"
 6730      545F5265 
 6730      616400
 6731              	.LASF7:
 6732 0126 6C6F6E67 		.ascii	"long int\000"
 6732      20696E74 
 6732      00
 6733              	.LASF35:
 6734 012f 6E69626C 		.ascii	"nibleh\000"
 6734      656800
 6735              	.LASF52:
 6736 0136 44657269 		.ascii	"Derivativo\000"
 6736      76617469 
 6736      766F00
 6737              	.LASF53:
 6738 0141 496E7465 		.ascii	"Integral\000"
 6738      6772616C 
 6738      00
 6739              	.LASF13:
 6740 014a 696E7433 		.ascii	"int32_t\000"
 6740      325F7400 
 6741              	.LASF82:
 6742 0152 64697370 		.ascii	"displayData\000"
 6742      6C617944 
 6742      61746100 
 6743              	.LASF67:
 6744 015e 7469656D 		.ascii	"tiempoup\000"
 6744      706F7570 
 6744      00
 6745              	.LASF57:
 6746 0167 416A7573 		.ascii	"Ajusten\000"
 6746      74656E00 
 6747              	.LASF56:
 6748 016f 416A7573 		.ascii	"Ajuste\000"
ARM GAS  C:\Users\USUARIO\AppData\Local\Temp\ccgyuR3R.s 			page 130


 6748      746500
 6749              	.LASF93:
 6750 0176 676C6364 		.ascii	"glcd_update\000"
 6750      5F757064 
 6750      61746500 
 6751              	.LASF26:
 6752 0182 656E7465 		.ascii	"entero\000"
 6752      726F00
 6753              	.LASF51:
 6754 0189 436F6E74 		.ascii	"Contrasena\000"
 6754      72617365 
 6754      6E6100
 6755              	.LASF55:
 6756 0194 54636963 		.ascii	"Tciclo\000"
 6756      6C6F00
 6757              	.LASF2:
 6758 019b 756E7369 		.ascii	"unsigned char\000"
 6758      676E6564 
 6758      20636861 
 6758      7200
 6759              	.LASF76:
 6760 01a9 4D696E75 		.ascii	"Minutos1\000"
 6760      746F7331 
 6760      00
 6761              	.LASF58:
 6762 01b2 466C616E 		.ascii	"Flanco\000"
 6762      636F00
 6763              	.LASF70:
 6764 01b9 416C5465 		.ascii	"AlTem\000"
 6764      6D00
 6765              	.LASF74:
 6766 01bf 54656D70 		.ascii	"Temperatura1\000"
 6766      65726174 
 6766      75726131 
 6766      00
 6767              	.LASF94:
 6768 01cc 676C6364 		.ascii	"glcd_rect\000"
 6768      5F726563 
 6768      7400
 6769              	.LASF66:
 6770 01d6 756E6964 		.ascii	"unidad\000"
 6770      616400
 6771              	.LASF10:
 6772 01dd 6C6F6E67 		.ascii	"long long unsigned int\000"
 6772      206C6F6E 
 6772      6720756E 
 6772      7369676E 
 6772      65642069 
 6773              	.LASF34:
 6774 01f4 636F6E76 		.ascii	"convert16\000"
 6774      65727431 
 6774      3600
 6775              	.LASF41:
 6776 01fe 4D656E75 		.ascii	"MenuPost\000"
 6776      506F7374 
 6776      00
 6777              	.LASF99:
ARM GAS  C:\Users\USUARIO\AppData\Local\Temp\ccgyuR3R.s 			page 131


 6778 0207 42555A5A 		.ascii	"BUZZER_Write\000"
 6778      45525F57 
 6778      72697465 
 6778      00
 6779              	.LASF11:
 6780 0214 756E7369 		.ascii	"unsigned int\000"
 6780      676E6564 
 6780      20696E74 
 6780      00
 6781              	.LASF89:
 6782 0221 444F574E 		.ascii	"DOWN_Read\000"
 6782      5F526561 
 6782      6400
 6783              	.LASF77:
 6784 022b 6D5F696E 		.ascii	"m_int\000"
 6784      7400
 6785              	.LASF98:
 6786 0231 64697370 		.ascii	"displayTemps\000"
 6786      6C617954 
 6786      656D7073 
 6786      00
 6787              	.LASF8:
 6788 023e 6C6F6E67 		.ascii	"long unsigned int\000"
 6788      20756E73 
 6788      69676E65 
 6788      6420696E 
 6788      7400
 6789              	.LASF24:
 6790 0250 6C656674 		.ascii	"left\000"
 6790      00
 6791              	.LASF61:
 6792 0255 47616E61 		.ascii	"Ganancia\000"
 6792      6E636961 
 6792      00
 6793              	.LASF4:
 6794 025e 73686F72 		.ascii	"short unsigned int\000"
 6794      7420756E 
 6794      7369676E 
 6794      65642069 
 6794      6E7400
 6795              	.LASF68:
 6796 0271 7469656D 		.ascii	"tiempodn\000"
 6796      706F646E 
 6796      00
 6797              	.LASF19:
 6798 027a 63686172 		.ascii	"char\000"
 6798      00
 6799              	.LASF42:
 6800 027f 636C6176 		.ascii	"clave0\000"
 6800      653000
 6801              	.LASF43:
 6802 0286 636C6176 		.ascii	"clave1\000"
 6802      653100
 6803              	.LASF44:
 6804 028d 636C6176 		.ascii	"clave2\000"
 6804      653200
 6805              	.LASF45:
ARM GAS  C:\Users\USUARIO\AppData\Local\Temp\ccgyuR3R.s 			page 132


 6806 0294 636C6176 		.ascii	"clave3\000"
 6806      653300
 6807              	.LASF78:
 6808 029b 6D5F6465 		.ascii	"m_dec\000"
 6808      6300
 6809              	.LASF101:
 6810 02a1 46756E63 		.ascii	"Funciones.c\000"
 6810      696F6E65 
 6810      732E6300 
 6811              	.LASF36:
 6812 02ad 6E69626C 		.ascii	"niblel\000"
 6812      656C00
 6813              	.LASF86:
 6814 02b4 64697370 		.ascii	"displayContrasena\000"
 6814      6C617943 
 6814      6F6E7472 
 6814      6173656E 
 6814      6100
 6815              	.LASF29:
 6816 02c6 64617461 		.ascii	"data\000"
 6816      00
 6817              	.LASF30:
 6818 02cb 64656369 		.ascii	"decimal\000"
 6818      6D616C00 
 6819              	.LASF87:
 6820 02d3 64697370 		.ascii	"displayMenu\000"
 6820      6C61794D 
 6820      656E7500 
 6821              	.LASF88:
 6822 02df 55505F52 		.ascii	"UP_Read\000"
 6822      65616400 
 6823              	.LASF33:
 6824 02e7 6461746F 		.ascii	"dato\000"
 6824      00
 6825              	.LASF63:
 6826 02ec 4D656E75 		.ascii	"Menu\000"
 6826      00
 6827              	.LASF65:
 6828 02f1 50617373 		.ascii	"Password\000"
 6828      776F7264 
 6828      00
 6829              	.LASF48:
 6830 02fa 4F706369 		.ascii	"Opcio\000"
 6830      6F00
 6831              	.LASF96:
 6832 0300 64697370 		.ascii	"displayTiempo\000"
 6832      6C617954 
 6832      69656D70 
 6832      6F00
 6833              	.LASF27:
 6834 030e 65787472 		.ascii	"extraeDecimal\000"
 6834      61654465 
 6834      63696D61 
 6834      6C00
 6835              	.LASF6:
 6836 031c 5F5F696E 		.ascii	"__int32_t\000"
 6836      7433325F 
ARM GAS  C:\Users\USUARIO\AppData\Local\Temp\ccgyuR3R.s 			page 133


 6836      7400
 6837              	.LASF92:
 6838 0326 676C6364 		.ascii	"glcd_fillScreen\000"
 6838      5F66696C 
 6838      6C536372 
 6838      65656E00 
 6839              	.LASF97:
 6840 0336 64697370 		.ascii	"displayTemperatura\000"
 6840      6C617954 
 6840      656D7065 
 6840      72617475 
 6840      726100
 6841              	.LASF69:
 6842 0349 436F6566 		.ascii	"Coeficiente\000"
 6842      69636965 
 6842      6E746500 
 6843              	.LASF31:
 6844 0355 636F6E76 		.ascii	"convert8\000"
 6844      65727438 
 6844      00
 6845              	.LASF91:
 6846 035e 4C454654 		.ascii	"LEFT_Read\000"
 6846      5F526561 
 6846      6400
 6847              	.LASF46:
 6848 0368 6C656545 		.ascii	"leeEEPROM\000"
 6848      4550524F 
 6848      4D00
 6849              	.LASF32:
 6850 0372 6E69626C 		.ascii	"nible\000"
 6850      6500
 6851              	.LASF71:
 6852 0378 666C6167 		.ascii	"flagup\000"
 6852      757000
 6853              	.LASF50:
 6854 037f 49544D5F 		.ascii	"ITM_RxBuffer\000"
 6854      52784275 
 6854      66666572 
 6854      00
 6855              	.LASF100:
 6856 038c 474E5520 		.ascii	"GNU C11 5.4.1 20160609 (release) [ARM/embedded-5-br"
 6856      43313120 
 6856      352E342E 
 6856      31203230 
 6856      31363036 
 6857 03bf 616E6368 		.ascii	"anch revision 237715] -mcpu=cortex-m3 -mthumb -g -O"
 6857      20726576 
 6857      6973696F 
 6857      6E203233 
 6857      37373135 
 6858 03f2 67202D66 		.ascii	"g -ffunction-sections -ffat-lto-objects\000"
 6858      66756E63 
 6858      74696F6E 
 6858      2D736563 
 6858      74696F6E 
 6859              	.LASF83:
 6860 041a 43794465 		.ascii	"CyDelay\000"
ARM GAS  C:\Users\USUARIO\AppData\Local\Temp\ccgyuR3R.s 			page 134


 6860      6C617900 
 6861              	.LASF73:
 6862 0422 70656E4D 		.ascii	"penMufla\000"
 6862      75666C61 
 6862      00
 6863              	.LASF75:
 6864 042b 486F7261 		.ascii	"Horas1\000"
 6864      733100
 6865              	.LASF85:
 6866 0432 45455052 		.ascii	"EEPROM_WriteByte\000"
 6866      4F4D5F57 
 6866      72697465 
 6866      42797465 
 6866      00
 6867              	.LASF5:
 6868 0443 5F5F7569 		.ascii	"__uint8_t\000"
 6868      6E74385F 
 6868      7400
 6869              	.LASF22:
 6870 044d 4D454E55 		.ascii	"MENUU\000"
 6870      5500
 6871              	.LASF102:
 6872 0453 443A5C4C 		.ascii	"D:\\Laboratorio\\Mufla\\2020\\Mufla 9L Psoc Artilab"
 6872      61626F72 
 6872      61746F72 
 6872      696F5C4D 
 6872      75666C61 
 6873 0482 20233030 		.ascii	" #004588456 OP2020376\\Firmware Psoc\\LCD2\\MuflaGL"
 6873      34353838 
 6873      34353620 
 6873      4F503230 
 6873      32303337 
 6874 04b2 43442E63 		.ascii	"CD.cydsn\000"
 6874      7964736E 
 6874      00
 6875              		.ident	"GCC: (GNU Tools for ARM Embedded Processors) 5.4.1 20160609 (release) [ARM/embedded-5-bran
