ARM GAS  C:\Users\USUARIO\AppData\Local\Temp\ccgyuR3R.s 			page 1


   1              		.syntax unified
   2              		.cpu cortex-m3
   3              		.fpu softvfp
   4              		.eabi_attribute 20, 1
   5              		.eabi_attribute 21, 1
   6              		.eabi_attribute 23, 3
   7              		.eabi_attribute 24, 1
   8              		.eabi_attribute 25, 1
   9              		.eabi_attribute 26, 1
  10              		.eabi_attribute 30, 1
  11              		.eabi_attribute 34, 1
  12              		.eabi_attribute 18, 4
  13              		.thumb
  14              		.syntax unified
  15              		.file	"Funciones.c"
  16              		.text
  17              	.Ltext0:
  18              		.cfi_sections	.debug_frame
  19              		.global	__aeabi_f2uiz
  20              		.global	__aeabi_ui2f
  21              		.global	__aeabi_fsub
  22              		.global	__aeabi_fmul
  23              		.section	.text.extraeDecimal,"ax",%progbits
  24              		.align	2
  25              		.global	extraeDecimal
  26              		.thumb
  27              		.thumb_func
  28              		.type	extraeDecimal, %function
  29              	extraeDecimal:
  30              	.LFB64:
  31              		.file 1 "Funciones.c"
   1:Funciones.c   **** /* ========================================
   2:Funciones.c   ****  *
   3:Funciones.c   ****  * Copyright YOUR COMPANY, THE YEAR
   4:Funciones.c   ****  * All Rights Reserved
   5:Funciones.c   ****  * UNPUBLISHED, LICENSED SOFTWARE.
   6:Funciones.c   ****  *
   7:Funciones.c   ****  * CONFIDENTIAL AND PROPRIETARY INFORMATION
   8:Funciones.c   ****  * WHICH IS THE PROPERTY OF your company.
   9:Funciones.c   ****  *
  10:Funciones.c   ****  * ========================================
  11:Funciones.c   **** */
  12:Funciones.c   **** 
  13:Funciones.c   **** #include <Funciones.h>
  14:Funciones.c   **** #include <ks0108.h>
  15:Funciones.c   **** #include <main.h>
  16:Funciones.c   **** 
  17:Funciones.c   **** 
  18:Funciones.c   **** uint8 extraeDecimal(float data){
  32              		.loc 1 18 0
  33              		.cfi_startproc
  34              		@ args = 0, pretend = 0, frame = 0
  35              		@ frame_needed = 0, uses_anonymous_args = 0
  36              	.LVL0:
  37 0000 10B5     		push	{r4, lr}
  38              		.cfi_def_cfa_offset 8
  39              		.cfi_offset 4, -8
ARM GAS  C:\Users\USUARIO\AppData\Local\Temp\ccgyuR3R.s 			page 2


  40              		.cfi_offset 14, -4
  41 0002 0446     		mov	r4, r0
  42              	.LVL1:
  19:Funciones.c   ****    float entero=0;
  20:Funciones.c   ****    float tmp=0.0;
  21:Funciones.c   ****    
  22:Funciones.c   ****    entero=(uint8)data;
  43              		.loc 1 22 0
  44 0004 FFF7FEFF 		bl	__aeabi_f2uiz
  45              	.LVL2:
  46 0008 C0B2     		uxtb	r0, r0
  47 000a FFF7FEFF 		bl	__aeabi_ui2f
  48              	.LVL3:
  23:Funciones.c   ****    tmp=(data-entero)*100;
  49              		.loc 1 23 0
  50 000e 0146     		mov	r1, r0
  51 0010 2046     		mov	r0, r4
  52              	.LVL4:
  53 0012 FFF7FEFF 		bl	__aeabi_fsub
  54              	.LVL5:
  55 0016 0349     		ldr	r1, .L3
  56 0018 FFF7FEFF 		bl	__aeabi_fmul
  57              	.LVL6:
  24:Funciones.c   ****    return (uint8)tmp;
  58              		.loc 1 24 0
  59 001c FFF7FEFF 		bl	__aeabi_f2uiz
  60              	.LVL7:
  25:Funciones.c   **** }
  61              		.loc 1 25 0
  62 0020 C0B2     		uxtb	r0, r0
  63 0022 10BD     		pop	{r4, pc}
  64              	.LVL8:
  65              	.L4:
  66              		.align	2
  67              	.L3:
  68 0024 0000C842 		.word	1120403456
  69              		.cfi_endproc
  70              	.LFE64:
  71              		.size	extraeDecimal, .-extraeDecimal
  72              		.global	__aeabi_fdiv
  73              		.section	.text.inttofloat,"ax",%progbits
  74              		.align	2
  75              		.global	inttofloat
  76              		.thumb
  77              		.thumb_func
  78              		.type	inttofloat, %function
  79              	inttofloat:
  80              	.LFB65:
  26:Funciones.c   **** 
  27:Funciones.c   **** float inttofloat(uint8 decimal){
  81              		.loc 1 27 0
  82              		.cfi_startproc
  83              		@ args = 0, pretend = 0, frame = 0
  84              		@ frame_needed = 0, uses_anonymous_args = 0
  85              	.LVL9:
  86 0000 08B5     		push	{r3, lr}
  87              		.cfi_def_cfa_offset 8
ARM GAS  C:\Users\USUARIO\AppData\Local\Temp\ccgyuR3R.s 			page 3


  88              		.cfi_offset 3, -8
  89              		.cfi_offset 14, -4
  28:Funciones.c   ****    float tmp;
  29:Funciones.c   ****    tmp=decimal;
  90              		.loc 1 29 0
  91 0002 FFF7FEFF 		bl	__aeabi_ui2f
  92              	.LVL10:
  30:Funciones.c   ****    return tmp/10;
  93              		.loc 1 30 0
  94 0006 0249     		ldr	r1, .L7
  95 0008 FFF7FEFF 		bl	__aeabi_fdiv
  96              	.LVL11:
  31:Funciones.c   **** }
  97              		.loc 1 31 0
  98 000c 08BD     		pop	{r3, pc}
  99              	.L8:
 100 000e 00BF     		.align	2
 101              	.L7:
 102 0010 00002041 		.word	1092616192
 103              		.cfi_endproc
 104              	.LFE65:
 105              		.size	inttofloat, .-inttofloat
 106              		.section	.text.convert8,"ax",%progbits
 107              		.align	2
 108              		.global	convert8
 109              		.thumb
 110              		.thumb_func
 111              		.type	convert8, %function
 112              	convert8:
 113              	.LFB66:
  32:Funciones.c   **** 
  33:Funciones.c   **** uint8 convert8(uint16 data,uint8 nible){
 114              		.loc 1 33 0
 115              		.cfi_startproc
 116              		@ args = 0, pretend = 0, frame = 0
 117              		@ frame_needed = 0, uses_anonymous_args = 0
 118              		@ link register save eliminated.
 119              	.LVL12:
  34:Funciones.c   ****     uint8 dato=0;
  35:Funciones.c   ****     if(nible==0){
 120              		.loc 1 35 0
 121 0000 09B9     		cbnz	r1, .L10
  36:Funciones.c   ****         dato=(uint8)data;   
 122              		.loc 1 36 0
 123 0002 C0B2     		uxtb	r0, r0
 124              	.LVL13:
 125 0004 7047     		bx	lr
 126              	.LVL14:
 127              	.L10:
  37:Funciones.c   ****     }else if(nible==1){
 128              		.loc 1 37 0
 129 0006 0129     		cmp	r1, #1
 130 0008 01D1     		bne	.L12
  38:Funciones.c   ****         dato=data>>8;
 131              		.loc 1 38 0
 132 000a 000A     		lsrs	r0, r0, #8
 133              	.LVL15:
ARM GAS  C:\Users\USUARIO\AppData\Local\Temp\ccgyuR3R.s 			page 4


 134 000c 7047     		bx	lr
 135              	.LVL16:
 136              	.L12:
  34:Funciones.c   ****     if(nible==0){
 137              		.loc 1 34 0
 138 000e 0020     		movs	r0, #0
 139              	.LVL17:
  39:Funciones.c   ****     }
  40:Funciones.c   ****     return dato;
  41:Funciones.c   **** }
 140              		.loc 1 41 0
 141 0010 7047     		bx	lr
 142              		.cfi_endproc
 143              	.LFE66:
 144              		.size	convert8, .-convert8
 145 0012 00BF     		.section	.text.convert16,"ax",%progbits
 146              		.align	2
 147              		.global	convert16
 148              		.thumb
 149              		.thumb_func
 150              		.type	convert16, %function
 151              	convert16:
 152              	.LFB67:
  42:Funciones.c   **** 
  43:Funciones.c   **** uint16 convert16(uint8 nibleh,uint8 niblel){
 153              		.loc 1 43 0
 154              		.cfi_startproc
 155              		@ args = 0, pretend = 0, frame = 0
 156              		@ frame_needed = 0, uses_anonymous_args = 0
 157              		@ link register save eliminated.
 158              	.LVL18:
  44:Funciones.c   ****     uint16 temp,var;
  45:Funciones.c   ****     temp=(uint16)nibleh;
  46:Funciones.c   ****     var=temp<<8 | (uint16)niblel;
  47:Funciones.c   ****     return var;
  48:Funciones.c   **** }
 159              		.loc 1 48 0
 160 0000 41EA0020 		orr	r0, r1, r0, lsl #8
 161              	.LVL19:
 162 0004 7047     		bx	lr
 163              		.cfi_endproc
 164              	.LFE67:
 165              		.size	convert16, .-convert16
 166              		.global	__aeabi_fcmpgt
 167              		.global	__aeabi_fcmpeq
 168              		.global	__aeabi_fcmplt
 169              		.global	__aeabi_i2f
 170              		.global	__aeabi_fadd
 171              		.global	__aeabi_f2d
 172              		.global	__aeabi_dcmplt
 173 0006 00BF     		.section	.text.leeEEPROM,"ax",%progbits
 174              		.align	2
 175              		.global	leeEEPROM
 176              		.thumb
 177              		.thumb_func
 178              		.type	leeEEPROM, %function
 179              	leeEEPROM:
ARM GAS  C:\Users\USUARIO\AppData\Local\Temp\ccgyuR3R.s 			page 5


 180              	.LFB68:
  49:Funciones.c   **** 
  50:Funciones.c   **** void leeEEPROM(){ 
 181              		.loc 1 50 0
 182              		.cfi_startproc
 183              		@ args = 0, pretend = 0, frame = 0
 184              		@ frame_needed = 0, uses_anonymous_args = 0
 185 0000 2DE9F047 		push	{r4, r5, r6, r7, r8, r9, r10, lr}
 186              		.cfi_def_cfa_offset 32
 187              		.cfi_offset 4, -32
 188              		.cfi_offset 5, -28
 189              		.cfi_offset 6, -24
 190              		.cfi_offset 7, -20
 191              		.cfi_offset 8, -16
 192              		.cfi_offset 9, -12
 193              		.cfi_offset 10, -8
 194              		.cfi_offset 14, -4
 195              	.LVL20:
  51:Funciones.c   ****     uint8 j;
  52:Funciones.c   ****    for(j=1;j<6;j++){
 196              		.loc 1 52 0
 197 0004 4FF00108 		mov	r8, #1
 198 0008 96E0     		b	.L15
 199              	.LVL21:
 200              	.L21:
  53:Funciones.c   ****       for(i=0;i<Pasos;i++){
 201              		.loc 1 53 0
 202 000a 0022     		movs	r2, #0
 203 000c 014B     		ldr	r3, .L50
 204 000e 1A70     		strb	r2, [r3]
 205 0010 89E0     		b	.L16
 206              	.L51:
 207 0012 00BF     		.align	2
 208              	.L50:
 209 0014 00000000 		.word	i
 210              	.L20:
  54:Funciones.c   ****          CyDelay(10); 
 211              		.loc 1 54 0
 212 0018 0A20     		movs	r0, #10
 213 001a FFF7FEFF 		bl	CyDelay
 214              	.LVL22:
  55:Funciones.c   ****          Temperatura1[i+((j-1)*Pasos)]=convert16(EEPROM_ReadByte((i*2)+1+((j-1)*(Pasos*4))),EEPROM_
 215              		.loc 1 55 0
 216 001e C94F     		ldr	r7, .L52
 217 0020 3878     		ldrb	r0, [r7]	@ zero_extendqisi2
 218 0022 08F1FF35 		add	r5, r8, #-1
 219 0026 2C01     		lsls	r4, r5, #4
 220 0028 00EB0409 		add	r9, r0, r4
 221 002c 6E01     		lsls	r6, r5, #5
 222 002e B6B2     		uxth	r6, r6
 223 0030 3044     		add	r0, r0, r6
 224 0032 4000     		lsls	r0, r0, #1
 225 0034 0130     		adds	r0, r0, #1
 226 0036 80B2     		uxth	r0, r0
 227 0038 FFF7FEFF 		bl	EEPROM_ReadByte
 228              	.LVL23:
 229 003c 8246     		mov	r10, r0
ARM GAS  C:\Users\USUARIO\AppData\Local\Temp\ccgyuR3R.s 			page 6


 230 003e 6D01     		lsls	r5, r5, #5
 231 0040 3878     		ldrb	r0, [r7]	@ zero_extendqisi2
 232 0042 2844     		add	r0, r0, r5
 233 0044 4000     		lsls	r0, r0, #1
 234 0046 80B2     		uxth	r0, r0
 235 0048 FFF7FEFF 		bl	EEPROM_ReadByte
 236              	.LVL24:
 237 004c 0146     		mov	r1, r0
 238 004e 5046     		mov	r0, r10
 239 0050 FFF7FEFF 		bl	convert16
 240              	.LVL25:
 241 0054 BC4B     		ldr	r3, .L52+4
 242 0056 23F81900 		strh	r0, [r3, r9, lsl #1]	@ movhi
  56:Funciones.c   ****          if(Temperatura1[i+((j-1)*Pasos)]>1200 || Temperatura1[i+((j-1)*Pasos)]<0){
 243              		.loc 1 56 0
 244 005a 3978     		ldrb	r1, [r7]	@ zero_extendqisi2
 245 005c 0A19     		adds	r2, r1, r4
 246 005e 33F81230 		ldrh	r3, [r3, r2, lsl #1]
 247 0062 B3F5966F 		cmp	r3, #1200
 248 0066 18D9     		bls	.L17
  57:Funciones.c   ****             Temperatura1[i+((j-1)*Pasos)]=0;
 249              		.loc 1 57 0
 250 0068 0027     		movs	r7, #0
 251 006a B74B     		ldr	r3, .L52+4
 252 006c 23F81270 		strh	r7, [r3, r2, lsl #1]	@ movhi
  58:Funciones.c   ****             EEPROM_WriteByte(0,(i*2)+1+((j-1)*(Pasos*4)));
 253              		.loc 1 58 0
 254 0070 3144     		add	r1, r1, r6
 255 0072 4900     		lsls	r1, r1, #1
 256 0074 0131     		adds	r1, r1, #1
 257 0076 89B2     		uxth	r1, r1
 258 0078 3846     		mov	r0, r7
 259 007a FFF7FEFF 		bl	EEPROM_WriteByte
 260              	.LVL26:
  59:Funciones.c   ****             CyDelay(20);
 261              		.loc 1 59 0
 262 007e 1420     		movs	r0, #20
 263 0080 FFF7FEFF 		bl	CyDelay
 264              	.LVL27:
  60:Funciones.c   ****             EEPROM_WriteByte(0,(i*2)+((j-1)*(Pasos*4)));
 265              		.loc 1 60 0
 266 0084 AF4B     		ldr	r3, .L52
 267 0086 1978     		ldrb	r1, [r3]	@ zero_extendqisi2
 268 0088 2944     		add	r1, r1, r5
 269 008a 4900     		lsls	r1, r1, #1
 270 008c 89B2     		uxth	r1, r1
 271 008e 3846     		mov	r0, r7
 272 0090 FFF7FEFF 		bl	EEPROM_WriteByte
 273              	.LVL28:
  61:Funciones.c   ****             CyDelay(20);
 274              		.loc 1 61 0
 275 0094 1420     		movs	r0, #20
 276 0096 FFF7FEFF 		bl	CyDelay
 277              	.LVL29:
 278              	.L17:
  62:Funciones.c   ****          }
  63:Funciones.c   ****          CyDelay(10);
ARM GAS  C:\Users\USUARIO\AppData\Local\Temp\ccgyuR3R.s 			page 7


 279              		.loc 1 63 0
 280 009a 0A20     		movs	r0, #10
 281 009c FFF7FEFF 		bl	CyDelay
 282              	.LVL30:
  64:Funciones.c   ****          Horas1[i+((j-1)*Pasos)]=EEPROM_ReadByte(i+(((Pasos*4)*j)-(Pasos*2)));     
 283              		.loc 1 64 0
 284 00a0 A84E     		ldr	r6, .L52
 285 00a2 3078     		ldrb	r0, [r6]	@ zero_extendqisi2
 286 00a4 0719     		adds	r7, r0, r4
 287 00a6 4FEA8815 		lsl	r5, r8, #6
 288 00aa 2844     		add	r0, r0, r5
 289 00ac 2038     		subs	r0, r0, #32
 290 00ae 80B2     		uxth	r0, r0
 291 00b0 FFF7FEFF 		bl	EEPROM_ReadByte
 292              	.LVL31:
 293 00b4 A54B     		ldr	r3, .L52+8
 294 00b6 23F81700 		strh	r0, [r3, r7, lsl #1]	@ movhi
  65:Funciones.c   ****          if(Horas1[i+((j-1)*Pasos)]>99){
 295              		.loc 1 65 0
 296 00ba 3178     		ldrb	r1, [r6]	@ zero_extendqisi2
 297 00bc 0A19     		adds	r2, r1, r4
 298 00be 33F91230 		ldrsh	r3, [r3, r2, lsl #1]
 299 00c2 632B     		cmp	r3, #99
 300 00c4 0BDD     		ble	.L18
  66:Funciones.c   ****             Horas1[i+((j-1)*Pasos)]=0;
 301              		.loc 1 66 0
 302 00c6 0020     		movs	r0, #0
 303 00c8 A04B     		ldr	r3, .L52+8
 304 00ca 23F81200 		strh	r0, [r3, r2, lsl #1]	@ movhi
  67:Funciones.c   ****             EEPROM_WriteByte(0,i+(((Pasos*4)*j)-(Pasos*2)));
 305              		.loc 1 67 0
 306 00ce 2944     		add	r1, r1, r5
 307 00d0 2039     		subs	r1, r1, #32
 308 00d2 89B2     		uxth	r1, r1
 309 00d4 FFF7FEFF 		bl	EEPROM_WriteByte
 310              	.LVL32:
  68:Funciones.c   ****             CyDelay(20);
 311              		.loc 1 68 0
 312 00d8 1420     		movs	r0, #20
 313 00da FFF7FEFF 		bl	CyDelay
 314              	.LVL33:
 315              	.L18:
  69:Funciones.c   ****          }
  70:Funciones.c   ****          CyDelay(10);    
 316              		.loc 1 70 0
 317 00de 0A20     		movs	r0, #10
 318 00e0 FFF7FEFF 		bl	CyDelay
 319              	.LVL34:
  71:Funciones.c   ****          Minutos1[i+((j-1)*Pasos)]=EEPROM_ReadByte(i+(((Pasos*4)*j)-Pasos));
 320              		.loc 1 71 0
 321 00e4 974E     		ldr	r6, .L52
 322 00e6 3078     		ldrb	r0, [r6]	@ zero_extendqisi2
 323 00e8 0719     		adds	r7, r0, r4
 324 00ea 2844     		add	r0, r0, r5
 325 00ec 1038     		subs	r0, r0, #16
 326 00ee 80B2     		uxth	r0, r0
 327 00f0 FFF7FEFF 		bl	EEPROM_ReadByte
ARM GAS  C:\Users\USUARIO\AppData\Local\Temp\ccgyuR3R.s 			page 8


 328              	.LVL35:
 329 00f4 964B     		ldr	r3, .L52+12
 330 00f6 23F81700 		strh	r0, [r3, r7, lsl #1]	@ movhi
  72:Funciones.c   ****          if(Minutos1[i+((j-1)*Pasos)]>59){
 331              		.loc 1 72 0
 332 00fa 3178     		ldrb	r1, [r6]	@ zero_extendqisi2
 333 00fc 0C44     		add	r4, r4, r1
 334 00fe 33F91430 		ldrsh	r3, [r3, r4, lsl #1]
 335 0102 3B2B     		cmp	r3, #59
 336 0104 0BDD     		ble	.L19
  73:Funciones.c   ****             Minutos1[i+((j-1)*Pasos)]=0;
 337              		.loc 1 73 0
 338 0106 0020     		movs	r0, #0
 339 0108 914B     		ldr	r3, .L52+12
 340 010a 23F81400 		strh	r0, [r3, r4, lsl #1]	@ movhi
  74:Funciones.c   ****             EEPROM_WriteByte(0,i+(((Pasos*4)*j)-Pasos));
 341              		.loc 1 74 0
 342 010e 2944     		add	r1, r1, r5
 343 0110 1039     		subs	r1, r1, #16
 344 0112 89B2     		uxth	r1, r1
 345 0114 FFF7FEFF 		bl	EEPROM_WriteByte
 346              	.LVL36:
  75:Funciones.c   ****             CyDelay(20);
 347              		.loc 1 75 0
 348 0118 1420     		movs	r0, #20
 349 011a FFF7FEFF 		bl	CyDelay
 350              	.LVL37:
 351              	.L19:
  53:Funciones.c   ****          CyDelay(10); 
 352              		.loc 1 53 0 discriminator 2
 353 011e 894A     		ldr	r2, .L52
 354 0120 1378     		ldrb	r3, [r2]	@ zero_extendqisi2
 355 0122 0133     		adds	r3, r3, #1
 356 0124 1370     		strb	r3, [r2]
 357              	.L16:
  53:Funciones.c   ****          CyDelay(10); 
 358              		.loc 1 53 0 is_stmt 0 discriminator 1
 359 0126 874B     		ldr	r3, .L52
 360 0128 1B78     		ldrb	r3, [r3]	@ zero_extendqisi2
 361 012a 0F2B     		cmp	r3, #15
 362 012c 7FF674AF 		bls	.L20
  52:Funciones.c   ****       for(i=0;i<Pasos;i++){
 363              		.loc 1 52 0 is_stmt 1 discriminator 2
 364 0130 08F10108 		add	r8, r8, #1
 365              	.LVL38:
 366 0134 5FFA88F8 		uxtb	r8, r8
 367              	.LVL39:
 368              	.L15:
  52:Funciones.c   ****       for(i=0;i<Pasos;i++){
 369              		.loc 1 52 0 is_stmt 0 discriminator 1
 370 0138 B8F1050F 		cmp	r8, #5
 371 013c 7FF665AF 		bls	.L21
  76:Funciones.c   ****          }
  77:Funciones.c   ****       }
  78:Funciones.c   ****    }
  79:Funciones.c   ****    
  80:Funciones.c   ****    CyDelay(50);   
ARM GAS  C:\Users\USUARIO\AppData\Local\Temp\ccgyuR3R.s 			page 9


 372              		.loc 1 80 0 is_stmt 1
 373 0140 3220     		movs	r0, #50
 374 0142 FFF7FEFF 		bl	CyDelay
 375              	.LVL40:
  81:Funciones.c   ****    Ganancia=EEPROM_ReadByte(450);
 376              		.loc 1 81 0
 377 0146 4FF4E170 		mov	r0, #450
 378 014a FFF7FEFF 		bl	EEPROM_ReadByte
 379              	.LVL41:
 380 014e 814C     		ldr	r4, .L52+16
 381 0150 FFF7FEFF 		bl	__aeabi_ui2f
 382              	.LVL42:
 383 0154 2060     		str	r0, [r4]	@ float
  82:Funciones.c   ****    CyDelay(50);   
 384              		.loc 1 82 0
 385 0156 3220     		movs	r0, #50
 386 0158 FFF7FEFF 		bl	CyDelay
 387              	.LVL43:
  83:Funciones.c   ****    if(Ganancia>40 || Ganancia==0){
 388              		.loc 1 83 0
 389 015c 2468     		ldr	r4, [r4]	@ float
 390 015e 7E49     		ldr	r1, .L52+20
 391 0160 2046     		mov	r0, r4
 392 0162 FFF7FEFF 		bl	__aeabi_fcmpgt
 393              	.LVL44:
 394 0166 20B9     		cbnz	r0, .L22
 395              		.loc 1 83 0 is_stmt 0 discriminator 1
 396 0168 0021     		movs	r1, #0
 397 016a 2046     		mov	r0, r4
 398 016c FFF7FEFF 		bl	__aeabi_fcmpeq
 399              	.LVL45:
 400 0170 50B1     		cbz	r0, .L23
 401              	.L22:
  84:Funciones.c   ****       Ganancia=3;
 402              		.loc 1 84 0 is_stmt 1
 403 0172 7A4A     		ldr	r2, .L52+24
 404 0174 774B     		ldr	r3, .L52+16
 405 0176 1A60     		str	r2, [r3]	@ float
  85:Funciones.c   ****       EEPROM_WriteByte(3,450);
 406              		.loc 1 85 0
 407 0178 4FF4E171 		mov	r1, #450
 408 017c 0320     		movs	r0, #3
 409 017e FFF7FEFF 		bl	EEPROM_WriteByte
 410              	.LVL46:
  86:Funciones.c   ****       CyDelay(20);
 411              		.loc 1 86 0
 412 0182 1420     		movs	r0, #20
 413 0184 FFF7FEFF 		bl	CyDelay
 414              	.LVL47:
 415              	.L23:
  87:Funciones.c   ****    }
  88:Funciones.c   ****    GananciaIn=Ganancia;
 416              		.loc 1 88 0
 417 0188 724B     		ldr	r3, .L52+16
 418 018a 1A68     		ldr	r2, [r3]	@ float
 419 018c 744B     		ldr	r3, .L52+28
 420 018e 1A60     		str	r2, [r3]	@ float
ARM GAS  C:\Users\USUARIO\AppData\Local\Temp\ccgyuR3R.s 			page 10


  89:Funciones.c   ****    Tciclo=EEPROM_ReadByte(451);
 421              		.loc 1 89 0
 422 0190 40F2C310 		movw	r0, #451
 423 0194 FFF7FEFF 		bl	EEPROM_ReadByte
 424              	.LVL48:
 425 0198 724C     		ldr	r4, .L52+32
 426 019a 2070     		strb	r0, [r4]
  90:Funciones.c   ****    CyDelay(50);   
 427              		.loc 1 90 0
 428 019c 3220     		movs	r0, #50
 429 019e FFF7FEFF 		bl	CyDelay
 430              	.LVL49:
  91:Funciones.c   ****    if(Tciclo>20 || Tciclo<5){
 431              		.loc 1 91 0
 432 01a2 2378     		ldrb	r3, [r4]	@ zero_extendqisi2
 433 01a4 053B     		subs	r3, r3, #5
 434 01a6 DBB2     		uxtb	r3, r3
 435 01a8 0F2B     		cmp	r3, #15
 436 01aa 08D9     		bls	.L25
  92:Funciones.c   ****       Tciclo=10;
 437              		.loc 1 92 0
 438 01ac 0A20     		movs	r0, #10
 439 01ae 2070     		strb	r0, [r4]
  93:Funciones.c   ****       EEPROM_WriteByte(10,451);
 440              		.loc 1 93 0
 441 01b0 40F2C311 		movw	r1, #451
 442 01b4 FFF7FEFF 		bl	EEPROM_WriteByte
 443              	.LVL50:
  94:Funciones.c   ****       CyDelay(20);
 444              		.loc 1 94 0
 445 01b8 1420     		movs	r0, #20
 446 01ba FFF7FEFF 		bl	CyDelay
 447              	.LVL51:
 448              	.L25:
  95:Funciones.c   ****    }
  96:Funciones.c   ****    Ajuste=EEPROM_ReadByte(452);
 449              		.loc 1 96 0
 450 01be 4FF4E270 		mov	r0, #452
 451 01c2 FFF7FEFF 		bl	EEPROM_ReadByte
 452              	.LVL52:
 453 01c6 684C     		ldr	r4, .L52+36
 454 01c8 2070     		strb	r0, [r4]
  97:Funciones.c   ****    CyDelay(50);
 455              		.loc 1 97 0
 456 01ca 3220     		movs	r0, #50
 457 01cc FFF7FEFF 		bl	CyDelay
 458              	.LVL53:
  98:Funciones.c   ****    if(Ajuste>30){
 459              		.loc 1 98 0
 460 01d0 2378     		ldrb	r3, [r4]	@ zero_extendqisi2
 461 01d2 1E2B     		cmp	r3, #30
 462 01d4 08D9     		bls	.L26
  99:Funciones.c   ****       Ajuste=0;
 463              		.loc 1 99 0
 464 01d6 0020     		movs	r0, #0
 465 01d8 2070     		strb	r0, [r4]
 100:Funciones.c   ****       EEPROM_WriteByte(0,452);
ARM GAS  C:\Users\USUARIO\AppData\Local\Temp\ccgyuR3R.s 			page 11


 466              		.loc 1 100 0
 467 01da 4FF4E271 		mov	r1, #452
 468 01de FFF7FEFF 		bl	EEPROM_WriteByte
 469              	.LVL54:
 101:Funciones.c   ****       CyDelay(20);
 470              		.loc 1 101 0
 471 01e2 1420     		movs	r0, #20
 472 01e4 FFF7FEFF 		bl	CyDelay
 473              	.LVL55:
 474              	.L26:
 102:Funciones.c   ****    }
 103:Funciones.c   ****    Ajusten=EEPROM_ReadByte(453);
 475              		.loc 1 103 0
 476 01e8 40F2C510 		movw	r0, #453
 477 01ec FFF7FEFF 		bl	EEPROM_ReadByte
 478              	.LVL56:
 479 01f0 5E4C     		ldr	r4, .L52+40
 480 01f2 2070     		strb	r0, [r4]
 104:Funciones.c   ****    CyDelay(50);
 481              		.loc 1 104 0
 482 01f4 3220     		movs	r0, #50
 483 01f6 FFF7FEFF 		bl	CyDelay
 484              	.LVL57:
 105:Funciones.c   ****    if(Ajusten>30){
 485              		.loc 1 105 0
 486 01fa 2378     		ldrb	r3, [r4]	@ zero_extendqisi2
 487 01fc 1E2B     		cmp	r3, #30
 488 01fe 08D9     		bls	.L27
 106:Funciones.c   ****       Ajusten=0;
 489              		.loc 1 106 0
 490 0200 0020     		movs	r0, #0
 491 0202 2070     		strb	r0, [r4]
 107:Funciones.c   ****       EEPROM_WriteByte(0,453);
 492              		.loc 1 107 0
 493 0204 40F2C511 		movw	r1, #453
 494 0208 FFF7FEFF 		bl	EEPROM_WriteByte
 495              	.LVL58:
 108:Funciones.c   ****       CyDelay(20);
 496              		.loc 1 108 0
 497 020c 1420     		movs	r0, #20
 498 020e FFF7FEFF 		bl	CyDelay
 499              	.LVL59:
 500              	.L27:
 109:Funciones.c   ****    }
 110:Funciones.c   ****    MediaMovil=EEPROM_ReadByte(454);
 501              		.loc 1 110 0
 502 0212 4FF4E370 		mov	r0, #454
 503 0216 FFF7FEFF 		bl	EEPROM_ReadByte
 504              	.LVL60:
 505 021a 554C     		ldr	r4, .L52+44
 506 021c 2070     		strb	r0, [r4]
 111:Funciones.c   ****    CyDelay(50);   
 507              		.loc 1 111 0
 508 021e 3220     		movs	r0, #50
 509 0220 FFF7FEFF 		bl	CyDelay
 510              	.LVL61:
 112:Funciones.c   ****    if(MediaMovil>80 || MediaMovil<10){
ARM GAS  C:\Users\USUARIO\AppData\Local\Temp\ccgyuR3R.s 			page 12


 511              		.loc 1 112 0
 512 0224 2378     		ldrb	r3, [r4]	@ zero_extendqisi2
 513 0226 0A3B     		subs	r3, r3, #10
 514 0228 DBB2     		uxtb	r3, r3
 515 022a 462B     		cmp	r3, #70
 516 022c 0AD9     		bls	.L28
 113:Funciones.c   ****       MediaMovil=20;
 517              		.loc 1 113 0
 518 022e 1424     		movs	r4, #20
 519 0230 4F4B     		ldr	r3, .L52+44
 520 0232 1C70     		strb	r4, [r3]
 114:Funciones.c   ****       EEPROM_WriteByte(20,454);
 521              		.loc 1 114 0
 522 0234 4FF4E371 		mov	r1, #454
 523 0238 2046     		mov	r0, r4
 524 023a FFF7FEFF 		bl	EEPROM_WriteByte
 525              	.LVL62:
 115:Funciones.c   ****       CyDelay(20);
 526              		.loc 1 115 0
 527 023e 2046     		mov	r0, r4
 528 0240 FFF7FEFF 		bl	CyDelay
 529              	.LVL63:
 530              	.L28:
 116:Funciones.c   ****    }
 117:Funciones.c   ****    Coeficiente=EEPROM_ReadByte(455);
 531              		.loc 1 117 0
 532 0244 40F2C710 		movw	r0, #455
 533 0248 FFF7FEFF 		bl	EEPROM_ReadByte
 534              	.LVL64:
 535 024c 494B     		ldr	r3, .L52+48
 536 024e 1880     		strh	r0, [r3]	@ movhi
 118:Funciones.c   ****    CyDelay(50);   
 537              		.loc 1 118 0
 538 0250 3220     		movs	r0, #50
 539 0252 FFF7FEFF 		bl	CyDelay
 540              	.LVL65:
 119:Funciones.c   **** 
 120:Funciones.c   ****    penMufla=EEPROM_ReadByte(458);
 541              		.loc 1 120 0
 542 0256 4FF4E570 		mov	r0, #458
 543 025a FFF7FEFF 		bl	EEPROM_ReadByte
 544              	.LVL66:
 545 025e 464C     		ldr	r4, .L52+52
 546 0260 FFF7FEFF 		bl	__aeabi_ui2f
 547              	.LVL67:
 548 0264 2060     		str	r0, [r4]	@ float
 121:Funciones.c   ****    CyDelay(50); 
 549              		.loc 1 121 0
 550 0266 3220     		movs	r0, #50
 551 0268 FFF7FEFF 		bl	CyDelay
 552              	.LVL68:
 122:Funciones.c   ****    if(penMufla>150 || penMufla<10){
 553              		.loc 1 122 0
 554 026c 2468     		ldr	r4, [r4]	@ float
 555 026e 4349     		ldr	r1, .L52+56
 556 0270 2046     		mov	r0, r4
 557 0272 FFF7FEFF 		bl	__aeabi_fcmpgt
ARM GAS  C:\Users\USUARIO\AppData\Local\Temp\ccgyuR3R.s 			page 13


 558              	.LVL69:
 559 0276 20B9     		cbnz	r0, .L29
 560              		.loc 1 122 0 is_stmt 0 discriminator 1
 561 0278 4149     		ldr	r1, .L52+60
 562 027a 2046     		mov	r0, r4
 563 027c FFF7FEFF 		bl	__aeabi_fcmplt
 564              	.LVL70:
 565 0280 50B1     		cbz	r0, .L30
 566              	.L29:
 123:Funciones.c   ****       penMufla=50;
 567              		.loc 1 123 0 is_stmt 1
 568 0282 404A     		ldr	r2, .L52+64
 569 0284 3C4B     		ldr	r3, .L52+52
 570 0286 1A60     		str	r2, [r3]	@ float
 124:Funciones.c   ****       EEPROM_WriteByte(50,458);
 571              		.loc 1 124 0
 572 0288 4FF4E571 		mov	r1, #458
 573 028c 3220     		movs	r0, #50
 574 028e FFF7FEFF 		bl	EEPROM_WriteByte
 575              	.LVL71:
 125:Funciones.c   ****       CyDelay(20);
 576              		.loc 1 125 0
 577 0292 1420     		movs	r0, #20
 578 0294 FFF7FEFF 		bl	CyDelay
 579              	.LVL72:
 580              	.L30:
 126:Funciones.c   ****    }
 127:Funciones.c   ****    
 128:Funciones.c   ****    Password[0]=EEPROM_ReadByte(460);
 581              		.loc 1 128 0
 582 0298 4FF4E670 		mov	r0, #460
 583 029c FFF7FEFF 		bl	EEPROM_ReadByte
 584              	.LVL73:
 585 02a0 394C     		ldr	r4, .L52+68
 586 02a2 2070     		strb	r0, [r4]
 129:Funciones.c   ****    CyDelay(50);   
 587              		.loc 1 129 0
 588 02a4 3220     		movs	r0, #50
 589 02a6 FFF7FEFF 		bl	CyDelay
 590              	.LVL74:
 130:Funciones.c   ****    if(Password[0]>9 || Password[0]<0){
 591              		.loc 1 130 0
 592 02aa 2378     		ldrb	r3, [r4]	@ zero_extendqisi2
 593 02ac 092B     		cmp	r3, #9
 594 02ae 08D9     		bls	.L32
 131:Funciones.c   ****       Password[0]=0;
 595              		.loc 1 131 0
 596 02b0 0020     		movs	r0, #0
 597 02b2 2070     		strb	r0, [r4]
 132:Funciones.c   ****       EEPROM_WriteByte(0,460);
 598              		.loc 1 132 0
 599 02b4 4FF4E671 		mov	r1, #460
 600 02b8 FFF7FEFF 		bl	EEPROM_WriteByte
 601              	.LVL75:
 133:Funciones.c   ****       CyDelay(20);
 602              		.loc 1 133 0
 603 02bc 1420     		movs	r0, #20
ARM GAS  C:\Users\USUARIO\AppData\Local\Temp\ccgyuR3R.s 			page 14


 604 02be FFF7FEFF 		bl	CyDelay
 605              	.LVL76:
 606              	.L32:
 134:Funciones.c   ****    }
 135:Funciones.c   ****    Password[1]=EEPROM_ReadByte(461);
 607              		.loc 1 135 0
 608 02c2 40F2CD10 		movw	r0, #461
 609 02c6 FFF7FEFF 		bl	EEPROM_ReadByte
 610              	.LVL77:
 611 02ca 2F4C     		ldr	r4, .L52+68
 612 02cc 6070     		strb	r0, [r4, #1]
 136:Funciones.c   ****    CyDelay(50);   
 613              		.loc 1 136 0
 614 02ce 3220     		movs	r0, #50
 615 02d0 FFF7FEFF 		bl	CyDelay
 616              	.LVL78:
 137:Funciones.c   ****    if(Password[1]>9 || Password[1]<0){
 617              		.loc 1 137 0
 618 02d4 6378     		ldrb	r3, [r4, #1]	@ zero_extendqisi2
 619 02d6 092B     		cmp	r3, #9
 620 02d8 08D9     		bls	.L33
 138:Funciones.c   ****       Password[1]=0;
 621              		.loc 1 138 0
 622 02da 0020     		movs	r0, #0
 623 02dc 6070     		strb	r0, [r4, #1]
 139:Funciones.c   ****       EEPROM_WriteByte(0,461);
 624              		.loc 1 139 0
 625 02de 40F2CD11 		movw	r1, #461
 626 02e2 FFF7FEFF 		bl	EEPROM_WriteByte
 627              	.LVL79:
 140:Funciones.c   ****       CyDelay(20);
 628              		.loc 1 140 0
 629 02e6 1420     		movs	r0, #20
 630 02e8 FFF7FEFF 		bl	CyDelay
 631              	.LVL80:
 632              	.L33:
 141:Funciones.c   ****    }
 142:Funciones.c   ****    Password[2]=EEPROM_ReadByte(462);
 633              		.loc 1 142 0
 634 02ec 4FF4E770 		mov	r0, #462
 635 02f0 FFF7FEFF 		bl	EEPROM_ReadByte
 636              	.LVL81:
 637 02f4 244C     		ldr	r4, .L52+68
 638 02f6 A070     		strb	r0, [r4, #2]
 143:Funciones.c   ****    CyDelay(50);   
 639              		.loc 1 143 0
 640 02f8 3220     		movs	r0, #50
 641 02fa FFF7FEFF 		bl	CyDelay
 642              	.LVL82:
 144:Funciones.c   ****    if(Password[2]>9 || Password[2]<0){
 643              		.loc 1 144 0
 644 02fe A378     		ldrb	r3, [r4, #2]	@ zero_extendqisi2
 645 0300 092B     		cmp	r3, #9
 646 0302 08D9     		bls	.L34
 145:Funciones.c   ****       Password[2]=0;
 647              		.loc 1 145 0
 648 0304 0020     		movs	r0, #0
ARM GAS  C:\Users\USUARIO\AppData\Local\Temp\ccgyuR3R.s 			page 15


 649 0306 A070     		strb	r0, [r4, #2]
 146:Funciones.c   ****       EEPROM_WriteByte(0,462);
 650              		.loc 1 146 0
 651 0308 4FF4E771 		mov	r1, #462
 652 030c FFF7FEFF 		bl	EEPROM_WriteByte
 653              	.LVL83:
 147:Funciones.c   ****       CyDelay(20);
 654              		.loc 1 147 0
 655 0310 1420     		movs	r0, #20
 656 0312 FFF7FEFF 		bl	CyDelay
 657              	.LVL84:
 658              	.L34:
 148:Funciones.c   ****    }
 149:Funciones.c   ****    Password[3]=EEPROM_ReadByte(463);
 659              		.loc 1 149 0
 660 0316 40F2CF10 		movw	r0, #463
 661 031a FFF7FEFF 		bl	EEPROM_ReadByte
 662              	.LVL85:
 663 031e 1A4C     		ldr	r4, .L52+68
 664 0320 E070     		strb	r0, [r4, #3]
 150:Funciones.c   ****    CyDelay(50);
 665              		.loc 1 150 0
 666 0322 3220     		movs	r0, #50
 667 0324 FFF7FEFF 		bl	CyDelay
 668              	.LVL86:
 151:Funciones.c   ****    if(Password[3]>9 || Password[3]<0){
 669              		.loc 1 151 0
 670 0328 E378     		ldrb	r3, [r4, #3]	@ zero_extendqisi2
 671 032a 092B     		cmp	r3, #9
 672 032c 2ED9     		bls	.L35
 152:Funciones.c   ****       Password[3]=0;
 673              		.loc 1 152 0
 674 032e 0020     		movs	r0, #0
 675 0330 E070     		strb	r0, [r4, #3]
 153:Funciones.c   ****       EEPROM_WriteByte(0,463);
 676              		.loc 1 153 0
 677 0332 40F2CF11 		movw	r1, #463
 678 0336 FFF7FEFF 		bl	EEPROM_WriteByte
 679              	.LVL87:
 154:Funciones.c   ****       CyDelay(20);
 680              		.loc 1 154 0
 681 033a 1420     		movs	r0, #20
 682 033c FFF7FEFF 		bl	CyDelay
 683              	.LVL88:
 684 0340 24E0     		b	.L53
 685              	.L54:
 686 0342 00BF     		.align	2
 687              	.L52:
 688 0344 00000000 		.word	i
 689 0348 00000000 		.word	Temperatura1
 690 034c 00000000 		.word	Horas1
 691 0350 00000000 		.word	Minutos1
 692 0354 00000000 		.word	Ganancia
 693 0358 00002042 		.word	1109393408
 694 035c 00004040 		.word	1077936128
 695 0360 00000000 		.word	GananciaIn
 696 0364 00000000 		.word	Tciclo
ARM GAS  C:\Users\USUARIO\AppData\Local\Temp\ccgyuR3R.s 			page 16


 697 0368 00000000 		.word	Ajuste
 698 036c 00000000 		.word	Ajusten
 699 0370 00000000 		.word	MediaMovil
 700 0374 00000000 		.word	Coeficiente
 701 0378 00000000 		.word	penMufla
 702 037c 00001643 		.word	1125515264
 703 0380 00002041 		.word	1092616192
 704 0384 00004842 		.word	1112014848
 705 0388 00000000 		.word	Password
 706              	.L53:
 707              	.L35:
 155:Funciones.c   ****    }
 156:Funciones.c   **** 
 157:Funciones.c   ****    Tempocp[0]=EEPROM_ReadByte(465);
 708              		.loc 1 157 0
 709 038c 40F2D110 		movw	r0, #465
 710 0390 FFF7FEFF 		bl	EEPROM_ReadByte
 711              	.LVL89:
 712 0394 9C4C     		ldr	r4, .L55+8
 713 0396 2070     		strb	r0, [r4]
 158:Funciones.c   ****    CyDelay(50);
 714              		.loc 1 158 0
 715 0398 3220     		movs	r0, #50
 716 039a FFF7FEFF 		bl	CyDelay
 717              	.LVL90:
 159:Funciones.c   ****    if(Tempocp[0]>9 || Tempocp[0]<0){
 718              		.loc 1 159 0
 719 039e 2378     		ldrb	r3, [r4]	@ zero_extendqisi2
 720 03a0 092B     		cmp	r3, #9
 721 03a2 08D9     		bls	.L36
 160:Funciones.c   ****       Tempocp[0]=0;
 722              		.loc 1 160 0
 723 03a4 0020     		movs	r0, #0
 724 03a6 2070     		strb	r0, [r4]
 161:Funciones.c   ****       EEPROM_WriteByte(0,465);
 725              		.loc 1 161 0
 726 03a8 40F2D111 		movw	r1, #465
 727 03ac FFF7FEFF 		bl	EEPROM_WriteByte
 728              	.LVL91:
 162:Funciones.c   ****       CyDelay(20);
 729              		.loc 1 162 0
 730 03b0 1420     		movs	r0, #20
 731 03b2 FFF7FEFF 		bl	CyDelay
 732              	.LVL92:
 733              	.L36:
 163:Funciones.c   ****    } 
 164:Funciones.c   ****    
 165:Funciones.c   ****    Tempocp[1]=EEPROM_ReadByte(466);
 734              		.loc 1 165 0
 735 03b6 4FF4E970 		mov	r0, #466
 736 03ba FFF7FEFF 		bl	EEPROM_ReadByte
 737              	.LVL93:
 738 03be 924C     		ldr	r4, .L55+8
 739 03c0 6070     		strb	r0, [r4, #1]
 166:Funciones.c   ****    CyDelay(50);
 740              		.loc 1 166 0
 741 03c2 3220     		movs	r0, #50
ARM GAS  C:\Users\USUARIO\AppData\Local\Temp\ccgyuR3R.s 			page 17


 742 03c4 FFF7FEFF 		bl	CyDelay
 743              	.LVL94:
 167:Funciones.c   ****    if(Tempocp[1]>9 || Tempocp[1]<0){
 744              		.loc 1 167 0
 745 03c8 6378     		ldrb	r3, [r4, #1]	@ zero_extendqisi2
 746 03ca 092B     		cmp	r3, #9
 747 03cc 08D9     		bls	.L37
 168:Funciones.c   ****       Tempocp[1]=1;
 748              		.loc 1 168 0
 749 03ce 0120     		movs	r0, #1
 750 03d0 6070     		strb	r0, [r4, #1]
 169:Funciones.c   ****       EEPROM_WriteByte(1,466);
 751              		.loc 1 169 0
 752 03d2 4FF4E971 		mov	r1, #466
 753 03d6 FFF7FEFF 		bl	EEPROM_WriteByte
 754              	.LVL95:
 170:Funciones.c   ****       CyDelay(20);
 755              		.loc 1 170 0
 756 03da 1420     		movs	r0, #20
 757 03dc FFF7FEFF 		bl	CyDelay
 758              	.LVL96:
 759              	.L37:
 171:Funciones.c   ****    } 
 172:Funciones.c   **** 
 173:Funciones.c   ****    Tempocp[2]=EEPROM_ReadByte(467);
 760              		.loc 1 173 0
 761 03e0 40F2D310 		movw	r0, #467
 762 03e4 FFF7FEFF 		bl	EEPROM_ReadByte
 763              	.LVL97:
 764 03e8 874C     		ldr	r4, .L55+8
 765 03ea A070     		strb	r0, [r4, #2]
 174:Funciones.c   ****    CyDelay(50);
 766              		.loc 1 174 0
 767 03ec 3220     		movs	r0, #50
 768 03ee FFF7FEFF 		bl	CyDelay
 769              	.LVL98:
 175:Funciones.c   ****    if(Tempocp[2]>9 || Tempocp[2]<0){
 770              		.loc 1 175 0
 771 03f2 A378     		ldrb	r3, [r4, #2]	@ zero_extendqisi2
 772 03f4 092B     		cmp	r3, #9
 773 03f6 08D9     		bls	.L38
 176:Funciones.c   ****       Tempocp[2]=0;
 774              		.loc 1 176 0
 775 03f8 0020     		movs	r0, #0
 776 03fa A070     		strb	r0, [r4, #2]
 177:Funciones.c   ****       EEPROM_WriteByte(0,467);
 777              		.loc 1 177 0
 778 03fc 40F2D311 		movw	r1, #467
 779 0400 FFF7FEFF 		bl	EEPROM_WriteByte
 780              	.LVL99:
 178:Funciones.c   ****       CyDelay(20);
 781              		.loc 1 178 0
 782 0404 1420     		movs	r0, #20
 783 0406 FFF7FEFF 		bl	CyDelay
 784              	.LVL100:
 785              	.L38:
 179:Funciones.c   ****    } 
ARM GAS  C:\Users\USUARIO\AppData\Local\Temp\ccgyuR3R.s 			page 18


 180:Funciones.c   **** 
 181:Funciones.c   ****    Tempocp[3]=EEPROM_ReadByte(468);
 786              		.loc 1 181 0
 787 040a 4FF4EA70 		mov	r0, #468
 788 040e FFF7FEFF 		bl	EEPROM_ReadByte
 789              	.LVL101:
 790 0412 7D4C     		ldr	r4, .L55+8
 791 0414 E070     		strb	r0, [r4, #3]
 182:Funciones.c   ****    CyDelay(50);
 792              		.loc 1 182 0
 793 0416 3220     		movs	r0, #50
 794 0418 FFF7FEFF 		bl	CyDelay
 795              	.LVL102:
 183:Funciones.c   ****    if(Tempocp[3]>9 || Tempocp[3]<0){
 796              		.loc 1 183 0
 797 041c E378     		ldrb	r3, [r4, #3]	@ zero_extendqisi2
 798 041e 092B     		cmp	r3, #9
 799 0420 08D9     		bls	.L39
 184:Funciones.c   ****       Tempocp[3]=0;
 800              		.loc 1 184 0
 801 0422 0020     		movs	r0, #0
 802 0424 E070     		strb	r0, [r4, #3]
 185:Funciones.c   ****       EEPROM_WriteByte(0,468);
 803              		.loc 1 185 0
 804 0426 4FF4EA71 		mov	r1, #468
 805 042a FFF7FEFF 		bl	EEPROM_WriteByte
 806              	.LVL103:
 186:Funciones.c   ****       CyDelay(20);
 807              		.loc 1 186 0
 808 042e 1420     		movs	r0, #20
 809 0430 FFF7FEFF 		bl	CyDelay
 810              	.LVL104:
 811              	.L39:
 187:Funciones.c   ****    } 
 188:Funciones.c   **** 
 189:Funciones.c   ****    Integral=EEPROM_ReadByte(470);
 812              		.loc 1 189 0
 813 0434 4FF4EB70 		mov	r0, #470
 814 0438 FFF7FEFF 		bl	EEPROM_ReadByte
 815              	.LVL105:
 816 043c 734C     		ldr	r4, .L55+12
 817 043e 2070     		strb	r0, [r4]
 190:Funciones.c   ****    CyDelay(50); 
 818              		.loc 1 190 0
 819 0440 3220     		movs	r0, #50
 820 0442 FFF7FEFF 		bl	CyDelay
 821              	.LVL106:
 191:Funciones.c   ****    if(Integral>5 || Integral==0){
 822              		.loc 1 191 0
 823 0446 2378     		ldrb	r3, [r4]	@ zero_extendqisi2
 824 0448 013B     		subs	r3, r3, #1
 825 044a DBB2     		uxtb	r3, r3
 826 044c 042B     		cmp	r3, #4
 827 044e 08D9     		bls	.L40
 192:Funciones.c   ****       Integral=1;
 828              		.loc 1 192 0
 829 0450 0120     		movs	r0, #1
ARM GAS  C:\Users\USUARIO\AppData\Local\Temp\ccgyuR3R.s 			page 19


 830 0452 2070     		strb	r0, [r4]
 193:Funciones.c   ****       EEPROM_WriteByte(1,470);
 831              		.loc 1 193 0
 832 0454 4FF4EB71 		mov	r1, #470
 833 0458 FFF7FEFF 		bl	EEPROM_WriteByte
 834              	.LVL107:
 194:Funciones.c   ****       CyDelay(20);
 835              		.loc 1 194 0
 836 045c 1420     		movs	r0, #20
 837 045e FFF7FEFF 		bl	CyDelay
 838              	.LVL108:
 839              	.L40:
 195:Funciones.c   ****    }
 196:Funciones.c   ****    Derivativo=EEPROM_ReadByte(471);
 840              		.loc 1 196 0
 841 0462 40F2D710 		movw	r0, #471
 842 0466 FFF7FEFF 		bl	EEPROM_ReadByte
 843              	.LVL109:
 844 046a 694C     		ldr	r4, .L55+16
 845 046c 2070     		strb	r0, [r4]
 197:Funciones.c   ****    CyDelay(50); 
 846              		.loc 1 197 0
 847 046e 3220     		movs	r0, #50
 848 0470 FFF7FEFF 		bl	CyDelay
 849              	.LVL110:
 198:Funciones.c   ****    if(Derivativo>40 || Derivativo<5){
 850              		.loc 1 198 0
 851 0474 2378     		ldrb	r3, [r4]	@ zero_extendqisi2
 852 0476 053B     		subs	r3, r3, #5
 853 0478 DBB2     		uxtb	r3, r3
 854 047a 232B     		cmp	r3, #35
 855 047c 08D9     		bls	.L41
 199:Funciones.c   ****       Derivativo=30;
 856              		.loc 1 199 0
 857 047e 1E20     		movs	r0, #30
 858 0480 2070     		strb	r0, [r4]
 200:Funciones.c   ****       EEPROM_WriteByte(30,471);
 859              		.loc 1 200 0
 860 0482 40F2D711 		movw	r1, #471
 861 0486 FFF7FEFF 		bl	EEPROM_WriteByte
 862              	.LVL111:
 201:Funciones.c   ****       CyDelay(20);
 863              		.loc 1 201 0
 864 048a 1420     		movs	r0, #20
 865 048c FFF7FEFF 		bl	CyDelay
 866              	.LVL112:
 867              	.L41:
 202:Funciones.c   ****    }
 203:Funciones.c   ****    AlTem=convert16(EEPROM_ReadByte(473),EEPROM_ReadByte(472));
 868              		.loc 1 203 0
 869 0490 40F2D910 		movw	r0, #473
 870 0494 FFF7FEFF 		bl	EEPROM_ReadByte
 871              	.LVL113:
 872 0498 0446     		mov	r4, r0
 873 049a 4FF4EC70 		mov	r0, #472
 874 049e FFF7FEFF 		bl	EEPROM_ReadByte
 875              	.LVL114:
ARM GAS  C:\Users\USUARIO\AppData\Local\Temp\ccgyuR3R.s 			page 20


 876 04a2 0146     		mov	r1, r0
 877 04a4 2046     		mov	r0, r4
 878 04a6 FFF7FEFF 		bl	convert16
 879              	.LVL115:
 880 04aa 5A4C     		ldr	r4, .L55+20
 881 04ac 2080     		strh	r0, [r4]	@ movhi
 204:Funciones.c   ****    CyDelay(50); 
 882              		.loc 1 204 0
 883 04ae 3220     		movs	r0, #50
 884 04b0 FFF7FEFF 		bl	CyDelay
 885              	.LVL116:
 205:Funciones.c   ****    if(AlTem>500){
 886              		.loc 1 205 0
 887 04b4 2388     		ldrh	r3, [r4]
 888 04b6 B3F5FA7F 		cmp	r3, #500
 889 04ba 10D9     		bls	.L42
 206:Funciones.c   ****       AlTem=200;
 890              		.loc 1 206 0
 891 04bc C820     		movs	r0, #200
 892 04be 2080     		strh	r0, [r4]	@ movhi
 207:Funciones.c   ****       EEPROM_WriteByte(200,472);
 893              		.loc 1 207 0
 894 04c0 4FF4EC71 		mov	r1, #472
 895 04c4 FFF7FEFF 		bl	EEPROM_WriteByte
 896              	.LVL117:
 208:Funciones.c   ****       CyDelay(20);
 897              		.loc 1 208 0
 898 04c8 1420     		movs	r0, #20
 899 04ca FFF7FEFF 		bl	CyDelay
 900              	.LVL118:
 209:Funciones.c   ****       EEPROM_WriteByte(0,473);
 901              		.loc 1 209 0
 902 04ce 40F2D911 		movw	r1, #473
 903 04d2 0020     		movs	r0, #0
 904 04d4 FFF7FEFF 		bl	EEPROM_WriteByte
 905              	.LVL119:
 210:Funciones.c   ****       CyDelay(20);
 906              		.loc 1 210 0
 907 04d8 1420     		movs	r0, #20
 908 04da FFF7FEFF 		bl	CyDelay
 909              	.LVL120:
 910              	.L42:
 211:Funciones.c   ****    }
 212:Funciones.c   ****    //Modo=EEPROM_ReadByte(480);
 213:Funciones.c   ****    //CyDelay(50); 
 214:Funciones.c   ****    m_int=EEPROM_ReadByte(490);
 911              		.loc 1 214 0
 912 04de 4FF4F570 		mov	r0, #490
 913 04e2 FFF7FEFF 		bl	EEPROM_ReadByte
 914              	.LVL121:
 915 04e6 4C4C     		ldr	r4, .L55+24
 916 04e8 2070     		strb	r0, [r4]
 215:Funciones.c   ****    CyDelay(50); 
 917              		.loc 1 215 0
 918 04ea 3220     		movs	r0, #50
 919 04ec FFF7FEFF 		bl	CyDelay
 920              	.LVL122:
ARM GAS  C:\Users\USUARIO\AppData\Local\Temp\ccgyuR3R.s 			page 21


 216:Funciones.c   ****    m_dec=EEPROM_ReadByte(491);
 921              		.loc 1 216 0
 922 04f0 40F2EB10 		movw	r0, #491
 923 04f4 FFF7FEFF 		bl	EEPROM_ReadByte
 924              	.LVL123:
 925 04f8 484D     		ldr	r5, .L55+28
 926 04fa 2870     		strb	r0, [r5]
 217:Funciones.c   ****    CyDelay(50); 
 927              		.loc 1 217 0
 928 04fc 3220     		movs	r0, #50
 929 04fe FFF7FEFF 		bl	CyDelay
 930              	.LVL124:
 218:Funciones.c   ****    m=m_int+((float)m_dec/100);
 931              		.loc 1 218 0
 932 0502 2878     		ldrb	r0, [r5]	@ zero_extendqisi2
 933 0504 FFF7FEFF 		bl	__aeabi_ui2f
 934              	.LVL125:
 935 0508 4549     		ldr	r1, .L55+32
 936 050a FFF7FEFF 		bl	__aeabi_fdiv
 937              	.LVL126:
 938 050e 0546     		mov	r5, r0
 939 0510 2078     		ldrb	r0, [r4]	@ zero_extendqisi2
 940 0512 FFF7FEFF 		bl	__aeabi_i2f
 941              	.LVL127:
 942 0516 2946     		mov	r1, r5
 943 0518 FFF7FEFF 		bl	__aeabi_fadd
 944              	.LVL128:
 945 051c 414B     		ldr	r3, .L55+36
 946 051e 1860     		str	r0, [r3]	@ float
 219:Funciones.c   ****    b16=convert16(EEPROM_ReadByte(493),EEPROM_ReadByte(492));
 947              		.loc 1 219 0
 948 0520 40F2ED10 		movw	r0, #493
 949 0524 FFF7FEFF 		bl	EEPROM_ReadByte
 950              	.LVL129:
 951 0528 0446     		mov	r4, r0
 952 052a 4FF4F670 		mov	r0, #492
 953 052e FFF7FEFF 		bl	EEPROM_ReadByte
 954              	.LVL130:
 955 0532 0146     		mov	r1, r0
 956 0534 2046     		mov	r0, r4
 957 0536 FFF7FEFF 		bl	convert16
 958              	.LVL131:
 959 053a 3B4C     		ldr	r4, .L55+40
 960 053c 2080     		strh	r0, [r4]	@ movhi
 220:Funciones.c   ****    b_dec=EEPROM_ReadByte(494);
 961              		.loc 1 220 0
 962 053e 4FF4F770 		mov	r0, #494
 963 0542 FFF7FEFF 		bl	EEPROM_ReadByte
 964              	.LVL132:
 965 0546 394D     		ldr	r5, .L55+44
 966 0548 2870     		strb	r0, [r5]
 221:Funciones.c   ****    CyDelay(50); 
 967              		.loc 1 221 0
 968 054a 3220     		movs	r0, #50
 969 054c FFF7FEFF 		bl	CyDelay
 970              	.LVL133:
 222:Funciones.c   ****    b=b16+((float)b_dec/100);
ARM GAS  C:\Users\USUARIO\AppData\Local\Temp\ccgyuR3R.s 			page 22


 971              		.loc 1 222 0
 972 0550 2878     		ldrb	r0, [r5]	@ zero_extendqisi2
 973 0552 FFF7FEFF 		bl	__aeabi_ui2f
 974              	.LVL134:
 975 0556 3249     		ldr	r1, .L55+32
 976 0558 FFF7FEFF 		bl	__aeabi_fdiv
 977              	.LVL135:
 978 055c 0546     		mov	r5, r0
 979 055e 2088     		ldrh	r0, [r4]
 980 0560 FFF7FEFF 		bl	__aeabi_i2f
 981              	.LVL136:
 982 0564 2946     		mov	r1, r5
 983 0566 FFF7FEFF 		bl	__aeabi_fadd
 984              	.LVL137:
 985 056a 314B     		ldr	r3, .L55+48
 986 056c 1860     		str	r0, [r3]	@ float
 223:Funciones.c   ****    if(b>200){
 987              		.loc 1 223 0
 988 056e 3149     		ldr	r1, .L55+52
 989 0570 FFF7FEFF 		bl	__aeabi_fcmpgt
 990              	.LVL138:
 991 0574 D0B1     		cbz	r0, .L43
 224:Funciones.c   ****       b=0;
 992              		.loc 1 224 0
 993 0576 0022     		movs	r2, #0
 994 0578 2D4B     		ldr	r3, .L55+48
 995 057a 1A60     		str	r2, [r3]	@ float
 225:Funciones.c   ****       EEPROM_WriteByte(0,492);
 996              		.loc 1 225 0
 997 057c 4FF4F671 		mov	r1, #492
 998 0580 0020     		movs	r0, #0
 999 0582 FFF7FEFF 		bl	EEPROM_WriteByte
 1000              	.LVL139:
 226:Funciones.c   ****       CyDelay(10);
 1001              		.loc 1 226 0
 1002 0586 0A20     		movs	r0, #10
 1003 0588 FFF7FEFF 		bl	CyDelay
 1004              	.LVL140:
 227:Funciones.c   ****       EEPROM_WriteByte(0,493);
 1005              		.loc 1 227 0
 1006 058c 40F2ED11 		movw	r1, #493
 1007 0590 0020     		movs	r0, #0
 1008 0592 FFF7FEFF 		bl	EEPROM_WriteByte
 1009              	.LVL141:
 228:Funciones.c   ****       CyDelay(10);
 1010              		.loc 1 228 0
 1011 0596 0A20     		movs	r0, #10
 1012 0598 FFF7FEFF 		bl	CyDelay
 1013              	.LVL142:
 229:Funciones.c   ****       EEPROM_WriteByte(66,494);
 1014              		.loc 1 229 0
 1015 059c 4FF4F771 		mov	r1, #494
 1016 05a0 4220     		movs	r0, #66
 1017 05a2 FFF7FEFF 		bl	EEPROM_WriteByte
 1018              	.LVL143:
 230:Funciones.c   ****       CyDelay(10);
 1019              		.loc 1 230 0
ARM GAS  C:\Users\USUARIO\AppData\Local\Temp\ccgyuR3R.s 			page 23


 1020 05a6 0A20     		movs	r0, #10
 1021 05a8 FFF7FEFF 		bl	CyDelay
 1022              	.LVL144:
 1023              	.L43:
 231:Funciones.c   ****    }
 232:Funciones.c   ****    if(m<0.1 || m>2.0){
 1024              		.loc 1 232 0
 1025 05ac 1D4B     		ldr	r3, .L55+36
 1026 05ae 1C68     		ldr	r4, [r3]	@ float
 1027 05b0 2046     		mov	r0, r4
 1028 05b2 FFF7FEFF 		bl	__aeabi_f2d
 1029              	.LVL145:
 1030 05b6 12A3     		adr	r3, .L55
 1031 05b8 D3E90023 		ldrd	r2, [r3]
 1032 05bc FFF7FEFF 		bl	__aeabi_dcmplt
 1033              	.LVL146:
 1034 05c0 28B9     		cbnz	r0, .L45
 1035              		.loc 1 232 0 is_stmt 0 discriminator 1
 1036 05c2 4FF08041 		mov	r1, #1073741824
 1037 05c6 2046     		mov	r0, r4
 1038 05c8 FFF7FEFF 		bl	__aeabi_fcmpgt
 1039              	.LVL147:
 1040 05cc 98B1     		cbz	r0, .L14
 1041              	.L45:
 233:Funciones.c   ****       m=1.0;
 1042              		.loc 1 233 0 is_stmt 1
 1043 05ce 4FF07E52 		mov	r2, #1065353216
 1044 05d2 144B     		ldr	r3, .L55+36
 1045 05d4 1A60     		str	r2, [r3]	@ float
 234:Funciones.c   ****       EEPROM_WriteByte(1,490);
 1046              		.loc 1 234 0
 1047 05d6 4FF4F571 		mov	r1, #490
 1048 05da 0120     		movs	r0, #1
 1049 05dc FFF7FEFF 		bl	EEPROM_WriteByte
 1050              	.LVL148:
 235:Funciones.c   ****       CyDelay(10);
 1051              		.loc 1 235 0
 1052 05e0 0A20     		movs	r0, #10
 1053 05e2 FFF7FEFF 		bl	CyDelay
 1054              	.LVL149:
 236:Funciones.c   ****       EEPROM_WriteByte(0,491);
 1055              		.loc 1 236 0
 1056 05e6 40F2EB11 		movw	r1, #491
 1057 05ea 0020     		movs	r0, #0
 1058 05ec FFF7FEFF 		bl	EEPROM_WriteByte
 1059              	.LVL150:
 237:Funciones.c   ****       CyDelay(10);
 1060              		.loc 1 237 0
 1061 05f0 0A20     		movs	r0, #10
 1062 05f2 FFF7FEFF 		bl	CyDelay
 1063              	.LVL151:
 1064              	.L14:
 1065 05f6 BDE8F087 		pop	{r4, r5, r6, r7, r8, r9, r10, pc}
 1066              	.LVL152:
 1067              	.L56:
 1068 05fa 00BFAFF3 		.align	3
 1068      0080
ARM GAS  C:\Users\USUARIO\AppData\Local\Temp\ccgyuR3R.s 			page 24


 1069              	.L55:
 1070 0600 9A999999 		.word	-1717986918
 1071 0604 9999B93F 		.word	1069128089
 1072 0608 00000000 		.word	Tempocp
 1073 060c 00000000 		.word	Integral
 1074 0610 00000000 		.word	Derivativo
 1075 0614 00000000 		.word	AlTem
 1076 0618 00000000 		.word	m_int
 1077 061c 00000000 		.word	m_dec
 1078 0620 0000C842 		.word	1120403456
 1079 0624 00000000 		.word	m
 1080 0628 00000000 		.word	b16
 1081 062c 00000000 		.word	b_dec
 1082 0630 00000000 		.word	b
 1083 0634 00004843 		.word	1128792064
 1084              		.cfi_endproc
 1085              	.LFE68:
 1086              		.size	leeEEPROM, .-leeEEPROM
 1087              		.section	.text.PidePassword,"ax",%progbits
 1088              		.align	2
 1089              		.global	PidePassword
 1090              		.thumb
 1091              		.thumb_func
 1092              		.type	PidePassword, %function
 1093              	PidePassword:
 1094              	.LFB69:
 238:Funciones.c   ****    }
 239:Funciones.c   **** }
 240:Funciones.c   **** 
 241:Funciones.c   **** 
 242:Funciones.c   **** short PidePassword(uint8 MenuAnt, uint8 MenuActual, uint8 MenuPost, uint8 clave0,uint8 clave1, uint
 1095              		.loc 1 242 0
 1096              		.cfi_startproc
 1097              		@ args = 12, pretend = 0, frame = 0
 1098              		@ frame_needed = 0, uses_anonymous_args = 0
 1099              	.LVL153:
 1100 0000 2DE9F047 		push	{r4, r5, r6, r7, r8, r9, r10, lr}
 1101              		.cfi_def_cfa_offset 32
 1102              		.cfi_offset 4, -32
 1103              		.cfi_offset 5, -28
 1104              		.cfi_offset 6, -24
 1105              		.cfi_offset 7, -20
 1106              		.cfi_offset 8, -16
 1107              		.cfi_offset 9, -12
 1108              		.cfi_offset 10, -8
 1109              		.cfi_offset 14, -4
 1110 0004 82B0     		sub	sp, sp, #8
 1111              		.cfi_def_cfa_offset 40
 1112 0006 0446     		mov	r4, r0
 1113 0008 1646     		mov	r6, r2
 1114 000a 1D46     		mov	r5, r3
 1115              	.LVL154:
 243:Funciones.c   ****       MenuActual=0;
 244:Funciones.c   ****       if(n==0){
 1116              		.loc 1 244 0
 1117 000c B64B     		ldr	r3, .L84
 1118              	.LVL155:
ARM GAS  C:\Users\USUARIO\AppData\Local\Temp\ccgyuR3R.s 			page 25


 1119 000e 1B78     		ldrb	r3, [r3]	@ zero_extendqisi2
 1120 0010 4BBB     		cbnz	r3, .L58
 245:Funciones.c   ****          displayContrasena(Contrasena[0],20,30,1);displayContrasena(Contrasena[1],40,30,0);
 1121              		.loc 1 245 0
 1122 0012 B64F     		ldr	r7, .L84+4
 1123 0014 0123     		movs	r3, #1
 1124 0016 1E22     		movs	r2, #30
 1125              	.LVL156:
 1126 0018 1421     		movs	r1, #20
 1127 001a 3878     		ldrb	r0, [r7]	@ zero_extendqisi2
 1128              	.LVL157:
 1129 001c FFF7FEFF 		bl	displayContrasena
 1130              	.LVL158:
 1131 0020 0023     		movs	r3, #0
 1132 0022 1E22     		movs	r2, #30
 1133 0024 2821     		movs	r1, #40
 1134 0026 7878     		ldrb	r0, [r7, #1]	@ zero_extendqisi2
 1135 0028 FFF7FEFF 		bl	displayContrasena
 1136              	.LVL159:
 246:Funciones.c   ****          displayContrasena(Contrasena[2],60,30,0);displayContrasena(Contrasena[0],80,30,0);
 1137              		.loc 1 246 0
 1138 002c 0023     		movs	r3, #0
 1139 002e 1E22     		movs	r2, #30
 1140 0030 3C21     		movs	r1, #60
 1141 0032 B878     		ldrb	r0, [r7, #2]	@ zero_extendqisi2
 1142 0034 FFF7FEFF 		bl	displayContrasena
 1143              	.LVL160:
 1144 0038 0023     		movs	r3, #0
 1145 003a 1E22     		movs	r2, #30
 1146 003c 5021     		movs	r1, #80
 1147 003e 3878     		ldrb	r0, [r7]	@ zero_extendqisi2
 1148 0040 FFF7FEFF 		bl	displayContrasena
 1149              	.LVL161:
 247:Funciones.c   ****          strcpy(Menus.Letra,"Clave");
 1150              		.loc 1 247 0
 1151 0044 AA4F     		ldr	r7, .L84+8
 1152 0046 AB4B     		ldr	r3, .L84+12
 1153 0048 1868     		ldr	r0, [r3]	@ unaligned
 1154 004a 3860     		str	r0, [r7]	@ unaligned
 1155 004c 9B88     		ldrh	r3, [r3, #4]	@ unaligned
 1156 004e BB80     		strh	r3, [r7, #4]	@ unaligned
 248:Funciones.c   ****          displayMenu(Menus.Letra,20,0,1,3);
 1157              		.loc 1 248 0
 1158 0050 0323     		movs	r3, #3
 1159 0052 0093     		str	r3, [sp]
 1160 0054 0123     		movs	r3, #1
 1161 0056 0022     		movs	r2, #0
 1162 0058 1421     		movs	r1, #20
 1163 005a 3846     		mov	r0, r7
 1164 005c FFF7FEFF 		bl	displayMenu
 1165              	.LVL162:
 249:Funciones.c   ****          n=1;
 1166              		.loc 1 249 0
 1167 0060 0122     		movs	r2, #1
 1168 0062 A14B     		ldr	r3, .L84
 1169 0064 1A70     		strb	r2, [r3]
 1170              	.L58:
ARM GAS  C:\Users\USUARIO\AppData\Local\Temp\ccgyuR3R.s 			page 26


 250:Funciones.c   ****       }
 251:Funciones.c   ****       
 252:Funciones.c   ****       if(UP_Read()==0){
 1171              		.loc 1 252 0
 1172 0066 FFF7FEFF 		bl	UP_Read
 1173              	.LVL163:
 1174 006a 0028     		cmp	r0, #0
 1175 006c 3DD1     		bne	.L59
 253:Funciones.c   ****          if(Flanco == 0){
 1176              		.loc 1 253 0
 1177 006e A24B     		ldr	r3, .L84+16
 1178 0070 B3F90030 		ldrsh	r3, [r3]
 1179 0074 002B     		cmp	r3, #0
 1180 0076 3BD1     		bne	.L60
 254:Funciones.c   ****             Flanco = 1;CyDelay(200);
 1181              		.loc 1 254 0
 1182 0078 0127     		movs	r7, #1
 1183 007a 9F4B     		ldr	r3, .L84+16
 1184 007c 1F80     		strh	r7, [r3]	@ movhi
 1185 007e C820     		movs	r0, #200
 1186 0080 FFF7FEFF 		bl	CyDelay
 1187              	.LVL164:
 255:Funciones.c   ****             for(i=1;i<=4;i++){
 1188              		.loc 1 255 0
 1189 0084 9D4B     		ldr	r3, .L84+20
 1190 0086 1F70     		strb	r7, [r3]
 1191 0088 2AE0     		b	.L61
 1192              	.L65:
 256:Funciones.c   ****                if(unidad==i){
 1193              		.loc 1 256 0
 1194 008a 9D4A     		ldr	r2, .L84+24
 1195 008c 1278     		ldrb	r2, [r2]	@ zero_extendqisi2
 1196 008e 9342     		cmp	r3, r2
 1197 0090 16D1     		bne	.L62
 257:Funciones.c   ****                   Contrasena[i-1]++;
 1198              		.loc 1 257 0
 1199 0092 581E     		subs	r0, r3, #1
 1200 0094 9549     		ldr	r1, .L84+4
 1201 0096 0A56     		ldrsb	r2, [r1, r0]
 1202 0098 0132     		adds	r2, r2, #1
 1203 009a 52B2     		sxtb	r2, r2
 1204 009c 0A54     		strb	r2, [r1, r0]
 258:Funciones.c   ****                   if(Contrasena[i-1]>9){
 1205              		.loc 1 258 0
 1206 009e 092A     		cmp	r2, #9
 1207 00a0 02DD     		ble	.L63
 259:Funciones.c   ****                      Contrasena[i-1]=0;
 1208              		.loc 1 259 0
 1209 00a2 0021     		movs	r1, #0
 1210 00a4 914A     		ldr	r2, .L84+4
 1211 00a6 1154     		strb	r1, [r2, r0]
 1212              	.L63:
 260:Funciones.c   ****                   }
 261:Funciones.c   ****                   displayContrasena(Contrasena[i-1],i*20,30,1);
 1213              		.loc 1 261 0
 1214 00a8 03EB8303 		add	r3, r3, r3, lsl #2
 1215 00ac 9900     		lsls	r1, r3, #2
ARM GAS  C:\Users\USUARIO\AppData\Local\Temp\ccgyuR3R.s 			page 27


 1216 00ae 0123     		movs	r3, #1
 1217 00b0 1E22     		movs	r2, #30
 1218 00b2 01F0FC01 		and	r1, r1, #252
 1219 00b6 8D4F     		ldr	r7, .L84+4
 1220 00b8 385C     		ldrb	r0, [r7, r0]	@ zero_extendqisi2
 1221 00ba FFF7FEFF 		bl	displayContrasena
 1222              	.LVL165:
 1223 00be 0BE0     		b	.L64
 1224              	.L62:
 262:Funciones.c   ****                }else{
 263:Funciones.c   ****                   displayContrasena(Contrasena[i-1],i*20,30,0);
 1225              		.loc 1 263 0
 1226 00c0 581E     		subs	r0, r3, #1
 1227 00c2 03EB8303 		add	r3, r3, r3, lsl #2
 1228 00c6 9900     		lsls	r1, r3, #2
 1229 00c8 0023     		movs	r3, #0
 1230 00ca 1E22     		movs	r2, #30
 1231 00cc 01F0FC01 		and	r1, r1, #252
 1232 00d0 864F     		ldr	r7, .L84+4
 1233 00d2 385C     		ldrb	r0, [r7, r0]	@ zero_extendqisi2
 1234 00d4 FFF7FEFF 		bl	displayContrasena
 1235              	.LVL166:
 1236              	.L64:
 255:Funciones.c   ****                if(unidad==i){
 1237              		.loc 1 255 0 discriminator 2
 1238 00d8 884A     		ldr	r2, .L84+20
 1239 00da 1378     		ldrb	r3, [r2]	@ zero_extendqisi2
 1240 00dc 0133     		adds	r3, r3, #1
 1241 00de 1370     		strb	r3, [r2]
 1242              	.L61:
 255:Funciones.c   ****                if(unidad==i){
 1243              		.loc 1 255 0 is_stmt 0 discriminator 1
 1244 00e0 864B     		ldr	r3, .L84+20
 1245 00e2 1B78     		ldrb	r3, [r3]	@ zero_extendqisi2
 1246 00e4 042B     		cmp	r3, #4
 1247 00e6 D0D9     		bls	.L65
 1248 00e8 02E0     		b	.L60
 1249              	.L59:
 264:Funciones.c   ****                }
 265:Funciones.c   ****             }
 266:Funciones.c   ****          }
 267:Funciones.c   ****       }else{
 268:Funciones.c   ****          Flanco = 0;
 1250              		.loc 1 268 0 is_stmt 1
 1251 00ea 0022     		movs	r2, #0
 1252 00ec 824B     		ldr	r3, .L84+16
 1253 00ee 1A80     		strh	r2, [r3]	@ movhi
 1254              	.L60:
 269:Funciones.c   ****       }
 270:Funciones.c   ****             
 271:Funciones.c   ****       if(DOWN_Read()==0){
 1255              		.loc 1 271 0
 1256 00f0 FFF7FEFF 		bl	DOWN_Read
 1257              	.LVL167:
 1258 00f4 0028     		cmp	r0, #0
 1259 00f6 3DD1     		bne	.L66
 272:Funciones.c   ****          if(Flanco2 == 0){
ARM GAS  C:\Users\USUARIO\AppData\Local\Temp\ccgyuR3R.s 			page 28


 1260              		.loc 1 272 0
 1261 00f8 824B     		ldr	r3, .L84+28
 1262 00fa B3F90030 		ldrsh	r3, [r3]
 1263 00fe 002B     		cmp	r3, #0
 1264 0100 3BD1     		bne	.L67
 273:Funciones.c   ****             Flanco2 = 1;CyDelay(200);
 1265              		.loc 1 273 0
 1266 0102 0127     		movs	r7, #1
 1267 0104 7F4B     		ldr	r3, .L84+28
 1268 0106 1F80     		strh	r7, [r3]	@ movhi
 1269 0108 C820     		movs	r0, #200
 1270 010a FFF7FEFF 		bl	CyDelay
 1271              	.LVL168:
 274:Funciones.c   ****             for(i=1;i<=4;i++){
 1272              		.loc 1 274 0
 1273 010e 7B4B     		ldr	r3, .L84+20
 1274 0110 1F70     		strb	r7, [r3]
 1275 0112 2AE0     		b	.L68
 1276              	.L72:
 275:Funciones.c   ****                if(unidad==i){
 1277              		.loc 1 275 0
 1278 0114 7A4A     		ldr	r2, .L84+24
 1279 0116 1278     		ldrb	r2, [r2]	@ zero_extendqisi2
 1280 0118 9342     		cmp	r3, r2
 1281 011a 16D1     		bne	.L69
 276:Funciones.c   ****                   Contrasena[i-1]--;
 1282              		.loc 1 276 0
 1283 011c 581E     		subs	r0, r3, #1
 1284 011e 7349     		ldr	r1, .L84+4
 1285 0120 0A56     		ldrsb	r2, [r1, r0]
 1286 0122 013A     		subs	r2, r2, #1
 1287 0124 52B2     		sxtb	r2, r2
 1288 0126 0A54     		strb	r2, [r1, r0]
 277:Funciones.c   ****                   if(Contrasena[i-1]<0){
 1289              		.loc 1 277 0
 1290 0128 002A     		cmp	r2, #0
 1291 012a 02DA     		bge	.L70
 278:Funciones.c   ****                      Contrasena[i-1]=9;
 1292              		.loc 1 278 0
 1293 012c 0921     		movs	r1, #9
 1294 012e 6F4A     		ldr	r2, .L84+4
 1295 0130 1154     		strb	r1, [r2, r0]
 1296              	.L70:
 279:Funciones.c   ****                   }
 280:Funciones.c   ****                   displayContrasena(Contrasena[i-1],i*20,30,1);
 1297              		.loc 1 280 0
 1298 0132 03EB8303 		add	r3, r3, r3, lsl #2
 1299 0136 9900     		lsls	r1, r3, #2
 1300 0138 0123     		movs	r3, #1
 1301 013a 1E22     		movs	r2, #30
 1302 013c 01F0FC01 		and	r1, r1, #252
 1303 0140 6A4F     		ldr	r7, .L84+4
 1304 0142 385C     		ldrb	r0, [r7, r0]	@ zero_extendqisi2
 1305 0144 FFF7FEFF 		bl	displayContrasena
 1306              	.LVL169:
 1307 0148 0BE0     		b	.L71
 1308              	.L69:
ARM GAS  C:\Users\USUARIO\AppData\Local\Temp\ccgyuR3R.s 			page 29


 281:Funciones.c   ****                }else{
 282:Funciones.c   ****                   displayContrasena(Contrasena[i-1],i*20,30,0);
 1309              		.loc 1 282 0
 1310 014a 581E     		subs	r0, r3, #1
 1311 014c 03EB8303 		add	r3, r3, r3, lsl #2
 1312 0150 9900     		lsls	r1, r3, #2
 1313 0152 0023     		movs	r3, #0
 1314 0154 1E22     		movs	r2, #30
 1315 0156 01F0FC01 		and	r1, r1, #252
 1316 015a 644F     		ldr	r7, .L84+4
 1317 015c 385C     		ldrb	r0, [r7, r0]	@ zero_extendqisi2
 1318 015e FFF7FEFF 		bl	displayContrasena
 1319              	.LVL170:
 1320              	.L71:
 274:Funciones.c   ****                if(unidad==i){
 1321              		.loc 1 274 0 discriminator 2
 1322 0162 664A     		ldr	r2, .L84+20
 1323 0164 1378     		ldrb	r3, [r2]	@ zero_extendqisi2
 1324 0166 0133     		adds	r3, r3, #1
 1325 0168 1370     		strb	r3, [r2]
 1326              	.L68:
 274:Funciones.c   ****                if(unidad==i){
 1327              		.loc 1 274 0 is_stmt 0 discriminator 1
 1328 016a 644B     		ldr	r3, .L84+20
 1329 016c 1B78     		ldrb	r3, [r3]	@ zero_extendqisi2
 1330 016e 042B     		cmp	r3, #4
 1331 0170 D0D9     		bls	.L72
 1332 0172 02E0     		b	.L67
 1333              	.L66:
 283:Funciones.c   ****                }
 284:Funciones.c   ****             }      
 285:Funciones.c   ****          }     
 286:Funciones.c   ****       }else{
 287:Funciones.c   ****          Flanco2 = 0;
 1334              		.loc 1 287 0 is_stmt 1
 1335 0174 0022     		movs	r2, #0
 1336 0176 634B     		ldr	r3, .L84+28
 1337 0178 1A80     		strh	r2, [r3]	@ movhi
 1338              	.L67:
 288:Funciones.c   ****       }
 289:Funciones.c   ****             
 290:Funciones.c   ****       if(RIGHT_Read()==0){
 1339              		.loc 1 290 0
 1340 017a FFF7FEFF 		bl	RIGHT_Read
 1341              	.LVL171:
 1342 017e 0028     		cmp	r0, #0
 1343 0180 37D1     		bne	.L73
 291:Funciones.c   ****          if(Flanco1 == 0){
 1344              		.loc 1 291 0
 1345 0182 614B     		ldr	r3, .L84+32
 1346 0184 B3F90030 		ldrsh	r3, [r3]
 1347 0188 002B     		cmp	r3, #0
 1348 018a 35D1     		bne	.L74
 292:Funciones.c   ****             Flanco1 = 1;CyDelay(200);unidad++;
 1349              		.loc 1 292 0
 1350 018c 0127     		movs	r7, #1
 1351 018e 5E4B     		ldr	r3, .L84+32
ARM GAS  C:\Users\USUARIO\AppData\Local\Temp\ccgyuR3R.s 			page 30


 1352 0190 1F80     		strh	r7, [r3]	@ movhi
 1353 0192 C820     		movs	r0, #200
 1354 0194 FFF7FEFF 		bl	CyDelay
 1355              	.LVL172:
 1356 0198 594A     		ldr	r2, .L84+24
 1357 019a 1378     		ldrb	r3, [r2]	@ zero_extendqisi2
 1358 019c 3B44     		add	r3, r3, r7
 1359 019e 1370     		strb	r3, [r2]
 293:Funciones.c   ****             for(i=1;i<=4;i++){
 1360              		.loc 1 293 0
 1361 01a0 564B     		ldr	r3, .L84+20
 1362 01a2 1F70     		strb	r7, [r3]
 1363 01a4 20E0     		b	.L75
 1364              	.L78:
 294:Funciones.c   ****                if(unidad==i){
 1365              		.loc 1 294 0
 1366 01a6 564A     		ldr	r2, .L84+24
 1367 01a8 1278     		ldrb	r2, [r2]	@ zero_extendqisi2
 1368 01aa 9342     		cmp	r3, r2
 1369 01ac 0CD1     		bne	.L76
 295:Funciones.c   ****                   displayContrasena(Contrasena[i-1],i*20,30,1);
 1370              		.loc 1 295 0
 1371 01ae 581E     		subs	r0, r3, #1
 1372 01b0 03EB8303 		add	r3, r3, r3, lsl #2
 1373 01b4 9900     		lsls	r1, r3, #2
 1374 01b6 0123     		movs	r3, #1
 1375 01b8 1E22     		movs	r2, #30
 1376 01ba 01F0FC01 		and	r1, r1, #252
 1377 01be 4B4F     		ldr	r7, .L84+4
 1378 01c0 385C     		ldrb	r0, [r7, r0]	@ zero_extendqisi2
 1379 01c2 FFF7FEFF 		bl	displayContrasena
 1380              	.LVL173:
 1381 01c6 0BE0     		b	.L77
 1382              	.L76:
 296:Funciones.c   ****                }else{
 297:Funciones.c   ****                   displayContrasena(Contrasena[i-1],i*20,30,0);
 1383              		.loc 1 297 0
 1384 01c8 581E     		subs	r0, r3, #1
 1385 01ca 03EB8303 		add	r3, r3, r3, lsl #2
 1386 01ce 9900     		lsls	r1, r3, #2
 1387 01d0 0023     		movs	r3, #0
 1388 01d2 1E22     		movs	r2, #30
 1389 01d4 01F0FC01 		and	r1, r1, #252
 1390 01d8 444F     		ldr	r7, .L84+4
 1391 01da 385C     		ldrb	r0, [r7, r0]	@ zero_extendqisi2
 1392 01dc FFF7FEFF 		bl	displayContrasena
 1393              	.LVL174:
 1394              	.L77:
 293:Funciones.c   ****                if(unidad==i){
 1395              		.loc 1 293 0 discriminator 2
 1396 01e0 464A     		ldr	r2, .L84+20
 1397 01e2 1378     		ldrb	r3, [r2]	@ zero_extendqisi2
 1398 01e4 0133     		adds	r3, r3, #1
 1399 01e6 1370     		strb	r3, [r2]
 1400              	.L75:
 293:Funciones.c   ****                if(unidad==i){
 1401              		.loc 1 293 0 is_stmt 0 discriminator 1
ARM GAS  C:\Users\USUARIO\AppData\Local\Temp\ccgyuR3R.s 			page 31


 1402 01e8 444B     		ldr	r3, .L84+20
 1403 01ea 1B78     		ldrb	r3, [r3]	@ zero_extendqisi2
 1404 01ec 042B     		cmp	r3, #4
 1405 01ee DAD9     		bls	.L78
 1406 01f0 02E0     		b	.L74
 1407              	.L73:
 298:Funciones.c   ****                }
 299:Funciones.c   ****             }
 300:Funciones.c   ****          }
 301:Funciones.c   ****       }else{
 302:Funciones.c   ****          Flanco1 = 0;
 1408              		.loc 1 302 0 is_stmt 1
 1409 01f2 0022     		movs	r2, #0
 1410 01f4 444B     		ldr	r3, .L84+32
 1411 01f6 1A80     		strh	r2, [r3]	@ movhi
 1412              	.L74:
 303:Funciones.c   ****       }
 304:Funciones.c   ****       
 305:Funciones.c   ****       if(LEFT_Read()==0){
 1413              		.loc 1 305 0
 1414 01f8 FFF7FEFF 		bl	LEFT_Read
 1415              	.LVL175:
 1416 01fc E0B9     		cbnz	r0, .L79
 306:Funciones.c   ****          CyDelay(100);
 1417              		.loc 1 306 0
 1418 01fe 6420     		movs	r0, #100
 1419 0200 FFF7FEFF 		bl	CyDelay
 1420              	.LVL176:
 307:Funciones.c   ****          if(LEFT_Read()==0){
 1421              		.loc 1 307 0
 1422 0204 FFF7FEFF 		bl	LEFT_Read
 1423              	.LVL177:
 1424 0208 B0B9     		cbnz	r0, .L79
 308:Funciones.c   ****             Menu=MenuAnt;glcd_fillScreen(OFF);n=0;Opcion=1;unidad=1;
 1425              		.loc 1 308 0
 1426 020a 404B     		ldr	r3, .L84+36
 1427 020c 1C70     		strb	r4, [r3]
 1428 020e FFF7FEFF 		bl	glcd_fillScreen
 1429              	.LVL178:
 1430 0212 0020     		movs	r0, #0
 1431 0214 344B     		ldr	r3, .L84
 1432 0216 1870     		strb	r0, [r3]
 1433 0218 0125     		movs	r5, #1
 1434 021a 3D4B     		ldr	r3, .L84+40
 1435 021c 1D70     		strb	r5, [r3]
 1436 021e 384B     		ldr	r3, .L84+24
 1437 0220 1D70     		strb	r5, [r3]
 309:Funciones.c   ****             Contrasena[0]=0;Contrasena[1]=0;Contrasena[2]=0;Contrasena[3]=0;
 1438              		.loc 1 309 0
 1439 0222 324B     		ldr	r3, .L84+4
 1440 0224 1870     		strb	r0, [r3]
 1441 0226 5870     		strb	r0, [r3, #1]
 1442 0228 9870     		strb	r0, [r3, #2]
 1443 022a D870     		strb	r0, [r3, #3]
 310:Funciones.c   ****             glcd_fillScreen(OFF);glcd_update();
 1444              		.loc 1 310 0
 1445 022c FFF7FEFF 		bl	glcd_fillScreen
ARM GAS  C:\Users\USUARIO\AppData\Local\Temp\ccgyuR3R.s 			page 32


 1446              	.LVL179:
 1447 0230 FFF7FEFF 		bl	glcd_update
 1448              	.LVL180:
 311:Funciones.c   ****             return 1;
 1449              		.loc 1 311 0
 1450 0234 2846     		mov	r0, r5
 1451 0236 DFE0     		b	.L80
 1452              	.L79:
 312:Funciones.c   ****          }
 313:Funciones.c   ****       }
 314:Funciones.c   ****     
 315:Funciones.c   ****       if(unidad>4){
 1453              		.loc 1 315 0
 1454 0238 314B     		ldr	r3, .L84+24
 1455 023a 1B78     		ldrb	r3, [r3]	@ zero_extendqisi2
 1456 023c 042B     		cmp	r3, #4
 1457 023e 40F2DA80 		bls	.L82
 316:Funciones.c   ****          glcd_fillScreen(OFF);unidad=1;
 1458              		.loc 1 316 0
 1459 0242 0020     		movs	r0, #0
 1460 0244 FFF7FEFF 		bl	glcd_fillScreen
 1461              	.LVL181:
 1462 0248 0122     		movs	r2, #1
 1463 024a 2D4B     		ldr	r3, .L84+24
 1464 024c 1A70     		strb	r2, [r3]
 317:Funciones.c   ****          /*
 318:Funciones.c   ****          if(Contrasena[0]==3&&Contrasena[1]==8&&Contrasena[2]==9&&Contrasena[3]==2 && MenuActual==0
 319:Funciones.c   ****             EEPROM_WriteByte(0,0);CyDelay(20);EEPROM_WriteByte(1,0);CyDelay(20);// Reestablece a co
 320:Funciones.c   ****             EEPROM_WriteByte(2,0);CyDelay(20);EEPROM_WriteByte(3,0);CyDelay(20);
 321:Funciones.c   ****             reset_cpu();
 322:Funciones.c   ****          }
 323:Funciones.c   ****       */
 324:Funciones.c   ****          if((Contrasena[0]==clave0)&&(Contrasena[1]==clave1)&&(Contrasena[2]==clave2)&&(Contrasena[
 1465              		.loc 1 324 0
 1466 024e 274B     		ldr	r3, .L84+4
 1467 0250 93F90030 		ldrsb	r3, [r3]
 1468 0254 AB42     		cmp	r3, r5
 1469 0256 5FD1     		bne	.L81
 1470              		.loc 1 324 0 is_stmt 0 discriminator 1
 1471 0258 244B     		ldr	r3, .L84+4
 1472 025a 93F90120 		ldrsb	r2, [r3, #1]
 1473 025e 9DF82830 		ldrb	r3, [sp, #40]	@ zero_extendqisi2
 1474 0262 9A42     		cmp	r2, r3
 1475 0264 58D1     		bne	.L81
 1476              		.loc 1 324 0 discriminator 2
 1477 0266 214B     		ldr	r3, .L84+4
 1478 0268 93F90220 		ldrsb	r2, [r3, #2]
 1479 026c 9DF82C30 		ldrb	r3, [sp, #44]	@ zero_extendqisi2
 1480 0270 9A42     		cmp	r2, r3
 1481 0272 51D1     		bne	.L81
 1482              		.loc 1 324 0 discriminator 3
 1483 0274 1D4B     		ldr	r3, .L84+4
 1484 0276 93F90320 		ldrsb	r2, [r3, #3]
 1485 027a 9DF83030 		ldrb	r3, [sp, #48]	@ zero_extendqisi2
 1486 027e 9A42     		cmp	r2, r3
 1487 0280 4AD1     		bne	.L81
 325:Funciones.c   ****             glcd_fillScreen(OFF);
ARM GAS  C:\Users\USUARIO\AppData\Local\Temp\ccgyuR3R.s 			page 33


 1488              		.loc 1 325 0 is_stmt 1
 1489 0282 0020     		movs	r0, #0
 1490 0284 FFF7FEFF 		bl	glcd_fillScreen
 1491              	.LVL182:
 326:Funciones.c   ****             strcpy(Menus.Letra,"Clave");
 1492              		.loc 1 326 0
 1493 0288 194C     		ldr	r4, .L84+8
 1494 028a 1A4B     		ldr	r3, .L84+12
 1495 028c 1868     		ldr	r0, [r3]	@ unaligned
 1496 028e 2060     		str	r0, [r4]	@ unaligned
 1497 0290 9B88     		ldrh	r3, [r3, #4]	@ unaligned
 1498 0292 A380     		strh	r3, [r4, #4]	@ unaligned
 327:Funciones.c   ****             displayMenu(Menus.Letra,30,0,0,2);
 1499              		.loc 1 327 0
 1500 0294 0225     		movs	r5, #2
 1501 0296 0095     		str	r5, [sp]
 1502 0298 0023     		movs	r3, #0
 1503 029a 1A46     		mov	r2, r3
 1504 029c 1E21     		movs	r1, #30
 1505 029e 2046     		mov	r0, r4
 1506 02a0 FFF7FEFF 		bl	displayMenu
 1507              	.LVL183:
 328:Funciones.c   ****             strcpy(Menus.Letra,"Correcta");
 1508              		.loc 1 328 0
 1509 02a4 1B4B     		ldr	r3, .L84+44
 1510 02a6 03CB     		ldmia	r3!, {r0, r1}
 1511 02a8 2060     		str	r0, [r4]	@ unaligned
 1512 02aa 6160     		str	r1, [r4, #4]	@ unaligned
 1513 02ac 1B78     		ldrb	r3, [r3]	@ zero_extendqisi2
 1514 02ae 2372     		strb	r3, [r4, #8]
 329:Funciones.c   ****             displayMenu(Menus.Letra,15,30,0,2);
 1515              		.loc 1 329 0
 1516 02b0 0095     		str	r5, [sp]
 1517 02b2 0023     		movs	r3, #0
 1518 02b4 1E22     		movs	r2, #30
 1519 02b6 0F21     		movs	r1, #15
 1520 02b8 2046     		mov	r0, r4
 1521 02ba FFF7FEFF 		bl	displayMenu
 1522              	.LVL184:
 330:Funciones.c   ****             Menu=MenuPost;glcd_update();CyDelay(1000);glcd_fillScreen(OFF);
 1523              		.loc 1 330 0
 1524 02be 134B     		ldr	r3, .L84+36
 1525 02c0 1E70     		strb	r6, [r3]
 1526 02c2 FFF7FEFF 		bl	glcd_update
 1527              	.LVL185:
 1528 02c6 4FF47A70 		mov	r0, #1000
 1529 02ca FFF7FEFF 		bl	CyDelay
 1530              	.LVL186:
 1531 02ce 0020     		movs	r0, #0
 1532 02d0 FFF7FEFF 		bl	glcd_fillScreen
 1533              	.LVL187:
 331:Funciones.c   ****             Contrasena[0]=0;Contrasena[1]=0;Contrasena[2]=0;Contrasena[3]=0;
 1534              		.loc 1 331 0
 1535 02d4 054A     		ldr	r2, .L84+4
 1536 02d6 0023     		movs	r3, #0
 1537 02d8 1370     		strb	r3, [r2]
 1538 02da 5370     		strb	r3, [r2, #1]
ARM GAS  C:\Users\USUARIO\AppData\Local\Temp\ccgyuR3R.s 			page 34


 1539 02dc 9370     		strb	r3, [r2, #2]
 1540 02de D370     		strb	r3, [r2, #3]
 332:Funciones.c   ****             n=0;
 1541              		.loc 1 332 0
 1542 02e0 014A     		ldr	r2, .L84
 1543 02e2 1370     		strb	r3, [r2]
 333:Funciones.c   ****             return 1;
 1544              		.loc 1 333 0
 1545 02e4 0120     		movs	r0, #1
 1546 02e6 87E0     		b	.L80
 1547              	.L85:
 1548              		.align	2
 1549              	.L84:
 1550 02e8 00000000 		.word	n
 1551 02ec 00000000 		.word	Contrasena
 1552 02f0 00000000 		.word	Menus
 1553 02f4 00000000 		.word	.LC0
 1554 02f8 00000000 		.word	Flanco
 1555 02fc 00000000 		.word	i
 1556 0300 00000000 		.word	unidad
 1557 0304 00000000 		.word	Flanco2
 1558 0308 00000000 		.word	Flanco1
 1559 030c 00000000 		.word	Menu
 1560 0310 00000000 		.word	Opcion
 1561 0314 08000000 		.word	.LC1
 1562              	.L81:
 334:Funciones.c   ****          }else{
 335:Funciones.c   ****             glcd_fillScreen(OFF);
 1563              		.loc 1 335 0
 1564 0318 0020     		movs	r0, #0
 1565 031a FFF7FEFF 		bl	glcd_fillScreen
 1566              	.LVL188:
 336:Funciones.c   ****             strcpy(Menus.Letra,"Clave");
 1567              		.loc 1 336 0
 1568 031e 384E     		ldr	r6, .L86
 1569 0320 DFF8F490 		ldr	r9, .L86+24
 1570 0324 D9F80000 		ldr	r0, [r9]	@ unaligned
 1571 0328 3060     		str	r0, [r6]	@ unaligned
 1572 032a B9F804A0 		ldrh	r10, [r9, #4]	@ unaligned
 1573 032e A6F804A0 		strh	r10, [r6, #4]	@ unaligned
 337:Funciones.c   ****             displayMenu(Menus.Letra,30,0,0,2);
 1574              		.loc 1 337 0
 1575 0332 0225     		movs	r5, #2
 1576 0334 0095     		str	r5, [sp]
 1577 0336 0023     		movs	r3, #0
 1578 0338 1A46     		mov	r2, r3
 1579 033a 1E21     		movs	r1, #30
 1580 033c 3046     		mov	r0, r6
 1581 033e FFF7FEFF 		bl	displayMenu
 1582              	.LVL189:
 338:Funciones.c   ****             strcpy(Menus.Letra,"Incorrecta");
 1583              		.loc 1 338 0
 1584 0342 304B     		ldr	r3, .L86+4
 1585 0344 03CB     		ldmia	r3!, {r0, r1}
 1586 0346 3060     		str	r0, [r6]	@ unaligned
 1587 0348 7160     		str	r1, [r6, #4]	@ unaligned
 1588 034a 1A88     		ldrh	r2, [r3]	@ unaligned
ARM GAS  C:\Users\USUARIO\AppData\Local\Temp\ccgyuR3R.s 			page 35


 1589 034c 9B78     		ldrb	r3, [r3, #2]	@ zero_extendqisi2
 1590 034e 3281     		strh	r2, [r6, #8]	@ unaligned
 1591 0350 B372     		strb	r3, [r6, #10]
 339:Funciones.c   ****             displayMenu(Menus.Letra,0,30,0,2);
 1592              		.loc 1 339 0
 1593 0352 0095     		str	r5, [sp]
 1594 0354 0023     		movs	r3, #0
 1595 0356 1E22     		movs	r2, #30
 1596 0358 1946     		mov	r1, r3
 1597 035a 3046     		mov	r0, r6
 1598 035c FFF7FEFF 		bl	displayMenu
 1599              	.LVL190:
 340:Funciones.c   ****             unidad=1;glcd_update();CyDelay(1000);Contrasena[0]=0;Contrasena[1]=0;Contrasena[2]=0;Co
 1600              		.loc 1 340 0
 1601 0360 4FF00108 		mov	r8, #1
 1602 0364 284B     		ldr	r3, .L86+8
 1603 0366 83F80080 		strb	r8, [r3]
 1604 036a FFF7FEFF 		bl	glcd_update
 1605              	.LVL191:
 1606 036e 4FF47A70 		mov	r0, #1000
 1607 0372 FFF7FEFF 		bl	CyDelay
 1608              	.LVL192:
 1609 0376 254F     		ldr	r7, .L86+12
 1610 0378 0025     		movs	r5, #0
 1611 037a 3D70     		strb	r5, [r7]
 1612 037c 7D70     		strb	r5, [r7, #1]
 1613 037e BD70     		strb	r5, [r7, #2]
 1614 0380 FD70     		strb	r5, [r7, #3]
 1615 0382 2846     		mov	r0, r5
 1616 0384 FFF7FEFF 		bl	glcd_fillScreen
 1617              	.LVL193:
 341:Funciones.c   ****             glcd_rect(0, 0, 127, 25, YES, ON);strcpy(Menus.Letra,"Clave");glcd_text57(25, 1, Menus.
 1618              		.loc 1 341 0
 1619 0388 CDF80480 		str	r8, [sp, #4]
 1620 038c CDF80080 		str	r8, [sp]
 1621 0390 1923     		movs	r3, #25
 1622 0392 7F22     		movs	r2, #127
 1623 0394 2946     		mov	r1, r5
 1624 0396 2846     		mov	r0, r5
 1625 0398 FFF7FEFF 		bl	glcd_rect
 1626              	.LVL194:
 1627 039c D9F80000 		ldr	r0, [r9]	@ unaligned
 1628 03a0 3060     		str	r0, [r6]	@ unaligned
 1629 03a2 A6F804A0 		strh	r10, [r6, #4]	@ unaligned
 1630 03a6 0095     		str	r5, [sp]
 1631 03a8 0323     		movs	r3, #3
 1632 03aa 3246     		mov	r2, r6
 1633 03ac 4146     		mov	r1, r8
 1634 03ae 1920     		movs	r0, #25
 1635 03b0 FFF7FEFF 		bl	glcd_text57
 1636              	.LVL195:
 1637 03b4 4346     		mov	r3, r8
 1638 03b6 1E22     		movs	r2, #30
 1639 03b8 1421     		movs	r1, #20
 1640 03ba 3878     		ldrb	r0, [r7]	@ zero_extendqisi2
 1641 03bc FFF7FEFF 		bl	displayContrasena
 1642              	.LVL196:
ARM GAS  C:\Users\USUARIO\AppData\Local\Temp\ccgyuR3R.s 			page 36


 342:Funciones.c   ****             displayContrasena(Contrasena[1],40,30,0);displayContrasena(Contrasena[2],60,30,0);displ
 1643              		.loc 1 342 0
 1644 03c0 2B46     		mov	r3, r5
 1645 03c2 1E22     		movs	r2, #30
 1646 03c4 2821     		movs	r1, #40
 1647 03c6 7878     		ldrb	r0, [r7, #1]	@ zero_extendqisi2
 1648 03c8 FFF7FEFF 		bl	displayContrasena
 1649              	.LVL197:
 1650 03cc 2B46     		mov	r3, r5
 1651 03ce 1E22     		movs	r2, #30
 1652 03d0 3C21     		movs	r1, #60
 1653 03d2 B878     		ldrb	r0, [r7, #2]	@ zero_extendqisi2
 1654 03d4 FFF7FEFF 		bl	displayContrasena
 1655              	.LVL198:
 1656 03d8 2B46     		mov	r3, r5
 1657 03da 1E22     		movs	r2, #30
 1658 03dc 5021     		movs	r1, #80
 1659 03de 3878     		ldrb	r0, [r7]	@ zero_extendqisi2
 1660 03e0 FFF7FEFF 		bl	displayContrasena
 1661              	.LVL199:
 343:Funciones.c   ****             Menu=MenuAnt;glcd_fillScreen(OFF);n=0;
 1662              		.loc 1 343 0
 1663 03e4 0A4B     		ldr	r3, .L86+16
 1664 03e6 1C70     		strb	r4, [r3]
 1665 03e8 2846     		mov	r0, r5
 1666 03ea FFF7FEFF 		bl	glcd_fillScreen
 1667              	.LVL200:
 1668 03ee 094B     		ldr	r3, .L86+20
 1669 03f0 1D70     		strb	r5, [r3]
 344:Funciones.c   ****             return 0;
 1670              		.loc 1 344 0
 1671 03f2 2846     		mov	r0, r5
 1672 03f4 00E0     		b	.L80
 1673              	.L82:
 345:Funciones.c   ****          }
 346:Funciones.c   ****       }else{
 347:Funciones.c   ****         return 0;
 1674              		.loc 1 347 0
 1675 03f6 0020     		movs	r0, #0
 1676              	.L80:
 348:Funciones.c   ****       }
 349:Funciones.c   **** }
 1677              		.loc 1 349 0
 1678 03f8 02B0     		add	sp, sp, #8
 1679              		.cfi_def_cfa_offset 32
 1680              		@ sp needed
 1681 03fa BDE8F087 		pop	{r4, r5, r6, r7, r8, r9, r10, pc}
 1682              	.LVL201:
 1683              	.L87:
 1684 03fe 00BF     		.align	2
 1685              	.L86:
 1686 0400 00000000 		.word	Menus
 1687 0404 14000000 		.word	.LC2
 1688 0408 00000000 		.word	unidad
 1689 040c 00000000 		.word	Contrasena
 1690 0410 00000000 		.word	Menu
 1691 0414 00000000 		.word	n
ARM GAS  C:\Users\USUARIO\AppData\Local\Temp\ccgyuR3R.s 			page 37


 1692 0418 00000000 		.word	.LC0
 1693              		.cfi_endproc
 1694              	.LFE69:
 1695              		.size	PidePassword, .-PidePassword
 1696              		.section	.text.MuestraSegmento,"ax",%progbits
 1697              		.align	2
 1698              		.global	MuestraSegmento
 1699              		.thumb
 1700              		.thumb_func
 1701              		.type	MuestraSegmento, %function
 1702              	MuestraSegmento:
 1703              	.LFB70:
 350:Funciones.c   **** 
 351:Funciones.c   **** void MuestraSegmento(uint8 Opcio,uint8 l,uint8 Prog ){
 1704              		.loc 1 351 0
 1705              		.cfi_startproc
 1706              		@ args = 0, pretend = 0, frame = 0
 1707              		@ frame_needed = 0, uses_anonymous_args = 0
 1708              	.LVL202:
 1709 0000 2DE9F047 		push	{r4, r5, r6, r7, r8, r9, r10, lr}
 1710              		.cfi_def_cfa_offset 32
 1711              		.cfi_offset 4, -32
 1712              		.cfi_offset 5, -28
 1713              		.cfi_offset 6, -24
 1714              		.cfi_offset 7, -20
 1715              		.cfi_offset 8, -16
 1716              		.cfi_offset 9, -12
 1717              		.cfi_offset 10, -8
 1718              		.cfi_offset 14, -4
 1719 0004 82B0     		sub	sp, sp, #8
 1720              		.cfi_def_cfa_offset 40
 1721 0006 8046     		mov	r8, r0
 1722 0008 0F46     		mov	r7, r1
 1723 000a 1646     		mov	r6, r2
 352:Funciones.c   ****          if(Temperatura1[l+((Prog-1)*Pasos)]>1200)
 1724              		.loc 1 352 0
 1725 000c 02F1FF39 		add	r9, r2, #-1
 1726 0010 4FEA0919 		lsl	r9, r9, #4
 1727 0014 01EB0905 		add	r5, r1, r9
 1728 0018 BB4B     		ldr	r3, .L119
 1729 001a 33F91530 		ldrsh	r3, [r3, r5, lsl #1]
 1730 001e B3F5966F 		cmp	r3, #1200
 1731 0022 03DD     		ble	.L89
 353:Funciones.c   ****             Temperatura1[l+((Prog-1)*Pasos)]=0;
 1732              		.loc 1 353 0
 1733 0024 0022     		movs	r2, #0
 1734              	.LVL203:
 1735 0026 B84B     		ldr	r3, .L119
 1736 0028 23F81520 		strh	r2, [r3, r5, lsl #1]	@ movhi
 1737              	.L89:
 354:Funciones.c   ****          
 355:Funciones.c   ****          if(Temperatura1[l+((Prog-1)*Pasos)]<0)
 1738              		.loc 1 355 0
 1739 002c B64B     		ldr	r3, .L119
 1740 002e 33F91530 		ldrsh	r3, [r3, r5, lsl #1]
 1741 0032 002B     		cmp	r3, #0
 1742 0034 04DA     		bge	.L90
ARM GAS  C:\Users\USUARIO\AppData\Local\Temp\ccgyuR3R.s 			page 38


 356:Funciones.c   ****             Temperatura1[l+((Prog-1)*Pasos)]=1200;
 1743              		.loc 1 356 0
 1744 0036 4FF49662 		mov	r2, #1200
 1745 003a B34B     		ldr	r3, .L119
 1746 003c 23F81520 		strh	r2, [r3, r5, lsl #1]	@ movhi
 1747              	.L90:
 357:Funciones.c   ****          
 358:Funciones.c   ****          if(Temperatura1[l+((Prog-1)*Pasos)]>1100)
 1748              		.loc 1 358 0
 1749 0040 B14B     		ldr	r3, .L119
 1750 0042 33F91520 		ldrsh	r2, [r3, r5, lsl #1]
 1751 0046 40F24C43 		movw	r3, #1100
 1752 004a 9A42     		cmp	r2, r3
 1753 004c 03DD     		ble	.L91
 359:Funciones.c   ****             Horas1[l+((Prog-1)*Pasos)]=0;
 1754              		.loc 1 359 0
 1755 004e 0022     		movs	r2, #0
 1756 0050 AE4B     		ldr	r3, .L119+4
 1757 0052 23F81520 		strh	r2, [r3, r5, lsl #1]	@ movhi
 1758              	.L91:
 360:Funciones.c   ****          
 361:Funciones.c   ****          strcpy(Menus.Letra,"P 0");
 1759              		.loc 1 361 0
 1760 0056 AE4C     		ldr	r4, .L119+8
 1761 0058 AE4B     		ldr	r3, .L119+12
 1762 005a 1868     		ldr	r0, [r3]	@ unaligned
 1763              	.LVL204:
 1764 005c 2060     		str	r0, [r4]	@ unaligned
 362:Funciones.c   ****          displayMenu(Menus.Letra,30,0,1,2);
 1765              		.loc 1 362 0
 1766 005e 4FF0020A 		mov	r10, #2
 1767 0062 CDF800A0 		str	r10, [sp]
 1768 0066 0123     		movs	r3, #1
 1769 0068 0022     		movs	r2, #0
 1770 006a 1E21     		movs	r1, #30
 1771              	.LVL205:
 1772 006c 2046     		mov	r0, r4
 1773 006e FFF7FEFF 		bl	displayMenu
 1774              	.LVL206:
 363:Funciones.c   ****          displayTiempo(Prog,68,0,1,2);
 1775              		.loc 1 363 0
 1776 0072 CDF800A0 		str	r10, [sp]
 1777 0076 0123     		movs	r3, #1
 1778 0078 0022     		movs	r2, #0
 1779 007a 4421     		movs	r1, #68
 1780 007c 3046     		mov	r0, r6
 1781 007e FFF7FEFF 		bl	displayTiempo
 1782              	.LVL207:
 364:Funciones.c   ****          
 365:Funciones.c   ****          strcpy(Menus.Letra,"Segmento ");
 1783              		.loc 1 365 0
 1784 0082 A54B     		ldr	r3, .L119+16
 1785 0084 03CB     		ldmia	r3!, {r0, r1}
 1786 0086 2060     		str	r0, [r4]	@ unaligned
 1787 0088 6160     		str	r1, [r4, #4]	@ unaligned
 1788 008a 1B88     		ldrh	r3, [r3]	@ unaligned
 1789 008c 2381     		strh	r3, [r4, #8]	@ unaligned
ARM GAS  C:\Users\USUARIO\AppData\Local\Temp\ccgyuR3R.s 			page 39


 366:Funciones.c   ****          displayMenu(Menus.Letra,0,20,1,1);
 1790              		.loc 1 366 0
 1791 008e 0126     		movs	r6, #1
 1792 0090 0096     		str	r6, [sp]
 1793 0092 3346     		mov	r3, r6
 1794 0094 1422     		movs	r2, #20
 1795 0096 0021     		movs	r1, #0
 1796 0098 2046     		mov	r0, r4
 1797 009a FFF7FEFF 		bl	displayMenu
 1798              	.LVL208:
 367:Funciones.c   ****          displayTiempo(l,63,20,1,1);
 1799              		.loc 1 367 0
 1800 009e 0096     		str	r6, [sp]
 1801 00a0 3346     		mov	r3, r6
 1802 00a2 1422     		movs	r2, #20
 1803 00a4 3F21     		movs	r1, #63
 1804 00a6 3846     		mov	r0, r7
 1805 00a8 FFF7FEFF 		bl	displayTiempo
 1806              	.LVL209:
 368:Funciones.c   ****          
 369:Funciones.c   ****          strcpy(Menus.Letra,"TA:");
 1807              		.loc 1 369 0
 1808 00ac 9B4B     		ldr	r3, .L119+20
 1809 00ae 1868     		ldr	r0, [r3]	@ unaligned
 1810 00b0 2060     		str	r0, [r4]	@ unaligned
 370:Funciones.c   ****          displayMenu(Menus.Letra,80,20,3,1);
 1811              		.loc 1 370 0
 1812 00b2 0096     		str	r6, [sp]
 1813 00b4 0323     		movs	r3, #3
 1814 00b6 1422     		movs	r2, #20
 1815 00b8 5021     		movs	r1, #80
 1816 00ba 2046     		mov	r0, r4
 1817 00bc FFF7FEFF 		bl	displayMenu
 1818              	.LVL210:
 371:Funciones.c   ****          
 372:Funciones.c   ****          if(l>0)
 1819              		.loc 1 372 0
 1820 00c0 57B1     		cbz	r7, .L92
 373:Funciones.c   ****             displayTemperatura(Temperatura1[l-1+((Prog-1)*Pasos)],100,20,1,1);
 1821              		.loc 1 373 0
 1822 00c2 7B1E     		subs	r3, r7, #1
 1823 00c4 4B44     		add	r3, r3, r9
 1824 00c6 904A     		ldr	r2, .L119
 1825 00c8 32F91300 		ldrsh	r0, [r2, r3, lsl #1]
 1826 00cc 3346     		mov	r3, r6
 1827 00ce 0096     		str	r6, [sp]
 1828 00d0 1422     		movs	r2, #20
 1829 00d2 6421     		movs	r1, #100
 1830 00d4 FFF7FEFF 		bl	displayTemperatura
 1831              	.LVL211:
 1832              	.L92:
 374:Funciones.c   ****          
 375:Funciones.c   ****          if(Opcio==1){
 1833              		.loc 1 375 0
 1834 00d8 B8F1010F 		cmp	r8, #1
 1835 00dc 40F0AC80 		bne	.L93
 376:Funciones.c   ****             strcpy(Menus.Letra,"Temperatura:");
ARM GAS  C:\Users\USUARIO\AppData\Local\Temp\ccgyuR3R.s 			page 40


 1836              		.loc 1 376 0
 1837 00e0 8B4C     		ldr	r4, .L119+8
 1838 00e2 8F4B     		ldr	r3, .L119+24
 1839 00e4 07CB     		ldmia	r3!, {r0, r1, r2}
 1840 00e6 2060     		str	r0, [r4]	@ unaligned
 1841 00e8 6160     		str	r1, [r4, #4]	@ unaligned
 1842 00ea A260     		str	r2, [r4, #8]	@ unaligned
 1843 00ec 1B78     		ldrb	r3, [r3]	@ zero_extendqisi2
 1844 00ee 2373     		strb	r3, [r4, #12]
 377:Funciones.c   ****             displayTemps(Menus.Letra,Temperatura1[l+((Prog-1)*Pasos)],0,32,1,1);
 1845              		.loc 1 377 0
 1846 00f0 854B     		ldr	r3, .L119
 1847 00f2 33F81510 		ldrh	r1, [r3, r5, lsl #1]
 1848 00f6 0126     		movs	r6, #1
 1849 00f8 0196     		str	r6, [sp, #4]
 1850 00fa 0096     		str	r6, [sp]
 1851 00fc 2023     		movs	r3, #32
 1852 00fe 0022     		movs	r2, #0
 1853 0100 2046     		mov	r0, r4
 1854 0102 FFF7FEFF 		bl	displayTemps
 1855              	.LVL212:
 378:Funciones.c   ****             strcpy(Menus.Letra,"Horas:");
 1856              		.loc 1 378 0
 1857 0106 874B     		ldr	r3, .L119+28
 1858 0108 1868     		ldr	r0, [r3]	@ unaligned
 1859 010a 2060     		str	r0, [r4]	@ unaligned
 1860 010c 9A88     		ldrh	r2, [r3, #4]	@ unaligned
 1861 010e 9B79     		ldrb	r3, [r3, #6]	@ zero_extendqisi2
 1862 0110 A280     		strh	r2, [r4, #4]	@ unaligned
 1863 0112 A371     		strb	r3, [r4, #6]
 379:Funciones.c   ****             displayTemps(Menus.Letra,Horas1[l+((Prog-1)*Pasos)],0,44,10,1);
 1864              		.loc 1 379 0
 1865 0114 7D4B     		ldr	r3, .L119+4
 1866 0116 33F81510 		ldrh	r1, [r3, r5, lsl #1]
 1867 011a 0196     		str	r6, [sp, #4]
 1868 011c 4FF00A0A 		mov	r10, #10
 1869 0120 CDF800A0 		str	r10, [sp]
 1870 0124 2C23     		movs	r3, #44
 1871 0126 0022     		movs	r2, #0
 1872 0128 2046     		mov	r0, r4
 1873 012a FFF7FEFF 		bl	displayTemps
 1874              	.LVL213:
 380:Funciones.c   ****             strcpy(Menus.Letra,"Minutos:");
 1875              		.loc 1 380 0
 1876 012e 7E4B     		ldr	r3, .L119+32
 1877 0130 03CB     		ldmia	r3!, {r0, r1}
 1878 0132 2060     		str	r0, [r4]	@ unaligned
 1879 0134 6160     		str	r1, [r4, #4]	@ unaligned
 1880 0136 1B78     		ldrb	r3, [r3]	@ zero_extendqisi2
 1881 0138 2372     		strb	r3, [r4, #8]
 381:Funciones.c   ****             displayTemps(Menus.Letra,Minutos1[l+((Prog-1)*Pasos)],0,55,10,1);
 1882              		.loc 1 381 0
 1883 013a 7C4B     		ldr	r3, .L119+36
 1884 013c 33F81510 		ldrh	r1, [r3, r5, lsl #1]
 1885 0140 0196     		str	r6, [sp, #4]
 1886 0142 CDF800A0 		str	r10, [sp]
 1887 0146 3723     		movs	r3, #55
ARM GAS  C:\Users\USUARIO\AppData\Local\Temp\ccgyuR3R.s 			page 41


 1888 0148 0022     		movs	r2, #0
 1889 014a 2046     		mov	r0, r4
 1890 014c FFF7FEFF 		bl	displayTemps
 1891              	.LVL214:
 382:Funciones.c   ****             if(UP_Read()==0)//Si oprime hacia arriba
 1892              		.loc 1 382 0
 1893 0150 FFF7FEFF 		bl	UP_Read
 1894              	.LVL215:
 1895 0154 90BB     		cbnz	r0, .L94
 383:Funciones.c   ****             {
 384:Funciones.c   ****                BUZZER_Write(1);CyDelay(10);BUZZER_Write(0);
 1896              		.loc 1 384 0
 1897 0156 3046     		mov	r0, r6
 1898 0158 FFF7FEFF 		bl	BUZZER_Write
 1899              	.LVL216:
 1900 015c 5046     		mov	r0, r10
 1901 015e FFF7FEFF 		bl	CyDelay
 1902              	.LVL217:
 1903 0162 0020     		movs	r0, #0
 1904 0164 FFF7FEFF 		bl	BUZZER_Write
 1905              	.LVL218:
 385:Funciones.c   ****                if(tiempoup<4){
 1906              		.loc 1 385 0
 1907 0168 714B     		ldr	r3, .L119+40
 1908 016a 1B88     		ldrh	r3, [r3]
 1909 016c 032B     		cmp	r3, #3
 1910 016e 08D8     		bhi	.L95
 386:Funciones.c   ****                   flagup=1;
 1911              		.loc 1 386 0
 1912 0170 704B     		ldr	r3, .L119+44
 1913 0172 1E80     		strh	r6, [r3]	@ movhi
 387:Funciones.c   ****                   Temperatura1[l+((Prog-1)*Pasos)]++;
 1914              		.loc 1 387 0
 1915 0174 644A     		ldr	r2, .L119
 1916 0176 32F91530 		ldrsh	r3, [r2, r5, lsl #1]
 1917 017a 3344     		add	r3, r3, r6
 1918 017c 22F81530 		strh	r3, [r2, r5, lsl #1]	@ movhi
 1919 0180 08E0     		b	.L96
 1920              	.L95:
 388:Funciones.c   ****                }
 389:Funciones.c   ****                else{
 390:Funciones.c   ****                   flagup=0;
 1921              		.loc 1 390 0
 1922 0182 0022     		movs	r2, #0
 1923 0184 6B4B     		ldr	r3, .L119+44
 1924 0186 1A80     		strh	r2, [r3]	@ movhi
 391:Funciones.c   ****                   Temperatura1[l+((Prog-1)*Pasos)]+=10;
 1925              		.loc 1 391 0
 1926 0188 5F4A     		ldr	r2, .L119
 1927 018a 32F81530 		ldrh	r3, [r2, r5, lsl #1]
 1928 018e 0A33     		adds	r3, r3, #10
 1929 0190 22F81530 		strh	r3, [r2, r5, lsl #1]	@ movhi
 1930              	.L96:
 392:Funciones.c   ****                } 
 393:Funciones.c   ****                if(l<Pasos-1)
 1931              		.loc 1 393 0
 1932 0194 0E2F     		cmp	r7, #14
ARM GAS  C:\Users\USUARIO\AppData\Local\Temp\ccgyuR3R.s 			page 42


 1933 0196 06D8     		bhi	.L97
 394:Funciones.c   ****                   Temperatura1[l+1+((Prog-1)*Pasos)]=Temperatura1[l+((Prog-1)*Pasos)]; 
 1934              		.loc 1 394 0
 1935 0198 7B1C     		adds	r3, r7, #1
 1936 019a 4B44     		add	r3, r3, r9
 1937 019c 5A4A     		ldr	r2, .L119
 1938 019e 32F91510 		ldrsh	r1, [r2, r5, lsl #1]
 1939 01a2 22F81310 		strh	r1, [r2, r3, lsl #1]	@ movhi
 1940              	.L97:
 395:Funciones.c   ****                   
 396:Funciones.c   ****                if(Temperatura1[l+((Prog-1)*Pasos)]>1200)
 1941              		.loc 1 396 0
 1942 01a6 584B     		ldr	r3, .L119
 1943 01a8 33F91530 		ldrsh	r3, [r3, r5, lsl #1]
 1944 01ac B3F5966F 		cmp	r3, #1200
 1945 01b0 09DD     		ble	.L98
 397:Funciones.c   ****                   Temperatura1[l+((Prog-1)*Pasos)]=0;
 1946              		.loc 1 397 0
 1947 01b2 0022     		movs	r2, #0
 1948 01b4 544B     		ldr	r3, .L119
 1949 01b6 23F81520 		strh	r2, [r3, r5, lsl #1]	@ movhi
 1950 01ba 04E0     		b	.L98
 1951              	.L94:
 398:Funciones.c   ****             }
 399:Funciones.c   ****             else
 400:Funciones.c   ****             {
 401:Funciones.c   ****                flagup=0;tiempoup=0;
 1952              		.loc 1 401 0
 1953 01bc 0023     		movs	r3, #0
 1954 01be 5D4A     		ldr	r2, .L119+44
 1955 01c0 1380     		strh	r3, [r2]	@ movhi
 1956 01c2 5B4A     		ldr	r2, .L119+40
 1957 01c4 1380     		strh	r3, [r2]	@ movhi
 1958              	.L98:
 402:Funciones.c   ****             }
 403:Funciones.c   ****                      
 404:Funciones.c   ****             if(DOWN_Read()==0)//Si oprime hacia abajo
 1959              		.loc 1 404 0
 1960 01c6 FFF7FEFF 		bl	DOWN_Read
 1961              	.LVL219:
 1962 01ca 80BB     		cbnz	r0, .L99
 405:Funciones.c   ****             {
 406:Funciones.c   ****                BUZZER_Write(1);CyDelay(10);BUZZER_Write(0);
 1963              		.loc 1 406 0
 1964 01cc 0120     		movs	r0, #1
 1965 01ce FFF7FEFF 		bl	BUZZER_Write
 1966              	.LVL220:
 1967 01d2 0A20     		movs	r0, #10
 1968 01d4 FFF7FEFF 		bl	CyDelay
 1969              	.LVL221:
 1970 01d8 0020     		movs	r0, #0
 1971 01da FFF7FEFF 		bl	BUZZER_Write
 1972              	.LVL222:
 407:Funciones.c   ****                if(tiempodn<4){
 1973              		.loc 1 407 0
 1974 01de 564B     		ldr	r3, .L119+48
 1975 01e0 1B88     		ldrh	r3, [r3]
ARM GAS  C:\Users\USUARIO\AppData\Local\Temp\ccgyuR3R.s 			page 43


 1976 01e2 032B     		cmp	r3, #3
 1977 01e4 09D8     		bhi	.L100
 408:Funciones.c   ****                   flagdn=1;
 1978              		.loc 1 408 0
 1979 01e6 0122     		movs	r2, #1
 1980 01e8 544B     		ldr	r3, .L119+52
 1981 01ea 1A80     		strh	r2, [r3]	@ movhi
 409:Funciones.c   ****                   Temperatura1[l+((Prog-1)*Pasos)]--;
 1982              		.loc 1 409 0
 1983 01ec 464A     		ldr	r2, .L119
 1984 01ee 32F91530 		ldrsh	r3, [r2, r5, lsl #1]
 1985 01f2 013B     		subs	r3, r3, #1
 1986 01f4 22F81530 		strh	r3, [r2, r5, lsl #1]	@ movhi
 1987 01f8 08E0     		b	.L101
 1988              	.L100:
 410:Funciones.c   ****                }
 411:Funciones.c   ****                else{
 412:Funciones.c   ****                   flagdn=0;
 1989              		.loc 1 412 0
 1990 01fa 0022     		movs	r2, #0
 1991 01fc 4F4B     		ldr	r3, .L119+52
 1992 01fe 1A80     		strh	r2, [r3]	@ movhi
 413:Funciones.c   ****                   Temperatura1[l+((Prog-1)*Pasos)]-=10;
 1993              		.loc 1 413 0
 1994 0200 414A     		ldr	r2, .L119
 1995 0202 32F81530 		ldrh	r3, [r2, r5, lsl #1]
 1996 0206 0A3B     		subs	r3, r3, #10
 1997 0208 22F81530 		strh	r3, [r2, r5, lsl #1]	@ movhi
 1998              	.L101:
 414:Funciones.c   ****                }
 415:Funciones.c   ****                Temperatura1[l+1+((Prog-1)*Pasos)]=Temperatura1[l+((Prog-1)*Pasos)]; 
 1999              		.loc 1 415 0
 2000 020c 0137     		adds	r7, r7, #1
 2001 020e 4F44     		add	r7, r7, r9
 2002 0210 3D4B     		ldr	r3, .L119
 2003 0212 33F91520 		ldrsh	r2, [r3, r5, lsl #1]
 2004 0216 23F81720 		strh	r2, [r3, r7, lsl #1]	@ movhi
 416:Funciones.c   ****                
 417:Funciones.c   ****                if(Temperatura1[l+((Prog-1)*Pasos)]<0)
 2005              		.loc 1 417 0
 2006 021a 33F91530 		ldrsh	r3, [r3, r5, lsl #1]
 2007 021e 002B     		cmp	r3, #0
 2008 0220 0ADA     		bge	.L93
 418:Funciones.c   ****                   Temperatura1[l+((Prog-1)*Pasos)]=1200;
 2009              		.loc 1 418 0
 2010 0222 4FF49662 		mov	r2, #1200
 2011 0226 384B     		ldr	r3, .L119
 2012 0228 23F81520 		strh	r2, [r3, r5, lsl #1]	@ movhi
 2013 022c 04E0     		b	.L93
 2014              	.L99:
 419:Funciones.c   ****             }
 420:Funciones.c   ****             else{
 421:Funciones.c   ****                flagdn=0;tiempodn=0;
 2015              		.loc 1 421 0
 2016 022e 0023     		movs	r3, #0
 2017 0230 424A     		ldr	r2, .L119+52
 2018 0232 1380     		strh	r3, [r2]	@ movhi
ARM GAS  C:\Users\USUARIO\AppData\Local\Temp\ccgyuR3R.s 			page 44


 2019 0234 404A     		ldr	r2, .L119+48
 2020 0236 1380     		strh	r3, [r2]	@ movhi
 2021              	.L93:
 422:Funciones.c   ****             }
 423:Funciones.c   ****          }
 424:Funciones.c   ****          
 425:Funciones.c   ****          if(Opcio==2){
 2022              		.loc 1 425 0
 2023 0238 B8F1020F 		cmp	r8, #2
 2024 023c 40F0B780 		bne	.L102
 426:Funciones.c   ****             strcpy(Menus.Letra,"Temperatura:");
 2025              		.loc 1 426 0
 2026 0240 334C     		ldr	r4, .L119+8
 2027 0242 374B     		ldr	r3, .L119+24
 2028 0244 07CB     		ldmia	r3!, {r0, r1, r2}
 2029 0246 2060     		str	r0, [r4]	@ unaligned
 2030 0248 6160     		str	r1, [r4, #4]	@ unaligned
 2031 024a A260     		str	r2, [r4, #8]	@ unaligned
 2032 024c 1B78     		ldrb	r3, [r3]	@ zero_extendqisi2
 2033 024e 2373     		strb	r3, [r4, #12]
 427:Funciones.c   ****             displayTemps(Menus.Letra,Temperatura1[l+((Prog-1)*Pasos)],0,32,0,1);
 2034              		.loc 1 427 0
 2035 0250 2D4B     		ldr	r3, .L119
 2036 0252 33F81510 		ldrh	r1, [r3, r5, lsl #1]
 2037 0256 0127     		movs	r7, #1
 2038 0258 0197     		str	r7, [sp, #4]
 2039 025a 0026     		movs	r6, #0
 2040 025c 0096     		str	r6, [sp]
 2041 025e 2023     		movs	r3, #32
 2042 0260 3246     		mov	r2, r6
 2043 0262 2046     		mov	r0, r4
 2044 0264 FFF7FEFF 		bl	displayTemps
 2045              	.LVL223:
 428:Funciones.c   ****             strcpy(Menus.Letra,"Horas:");
 2046              		.loc 1 428 0
 2047 0268 2E4B     		ldr	r3, .L119+28
 2048 026a 1868     		ldr	r0, [r3]	@ unaligned
 2049 026c 2060     		str	r0, [r4]	@ unaligned
 2050 026e 9A88     		ldrh	r2, [r3, #4]	@ unaligned
 2051 0270 9B79     		ldrb	r3, [r3, #6]	@ zero_extendqisi2
 2052 0272 A280     		strh	r2, [r4, #4]	@ unaligned
 2053 0274 A371     		strb	r3, [r4, #6]
 429:Funciones.c   ****             displayTemps(Menus.Letra,Horas1[l+((Prog-1)*Pasos)],0,44,11,1);
 2054              		.loc 1 429 0
 2055 0276 254B     		ldr	r3, .L119+4
 2056 0278 33F81510 		ldrh	r1, [r3, r5, lsl #1]
 2057 027c 0197     		str	r7, [sp, #4]
 2058 027e 0B23     		movs	r3, #11
 2059 0280 0093     		str	r3, [sp]
 2060 0282 2C23     		movs	r3, #44
 2061 0284 3246     		mov	r2, r6
 2062 0286 2046     		mov	r0, r4
 2063 0288 FFF7FEFF 		bl	displayTemps
 2064              	.LVL224:
 430:Funciones.c   ****             strcpy(Menus.Letra,"Minutos:");
 2065              		.loc 1 430 0
 2066 028c 264B     		ldr	r3, .L119+32
ARM GAS  C:\Users\USUARIO\AppData\Local\Temp\ccgyuR3R.s 			page 45


 2067 028e 03CB     		ldmia	r3!, {r0, r1}
 2068 0290 2060     		str	r0, [r4]	@ unaligned
 2069 0292 6160     		str	r1, [r4, #4]	@ unaligned
 2070 0294 1B78     		ldrb	r3, [r3]	@ zero_extendqisi2
 2071 0296 2372     		strb	r3, [r4, #8]
 431:Funciones.c   ****             displayTemps(Menus.Letra,Minutos1[l+((Prog-1)*Pasos)],0,55,10,1);
 2072              		.loc 1 431 0
 2073 0298 244B     		ldr	r3, .L119+36
 2074 029a 33F81510 		ldrh	r1, [r3, r5, lsl #1]
 2075 029e 0197     		str	r7, [sp, #4]
 2076 02a0 0A23     		movs	r3, #10
 2077 02a2 0093     		str	r3, [sp]
 2078 02a4 3723     		movs	r3, #55
 2079 02a6 3246     		mov	r2, r6
 2080 02a8 2046     		mov	r0, r4
 2081 02aa FFF7FEFF 		bl	displayTemps
 2082              	.LVL225:
 432:Funciones.c   ****             if(UP_Read()==0)//Si oprime hacia arriba
 2083              		.loc 1 432 0
 2084 02ae FFF7FEFF 		bl	UP_Read
 2085              	.LVL226:
 2086 02b2 0028     		cmp	r0, #0
 2087 02b4 44D1     		bne	.L103
 433:Funciones.c   ****             {
 434:Funciones.c   ****                BUZZER_Write(1);CyDelay(10);BUZZER_Write(0);
 2088              		.loc 1 434 0
 2089 02b6 3846     		mov	r0, r7
 2090 02b8 FFF7FEFF 		bl	BUZZER_Write
 2091              	.LVL227:
 2092 02bc 0A20     		movs	r0, #10
 2093 02be FFF7FEFF 		bl	CyDelay
 2094              	.LVL228:
 2095 02c2 3046     		mov	r0, r6
 2096 02c4 FFF7FEFF 		bl	BUZZER_Write
 2097              	.LVL229:
 435:Funciones.c   ****                if(tiempoup<4){
 2098              		.loc 1 435 0
 2099 02c8 194B     		ldr	r3, .L119+40
 2100 02ca 1B88     		ldrh	r3, [r3]
 2101 02cc 032B     		cmp	r3, #3
 2102 02ce 08D8     		bhi	.L104
 436:Funciones.c   ****                   flagup=1;
 2103              		.loc 1 436 0
 2104 02d0 184B     		ldr	r3, .L119+44
 2105 02d2 1F80     		strh	r7, [r3]	@ movhi
 437:Funciones.c   ****                   Horas1[l+((Prog-1)*Pasos)]++;
 2106              		.loc 1 437 0
 2107 02d4 0D4A     		ldr	r2, .L119+4
 2108 02d6 32F91530 		ldrsh	r3, [r2, r5, lsl #1]
 2109 02da 3B44     		add	r3, r3, r7
 2110 02dc 22F81530 		strh	r3, [r2, r5, lsl #1]	@ movhi
 2111 02e0 08E0     		b	.L105
 2112              	.L104:
 438:Funciones.c   ****                }
 439:Funciones.c   ****                else{
 440:Funciones.c   ****                   flagup=0;
 2113              		.loc 1 440 0
ARM GAS  C:\Users\USUARIO\AppData\Local\Temp\ccgyuR3R.s 			page 46


 2114 02e2 0022     		movs	r2, #0
 2115 02e4 134B     		ldr	r3, .L119+44
 2116 02e6 1A80     		strh	r2, [r3]	@ movhi
 441:Funciones.c   ****                   Horas1[l+((Prog-1)*Pasos)]+=10;
 2117              		.loc 1 441 0
 2118 02e8 084A     		ldr	r2, .L119+4
 2119 02ea 32F81530 		ldrh	r3, [r2, r5, lsl #1]
 2120 02ee 0A33     		adds	r3, r3, #10
 2121 02f0 22F81530 		strh	r3, [r2, r5, lsl #1]	@ movhi
 2122              	.L105:
 442:Funciones.c   ****                }
 443:Funciones.c   ****                if(Horas1[l+((Prog-1)*Pasos)]>99)
 2123              		.loc 1 443 0
 2124 02f4 054B     		ldr	r3, .L119+4
 2125 02f6 33F91530 		ldrsh	r3, [r3, r5, lsl #1]
 2126 02fa 632B     		cmp	r3, #99
 2127 02fc 25DD     		ble	.L106
 444:Funciones.c   ****                   Horas1[l+((Prog-1)*Pasos)]=0;
 2128              		.loc 1 444 0
 2129 02fe 0022     		movs	r2, #0
 2130 0300 024B     		ldr	r3, .L119+4
 2131 0302 23F81520 		strh	r2, [r3, r5, lsl #1]	@ movhi
 2132 0306 20E0     		b	.L106
 2133              	.L120:
 2134              		.align	2
 2135              	.L119:
 2136 0308 00000000 		.word	Temperatura1
 2137 030c 00000000 		.word	Horas1
 2138 0310 00000000 		.word	Menus
 2139 0314 20000000 		.word	.LC3
 2140 0318 24000000 		.word	.LC4
 2141 031c 30000000 		.word	.LC5
 2142 0320 34000000 		.word	.LC6
 2143 0324 44000000 		.word	.LC7
 2144 0328 4C000000 		.word	.LC8
 2145 032c 00000000 		.word	Minutos1
 2146 0330 00000000 		.word	tiempoup
 2147 0334 00000000 		.word	flagup
 2148 0338 00000000 		.word	tiempodn
 2149 033c 00000000 		.word	flagdn
 2150              	.L103:
 445:Funciones.c   ****             }
 446:Funciones.c   ****             else{
 447:Funciones.c   ****                flagup=0;tiempoup=0;
 2151              		.loc 1 447 0
 2152 0340 0023     		movs	r3, #0
 2153 0342 6B4A     		ldr	r2, .L121
 2154 0344 1380     		strh	r3, [r2]	@ movhi
 2155 0346 6B4A     		ldr	r2, .L121+4
 2156 0348 1380     		strh	r3, [r2]	@ movhi
 2157              	.L106:
 448:Funciones.c   ****             }
 449:Funciones.c   ****                      
 450:Funciones.c   ****             if(DOWN_Read()==0)//Si oprime hacia abajo
 2158              		.loc 1 450 0
 2159 034a FFF7FEFF 		bl	DOWN_Read
 2160              	.LVL230:
ARM GAS  C:\Users\USUARIO\AppData\Local\Temp\ccgyuR3R.s 			page 47


 2161 034e 48BB     		cbnz	r0, .L107
 451:Funciones.c   ****             {
 452:Funciones.c   ****                BUZZER_Write(1);CyDelay(10);BUZZER_Write(0);
 2162              		.loc 1 452 0
 2163 0350 0120     		movs	r0, #1
 2164 0352 FFF7FEFF 		bl	BUZZER_Write
 2165              	.LVL231:
 2166 0356 0A20     		movs	r0, #10
 2167 0358 FFF7FEFF 		bl	CyDelay
 2168              	.LVL232:
 2169 035c 0020     		movs	r0, #0
 2170 035e FFF7FEFF 		bl	BUZZER_Write
 2171              	.LVL233:
 453:Funciones.c   ****                if(tiempodn<4){
 2172              		.loc 1 453 0
 2173 0362 654B     		ldr	r3, .L121+8
 2174 0364 1B88     		ldrh	r3, [r3]
 2175 0366 032B     		cmp	r3, #3
 2176 0368 09D8     		bhi	.L108
 454:Funciones.c   ****                   flagdn=1;
 2177              		.loc 1 454 0
 2178 036a 0122     		movs	r2, #1
 2179 036c 634B     		ldr	r3, .L121+12
 2180 036e 1A80     		strh	r2, [r3]	@ movhi
 455:Funciones.c   ****                   Horas1[l+((Prog-1)*Pasos)]--;
 2181              		.loc 1 455 0
 2182 0370 634A     		ldr	r2, .L121+16
 2183 0372 32F91530 		ldrsh	r3, [r2, r5, lsl #1]
 2184 0376 013B     		subs	r3, r3, #1
 2185 0378 22F81530 		strh	r3, [r2, r5, lsl #1]	@ movhi
 2186 037c 08E0     		b	.L109
 2187              	.L108:
 456:Funciones.c   ****                }
 457:Funciones.c   ****                else{
 458:Funciones.c   ****                   flagdn=0;
 2188              		.loc 1 458 0
 2189 037e 0022     		movs	r2, #0
 2190 0380 5E4B     		ldr	r3, .L121+12
 2191 0382 1A80     		strh	r2, [r3]	@ movhi
 459:Funciones.c   ****                   Horas1[l+((Prog-1)*Pasos)]-=10;
 2192              		.loc 1 459 0
 2193 0384 5E4A     		ldr	r2, .L121+16
 2194 0386 32F81530 		ldrh	r3, [r2, r5, lsl #1]
 2195 038a 0A3B     		subs	r3, r3, #10
 2196 038c 22F81530 		strh	r3, [r2, r5, lsl #1]	@ movhi
 2197              	.L109:
 460:Funciones.c   ****                }
 461:Funciones.c   ****                if(Horas1[l+((Prog-1)*Pasos)]<0)
 2198              		.loc 1 461 0
 2199 0390 5B4B     		ldr	r3, .L121+16
 2200 0392 33F91530 		ldrsh	r3, [r3, r5, lsl #1]
 2201 0396 002B     		cmp	r3, #0
 2202 0398 09DA     		bge	.L102
 462:Funciones.c   ****                   Horas1[l+((Prog-1)*Pasos)]=99;
 2203              		.loc 1 462 0
 2204 039a 6322     		movs	r2, #99
 2205 039c 584B     		ldr	r3, .L121+16
ARM GAS  C:\Users\USUARIO\AppData\Local\Temp\ccgyuR3R.s 			page 48


 2206 039e 23F81520 		strh	r2, [r3, r5, lsl #1]	@ movhi
 2207 03a2 04E0     		b	.L102
 2208              	.L107:
 463:Funciones.c   ****             }
 464:Funciones.c   ****             else{
 465:Funciones.c   ****                flagdn=0;tiempodn=0;
 2209              		.loc 1 465 0
 2210 03a4 0023     		movs	r3, #0
 2211 03a6 554A     		ldr	r2, .L121+12
 2212 03a8 1380     		strh	r3, [r2]	@ movhi
 2213 03aa 534A     		ldr	r2, .L121+8
 2214 03ac 1380     		strh	r3, [r2]	@ movhi
 2215              	.L102:
 466:Funciones.c   ****             }
 467:Funciones.c   ****          }
 468:Funciones.c   ****          
 469:Funciones.c   ****          if(Opcio==3){
 2216              		.loc 1 469 0
 2217 03ae B8F1030F 		cmp	r8, #3
 2218 03b2 40F09A80 		bne	.L88
 470:Funciones.c   ****             strcpy(Menus.Letra,"Temperatura:");
 2219              		.loc 1 470 0
 2220 03b6 534C     		ldr	r4, .L121+20
 2221 03b8 534B     		ldr	r3, .L121+24
 2222 03ba 07CB     		ldmia	r3!, {r0, r1, r2}
 2223 03bc 2060     		str	r0, [r4]	@ unaligned
 2224 03be 6160     		str	r1, [r4, #4]	@ unaligned
 2225 03c0 A260     		str	r2, [r4, #8]	@ unaligned
 2226 03c2 1B78     		ldrb	r3, [r3]	@ zero_extendqisi2
 2227 03c4 2373     		strb	r3, [r4, #12]
 471:Funciones.c   ****             displayTemps(Menus.Letra,Temperatura1[l+((Prog-1)*Pasos)],0,32,0,1);
 2228              		.loc 1 471 0
 2229 03c6 514B     		ldr	r3, .L121+28
 2230 03c8 33F81510 		ldrh	r1, [r3, r5, lsl #1]
 2231 03cc 0127     		movs	r7, #1
 2232 03ce 0197     		str	r7, [sp, #4]
 2233 03d0 0026     		movs	r6, #0
 2234 03d2 0096     		str	r6, [sp]
 2235 03d4 2023     		movs	r3, #32
 2236 03d6 3246     		mov	r2, r6
 2237 03d8 2046     		mov	r0, r4
 2238 03da FFF7FEFF 		bl	displayTemps
 2239              	.LVL234:
 472:Funciones.c   ****             strcpy(Menus.Letra,"Horas:");
 2240              		.loc 1 472 0
 2241 03de 4C4B     		ldr	r3, .L121+32
 2242 03e0 1868     		ldr	r0, [r3]	@ unaligned
 2243 03e2 2060     		str	r0, [r4]	@ unaligned
 2244 03e4 9A88     		ldrh	r2, [r3, #4]	@ unaligned
 2245 03e6 9B79     		ldrb	r3, [r3, #6]	@ zero_extendqisi2
 2246 03e8 A280     		strh	r2, [r4, #4]	@ unaligned
 2247 03ea A371     		strb	r3, [r4, #6]
 473:Funciones.c   ****             displayTemps(Menus.Letra,Horas1[l+((Prog-1)*Pasos)],0,44,10,1);
 2248              		.loc 1 473 0
 2249 03ec 444B     		ldr	r3, .L121+16
 2250 03ee 33F81510 		ldrh	r1, [r3, r5, lsl #1]
 2251 03f2 0197     		str	r7, [sp, #4]
ARM GAS  C:\Users\USUARIO\AppData\Local\Temp\ccgyuR3R.s 			page 49


 2252 03f4 0A23     		movs	r3, #10
 2253 03f6 0093     		str	r3, [sp]
 2254 03f8 2C23     		movs	r3, #44
 2255 03fa 3246     		mov	r2, r6
 2256 03fc 2046     		mov	r0, r4
 2257 03fe FFF7FEFF 		bl	displayTemps
 2258              	.LVL235:
 474:Funciones.c   ****             strcpy(Menus.Letra,"Minutos:");
 2259              		.loc 1 474 0
 2260 0402 444B     		ldr	r3, .L121+36
 2261 0404 03CB     		ldmia	r3!, {r0, r1}
 2262 0406 2060     		str	r0, [r4]	@ unaligned
 2263 0408 6160     		str	r1, [r4, #4]	@ unaligned
 2264 040a 1B78     		ldrb	r3, [r3]	@ zero_extendqisi2
 2265 040c 2372     		strb	r3, [r4, #8]
 475:Funciones.c   ****             displayTemps(Menus.Letra,Minutos1[l+((Prog-1)*Pasos)],0,55,11,1);
 2266              		.loc 1 475 0
 2267 040e 424B     		ldr	r3, .L121+40
 2268 0410 33F81510 		ldrh	r1, [r3, r5, lsl #1]
 2269 0414 0197     		str	r7, [sp, #4]
 2270 0416 0B23     		movs	r3, #11
 2271 0418 0093     		str	r3, [sp]
 2272 041a 3723     		movs	r3, #55
 2273 041c 3246     		mov	r2, r6
 2274 041e 2046     		mov	r0, r4
 2275 0420 FFF7FEFF 		bl	displayTemps
 2276              	.LVL236:
 476:Funciones.c   ****             if(UP_Read()==0)//Si oprime hacia arriba
 2277              		.loc 1 476 0
 2278 0424 FFF7FEFF 		bl	UP_Read
 2279              	.LVL237:
 2280 0428 40BB     		cbnz	r0, .L111
 477:Funciones.c   ****             {
 478:Funciones.c   ****                BUZZER_Write(1);CyDelay(10);BUZZER_Write(0);
 2281              		.loc 1 478 0
 2282 042a 3846     		mov	r0, r7
 2283 042c FFF7FEFF 		bl	BUZZER_Write
 2284              	.LVL238:
 2285 0430 0A20     		movs	r0, #10
 2286 0432 FFF7FEFF 		bl	CyDelay
 2287              	.LVL239:
 2288 0436 3046     		mov	r0, r6
 2289 0438 FFF7FEFF 		bl	BUZZER_Write
 2290              	.LVL240:
 479:Funciones.c   ****                if(tiempoup<4){
 2291              		.loc 1 479 0
 2292 043c 2D4B     		ldr	r3, .L121+4
 2293 043e 1B88     		ldrh	r3, [r3]
 2294 0440 032B     		cmp	r3, #3
 2295 0442 08D8     		bhi	.L112
 480:Funciones.c   ****                   flagup=1;
 2296              		.loc 1 480 0
 2297 0444 2A4B     		ldr	r3, .L121
 2298 0446 1F80     		strh	r7, [r3]	@ movhi
 481:Funciones.c   ****                   Minutos1[l+((Prog-1)*Pasos)]++;
 2299              		.loc 1 481 0
 2300 0448 334A     		ldr	r2, .L121+40
ARM GAS  C:\Users\USUARIO\AppData\Local\Temp\ccgyuR3R.s 			page 50


 2301 044a 32F91530 		ldrsh	r3, [r2, r5, lsl #1]
 2302 044e 3B44     		add	r3, r3, r7
 2303 0450 22F81530 		strh	r3, [r2, r5, lsl #1]	@ movhi
 2304 0454 08E0     		b	.L113
 2305              	.L112:
 482:Funciones.c   ****                }  
 483:Funciones.c   ****                else{
 484:Funciones.c   ****                   flagup=0;
 2306              		.loc 1 484 0
 2307 0456 0022     		movs	r2, #0
 2308 0458 254B     		ldr	r3, .L121
 2309 045a 1A80     		strh	r2, [r3]	@ movhi
 485:Funciones.c   ****                   Minutos1[l+((Prog-1)*Pasos)]+=10;
 2310              		.loc 1 485 0
 2311 045c 2E4A     		ldr	r2, .L121+40
 2312 045e 32F81530 		ldrh	r3, [r2, r5, lsl #1]
 2313 0462 0A33     		adds	r3, r3, #10
 2314 0464 22F81530 		strh	r3, [r2, r5, lsl #1]	@ movhi
 2315              	.L113:
 486:Funciones.c   ****                }
 487:Funciones.c   ****                if(Minutos1[l+((Prog-1)*Pasos)]>59)
 2316              		.loc 1 487 0
 2317 0468 2B4B     		ldr	r3, .L121+40
 2318 046a 33F91530 		ldrsh	r3, [r3, r5, lsl #1]
 2319 046e 3B2B     		cmp	r3, #59
 2320 0470 09DD     		ble	.L114
 488:Funciones.c   ****                   Minutos1[l+((Prog-1)*Pasos)]=0;
 2321              		.loc 1 488 0
 2322 0472 0022     		movs	r2, #0
 2323 0474 284B     		ldr	r3, .L121+40
 2324 0476 23F81520 		strh	r2, [r3, r5, lsl #1]	@ movhi
 2325 047a 04E0     		b	.L114
 2326              	.L111:
 489:Funciones.c   ****             }
 490:Funciones.c   ****             else{
 491:Funciones.c   ****                flagup=0;tiempoup=0;
 2327              		.loc 1 491 0
 2328 047c 0023     		movs	r3, #0
 2329 047e 1C4A     		ldr	r2, .L121
 2330 0480 1380     		strh	r3, [r2]	@ movhi
 2331 0482 1C4A     		ldr	r2, .L121+4
 2332 0484 1380     		strh	r3, [r2]	@ movhi
 2333              	.L114:
 492:Funciones.c   ****             }
 493:Funciones.c   ****                      
 494:Funciones.c   ****             if(DOWN_Read()==0)//Si oprime hacia abajo
 2334              		.loc 1 494 0
 2335 0486 FFF7FEFF 		bl	DOWN_Read
 2336              	.LVL241:
 2337 048a 48BB     		cbnz	r0, .L115
 495:Funciones.c   ****             {
 496:Funciones.c   ****                BUZZER_Write(1);CyDelay(10);BUZZER_Write(0);
 2338              		.loc 1 496 0
 2339 048c 0120     		movs	r0, #1
 2340 048e FFF7FEFF 		bl	BUZZER_Write
 2341              	.LVL242:
 2342 0492 0A20     		movs	r0, #10
ARM GAS  C:\Users\USUARIO\AppData\Local\Temp\ccgyuR3R.s 			page 51


 2343 0494 FFF7FEFF 		bl	CyDelay
 2344              	.LVL243:
 2345 0498 0020     		movs	r0, #0
 2346 049a FFF7FEFF 		bl	BUZZER_Write
 2347              	.LVL244:
 497:Funciones.c   ****                if(tiempodn<4){
 2348              		.loc 1 497 0
 2349 049e 164B     		ldr	r3, .L121+8
 2350 04a0 1B88     		ldrh	r3, [r3]
 2351 04a2 032B     		cmp	r3, #3
 2352 04a4 09D8     		bhi	.L116
 498:Funciones.c   ****                   flagdn=1;
 2353              		.loc 1 498 0
 2354 04a6 0122     		movs	r2, #1
 2355 04a8 144B     		ldr	r3, .L121+12
 2356 04aa 1A80     		strh	r2, [r3]	@ movhi
 499:Funciones.c   ****                   Minutos1[l+((Prog-1)*Pasos)]--;
 2357              		.loc 1 499 0
 2358 04ac 1A4A     		ldr	r2, .L121+40
 2359 04ae 32F91530 		ldrsh	r3, [r2, r5, lsl #1]
 2360 04b2 013B     		subs	r3, r3, #1
 2361 04b4 22F81530 		strh	r3, [r2, r5, lsl #1]	@ movhi
 2362 04b8 08E0     		b	.L117
 2363              	.L116:
 500:Funciones.c   ****                }
 501:Funciones.c   ****                else{
 502:Funciones.c   ****                   flagdn=0;
 2364              		.loc 1 502 0
 2365 04ba 0022     		movs	r2, #0
 2366 04bc 0F4B     		ldr	r3, .L121+12
 2367 04be 1A80     		strh	r2, [r3]	@ movhi
 503:Funciones.c   ****                   Minutos1[l+((Prog-1)*Pasos)]-=10;
 2368              		.loc 1 503 0
 2369 04c0 154A     		ldr	r2, .L121+40
 2370 04c2 32F81530 		ldrh	r3, [r2, r5, lsl #1]
 2371 04c6 0A3B     		subs	r3, r3, #10
 2372 04c8 22F81530 		strh	r3, [r2, r5, lsl #1]	@ movhi
 2373              	.L117:
 504:Funciones.c   ****                }
 505:Funciones.c   ****                if(Minutos1[l+((Prog-1)*Pasos)]<0)
 2374              		.loc 1 505 0
 2375 04cc 124B     		ldr	r3, .L121+40
 2376 04ce 33F91530 		ldrsh	r3, [r3, r5, lsl #1]
 2377 04d2 002B     		cmp	r3, #0
 2378 04d4 09DA     		bge	.L88
 506:Funciones.c   ****                   Minutos1[l+((Prog-1)*Pasos)]=59;
 2379              		.loc 1 506 0
 2380 04d6 3B22     		movs	r2, #59
 2381 04d8 0F4B     		ldr	r3, .L121+40
 2382 04da 23F81520 		strh	r2, [r3, r5, lsl #1]	@ movhi
 2383 04de 04E0     		b	.L88
 2384              	.L115:
 507:Funciones.c   ****             }
 508:Funciones.c   ****             else{
 509:Funciones.c   ****                flagdn=0;tiempodn=0;
 2385              		.loc 1 509 0
 2386 04e0 0023     		movs	r3, #0
ARM GAS  C:\Users\USUARIO\AppData\Local\Temp\ccgyuR3R.s 			page 52


 2387 04e2 064A     		ldr	r2, .L121+12
 2388 04e4 1380     		strh	r3, [r2]	@ movhi
 2389 04e6 044A     		ldr	r2, .L121+8
 2390 04e8 1380     		strh	r3, [r2]	@ movhi
 2391              	.L88:
 510:Funciones.c   ****             }
 511:Funciones.c   ****          }
 512:Funciones.c   **** }
 2392              		.loc 1 512 0
 2393 04ea 02B0     		add	sp, sp, #8
 2394              		.cfi_def_cfa_offset 32
 2395              		@ sp needed
 2396 04ec BDE8F087 		pop	{r4, r5, r6, r7, r8, r9, r10, pc}
 2397              	.L122:
 2398              		.align	2
 2399              	.L121:
 2400 04f0 00000000 		.word	flagup
 2401 04f4 00000000 		.word	tiempoup
 2402 04f8 00000000 		.word	tiempodn
 2403 04fc 00000000 		.word	flagdn
 2404 0500 00000000 		.word	Horas1
 2405 0504 00000000 		.word	Menus
 2406 0508 34000000 		.word	.LC6
 2407 050c 00000000 		.word	Temperatura1
 2408 0510 44000000 		.word	.LC7
 2409 0514 4C000000 		.word	.LC8
 2410 0518 00000000 		.word	Minutos1
 2411              		.cfi_endproc
 2412              	.LFE70:
 2413              		.size	MuestraSegmento, .-MuestraSegmento
 2414              		.comm	displayData,1024,4
 2415              		.comm	Menus,30,4
 2416              		.section	.rodata.str1.4,"aMS",%progbits,1
 2417              		.align	2
 2418              	.LC0:
 2419 0000 436C6176 		.ascii	"Clave\000"
 2419      6500
 2420 0006 0000     		.space	2
 2421              	.LC1:
 2422 0008 436F7272 		.ascii	"Correcta\000"
 2422      65637461 
 2422      00
 2423 0011 000000   		.space	3
 2424              	.LC2:
 2425 0014 496E636F 		.ascii	"Incorrecta\000"
 2425      72726563 
 2425      746100
 2426 001f 00       		.space	1
 2427              	.LC3:
 2428 0020 50203000 		.ascii	"P 0\000"
 2429              	.LC4:
 2430 0024 5365676D 		.ascii	"Segmento \000"
 2430      656E746F 
 2430      2000
 2431 002e 0000     		.space	2
 2432              	.LC5:
 2433 0030 54413A00 		.ascii	"TA:\000"
ARM GAS  C:\Users\USUARIO\AppData\Local\Temp\ccgyuR3R.s 			page 53


 2434              	.LC6:
 2435 0034 54656D70 		.ascii	"Temperatura:\000"
 2435      65726174 
 2435      7572613A 
 2435      00
 2436 0041 000000   		.space	3
 2437              	.LC7:
 2438 0044 486F7261 		.ascii	"Horas:\000"
 2438      733A00
 2439 004b 00       		.space	1
 2440              	.LC8:
 2441 004c 4D696E75 		.ascii	"Minutos:\000"
 2441      746F733A 
 2441      00
 2442              		.text
 2443              	.Letext0:
 2444              		.file 2 "c:\\program files (x86)\\cypress\\psoc creator\\4.3\\psoc creator\\import\\gnu\\arm\\5.4.
 2445              		.file 3 "c:\\program files (x86)\\cypress\\psoc creator\\4.3\\psoc creator\\import\\gnu\\arm\\5.4.
 2446              		.file 4 "Generated_Source\\PSoC5/cytypes.h"
 2447              		.file 5 "./main.h"
 2448              		.file 6 "./ks0108.h"
 2449              		.file 7 "Generated_Source\\PSoC5/core_cm3.h"
 2450              		.file 8 "Generated_Source\\PSoC5/CyLib.h"
 2451              		.file 9 "Generated_Source\\PSoC5/EEPROM.h"
 2452              		.file 10 "Generated_Source\\PSoC5/UP.h"
 2453              		.file 11 "Generated_Source\\PSoC5/DOWN.h"
 2454              		.file 12 "Generated_Source\\PSoC5/RIGHT.h"
 2455              		.file 13 "Generated_Source\\PSoC5/LEFT.h"
 2456              		.file 14 "Generated_Source\\PSoC5/BUZZER.h"