ARM GAS  C:\Users\USUARIO\AppData\Local\Temp\ccFzbpyv.s 			page 1


   1              		.syntax unified
   2              		.cpu cortex-m3
   3              		.fpu softvfp
   4              		.eabi_attribute 20, 1
   5              		.eabi_attribute 21, 1
   6              		.eabi_attribute 23, 3
   7              		.eabi_attribute 24, 1
   8              		.eabi_attribute 25, 1
   9              		.eabi_attribute 26, 1
  10              		.eabi_attribute 30, 1
  11              		.eabi_attribute 34, 1
  12              		.eabi_attribute 18, 4
  13              		.thumb
  14              		.syntax unified
  15              		.file	"main.c"
  16              		.text
  17              	.Ltext0:
  18              		.cfi_sections	.debug_frame
  19              		.syntax unified
  20              		.global _printf_float
  21              		.thumb
  22              		.syntax unified
  23              		.section	.text.ADC_SAR_ISR_LOC,"ax",%progbits
  24              		.align	2
  25              		.global	ADC_SAR_ISR_LOC
  26              		.thumb
  27              		.thumb_func
  28              		.type	ADC_SAR_ISR_LOC, %function
  29              	ADC_SAR_ISR_LOC:
  30              	.LFB64:
  31              		.file 1 "main.c"
   1:main.c        **** 
   2:main.c        **** /* ========================================
   3:main.c        ****  *
   4:main.c        ****  * Copyright JP Bioingenieria SAS, 2020
   5:main.c        ****  * All Rights Reserved
   6:main.c        ****  * UNPUBLISHED, LICENSED SOFTWARE.
   7:main.c        ****  *
   8:main.c        ****  * Para calibrar la temperatura de la mufla de acuerdo a un patron de temperatura se debe realizar 
   9:main.c        ****  * Se mide con el patron la temperatura en dos puntos y se registran las diferencias con respecto a
  10:main.c        ****  * Se dibuja una grafica XY, donde en el eje Y este la temperatura del control y en el eje X la tem
  11:main.c        ****  * Se traza la recta con los valores obtenidos y se calcula la pendiente m y el punto de corte b, e
  12:main.c        ****  * a  la lectura de la termocupla de acuerdo a la siguiente ecuacion: T=(Tcontrol-b)/m;
  13:main.c        ****  *
  14:main.c        ****  * Este programa activa el extractor de una campana externa. El extractor estara activado durante t
  15:main.c        ****  * funcionamiento (Menu==20), una vez termine todas las rampas, comenzara a correr el tiempo config
  16:main.c        ****  * vez acabe el tiempo apagara automaticamente el extractor.
  17:main.c        ****  * ========================================
  18:main.c        **** */
  19:main.c        **** #include <device.h>
  20:main.c        **** #include <stdio.h>
  21:main.c        **** #include <main.h>
  22:main.c        **** #include <math.h>
  23:main.c        **** #include <stdlib.h>
  24:main.c        **** #include <string.h>
  25:main.c        **** #include <Funciones.h>
  26:main.c        **** #include "ks0108.h"
ARM GAS  C:\Users\USUARIO\AppData\Local\Temp\ccFzbpyv.s 			page 2


  27:main.c        **** 
  28:main.c        **** #if defined (__GNUC__)
  29:main.c        ****     /* Add an explicit reference to the floating point printf library */
  30:main.c        ****     /* to allow the usage of floating point conversion specifiers. */
  31:main.c        ****     /* This is not linked in by default with the newlib-nano library. */
  32:main.c        ****     asm (".global _printf_float");
  33:main.c        **** #endif
  34:main.c        **** 
  35:main.c        **** #define OFF 0
  36:main.c        **** #define ON  1
  37:main.c        **** 
  38:main.c        **** int8  Testerilizacion[4]={0,0,0,0};   // Tiempo transcurrido
  39:main.c        **** int8  Testerilizacionp[4]={0,0,0,0};   // Tiempo transcurrido
  40:main.c        **** int8  Contrasena[4]={0,0,0,0};      // Contrasena de 4 digitos
  41:main.c        **** 
  42:main.c        **** int16 offset;
  43:main.c        **** int16 coldJnTemp;
  44:main.c        **** int32 tcColdJnuVolt;
  45:main.c        **** int32 hotJnCount;
  46:main.c        **** int32 filHotJnCount;
  47:main.c        **** int32 tcHotJnuVolt;
  48:main.c        **** int32 tcuVolt;
  49:main.c        **** int32 tcTemp;
  50:main.c        **** char displayStr[100];	
  51:main.c        **** uint8 first = 0;
  52:main.c        **** extern uint8 const CYCODE LCD_customFonts[];  
  53:main.c        **** uint8_t i,pwm1,pwm2,n,PantallaPrincipal,Programa,Opcion2,Derivativo,Integral,MediaMovil,Tciclo,Ajus
  54:main.c        **** uint16 ctr,Setpoint;
  55:main.c        **** uint32_t output,tGrafica;
  56:main.c        **** short flagButton0,flagButton1,flagButton2,flagButton3,dibujo,pulsoAumentar,pulsoDisminuir,flagBorra
  57:main.c        **** short Flanco,Flanco1,Flanco2,Flanco3,flagFinalizo,visual;
  58:main.c        **** float valor,pendiente,b,Ganancia,GananciaIn;
  59:main.c        **** 
  60:main.c        **** #define RX_BUFFER_SIZE  10
  61:main.c        **** char Rx_Buffer[RX_BUFFER_SIZE+1];
  62:main.c        **** char Rx_Buffer2[RX_BUFFER_SIZE+1];
  63:main.c        **** uint8 RX_Wr_Index=0;
  64:main.c        **** uint8 RX_Rd_Index=0;
  65:main.c        **** uint8 RX_Counter=0;
  66:main.c        **** 
  67:main.c        **** char Rx_Buffer3[RX_BUFFER_SIZE+1];
  68:main.c        **** char Rx_Buffer4[RX_BUFFER_SIZE+1];
  69:main.c        **** uint8 RX_Wr_Index2=0;
  70:main.c        **** uint8 RX_Rd_Index2=0;
  71:main.c        **** uint8 RX_Counter2=0;
  72:main.c        **** 
  73:main.c        **** int8  Tempoc[4];
  74:main.c        **** int8  Tempocp[4];
  75:main.c        **** char Dos_puntos[]=":";
  76:main.c        **** uint8 i2cbuf[4];
  77:main.c        **** float promedio[90];
  78:main.c        **** 
  79:main.c        **** uint8 Dato2,Dato3,Dato_Exitoso,Dato_Exitoso2,Menu,MenuAntt,MenuAnt,Menu2,MenuAntt2,z,TipoClave,Segm
  80:main.c        **** short Inicio,Inicio2,EstadoPaso,entro,GuardaEEPROM,rampa,Minutos,Horas,flagTemperatura,Test,x1,x10,
  81:main.c        **** uint8 Password[4];
  82:main.c        **** uint8 tiempo_esterilizacion,y,hEst,mEst,hEstp,mEstp,Segmento,conteo,unidad,Pausa;
  83:main.c        **** uint16 tiempos,tiempos3,tiempoctrl,Tc,Tp,tiemporeset,TiempoControl,tiemporecta,tiemposetpoint,tinic
ARM GAS  C:\Users\USUARIO\AppData\Local\Temp\ccFzbpyv.s 			page 3


  84:main.c        **** short mensaje,Lectura2,flag_setpoint,flag_tiempocalentamiento,Lectura,flagup,flagdn,flagRampa,flag_
  85:main.c        **** short Finalizo,conteoPregunta,grafica,imprime,flag_display,Dibuja,Desconectado,flag_clear3,flag_gan
  86:main.c        **** float X[2]={0.0,0.0};
  87:main.c        **** float Temperatura,Aumento,PendienteActual,DifPendiente,TempeInicial,Pendiente,TemperaturaIdeal,Pote
  88:main.c        **** float error,Potencia;
  89:main.c        **** uint16 TiempoActual,MinutosActual,HorasActual,Tiempo,TiempoRampa,tPregunta,b16;
  90:main.c        **** uint8 dataReady = 0u,Alarma,gananciaIn,segundosCampana;
  91:main.c        **** uint16 result;
  92:main.c        **** float Prom,V0,Temperature,m;
  93:main.c        **** int16 Temperatura1[Pasos*5];
  94:main.c        **** int16 Horas1[Pasos*5];
  95:main.c        **** int16 Minutos1[Pasos*5];
  96:main.c        **** uint8 m_int,m_dec,b_dec;
  97:main.c        **** 
  98:main.c        **** CY_ISR(ADC_SAR_ISR_LOC)
  99:main.c        **** {
  32              		.loc 1 99 0
  33              		.cfi_startproc
  34              		@ args = 0, pretend = 0, frame = 0
  35              		@ frame_needed = 0, uses_anonymous_args = 0
  36              		@ link register save eliminated.
 100:main.c        ****         result = CY_GET_REG16(ADC_SAR_SAR_WRK_PTR);
  37              		.loc 1 100 0
  38 0000 034B     		ldr	r3, .L2
  39 0002 1A88     		ldrh	r2, [r3]
  40 0004 034B     		ldr	r3, .L2+4
  41 0006 1A80     		strh	r2, [r3]	@ movhi
 101:main.c        ****         dataReady = 1u;
  42              		.loc 1 101 0
  43 0008 0122     		movs	r2, #1
  44 000a 034B     		ldr	r3, .L2+8
  45 000c 1A70     		strb	r2, [r3]
  46 000e 7047     		bx	lr
  47              	.L3:
  48              		.align	2
  49              	.L2:
  50 0010 A05B0040 		.word	1073765280
  51 0014 00000000 		.word	result
  52 0018 00000000 		.word	.LANCHOR0
  53              		.cfi_endproc
  54              	.LFE64:
  55              		.size	ADC_SAR_ISR_LOC, .-ADC_SAR_ISR_LOC
  56              		.section	.text.Reloj2,"ax",%progbits
  57              		.align	2
  58              		.global	Reloj2
  59              		.thumb
  60              		.thumb_func
  61              		.type	Reloj2, %function
  62              	Reloj2:
  63              	.LFB70:
 102:main.c        **** }
 103:main.c        **** 
 104:main.c        **** void ActualizaRecta(){
 105:main.c        ****    X[y]=Temperatura;
 106:main.c        ****    y++;
 107:main.c        ****    if(y>=2){
 108:main.c        ****       y=0;
ARM GAS  C:\Users\USUARIO\AppData\Local\Temp\ccFzbpyv.s 			page 4


 109:main.c        ****       Aumento=X[1]-X[0];
 110:main.c        ****       HorasActual=(Testerilizacion[3]*10)+Testerilizacion[2];
 111:main.c        ****       MinutosActual=(Testerilizacion[1]*10)+Testerilizacion[0];
 112:main.c        ****       TiempoActual=Tiempo-((HorasActual*3600)+(MinutosActual*60)+tinicio);
 113:main.c        ****       PendienteActual=((Setpoint-Temperatura)/TiempoActual);
 114:main.c        ****       DifPendiente=(PendienteActual*20)-Aumento;
 115:main.c        ****       DifPendiente=DifPendiente*5;
 116:main.c        ****    }
 117:main.c        **** }
 118:main.c        **** 
 119:main.c        **** void Controla(){
 120:main.c        **** //-------------------------------Control de Calentamiento------------------------------------------
 121:main.c        ****    float tmp=0.0;
 122:main.c        ****       if(tiemporecta>=10){
 123:main.c        ****          ActualizaRecta();
 124:main.c        ****          tiemporecta=0;
 125:main.c        ****       }
 126:main.c        ****     
 127:main.c        ****       if(Segmento==0){
 128:main.c        ****          if(flag_calcula==0){
 129:main.c        ****             Tiempo=(Horas1[ProgramaSeleccionado*Pasos]*3600)+(Minutos1[ProgramaSeleccionado*Pasos]*
 130:main.c        ****             Setpoint=Temperatura1[(ProgramaSeleccionado*Pasos)+Segmento];
 131:main.c        ****             Pendiente=(((float)Setpoint-TempeInicial)/(float)Tiempo);
 132:main.c        ****             Testerilizacionp[3]=(uint8)Horas1[(ProgramaSeleccionado*Pasos)+Segmento]/10;
 133:main.c        ****             Testerilizacionp[2]=Horas1[(ProgramaSeleccionado*Pasos)+Segmento]-(Testerilizacionp[3]*
 134:main.c        ****             Testerilizacionp[1]=Minutos1[(ProgramaSeleccionado*Pasos)+Segmento]/10;
 135:main.c        ****             Testerilizacionp[0]=Minutos1[(ProgramaSeleccionado*Pasos)+Segmento]-(Testerilizacionp[1
 136:main.c        ****             flag_calcula=1;
 137:main.c        ****             Ganancia=GananciaIn*(Setpoint/100);
 138:main.c        ****          }
 139:main.c        ****       }else{
 140:main.c        ****          if(flag_calcula==0){
 141:main.c        ****             Tiempo=(Horas1[(ProgramaSeleccionado*Pasos)+Segmento]*3600)+(Minutos1[(ProgramaSeleccio
 142:main.c        ****             Pendiente=((float)(Temperatura1[(ProgramaSeleccionado*Pasos)+Segmento]-Temperatura1[(Pr
 143:main.c        ****             Setpoint=Temperatura1[(ProgramaSeleccionado*Pasos)+Segmento];
 144:main.c        ****             Testerilizacionp[3]=(uint8)Horas1[(ProgramaSeleccionado*Pasos)+Segmento]/10;
 145:main.c        ****             Testerilizacionp[2]=Horas1[(ProgramaSeleccionado*Pasos)+Segmento]-(Testerilizacionp[3]*
 146:main.c        ****             Testerilizacionp[1]=Minutos1[(ProgramaSeleccionado*Pasos)+Segmento]/10;
 147:main.c        ****             Testerilizacionp[0]=Minutos1[(ProgramaSeleccionado*Pasos)+Segmento]-(Testerilizacionp[1
 148:main.c        ****             flag_calcula=1;
 149:main.c        ****             Ganancia=GananciaIn*(Setpoint/100);
 150:main.c        ****          }
 151:main.c        ****       }
 152:main.c        ****    
 153:main.c        ****   
 154:main.c        ****    if(Pendiente!=0){// Si Esta realizando una Rampa debe realizar el control de acuerdo a la pendie
 155:main.c        ****       //TiempoRampa=((HorasActual*3600)+(MinutosActual*60)+tinicio);
 156:main.c        ****     TiempoRampa=(((Testerilizacion[3]*10)+Testerilizacion[2])*3600)+(((Testerilizacion[1]*10)+Teste
 157:main.c        ****       if(Segmento==0){
 158:main.c        ****          TemperaturaIdeal=(Pendiente*TiempoRampa)+TempeInicial;
 159:main.c        ****       }else{
 160:main.c        ****          TemperaturaIdeal=(Pendiente*TiempoRampa)+Temperatura1[(ProgramaSeleccionado*Pasos)+Segment
 161:main.c        ****       }
 162:main.c        ****       PotenciaEntregada=((TemperaturaIdeal-Temperatura)*100)/penMufla;
 163:main.c        **** // Pendiente determinar si el comportamiento de la mufla es lineal 10°C/min o si tiene un comporta
 164:main.c        ****       
 165:main.c        ****       if(Temperatura<450 && Temperatura>=200)
ARM GAS  C:\Users\USUARIO\AppData\Local\Temp\ccFzbpyv.s 			page 5


 166:main.c        ****          penMufla=penInicial*0.9;
 167:main.c        ****          
 168:main.c        ****       if(Temperatura<600 && Temperatura>=450)
 169:main.c        ****          penMufla=penInicial*0.8;
 170:main.c        ****          
 171:main.c        ****       if(Temperatura<900 && Temperatura>=600)
 172:main.c        ****          penMufla=penInicial*0.7;  
 173:main.c        ****          
 174:main.c        ****       if(Temperatura<=1200 && Temperatura>=900)
 175:main.c        ****          penMufla=penInicial*0.6;   
 176:main.c        ****       
 177:main.c        ****       if(PotenciaEntregada>100.0){
 178:main.c        ****          PotenciaEntregada=100.0;
 179:main.c        ****       }
 180:main.c        ****       
 181:main.c        ****       if(PotenciaEntregada<0){
 182:main.c        ****          PotenciaEntregada=0;
 183:main.c        ****       }
 184:main.c        ****       
 185:main.c        ****       Tpulso=(PotenciaEntregada*Tciclo)/100;  
 186:main.c        ****    }else{
 187:main.c        ****                
 188:main.c        ****       error=desvio+Setpoint-Temperatura;      // Cálculo del error ******
 189:main.c        ****       
 190:main.c        ****       if(error>3.0 && Aumento<1){
 191:main.c        ****          if(Potencia<90.0){
 192:main.c        ****             if(TiempoControl>=Derivativo){
 193:main.c        ****                TiempoControl=0;
 194:main.c        ****                if(Aumento<-2){
 195:main.c        ****                   Ganancia+=Integral+1;
 196:main.c        ****                }else{
 197:main.c        ****                   if(Aumento<-1){
 198:main.c        ****                      Ganancia+=Integral;
 199:main.c        ****                   }else{
 200:main.c        ****                      Ganancia+=Integral-0.5;
 201:main.c        ****                   }
 202:main.c        ****                }
 203:main.c        ****             }
 204:main.c        ****          }
 205:main.c        ****       }
 206:main.c        ****       
 207:main.c        ****       if(Ganancia<0.5){
 208:main.c        ****          Ganancia=0.5;
 209:main.c        ****       }
 210:main.c        ****       
 211:main.c        ****       
 212:main.c        ****       if(error<0.0)     // Anti Wind_DOWN    
 213:main.c        ****          error=0.0;
 214:main.c        ****    
 215:main.c        ****       tmp=error*Ganancia;  // Control Proporcional.
 216:main.c        ****             
 217:main.c        ****       if(tmp>Setpoint)   // Anti Wind-UP_Read()==0      
 218:main.c        ****          tmp=Setpoint;
 219:main.c        ****                   
 220:main.c        ****       if(tmp<0.0)     // Anti Wind_DOWN    
 221:main.c        ****          tmp=0.0;
 222:main.c        ****       
ARM GAS  C:\Users\USUARIO\AppData\Local\Temp\ccFzbpyv.s 			page 6


 223:main.c        ****       // Tpulso(t)= Tciclo*(y(t)-ymin)/(ymax - ymin); calculo de ciclo util para control de resiste
 224:main.c        ****       // Tpulso es float, hay que pasar ese ciclo a una salida de un puerto usando el TMR1.
 225:main.c        ****       Tpulso=(tmp/Setpoint)*Tciclo; 
 226:main.c        ****       
 227:main.c        ****    }
 228:main.c        ****    Tp=(Tpulso/0.002);
 229:main.c        ****    Tc=(Tciclo/0.002);
 230:main.c        ****    Control=1;     
 231:main.c        **** //-------------------------------------------------------------------------------------------------
 232:main.c        ****   
 233:main.c        **** }
 234:main.c        **** 
 235:main.c        **** void CuentaTiempo(){
 236:main.c        ****       if(tinicio>=60){
 237:main.c        ****          tinicio=0;
 238:main.c        ****          mEst+=1.0;
 239:main.c        ****          if(mEst>59){
 240:main.c        ****             mEst=0;
 241:main.c        ****             hEst+=1.0;
 242:main.c        ****          }
 243:main.c        ****       }
 244:main.c        **** }
 245:main.c        **** 
 246:main.c        **** void iniciaConteo(){
 247:main.c        ****    if(Pendiente!=0){
 248:main.c        ****         if(flagRampa)
 249:main.c        ****             tiempo_esterilizacion=1;
 250:main.c        ****         else
 251:main.c        ****             tiempo_esterilizacion=0;
 252:main.c        ****    }else if(Pendiente==0){
 253:main.c        ****       if(flagTemperatura && flagRampa)
 254:main.c        ****          tiempo_esterilizacion=1;
 255:main.c        ****       else
 256:main.c        ****          tiempo_esterilizacion=0;
 257:main.c        ****    }
 258:main.c        **** }
 259:main.c        **** 
 260:main.c        **** float leeTermocupla(uint8 media){
 261:main.c        ****     float Tref;
 262:main.c        ****     Tref=0.0;
 263:main.c        ****     Prom=0.0;
 264:main.c        ****     /* Measure cold junction temperature */
 265:main.c        **** 	coldJnTemp = MeasureColdJnSensorTemp();
 266:main.c        **** 	/* Convert cold junction temp to cold junction compensation voltage */
 267:main.c        **** 	tcColdJnuVolt = Thermocouple_1_GetVoltage(coldJnTemp);
 268:main.c        **** 	/* Read thermocouple hot junction voltage */
 269:main.c        **** 	//ADCMux_FastSelect(TC_HOT_JN_CHANNEL);
 270:main.c        **** 	ADC_SelectConfiguration(ADC_TC_Config,1);
 271:main.c        **** 	ADC_StartConvert();
 272:main.c        ****     /*Note in this example a blocking call is used, this can be replaced
 273:main.c        ****     with a polling method is required in your application*/
 274:main.c        **** 	ADC_IsEndConversion(ADC_WAIT_FOR_RESULT); 
 275:main.c        **** 	ADC_StopConvert();
 276:main.c        **** 	hotJnCount = ADC_GetResult32();
 277:main.c        **** 	/* Read ground reference voltage */
 278:main.c        **** 	offset = 0;//MeasureOffset();
 279:main.c        **** 	/* Correlated double sampling to remove ADC offset */
ARM GAS  C:\Users\USUARIO\AppData\Local\Temp\ccFzbpyv.s 			page 7


 280:main.c        **** 	hotJnCount -= offset;
 281:main.c        **** 	/* Filter signal */
 282:main.c        **** 	filHotJnCount = FilterSignal(hotJnCount);
 283:main.c        **** 	/* Find thermo-emf in microvolts */
 284:main.c        **** 	tcHotJnuVolt = ADC_CountsTo_uVolts(filHotJnCount);
 285:main.c        **** 	/* Perform Cold junction compensation */
 286:main.c        **** 	tcuVolt = tcColdJnuVolt + tcHotJnuVolt;
 287:main.c        **** 	/* Convert thermo-emf to temperature */
 288:main.c        **** 	tcTemp = Thermocouple_1_GetTemperature(tcuVolt);
 289:main.c        ****     V0=(float)(tcTemp/100)+(float)(tcTemp-((tcTemp/100)*100))/100;
 290:main.c        ****             
 291:main.c        ****     if(l>(media-1))
 292:main.c        ****         l=0;
 293:main.c        ****    //promedio[l]=Temperature;l++;
 294:main.c        ****     promedio[l]=V0;l++;
 295:main.c        ****          
 296:main.c        ****     for(h=0;h<media;h++){
 297:main.c        ****         Prom+=promedio[h];
 298:main.c        ****     } 
 299:main.c        ****     Prom=Prom/media;   
 300:main.c        ****    
 301:main.c        ****     Prom+=((float)Ajuste-(float)Ajusten);
 302:main.c        ****     Tref=(Prom-b)/m;
 303:main.c        ****    
 304:main.c        ****     return Tref;
 305:main.c        ****     //return Temperature;
 306:main.c        **** }
 307:main.c        **** 
 308:main.c        **** CY_ISR(Reloj2){ 
  64              		.loc 1 308 0
  65              		.cfi_startproc
  66              		@ args = 0, pretend = 0, frame = 0
  67              		@ frame_needed = 0, uses_anonymous_args = 0
  68 0000 08B5     		push	{r3, lr}
  69              		.cfi_def_cfa_offset 8
  70              		.cfi_offset 3, -8
  71              		.cfi_offset 14, -4
 309:main.c        ****     tiempos++;
  72              		.loc 1 309 0
  73 0002 694A     		ldr	r2, .L21
  74 0004 1388     		ldrh	r3, [r2]
  75 0006 0133     		adds	r3, r3, #1
  76 0008 1380     		strh	r3, [r2]	@ movhi
 310:main.c        ****     tiempos3++;
  77              		.loc 1 310 0
  78 000a 684A     		ldr	r2, .L21+4
  79 000c 1388     		ldrh	r3, [r2]
  80 000e 0133     		adds	r3, r3, #1
  81 0010 1380     		strh	r3, [r2]	@ movhi
 311:main.c        ****     tiempoctrl++;
  82              		.loc 1 311 0
  83 0012 674A     		ldr	r2, .L21+8
  84 0014 1388     		ldrh	r3, [r2]
  85 0016 0133     		adds	r3, r3, #1
  86 0018 9BB2     		uxth	r3, r3
  87 001a 1380     		strh	r3, [r2]	@ movhi
 312:main.c        ****     
ARM GAS  C:\Users\USUARIO\AppData\Local\Temp\ccFzbpyv.s 			page 8


 313:main.c        ****     if(Control==1 && tcHotJnuVolt > BROKEN_TC_THRESHOLD){
  88              		.loc 1 313 0
  89 001c 654A     		ldr	r2, .L21+12
  90 001e B2F90020 		ldrsh	r2, [r2]
  91 0022 012A     		cmp	r2, #1
  92 0024 19D1     		bne	.L5
  93              		.loc 1 313 0 is_stmt 0 discriminator 1
  94 0026 644A     		ldr	r2, .L21+16
  95 0028 1168     		ldr	r1, [r2]
  96 002a 644A     		ldr	r2, .L21+20
  97 002c 9142     		cmp	r1, r2
  98 002e 14DB     		blt	.L5
 314:main.c        ****         if(tiempoctrl>=Tc) // Si el tiempo de control es mayor al tiempo de ciclo se reinicia tiemp
  99              		.loc 1 314 0 is_stmt 1
 100 0030 634A     		ldr	r2, .L21+24
 101 0032 1288     		ldrh	r2, [r2]
 102 0034 9342     		cmp	r3, r2
 103 0036 02D3     		bcc	.L6
 315:main.c        ****             tiempoctrl=0;
 104              		.loc 1 315 0
 105 0038 0022     		movs	r2, #0
 106 003a 5D4B     		ldr	r3, .L21+8
 107 003c 1A80     		strh	r2, [r3]	@ movhi
 108              	.L6:
 316:main.c        ****         // tiempoctrl incrementa una unidad cada 5ms, por eso se dividen los tiempos por 0.005.
 317:main.c        ****       
 318:main.c        ****         if(tiempoctrl<=Tp) // Si el tiempo es menor o igual al tiempo de control se enciende la res
 109              		.loc 1 318 0
 110 003e 5C4B     		ldr	r3, .L21+8
 111 0040 1A88     		ldrh	r2, [r3]
 112 0042 604B     		ldr	r3, .L21+28
 113 0044 1B88     		ldrh	r3, [r3]
 114 0046 9A42     		cmp	r2, r3
 115 0048 03D8     		bhi	.L7
 319:main.c        ****             SSR_Write(1);
 116              		.loc 1 319 0
 117 004a 0120     		movs	r0, #1
 118 004c FFF7FEFF 		bl	SSR_Write
 119              	.LVL0:
 120 0050 0AE0     		b	.L8
 121              	.L7:
 320:main.c        ****         else         
 321:main.c        ****             SSR_Write(0);
 122              		.loc 1 321 0
 123 0052 0020     		movs	r0, #0
 124 0054 FFF7FEFF 		bl	SSR_Write
 125              	.LVL1:
 126 0058 06E0     		b	.L8
 127              	.L5:
 322:main.c        ****     }else{
 323:main.c        ****         if(!Test)
 128              		.loc 1 323 0
 129 005a 5B4B     		ldr	r3, .L21+32
 130 005c B3F90030 		ldrsh	r3, [r3]
 131 0060 13B9     		cbnz	r3, .L8
 324:main.c        ****             SSR_Write(0);
 132              		.loc 1 324 0
ARM GAS  C:\Users\USUARIO\AppData\Local\Temp\ccFzbpyv.s 			page 9


 133 0062 0020     		movs	r0, #0
 134 0064 FFF7FEFF 		bl	SSR_Write
 135              	.LVL2:
 136              	.L8:
 325:main.c        ****     }
 326:main.c        ****    
 327:main.c        ****     if(tiempos3>=200){
 137              		.loc 1 327 0
 138 0068 504B     		ldr	r3, .L21+4
 139 006a 1B88     		ldrh	r3, [r3]
 140 006c C72B     		cmp	r3, #199
 141 006e 15D9     		bls	.L9
 328:main.c        ****         Lectura2=1;
 142              		.loc 1 328 0
 143 0070 0122     		movs	r2, #1
 144 0072 564B     		ldr	r3, .L21+36
 145 0074 1A80     		strh	r2, [r3]	@ movhi
 329:main.c        ****         if(flagup)
 146              		.loc 1 329 0
 147 0076 564B     		ldr	r3, .L21+40
 148 0078 B3F90030 		ldrsh	r3, [r3]
 149 007c 1BB1     		cbz	r3, .L10
 330:main.c        ****             tiempoup++;
 150              		.loc 1 330 0
 151 007e 554A     		ldr	r2, .L21+44
 152 0080 1388     		ldrh	r3, [r2]
 153 0082 0133     		adds	r3, r3, #1
 154 0084 1380     		strh	r3, [r2]	@ movhi
 155              	.L10:
 331:main.c        ****         if(flagdn)
 156              		.loc 1 331 0
 157 0086 544B     		ldr	r3, .L21+48
 158 0088 B3F90030 		ldrsh	r3, [r3]
 159 008c 1BB1     		cbz	r3, .L11
 332:main.c        ****             tiempodn++;   
 160              		.loc 1 332 0
 161 008e 534A     		ldr	r2, .L21+52
 162 0090 1388     		ldrh	r3, [r2]
 163 0092 0133     		adds	r3, r3, #1
 164 0094 1380     		strh	r3, [r2]	@ movhi
 165              	.L11:
 333:main.c        ****         tiempos3=0;
 166              		.loc 1 333 0
 167 0096 0022     		movs	r2, #0
 168 0098 444B     		ldr	r3, .L21+4
 169 009a 1A80     		strh	r2, [r3]	@ movhi
 170              	.L9:
 334:main.c        ****     }
 335:main.c        ****     
 336:main.c        ****     if(tiempos>=500){  // Cuenta cada 2ms        
 171              		.loc 1 336 0
 172 009c 424B     		ldr	r3, .L21
 173 009e 1B88     		ldrh	r3, [r3]
 174 00a0 B3F5FA7F 		cmp	r3, #500
 175 00a4 7ED3     		bcc	.L4
 337:main.c        ****         tiempos=0;Lectura=1;tiemporeset++;TiempoControl++;tiemporecta++;mensaje=!mensaje;
 176              		.loc 1 337 0
ARM GAS  C:\Users\USUARIO\AppData\Local\Temp\ccFzbpyv.s 			page 10


 177 00a6 0022     		movs	r2, #0
 178 00a8 3F4B     		ldr	r3, .L21
 179 00aa 1A80     		strh	r2, [r3]	@ movhi
 180 00ac 0122     		movs	r2, #1
 181 00ae 4C4B     		ldr	r3, .L21+56
 182 00b0 1A80     		strh	r2, [r3]	@ movhi
 183 00b2 4C4A     		ldr	r2, .L21+60
 184 00b4 1388     		ldrh	r3, [r2]
 185 00b6 0133     		adds	r3, r3, #1
 186 00b8 1380     		strh	r3, [r2]	@ movhi
 187 00ba 4B4A     		ldr	r2, .L21+64
 188 00bc 1388     		ldrh	r3, [r2]
 189 00be 0133     		adds	r3, r3, #1
 190 00c0 1380     		strh	r3, [r2]	@ movhi
 191 00c2 4A4A     		ldr	r2, .L21+68
 192 00c4 1388     		ldrh	r3, [r2]
 193 00c6 0133     		adds	r3, r3, #1
 194 00c8 1380     		strh	r3, [r2]	@ movhi
 195 00ca 494A     		ldr	r2, .L21+72
 196 00cc B2F90030 		ldrsh	r3, [r2]
 197 00d0 B3FA83F3 		clz	r3, r3
 198 00d4 5B09     		lsrs	r3, r3, #5
 199 00d6 1380     		strh	r3, [r2]	@ movhi
 338:main.c        ****    
 339:main.c        ****         if(finalizoCiclo){
 200              		.loc 1 339 0
 201 00d8 464B     		ldr	r3, .L21+76
 202 00da B3F90030 		ldrsh	r3, [r3]
 203 00de 002B     		cmp	r3, #0
 204 00e0 38D0     		beq	.L13
 340:main.c        ****             segundosCampana++;
 205              		.loc 1 340 0
 206 00e2 454A     		ldr	r2, .L21+80
 207 00e4 1378     		ldrb	r3, [r2]	@ zero_extendqisi2
 208 00e6 0133     		adds	r3, r3, #1
 209 00e8 DBB2     		uxtb	r3, r3
 210 00ea 1370     		strb	r3, [r2]
 341:main.c        ****             if(segundosCampana>=60){
 211              		.loc 1 341 0
 212 00ec 3B2B     		cmp	r3, #59
 213 00ee 31D9     		bls	.L13
 342:main.c        ****                 segundosCampana=0;
 214              		.loc 1 342 0
 215 00f0 0022     		movs	r2, #0
 216 00f2 414B     		ldr	r3, .L21+80
 217 00f4 1A70     		strb	r2, [r3]
 343:main.c        ****                 Tempoc[0]++;
 218              		.loc 1 343 0
 219 00f6 414A     		ldr	r2, .L21+84
 220 00f8 92F90030 		ldrsb	r3, [r2]
 221 00fc 0133     		adds	r3, r3, #1
 222 00fe 5BB2     		sxtb	r3, r3
 223 0100 1370     		strb	r3, [r2]
 344:main.c        ****                 if(Tempoc[0]>9){
 224              		.loc 1 344 0
 225 0102 092B     		cmp	r3, #9
 226 0104 06DD     		ble	.L14
ARM GAS  C:\Users\USUARIO\AppData\Local\Temp\ccFzbpyv.s 			page 11


 345:main.c        ****                     Tempoc[0]=0;
 227              		.loc 1 345 0
 228 0106 1346     		mov	r3, r2
 229 0108 0022     		movs	r2, #0
 230 010a 1A70     		strb	r2, [r3]
 346:main.c        ****                     Tempoc[1]++;
 231              		.loc 1 346 0
 232 010c 93F90120 		ldrsb	r2, [r3, #1]
 233 0110 0132     		adds	r2, r2, #1
 234 0112 5A70     		strb	r2, [r3, #1]
 235              	.L14:
 347:main.c        ****                 }
 348:main.c        ****                 if(Tempoc[1]>5){
 236              		.loc 1 348 0
 237 0114 394B     		ldr	r3, .L21+84
 238 0116 93F90130 		ldrsb	r3, [r3, #1]
 239 011a 052B     		cmp	r3, #5
 240 011c 06DD     		ble	.L15
 349:main.c        ****                     Tempoc[1]=0;
 241              		.loc 1 349 0
 242 011e 374B     		ldr	r3, .L21+84
 243 0120 0022     		movs	r2, #0
 244 0122 5A70     		strb	r2, [r3, #1]
 350:main.c        ****                     Tempoc[2]++;
 245              		.loc 1 350 0
 246 0124 93F90220 		ldrsb	r2, [r3, #2]
 247 0128 0132     		adds	r2, r2, #1
 248 012a 9A70     		strb	r2, [r3, #2]
 249              	.L15:
 351:main.c        ****                 }
 352:main.c        ****                 if(Tempoc[2]>9){
 250              		.loc 1 352 0
 251 012c 334B     		ldr	r3, .L21+84
 252 012e 93F90230 		ldrsb	r3, [r3, #2]
 253 0132 092B     		cmp	r3, #9
 254 0134 06DD     		ble	.L16
 353:main.c        ****                     Tempoc[2]=0;
 255              		.loc 1 353 0
 256 0136 314B     		ldr	r3, .L21+84
 257 0138 0022     		movs	r2, #0
 258 013a 9A70     		strb	r2, [r3, #2]
 354:main.c        ****                     Tempoc[3]++;
 259              		.loc 1 354 0
 260 013c 93F90320 		ldrsb	r2, [r3, #3]
 261 0140 0132     		adds	r2, r2, #1
 262 0142 DA70     		strb	r2, [r3, #3]
 263              	.L16:
 355:main.c        ****                 }
 356:main.c        ****                 if(Tempoc[3]>5){
 264              		.loc 1 356 0
 265 0144 2D4B     		ldr	r3, .L21+84
 266 0146 93F90330 		ldrsb	r3, [r3, #3]
 267 014a 052B     		cmp	r3, #5
 268 014c 02DD     		ble	.L13
 357:main.c        ****                     Tempoc[3]=0;
 269              		.loc 1 357 0
 270 014e 0022     		movs	r2, #0
ARM GAS  C:\Users\USUARIO\AppData\Local\Temp\ccFzbpyv.s 			page 12


 271 0150 2A4B     		ldr	r3, .L21+84
 272 0152 DA70     		strb	r2, [r3, #3]
 273              	.L13:
 358:main.c        ****                 }     
 359:main.c        ****             }
 360:main.c        ****         }
 361:main.c        ****         
 362:main.c        ****         if(conteoPregunta)tPregunta++;
 274              		.loc 1 362 0
 275 0154 2A4B     		ldr	r3, .L21+88
 276 0156 B3F90030 		ldrsh	r3, [r3]
 277 015a 1BB1     		cbz	r3, .L17
 278              		.loc 1 362 0 is_stmt 0 discriminator 1
 279 015c 294A     		ldr	r2, .L21+92
 280 015e 1388     		ldrh	r3, [r2]
 281 0160 0133     		adds	r3, r3, #1
 282 0162 1380     		strh	r3, [r2]	@ movhi
 283              	.L17:
 363:main.c        ****         
 364:main.c        ****         if(flag_setpoint==1)
 284              		.loc 1 364 0 is_stmt 1
 285 0164 284B     		ldr	r3, .L21+96
 286 0166 B3F90030 		ldrsh	r3, [r3]
 287 016a 012B     		cmp	r3, #1
 288 016c 03D1     		bne	.L18
 365:main.c        ****             tiemposetpoint++;
 289              		.loc 1 365 0
 290 016e 274A     		ldr	r2, .L21+100
 291 0170 1388     		ldrh	r3, [r2]
 292 0172 0133     		adds	r3, r3, #1
 293 0174 1380     		strh	r3, [r2]	@ movhi
 294              	.L18:
 366:main.c        ****       
 367:main.c        ****         if(tiempo_esterilizacion==1 || tiempo_esterilizacion==2){               
 295              		.loc 1 367 0
 296 0176 264B     		ldr	r3, .L21+104
 297 0178 1B78     		ldrb	r3, [r3]	@ zero_extendqisi2
 298 017a 013B     		subs	r3, r3, #1
 299 017c DBB2     		uxtb	r3, r3
 300 017e 012B     		cmp	r3, #1
 301 0180 07D8     		bhi	.L19
 368:main.c        ****             tinicio++;
 302              		.loc 1 368 0
 303 0182 244A     		ldr	r2, .L21+108
 304 0184 1388     		ldrh	r3, [r2]
 305 0186 0133     		adds	r3, r3, #1
 306 0188 1380     		strh	r3, [r2]	@ movhi
 369:main.c        ****             tGrafica++;
 307              		.loc 1 369 0
 308 018a 234A     		ldr	r2, .L21+112
 309 018c 1368     		ldr	r3, [r2]
 310 018e 0133     		adds	r3, r3, #1
 311 0190 1360     		str	r3, [r2]
 312              	.L19:
 370:main.c        ****         }
 371:main.c        ****              
 372:main.c        ****         if(flag_tiempocalentamiento==1)
ARM GAS  C:\Users\USUARIO\AppData\Local\Temp\ccFzbpyv.s 			page 13


 313              		.loc 1 372 0
 314 0192 224B     		ldr	r3, .L21+116
 315 0194 B3F90030 		ldrsh	r3, [r3]
 316 0198 012B     		cmp	r3, #1
 317 019a 03D1     		bne	.L4
 373:main.c        ****             tiempocalentamiento++;
 318              		.loc 1 373 0
 319 019c 204A     		ldr	r2, .L21+120
 320 019e 1388     		ldrh	r3, [r2]
 321 01a0 0133     		adds	r3, r3, #1
 322 01a2 1380     		strh	r3, [r2]	@ movhi
 323              	.L4:
 324 01a4 08BD     		pop	{r3, pc}
 325              	.L22:
 326 01a6 00BF     		.align	2
 327              	.L21:
 328 01a8 00000000 		.word	tiempos
 329 01ac 00000000 		.word	tiempos3
 330 01b0 00000000 		.word	tiempoctrl
 331 01b4 00000000 		.word	Control
 332 01b8 00000000 		.word	tcHotJnuVolt
 333 01bc F1D8FFFF 		.word	-9999
 334 01c0 00000000 		.word	Tc
 335 01c4 00000000 		.word	Tp
 336 01c8 00000000 		.word	Test
 337 01cc 00000000 		.word	Lectura2
 338 01d0 00000000 		.word	flagup
 339 01d4 00000000 		.word	tiempoup
 340 01d8 00000000 		.word	flagdn
 341 01dc 00000000 		.word	tiempodn
 342 01e0 00000000 		.word	Lectura
 343 01e4 00000000 		.word	tiemporeset
 344 01e8 00000000 		.word	TiempoControl
 345 01ec 00000000 		.word	tiemporecta
 346 01f0 00000000 		.word	mensaje
 347 01f4 00000000 		.word	finalizoCiclo
 348 01f8 00000000 		.word	segundosCampana
 349 01fc 00000000 		.word	Tempoc
 350 0200 00000000 		.word	conteoPregunta
 351 0204 00000000 		.word	tPregunta
 352 0208 00000000 		.word	flag_setpoint
 353 020c 00000000 		.word	tiemposetpoint
 354 0210 00000000 		.word	tiempo_esterilizacion
 355 0214 00000000 		.word	tinicio
 356 0218 00000000 		.word	tGrafica
 357 021c 00000000 		.word	flag_tiempocalentamiento
 358 0220 00000000 		.word	tiempocalentamiento
 359              		.cfi_endproc
 360              	.LFE70:
 361              		.size	Reloj2, .-Reloj2
 362              		.section	.text.inteRX1,"ax",%progbits
 363              		.align	2
 364              		.global	inteRX1
 365              		.thumb
 366              		.thumb_func
 367              		.type	inteRX1, %function
 368              	inteRX1:
ARM GAS  C:\Users\USUARIO\AppData\Local\Temp\ccFzbpyv.s 			page 14


 369              	.LFB71:
 374:main.c        ****     }     
 375:main.c        **** }
 376:main.c        **** 
 377:main.c        **** CY_ISR(inteRX1){
 370              		.loc 1 377 0
 371              		.cfi_startproc
 372              		@ args = 0, pretend = 0, frame = 0
 373              		@ frame_needed = 0, uses_anonymous_args = 0
 374 0000 08B5     		push	{r3, lr}
 375              		.cfi_def_cfa_offset 8
 376              		.cfi_offset 3, -8
 377              		.cfi_offset 14, -4
 378:main.c        ****     Dato3=UART_1_GetByte();
 378              		.loc 1 378 0
 379 0002 FFF7FEFF 		bl	UART_1_GetByte
 380              	.LVL3:
 381 0006 C0B2     		uxtb	r0, r0
 382 0008 1D4B     		ldr	r3, .L30
 383 000a 1870     		strb	r0, [r3]
 379:main.c        ****    if(Dato3==0x65){//Inicio Comunicacion
 384              		.loc 1 379 0
 385 000c 6528     		cmp	r0, #101
 386 000e 05D1     		bne	.L24
 380:main.c        ****       Inicio2=1;
 387              		.loc 1 380 0
 388 0010 0122     		movs	r2, #1
 389 0012 1C4B     		ldr	r3, .L30+4
 390 0014 1A80     		strh	r2, [r3]	@ movhi
 381:main.c        ****       RX_Wr_Index2 =0;
 391              		.loc 1 381 0
 392 0016 0022     		movs	r2, #0
 393 0018 1B4B     		ldr	r3, .L30+8
 394 001a 5A70     		strb	r2, [r3, #1]
 395              	.L24:
 382:main.c        ****    }
 383:main.c        ****    if(Inicio2==1){
 396              		.loc 1 383 0
 397 001c 194B     		ldr	r3, .L30+4
 398 001e B3F90030 		ldrsh	r3, [r3]
 399 0022 012B     		cmp	r3, #1
 400 0024 05D1     		bne	.L25
 384:main.c        ****       Rx_Buffer4[RX_Wr_Index2] = Dato3;
 401              		.loc 1 384 0
 402 0026 184A     		ldr	r2, .L30+8
 403 0028 5378     		ldrb	r3, [r2, #1]	@ zero_extendqisi2
 404 002a 1849     		ldr	r1, .L30+12
 405 002c C854     		strb	r0, [r1, r3]
 385:main.c        ****       RX_Wr_Index2++;
 406              		.loc 1 385 0
 407 002e 0133     		adds	r3, r3, #1
 408 0030 5370     		strb	r3, [r2, #1]
 409              	.L25:
 386:main.c        ****    }
 387:main.c        ****    if(RX_Wr_Index2 >= RX_BUFFER_SIZE){
 410              		.loc 1 387 0
 411 0032 154B     		ldr	r3, .L30+8
ARM GAS  C:\Users\USUARIO\AppData\Local\Temp\ccFzbpyv.s 			page 15


 412 0034 5B78     		ldrb	r3, [r3, #1]	@ zero_extendqisi2
 413 0036 092B     		cmp	r3, #9
 414 0038 04D9     		bls	.L26
 388:main.c        ****       RX_Wr_Index2 =0;
 415              		.loc 1 388 0
 416 003a 0023     		movs	r3, #0
 417 003c 124A     		ldr	r2, .L30+8
 418 003e 5370     		strb	r3, [r2, #1]
 389:main.c        ****       Inicio2=0;
 419              		.loc 1 389 0
 420 0040 104A     		ldr	r2, .L30+4
 421 0042 1380     		strh	r3, [r2]	@ movhi
 422              	.L26:
 390:main.c        ****    }
 391:main.c        ****    if(RX_Wr_Index2==0){
 423              		.loc 1 391 0
 424 0044 104B     		ldr	r3, .L30+8
 425 0046 5B78     		ldrb	r3, [r3, #1]	@ zero_extendqisi2
 426 0048 CBB9     		cbnz	r3, .L23
 392:main.c        ****       if(Rx_Buffer4[0]==0x65 && Rx_Buffer4[1]==0xff && Rx_Buffer4[2]==0xff && Rx_Buffer4[8]==0x00 &
 427              		.loc 1 392 0
 428 004a 104B     		ldr	r3, .L30+12
 429 004c 1B78     		ldrb	r3, [r3]	@ zero_extendqisi2
 430 004e 652B     		cmp	r3, #101
 431 0050 12D1     		bne	.L28
 432              		.loc 1 392 0 is_stmt 0 discriminator 1
 433 0052 0E4B     		ldr	r3, .L30+12
 434 0054 5B78     		ldrb	r3, [r3, #1]	@ zero_extendqisi2
 435 0056 FF2B     		cmp	r3, #255
 436 0058 0ED1     		bne	.L28
 437              		.loc 1 392 0 discriminator 2
 438 005a 0C4B     		ldr	r3, .L30+12
 439 005c 9B78     		ldrb	r3, [r3, #2]	@ zero_extendqisi2
 440 005e FF2B     		cmp	r3, #255
 441 0060 0AD1     		bne	.L28
 442              		.loc 1 392 0 discriminator 3
 443 0062 0A4B     		ldr	r3, .L30+12
 444 0064 1B7A     		ldrb	r3, [r3, #8]	@ zero_extendqisi2
 445 0066 3BB9     		cbnz	r3, .L28
 446              		.loc 1 392 0 discriminator 4
 447 0068 084B     		ldr	r3, .L30+12
 448 006a 5B7A     		ldrb	r3, [r3, #9]	@ zero_extendqisi2
 449 006c FF2B     		cmp	r3, #255
 450 006e 03D1     		bne	.L28
 393:main.c        ****          Dato_Exitoso2=5;
 451              		.loc 1 393 0 is_stmt 1
 452 0070 0522     		movs	r2, #5
 453 0072 074B     		ldr	r3, .L30+16
 454 0074 1A70     		strb	r2, [r3]
 455 0076 08BD     		pop	{r3, pc}
 456              	.L28:
 394:main.c        ****       else
 395:main.c        ****          Dato_Exitoso2=10;
 457              		.loc 1 395 0
 458 0078 0A22     		movs	r2, #10
 459 007a 054B     		ldr	r3, .L30+16
 460 007c 1A70     		strb	r2, [r3]
ARM GAS  C:\Users\USUARIO\AppData\Local\Temp\ccFzbpyv.s 			page 16


 461              	.L23:
 462 007e 08BD     		pop	{r3, pc}
 463              	.L31:
 464              		.align	2
 465              	.L30:
 466 0080 00000000 		.word	Dato3
 467 0084 00000000 		.word	Inicio2
 468 0088 00000000 		.word	.LANCHOR0
 469 008c 00000000 		.word	Rx_Buffer4
 470 0090 00000000 		.word	Dato_Exitoso2
 471              		.cfi_endproc
 472              	.LFE71:
 473              		.size	inteRX1, .-inteRX1
 474              		.global	__aeabi_fsub
 475              		.global	__aeabi_i2f
 476              		.global	__aeabi_fdiv
 477              		.global	__aeabi_fmul
 478              		.section	.text.ActualizaRecta,"ax",%progbits
 479              		.align	2
 480              		.global	ActualizaRecta
 481              		.thumb
 482              		.thumb_func
 483              		.type	ActualizaRecta, %function
 484              	ActualizaRecta:
 485              	.LFB65:
 104:main.c        ****    X[y]=Temperatura;
 486              		.loc 1 104 0
 487              		.cfi_startproc
 488              		@ args = 0, pretend = 0, frame = 0
 489              		@ frame_needed = 0, uses_anonymous_args = 0
 490 0000 70B5     		push	{r4, r5, r6, lr}
 491              		.cfi_def_cfa_offset 16
 492              		.cfi_offset 4, -16
 493              		.cfi_offset 5, -12
 494              		.cfi_offset 6, -8
 495              		.cfi_offset 14, -4
 105:main.c        ****    y++;
 496              		.loc 1 105 0
 497 0002 2E49     		ldr	r1, .L35
 498 0004 0B78     		ldrb	r3, [r1]	@ zero_extendqisi2
 499 0006 2E4A     		ldr	r2, .L35+4
 500 0008 1468     		ldr	r4, [r2]	@ float
 501 000a 2E4A     		ldr	r2, .L35+8
 502 000c 02EB8302 		add	r2, r2, r3, lsl #2
 503 0010 5460     		str	r4, [r2, #4]	@ float
 106:main.c        ****    if(y>=2){
 504              		.loc 1 106 0
 505 0012 0133     		adds	r3, r3, #1
 506 0014 DBB2     		uxtb	r3, r3
 507 0016 0B70     		strb	r3, [r1]
 107:main.c        ****       y=0;
 508              		.loc 1 107 0
 509 0018 012B     		cmp	r3, #1
 510 001a 4DD9     		bls	.L32
 108:main.c        ****       Aumento=X[1]-X[0];
 511              		.loc 1 108 0
 512 001c 0022     		movs	r2, #0
ARM GAS  C:\Users\USUARIO\AppData\Local\Temp\ccFzbpyv.s 			page 17


 513 001e 0A70     		strb	r2, [r1]
 109:main.c        ****       HorasActual=(Testerilizacion[3]*10)+Testerilizacion[2];
 514              		.loc 1 109 0
 515 0020 284E     		ldr	r6, .L35+8
 516 0022 7168     		ldr	r1, [r6, #4]	@ float
 517 0024 B068     		ldr	r0, [r6, #8]	@ float
 518 0026 FFF7FEFF 		bl	__aeabi_fsub
 519              	.LVL4:
 520 002a 0546     		mov	r5, r0
 521 002c 264B     		ldr	r3, .L35+12
 522 002e 1860     		str	r0, [r3]	@ float
 110:main.c        ****       MinutosActual=(Testerilizacion[1]*10)+Testerilizacion[0];
 523              		.loc 1 110 0
 524 0030 96F90F10 		ldrsb	r1, [r6, #15]
 525 0034 96F90E20 		ldrsb	r2, [r6, #14]
 526 0038 01EB8101 		add	r1, r1, r1, lsl #2
 527 003c 02EB4101 		add	r1, r2, r1, lsl #1
 528 0040 89B2     		uxth	r1, r1
 529 0042 224B     		ldr	r3, .L35+16
 530 0044 1980     		strh	r1, [r3]	@ movhi
 111:main.c        ****       TiempoActual=Tiempo-((HorasActual*3600)+(MinutosActual*60)+tinicio);
 531              		.loc 1 111 0
 532 0046 96F90D30 		ldrsb	r3, [r6, #13]
 533 004a 96F90C20 		ldrsb	r2, [r6, #12]
 534 004e 03EB8303 		add	r3, r3, r3, lsl #2
 535 0052 02EB4303 		add	r3, r2, r3, lsl #1
 536 0056 9BB2     		uxth	r3, r3
 537 0058 1D4A     		ldr	r2, .L35+20
 538 005a 1380     		strh	r3, [r2]	@ movhi
 112:main.c        ****       PendienteActual=((Setpoint-Temperatura)/TiempoActual);
 539              		.loc 1 112 0
 540 005c C1EB0111 		rsb	r1, r1, r1, lsl #4
 541 0060 C1EB0111 		rsb	r1, r1, r1, lsl #4
 542 0064 C3EB0313 		rsb	r3, r3, r3, lsl #4
 543 0068 9B00     		lsls	r3, r3, #2
 544 006a 03EB0113 		add	r3, r3, r1, lsl #4
 545 006e 194A     		ldr	r2, .L35+24
 546 0070 1688     		ldrh	r6, [r2]
 547 0072 1E44     		add	r6, r6, r3
 548 0074 184B     		ldr	r3, .L35+28
 549 0076 1A88     		ldrh	r2, [r3]
 550 0078 961B     		subs	r6, r2, r6
 551 007a B6B2     		uxth	r6, r6
 552 007c 174B     		ldr	r3, .L35+32
 553 007e 1E80     		strh	r6, [r3]	@ movhi
 113:main.c        ****       DifPendiente=(PendienteActual*20)-Aumento;
 554              		.loc 1 113 0
 555 0080 174B     		ldr	r3, .L35+36
 556 0082 1888     		ldrh	r0, [r3]
 557 0084 FFF7FEFF 		bl	__aeabi_i2f
 558              	.LVL5:
 559 0088 2146     		mov	r1, r4
 560 008a FFF7FEFF 		bl	__aeabi_fsub
 561              	.LVL6:
 562 008e 0446     		mov	r4, r0
 563 0090 3046     		mov	r0, r6
 564 0092 FFF7FEFF 		bl	__aeabi_i2f
ARM GAS  C:\Users\USUARIO\AppData\Local\Temp\ccFzbpyv.s 			page 18


 565              	.LVL7:
 566 0096 0146     		mov	r1, r0
 567 0098 2046     		mov	r0, r4
 568 009a FFF7FEFF 		bl	__aeabi_fdiv
 569              	.LVL8:
 570 009e 114B     		ldr	r3, .L35+40
 571 00a0 1860     		str	r0, [r3]	@ float
 114:main.c        ****       DifPendiente=DifPendiente*5;
 572              		.loc 1 114 0
 573 00a2 1149     		ldr	r1, .L35+44
 574 00a4 FFF7FEFF 		bl	__aeabi_fmul
 575              	.LVL9:
 576 00a8 2946     		mov	r1, r5
 577 00aa FFF7FEFF 		bl	__aeabi_fsub
 578              	.LVL10:
 115:main.c        ****    }
 579              		.loc 1 115 0
 580 00ae 0F49     		ldr	r1, .L35+48
 581 00b0 FFF7FEFF 		bl	__aeabi_fmul
 582              	.LVL11:
 583 00b4 0E4B     		ldr	r3, .L35+52
 584 00b6 1860     		str	r0, [r3]	@ float
 585              	.L32:
 586 00b8 70BD     		pop	{r4, r5, r6, pc}
 587              	.L36:
 588 00ba 00BF     		.align	2
 589              	.L35:
 590 00bc 00000000 		.word	y
 591 00c0 00000000 		.word	Temperatura
 592 00c4 00000000 		.word	.LANCHOR0
 593 00c8 00000000 		.word	Aumento
 594 00cc 00000000 		.word	HorasActual
 595 00d0 00000000 		.word	MinutosActual
 596 00d4 00000000 		.word	tinicio
 597 00d8 00000000 		.word	Tiempo
 598 00dc 00000000 		.word	TiempoActual
 599 00e0 00000000 		.word	Setpoint
 600 00e4 00000000 		.word	PendienteActual
 601 00e8 0000A041 		.word	1101004800
 602 00ec 0000A040 		.word	1084227584
 603 00f0 00000000 		.word	DifPendiente
 604              		.cfi_endproc
 605              	.LFE65:
 606              		.size	ActualizaRecta, .-ActualizaRecta
 607              		.global	__aeabi_ui2f
 608              		.global	__aeabi_fcmpeq
 609              		.global	__aeabi_fadd
 610              		.global	__aeabi_fcmplt
 611              		.global	__aeabi_fcmpge
 612              		.global	__aeabi_f2d
 613              		.global	__aeabi_dmul
 614              		.global	__aeabi_d2f
 615              		.global	__aeabi_fcmple
 616              		.global	__aeabi_fcmpgt
 617              		.global	__aeabi_i2d
 618              		.global	__aeabi_dadd
 619              		.global	__aeabi_dsub
ARM GAS  C:\Users\USUARIO\AppData\Local\Temp\ccFzbpyv.s 			page 19


 620              		.global	__aeabi_ddiv
 621              		.global	__aeabi_d2uiz
 622              		.section	.text.Controla,"ax",%progbits
 623              		.align	2
 624              		.global	Controla
 625              		.thumb
 626              		.thumb_func
 627              		.type	Controla, %function
 628              	Controla:
 629              	.LFB66:
 119:main.c        **** //-------------------------------Control de Calentamiento------------------------------------------
 630              		.loc 1 119 0
 631              		.cfi_startproc
 632              		@ args = 0, pretend = 0, frame = 0
 633              		@ frame_needed = 0, uses_anonymous_args = 0
 634 0000 2DE9F047 		push	{r4, r5, r6, r7, r8, r9, r10, lr}
 635              		.cfi_def_cfa_offset 32
 636              		.cfi_offset 4, -32
 637              		.cfi_offset 5, -28
 638              		.cfi_offset 6, -24
 639              		.cfi_offset 7, -20
 640              		.cfi_offset 8, -16
 641              		.cfi_offset 9, -12
 642              		.cfi_offset 10, -8
 643              		.cfi_offset 14, -4
 644              	.LVL12:
 122:main.c        ****          ActualizaRecta();
 645              		.loc 1 122 0
 646 0004 834B     		ldr	r3, .L101
 647 0006 1B88     		ldrh	r3, [r3]
 648 0008 092B     		cmp	r3, #9
 649 000a 04D9     		bls	.L38
 123:main.c        ****          tiemporecta=0;
 650              		.loc 1 123 0
 651 000c FFF7FEFF 		bl	ActualizaRecta
 652              	.LVL13:
 124:main.c        ****       }
 653              		.loc 1 124 0
 654 0010 0022     		movs	r2, #0
 655 0012 804B     		ldr	r3, .L101
 656 0014 1A80     		strh	r2, [r3]	@ movhi
 657              	.L38:
 127:main.c        ****          if(flag_calcula==0){
 658              		.loc 1 127 0
 659 0016 804B     		ldr	r3, .L101+4
 660 0018 1C78     		ldrb	r4, [r3]	@ zero_extendqisi2
 661 001a 002C     		cmp	r4, #0
 662 001c 65D1     		bne	.L39
 128:main.c        ****             Tiempo=(Horas1[ProgramaSeleccionado*Pasos]*3600)+(Minutos1[ProgramaSeleccionado*Pasos]*
 663              		.loc 1 128 0
 664 001e 7F4B     		ldr	r3, .L101+8
 665 0020 B3F90030 		ldrsh	r3, [r3]
 666 0024 002B     		cmp	r3, #0
 667 0026 40F0BF80 		bne	.L40
 129:main.c        ****             Setpoint=Temperatura1[(ProgramaSeleccionado*Pasos)+Segmento];
 668              		.loc 1 129 0
 669 002a 7D4B     		ldr	r3, .L101+12
ARM GAS  C:\Users\USUARIO\AppData\Local\Temp\ccFzbpyv.s 			page 20


 670 002c 1E78     		ldrb	r6, [r3]	@ zero_extendqisi2
 671 002e 3601     		lsls	r6, r6, #4
 672 0030 DFF82082 		ldr	r8, .L101+64
 673 0034 38F91630 		ldrsh	r3, [r8, r6, lsl #1]
 674 0038 7A4F     		ldr	r7, .L101+16
 675 003a 37F91620 		ldrsh	r2, [r7, r6, lsl #1]
 676 003e C3EB0313 		rsb	r3, r3, r3, lsl #4
 677 0042 C3EB0313 		rsb	r3, r3, r3, lsl #4
 678 0046 4FEA0319 		lsl	r9, r3, #4
 679 004a C2EB0213 		rsb	r3, r2, r2, lsl #4
 680 004e 9A00     		lsls	r2, r3, #2
 681 0050 9144     		add	r9, r9, r2
 682 0052 1FFA89F9 		uxth	r9, r9
 683 0056 744B     		ldr	r3, .L101+20
 684 0058 A3F80090 		strh	r9, [r3]	@ movhi
 130:main.c        ****             Pendiente=(((float)Setpoint-TempeInicial)/(float)Tiempo);
 685              		.loc 1 130 0
 686 005c 2644     		add	r6, r6, r4
 687 005e 734B     		ldr	r3, .L101+24
 688 0060 33F81650 		ldrh	r5, [r3, r6, lsl #1]
 689 0064 724B     		ldr	r3, .L101+28
 690 0066 1D80     		strh	r5, [r3]	@ movhi
 131:main.c        ****             Testerilizacionp[3]=(uint8)Horas1[(ProgramaSeleccionado*Pasos)+Segmento]/10;
 691              		.loc 1 131 0
 692 0068 2846     		mov	r0, r5
 693 006a FFF7FEFF 		bl	__aeabi_ui2f
 694              	.LVL14:
 695 006e 714B     		ldr	r3, .L101+32
 696 0070 1968     		ldr	r1, [r3]	@ float
 697 0072 FFF7FEFF 		bl	__aeabi_fsub
 698              	.LVL15:
 699 0076 8246     		mov	r10, r0
 700 0078 4846     		mov	r0, r9
 701 007a FFF7FEFF 		bl	__aeabi_ui2f
 702              	.LVL16:
 703 007e 0146     		mov	r1, r0
 704 0080 5046     		mov	r0, r10
 705 0082 FFF7FEFF 		bl	__aeabi_fdiv
 706              	.LVL17:
 707 0086 6C4B     		ldr	r3, .L101+36
 708 0088 1860     		str	r0, [r3]	@ float
 132:main.c        ****             Testerilizacionp[2]=Horas1[(ProgramaSeleccionado*Pasos)+Segmento]-(Testerilizacionp[3]*
 709              		.loc 1 132 0
 710 008a 18F81600 		ldrb	r0, [r8, r6, lsl #1]	@ zero_extendqisi2
 711 008e 6B4B     		ldr	r3, .L101+40
 712 0090 A3FB0023 		umull	r2, r3, r3, r0
 713 0094 DB08     		lsrs	r3, r3, #3
 714 0096 6A49     		ldr	r1, .L101+44
 715 0098 CB74     		strb	r3, [r1, #19]
 133:main.c        ****             Testerilizacionp[1]=Minutos1[(ProgramaSeleccionado*Pasos)+Segmento]/10;
 716              		.loc 1 133 0
 717 009a C3EB4312 		rsb	r2, r3, r3, lsl #5
 718 009e C3EB8203 		rsb	r3, r3, r2, lsl #2
 719 00a2 5A00     		lsls	r2, r3, #1
 720 00a4 0244     		add	r2, r2, r0
 721 00a6 8A74     		strb	r2, [r1, #18]
 134:main.c        ****             Testerilizacionp[0]=Minutos1[(ProgramaSeleccionado*Pasos)+Segmento]-(Testerilizacionp[1
ARM GAS  C:\Users\USUARIO\AppData\Local\Temp\ccFzbpyv.s 			page 21


 722              		.loc 1 134 0
 723 00a8 37F91620 		ldrsh	r2, [r7, r6, lsl #1]
 724 00ac 654B     		ldr	r3, .L101+48
 725 00ae 83FB0230 		smull	r3, r0, r3, r2
 726 00b2 D317     		asrs	r3, r2, #31
 727 00b4 C3EBA003 		rsb	r3, r3, r0, asr #2
 728 00b8 5BB2     		sxtb	r3, r3
 729 00ba 4B74     		strb	r3, [r1, #17]
 135:main.c        ****             flag_calcula=1;
 730              		.loc 1 135 0
 731 00bc C3EB4310 		rsb	r0, r3, r3, lsl #5
 732 00c0 C3EB8003 		rsb	r3, r3, r0, lsl #2
 733 00c4 5800     		lsls	r0, r3, #1
 734 00c6 0244     		add	r2, r2, r0
 735 00c8 0A74     		strb	r2, [r1, #16]
 136:main.c        ****             Ganancia=GananciaIn*(Setpoint/100);
 736              		.loc 1 136 0
 737 00ca 0122     		movs	r2, #1
 738 00cc 534B     		ldr	r3, .L101+8
 739 00ce 1A80     		strh	r2, [r3]	@ movhi
 137:main.c        ****          }
 740              		.loc 1 137 0
 741 00d0 5D48     		ldr	r0, .L101+52
 742 00d2 A0FB0530 		umull	r3, r0, r0, r5
 743 00d6 4009     		lsrs	r0, r0, #5
 744 00d8 FFF7FEFF 		bl	__aeabi_i2f
 745              	.LVL18:
 746 00dc 5B4B     		ldr	r3, .L101+56
 747 00de 1968     		ldr	r1, [r3]	@ float
 748 00e0 FFF7FEFF 		bl	__aeabi_fmul
 749              	.LVL19:
 750 00e4 5A4B     		ldr	r3, .L101+60
 751 00e6 1860     		str	r0, [r3]	@ float
 752 00e8 5EE0     		b	.L40
 753              	.L39:
 140:main.c        ****             Tiempo=(Horas1[(ProgramaSeleccionado*Pasos)+Segmento]*3600)+(Minutos1[(ProgramaSeleccio
 754              		.loc 1 140 0
 755 00ea 4C4B     		ldr	r3, .L101+8
 756 00ec B3F90030 		ldrsh	r3, [r3]
 757 00f0 002B     		cmp	r3, #0
 758 00f2 59D1     		bne	.L40
 141:main.c        ****             Pendiente=((float)(Temperatura1[(ProgramaSeleccionado*Pasos)+Segmento]-Temperatura1[(Pr
 759              		.loc 1 141 0
 760 00f4 4A4B     		ldr	r3, .L101+12
 761 00f6 1B78     		ldrb	r3, [r3]	@ zero_extendqisi2
 762 00f8 04EB0313 		add	r3, r4, r3, lsl #4
 763 00fc 554A     		ldr	r2, .L101+64
 764 00fe 32F91370 		ldrsh	r7, [r2, r3, lsl #1]
 765 0102 484A     		ldr	r2, .L101+16
 766 0104 32F91350 		ldrsh	r5, [r2, r3, lsl #1]
 767 0108 C7EB0712 		rsb	r2, r7, r7, lsl #4
 768 010c C2EB0212 		rsb	r2, r2, r2, lsl #4
 769 0110 1601     		lsls	r6, r2, #4
 770 0112 C5EB0511 		rsb	r1, r5, r5, lsl #4
 771 0116 8A00     		lsls	r2, r1, #2
 772 0118 1644     		add	r6, r6, r2
 773 011a B6B2     		uxth	r6, r6
ARM GAS  C:\Users\USUARIO\AppData\Local\Temp\ccFzbpyv.s 			page 22


 774 011c 424A     		ldr	r2, .L101+20
 775 011e 1680     		strh	r6, [r2]	@ movhi
 142:main.c        ****             Setpoint=Temperatura1[(ProgramaSeleccionado*Pasos)+Segmento];
 776              		.loc 1 142 0
 777 0120 424A     		ldr	r2, .L101+24
 778 0122 32F91380 		ldrsh	r8, [r2, r3, lsl #1]
 779 0126 013B     		subs	r3, r3, #1
 780 0128 32F91300 		ldrsh	r0, [r2, r3, lsl #1]
 781 012c C0EB0800 		rsb	r0, r0, r8
 782 0130 FFF7FEFF 		bl	__aeabi_i2f
 783              	.LVL20:
 784 0134 8146     		mov	r9, r0
 785 0136 3046     		mov	r0, r6
 786 0138 FFF7FEFF 		bl	__aeabi_ui2f
 787              	.LVL21:
 788 013c 0146     		mov	r1, r0
 789 013e 4846     		mov	r0, r9
 790 0140 FFF7FEFF 		bl	__aeabi_fdiv
 791              	.LVL22:
 792 0144 3C4B     		ldr	r3, .L101+36
 793 0146 1860     		str	r0, [r3]	@ float
 143:main.c        ****             Testerilizacionp[3]=(uint8)Horas1[(ProgramaSeleccionado*Pasos)+Segmento]/10;
 794              		.loc 1 143 0
 795 0148 1FFA88F1 		uxth	r1, r8
 796 014c 384B     		ldr	r3, .L101+28
 797 014e 1980     		strh	r1, [r3]	@ movhi
 144:main.c        ****             Testerilizacionp[2]=Horas1[(ProgramaSeleccionado*Pasos)+Segmento]-(Testerilizacionp[3]*
 798              		.loc 1 144 0
 799 0150 FAB2     		uxtb	r2, r7
 800 0152 3A4B     		ldr	r3, .L101+40
 801 0154 A3FB0203 		umull	r0, r3, r3, r2
 802 0158 DB08     		lsrs	r3, r3, #3
 803 015a 394E     		ldr	r6, .L101+44
 804 015c F374     		strb	r3, [r6, #19]
 145:main.c        ****             Testerilizacionp[1]=Minutos1[(ProgramaSeleccionado*Pasos)+Segmento]/10;
 805              		.loc 1 145 0
 806 015e C3EB4310 		rsb	r0, r3, r3, lsl #5
 807 0162 C3EB8003 		rsb	r3, r3, r0, lsl #2
 808 0166 5800     		lsls	r0, r3, #1
 809 0168 0244     		add	r2, r2, r0
 810 016a B274     		strb	r2, [r6, #18]
 146:main.c        ****             Testerilizacionp[0]=Minutos1[(ProgramaSeleccionado*Pasos)+Segmento]-(Testerilizacionp[1
 811              		.loc 1 146 0
 812 016c 354B     		ldr	r3, .L101+48
 813 016e 83FB0532 		smull	r3, r2, r3, r5
 814 0172 EB17     		asrs	r3, r5, #31
 815 0174 C3EBA203 		rsb	r3, r3, r2, asr #2
 816 0178 5BB2     		sxtb	r3, r3
 817 017a 7374     		strb	r3, [r6, #17]
 147:main.c        ****             flag_calcula=1;
 818              		.loc 1 147 0
 819 017c C3EB4312 		rsb	r2, r3, r3, lsl #5
 820 0180 C3EB8203 		rsb	r3, r3, r2, lsl #2
 821 0184 5A00     		lsls	r2, r3, #1
 822 0186 1544     		add	r5, r5, r2
 823 0188 3574     		strb	r5, [r6, #16]
 148:main.c        ****             Ganancia=GananciaIn*(Setpoint/100);
ARM GAS  C:\Users\USUARIO\AppData\Local\Temp\ccFzbpyv.s 			page 23


 824              		.loc 1 148 0
 825 018a 0122     		movs	r2, #1
 826 018c 234B     		ldr	r3, .L101+8
 827 018e 1A80     		strh	r2, [r3]	@ movhi
 149:main.c        ****          }
 828              		.loc 1 149 0
 829 0190 2D48     		ldr	r0, .L101+52
 830 0192 A0FB0130 		umull	r3, r0, r0, r1
 831 0196 4009     		lsrs	r0, r0, #5
 832 0198 FFF7FEFF 		bl	__aeabi_i2f
 833              	.LVL23:
 834 019c 2B4B     		ldr	r3, .L101+56
 835 019e 1968     		ldr	r1, [r3]	@ float
 836 01a0 FFF7FEFF 		bl	__aeabi_fmul
 837              	.LVL24:
 838 01a4 2A4B     		ldr	r3, .L101+60
 839 01a6 1860     		str	r0, [r3]	@ float
 840              	.L40:
 154:main.c        ****       //TiempoRampa=((HorasActual*3600)+(MinutosActual*60)+tinicio);
 841              		.loc 1 154 0
 842 01a8 234B     		ldr	r3, .L101+36
 843 01aa 1D68     		ldr	r5, [r3]	@ float
 844 01ac 0021     		movs	r1, #0
 845 01ae 2846     		mov	r0, r5
 846 01b0 FFF7FEFF 		bl	__aeabi_fcmpeq
 847              	.LVL25:
 848 01b4 0028     		cmp	r0, #0
 849 01b6 40F0F680 		bne	.L97
 156:main.c        ****       if(Segmento==0){
 850              		.loc 1 156 0
 851 01ba 2148     		ldr	r0, .L101+44
 852 01bc 90F90F20 		ldrsb	r2, [r0, #15]
 853 01c0 02EB8202 		add	r2, r2, r2, lsl #2
 854 01c4 5300     		lsls	r3, r2, #1
 855 01c6 90F90E20 		ldrsb	r2, [r0, #14]
 856 01ca 1344     		add	r3, r3, r2
 857 01cc 90F90D10 		ldrsb	r1, [r0, #13]
 858 01d0 01EB8101 		add	r1, r1, r1, lsl #2
 859 01d4 4A00     		lsls	r2, r1, #1
 860 01d6 90F90C10 		ldrsb	r1, [r0, #12]
 861 01da 0A44     		add	r2, r2, r1
 862 01dc C3EB0313 		rsb	r3, r3, r3, lsl #4
 863 01e0 C3EB0313 		rsb	r3, r3, r3, lsl #4
 864 01e4 1801     		lsls	r0, r3, #4
 865 01e6 C2EB0213 		rsb	r3, r2, r2, lsl #4
 866 01ea 9A00     		lsls	r2, r3, #2
 867 01ec 1044     		add	r0, r0, r2
 868 01ee 1A4B     		ldr	r3, .L101+68
 869 01f0 1B88     		ldrh	r3, [r3]
 870 01f2 1844     		add	r0, r0, r3
 871 01f4 80B2     		uxth	r0, r0
 872 01f6 194B     		ldr	r3, .L101+72
 873 01f8 1880     		strh	r0, [r3]	@ movhi
 157:main.c        ****          TemperaturaIdeal=(Pendiente*TiempoRampa)+TempeInicial;
 874              		.loc 1 157 0
 875 01fa 9CBB     		cbnz	r4, .L43
 158:main.c        ****       }else{
ARM GAS  C:\Users\USUARIO\AppData\Local\Temp\ccFzbpyv.s 			page 24


 876              		.loc 1 158 0
 877 01fc FFF7FEFF 		bl	__aeabi_i2f
 878              	.LVL26:
 879 0200 2946     		mov	r1, r5
 880 0202 FFF7FEFF 		bl	__aeabi_fmul
 881              	.LVL27:
 882 0206 0B4B     		ldr	r3, .L101+32
 883 0208 1968     		ldr	r1, [r3]	@ float
 884 020a FFF7FEFF 		bl	__aeabi_fadd
 885              	.LVL28:
 886 020e 144B     		ldr	r3, .L101+76
 887 0210 1860     		str	r0, [r3]	@ float
 888 0212 3CE0     		b	.L44
 889              	.L102:
 890              		.align	2
 891              	.L101:
 892 0214 00000000 		.word	tiemporecta
 893 0218 00000000 		.word	Segmento
 894 021c 00000000 		.word	flag_calcula
 895 0220 00000000 		.word	ProgramaSeleccionado
 896 0224 00000000 		.word	Minutos1
 897 0228 00000000 		.word	Tiempo
 898 022c 00000000 		.word	Temperatura1
 899 0230 00000000 		.word	Setpoint
 900 0234 00000000 		.word	TempeInicial
 901 0238 00000000 		.word	Pendiente
 902 023c CDCCCCCC 		.word	-858993459
 903 0240 00000000 		.word	.LANCHOR0
 904 0244 67666666 		.word	1717986919
 905 0248 1F85EB51 		.word	1374389535
 906 024c 00000000 		.word	GananciaIn
 907 0250 00000000 		.word	Ganancia
 908 0254 00000000 		.word	Horas1
 909 0258 00000000 		.word	tinicio
 910 025c 00000000 		.word	TiempoRampa
 911 0260 00000000 		.word	TemperaturaIdeal
 912              	.L43:
 160:main.c        ****       }
 913              		.loc 1 160 0
 914 0264 FFF7FEFF 		bl	__aeabi_i2f
 915              	.LVL29:
 916 0268 2946     		mov	r1, r5
 917 026a FFF7FEFF 		bl	__aeabi_fmul
 918              	.LVL30:
 919 026e 0546     		mov	r5, r0
 920 0270 834B     		ldr	r3, .L103+32
 921 0272 1B78     		ldrb	r3, [r3]	@ zero_extendqisi2
 922 0274 04EB0314 		add	r4, r4, r3, lsl #4
 923 0278 013C     		subs	r4, r4, #1
 924 027a 824B     		ldr	r3, .L103+36
 925 027c 33F91400 		ldrsh	r0, [r3, r4, lsl #1]
 926 0280 FFF7FEFF 		bl	__aeabi_i2f
 927              	.LVL31:
 928 0284 2946     		mov	r1, r5
 929 0286 FFF7FEFF 		bl	__aeabi_fadd
 930              	.LVL32:
 931 028a 7F4B     		ldr	r3, .L103+40
ARM GAS  C:\Users\USUARIO\AppData\Local\Temp\ccFzbpyv.s 			page 25


 932 028c 1860     		str	r0, [r3]	@ float
 933              	.L44:
 162:main.c        **** // Pendiente determinar si el comportamiento de la mufla es lineal 10°C/min o si tiene un comporta
 934              		.loc 1 162 0
 935 028e 7F4B     		ldr	r3, .L103+44
 936 0290 1C68     		ldr	r4, [r3]	@ float
 937 0292 2146     		mov	r1, r4
 938 0294 7C4B     		ldr	r3, .L103+40
 939 0296 1868     		ldr	r0, [r3]	@ float
 940 0298 FFF7FEFF 		bl	__aeabi_fsub
 941              	.LVL33:
 942 029c 7C49     		ldr	r1, .L103+48
 943 029e FFF7FEFF 		bl	__aeabi_fmul
 944              	.LVL34:
 945 02a2 7C4B     		ldr	r3, .L103+52
 946 02a4 1968     		ldr	r1, [r3]	@ float
 947 02a6 FFF7FEFF 		bl	__aeabi_fdiv
 948              	.LVL35:
 949 02aa 0546     		mov	r5, r0
 950 02ac 7A4B     		ldr	r3, .L103+56
 951 02ae 1860     		str	r0, [r3]	@ float
 165:main.c        ****          penMufla=penInicial*0.9;
 952              		.loc 1 165 0
 953 02b0 7A49     		ldr	r1, .L103+60
 954 02b2 2046     		mov	r0, r4
 955 02b4 FFF7FEFF 		bl	__aeabi_fcmplt
 956              	.LVL36:
 957 02b8 88B1     		cbz	r0, .L45
 165:main.c        ****          penMufla=penInicial*0.9;
 958              		.loc 1 165 0 is_stmt 0 discriminator 1
 959 02ba 7949     		ldr	r1, .L103+64
 960 02bc 2046     		mov	r0, r4
 961 02be FFF7FEFF 		bl	__aeabi_fcmpge
 962              	.LVL37:
 963 02c2 60B1     		cbz	r0, .L45
 166:main.c        ****          
 964              		.loc 1 166 0 is_stmt 1
 965 02c4 774B     		ldr	r3, .L103+68
 966 02c6 1868     		ldr	r0, [r3]	@ float
 967 02c8 FFF7FEFF 		bl	__aeabi_f2d
 968              	.LVL38:
 969 02cc 64A3     		adr	r3, .L103
 970 02ce D3E90023 		ldrd	r2, [r3]
 971 02d2 FFF7FEFF 		bl	__aeabi_dmul
 972              	.LVL39:
 973 02d6 FFF7FEFF 		bl	__aeabi_d2f
 974              	.LVL40:
 975 02da 6E4B     		ldr	r3, .L103+52
 976 02dc 1860     		str	r0, [r3]	@ float
 977              	.L45:
 168:main.c        ****          penMufla=penInicial*0.8;
 978              		.loc 1 168 0
 979 02de 7249     		ldr	r1, .L103+72
 980 02e0 2046     		mov	r0, r4
 981 02e2 FFF7FEFF 		bl	__aeabi_fcmplt
 982              	.LVL41:
 983 02e6 88B1     		cbz	r0, .L48
ARM GAS  C:\Users\USUARIO\AppData\Local\Temp\ccFzbpyv.s 			page 26


 168:main.c        ****          penMufla=penInicial*0.8;
 984              		.loc 1 168 0 is_stmt 0 discriminator 1
 985 02e8 6C49     		ldr	r1, .L103+60
 986 02ea 2046     		mov	r0, r4
 987 02ec FFF7FEFF 		bl	__aeabi_fcmpge
 988              	.LVL42:
 989 02f0 60B1     		cbz	r0, .L48
 169:main.c        ****          
 990              		.loc 1 169 0 is_stmt 1
 991 02f2 6C4B     		ldr	r3, .L103+68
 992 02f4 1868     		ldr	r0, [r3]	@ float
 993 02f6 FFF7FEFF 		bl	__aeabi_f2d
 994              	.LVL43:
 995 02fa 5BA3     		adr	r3, .L103+8
 996 02fc D3E90023 		ldrd	r2, [r3]
 997 0300 FFF7FEFF 		bl	__aeabi_dmul
 998              	.LVL44:
 999 0304 FFF7FEFF 		bl	__aeabi_d2f
 1000              	.LVL45:
 1001 0308 624B     		ldr	r3, .L103+52
 1002 030a 1860     		str	r0, [r3]	@ float
 1003              	.L48:
 171:main.c        ****          penMufla=penInicial*0.7;  
 1004              		.loc 1 171 0
 1005 030c 6749     		ldr	r1, .L103+76
 1006 030e 2046     		mov	r0, r4
 1007 0310 FFF7FEFF 		bl	__aeabi_fcmplt
 1008              	.LVL46:
 1009 0314 88B1     		cbz	r0, .L51
 171:main.c        ****          penMufla=penInicial*0.7;  
 1010              		.loc 1 171 0 is_stmt 0 discriminator 1
 1011 0316 6449     		ldr	r1, .L103+72
 1012 0318 2046     		mov	r0, r4
 1013 031a FFF7FEFF 		bl	__aeabi_fcmpge
 1014              	.LVL47:
 1015 031e 60B1     		cbz	r0, .L51
 172:main.c        ****          
 1016              		.loc 1 172 0 is_stmt 1
 1017 0320 604B     		ldr	r3, .L103+68
 1018 0322 1868     		ldr	r0, [r3]	@ float
 1019 0324 FFF7FEFF 		bl	__aeabi_f2d
 1020              	.LVL48:
 1021 0328 51A3     		adr	r3, .L103+16
 1022 032a D3E90023 		ldrd	r2, [r3]
 1023 032e FFF7FEFF 		bl	__aeabi_dmul
 1024              	.LVL49:
 1025 0332 FFF7FEFF 		bl	__aeabi_d2f
 1026              	.LVL50:
 1027 0336 574B     		ldr	r3, .L103+52
 1028 0338 1860     		str	r0, [r3]	@ float
 1029              	.L51:
 174:main.c        ****          penMufla=penInicial*0.6;   
 1030              		.loc 1 174 0
 1031 033a 5D49     		ldr	r1, .L103+80
 1032 033c 2046     		mov	r0, r4
 1033 033e FFF7FEFF 		bl	__aeabi_fcmple
 1034              	.LVL51:
ARM GAS  C:\Users\USUARIO\AppData\Local\Temp\ccFzbpyv.s 			page 27


 1035 0342 88B1     		cbz	r0, .L54
 174:main.c        ****          penMufla=penInicial*0.6;   
 1036              		.loc 1 174 0 is_stmt 0 discriminator 1
 1037 0344 5949     		ldr	r1, .L103+76
 1038 0346 2046     		mov	r0, r4
 1039 0348 FFF7FEFF 		bl	__aeabi_fcmpge
 1040              	.LVL52:
 1041 034c 60B1     		cbz	r0, .L54
 175:main.c        ****       
 1042              		.loc 1 175 0 is_stmt 1
 1043 034e 554B     		ldr	r3, .L103+68
 1044 0350 1868     		ldr	r0, [r3]	@ float
 1045 0352 FFF7FEFF 		bl	__aeabi_f2d
 1046              	.LVL53:
 1047 0356 48A3     		adr	r3, .L103+24
 1048 0358 D3E90023 		ldrd	r2, [r3]
 1049 035c FFF7FEFF 		bl	__aeabi_dmul
 1050              	.LVL54:
 1051 0360 FFF7FEFF 		bl	__aeabi_d2f
 1052              	.LVL55:
 1053 0364 4B4B     		ldr	r3, .L103+52
 1054 0366 1860     		str	r0, [r3]	@ float
 1055              	.L54:
 177:main.c        ****          PotenciaEntregada=100.0;
 1056              		.loc 1 177 0
 1057 0368 4949     		ldr	r1, .L103+48
 1058 036a 2846     		mov	r0, r5
 1059 036c FFF7FEFF 		bl	__aeabi_fcmpgt
 1060              	.LVL56:
 1061 0370 10B1     		cbz	r0, .L57
 178:main.c        ****       }
 1062              		.loc 1 178 0
 1063 0372 474A     		ldr	r2, .L103+48
 1064 0374 484B     		ldr	r3, .L103+56
 1065 0376 1A60     		str	r2, [r3]	@ float
 1066              	.L57:
 181:main.c        ****          PotenciaEntregada=0;
 1067              		.loc 1 181 0
 1068 0378 0021     		movs	r1, #0
 1069 037a 474B     		ldr	r3, .L103+56
 1070 037c 1868     		ldr	r0, [r3]	@ float
 1071 037e FFF7FEFF 		bl	__aeabi_fcmplt
 1072              	.LVL57:
 1073 0382 10B1     		cbz	r0, .L59
 182:main.c        ****       }
 1074              		.loc 1 182 0
 1075 0384 0022     		movs	r2, #0
 1076 0386 444B     		ldr	r3, .L103+56
 1077 0388 1A60     		str	r2, [r3]	@ float
 1078              	.L59:
 185:main.c        ****    }else{
 1079              		.loc 1 185 0
 1080 038a 4A4B     		ldr	r3, .L103+84
 1081 038c 1878     		ldrb	r0, [r3]	@ zero_extendqisi2
 1082 038e FFF7FEFF 		bl	__aeabi_i2f
 1083              	.LVL58:
 1084 0392 414B     		ldr	r3, .L103+56
ARM GAS  C:\Users\USUARIO\AppData\Local\Temp\ccFzbpyv.s 			page 28


 1085 0394 1968     		ldr	r1, [r3]	@ float
 1086 0396 FFF7FEFF 		bl	__aeabi_fmul
 1087              	.LVL59:
 1088 039a 3D49     		ldr	r1, .L103+48
 1089 039c FFF7FEFF 		bl	__aeabi_fdiv
 1090              	.LVL60:
 1091 03a0 454B     		ldr	r3, .L103+88
 1092 03a2 1860     		str	r0, [r3]	@ float
 1093 03a4 F2E0     		b	.L61
 1094              	.L97:
 188:main.c        ****       
 1095              		.loc 1 188 0
 1096 03a6 454B     		ldr	r3, .L103+92
 1097 03a8 1E88     		ldrh	r6, [r3]
 1098 03aa 3046     		mov	r0, r6
 1099 03ac FFF7FEFF 		bl	__aeabi_i2d
 1100              	.LVL61:
 1101 03b0 0022     		movs	r2, #0
 1102 03b2 434B     		ldr	r3, .L103+96
 1103 03b4 FFF7FEFF 		bl	__aeabi_dadd
 1104              	.LVL62:
 1105 03b8 0446     		mov	r4, r0
 1106 03ba 0D46     		mov	r5, r1
 1107 03bc 334B     		ldr	r3, .L103+44
 1108 03be 1868     		ldr	r0, [r3]	@ float
 1109 03c0 FFF7FEFF 		bl	__aeabi_f2d
 1110              	.LVL63:
 1111 03c4 0246     		mov	r2, r0
 1112 03c6 0B46     		mov	r3, r1
 1113 03c8 2046     		mov	r0, r4
 1114 03ca 2946     		mov	r1, r5
 1115 03cc FFF7FEFF 		bl	__aeabi_dsub
 1116              	.LVL64:
 1117 03d0 FFF7FEFF 		bl	__aeabi_d2f
 1118              	.LVL65:
 1119 03d4 0446     		mov	r4, r0
 1120 03d6 3B4B     		ldr	r3, .L103+100
 1121 03d8 1860     		str	r0, [r3]	@ float
 190:main.c        ****          if(Potencia<90.0){
 1122              		.loc 1 190 0
 1123 03da 3B49     		ldr	r1, .L103+104
 1124 03dc FFF7FEFF 		bl	__aeabi_fcmpgt
 1125              	.LVL66:
 1126 03e0 0028     		cmp	r0, #0
 1127 03e2 00F09880 		beq	.L62
 190:main.c        ****          if(Potencia<90.0){
 1128              		.loc 1 190 0 is_stmt 0 discriminator 1
 1129 03e6 394B     		ldr	r3, .L103+108
 1130 03e8 1D68     		ldr	r5, [r3]	@ float
 1131 03ea 4FF07E51 		mov	r1, #1065353216
 1132 03ee 2846     		mov	r0, r5
 1133 03f0 FFF7FEFF 		bl	__aeabi_fcmplt
 1134              	.LVL67:
 1135 03f4 0028     		cmp	r0, #0
 1136 03f6 00F08E80 		beq	.L62
 191:main.c        ****             if(TiempoControl>=Derivativo){
 1137              		.loc 1 191 0 is_stmt 1
ARM GAS  C:\Users\USUARIO\AppData\Local\Temp\ccFzbpyv.s 			page 29


 1138 03fa 3549     		ldr	r1, .L103+112
 1139 03fc 354B     		ldr	r3, .L103+116
 1140 03fe 1868     		ldr	r0, [r3]	@ float
 1141 0400 FFF7FEFF 		bl	__aeabi_fcmplt
 1142              	.LVL68:
 1143 0404 0028     		cmp	r0, #0
 1144 0406 00F08680 		beq	.L62
 192:main.c        ****                TiempoControl=0;
 1145              		.loc 1 192 0
 1146 040a 334B     		ldr	r3, .L103+120
 1147 040c 1A78     		ldrb	r2, [r3]	@ zero_extendqisi2
 1148 040e 334B     		ldr	r3, .L103+124
 1149 0410 1B88     		ldrh	r3, [r3]
 1150 0412 9A42     		cmp	r2, r3
 1151 0414 7FD8     		bhi	.L62
 193:main.c        ****                if(Aumento<-2){
 1152              		.loc 1 193 0
 1153 0416 0022     		movs	r2, #0
 1154 0418 304B     		ldr	r3, .L103+124
 1155 041a 1A80     		strh	r2, [r3]	@ movhi
 194:main.c        ****                   Ganancia+=Integral+1;
 1156              		.loc 1 194 0
 1157 041c 4FF04041 		mov	r1, #-1073741824
 1158 0420 2846     		mov	r0, r5
 1159 0422 FFF7FEFF 		bl	__aeabi_fcmplt
 1160              	.LVL69:
 1161 0426 50B1     		cbz	r0, .L98
 195:main.c        ****                }else{
 1162              		.loc 1 195 0
 1163 0428 2D4B     		ldr	r3, .L103+128
 1164 042a 1878     		ldrb	r0, [r3]	@ zero_extendqisi2
 1165 042c 2D4D     		ldr	r5, .L103+132
 1166 042e 0130     		adds	r0, r0, #1
 1167 0430 FFF7FEFF 		bl	__aeabi_i2f
 1168              	.LVL70:
 1169 0434 2968     		ldr	r1, [r5]	@ float
 1170 0436 FFF7FEFF 		bl	__aeabi_fadd
 1171              	.LVL71:
 1172 043a 2860     		str	r0, [r5]	@ float
 1173 043c 6BE0     		b	.L62
 1174              	.L98:
 197:main.c        ****                      Ganancia+=Integral;
 1175              		.loc 1 197 0
 1176 043e 2A49     		ldr	r1, .L103+136
 1177 0440 2846     		mov	r0, r5
 1178 0442 FFF7FEFF 		bl	__aeabi_fcmplt
 1179              	.LVL72:
 1180 0446 0028     		cmp	r0, #0
 1181 0448 50D0     		beq	.L99
 198:main.c        ****                   }else{
 1182              		.loc 1 198 0
 1183 044a 264D     		ldr	r5, .L103+132
 1184 044c 244B     		ldr	r3, .L103+128
 1185 044e 1878     		ldrb	r0, [r3]	@ zero_extendqisi2
 1186 0450 FFF7FEFF 		bl	__aeabi_i2f
 1187              	.LVL73:
 1188 0454 2968     		ldr	r1, [r5]	@ float
ARM GAS  C:\Users\USUARIO\AppData\Local\Temp\ccFzbpyv.s 			page 30


 1189 0456 FFF7FEFF 		bl	__aeabi_fadd
 1190              	.LVL74:
 1191 045a 2860     		str	r0, [r5]	@ float
 1192 045c 5BE0     		b	.L62
 1193              	.L104:
 1194 045e 00BF     		.align	3
 1195              	.L103:
 1196 0460 CDCCCCCC 		.word	-858993459
 1197 0464 CCCCEC3F 		.word	1072483532
 1198 0468 9A999999 		.word	-1717986918
 1199 046c 9999E93F 		.word	1072273817
 1200 0470 66666666 		.word	1717986918
 1201 0474 6666E63F 		.word	1072064102
 1202 0478 33333333 		.word	858993459
 1203 047c 3333E33F 		.word	1071854387
 1204 0480 00000000 		.word	ProgramaSeleccionado
 1205 0484 00000000 		.word	Temperatura1
 1206 0488 00000000 		.word	TemperaturaIdeal
 1207 048c 00000000 		.word	Temperatura
 1208 0490 0000C842 		.word	1120403456
 1209 0494 00000000 		.word	.LANCHOR1
 1210 0498 00000000 		.word	PotenciaEntregada
 1211 049c 0000E143 		.word	1138819072
 1212 04a0 00004843 		.word	1128792064
 1213 04a4 00000000 		.word	penInicial
 1214 04a8 00001644 		.word	1142292480
 1215 04ac 00006144 		.word	1147207680
 1216 04b0 00009644 		.word	1150681088
 1217 04b4 00000000 		.word	Tciclo
 1218 04b8 00000000 		.word	Tpulso
 1219 04bc 00000000 		.word	Setpoint
 1220 04c0 00000840 		.word	1074266112
 1221 04c4 00000000 		.word	error
 1222 04c8 00004040 		.word	1077936128
 1223 04cc 00000000 		.word	Aumento
 1224 04d0 0000B442 		.word	1119092736
 1225 04d4 00000000 		.word	Potencia
 1226 04d8 00000000 		.word	Derivativo
 1227 04dc 00000000 		.word	TiempoControl
 1228 04e0 00000000 		.word	Integral
 1229 04e4 00000000 		.word	Ganancia
 1230 04e8 000080BF 		.word	-1082130432
 1231              	.L99:
 200:main.c        ****                   }
 1232              		.loc 1 200 0
 1233 04ec 3A4B     		ldr	r3, .L105+8
 1234 04ee 1878     		ldrb	r0, [r3]	@ zero_extendqisi2
 1235 04f0 FFF7FEFF 		bl	__aeabi_i2d
 1236              	.LVL75:
 1237 04f4 0022     		movs	r2, #0
 1238 04f6 394B     		ldr	r3, .L105+12
 1239 04f8 FFF7FEFF 		bl	__aeabi_dsub
 1240              	.LVL76:
 1241 04fc 8046     		mov	r8, r0
 1242 04fe 8946     		mov	r9, r1
 1243 0500 374D     		ldr	r5, .L105+16
 1244 0502 2868     		ldr	r0, [r5]	@ float
ARM GAS  C:\Users\USUARIO\AppData\Local\Temp\ccFzbpyv.s 			page 31


 1245 0504 FFF7FEFF 		bl	__aeabi_f2d
 1246              	.LVL77:
 1247 0508 4246     		mov	r2, r8
 1248 050a 4B46     		mov	r3, r9
 1249 050c FFF7FEFF 		bl	__aeabi_dadd
 1250              	.LVL78:
 1251 0510 FFF7FEFF 		bl	__aeabi_d2f
 1252              	.LVL79:
 1253 0514 2860     		str	r0, [r5]	@ float
 1254              	.L62:
 207:main.c        ****          Ganancia=0.5;
 1255              		.loc 1 207 0
 1256 0516 4FF07C51 		mov	r1, #1056964608
 1257 051a 314B     		ldr	r3, .L105+16
 1258 051c 1868     		ldr	r0, [r3]	@ float
 1259 051e FFF7FEFF 		bl	__aeabi_fcmplt
 1260              	.LVL80:
 1261 0522 18B1     		cbz	r0, .L70
 208:main.c        ****       }
 1262              		.loc 1 208 0
 1263 0524 4FF07C52 		mov	r2, #1056964608
 1264 0528 2D4B     		ldr	r3, .L105+16
 1265 052a 1A60     		str	r2, [r3]	@ float
 1266              	.L70:
 212:main.c        ****          error=0.0;
 1267              		.loc 1 212 0
 1268 052c 0021     		movs	r1, #0
 1269 052e 2046     		mov	r0, r4
 1270 0530 FFF7FEFF 		bl	__aeabi_fcmplt
 1271              	.LVL81:
 1272 0534 10B1     		cbz	r0, .L72
 213:main.c        ****    
 1273              		.loc 1 213 0
 1274 0536 0022     		movs	r2, #0
 1275 0538 2A4B     		ldr	r3, .L105+20
 1276 053a 1A60     		str	r2, [r3]	@ float
 1277              	.L72:
 215:main.c        ****             
 1278              		.loc 1 215 0
 1279 053c 284B     		ldr	r3, .L105+16
 1280 053e 1968     		ldr	r1, [r3]	@ float
 1281 0540 284B     		ldr	r3, .L105+20
 1282 0542 1868     		ldr	r0, [r3]	@ float
 1283 0544 FFF7FEFF 		bl	__aeabi_fmul
 1284              	.LVL82:
 1285 0548 0446     		mov	r4, r0
 1286              	.LVL83:
 217:main.c        ****          tmp=Setpoint;
 1287              		.loc 1 217 0
 1288 054a 3046     		mov	r0, r6
 1289              	.LVL84:
 1290 054c FFF7FEFF 		bl	__aeabi_i2f
 1291              	.LVL85:
 1292 0550 0546     		mov	r5, r0
 1293 0552 0146     		mov	r1, r0
 1294 0554 2046     		mov	r0, r4
 1295 0556 FFF7FEFF 		bl	__aeabi_fcmpgt
ARM GAS  C:\Users\USUARIO\AppData\Local\Temp\ccFzbpyv.s 			page 32


 1296              	.LVL86:
 1297 055a 18B1     		cbz	r0, .L74
 218:main.c        ****                   
 1298              		.loc 1 218 0
 1299 055c 3046     		mov	r0, r6
 1300 055e FFF7FEFF 		bl	__aeabi_ui2f
 1301              	.LVL87:
 1302 0562 0446     		mov	r4, r0
 1303              	.LVL88:
 1304              	.L74:
 220:main.c        ****          tmp=0.0;
 1305              		.loc 1 220 0
 1306 0564 0021     		movs	r1, #0
 1307 0566 2046     		mov	r0, r4
 1308 0568 FFF7FEFF 		bl	__aeabi_fcmplt
 1309              	.LVL89:
 1310 056c 00B1     		cbz	r0, .L76
 221:main.c        ****       
 1311              		.loc 1 221 0
 1312 056e 0024     		movs	r4, #0
 1313              	.LVL90:
 1314              	.L76:
 225:main.c        ****       
 1315              		.loc 1 225 0
 1316 0570 2946     		mov	r1, r5
 1317 0572 2046     		mov	r0, r4
 1318 0574 FFF7FEFF 		bl	__aeabi_fdiv
 1319              	.LVL91:
 1320 0578 0446     		mov	r4, r0
 1321              	.LVL92:
 1322 057a 1B4B     		ldr	r3, .L105+24
 1323 057c 1878     		ldrb	r0, [r3]	@ zero_extendqisi2
 1324 057e FFF7FEFF 		bl	__aeabi_i2f
 1325              	.LVL93:
 1326 0582 2146     		mov	r1, r4
 1327 0584 FFF7FEFF 		bl	__aeabi_fmul
 1328              	.LVL94:
 1329 0588 184B     		ldr	r3, .L105+28
 1330 058a 1860     		str	r0, [r3]	@ float
 1331              	.L61:
 228:main.c        ****    Tc=(Tciclo/0.002);
 1332              		.loc 1 228 0
 1333 058c 174B     		ldr	r3, .L105+28
 1334 058e 1868     		ldr	r0, [r3]	@ float
 1335 0590 FFF7FEFF 		bl	__aeabi_f2d
 1336              	.LVL95:
 1337 0594 0EA3     		adr	r3, .L105
 1338 0596 D3E90023 		ldrd	r2, [r3]
 1339 059a FFF7FEFF 		bl	__aeabi_ddiv
 1340              	.LVL96:
 1341 059e FFF7FEFF 		bl	__aeabi_d2uiz
 1342              	.LVL97:
 1343 05a2 134B     		ldr	r3, .L105+32
 1344 05a4 1880     		strh	r0, [r3]	@ movhi
 229:main.c        ****    Control=1;     
 1345              		.loc 1 229 0
 1346 05a6 104B     		ldr	r3, .L105+24
ARM GAS  C:\Users\USUARIO\AppData\Local\Temp\ccFzbpyv.s 			page 33


 1347 05a8 1878     		ldrb	r0, [r3]	@ zero_extendqisi2
 1348 05aa FFF7FEFF 		bl	__aeabi_i2d
 1349              	.LVL98:
 1350 05ae 08A3     		adr	r3, .L105
 1351 05b0 D3E90023 		ldrd	r2, [r3]
 1352 05b4 FFF7FEFF 		bl	__aeabi_ddiv
 1353              	.LVL99:
 1354 05b8 FFF7FEFF 		bl	__aeabi_d2uiz
 1355              	.LVL100:
 1356 05bc 0D4B     		ldr	r3, .L105+36
 1357 05be 1880     		strh	r0, [r3]	@ movhi
 230:main.c        **** //-------------------------------------------------------------------------------------------------
 1358              		.loc 1 230 0
 1359 05c0 0122     		movs	r2, #1
 1360 05c2 0D4B     		ldr	r3, .L105+40
 1361 05c4 1A80     		strh	r2, [r3]	@ movhi
 1362 05c6 BDE8F087 		pop	{r4, r5, r6, r7, r8, r9, r10, pc}
 1363              	.L106:
 1364 05ca 00BFAFF3 		.align	3
 1364      0080
 1365              	.L105:
 1366 05d0 FCA9F1D2 		.word	-755914244
 1367 05d4 4D62603F 		.word	1063281229
 1368 05d8 00000000 		.word	Integral
 1369 05dc 0000E03F 		.word	1071644672
 1370 05e0 00000000 		.word	Ganancia
 1371 05e4 00000000 		.word	error
 1372 05e8 00000000 		.word	Tciclo
 1373 05ec 00000000 		.word	Tpulso
 1374 05f0 00000000 		.word	Tp
 1375 05f4 00000000 		.word	Tc
 1376 05f8 00000000 		.word	Control
 1377              		.cfi_endproc
 1378              	.LFE66:
 1379              		.size	Controla, .-Controla
 1380              		.section	.text.CuentaTiempo,"ax",%progbits
 1381              		.align	2
 1382              		.global	CuentaTiempo
 1383              		.thumb
 1384              		.thumb_func
 1385              		.type	CuentaTiempo, %function
 1386              	CuentaTiempo:
 1387              	.LFB67:
 235:main.c        ****       if(tinicio>=60){
 1388              		.loc 1 235 0
 1389              		.cfi_startproc
 1390              		@ args = 0, pretend = 0, frame = 0
 1391              		@ frame_needed = 0, uses_anonymous_args = 0
 236:main.c        ****          tinicio=0;
 1392              		.loc 1 236 0
 1393 0000 124B     		ldr	r3, .L111
 1394 0002 1B88     		ldrh	r3, [r3]
 1395 0004 3B2B     		cmp	r3, #59
 1396 0006 1FD9     		bls	.L110
 235:main.c        ****       if(tinicio>=60){
 1397              		.loc 1 235 0
 1398 0008 10B5     		push	{r4, lr}
ARM GAS  C:\Users\USUARIO\AppData\Local\Temp\ccFzbpyv.s 			page 34


 1399              		.cfi_def_cfa_offset 8
 1400              		.cfi_offset 4, -8
 1401              		.cfi_offset 14, -4
 237:main.c        ****          mEst+=1.0;
 1402              		.loc 1 237 0
 1403 000a 0022     		movs	r2, #0
 1404 000c 0F4B     		ldr	r3, .L111
 1405 000e 1A80     		strh	r2, [r3]	@ movhi
 238:main.c        ****          if(mEst>59){
 1406              		.loc 1 238 0
 1407 0010 0F4C     		ldr	r4, .L111+4
 1408 0012 2078     		ldrb	r0, [r4]	@ zero_extendqisi2
 1409 0014 FFF7FEFF 		bl	__aeabi_i2d
 1410              	.LVL101:
 1411 0018 0022     		movs	r2, #0
 1412 001a 0E4B     		ldr	r3, .L111+8
 1413 001c FFF7FEFF 		bl	__aeabi_dadd
 1414              	.LVL102:
 1415 0020 FFF7FEFF 		bl	__aeabi_d2uiz
 1416              	.LVL103:
 1417 0024 C0B2     		uxtb	r0, r0
 1418 0026 2070     		strb	r0, [r4]
 239:main.c        ****             mEst=0;
 1419              		.loc 1 239 0
 1420 0028 3B28     		cmp	r0, #59
 1421 002a 0CD9     		bls	.L107
 240:main.c        ****             hEst+=1.0;
 1422              		.loc 1 240 0
 1423 002c 0022     		movs	r2, #0
 1424 002e 2270     		strb	r2, [r4]
 241:main.c        ****          }
 1425              		.loc 1 241 0
 1426 0030 094C     		ldr	r4, .L111+12
 1427 0032 2078     		ldrb	r0, [r4]	@ zero_extendqisi2
 1428 0034 FFF7FEFF 		bl	__aeabi_i2d
 1429              	.LVL104:
 1430 0038 0022     		movs	r2, #0
 1431 003a 064B     		ldr	r3, .L111+8
 1432 003c FFF7FEFF 		bl	__aeabi_dadd
 1433              	.LVL105:
 1434 0040 FFF7FEFF 		bl	__aeabi_d2uiz
 1435              	.LVL106:
 1436 0044 2070     		strb	r0, [r4]
 1437              	.L107:
 1438 0046 10BD     		pop	{r4, pc}
 1439              	.L110:
 1440              		.cfi_def_cfa_offset 0
 1441              		.cfi_restore 4
 1442              		.cfi_restore 14
 1443 0048 7047     		bx	lr
 1444              	.L112:
 1445 004a 00BF     		.align	2
 1446              	.L111:
 1447 004c 00000000 		.word	tinicio
 1448 0050 00000000 		.word	mEst
 1449 0054 0000F03F 		.word	1072693248
 1450 0058 00000000 		.word	hEst
ARM GAS  C:\Users\USUARIO\AppData\Local\Temp\ccFzbpyv.s 			page 35


 1451              		.cfi_endproc
 1452              	.LFE67:
 1453              		.size	CuentaTiempo, .-CuentaTiempo
 1454              		.section	.text.iniciaConteo,"ax",%progbits
 1455              		.align	2
 1456              		.global	iniciaConteo
 1457              		.thumb
 1458              		.thumb_func
 1459              		.type	iniciaConteo, %function
 1460              	iniciaConteo:
 1461              	.LFB68:
 246:main.c        ****    if(Pendiente!=0){
 1462              		.loc 1 246 0
 1463              		.cfi_startproc
 1464              		@ args = 0, pretend = 0, frame = 0
 1465              		@ frame_needed = 0, uses_anonymous_args = 0
 1466 0000 10B5     		push	{r4, lr}
 1467              		.cfi_def_cfa_offset 8
 1468              		.cfi_offset 4, -8
 1469              		.cfi_offset 14, -4
 247:main.c        ****         if(flagRampa)
 1470              		.loc 1 247 0
 1471 0002 144B     		ldr	r3, .L124
 1472 0004 1C68     		ldr	r4, [r3]	@ float
 1473 0006 0021     		movs	r1, #0
 1474 0008 2046     		mov	r0, r4
 1475 000a FFF7FEFF 		bl	__aeabi_fcmpeq
 1476              	.LVL107:
 1477 000e 58B9     		cbnz	r0, .L122
 248:main.c        ****             tiempo_esterilizacion=1;
 1478              		.loc 1 248 0
 1479 0010 114B     		ldr	r3, .L124+4
 1480 0012 B3F90030 		ldrsh	r3, [r3]
 1481 0016 1BB1     		cbz	r3, .L116
 249:main.c        ****         else
 1482              		.loc 1 249 0
 1483 0018 0122     		movs	r2, #1
 1484 001a 104B     		ldr	r3, .L124+8
 1485 001c 1A70     		strb	r2, [r3]
 1486 001e 10BD     		pop	{r4, pc}
 1487              	.L116:
 251:main.c        ****    }else if(Pendiente==0){
 1488              		.loc 1 251 0
 1489 0020 0022     		movs	r2, #0
 1490 0022 0E4B     		ldr	r3, .L124+8
 1491 0024 1A70     		strb	r2, [r3]
 1492 0026 10BD     		pop	{r4, pc}
 1493              	.L122:
 252:main.c        ****       if(flagTemperatura && flagRampa)
 1494              		.loc 1 252 0
 1495 0028 0021     		movs	r1, #0
 1496 002a 2046     		mov	r0, r4
 1497 002c FFF7FEFF 		bl	__aeabi_fcmpeq
 1498              	.LVL108:
 1499 0030 70B1     		cbz	r0, .L113
 253:main.c        ****          tiempo_esterilizacion=1;
 1500              		.loc 1 253 0
ARM GAS  C:\Users\USUARIO\AppData\Local\Temp\ccFzbpyv.s 			page 36


 1501 0032 0B4B     		ldr	r3, .L124+12
 1502 0034 B3F90030 		ldrsh	r3, [r3]
 1503 0038 3BB1     		cbz	r3, .L119
 253:main.c        ****          tiempo_esterilizacion=1;
 1504              		.loc 1 253 0 is_stmt 0 discriminator 1
 1505 003a 074B     		ldr	r3, .L124+4
 1506 003c B3F90030 		ldrsh	r3, [r3]
 1507 0040 1BB1     		cbz	r3, .L119
 254:main.c        ****       else
 1508              		.loc 1 254 0 is_stmt 1
 1509 0042 0122     		movs	r2, #1
 1510 0044 054B     		ldr	r3, .L124+8
 1511 0046 1A70     		strb	r2, [r3]
 1512 0048 10BD     		pop	{r4, pc}
 1513              	.L119:
 256:main.c        ****    }
 1514              		.loc 1 256 0
 1515 004a 0022     		movs	r2, #0
 1516 004c 034B     		ldr	r3, .L124+8
 1517 004e 1A70     		strb	r2, [r3]
 1518              	.L113:
 1519 0050 10BD     		pop	{r4, pc}
 1520              	.L125:
 1521 0052 00BF     		.align	2
 1522              	.L124:
 1523 0054 00000000 		.word	Pendiente
 1524 0058 00000000 		.word	flagRampa
 1525 005c 00000000 		.word	tiempo_esterilizacion
 1526 0060 00000000 		.word	flagTemperatura
 1527              		.cfi_endproc
 1528              	.LFE68:
 1529              		.size	iniciaConteo, .-iniciaConteo
 1530              		.section	.text.leeTermocupla,"ax",%progbits
 1531              		.align	2
 1532              		.global	leeTermocupla
 1533              		.thumb
 1534              		.thumb_func
 1535              		.type	leeTermocupla, %function
 1536              	leeTermocupla:
 1537              	.LFB69:
 260:main.c        ****     float Tref;
 1538              		.loc 1 260 0
 1539              		.cfi_startproc
 1540              		@ args = 0, pretend = 0, frame = 0
 1541              		@ frame_needed = 0, uses_anonymous_args = 0
 1542              	.LVL109:
 1543 0000 F8B5     		push	{r3, r4, r5, r6, r7, lr}
 1544              		.cfi_def_cfa_offset 24
 1545              		.cfi_offset 3, -24
 1546              		.cfi_offset 4, -20
 1547              		.cfi_offset 5, -16
 1548              		.cfi_offset 6, -12
 1549              		.cfi_offset 7, -8
 1550              		.cfi_offset 14, -4
 1551 0002 0646     		mov	r6, r0
 1552              	.LVL110:
 263:main.c        ****     /* Measure cold junction temperature */
ARM GAS  C:\Users\USUARIO\AppData\Local\Temp\ccFzbpyv.s 			page 37


 1553              		.loc 1 263 0
 1554 0004 0022     		movs	r2, #0
 1555 0006 464B     		ldr	r3, .L131
 1556 0008 1A60     		str	r2, [r3]	@ float
 265:main.c        **** 	/* Convert cold junction temp to cold junction compensation voltage */
 1557              		.loc 1 265 0
 1558 000a FFF7FEFF 		bl	MeasureColdJnSensorTemp
 1559              	.LVL111:
 1560 000e 00B2     		sxth	r0, r0
 1561 0010 444B     		ldr	r3, .L131+4
 1562 0012 1880     		strh	r0, [r3]	@ movhi
 267:main.c        **** 	/* Read thermocouple hot junction voltage */
 1563              		.loc 1 267 0
 1564 0014 FFF7FEFF 		bl	Thermocouple_1_GetVoltage
 1565              	.LVL112:
 1566 0018 434C     		ldr	r4, .L131+8
 1567 001a 2060     		str	r0, [r4]
 270:main.c        **** 	ADC_StartConvert();
 1568              		.loc 1 270 0
 1569 001c 0121     		movs	r1, #1
 1570 001e 0220     		movs	r0, #2
 1571 0020 FFF7FEFF 		bl	ADC_SelectConfiguration
 1572              	.LVL113:
 271:main.c        ****     /*Note in this example a blocking call is used, this can be replaced
 1573              		.loc 1 271 0
 1574 0024 FFF7FEFF 		bl	ADC_StartConvert
 1575              	.LVL114:
 274:main.c        **** 	ADC_StopConvert();
 1576              		.loc 1 274 0
 1577 0028 0020     		movs	r0, #0
 1578 002a FFF7FEFF 		bl	ADC_IsEndConversion
 1579              	.LVL115:
 275:main.c        **** 	hotJnCount = ADC_GetResult32();
 1580              		.loc 1 275 0
 1581 002e FFF7FEFF 		bl	ADC_StopConvert
 1582              	.LVL116:
 276:main.c        **** 	/* Read ground reference voltage */
 1583              		.loc 1 276 0
 1584 0032 FFF7FEFF 		bl	ADC_GetResult32
 1585              	.LVL117:
 1586 0036 3D4B     		ldr	r3, .L131+12
 1587 0038 1860     		str	r0, [r3]
 278:main.c        **** 	/* Correlated double sampling to remove ADC offset */
 1588              		.loc 1 278 0
 1589 003a 0022     		movs	r2, #0
 1590 003c 3C4B     		ldr	r3, .L131+16
 1591 003e 1A80     		strh	r2, [r3]	@ movhi
 282:main.c        **** 	/* Find thermo-emf in microvolts */
 1592              		.loc 1 282 0
 1593 0040 FFF7FEFF 		bl	FilterSignal
 1594              	.LVL118:
 1595 0044 3B4B     		ldr	r3, .L131+20
 1596 0046 1860     		str	r0, [r3]
 284:main.c        **** 	/* Perform Cold junction compensation */
 1597              		.loc 1 284 0
 1598 0048 FFF7FEFF 		bl	ADC_CountsTo_uVolts
 1599              	.LVL119:
ARM GAS  C:\Users\USUARIO\AppData\Local\Temp\ccFzbpyv.s 			page 38


 1600 004c 3A4B     		ldr	r3, .L131+24
 1601 004e 1860     		str	r0, [r3]
 286:main.c        **** 	/* Convert thermo-emf to temperature */
 1602              		.loc 1 286 0
 1603 0050 2368     		ldr	r3, [r4]
 1604 0052 1844     		add	r0, r0, r3
 1605 0054 394B     		ldr	r3, .L131+28
 1606 0056 1860     		str	r0, [r3]
 288:main.c        ****     V0=(float)(tcTemp/100)+(float)(tcTemp-((tcTemp/100)*100))/100;
 1607              		.loc 1 288 0
 1608 0058 FFF7FEFF 		bl	Thermocouple_1_GetTemperature
 1609              	.LVL120:
 1610 005c 0546     		mov	r5, r0
 1611 005e 384B     		ldr	r3, .L131+32
 1612 0060 1860     		str	r0, [r3]
 289:main.c        ****             
 1613              		.loc 1 289 0
 1614 0062 384C     		ldr	r4, .L131+36
 1615 0064 84FB0034 		smull	r3, r4, r4, r0
 1616 0068 C317     		asrs	r3, r0, #31
 1617 006a C3EB6414 		rsb	r4, r3, r4, asr #5
 1618 006e 2046     		mov	r0, r4
 1619 0070 FFF7FEFF 		bl	__aeabi_i2f
 1620              	.LVL121:
 1621 0074 0746     		mov	r7, r0
 1622 0076 6420     		movs	r0, #100
 1623 0078 00FB1450 		mls	r0, r0, r4, r5
 1624 007c FFF7FEFF 		bl	__aeabi_i2f
 1625              	.LVL122:
 1626 0080 3149     		ldr	r1, .L131+40
 1627 0082 FFF7FEFF 		bl	__aeabi_fdiv
 1628              	.LVL123:
 1629 0086 0146     		mov	r1, r0
 1630 0088 3846     		mov	r0, r7
 1631 008a FFF7FEFF 		bl	__aeabi_fadd
 1632              	.LVL124:
 1633 008e 2F4B     		ldr	r3, .L131+44
 1634 0090 1860     		str	r0, [r3]	@ float
 291:main.c        ****         l=0;
 1635              		.loc 1 291 0
 1636 0092 2F4B     		ldr	r3, .L131+48
 1637 0094 1A78     		ldrb	r2, [r3]	@ zero_extendqisi2
 1638 0096 731E     		subs	r3, r6, #1
 1639 0098 9A42     		cmp	r2, r3
 1640 009a 02DD     		ble	.L127
 292:main.c        ****    //promedio[l]=Temperature;l++;
 1641              		.loc 1 292 0
 1642 009c 0022     		movs	r2, #0
 1643 009e 2C4B     		ldr	r3, .L131+48
 1644 00a0 1A70     		strb	r2, [r3]
 1645              	.L127:
 294:main.c        ****          
 1646              		.loc 1 294 0
 1647 00a2 2B4A     		ldr	r2, .L131+48
 1648 00a4 1378     		ldrb	r3, [r2]	@ zero_extendqisi2
 1649 00a6 2B49     		ldr	r1, .L131+52
 1650 00a8 41F82300 		str	r0, [r1, r3, lsl #2]	@ float
ARM GAS  C:\Users\USUARIO\AppData\Local\Temp\ccFzbpyv.s 			page 39


 1651 00ac 0133     		adds	r3, r3, #1
 1652 00ae 1370     		strb	r3, [r2]
 296:main.c        ****         Prom+=promedio[h];
 1653              		.loc 1 296 0
 1654 00b0 0022     		movs	r2, #0
 1655 00b2 294B     		ldr	r3, .L131+56
 1656 00b4 1A70     		strb	r2, [r3]
 1657 00b6 0AE0     		b	.L128
 1658              	.L129:
 297:main.c        ****     } 
 1659              		.loc 1 297 0 discriminator 3
 1660 00b8 194D     		ldr	r5, .L131
 1661 00ba 264B     		ldr	r3, .L131+52
 1662 00bc 53F82410 		ldr	r1, [r3, r4, lsl #2]	@ float
 1663 00c0 2868     		ldr	r0, [r5]	@ float
 1664 00c2 FFF7FEFF 		bl	__aeabi_fadd
 1665              	.LVL125:
 1666 00c6 2860     		str	r0, [r5]	@ float
 296:main.c        ****         Prom+=promedio[h];
 1667              		.loc 1 296 0 discriminator 3
 1668 00c8 0134     		adds	r4, r4, #1
 1669 00ca 234B     		ldr	r3, .L131+56
 1670 00cc 1C70     		strb	r4, [r3]
 1671              	.L128:
 296:main.c        ****         Prom+=promedio[h];
 1672              		.loc 1 296 0 is_stmt 0 discriminator 1
 1673 00ce 224B     		ldr	r3, .L131+56
 1674 00d0 1C78     		ldrb	r4, [r3]	@ zero_extendqisi2
 1675 00d2 A642     		cmp	r6, r4
 1676 00d4 F0D8     		bhi	.L129
 299:main.c        ****    
 1677              		.loc 1 299 0 is_stmt 1
 1678 00d6 124C     		ldr	r4, .L131
 1679 00d8 3046     		mov	r0, r6
 1680 00da FFF7FEFF 		bl	__aeabi_i2f
 1681              	.LVL126:
 1682 00de 0146     		mov	r1, r0
 1683 00e0 2068     		ldr	r0, [r4]	@ float
 1684 00e2 FFF7FEFF 		bl	__aeabi_fdiv
 1685              	.LVL127:
 1686 00e6 0546     		mov	r5, r0
 301:main.c        ****     Tref=(Prom-b)/m;
 1687              		.loc 1 301 0
 1688 00e8 1C4B     		ldr	r3, .L131+60
 1689 00ea 1878     		ldrb	r0, [r3]	@ zero_extendqisi2
 1690 00ec FFF7FEFF 		bl	__aeabi_ui2f
 1691              	.LVL128:
 1692 00f0 0646     		mov	r6, r0
 1693 00f2 1B4B     		ldr	r3, .L131+64
 1694 00f4 1878     		ldrb	r0, [r3]	@ zero_extendqisi2
 1695 00f6 FFF7FEFF 		bl	__aeabi_ui2f
 1696              	.LVL129:
 1697 00fa 0146     		mov	r1, r0
 1698 00fc 3046     		mov	r0, r6
 1699 00fe FFF7FEFF 		bl	__aeabi_fsub
 1700              	.LVL130:
 1701 0102 0146     		mov	r1, r0
ARM GAS  C:\Users\USUARIO\AppData\Local\Temp\ccFzbpyv.s 			page 40


 1702 0104 2846     		mov	r0, r5
 1703 0106 FFF7FEFF 		bl	__aeabi_fadd
 1704              	.LVL131:
 1705 010a 2060     		str	r0, [r4]	@ float
 302:main.c        ****    
 1706              		.loc 1 302 0
 1707 010c 154B     		ldr	r3, .L131+68
 1708 010e 1968     		ldr	r1, [r3]	@ float
 1709 0110 FFF7FEFF 		bl	__aeabi_fsub
 1710              	.LVL132:
 1711 0114 144B     		ldr	r3, .L131+72
 1712 0116 1968     		ldr	r1, [r3]	@ float
 1713 0118 FFF7FEFF 		bl	__aeabi_fdiv
 1714              	.LVL133:
 306:main.c        **** 
 1715              		.loc 1 306 0
 1716 011c F8BD     		pop	{r3, r4, r5, r6, r7, pc}
 1717              	.L132:
 1718 011e 00BF     		.align	2
 1719              	.L131:
 1720 0120 00000000 		.word	Prom
 1721 0124 00000000 		.word	coldJnTemp
 1722 0128 00000000 		.word	tcColdJnuVolt
 1723 012c 00000000 		.word	hotJnCount
 1724 0130 00000000 		.word	offset
 1725 0134 00000000 		.word	filHotJnCount
 1726 0138 00000000 		.word	tcHotJnuVolt
 1727 013c 00000000 		.word	tcuVolt
 1728 0140 00000000 		.word	tcTemp
 1729 0144 1F85EB51 		.word	1374389535
 1730 0148 0000C842 		.word	1120403456
 1731 014c 00000000 		.word	V0
 1732 0150 00000000 		.word	l
 1733 0154 00000000 		.word	promedio
 1734 0158 00000000 		.word	h
 1735 015c 00000000 		.word	Ajuste
 1736 0160 00000000 		.word	Ajusten
 1737 0164 00000000 		.word	b
 1738 0168 00000000 		.word	m
 1739              		.cfi_endproc
 1740              	.LFE69:
 1741              		.size	leeTermocupla, .-leeTermocupla
 1742              		.global	__aeabi_f2uiz
 1743              		.global	__aeabi_f2iz
 1744              		.global	__aeabi_dcmplt
 1745              		.section	.text.main,"ax",%progbits
 1746              		.align	2
 1747              		.global	main
 1748              		.thumb
 1749              		.thumb_func
 1750              		.type	main, %function
 1751              	main:
 1752              	.LFB72:
 396:main.c        ****    }
 397:main.c        **** }
 398:main.c        **** 
 399:main.c        **** 
ARM GAS  C:\Users\USUARIO\AppData\Local\Temp\ccFzbpyv.s 			page 41


 400:main.c        **** int main(void)
 401:main.c        **** { 
 1753              		.loc 1 401 0
 1754              		.cfi_startproc
 1755              		@ Volatile: function does not return.
 1756              		@ args = 0, pretend = 0, frame = 0
 1757              		@ frame_needed = 0, uses_anonymous_args = 0
 1758 0000 80B5     		push	{r7, lr}
 1759              		.cfi_def_cfa_offset 8
 1760              		.cfi_offset 7, -8
 1761              		.cfi_offset 14, -4
 1762 0002 84B0     		sub	sp, sp, #16
 1763              		.cfi_def_cfa_offset 24
 402:main.c        ****     CyGlobalIntEnable; /* Enable global interrupts. */    
 1764              		.loc 1 402 0
 1765              		.syntax unified
 1766              	@ 402 "main.c" 1
 1767 0004 62B6     		CPSIE   i
 1768              	@ 0 "" 2
 403:main.c        ****     
 404:main.c        ****     Reloj_StartEx(Reloj2);
 1769              		.loc 1 404 0
 1770              		.thumb
 1771              		.syntax unified
 1772 0006 B948     		ldr	r0, .L500
 1773 0008 FFF7FEFF 		bl	Reloj_StartEx
 1774              	.LVL134:
 405:main.c        ****     UART_1_Start();
 1775              		.loc 1 405 0
 1776 000c FFF7FEFF 		bl	UART_1_Start
 1777              	.LVL135:
 406:main.c        ****     RX1_StartEx(inteRX1);  
 1778              		.loc 1 406 0
 1779 0010 B748     		ldr	r0, .L500+4
 1780 0012 FFF7FEFF 		bl	RX1_StartEx
 1781              	.LVL136:
 407:main.c        ****     Timer_Start();  
 1782              		.loc 1 407 0
 1783 0016 FFF7FEFF 		bl	Timer_Start
 1784              	.LVL137:
 408:main.c        ****     EEPROM_Start(); 
 1785              		.loc 1 408 0
 1786 001a FFF7FEFF 		bl	EEPROM_Start
 1787              	.LVL138:
 409:main.c        ****     ADC_Start();
 1788              		.loc 1 409 0
 1789 001e FFF7FEFF 		bl	ADC_Start
 1790              	.LVL139:
 410:main.c        ****     ADC_SAR_Start();
 1791              		.loc 1 410 0
 1792 0022 FFF7FEFF 		bl	ADC_SAR_Start
 1793              	.LVL140:
 411:main.c        ****     ADC_SAR_IRQ_StartEx(ADC_SAR_ISR_LOC);
 1794              		.loc 1 411 0
 1795 0026 B348     		ldr	r0, .L500+8
 1796 0028 FFF7FEFF 		bl	ADC_SAR_IRQ_StartEx
 1797              	.LVL141:
ARM GAS  C:\Users\USUARIO\AppData\Local\Temp\ccFzbpyv.s 			page 42


 412:main.c        ****     ADC_SAR_StartConvert();
 1798              		.loc 1 412 0
 1799 002c FFF7FEFF 		bl	ADC_SAR_StartConvert
 1800              	.LVL142:
 413:main.c        ****     
 414:main.c        ****     LCD2_Write(1);
 1801              		.loc 1 414 0
 1802 0030 0120     		movs	r0, #1
 1803 0032 FFF7FEFF 		bl	LCD2_Write
 1804              	.LVL143:
 415:main.c        ****     LCD1_Write(1);
 1805              		.loc 1 415 0
 1806 0036 0120     		movs	r0, #1
 1807 0038 FFF7FEFF 		bl	LCD1_Write
 1808              	.LVL144:
 416:main.c        ****     LCD3_Write(1);
 1809              		.loc 1 416 0
 1810 003c 0120     		movs	r0, #1
 1811 003e FFF7FEFF 		bl	LCD3_Write
 1812              	.LVL145:
 417:main.c        ****     
 418:main.c        ****     glcd_init(ON);             //Inicializa la glcd
 1813              		.loc 1 418 0
 1814 0042 0120     		movs	r0, #1
 1815 0044 FFF7FEFF 		bl	glcd_init
 1816              	.LVL146:
 419:main.c        ****     glcd_fillScreen(OFF);      //Limpia la pantalla
 1817              		.loc 1 419 0
 1818 0048 0020     		movs	r0, #0
 1819 004a FFF7FEFF 		bl	glcd_fillScreen
 1820              	.LVL147:
 420:main.c        ****     glcd_rect(0,61,127,63,YES,ON);
 1821              		.loc 1 420 0
 1822 004e 0126     		movs	r6, #1
 1823 0050 0196     		str	r6, [sp, #4]
 1824 0052 0096     		str	r6, [sp]
 1825 0054 3F23     		movs	r3, #63
 1826 0056 7F22     		movs	r2, #127
 1827 0058 3D21     		movs	r1, #61
 1828 005a 0020     		movs	r0, #0
 1829 005c FFF7FEFF 		bl	glcd_rect
 1830              	.LVL148:
 421:main.c        ****     strcpy(Menus.Letra,"JP Inglobal");
 1831              		.loc 1 421 0
 1832 0060 A54C     		ldr	r4, .L500+12
 1833 0062 A64B     		ldr	r3, .L500+16
 1834 0064 07CB     		ldmia	r3!, {r0, r1, r2}
 1835 0066 2060     		str	r0, [r4]	@ unaligned
 1836 0068 6160     		str	r1, [r4, #4]	@ unaligned
 1837 006a A260     		str	r2, [r4, #8]	@ unaligned
 422:main.c        ****     displayMenu(Menus.Letra,0,0,0,2);     
 1838              		.loc 1 422 0
 1839 006c 0227     		movs	r7, #2
 1840 006e 0097     		str	r7, [sp]
 1841 0070 0023     		movs	r3, #0
 1842 0072 1A46     		mov	r2, r3
 1843 0074 1946     		mov	r1, r3
ARM GAS  C:\Users\USUARIO\AppData\Local\Temp\ccFzbpyv.s 			page 43


 1844 0076 2046     		mov	r0, r4
 1845 0078 FFF7FEFF 		bl	displayMenu
 1846              	.LVL149:
 423:main.c        ****     strcpy(Menus.Letra,"    Mufla Digital");
 1847              		.loc 1 423 0
 1848 007c A04D     		ldr	r5, .L500+20
 1849 007e 0FCD     		ldmia	r5!, {r0, r1, r2, r3}
 1850 0080 2060     		str	r0, [r4]	@ unaligned
 1851 0082 6160     		str	r1, [r4, #4]	@ unaligned
 1852 0084 A260     		str	r2, [r4, #8]	@ unaligned
 1853 0086 E360     		str	r3, [r4, #12]	@ unaligned
 1854 0088 2B88     		ldrh	r3, [r5]	@ unaligned
 1855 008a 2382     		strh	r3, [r4, #16]	@ unaligned
 424:main.c        ****     displayMenu(Menus.Letra,0,20,0,1);       
 1856              		.loc 1 424 0
 1857 008c 0096     		str	r6, [sp]
 1858 008e 0023     		movs	r3, #0
 1859 0090 1422     		movs	r2, #20
 1860 0092 1946     		mov	r1, r3
 1861 0094 2046     		mov	r0, r4
 1862 0096 FFF7FEFF 		bl	displayMenu
 1863              	.LVL150:
 425:main.c        ****     strcpy(Menus.Letra,"     con Rampas");
 1864              		.loc 1 425 0
 1865 009a 9A4D     		ldr	r5, .L500+24
 1866 009c 0FCD     		ldmia	r5!, {r0, r1, r2, r3}
 1867 009e 2060     		str	r0, [r4]	@ unaligned
 1868 00a0 6160     		str	r1, [r4, #4]	@ unaligned
 1869 00a2 A260     		str	r2, [r4, #8]	@ unaligned
 1870 00a4 E360     		str	r3, [r4, #12]	@ unaligned
 426:main.c        ****     displayMenu(Menus.Letra,0,29,0,1);       
 1871              		.loc 1 426 0
 1872 00a6 0096     		str	r6, [sp]
 1873 00a8 0023     		movs	r3, #0
 1874 00aa 1D22     		movs	r2, #29
 1875 00ac 1946     		mov	r1, r3
 1876 00ae 2046     		mov	r0, r4
 1877 00b0 FFF7FEFF 		bl	displayMenu
 1878              	.LVL151:
 427:main.c        ****     strcpy(Menus.Letra,"     9L");
 1879              		.loc 1 427 0
 1880 00b4 944B     		ldr	r3, .L500+28
 1881 00b6 03CB     		ldmia	r3!, {r0, r1}
 1882 00b8 2060     		str	r0, [r4]	@ unaligned
 1883 00ba 6160     		str	r1, [r4, #4]	@ unaligned
 428:main.c        ****     displayMenu(Menus.Letra,0,45,0,2);
 1884              		.loc 1 428 0
 1885 00bc 0097     		str	r7, [sp]
 1886 00be 0023     		movs	r3, #0
 1887 00c0 2D22     		movs	r2, #45
 1888 00c2 1946     		mov	r1, r3
 1889 00c4 2046     		mov	r0, r4
 1890 00c6 FFF7FEFF 		bl	displayMenu
 1891              	.LVL152:
 429:main.c        **** 
 430:main.c        ****     leeEEPROM();
 1892              		.loc 1 430 0
ARM GAS  C:\Users\USUARIO\AppData\Local\Temp\ccFzbpyv.s 			page 44


 1893 00ca FFF7FEFF 		bl	leeEEPROM
 1894              	.LVL153:
 431:main.c        ****     glcd_fillScreen(OFF);      //Limpia la pantalla
 1895              		.loc 1 431 0
 1896 00ce 0020     		movs	r0, #0
 1897 00d0 FFF7FEFF 		bl	glcd_fillScreen
 1898              	.LVL154:
 432:main.c        ****     displayContrasena(Contrasena[0],20,30,1);
 1899              		.loc 1 432 0
 1900 00d4 8D4C     		ldr	r4, .L500+32
 1901 00d6 3346     		mov	r3, r6
 1902 00d8 1E22     		movs	r2, #30
 1903 00da 1421     		movs	r1, #20
 1904 00dc 207D     		ldrb	r0, [r4, #20]	@ zero_extendqisi2
 1905 00de FFF7FEFF 		bl	displayContrasena
 1906              	.LVL155:
 433:main.c        ****     displayContrasena(Contrasena[1],40,30,0);
 1907              		.loc 1 433 0
 1908 00e2 0023     		movs	r3, #0
 1909 00e4 1E22     		movs	r2, #30
 1910 00e6 2821     		movs	r1, #40
 1911 00e8 607D     		ldrb	r0, [r4, #21]	@ zero_extendqisi2
 1912 00ea FFF7FEFF 		bl	displayContrasena
 1913              	.LVL156:
 434:main.c        ****     displayContrasena(Contrasena[2],60,30,0);
 1914              		.loc 1 434 0
 1915 00ee 0023     		movs	r3, #0
 1916 00f0 1E22     		movs	r2, #30
 1917 00f2 3C21     		movs	r1, #60
 1918 00f4 A07D     		ldrb	r0, [r4, #22]	@ zero_extendqisi2
 1919 00f6 FFF7FEFF 		bl	displayContrasena
 1920              	.LVL157:
 435:main.c        ****     displayContrasena(Contrasena[3],80,30,0); 
 1921              		.loc 1 435 0
 1922 00fa 0023     		movs	r3, #0
 1923 00fc 1E22     		movs	r2, #30
 1924 00fe 5021     		movs	r1, #80
 1925 0100 E07D     		ldrb	r0, [r4, #23]	@ zero_extendqisi2
 1926 0102 FFF7FEFF 		bl	displayContrasena
 1927              	.LVL158:
 436:main.c        ****     
 437:main.c        ****     for(i=0;i<80;i++){
 1928              		.loc 1 437 0
 1929 0106 0022     		movs	r2, #0
 1930 0108 814B     		ldr	r3, .L500+36
 1931 010a 1A70     		strb	r2, [r3]
 1932 010c 09E0     		b	.L134
 1933              	.L135:
 438:main.c        ****         Temperatura=leeTermocupla(MediaMovil);
 1934              		.loc 1 438 0 discriminator 3
 1935 010e 814B     		ldr	r3, .L500+40
 1936 0110 1878     		ldrb	r0, [r3]	@ zero_extendqisi2
 1937 0112 FFF7FEFF 		bl	leeTermocupla
 1938              	.LVL159:
 1939 0116 804B     		ldr	r3, .L500+44
 1940 0118 1860     		str	r0, [r3]	@ float
 437:main.c        ****         Temperatura=leeTermocupla(MediaMovil);
ARM GAS  C:\Users\USUARIO\AppData\Local\Temp\ccFzbpyv.s 			page 45


 1941              		.loc 1 437 0 discriminator 3
 1942 011a 7D4A     		ldr	r2, .L500+36
 1943 011c 1378     		ldrb	r3, [r2]	@ zero_extendqisi2
 1944 011e 0133     		adds	r3, r3, #1
 1945 0120 1370     		strb	r3, [r2]
 1946              	.L134:
 437:main.c        ****         Temperatura=leeTermocupla(MediaMovil);
 1947              		.loc 1 437 0 is_stmt 0 discriminator 1
 1948 0122 7B4B     		ldr	r3, .L500+36
 1949 0124 1B78     		ldrb	r3, [r3]	@ zero_extendqisi2
 1950 0126 4F2B     		cmp	r3, #79
 1951 0128 F1D9     		bls	.L135
 439:main.c        ****     }
 440:main.c        ****     penInicial=penMufla;
 1952              		.loc 1 440 0 is_stmt 1
 1953 012a 7C4B     		ldr	r3, .L500+48
 1954 012c 1A68     		ldr	r2, [r3]	@ float
 1955 012e 7C4B     		ldr	r3, .L500+52
 1956 0130 1A60     		str	r2, [r3]	@ float
 441:main.c        ****     Opcion=1;Control=0;    
 1957              		.loc 1 441 0
 1958 0132 0125     		movs	r5, #1
 1959 0134 7B4B     		ldr	r3, .L500+56
 1960 0136 1D70     		strb	r5, [r3]
 1961 0138 0024     		movs	r4, #0
 1962 013a 7B4B     		ldr	r3, .L500+60
 1963 013c 1C80     		strh	r4, [r3]	@ movhi
 442:main.c        ****     
 443:main.c        ****     BUZZER_Write(1);
 1964              		.loc 1 443 0
 1965 013e 2846     		mov	r0, r5
 1966 0140 FFF7FEFF 		bl	BUZZER_Write
 1967              	.LVL160:
 444:main.c        ****     CyDelay(100);
 1968              		.loc 1 444 0
 1969 0144 6420     		movs	r0, #100
 1970 0146 FFF7FEFF 		bl	CyDelay
 1971              	.LVL161:
 445:main.c        ****     BUZZER_Write(0); 
 1972              		.loc 1 445 0
 1973 014a 2046     		mov	r0, r4
 1974 014c FFF7FEFF 		bl	BUZZER_Write
 1975              	.LVL162:
 446:main.c        ****     Menu=0;  
 1976              		.loc 1 446 0
 1977 0150 764B     		ldr	r3, .L500+64
 1978 0152 1C70     		strb	r4, [r3]
 447:main.c        ****     unidad=1;
 1979              		.loc 1 447 0
 1980 0154 764B     		ldr	r3, .L500+68
 1981 0156 1D70     		strb	r5, [r3]
 448:main.c        ****     finalizoCiclo=OFF;
 1982              		.loc 1 448 0
 1983 0158 764B     		ldr	r3, .L500+72
 1984 015a 1C80     		strh	r4, [r3]	@ movhi
 449:main.c        ****     
 450:main.c        ****     if(UP_Read()==0 && DOWN_Read()==0){
ARM GAS  C:\Users\USUARIO\AppData\Local\Temp\ccFzbpyv.s 			page 46


 1985              		.loc 1 450 0
 1986 015c FFF7FEFF 		bl	UP_Read
 1987              	.LVL163:
 1988 0160 0028     		cmp	r0, #0
 1989 0162 4DD1     		bne	.L138
 1990              		.loc 1 450 0 is_stmt 0 discriminator 1
 1991 0164 FFF7FEFF 		bl	DOWN_Read
 1992              	.LVL164:
 1993 0168 0028     		cmp	r0, #0
 1994 016a 49D1     		bne	.L138
 1995              	.L139:
 451:main.c        ****         for(;;){ 
 452:main.c        ****             displayTemperatura((uint16)Temperatura,30,45,0,1);
 1996              		.loc 1 452 0 is_stmt 1
 1997 016c 6A4C     		ldr	r4, .L500+44
 1998 016e 2068     		ldr	r0, [r4]	@ float
 1999 0170 FFF7FEFF 		bl	__aeabi_f2uiz
 2000              	.LVL165:
 2001 0174 0125     		movs	r5, #1
 2002 0176 0095     		str	r5, [sp]
 2003 0178 0023     		movs	r3, #0
 2004 017a 2D22     		movs	r2, #45
 2005 017c 1E21     		movs	r1, #30
 2006 017e 00B2     		sxth	r0, r0
 2007 0180 FFF7FEFF 		bl	displayTemperatura
 2008              	.LVL166:
 453:main.c        ****             displayFloat(Temperatura,30,15,1);
 2009              		.loc 1 453 0
 2010 0184 2B46     		mov	r3, r5
 2011 0186 0F22     		movs	r2, #15
 2012 0188 1E21     		movs	r1, #30
 2013 018a 2068     		ldr	r0, [r4]	@ float
 2014 018c FFF7FEFF 		bl	displayFloat
 2015              	.LVL167:
 454:main.c        ****             displayTemperatura((uint16)coldJnTemp,30,0,0,1);
 2016              		.loc 1 454 0
 2017 0190 694B     		ldr	r3, .L500+76
 2018 0192 B3F90000 		ldrsh	r0, [r3]
 2019 0196 0095     		str	r5, [sp]
 2020 0198 0023     		movs	r3, #0
 2021 019a 1A46     		mov	r2, r3
 2022 019c 1E21     		movs	r1, #30
 2023 019e FFF7FEFF 		bl	displayTemperatura
 2024              	.LVL168:
 455:main.c        ****             glcd_fillScreen(OFF);
 2025              		.loc 1 455 0
 2026 01a2 0020     		movs	r0, #0
 2027 01a4 FFF7FEFF 		bl	glcd_fillScreen
 2028              	.LVL169:
 456:main.c        ****             glcd_update();  
 2029              		.loc 1 456 0
 2030 01a8 FFF7FEFF 		bl	glcd_update
 2031              	.LVL170:
 457:main.c        ****             Temperatura=leeTermocupla(20);
 2032              		.loc 1 457 0
 2033 01ac 1420     		movs	r0, #20
 2034 01ae FFF7FEFF 		bl	leeTermocupla
ARM GAS  C:\Users\USUARIO\AppData\Local\Temp\ccFzbpyv.s 			page 47


 2035              	.LVL171:
 2036 01b2 2060     		str	r0, [r4]	@ float
 458:main.c        ****             if(Lectura2){
 2037              		.loc 1 458 0
 2038 01b4 614B     		ldr	r3, .L500+80
 2039 01b6 B3F90030 		ldrsh	r3, [r3]
 2040 01ba 002B     		cmp	r3, #0
 2041 01bc D6D0     		beq	.L139
 459:main.c        ****                 grafica=ON;
 2042              		.loc 1 459 0
 2043 01be 604B     		ldr	r3, .L500+84
 2044 01c0 1D80     		strh	r5, [r3]	@ movhi
 460:main.c        ****                 Lectura2=0;
 2045              		.loc 1 460 0
 2046 01c2 0022     		movs	r2, #0
 2047 01c4 5D4B     		ldr	r3, .L500+80
 2048 01c6 1A80     		strh	r2, [r3]	@ movhi
 461:main.c        ****                 Temperatura=leeTermocupla(20);
 2049              		.loc 1 461 0
 2050 01c8 1420     		movs	r0, #20
 2051 01ca FFF7FEFF 		bl	leeTermocupla
 2052              	.LVL172:
 2053 01ce 2060     		str	r0, [r4]	@ float
 462:main.c        ****                 
 463:main.c        ****                 if(!Test){
 2054              		.loc 1 463 0
 2055 01d0 5C4B     		ldr	r3, .L500+88
 2056 01d2 B3F90030 		ldrsh	r3, [r3]
 2057 01d6 002B     		cmp	r3, #0
 2058 01d8 C8D1     		bne	.L139
 464:main.c        ****                     if(coldJnTemp>=3000){
 2059              		.loc 1 464 0
 2060 01da 574B     		ldr	r3, .L500+76
 2061 01dc B3F90030 		ldrsh	r3, [r3]
 2062 01e0 40F6B732 		movw	r2, #2999
 2063 01e4 9342     		cmp	r3, r2
 2064 01e6 03DD     		ble	.L141
 465:main.c        ****                         VENT1_Write(0);    
 2065              		.loc 1 465 0
 2066 01e8 0020     		movs	r0, #0
 2067 01ea FFF7FEFF 		bl	VENT1_Write
 2068              	.LVL173:
 2069 01ee BDE7     		b	.L139
 2070              	.L141:
 466:main.c        ****                     }else if(coldJnTemp<2500){
 2071              		.loc 1 466 0
 2072 01f0 40F6C312 		movw	r2, #2499
 2073 01f4 9342     		cmp	r3, r2
 2074 01f6 B9DC     		bgt	.L139
 467:main.c        ****                         VENT1_Write(1);   
 2075              		.loc 1 467 0
 2076 01f8 0120     		movs	r0, #1
 2077 01fa FFF7FEFF 		bl	VENT1_Write
 2078              	.LVL174:
 2079 01fe B5E7     		b	.L139
 2080              	.L138:
 468:main.c        ****                     }
ARM GAS  C:\Users\USUARIO\AppData\Local\Temp\ccFzbpyv.s 			page 48


 469:main.c        ****                 }
 470:main.c        ****             }
 471:main.c        ****         }
 472:main.c        ****     }
 473:main.c        ****     
 474:main.c        ****     for(;;)
 475:main.c        ****     {   
 476:main.c        ****         if(Lectura2){
 2081              		.loc 1 476 0
 2082 0200 4E4B     		ldr	r3, .L500+80
 2083 0202 B3F90030 		ldrsh	r3, [r3]
 2084 0206 002B     		cmp	r3, #0
 2085 0208 46D0     		beq	.L142
 477:main.c        ****             grafica=ON;
 2086              		.loc 1 477 0
 2087 020a 0122     		movs	r2, #1
 2088 020c 4C4B     		ldr	r3, .L500+84
 2089 020e 1A80     		strh	r2, [r3]	@ movhi
 478:main.c        ****             Lectura2=0;
 2090              		.loc 1 478 0
 2091 0210 0022     		movs	r2, #0
 2092 0212 4A4B     		ldr	r3, .L500+80
 2093 0214 1A80     		strh	r2, [r3]	@ movhi
 479:main.c        ****             Temperatura=leeTermocupla(MediaMovil);
 2094              		.loc 1 479 0
 2095 0216 3F4B     		ldr	r3, .L500+40
 2096 0218 1878     		ldrb	r0, [r3]	@ zero_extendqisi2
 2097 021a FFF7FEFF 		bl	leeTermocupla
 2098              	.LVL175:
 2099 021e 3E4B     		ldr	r3, .L500+44
 2100 0220 1860     		str	r0, [r3]	@ float
 480:main.c        ****             if(!finalizoCiclo && Menu==20){
 2101              		.loc 1 480 0
 2102 0222 444B     		ldr	r3, .L500+72
 2103 0224 B3F90030 		ldrsh	r3, [r3]
 2104 0228 3BB9     		cbnz	r3, .L143
 2105              		.loc 1 480 0 is_stmt 0 discriminator 1
 2106 022a 404B     		ldr	r3, .L500+64
 2107 022c 1B78     		ldrb	r3, [r3]	@ zero_extendqisi2
 2108 022e 142B     		cmp	r3, #20
 2109 0230 03D1     		bne	.L143
 481:main.c        ****                 VENT1_Write(0);                   
 2110              		.loc 1 481 0 is_stmt 1
 2111 0232 0020     		movs	r0, #0
 2112 0234 FFF7FEFF 		bl	VENT1_Write
 2113              	.LVL176:
 2114 0238 2EE0     		b	.L142
 2115              	.L143:
 482:main.c        ****             }else if(Menu!=20){
 2116              		.loc 1 482 0
 2117 023a 3C4B     		ldr	r3, .L500+64
 2118 023c 1B78     		ldrb	r3, [r3]	@ zero_extendqisi2
 2119 023e 142B     		cmp	r3, #20
 2120 0240 03D0     		beq	.L144
 483:main.c        ****                 VENT1_Write(1);                   
 2121              		.loc 1 483 0
 2122 0242 0120     		movs	r0, #1
ARM GAS  C:\Users\USUARIO\AppData\Local\Temp\ccFzbpyv.s 			page 49


 2123 0244 FFF7FEFF 		bl	VENT1_Write
 2124              	.LVL177:
 2125 0248 26E0     		b	.L142
 2126              	.L144:
 484:main.c        ****             }else{
 485:main.c        ****                 if((Tempoc[0]>=Tempocp[0])&&(Tempoc[1]>=Tempocp[1])&&(Tempoc[2]>=Tempocp[2])&&(Temp
 2127              		.loc 1 485 0
 2128 024a 3F4B     		ldr	r3, .L500+92
 2129 024c 93F90020 		ldrsb	r2, [r3]
 2130 0250 3E4B     		ldr	r3, .L500+96
 2131 0252 93F90030 		ldrsb	r3, [r3]
 2132 0256 9A42     		cmp	r2, r3
 2133 0258 1BDB     		blt	.L145
 2134              		.loc 1 485 0 is_stmt 0 discriminator 1
 2135 025a 3B4B     		ldr	r3, .L500+92
 2136 025c 93F90120 		ldrsb	r2, [r3, #1]
 2137 0260 3A4B     		ldr	r3, .L500+96
 2138 0262 93F90130 		ldrsb	r3, [r3, #1]
 2139 0266 9A42     		cmp	r2, r3
 2140 0268 13DB     		blt	.L145
 2141              		.loc 1 485 0 discriminator 2
 2142 026a 374B     		ldr	r3, .L500+92
 2143 026c 93F90220 		ldrsb	r2, [r3, #2]
 2144 0270 364B     		ldr	r3, .L500+96
 2145 0272 93F90230 		ldrsb	r3, [r3, #2]
 2146 0276 9A42     		cmp	r2, r3
 2147 0278 0BDB     		blt	.L145
 2148              		.loc 1 485 0 discriminator 3
 2149 027a 334B     		ldr	r3, .L500+92
 2150 027c 93F90320 		ldrsb	r2, [r3, #3]
 2151 0280 324B     		ldr	r3, .L500+96
 2152 0282 93F90330 		ldrsb	r3, [r3, #3]
 2153 0286 9A42     		cmp	r2, r3
 2154 0288 03DB     		blt	.L145
 486:main.c        ****                     VENT1_Write(1);    
 2155              		.loc 1 486 0 is_stmt 1
 2156 028a 0120     		movs	r0, #1
 2157 028c FFF7FEFF 		bl	VENT1_Write
 2158              	.LVL178:
 2159 0290 02E0     		b	.L142
 2160              	.L145:
 487:main.c        ****                 }else{
 488:main.c        ****                     VENT1_Write(0);                       
 2161              		.loc 1 488 0
 2162 0292 0020     		movs	r0, #0
 2163 0294 FFF7FEFF 		bl	VENT1_Write
 2164              	.LVL179:
 2165              	.L142:
 489:main.c        ****                 }
 490:main.c        ****             }
 491:main.c        ****             
 492:main.c        ****         }
 493:main.c        ****         
 494:main.c        ****     glcd_update();            
 2166              		.loc 1 494 0
 2167 0298 FFF7FEFF 		bl	glcd_update
 2168              	.LVL180:
ARM GAS  C:\Users\USUARIO\AppData\Local\Temp\ccFzbpyv.s 			page 50


 495:main.c        ****       
 496:main.c        **** //_------------------------------------------------------------------------------------------------
 497:main.c        ****       if(Menu==0){ //Menu de Contraseña.
 2169              		.loc 1 497 0
 2170 029c 234B     		ldr	r3, .L500+64
 2171 029e 1B78     		ldrb	r3, [r3]	@ zero_extendqisi2
 2172 02a0 002B     		cmp	r3, #0
 2173 02a2 40F0FC81 		bne	.L146
 498:main.c        ****       
 499:main.c        ****       strcpy(Menus.Letra,"Clave");
 2174              		.loc 1 499 0
 2175 02a6 144C     		ldr	r4, .L500+12
 2176 02a8 294B     		ldr	r3, .L500+100
 2177 02aa 1868     		ldr	r0, [r3]	@ unaligned
 2178 02ac 2060     		str	r0, [r4]	@ unaligned
 2179 02ae 9B88     		ldrh	r3, [r3, #4]	@ unaligned
 2180 02b0 A380     		strh	r3, [r4, #4]	@ unaligned
 500:main.c        ****       displayMenu(Menus.Letra,30,0,1,2);     
 2181              		.loc 1 500 0
 2182 02b2 0223     		movs	r3, #2
 2183 02b4 0093     		str	r3, [sp]
 2184 02b6 0123     		movs	r3, #1
 2185 02b8 0022     		movs	r2, #0
 2186 02ba 1E21     		movs	r1, #30
 2187 02bc 2046     		mov	r0, r4
 2188 02be FFF7FEFF 		bl	displayMenu
 2189              	.LVL181:
 501:main.c        ****       
 502:main.c        ****       if(UP_Read()==0){
 2190              		.loc 1 502 0
 2191 02c2 FFF7FEFF 		bl	UP_Read
 2192              	.LVL182:
 2193 02c6 0028     		cmp	r0, #0
 2194 02c8 77D1     		bne	.L147
 503:main.c        ****          BUZZER_Write(1);CyDelay(10);BUZZER_Write(0);
 2195              		.loc 1 503 0
 2196 02ca 0120     		movs	r0, #1
 2197 02cc FFF7FEFF 		bl	BUZZER_Write
 2198              	.LVL183:
 2199 02d0 0A20     		movs	r0, #10
 2200 02d2 FFF7FEFF 		bl	CyDelay
 2201              	.LVL184:
 2202 02d6 0020     		movs	r0, #0
 2203 02d8 FFF7FEFF 		bl	BUZZER_Write
 2204              	.LVL185:
 504:main.c        ****          CyDelay(200);
 2205              		.loc 1 504 0
 2206 02dc C820     		movs	r0, #200
 2207 02de FFF7FEFF 		bl	CyDelay
 2208              	.LVL186:
 505:main.c        ****          for(i=1;i<=4;i++){
 2209              		.loc 1 505 0
 2210 02e2 0122     		movs	r2, #1
 2211 02e4 0A4B     		ldr	r3, .L500+36
 2212 02e6 1A70     		strb	r2, [r3]
 2213 02e8 63E0     		b	.L148
 2214              	.L501:
ARM GAS  C:\Users\USUARIO\AppData\Local\Temp\ccFzbpyv.s 			page 51


 2215 02ea 00BF     		.align	2
 2216              	.L500:
 2217 02ec 00000000 		.word	Reloj2
 2218 02f0 00000000 		.word	inteRX1
 2219 02f4 00000000 		.word	ADC_SAR_ISR_LOC
 2220 02f8 00000000 		.word	Menus
 2221 02fc 00000000 		.word	.LC0
 2222 0300 0C000000 		.word	.LC1
 2223 0304 20000000 		.word	.LC2
 2224 0308 30000000 		.word	.LC3
 2225 030c 00000000 		.word	.LANCHOR0
 2226 0310 00000000 		.word	i
 2227 0314 00000000 		.word	MediaMovil
 2228 0318 00000000 		.word	Temperatura
 2229 031c 00000000 		.word	.LANCHOR1
 2230 0320 00000000 		.word	penInicial
 2231 0324 00000000 		.word	Opcion
 2232 0328 00000000 		.word	Control
 2233 032c 00000000 		.word	Menu
 2234 0330 00000000 		.word	unidad
 2235 0334 00000000 		.word	finalizoCiclo
 2236 0338 00000000 		.word	coldJnTemp
 2237 033c 00000000 		.word	Lectura2
 2238 0340 00000000 		.word	grafica
 2239 0344 00000000 		.word	Test
 2240 0348 00000000 		.word	Tempoc
 2241 034c 00000000 		.word	Tempocp
 2242 0350 38000000 		.word	.LC4
 2243              	.L152:
 506:main.c        ****             if(unidad==i){
 2244              		.loc 1 506 0
 2245 0354 A44B     		ldr	r3, .L502
 2246 0356 1B78     		ldrb	r3, [r3]	@ zero_extendqisi2
 2247 0358 9942     		cmp	r1, r3
 2248 035a 19D1     		bne	.L149
 507:main.c        ****                Contrasena[i-1]++;
 2249              		.loc 1 507 0
 2250 035c 4A1E     		subs	r2, r1, #1
 2251 035e A348     		ldr	r0, .L502+4
 2252 0360 1044     		add	r0, r0, r2
 2253 0362 90F91430 		ldrsb	r3, [r0, #20]
 2254 0366 0133     		adds	r3, r3, #1
 2255 0368 5BB2     		sxtb	r3, r3
 2256 036a 0375     		strb	r3, [r0, #20]
 508:main.c        ****                if(Contrasena[i-1]>9)   
 2257              		.loc 1 508 0
 2258 036c 092B     		cmp	r3, #9
 2259 036e 02DD     		ble	.L150
 509:main.c        ****                   Contrasena[i-1]=0;
 2260              		.loc 1 509 0
 2261 0370 0346     		mov	r3, r0
 2262 0372 0020     		movs	r0, #0
 2263 0374 1875     		strb	r0, [r3, #20]
 2264              	.L150:
 510:main.c        ****                displayContrasena(Contrasena[i-1],i*20,30,1);
 2265              		.loc 1 510 0
 2266 0376 9D48     		ldr	r0, .L502+4
ARM GAS  C:\Users\USUARIO\AppData\Local\Temp\ccFzbpyv.s 			page 52


 2267 0378 1044     		add	r0, r0, r2
 2268 037a 01EB8101 		add	r1, r1, r1, lsl #2
 2269 037e 8900     		lsls	r1, r1, #2
 2270 0380 0123     		movs	r3, #1
 2271 0382 1E22     		movs	r2, #30
 2272 0384 01F0FC01 		and	r1, r1, #252
 2273 0388 007D     		ldrb	r0, [r0, #20]	@ zero_extendqisi2
 2274 038a FFF7FEFF 		bl	displayContrasena
 2275              	.LVL187:
 2276 038e 0CE0     		b	.L151
 2277              	.L149:
 511:main.c        ****             }else{
 512:main.c        ****                displayContrasena(Contrasena[i-1],i*20,30,0);
 2278              		.loc 1 512 0
 2279 0390 4B1E     		subs	r3, r1, #1
 2280 0392 9648     		ldr	r0, .L502+4
 2281 0394 1844     		add	r0, r0, r3
 2282 0396 01EB8101 		add	r1, r1, r1, lsl #2
 2283 039a 8900     		lsls	r1, r1, #2
 2284 039c 0023     		movs	r3, #0
 2285 039e 1E22     		movs	r2, #30
 2286 03a0 01F0FC01 		and	r1, r1, #252
 2287 03a4 007D     		ldrb	r0, [r0, #20]	@ zero_extendqisi2
 2288 03a6 FFF7FEFF 		bl	displayContrasena
 2289              	.LVL188:
 2290              	.L151:
 505:main.c        ****             if(unidad==i){
 2291              		.loc 1 505 0 discriminator 2
 2292 03aa 914A     		ldr	r2, .L502+8
 2293 03ac 1378     		ldrb	r3, [r2]	@ zero_extendqisi2
 2294 03ae 0133     		adds	r3, r3, #1
 2295 03b0 1370     		strb	r3, [r2]
 2296              	.L148:
 505:main.c        ****             if(unidad==i){
 2297              		.loc 1 505 0 is_stmt 0 discriminator 1
 2298 03b2 8F4B     		ldr	r3, .L502+8
 2299 03b4 1978     		ldrb	r1, [r3]	@ zero_extendqisi2
 2300 03b6 0429     		cmp	r1, #4
 2301 03b8 CCD9     		bls	.L152
 2302              	.L147:
 513:main.c        ****             }
 514:main.c        ****          }
 515:main.c        ****       }
 516:main.c        ****             
 517:main.c        ****       if(DOWN_Read()==0){
 2303              		.loc 1 517 0 is_stmt 1
 2304 03ba FFF7FEFF 		bl	DOWN_Read
 2305              	.LVL189:
 2306 03be 0028     		cmp	r0, #0
 2307 03c0 42D1     		bne	.L153
 518:main.c        ****          BUZZER_Write(1);CyDelay(10);BUZZER_Write(0);
 2308              		.loc 1 518 0
 2309 03c2 0120     		movs	r0, #1
 2310 03c4 FFF7FEFF 		bl	BUZZER_Write
 2311              	.LVL190:
 2312 03c8 0A20     		movs	r0, #10
 2313 03ca FFF7FEFF 		bl	CyDelay
ARM GAS  C:\Users\USUARIO\AppData\Local\Temp\ccFzbpyv.s 			page 53


 2314              	.LVL191:
 2315 03ce 0020     		movs	r0, #0
 2316 03d0 FFF7FEFF 		bl	BUZZER_Write
 2317              	.LVL192:
 519:main.c        ****          CyDelay(200);
 2318              		.loc 1 519 0
 2319 03d4 C820     		movs	r0, #200
 2320 03d6 FFF7FEFF 		bl	CyDelay
 2321              	.LVL193:
 520:main.c        ****          for(i=1;i<=4;i++){
 2322              		.loc 1 520 0
 2323 03da 0122     		movs	r2, #1
 2324 03dc 844B     		ldr	r3, .L502+8
 2325 03de 1A70     		strb	r2, [r3]
 2326 03e0 2EE0     		b	.L154
 2327              	.L158:
 521:main.c        ****             if(unidad==i){
 2328              		.loc 1 521 0
 2329 03e2 814B     		ldr	r3, .L502
 2330 03e4 1B78     		ldrb	r3, [r3]	@ zero_extendqisi2
 2331 03e6 9942     		cmp	r1, r3
 2332 03e8 19D1     		bne	.L155
 522:main.c        ****                Contrasena[i-1]--;
 2333              		.loc 1 522 0
 2334 03ea 4A1E     		subs	r2, r1, #1
 2335 03ec 7F48     		ldr	r0, .L502+4
 2336 03ee 1044     		add	r0, r0, r2
 2337 03f0 90F91430 		ldrsb	r3, [r0, #20]
 2338 03f4 013B     		subs	r3, r3, #1
 2339 03f6 5BB2     		sxtb	r3, r3
 2340 03f8 0375     		strb	r3, [r0, #20]
 523:main.c        ****                if(Contrasena[i-1]<0)
 2341              		.loc 1 523 0
 2342 03fa 002B     		cmp	r3, #0
 2343 03fc 02DA     		bge	.L156
 524:main.c        ****                   Contrasena[i-1]=9;
 2344              		.loc 1 524 0
 2345 03fe 0346     		mov	r3, r0
 2346 0400 0920     		movs	r0, #9
 2347 0402 1875     		strb	r0, [r3, #20]
 2348              	.L156:
 525:main.c        ****                displayContrasena(Contrasena[i-1],i*20,30,1);}
 2349              		.loc 1 525 0
 2350 0404 7948     		ldr	r0, .L502+4
 2351 0406 1044     		add	r0, r0, r2
 2352 0408 01EB8101 		add	r1, r1, r1, lsl #2
 2353 040c 8900     		lsls	r1, r1, #2
 2354 040e 0123     		movs	r3, #1
 2355 0410 1E22     		movs	r2, #30
 2356 0412 01F0FC01 		and	r1, r1, #252
 2357 0416 007D     		ldrb	r0, [r0, #20]	@ zero_extendqisi2
 2358 0418 FFF7FEFF 		bl	displayContrasena
 2359              	.LVL194:
 2360 041c 0CE0     		b	.L157
 2361              	.L155:
 526:main.c        ****             else
 527:main.c        ****             displayContrasena(Contrasena[i-1],i*20,30,0);
ARM GAS  C:\Users\USUARIO\AppData\Local\Temp\ccFzbpyv.s 			page 54


 2362              		.loc 1 527 0
 2363 041e 4B1E     		subs	r3, r1, #1
 2364 0420 7248     		ldr	r0, .L502+4
 2365 0422 1844     		add	r0, r0, r3
 2366 0424 01EB8101 		add	r1, r1, r1, lsl #2
 2367 0428 8900     		lsls	r1, r1, #2
 2368 042a 0023     		movs	r3, #0
 2369 042c 1E22     		movs	r2, #30
 2370 042e 01F0FC01 		and	r1, r1, #252
 2371 0432 007D     		ldrb	r0, [r0, #20]	@ zero_extendqisi2
 2372 0434 FFF7FEFF 		bl	displayContrasena
 2373              	.LVL195:
 2374              	.L157:
 520:main.c        ****             if(unidad==i){
 2375              		.loc 1 520 0 discriminator 2
 2376 0438 6D4A     		ldr	r2, .L502+8
 2377 043a 1378     		ldrb	r3, [r2]	@ zero_extendqisi2
 2378 043c 0133     		adds	r3, r3, #1
 2379 043e 1370     		strb	r3, [r2]
 2380              	.L154:
 520:main.c        ****             if(unidad==i){
 2381              		.loc 1 520 0 is_stmt 0 discriminator 1
 2382 0440 6B4B     		ldr	r3, .L502+8
 2383 0442 1978     		ldrb	r1, [r3]	@ zero_extendqisi2
 2384 0444 0429     		cmp	r1, #4
 2385 0446 CCD9     		bls	.L158
 2386              	.L153:
 528:main.c        ****          }        
 529:main.c        ****       }
 530:main.c        ****             
 531:main.c        ****       if(RIGHT_Read()==0){
 2387              		.loc 1 531 0 is_stmt 1
 2388 0448 FFF7FEFF 		bl	RIGHT_Read
 2389              	.LVL196:
 2390 044c 0028     		cmp	r0, #0
 2391 044e 3AD1     		bne	.L159
 532:main.c        ****          BUZZER_Write(1);CyDelay(10);BUZZER_Write(0);
 2392              		.loc 1 532 0
 2393 0450 0120     		movs	r0, #1
 2394 0452 FFF7FEFF 		bl	BUZZER_Write
 2395              	.LVL197:
 2396 0456 0A20     		movs	r0, #10
 2397 0458 FFF7FEFF 		bl	CyDelay
 2398              	.LVL198:
 2399 045c 0020     		movs	r0, #0
 2400 045e FFF7FEFF 		bl	BUZZER_Write
 2401              	.LVL199:
 533:main.c        ****          CyDelay(200);unidad++;
 2402              		.loc 1 533 0
 2403 0462 C820     		movs	r0, #200
 2404 0464 FFF7FEFF 		bl	CyDelay
 2405              	.LVL200:
 2406 0468 5F4A     		ldr	r2, .L502
 2407 046a 1378     		ldrb	r3, [r2]	@ zero_extendqisi2
 2408 046c 0133     		adds	r3, r3, #1
 2409 046e 1370     		strb	r3, [r2]
 534:main.c        ****          for(i=1;i<=4;i++){
ARM GAS  C:\Users\USUARIO\AppData\Local\Temp\ccFzbpyv.s 			page 55


 2410              		.loc 1 534 0
 2411 0470 0122     		movs	r2, #1
 2412 0472 5F4B     		ldr	r3, .L502+8
 2413 0474 1A70     		strb	r2, [r3]
 2414 0476 22E0     		b	.L160
 2415              	.L163:
 535:main.c        ****             if(unidad==i)
 2416              		.loc 1 535 0
 2417 0478 5B4B     		ldr	r3, .L502
 2418 047a 1B78     		ldrb	r3, [r3]	@ zero_extendqisi2
 2419 047c 9942     		cmp	r1, r3
 2420 047e 0DD1     		bne	.L161
 536:main.c        ****             {displayContrasena(Contrasena[i-1],i*20,30,1);}
 2421              		.loc 1 536 0
 2422 0480 4B1E     		subs	r3, r1, #1
 2423 0482 5A48     		ldr	r0, .L502+4
 2424 0484 1844     		add	r0, r0, r3
 2425 0486 01EB8101 		add	r1, r1, r1, lsl #2
 2426 048a 8900     		lsls	r1, r1, #2
 2427 048c 0123     		movs	r3, #1
 2428 048e 1E22     		movs	r2, #30
 2429 0490 01F0FC01 		and	r1, r1, #252
 2430 0494 007D     		ldrb	r0, [r0, #20]	@ zero_extendqisi2
 2431 0496 FFF7FEFF 		bl	displayContrasena
 2432              	.LVL201:
 2433 049a 0CE0     		b	.L162
 2434              	.L161:
 537:main.c        ****             else
 538:main.c        ****             {displayContrasena(Contrasena[i-1],i*20,30,0);}
 2435              		.loc 1 538 0
 2436 049c 4B1E     		subs	r3, r1, #1
 2437 049e 5348     		ldr	r0, .L502+4
 2438 04a0 1844     		add	r0, r0, r3
 2439 04a2 01EB8101 		add	r1, r1, r1, lsl #2
 2440 04a6 8900     		lsls	r1, r1, #2
 2441 04a8 0023     		movs	r3, #0
 2442 04aa 1E22     		movs	r2, #30
 2443 04ac 01F0FC01 		and	r1, r1, #252
 2444 04b0 007D     		ldrb	r0, [r0, #20]	@ zero_extendqisi2
 2445 04b2 FFF7FEFF 		bl	displayContrasena
 2446              	.LVL202:
 2447              	.L162:
 534:main.c        ****             if(unidad==i)
 2448              		.loc 1 534 0 discriminator 2
 2449 04b6 4E4A     		ldr	r2, .L502+8
 2450 04b8 1378     		ldrb	r3, [r2]	@ zero_extendqisi2
 2451 04ba 0133     		adds	r3, r3, #1
 2452 04bc 1370     		strb	r3, [r2]
 2453              	.L160:
 534:main.c        ****             if(unidad==i)
 2454              		.loc 1 534 0 is_stmt 0 discriminator 1
 2455 04be 4C4B     		ldr	r3, .L502+8
 2456 04c0 1978     		ldrb	r1, [r3]	@ zero_extendqisi2
 2457 04c2 0429     		cmp	r1, #4
 2458 04c4 D8D9     		bls	.L163
 2459              	.L159:
 539:main.c        ****          }
ARM GAS  C:\Users\USUARIO\AppData\Local\Temp\ccFzbpyv.s 			page 56


 540:main.c        ****       }
 541:main.c        ****     
 542:main.c        ****       if(unidad>4){
 2460              		.loc 1 542 0 is_stmt 1
 2461 04c6 484B     		ldr	r3, .L502
 2462 04c8 1B78     		ldrb	r3, [r3]	@ zero_extendqisi2
 2463 04ca 042B     		cmp	r3, #4
 2464 04cc 40F2E780 		bls	.L146
 543:main.c        ****         glcd_fillScreen(OFF);unidad=4;
 2465              		.loc 1 543 0
 2466 04d0 0020     		movs	r0, #0
 2467 04d2 FFF7FEFF 		bl	glcd_fillScreen
 2468              	.LVL203:
 2469 04d6 0422     		movs	r2, #4
 2470 04d8 434B     		ldr	r3, .L502
 2471 04da 1A70     		strb	r2, [r3]
 544:main.c        ****          if(Contrasena[0]==3&&Contrasena[1]==8&&Contrasena[2]==9&&Contrasena[3]==2) // Si Ingresa c
 2472              		.loc 1 544 0
 2473 04dc 434B     		ldr	r3, .L502+4
 2474 04de 93F91430 		ldrsb	r3, [r3, #20]
 2475 04e2 032B     		cmp	r3, #3
 2476 04e4 30D1     		bne	.L164
 2477              		.loc 1 544 0 is_stmt 0 discriminator 1
 2478 04e6 414B     		ldr	r3, .L502+4
 2479 04e8 93F91530 		ldrsb	r3, [r3, #21]
 2480 04ec 082B     		cmp	r3, #8
 2481 04ee 2BD1     		bne	.L164
 2482              		.loc 1 544 0 discriminator 2
 2483 04f0 3E4B     		ldr	r3, .L502+4
 2484 04f2 93F91630 		ldrsb	r3, [r3, #22]
 2485 04f6 092B     		cmp	r3, #9
 2486 04f8 26D1     		bne	.L164
 2487              		.loc 1 544 0 discriminator 3
 2488 04fa 3C4B     		ldr	r3, .L502+4
 2489 04fc 93F91730 		ldrsb	r3, [r3, #23]
 2490 0500 022B     		cmp	r3, #2
 2491 0502 21D1     		bne	.L164
 545:main.c        ****             {EEPROM_WriteByte(0,460);CyDelay(20);EEPROM_WriteByte(0,461);CyDelay(20);// Reestablece
 2492              		.loc 1 545 0 is_stmt 1
 2493 0504 4FF4E671 		mov	r1, #460
 2494 0508 0020     		movs	r0, #0
 2495 050a FFF7FEFF 		bl	EEPROM_WriteByte
 2496              	.LVL204:
 2497 050e 1420     		movs	r0, #20
 2498 0510 FFF7FEFF 		bl	CyDelay
 2499              	.LVL205:
 2500 0514 40F2CD11 		movw	r1, #461
 2501 0518 0020     		movs	r0, #0
 2502 051a FFF7FEFF 		bl	EEPROM_WriteByte
 2503              	.LVL206:
 2504 051e 1420     		movs	r0, #20
 2505 0520 FFF7FEFF 		bl	CyDelay
 2506              	.LVL207:
 546:main.c        ****              EEPROM_WriteByte(0,462);CyDelay(20);EEPROM_WriteByte(0,463);CyDelay(20);
 2507              		.loc 1 546 0
 2508 0524 4FF4E771 		mov	r1, #462
 2509 0528 0020     		movs	r0, #0
ARM GAS  C:\Users\USUARIO\AppData\Local\Temp\ccFzbpyv.s 			page 57


 2510 052a FFF7FEFF 		bl	EEPROM_WriteByte
 2511              	.LVL208:
 2512 052e 1420     		movs	r0, #20
 2513 0530 FFF7FEFF 		bl	CyDelay
 2514              	.LVL209:
 2515 0534 40F2CF11 		movw	r1, #463
 2516 0538 0020     		movs	r0, #0
 2517 053a FFF7FEFF 		bl	EEPROM_WriteByte
 2518              	.LVL210:
 2519 053e 1420     		movs	r0, #20
 2520 0540 FFF7FEFF 		bl	CyDelay
 2521              	.LVL211:
 547:main.c        ****              CySoftwareReset();}        
 2522              		.loc 1 547 0
 2523 0544 FFF7FEFF 		bl	CySoftwareReset
 2524              	.LVL212:
 2525              	.L164:
 548:main.c        ****          
 549:main.c        ****          if((Contrasena[0]==Password[0])&&(Contrasena[1]==Password[1])&&(Contrasena[2]==Password[2]
 2526              		.loc 1 549 0
 2527 0548 284B     		ldr	r3, .L502+4
 2528 054a 93F91420 		ldrsb	r2, [r3, #20]
 2529 054e 294B     		ldr	r3, .L502+12
 2530 0550 1B78     		ldrb	r3, [r3]	@ zero_extendqisi2
 2531 0552 9A42     		cmp	r2, r3
 2532 0554 58D1     		bne	.L165
 2533              		.loc 1 549 0 is_stmt 0 discriminator 1
 2534 0556 254B     		ldr	r3, .L502+4
 2535 0558 93F91520 		ldrsb	r2, [r3, #21]
 2536 055c 254B     		ldr	r3, .L502+12
 2537 055e 5B78     		ldrb	r3, [r3, #1]	@ zero_extendqisi2
 2538 0560 9A42     		cmp	r2, r3
 2539 0562 51D1     		bne	.L165
 2540              		.loc 1 549 0 discriminator 2
 2541 0564 214B     		ldr	r3, .L502+4
 2542 0566 93F91620 		ldrsb	r2, [r3, #22]
 2543 056a 224B     		ldr	r3, .L502+12
 2544 056c 9B78     		ldrb	r3, [r3, #2]	@ zero_extendqisi2
 2545 056e 9A42     		cmp	r2, r3
 2546 0570 4AD1     		bne	.L165
 2547              		.loc 1 549 0 discriminator 3
 2548 0572 1E4B     		ldr	r3, .L502+4
 2549 0574 93F91720 		ldrsb	r2, [r3, #23]
 2550 0578 1E4B     		ldr	r3, .L502+12
 2551 057a DB78     		ldrb	r3, [r3, #3]	@ zero_extendqisi2
 2552 057c 9A42     		cmp	r2, r3
 2553 057e 43D1     		bne	.L165
 550:main.c        ****             glcd_fillScreen(OFF);
 2554              		.loc 1 550 0 is_stmt 1
 2555 0580 0020     		movs	r0, #0
 2556 0582 FFF7FEFF 		bl	glcd_fillScreen
 2557              	.LVL213:
 551:main.c        ****             strcpy(Menus.Letra,"Clave");
 2558              		.loc 1 551 0
 2559 0586 1C4C     		ldr	r4, .L502+16
 2560 0588 1C4B     		ldr	r3, .L502+20
 2561 058a 1868     		ldr	r0, [r3]	@ unaligned
ARM GAS  C:\Users\USUARIO\AppData\Local\Temp\ccFzbpyv.s 			page 58


 2562 058c 2060     		str	r0, [r4]	@ unaligned
 2563 058e 9B88     		ldrh	r3, [r3, #4]	@ unaligned
 2564 0590 A380     		strh	r3, [r4, #4]	@ unaligned
 552:main.c        ****             displayMenu(Menus.Letra,30,0,0,2);
 2565              		.loc 1 552 0
 2566 0592 0225     		movs	r5, #2
 2567 0594 0095     		str	r5, [sp]
 2568 0596 0023     		movs	r3, #0
 2569 0598 1A46     		mov	r2, r3
 2570 059a 1E21     		movs	r1, #30
 2571 059c 2046     		mov	r0, r4
 2572 059e FFF7FEFF 		bl	displayMenu
 2573              	.LVL214:
 553:main.c        ****             strcpy(Menus.Letra,"Correcta");
 2574              		.loc 1 553 0
 2575 05a2 174B     		ldr	r3, .L502+24
 2576 05a4 03CB     		ldmia	r3!, {r0, r1}
 2577 05a6 2060     		str	r0, [r4]	@ unaligned
 2578 05a8 6160     		str	r1, [r4, #4]	@ unaligned
 2579 05aa 1B78     		ldrb	r3, [r3]	@ zero_extendqisi2
 2580 05ac 2372     		strb	r3, [r4, #8]
 554:main.c        ****             displayMenu(Menus.Letra,15,30,0,2);
 2581              		.loc 1 554 0
 2582 05ae 0095     		str	r5, [sp]
 2583 05b0 0023     		movs	r3, #0
 2584 05b2 1E22     		movs	r2, #30
 2585 05b4 0F21     		movs	r1, #15
 2586 05b6 2046     		mov	r0, r4
 2587 05b8 FFF7FEFF 		bl	displayMenu
 2588              	.LVL215:
 555:main.c        ****             Menu=1;glcd_update();CyDelay(1000);
 2589              		.loc 1 555 0
 2590 05bc 0124     		movs	r4, #1
 2591 05be 114B     		ldr	r3, .L502+28
 2592 05c0 1C70     		strb	r4, [r3]
 2593 05c2 FFF7FEFF 		bl	glcd_update
 2594              	.LVL216:
 2595 05c6 4FF47A70 		mov	r0, #1000
 2596 05ca FFF7FEFF 		bl	CyDelay
 2597              	.LVL217:
 556:main.c        ****             glcd_fillScreen(OFF);unidad=1;
 2598              		.loc 1 556 0
 2599 05ce 0020     		movs	r0, #0
 2600 05d0 FFF7FEFF 		bl	glcd_fillScreen
 2601              	.LVL218:
 2602 05d4 044B     		ldr	r3, .L502
 2603 05d6 1C70     		strb	r4, [r3]
 557:main.c        ****             Contrasena[0]=0;Contrasena[1]=0;Contrasena[2]=0;Contrasena[3]=0;
 2604              		.loc 1 557 0
 2605 05d8 044B     		ldr	r3, .L502+4
 2606 05da 0022     		movs	r2, #0
 2607 05dc 1A75     		strb	r2, [r3, #20]
 2608 05de 5A75     		strb	r2, [r3, #21]
 2609 05e0 9A75     		strb	r2, [r3, #22]
 2610 05e2 DA75     		strb	r2, [r3, #23]
 2611 05e4 5BE0     		b	.L146
 2612              	.L503:
ARM GAS  C:\Users\USUARIO\AppData\Local\Temp\ccFzbpyv.s 			page 59


 2613 05e6 00BF     		.align	2
 2614              	.L502:
 2615 05e8 00000000 		.word	unidad
 2616 05ec 00000000 		.word	.LANCHOR0
 2617 05f0 00000000 		.word	i
 2618 05f4 00000000 		.word	Password
 2619 05f8 00000000 		.word	Menus
 2620 05fc 38000000 		.word	.LC4
 2621 0600 40000000 		.word	.LC5
 2622 0604 00000000 		.word	Menu
 2623              	.L165:
 558:main.c        ****          }else{
 559:main.c        ****             glcd_fillScreen(OFF);
 2624              		.loc 1 559 0
 2625 0608 0020     		movs	r0, #0
 2626 060a FFF7FEFF 		bl	glcd_fillScreen
 2627              	.LVL219:
 560:main.c        ****             strcpy(Menus.Letra,"Clave");
 2628              		.loc 1 560 0
 2629 060e 964C     		ldr	r4, .L504
 2630 0610 964B     		ldr	r3, .L504+4
 2631 0612 1868     		ldr	r0, [r3]	@ unaligned
 2632 0614 2060     		str	r0, [r4]	@ unaligned
 2633 0616 9B88     		ldrh	r3, [r3, #4]	@ unaligned
 2634 0618 A380     		strh	r3, [r4, #4]	@ unaligned
 561:main.c        ****             displayMenu(Menus.Letra,30,0,0,2);
 2635              		.loc 1 561 0
 2636 061a 0225     		movs	r5, #2
 2637 061c 0095     		str	r5, [sp]
 2638 061e 0023     		movs	r3, #0
 2639 0620 1A46     		mov	r2, r3
 2640 0622 1E21     		movs	r1, #30
 2641 0624 2046     		mov	r0, r4
 2642 0626 FFF7FEFF 		bl	displayMenu
 2643              	.LVL220:
 562:main.c        ****             strcpy(Menus.Letra,"Incorrecta");
 2644              		.loc 1 562 0
 2645 062a 914B     		ldr	r3, .L504+8
 2646 062c 03CB     		ldmia	r3!, {r0, r1}
 2647 062e 2060     		str	r0, [r4]	@ unaligned
 2648 0630 6160     		str	r1, [r4, #4]	@ unaligned
 2649 0632 1A88     		ldrh	r2, [r3]	@ unaligned
 2650 0634 9B78     		ldrb	r3, [r3, #2]	@ zero_extendqisi2
 2651 0636 2281     		strh	r2, [r4, #8]	@ unaligned
 2652 0638 A372     		strb	r3, [r4, #10]
 563:main.c        ****             displayMenu(Menus.Letra,0,30,0,2);
 2653              		.loc 1 563 0
 2654 063a 0095     		str	r5, [sp]
 2655 063c 0023     		movs	r3, #0
 2656 063e 1E22     		movs	r2, #30
 2657 0640 1946     		mov	r1, r3
 2658 0642 2046     		mov	r0, r4
 2659 0644 FFF7FEFF 		bl	displayMenu
 2660              	.LVL221:
 564:main.c        ****             Menu=0;glcd_update();CyDelay(1000);
 2661              		.loc 1 564 0
 2662 0648 0024     		movs	r4, #0
ARM GAS  C:\Users\USUARIO\AppData\Local\Temp\ccFzbpyv.s 			page 60


 2663 064a 8A4B     		ldr	r3, .L504+12
 2664 064c 1C70     		strb	r4, [r3]
 2665 064e FFF7FEFF 		bl	glcd_update
 2666              	.LVL222:
 2667 0652 4FF47A70 		mov	r0, #1000
 2668 0656 FFF7FEFF 		bl	CyDelay
 2669              	.LVL223:
 565:main.c        ****             glcd_fillScreen(OFF);unidad=1;
 2670              		.loc 1 565 0
 2671 065a 2046     		mov	r0, r4
 2672 065c FFF7FEFF 		bl	glcd_fillScreen
 2673              	.LVL224:
 2674 0660 0123     		movs	r3, #1
 2675 0662 854A     		ldr	r2, .L504+16
 2676 0664 1370     		strb	r3, [r2]
 566:main.c        ****             Contrasena[0]=0;Contrasena[1]=0;Contrasena[2]=0;Contrasena[3]=0;
 2677              		.loc 1 566 0
 2678 0666 854D     		ldr	r5, .L504+20
 2679 0668 2C75     		strb	r4, [r5, #20]
 2680 066a 6C75     		strb	r4, [r5, #21]
 2681 066c AC75     		strb	r4, [r5, #22]
 2682 066e EC75     		strb	r4, [r5, #23]
 567:main.c        ****             displayContrasena(Contrasena[0],20,30,1);
 2683              		.loc 1 567 0
 2684 0670 1E22     		movs	r2, #30
 2685 0672 1421     		movs	r1, #20
 2686 0674 2046     		mov	r0, r4
 2687 0676 FFF7FEFF 		bl	displayContrasena
 2688              	.LVL225:
 568:main.c        ****             displayContrasena(Contrasena[1],40,30,0);
 2689              		.loc 1 568 0
 2690 067a 2346     		mov	r3, r4
 2691 067c 1E22     		movs	r2, #30
 2692 067e 2821     		movs	r1, #40
 2693 0680 687D     		ldrb	r0, [r5, #21]	@ zero_extendqisi2
 2694 0682 FFF7FEFF 		bl	displayContrasena
 2695              	.LVL226:
 569:main.c        ****             displayContrasena(Contrasena[2],60,30,0);
 2696              		.loc 1 569 0
 2697 0686 2346     		mov	r3, r4
 2698 0688 1E22     		movs	r2, #30
 2699 068a 3C21     		movs	r1, #60
 2700 068c A87D     		ldrb	r0, [r5, #22]	@ zero_extendqisi2
 2701 068e FFF7FEFF 		bl	displayContrasena
 2702              	.LVL227:
 570:main.c        ****             displayContrasena(Contrasena[3],80,30,0);
 2703              		.loc 1 570 0
 2704 0692 2346     		mov	r3, r4
 2705 0694 1E22     		movs	r2, #30
 2706 0696 5021     		movs	r1, #80
 2707 0698 E87D     		ldrb	r0, [r5, #23]	@ zero_extendqisi2
 2708 069a FFF7FEFF 		bl	displayContrasena
 2709              	.LVL228:
 2710              	.L146:
 571:main.c        ****          }
 572:main.c        ****       }
 573:main.c        ****     }//Clave OK
ARM GAS  C:\Users\USUARIO\AppData\Local\Temp\ccFzbpyv.s 			page 61


 574:main.c        **** //_------------------------------------------------------------------------------------------------
 575:main.c        **** 
 576:main.c        **** //_------------------------------------------------------------------------------------------------
 577:main.c        ****       if(Menu==1){ //Menu Principal.      
 2711              		.loc 1 577 0
 2712 069e 754B     		ldr	r3, .L504+12
 2713 06a0 1B78     		ldrb	r3, [r3]	@ zero_extendqisi2
 2714 06a2 012B     		cmp	r3, #1
 2715 06a4 40F0A381 		bne	.L166
 578:main.c        ****       
 579:main.c        ****          if(Opcion>6)
 2716              		.loc 1 579 0
 2717 06a8 754B     		ldr	r3, .L504+24
 2718 06aa 1B78     		ldrb	r3, [r3]	@ zero_extendqisi2
 2719 06ac 062B     		cmp	r3, #6
 2720 06ae 02D9     		bls	.L167
 580:main.c        ****          {Opcion=1;}
 2721              		.loc 1 580 0
 2722 06b0 0122     		movs	r2, #1
 2723 06b2 734B     		ldr	r3, .L504+24
 2724 06b4 1A70     		strb	r2, [r3]
 2725              	.L167:
 581:main.c        ****          if(Opcion<1)
 2726              		.loc 1 581 0
 2727 06b6 724B     		ldr	r3, .L504+24
 2728 06b8 1B78     		ldrb	r3, [r3]	@ zero_extendqisi2
 2729 06ba 13B9     		cbnz	r3, .L168
 582:main.c        ****          {Opcion=1;}
 2730              		.loc 1 582 0
 2731 06bc 0122     		movs	r2, #1
 2732 06be 704B     		ldr	r3, .L504+24
 2733 06c0 1A70     		strb	r2, [r3]
 2734              	.L168:
 583:main.c        ****          
 584:main.c        ****          strcpy(Menus.Letra,"Menu");
 2735              		.loc 1 584 0
 2736 06c2 694C     		ldr	r4, .L504
 2737 06c4 6F4B     		ldr	r3, .L504+28
 2738 06c6 1868     		ldr	r0, [r3]	@ unaligned
 2739 06c8 2060     		str	r0, [r4]	@ unaligned
 2740 06ca 1B79     		ldrb	r3, [r3, #4]	@ zero_extendqisi2
 2741 06cc 2371     		strb	r3, [r4, #4]
 585:main.c        ****          displayMenu(Menus.Letra,30,0,1,2);
 2742              		.loc 1 585 0
 2743 06ce 0223     		movs	r3, #2
 2744 06d0 0093     		str	r3, [sp]
 2745 06d2 0123     		movs	r3, #1
 2746 06d4 0022     		movs	r2, #0
 2747 06d6 1E21     		movs	r1, #30
 2748 06d8 2046     		mov	r0, r4
 2749 06da FFF7FEFF 		bl	displayMenu
 2750              	.LVL229:
 586:main.c        ****       
 587:main.c        ****          if(Opcion<=5){
 2751              		.loc 1 587 0
 2752 06de 684B     		ldr	r3, .L504+24
 2753 06e0 1B78     		ldrb	r3, [r3]	@ zero_extendqisi2
ARM GAS  C:\Users\USUARIO\AppData\Local\Temp\ccFzbpyv.s 			page 62


 2754 06e2 052B     		cmp	r3, #5
 2755 06e4 00F2AB80 		bhi	.L169
 588:main.c        ****             if(Opcion==1)   
 2756              		.loc 1 588 0
 2757 06e8 012B     		cmp	r3, #1
 2758 06ea 10D1     		bne	.L170
 589:main.c        ****                 {strcpy(Menus.Letra,"Iniciar Programa");
 2759              		.loc 1 589 0
 2760 06ec 2546     		mov	r5, r4
 2761 06ee 664C     		ldr	r4, .L504+32
 2762 06f0 0FCC     		ldmia	r4!, {r0, r1, r2, r3}
 2763 06f2 2860     		str	r0, [r5]	@ unaligned
 2764 06f4 6960     		str	r1, [r5, #4]	@ unaligned
 2765 06f6 AA60     		str	r2, [r5, #8]	@ unaligned
 2766 06f8 EB60     		str	r3, [r5, #12]	@ unaligned
 2767 06fa 2378     		ldrb	r3, [r4]	@ zero_extendqisi2
 2768 06fc 2B74     		strb	r3, [r5, #16]
 590:main.c        ****                 displayMenu(Menus.Letra,0,18,1,1);}
 2769              		.loc 1 590 0
 2770 06fe 0123     		movs	r3, #1
 2771 0700 0093     		str	r3, [sp]
 2772 0702 1222     		movs	r2, #18
 2773 0704 0021     		movs	r1, #0
 2774 0706 2846     		mov	r0, r5
 2775 0708 FFF7FEFF 		bl	displayMenu
 2776              	.LVL230:
 2777 070c 10E0     		b	.L171
 2778              	.L170:
 591:main.c        ****             else
 592:main.c        ****                 {strcpy(Menus.Letra,"Iniciar Programa");
 2779              		.loc 1 592 0
 2780 070e 564D     		ldr	r5, .L504
 2781 0710 5D4C     		ldr	r4, .L504+32
 2782 0712 0FCC     		ldmia	r4!, {r0, r1, r2, r3}
 2783 0714 2860     		str	r0, [r5]	@ unaligned
 2784 0716 6960     		str	r1, [r5, #4]	@ unaligned
 2785 0718 AA60     		str	r2, [r5, #8]	@ unaligned
 2786 071a EB60     		str	r3, [r5, #12]	@ unaligned
 2787 071c 2378     		ldrb	r3, [r4]	@ zero_extendqisi2
 2788 071e 2B74     		strb	r3, [r5, #16]
 593:main.c        ****                 displayMenu(Menus.Letra,0,18,0,1);}
 2789              		.loc 1 593 0
 2790 0720 0123     		movs	r3, #1
 2791 0722 0093     		str	r3, [sp]
 2792 0724 0023     		movs	r3, #0
 2793 0726 1222     		movs	r2, #18
 2794 0728 1946     		mov	r1, r3
 2795 072a 2846     		mov	r0, r5
 2796 072c FFF7FEFF 		bl	displayMenu
 2797              	.LVL231:
 2798              	.L171:
 594:main.c        ****              
 595:main.c        ****             if(Opcion==2)   
 2799              		.loc 1 595 0
 2800 0730 534B     		ldr	r3, .L504+24
 2801 0732 1B78     		ldrb	r3, [r3]	@ zero_extendqisi2
 2802 0734 022B     		cmp	r3, #2
ARM GAS  C:\Users\USUARIO\AppData\Local\Temp\ccFzbpyv.s 			page 63


 2803 0736 0ED1     		bne	.L172
 596:main.c        ****                 {strcpy(Menus.Letra,"Editar Programa");
 2804              		.loc 1 596 0
 2805 0738 4B4D     		ldr	r5, .L504
 2806 073a 544C     		ldr	r4, .L504+36
 2807 073c 0FCC     		ldmia	r4!, {r0, r1, r2, r3}
 2808 073e 2860     		str	r0, [r5]	@ unaligned
 2809 0740 6960     		str	r1, [r5, #4]	@ unaligned
 2810 0742 AA60     		str	r2, [r5, #8]	@ unaligned
 2811 0744 EB60     		str	r3, [r5, #12]	@ unaligned
 597:main.c        ****                 displayMenu(Menus.Letra,0,27,1,1);}
 2812              		.loc 1 597 0
 2813 0746 0123     		movs	r3, #1
 2814 0748 0093     		str	r3, [sp]
 2815 074a 1B22     		movs	r2, #27
 2816 074c 0021     		movs	r1, #0
 2817 074e 2846     		mov	r0, r5
 2818 0750 FFF7FEFF 		bl	displayMenu
 2819              	.LVL232:
 2820 0754 0EE0     		b	.L173
 2821              	.L172:
 598:main.c        ****             else
 599:main.c        ****                 {strcpy(Menus.Letra,"Editar Programa");
 2822              		.loc 1 599 0
 2823 0756 444D     		ldr	r5, .L504
 2824 0758 4C4C     		ldr	r4, .L504+36
 2825 075a 0FCC     		ldmia	r4!, {r0, r1, r2, r3}
 2826 075c 2860     		str	r0, [r5]	@ unaligned
 2827 075e 6960     		str	r1, [r5, #4]	@ unaligned
 2828 0760 AA60     		str	r2, [r5, #8]	@ unaligned
 2829 0762 EB60     		str	r3, [r5, #12]	@ unaligned
 600:main.c        ****                 displayMenu(Menus.Letra,0,27,0,1);}
 2830              		.loc 1 600 0
 2831 0764 0123     		movs	r3, #1
 2832 0766 0093     		str	r3, [sp]
 2833 0768 0023     		movs	r3, #0
 2834 076a 1B22     		movs	r2, #27
 2835 076c 1946     		mov	r1, r3
 2836 076e 2846     		mov	r0, r5
 2837 0770 FFF7FEFF 		bl	displayMenu
 2838              	.LVL233:
 2839              	.L173:
 601:main.c        ****                 
 602:main.c        ****              if(Opcion==3)   
 2840              		.loc 1 602 0
 2841 0774 424B     		ldr	r3, .L504+24
 2842 0776 1B78     		ldrb	r3, [r3]	@ zero_extendqisi2
 2843 0778 032B     		cmp	r3, #3
 2844 077a 0ED1     		bne	.L174
 603:main.c        ****                 {strcpy(Menus.Letra,"Borrar Programa");
 2845              		.loc 1 603 0
 2846 077c 3A4D     		ldr	r5, .L504
 2847 077e 444C     		ldr	r4, .L504+40
 2848 0780 0FCC     		ldmia	r4!, {r0, r1, r2, r3}
 2849 0782 2860     		str	r0, [r5]	@ unaligned
 2850 0784 6960     		str	r1, [r5, #4]	@ unaligned
 2851 0786 AA60     		str	r2, [r5, #8]	@ unaligned
ARM GAS  C:\Users\USUARIO\AppData\Local\Temp\ccFzbpyv.s 			page 64


 2852 0788 EB60     		str	r3, [r5, #12]	@ unaligned
 604:main.c        ****                 displayMenu(Menus.Letra,0,36,1,1);}
 2853              		.loc 1 604 0
 2854 078a 0123     		movs	r3, #1
 2855 078c 0093     		str	r3, [sp]
 2856 078e 2422     		movs	r2, #36
 2857 0790 0021     		movs	r1, #0
 2858 0792 2846     		mov	r0, r5
 2859 0794 FFF7FEFF 		bl	displayMenu
 2860              	.LVL234:
 2861 0798 0EE0     		b	.L175
 2862              	.L174:
 605:main.c        ****             else
 606:main.c        ****                 {strcpy(Menus.Letra,"Borrar Programa");
 2863              		.loc 1 606 0
 2864 079a 334D     		ldr	r5, .L504
 2865 079c 3C4C     		ldr	r4, .L504+40
 2866 079e 0FCC     		ldmia	r4!, {r0, r1, r2, r3}
 2867 07a0 2860     		str	r0, [r5]	@ unaligned
 2868 07a2 6960     		str	r1, [r5, #4]	@ unaligned
 2869 07a4 AA60     		str	r2, [r5, #8]	@ unaligned
 2870 07a6 EB60     		str	r3, [r5, #12]	@ unaligned
 607:main.c        ****                 displayMenu(Menus.Letra,0,36,0,1);}   
 2871              		.loc 1 607 0
 2872 07a8 0123     		movs	r3, #1
 2873 07aa 0093     		str	r3, [sp]
 2874 07ac 0023     		movs	r3, #0
 2875 07ae 2422     		movs	r2, #36
 2876 07b0 1946     		mov	r1, r3
 2877 07b2 2846     		mov	r0, r5
 2878 07b4 FFF7FEFF 		bl	displayMenu
 2879              	.LVL235:
 2880              	.L175:
 608:main.c        ****                             
 609:main.c        ****              if(Opcion==4)   
 2881              		.loc 1 609 0
 2882 07b8 314B     		ldr	r3, .L504+24
 2883 07ba 1B78     		ldrb	r3, [r3]	@ zero_extendqisi2
 2884 07bc 042B     		cmp	r3, #4
 2885 07be 0CD1     		bne	.L176
 610:main.c        ****                 {strcpy(Menus.Letra,"Ajustes");
 2886              		.loc 1 610 0
 2887 07c0 294C     		ldr	r4, .L504
 2888 07c2 344B     		ldr	r3, .L504+44
 2889 07c4 03CB     		ldmia	r3!, {r0, r1}
 2890 07c6 2060     		str	r0, [r4]	@ unaligned
 2891 07c8 6160     		str	r1, [r4, #4]	@ unaligned
 611:main.c        ****                 displayMenu(Menus.Letra,0,45,1,1);}
 2892              		.loc 1 611 0
 2893 07ca 0123     		movs	r3, #1
 2894 07cc 0093     		str	r3, [sp]
 2895 07ce 2D22     		movs	r2, #45
 2896 07d0 0021     		movs	r1, #0
 2897 07d2 2046     		mov	r0, r4
 2898 07d4 FFF7FEFF 		bl	displayMenu
 2899              	.LVL236:
 2900 07d8 0CE0     		b	.L177
ARM GAS  C:\Users\USUARIO\AppData\Local\Temp\ccFzbpyv.s 			page 65


 2901              	.L176:
 612:main.c        ****             else
 613:main.c        ****                 {strcpy(Menus.Letra,"Ajustes");
 2902              		.loc 1 613 0
 2903 07da 234C     		ldr	r4, .L504
 2904 07dc 2D4B     		ldr	r3, .L504+44
 2905 07de 03CB     		ldmia	r3!, {r0, r1}
 2906 07e0 2060     		str	r0, [r4]	@ unaligned
 2907 07e2 6160     		str	r1, [r4, #4]	@ unaligned
 614:main.c        ****                 displayMenu(Menus.Letra,0,45,0,1);}     
 2908              		.loc 1 614 0
 2909 07e4 0123     		movs	r3, #1
 2910 07e6 0093     		str	r3, [sp]
 2911 07e8 0023     		movs	r3, #0
 2912 07ea 2D22     		movs	r2, #45
 2913 07ec 1946     		mov	r1, r3
 2914 07ee 2046     		mov	r0, r4
 2915 07f0 FFF7FEFF 		bl	displayMenu
 2916              	.LVL237:
 2917              	.L177:
 615:main.c        ****              
 616:main.c        ****             if(Opcion==5)   
 2918              		.loc 1 616 0
 2919 07f4 224B     		ldr	r3, .L504+24
 2920 07f6 1B78     		ldrb	r3, [r3]	@ zero_extendqisi2
 2921 07f8 052B     		cmp	r3, #5
 2922 07fa 0FD1     		bne	.L178
 617:main.c        ****                 {strcpy(Menus.Letra,"Cambio Clave");
 2923              		.loc 1 617 0
 2924 07fc 1A4C     		ldr	r4, .L504
 2925 07fe 264B     		ldr	r3, .L504+48
 2926 0800 07CB     		ldmia	r3!, {r0, r1, r2}
 2927 0802 2060     		str	r0, [r4]	@ unaligned
 2928 0804 6160     		str	r1, [r4, #4]	@ unaligned
 2929 0806 A260     		str	r2, [r4, #8]	@ unaligned
 2930 0808 1B78     		ldrb	r3, [r3]	@ zero_extendqisi2
 2931 080a 2373     		strb	r3, [r4, #12]
 618:main.c        ****                 displayMenu(Menus.Letra,0,54,1,1);}
 2932              		.loc 1 618 0
 2933 080c 0123     		movs	r3, #1
 2934 080e 0093     		str	r3, [sp]
 2935 0810 3622     		movs	r2, #54
 2936 0812 0021     		movs	r1, #0
 2937 0814 2046     		mov	r0, r4
 2938 0816 FFF7FEFF 		bl	displayMenu
 2939              	.LVL238:
 2940 081a 89E0     		b	.L179
 2941              	.L178:
 619:main.c        ****             else
 620:main.c        ****                 {strcpy(Menus.Letra,"Cambio Clave");
 2942              		.loc 1 620 0
 2943 081c 124C     		ldr	r4, .L504
 2944 081e 1E4B     		ldr	r3, .L504+48
 2945 0820 07CB     		ldmia	r3!, {r0, r1, r2}
 2946 0822 2060     		str	r0, [r4]	@ unaligned
 2947 0824 6160     		str	r1, [r4, #4]	@ unaligned
 2948 0826 A260     		str	r2, [r4, #8]	@ unaligned
ARM GAS  C:\Users\USUARIO\AppData\Local\Temp\ccFzbpyv.s 			page 66


 2949 0828 1B78     		ldrb	r3, [r3]	@ zero_extendqisi2
 2950 082a 2373     		strb	r3, [r4, #12]
 621:main.c        ****                 displayMenu(Menus.Letra,0,54,0,1);}     
 2951              		.loc 1 621 0
 2952 082c 0123     		movs	r3, #1
 2953 082e 0093     		str	r3, [sp]
 2954 0830 0023     		movs	r3, #0
 2955 0832 3622     		movs	r2, #54
 2956 0834 1946     		mov	r1, r3
 2957 0836 2046     		mov	r0, r4
 2958 0838 FFF7FEFF 		bl	displayMenu
 2959              	.LVL239:
 2960 083c 78E0     		b	.L179
 2961              	.L169:
 622:main.c        ****          }else{
 623:main.c        ****             if(Opcion==6)   
 2962              		.loc 1 623 0
 2963 083e 062B     		cmp	r3, #6
 2964 0840 2ED1     		bne	.L180
 624:main.c        ****                 {strcpy(Menus.Letra,"Tiempo Campana");
 2965              		.loc 1 624 0
 2966 0842 094C     		ldr	r4, .L504
 2967 0844 154B     		ldr	r3, .L504+52
 2968 0846 07CB     		ldmia	r3!, {r0, r1, r2}
 2969 0848 2060     		str	r0, [r4]	@ unaligned
 2970 084a 6160     		str	r1, [r4, #4]	@ unaligned
 2971 084c A260     		str	r2, [r4, #8]	@ unaligned
 2972 084e 1A88     		ldrh	r2, [r3]	@ unaligned
 2973 0850 9B78     		ldrb	r3, [r3, #2]	@ zero_extendqisi2
 2974 0852 A281     		strh	r2, [r4, #12]	@ unaligned
 2975 0854 A373     		strb	r3, [r4, #14]
 625:main.c        ****                 displayMenu(Menus.Letra,0,18,1,1);}
 2976              		.loc 1 625 0
 2977 0856 0123     		movs	r3, #1
 2978 0858 0093     		str	r3, [sp]
 2979 085a 1222     		movs	r2, #18
 2980 085c 0021     		movs	r1, #0
 2981 085e 2046     		mov	r0, r4
 2982 0860 FFF7FEFF 		bl	displayMenu
 2983              	.LVL240:
 2984 0864 2EE0     		b	.L181
 2985              	.L505:
 2986 0866 00BF     		.align	2
 2987              	.L504:
 2988 0868 00000000 		.word	Menus
 2989 086c 38000000 		.word	.LC4
 2990 0870 4C000000 		.word	.LC6
 2991 0874 00000000 		.word	Menu
 2992 0878 00000000 		.word	unidad
 2993 087c 00000000 		.word	.LANCHOR0
 2994 0880 00000000 		.word	Opcion
 2995 0884 58000000 		.word	.LC7
 2996 0888 60000000 		.word	.LC8
 2997 088c 74000000 		.word	.LC9
 2998 0890 84000000 		.word	.LC10
 2999 0894 94000000 		.word	.LC11
 3000 0898 9C000000 		.word	.LC12
ARM GAS  C:\Users\USUARIO\AppData\Local\Temp\ccFzbpyv.s 			page 67


 3001 089c AC000000 		.word	.LC13
 3002              	.L180:
 626:main.c        ****             else
 627:main.c        ****                 {strcpy(Menus.Letra,"Tiempo Campana");
 3003              		.loc 1 627 0
 3004 08a0 BE4C     		ldr	r4, .L506
 3005 08a2 BF4B     		ldr	r3, .L506+4
 3006 08a4 07CB     		ldmia	r3!, {r0, r1, r2}
 3007 08a6 2060     		str	r0, [r4]	@ unaligned
 3008 08a8 6160     		str	r1, [r4, #4]	@ unaligned
 3009 08aa A260     		str	r2, [r4, #8]	@ unaligned
 3010 08ac 1A88     		ldrh	r2, [r3]	@ unaligned
 3011 08ae 9B78     		ldrb	r3, [r3, #2]	@ zero_extendqisi2
 3012 08b0 A281     		strh	r2, [r4, #12]	@ unaligned
 3013 08b2 A373     		strb	r3, [r4, #14]
 628:main.c        ****                 displayMenu(Menus.Letra,0,18,0,1);}
 3014              		.loc 1 628 0
 3015 08b4 0123     		movs	r3, #1
 3016 08b6 0093     		str	r3, [sp]
 3017 08b8 0023     		movs	r3, #0
 3018 08ba 1222     		movs	r2, #18
 3019 08bc 1946     		mov	r1, r3
 3020 08be 2046     		mov	r0, r4
 3021 08c0 FFF7FEFF 		bl	displayMenu
 3022              	.LVL241:
 3023              	.L181:
 629:main.c        ****              
 630:main.c        ****                 strcpy(Menus.Letra,"               ");
 3024              		.loc 1 630 0
 3025 08c4 B54C     		ldr	r4, .L506
 3026 08c6 B74D     		ldr	r5, .L506+8
 3027 08c8 2E46     		mov	r6, r5
 3028 08ca 0FCE     		ldmia	r6!, {r0, r1, r2, r3}
 3029 08cc 2060     		str	r0, [r4]	@ unaligned
 3030 08ce 6160     		str	r1, [r4, #4]	@ unaligned
 3031 08d0 A260     		str	r2, [r4, #8]	@ unaligned
 3032 08d2 E360     		str	r3, [r4, #12]	@ unaligned
 631:main.c        ****                 displayMenu(Menus.Letra,0,27,0,1);
 3033              		.loc 1 631 0
 3034 08d4 0127     		movs	r7, #1
 3035 08d6 0097     		str	r7, [sp]
 3036 08d8 0023     		movs	r3, #0
 3037 08da 1B22     		movs	r2, #27
 3038 08dc 1946     		mov	r1, r3
 3039 08de 2046     		mov	r0, r4
 3040 08e0 FFF7FEFF 		bl	displayMenu
 3041              	.LVL242:
 632:main.c        ****                 
 633:main.c        ****                 strcpy(Menus.Letra,"               ");
 3042              		.loc 1 633 0
 3043 08e4 2E46     		mov	r6, r5
 3044 08e6 0FCE     		ldmia	r6!, {r0, r1, r2, r3}
 3045 08e8 2060     		str	r0, [r4]	@ unaligned
 3046 08ea 6160     		str	r1, [r4, #4]	@ unaligned
 3047 08ec A260     		str	r2, [r4, #8]	@ unaligned
 3048 08ee E360     		str	r3, [r4, #12]	@ unaligned
 634:main.c        ****                 displayMenu(Menus.Letra,0,36,0,1);   
ARM GAS  C:\Users\USUARIO\AppData\Local\Temp\ccFzbpyv.s 			page 68


 3049              		.loc 1 634 0
 3050 08f0 0097     		str	r7, [sp]
 3051 08f2 0023     		movs	r3, #0
 3052 08f4 2422     		movs	r2, #36
 3053 08f6 1946     		mov	r1, r3
 3054 08f8 2046     		mov	r0, r4
 3055 08fa FFF7FEFF 		bl	displayMenu
 3056              	.LVL243:
 635:main.c        ****                  
 636:main.c        ****                 strcpy(Menus.Letra,"               ");
 3057              		.loc 1 636 0
 3058 08fe 2E46     		mov	r6, r5
 3059 0900 0FCE     		ldmia	r6!, {r0, r1, r2, r3}
 3060 0902 2060     		str	r0, [r4]	@ unaligned
 3061 0904 6160     		str	r1, [r4, #4]	@ unaligned
 3062 0906 A260     		str	r2, [r4, #8]	@ unaligned
 3063 0908 E360     		str	r3, [r4, #12]	@ unaligned
 637:main.c        ****                 displayMenu(Menus.Letra,0,45,0,1);
 3064              		.loc 1 637 0
 3065 090a 0097     		str	r7, [sp]
 3066 090c 0023     		movs	r3, #0
 3067 090e 2D22     		movs	r2, #45
 3068 0910 1946     		mov	r1, r3
 3069 0912 2046     		mov	r0, r4
 3070 0914 FFF7FEFF 		bl	displayMenu
 3071              	.LVL244:
 638:main.c        ****              
 639:main.c        ****                 strcpy(Menus.Letra,"               ");
 3072              		.loc 1 639 0
 3073 0918 0FCD     		ldmia	r5!, {r0, r1, r2, r3}
 3074 091a 2060     		str	r0, [r4]	@ unaligned
 3075 091c 6160     		str	r1, [r4, #4]	@ unaligned
 3076 091e A260     		str	r2, [r4, #8]	@ unaligned
 3077 0920 E360     		str	r3, [r4, #12]	@ unaligned
 640:main.c        ****                 displayMenu(Menus.Letra,0,54,0,1);
 3078              		.loc 1 640 0
 3079 0922 0097     		str	r7, [sp]
 3080 0924 0023     		movs	r3, #0
 3081 0926 3622     		movs	r2, #54
 3082 0928 1946     		mov	r1, r3
 3083 092a 2046     		mov	r0, r4
 3084 092c FFF7FEFF 		bl	displayMenu
 3085              	.LVL245:
 3086              	.L179:
 641:main.c        ****          }
 642:main.c        ****          
 643:main.c        ****          if(UP_Read()==0)//Si oprime hacia arriba
 3087              		.loc 1 643 0
 3088 0930 FFF7FEFF 		bl	UP_Read
 3089              	.LVL246:
 3090 0934 60B9     		cbnz	r0, .L182
 644:main.c        ****          {
 645:main.c        ****             BUZZER_Write(1);CyDelay(30);Opcion--;BUZZER_Write(0);
 3091              		.loc 1 645 0
 3092 0936 0120     		movs	r0, #1
 3093 0938 FFF7FEFF 		bl	BUZZER_Write
 3094              	.LVL247:
ARM GAS  C:\Users\USUARIO\AppData\Local\Temp\ccFzbpyv.s 			page 69


 3095 093c 1E20     		movs	r0, #30
 3096 093e FFF7FEFF 		bl	CyDelay
 3097              	.LVL248:
 3098 0942 994A     		ldr	r2, .L506+12
 3099 0944 1378     		ldrb	r3, [r2]	@ zero_extendqisi2
 3100 0946 013B     		subs	r3, r3, #1
 3101 0948 1370     		strb	r3, [r2]
 3102 094a 0020     		movs	r0, #0
 3103 094c FFF7FEFF 		bl	BUZZER_Write
 3104              	.LVL249:
 3105              	.L182:
 646:main.c        ****          }
 647:main.c        ****                   
 648:main.c        ****          if(DOWN_Read()==0)//Si oprime hacia abajo
 3106              		.loc 1 648 0
 3107 0950 FFF7FEFF 		bl	DOWN_Read
 3108              	.LVL250:
 3109 0954 60B9     		cbnz	r0, .L183
 649:main.c        ****          {
 650:main.c        ****             BUZZER_Write(1);CyDelay(30);Opcion++; BUZZER_Write(0);
 3110              		.loc 1 650 0
 3111 0956 0120     		movs	r0, #1
 3112 0958 FFF7FEFF 		bl	BUZZER_Write
 3113              	.LVL251:
 3114 095c 1E20     		movs	r0, #30
 3115 095e FFF7FEFF 		bl	CyDelay
 3116              	.LVL252:
 3117 0962 914A     		ldr	r2, .L506+12
 3118 0964 1378     		ldrb	r3, [r2]	@ zero_extendqisi2
 3119 0966 0133     		adds	r3, r3, #1
 3120 0968 1370     		strb	r3, [r2]
 3121 096a 0020     		movs	r0, #0
 3122 096c FFF7FEFF 		bl	BUZZER_Write
 3123              	.LVL253:
 3124              	.L183:
 651:main.c        ****          }
 652:main.c        ****                
 653:main.c        ****          if(RIGHT_Read()==0)//Si oprime SET
 3125              		.loc 1 653 0
 3126 0970 FFF7FEFF 		bl	RIGHT_Read
 3127              	.LVL254:
 3128 0974 0028     		cmp	r0, #0
 3129 0976 3AD1     		bne	.L166
 654:main.c        ****          { 
 655:main.c        ****             BUZZER_Write(1);CyDelay(50);Menu=Opcion+3;Opcion=1;glcd_fillScreen(OFF);BUZZER_Write(0)
 3130              		.loc 1 655 0
 3131 0978 0120     		movs	r0, #1
 3132 097a FFF7FEFF 		bl	BUZZER_Write
 3133              	.LVL255:
 3134 097e 3220     		movs	r0, #50
 3135 0980 FFF7FEFF 		bl	CyDelay
 3136              	.LVL256:
 3137 0984 894C     		ldr	r4, .L506+16
 3138 0986 884A     		ldr	r2, .L506+12
 3139 0988 1378     		ldrb	r3, [r2]	@ zero_extendqisi2
 3140 098a 0333     		adds	r3, r3, #3
 3141 098c 2370     		strb	r3, [r4]
ARM GAS  C:\Users\USUARIO\AppData\Local\Temp\ccFzbpyv.s 			page 70


 3142 098e 0123     		movs	r3, #1
 3143 0990 1370     		strb	r3, [r2]
 3144 0992 0020     		movs	r0, #0
 3145 0994 FFF7FEFF 		bl	glcd_fillScreen
 3146              	.LVL257:
 3147 0998 0020     		movs	r0, #0
 3148 099a FFF7FEFF 		bl	BUZZER_Write
 3149              	.LVL258:
 656:main.c        ****             if(Menu==7){
 3150              		.loc 1 656 0
 3151 099e 2378     		ldrb	r3, [r4]	@ zero_extendqisi2
 3152 09a0 072B     		cmp	r3, #7
 3153 09a2 24D1     		bne	.L166
 657:main.c        ****                //Menu=100;
 658:main.c        ****             CyDelay(100);
 3154              		.loc 1 658 0
 3155 09a4 6420     		movs	r0, #100
 3156 09a6 FFF7FEFF 		bl	CyDelay
 3157              	.LVL259:
 659:main.c        ****             glcd_fillScreen(OFF);
 3158              		.loc 1 659 0
 3159 09aa 0020     		movs	r0, #0
 3160 09ac FFF7FEFF 		bl	glcd_fillScreen
 3161              	.LVL260:
 660:main.c        ****             while(!PidePassword(1,1,100,4,4,4,4)){
 3162              		.loc 1 660 0
 3163 09b0 0AE0     		b	.L184
 3164              	.L185:
 661:main.c        ****                PidePassword(1,1,100,4,4,4,4);glcd_update();
 3165              		.loc 1 661 0
 3166 09b2 0423     		movs	r3, #4
 3167 09b4 0293     		str	r3, [sp, #8]
 3168 09b6 0193     		str	r3, [sp, #4]
 3169 09b8 0093     		str	r3, [sp]
 3170 09ba 6422     		movs	r2, #100
 3171 09bc 0121     		movs	r1, #1
 3172 09be 0846     		mov	r0, r1
 3173 09c0 FFF7FEFF 		bl	PidePassword
 3174              	.LVL261:
 3175 09c4 FFF7FEFF 		bl	glcd_update
 3176              	.LVL262:
 3177              	.L184:
 660:main.c        ****             while(!PidePassword(1,1,100,4,4,4,4)){
 3178              		.loc 1 660 0
 3179 09c8 0423     		movs	r3, #4
 3180 09ca 0293     		str	r3, [sp, #8]
 3181 09cc 0193     		str	r3, [sp, #4]
 3182 09ce 0093     		str	r3, [sp]
 3183 09d0 6422     		movs	r2, #100
 3184 09d2 0121     		movs	r1, #1
 3185 09d4 0846     		mov	r0, r1
 3186 09d6 FFF7FEFF 		bl	PidePassword
 3187              	.LVL263:
 3188 09da 0028     		cmp	r0, #0
 3189 09dc E9D0     		beq	.L185
 662:main.c        ****             }            
 663:main.c        ****             glcd_fillScreen(OFF);Opcion=1;unidad=1;
ARM GAS  C:\Users\USUARIO\AppData\Local\Temp\ccFzbpyv.s 			page 71


 3190              		.loc 1 663 0
 3191 09de 0020     		movs	r0, #0
 3192 09e0 FFF7FEFF 		bl	glcd_fillScreen
 3193              	.LVL264:
 3194 09e4 0123     		movs	r3, #1
 3195 09e6 704A     		ldr	r2, .L506+12
 3196 09e8 1370     		strb	r3, [r2]
 3197 09ea 714A     		ldr	r2, .L506+20
 3198 09ec 1370     		strb	r3, [r2]
 3199              	.L166:
 664:main.c        ****          
 665:main.c        ****       
 666:main.c        ****             }
 667:main.c        ****          }
 668:main.c        ****       
 669:main.c        **** 
 670:main.c        ****    }
 671:main.c        **** //_------------------------------------------------------------------------------------------------
 672:main.c        **** 
 673:main.c        **** //_------------------------------------------------------------------------------------------------
 674:main.c        ****       if(Menu==4){ //Menu de Continuar
 3200              		.loc 1 674 0
 3201 09ee 6F4B     		ldr	r3, .L506+16
 3202 09f0 1B78     		ldrb	r3, [r3]	@ zero_extendqisi2
 3203 09f2 042B     		cmp	r3, #4
 3204 09f4 40F0DE81 		bne	.L186
 675:main.c        ****       
 676:main.c        ****       if(Opcion>5)
 3205              		.loc 1 676 0
 3206 09f8 6B4B     		ldr	r3, .L506+12
 3207 09fa 1B78     		ldrb	r3, [r3]	@ zero_extendqisi2
 3208 09fc 052B     		cmp	r3, #5
 3209 09fe 02D9     		bls	.L187
 677:main.c        ****          Opcion=1;
 3210              		.loc 1 677 0
 3211 0a00 0122     		movs	r2, #1
 3212 0a02 694B     		ldr	r3, .L506+12
 3213 0a04 1A70     		strb	r2, [r3]
 3214              	.L187:
 678:main.c        ****          
 679:main.c        ****       if(Opcion<1)
 3215              		.loc 1 679 0
 3216 0a06 684B     		ldr	r3, .L506+12
 3217 0a08 1B78     		ldrb	r3, [r3]	@ zero_extendqisi2
 3218 0a0a 13B9     		cbnz	r3, .L188
 680:main.c        ****          Opcion=5;
 3219              		.loc 1 680 0
 3220 0a0c 0522     		movs	r2, #5
 3221 0a0e 664B     		ldr	r3, .L506+12
 3222 0a10 1A70     		strb	r2, [r3]
 3223              	.L188:
 681:main.c        ****       
 682:main.c        ****          strcpy(Menus.Letra,"Seleccione");
 3224              		.loc 1 682 0
 3225 0a12 624C     		ldr	r4, .L506
 3226 0a14 674B     		ldr	r3, .L506+24
 3227 0a16 03CB     		ldmia	r3!, {r0, r1}
ARM GAS  C:\Users\USUARIO\AppData\Local\Temp\ccFzbpyv.s 			page 72


 3228 0a18 2060     		str	r0, [r4]	@ unaligned
 3229 0a1a 6160     		str	r1, [r4, #4]	@ unaligned
 3230 0a1c 1A88     		ldrh	r2, [r3]	@ unaligned
 3231 0a1e 9B78     		ldrb	r3, [r3, #2]	@ zero_extendqisi2
 3232 0a20 2281     		strh	r2, [r4, #8]	@ unaligned
 3233 0a22 A372     		strb	r3, [r4, #10]
 683:main.c        ****          displayMenu(Menus.Letra,0,0,1,2);
 3234              		.loc 1 683 0
 3235 0a24 0225     		movs	r5, #2
 3236 0a26 0095     		str	r5, [sp]
 3237 0a28 0123     		movs	r3, #1
 3238 0a2a 0022     		movs	r2, #0
 3239 0a2c 1146     		mov	r1, r2
 3240 0a2e 2046     		mov	r0, r4
 3241 0a30 FFF7FEFF 		bl	displayMenu
 3242              	.LVL265:
 684:main.c        ****          
 685:main.c        ****          strcpy(Menus.Letra," Programa");
 3243              		.loc 1 685 0
 3244 0a34 604B     		ldr	r3, .L506+28
 3245 0a36 03CB     		ldmia	r3!, {r0, r1}
 3246 0a38 2060     		str	r0, [r4]	@ unaligned
 3247 0a3a 6160     		str	r1, [r4, #4]	@ unaligned
 3248 0a3c 1B88     		ldrh	r3, [r3]	@ unaligned
 3249 0a3e 2381     		strh	r3, [r4, #8]	@ unaligned
 686:main.c        ****          displayMenu(Menus.Letra,0,16,1,2);
 3250              		.loc 1 686 0
 3251 0a40 0095     		str	r5, [sp]
 3252 0a42 0123     		movs	r3, #1
 3253 0a44 1022     		movs	r2, #16
 3254 0a46 0021     		movs	r1, #0
 3255 0a48 2046     		mov	r0, r4
 3256 0a4a FFF7FEFF 		bl	displayMenu
 3257              	.LVL266:
 687:main.c        ****           
 688:main.c        ****          
 689:main.c        ****          if(Opcion==1)
 3258              		.loc 1 689 0
 3259 0a4e 564B     		ldr	r3, .L506+12
 3260 0a50 1B78     		ldrb	r3, [r3]	@ zero_extendqisi2
 3261 0a52 012B     		cmp	r3, #1
 3262 0a54 0BD1     		bne	.L189
 690:main.c        ****          {
 691:main.c        ****             strcpy(Menus.Letra,"Programa 01");
 3263              		.loc 1 691 0
 3264 0a56 594B     		ldr	r3, .L506+32
 3265 0a58 07CB     		ldmia	r3!, {r0, r1, r2}
 3266 0a5a 2060     		str	r0, [r4]	@ unaligned
 3267 0a5c 6160     		str	r1, [r4, #4]	@ unaligned
 3268 0a5e A260     		str	r2, [r4, #8]	@ unaligned
 692:main.c        ****             displayMenu(Menus.Letra,0,38,0,2);
 3269              		.loc 1 692 0
 3270 0a60 0095     		str	r5, [sp]
 3271 0a62 0023     		movs	r3, #0
 3272 0a64 2622     		movs	r2, #38
 3273 0a66 1946     		mov	r1, r3
 3274 0a68 2046     		mov	r0, r4
ARM GAS  C:\Users\USUARIO\AppData\Local\Temp\ccFzbpyv.s 			page 73


 3275 0a6a FFF7FEFF 		bl	displayMenu
 3276              	.LVL267:
 3277              	.L189:
 693:main.c        ****          }
 694:main.c        ****          
 695:main.c        ****          if(Opcion==2)
 3278              		.loc 1 695 0
 3279 0a6e 4E4B     		ldr	r3, .L506+12
 3280 0a70 1B78     		ldrb	r3, [r3]	@ zero_extendqisi2
 3281 0a72 022B     		cmp	r3, #2
 3282 0a74 0DD1     		bne	.L190
 696:main.c        ****          {
 697:main.c        ****             strcpy(Menus.Letra,"Programa 02");
 3283              		.loc 1 697 0
 3284 0a76 494C     		ldr	r4, .L506
 3285 0a78 514B     		ldr	r3, .L506+36
 3286 0a7a 07CB     		ldmia	r3!, {r0, r1, r2}
 3287 0a7c 2060     		str	r0, [r4]	@ unaligned
 3288 0a7e 6160     		str	r1, [r4, #4]	@ unaligned
 3289 0a80 A260     		str	r2, [r4, #8]	@ unaligned
 698:main.c        ****             displayMenu(Menus.Letra,0,38,0,2);
 3290              		.loc 1 698 0
 3291 0a82 0223     		movs	r3, #2
 3292 0a84 0093     		str	r3, [sp]
 3293 0a86 0023     		movs	r3, #0
 3294 0a88 2622     		movs	r2, #38
 3295 0a8a 1946     		mov	r1, r3
 3296 0a8c 2046     		mov	r0, r4
 3297 0a8e FFF7FEFF 		bl	displayMenu
 3298              	.LVL268:
 3299              	.L190:
 699:main.c        ****          }
 700:main.c        ****          
 701:main.c        ****          if(Opcion==3)
 3300              		.loc 1 701 0
 3301 0a92 454B     		ldr	r3, .L506+12
 3302 0a94 1B78     		ldrb	r3, [r3]	@ zero_extendqisi2
 3303 0a96 032B     		cmp	r3, #3
 3304 0a98 0DD1     		bne	.L191
 702:main.c        ****          {
 703:main.c        ****             strcpy(Menus.Letra,"Programa 03");
 3305              		.loc 1 703 0
 3306 0a9a 404C     		ldr	r4, .L506
 3307 0a9c 494B     		ldr	r3, .L506+40
 3308 0a9e 07CB     		ldmia	r3!, {r0, r1, r2}
 3309 0aa0 2060     		str	r0, [r4]	@ unaligned
 3310 0aa2 6160     		str	r1, [r4, #4]	@ unaligned
 3311 0aa4 A260     		str	r2, [r4, #8]	@ unaligned
 704:main.c        ****             displayMenu(Menus.Letra,0,38,0,2);
 3312              		.loc 1 704 0
 3313 0aa6 0223     		movs	r3, #2
 3314 0aa8 0093     		str	r3, [sp]
 3315 0aaa 0023     		movs	r3, #0
 3316 0aac 2622     		movs	r2, #38
 3317 0aae 1946     		mov	r1, r3
 3318 0ab0 2046     		mov	r0, r4
 3319 0ab2 FFF7FEFF 		bl	displayMenu
ARM GAS  C:\Users\USUARIO\AppData\Local\Temp\ccFzbpyv.s 			page 74


 3320              	.LVL269:
 3321              	.L191:
 705:main.c        ****          }
 706:main.c        ****          
 707:main.c        ****          if(Opcion==4)
 3322              		.loc 1 707 0
 3323 0ab6 3C4B     		ldr	r3, .L506+12
 3324 0ab8 1B78     		ldrb	r3, [r3]	@ zero_extendqisi2
 3325 0aba 042B     		cmp	r3, #4
 3326 0abc 0DD1     		bne	.L192
 708:main.c        ****          {
 709:main.c        ****             strcpy(Menus.Letra,"Programa 04");
 3327              		.loc 1 709 0
 3328 0abe 374C     		ldr	r4, .L506
 3329 0ac0 414B     		ldr	r3, .L506+44
 3330 0ac2 07CB     		ldmia	r3!, {r0, r1, r2}
 3331 0ac4 2060     		str	r0, [r4]	@ unaligned
 3332 0ac6 6160     		str	r1, [r4, #4]	@ unaligned
 3333 0ac8 A260     		str	r2, [r4, #8]	@ unaligned
 710:main.c        ****             displayMenu(Menus.Letra,0,38,0,2);
 3334              		.loc 1 710 0
 3335 0aca 0223     		movs	r3, #2
 3336 0acc 0093     		str	r3, [sp]
 3337 0ace 0023     		movs	r3, #0
 3338 0ad0 2622     		movs	r2, #38
 3339 0ad2 1946     		mov	r1, r3
 3340 0ad4 2046     		mov	r0, r4
 3341 0ad6 FFF7FEFF 		bl	displayMenu
 3342              	.LVL270:
 3343              	.L192:
 711:main.c        ****          }
 712:main.c        ****          
 713:main.c        ****          if(Opcion==5)
 3344              		.loc 1 713 0
 3345 0ada 334B     		ldr	r3, .L506+12
 3346 0adc 1B78     		ldrb	r3, [r3]	@ zero_extendqisi2
 3347 0ade 052B     		cmp	r3, #5
 3348 0ae0 0DD1     		bne	.L193
 714:main.c        ****          {
 715:main.c        ****             strcpy(Menus.Letra,"Programa 05");
 3349              		.loc 1 715 0
 3350 0ae2 2E4C     		ldr	r4, .L506
 3351 0ae4 394B     		ldr	r3, .L506+48
 3352 0ae6 07CB     		ldmia	r3!, {r0, r1, r2}
 3353 0ae8 2060     		str	r0, [r4]	@ unaligned
 3354 0aea 6160     		str	r1, [r4, #4]	@ unaligned
 3355 0aec A260     		str	r2, [r4, #8]	@ unaligned
 716:main.c        ****             displayMenu(Menus.Letra,0,38,0,2);
 3356              		.loc 1 716 0
 3357 0aee 0223     		movs	r3, #2
 3358 0af0 0093     		str	r3, [sp]
 3359 0af2 0023     		movs	r3, #0
 3360 0af4 2622     		movs	r2, #38
 3361 0af6 1946     		mov	r1, r3
 3362 0af8 2046     		mov	r0, r4
 3363 0afa FFF7FEFF 		bl	displayMenu
 3364              	.LVL271:
ARM GAS  C:\Users\USUARIO\AppData\Local\Temp\ccFzbpyv.s 			page 75


 3365              	.L193:
 717:main.c        ****          }
 718:main.c        ****          
 719:main.c        ****         
 720:main.c        ****       if(UP_Read()==0)//Si oprime hacia arriba
 3366              		.loc 1 720 0
 3367 0afe FFF7FEFF 		bl	UP_Read
 3368              	.LVL272:
 3369 0b02 B0B9     		cbnz	r0, .L194
 721:main.c        ****       {
 722:main.c        ****          BUZZER_Write(1);CyDelay(30);Opcion++;BUZZER_Write(0);
 3370              		.loc 1 722 0
 3371 0b04 0120     		movs	r0, #1
 3372 0b06 FFF7FEFF 		bl	BUZZER_Write
 3373              	.LVL273:
 3374 0b0a 1E20     		movs	r0, #30
 3375 0b0c FFF7FEFF 		bl	CyDelay
 3376              	.LVL274:
 3377 0b10 254A     		ldr	r2, .L506+12
 3378 0b12 1378     		ldrb	r3, [r2]	@ zero_extendqisi2
 3379 0b14 0133     		adds	r3, r3, #1
 3380 0b16 1370     		strb	r3, [r2]
 3381 0b18 0020     		movs	r0, #0
 3382 0b1a FFF7FEFF 		bl	BUZZER_Write
 3383              	.LVL275:
 723:main.c        ****          glcd_rect(40, 35, 85, 60, YES, OFF);
 3384              		.loc 1 723 0
 3385 0b1e 0023     		movs	r3, #0
 3386 0b20 0193     		str	r3, [sp, #4]
 3387 0b22 0123     		movs	r3, #1
 3388 0b24 0093     		str	r3, [sp]
 3389 0b26 3C23     		movs	r3, #60
 3390 0b28 5522     		movs	r2, #85
 3391 0b2a 2321     		movs	r1, #35
 3392 0b2c 2820     		movs	r0, #40
 3393 0b2e FFF7FEFF 		bl	glcd_rect
 3394              	.LVL276:
 3395              	.L194:
 724:main.c        ****       }
 725:main.c        ****             
 726:main.c        ****       if(DOWN_Read()==0)//Si oprime hacia abajo
 3396              		.loc 1 726 0
 3397 0b32 FFF7FEFF 		bl	DOWN_Read
 3398              	.LVL277:
 3399 0b36 B0B9     		cbnz	r0, .L195
 727:main.c        ****       {  
 728:main.c        ****          BUZZER_Write(1);CyDelay(30);Opcion--;BUZZER_Write(0);
 3400              		.loc 1 728 0
 3401 0b38 0120     		movs	r0, #1
 3402 0b3a FFF7FEFF 		bl	BUZZER_Write
 3403              	.LVL278:
 3404 0b3e 1E20     		movs	r0, #30
 3405 0b40 FFF7FEFF 		bl	CyDelay
 3406              	.LVL279:
 3407 0b44 184A     		ldr	r2, .L506+12
 3408 0b46 1378     		ldrb	r3, [r2]	@ zero_extendqisi2
 3409 0b48 013B     		subs	r3, r3, #1
ARM GAS  C:\Users\USUARIO\AppData\Local\Temp\ccFzbpyv.s 			page 76


 3410 0b4a 1370     		strb	r3, [r2]
 3411 0b4c 0020     		movs	r0, #0
 3412 0b4e FFF7FEFF 		bl	BUZZER_Write
 3413              	.LVL280:
 729:main.c        ****          glcd_rect(40, 35, 85, 60, YES, OFF);
 3414              		.loc 1 729 0
 3415 0b52 0023     		movs	r3, #0
 3416 0b54 0193     		str	r3, [sp, #4]
 3417 0b56 0123     		movs	r3, #1
 3418 0b58 0093     		str	r3, [sp]
 3419 0b5a 3C23     		movs	r3, #60
 3420 0b5c 5522     		movs	r2, #85
 3421 0b5e 2321     		movs	r1, #35
 3422 0b60 2820     		movs	r0, #40
 3423 0b62 FFF7FEFF 		bl	glcd_rect
 3424              	.LVL281:
 3425              	.L195:
 730:main.c        ****       }
 731:main.c        ****             
 732:main.c        ****       if(RIGHT_Read()==0)//Si oprime SET
 3426              		.loc 1 732 0
 3427 0b66 FFF7FEFF 		bl	RIGHT_Read
 3428              	.LVL282:
 3429 0b6a 0028     		cmp	r0, #0
 3430 0b6c 40F00B81 		bne	.L196
 733:main.c        ****       {  
 734:main.c        ****          Menu=20;glcd_fillScreen(OFF);
 3431              		.loc 1 734 0
 3432 0b70 1422     		movs	r2, #20
 3433 0b72 0E4B     		ldr	r3, .L506+16
 3434 0b74 1A70     		strb	r2, [r3]
 3435 0b76 FFF7FEFF 		bl	glcd_fillScreen
 3436              	.LVL283:
 735:main.c        ****          for(i=0;i<Pasos;i++){
 3437              		.loc 1 735 0
 3438 0b7a 0022     		movs	r2, #0
 3439 0b7c 144B     		ldr	r3, .L506+52
 3440 0b7e 1A70     		strb	r2, [r3]
 3441 0b80 32E0     		b	.L197
 3442              	.L200:
 736:main.c        ****             if(Temperatura1[i+((Opcion-1)*Pasos)]==0){
 3443              		.loc 1 736 0
 3444 0b82 094A     		ldr	r2, .L506+12
 3445 0b84 1278     		ldrb	r2, [r2]	@ zero_extendqisi2
 3446 0b86 013A     		subs	r2, r2, #1
 3447 0b88 03EB0212 		add	r2, r3, r2, lsl #4
 3448 0b8c 1149     		ldr	r1, .L506+56
 3449 0b8e 31F91220 		ldrsh	r2, [r1, r2, lsl #1]
 3450 0b92 1ABB     		cbnz	r2, .L198
 737:main.c        ****                Segmentos=i;
 3451              		.loc 1 737 0
 3452 0b94 104A     		ldr	r2, .L506+60
 3453 0b96 1370     		strb	r3, [r2]
 738:main.c        ****                break;
 3454              		.loc 1 738 0
 3455 0b98 2AE0     		b	.L199
 3456              	.L507:
ARM GAS  C:\Users\USUARIO\AppData\Local\Temp\ccFzbpyv.s 			page 77


 3457 0b9a 00BF     		.align	2
 3458              	.L506:
 3459 0b9c 00000000 		.word	Menus
 3460 0ba0 AC000000 		.word	.LC13
 3461 0ba4 BC000000 		.word	.LC14
 3462 0ba8 00000000 		.word	Opcion
 3463 0bac 00000000 		.word	Menu
 3464 0bb0 00000000 		.word	unidad
 3465 0bb4 CC000000 		.word	.LC15
 3466 0bb8 D8000000 		.word	.LC16
 3467 0bbc E4000000 		.word	.LC17
 3468 0bc0 F0000000 		.word	.LC18
 3469 0bc4 FC000000 		.word	.LC19
 3470 0bc8 08010000 		.word	.LC20
 3471 0bcc 14010000 		.word	.LC21
 3472 0bd0 00000000 		.word	i
 3473 0bd4 00000000 		.word	Temperatura1
 3474 0bd8 00000000 		.word	Segmentos
 3475              	.L198:
 739:main.c        ****             }
 740:main.c        ****             else{
 741:main.c        ****                Segmentos=Pasos-1;
 3476              		.loc 1 741 0 discriminator 2
 3477 0bdc 0F21     		movs	r1, #15
 3478 0bde AF4A     		ldr	r2, .L508
 3479 0be0 1170     		strb	r1, [r2]
 735:main.c        ****             if(Temperatura1[i+((Opcion-1)*Pasos)]==0){
 3480              		.loc 1 735 0 discriminator 2
 3481 0be2 0133     		adds	r3, r3, #1
 3482 0be4 AE4A     		ldr	r2, .L508+4
 3483 0be6 1370     		strb	r3, [r2]
 3484              	.L197:
 735:main.c        ****             if(Temperatura1[i+((Opcion-1)*Pasos)]==0){
 3485              		.loc 1 735 0 is_stmt 0 discriminator 1
 3486 0be8 AD4B     		ldr	r3, .L508+4
 3487 0bea 1B78     		ldrb	r3, [r3]	@ zero_extendqisi2
 3488 0bec 0F2B     		cmp	r3, #15
 3489 0bee C8D9     		bls	.L200
 3490              	.L199:
 742:main.c        ****             }
 743:main.c        ****             //Horas1[i+((Opcion-1)*10)]=0;
 744:main.c        ****             //Minutos1[i+((Opcion-1)*10)]=0;
 745:main.c        ****          }
 746:main.c        ****          if(Segmentos>0){
 3491              		.loc 1 746 0 is_stmt 1
 3492 0bf0 AA4B     		ldr	r3, .L508
 3493 0bf2 1B78     		ldrb	r3, [r3]	@ zero_extendqisi2
 3494 0bf4 002B     		cmp	r3, #0
 3495 0bf6 00F09180 		beq	.L201
 747:main.c        ****             ProgramaSeleccionado=Opcion-1;
 3496              		.loc 1 747 0
 3497 0bfa AA4D     		ldr	r5, .L508+8
 3498 0bfc AA4E     		ldr	r6, .L508+12
 3499 0bfe 3378     		ldrb	r3, [r6]	@ zero_extendqisi2
 3500 0c00 013B     		subs	r3, r3, #1
 3501 0c02 2B70     		strb	r3, [r5]
 748:main.c        ****             glcd_fillScreen(OFF);
ARM GAS  C:\Users\USUARIO\AppData\Local\Temp\ccFzbpyv.s 			page 78


 3502              		.loc 1 748 0
 3503 0c04 0020     		movs	r0, #0
 3504 0c06 FFF7FEFF 		bl	glcd_fillScreen
 3505              	.LVL284:
 749:main.c        ****             
 750:main.c        ****             strcpy(Menus.Letra," Segmentos");
 3506              		.loc 1 750 0
 3507 0c0a A84C     		ldr	r4, .L508+16
 3508 0c0c A84B     		ldr	r3, .L508+20
 3509 0c0e 03CB     		ldmia	r3!, {r0, r1}
 3510 0c10 2060     		str	r0, [r4]	@ unaligned
 3511 0c12 6160     		str	r1, [r4, #4]	@ unaligned
 3512 0c14 1A88     		ldrh	r2, [r3]	@ unaligned
 3513 0c16 9B78     		ldrb	r3, [r3, #2]	@ zero_extendqisi2
 3514 0c18 2281     		strh	r2, [r4, #8]	@ unaligned
 3515 0c1a A372     		strb	r3, [r4, #10]
 751:main.c        ****             displayMenu(Menus.Letra,0,0,0,2);
 3516              		.loc 1 751 0
 3517 0c1c 0227     		movs	r7, #2
 3518 0c1e 0097     		str	r7, [sp]
 3519 0c20 0023     		movs	r3, #0
 3520 0c22 1A46     		mov	r2, r3
 3521 0c24 1946     		mov	r1, r3
 3522 0c26 2046     		mov	r0, r4
 3523 0c28 FFF7FEFF 		bl	displayMenu
 3524              	.LVL285:
 752:main.c        ****             
 753:main.c        ****             displayTiempo(Segmentos,63,30,3,2);
 3525              		.loc 1 753 0
 3526 0c2c 9B4B     		ldr	r3, .L508
 3527 0c2e 1878     		ldrb	r0, [r3]	@ zero_extendqisi2
 3528 0c30 0097     		str	r7, [sp]
 3529 0c32 0323     		movs	r3, #3
 3530 0c34 1E22     		movs	r2, #30
 3531 0c36 3F21     		movs	r1, #63
 3532 0c38 FFF7FEFF 		bl	displayTiempo
 3533              	.LVL286:
 754:main.c        ****             CyDelay(2000);
 3534              		.loc 1 754 0
 3535 0c3c 4FF4FA60 		mov	r0, #2000
 3536 0c40 FFF7FEFF 		bl	CyDelay
 3537              	.LVL287:
 755:main.c        ****             glcd_fillScreen(OFF);
 3538              		.loc 1 755 0
 3539 0c44 0020     		movs	r0, #0
 3540 0c46 FFF7FEFF 		bl	glcd_fillScreen
 3541              	.LVL288:
 756:main.c        ****             Opcion=1;visual=1;//Faltaa cuadrar esta parte
 3542              		.loc 1 756 0
 3543 0c4a 0123     		movs	r3, #1
 3544 0c4c 3370     		strb	r3, [r6]
 3545 0c4e 994A     		ldr	r2, .L508+24
 3546 0c50 1380     		strh	r3, [r2]	@ movhi
 757:main.c        ****             TempeInicial=Temperatura;
 3547              		.loc 1 757 0
 3548 0c52 994B     		ldr	r3, .L508+28
 3549 0c54 D3F80080 		ldr	r8, [r3]	@ float
ARM GAS  C:\Users\USUARIO\AppData\Local\Temp\ccFzbpyv.s 			page 79


 3550 0c58 984B     		ldr	r3, .L508+32
 3551 0c5a C3F80080 		str	r8, [r3]	@ float
 758:main.c        ****             Ganancia=GananciaIn*(Setpoint/Coeficiente);
 3552              		.loc 1 758 0
 3553 0c5e DFF8A892 		ldr	r9, .L508+108
 3554 0c62 B9F80000 		ldrh	r0, [r9]
 3555 0c66 964B     		ldr	r3, .L508+36
 3556 0c68 1B88     		ldrh	r3, [r3]
 3557 0c6a B0FBF3F0 		udiv	r0, r0, r3
 3558 0c6e FFF7FEFF 		bl	__aeabi_i2f
 3559              	.LVL289:
 3560 0c72 944B     		ldr	r3, .L508+40
 3561 0c74 1968     		ldr	r1, [r3]	@ float
 3562 0c76 FFF7FEFF 		bl	__aeabi_fmul
 3563              	.LVL290:
 3564 0c7a 934B     		ldr	r3, .L508+44
 3565 0c7c 1860     		str	r0, [r3]	@ float
 759:main.c        ****             
 760:main.c        ****             Tiempo=(Horas1[ProgramaSeleccionado*Pasos]*3600)+(Minutos1[ProgramaSeleccionado*Pasos]*
 3566              		.loc 1 760 0
 3567 0c7e 2A78     		ldrb	r2, [r5]	@ zero_extendqisi2
 3568 0c80 1201     		lsls	r2, r2, #4
 3569 0c82 924F     		ldr	r7, .L508+48
 3570 0c84 37F91240 		ldrsh	r4, [r7, r2, lsl #1]
 3571 0c88 914D     		ldr	r5, .L508+52
 3572 0c8a 35F91230 		ldrsh	r3, [r5, r2, lsl #1]
 3573 0c8e C4EB0414 		rsb	r4, r4, r4, lsl #4
 3574 0c92 C4EB0414 		rsb	r4, r4, r4, lsl #4
 3575 0c96 C3EB0313 		rsb	r3, r3, r3, lsl #4
 3576 0c9a 9B00     		lsls	r3, r3, #2
 3577 0c9c 03EB0414 		add	r4, r3, r4, lsl #4
 3578 0ca0 A4B2     		uxth	r4, r4
 3579 0ca2 8C4B     		ldr	r3, .L508+56
 3580 0ca4 1C80     		strh	r4, [r3]	@ movhi
 761:main.c        ****             Setpoint=Temperatura1[(ProgramaSeleccionado*Pasos)+Segmento];
 3581              		.loc 1 761 0
 3582 0ca6 8C4B     		ldr	r3, .L508+60
 3583 0ca8 1E78     		ldrb	r6, [r3]	@ zero_extendqisi2
 3584 0caa 1644     		add	r6, r6, r2
 3585 0cac 8B4B     		ldr	r3, .L508+64
 3586 0cae 33F81600 		ldrh	r0, [r3, r6, lsl #1]
 3587 0cb2 A9F80000 		strh	r0, [r9]	@ movhi
 762:main.c        ****             Pendiente=((Setpoint-TempeInicial)/Tiempo);
 3588              		.loc 1 762 0
 3589 0cb6 FFF7FEFF 		bl	__aeabi_i2f
 3590              	.LVL291:
 3591 0cba 4146     		mov	r1, r8
 3592 0cbc FFF7FEFF 		bl	__aeabi_fsub
 3593              	.LVL292:
 3594 0cc0 8046     		mov	r8, r0
 3595 0cc2 2046     		mov	r0, r4
 3596 0cc4 FFF7FEFF 		bl	__aeabi_i2f
 3597              	.LVL293:
 3598 0cc8 0146     		mov	r1, r0
 3599 0cca 4046     		mov	r0, r8
 3600 0ccc FFF7FEFF 		bl	__aeabi_fdiv
 3601              	.LVL294:
ARM GAS  C:\Users\USUARIO\AppData\Local\Temp\ccFzbpyv.s 			page 80


 3602 0cd0 834B     		ldr	r3, .L508+68
 3603 0cd2 1860     		str	r0, [r3]	@ float
 763:main.c        ****             Testerilizacionp[3]=(int8)Horas1[(ProgramaSeleccionado*Pasos)+Segmento]/10;
 3604              		.loc 1 763 0
 3605 0cd4 37F91620 		ldrsh	r2, [r7, r6, lsl #1]
 3606 0cd8 53B2     		sxtb	r3, r2
 3607 0cda 8248     		ldr	r0, .L508+72
 3608 0cdc 80FB0341 		smull	r4, r1, r0, r3
 3609 0ce0 DB17     		asrs	r3, r3, #31
 3610 0ce2 C3EBA103 		rsb	r3, r3, r1, asr #2
 3611 0ce6 5BB2     		sxtb	r3, r3
 3612 0ce8 7F49     		ldr	r1, .L508+76
 3613 0cea CB74     		strb	r3, [r1, #19]
 764:main.c        ****             Testerilizacionp[2]=Horas1[(ProgramaSeleccionado*Pasos)+Segmento]-(Testerilizacionp[3]*
 3614              		.loc 1 764 0
 3615 0cec C3EB4314 		rsb	r4, r3, r3, lsl #5
 3616 0cf0 C3EB8403 		rsb	r3, r3, r4, lsl #2
 3617 0cf4 02EB4303 		add	r3, r2, r3, lsl #1
 3618 0cf8 8B74     		strb	r3, [r1, #18]
 765:main.c        ****             Testerilizacionp[1]=Minutos1[(ProgramaSeleccionado*Pasos)+Segmento]/10;
 3619              		.loc 1 765 0
 3620 0cfa 35F91620 		ldrsh	r2, [r5, r6, lsl #1]
 3621 0cfe 80FB0230 		smull	r3, r0, r0, r2
 3622 0d02 D317     		asrs	r3, r2, #31
 3623 0d04 C3EBA003 		rsb	r3, r3, r0, asr #2
 3624 0d08 5BB2     		sxtb	r3, r3
 3625 0d0a 4B74     		strb	r3, [r1, #17]
 766:main.c        ****             Testerilizacionp[0]=Minutos1[(ProgramaSeleccionado*Pasos)+Segmento]-(Testerilizacionp[1
 3626              		.loc 1 766 0
 3627 0d0c C3EB4310 		rsb	r0, r3, r3, lsl #5
 3628 0d10 C3EB8003 		rsb	r3, r3, r0, lsl #2
 3629 0d14 02EB4303 		add	r3, r2, r3, lsl #1
 3630 0d18 0B74     		strb	r3, [r1, #16]
 3631 0d1a 34E0     		b	.L196
 3632              	.L201:
 767:main.c        ****             
 768:main.c        ****          }
 769:main.c        ****          else{
 770:main.c        ****             glcd_fillScreen(OFF);
 3633              		.loc 1 770 0
 3634 0d1c 0020     		movs	r0, #0
 3635 0d1e FFF7FEFF 		bl	glcd_fillScreen
 3636              	.LVL295:
 771:main.c        ****             strcpy(Menus.Letra," !Programa");
 3637              		.loc 1 771 0
 3638 0d22 624C     		ldr	r4, .L508+16
 3639 0d24 714B     		ldr	r3, .L508+80
 3640 0d26 03CB     		ldmia	r3!, {r0, r1}
 3641 0d28 2060     		str	r0, [r4]	@ unaligned
 3642 0d2a 6160     		str	r1, [r4, #4]	@ unaligned
 3643 0d2c 1A88     		ldrh	r2, [r3]	@ unaligned
 3644 0d2e 9B78     		ldrb	r3, [r3, #2]	@ zero_extendqisi2
 3645 0d30 2281     		strh	r2, [r4, #8]	@ unaligned
 3646 0d32 A372     		strb	r3, [r4, #10]
 772:main.c        ****             displayMenu(Menus.Letra,0,0,0,2);
 3647              		.loc 1 772 0
 3648 0d34 0225     		movs	r5, #2
ARM GAS  C:\Users\USUARIO\AppData\Local\Temp\ccFzbpyv.s 			page 81


 3649 0d36 0095     		str	r5, [sp]
 3650 0d38 0023     		movs	r3, #0
 3651 0d3a 1A46     		mov	r2, r3
 3652 0d3c 1946     		mov	r1, r3
 3653 0d3e 2046     		mov	r0, r4
 3654 0d40 FFF7FEFF 		bl	displayMenu
 3655              	.LVL296:
 773:main.c        ****             strcpy(Menus.Letra,"    Vacio!");
 3656              		.loc 1 773 0
 3657 0d44 6A4B     		ldr	r3, .L508+84
 3658 0d46 03CB     		ldmia	r3!, {r0, r1}
 3659 0d48 2060     		str	r0, [r4]	@ unaligned
 3660 0d4a 6160     		str	r1, [r4, #4]	@ unaligned
 3661 0d4c 1A88     		ldrh	r2, [r3]	@ unaligned
 3662 0d4e 9B78     		ldrb	r3, [r3, #2]	@ zero_extendqisi2
 3663 0d50 2281     		strh	r2, [r4, #8]	@ unaligned
 3664 0d52 A372     		strb	r3, [r4, #10]
 774:main.c        ****             displayMenu(Menus.Letra,0,20,0,2);
 3665              		.loc 1 774 0
 3666 0d54 0095     		str	r5, [sp]
 3667 0d56 0023     		movs	r3, #0
 3668 0d58 1422     		movs	r2, #20
 3669 0d5a 1946     		mov	r1, r3
 3670 0d5c 2046     		mov	r0, r4
 3671 0d5e FFF7FEFF 		bl	displayMenu
 3672              	.LVL297:
 775:main.c        ****             Opcion=1;BUZZER_Write(0);CyDelay(2000);Menu=1;glcd_fillScreen(OFF);Opcion=1;visual=1;
 3673              		.loc 1 775 0
 3674 0d62 514D     		ldr	r5, .L508+12
 3675 0d64 0124     		movs	r4, #1
 3676 0d66 2C70     		strb	r4, [r5]
 3677 0d68 0020     		movs	r0, #0
 3678 0d6a FFF7FEFF 		bl	BUZZER_Write
 3679              	.LVL298:
 3680 0d6e 4FF4FA60 		mov	r0, #2000
 3681 0d72 FFF7FEFF 		bl	CyDelay
 3682              	.LVL299:
 3683 0d76 5F4B     		ldr	r3, .L508+88
 3684 0d78 1C70     		strb	r4, [r3]
 3685 0d7a 0020     		movs	r0, #0
 3686 0d7c FFF7FEFF 		bl	glcd_fillScreen
 3687              	.LVL300:
 3688 0d80 2C70     		strb	r4, [r5]
 3689 0d82 4C4B     		ldr	r3, .L508+24
 3690 0d84 1C80     		strh	r4, [r3]	@ movhi
 3691              	.L196:
 776:main.c        ****          }
 777:main.c        ****       } 
 778:main.c        ****                   
 779:main.c        ****       if(LEFT_Read()==0)//Si oprime boton de Toma.
 3692              		.loc 1 779 0
 3693 0d86 FFF7FEFF 		bl	LEFT_Read
 3694              	.LVL301:
 3695 0d8a 98B9     		cbnz	r0, .L186
 780:main.c        ****       {
 781:main.c        ****          BUZZER_Write(1);Opcion=1;BUZZER_Write(0);CyDelay(50);Menu=1;glcd_fillScreen(OFF);Opcion=1;
 3696              		.loc 1 781 0
ARM GAS  C:\Users\USUARIO\AppData\Local\Temp\ccFzbpyv.s 			page 82


 3697 0d8c 0120     		movs	r0, #1
 3698 0d8e FFF7FEFF 		bl	BUZZER_Write
 3699              	.LVL302:
 3700 0d92 454D     		ldr	r5, .L508+12
 3701 0d94 0124     		movs	r4, #1
 3702 0d96 2C70     		strb	r4, [r5]
 3703 0d98 0020     		movs	r0, #0
 3704 0d9a FFF7FEFF 		bl	BUZZER_Write
 3705              	.LVL303:
 3706 0d9e 3220     		movs	r0, #50
 3707 0da0 FFF7FEFF 		bl	CyDelay
 3708              	.LVL304:
 3709 0da4 534B     		ldr	r3, .L508+88
 3710 0da6 1C70     		strb	r4, [r3]
 3711 0da8 0020     		movs	r0, #0
 3712 0daa FFF7FEFF 		bl	glcd_fillScreen
 3713              	.LVL305:
 3714 0dae 2C70     		strb	r4, [r5]
 3715 0db0 404B     		ldr	r3, .L508+24
 3716 0db2 1C80     		strh	r4, [r3]	@ movhi
 3717              	.L186:
 782:main.c        ****       } 
 783:main.c        ****     }
 784:main.c        **** //_------------------------------------------------------------------------------------------------
 785:main.c        **** 
 786:main.c        **** //_------------------------------------------------------------------------------------------------
 787:main.c        ****       if(Menu==5){ //Menu Editar Programa
 3718              		.loc 1 787 0
 3719 0db4 4F4B     		ldr	r3, .L508+88
 3720 0db6 1B78     		ldrb	r3, [r3]	@ zero_extendqisi2
 3721 0db8 052B     		cmp	r3, #5
 3722 0dba 40F04281 		bne	.L202
 788:main.c        ****       
 789:main.c        ****          if(Opcion>5)
 3723              		.loc 1 789 0
 3724 0dbe 3A4B     		ldr	r3, .L508+12
 3725 0dc0 1B78     		ldrb	r3, [r3]	@ zero_extendqisi2
 3726 0dc2 052B     		cmp	r3, #5
 3727 0dc4 02D9     		bls	.L203
 790:main.c        ****          {Opcion=1;}
 3728              		.loc 1 790 0
 3729 0dc6 0122     		movs	r2, #1
 3730 0dc8 374B     		ldr	r3, .L508+12
 3731 0dca 1A70     		strb	r2, [r3]
 3732              	.L203:
 791:main.c        ****          if(Opcion<1)
 3733              		.loc 1 791 0
 3734 0dcc 364B     		ldr	r3, .L508+12
 3735 0dce 1B78     		ldrb	r3, [r3]	@ zero_extendqisi2
 3736 0dd0 13B9     		cbnz	r3, .L204
 792:main.c        ****          {Opcion=5;}
 3737              		.loc 1 792 0
 3738 0dd2 0522     		movs	r2, #5
 3739 0dd4 344B     		ldr	r3, .L508+12
 3740 0dd6 1A70     		strb	r2, [r3]
 3741              	.L204:
 793:main.c        ****          
ARM GAS  C:\Users\USUARIO\AppData\Local\Temp\ccFzbpyv.s 			page 83


 794:main.c        ****          strcpy(Menus.Letra,"Editar");
 3742              		.loc 1 794 0
 3743 0dd8 344C     		ldr	r4, .L508+16
 3744 0dda 474B     		ldr	r3, .L508+92
 3745 0ddc 1868     		ldr	r0, [r3]	@ unaligned
 3746 0dde 2060     		str	r0, [r4]	@ unaligned
 3747 0de0 9A88     		ldrh	r2, [r3, #4]	@ unaligned
 3748 0de2 9B79     		ldrb	r3, [r3, #6]	@ zero_extendqisi2
 3749 0de4 A280     		strh	r2, [r4, #4]	@ unaligned
 3750 0de6 A371     		strb	r3, [r4, #6]
 795:main.c        ****          displayMenu(Menus.Letra,30,0,1,2);
 3751              		.loc 1 795 0
 3752 0de8 0223     		movs	r3, #2
 3753 0dea 0093     		str	r3, [sp]
 3754 0dec 0123     		movs	r3, #1
 3755 0dee 0022     		movs	r2, #0
 3756 0df0 1E21     		movs	r1, #30
 3757 0df2 2046     		mov	r0, r4
 3758 0df4 FFF7FEFF 		bl	displayMenu
 3759              	.LVL306:
 796:main.c        ****       
 797:main.c        ****          if(Opcion==1)   
 3760              		.loc 1 797 0
 3761 0df8 2B4B     		ldr	r3, .L508+12
 3762 0dfa 1B78     		ldrb	r3, [r3]	@ zero_extendqisi2
 3763 0dfc 012B     		cmp	r3, #1
 3764 0dfe 0CD1     		bne	.L205
 798:main.c        ****             {strcpy(Menus.Letra,"Programa 01");
 3765              		.loc 1 798 0
 3766 0e00 3E4B     		ldr	r3, .L508+96
 3767 0e02 07CB     		ldmia	r3!, {r0, r1, r2}
 3768 0e04 2060     		str	r0, [r4]	@ unaligned
 3769 0e06 6160     		str	r1, [r4, #4]	@ unaligned
 3770 0e08 A260     		str	r2, [r4, #8]	@ unaligned
 799:main.c        ****             displayMenu(Menus.Letra,0,18,1,1);}
 3771              		.loc 1 799 0
 3772 0e0a 0123     		movs	r3, #1
 3773 0e0c 0093     		str	r3, [sp]
 3774 0e0e 1222     		movs	r2, #18
 3775 0e10 0021     		movs	r1, #0
 3776 0e12 2046     		mov	r0, r4
 3777 0e14 FFF7FEFF 		bl	displayMenu
 3778              	.LVL307:
 3779 0e18 0DE0     		b	.L206
 3780              	.L205:
 800:main.c        ****          else
 801:main.c        ****             {strcpy(Menus.Letra,"Programa 01");
 3781              		.loc 1 801 0
 3782 0e1a 244C     		ldr	r4, .L508+16
 3783 0e1c 374B     		ldr	r3, .L508+96
 3784 0e1e 07CB     		ldmia	r3!, {r0, r1, r2}
 3785 0e20 2060     		str	r0, [r4]	@ unaligned
 3786 0e22 6160     		str	r1, [r4, #4]	@ unaligned
 3787 0e24 A260     		str	r2, [r4, #8]	@ unaligned
 802:main.c        ****             displayMenu(Menus.Letra,0,18,0,1);}
 3788              		.loc 1 802 0
 3789 0e26 0123     		movs	r3, #1
ARM GAS  C:\Users\USUARIO\AppData\Local\Temp\ccFzbpyv.s 			page 84


 3790 0e28 0093     		str	r3, [sp]
 3791 0e2a 0023     		movs	r3, #0
 3792 0e2c 1222     		movs	r2, #18
 3793 0e2e 1946     		mov	r1, r3
 3794 0e30 2046     		mov	r0, r4
 3795 0e32 FFF7FEFF 		bl	displayMenu
 3796              	.LVL308:
 3797              	.L206:
 803:main.c        ****          
 804:main.c        ****          if(Opcion==2)   
 3798              		.loc 1 804 0
 3799 0e36 1C4B     		ldr	r3, .L508+12
 3800 0e38 1B78     		ldrb	r3, [r3]	@ zero_extendqisi2
 3801 0e3a 022B     		cmp	r3, #2
 3802 0e3c 0DD1     		bne	.L207
 805:main.c        ****             {strcpy(Menus.Letra,"Programa 02");
 3803              		.loc 1 805 0
 3804 0e3e 1B4C     		ldr	r4, .L508+16
 3805 0e40 2F4B     		ldr	r3, .L508+100
 3806 0e42 07CB     		ldmia	r3!, {r0, r1, r2}
 3807 0e44 2060     		str	r0, [r4]	@ unaligned
 3808 0e46 6160     		str	r1, [r4, #4]	@ unaligned
 3809 0e48 A260     		str	r2, [r4, #8]	@ unaligned
 806:main.c        ****             displayMenu(Menus.Letra,0,27,1,1);}
 3810              		.loc 1 806 0
 3811 0e4a 0123     		movs	r3, #1
 3812 0e4c 0093     		str	r3, [sp]
 3813 0e4e 1B22     		movs	r2, #27
 3814 0e50 0021     		movs	r1, #0
 3815 0e52 2046     		mov	r0, r4
 3816 0e54 FFF7FEFF 		bl	displayMenu
 3817              	.LVL309:
 3818 0e58 0DE0     		b	.L208
 3819              	.L207:
 807:main.c        ****          else
 808:main.c        ****             {strcpy(Menus.Letra,"Programa 02");
 3820              		.loc 1 808 0
 3821 0e5a 144C     		ldr	r4, .L508+16
 3822 0e5c 284B     		ldr	r3, .L508+100
 3823 0e5e 07CB     		ldmia	r3!, {r0, r1, r2}
 3824 0e60 2060     		str	r0, [r4]	@ unaligned
 3825 0e62 6160     		str	r1, [r4, #4]	@ unaligned
 3826 0e64 A260     		str	r2, [r4, #8]	@ unaligned
 809:main.c        ****             displayMenu(Menus.Letra,0,27,0,1);}
 3827              		.loc 1 809 0
 3828 0e66 0123     		movs	r3, #1
 3829 0e68 0093     		str	r3, [sp]
 3830 0e6a 0023     		movs	r3, #0
 3831 0e6c 1B22     		movs	r2, #27
 3832 0e6e 1946     		mov	r1, r3
 3833 0e70 2046     		mov	r0, r4
 3834 0e72 FFF7FEFF 		bl	displayMenu
 3835              	.LVL310:
 3836              	.L208:
 810:main.c        ****             
 811:main.c        ****          if(Opcion==3)   
 3837              		.loc 1 811 0
ARM GAS  C:\Users\USUARIO\AppData\Local\Temp\ccFzbpyv.s 			page 85


 3838 0e76 0C4B     		ldr	r3, .L508+12
 3839 0e78 1B78     		ldrb	r3, [r3]	@ zero_extendqisi2
 3840 0e7a 032B     		cmp	r3, #3
 3841 0e7c 46D1     		bne	.L209
 812:main.c        ****             {strcpy(Menus.Letra,"Programa 03");
 3842              		.loc 1 812 0
 3843 0e7e 0B4C     		ldr	r4, .L508+16
 3844 0e80 204B     		ldr	r3, .L508+104
 3845 0e82 07CB     		ldmia	r3!, {r0, r1, r2}
 3846 0e84 2060     		str	r0, [r4]	@ unaligned
 3847 0e86 6160     		str	r1, [r4, #4]	@ unaligned
 3848 0e88 A260     		str	r2, [r4, #8]	@ unaligned
 813:main.c        ****             displayMenu(Menus.Letra,0,36,1,1);}
 3849              		.loc 1 813 0
 3850 0e8a 0123     		movs	r3, #1
 3851 0e8c 0093     		str	r3, [sp]
 3852 0e8e 2422     		movs	r2, #36
 3853 0e90 0021     		movs	r1, #0
 3854 0e92 2046     		mov	r0, r4
 3855 0e94 FFF7FEFF 		bl	displayMenu
 3856              	.LVL311:
 3857 0e98 46E0     		b	.L210
 3858              	.L509:
 3859 0e9a 00BF     		.align	2
 3860              	.L508:
 3861 0e9c 00000000 		.word	Segmentos
 3862 0ea0 00000000 		.word	i
 3863 0ea4 00000000 		.word	ProgramaSeleccionado
 3864 0ea8 00000000 		.word	Opcion
 3865 0eac 00000000 		.word	Menus
 3866 0eb0 20010000 		.word	.LC22
 3867 0eb4 00000000 		.word	visual
 3868 0eb8 00000000 		.word	Temperatura
 3869 0ebc 00000000 		.word	TempeInicial
 3870 0ec0 00000000 		.word	Coeficiente
 3871 0ec4 00000000 		.word	GananciaIn
 3872 0ec8 00000000 		.word	Ganancia
 3873 0ecc 00000000 		.word	Horas1
 3874 0ed0 00000000 		.word	Minutos1
 3875 0ed4 00000000 		.word	Tiempo
 3876 0ed8 00000000 		.word	Segmento
 3877 0edc 00000000 		.word	Temperatura1
 3878 0ee0 00000000 		.word	Pendiente
 3879 0ee4 67666666 		.word	1717986919
 3880 0ee8 00000000 		.word	.LANCHOR0
 3881 0eec 2C010000 		.word	.LC23
 3882 0ef0 38010000 		.word	.LC24
 3883 0ef4 00000000 		.word	Menu
 3884 0ef8 44010000 		.word	.LC25
 3885 0efc E4000000 		.word	.LC17
 3886 0f00 F0000000 		.word	.LC18
 3887 0f04 FC000000 		.word	.LC19
 3888 0f08 00000000 		.word	Setpoint
 3889              	.L209:
 814:main.c        ****          else
 815:main.c        ****             {strcpy(Menus.Letra,"Programa 03");
 3890              		.loc 1 815 0
ARM GAS  C:\Users\USUARIO\AppData\Local\Temp\ccFzbpyv.s 			page 86


 3891 0f0c B04C     		ldr	r4, .L510
 3892 0f0e B14B     		ldr	r3, .L510+4
 3893 0f10 07CB     		ldmia	r3!, {r0, r1, r2}
 3894 0f12 2060     		str	r0, [r4]	@ unaligned
 3895 0f14 6160     		str	r1, [r4, #4]	@ unaligned
 3896 0f16 A260     		str	r2, [r4, #8]	@ unaligned
 816:main.c        ****             displayMenu(Menus.Letra,0,36,0,1);}   
 3897              		.loc 1 816 0
 3898 0f18 0123     		movs	r3, #1
 3899 0f1a 0093     		str	r3, [sp]
 3900 0f1c 0023     		movs	r3, #0
 3901 0f1e 2422     		movs	r2, #36
 3902 0f20 1946     		mov	r1, r3
 3903 0f22 2046     		mov	r0, r4
 3904 0f24 FFF7FEFF 		bl	displayMenu
 3905              	.LVL312:
 3906              	.L210:
 817:main.c        ****                         
 818:main.c        ****          if(Opcion==4)   
 3907              		.loc 1 818 0
 3908 0f28 AB4B     		ldr	r3, .L510+8
 3909 0f2a 1B78     		ldrb	r3, [r3]	@ zero_extendqisi2
 3910 0f2c 042B     		cmp	r3, #4
 3911 0f2e 0DD1     		bne	.L211
 819:main.c        ****             {strcpy(Menus.Letra,"Programa 04");
 3912              		.loc 1 819 0
 3913 0f30 A74C     		ldr	r4, .L510
 3914 0f32 AA4B     		ldr	r3, .L510+12
 3915 0f34 07CB     		ldmia	r3!, {r0, r1, r2}
 3916 0f36 2060     		str	r0, [r4]	@ unaligned
 3917 0f38 6160     		str	r1, [r4, #4]	@ unaligned
 3918 0f3a A260     		str	r2, [r4, #8]	@ unaligned
 820:main.c        ****             displayMenu(Menus.Letra,0,45,1,1);}
 3919              		.loc 1 820 0
 3920 0f3c 0123     		movs	r3, #1
 3921 0f3e 0093     		str	r3, [sp]
 3922 0f40 2D22     		movs	r2, #45
 3923 0f42 0021     		movs	r1, #0
 3924 0f44 2046     		mov	r0, r4
 3925 0f46 FFF7FEFF 		bl	displayMenu
 3926              	.LVL313:
 3927 0f4a 0DE0     		b	.L212
 3928              	.L211:
 821:main.c        ****          else
 822:main.c        ****             {strcpy(Menus.Letra,"Programa 04");
 3929              		.loc 1 822 0
 3930 0f4c A04C     		ldr	r4, .L510
 3931 0f4e A34B     		ldr	r3, .L510+12
 3932 0f50 07CB     		ldmia	r3!, {r0, r1, r2}
 3933 0f52 2060     		str	r0, [r4]	@ unaligned
 3934 0f54 6160     		str	r1, [r4, #4]	@ unaligned
 3935 0f56 A260     		str	r2, [r4, #8]	@ unaligned
 823:main.c        ****             displayMenu(Menus.Letra,0,45,0,1);}     
 3936              		.loc 1 823 0
 3937 0f58 0123     		movs	r3, #1
 3938 0f5a 0093     		str	r3, [sp]
 3939 0f5c 0023     		movs	r3, #0
ARM GAS  C:\Users\USUARIO\AppData\Local\Temp\ccFzbpyv.s 			page 87


 3940 0f5e 2D22     		movs	r2, #45
 3941 0f60 1946     		mov	r1, r3
 3942 0f62 2046     		mov	r0, r4
 3943 0f64 FFF7FEFF 		bl	displayMenu
 3944              	.LVL314:
 3945              	.L212:
 824:main.c        ****          
 825:main.c        ****          if(Opcion==5)   
 3946              		.loc 1 825 0
 3947 0f68 9B4B     		ldr	r3, .L510+8
 3948 0f6a 1B78     		ldrb	r3, [r3]	@ zero_extendqisi2
 3949 0f6c 052B     		cmp	r3, #5
 3950 0f6e 0DD1     		bne	.L213
 826:main.c        ****             {strcpy(Menus.Letra,"Programa 05");
 3951              		.loc 1 826 0
 3952 0f70 974C     		ldr	r4, .L510
 3953 0f72 9B4B     		ldr	r3, .L510+16
 3954 0f74 07CB     		ldmia	r3!, {r0, r1, r2}
 3955 0f76 2060     		str	r0, [r4]	@ unaligned
 3956 0f78 6160     		str	r1, [r4, #4]	@ unaligned
 3957 0f7a A260     		str	r2, [r4, #8]	@ unaligned
 827:main.c        ****             displayMenu(Menus.Letra,0,54,1,1);}
 3958              		.loc 1 827 0
 3959 0f7c 0123     		movs	r3, #1
 3960 0f7e 0093     		str	r3, [sp]
 3961 0f80 3622     		movs	r2, #54
 3962 0f82 0021     		movs	r1, #0
 3963 0f84 2046     		mov	r0, r4
 3964 0f86 FFF7FEFF 		bl	displayMenu
 3965              	.LVL315:
 3966 0f8a 0DE0     		b	.L214
 3967              	.L213:
 828:main.c        ****          else
 829:main.c        ****             {strcpy(Menus.Letra,"Programa 05");
 3968              		.loc 1 829 0
 3969 0f8c 904C     		ldr	r4, .L510
 3970 0f8e 944B     		ldr	r3, .L510+16
 3971 0f90 07CB     		ldmia	r3!, {r0, r1, r2}
 3972 0f92 2060     		str	r0, [r4]	@ unaligned
 3973 0f94 6160     		str	r1, [r4, #4]	@ unaligned
 3974 0f96 A260     		str	r2, [r4, #8]	@ unaligned
 830:main.c        ****             displayMenu(Menus.Letra,0,54,0,1);}     
 3975              		.loc 1 830 0
 3976 0f98 0123     		movs	r3, #1
 3977 0f9a 0093     		str	r3, [sp]
 3978 0f9c 0023     		movs	r3, #0
 3979 0f9e 3622     		movs	r2, #54
 3980 0fa0 1946     		mov	r1, r3
 3981 0fa2 2046     		mov	r0, r4
 3982 0fa4 FFF7FEFF 		bl	displayMenu
 3983              	.LVL316:
 3984              	.L214:
 831:main.c        ****          
 832:main.c        ****          if(UP_Read()==0)//Si oprime hacia arriba
 3985              		.loc 1 832 0
 3986 0fa8 FFF7FEFF 		bl	UP_Read
 3987              	.LVL317:
ARM GAS  C:\Users\USUARIO\AppData\Local\Temp\ccFzbpyv.s 			page 88


 3988 0fac 60B9     		cbnz	r0, .L215
 833:main.c        ****          {
 834:main.c        ****             BUZZER_Write(1);CyDelay(30);Opcion--;BUZZER_Write(0);
 3989              		.loc 1 834 0
 3990 0fae 0120     		movs	r0, #1
 3991 0fb0 FFF7FEFF 		bl	BUZZER_Write
 3992              	.LVL318:
 3993 0fb4 1E20     		movs	r0, #30
 3994 0fb6 FFF7FEFF 		bl	CyDelay
 3995              	.LVL319:
 3996 0fba 874A     		ldr	r2, .L510+8
 3997 0fbc 1378     		ldrb	r3, [r2]	@ zero_extendqisi2
 3998 0fbe 013B     		subs	r3, r3, #1
 3999 0fc0 1370     		strb	r3, [r2]
 4000 0fc2 0020     		movs	r0, #0
 4001 0fc4 FFF7FEFF 		bl	BUZZER_Write
 4002              	.LVL320:
 4003              	.L215:
 835:main.c        ****          }
 836:main.c        ****                   
 837:main.c        ****          if(DOWN_Read()==0)//Si oprime hacia abajo
 4004              		.loc 1 837 0
 4005 0fc8 FFF7FEFF 		bl	DOWN_Read
 4006              	.LVL321:
 4007 0fcc 60B9     		cbnz	r0, .L216
 838:main.c        ****          {
 839:main.c        ****             BUZZER_Write(1);CyDelay(30);Opcion++; BUZZER_Write(0);
 4008              		.loc 1 839 0
 4009 0fce 0120     		movs	r0, #1
 4010 0fd0 FFF7FEFF 		bl	BUZZER_Write
 4011              	.LVL322:
 4012 0fd4 1E20     		movs	r0, #30
 4013 0fd6 FFF7FEFF 		bl	CyDelay
 4014              	.LVL323:
 4015 0fda 7F4A     		ldr	r2, .L510+8
 4016 0fdc 1378     		ldrb	r3, [r2]	@ zero_extendqisi2
 4017 0fde 0133     		adds	r3, r3, #1
 4018 0fe0 1370     		strb	r3, [r2]
 4019 0fe2 0020     		movs	r0, #0
 4020 0fe4 FFF7FEFF 		bl	BUZZER_Write
 4021              	.LVL324:
 4022              	.L216:
 840:main.c        ****          }
 841:main.c        ****                
 842:main.c        ****          if(RIGHT_Read()==0)//Si oprime SET
 4023              		.loc 1 842 0
 4024 0fe8 FFF7FEFF 		bl	RIGHT_Read
 4025              	.LVL325:
 4026 0fec A8B9     		cbnz	r0, .L217
 843:main.c        ****          { 
 844:main.c        ****             BUZZER_Write(1);CyDelay(50);Menu=Opcion+10;Opcion=1;glcd_fillScreen(OFF);BUZZER_Write(0
 4027              		.loc 1 844 0
 4028 0fee 0120     		movs	r0, #1
 4029 0ff0 FFF7FEFF 		bl	BUZZER_Write
 4030              	.LVL326:
 4031 0ff4 3220     		movs	r0, #50
 4032 0ff6 FFF7FEFF 		bl	CyDelay
ARM GAS  C:\Users\USUARIO\AppData\Local\Temp\ccFzbpyv.s 			page 89


 4033              	.LVL327:
 4034 0ffa 774A     		ldr	r2, .L510+8
 4035 0ffc 1378     		ldrb	r3, [r2]	@ zero_extendqisi2
 4036 0ffe 0A33     		adds	r3, r3, #10
 4037 1000 7849     		ldr	r1, .L510+20
 4038 1002 0B70     		strb	r3, [r1]
 4039 1004 0123     		movs	r3, #1
 4040 1006 1370     		strb	r3, [r2]
 4041 1008 0020     		movs	r0, #0
 4042 100a FFF7FEFF 		bl	glcd_fillScreen
 4043              	.LVL328:
 4044 100e 0020     		movs	r0, #0
 4045 1010 FFF7FEFF 		bl	BUZZER_Write
 4046              	.LVL329:
 4047 1014 0022     		movs	r2, #0
 4048 1016 744B     		ldr	r3, .L510+24
 4049 1018 1A70     		strb	r2, [r3]
 4050              	.L217:
 845:main.c        ****          }
 846:main.c        ****          
 847:main.c        ****          if(LEFT_Read()==0){
 4051              		.loc 1 847 0
 4052 101a FFF7FEFF 		bl	LEFT_Read
 4053              	.LVL330:
 4054 101e 80B9     		cbnz	r0, .L202
 848:main.c        ****             BUZZER_Write(1);CyDelay(50);Menu=1;Opcion=1;glcd_fillScreen(OFF);BUZZER_Write(0);
 4055              		.loc 1 848 0
 4056 1020 0120     		movs	r0, #1
 4057 1022 FFF7FEFF 		bl	BUZZER_Write
 4058              	.LVL331:
 4059 1026 3220     		movs	r0, #50
 4060 1028 FFF7FEFF 		bl	CyDelay
 4061              	.LVL332:
 4062 102c 0123     		movs	r3, #1
 4063 102e 6D4A     		ldr	r2, .L510+20
 4064 1030 1370     		strb	r3, [r2]
 4065 1032 694A     		ldr	r2, .L510+8
 4066 1034 1370     		strb	r3, [r2]
 4067 1036 0020     		movs	r0, #0
 4068 1038 FFF7FEFF 		bl	glcd_fillScreen
 4069              	.LVL333:
 4070 103c 0020     		movs	r0, #0
 4071 103e FFF7FEFF 		bl	BUZZER_Write
 4072              	.LVL334:
 4073              	.L202:
 849:main.c        ****          }
 850:main.c        ****    }
 851:main.c        **** //_------------------------------------------------------------------------------------------------
 852:main.c        **** 
 853:main.c        **** //_------------------------------------------------------------------------------------------------
 854:main.c        ****       if(Menu==6){ //Menu de Borrar Programa
 4074              		.loc 1 854 0
 4075 1042 684B     		ldr	r3, .L510+20
 4076 1044 1B78     		ldrb	r3, [r3]	@ zero_extendqisi2
 4077 1046 062B     		cmp	r3, #6
 4078 1048 40F08081 		bne	.L218
 855:main.c        ****       
ARM GAS  C:\Users\USUARIO\AppData\Local\Temp\ccFzbpyv.s 			page 90


 856:main.c        ****       if(Opcion>5)
 4079              		.loc 1 856 0
 4080 104c 624B     		ldr	r3, .L510+8
 4081 104e 1B78     		ldrb	r3, [r3]	@ zero_extendqisi2
 4082 1050 052B     		cmp	r3, #5
 4083 1052 02D9     		bls	.L219
 857:main.c        ****          Opcion=1;
 4084              		.loc 1 857 0
 4085 1054 0122     		movs	r2, #1
 4086 1056 604B     		ldr	r3, .L510+8
 4087 1058 1A70     		strb	r2, [r3]
 4088              	.L219:
 858:main.c        ****          
 859:main.c        ****       if(Opcion<1)
 4089              		.loc 1 859 0
 4090 105a 5F4B     		ldr	r3, .L510+8
 4091 105c 1B78     		ldrb	r3, [r3]	@ zero_extendqisi2
 4092 105e 13B9     		cbnz	r3, .L220
 860:main.c        ****          Opcion=5;
 4093              		.loc 1 860 0
 4094 1060 0522     		movs	r2, #5
 4095 1062 5D4B     		ldr	r3, .L510+8
 4096 1064 1A70     		strb	r2, [r3]
 4097              	.L220:
 861:main.c        ****       
 862:main.c        ****          strcpy(Menus.Letra,"  Elimine");
 4098              		.loc 1 862 0
 4099 1066 5A4C     		ldr	r4, .L510
 4100 1068 604B     		ldr	r3, .L510+28
 4101 106a 03CB     		ldmia	r3!, {r0, r1}
 4102 106c 2060     		str	r0, [r4]	@ unaligned
 4103 106e 6160     		str	r1, [r4, #4]	@ unaligned
 4104 1070 1B88     		ldrh	r3, [r3]	@ unaligned
 4105 1072 2381     		strh	r3, [r4, #8]	@ unaligned
 863:main.c        ****          displayMenu(Menus.Letra,0,0,1,2);
 4106              		.loc 1 863 0
 4107 1074 0225     		movs	r5, #2
 4108 1076 0095     		str	r5, [sp]
 4109 1078 0123     		movs	r3, #1
 4110 107a 0022     		movs	r2, #0
 4111 107c 1146     		mov	r1, r2
 4112 107e 2046     		mov	r0, r4
 4113 1080 FFF7FEFF 		bl	displayMenu
 4114              	.LVL335:
 864:main.c        ****          
 865:main.c        ****          strcpy(Menus.Letra," Programa");
 4115              		.loc 1 865 0
 4116 1084 5A4B     		ldr	r3, .L510+32
 4117 1086 03CB     		ldmia	r3!, {r0, r1}
 4118 1088 2060     		str	r0, [r4]	@ unaligned
 4119 108a 6160     		str	r1, [r4, #4]	@ unaligned
 4120 108c 1B88     		ldrh	r3, [r3]	@ unaligned
 4121 108e 2381     		strh	r3, [r4, #8]	@ unaligned
 866:main.c        ****          displayMenu(Menus.Letra,0,16,1,2);
 4122              		.loc 1 866 0
 4123 1090 0095     		str	r5, [sp]
 4124 1092 0123     		movs	r3, #1
ARM GAS  C:\Users\USUARIO\AppData\Local\Temp\ccFzbpyv.s 			page 91


 4125 1094 1022     		movs	r2, #16
 4126 1096 0021     		movs	r1, #0
 4127 1098 2046     		mov	r0, r4
 4128 109a FFF7FEFF 		bl	displayMenu
 4129              	.LVL336:
 867:main.c        ****           
 868:main.c        ****          
 869:main.c        ****          if(Opcion==1)
 4130              		.loc 1 869 0
 4131 109e 4E4B     		ldr	r3, .L510+8
 4132 10a0 1B78     		ldrb	r3, [r3]	@ zero_extendqisi2
 4133 10a2 012B     		cmp	r3, #1
 4134 10a4 0BD1     		bne	.L221
 870:main.c        ****          {
 871:main.c        ****             strcpy(Menus.Letra,"Programa 01");
 4135              		.loc 1 871 0
 4136 10a6 534B     		ldr	r3, .L510+36
 4137 10a8 07CB     		ldmia	r3!, {r0, r1, r2}
 4138 10aa 2060     		str	r0, [r4]	@ unaligned
 4139 10ac 6160     		str	r1, [r4, #4]	@ unaligned
 4140 10ae A260     		str	r2, [r4, #8]	@ unaligned
 872:main.c        ****             displayMenu(Menus.Letra,0,38,0,2);
 4141              		.loc 1 872 0
 4142 10b0 0095     		str	r5, [sp]
 4143 10b2 0023     		movs	r3, #0
 4144 10b4 2622     		movs	r2, #38
 4145 10b6 1946     		mov	r1, r3
 4146 10b8 2046     		mov	r0, r4
 4147 10ba FFF7FEFF 		bl	displayMenu
 4148              	.LVL337:
 4149              	.L221:
 873:main.c        ****          }
 874:main.c        ****          
 875:main.c        ****          if(Opcion==2)
 4150              		.loc 1 875 0
 4151 10be 464B     		ldr	r3, .L510+8
 4152 10c0 1B78     		ldrb	r3, [r3]	@ zero_extendqisi2
 4153 10c2 022B     		cmp	r3, #2
 4154 10c4 0DD1     		bne	.L222
 876:main.c        ****          {
 877:main.c        ****             strcpy(Menus.Letra,"Programa 02");
 4155              		.loc 1 877 0
 4156 10c6 424C     		ldr	r4, .L510
 4157 10c8 4B4B     		ldr	r3, .L510+40
 4158 10ca 07CB     		ldmia	r3!, {r0, r1, r2}
 4159 10cc 2060     		str	r0, [r4]	@ unaligned
 4160 10ce 6160     		str	r1, [r4, #4]	@ unaligned
 4161 10d0 A260     		str	r2, [r4, #8]	@ unaligned
 878:main.c        ****             displayMenu(Menus.Letra,0,38,0,2);
 4162              		.loc 1 878 0
 4163 10d2 0223     		movs	r3, #2
 4164 10d4 0093     		str	r3, [sp]
 4165 10d6 0023     		movs	r3, #0
 4166 10d8 2622     		movs	r2, #38
 4167 10da 1946     		mov	r1, r3
 4168 10dc 2046     		mov	r0, r4
 4169 10de FFF7FEFF 		bl	displayMenu
ARM GAS  C:\Users\USUARIO\AppData\Local\Temp\ccFzbpyv.s 			page 92


 4170              	.LVL338:
 4171              	.L222:
 879:main.c        ****          }
 880:main.c        ****          
 881:main.c        ****          if(Opcion==3)
 4172              		.loc 1 881 0
 4173 10e2 3D4B     		ldr	r3, .L510+8
 4174 10e4 1B78     		ldrb	r3, [r3]	@ zero_extendqisi2
 4175 10e6 032B     		cmp	r3, #3
 4176 10e8 0DD1     		bne	.L223
 882:main.c        ****          {
 883:main.c        ****             strcpy(Menus.Letra,"Programa 03");
 4177              		.loc 1 883 0
 4178 10ea 394C     		ldr	r4, .L510
 4179 10ec 394B     		ldr	r3, .L510+4
 4180 10ee 07CB     		ldmia	r3!, {r0, r1, r2}
 4181 10f0 2060     		str	r0, [r4]	@ unaligned
 4182 10f2 6160     		str	r1, [r4, #4]	@ unaligned
 4183 10f4 A260     		str	r2, [r4, #8]	@ unaligned
 884:main.c        ****             displayMenu(Menus.Letra,0,38,0,2);
 4184              		.loc 1 884 0
 4185 10f6 0223     		movs	r3, #2
 4186 10f8 0093     		str	r3, [sp]
 4187 10fa 0023     		movs	r3, #0
 4188 10fc 2622     		movs	r2, #38
 4189 10fe 1946     		mov	r1, r3
 4190 1100 2046     		mov	r0, r4
 4191 1102 FFF7FEFF 		bl	displayMenu
 4192              	.LVL339:
 4193              	.L223:
 885:main.c        ****          }
 886:main.c        ****          
 887:main.c        ****          if(Opcion==4)
 4194              		.loc 1 887 0
 4195 1106 344B     		ldr	r3, .L510+8
 4196 1108 1B78     		ldrb	r3, [r3]	@ zero_extendqisi2
 4197 110a 042B     		cmp	r3, #4
 4198 110c 0DD1     		bne	.L224
 888:main.c        ****          {
 889:main.c        ****             strcpy(Menus.Letra,"Programa 04");
 4199              		.loc 1 889 0
 4200 110e 304C     		ldr	r4, .L510
 4201 1110 324B     		ldr	r3, .L510+12
 4202 1112 07CB     		ldmia	r3!, {r0, r1, r2}
 4203 1114 2060     		str	r0, [r4]	@ unaligned
 4204 1116 6160     		str	r1, [r4, #4]	@ unaligned
 4205 1118 A260     		str	r2, [r4, #8]	@ unaligned
 890:main.c        ****             displayMenu(Menus.Letra,0,38,0,2);
 4206              		.loc 1 890 0
 4207 111a 0223     		movs	r3, #2
 4208 111c 0093     		str	r3, [sp]
 4209 111e 0023     		movs	r3, #0
 4210 1120 2622     		movs	r2, #38
 4211 1122 1946     		mov	r1, r3
 4212 1124 2046     		mov	r0, r4
 4213 1126 FFF7FEFF 		bl	displayMenu
 4214              	.LVL340:
ARM GAS  C:\Users\USUARIO\AppData\Local\Temp\ccFzbpyv.s 			page 93


 4215              	.L224:
 891:main.c        ****          }
 892:main.c        ****          
 893:main.c        ****          if(Opcion==5)
 4216              		.loc 1 893 0
 4217 112a 2B4B     		ldr	r3, .L510+8
 4218 112c 1B78     		ldrb	r3, [r3]	@ zero_extendqisi2
 4219 112e 052B     		cmp	r3, #5
 4220 1130 0DD1     		bne	.L225
 894:main.c        ****          {
 895:main.c        ****             strcpy(Menus.Letra,"Programa 05");
 4221              		.loc 1 895 0
 4222 1132 274C     		ldr	r4, .L510
 4223 1134 2A4B     		ldr	r3, .L510+16
 4224 1136 07CB     		ldmia	r3!, {r0, r1, r2}
 4225 1138 2060     		str	r0, [r4]	@ unaligned
 4226 113a 6160     		str	r1, [r4, #4]	@ unaligned
 4227 113c A260     		str	r2, [r4, #8]	@ unaligned
 896:main.c        ****             displayMenu(Menus.Letra,0,38,0,2);
 4228              		.loc 1 896 0
 4229 113e 0223     		movs	r3, #2
 4230 1140 0093     		str	r3, [sp]
 4231 1142 0023     		movs	r3, #0
 4232 1144 2622     		movs	r2, #38
 4233 1146 1946     		mov	r1, r3
 4234 1148 2046     		mov	r0, r4
 4235 114a FFF7FEFF 		bl	displayMenu
 4236              	.LVL341:
 4237              	.L225:
 897:main.c        ****          }
 898:main.c        ****          
 899:main.c        ****         
 900:main.c        ****       if(UP_Read()==0)//Si oprime hacia arriba
 4238              		.loc 1 900 0
 4239 114e FFF7FEFF 		bl	UP_Read
 4240              	.LVL342:
 4241 1152 B0B9     		cbnz	r0, .L226
 901:main.c        ****       {
 902:main.c        ****          BUZZER_Write(1);CyDelay(30);Opcion++;BUZZER_Write(0);
 4242              		.loc 1 902 0
 4243 1154 0120     		movs	r0, #1
 4244 1156 FFF7FEFF 		bl	BUZZER_Write
 4245              	.LVL343:
 4246 115a 1E20     		movs	r0, #30
 4247 115c FFF7FEFF 		bl	CyDelay
 4248              	.LVL344:
 4249 1160 1D4A     		ldr	r2, .L510+8
 4250 1162 1378     		ldrb	r3, [r2]	@ zero_extendqisi2
 4251 1164 0133     		adds	r3, r3, #1
 4252 1166 1370     		strb	r3, [r2]
 4253 1168 0020     		movs	r0, #0
 4254 116a FFF7FEFF 		bl	BUZZER_Write
 4255              	.LVL345:
 903:main.c        ****          glcd_rect(40, 35, 85, 60, YES, OFF);
 4256              		.loc 1 903 0
 4257 116e 0023     		movs	r3, #0
 4258 1170 0193     		str	r3, [sp, #4]
ARM GAS  C:\Users\USUARIO\AppData\Local\Temp\ccFzbpyv.s 			page 94


 4259 1172 0123     		movs	r3, #1
 4260 1174 0093     		str	r3, [sp]
 4261 1176 3C23     		movs	r3, #60
 4262 1178 5522     		movs	r2, #85
 4263 117a 2321     		movs	r1, #35
 4264 117c 2820     		movs	r0, #40
 4265 117e FFF7FEFF 		bl	glcd_rect
 4266              	.LVL346:
 4267              	.L226:
 904:main.c        ****       }
 905:main.c        ****             
 906:main.c        ****       if(DOWN_Read()==0)//Si oprime hacia abajo
 4268              		.loc 1 906 0
 4269 1182 FFF7FEFF 		bl	DOWN_Read
 4270              	.LVL347:
 4271 1186 B0B9     		cbnz	r0, .L227
 907:main.c        ****       {  
 908:main.c        ****          BUZZER_Write(1);CyDelay(30);Opcion--;BUZZER_Write(0);
 4272              		.loc 1 908 0
 4273 1188 0120     		movs	r0, #1
 4274 118a FFF7FEFF 		bl	BUZZER_Write
 4275              	.LVL348:
 4276 118e 1E20     		movs	r0, #30
 4277 1190 FFF7FEFF 		bl	CyDelay
 4278              	.LVL349:
 4279 1194 104A     		ldr	r2, .L510+8
 4280 1196 1378     		ldrb	r3, [r2]	@ zero_extendqisi2
 4281 1198 013B     		subs	r3, r3, #1
 4282 119a 1370     		strb	r3, [r2]
 4283 119c 0020     		movs	r0, #0
 4284 119e FFF7FEFF 		bl	BUZZER_Write
 4285              	.LVL350:
 909:main.c        ****          glcd_rect(40, 35, 85, 60, YES, OFF);
 4286              		.loc 1 909 0
 4287 11a2 0023     		movs	r3, #0
 4288 11a4 0193     		str	r3, [sp, #4]
 4289 11a6 0123     		movs	r3, #1
 4290 11a8 0093     		str	r3, [sp]
 4291 11aa 3C23     		movs	r3, #60
 4292 11ac 5522     		movs	r2, #85
 4293 11ae 2321     		movs	r1, #35
 4294 11b0 2820     		movs	r0, #40
 4295 11b2 FFF7FEFF 		bl	glcd_rect
 4296              	.LVL351:
 4297              	.L227:
 910:main.c        ****       }
 911:main.c        ****             
 912:main.c        ****       if(RIGHT_Read()==0)//Si oprime SET
 4298              		.loc 1 912 0
 4299 11b6 FFF7FEFF 		bl	RIGHT_Read
 4300              	.LVL352:
 4301 11ba 0028     		cmp	r0, #0
 4302 11bc 40F0AE80 		bne	.L228
 913:main.c        ****       {  
 914:main.c        ****          BUZZER_Write(1);
 4303              		.loc 1 914 0
 4304 11c0 0120     		movs	r0, #1
ARM GAS  C:\Users\USUARIO\AppData\Local\Temp\ccFzbpyv.s 			page 95


 4305 11c2 FFF7FEFF 		bl	BUZZER_Write
 4306              	.LVL353:
 915:main.c        ****          for(i=0;i<Pasos;i++){
 4307              		.loc 1 915 0
 4308 11c6 0022     		movs	r2, #0
 4309 11c8 074B     		ldr	r3, .L510+24
 4310 11ca 1A70     		strb	r2, [r3]
 4311 11cc 28E0     		b	.L229
 4312              	.L511:
 4313 11ce 00BF     		.align	2
 4314              	.L510:
 4315 11d0 00000000 		.word	Menus
 4316 11d4 FC000000 		.word	.LC19
 4317 11d8 00000000 		.word	Opcion
 4318 11dc 08010000 		.word	.LC20
 4319 11e0 14010000 		.word	.LC21
 4320 11e4 00000000 		.word	Menu
 4321 11e8 00000000 		.word	i
 4322 11ec 4C010000 		.word	.LC26
 4323 11f0 D8000000 		.word	.LC16
 4324 11f4 E4000000 		.word	.LC17
 4325 11f8 F0000000 		.word	.LC18
 4326              	.L230:
 916:main.c        ****             Temperatura1[i+((Opcion-1)*Pasos)]=0;
 4327              		.loc 1 916 0 discriminator 3
 4328 11fc B44B     		ldr	r3, .L512
 4329 11fe 1B78     		ldrb	r3, [r3]	@ zero_extendqisi2
 4330 1200 013B     		subs	r3, r3, #1
 4331 1202 02EB0313 		add	r3, r2, r3, lsl #4
 4332 1206 0021     		movs	r1, #0
 4333 1208 B248     		ldr	r0, .L512+4
 4334 120a 20F81310 		strh	r1, [r0, r3, lsl #1]	@ movhi
 917:main.c        ****             Horas1[i+((Opcion-1)*Pasos)]=0;
 4335              		.loc 1 917 0 discriminator 3
 4336 120e B248     		ldr	r0, .L512+8
 4337 1210 20F81310 		strh	r1, [r0, r3, lsl #1]	@ movhi
 918:main.c        ****             Minutos1[i+((Opcion-1)*Pasos)]=0;
 4338              		.loc 1 918 0 discriminator 3
 4339 1214 B148     		ldr	r0, .L512+12
 4340 1216 20F81310 		strh	r1, [r0, r3, lsl #1]	@ movhi
 915:main.c        ****             Temperatura1[i+((Opcion-1)*Pasos)]=0;
 4341              		.loc 1 915 0 discriminator 3
 4342 121a 0132     		adds	r2, r2, #1
 4343 121c B04B     		ldr	r3, .L512+16
 4344 121e 1A70     		strb	r2, [r3]
 4345              	.L229:
 915:main.c        ****             Temperatura1[i+((Opcion-1)*Pasos)]=0;
 4346              		.loc 1 915 0 is_stmt 0 discriminator 1
 4347 1220 AF4B     		ldr	r3, .L512+16
 4348 1222 1A78     		ldrb	r2, [r3]	@ zero_extendqisi2
 4349 1224 0F2A     		cmp	r2, #15
 4350 1226 E9D9     		bls	.L230
 919:main.c        ****          }
 920:main.c        ****          
 921:main.c        ****          for(i=0;i<Pasos;i++){
 4351              		.loc 1 921 0 is_stmt 1
 4352 1228 0022     		movs	r2, #0
ARM GAS  C:\Users\USUARIO\AppData\Local\Temp\ccFzbpyv.s 			page 96


 4353 122a 1A70     		strb	r2, [r3]
 4354 122c 37E0     		b	.L231
 4355              	.L232:
 922:main.c        ****             CyDelay(10);    
 4356              		.loc 1 922 0 discriminator 3
 4357 122e 0A20     		movs	r0, #10
 4358 1230 FFF7FEFF 		bl	CyDelay
 4359              	.LVL354:
 923:main.c        ****             EEPROM_WriteByte(0,(i*2)+((Pasos*4)*(Opcion-1)));
 4360              		.loc 1 923 0 discriminator 3
 4361 1234 A64D     		ldr	r5, .L512
 4362 1236 2978     		ldrb	r1, [r5]	@ zero_extendqisi2
 4363 1238 0139     		subs	r1, r1, #1
 4364 123a A94C     		ldr	r4, .L512+16
 4365 123c 2378     		ldrb	r3, [r4]	@ zero_extendqisi2
 4366 123e 03EB4111 		add	r1, r3, r1, lsl #5
 4367 1242 4900     		lsls	r1, r1, #1
 4368 1244 89B2     		uxth	r1, r1
 4369 1246 0020     		movs	r0, #0
 4370 1248 FFF7FEFF 		bl	EEPROM_WriteByte
 4371              	.LVL355:
 924:main.c        ****             CyDelay(10);    
 4372              		.loc 1 924 0 discriminator 3
 4373 124c 0A20     		movs	r0, #10
 4374 124e FFF7FEFF 		bl	CyDelay
 4375              	.LVL356:
 925:main.c        ****             EEPROM_WriteByte(0,(i*2)+1+((Pasos*4)*(Opcion-1)));
 4376              		.loc 1 925 0 discriminator 3
 4377 1252 2978     		ldrb	r1, [r5]	@ zero_extendqisi2
 4378 1254 0139     		subs	r1, r1, #1
 4379 1256 2378     		ldrb	r3, [r4]	@ zero_extendqisi2
 4380 1258 03EB4111 		add	r1, r3, r1, lsl #5
 4381 125c 4900     		lsls	r1, r1, #1
 4382 125e 0131     		adds	r1, r1, #1
 4383 1260 89B2     		uxth	r1, r1
 4384 1262 0020     		movs	r0, #0
 4385 1264 FFF7FEFF 		bl	EEPROM_WriteByte
 4386              	.LVL357:
 926:main.c        ****             CyDelay(10);    
 4387              		.loc 1 926 0 discriminator 3
 4388 1268 0A20     		movs	r0, #10
 4389 126a FFF7FEFF 		bl	CyDelay
 4390              	.LVL358:
 927:main.c        ****             EEPROM_WriteByte(0,i+(((Pasos*4)*Opcion)-(Pasos*2)));
 4391              		.loc 1 927 0 discriminator 3
 4392 126e 2978     		ldrb	r1, [r5]	@ zero_extendqisi2
 4393 1270 2378     		ldrb	r3, [r4]	@ zero_extendqisi2
 4394 1272 03EB8111 		add	r1, r3, r1, lsl #6
 4395 1276 2039     		subs	r1, r1, #32
 4396 1278 89B2     		uxth	r1, r1
 4397 127a 0020     		movs	r0, #0
 4398 127c FFF7FEFF 		bl	EEPROM_WriteByte
 4399              	.LVL359:
 928:main.c        ****             CyDelay(10);    
 4400              		.loc 1 928 0 discriminator 3
 4401 1280 0A20     		movs	r0, #10
 4402 1282 FFF7FEFF 		bl	CyDelay
ARM GAS  C:\Users\USUARIO\AppData\Local\Temp\ccFzbpyv.s 			page 97


 4403              	.LVL360:
 929:main.c        ****             EEPROM_WriteByte(0,i+(((Pasos*4)*Opcion)-Pasos));
 4404              		.loc 1 929 0 discriminator 3
 4405 1286 2978     		ldrb	r1, [r5]	@ zero_extendqisi2
 4406 1288 2378     		ldrb	r3, [r4]	@ zero_extendqisi2
 4407 128a 03EB8111 		add	r1, r3, r1, lsl #6
 4408 128e 1039     		subs	r1, r1, #16
 4409 1290 89B2     		uxth	r1, r1
 4410 1292 0020     		movs	r0, #0
 4411 1294 FFF7FEFF 		bl	EEPROM_WriteByte
 4412              	.LVL361:
 921:main.c        ****             CyDelay(10);    
 4413              		.loc 1 921 0 discriminator 3
 4414 1298 2378     		ldrb	r3, [r4]	@ zero_extendqisi2
 4415 129a 0133     		adds	r3, r3, #1
 4416 129c 2370     		strb	r3, [r4]
 4417              	.L231:
 921:main.c        ****             CyDelay(10);    
 4418              		.loc 1 921 0 is_stmt 0 discriminator 1
 4419 129e 904B     		ldr	r3, .L512+16
 4420 12a0 1B78     		ldrb	r3, [r3]	@ zero_extendqisi2
 4421 12a2 0F2B     		cmp	r3, #15
 4422 12a4 C3D9     		bls	.L232
 930:main.c        ****          } 
 931:main.c        ****          
 932:main.c        ****          CyDelay(200);BUZZER_Write(0);Menu=1;glcd_fillScreen(OFF);Opcion=1;visual=1;
 4423              		.loc 1 932 0 is_stmt 1
 4424 12a6 C820     		movs	r0, #200
 4425 12a8 FFF7FEFF 		bl	CyDelay
 4426              	.LVL362:
 4427 12ac 0020     		movs	r0, #0
 4428 12ae FFF7FEFF 		bl	BUZZER_Write
 4429              	.LVL363:
 4430 12b2 8C4E     		ldr	r6, .L512+20
 4431 12b4 0125     		movs	r5, #1
 4432 12b6 3570     		strb	r5, [r6]
 4433 12b8 0020     		movs	r0, #0
 4434 12ba FFF7FEFF 		bl	glcd_fillScreen
 4435              	.LVL364:
 4436 12be 844B     		ldr	r3, .L512
 4437 12c0 1D70     		strb	r5, [r3]
 4438 12c2 894B     		ldr	r3, .L512+24
 4439 12c4 1D80     		strh	r5, [r3]	@ movhi
 933:main.c        ****          glcd_fillScreen(OFF);
 4440              		.loc 1 933 0
 4441 12c6 0020     		movs	r0, #0
 4442 12c8 FFF7FEFF 		bl	glcd_fillScreen
 4443              	.LVL365:
 934:main.c        ****          strcpy(Menus.Letra,"Programa");
 4444              		.loc 1 934 0
 4445 12cc 874C     		ldr	r4, .L512+28
 4446 12ce 884B     		ldr	r3, .L512+32
 4447 12d0 03CB     		ldmia	r3!, {r0, r1}
 4448 12d2 2060     		str	r0, [r4]	@ unaligned
 4449 12d4 6160     		str	r1, [r4, #4]	@ unaligned
 4450 12d6 1B78     		ldrb	r3, [r3]	@ zero_extendqisi2
 4451 12d8 2372     		strb	r3, [r4, #8]
ARM GAS  C:\Users\USUARIO\AppData\Local\Temp\ccFzbpyv.s 			page 98


 935:main.c        ****          displayMenu(Menus.Letra,15,0,0,2);
 4452              		.loc 1 935 0
 4453 12da 0227     		movs	r7, #2
 4454 12dc 0097     		str	r7, [sp]
 4455 12de 0023     		movs	r3, #0
 4456 12e0 1A46     		mov	r2, r3
 4457 12e2 0F21     		movs	r1, #15
 4458 12e4 2046     		mov	r0, r4
 4459 12e6 FFF7FEFF 		bl	displayMenu
 4460              	.LVL366:
 936:main.c        ****          strcpy(Menus.Letra,"Eliminado");
 4461              		.loc 1 936 0
 4462 12ea 824B     		ldr	r3, .L512+36
 4463 12ec 03CB     		ldmia	r3!, {r0, r1}
 4464 12ee 2060     		str	r0, [r4]	@ unaligned
 4465 12f0 6160     		str	r1, [r4, #4]	@ unaligned
 4466 12f2 1B88     		ldrh	r3, [r3]	@ unaligned
 4467 12f4 2381     		strh	r3, [r4, #8]	@ unaligned
 937:main.c        ****          displayMenu(Menus.Letra,15,30,0,2);
 4468              		.loc 1 937 0
 4469 12f6 0097     		str	r7, [sp]
 4470 12f8 0023     		movs	r3, #0
 4471 12fa 1E22     		movs	r2, #30
 4472 12fc 0F21     		movs	r1, #15
 4473 12fe 2046     		mov	r0, r4
 4474 1300 FFF7FEFF 		bl	displayMenu
 4475              	.LVL367:
 938:main.c        ****          Menu=1;glcd_update();CyDelay(1000);
 4476              		.loc 1 938 0
 4477 1304 3570     		strb	r5, [r6]
 4478 1306 FFF7FEFF 		bl	glcd_update
 4479              	.LVL368:
 4480 130a 4FF47A70 		mov	r0, #1000
 4481 130e FFF7FEFF 		bl	CyDelay
 4482              	.LVL369:
 939:main.c        ****          glcd_fillScreen(OFF);unidad=1;
 4483              		.loc 1 939 0
 4484 1312 0020     		movs	r0, #0
 4485 1314 FFF7FEFF 		bl	glcd_fillScreen
 4486              	.LVL370:
 4487 1318 774B     		ldr	r3, .L512+40
 4488 131a 1D70     		strb	r5, [r3]
 4489              	.L228:
 940:main.c        ****       } 
 941:main.c        ****                   
 942:main.c        ****       if(LEFT_Read()==0)//Si oprime boton de Toma.
 4490              		.loc 1 942 0
 4491 131c FFF7FEFF 		bl	LEFT_Read
 4492              	.LVL371:
 4493 1320 A0B9     		cbnz	r0, .L218
 943:main.c        ****       {
 944:main.c        ****          BUZZER_Write(1);Opcion=1;BUZZER_Write(0);CyDelay(500);Menu=1;glcd_fillScreen(OFF);Opcion=1
 4494              		.loc 1 944 0
 4495 1322 0120     		movs	r0, #1
 4496 1324 FFF7FEFF 		bl	BUZZER_Write
 4497              	.LVL372:
 4498 1328 694D     		ldr	r5, .L512
ARM GAS  C:\Users\USUARIO\AppData\Local\Temp\ccFzbpyv.s 			page 99


 4499 132a 0124     		movs	r4, #1
 4500 132c 2C70     		strb	r4, [r5]
 4501 132e 0020     		movs	r0, #0
 4502 1330 FFF7FEFF 		bl	BUZZER_Write
 4503              	.LVL373:
 4504 1334 4FF4FA70 		mov	r0, #500
 4505 1338 FFF7FEFF 		bl	CyDelay
 4506              	.LVL374:
 4507 133c 694B     		ldr	r3, .L512+20
 4508 133e 1C70     		strb	r4, [r3]
 4509 1340 0020     		movs	r0, #0
 4510 1342 FFF7FEFF 		bl	glcd_fillScreen
 4511              	.LVL375:
 4512 1346 2C70     		strb	r4, [r5]
 4513 1348 674B     		ldr	r3, .L512+24
 4514 134a 1C80     		strh	r4, [r3]	@ movhi
 4515              	.L218:
 945:main.c        ****       } 
 946:main.c        ****     }
 947:main.c        **** //_------------------------------------------------------------------------------------------------
 948:main.c        **** 
 949:main.c        **** //_------------------------------------------------------------------------------------------------
 950:main.c        ****       if(Menu==8){ // Menu de Cambio de Contraseña
 4516              		.loc 1 950 0
 4517 134c 654B     		ldr	r3, .L512+20
 4518 134e 1B78     		ldrb	r3, [r3]	@ zero_extendqisi2
 4519 1350 082B     		cmp	r3, #8
 4520 1352 40F0A381 		bne	.L233
 951:main.c        ****         
 952:main.c        ****       strcpy(Menus.Letra,"Clave");
 4521              		.loc 1 952 0
 4522 1356 654C     		ldr	r4, .L512+28
 4523 1358 684B     		ldr	r3, .L512+44
 4524 135a 1868     		ldr	r0, [r3]	@ unaligned
 4525 135c 2060     		str	r0, [r4]	@ unaligned
 4526 135e 9B88     		ldrh	r3, [r3, #4]	@ unaligned
 4527 1360 A380     		strh	r3, [r4, #4]	@ unaligned
 953:main.c        ****       displayMenu(Menus.Letra,30,0,1,2);     
 4528              		.loc 1 953 0
 4529 1362 0223     		movs	r3, #2
 4530 1364 0093     		str	r3, [sp]
 4531 1366 0123     		movs	r3, #1
 4532 1368 0022     		movs	r2, #0
 4533 136a 1E21     		movs	r1, #30
 4534 136c 2046     		mov	r0, r4
 4535 136e FFF7FEFF 		bl	displayMenu
 4536              	.LVL376:
 954:main.c        ****       
 955:main.c        ****       if(unidad==1)
 4537              		.loc 1 955 0
 4538 1372 614B     		ldr	r3, .L512+40
 4539 1374 1B78     		ldrb	r3, [r3]	@ zero_extendqisi2
 4540 1376 012B     		cmp	r3, #1
 4541 1378 18D1     		bne	.L234
 956:main.c        ****       {
 957:main.c        ****          displayContrasena(Contrasena[0],20,30,1);
 4542              		.loc 1 957 0
ARM GAS  C:\Users\USUARIO\AppData\Local\Temp\ccFzbpyv.s 			page 100


 4543 137a 614C     		ldr	r4, .L512+48
 4544 137c 1E22     		movs	r2, #30
 4545 137e 1421     		movs	r1, #20
 4546 1380 207D     		ldrb	r0, [r4, #20]	@ zero_extendqisi2
 4547 1382 FFF7FEFF 		bl	displayContrasena
 4548              	.LVL377:
 958:main.c        ****          displayContrasena(Contrasena[1],40,30,0);
 4549              		.loc 1 958 0
 4550 1386 0023     		movs	r3, #0
 4551 1388 1E22     		movs	r2, #30
 4552 138a 2821     		movs	r1, #40
 4553 138c 607D     		ldrb	r0, [r4, #21]	@ zero_extendqisi2
 4554 138e FFF7FEFF 		bl	displayContrasena
 4555              	.LVL378:
 959:main.c        ****          displayContrasena(Contrasena[2],60,30,0);
 4556              		.loc 1 959 0
 4557 1392 0023     		movs	r3, #0
 4558 1394 1E22     		movs	r2, #30
 4559 1396 3C21     		movs	r1, #60
 4560 1398 A07D     		ldrb	r0, [r4, #22]	@ zero_extendqisi2
 4561 139a FFF7FEFF 		bl	displayContrasena
 4562              	.LVL379:
 960:main.c        ****          displayContrasena(Contrasena[3],80,30,0);
 4563              		.loc 1 960 0
 4564 139e 0023     		movs	r3, #0
 4565 13a0 1E22     		movs	r2, #30
 4566 13a2 5021     		movs	r1, #80
 4567 13a4 E07D     		ldrb	r0, [r4, #23]	@ zero_extendqisi2
 4568 13a6 FFF7FEFF 		bl	displayContrasena
 4569              	.LVL380:
 4570 13aa 52E0     		b	.L235
 4571              	.L234:
 961:main.c        ****       }
 962:main.c        ****       else
 963:main.c        ****       {
 964:main.c        ****          if(unidad==2)
 4572              		.loc 1 964 0
 4573 13ac 022B     		cmp	r3, #2
 4574 13ae 19D1     		bne	.L236
 965:main.c        ****          {
 966:main.c        ****             displayContrasena(Contrasena[0],20,30,0);
 4575              		.loc 1 966 0
 4576 13b0 534C     		ldr	r4, .L512+48
 4577 13b2 0023     		movs	r3, #0
 4578 13b4 1E22     		movs	r2, #30
 4579 13b6 1421     		movs	r1, #20
 4580 13b8 207D     		ldrb	r0, [r4, #20]	@ zero_extendqisi2
 4581 13ba FFF7FEFF 		bl	displayContrasena
 4582              	.LVL381:
 967:main.c        ****             displayContrasena(Contrasena[1],40,30,1);
 4583              		.loc 1 967 0
 4584 13be 0123     		movs	r3, #1
 4585 13c0 1E22     		movs	r2, #30
 4586 13c2 2821     		movs	r1, #40
 4587 13c4 607D     		ldrb	r0, [r4, #21]	@ zero_extendqisi2
 4588 13c6 FFF7FEFF 		bl	displayContrasena
 4589              	.LVL382:
ARM GAS  C:\Users\USUARIO\AppData\Local\Temp\ccFzbpyv.s 			page 101


 968:main.c        ****             displayContrasena(Contrasena[2],60,30,0);
 4590              		.loc 1 968 0
 4591 13ca 0023     		movs	r3, #0
 4592 13cc 1E22     		movs	r2, #30
 4593 13ce 3C21     		movs	r1, #60
 4594 13d0 A07D     		ldrb	r0, [r4, #22]	@ zero_extendqisi2
 4595 13d2 FFF7FEFF 		bl	displayContrasena
 4596              	.LVL383:
 969:main.c        ****             displayContrasena(Contrasena[3],80,30,0);
 4597              		.loc 1 969 0
 4598 13d6 0023     		movs	r3, #0
 4599 13d8 1E22     		movs	r2, #30
 4600 13da 5021     		movs	r1, #80
 4601 13dc E07D     		ldrb	r0, [r4, #23]	@ zero_extendqisi2
 4602 13de FFF7FEFF 		bl	displayContrasena
 4603              	.LVL384:
 4604 13e2 36E0     		b	.L235
 4605              	.L236:
 970:main.c        ****          }
 971:main.c        ****          else
 972:main.c        ****          {
 973:main.c        ****             if(unidad==3)
 4606              		.loc 1 973 0
 4607 13e4 032B     		cmp	r3, #3
 4608 13e6 19D1     		bne	.L237
 974:main.c        ****             {
 975:main.c        ****                displayContrasena(Contrasena[0],20,30,0);
 4609              		.loc 1 975 0
 4610 13e8 454C     		ldr	r4, .L512+48
 4611 13ea 0023     		movs	r3, #0
 4612 13ec 1E22     		movs	r2, #30
 4613 13ee 1421     		movs	r1, #20
 4614 13f0 207D     		ldrb	r0, [r4, #20]	@ zero_extendqisi2
 4615 13f2 FFF7FEFF 		bl	displayContrasena
 4616              	.LVL385:
 976:main.c        ****                displayContrasena(Contrasena[1],40,30,0);
 4617              		.loc 1 976 0
 4618 13f6 0023     		movs	r3, #0
 4619 13f8 1E22     		movs	r2, #30
 4620 13fa 2821     		movs	r1, #40
 4621 13fc 607D     		ldrb	r0, [r4, #21]	@ zero_extendqisi2
 4622 13fe FFF7FEFF 		bl	displayContrasena
 4623              	.LVL386:
 977:main.c        ****                displayContrasena(Contrasena[2],60,30,1);
 4624              		.loc 1 977 0
 4625 1402 0123     		movs	r3, #1
 4626 1404 1E22     		movs	r2, #30
 4627 1406 3C21     		movs	r1, #60
 4628 1408 A07D     		ldrb	r0, [r4, #22]	@ zero_extendqisi2
 4629 140a FFF7FEFF 		bl	displayContrasena
 4630              	.LVL387:
 978:main.c        ****                displayContrasena(Contrasena[3],80,30,0);
 4631              		.loc 1 978 0
 4632 140e 0023     		movs	r3, #0
 4633 1410 1E22     		movs	r2, #30
 4634 1412 5021     		movs	r1, #80
 4635 1414 E07D     		ldrb	r0, [r4, #23]	@ zero_extendqisi2
ARM GAS  C:\Users\USUARIO\AppData\Local\Temp\ccFzbpyv.s 			page 102


 4636 1416 FFF7FEFF 		bl	displayContrasena
 4637              	.LVL388:
 4638 141a 1AE0     		b	.L235
 4639              	.L237:
 979:main.c        ****             }
 980:main.c        ****             else
 981:main.c        ****             {
 982:main.c        ****                if(unidad==4)
 4640              		.loc 1 982 0
 4641 141c 042B     		cmp	r3, #4
 4642 141e 18D1     		bne	.L235
 983:main.c        ****                {
 984:main.c        ****                   displayContrasena(Contrasena[0],20,30,0);
 4643              		.loc 1 984 0
 4644 1420 374C     		ldr	r4, .L512+48
 4645 1422 0023     		movs	r3, #0
 4646 1424 1E22     		movs	r2, #30
 4647 1426 1421     		movs	r1, #20
 4648 1428 207D     		ldrb	r0, [r4, #20]	@ zero_extendqisi2
 4649 142a FFF7FEFF 		bl	displayContrasena
 4650              	.LVL389:
 985:main.c        ****                   displayContrasena(Contrasena[1],40,30,0);
 4651              		.loc 1 985 0
 4652 142e 0023     		movs	r3, #0
 4653 1430 1E22     		movs	r2, #30
 4654 1432 2821     		movs	r1, #40
 4655 1434 607D     		ldrb	r0, [r4, #21]	@ zero_extendqisi2
 4656 1436 FFF7FEFF 		bl	displayContrasena
 4657              	.LVL390:
 986:main.c        ****                   displayContrasena(Contrasena[2],60,30,0);
 4658              		.loc 1 986 0
 4659 143a 0023     		movs	r3, #0
 4660 143c 1E22     		movs	r2, #30
 4661 143e 3C21     		movs	r1, #60
 4662 1440 A07D     		ldrb	r0, [r4, #22]	@ zero_extendqisi2
 4663 1442 FFF7FEFF 		bl	displayContrasena
 4664              	.LVL391:
 987:main.c        ****                   displayContrasena(Contrasena[3],80,30,1);
 4665              		.loc 1 987 0
 4666 1446 0123     		movs	r3, #1
 4667 1448 1E22     		movs	r2, #30
 4668 144a 5021     		movs	r1, #80
 4669 144c E07D     		ldrb	r0, [r4, #23]	@ zero_extendqisi2
 4670 144e FFF7FEFF 		bl	displayContrasena
 4671              	.LVL392:
 4672              	.L235:
 988:main.c        ****                }
 989:main.c        ****             }
 990:main.c        ****          }
 991:main.c        ****       }
 992:main.c        ****       
 993:main.c        ****       if(UP_Read()==0)//Si oprime hacia arriba
 4673              		.loc 1 993 0
 4674 1452 FFF7FEFF 		bl	UP_Read
 4675              	.LVL393:
 4676 1456 30BB     		cbnz	r0, .L238
 994:main.c        ****       {
ARM GAS  C:\Users\USUARIO\AppData\Local\Temp\ccFzbpyv.s 			page 103


 995:main.c        ****          BUZZER_Write(1);CyDelay(10);BUZZER_Write(0);
 4677              		.loc 1 995 0
 4678 1458 0120     		movs	r0, #1
 4679 145a FFF7FEFF 		bl	BUZZER_Write
 4680              	.LVL394:
 4681 145e 0A20     		movs	r0, #10
 4682 1460 FFF7FEFF 		bl	CyDelay
 4683              	.LVL395:
 4684 1464 0020     		movs	r0, #0
 4685 1466 FFF7FEFF 		bl	BUZZER_Write
 4686              	.LVL396:
 996:main.c        ****          CyDelay(30);
 4687              		.loc 1 996 0
 4688 146a 1E20     		movs	r0, #30
 4689 146c FFF7FEFF 		bl	CyDelay
 4690              	.LVL397:
 997:main.c        ****          for(i=1;i<=4;i++)
 4691              		.loc 1 997 0
 4692 1470 0122     		movs	r2, #1
 4693 1472 1B4B     		ldr	r3, .L512+16
 4694 1474 1A70     		strb	r2, [r3]
 4695 1476 12E0     		b	.L239
 4696              	.L241:
 998:main.c        ****          {
 999:main.c        ****             if(unidad==i)
 4697              		.loc 1 999 0
 4698 1478 1F4A     		ldr	r2, .L512+40
 4699 147a 1278     		ldrb	r2, [r2]	@ zero_extendqisi2
 4700 147c 9342     		cmp	r3, r2
 4701 147e 0BD1     		bne	.L240
1000:main.c        ****             {
1001:main.c        ****                Contrasena[i-1]++;
 4702              		.loc 1 1001 0
 4703 1480 581E     		subs	r0, r3, #1
 4704 1482 1F49     		ldr	r1, .L512+48
 4705 1484 0144     		add	r1, r1, r0
 4706 1486 91F91420 		ldrsb	r2, [r1, #20]
 4707 148a 0132     		adds	r2, r2, #1
 4708 148c 52B2     		sxtb	r2, r2
 4709 148e 0A75     		strb	r2, [r1, #20]
1002:main.c        ****                if(Contrasena[i-1]>9)   
 4710              		.loc 1 1002 0
 4711 1490 092A     		cmp	r2, #9
 4712 1492 01DD     		ble	.L240
1003:main.c        ****                {
1004:main.c        ****                   Contrasena[i-1]=0;
 4713              		.loc 1 1004 0
 4714 1494 0022     		movs	r2, #0
 4715 1496 0A75     		strb	r2, [r1, #20]
 4716              	.L240:
 997:main.c        ****          {
 4717              		.loc 1 997 0 discriminator 2
 4718 1498 0133     		adds	r3, r3, #1
 4719 149a 114A     		ldr	r2, .L512+16
 4720 149c 1370     		strb	r3, [r2]
 4721              	.L239:
 997:main.c        ****          {
ARM GAS  C:\Users\USUARIO\AppData\Local\Temp\ccFzbpyv.s 			page 104


 4722              		.loc 1 997 0 is_stmt 0 discriminator 1
 4723 149e 104B     		ldr	r3, .L512+16
 4724 14a0 1B78     		ldrb	r3, [r3]	@ zero_extendqisi2
 4725 14a2 042B     		cmp	r3, #4
 4726 14a4 E8D9     		bls	.L241
 4727              	.L238:
1005:main.c        ****                }
1006:main.c        ****             }
1007:main.c        ****          }
1008:main.c        ****       }
1009:main.c        ****             
1010:main.c        ****       if(DOWN_Read()==0)//Si oprime hacia abajo
 4728              		.loc 1 1010 0 is_stmt 1
 4729 14a6 FFF7FEFF 		bl	DOWN_Read
 4730              	.LVL398:
 4731 14aa 0028     		cmp	r0, #0
 4732 14ac 41D1     		bne	.L242
1011:main.c        ****       {
1012:main.c        ****          BUZZER_Write(1);CyDelay(10);BUZZER_Write(0);
 4733              		.loc 1 1012 0
 4734 14ae 0120     		movs	r0, #1
 4735 14b0 FFF7FEFF 		bl	BUZZER_Write
 4736              	.LVL399:
 4737 14b4 0A20     		movs	r0, #10
 4738 14b6 FFF7FEFF 		bl	CyDelay
 4739              	.LVL400:
 4740 14ba 0020     		movs	r0, #0
 4741 14bc FFF7FEFF 		bl	BUZZER_Write
 4742              	.LVL401:
1013:main.c        ****          CyDelay(30);
 4743              		.loc 1 1013 0
 4744 14c0 1E20     		movs	r0, #30
 4745 14c2 FFF7FEFF 		bl	CyDelay
 4746              	.LVL402:
1014:main.c        ****          for(i=1;i<=4;i++)
 4747              		.loc 1 1014 0
 4748 14c6 0122     		movs	r2, #1
 4749 14c8 054B     		ldr	r3, .L512+16
 4750 14ca 1A70     		strb	r2, [r3]
 4751 14cc 2DE0     		b	.L243
 4752              	.L513:
 4753 14ce 00BF     		.align	2
 4754              	.L512:
 4755 14d0 00000000 		.word	Opcion
 4756 14d4 00000000 		.word	Temperatura1
 4757 14d8 00000000 		.word	Horas1
 4758 14dc 00000000 		.word	Minutos1
 4759 14e0 00000000 		.word	i
 4760 14e4 00000000 		.word	Menu
 4761 14e8 00000000 		.word	visual
 4762 14ec 00000000 		.word	Menus
 4763 14f0 58010000 		.word	.LC27
 4764 14f4 64010000 		.word	.LC28
 4765 14f8 00000000 		.word	unidad
 4766 14fc 38000000 		.word	.LC4
 4767 1500 00000000 		.word	.LANCHOR0
 4768              	.L245:
ARM GAS  C:\Users\USUARIO\AppData\Local\Temp\ccFzbpyv.s 			page 105


1015:main.c        ****          {
1016:main.c        ****             if(unidad==i)
 4769              		.loc 1 1016 0
 4770 1504 B14A     		ldr	r2, .L514
 4771 1506 1278     		ldrb	r2, [r2]	@ zero_extendqisi2
 4772 1508 9342     		cmp	r3, r2
 4773 150a 0BD1     		bne	.L244
1017:main.c        ****             {Contrasena[i-1]--; 
 4774              		.loc 1 1017 0
 4775 150c 581E     		subs	r0, r3, #1
 4776 150e B049     		ldr	r1, .L514+4
 4777 1510 0144     		add	r1, r1, r0
 4778 1512 91F91420 		ldrsb	r2, [r1, #20]
 4779 1516 013A     		subs	r2, r2, #1
 4780 1518 52B2     		sxtb	r2, r2
 4781 151a 0A75     		strb	r2, [r1, #20]
