ARM GAS  C:\Users\USUARIO\AppData\Local\Temp\cchSBxI2.s 			page 1


   1              		.syntax unified
   2              		.cpu cortex-m3
   3              		.fpu softvfp
   4              		.eabi_attribute 20, 1
   5              		.eabi_attribute 21, 1
   6              		.eabi_attribute 23, 3
   7              		.eabi_attribute 24, 1
   8              		.eabi_attribute 25, 1
   9              		.eabi_attribute 26, 1
  10              		.eabi_attribute 30, 1
  11              		.eabi_attribute 34, 1
  12              		.eabi_attribute 18, 4
  13              		.thumb
  14              		.syntax unified
  15              		.file	"glcd-ks0108-psoc5.c"
  16              		.text
  17              	.Ltext0:
  18              		.cfi_sections	.debug_frame
  19              		.section	.text.GLCD_SelectChip,"ax",%progbits
  20              		.align	2
  21              		.thumb
  22              		.thumb_func
  23              		.type	GLCD_SelectChip, %function
  24              	GLCD_SelectChip:
  25              	.LFB64:
  26              		.file 1 "glcd-ks0108-psoc5.c"
   1:glcd-ks0108-psoc5.c **** /*
   2:glcd-ks0108-psoc5.c ****  * Graphics-LCD KS0108 with PSoC5
   3:glcd-ks0108-psoc5.c ****  * by EA4FRB - Melchor Varela, Madrid, Spain. <melchor.varela@gmail.com>
   4:glcd-ks0108-psoc5.c ****  *
   5:glcd-ks0108-psoc5.c ****  * Code ported from Graphics-LCD KS0108 with LPC2106 
   6:glcd-ks0108-psoc5.c ****  * by Martin THOMAS <eversmith@heizung-thomas.de>
   7:glcd-ks0108-psoc5.c ****  *
   8:glcd-ks0108-psoc5.c ****  * - text-output based on code from a 8051-sample-application by Michael J. Karas
   9:glcd-ks0108-psoc5.c ****  * - graphics-functions (line/circle) from the "ape" AVR-ks0108-library
  10:glcd-ks0108-psoc5.c ****  */
  11:glcd-ks0108-psoc5.c **** 
  12:glcd-ks0108-psoc5.c **** /*
  13:glcd-ks0108-psoc5.c **** The following license is for all parts of this code done by 
  14:glcd-ks0108-psoc5.c **** Martin Thomas. Code from others used here may have other license terms.
  15:glcd-ks0108-psoc5.c **** 
  16:glcd-ks0108-psoc5.c **** Copyright (C) 2004 Martin THOMAS
  17:glcd-ks0108-psoc5.c **** 
  18:glcd-ks0108-psoc5.c **** Permission is hereby granted, free of charge, to any person obtaining a copy of
  19:glcd-ks0108-psoc5.c **** this software and associated documentation files (the "Software"), to deal in
  20:glcd-ks0108-psoc5.c **** the Software without restriction, including without limitation the rights to
  21:glcd-ks0108-psoc5.c **** use, copy, modify, merge, publish, distribute, sublicense, and/or sell copies of
  22:glcd-ks0108-psoc5.c **** the Software, and to permit persons to whom the Software is furnished to do so,
  23:glcd-ks0108-psoc5.c **** subject to the following conditions:
  24:glcd-ks0108-psoc5.c **** 
  25:glcd-ks0108-psoc5.c **** ! The above copyright notice and this permission notice shall be included in all
  26:glcd-ks0108-psoc5.c **** ! copies or substantial portions of the Software.
  27:glcd-ks0108-psoc5.c **** 
  28:glcd-ks0108-psoc5.c **** THE SOFTWARE IS PROVIDED "AS IS", WITHOUT WARRANTY OF ANY KIND, EXPRESS OR
  29:glcd-ks0108-psoc5.c **** IMPLIED, INCLUDING BUT NOT LIMITED TO THE WARRANTIES OF MERCHANTABILITY, FITNESS
  30:glcd-ks0108-psoc5.c **** FOR A PARTICULAR PURPOSE AND NONINFRINGEMENT. IN NO EVENT SHALL THE AUTHORS OR
  31:glcd-ks0108-psoc5.c **** COPYRIGHT HOLDERS BE LIABLE FOR ANY CLAIM, DAMAGES OR OTHER LIABILITY, WHETHER
ARM GAS  C:\Users\USUARIO\AppData\Local\Temp\cchSBxI2.s 			page 2


  32:glcd-ks0108-psoc5.c **** IN AN ACTION OF CONTRACT, TORT OR OTHERWISE, ARISING FROM, OUT OF OR IN
  33:glcd-ks0108-psoc5.c **** CONNECTION WITH THE SOFTWARE OR THE USE OR OTHER DEALINGS IN THE SOFTWARE.
  34:glcd-ks0108-psoc5.c **** */
  35:glcd-ks0108-psoc5.c **** //*****************************************************************************/
  36:glcd-ks0108-psoc5.c **** //
  37:glcd-ks0108-psoc5.c **** //	PROJECT:	GLCD Library
  38:glcd-ks0108-psoc5.c **** // 	FILE NAME: 	glcd-ks0108-psoc5.c
  39:glcd-ks0108-psoc5.c **** // 	AUTHOR:		EA4FRB - Melchor Varela
  40:glcd-ks0108-psoc5.c **** //
  41:glcd-ks0108-psoc5.c **** // 	DESCRIPTION
  42:glcd-ks0108-psoc5.c **** //	
  43:glcd-ks0108-psoc5.c **** //	Graphics-LCD KS0108 with PSoC5
  44:glcd-ks0108-psoc5.c **** //
  45:glcd-ks0108-psoc5.c **** // 	HISTORY
  46:glcd-ks0108-psoc5.c **** //
  47:glcd-ks0108-psoc5.c **** //	NAME   	DATE		REMARKS
  48:glcd-ks0108-psoc5.c **** //
  49:glcd-ks0108-psoc5.c **** //	MVM	   	July 2010	Creation
  50:glcd-ks0108-psoc5.c **** //
  51:glcd-ks0108-psoc5.c **** //*****************************************************************************/
  52:glcd-ks0108-psoc5.c **** /*
  53:glcd-ks0108-psoc5.c **** PSoC5 Port Description:
  54:glcd-ks0108-psoc5.c **** 
  55:glcd-ks0108-psoc5.c **** This port has been prepared for the PSoC5 FirstTouch StarterKit. The display is 
  56:glcd-ks0108-psoc5.c **** connected to the kit using the expansion board. Since the display is powered at 5V 
  57:glcd-ks0108-psoc5.c **** and the PSoC5 is operating at 3.3V and the I/O ports are not 5V compatible, it has been
  58:glcd-ks0108-psoc5.c **** decided using the display in write mode only and perform the busy check with a
  59:glcd-ks0108-psoc5.c **** timer. Therefore the display R/W is cabled to '0' level.
  60:glcd-ks0108-psoc5.c **** 
  61:glcd-ks0108-psoc5.c **** Hardware resources:
  62:glcd-ks0108-psoc5.c **** 
  63:glcd-ks0108-psoc5.c **** - Timer_LCD: Timer 16bit operating @ 24 Mhz in one-shot mode
  64:glcd-ks0108-psoc5.c **** - LCDC: Digital output pins block for display control 
  65:glcd-ks0108-psoc5.c **** - LCDD: Digital output pins block for display data 
  66:glcd-ks0108-psoc5.c **** - LCD_DATA: Control register connected to LCDD for display data
  67:glcd-ks0108-psoc5.c **** 
  68:glcd-ks0108-psoc5.c **** Pin Mapping:
  69:glcd-ks0108-psoc5.c **** 	- CS1	P2_7
  70:glcd-ks0108-psoc5.c **** 	- CS2	P2_6
  71:glcd-ks0108-psoc5.c **** 	- RST	P6_7
  72:glcd-ks0108-psoc5.c **** 	- E		P6_5
  73:glcd-ks0108-psoc5.c **** 	- DI	P6_6
  74:glcd-ks0108-psoc5.c **** 	- D0	P6_3
  75:glcd-ks0108-psoc5.c **** 	- D1	P6_2
  76:glcd-ks0108-psoc5.c **** 	- D2	P6_1
  77:glcd-ks0108-psoc5.c **** 	- D3	P6_0
  78:glcd-ks0108-psoc5.c **** 	- D4	P4_7
  79:glcd-ks0108-psoc5.c **** 	- D5	P4_6
  80:glcd-ks0108-psoc5.c **** 	- D6	P4_5
  81:glcd-ks0108-psoc5.c **** 	- D7	P4_4
  82:glcd-ks0108-psoc5.c **** 	- R/W	"0"
  83:glcd-ks0108-psoc5.c **** */
  84:glcd-ks0108-psoc5.c **** 
  85:glcd-ks0108-psoc5.c **** #include <device.h>
  86:glcd-ks0108-psoc5.c **** 
  87:glcd-ks0108-psoc5.c **** #include "glcd.h"
  88:glcd-ks0108-psoc5.c **** #include "fonts.h"
ARM GAS  C:\Users\USUARIO\AppData\Local\Temp\cchSBxI2.s 			page 3


  89:glcd-ks0108-psoc5.c **** 
  90:glcd-ks0108-psoc5.c **** //-----------------------------------------------------------------------------
  91:glcd-ks0108-psoc5.c **** //  Defines
  92:glcd-ks0108-psoc5.c **** //-----------------------------------------------------------------------------
  93:glcd-ks0108-psoc5.c **** #define GLCD_MODECMD  0
  94:glcd-ks0108-psoc5.c **** #define GLCD_MODEDATA 1
  95:glcd-ks0108-psoc5.c **** 
  96:glcd-ks0108-psoc5.c **** #define GLCD_ON				0x3F
  97:glcd-ks0108-psoc5.c **** #define GLCD_DISP_START0	0xC0
  98:glcd-ks0108-psoc5.c **** #define GLCD_SET_PAGE       0xB8
  99:glcd-ks0108-psoc5.c **** #define GLCD_SET_ADDRESS	0x40
 100:glcd-ks0108-psoc5.c **** 
 101:glcd-ks0108-psoc5.c **** #define GLCD_X_BYTES 	(GLCD_NUMCONTROLLERX*GLCD_MAXADDRESS)
 102:glcd-ks0108-psoc5.c **** #define GLCD_Y_BYTES 	(GLCD_NUMCONTROLLERY*GLCD_MAXPAGE)
 103:glcd-ks0108-psoc5.c **** 
 104:glcd-ks0108-psoc5.c **** #define GLCD_SELECTNONE		99
 105:glcd-ks0108-psoc5.c **** 
 106:glcd-ks0108-psoc5.c **** //#define TIMER_LCD_PERIOD_NS	(1000000000/24000000)
 107:glcd-ks0108-psoc5.c **** #define TIMER_LCD_PERIOD_NS	(1000000000/24000000)
 108:glcd-ks0108-psoc5.c **** #define NS_TO_COUNT(ns)		((ns)/TIMER_LCD_PERIOD_NS)			
 109:glcd-ks0108-psoc5.c **** 
 110:glcd-ks0108-psoc5.c **** //#define	BUSY_TIME_NS		1000	//1uS
 111:glcd-ks0108-psoc5.c **** #define	BUSY_TIME_NS		1000	//1uS
 112:glcd-ks0108-psoc5.c **** //#define E_WIDTH_NS			450
 113:glcd-ks0108-psoc5.c **** //#define ADDR_SETUP_NS		140
 114:glcd-ks0108-psoc5.c **** #define E_WIDTH_NS			450
 115:glcd-ks0108-psoc5.c **** #define ADDR_SETUP_NS		140
 116:glcd-ks0108-psoc5.c **** //-----------------------------------------------------------------------------
 117:glcd-ks0108-psoc5.c **** //  Locals
 118:glcd-ks0108-psoc5.c **** //-----------------------------------------------------------------------------
 119:glcd-ks0108-psoc5.c **** static uint8 gGLCD_inverted;
 120:glcd-ks0108-psoc5.c **** 
 121:glcd-ks0108-psoc5.c **** static uint8 gGLCD_buffer[GLCD_Y_BYTES][GLCD_X_BYTES];
 122:glcd-ks0108-psoc5.c **** 
 123:glcd-ks0108-psoc5.c **** /* from MJK: pixel level bit masks for display */
 124:glcd-ks0108-psoc5.c **** /* this array is setup to map the order */
 125:glcd-ks0108-psoc5.c **** /* of bits in a byte to the vertical order */
 126:glcd-ks0108-psoc5.c **** /* of bits at the LCD controller */
 127:glcd-ks0108-psoc5.c **** /* TODO: use somekind of (1<<n) macro */
 128:glcd-ks0108-psoc5.c **** static const uint8 GLCD_MaskArray[8] =
 129:glcd-ks0108-psoc5.c ****          {0x01,0x02,0x04,0x08,0x10,0x20,0x40,0x80};
 130:glcd-ks0108-psoc5.c **** 
 131:glcd-ks0108-psoc5.c **** //-----------------------------------------------------------------------------
 132:glcd-ks0108-psoc5.c **** //  Prototypes
 133:glcd-ks0108-psoc5.c **** //-----------------------------------------------------------------------------
 134:glcd-ks0108-psoc5.c **** static void GLCD_SetupIO(void);
 135:glcd-ks0108-psoc5.c **** static void GLCD_TimerWait(void);
 136:glcd-ks0108-psoc5.c **** static void GLCD_TimerSet(uint16 count);
 137:glcd-ks0108-psoc5.c **** static void GLCD_SetPage(uint8 page);
 138:glcd-ks0108-psoc5.c **** static void GLCD_SetAddress(uint8 address);
 139:glcd-ks0108-psoc5.c **** static void GLCD_SelectChip(uint8 chip);
 140:glcd-ks0108-psoc5.c **** static void GLCD_WriteDataCmd(uint8 byte, uint8 mode);
 141:glcd-ks0108-psoc5.c **** static void GLCD_WriteCommand(uint8 byte);
 142:glcd-ks0108-psoc5.c **** static void GLCD_WriteData(uint8 byte);
 143:glcd-ks0108-psoc5.c **** 
 144:glcd-ks0108-psoc5.c **** static void GLCD_FillBuffer(uint8 pattern);
 145:glcd-ks0108-psoc5.c **** 
ARM GAS  C:\Users\USUARIO\AppData\Local\Temp\cchSBxI2.s 			page 4


 146:glcd-ks0108-psoc5.c **** static void GLCD_Glyph(uint8 left, uint8 top,
 147:glcd-ks0108-psoc5.c **** 			   uint8 width, uint8 height,
 148:glcd-ks0108-psoc5.c **** 			   const uint8 *glyph, uint8 store_width);
 149:glcd-ks0108-psoc5.c **** 
 150:glcd-ks0108-psoc5.c **** //-----------------------------------------------------------------------------
 151:glcd-ks0108-psoc5.c **** //  FUNCTION NAME:	GLCD_SetupIO
 152:glcd-ks0108-psoc5.c **** //
 153:glcd-ks0108-psoc5.c **** //  DESCRIPTION:
 154:glcd-ks0108-psoc5.c **** //
 155:glcd-ks0108-psoc5.c **** //	Initializes I/O ports
 156:glcd-ks0108-psoc5.c **** //
 157:glcd-ks0108-psoc5.c **** //  ARGUMENTS:
 158:glcd-ks0108-psoc5.c **** //     none.
 159:glcd-ks0108-psoc5.c **** //
 160:glcd-ks0108-psoc5.c **** //  RETURNS:
 161:glcd-ks0108-psoc5.c **** //     none.
 162:glcd-ks0108-psoc5.c **** //
 163:glcd-ks0108-psoc5.c **** //-----------------------------------------------------------------------------
 164:glcd-ks0108-psoc5.c **** static void GLCD_SetupIO(void)
 165:glcd-ks0108-psoc5.c **** {
 166:glcd-ks0108-psoc5.c **** 	LCD_DATA_Write(0);
 167:glcd-ks0108-psoc5.c **** 	
 168:glcd-ks0108-psoc5.c **** 	CyPins_ClearPin(LCDC_E);
 169:glcd-ks0108-psoc5.c **** 	CyPins_ClearPin(LCDC_CS1);
 170:glcd-ks0108-psoc5.c **** 	CyPins_ClearPin(LCDC_CS2);
 171:glcd-ks0108-psoc5.c **** 	CyPins_ClearPin(LCDC_DI);
 172:glcd-ks0108-psoc5.c **** 
 173:glcd-ks0108-psoc5.c **** 	CyPins_ClearPin(LCDC_RST);
 174:glcd-ks0108-psoc5.c **** 	CyPins_SetPin(LCDC_RST);
 175:glcd-ks0108-psoc5.c **** 	
 176:glcd-ks0108-psoc5.c **** 	Timer_LCD_Start();
 177:glcd-ks0108-psoc5.c **** 	GLCD_TimerSet(NS_TO_COUNT(BUSY_TIME_NS));
 178:glcd-ks0108-psoc5.c **** }
 179:glcd-ks0108-psoc5.c **** 
 180:glcd-ks0108-psoc5.c **** //-----------------------------------------------------------------------------
 181:glcd-ks0108-psoc5.c **** //  FUNCTION NAME:	GLCD_SelectChip
 182:glcd-ks0108-psoc5.c **** //
 183:glcd-ks0108-psoc5.c **** //  DESCRIPTION:
 184:glcd-ks0108-psoc5.c **** //
 185:glcd-ks0108-psoc5.c **** //	Selects controller
 186:glcd-ks0108-psoc5.c **** //
 187:glcd-ks0108-psoc5.c **** //  ARGUMENTS:
 188:glcd-ks0108-psoc5.c **** //     chip		{0,1,GLCD_SELECTNONE} 
 189:glcd-ks0108-psoc5.c **** //
 190:glcd-ks0108-psoc5.c **** //  RETURNS:
 191:glcd-ks0108-psoc5.c **** //     none.
 192:glcd-ks0108-psoc5.c **** //
 193:glcd-ks0108-psoc5.c **** //-----------------------------------------------------------------------------
 194:glcd-ks0108-psoc5.c **** static void GLCD_SelectChip(uint8 chip)
 195:glcd-ks0108-psoc5.c **** {
  27              		.loc 1 195 0
  28              		.cfi_startproc
  29              		@ args = 0, pretend = 0, frame = 0
  30              		@ frame_needed = 0, uses_anonymous_args = 0
  31              		@ link register save eliminated.
  32              	.LVL0:
 196:glcd-ks0108-psoc5.c **** 	switch (chip) {
ARM GAS  C:\Users\USUARIO\AppData\Local\Temp\cchSBxI2.s 			page 5


  33              		.loc 1 196 0
  34 0000 0128     		cmp	r0, #1
  35 0002 0ED0     		beq	.L3
  36 0004 10B1     		cbz	r0, .L4
  37 0006 6328     		cmp	r0, #99
  38 0008 16D0     		beq	.L5
  39 000a 7047     		bx	lr
  40              	.L4:
 197:glcd-ks0108-psoc5.c **** 		case 0 : 
 198:glcd-ks0108-psoc5.c **** 			CyPins_ClearPin(LCDC_CS1);
  41              		.loc 1 198 0
  42 000c 104A     		ldr	r2, .L6
  43 000e 1378     		ldrb	r3, [r2]	@ zero_extendqisi2
  44 0010 03F0FE03 		and	r3, r3, #254
  45 0014 1370     		strb	r3, [r2]
 199:glcd-ks0108-psoc5.c **** 			CyPins_SetPin(LCDC_CS2);
  46              		.loc 1 199 0
  47 0016 233A     		subs	r2, r2, #35
  48 0018 1378     		ldrb	r3, [r2]	@ zero_extendqisi2
  49 001a 43F00103 		orr	r3, r3, #1
  50 001e 1370     		strb	r3, [r2]
 200:glcd-ks0108-psoc5.c **** 			break;
  51              		.loc 1 200 0
  52 0020 7047     		bx	lr
  53              	.L3:
 201:glcd-ks0108-psoc5.c **** 		case 1:
 202:glcd-ks0108-psoc5.c **** 			CyPins_SetPin(LCDC_CS1);
  54              		.loc 1 202 0
  55 0022 0B4A     		ldr	r2, .L6
  56 0024 1378     		ldrb	r3, [r2]	@ zero_extendqisi2
  57 0026 43F00103 		orr	r3, r3, #1
  58 002a 1370     		strb	r3, [r2]
 203:glcd-ks0108-psoc5.c **** 			CyPins_ClearPin(LCDC_CS2);
  59              		.loc 1 203 0
  60 002c 233A     		subs	r2, r2, #35
  61 002e 1378     		ldrb	r3, [r2]	@ zero_extendqisi2
  62 0030 03F0FE03 		and	r3, r3, #254
  63 0034 1370     		strb	r3, [r2]
 204:glcd-ks0108-psoc5.c **** 			break;
  64              		.loc 1 204 0
  65 0036 7047     		bx	lr
  66              	.L5:
 205:glcd-ks0108-psoc5.c **** 		case GLCD_SELECTNONE:
 206:glcd-ks0108-psoc5.c **** 			CyPins_ClearPin(LCDC_CS1);
  67              		.loc 1 206 0
  68 0038 054A     		ldr	r2, .L6
  69 003a 1378     		ldrb	r3, [r2]	@ zero_extendqisi2
  70 003c 03F0FE03 		and	r3, r3, #254
  71 0040 1370     		strb	r3, [r2]
 207:glcd-ks0108-psoc5.c **** 			CyPins_ClearPin(LCDC_CS2);
  72              		.loc 1 207 0
  73 0042 233A     		subs	r2, r2, #35
  74 0044 1378     		ldrb	r3, [r2]	@ zero_extendqisi2
  75 0046 03F0FE03 		and	r3, r3, #254
  76 004a 1370     		strb	r3, [r2]
  77 004c 7047     		bx	lr
  78              	.L7:
ARM GAS  C:\Users\USUARIO\AppData\Local\Temp\cchSBxI2.s 			page 6


  79 004e 00BF     		.align	2
  80              	.L6:
  81 0050 37500040 		.word	1073762359
  82              		.cfi_endproc
  83              	.LFE64:
  84              		.size	GLCD_SelectChip, .-GLCD_SelectChip
  85              		.section	.text.GLCD_FillBuffer,"ax",%progbits
  86              		.align	2
  87              		.thumb
  88              		.thumb_func
  89              		.type	GLCD_FillBuffer, %function
  90              	GLCD_FillBuffer:
  91              	.LFB74:
 208:glcd-ks0108-psoc5.c **** 			break;
 209:glcd-ks0108-psoc5.c **** 		default: 
 210:glcd-ks0108-psoc5.c **** 			break;
 211:glcd-ks0108-psoc5.c **** 	}
 212:glcd-ks0108-psoc5.c **** }
 213:glcd-ks0108-psoc5.c **** 
 214:glcd-ks0108-psoc5.c **** //-----------------------------------------------------------------------------
 215:glcd-ks0108-psoc5.c **** //  FUNCTION NAME:	GLCD_TimerWait
 216:glcd-ks0108-psoc5.c **** //
 217:glcd-ks0108-psoc5.c **** //  DESCRIPTION:
 218:glcd-ks0108-psoc5.c **** //
 219:glcd-ks0108-psoc5.c **** //	Waits for timer end count
 220:glcd-ks0108-psoc5.c **** //
 221:glcd-ks0108-psoc5.c **** //  ARGUMENTS:
 222:glcd-ks0108-psoc5.c **** //     none.
 223:glcd-ks0108-psoc5.c **** //
 224:glcd-ks0108-psoc5.c **** //  RETURNS:
 225:glcd-ks0108-psoc5.c **** //     none.
 226:glcd-ks0108-psoc5.c **** //
 227:glcd-ks0108-psoc5.c **** //-----------------------------------------------------------------------------
 228:glcd-ks0108-psoc5.c **** static void GLCD_TimerWait(void)
 229:glcd-ks0108-psoc5.c **** {
 230:glcd-ks0108-psoc5.c **** 	while (Timer_LCD_ReadCounter()!=0)
 231:glcd-ks0108-psoc5.c **** 	{;}
 232:glcd-ks0108-psoc5.c **** }
 233:glcd-ks0108-psoc5.c **** 
 234:glcd-ks0108-psoc5.c **** //-----------------------------------------------------------------------------
 235:glcd-ks0108-psoc5.c **** //  FUNCTION NAME:	GLCD_TimerSet
 236:glcd-ks0108-psoc5.c **** //
 237:glcd-ks0108-psoc5.c **** //  DESCRIPTION:
 238:glcd-ks0108-psoc5.c **** //
 239:glcd-ks0108-psoc5.c **** //	Sets timer count
 240:glcd-ks0108-psoc5.c **** //
 241:glcd-ks0108-psoc5.c **** //  ARGUMENTS:
 242:glcd-ks0108-psoc5.c **** //     count	number of counts (clock @ 24Mhz)
 243:glcd-ks0108-psoc5.c **** //
 244:glcd-ks0108-psoc5.c **** //  RETURNS:
 245:glcd-ks0108-psoc5.c **** //     none.
 246:glcd-ks0108-psoc5.c **** //
 247:glcd-ks0108-psoc5.c **** //-----------------------------------------------------------------------------
 248:glcd-ks0108-psoc5.c **** static void GLCD_TimerSet(uint16 count)
 249:glcd-ks0108-psoc5.c **** {
 250:glcd-ks0108-psoc5.c **** 	Timer_LCD_WriteCounter(count+1);
 251:glcd-ks0108-psoc5.c **** }
ARM GAS  C:\Users\USUARIO\AppData\Local\Temp\cchSBxI2.s 			page 7


 252:glcd-ks0108-psoc5.c **** 
 253:glcd-ks0108-psoc5.c **** //-----------------------------------------------------------------------------
 254:glcd-ks0108-psoc5.c **** //  FUNCTION NAME:	GLCD_WriteDataCmd
 255:glcd-ks0108-psoc5.c **** //
 256:glcd-ks0108-psoc5.c **** //  DESCRIPTION:
 257:glcd-ks0108-psoc5.c **** //
 258:glcd-ks0108-psoc5.c **** //	Writes to display controller
 259:glcd-ks0108-psoc5.c **** //
 260:glcd-ks0108-psoc5.c **** //  ARGUMENTS:
 261:glcd-ks0108-psoc5.c **** //     	datacmd		data or command
 262:glcd-ks0108-psoc5.c **** //		mode		{GLCD_MODECMD, GLCD_MODEDATA}
 263:glcd-ks0108-psoc5.c **** //
 264:glcd-ks0108-psoc5.c **** //  RETURNS:
 265:glcd-ks0108-psoc5.c **** //     none.
 266:glcd-ks0108-psoc5.c **** //
 267:glcd-ks0108-psoc5.c **** //-----------------------------------------------------------------------------
 268:glcd-ks0108-psoc5.c **** static void GLCD_WriteDataCmd(uint8 datacmd, uint8 mode)
 269:glcd-ks0108-psoc5.c **** {				
 270:glcd-ks0108-psoc5.c **** 	GLCD_TimerWait();
 271:glcd-ks0108-psoc5.c **** 	
 272:glcd-ks0108-psoc5.c **** 	if (mode == GLCD_MODECMD)
 273:glcd-ks0108-psoc5.c **** 		CyPins_ClearPin(LCDC_DI);	// DI to 0 (command)																							
 274:glcd-ks0108-psoc5.c **** 	else
 275:glcd-ks0108-psoc5.c **** 		CyPins_SetPin(LCDC_DI);		// DI to 1 (data)																							
 276:glcd-ks0108-psoc5.c **** 
 277:glcd-ks0108-psoc5.c **** 									// Address setup time
 278:glcd-ks0108-psoc5.c **** 	GLCD_TimerSet(NS_TO_COUNT(ADDR_SETUP_NS));
 279:glcd-ks0108-psoc5.c **** 	GLCD_TimerWait();
 280:glcd-ks0108-psoc5.c **** 
 281:glcd-ks0108-psoc5.c **** 	LCD_DATA_Write(datacmd);
 282:glcd-ks0108-psoc5.c **** 	
 283:glcd-ks0108-psoc5.c **** 	CyPins_SetPin(LCDC_E);
 284:glcd-ks0108-psoc5.c **** 									// Need E high for at least 450ns
 285:glcd-ks0108-psoc5.c **** 	GLCD_TimerSet(NS_TO_COUNT(E_WIDTH_NS));
 286:glcd-ks0108-psoc5.c **** 	GLCD_TimerWait();
 287:glcd-ks0108-psoc5.c **** 	CyPins_ClearPin(LCDC_E);
 288:glcd-ks0108-psoc5.c **** 									// Starts busy wait time
 289:glcd-ks0108-psoc5.c **** 	GLCD_TimerSet(NS_TO_COUNT(BUSY_TIME_NS));
 290:glcd-ks0108-psoc5.c **** }
 291:glcd-ks0108-psoc5.c **** 
 292:glcd-ks0108-psoc5.c **** //-----------------------------------------------------------------------------
 293:glcd-ks0108-psoc5.c **** //  FUNCTION NAME:	GLCD_WriteCommand
 294:glcd-ks0108-psoc5.c **** //
 295:glcd-ks0108-psoc5.c **** //  DESCRIPTION:
 296:glcd-ks0108-psoc5.c **** //
 297:glcd-ks0108-psoc5.c **** //	Writes command to display controller
 298:glcd-ks0108-psoc5.c **** //
 299:glcd-ks0108-psoc5.c **** //  ARGUMENTS:
 300:glcd-ks0108-psoc5.c **** //     	byte		command
 301:glcd-ks0108-psoc5.c **** //
 302:glcd-ks0108-psoc5.c **** //  RETURNS:
 303:glcd-ks0108-psoc5.c **** //     none.
 304:glcd-ks0108-psoc5.c **** //
 305:glcd-ks0108-psoc5.c **** //-----------------------------------------------------------------------------
 306:glcd-ks0108-psoc5.c **** static void GLCD_WriteCommand(uint8 byte)
 307:glcd-ks0108-psoc5.c **** {
 308:glcd-ks0108-psoc5.c **** 	GLCD_WriteDataCmd(byte, GLCD_MODECMD);
ARM GAS  C:\Users\USUARIO\AppData\Local\Temp\cchSBxI2.s 			page 8


 309:glcd-ks0108-psoc5.c **** }
 310:glcd-ks0108-psoc5.c **** 
 311:glcd-ks0108-psoc5.c **** //-----------------------------------------------------------------------------
 312:glcd-ks0108-psoc5.c **** //  FUNCTION NAME:	GLCD_WriteData
 313:glcd-ks0108-psoc5.c **** //
 314:glcd-ks0108-psoc5.c **** //  DESCRIPTION:
 315:glcd-ks0108-psoc5.c **** //
 316:glcd-ks0108-psoc5.c **** //	Writes data to display controller
 317:glcd-ks0108-psoc5.c **** //
 318:glcd-ks0108-psoc5.c **** //  ARGUMENTS:
 319:glcd-ks0108-psoc5.c **** //     	byte		data
 320:glcd-ks0108-psoc5.c **** //
 321:glcd-ks0108-psoc5.c **** //  RETURNS:
 322:glcd-ks0108-psoc5.c **** //     none.
 323:glcd-ks0108-psoc5.c **** //
 324:glcd-ks0108-psoc5.c **** //-----------------------------------------------------------------------------
 325:glcd-ks0108-psoc5.c **** static void GLCD_WriteData(uint8 byte)
 326:glcd-ks0108-psoc5.c **** {
 327:glcd-ks0108-psoc5.c **** 	GLCD_WriteDataCmd(byte, GLCD_MODEDATA);
 328:glcd-ks0108-psoc5.c **** }
 329:glcd-ks0108-psoc5.c **** 
 330:glcd-ks0108-psoc5.c **** //-----------------------------------------------------------------------------
 331:glcd-ks0108-psoc5.c **** //  FUNCTION NAME:	GLCD_SetPage
 332:glcd-ks0108-psoc5.c **** //
 333:glcd-ks0108-psoc5.c **** //  DESCRIPTION:
 334:glcd-ks0108-psoc5.c **** //
 335:glcd-ks0108-psoc5.c **** //	Sets display page in display controller
 336:glcd-ks0108-psoc5.c **** //
 337:glcd-ks0108-psoc5.c **** //  ARGUMENTS:
 338:glcd-ks0108-psoc5.c **** //     	page		
 339:glcd-ks0108-psoc5.c **** //
 340:glcd-ks0108-psoc5.c **** //  RETURNS:
 341:glcd-ks0108-psoc5.c **** //     none.
 342:glcd-ks0108-psoc5.c **** //
 343:glcd-ks0108-psoc5.c **** //-----------------------------------------------------------------------------
 344:glcd-ks0108-psoc5.c **** static void GLCD_SetPage(uint8 page)
 345:glcd-ks0108-psoc5.c **** {
 346:glcd-ks0108-psoc5.c **** 	GLCD_WriteCommand(GLCD_SET_PAGE+page);
 347:glcd-ks0108-psoc5.c **** }
 348:glcd-ks0108-psoc5.c **** 
 349:glcd-ks0108-psoc5.c **** //-----------------------------------------------------------------------------
 350:glcd-ks0108-psoc5.c **** //  FUNCTION NAME:	GLCD_SetAddress
 351:glcd-ks0108-psoc5.c **** //
 352:glcd-ks0108-psoc5.c **** //  DESCRIPTION:
 353:glcd-ks0108-psoc5.c **** //
 354:glcd-ks0108-psoc5.c **** //	Sets display address in display controller
 355:glcd-ks0108-psoc5.c **** //
 356:glcd-ks0108-psoc5.c **** //  ARGUMENTS:
 357:glcd-ks0108-psoc5.c **** //     	address		
 358:glcd-ks0108-psoc5.c **** //
 359:glcd-ks0108-psoc5.c **** //  RETURNS:
 360:glcd-ks0108-psoc5.c **** //     none.
 361:glcd-ks0108-psoc5.c **** //
 362:glcd-ks0108-psoc5.c **** //-----------------------------------------------------------------------------
 363:glcd-ks0108-psoc5.c **** static void GLCD_SetAddress(uint8 address)
 364:glcd-ks0108-psoc5.c **** {
 365:glcd-ks0108-psoc5.c **** 	GLCD_WriteCommand(GLCD_SET_ADDRESS+address);
ARM GAS  C:\Users\USUARIO\AppData\Local\Temp\cchSBxI2.s 			page 9


 366:glcd-ks0108-psoc5.c **** }
 367:glcd-ks0108-psoc5.c **** 
 368:glcd-ks0108-psoc5.c **** //-----------------------------------------------------------------------------
 369:glcd-ks0108-psoc5.c **** //  FUNCTION NAME:	GLCD_Init
 370:glcd-ks0108-psoc5.c **** //
 371:glcd-ks0108-psoc5.c **** //  DESCRIPTION:
 372:glcd-ks0108-psoc5.c **** //
 373:glcd-ks0108-psoc5.c **** //	Initializes display. 
 374:glcd-ks0108-psoc5.c **** //
 375:glcd-ks0108-psoc5.c **** //  ARGUMENTS:
 376:glcd-ks0108-psoc5.c **** //     none.		
 377:glcd-ks0108-psoc5.c **** //
 378:glcd-ks0108-psoc5.c **** //  RETURNS:
 379:glcd-ks0108-psoc5.c **** //     none.
 380:glcd-ks0108-psoc5.c **** //
 381:glcd-ks0108-psoc5.c **** //-----------------------------------------------------------------------------
 382:glcd-ks0108-psoc5.c **** void GLCD_Init(void)
 383:glcd-ks0108-psoc5.c **** {	
 384:glcd-ks0108-psoc5.c **** 	uint8 i;
 385:glcd-ks0108-psoc5.c **** 	
 386:glcd-ks0108-psoc5.c **** 	GLCD_SetupIO();
 387:glcd-ks0108-psoc5.c **** 	
 388:glcd-ks0108-psoc5.c **** 	for (i=0;i<GLCD_NUMCONTROLLER;i++) {
 389:glcd-ks0108-psoc5.c **** 		GLCD_SelectChip(i);
 390:glcd-ks0108-psoc5.c **** 		GLCD_WriteCommand(GLCD_ON); 
 391:glcd-ks0108-psoc5.c **** 		GLCD_WriteCommand(GLCD_DISP_START0);
 392:glcd-ks0108-psoc5.c **** 		// GLCD_SetPage(0);
 393:glcd-ks0108-psoc5.c **** 		// GLCD_SetAddress(0);
 394:glcd-ks0108-psoc5.c **** 	}
 395:glcd-ks0108-psoc5.c **** }
 396:glcd-ks0108-psoc5.c **** //-----------------------------------------------------------------------------
 397:glcd-ks0108-psoc5.c **** //  FUNCTION NAME:	GLCD_SetInvert
 398:glcd-ks0108-psoc5.c **** //
 399:glcd-ks0108-psoc5.c **** //  DESCRIPTION:
 400:glcd-ks0108-psoc5.c **** //
 401:glcd-ks0108-psoc5.c **** //	Sets normal or inverse mode
 402:glcd-ks0108-psoc5.c **** //
 403:glcd-ks0108-psoc5.c **** //  ARGUMENTS:
 404:glcd-ks0108-psoc5.c **** //     mode		{GLCD_MODE_INVERT,GLCD_MODE_NORMAL}
 405:glcd-ks0108-psoc5.c **** //
 406:glcd-ks0108-psoc5.c **** //  RETURNS:
 407:glcd-ks0108-psoc5.c **** //     none.
 408:glcd-ks0108-psoc5.c **** //
 409:glcd-ks0108-psoc5.c **** //-----------------------------------------------------------------------------
 410:glcd-ks0108-psoc5.c **** void GLCD_SetInvert(uint8 mode)
 411:glcd-ks0108-psoc5.c **** {
 412:glcd-ks0108-psoc5.c **** 	gGLCD_inverted = mode;
 413:glcd-ks0108-psoc5.c **** }
 414:glcd-ks0108-psoc5.c **** 
 415:glcd-ks0108-psoc5.c **** //-----------------------------------------------------------------------------
 416:glcd-ks0108-psoc5.c **** //  FUNCTION NAME:	GLCD_FillBuffer
 417:glcd-ks0108-psoc5.c **** //
 418:glcd-ks0108-psoc5.c **** //  DESCRIPTION:
 419:glcd-ks0108-psoc5.c **** //
 420:glcd-ks0108-psoc5.c **** //	Fills memory buffer with specified pattern
 421:glcd-ks0108-psoc5.c **** //
 422:glcd-ks0108-psoc5.c **** //  ARGUMENTS:
ARM GAS  C:\Users\USUARIO\AppData\Local\Temp\cchSBxI2.s 			page 10


 423:glcd-ks0108-psoc5.c **** //     pattern		
 424:glcd-ks0108-psoc5.c **** //
 425:glcd-ks0108-psoc5.c **** //  RETURNS:
 426:glcd-ks0108-psoc5.c **** //     none.
 427:glcd-ks0108-psoc5.c **** //
 428:glcd-ks0108-psoc5.c **** //-----------------------------------------------------------------------------
 429:glcd-ks0108-psoc5.c **** static void GLCD_FillBuffer(uint8 pattern)
 430:glcd-ks0108-psoc5.c **** {
  92              		.loc 1 430 0
  93              		.cfi_startproc
  94              		@ args = 0, pretend = 0, frame = 0
  95              		@ frame_needed = 0, uses_anonymous_args = 0
  96              		@ link register save eliminated.
  97              	.LVL1:
 431:glcd-ks0108-psoc5.c **** 	uint16 x,y;
 432:glcd-ks0108-psoc5.c **** 	
 433:glcd-ks0108-psoc5.c **** 	for (y=0;y<GLCD_Y_BYTES;y++)
  98              		.loc 1 433 0
  99 0000 0021     		movs	r1, #0
 100 0002 0BE0     		b	.L9
 101              	.LVL2:
 102              	.L10:
 434:glcd-ks0108-psoc5.c **** 		for (x=0;x<GLCD_X_BYTES;x++) 
 435:glcd-ks0108-psoc5.c **** 			gGLCD_buffer[y][x]=pattern;
 103              		.loc 1 435 0 discriminator 3
 104 0004 074A     		ldr	r2, .L13
 105 0006 02EBC112 		add	r2, r2, r1, lsl #7
 106 000a D054     		strb	r0, [r2, r3]
 434:glcd-ks0108-psoc5.c **** 		for (x=0;x<GLCD_X_BYTES;x++) 
 107              		.loc 1 434 0 discriminator 3
 108 000c 0133     		adds	r3, r3, #1
 109              	.LVL3:
 110 000e 9BB2     		uxth	r3, r3
 111              	.LVL4:
 112 0010 00E0     		b	.L11
 113              	.LVL5:
 114              	.L12:
 115 0012 0023     		movs	r3, #0
 116              	.L11:
 117              	.LVL6:
 434:glcd-ks0108-psoc5.c **** 		for (x=0;x<GLCD_X_BYTES;x++) 
 118              		.loc 1 434 0 is_stmt 0 discriminator 1
 119 0014 7F2B     		cmp	r3, #127
 120 0016 F5D9     		bls	.L10
 433:glcd-ks0108-psoc5.c **** 		for (x=0;x<GLCD_X_BYTES;x++) 
 121              		.loc 1 433 0 is_stmt 1 discriminator 2
 122 0018 0131     		adds	r1, r1, #1
 123              	.LVL7:
 124 001a 89B2     		uxth	r1, r1
 125              	.LVL8:
 126              	.L9:
 433:glcd-ks0108-psoc5.c **** 		for (x=0;x<GLCD_X_BYTES;x++) 
 127              		.loc 1 433 0 is_stmt 0 discriminator 1
 128 001c 0729     		cmp	r1, #7
 129 001e F8D9     		bls	.L12
 436:glcd-ks0108-psoc5.c **** }
 130              		.loc 1 436 0 is_stmt 1
ARM GAS  C:\Users\USUARIO\AppData\Local\Temp\cchSBxI2.s 			page 11


 131 0020 7047     		bx	lr
 132              	.L14:
 133 0022 00BF     		.align	2
 134              	.L13:
 135 0024 00000000 		.word	.LANCHOR0
 136              		.cfi_endproc
 137              	.LFE74:
 138              		.size	GLCD_FillBuffer, .-GLCD_FillBuffer
 139              		.section	.text.GLCD_Glyph,"ax",%progbits
 140              		.align	2
 141              		.thumb
 142              		.thumb_func
 143              		.type	GLCD_Glyph, %function
 144              	GLCD_Glyph:
 145              	.LFB82:
 437:glcd-ks0108-psoc5.c **** 
 438:glcd-ks0108-psoc5.c **** //-----------------------------------------------------------------------------
 439:glcd-ks0108-psoc5.c **** //  FUNCTION NAME:	GLCD_ClrScr
 440:glcd-ks0108-psoc5.c **** //
 441:glcd-ks0108-psoc5.c **** //  DESCRIPTION:
 442:glcd-ks0108-psoc5.c **** //
 443:glcd-ks0108-psoc5.c **** //	Clear memory buffer and optionally flushes to display
 444:glcd-ks0108-psoc5.c **** //
 445:glcd-ks0108-psoc5.c **** //  ARGUMENTS:
 446:glcd-ks0108-psoc5.c **** //     bufferAndDisplay		true to flush display
 447:glcd-ks0108-psoc5.c **** //
 448:glcd-ks0108-psoc5.c **** //  RETURNS:
 449:glcd-ks0108-psoc5.c **** //     none.
 450:glcd-ks0108-psoc5.c **** //
 451:glcd-ks0108-psoc5.c **** //-----------------------------------------------------------------------------
 452:glcd-ks0108-psoc5.c **** void GLCD_ClrScr(uint8 bufferAndDisplay)
 453:glcd-ks0108-psoc5.c **** {
 454:glcd-ks0108-psoc5.c **** 	GLCD_FillBuffer(0x00);
 455:glcd-ks0108-psoc5.c **** 	if ( bufferAndDisplay ) 
 456:glcd-ks0108-psoc5.c **** 		GLCD_UpdateAll();
 457:glcd-ks0108-psoc5.c **** }
 458:glcd-ks0108-psoc5.c **** 
 459:glcd-ks0108-psoc5.c **** //-----------------------------------------------------------------------------
 460:glcd-ks0108-psoc5.c **** //  FUNCTION NAME:	GLCD_Update
 461:glcd-ks0108-psoc5.c **** //
 462:glcd-ks0108-psoc5.c **** //  DESCRIPTION:
 463:glcd-ks0108-psoc5.c **** //
 464:glcd-ks0108-psoc5.c **** //	Copy buffer-RAM to display-RAM
 465:glcd-ks0108-psoc5.c **** //
 466:glcd-ks0108-psoc5.c **** //  ARGUMENTS:
 467:glcd-ks0108-psoc5.c **** //      top     top line of area to update.         
 468:glcd-ks0108-psoc5.c **** //		bottom  bottom line of area to update.
 469:glcd-ks0108-psoc5.c **** //
 470:glcd-ks0108-psoc5.c **** //  RETURNS:
 471:glcd-ks0108-psoc5.c **** //     none.
 472:glcd-ks0108-psoc5.c **** //
 473:glcd-ks0108-psoc5.c **** //-----------------------------------------------------------------------------
 474:glcd-ks0108-psoc5.c **** void GLCD_Update(uint16 top, uint16 bottom)
 475:glcd-ks0108-psoc5.c **** {
 476:glcd-ks0108-psoc5.c **** 	uint8 x, y, i;
 477:glcd-ks0108-psoc5.c **** 	uint8 yt, yb;
 478:glcd-ks0108-psoc5.c **** 	uint16 xoffset;
ARM GAS  C:\Users\USUARIO\AppData\Local\Temp\cchSBxI2.s 			page 12


 479:glcd-ks0108-psoc5.c **** 	uint8 data;
 480:glcd-ks0108-psoc5.c **** 	
 481:glcd-ks0108-psoc5.c **** 	yt = top >> 3;				/* setup bytes of range */
 482:glcd-ks0108-psoc5.c **** 	yb = bottom >> 3;
 483:glcd-ks0108-psoc5.c **** 
 484:glcd-ks0108-psoc5.c **** 	for (i=0;i<GLCD_NUMCONTROLLER;i++) {
 485:glcd-ks0108-psoc5.c **** 		GLCD_SelectChip(i);
 486:glcd-ks0108-psoc5.c **** 		for (y=yt;y<=yb;y++) {
 487:glcd-ks0108-psoc5.c **** 			GLCD_SetPage(y);
 488:glcd-ks0108-psoc5.c **** 			GLCD_SetAddress(0);
 489:glcd-ks0108-psoc5.c **** 			xoffset = i * GLCD_MAXADDRESS;
 490:glcd-ks0108-psoc5.c **** 			for (x=0;x<GLCD_MAXADDRESS;x++) {
 491:glcd-ks0108-psoc5.c **** 				data = gGLCD_buffer[y][xoffset+x];
 492:glcd-ks0108-psoc5.c **** 				if (gGLCD_inverted) data=~data;
 493:glcd-ks0108-psoc5.c **** 				GLCD_WriteData(data);
 494:glcd-ks0108-psoc5.c **** 			}
 495:glcd-ks0108-psoc5.c **** 		}
 496:glcd-ks0108-psoc5.c **** 	}
 497:glcd-ks0108-psoc5.c **** 	GLCD_SelectChip(GLCD_SELECTNONE);
 498:glcd-ks0108-psoc5.c **** }
 499:glcd-ks0108-psoc5.c **** 
 500:glcd-ks0108-psoc5.c **** //-----------------------------------------------------------------------------
 501:glcd-ks0108-psoc5.c **** //  FUNCTION NAME:	GLCD_Dot
 502:glcd-ks0108-psoc5.c **** //
 503:glcd-ks0108-psoc5.c **** //  DESCRIPTION:
 504:glcd-ks0108-psoc5.c **** //
 505:glcd-ks0108-psoc5.c **** //	Change pixel state in memory buffer
 506:glcd-ks0108-psoc5.c **** //
 507:glcd-ks0108-psoc5.c **** //  ARGUMENTS:
 508:glcd-ks0108-psoc5.c **** //      x     	
 509:glcd-ks0108-psoc5.c **** //		y		
 510:glcd-ks0108-psoc5.c **** //		mode	{GLCD_MODE_CLEAR,GLCD_MODE_SET,GLCD_MODE_XOR}
 511:glcd-ks0108-psoc5.c **** //
 512:glcd-ks0108-psoc5.c **** //  RETURNS:
 513:glcd-ks0108-psoc5.c **** //     none.
 514:glcd-ks0108-psoc5.c **** //
 515:glcd-ks0108-psoc5.c **** //-----------------------------------------------------------------------------
 516:glcd-ks0108-psoc5.c **** void GLCD_Dot(uint8 x, uint8 y, uint8 mode) {
 517:glcd-ks0108-psoc5.c **** // here 2*1 setup - TODO: for 2*2 setting
 518:glcd-ks0108-psoc5.c **** 	uint8 bitnum, bitmask, yByte;
 519:glcd-ks0108-psoc5.c **** 	
 520:glcd-ks0108-psoc5.c **** 	if ( (x>=GLCD_RIGHT) || (y>=GLCD_BOTTOM) ) return;
 521:glcd-ks0108-psoc5.c **** 	
 522:glcd-ks0108-psoc5.c **** 	yByte   = y >> 3; // / 8
 523:glcd-ks0108-psoc5.c **** 	bitnum  = y & 0x07;
 524:glcd-ks0108-psoc5.c **** 	bitmask = GLCD_MaskArray[bitnum];
 525:glcd-ks0108-psoc5.c **** 	switch (mode) {
 526:glcd-ks0108-psoc5.c **** 		case GLCD_MODE_SET:
 527:glcd-ks0108-psoc5.c **** 			gGLCD_buffer[yByte][x] |= bitmask;
 528:glcd-ks0108-psoc5.c **** 			break;
 529:glcd-ks0108-psoc5.c **** 		case GLCD_MODE_CLEAR:
 530:glcd-ks0108-psoc5.c **** 			gGLCD_buffer[yByte][x] &= ~bitmask;
 531:glcd-ks0108-psoc5.c **** 			break;
 532:glcd-ks0108-psoc5.c **** 		case GLCD_MODE_XOR:
 533:glcd-ks0108-psoc5.c **** 			gGLCD_buffer[yByte][x] ^= bitmask;
 534:glcd-ks0108-psoc5.c **** 			break;
 535:glcd-ks0108-psoc5.c **** 		default: break;
ARM GAS  C:\Users\USUARIO\AppData\Local\Temp\cchSBxI2.s 			page 13


 536:glcd-ks0108-psoc5.c **** 	}
 537:glcd-ks0108-psoc5.c **** }
 538:glcd-ks0108-psoc5.c **** 
 539:glcd-ks0108-psoc5.c **** //-----------------------------------------------------------------------------
 540:glcd-ks0108-psoc5.c **** //  FUNCTION NAME:	GLCD_Line
 541:glcd-ks0108-psoc5.c **** //
 542:glcd-ks0108-psoc5.c **** //  DESCRIPTION:
 543:glcd-ks0108-psoc5.c **** //
 544:glcd-ks0108-psoc5.c **** //	Draws line in memory buffer
 545:glcd-ks0108-psoc5.c **** //
 546:glcd-ks0108-psoc5.c **** //  ARGUMENTS:
 547:glcd-ks0108-psoc5.c **** //      x1     	
 548:glcd-ks0108-psoc5.c **** //		y1		
 549:glcd-ks0108-psoc5.c **** //      x2     	
 550:glcd-ks0108-psoc5.c **** //		y2		
 551:glcd-ks0108-psoc5.c **** //		mode	{GLCD_MODE_CLEAR,GLCD_MODE_SET,GLCD_MODE_XOR}
 552:glcd-ks0108-psoc5.c **** //
 553:glcd-ks0108-psoc5.c **** //  RETURNS:
 554:glcd-ks0108-psoc5.c **** //     none.
 555:glcd-ks0108-psoc5.c **** //
 556:glcd-ks0108-psoc5.c **** //-----------------------------------------------------------------------------
 557:glcd-ks0108-psoc5.c **** void GLCD_Line( uint8 x1, uint8 y1, 
 558:glcd-ks0108-psoc5.c **** 		uint8 x2, uint8 y2,
 559:glcd-ks0108-psoc5.c **** 		uint8 mode ) 
 560:glcd-ks0108-psoc5.c **** {
 561:glcd-ks0108-psoc5.c **** 	uint8 length, xTmp, yTmp, i, y, yAlt;
 562:glcd-ks0108-psoc5.c **** 	int16 m;
 563:glcd-ks0108-psoc5.c **** 	
 564:glcd-ks0108-psoc5.c **** 	if(x1 == x2) {									// vertical line
 565:glcd-ks0108-psoc5.c **** 		// x1|y1 must be the upper point
 566:glcd-ks0108-psoc5.c **** 		if(y1 > y2) {
 567:glcd-ks0108-psoc5.c **** 			xTmp = x1;
 568:glcd-ks0108-psoc5.c **** 			yTmp = y1;
 569:glcd-ks0108-psoc5.c **** 			x1 = x2;
 570:glcd-ks0108-psoc5.c **** 			y1 = y2;
 571:glcd-ks0108-psoc5.c **** 			x2 = xTmp;
 572:glcd-ks0108-psoc5.c **** 			y2 = yTmp;
 573:glcd-ks0108-psoc5.c **** 		}
 574:glcd-ks0108-psoc5.c **** 		
 575:glcd-ks0108-psoc5.c **** 		length = y2-y1;
 576:glcd-ks0108-psoc5.c **** 		for(i=0; i<=length; i++) {
 577:glcd-ks0108-psoc5.c **** 			GLCD_Dot(x1, y1+i, mode);
 578:glcd-ks0108-psoc5.c **** 		}
 579:glcd-ks0108-psoc5.c **** 	} else if(y1 == y2) {							// horizontal line
 580:glcd-ks0108-psoc5.c **** 		// x1|y1 must be the left point
 581:glcd-ks0108-psoc5.c **** 		if(x1 > x2) {
 582:glcd-ks0108-psoc5.c **** 			xTmp = x1;
 583:glcd-ks0108-psoc5.c **** 			yTmp = y1;
 584:glcd-ks0108-psoc5.c **** 			x1 = x2;
 585:glcd-ks0108-psoc5.c **** 			y1 = y2;
 586:glcd-ks0108-psoc5.c **** 			x2 = xTmp;
 587:glcd-ks0108-psoc5.c **** 			y2 = yTmp;
 588:glcd-ks0108-psoc5.c **** 		}
 589:glcd-ks0108-psoc5.c **** 		
 590:glcd-ks0108-psoc5.c **** 		length = x2-x1;
 591:glcd-ks0108-psoc5.c **** 		for(i=0; i<=length; i++) {
 592:glcd-ks0108-psoc5.c **** 			GLCD_Dot(x1+i, y1, mode);
ARM GAS  C:\Users\USUARIO\AppData\Local\Temp\cchSBxI2.s 			page 14


 593:glcd-ks0108-psoc5.c **** 		}
 594:glcd-ks0108-psoc5.c **** 	} else {
 595:glcd-ks0108-psoc5.c **** 		// x1 must be smaller than x2
 596:glcd-ks0108-psoc5.c **** 		if(x1 > x2) {
 597:glcd-ks0108-psoc5.c **** 			xTmp = x1;
 598:glcd-ks0108-psoc5.c **** 			yTmp = y1;
 599:glcd-ks0108-psoc5.c **** 			x1 = x2;
 600:glcd-ks0108-psoc5.c **** 			y1 = y2;
 601:glcd-ks0108-psoc5.c **** 			x2 = xTmp;
 602:glcd-ks0108-psoc5.c **** 			y2 = yTmp;
 603:glcd-ks0108-psoc5.c **** 		}
 604:glcd-ks0108-psoc5.c **** 		
 605:glcd-ks0108-psoc5.c **** 		if((y2-y1) >= (x2-x1) || (y1-y2) >= (x2-x1)) {	// angle larger or equal 45?
 606:glcd-ks0108-psoc5.c **** 			length = x2-x1;								// not really the length :)
 607:glcd-ks0108-psoc5.c **** 			m = ((y2-y1)*200)/length;
 608:glcd-ks0108-psoc5.c **** 			yAlt = y1;
 609:glcd-ks0108-psoc5.c **** 			for(i=0; i<=length; i++) {
 610:glcd-ks0108-psoc5.c **** 				y = ((m*i)/200)+y1;
 611:glcd-ks0108-psoc5.c **** 				
 612:glcd-ks0108-psoc5.c **** 				if((m*i)%200 >= 100)
 613:glcd-ks0108-psoc5.c **** 					y++;
 614:glcd-ks0108-psoc5.c **** 				else if((m*i)%200 <= -100)
 615:glcd-ks0108-psoc5.c **** 					y--;
 616:glcd-ks0108-psoc5.c **** 				
 617:glcd-ks0108-psoc5.c **** 				GLCD_Line(x1+i, yAlt, x1+i, y, mode ); /* wuff wuff recurs. */
 618:glcd-ks0108-psoc5.c **** 				if(length<=(y2-y1) && y1 < y2)
 619:glcd-ks0108-psoc5.c **** 					yAlt = y+1;
 620:glcd-ks0108-psoc5.c **** 				else if(length<=(y1-y2) && y1 > y2)
 621:glcd-ks0108-psoc5.c **** 					yAlt = y-1;
 622:glcd-ks0108-psoc5.c **** 				else
 623:glcd-ks0108-psoc5.c **** 					yAlt = y;
 624:glcd-ks0108-psoc5.c **** 			}
 625:glcd-ks0108-psoc5.c **** 		} else {										// angle smaller 45?
 626:glcd-ks0108-psoc5.c **** 			// y1 must be smaller than y2
 627:glcd-ks0108-psoc5.c **** 			if(y1 > y2) {
 628:glcd-ks0108-psoc5.c **** 				xTmp = x1;
 629:glcd-ks0108-psoc5.c **** 				yTmp = y1;
 630:glcd-ks0108-psoc5.c **** 				x1 = x2;
 631:glcd-ks0108-psoc5.c **** 				y1 = y2;
 632:glcd-ks0108-psoc5.c **** 				x2 = xTmp;
 633:glcd-ks0108-psoc5.c **** 				y2 = yTmp;
 634:glcd-ks0108-psoc5.c **** 			}
 635:glcd-ks0108-psoc5.c **** 			length = y2-y1;
 636:glcd-ks0108-psoc5.c **** 			m = ((x2-x1)*200)/length;
 637:glcd-ks0108-psoc5.c **** 			yAlt = x1;
 638:glcd-ks0108-psoc5.c **** 			for(i=0; i<=length; i++) {
 639:glcd-ks0108-psoc5.c **** 				y = ((m*i)/200)+x1;
 640:glcd-ks0108-psoc5.c **** 				
 641:glcd-ks0108-psoc5.c **** 				if((m*i)%200 >= 100)
 642:glcd-ks0108-psoc5.c **** 					y++;
 643:glcd-ks0108-psoc5.c **** 				else if((m*i)%200 <= -100)
 644:glcd-ks0108-psoc5.c **** 					y--;
 645:glcd-ks0108-psoc5.c **** 				
 646:glcd-ks0108-psoc5.c **** 				GLCD_Line(yAlt, y1+i, y, y1+i, mode); /* wuff */
 647:glcd-ks0108-psoc5.c **** 				if(length<=(x2-x1) && x1 < x2)
 648:glcd-ks0108-psoc5.c **** 					yAlt = y+1;
 649:glcd-ks0108-psoc5.c **** 				else if(length<=(x1-x2) && x1 > x2)
ARM GAS  C:\Users\USUARIO\AppData\Local\Temp\cchSBxI2.s 			page 15


 650:glcd-ks0108-psoc5.c **** 					yAlt = y-1;
 651:glcd-ks0108-psoc5.c **** 				else
 652:glcd-ks0108-psoc5.c **** 					yAlt = y;
 653:glcd-ks0108-psoc5.c **** 			}
 654:glcd-ks0108-psoc5.c **** 		}
 655:glcd-ks0108-psoc5.c **** 	}
 656:glcd-ks0108-psoc5.c **** }
 657:glcd-ks0108-psoc5.c **** 
 658:glcd-ks0108-psoc5.c **** //-----------------------------------------------------------------------------
 659:glcd-ks0108-psoc5.c **** //  FUNCTION NAME:	GLCD_Rect
 660:glcd-ks0108-psoc5.c **** //
 661:glcd-ks0108-psoc5.c **** //  DESCRIPTION:
 662:glcd-ks0108-psoc5.c **** //
 663:glcd-ks0108-psoc5.c **** //	Draws rectangle in memory buffer
 664:glcd-ks0108-psoc5.c **** //
 665:glcd-ks0108-psoc5.c **** //  ARGUMENTS:
 666:glcd-ks0108-psoc5.c **** //      x     	
 667:glcd-ks0108-psoc5.c **** //		y		
 668:glcd-ks0108-psoc5.c **** //      width  	
 669:glcd-ks0108-psoc5.c **** //		height
 670:glcd-ks0108-psoc5.c **** //		mode	{GLCD_MODE_CLEAR,GLCD_MODE_SET,GLCD_MODE_XOR}
 671:glcd-ks0108-psoc5.c **** //
 672:glcd-ks0108-psoc5.c **** //  RETURNS:
 673:glcd-ks0108-psoc5.c **** //     none.
 674:glcd-ks0108-psoc5.c **** //
 675:glcd-ks0108-psoc5.c **** //-----------------------------------------------------------------------------
 676:glcd-ks0108-psoc5.c **** void GLCD_Rect(uint8 x, uint8 y, uint8 width, uint8 height,
 677:glcd-ks0108-psoc5.c **** 		uint8 mode) 
 678:glcd-ks0108-psoc5.c **** {
 679:glcd-ks0108-psoc5.c **** 	width--;
 680:glcd-ks0108-psoc5.c **** 	height--;
 681:glcd-ks0108-psoc5.c **** 	GLCD_Line(x, y, x+width, y, mode);		// top
 682:glcd-ks0108-psoc5.c **** 	GLCD_Line(x, y, x, y+height, mode);	// left
 683:glcd-ks0108-psoc5.c **** 	GLCD_Line(x, y+height, x+width, y+height, mode);	// bottom
 684:glcd-ks0108-psoc5.c **** 	GLCD_Line(x+width, y, x+width, y+height, mode);	// right
 685:glcd-ks0108-psoc5.c **** }
 686:glcd-ks0108-psoc5.c **** 
 687:glcd-ks0108-psoc5.c **** //-----------------------------------------------------------------------------
 688:glcd-ks0108-psoc5.c **** //  FUNCTION NAME:	GLCD_Box
 689:glcd-ks0108-psoc5.c **** //
 690:glcd-ks0108-psoc5.c **** //  DESCRIPTION:
 691:glcd-ks0108-psoc5.c **** //
 692:glcd-ks0108-psoc5.c **** //	Draws box in memory buffer
 693:glcd-ks0108-psoc5.c **** //
 694:glcd-ks0108-psoc5.c **** //  ARGUMENTS:
 695:glcd-ks0108-psoc5.c **** //      x     
 696:glcd-ks0108-psoc5.c **** //		y	
 697:glcd-ks0108-psoc5.c **** //      width  	
 698:glcd-ks0108-psoc5.c **** //		height	
 699:glcd-ks0108-psoc5.c **** //		mode	{GLCD_MODE_CLEAR,GLCD_MODE_SET,GLCD_MODE_XOR}
 700:glcd-ks0108-psoc5.c **** //
 701:glcd-ks0108-psoc5.c **** //  RETURNS:
 702:glcd-ks0108-psoc5.c **** //     none.
 703:glcd-ks0108-psoc5.c **** //
 704:glcd-ks0108-psoc5.c **** //-----------------------------------------------------------------------------
 705:glcd-ks0108-psoc5.c **** void GLCD_Box(uint8 x, uint8 y, uint8 width, uint8 height,
 706:glcd-ks0108-psoc5.c **** 		uint8 mode) 
ARM GAS  C:\Users\USUARIO\AppData\Local\Temp\cchSBxI2.s 			page 16


 707:glcd-ks0108-psoc5.c **** {
 708:glcd-ks0108-psoc5.c **** 	uint8 i;
 709:glcd-ks0108-psoc5.c **** 	
 710:glcd-ks0108-psoc5.c **** 	if (!width) return; 
 711:glcd-ks0108-psoc5.c **** 	
 712:glcd-ks0108-psoc5.c **** 	width--;
 713:glcd-ks0108-psoc5.c **** 	
 714:glcd-ks0108-psoc5.c **** 	for (i=y;i<y+height;i++) 
 715:glcd-ks0108-psoc5.c **** 		GLCD_Line(x, i, x+width, i, mode);
 716:glcd-ks0108-psoc5.c **** }
 717:glcd-ks0108-psoc5.c **** 
 718:glcd-ks0108-psoc5.c **** //-----------------------------------------------------------------------------
 719:glcd-ks0108-psoc5.c **** //  FUNCTION NAME:	GLCD_Circle
 720:glcd-ks0108-psoc5.c **** //
 721:glcd-ks0108-psoc5.c **** //  DESCRIPTION:
 722:glcd-ks0108-psoc5.c **** //
 723:glcd-ks0108-psoc5.c **** //	Draws box in memory buffer
 724:glcd-ks0108-psoc5.c **** //
 725:glcd-ks0108-psoc5.c **** //  ARGUMENTS:
 726:glcd-ks0108-psoc5.c **** //      xCenter     
 727:glcd-ks0108-psoc5.c **** //		yCenter		
 728:glcd-ks0108-psoc5.c **** //      radius  	
 729:glcd-ks0108-psoc5.c **** //		mode	{GLCD_MODE_CLEAR,GLCD_MODE_SET,GLCD_MODE_XOR}
 730:glcd-ks0108-psoc5.c **** //
 731:glcd-ks0108-psoc5.c **** //  RETURNS:
 732:glcd-ks0108-psoc5.c **** //     none.
 733:glcd-ks0108-psoc5.c **** //
 734:glcd-ks0108-psoc5.c **** //-----------------------------------------------------------------------------
 735:glcd-ks0108-psoc5.c **** void GLCD_Circle(uint8 xCenter, uint8 yCenter, 
 736:glcd-ks0108-psoc5.c **** 		uint8 radius, uint8 mode) 
 737:glcd-ks0108-psoc5.c **** {
 738:glcd-ks0108-psoc5.c ****   	int16 tSwitch, y, x = 0;
 739:glcd-ks0108-psoc5.c ****   	uint8 d;
 740:glcd-ks0108-psoc5.c **** 
 741:glcd-ks0108-psoc5.c ****   	d = yCenter - xCenter;
 742:glcd-ks0108-psoc5.c ****   	y = radius;
 743:glcd-ks0108-psoc5.c ****   	tSwitch = 3 - 2 * radius;
 744:glcd-ks0108-psoc5.c ****   	
 745:glcd-ks0108-psoc5.c ****   	while (x <= y) {
 746:glcd-ks0108-psoc5.c ****     	GLCD_Dot(xCenter + x, yCenter + y, mode);
 747:glcd-ks0108-psoc5.c ****     	GLCD_Dot(xCenter + x, yCenter - y, mode);
 748:glcd-ks0108-psoc5.c ****     	
 749:glcd-ks0108-psoc5.c ****     	GLCD_Dot(xCenter - x, yCenter + y, mode);
 750:glcd-ks0108-psoc5.c ****     	GLCD_Dot(xCenter - x, yCenter - y, mode);
 751:glcd-ks0108-psoc5.c ****     	
 752:glcd-ks0108-psoc5.c ****     	GLCD_Dot(yCenter + y - d, yCenter + x, mode);
 753:glcd-ks0108-psoc5.c ****     	GLCD_Dot(yCenter + y - d, yCenter - x, mode);
 754:glcd-ks0108-psoc5.c ****     	
 755:glcd-ks0108-psoc5.c ****     	GLCD_Dot(yCenter - y - d, yCenter + x, mode);
 756:glcd-ks0108-psoc5.c ****     	GLCD_Dot(yCenter - y - d, yCenter - x, mode);
 757:glcd-ks0108-psoc5.c **** 
 758:glcd-ks0108-psoc5.c ****     	if (tSwitch < 0) {
 759:glcd-ks0108-psoc5.c ****     		tSwitch += (4 * x + 6);
 760:glcd-ks0108-psoc5.c ****     	} else {
 761:glcd-ks0108-psoc5.c ****       		tSwitch += (4 * (x - y) + 10);
 762:glcd-ks0108-psoc5.c ****       		y--;
 763:glcd-ks0108-psoc5.c ****     	}
ARM GAS  C:\Users\USUARIO\AppData\Local\Temp\cchSBxI2.s 			page 17


 764:glcd-ks0108-psoc5.c ****     	x++;
 765:glcd-ks0108-psoc5.c ****   	}
 766:glcd-ks0108-psoc5.c **** }
 767:glcd-ks0108-psoc5.c **** 
 768:glcd-ks0108-psoc5.c **** //-----------------------------------------------------------------------------
 769:glcd-ks0108-psoc5.c **** //  FUNCTION NAME:	GLCD_Glyph
 770:glcd-ks0108-psoc5.c **** //
 771:glcd-ks0108-psoc5.c **** //  DESCRIPTION:
 772:glcd-ks0108-psoc5.c **** //
 773:glcd-ks0108-psoc5.c **** //	Writes a glyph("letter") to the display at location x,y
 774:glcd-ks0108-psoc5.c **** //	(adapted function from the MJK-code)
 775:glcd-ks0108-psoc5.c **** //
 776:glcd-ks0108-psoc5.c **** //  ARGUMENTS:
 777:glcd-ks0108-psoc5.c **** //      column    - x coordinate of the left part of glyph          
 778:glcd-ks0108-psoc5.c **** //		row       - y coordinate of the top part of glyph       
 779:glcd-ks0108-psoc5.c **** //      width  	  - size in pixels of the width of the glyph    
 780:glcd-ks0108-psoc5.c **** //		height 	  - size in pixels of the height of the glyph   
 781:glcd-ks0108-psoc5.c **** //		glyph     - an unsigned char pointer to the glyph pixels 
 782:glcd-ks0108-psoc5.c **** //        			to write assumed to be of length "width"
 783:glcd-ks0108-psoc5.c **** //  RETURNS:
 784:glcd-ks0108-psoc5.c **** //     none.
 785:glcd-ks0108-psoc5.c **** //
 786:glcd-ks0108-psoc5.c **** //-----------------------------------------------------------------------------
 787:glcd-ks0108-psoc5.c **** void GLCD_Glyph(uint8 left, uint8 top,
 788:glcd-ks0108-psoc5.c **** 			   uint8 width, uint8 height,
 789:glcd-ks0108-psoc5.c **** 			   const uint8 *glyph, uint8 store_width)
 790:glcd-ks0108-psoc5.c **** {
 146              		.loc 1 790 0
 147              		.cfi_startproc
 148              		@ args = 8, pretend = 0, frame = 16
 149              		@ frame_needed = 0, uses_anonymous_args = 0
 150              	.LVL9:
 151 0000 2DE9F04F 		push	{r4, r5, r6, r7, r8, r9, r10, fp, lr}
 152              		.cfi_def_cfa_offset 36
 153              		.cfi_offset 4, -36
 154              		.cfi_offset 5, -32
 155              		.cfi_offset 6, -28
 156              		.cfi_offset 7, -24
 157              		.cfi_offset 8, -20
 158              		.cfi_offset 9, -16
 159              		.cfi_offset 10, -12
 160              		.cfi_offset 11, -8
 161              		.cfi_offset 14, -4
 162 0004 85B0     		sub	sp, sp, #20
 163              		.cfi_def_cfa_offset 56
 164 0006 0291     		str	r1, [sp, #8]
 165 0008 0192     		str	r2, [sp, #4]
 166 000a 0393     		str	r3, [sp, #12]
 167 000c 9DF83CC0 		ldrb	ip, [sp, #60]	@ zero_extendqisi2
 791:glcd-ks0108-psoc5.c **** 	uint8 bit_pos;
 792:glcd-ks0108-psoc5.c **** 	uint8 byte_offset;
 793:glcd-ks0108-psoc5.c **** 	uint8 y_bits;
 794:glcd-ks0108-psoc5.c **** 	uint8 remaining_bits;
 795:glcd-ks0108-psoc5.c **** 	uint8 mask;
 796:glcd-ks0108-psoc5.c **** 	uint8 char_mask;
 797:glcd-ks0108-psoc5.c **** 	uint8 x;
 798:glcd-ks0108-psoc5.c **** 	const uint8 *glyph_scan;
ARM GAS  C:\Users\USUARIO\AppData\Local\Temp\cchSBxI2.s 			page 18


 799:glcd-ks0108-psoc5.c **** 	uint8 glyph_offset;
 800:glcd-ks0108-psoc5.c **** 
 801:glcd-ks0108-psoc5.c ****   	bit_pos = top & 0x07;		/* get the bit offset into a byte */
 168              		.loc 1 801 0
 169 0010 01F0070A 		and	r10, r1, #7
 170              	.LVL10:
 802:glcd-ks0108-psoc5.c **** 
 803:glcd-ks0108-psoc5.c **** 	glyph_offset = 0;			/* start at left side of the glyph rasters */
 804:glcd-ks0108-psoc5.c ****     char_mask = 0x80;			/* initial character glyph mask */
 805:glcd-ks0108-psoc5.c **** 
 806:glcd-ks0108-psoc5.c ****   	for (x = left; x < (left + width); x++)
 171              		.loc 1 806 0
 172 0014 8046     		mov	r8, r0
 803:glcd-ks0108-psoc5.c ****     char_mask = 0x80;			/* initial character glyph mask */
 173              		.loc 1 803 0
 174 0016 4FF00009 		mov	r9, #0
 804:glcd-ks0108-psoc5.c **** 
 175              		.loc 1 804 0
 176 001a 4FF0800E 		mov	lr, #128
 177              		.loc 1 806 0
 178 001e 40E0     		b	.L16
 179              	.LVL11:
 180              	.L24:
 807:glcd-ks0108-psoc5.c ****   	{
 808:glcd-ks0108-psoc5.c ****     	byte_offset = top >> 3;        	/* get the byte offset into y direction */
 181              		.loc 1 808 0
 182 0020 029B     		ldr	r3, [sp, #8]
 183 0022 DC08     		lsrs	r4, r3, #3
 184              	.LVL12:
 809:glcd-ks0108-psoc5.c **** 		y_bits = height;				/* get length in y direction to write */
 810:glcd-ks0108-psoc5.c **** 		remaining_bits = 8 - bit_pos;	/* number of bits left in byte */
 185              		.loc 1 810 0
 186 0024 CAF10803 		rsb	r3, r10, #8
 187 0028 DBB2     		uxtb	r3, r3
 188              	.LVL13:
 811:glcd-ks0108-psoc5.c **** 		mask = GLCD_MaskArray[bit_pos];	/* get mask for this bit */
 189              		.loc 1 811 0
 190 002a 224A     		ldr	r2, .L26
 191 002c 12F80A20 		ldrb	r2, [r2, r10]	@ zero_extendqisi2
 192              	.LVL14:
 812:glcd-ks0108-psoc5.c **** 		glyph_scan = glyph + glyph_offset;	 /* point to base of the glyph */
 193              		.loc 1 812 0
 194 0030 0E99     		ldr	r1, [sp, #56]
 195 0032 01EB0905 		add	r5, r1, r9
 196              	.LVL15:
 809:glcd-ks0108-psoc5.c **** 		y_bits = height;				/* get length in y direction to write */
 197              		.loc 1 809 0
 198 0036 0399     		ldr	r1, [sp, #12]
 813:glcd-ks0108-psoc5.c **** 
 814:glcd-ks0108-psoc5.c ****     	/* boundary checking here to account for the possibility of  */
 815:glcd-ks0108-psoc5.c ****     	/* write past the bottom of the screen.                        */
 816:glcd-ks0108-psoc5.c ****     	while((y_bits) && (byte_offset < GLCD_Y_BYTES)) /* while there are bits still to write */
 199              		.loc 1 816 0
 200 0038 23E0     		b	.L17
 201              	.LVL16:
 202              	.L22:
 817:glcd-ks0108-psoc5.c ****     	{
ARM GAS  C:\Users\USUARIO\AppData\Local\Temp\cchSBxI2.s 			page 19


 818:glcd-ks0108-psoc5.c **** 			/* check if the character pixel is set or not */
 819:glcd-ks0108-psoc5.c **** 			if(*glyph_scan & char_mask)
 203              		.loc 1 819 0
 204 003a 2E78     		ldrb	r6, [r5]	@ zero_extendqisi2
 205 003c 1EEA060F 		tst	lr, r6
 206 0040 09D0     		beq	.L18
 820:glcd-ks0108-psoc5.c **** 			{
 821:glcd-ks0108-psoc5.c **** 				gGLCD_buffer[byte_offset][x] |= mask;	/* set image pixel */
 207              		.loc 1 821 0
 208 0042 1D4E     		ldr	r6, .L26+4
 209 0044 06EBC416 		add	r6, r6, r4, lsl #7
 210 0048 16F807B0 		ldrb	fp, [r6, r7]	@ zero_extendqisi2
 211 004c 42EA0B0B 		orr	fp, r2, fp
 212 0050 06F807B0 		strb	fp, [r6, r7]
 213 0054 08E0     		b	.L19
 214              	.L18:
 822:glcd-ks0108-psoc5.c **** 			}
 823:glcd-ks0108-psoc5.c **** 			else
 824:glcd-ks0108-psoc5.c **** 			{
 825:glcd-ks0108-psoc5.c ****       			gGLCD_buffer[byte_offset][x] &= ~mask;	/* clear the image pixel */
 215              		.loc 1 825 0
 216 0056 184E     		ldr	r6, .L26+4
 217 0058 06EBC416 		add	r6, r6, r4, lsl #7
 218 005c 16F807B0 		ldrb	fp, [r6, r7]	@ zero_extendqisi2
 219 0060 2BEA020B 		bic	fp, fp, r2
 220 0064 06F807B0 		strb	fp, [r6, r7]
 221              	.L19:
 826:glcd-ks0108-psoc5.c **** 			}
 827:glcd-ks0108-psoc5.c **** 
 828:glcd-ks0108-psoc5.c **** 			if(GLCD_MaskArray[0] & 0x80)
 829:glcd-ks0108-psoc5.c **** 			{
 830:glcd-ks0108-psoc5.c **** 				mask >>= 1;
 831:glcd-ks0108-psoc5.c **** 			}
 832:glcd-ks0108-psoc5.c **** 			else
 833:glcd-ks0108-psoc5.c **** 			{
 834:glcd-ks0108-psoc5.c **** 				mask <<= 1;
 222              		.loc 1 834 0
 223 0068 5200     		lsls	r2, r2, #1
 224              	.LVL17:
 225 006a D2B2     		uxtb	r2, r2
 226              	.LVL18:
 835:glcd-ks0108-psoc5.c **** 			}
 836:glcd-ks0108-psoc5.c **** 			
 837:glcd-ks0108-psoc5.c **** 			y_bits--;
 227              		.loc 1 837 0
 228 006c 0139     		subs	r1, r1, #1
 229              	.LVL19:
 230 006e C9B2     		uxtb	r1, r1
 231              	.LVL20:
 838:glcd-ks0108-psoc5.c **** 			remaining_bits--;
 232              		.loc 1 838 0
 233 0070 013B     		subs	r3, r3, #1
 234              	.LVL21:
 839:glcd-ks0108-psoc5.c ****       		if(remaining_bits == 0)
 235              		.loc 1 839 0
 236 0072 13F0FF03 		ands	r3, r3, #255
 237              	.LVL22:
ARM GAS  C:\Users\USUARIO\AppData\Local\Temp\cchSBxI2.s 			page 20


 238 0076 03D1     		bne	.L20
 239              	.LVL23:
 840:glcd-ks0108-psoc5.c ****       		{
 841:glcd-ks0108-psoc5.c **** 				/* just crossed over a byte boundry, reset byte counts */
 842:glcd-ks0108-psoc5.c **** 				remaining_bits = 8;
 843:glcd-ks0108-psoc5.c **** 				byte_offset++;
 240              		.loc 1 843 0
 241 0078 0134     		adds	r4, r4, #1
 242              	.LVL24:
 243 007a E4B2     		uxtb	r4, r4
 244              	.LVL25:
 844:glcd-ks0108-psoc5.c **** 				mask = GLCD_MaskArray[0];
 245              		.loc 1 844 0
 246 007c 0122     		movs	r2, #1
 842:glcd-ks0108-psoc5.c **** 				byte_offset++;
 247              		.loc 1 842 0
 248 007e 0823     		movs	r3, #8
 249              	.LVL26:
 250              	.L20:
 845:glcd-ks0108-psoc5.c ****       		}
 846:glcd-ks0108-psoc5.c **** 
 847:glcd-ks0108-psoc5.c **** 			/* bump the glyph scan to next raster */
 848:glcd-ks0108-psoc5.c **** 			glyph_scan += store_width;
 251              		.loc 1 848 0
 252 0080 6544     		add	r5, r5, ip
 253              	.LVL27:
 254              	.L17:
 816:glcd-ks0108-psoc5.c ****     	{
 255              		.loc 1 816 0
 256 0082 09B1     		cbz	r1, .L21
 816:glcd-ks0108-psoc5.c ****     	{
 257              		.loc 1 816 0 is_stmt 0 discriminator 1
 258 0084 072C     		cmp	r4, #7
 259 0086 D8D9     		bls	.L22
 260              	.L21:
 261              	.LVL28:
 849:glcd-ks0108-psoc5.c **** 		}
 850:glcd-ks0108-psoc5.c **** 
 851:glcd-ks0108-psoc5.c **** 		/* shift over to next glyph bit */
 852:glcd-ks0108-psoc5.c **** 		char_mask >>= 1;
 853:glcd-ks0108-psoc5.c **** 		if(char_mask == 0)				/* reset for next byte in raster */
 262              		.loc 1 853 0 is_stmt 1
 263 0088 5FEA5E0E 		lsrs	lr, lr, #1
 264              	.LVL29:
 265 008c 05D1     		bne	.L23
 266              	.LVL30:
 854:glcd-ks0108-psoc5.c **** 		{
 855:glcd-ks0108-psoc5.c **** 			char_mask = 0x80;
 856:glcd-ks0108-psoc5.c **** 			glyph_offset++;
 267              		.loc 1 856 0
 268 008e 09F10109 		add	r9, r9, #1
 269              	.LVL31:
 270 0092 5FFA89F9 		uxtb	r9, r9
 271              	.LVL32:
 855:glcd-ks0108-psoc5.c **** 			glyph_offset++;
 272              		.loc 1 855 0
 273 0096 4FF0800E 		mov	lr, #128
ARM GAS  C:\Users\USUARIO\AppData\Local\Temp\cchSBxI2.s 			page 21


 274              	.LVL33:
 275              	.L23:
 806:glcd-ks0108-psoc5.c ****   	{
 276              		.loc 1 806 0 discriminator 2
 277 009a 08F10108 		add	r8, r8, #1
 278              	.LVL34:
 279 009e 5FFA88F8 		uxtb	r8, r8
 280              	.LVL35:
 281              	.L16:
 806:glcd-ks0108-psoc5.c ****   	{
 282              		.loc 1 806 0 is_stmt 0 discriminator 1
 283 00a2 4746     		mov	r7, r8
 284 00a4 019B     		ldr	r3, [sp, #4]
 285 00a6 C318     		adds	r3, r0, r3
 286 00a8 9845     		cmp	r8, r3
 287 00aa B9DB     		blt	.L24
 857:glcd-ks0108-psoc5.c **** 	    }
 858:glcd-ks0108-psoc5.c **** 	}
 859:glcd-ks0108-psoc5.c **** }
 288              		.loc 1 859 0 is_stmt 1
 289 00ac 05B0     		add	sp, sp, #20
 290              		.cfi_def_cfa_offset 36
 291              		@ sp needed
 292 00ae BDE8F08F 		pop	{r4, r5, r6, r7, r8, r9, r10, fp, pc}
 293              	.LVL36:
 294              	.L27:
 295 00b2 00BF     		.align	2
 296              	.L26:
 297 00b4 00000000 		.word	.LANCHOR1
 298 00b8 00000000 		.word	.LANCHOR0
 299              		.cfi_endproc
 300              	.LFE82:
 301              		.size	GLCD_Glyph, .-GLCD_Glyph
 302              		.section	.text.GLCD_TimerSet,"ax",%progbits
 303              		.align	2
 304              		.thumb
 305              		.thumb_func
 306              		.type	GLCD_TimerSet, %function
 307              	GLCD_TimerSet:
 308              	.LFB66:
 249:glcd-ks0108-psoc5.c **** 	Timer_LCD_WriteCounter(count+1);
 309              		.loc 1 249 0
 310              		.cfi_startproc
 311              		@ args = 0, pretend = 0, frame = 0
 312              		@ frame_needed = 0, uses_anonymous_args = 0
 313              	.LVL37:
 314 0000 08B5     		push	{r3, lr}
 315              		.cfi_def_cfa_offset 8
 316              		.cfi_offset 3, -8
 317              		.cfi_offset 14, -4
 250:glcd-ks0108-psoc5.c **** }
 318              		.loc 1 250 0
 319 0002 0130     		adds	r0, r0, #1
 320              	.LVL38:
 321 0004 FFF7FEFF 		bl	Timer_LCD_WriteCounter
 322              	.LVL39:
 323 0008 08BD     		pop	{r3, pc}
ARM GAS  C:\Users\USUARIO\AppData\Local\Temp\cchSBxI2.s 			page 22


 324              		.cfi_endproc
 325              	.LFE66:
 326              		.size	GLCD_TimerSet, .-GLCD_TimerSet
 327 000a 00BF     		.section	.text.GLCD_SetupIO,"ax",%progbits
 328              		.align	2
 329              		.thumb
 330              		.thumb_func
 331              		.type	GLCD_SetupIO, %function
 332              	GLCD_SetupIO:
 333              	.LFB63:
 165:glcd-ks0108-psoc5.c **** 	LCD_DATA_Write(0);
 334              		.loc 1 165 0
 335              		.cfi_startproc
 336              		@ args = 0, pretend = 0, frame = 0
 337              		@ frame_needed = 0, uses_anonymous_args = 0
 338 0000 08B5     		push	{r3, lr}
 339              		.cfi_def_cfa_offset 8
 340              		.cfi_offset 3, -8
 341              		.cfi_offset 14, -4
 166:glcd-ks0108-psoc5.c **** 	
 342              		.loc 1 166 0
 343 0002 0020     		movs	r0, #0
 344 0004 FFF7FEFF 		bl	LCD_DATA_Write
 345              	.LVL40:
 168:glcd-ks0108-psoc5.c **** 	CyPins_ClearPin(LCDC_CS1);
 346              		.loc 1 168 0
 347 0008 114A     		ldr	r2, .L32
 348 000a 1378     		ldrb	r3, [r2]	@ zero_extendqisi2
 349 000c 03F0FE03 		and	r3, r3, #254
 350 0010 1370     		strb	r3, [r2]
 169:glcd-ks0108-psoc5.c **** 	CyPins_ClearPin(LCDC_CS2);
 351              		.loc 1 169 0
 352 0012 0332     		adds	r2, r2, #3
 353 0014 1378     		ldrb	r3, [r2]	@ zero_extendqisi2
 354 0016 03F0FE03 		and	r3, r3, #254
 355 001a 1370     		strb	r3, [r2]
 170:glcd-ks0108-psoc5.c **** 	CyPins_ClearPin(LCDC_DI);
 356              		.loc 1 170 0
 357 001c 233A     		subs	r2, r2, #35
 358 001e 1378     		ldrb	r3, [r2]	@ zero_extendqisi2
 359 0020 03F0FE03 		and	r3, r3, #254
 360 0024 1370     		strb	r3, [r2]
 171:glcd-ks0108-psoc5.c **** 
 361              		.loc 1 171 0
 362 0026 0232     		adds	r2, r2, #2
 363 0028 1378     		ldrb	r3, [r2]	@ zero_extendqisi2
 364 002a 03F0FE03 		and	r3, r3, #254
 365 002e 1370     		strb	r3, [r2]
 173:glcd-ks0108-psoc5.c **** 	CyPins_SetPin(LCDC_RST);
 366              		.loc 1 173 0
 367 0030 084B     		ldr	r3, .L32+4
 368 0032 1A78     		ldrb	r2, [r3]	@ zero_extendqisi2
 369 0034 02F0FE02 		and	r2, r2, #254
 370 0038 1A70     		strb	r2, [r3]
 174:glcd-ks0108-psoc5.c **** 	
 371              		.loc 1 174 0
 372 003a 1A78     		ldrb	r2, [r3]	@ zero_extendqisi2
ARM GAS  C:\Users\USUARIO\AppData\Local\Temp\cchSBxI2.s 			page 23


 373 003c 42F00102 		orr	r2, r2, #1
 374 0040 1A70     		strb	r2, [r3]
 176:glcd-ks0108-psoc5.c **** 	GLCD_TimerSet(NS_TO_COUNT(BUSY_TIME_NS));
 375              		.loc 1 176 0
 376 0042 FFF7FEFF 		bl	Timer_LCD_Start
 377              	.LVL41:
 177:glcd-ks0108-psoc5.c **** }
 378              		.loc 1 177 0
 379 0046 1820     		movs	r0, #24
 380 0048 FFF7FEFF 		bl	GLCD_TimerSet
 381              	.LVL42:
 382 004c 08BD     		pop	{r3, pc}
 383              	.L33:
 384 004e 00BF     		.align	2
 385              	.L32:
 386 0050 34500040 		.word	1073762356
 387 0054 20500040 		.word	1073762336
 388              		.cfi_endproc
 389              	.LFE63:
 390              		.size	GLCD_SetupIO, .-GLCD_SetupIO
 391              		.section	.text.GLCD_TimerWait,"ax",%progbits
 392              		.align	2
 393              		.thumb
 394              		.thumb_func
 395              		.type	GLCD_TimerWait, %function
 396              	GLCD_TimerWait:
 397              	.LFB65:
 229:glcd-ks0108-psoc5.c **** 	while (Timer_LCD_ReadCounter()!=0)
 398              		.loc 1 229 0
 399              		.cfi_startproc
 400              		@ args = 0, pretend = 0, frame = 0
 401              		@ frame_needed = 0, uses_anonymous_args = 0
 402 0000 08B5     		push	{r3, lr}
 403              		.cfi_def_cfa_offset 8
 404              		.cfi_offset 3, -8
 405              		.cfi_offset 14, -4
 406              	.L35:
 407              	.LBB2:
 230:glcd-ks0108-psoc5.c **** 	{;}
 408              		.loc 1 230 0 discriminator 1
 409 0002 FFF7FEFF 		bl	Timer_LCD_ReadCounter
 410              	.LVL43:
 411 0006 0028     		cmp	r0, #0
 412 0008 FBD1     		bne	.L35
 413              	.LBE2:
 232:glcd-ks0108-psoc5.c **** 
 414              		.loc 1 232 0
 415 000a 08BD     		pop	{r3, pc}
 416              		.cfi_endproc
 417              	.LFE65:
 418              		.size	GLCD_TimerWait, .-GLCD_TimerWait
 419              		.section	.text.GLCD_WriteDataCmd,"ax",%progbits
 420              		.align	2
 421              		.thumb
 422              		.thumb_func
 423              		.type	GLCD_WriteDataCmd, %function
 424              	GLCD_WriteDataCmd:
ARM GAS  C:\Users\USUARIO\AppData\Local\Temp\cchSBxI2.s 			page 24


 425              	.LFB67:
 269:glcd-ks0108-psoc5.c **** 	GLCD_TimerWait();
 426              		.loc 1 269 0
 427              		.cfi_startproc
 428              		@ args = 0, pretend = 0, frame = 0
 429              		@ frame_needed = 0, uses_anonymous_args = 0
 430              	.LVL44:
 431 0000 38B5     		push	{r3, r4, r5, lr}
 432              		.cfi_def_cfa_offset 16
 433              		.cfi_offset 3, -16
 434              		.cfi_offset 4, -12
 435              		.cfi_offset 5, -8
 436              		.cfi_offset 14, -4
 437 0002 0446     		mov	r4, r0
 438 0004 0D46     		mov	r5, r1
 270:glcd-ks0108-psoc5.c **** 	
 439              		.loc 1 270 0
 440 0006 FFF7FEFF 		bl	GLCD_TimerWait
 441              	.LVL45:
 272:glcd-ks0108-psoc5.c **** 		CyPins_ClearPin(LCDC_DI);	// DI to 0 (command)																							
 442              		.loc 1 272 0
 443 000a 2DB9     		cbnz	r5, .L38
 273:glcd-ks0108-psoc5.c **** 	else
 444              		.loc 1 273 0
 445 000c 124A     		ldr	r2, .L41
 446 000e 1378     		ldrb	r3, [r2]	@ zero_extendqisi2
 447 0010 03F0FE03 		and	r3, r3, #254
 448 0014 1370     		strb	r3, [r2]
 449 0016 04E0     		b	.L39
 450              	.L38:
 275:glcd-ks0108-psoc5.c **** 
 451              		.loc 1 275 0
 452 0018 0F4A     		ldr	r2, .L41
 453 001a 1378     		ldrb	r3, [r2]	@ zero_extendqisi2
 454 001c 43F00103 		orr	r3, r3, #1
 455 0020 1370     		strb	r3, [r2]
 456              	.L39:
 278:glcd-ks0108-psoc5.c **** 	GLCD_TimerWait();
 457              		.loc 1 278 0
 458 0022 0320     		movs	r0, #3
 459 0024 FFF7FEFF 		bl	GLCD_TimerSet
 460              	.LVL46:
 279:glcd-ks0108-psoc5.c **** 
 461              		.loc 1 279 0
 462 0028 FFF7FEFF 		bl	GLCD_TimerWait
 463              	.LVL47:
 281:glcd-ks0108-psoc5.c **** 	
 464              		.loc 1 281 0
 465 002c 2046     		mov	r0, r4
 466 002e FFF7FEFF 		bl	LCD_DATA_Write
 467              	.LVL48:
 283:glcd-ks0108-psoc5.c **** 									// Need E high for at least 450ns
 468              		.loc 1 283 0
 469 0032 0A4C     		ldr	r4, .L41+4
 470 0034 2378     		ldrb	r3, [r4]	@ zero_extendqisi2
 471 0036 43F00103 		orr	r3, r3, #1
 472 003a 2370     		strb	r3, [r4]
ARM GAS  C:\Users\USUARIO\AppData\Local\Temp\cchSBxI2.s 			page 25


 285:glcd-ks0108-psoc5.c **** 	GLCD_TimerWait();
 473              		.loc 1 285 0
 474 003c 0A20     		movs	r0, #10
 475 003e FFF7FEFF 		bl	GLCD_TimerSet
 476              	.LVL49:
 286:glcd-ks0108-psoc5.c **** 	CyPins_ClearPin(LCDC_E);
 477              		.loc 1 286 0
 478 0042 FFF7FEFF 		bl	GLCD_TimerWait
 479              	.LVL50:
 287:glcd-ks0108-psoc5.c **** 									// Starts busy wait time
 480              		.loc 1 287 0
 481 0046 2378     		ldrb	r3, [r4]	@ zero_extendqisi2
 482 0048 03F0FE03 		and	r3, r3, #254
 483 004c 2370     		strb	r3, [r4]
 289:glcd-ks0108-psoc5.c **** }
 484              		.loc 1 289 0
 485 004e 1820     		movs	r0, #24
 486 0050 FFF7FEFF 		bl	GLCD_TimerSet
 487              	.LVL51:
 488 0054 38BD     		pop	{r3, r4, r5, pc}
 489              	.L42:
 490 0056 00BF     		.align	2
 491              	.L41:
 492 0058 16500040 		.word	1073762326
 493 005c 34500040 		.word	1073762356
 494              		.cfi_endproc
 495              	.LFE67:
 496              		.size	GLCD_WriteDataCmd, .-GLCD_WriteDataCmd
 497              		.section	.text.GLCD_WriteCommand,"ax",%progbits
 498              		.align	2
 499              		.thumb
 500              		.thumb_func
 501              		.type	GLCD_WriteCommand, %function
 502              	GLCD_WriteCommand:
 503              	.LFB68:
 307:glcd-ks0108-psoc5.c **** 	GLCD_WriteDataCmd(byte, GLCD_MODECMD);
 504              		.loc 1 307 0
 505              		.cfi_startproc
 506              		@ args = 0, pretend = 0, frame = 0
 507              		@ frame_needed = 0, uses_anonymous_args = 0
 508              	.LVL52:
 509 0000 08B5     		push	{r3, lr}
 510              		.cfi_def_cfa_offset 8
 511              		.cfi_offset 3, -8
 512              		.cfi_offset 14, -4
 308:glcd-ks0108-psoc5.c **** }
 513              		.loc 1 308 0
 514 0002 0021     		movs	r1, #0
 515 0004 FFF7FEFF 		bl	GLCD_WriteDataCmd
 516              	.LVL53:
 517 0008 08BD     		pop	{r3, pc}
 518              		.cfi_endproc
 519              	.LFE68:
 520              		.size	GLCD_WriteCommand, .-GLCD_WriteCommand
 521 000a 00BF     		.section	.text.GLCD_SetPage,"ax",%progbits
 522              		.align	2
 523              		.thumb
ARM GAS  C:\Users\USUARIO\AppData\Local\Temp\cchSBxI2.s 			page 26


 524              		.thumb_func
 525              		.type	GLCD_SetPage, %function
 526              	GLCD_SetPage:
 527              	.LFB70:
 345:glcd-ks0108-psoc5.c **** 	GLCD_WriteCommand(GLCD_SET_PAGE+page);
 528              		.loc 1 345 0
 529              		.cfi_startproc
 530              		@ args = 0, pretend = 0, frame = 0
 531              		@ frame_needed = 0, uses_anonymous_args = 0
 532              	.LVL54:
 533 0000 08B5     		push	{r3, lr}
 534              		.cfi_def_cfa_offset 8
 535              		.cfi_offset 3, -8
 536              		.cfi_offset 14, -4
 346:glcd-ks0108-psoc5.c **** }
 537              		.loc 1 346 0
 538 0002 4838     		subs	r0, r0, #72
 539              	.LVL55:
 540 0004 C0B2     		uxtb	r0, r0
 541 0006 FFF7FEFF 		bl	GLCD_WriteCommand
 542              	.LVL56:
 543 000a 08BD     		pop	{r3, pc}
 544              		.cfi_endproc
 545              	.LFE70:
 546              		.size	GLCD_SetPage, .-GLCD_SetPage
 547              		.section	.text.GLCD_SetAddress,"ax",%progbits
 548              		.align	2
 549              		.thumb
 550              		.thumb_func
 551              		.type	GLCD_SetAddress, %function
 552              	GLCD_SetAddress:
 553              	.LFB71:
 364:glcd-ks0108-psoc5.c **** 	GLCD_WriteCommand(GLCD_SET_ADDRESS+address);
 554              		.loc 1 364 0
 555              		.cfi_startproc
 556              		@ args = 0, pretend = 0, frame = 0
 557              		@ frame_needed = 0, uses_anonymous_args = 0
 558              	.LVL57:
 559 0000 08B5     		push	{r3, lr}
 560              		.cfi_def_cfa_offset 8
 561              		.cfi_offset 3, -8
 562              		.cfi_offset 14, -4
 365:glcd-ks0108-psoc5.c **** }
 563              		.loc 1 365 0
 564 0002 4030     		adds	r0, r0, #64
 565              	.LVL58:
 566 0004 C0B2     		uxtb	r0, r0
 567 0006 FFF7FEFF 		bl	GLCD_WriteCommand
 568              	.LVL59:
 569 000a 08BD     		pop	{r3, pc}
 570              		.cfi_endproc
 571              	.LFE71:
 572              		.size	GLCD_SetAddress, .-GLCD_SetAddress
 573              		.section	.text.GLCD_WriteData,"ax",%progbits
 574              		.align	2
 575              		.thumb
 576              		.thumb_func
ARM GAS  C:\Users\USUARIO\AppData\Local\Temp\cchSBxI2.s 			page 27


 577              		.type	GLCD_WriteData, %function
 578              	GLCD_WriteData:
 579              	.LFB69:
 326:glcd-ks0108-psoc5.c **** 	GLCD_WriteDataCmd(byte, GLCD_MODEDATA);
 580              		.loc 1 326 0
 581              		.cfi_startproc
 582              		@ args = 0, pretend = 0, frame = 0
 583              		@ frame_needed = 0, uses_anonymous_args = 0
 584              	.LVL60:
 585 0000 08B5     		push	{r3, lr}
 586              		.cfi_def_cfa_offset 8
 587              		.cfi_offset 3, -8
 588              		.cfi_offset 14, -4
 327:glcd-ks0108-psoc5.c **** }
 589              		.loc 1 327 0
 590 0002 0121     		movs	r1, #1
 591 0004 FFF7FEFF 		bl	GLCD_WriteDataCmd
 592              	.LVL61:
 593 0008 08BD     		pop	{r3, pc}
 594              		.cfi_endproc
 595              	.LFE69:
 596              		.size	GLCD_WriteData, .-GLCD_WriteData
 597 000a 00BF     		.section	.text.GLCD_Init,"ax",%progbits
 598              		.align	2
 599              		.global	GLCD_Init
 600              		.thumb
 601              		.thumb_func
 602              		.type	GLCD_Init, %function
 603              	GLCD_Init:
 604              	.LFB72:
 383:glcd-ks0108-psoc5.c **** 	uint8 i;
 605              		.loc 1 383 0
 606              		.cfi_startproc
 607              		@ args = 0, pretend = 0, frame = 0
 608              		@ frame_needed = 0, uses_anonymous_args = 0
 609 0000 10B5     		push	{r4, lr}
 610              		.cfi_def_cfa_offset 8
 611              		.cfi_offset 4, -8
 612              		.cfi_offset 14, -4
 386:glcd-ks0108-psoc5.c **** 	
 613              		.loc 1 386 0
 614 0002 FFF7FEFF 		bl	GLCD_SetupIO
 615              	.LVL62:
 388:glcd-ks0108-psoc5.c **** 		GLCD_SelectChip(i);
 616              		.loc 1 388 0
 617 0006 0024     		movs	r4, #0
 618 0008 0AE0     		b	.L52
 619              	.LVL63:
 620              	.L53:
 389:glcd-ks0108-psoc5.c **** 		GLCD_WriteCommand(GLCD_ON); 
 621              		.loc 1 389 0 discriminator 3
 622 000a 2046     		mov	r0, r4
 623 000c FFF7FEFF 		bl	GLCD_SelectChip
 624              	.LVL64:
 390:glcd-ks0108-psoc5.c **** 		GLCD_WriteCommand(GLCD_DISP_START0);
 625              		.loc 1 390 0 discriminator 3
 626 0010 3F20     		movs	r0, #63
ARM GAS  C:\Users\USUARIO\AppData\Local\Temp\cchSBxI2.s 			page 28


 627 0012 FFF7FEFF 		bl	GLCD_WriteCommand
 628              	.LVL65:
 391:glcd-ks0108-psoc5.c **** 		// GLCD_SetPage(0);
 629              		.loc 1 391 0 discriminator 3
 630 0016 C020     		movs	r0, #192
 631 0018 FFF7FEFF 		bl	GLCD_WriteCommand
 632              	.LVL66:
 388:glcd-ks0108-psoc5.c **** 		GLCD_SelectChip(i);
 633              		.loc 1 388 0 discriminator 3
 634 001c 0134     		adds	r4, r4, #1
 635              	.LVL67:
 636 001e E4B2     		uxtb	r4, r4
 637              	.LVL68:
 638              	.L52:
 388:glcd-ks0108-psoc5.c **** 		GLCD_SelectChip(i);
 639              		.loc 1 388 0 is_stmt 0 discriminator 1
 640 0020 012C     		cmp	r4, #1
 641 0022 F2D9     		bls	.L53
 395:glcd-ks0108-psoc5.c **** //-----------------------------------------------------------------------------
 642              		.loc 1 395 0 is_stmt 1
 643 0024 10BD     		pop	{r4, pc}
 644              		.cfi_endproc
 645              	.LFE72:
 646              		.size	GLCD_Init, .-GLCD_Init
 647 0026 00BF     		.section	.text.GLCD_SetInvert,"ax",%progbits
 648              		.align	2
 649              		.global	GLCD_SetInvert
 650              		.thumb
 651              		.thumb_func
 652              		.type	GLCD_SetInvert, %function
 653              	GLCD_SetInvert:
 654              	.LFB73:
 411:glcd-ks0108-psoc5.c **** 	gGLCD_inverted = mode;
 655              		.loc 1 411 0
 656              		.cfi_startproc
 657              		@ args = 0, pretend = 0, frame = 0
 658              		@ frame_needed = 0, uses_anonymous_args = 0
 659              		@ link register save eliminated.
 660              	.LVL69:
 412:glcd-ks0108-psoc5.c **** }
 661              		.loc 1 412 0
 662 0000 014B     		ldr	r3, .L56
 663 0002 83F80004 		strb	r0, [r3, #1024]
 664 0006 7047     		bx	lr
 665              	.L57:
 666              		.align	2
 667              	.L56:
 668 0008 00000000 		.word	.LANCHOR0
 669              		.cfi_endproc
 670              	.LFE73:
 671              		.size	GLCD_SetInvert, .-GLCD_SetInvert
 672              		.section	.text.GLCD_Update,"ax",%progbits
 673              		.align	2
 674              		.global	GLCD_Update
 675              		.thumb
 676              		.thumb_func
 677              		.type	GLCD_Update, %function
ARM GAS  C:\Users\USUARIO\AppData\Local\Temp\cchSBxI2.s 			page 29


 678              	GLCD_Update:
 679              	.LFB76:
 475:glcd-ks0108-psoc5.c **** 	uint8 x, y, i;
 680              		.loc 1 475 0
 681              		.cfi_startproc
 682              		@ args = 0, pretend = 0, frame = 0
 683              		@ frame_needed = 0, uses_anonymous_args = 0
 684              	.LVL70:
 685 0000 2DE9F843 		push	{r3, r4, r5, r6, r7, r8, r9, lr}
 686              		.cfi_def_cfa_offset 32
 687              		.cfi_offset 3, -32
 688              		.cfi_offset 4, -28
 689              		.cfi_offset 5, -24
 690              		.cfi_offset 6, -20
 691              		.cfi_offset 7, -16
 692              		.cfi_offset 8, -12
 693              		.cfi_offset 9, -8
 694              		.cfi_offset 14, -4
 481:glcd-ks0108-psoc5.c **** 	yb = bottom >> 3;
 695              		.loc 1 481 0
 696 0004 C0F3C709 		ubfx	r9, r0, #3, #8
 697              	.LVL71:
 482:glcd-ks0108-psoc5.c **** 
 698              		.loc 1 482 0
 699 0008 C1F3C708 		ubfx	r8, r1, #3, #8
 700              	.LVL72:
 484:glcd-ks0108-psoc5.c **** 		GLCD_SelectChip(i);
 701              		.loc 1 484 0
 702 000c 0027     		movs	r7, #0
 703 000e 23E0     		b	.L59
 704              	.LVL73:
 705              	.L65:
 485:glcd-ks0108-psoc5.c **** 		for (y=yt;y<=yb;y++) {
 706              		.loc 1 485 0
 707 0010 3846     		mov	r0, r7
 708 0012 FFF7FEFF 		bl	GLCD_SelectChip
 709              	.LVL74:
 486:glcd-ks0108-psoc5.c **** 			GLCD_SetPage(y);
 710              		.loc 1 486 0
 711 0016 4D46     		mov	r5, r9
 712 0018 1AE0     		b	.L60
 713              	.LVL75:
 714              	.L64:
 487:glcd-ks0108-psoc5.c **** 			GLCD_SetAddress(0);
 715              		.loc 1 487 0
 716 001a 2846     		mov	r0, r5
 717 001c FFF7FEFF 		bl	GLCD_SetPage
 718              	.LVL76:
 488:glcd-ks0108-psoc5.c **** 			xoffset = i * GLCD_MAXADDRESS;
 719              		.loc 1 488 0
 720 0020 0020     		movs	r0, #0
 721 0022 FFF7FEFF 		bl	GLCD_SetAddress
 722              	.LVL77:
 489:glcd-ks0108-psoc5.c **** 			for (x=0;x<GLCD_MAXADDRESS;x++) {
 723              		.loc 1 489 0
 724 0026 BE01     		lsls	r6, r7, #6
 725              	.LVL78:
ARM GAS  C:\Users\USUARIO\AppData\Local\Temp\cchSBxI2.s 			page 30


 490:glcd-ks0108-psoc5.c **** 				data = gGLCD_buffer[y][xoffset+x];
 726              		.loc 1 490 0
 727 0028 0024     		movs	r4, #0
 728 002a 0DE0     		b	.L61
 729              	.LVL79:
 730              	.L63:
 491:glcd-ks0108-psoc5.c **** 				if (gGLCD_inverted) data=~data;
 731              		.loc 1 491 0
 732 002c 3319     		adds	r3, r6, r4
 733 002e 0E4A     		ldr	r2, .L67
 734 0030 02EBC511 		add	r1, r2, r5, lsl #7
 735 0034 C85C     		ldrb	r0, [r1, r3]	@ zero_extendqisi2
 736              	.LVL80:
 492:glcd-ks0108-psoc5.c **** 				GLCD_WriteData(data);
 737              		.loc 1 492 0
 738 0036 92F80034 		ldrb	r3, [r2, #1024]	@ zero_extendqisi2
 739 003a 0BB1     		cbz	r3, .L62
 492:glcd-ks0108-psoc5.c **** 				GLCD_WriteData(data);
 740              		.loc 1 492 0 is_stmt 0 discriminator 1
 741 003c C043     		mvns	r0, r0
 742              	.LVL81:
 743 003e C0B2     		uxtb	r0, r0
 744              	.LVL82:
 745              	.L62:
 493:glcd-ks0108-psoc5.c **** 			}
 746              		.loc 1 493 0 is_stmt 1 discriminator 2
 747 0040 FFF7FEFF 		bl	GLCD_WriteData
 748              	.LVL83:
 490:glcd-ks0108-psoc5.c **** 				data = gGLCD_buffer[y][xoffset+x];
 749              		.loc 1 490 0 discriminator 2
 750 0044 0134     		adds	r4, r4, #1
 751              	.LVL84:
 752 0046 E4B2     		uxtb	r4, r4
 753              	.LVL85:
 754              	.L61:
 490:glcd-ks0108-psoc5.c **** 				data = gGLCD_buffer[y][xoffset+x];
 755              		.loc 1 490 0 is_stmt 0 discriminator 1
 756 0048 3F2C     		cmp	r4, #63
 757 004a EFD9     		bls	.L63
 486:glcd-ks0108-psoc5.c **** 			GLCD_SetPage(y);
 758              		.loc 1 486 0 is_stmt 1 discriminator 2
 759 004c 0135     		adds	r5, r5, #1
 760              	.LVL86:
 761 004e EDB2     		uxtb	r5, r5
 762              	.LVL87:
 763              	.L60:
 486:glcd-ks0108-psoc5.c **** 			GLCD_SetPage(y);
 764              		.loc 1 486 0 is_stmt 0 discriminator 1
 765 0050 4545     		cmp	r5, r8
 766 0052 E2D9     		bls	.L64
 484:glcd-ks0108-psoc5.c **** 		GLCD_SelectChip(i);
 767              		.loc 1 484 0 is_stmt 1 discriminator 2
 768 0054 0137     		adds	r7, r7, #1
 769              	.LVL88:
 770 0056 FFB2     		uxtb	r7, r7
 771              	.LVL89:
 772              	.L59:
ARM GAS  C:\Users\USUARIO\AppData\Local\Temp\cchSBxI2.s 			page 31


 484:glcd-ks0108-psoc5.c **** 		GLCD_SelectChip(i);
 773              		.loc 1 484 0 is_stmt 0 discriminator 1
 774 0058 012F     		cmp	r7, #1
 775 005a D9D9     		bls	.L65
 497:glcd-ks0108-psoc5.c **** }
 776              		.loc 1 497 0 is_stmt 1
 777 005c 6320     		movs	r0, #99
 778 005e FFF7FEFF 		bl	GLCD_SelectChip
 779              	.LVL90:
 780 0062 BDE8F883 		pop	{r3, r4, r5, r6, r7, r8, r9, pc}
 781              	.LVL91:
 782              	.L68:
 783 0066 00BF     		.align	2
 784              	.L67:
 785 0068 00000000 		.word	.LANCHOR0
 786              		.cfi_endproc
 787              	.LFE76:
 788              		.size	GLCD_Update, .-GLCD_Update
 789              		.section	.text.GLCD_ClrScr,"ax",%progbits
 790              		.align	2
 791              		.global	GLCD_ClrScr
 792              		.thumb
 793              		.thumb_func
 794              		.type	GLCD_ClrScr, %function
 795              	GLCD_ClrScr:
 796              	.LFB75:
 453:glcd-ks0108-psoc5.c **** 	GLCD_FillBuffer(0x00);
 797              		.loc 1 453 0
 798              		.cfi_startproc
 799              		@ args = 0, pretend = 0, frame = 0
 800              		@ frame_needed = 0, uses_anonymous_args = 0
 801              	.LVL92:
 802 0000 10B5     		push	{r4, lr}
 803              		.cfi_def_cfa_offset 8
 804              		.cfi_offset 4, -8
 805              		.cfi_offset 14, -4
 806 0002 0446     		mov	r4, r0
 454:glcd-ks0108-psoc5.c **** 	if ( bufferAndDisplay ) 
 807              		.loc 1 454 0
 808 0004 0020     		movs	r0, #0
 809              	.LVL93:
 810 0006 FFF7FEFF 		bl	GLCD_FillBuffer
 811              	.LVL94:
 455:glcd-ks0108-psoc5.c **** 		GLCD_UpdateAll();
 812              		.loc 1 455 0
 813 000a 1CB1     		cbz	r4, .L69
 456:glcd-ks0108-psoc5.c **** }
 814              		.loc 1 456 0
 815 000c 3F21     		movs	r1, #63
 816 000e 0020     		movs	r0, #0
 817 0010 FFF7FEFF 		bl	GLCD_Update
 818              	.LVL95:
 819              	.L69:
 820 0014 10BD     		pop	{r4, pc}
 821              		.cfi_endproc
 822              	.LFE75:
 823              		.size	GLCD_ClrScr, .-GLCD_ClrScr
ARM GAS  C:\Users\USUARIO\AppData\Local\Temp\cchSBxI2.s 			page 32


 824 0016 00BF     		.section	.text.GLCD_Dot,"ax",%progbits
 825              		.align	2
 826              		.global	GLCD_Dot
 827              		.thumb
 828              		.thumb_func
 829              		.type	GLCD_Dot, %function
 830              	GLCD_Dot:
 831              	.LFB77:
 516:glcd-ks0108-psoc5.c **** // here 2*1 setup - TODO: for 2*2 setting
 832              		.loc 1 516 0
 833              		.cfi_startproc
 834              		@ args = 0, pretend = 0, frame = 0
 835              		@ frame_needed = 0, uses_anonymous_args = 0
 836              		@ link register save eliminated.
 837              	.LVL96:
 520:glcd-ks0108-psoc5.c **** 	
 838              		.loc 1 520 0
 839 0000 7E28     		cmp	r0, #126
 840 0002 23D8     		bhi	.L79
 520:glcd-ks0108-psoc5.c **** 	
 841              		.loc 1 520 0 is_stmt 0 discriminator 1
 842 0004 3E29     		cmp	r1, #62
 843 0006 21D8     		bhi	.L79
 516:glcd-ks0108-psoc5.c **** // here 2*1 setup - TODO: for 2*2 setting
 844              		.loc 1 516 0 is_stmt 1
 845 0008 10B4     		push	{r4}
 846              		.cfi_def_cfa_offset 4
 847              		.cfi_offset 4, -4
 522:glcd-ks0108-psoc5.c **** 	bitnum  = y & 0x07;
 848              		.loc 1 522 0
 849 000a CC08     		lsrs	r4, r1, #3
 850              	.LVL97:
 523:glcd-ks0108-psoc5.c **** 	bitmask = GLCD_MaskArray[bitnum];
 851              		.loc 1 523 0
 852 000c 01F00701 		and	r1, r1, #7
 853              	.LVL98:
 524:glcd-ks0108-psoc5.c **** 	switch (mode) {
 854              		.loc 1 524 0
 855 0010 0F4B     		ldr	r3, .L80
 856 0012 5B5C     		ldrb	r3, [r3, r1]	@ zero_extendqisi2
 857              	.LVL99:
 525:glcd-ks0108-psoc5.c **** 		case GLCD_MODE_SET:
 858              		.loc 1 525 0
 859 0014 012A     		cmp	r2, #1
 860 0016 03D0     		beq	.L74
 861 0018 4AB1     		cbz	r2, .L75
 862 001a 022A     		cmp	r2, #2
 863 001c 0FD0     		beq	.L76
 864 001e 14E0     		b	.L72
 865              	.L74:
 527:glcd-ks0108-psoc5.c **** 			break;
 866              		.loc 1 527 0
 867 0020 0C4A     		ldr	r2, .L80+4
 868              	.LVL100:
 869 0022 02EBC414 		add	r4, r2, r4, lsl #7
 870              	.LVL101:
 871 0026 225C     		ldrb	r2, [r4, r0]	@ zero_extendqisi2
ARM GAS  C:\Users\USUARIO\AppData\Local\Temp\cchSBxI2.s 			page 33


 872 0028 1343     		orrs	r3, r3, r2
 873              	.LVL102:
 874 002a 2354     		strb	r3, [r4, r0]
 528:glcd-ks0108-psoc5.c **** 		case GLCD_MODE_CLEAR:
 875              		.loc 1 528 0
 876 002c 0DE0     		b	.L72
 877              	.LVL103:
 878              	.L75:
 530:glcd-ks0108-psoc5.c **** 			break;
 879              		.loc 1 530 0
 880 002e 094A     		ldr	r2, .L80+4
 881              	.LVL104:
 882 0030 02EBC414 		add	r4, r2, r4, lsl #7
 883              	.LVL105:
 884 0034 225C     		ldrb	r2, [r4, r0]	@ zero_extendqisi2
 885 0036 22EA0303 		bic	r3, r2, r3
 886              	.LVL106:
 887 003a 2354     		strb	r3, [r4, r0]
 531:glcd-ks0108-psoc5.c **** 		case GLCD_MODE_XOR:
 888              		.loc 1 531 0
 889 003c 05E0     		b	.L72
 890              	.LVL107:
 891              	.L76:
 533:glcd-ks0108-psoc5.c **** 			break;
 892              		.loc 1 533 0
 893 003e 054A     		ldr	r2, .L80+4
 894              	.LVL108:
 895 0040 02EBC414 		add	r4, r2, r4, lsl #7
 896              	.LVL109:
 897 0044 225C     		ldrb	r2, [r4, r0]	@ zero_extendqisi2
 898 0046 5340     		eors	r3, r3, r2
 899              	.LVL110:
 900 0048 2354     		strb	r3, [r4, r0]
 901              	.L72:
 537:glcd-ks0108-psoc5.c **** 
 902              		.loc 1 537 0
 903 004a 10BC     		pop	{r4}
 904              		.cfi_restore 4
 905              		.cfi_def_cfa_offset 0
 906              	.LVL111:
 907              	.L79:
 908 004c 7047     		bx	lr
 909              	.L81:
 910 004e 00BF     		.align	2
 911              	.L80:
 912 0050 00000000 		.word	.LANCHOR1
 913 0054 00000000 		.word	.LANCHOR0
 914              		.cfi_endproc
 915              	.LFE77:
 916              		.size	GLCD_Dot, .-GLCD_Dot
 917              		.section	.text.GLCD_Line,"ax",%progbits
 918              		.align	2
 919              		.global	GLCD_Line
 920              		.thumb
 921              		.thumb_func
 922              		.type	GLCD_Line, %function
 923              	GLCD_Line:
ARM GAS  C:\Users\USUARIO\AppData\Local\Temp\cchSBxI2.s 			page 34


 924              	.LFB78:
 560:glcd-ks0108-psoc5.c **** 	uint8 length, xTmp, yTmp, i, y, yAlt;
 925              		.loc 1 560 0
 926              		.cfi_startproc
 927              		@ args = 4, pretend = 0, frame = 16
 928              		@ frame_needed = 0, uses_anonymous_args = 0
 929              	.LVL112:
 930 0000 2DE9F04F 		push	{r4, r5, r6, r7, r8, r9, r10, fp, lr}
 931              		.cfi_def_cfa_offset 36
 932              		.cfi_offset 4, -36
 933              		.cfi_offset 5, -32
 934              		.cfi_offset 6, -28
 935              		.cfi_offset 7, -24
 936              		.cfi_offset 8, -20
 937              		.cfi_offset 9, -16
 938              		.cfi_offset 10, -12
 939              		.cfi_offset 11, -8
 940              		.cfi_offset 14, -4
 941 0004 87B0     		sub	sp, sp, #28
 942              		.cfi_def_cfa_offset 64
 943 0006 0746     		mov	r7, r0
 944 0008 0E46     		mov	r6, r1
 945 000a 9946     		mov	r9, r3
 946 000c 9DF84030 		ldrb	r3, [sp, #64]	@ zero_extendqisi2
 947              	.LVL113:
 948 0010 0293     		str	r3, [sp, #8]
 564:glcd-ks0108-psoc5.c **** 		// x1|y1 must be the upper point
 949              		.loc 1 564 0
 950 0012 9042     		cmp	r0, r2
 951 0014 15D1     		bne	.L83
 566:glcd-ks0108-psoc5.c **** 			xTmp = x1;
 952              		.loc 1 566 0
 953 0016 4945     		cmp	r1, r9
 954 0018 01D9     		bls	.L84
 570:glcd-ks0108-psoc5.c **** 			x2 = xTmp;
 955              		.loc 1 570 0
 956 001a 4E46     		mov	r6, r9
 572:glcd-ks0108-psoc5.c **** 		}
 957              		.loc 1 572 0
 958 001c 8946     		mov	r9, r1
 959              	.L84:
 960              	.LVL114:
 575:glcd-ks0108-psoc5.c **** 		for(i=0; i<=length; i++) {
 961              		.loc 1 575 0
 962 001e C6EB0909 		rsb	r9, r6, r9
 963              	.LVL115:
 964 0022 5FFA89F9 		uxtb	r9, r9
 965              	.LVL116:
 576:glcd-ks0108-psoc5.c **** 			GLCD_Dot(x1, y1+i, mode);
 966              		.loc 1 576 0
 967 0026 0024     		movs	r4, #0
 968 0028 029D     		ldr	r5, [sp, #8]
 969 002a 07E0     		b	.L85
 970              	.LVL117:
 971              	.L86:
 577:glcd-ks0108-psoc5.c **** 		}
 972              		.loc 1 577 0 discriminator 3
ARM GAS  C:\Users\USUARIO\AppData\Local\Temp\cchSBxI2.s 			page 35


 973 002c 3119     		adds	r1, r6, r4
 974 002e 2A46     		mov	r2, r5
 975 0030 C9B2     		uxtb	r1, r1
 976 0032 3846     		mov	r0, r7
 977 0034 FFF7FEFF 		bl	GLCD_Dot
 978              	.LVL118:
 576:glcd-ks0108-psoc5.c **** 			GLCD_Dot(x1, y1+i, mode);
 979              		.loc 1 576 0 discriminator 3
 980 0038 0134     		adds	r4, r4, #1
 981              	.LVL119:
 982 003a E4B2     		uxtb	r4, r4
 983              	.LVL120:
 984              	.L85:
 576:glcd-ks0108-psoc5.c **** 			GLCD_Dot(x1, y1+i, mode);
 985              		.loc 1 576 0 is_stmt 0 discriminator 1
 986 003c 4C45     		cmp	r4, r9
 987 003e F5D9     		bls	.L86
 988 0040 C1E0     		b	.L82
 989              	.LVL121:
 990              	.L83:
 991 0042 9046     		mov	r8, r2
 579:glcd-ks0108-psoc5.c **** 		// x1|y1 must be the left point
 992              		.loc 1 579 0 is_stmt 1
 993 0044 4945     		cmp	r1, r9
 994 0046 15D1     		bne	.L88
 581:glcd-ks0108-psoc5.c **** 			xTmp = x1;
 995              		.loc 1 581 0
 996 0048 9042     		cmp	r0, r2
 997 004a 01D9     		bls	.L89
 584:glcd-ks0108-psoc5.c **** 			y1 = y2;
 998              		.loc 1 584 0
 999 004c 1746     		mov	r7, r2
 586:glcd-ks0108-psoc5.c **** 			y2 = yTmp;
 1000              		.loc 1 586 0
 1001 004e 8046     		mov	r8, r0
 1002              	.L89:
 1003              	.LVL122:
 590:glcd-ks0108-psoc5.c **** 		for(i=0; i<=length; i++) {
 1004              		.loc 1 590 0
 1005 0050 C7EB0808 		rsb	r8, r7, r8
 1006              	.LVL123:
 1007 0054 5FFA88F8 		uxtb	r8, r8
 1008              	.LVL124:
 591:glcd-ks0108-psoc5.c **** 			GLCD_Dot(x1+i, y1, mode);
 1009              		.loc 1 591 0
 1010 0058 0024     		movs	r4, #0
 1011 005a 029D     		ldr	r5, [sp, #8]
 1012 005c 07E0     		b	.L90
 1013              	.LVL125:
 1014              	.L91:
 592:glcd-ks0108-psoc5.c **** 		}
 1015              		.loc 1 592 0 discriminator 3
 1016 005e 3819     		adds	r0, r7, r4
 1017 0060 2A46     		mov	r2, r5
 1018 0062 3146     		mov	r1, r6
 1019 0064 C0B2     		uxtb	r0, r0
 1020 0066 FFF7FEFF 		bl	GLCD_Dot
ARM GAS  C:\Users\USUARIO\AppData\Local\Temp\cchSBxI2.s 			page 36


 1021              	.LVL126:
 591:glcd-ks0108-psoc5.c **** 			GLCD_Dot(x1+i, y1, mode);
 1022              		.loc 1 591 0 discriminator 3
 1023 006a 0134     		adds	r4, r4, #1
 1024              	.LVL127:
 1025 006c E4B2     		uxtb	r4, r4
 1026              	.LVL128:
 1027              	.L90:
 591:glcd-ks0108-psoc5.c **** 			GLCD_Dot(x1+i, y1, mode);
 1028              		.loc 1 591 0 is_stmt 0 discriminator 1
 1029 006e 4445     		cmp	r4, r8
 1030 0070 F5D9     		bls	.L91
 1031 0072 A8E0     		b	.L82
 1032              	.LVL129:
 1033              	.L88:
 596:glcd-ks0108-psoc5.c **** 			xTmp = x1;
 1034              		.loc 1 596 0 is_stmt 1
 1035 0074 9042     		cmp	r0, r2
 1036 0076 03D9     		bls	.L92
 600:glcd-ks0108-psoc5.c **** 			x2 = xTmp;
 1037              		.loc 1 600 0
 1038 0078 4E46     		mov	r6, r9
 602:glcd-ks0108-psoc5.c **** 		}
 1039              		.loc 1 602 0
 1040 007a 8946     		mov	r9, r1
 599:glcd-ks0108-psoc5.c **** 			y1 = y2;
 1041              		.loc 1 599 0
 1042 007c 1746     		mov	r7, r2
 601:glcd-ks0108-psoc5.c **** 			y2 = yTmp;
 1043              		.loc 1 601 0
 1044 007e 8046     		mov	r8, r0
 1045              	.L92:
 1046              	.LVL130:
 605:glcd-ks0108-psoc5.c **** 			length = x2-x1;								// not really the length :)
 1047              		.loc 1 605 0
 1048 0080 CDF81090 		str	r9, [sp, #16]
 1049 0084 0596     		str	r6, [sp, #20]
 1050 0086 C6EB090B 		rsb	fp, r6, r9
 1051 008a C7EB0803 		rsb	r3, r7, r8
 1052 008e 9B45     		cmp	fp, r3
 1053 0090 03DA     		bge	.L93
 605:glcd-ks0108-psoc5.c **** 			length = x2-x1;								// not really the length :)
 1054              		.loc 1 605 0 is_stmt 0 discriminator 1
 1055 0092 C9EB0602 		rsb	r2, r9, r6
 1056 0096 9342     		cmp	r3, r2
 1057 0098 44DC     		bgt	.L94
 1058              	.L93:
 606:glcd-ks0108-psoc5.c **** 			m = ((y2-y1)*200)/length;
 1059              		.loc 1 606 0 is_stmt 1
 1060 009a C7EB0808 		rsb	r8, r7, r8
 1061              	.LVL131:
 1062 009e 5FFA88F8 		uxtb	r8, r8
 1063              	.LVL132:
 607:glcd-ks0108-psoc5.c **** 			yAlt = y1;
 1064              		.loc 1 607 0
 1065 00a2 C823     		movs	r3, #200
 1066 00a4 03FB0BF3 		mul	r3, r3, fp
ARM GAS  C:\Users\USUARIO\AppData\Local\Temp\cchSBxI2.s 			page 37


 1067 00a8 C246     		mov	r10, r8
 1068 00aa 93FBF8F3 		sdiv	r3, r3, r8
 1069 00ae 1BB2     		sxth	r3, r3
 1070 00b0 0393     		str	r3, [sp, #12]
 1071              	.LVL133:
 608:glcd-ks0108-psoc5.c **** 			for(i=0; i<=length; i++) {
 1072              		.loc 1 608 0
 1073 00b2 3146     		mov	r1, r6
 609:glcd-ks0108-psoc5.c **** 				y = ((m*i)/200)+y1;
 1074              		.loc 1 609 0
 1075 00b4 0025     		movs	r5, #0
 1076 00b6 32E0     		b	.L95
 1077              	.LVL134:
 1078              	.L100:
 610:glcd-ks0108-psoc5.c **** 				
 1079              		.loc 1 610 0
 1080 00b8 039B     		ldr	r3, [sp, #12]
 1081 00ba 05FB03F0 		mul	r0, r5, r3
 1082 00be 434B     		ldr	r3, .L113
 1083 00c0 83FB0032 		smull	r3, r2, r3, r0
 1084 00c4 C317     		asrs	r3, r0, #31
 1085 00c6 C3EBA213 		rsb	r3, r3, r2, asr #6
 1086 00ca F418     		adds	r4, r6, r3
 1087 00cc E4B2     		uxtb	r4, r4
 1088              	.LVL135:
 612:glcd-ks0108-psoc5.c **** 					y++;
 1089              		.loc 1 612 0
 1090 00ce C822     		movs	r2, #200
 1091 00d0 02FB1302 		mls	r2, r2, r3, r0
 1092 00d4 632A     		cmp	r2, #99
 1093 00d6 02DD     		ble	.L96
 613:glcd-ks0108-psoc5.c **** 				else if((m*i)%200 <= -100)
 1094              		.loc 1 613 0
 1095 00d8 0134     		adds	r4, r4, #1
 1096              	.LVL136:
 1097 00da E4B2     		uxtb	r4, r4
 1098              	.LVL137:
 1099 00dc 04E0     		b	.L97
 1100              	.L96:
 614:glcd-ks0108-psoc5.c **** 					y--;
 1101              		.loc 1 614 0
 1102 00de 12F1630F 		cmn	r2, #99
 1103 00e2 01DA     		bge	.L97
 615:glcd-ks0108-psoc5.c **** 				
 1104              		.loc 1 615 0
 1105 00e4 013C     		subs	r4, r4, #1
 1106              	.LVL138:
 1107 00e6 E4B2     		uxtb	r4, r4
 1108              	.LVL139:
 1109              	.L97:
 617:glcd-ks0108-psoc5.c **** 				if(length<=(y2-y1) && y1 < y2)
 1110              		.loc 1 617 0
 1111 00e8 7819     		adds	r0, r7, r5
 1112 00ea C0B2     		uxtb	r0, r0
 1113 00ec 029B     		ldr	r3, [sp, #8]
 1114 00ee 0093     		str	r3, [sp]
 1115 00f0 2346     		mov	r3, r4
ARM GAS  C:\Users\USUARIO\AppData\Local\Temp\cchSBxI2.s 			page 38


 1116 00f2 0246     		mov	r2, r0
 1117 00f4 FFF7FEFF 		bl	GLCD_Line
 1118              	.LVL140:
 618:glcd-ks0108-psoc5.c **** 					yAlt = y+1;
 1119              		.loc 1 618 0
 1120 00f8 D345     		cmp	fp, r10
 1121 00fa 04DB     		blt	.L98
 618:glcd-ks0108-psoc5.c **** 					yAlt = y+1;
 1122              		.loc 1 618 0 is_stmt 0 discriminator 1
 1123 00fc 4E45     		cmp	r6, r9
 1124 00fe 02D2     		bcs	.L98
 619:glcd-ks0108-psoc5.c **** 				else if(length<=(y1-y2) && y1 > y2)
 1125              		.loc 1 619 0 is_stmt 1
 1126 0100 0134     		adds	r4, r4, #1
 1127              	.LVL141:
 1128 0102 E4B2     		uxtb	r4, r4
 1129              	.LVL142:
 1130 0104 08E0     		b	.L99
 1131              	.LVL143:
 1132              	.L98:
 620:glcd-ks0108-psoc5.c **** 					yAlt = y-1;
 1133              		.loc 1 620 0
 1134 0106 059B     		ldr	r3, [sp, #20]
 1135 0108 049A     		ldr	r2, [sp, #16]
 1136 010a 9B1A     		subs	r3, r3, r2
 1137 010c 9A45     		cmp	r10, r3
 1138 010e 03DC     		bgt	.L99
 620:glcd-ks0108-psoc5.c **** 					yAlt = y-1;
 1139              		.loc 1 620 0 is_stmt 0 discriminator 1
 1140 0110 4E45     		cmp	r6, r9
 1141 0112 01D9     		bls	.L99
 621:glcd-ks0108-psoc5.c **** 				else
 1142              		.loc 1 621 0 is_stmt 1
 1143 0114 013C     		subs	r4, r4, #1
 1144              	.LVL144:
 1145 0116 E4B2     		uxtb	r4, r4
 1146              	.LVL145:
 1147              	.L99:
 609:glcd-ks0108-psoc5.c **** 				y = ((m*i)/200)+y1;
 1148              		.loc 1 609 0 discriminator 2
 1149 0118 0135     		adds	r5, r5, #1
 1150              	.LVL146:
 1151 011a EDB2     		uxtb	r5, r5
 1152              	.LVL147:
 1153 011c 2146     		mov	r1, r4
 1154              	.LVL148:
 1155              	.L95:
 609:glcd-ks0108-psoc5.c **** 				y = ((m*i)/200)+y1;
 1156              		.loc 1 609 0 is_stmt 0 discriminator 1
 1157 011e 4545     		cmp	r5, r8
 1158 0120 CAD9     		bls	.L100
 1159 0122 50E0     		b	.L82
 1160              	.LVL149:
 1161              	.L94:
 627:glcd-ks0108-psoc5.c **** 				xTmp = x1;
 1162              		.loc 1 627 0 is_stmt 1
 1163 0124 4E45     		cmp	r6, r9
ARM GAS  C:\Users\USUARIO\AppData\Local\Temp\cchSBxI2.s 			page 39


 1164 0126 05D9     		bls	.L101
 1165 0128 3346     		mov	r3, r6
 631:glcd-ks0108-psoc5.c **** 				x2 = xTmp;
 1166              		.loc 1 631 0
 1167 012a 4E46     		mov	r6, r9
 1168              	.LVL150:
 633:glcd-ks0108-psoc5.c **** 			}
 1169              		.loc 1 633 0
 1170 012c 9946     		mov	r9, r3
 1171              	.LVL151:
 1172 012e 3B46     		mov	r3, r7
 630:glcd-ks0108-psoc5.c **** 				y1 = y2;
 1173              		.loc 1 630 0
 1174 0130 4746     		mov	r7, r8
 1175              	.LVL152:
 632:glcd-ks0108-psoc5.c **** 				y2 = yTmp;
 1176              		.loc 1 632 0
 1177 0132 9846     		mov	r8, r3
 1178              	.LVL153:
 1179              	.L101:
 635:glcd-ks0108-psoc5.c **** 			m = ((x2-x1)*200)/length;
 1180              		.loc 1 635 0
 1181 0134 C6EB0909 		rsb	r9, r6, r9
 1182              	.LVL154:
 1183 0138 5FFA89F9 		uxtb	r9, r9
 1184              	.LVL155:
 636:glcd-ks0108-psoc5.c **** 			yAlt = x1;
 1185              		.loc 1 636 0
 1186 013c CDF81080 		str	r8, [sp, #16]
 1187 0140 0597     		str	r7, [sp, #20]
 1188 0142 C7EB080B 		rsb	fp, r7, r8
 1189 0146 C823     		movs	r3, #200
 1190 0148 03FB0BF3 		mul	r3, r3, fp
 1191 014c CA46     		mov	r10, r9
 1192 014e 93FBF9F3 		sdiv	r3, r3, r9
 1193 0152 1BB2     		sxth	r3, r3
 1194 0154 0393     		str	r3, [sp, #12]
 1195              	.LVL156:
 637:glcd-ks0108-psoc5.c **** 			for(i=0; i<=length; i++) {
 1196              		.loc 1 637 0
 1197 0156 3846     		mov	r0, r7
 638:glcd-ks0108-psoc5.c **** 				y = ((m*i)/200)+x1;
 1198              		.loc 1 638 0
 1199 0158 0025     		movs	r5, #0
 1200 015a 32E0     		b	.L102
 1201              	.LVL157:
 1202              	.L107:
 639:glcd-ks0108-psoc5.c **** 				
 1203              		.loc 1 639 0
 1204 015c 039B     		ldr	r3, [sp, #12]
 1205 015e 05FB03F1 		mul	r1, r5, r3
 1206 0162 1A4B     		ldr	r3, .L113
 1207 0164 83FB0132 		smull	r3, r2, r3, r1
 1208 0168 CB17     		asrs	r3, r1, #31
 1209 016a C3EBA213 		rsb	r3, r3, r2, asr #6
 1210 016e FC18     		adds	r4, r7, r3
 1211 0170 E4B2     		uxtb	r4, r4
ARM GAS  C:\Users\USUARIO\AppData\Local\Temp\cchSBxI2.s 			page 40


 1212              	.LVL158:
 641:glcd-ks0108-psoc5.c **** 					y++;
 1213              		.loc 1 641 0
 1214 0172 C822     		movs	r2, #200
 1215 0174 02FB1312 		mls	r2, r2, r3, r1
 1216 0178 632A     		cmp	r2, #99
 1217 017a 02DD     		ble	.L103
 642:glcd-ks0108-psoc5.c **** 				else if((m*i)%200 <= -100)
 1218              		.loc 1 642 0
 1219 017c 0134     		adds	r4, r4, #1
 1220              	.LVL159:
 1221 017e E4B2     		uxtb	r4, r4
 1222              	.LVL160:
 1223 0180 04E0     		b	.L104
 1224              	.L103:
 643:glcd-ks0108-psoc5.c **** 					y--;
 1225              		.loc 1 643 0
 1226 0182 12F1630F 		cmn	r2, #99
 1227 0186 01DA     		bge	.L104
 644:glcd-ks0108-psoc5.c **** 				
 1228              		.loc 1 644 0
 1229 0188 013C     		subs	r4, r4, #1
 1230              	.LVL161:
 1231 018a E4B2     		uxtb	r4, r4
 1232              	.LVL162:
 1233              	.L104:
 646:glcd-ks0108-psoc5.c **** 				if(length<=(x2-x1) && x1 < x2)
 1234              		.loc 1 646 0
 1235 018c 7119     		adds	r1, r6, r5
 1236 018e C9B2     		uxtb	r1, r1
 1237 0190 029B     		ldr	r3, [sp, #8]
 1238 0192 0093     		str	r3, [sp]
 1239 0194 0B46     		mov	r3, r1
 1240 0196 2246     		mov	r2, r4
 1241 0198 FFF7FEFF 		bl	GLCD_Line
 1242              	.LVL163:
 647:glcd-ks0108-psoc5.c **** 					yAlt = y+1;
 1243              		.loc 1 647 0
 1244 019c D345     		cmp	fp, r10
 1245 019e 04DB     		blt	.L105
 647:glcd-ks0108-psoc5.c **** 					yAlt = y+1;
 1246              		.loc 1 647 0 is_stmt 0 discriminator 1
 1247 01a0 4745     		cmp	r7, r8
 1248 01a2 02D2     		bcs	.L105
 648:glcd-ks0108-psoc5.c **** 				else if(length<=(x1-x2) && x1 > x2)
 1249              		.loc 1 648 0 is_stmt 1
 1250 01a4 0134     		adds	r4, r4, #1
 1251              	.LVL164:
 1252 01a6 E4B2     		uxtb	r4, r4
 1253              	.LVL165:
 1254 01a8 08E0     		b	.L106
 1255              	.LVL166:
 1256              	.L105:
 649:glcd-ks0108-psoc5.c **** 					yAlt = y-1;
 1257              		.loc 1 649 0
 1258 01aa 059B     		ldr	r3, [sp, #20]
 1259 01ac 049A     		ldr	r2, [sp, #16]
ARM GAS  C:\Users\USUARIO\AppData\Local\Temp\cchSBxI2.s 			page 41


 1260 01ae 9B1A     		subs	r3, r3, r2
 1261 01b0 9A45     		cmp	r10, r3
 1262 01b2 03DC     		bgt	.L106
 649:glcd-ks0108-psoc5.c **** 					yAlt = y-1;
 1263              		.loc 1 649 0 is_stmt 0 discriminator 1
 1264 01b4 4745     		cmp	r7, r8
 1265 01b6 01D9     		bls	.L106
 650:glcd-ks0108-psoc5.c **** 				else
 1266              		.loc 1 650 0 is_stmt 1
 1267 01b8 013C     		subs	r4, r4, #1
 1268              	.LVL167:
 1269 01ba E4B2     		uxtb	r4, r4
 1270              	.LVL168:
 1271              	.L106:
 638:glcd-ks0108-psoc5.c **** 				y = ((m*i)/200)+x1;
 1272              		.loc 1 638 0 discriminator 2
 1273 01bc 0135     		adds	r5, r5, #1
 1274              	.LVL169:
 1275 01be EDB2     		uxtb	r5, r5
 1276              	.LVL170:
 1277 01c0 2046     		mov	r0, r4
 1278              	.LVL171:
 1279              	.L102:
 638:glcd-ks0108-psoc5.c **** 				y = ((m*i)/200)+x1;
 1280              		.loc 1 638 0 is_stmt 0 discriminator 1
 1281 01c2 4D45     		cmp	r5, r9
 1282 01c4 CAD9     		bls	.L107
 1283              	.LVL172:
 1284              	.L82:
 656:glcd-ks0108-psoc5.c **** 
 1285              		.loc 1 656 0 is_stmt 1
 1286 01c6 07B0     		add	sp, sp, #28
 1287              		.cfi_def_cfa_offset 36
 1288              		@ sp needed
 1289 01c8 BDE8F08F 		pop	{r4, r5, r6, r7, r8, r9, r10, fp, pc}
 1290              	.LVL173:
 1291              	.L114:
 1292              		.align	2
 1293              	.L113:
 1294 01cc 1F85EB51 		.word	1374389535
 1295              		.cfi_endproc
 1296              	.LFE78:
 1297              		.size	GLCD_Line, .-GLCD_Line
 1298              		.section	.text.GLCD_Rect,"ax",%progbits
 1299              		.align	2
 1300              		.global	GLCD_Rect
 1301              		.thumb
 1302              		.thumb_func
 1303              		.type	GLCD_Rect, %function
 1304              	GLCD_Rect:
 1305              	.LFB79:
 678:glcd-ks0108-psoc5.c **** 	width--;
 1306              		.loc 1 678 0
 1307              		.cfi_startproc
 1308              		@ args = 4, pretend = 0, frame = 0
 1309              		@ frame_needed = 0, uses_anonymous_args = 0
 1310              	.LVL174:
ARM GAS  C:\Users\USUARIO\AppData\Local\Temp\cchSBxI2.s 			page 42


 1311 0000 2DE9F041 		push	{r4, r5, r6, r7, r8, lr}
 1312              		.cfi_def_cfa_offset 24
 1313              		.cfi_offset 4, -24
 1314              		.cfi_offset 5, -20
 1315              		.cfi_offset 6, -16
 1316              		.cfi_offset 7, -12
 1317              		.cfi_offset 8, -8
 1318              		.cfi_offset 14, -4
 1319 0004 82B0     		sub	sp, sp, #8
 1320              		.cfi_def_cfa_offset 32
 1321 0006 8046     		mov	r8, r0
 1322 0008 0E46     		mov	r6, r1
 1323 000a 9DF82070 		ldrb	r7, [sp, #32]	@ zero_extendqisi2
 679:glcd-ks0108-psoc5.c **** 	height--;
 1324              		.loc 1 679 0
 1325 000e 013A     		subs	r2, r2, #1
 1326              	.LVL175:
 1327 0010 D2B2     		uxtb	r2, r2
 1328              	.LVL176:
 680:glcd-ks0108-psoc5.c **** 	GLCD_Line(x, y, x+width, y, mode);		// top
 1329              		.loc 1 680 0
 1330 0012 013B     		subs	r3, r3, #1
 1331              	.LVL177:
 1332 0014 DDB2     		uxtb	r5, r3
 1333              	.LVL178:
 681:glcd-ks0108-psoc5.c **** 	GLCD_Line(x, y, x, y+height, mode);	// left
 1334              		.loc 1 681 0
 1335 0016 0244     		add	r2, r2, r0
 1336              	.LVL179:
 1337 0018 D4B2     		uxtb	r4, r2
 1338 001a 0097     		str	r7, [sp]
 1339 001c 0B46     		mov	r3, r1
 1340 001e 2246     		mov	r2, r4
 1341 0020 FFF7FEFF 		bl	GLCD_Line
 1342              	.LVL180:
 682:glcd-ks0108-psoc5.c **** 	GLCD_Line(x, y+height, x+width, y+height, mode);	// bottom
 1343              		.loc 1 682 0
 1344 0024 3544     		add	r5, r5, r6
 1345              	.LVL181:
 1346 0026 EDB2     		uxtb	r5, r5
 1347 0028 0097     		str	r7, [sp]
 1348 002a 2B46     		mov	r3, r5
 1349 002c 4246     		mov	r2, r8
 1350 002e 3146     		mov	r1, r6
 1351 0030 4046     		mov	r0, r8
 1352 0032 FFF7FEFF 		bl	GLCD_Line
 1353              	.LVL182:
 683:glcd-ks0108-psoc5.c **** 	GLCD_Line(x+width, y, x+width, y+height, mode);	// right
 1354              		.loc 1 683 0
 1355 0036 0097     		str	r7, [sp]
 1356 0038 2B46     		mov	r3, r5
 1357 003a 2246     		mov	r2, r4
 1358 003c 2946     		mov	r1, r5
 1359 003e 4046     		mov	r0, r8
 1360 0040 FFF7FEFF 		bl	GLCD_Line
 1361              	.LVL183:
 684:glcd-ks0108-psoc5.c **** }
ARM GAS  C:\Users\USUARIO\AppData\Local\Temp\cchSBxI2.s 			page 43


 1362              		.loc 1 684 0
 1363 0044 0097     		str	r7, [sp]
 1364 0046 2B46     		mov	r3, r5
 1365 0048 2246     		mov	r2, r4
 1366 004a 3146     		mov	r1, r6
 1367 004c 2046     		mov	r0, r4
 1368 004e FFF7FEFF 		bl	GLCD_Line
 1369              	.LVL184:
 685:glcd-ks0108-psoc5.c **** 
 1370              		.loc 1 685 0
 1371 0052 02B0     		add	sp, sp, #8
 1372              		.cfi_def_cfa_offset 24
 1373              		@ sp needed
 1374 0054 BDE8F081 		pop	{r4, r5, r6, r7, r8, pc}
 1375              		.cfi_endproc
 1376              	.LFE79:
 1377              		.size	GLCD_Rect, .-GLCD_Rect
 1378              		.section	.text.GLCD_Box,"ax",%progbits
 1379              		.align	2
 1380              		.global	GLCD_Box
 1381              		.thumb
 1382              		.thumb_func
 1383              		.type	GLCD_Box, %function
 1384              	GLCD_Box:
 1385              	.LFB80:
 707:glcd-ks0108-psoc5.c **** 	uint8 i;
 1386              		.loc 1 707 0
 1387              		.cfi_startproc
 1388              		@ args = 4, pretend = 0, frame = 0
 1389              		@ frame_needed = 0, uses_anonymous_args = 0
 1390              	.LVL185:
 1391 0000 2DE9F043 		push	{r4, r5, r6, r7, r8, r9, lr}
 1392              		.cfi_def_cfa_offset 28
 1393              		.cfi_offset 4, -28
 1394              		.cfi_offset 5, -24
 1395              		.cfi_offset 6, -20
 1396              		.cfi_offset 7, -16
 1397              		.cfi_offset 8, -12
 1398              		.cfi_offset 9, -8
 1399              		.cfi_offset 14, -4
 1400 0004 83B0     		sub	sp, sp, #12
 1401              		.cfi_def_cfa_offset 40
 1402 0006 9DF82890 		ldrb	r9, [sp, #40]	@ zero_extendqisi2
 710:glcd-ks0108-psoc5.c **** 	
 1403              		.loc 1 710 0
 1404 000a AAB1     		cbz	r2, .L117
 1405 000c 9846     		mov	r8, r3
 1406 000e 0F46     		mov	r7, r1
 1407 0010 0546     		mov	r5, r0
 712:glcd-ks0108-psoc5.c **** 	
 1408              		.loc 1 712 0
 1409 0012 561E     		subs	r6, r2, #1
 1410 0014 F6B2     		uxtb	r6, r6
 1411              	.LVL186:
 714:glcd-ks0108-psoc5.c **** 		GLCD_Line(x, i, x+width, i, mode);
 1412              		.loc 1 714 0
 1413 0016 0C46     		mov	r4, r1
ARM GAS  C:\Users\USUARIO\AppData\Local\Temp\cchSBxI2.s 			page 44


 1414 0018 0AE0     		b	.L119
 1415              	.LVL187:
 1416              	.L120:
 715:glcd-ks0108-psoc5.c **** }
 1417              		.loc 1 715 0 discriminator 3
 1418 001a 7219     		adds	r2, r6, r5
 1419 001c CDF80090 		str	r9, [sp]
 1420 0020 2346     		mov	r3, r4
 1421 0022 D2B2     		uxtb	r2, r2
 1422 0024 2146     		mov	r1, r4
 1423 0026 2846     		mov	r0, r5
 1424 0028 FFF7FEFF 		bl	GLCD_Line
 1425              	.LVL188:
 714:glcd-ks0108-psoc5.c **** 		GLCD_Line(x, i, x+width, i, mode);
 1426              		.loc 1 714 0 discriminator 3
 1427 002c 0134     		adds	r4, r4, #1
 1428              	.LVL189:
 1429 002e E4B2     		uxtb	r4, r4
 1430              	.LVL190:
 1431              	.L119:
 714:glcd-ks0108-psoc5.c **** 		GLCD_Line(x, i, x+width, i, mode);
 1432              		.loc 1 714 0 is_stmt 0 discriminator 1
 1433 0030 07EB0803 		add	r3, r7, r8
 1434 0034 9C42     		cmp	r4, r3
 1435 0036 F0DB     		blt	.L120
 1436              	.LVL191:
 1437              	.L117:
 716:glcd-ks0108-psoc5.c **** 
 1438              		.loc 1 716 0 is_stmt 1
 1439 0038 03B0     		add	sp, sp, #12
 1440              		.cfi_def_cfa_offset 28
 1441              		@ sp needed
 1442 003a BDE8F083 		pop	{r4, r5, r6, r7, r8, r9, pc}
 1443              		.cfi_endproc
 1444              	.LFE80:
 1445              		.size	GLCD_Box, .-GLCD_Box
 1446 003e 00BF     		.section	.text.GLCD_Circle,"ax",%progbits
 1447              		.align	2
 1448              		.global	GLCD_Circle
 1449              		.thumb
 1450              		.thumb_func
 1451              		.type	GLCD_Circle, %function
 1452              	GLCD_Circle:
 1453              	.LFB81:
 737:glcd-ks0108-psoc5.c ****   	int16 tSwitch, y, x = 0;
 1454              		.loc 1 737 0
 1455              		.cfi_startproc
 1456              		@ args = 0, pretend = 0, frame = 16
 1457              		@ frame_needed = 0, uses_anonymous_args = 0
 1458              	.LVL192:
 1459 0000 2DE9F04F 		push	{r4, r5, r6, r7, r8, r9, r10, fp, lr}
 1460              		.cfi_def_cfa_offset 36
 1461              		.cfi_offset 4, -36
 1462              		.cfi_offset 5, -32
 1463              		.cfi_offset 6, -28
 1464              		.cfi_offset 7, -24
 1465              		.cfi_offset 8, -20
ARM GAS  C:\Users\USUARIO\AppData\Local\Temp\cchSBxI2.s 			page 45


 1466              		.cfi_offset 9, -16
 1467              		.cfi_offset 10, -12
 1468              		.cfi_offset 11, -8
 1469              		.cfi_offset 14, -4
 1470 0004 85B0     		sub	sp, sp, #20
 1471              		.cfi_def_cfa_offset 56
 1472 0006 0390     		str	r0, [sp, #12]
 1473 0008 8B46     		mov	fp, r1
 1474 000a 0193     		str	r3, [sp, #4]
 1475              	.LVL193:
 741:glcd-ks0108-psoc5.c ****   	y = radius;
 1476              		.loc 1 741 0
 1477 000c 0B1A     		subs	r3, r1, r0
 1478              	.LVL194:
 1479 000e DBB2     		uxtb	r3, r3
 1480 0010 0293     		str	r3, [sp, #8]
 1481              	.LVL195:
 742:glcd-ks0108-psoc5.c ****   	tSwitch = 3 - 2 * radius;
 1482              		.loc 1 742 0
 1483 0012 0FFA82F9 		sxth	r9, r2
 1484              	.LVL196:
 743:glcd-ks0108-psoc5.c ****   	
 1485              		.loc 1 743 0
 1486 0016 5200     		lsls	r2, r2, #1
 1487              	.LVL197:
 1488 0018 C2F10307 		rsb	r7, r2, #3
 1489              	.LVL198:
 738:glcd-ks0108-psoc5.c ****   	uint8 d;
 1490              		.loc 1 738 0
 1491 001c 4FF00008 		mov	r8, #0
 745:glcd-ks0108-psoc5.c ****     	GLCD_Dot(xCenter + x, yCenter + y, mode);
 1492              		.loc 1 745 0
 1493 0020 5EE0     		b	.L123
 1494              	.LVL199:
 1495              	.L126:
 746:glcd-ks0108-psoc5.c ****     	GLCD_Dot(xCenter + x, yCenter - y, mode);
 1496              		.loc 1 746 0
 1497 0022 5FFA88F6 		uxtb	r6, r8
 1498 0026 039B     		ldr	r3, [sp, #12]
 1499 0028 03EB060A 		add	r10, r3, r6
 1500 002c 5FFA8AFA 		uxtb	r10, r10
 1501 0030 5FFA89F4 		uxtb	r4, r9
 1502 0034 0BEB0405 		add	r5, fp, r4
 1503 0038 EDB2     		uxtb	r5, r5
 1504 003a 019A     		ldr	r2, [sp, #4]
 1505 003c 2946     		mov	r1, r5
 1506 003e 5046     		mov	r0, r10
 1507 0040 FFF7FEFF 		bl	GLCD_Dot
 1508              	.LVL200:
 747:glcd-ks0108-psoc5.c ****     	
 1509              		.loc 1 747 0
 1510 0044 C4EB0B04 		rsb	r4, r4, fp
 1511 0048 E4B2     		uxtb	r4, r4
 1512 004a 019A     		ldr	r2, [sp, #4]
 1513 004c 2146     		mov	r1, r4
 1514 004e 5046     		mov	r0, r10
 1515 0050 FFF7FEFF 		bl	GLCD_Dot
ARM GAS  C:\Users\USUARIO\AppData\Local\Temp\cchSBxI2.s 			page 46


 1516              	.LVL201:
 749:glcd-ks0108-psoc5.c ****     	GLCD_Dot(xCenter - x, yCenter - y, mode);
 1517              		.loc 1 749 0
 1518 0054 039B     		ldr	r3, [sp, #12]
 1519 0056 C6EB030A 		rsb	r10, r6, r3
 1520 005a 5FFA8AFA 		uxtb	r10, r10
 1521 005e 019A     		ldr	r2, [sp, #4]
 1522 0060 2946     		mov	r1, r5
 1523 0062 5046     		mov	r0, r10
 1524 0064 FFF7FEFF 		bl	GLCD_Dot
 1525              	.LVL202:
 750:glcd-ks0108-psoc5.c ****     	
 1526              		.loc 1 750 0
 1527 0068 019A     		ldr	r2, [sp, #4]
 1528 006a 2146     		mov	r1, r4
 1529 006c 5046     		mov	r0, r10
 1530 006e FFF7FEFF 		bl	GLCD_Dot
 1531              	.LVL203:
 752:glcd-ks0108-psoc5.c ****     	GLCD_Dot(yCenter + y - d, yCenter - x, mode);
 1532              		.loc 1 752 0
 1533 0072 029B     		ldr	r3, [sp, #8]
 1534 0074 ED1A     		subs	r5, r5, r3
 1535 0076 EDB2     		uxtb	r5, r5
 1536 0078 0BEB060A 		add	r10, fp, r6
 1537 007c 5FFA8AFA 		uxtb	r10, r10
 1538 0080 019A     		ldr	r2, [sp, #4]
 1539 0082 5146     		mov	r1, r10
 1540 0084 2846     		mov	r0, r5
 1541 0086 FFF7FEFF 		bl	GLCD_Dot
 1542              	.LVL204:
 753:glcd-ks0108-psoc5.c ****     	
 1543              		.loc 1 753 0
 1544 008a C6EB0B06 		rsb	r6, r6, fp
 1545 008e F6B2     		uxtb	r6, r6
 1546 0090 019A     		ldr	r2, [sp, #4]
 1547 0092 3146     		mov	r1, r6
 1548 0094 2846     		mov	r0, r5
 1549 0096 FFF7FEFF 		bl	GLCD_Dot
 1550              	.LVL205:
 755:glcd-ks0108-psoc5.c ****     	GLCD_Dot(yCenter - y - d, yCenter - x, mode);
 1551              		.loc 1 755 0
 1552 009a 029B     		ldr	r3, [sp, #8]
 1553 009c E41A     		subs	r4, r4, r3
 1554 009e E4B2     		uxtb	r4, r4
 1555 00a0 019D     		ldr	r5, [sp, #4]
 1556 00a2 2A46     		mov	r2, r5
 1557 00a4 5146     		mov	r1, r10
 1558 00a6 2046     		mov	r0, r4
 1559 00a8 FFF7FEFF 		bl	GLCD_Dot
 1560              	.LVL206:
 756:glcd-ks0108-psoc5.c **** 
 1561              		.loc 1 756 0
 1562 00ac 2A46     		mov	r2, r5
 1563 00ae 3146     		mov	r1, r6
 1564 00b0 2046     		mov	r0, r4
 1565 00b2 FFF7FEFF 		bl	GLCD_Dot
 1566              	.LVL207:
ARM GAS  C:\Users\USUARIO\AppData\Local\Temp\cchSBxI2.s 			page 47


 758:glcd-ks0108-psoc5.c ****     		tSwitch += (4 * x + 6);
 1567              		.loc 1 758 0
 1568 00b6 002F     		cmp	r7, #0
 1569 00b8 04DA     		bge	.L124
 759:glcd-ks0108-psoc5.c ****     	} else {
 1570              		.loc 1 759 0
 1571 00ba 07EB8807 		add	r7, r7, r8, lsl #2
 1572              	.LVL208:
 1573 00be 0637     		adds	r7, r7, #6
 1574 00c0 3FB2     		sxth	r7, r7
 1575              	.LVL209:
 1576 00c2 09E0     		b	.L125
 1577              	.L124:
 761:glcd-ks0108-psoc5.c ****       		y--;
 1578              		.loc 1 761 0
 1579 00c4 C9EB0803 		rsb	r3, r9, r8
 1580 00c8 07EB8307 		add	r7, r7, r3, lsl #2
 1581              	.LVL210:
 1582 00cc 0A37     		adds	r7, r7, #10
 1583 00ce 3FB2     		sxth	r7, r7
 1584              	.LVL211:
 762:glcd-ks0108-psoc5.c ****     	}
 1585              		.loc 1 762 0
 1586 00d0 09F1FF39 		add	r9, r9, #-1
 1587              	.LVL212:
 1588 00d4 0FFA89F9 		sxth	r9, r9
 1589              	.LVL213:
 1590              	.L125:
 764:glcd-ks0108-psoc5.c ****   	}
 1591              		.loc 1 764 0
 1592 00d8 08F10108 		add	r8, r8, #1
 1593              	.LVL214:
 1594 00dc 0FFA88F8 		sxth	r8, r8
 1595              	.LVL215:
 1596              	.L123:
 745:glcd-ks0108-psoc5.c ****     	GLCD_Dot(xCenter + x, yCenter + y, mode);
 1597              		.loc 1 745 0
 1598 00e0 C145     		cmp	r9, r8
 1599 00e2 9EDA     		bge	.L126
 766:glcd-ks0108-psoc5.c **** 
 1600              		.loc 1 766 0
 1601 00e4 05B0     		add	sp, sp, #20
 1602              		.cfi_def_cfa_offset 36
 1603              		@ sp needed
 1604 00e6 BDE8F08F 		pop	{r4, r5, r6, r7, r8, r9, r10, fp, pc}
 1605              		.cfi_endproc
 1606              	.LFE81:
 1607              		.size	GLCD_Circle, .-GLCD_Circle
 1608 00ea 00BF     		.section	.text.GLCD_Text,"ax",%progbits
 1609              		.align	2
 1610              		.global	GLCD_Text
 1611              		.thumb
 1612              		.thumb_func
 1613              		.type	GLCD_Text, %function
 1614              	GLCD_Text:
 1615              	.LFB83:
 860:glcd-ks0108-psoc5.c **** //-----------------------------------------------------------------------------
ARM GAS  C:\Users\USUARIO\AppData\Local\Temp\cchSBxI2.s 			page 48


 861:glcd-ks0108-psoc5.c **** //  FUNCTION NAME:	GLCD_Text
 862:glcd-ks0108-psoc5.c **** //
 863:glcd-ks0108-psoc5.c **** //  DESCRIPTION:
 864:glcd-ks0108-psoc5.c **** //
 865:glcd-ks0108-psoc5.c **** //	 Prints the given string at location x,y in the specified font.
 866:glcd-ks0108-psoc5.c **** //	 Prints each character given via calls to lcd_glyph. The entry string
 867:glcd-ks0108-psoc5.c **** //   is null terminated and non 0x20->0x7e characters are ignored.
 868:glcd-ks0108-psoc5.c **** //   (adapted function from the MJK-code)
 869:glcd-ks0108-psoc5.c **** //
 870:glcd-ks0108-psoc5.c **** //  ARGUMENTS:
 871:glcd-ks0108-psoc5.c **** //		left       coordinate of left start of string.                
 872:glcd-ks0108-psoc5.c **** //		top        coordinate of top of string.
 873:glcd-ks0108-psoc5.c **** //		font       font number to use for display (see fonts.h)
 874:glcd-ks0108-psoc5.c **** //		str   	   text string to display (null-terminted)
 875:glcd-ks0108-psoc5.c **** //
 876:glcd-ks0108-psoc5.c **** //  RETURNS:
 877:glcd-ks0108-psoc5.c **** //     none.
 878:glcd-ks0108-psoc5.c **** //
 879:glcd-ks0108-psoc5.c **** //-----------------------------------------------------------------------------
 880:glcd-ks0108-psoc5.c **** void GLCD_Text(uint8 left, uint8 top, uint8 font, const char *str)
 881:glcd-ks0108-psoc5.c **** {
 1616              		.loc 1 881 0
 1617              		.cfi_startproc
 1618              		@ args = 0, pretend = 0, frame = 0
 1619              		@ frame_needed = 0, uses_anonymous_args = 0
 1620              	.LVL216:
 1621 0000 2DE9F041 		push	{r4, r5, r6, r7, r8, lr}
 1622              		.cfi_def_cfa_offset 24
 1623              		.cfi_offset 4, -24
 1624              		.cfi_offset 5, -20
 1625              		.cfi_offset 6, -16
 1626              		.cfi_offset 7, -12
 1627              		.cfi_offset 8, -8
 1628              		.cfi_offset 14, -4
 1629 0004 82B0     		sub	sp, sp, #8
 1630              		.cfi_def_cfa_offset 32
 1631 0006 8046     		mov	r8, r0
 1632 0008 0E46     		mov	r6, r1
 1633 000a 1446     		mov	r4, r2
 1634 000c 1F46     		mov	r7, r3
 1635              	.LVL217:
 882:glcd-ks0108-psoc5.c ****   	uint8 x = left;
 883:glcd-ks0108-psoc5.c ****   	uint8 glyph;
 884:glcd-ks0108-psoc5.c ****   	uint8 width;
 885:glcd-ks0108-psoc5.c **** 	uint8 height;
 886:glcd-ks0108-psoc5.c **** 	uint8 store_width;
 887:glcd-ks0108-psoc5.c **** 	const uint8 *glyph_ptr;
 888:glcd-ks0108-psoc5.c **** 
 889:glcd-ks0108-psoc5.c ****   	while(*str != 0x00)
 1636              		.loc 1 889 0
 1637 000e 53E0     		b	.L129
 1638              	.LVL218:
 1639              	.L137:
 890:glcd-ks0108-psoc5.c ****   	{
 891:glcd-ks0108-psoc5.c ****     	glyph = (uint8)*str;
 892:glcd-ks0108-psoc5.c **** 
 893:glcd-ks0108-psoc5.c **** 		//         "
ARM GAS  C:\Users\USUARIO\AppData\Local\Temp\cchSBxI2.s 			page 49


 894:glcd-ks0108-psoc5.c **** 		if((glyph < fonts[font].glyph_beg) || (glyph > fonts[font].glyph_end))
 1640              		.loc 1 894 0
 1641 0010 04EB8401 		add	r1, r4, r4, lsl #2
 1642 0014 8A00     		lsls	r2, r1, #2
 1643 0016 2B49     		ldr	r1, .L141
 1644 0018 0A44     		add	r2, r2, r1
 1645 001a 127C     		ldrb	r2, [r2, #16]	@ zero_extendqisi2
 1646 001c 9342     		cmp	r3, r2
 1647 001e 07D3     		bcc	.L130
 1648              		.loc 1 894 0 is_stmt 0 discriminator 1
 1649 0020 04EB8400 		add	r0, r4, r4, lsl #2
 1650 0024 8100     		lsls	r1, r0, #2
 1651 0026 2748     		ldr	r0, .L141
 1652 0028 0144     		add	r1, r1, r0
 1653 002a 497C     		ldrb	r1, [r1, #17]	@ zero_extendqisi2
 1654 002c 8B42     		cmp	r3, r1
 1655 002e 05D9     		bls	.L131
 1656              	.L130:
 895:glcd-ks0108-psoc5.c **** 		{ 
 896:glcd-ks0108-psoc5.c **** 			glyph = fonts[font].glyph_def;  //    
 1657              		.loc 1 896 0 is_stmt 1
 1658 0030 04EB8401 		add	r1, r4, r4, lsl #2
 1659 0034 8B00     		lsls	r3, r1, #2
 1660              	.LVL219:
 1661 0036 2349     		ldr	r1, .L141
 1662 0038 0B44     		add	r3, r3, r1
 1663 003a 9B7C     		ldrb	r3, [r3, #18]	@ zero_extendqisi2
 1664              	.LVL220:
 1665              	.L131:
 897:glcd-ks0108-psoc5.c **** 		}
 898:glcd-ks0108-psoc5.c **** 
 899:glcd-ks0108-psoc5.c **** 
 900:glcd-ks0108-psoc5.c ****     	/*      ( 0)  
 901:glcd-ks0108-psoc5.c ****     	glyph -= fonts[font].glyph_beg; //      _dot_g
 1666              		.loc 1 901 0
 1667 003c 9A1A     		subs	r2, r3, r2
 1668 003e D2B2     		uxtb	r2, r2
 1669              	.LVL221:
 902:glcd-ks0108-psoc5.c ****     	width = fonts[font].fixed_width;	/* check if it is a fixed width */
 1670              		.loc 1 902 0
 1671 0040 04EB8403 		add	r3, r4, r4, lsl #2
 1672 0044 9800     		lsls	r0, r3, #2
 1673 0046 1F4B     		ldr	r3, .L141
 1674 0048 1844     		add	r0, r0, r3
 1675 004a 057A     		ldrb	r5, [r0, #8]	@ zero_extendqisi2
 1676              	.LVL222:
 903:glcd-ks0108-psoc5.c **** 		if(width == 0)
 1677              		.loc 1 903 0
 1678 004c 0DB9     		cbnz	r5, .L132
 904:glcd-ks0108-psoc5.c **** 		{               // 0     
 905:glcd-ks0108-psoc5.c **** 			width=fonts[font].width_table[glyph];	/* get the variable width instead */
 1679              		.loc 1 905 0
 1680 004e C368     		ldr	r3, [r0, #12]
 1681 0050 9D5C     		ldrb	r5, [r3, r2]	@ zero_extendqisi2
 1682              	.LVL223:
 1683              	.L132:
 906:glcd-ks0108-psoc5.c **** 		}
ARM GAS  C:\Users\USUARIO\AppData\Local\Temp\cchSBxI2.s 			page 50


 907:glcd-ks0108-psoc5.c **** 
 908:glcd-ks0108-psoc5.c **** 
 909:glcd-ks0108-psoc5.c **** 		height = fonts[font].glyph_height;      //    
 1684              		.loc 1 909 0
 1685 0052 1C49     		ldr	r1, .L141
 1686 0054 A000     		lsls	r0, r4, #2
 1687 0056 0319     		adds	r3, r0, r4
 1688 0058 4FEA830E 		lsl	lr, r3, #2
 1689 005c 01EB0E03 		add	r3, r1, lr
 1690 0060 5B78     		ldrb	r3, [r3, #1]	@ zero_extendqisi2
 1691              	.LVL224:
 910:glcd-ks0108-psoc5.c **** 		store_width = fonts[font].store_width;  //   ()
 1692              		.loc 1 910 0
 1693 0062 11F80EC0 		ldrb	ip, [r1, lr]	@ zero_extendqisi2
 1694              	.LVL225:
 911:glcd-ks0108-psoc5.c **** 
 912:glcd-ks0108-psoc5.c **** 		glyph_ptr = fonts[font].glyph_table + ((unsigned int)glyph * (unsigned int)store_width * (unsigne
 1695              		.loc 1 912 0
 1696 0066 8E44     		add	lr, lr, r1
 1697 0068 DEF80410 		ldr	r1, [lr, #4]
 1698 006c 0CFB02F2 		mul	r2, ip, r2
 1699              	.LVL226:
 1700 0070 03FB0211 		mla	r1, r3, r2, r1
 1701              	.LVL227:
 913:glcd-ks0108-psoc5.c ****         //          five_dot_glyph_table --->        -
 914:glcd-ks0108-psoc5.c **** 
 915:glcd-ks0108-psoc5.c **** 		/* range check / limit things here (    ) */
 916:glcd-ks0108-psoc5.c **** 		if(x > GLCD_RIGHT)
 1702              		.loc 1 916 0
 1703 0074 18F0800F 		tst	r8, #128
 1704 0078 01D0     		beq	.L133
 917:glcd-ks0108-psoc5.c **** 		{
 918:glcd-ks0108-psoc5.c **** 			x = GLCD_RIGHT; 
 1705              		.loc 1 918 0
 1706 007a 4FF07F08 		mov	r8, #127
 1707              	.LVL228:
 1708              	.L133:
 919:glcd-ks0108-psoc5.c **** 		}
 920:glcd-ks0108-psoc5.c **** 		if((x + width) > GLCD_RIGHT+1)
 1709              		.loc 1 920 0
 1710 007e 08EB0502 		add	r2, r8, r5
 1711 0082 802A     		cmp	r2, #128
 1712 0084 02DD     		ble	.L134
 921:glcd-ks0108-psoc5.c **** 		{
 922:glcd-ks0108-psoc5.c **** 			width = GLCD_RIGHT - x + 1;
 1713              		.loc 1 922 0
 1714 0086 C8F18000 		rsb	r0, r8, #128
 1715 008a C5B2     		uxtb	r5, r0
 1716              	.LVL229:
 1717              	.L134:
 923:glcd-ks0108-psoc5.c **** 		}
 924:glcd-ks0108-psoc5.c **** 		if(top > GLCD_BOTTOM)
 1718              		.loc 1 924 0
 1719 008c 3F2E     		cmp	r6, #63
 1720 008e 00D9     		bls	.L135
 925:glcd-ks0108-psoc5.c **** 		{
 926:glcd-ks0108-psoc5.c **** 			top = GLCD_BOTTOM;
ARM GAS  C:\Users\USUARIO\AppData\Local\Temp\cchSBxI2.s 			page 51


 1721              		.loc 1 926 0
 1722 0090 3F26     		movs	r6, #63
 1723              	.LVL230:
 1724              	.L135:
 927:glcd-ks0108-psoc5.c **** 		}
 928:glcd-ks0108-psoc5.c **** 		if((top + height) > GLCD_BOTTOM+1)
 1725              		.loc 1 928 0
 1726 0092 F218     		adds	r2, r6, r3
 1727 0094 402A     		cmp	r2, #64
 1728 0096 02DD     		ble	.L136
 929:glcd-ks0108-psoc5.c **** 		{
 930:glcd-ks0108-psoc5.c **** 			height = GLCD_BOTTOM - top + 1;
 1729              		.loc 1 930 0
 1730 0098 C6F14003 		rsb	r3, r6, #64
 1731              	.LVL231:
 1732 009c DBB2     		uxtb	r3, r3
 1733              	.LVL232:
 1734              	.L136:
 931:glcd-ks0108-psoc5.c **** 		}
 932:glcd-ks0108-psoc5.c **** 
 933:glcd-ks0108-psoc5.c **** 		GLCD_Glyph(x,top,width,height,glyph_ptr,store_width);  /* plug symbol into buffer */
 1735              		.loc 1 933 0
 1736 009e CDF804C0 		str	ip, [sp, #4]
 1737 00a2 0091     		str	r1, [sp]
 1738 00a4 2A46     		mov	r2, r5
 1739 00a6 3146     		mov	r1, r6
 1740              	.LVL233:
 1741 00a8 4046     		mov	r0, r8
 1742 00aa FFF7FEFF 		bl	GLCD_Glyph
 1743              	.LVL234:
 934:glcd-ks0108-psoc5.c **** 
 935:glcd-ks0108-psoc5.c **** 		x += width;							/* move right for next character */
 1744              		.loc 1 935 0
 1745 00ae 08EB0500 		add	r0, r8, r5
 1746 00b2 5FFA80F8 		uxtb	r8, r0
 1747              	.LVL235:
 936:glcd-ks0108-psoc5.c **** 		str++;								/* point to next character in string */
 1748              		.loc 1 936 0
 1749 00b6 0137     		adds	r7, r7, #1
 1750              	.LVL236:
 1751              	.L129:
 889:glcd-ks0108-psoc5.c ****   	{
 1752              		.loc 1 889 0
 1753 00b8 3B78     		ldrb	r3, [r7]	@ zero_extendqisi2
 1754 00ba 002B     		cmp	r3, #0
 1755 00bc A8D1     		bne	.L137
 937:glcd-ks0108-psoc5.c **** 	}
 938:glcd-ks0108-psoc5.c **** }
 1756              		.loc 1 938 0
 1757 00be 02B0     		add	sp, sp, #8
 1758              		.cfi_def_cfa_offset 24
 1759              		@ sp needed
 1760 00c0 BDE8F081 		pop	{r4, r5, r6, r7, r8, pc}
 1761              	.LVL237:
 1762              	.L142:
 1763              		.align	2
 1764              	.L141:
ARM GAS  C:\Users\USUARIO\AppData\Local\Temp\cchSBxI2.s 			page 52


 1765 00c4 00000000 		.word	fonts
 1766              		.cfi_endproc
 1767              	.LFE83:
 1768              		.size	GLCD_Text, .-GLCD_Text
 1769              		.section	.text.GLCD_ScreenBitmap,"ax",%progbits
 1770              		.align	2
 1771              		.global	GLCD_ScreenBitmap
 1772              		.thumb
 1773              		.thumb_func
 1774              		.type	GLCD_ScreenBitmap, %function
 1775              	GLCD_ScreenBitmap:
 1776              	.LFB84:
 939:glcd-ks0108-psoc5.c **** 
 940:glcd-ks0108-psoc5.c **** //-----------------------------------------------------------------------------
 941:glcd-ks0108-psoc5.c **** //  FUNCTION NAME:	GLCD_ScreenBitmap
 942:glcd-ks0108-psoc5.c **** //
 943:glcd-ks0108-psoc5.c **** //  DESCRIPTION:
 944:glcd-ks0108-psoc5.c **** //
 945:glcd-ks0108-psoc5.c **** //	Display full screen bitmap.
 946:glcd-ks0108-psoc5.c **** //	Image has to be rotated and bits flipped
 947:glcd-ks0108-psoc5.c **** //
 948:glcd-ks0108-psoc5.c **** //	Bitmaps can be created by "The Dot Factory" program
 949:glcd-ks0108-psoc5.c **** //		Order: LSB first
 950:glcd-ks0108-psoc5.c **** //		Flip/rotate: 270?
 951:glcd-ks0108-psoc5.c **** //
 952:glcd-ks0108-psoc5.c **** //  ARGUMENTS:
 953:glcd-ks0108-psoc5.c **** //		pbitmap
 954:glcd-ks0108-psoc5.c **** //
 955:glcd-ks0108-psoc5.c **** //  RETURNS:
 956:glcd-ks0108-psoc5.c **** //     none.
 957:glcd-ks0108-psoc5.c **** //
 958:glcd-ks0108-psoc5.c **** //-----------------------------------------------------------------------------
 959:glcd-ks0108-psoc5.c **** void GLCD_ScreenBitmap(const uint8 * pbitmap)
 960:glcd-ks0108-psoc5.c **** {
 1777              		.loc 1 960 0
 1778              		.cfi_startproc
 1779              		@ args = 0, pretend = 0, frame = 0
 1780              		@ frame_needed = 0, uses_anonymous_args = 0
 1781              	.LVL238:
 1782 0000 F8B5     		push	{r3, r4, r5, r6, r7, lr}
 1783              		.cfi_def_cfa_offset 24
 1784              		.cfi_offset 3, -24
 1785              		.cfi_offset 4, -20
 1786              		.cfi_offset 5, -16
 1787              		.cfi_offset 6, -12
 1788              		.cfi_offset 7, -8
 1789              		.cfi_offset 14, -4
 1790 0002 0746     		mov	r7, r0
 1791              	.LVL239:
 961:glcd-ks0108-psoc5.c **** 	// pin in demopic
 962:glcd-ks0108-psoc5.c **** 	int i,x,y;
 963:glcd-ks0108-psoc5.c **** 	uint8 data;
 964:glcd-ks0108-psoc5.c **** 	uint16 idx;
 965:glcd-ks0108-psoc5.c **** 	
 966:glcd-ks0108-psoc5.c **** 	for (i=0;i<GLCD_NUMCONTROLLER;i++) {
 1792              		.loc 1 966 0
 1793 0004 0026     		movs	r6, #0
ARM GAS  C:\Users\USUARIO\AppData\Local\Temp\cchSBxI2.s 			page 53


 1794 0006 27E0     		b	.L144
 1795              	.LVL240:
 1796              	.L150:
 967:glcd-ks0108-psoc5.c **** 		GLCD_SelectChip(i);
 1797              		.loc 1 967 0
 1798 0008 F0B2     		uxtb	r0, r6
 1799 000a FFF7FEFF 		bl	GLCD_SelectChip
 1800              	.LVL241:
 968:glcd-ks0108-psoc5.c **** 		for (y=0;y<GLCD_MAXPAGE;y++) {
 1801              		.loc 1 968 0
 1802 000e 0025     		movs	r5, #0
 1803 0010 1FE0     		b	.L145
 1804              	.LVL242:
 1805              	.L149:
 969:glcd-ks0108-psoc5.c **** 			GLCD_SetPage(y);
 1806              		.loc 1 969 0
 1807 0012 E8B2     		uxtb	r0, r5
 1808 0014 FFF7FEFF 		bl	GLCD_SetPage
 1809              	.LVL243:
 970:glcd-ks0108-psoc5.c **** 			GLCD_SetAddress(0);
 1810              		.loc 1 970 0
 1811 0018 0020     		movs	r0, #0
 1812 001a FFF7FEFF 		bl	GLCD_SetAddress
 1813              	.LVL244:
 971:glcd-ks0108-psoc5.c **** 			for (x=0;x<GLCD_MAXADDRESS;x++) {
 1814              		.loc 1 971 0
 1815 001e 0024     		movs	r4, #0
 1816 0020 14E0     		b	.L146
 1817              	.LVL245:
 1818              	.L148:
 972:glcd-ks0108-psoc5.c **** 				idx=((GLCD_NUMCONTROLLER-1-i)*GLCD_MAXADDRESS*GLCD_MAXPAGE);
 1819              		.loc 1 972 0
 1820 0022 C6F10103 		rsb	r3, r6, #1
 1821 0026 5B02     		lsls	r3, r3, #9
 1822 0028 9BB2     		uxth	r3, r3
 1823              	.LVL246:
 973:glcd-ks0108-psoc5.c **** 				idx+=GLCD_MAXPAGE*(GLCD_MAXADDRESS-1-x);
 1824              		.loc 1 973 0
 1825 002a C4F13F02 		rsb	r2, r4, #63
 1826 002e 03EBC203 		add	r3, r3, r2, lsl #3
 1827              	.LVL247:
 1828 0032 9BB2     		uxth	r3, r3
 1829              	.LVL248:
 974:glcd-ks0108-psoc5.c **** 				idx+=y;
 1830              		.loc 1 974 0
 1831 0034 2B44     		add	r3, r3, r5
 1832              	.LVL249:
 1833 0036 9BB2     		uxth	r3, r3
 1834              	.LVL250:
 975:glcd-ks0108-psoc5.c **** 				data=pbitmap[idx];
 1835              		.loc 1 975 0
 1836 0038 F85C     		ldrb	r0, [r7, r3]	@ zero_extendqisi2
 1837              	.LVL251:
 976:glcd-ks0108-psoc5.c **** 				if (gGLCD_inverted) data=~data;
 1838              		.loc 1 976 0
 1839 003a 0A4B     		ldr	r3, .L152
 1840              	.LVL252:
ARM GAS  C:\Users\USUARIO\AppData\Local\Temp\cchSBxI2.s 			page 54


 1841 003c 93F80034 		ldrb	r3, [r3, #1024]	@ zero_extendqisi2
 1842 0040 0BB1     		cbz	r3, .L147
 1843              		.loc 1 976 0 is_stmt 0 discriminator 1
 1844 0042 C043     		mvns	r0, r0
 1845              	.LVL253:
 1846 0044 C0B2     		uxtb	r0, r0
 1847              	.LVL254:
 1848              	.L147:
 977:glcd-ks0108-psoc5.c **** 				GLCD_WriteData(data);
 1849              		.loc 1 977 0 is_stmt 1 discriminator 2
 1850 0046 FFF7FEFF 		bl	GLCD_WriteData
 1851              	.LVL255:
 971:glcd-ks0108-psoc5.c **** 				idx=((GLCD_NUMCONTROLLER-1-i)*GLCD_MAXADDRESS*GLCD_MAXPAGE);
 1852              		.loc 1 971 0 discriminator 2
 1853 004a 0134     		adds	r4, r4, #1
 1854              	.LVL256:
 1855              	.L146:
 971:glcd-ks0108-psoc5.c **** 				idx=((GLCD_NUMCONTROLLER-1-i)*GLCD_MAXADDRESS*GLCD_MAXPAGE);
 1856              		.loc 1 971 0 is_stmt 0 discriminator 1
 1857 004c 3F2C     		cmp	r4, #63
 1858 004e E8DD     		ble	.L148
 968:glcd-ks0108-psoc5.c **** 			GLCD_SetPage(y);
 1859              		.loc 1 968 0 is_stmt 1 discriminator 2
 1860 0050 0135     		adds	r5, r5, #1
 1861              	.LVL257:
 1862              	.L145:
 968:glcd-ks0108-psoc5.c **** 			GLCD_SetPage(y);
 1863              		.loc 1 968 0 is_stmt 0 discriminator 1
 1864 0052 072D     		cmp	r5, #7
 1865 0054 DDDD     		ble	.L149
 966:glcd-ks0108-psoc5.c **** 		GLCD_SelectChip(i);
 1866              		.loc 1 966 0 is_stmt 1 discriminator 2
 1867 0056 0136     		adds	r6, r6, #1
 1868              	.LVL258:
 1869              	.L144:
 966:glcd-ks0108-psoc5.c **** 		GLCD_SelectChip(i);
 1870              		.loc 1 966 0 is_stmt 0 discriminator 1
 1871 0058 012E     		cmp	r6, #1
 1872 005a D5DD     		ble	.L150
 978:glcd-ks0108-psoc5.c **** 			}
 979:glcd-ks0108-psoc5.c **** 		}
 980:glcd-ks0108-psoc5.c **** 	}
 981:glcd-ks0108-psoc5.c **** 	GLCD_SelectChip(GLCD_SELECTNONE);
 1873              		.loc 1 981 0 is_stmt 1
 1874 005c 6320     		movs	r0, #99
 1875 005e FFF7FEFF 		bl	GLCD_SelectChip
 1876              	.LVL259:
 1877 0062 F8BD     		pop	{r3, r4, r5, r6, r7, pc}
 1878              	.LVL260:
 1879              	.L153:
 1880              		.align	2
 1881              	.L152:
 1882 0064 00000000 		.word	.LANCHOR0
 1883              		.cfi_endproc
 1884              	.LFE84:
 1885              		.size	GLCD_ScreenBitmap, .-GLCD_ScreenBitmap
 1886              		.section	.rodata
ARM GAS  C:\Users\USUARIO\AppData\Local\Temp\cchSBxI2.s 			page 55


 1887              		.align	2
 1888              		.set	.LANCHOR1,. + 0
 1889              		.type	GLCD_MaskArray, %object
 1890              		.size	GLCD_MaskArray, 8
 1891              	GLCD_MaskArray:
 1892 0000 01       		.byte	1
 1893 0001 02       		.byte	2
 1894 0002 04       		.byte	4
 1895 0003 08       		.byte	8
 1896 0004 10       		.byte	16
 1897 0005 20       		.byte	32
 1898 0006 40       		.byte	64
 1899 0007 80       		.byte	-128
 1900              		.bss
 1901              		.align	2
 1902              		.set	.LANCHOR0,. + 0
 1903              		.type	gGLCD_buffer, %object
 1904              		.size	gGLCD_buffer, 1024
 1905              	gGLCD_buffer:
 1906 0000 00000000 		.space	1024
 1906      00000000 
 1906      00000000 
 1906      00000000 
 1906      00000000 
 1907              		.type	gGLCD_inverted, %object
 1908              		.size	gGLCD_inverted, 1
 1909              	gGLCD_inverted:
 1910 0400 00       		.space	1
 1911              		.text
 1912              	.Letext0:
 1913              		.file 2 "c:\\program files (x86)\\cypress\\psoc creator\\4.3\\psoc creator\\import\\gnu\\arm\\5.4.
 1914              		.file 3 "c:\\program files (x86)\\cypress\\psoc creator\\4.3\\psoc creator\\import\\gnu\\arm\\5.4.
 1915              		.file 4 "Generated_Source\\PSoC5/cytypes.h"
 1916              		.file 5 "Generated_Source\\PSoC5/LCD128x64_1_fonts.h"
 1917              		.file 6 "Generated_Source\\PSoC5/core_cm3.h"
 1918              		.file 7 "Generated_Source\\PSoC5/LCD_DATA.h"