ARM GAS  C:\Users\USUARIO\AppData\Local\Temp\ccVm8SVK.s 			page 1


   1              		.syntax unified
   2              		.cpu cortex-m3
   3              		.fpu softvfp
   4              		.eabi_attribute 20, 1
   5              		.eabi_attribute 21, 1
   6              		.eabi_attribute 23, 3
   7              		.eabi_attribute 24, 1
   8              		.eabi_attribute 25, 1
   9              		.eabi_attribute 26, 1
  10              		.eabi_attribute 30, 1
  11              		.eabi_attribute 34, 1
  12              		.eabi_attribute 18, 4
  13              		.thumb
  14              		.syntax unified
  15              		.file	"LCD128x64_1.c"
  16              		.text
  17              	.Ltext0:
  18              		.cfi_sections	.debug_frame
  19              		.section	.text.LCD128x64_1_SelectChip,"ax",%progbits
  20              		.align	2
  21              		.thumb
  22              		.thumb_func
  23              		.type	LCD128x64_1_SelectChip, %function
  24              	LCD128x64_1_SelectChip:
  25              	.LFB64:
  26              		.file 1 "Generated_Source\\PSoC5\\LCD128x64_1.c"
   1:Generated_Source\PSoC5/LCD128x64_1.c **** /*
   2:Generated_Source\PSoC5/LCD128x64_1.c ****  * Graphics-LCD KS0108 with PSoC5
   3:Generated_Source\PSoC5/LCD128x64_1.c ****  * by EA4FRB - Melchor Varela, Madrid, Spain. <melchor.varela@gmail.com>
   4:Generated_Source\PSoC5/LCD128x64_1.c ****  *
   5:Generated_Source\PSoC5/LCD128x64_1.c ****  * Code ported from Graphics-LCD KS0108 with LPC2106 
   6:Generated_Source\PSoC5/LCD128x64_1.c ****  * by Martin THOMAS <eversmith@heizung-thomas.de>
   7:Generated_Source\PSoC5/LCD128x64_1.c ****  *
   8:Generated_Source\PSoC5/LCD128x64_1.c ****  * - text-output based on code from a 8051-sample-application by Michael J. Karas
   9:Generated_Source\PSoC5/LCD128x64_1.c ****  * - graphics-functions (line/circle) from the "ape" AVR-ks0108-library
  10:Generated_Source\PSoC5/LCD128x64_1.c ****  */
  11:Generated_Source\PSoC5/LCD128x64_1.c **** 
  12:Generated_Source\PSoC5/LCD128x64_1.c **** /*
  13:Generated_Source\PSoC5/LCD128x64_1.c **** The following license is for all parts of this code done by 
  14:Generated_Source\PSoC5/LCD128x64_1.c **** Martin Thomas. Code from others used here may have other license terms.
  15:Generated_Source\PSoC5/LCD128x64_1.c **** 
  16:Generated_Source\PSoC5/LCD128x64_1.c **** Copyright (C) 2004 Martin THOMAS
  17:Generated_Source\PSoC5/LCD128x64_1.c **** 
  18:Generated_Source\PSoC5/LCD128x64_1.c **** Permission is hereby granted, free of charge, to any person obtaining a copy of
  19:Generated_Source\PSoC5/LCD128x64_1.c **** this software and associated documentation files (the "Software"), to deal in
  20:Generated_Source\PSoC5/LCD128x64_1.c **** the Software without restriction, including without limitation the rights to
  21:Generated_Source\PSoC5/LCD128x64_1.c **** use, copy, modify, merge, publish, distribute, sublicense, and/or sell copies of
  22:Generated_Source\PSoC5/LCD128x64_1.c **** the Software, and to permit persons to whom the Software is furnished to do so,
  23:Generated_Source\PSoC5/LCD128x64_1.c **** subject to the following conditions:
  24:Generated_Source\PSoC5/LCD128x64_1.c **** 
  25:Generated_Source\PSoC5/LCD128x64_1.c **** ! The above copyright notice and this permission notice shall be included in all
  26:Generated_Source\PSoC5/LCD128x64_1.c **** ! copies or substantial portions of the Software.
  27:Generated_Source\PSoC5/LCD128x64_1.c **** 
  28:Generated_Source\PSoC5/LCD128x64_1.c **** THE SOFTWARE IS PROVIDED "AS IS", WITHOUT WARRANTY OF ANY KIND, EXPRESS OR
  29:Generated_Source\PSoC5/LCD128x64_1.c **** IMPLIED, INCLUDING BUT NOT LIMITED TO THE WARRANTIES OF MERCHANTABILITY, FITNESS
  30:Generated_Source\PSoC5/LCD128x64_1.c **** FOR A PARTICULAR PURPOSE AND NONINFRINGEMENT. IN NO EVENT SHALL THE AUTHORS OR
  31:Generated_Source\PSoC5/LCD128x64_1.c **** COPYRIGHT HOLDERS BE LIABLE FOR ANY CLAIM, DAMAGES OR OTHER LIABILITY, WHETHER
ARM GAS  C:\Users\USUARIO\AppData\Local\Temp\ccVm8SVK.s 			page 2


  32:Generated_Source\PSoC5/LCD128x64_1.c **** IN AN ACTION OF CONTRACT, TORT OR OTHERWISE, ARISING FROM, OUT OF OR IN
  33:Generated_Source\PSoC5/LCD128x64_1.c **** CONNECTION WITH THE SOFTWARE OR THE USE OR OTHER DEALINGS IN THE SOFTWARE.
  34:Generated_Source\PSoC5/LCD128x64_1.c **** */
  35:Generated_Source\PSoC5/LCD128x64_1.c **** //*****************************************************************************/
  36:Generated_Source\PSoC5/LCD128x64_1.c **** //
  37:Generated_Source\PSoC5/LCD128x64_1.c **** //	PROJECT:	GLCD Library
  38:Generated_Source\PSoC5/LCD128x64_1.c **** // 	FILE NAME: 	glcd-ks0108-psoc5.c
  39:Generated_Source\PSoC5/LCD128x64_1.c **** // 	AUTHOR:		EA4FRB - Melchor Varela
  40:Generated_Source\PSoC5/LCD128x64_1.c **** //
  41:Generated_Source\PSoC5/LCD128x64_1.c **** // 	DESCRIPTION
  42:Generated_Source\PSoC5/LCD128x64_1.c **** //	
  43:Generated_Source\PSoC5/LCD128x64_1.c **** //	Graphics-LCD KS0108 with PSoC5
  44:Generated_Source\PSoC5/LCD128x64_1.c **** //
  45:Generated_Source\PSoC5/LCD128x64_1.c **** // 	HISTORY
  46:Generated_Source\PSoC5/LCD128x64_1.c **** //
  47:Generated_Source\PSoC5/LCD128x64_1.c **** //	NAME   	DATE		REMARKS
  48:Generated_Source\PSoC5/LCD128x64_1.c **** //
  49:Generated_Source\PSoC5/LCD128x64_1.c **** //	MVM	   	July 2010	Creation
  50:Generated_Source\PSoC5/LCD128x64_1.c **** //
  51:Generated_Source\PSoC5/LCD128x64_1.c **** //*****************************************************************************/
  52:Generated_Source\PSoC5/LCD128x64_1.c **** /*
  53:Generated_Source\PSoC5/LCD128x64_1.c **** PSoC5 Port Description:
  54:Generated_Source\PSoC5/LCD128x64_1.c **** 
  55:Generated_Source\PSoC5/LCD128x64_1.c **** This port has been prepared for the PSoC5 FirstTouch StarterKit. The display is 
  56:Generated_Source\PSoC5/LCD128x64_1.c **** connected to the kit using the expansion board. Since the display is powered at 5V 
  57:Generated_Source\PSoC5/LCD128x64_1.c **** and the PSoC5 is operating at 3.3V and the I/O ports are not 5V compatible, it has been
  58:Generated_Source\PSoC5/LCD128x64_1.c **** decided using the display in write mode only and perform the busy check with a
  59:Generated_Source\PSoC5/LCD128x64_1.c **** timer. Therefore the display R/W is cabled to '0' level.
  60:Generated_Source\PSoC5/LCD128x64_1.c **** 
  61:Generated_Source\PSoC5/LCD128x64_1.c **** Hardware resources:
  62:Generated_Source\PSoC5/LCD128x64_1.c **** 
  63:Generated_Source\PSoC5/LCD128x64_1.c **** - Timer_LCD: Timer 16bit operating @ 24 Mhz in one-shot mode
  64:Generated_Source\PSoC5/LCD128x64_1.c **** - LCDC: Digital output pins block for display control 
  65:Generated_Source\PSoC5/LCD128x64_1.c **** - LCDD: Digital output pins block for display data 
  66:Generated_Source\PSoC5/LCD128x64_1.c **** - LCD_DATA: Control register connected to LCDD for display data
  67:Generated_Source\PSoC5/LCD128x64_1.c **** 
  68:Generated_Source\PSoC5/LCD128x64_1.c **** Pin Mapping:
  69:Generated_Source\PSoC5/LCD128x64_1.c **** 	- CS1	P2_7
  70:Generated_Source\PSoC5/LCD128x64_1.c **** 	- CS2	P2_6
  71:Generated_Source\PSoC5/LCD128x64_1.c **** 	- RST	P6_7
  72:Generated_Source\PSoC5/LCD128x64_1.c **** 	- E		P6_5
  73:Generated_Source\PSoC5/LCD128x64_1.c **** 	- DI	P6_6
  74:Generated_Source\PSoC5/LCD128x64_1.c **** 	- D0	P6_3
  75:Generated_Source\PSoC5/LCD128x64_1.c **** 	- D1	P6_2
  76:Generated_Source\PSoC5/LCD128x64_1.c **** 	- D2	P6_1
  77:Generated_Source\PSoC5/LCD128x64_1.c **** 	- D3	P6_0
  78:Generated_Source\PSoC5/LCD128x64_1.c **** 	- D4	P4_7
  79:Generated_Source\PSoC5/LCD128x64_1.c **** 	- D5	P4_6
  80:Generated_Source\PSoC5/LCD128x64_1.c **** 	- D6	P4_5
  81:Generated_Source\PSoC5/LCD128x64_1.c **** 	- D7	P4_4
  82:Generated_Source\PSoC5/LCD128x64_1.c **** 	- R/W	"0"
  83:Generated_Source\PSoC5/LCD128x64_1.c **** */
  84:Generated_Source\PSoC5/LCD128x64_1.c **** 
  85:Generated_Source\PSoC5/LCD128x64_1.c **** //#include <device.h>
  86:Generated_Source\PSoC5/LCD128x64_1.c **** 
  87:Generated_Source\PSoC5/LCD128x64_1.c **** //#include "glcd.h"
  88:Generated_Source\PSoC5/LCD128x64_1.c **** //#include "fonts.h"
ARM GAS  C:\Users\USUARIO\AppData\Local\Temp\ccVm8SVK.s 			page 3


  89:Generated_Source\PSoC5/LCD128x64_1.c **** 
  90:Generated_Source\PSoC5/LCD128x64_1.c **** #include "LCD128x64_1.h"
  91:Generated_Source\PSoC5/LCD128x64_1.c **** #include <device.h>
  92:Generated_Source\PSoC5/LCD128x64_1.c **** 
  93:Generated_Source\PSoC5/LCD128x64_1.c **** 
  94:Generated_Source\PSoC5/LCD128x64_1.c **** 
  95:Generated_Source\PSoC5/LCD128x64_1.c **** //-----------------------------------------------------------------------------
  96:Generated_Source\PSoC5/LCD128x64_1.c **** //  Defines
  97:Generated_Source\PSoC5/LCD128x64_1.c **** //-----------------------------------------------------------------------------
  98:Generated_Source\PSoC5/LCD128x64_1.c **** #define GLCD_MODECMD  0
  99:Generated_Source\PSoC5/LCD128x64_1.c **** #define GLCD_MODEDATA 1
 100:Generated_Source\PSoC5/LCD128x64_1.c **** 
 101:Generated_Source\PSoC5/LCD128x64_1.c **** #define GLCD_ON				0x3F
 102:Generated_Source\PSoC5/LCD128x64_1.c **** #define GLCD_DISP_START0	0xC0
 103:Generated_Source\PSoC5/LCD128x64_1.c **** #define GLCD_SET_PAGE       0xB8
 104:Generated_Source\PSoC5/LCD128x64_1.c **** #define GLCD_SET_ADDRESS	0x40
 105:Generated_Source\PSoC5/LCD128x64_1.c **** 
 106:Generated_Source\PSoC5/LCD128x64_1.c **** #define GLCD_X_BYTES 	(GLCD_NUMCONTROLLERX*GLCD_MAXADDRESS)
 107:Generated_Source\PSoC5/LCD128x64_1.c **** #define GLCD_Y_BYTES 	(GLCD_NUMCONTROLLERY*GLCD_MAXPAGE)
 108:Generated_Source\PSoC5/LCD128x64_1.c **** 
 109:Generated_Source\PSoC5/LCD128x64_1.c **** #define GLCD_SELECTNONE		99
 110:Generated_Source\PSoC5/LCD128x64_1.c **** 
 111:Generated_Source\PSoC5/LCD128x64_1.c **** //#define TIMER_LCD_PERIOD_NS	(1000000000/24000000)
 112:Generated_Source\PSoC5/LCD128x64_1.c **** #define TIMER_LCD_PERIOD_NS	(1000000000/24000000)
 113:Generated_Source\PSoC5/LCD128x64_1.c **** #define NS_TO_COUNT(ns)		((ns)/TIMER_LCD_PERIOD_NS)			
 114:Generated_Source\PSoC5/LCD128x64_1.c **** 
 115:Generated_Source\PSoC5/LCD128x64_1.c **** //#define	BUSY_TIME_NS		1000	//1uS
 116:Generated_Source\PSoC5/LCD128x64_1.c **** #define	BUSY_TIME_NS		1000	//1uS
 117:Generated_Source\PSoC5/LCD128x64_1.c **** //#define E_WIDTH_NS			450
 118:Generated_Source\PSoC5/LCD128x64_1.c **** //#define ADDR_SETUP_NS		140
 119:Generated_Source\PSoC5/LCD128x64_1.c **** #define E_WIDTH_NS			450
 120:Generated_Source\PSoC5/LCD128x64_1.c **** #define ADDR_SETUP_NS		140
 121:Generated_Source\PSoC5/LCD128x64_1.c **** //-----------------------------------------------------------------------------
 122:Generated_Source\PSoC5/LCD128x64_1.c **** //  Locals
 123:Generated_Source\PSoC5/LCD128x64_1.c **** //-----------------------------------------------------------------------------
 124:Generated_Source\PSoC5/LCD128x64_1.c **** static uint8 gGLCD_inverted;
 125:Generated_Source\PSoC5/LCD128x64_1.c **** 
 126:Generated_Source\PSoC5/LCD128x64_1.c **** static uint8 gGLCD_buffer[GLCD_Y_BYTES][GLCD_X_BYTES];
 127:Generated_Source\PSoC5/LCD128x64_1.c **** 
 128:Generated_Source\PSoC5/LCD128x64_1.c **** /* from MJK: pixel level bit masks for display */
 129:Generated_Source\PSoC5/LCD128x64_1.c **** /* this array is setup to map the order */
 130:Generated_Source\PSoC5/LCD128x64_1.c **** /* of bits in a byte to the vertical order */
 131:Generated_Source\PSoC5/LCD128x64_1.c **** /* of bits at the LCD controller */
 132:Generated_Source\PSoC5/LCD128x64_1.c **** /* TODO: use somekind of (1<<n) macro */
 133:Generated_Source\PSoC5/LCD128x64_1.c **** static const uint8 GLCD_MaskArray[8] =
 134:Generated_Source\PSoC5/LCD128x64_1.c ****          {0x01,0x02,0x04,0x08,0x10,0x20,0x40,0x80};
 135:Generated_Source\PSoC5/LCD128x64_1.c **** 
 136:Generated_Source\PSoC5/LCD128x64_1.c **** //-----------------------------------------------------------------------------
 137:Generated_Source\PSoC5/LCD128x64_1.c **** //  Prototypes
 138:Generated_Source\PSoC5/LCD128x64_1.c **** //-----------------------------------------------------------------------------
 139:Generated_Source\PSoC5/LCD128x64_1.c **** static void LCD128x64_1_SetupIO(void);
 140:Generated_Source\PSoC5/LCD128x64_1.c **** static void LCD128x64_1_TimerWait(void);
 141:Generated_Source\PSoC5/LCD128x64_1.c **** static void LCD128x64_1_TimerSet(uint16 count);
 142:Generated_Source\PSoC5/LCD128x64_1.c **** static void LCD128x64_1_SetPage(uint8 page);
 143:Generated_Source\PSoC5/LCD128x64_1.c **** static void LCD128x64_1_SetAddress(uint8 address);
 144:Generated_Source\PSoC5/LCD128x64_1.c **** static void LCD128x64_1_SelectChip(uint8 chip);
 145:Generated_Source\PSoC5/LCD128x64_1.c **** static void LCD128x64_1_WriteDataCmd(uint8 byte, uint8 mode);
ARM GAS  C:\Users\USUARIO\AppData\Local\Temp\ccVm8SVK.s 			page 4


 146:Generated_Source\PSoC5/LCD128x64_1.c **** static void LCD128x64_1_WriteCommand(uint8 byte);
 147:Generated_Source\PSoC5/LCD128x64_1.c **** static void LCD128x64_1_WriteData(uint8 byte);
 148:Generated_Source\PSoC5/LCD128x64_1.c **** 
 149:Generated_Source\PSoC5/LCD128x64_1.c **** static void LCD128x64_1_FillBuffer(uint8 pattern);
 150:Generated_Source\PSoC5/LCD128x64_1.c **** 
 151:Generated_Source\PSoC5/LCD128x64_1.c **** static void LCD128x64_1_Glyph(uint8 left, uint8 top,
 152:Generated_Source\PSoC5/LCD128x64_1.c **** 			   uint8 width, uint8 height,
 153:Generated_Source\PSoC5/LCD128x64_1.c **** 			   const uint8 *glyph, uint8 store_width);
 154:Generated_Source\PSoC5/LCD128x64_1.c **** 
 155:Generated_Source\PSoC5/LCD128x64_1.c **** //-----------------------------------------------------------------------------
 156:Generated_Source\PSoC5/LCD128x64_1.c **** //  FUNCTION NAME:	GLCD_SetupIO
 157:Generated_Source\PSoC5/LCD128x64_1.c **** //
 158:Generated_Source\PSoC5/LCD128x64_1.c **** //  DESCRIPTION:
 159:Generated_Source\PSoC5/LCD128x64_1.c **** //
 160:Generated_Source\PSoC5/LCD128x64_1.c **** //	Initializes I/O ports
 161:Generated_Source\PSoC5/LCD128x64_1.c **** //
 162:Generated_Source\PSoC5/LCD128x64_1.c **** //  ARGUMENTS:
 163:Generated_Source\PSoC5/LCD128x64_1.c **** //     none.
 164:Generated_Source\PSoC5/LCD128x64_1.c **** //
 165:Generated_Source\PSoC5/LCD128x64_1.c **** //  RETURNS:
 166:Generated_Source\PSoC5/LCD128x64_1.c **** //     none.
 167:Generated_Source\PSoC5/LCD128x64_1.c **** //
 168:Generated_Source\PSoC5/LCD128x64_1.c **** //-----------------------------------------------------------------------------
 169:Generated_Source\PSoC5/LCD128x64_1.c **** static void LCD128x64_1_SetupIO(void)
 170:Generated_Source\PSoC5/LCD128x64_1.c **** {
 171:Generated_Source\PSoC5/LCD128x64_1.c **** 	LCD128x64_1_LCD_DATA_Write(0);
 172:Generated_Source\PSoC5/LCD128x64_1.c **** 	
 173:Generated_Source\PSoC5/LCD128x64_1.c **** 	CyPins_ClearPin(LCD128x64_1_LCDC_E);
 174:Generated_Source\PSoC5/LCD128x64_1.c **** 	CyPins_ClearPin(LCD128x64_1_LCDC_CS1);
 175:Generated_Source\PSoC5/LCD128x64_1.c **** 	CyPins_ClearPin(LCD128x64_1_LCDC_CS2);
 176:Generated_Source\PSoC5/LCD128x64_1.c **** 	CyPins_ClearPin(LCD128x64_1_LCDC_DI);
 177:Generated_Source\PSoC5/LCD128x64_1.c **** 
 178:Generated_Source\PSoC5/LCD128x64_1.c **** 	CyPins_ClearPin(LCD128x64_1_LCDC_RST);
 179:Generated_Source\PSoC5/LCD128x64_1.c **** 	CyPins_SetPin(LCD128x64_1_LCDC_RST);
 180:Generated_Source\PSoC5/LCD128x64_1.c **** 	
 181:Generated_Source\PSoC5/LCD128x64_1.c **** 	LCD128x64_1_Timer_LCD_Start();
 182:Generated_Source\PSoC5/LCD128x64_1.c **** 	LCD128x64_1_TimerSet(NS_TO_COUNT(BUSY_TIME_NS));
 183:Generated_Source\PSoC5/LCD128x64_1.c **** }
 184:Generated_Source\PSoC5/LCD128x64_1.c **** 
 185:Generated_Source\PSoC5/LCD128x64_1.c **** //-----------------------------------------------------------------------------
 186:Generated_Source\PSoC5/LCD128x64_1.c **** //  FUNCTION NAME:	GLCD_SelectChip
 187:Generated_Source\PSoC5/LCD128x64_1.c **** //
 188:Generated_Source\PSoC5/LCD128x64_1.c **** //  DESCRIPTION:
 189:Generated_Source\PSoC5/LCD128x64_1.c **** //
 190:Generated_Source\PSoC5/LCD128x64_1.c **** //	Selects controller
 191:Generated_Source\PSoC5/LCD128x64_1.c **** //
 192:Generated_Source\PSoC5/LCD128x64_1.c **** //  ARGUMENTS:
 193:Generated_Source\PSoC5/LCD128x64_1.c **** //     chip		{0,1,GLCD_SELECTNONE} 
 194:Generated_Source\PSoC5/LCD128x64_1.c **** //
 195:Generated_Source\PSoC5/LCD128x64_1.c **** //  RETURNS:
 196:Generated_Source\PSoC5/LCD128x64_1.c **** //     none.
 197:Generated_Source\PSoC5/LCD128x64_1.c **** //
 198:Generated_Source\PSoC5/LCD128x64_1.c **** //-----------------------------------------------------------------------------
 199:Generated_Source\PSoC5/LCD128x64_1.c **** static void LCD128x64_1_SelectChip(uint8 chip)
 200:Generated_Source\PSoC5/LCD128x64_1.c **** {
  27              		.loc 1 200 0
  28              		.cfi_startproc
ARM GAS  C:\Users\USUARIO\AppData\Local\Temp\ccVm8SVK.s 			page 5


  29              		@ args = 0, pretend = 0, frame = 0
  30              		@ frame_needed = 0, uses_anonymous_args = 0
  31              		@ link register save eliminated.
  32              	.LVL0:
 201:Generated_Source\PSoC5/LCD128x64_1.c **** 	switch (chip) {
  33              		.loc 1 201 0
  34 0000 0128     		cmp	r0, #1
  35 0002 0ED0     		beq	.L3
  36 0004 10B1     		cbz	r0, .L4
  37 0006 6328     		cmp	r0, #99
  38 0008 16D0     		beq	.L5
  39 000a 7047     		bx	lr
  40              	.L4:
 202:Generated_Source\PSoC5/LCD128x64_1.c **** 		case 0 : 
 203:Generated_Source\PSoC5/LCD128x64_1.c **** 			CyPins_ClearPin(LCD128x64_1_LCDC_CS1);
  41              		.loc 1 203 0
  42 000c 104A     		ldr	r2, .L6
  43 000e 1378     		ldrb	r3, [r2]	@ zero_extendqisi2
  44 0010 03F0FE03 		and	r3, r3, #254
  45 0014 1370     		strb	r3, [r2]
 204:Generated_Source\PSoC5/LCD128x64_1.c **** 			CyPins_SetPin(LCD128x64_1_LCDC_CS2);
  46              		.loc 1 204 0
  47 0016 2432     		adds	r2, r2, #36
  48 0018 1378     		ldrb	r3, [r2]	@ zero_extendqisi2
  49 001a 43F00103 		orr	r3, r3, #1
  50 001e 1370     		strb	r3, [r2]
 205:Generated_Source\PSoC5/LCD128x64_1.c **** 			break;
  51              		.loc 1 205 0
  52 0020 7047     		bx	lr
  53              	.L3:
 206:Generated_Source\PSoC5/LCD128x64_1.c **** 		case 1:
 207:Generated_Source\PSoC5/LCD128x64_1.c **** 			CyPins_SetPin(LCD128x64_1_LCDC_CS1);
  54              		.loc 1 207 0
  55 0022 0B4A     		ldr	r2, .L6
  56 0024 1378     		ldrb	r3, [r2]	@ zero_extendqisi2
  57 0026 43F00103 		orr	r3, r3, #1
  58 002a 1370     		strb	r3, [r2]
 208:Generated_Source\PSoC5/LCD128x64_1.c **** 			CyPins_ClearPin(LCD128x64_1_LCDC_CS2);
  59              		.loc 1 208 0
  60 002c 2432     		adds	r2, r2, #36
  61 002e 1378     		ldrb	r3, [r2]	@ zero_extendqisi2
  62 0030 03F0FE03 		and	r3, r3, #254
  63 0034 1370     		strb	r3, [r2]
 209:Generated_Source\PSoC5/LCD128x64_1.c **** 			break;
  64              		.loc 1 209 0
  65 0036 7047     		bx	lr
  66              	.L5:
 210:Generated_Source\PSoC5/LCD128x64_1.c **** 		case GLCD_SELECTNONE:
 211:Generated_Source\PSoC5/LCD128x64_1.c **** 			CyPins_ClearPin(LCD128x64_1_LCDC_CS1);
  67              		.loc 1 211 0
  68 0038 054A     		ldr	r2, .L6
  69 003a 1378     		ldrb	r3, [r2]	@ zero_extendqisi2
  70 003c 03F0FE03 		and	r3, r3, #254
  71 0040 1370     		strb	r3, [r2]
 212:Generated_Source\PSoC5/LCD128x64_1.c **** 			CyPins_ClearPin(LCD128x64_1_LCDC_CS2);
  72              		.loc 1 212 0
  73 0042 2432     		adds	r2, r2, #36
ARM GAS  C:\Users\USUARIO\AppData\Local\Temp\ccVm8SVK.s 			page 6


  74 0044 1378     		ldrb	r3, [r2]	@ zero_extendqisi2
  75 0046 03F0FE03 		and	r3, r3, #254
  76 004a 1370     		strb	r3, [r2]
  77 004c 7047     		bx	lr
  78              	.L7:
  79 004e 00BF     		.align	2
  80              	.L6:
  81 0050 11500040 		.word	1073762321
  82              		.cfi_endproc
  83              	.LFE64:
  84              		.size	LCD128x64_1_SelectChip, .-LCD128x64_1_SelectChip
  85              		.section	.text.LCD128x64_1_FillBuffer,"ax",%progbits
  86              		.align	2
  87              		.thumb
  88              		.thumb_func
  89              		.type	LCD128x64_1_FillBuffer, %function
  90              	LCD128x64_1_FillBuffer:
  91              	.LFB74:
 213:Generated_Source\PSoC5/LCD128x64_1.c **** 			break;
 214:Generated_Source\PSoC5/LCD128x64_1.c **** 		default: 
 215:Generated_Source\PSoC5/LCD128x64_1.c **** 			break;
 216:Generated_Source\PSoC5/LCD128x64_1.c **** 	}
 217:Generated_Source\PSoC5/LCD128x64_1.c **** }
 218:Generated_Source\PSoC5/LCD128x64_1.c **** 
 219:Generated_Source\PSoC5/LCD128x64_1.c **** //-----------------------------------------------------------------------------
 220:Generated_Source\PSoC5/LCD128x64_1.c **** //  FUNCTION NAME:	GLCD_TimerWait
 221:Generated_Source\PSoC5/LCD128x64_1.c **** //
 222:Generated_Source\PSoC5/LCD128x64_1.c **** //  DESCRIPTION:
 223:Generated_Source\PSoC5/LCD128x64_1.c **** //
 224:Generated_Source\PSoC5/LCD128x64_1.c **** //	Waits for timer end count
 225:Generated_Source\PSoC5/LCD128x64_1.c **** //
 226:Generated_Source\PSoC5/LCD128x64_1.c **** //  ARGUMENTS:
 227:Generated_Source\PSoC5/LCD128x64_1.c **** //     none.
 228:Generated_Source\PSoC5/LCD128x64_1.c **** //
 229:Generated_Source\PSoC5/LCD128x64_1.c **** //  RETURNS:
 230:Generated_Source\PSoC5/LCD128x64_1.c **** //     none.
 231:Generated_Source\PSoC5/LCD128x64_1.c **** //
 232:Generated_Source\PSoC5/LCD128x64_1.c **** //-----------------------------------------------------------------------------
 233:Generated_Source\PSoC5/LCD128x64_1.c **** static void LCD128x64_1_TimerWait(void)
 234:Generated_Source\PSoC5/LCD128x64_1.c **** {
 235:Generated_Source\PSoC5/LCD128x64_1.c **** 	while (LCD128x64_1_Timer_LCD_ReadCounter()!=0)
 236:Generated_Source\PSoC5/LCD128x64_1.c **** 	{;}
 237:Generated_Source\PSoC5/LCD128x64_1.c **** }
 238:Generated_Source\PSoC5/LCD128x64_1.c **** 
 239:Generated_Source\PSoC5/LCD128x64_1.c **** //-----------------------------------------------------------------------------
 240:Generated_Source\PSoC5/LCD128x64_1.c **** //  FUNCTION NAME:	GLCD_TimerSet
 241:Generated_Source\PSoC5/LCD128x64_1.c **** //
 242:Generated_Source\PSoC5/LCD128x64_1.c **** //  DESCRIPTION:
 243:Generated_Source\PSoC5/LCD128x64_1.c **** //
 244:Generated_Source\PSoC5/LCD128x64_1.c **** //	Sets timer count
 245:Generated_Source\PSoC5/LCD128x64_1.c **** //
 246:Generated_Source\PSoC5/LCD128x64_1.c **** //  ARGUMENTS:
 247:Generated_Source\PSoC5/LCD128x64_1.c **** //     count	number of counts (clock @ 24Mhz)
 248:Generated_Source\PSoC5/LCD128x64_1.c **** //
 249:Generated_Source\PSoC5/LCD128x64_1.c **** //  RETURNS:
 250:Generated_Source\PSoC5/LCD128x64_1.c **** //     none.
 251:Generated_Source\PSoC5/LCD128x64_1.c **** //
ARM GAS  C:\Users\USUARIO\AppData\Local\Temp\ccVm8SVK.s 			page 7


 252:Generated_Source\PSoC5/LCD128x64_1.c **** //-----------------------------------------------------------------------------
 253:Generated_Source\PSoC5/LCD128x64_1.c **** static void LCD128x64_1_TimerSet(uint16 count)
 254:Generated_Source\PSoC5/LCD128x64_1.c **** {
 255:Generated_Source\PSoC5/LCD128x64_1.c **** 	LCD128x64_1_Timer_LCD_WriteCounter(count+1);
 256:Generated_Source\PSoC5/LCD128x64_1.c **** }
 257:Generated_Source\PSoC5/LCD128x64_1.c **** 
 258:Generated_Source\PSoC5/LCD128x64_1.c **** //-----------------------------------------------------------------------------
 259:Generated_Source\PSoC5/LCD128x64_1.c **** //  FUNCTION NAME:	GLCD_WriteDataCmd
 260:Generated_Source\PSoC5/LCD128x64_1.c **** //
 261:Generated_Source\PSoC5/LCD128x64_1.c **** //  DESCRIPTION:
 262:Generated_Source\PSoC5/LCD128x64_1.c **** //
 263:Generated_Source\PSoC5/LCD128x64_1.c **** //	Writes to display controller
 264:Generated_Source\PSoC5/LCD128x64_1.c **** //
 265:Generated_Source\PSoC5/LCD128x64_1.c **** //  ARGUMENTS:
 266:Generated_Source\PSoC5/LCD128x64_1.c **** //     	datacmd		data or command
 267:Generated_Source\PSoC5/LCD128x64_1.c **** //		mode		{GLCD_MODECMD, GLCD_MODEDATA}
 268:Generated_Source\PSoC5/LCD128x64_1.c **** //
 269:Generated_Source\PSoC5/LCD128x64_1.c **** //  RETURNS:
 270:Generated_Source\PSoC5/LCD128x64_1.c **** //     none.
 271:Generated_Source\PSoC5/LCD128x64_1.c **** //
 272:Generated_Source\PSoC5/LCD128x64_1.c **** //-----------------------------------------------------------------------------
 273:Generated_Source\PSoC5/LCD128x64_1.c **** static void LCD128x64_1_WriteDataCmd(uint8 datacmd, uint8 mode)
 274:Generated_Source\PSoC5/LCD128x64_1.c **** {				
 275:Generated_Source\PSoC5/LCD128x64_1.c **** 	LCD128x64_1_TimerWait();
 276:Generated_Source\PSoC5/LCD128x64_1.c **** 	
 277:Generated_Source\PSoC5/LCD128x64_1.c **** 	if (mode == GLCD_MODECMD)
 278:Generated_Source\PSoC5/LCD128x64_1.c **** 		CyPins_ClearPin(LCD128x64_1_LCDC_DI);	// DI to 0 (command)																							
 279:Generated_Source\PSoC5/LCD128x64_1.c **** 	else
 280:Generated_Source\PSoC5/LCD128x64_1.c **** 		CyPins_SetPin(LCD128x64_1_LCDC_DI);		// DI to 1 (data)																							
 281:Generated_Source\PSoC5/LCD128x64_1.c **** 
 282:Generated_Source\PSoC5/LCD128x64_1.c **** 									// Address setup time
 283:Generated_Source\PSoC5/LCD128x64_1.c **** 	LCD128x64_1_TimerSet(NS_TO_COUNT(ADDR_SETUP_NS));
 284:Generated_Source\PSoC5/LCD128x64_1.c **** 	LCD128x64_1_TimerWait();
 285:Generated_Source\PSoC5/LCD128x64_1.c **** 
 286:Generated_Source\PSoC5/LCD128x64_1.c **** 	LCD128x64_1_LCD_DATA_Write(datacmd);
 287:Generated_Source\PSoC5/LCD128x64_1.c **** 	
 288:Generated_Source\PSoC5/LCD128x64_1.c **** 	CyPins_SetPin(LCD128x64_1_LCDC_E);
 289:Generated_Source\PSoC5/LCD128x64_1.c **** 									// Need E high for at least 450ns
 290:Generated_Source\PSoC5/LCD128x64_1.c **** 	LCD128x64_1_TimerSet(NS_TO_COUNT(E_WIDTH_NS));
 291:Generated_Source\PSoC5/LCD128x64_1.c **** 	LCD128x64_1_TimerWait();
 292:Generated_Source\PSoC5/LCD128x64_1.c **** 	CyPins_ClearPin(LCD128x64_1_LCDC_E);
 293:Generated_Source\PSoC5/LCD128x64_1.c **** 									// Starts busy wait time
 294:Generated_Source\PSoC5/LCD128x64_1.c **** 	LCD128x64_1_TimerSet(NS_TO_COUNT(BUSY_TIME_NS));
 295:Generated_Source\PSoC5/LCD128x64_1.c **** }
 296:Generated_Source\PSoC5/LCD128x64_1.c **** 
 297:Generated_Source\PSoC5/LCD128x64_1.c **** //-----------------------------------------------------------------------------
 298:Generated_Source\PSoC5/LCD128x64_1.c **** //  FUNCTION NAME:	GLCD_WriteCommand
 299:Generated_Source\PSoC5/LCD128x64_1.c **** //
 300:Generated_Source\PSoC5/LCD128x64_1.c **** //  DESCRIPTION:
 301:Generated_Source\PSoC5/LCD128x64_1.c **** //
 302:Generated_Source\PSoC5/LCD128x64_1.c **** //	Writes command to display controller
 303:Generated_Source\PSoC5/LCD128x64_1.c **** //
 304:Generated_Source\PSoC5/LCD128x64_1.c **** //  ARGUMENTS:
 305:Generated_Source\PSoC5/LCD128x64_1.c **** //     	byte		command
 306:Generated_Source\PSoC5/LCD128x64_1.c **** //
 307:Generated_Source\PSoC5/LCD128x64_1.c **** //  RETURNS:
 308:Generated_Source\PSoC5/LCD128x64_1.c **** //     none.
ARM GAS  C:\Users\USUARIO\AppData\Local\Temp\ccVm8SVK.s 			page 8


 309:Generated_Source\PSoC5/LCD128x64_1.c **** //
 310:Generated_Source\PSoC5/LCD128x64_1.c **** //-----------------------------------------------------------------------------
 311:Generated_Source\PSoC5/LCD128x64_1.c **** static void LCD128x64_1_WriteCommand(uint8 byte)
 312:Generated_Source\PSoC5/LCD128x64_1.c **** {
 313:Generated_Source\PSoC5/LCD128x64_1.c **** 	LCD128x64_1_WriteDataCmd(byte, GLCD_MODECMD);
 314:Generated_Source\PSoC5/LCD128x64_1.c **** }
 315:Generated_Source\PSoC5/LCD128x64_1.c **** 
 316:Generated_Source\PSoC5/LCD128x64_1.c **** //-----------------------------------------------------------------------------
 317:Generated_Source\PSoC5/LCD128x64_1.c **** //  FUNCTION NAME:	GLCD_WriteData
 318:Generated_Source\PSoC5/LCD128x64_1.c **** //
 319:Generated_Source\PSoC5/LCD128x64_1.c **** //  DESCRIPTION:
 320:Generated_Source\PSoC5/LCD128x64_1.c **** //
 321:Generated_Source\PSoC5/LCD128x64_1.c **** //	Writes data to display controller
 322:Generated_Source\PSoC5/LCD128x64_1.c **** //
 323:Generated_Source\PSoC5/LCD128x64_1.c **** //  ARGUMENTS:
 324:Generated_Source\PSoC5/LCD128x64_1.c **** //     	byte		data
 325:Generated_Source\PSoC5/LCD128x64_1.c **** //
 326:Generated_Source\PSoC5/LCD128x64_1.c **** //  RETURNS:
 327:Generated_Source\PSoC5/LCD128x64_1.c **** //     none.
 328:Generated_Source\PSoC5/LCD128x64_1.c **** //
 329:Generated_Source\PSoC5/LCD128x64_1.c **** //-----------------------------------------------------------------------------
 330:Generated_Source\PSoC5/LCD128x64_1.c **** static void LCD128x64_1_WriteData(uint8 byte)
 331:Generated_Source\PSoC5/LCD128x64_1.c **** {
 332:Generated_Source\PSoC5/LCD128x64_1.c **** 	LCD128x64_1_WriteDataCmd(byte, GLCD_MODEDATA);
 333:Generated_Source\PSoC5/LCD128x64_1.c **** }
 334:Generated_Source\PSoC5/LCD128x64_1.c **** 
 335:Generated_Source\PSoC5/LCD128x64_1.c **** //-----------------------------------------------------------------------------
 336:Generated_Source\PSoC5/LCD128x64_1.c **** //  FUNCTION NAME:	GLCD_SetPage
 337:Generated_Source\PSoC5/LCD128x64_1.c **** //
 338:Generated_Source\PSoC5/LCD128x64_1.c **** //  DESCRIPTION:
 339:Generated_Source\PSoC5/LCD128x64_1.c **** //
 340:Generated_Source\PSoC5/LCD128x64_1.c **** //	Sets display page in display controller
 341:Generated_Source\PSoC5/LCD128x64_1.c **** //
 342:Generated_Source\PSoC5/LCD128x64_1.c **** //  ARGUMENTS:
 343:Generated_Source\PSoC5/LCD128x64_1.c **** //     	page		
 344:Generated_Source\PSoC5/LCD128x64_1.c **** //
 345:Generated_Source\PSoC5/LCD128x64_1.c **** //  RETURNS:
 346:Generated_Source\PSoC5/LCD128x64_1.c **** //     none.
 347:Generated_Source\PSoC5/LCD128x64_1.c **** //
 348:Generated_Source\PSoC5/LCD128x64_1.c **** //-----------------------------------------------------------------------------
 349:Generated_Source\PSoC5/LCD128x64_1.c **** static void LCD128x64_1_SetPage(uint8 page)
 350:Generated_Source\PSoC5/LCD128x64_1.c **** {
 351:Generated_Source\PSoC5/LCD128x64_1.c **** 	LCD128x64_1_WriteCommand(GLCD_SET_PAGE+page);
 352:Generated_Source\PSoC5/LCD128x64_1.c **** }
 353:Generated_Source\PSoC5/LCD128x64_1.c **** 
 354:Generated_Source\PSoC5/LCD128x64_1.c **** //-----------------------------------------------------------------------------
 355:Generated_Source\PSoC5/LCD128x64_1.c **** //  FUNCTION NAME:	GLCD_SetAddress
 356:Generated_Source\PSoC5/LCD128x64_1.c **** //
 357:Generated_Source\PSoC5/LCD128x64_1.c **** //  DESCRIPTION:
 358:Generated_Source\PSoC5/LCD128x64_1.c **** //
 359:Generated_Source\PSoC5/LCD128x64_1.c **** //	Sets display address in display controller
 360:Generated_Source\PSoC5/LCD128x64_1.c **** //
 361:Generated_Source\PSoC5/LCD128x64_1.c **** //  ARGUMENTS:
 362:Generated_Source\PSoC5/LCD128x64_1.c **** //     	address		
 363:Generated_Source\PSoC5/LCD128x64_1.c **** //
 364:Generated_Source\PSoC5/LCD128x64_1.c **** //  RETURNS:
 365:Generated_Source\PSoC5/LCD128x64_1.c **** //     none.
ARM GAS  C:\Users\USUARIO\AppData\Local\Temp\ccVm8SVK.s 			page 9


 366:Generated_Source\PSoC5/LCD128x64_1.c **** //
 367:Generated_Source\PSoC5/LCD128x64_1.c **** //-----------------------------------------------------------------------------
 368:Generated_Source\PSoC5/LCD128x64_1.c **** static void LCD128x64_1_SetAddress(uint8 address)
 369:Generated_Source\PSoC5/LCD128x64_1.c **** {
 370:Generated_Source\PSoC5/LCD128x64_1.c **** 	LCD128x64_1_WriteCommand(GLCD_SET_ADDRESS+address);
 371:Generated_Source\PSoC5/LCD128x64_1.c **** }
 372:Generated_Source\PSoC5/LCD128x64_1.c **** 
 373:Generated_Source\PSoC5/LCD128x64_1.c **** //-----------------------------------------------------------------------------
 374:Generated_Source\PSoC5/LCD128x64_1.c **** //  FUNCTION NAME:	GLCD_Init
 375:Generated_Source\PSoC5/LCD128x64_1.c **** //
 376:Generated_Source\PSoC5/LCD128x64_1.c **** //  DESCRIPTION:
 377:Generated_Source\PSoC5/LCD128x64_1.c **** //
 378:Generated_Source\PSoC5/LCD128x64_1.c **** //	Initializes display. 
 379:Generated_Source\PSoC5/LCD128x64_1.c **** //
 380:Generated_Source\PSoC5/LCD128x64_1.c **** //  ARGUMENTS:
 381:Generated_Source\PSoC5/LCD128x64_1.c **** //     none.		
 382:Generated_Source\PSoC5/LCD128x64_1.c **** //
 383:Generated_Source\PSoC5/LCD128x64_1.c **** //  RETURNS:
 384:Generated_Source\PSoC5/LCD128x64_1.c **** //     none.
 385:Generated_Source\PSoC5/LCD128x64_1.c **** //
 386:Generated_Source\PSoC5/LCD128x64_1.c **** //-----------------------------------------------------------------------------
 387:Generated_Source\PSoC5/LCD128x64_1.c **** void LCD128x64_1_Init(void)
 388:Generated_Source\PSoC5/LCD128x64_1.c **** {	
 389:Generated_Source\PSoC5/LCD128x64_1.c **** 	uint8 i;
 390:Generated_Source\PSoC5/LCD128x64_1.c **** 	
 391:Generated_Source\PSoC5/LCD128x64_1.c **** 	LCD128x64_1_SetupIO();
 392:Generated_Source\PSoC5/LCD128x64_1.c **** 	
 393:Generated_Source\PSoC5/LCD128x64_1.c **** 	for (i=0;i<GLCD_NUMCONTROLLER;i++) {
 394:Generated_Source\PSoC5/LCD128x64_1.c **** 		LCD128x64_1_SelectChip(i);
 395:Generated_Source\PSoC5/LCD128x64_1.c **** 		LCD128x64_1_WriteCommand(GLCD_ON); 
 396:Generated_Source\PSoC5/LCD128x64_1.c **** 		LCD128x64_1_WriteCommand(GLCD_DISP_START0);
 397:Generated_Source\PSoC5/LCD128x64_1.c **** 		// GLCD_SetPage(0);
 398:Generated_Source\PSoC5/LCD128x64_1.c **** 		// GLCD_SetAddress(0);
 399:Generated_Source\PSoC5/LCD128x64_1.c **** 	}
 400:Generated_Source\PSoC5/LCD128x64_1.c **** }
 401:Generated_Source\PSoC5/LCD128x64_1.c **** //-----------------------------------------------------------------------------
 402:Generated_Source\PSoC5/LCD128x64_1.c **** //  FUNCTION NAME:	GLCD_SetInvert
 403:Generated_Source\PSoC5/LCD128x64_1.c **** //
 404:Generated_Source\PSoC5/LCD128x64_1.c **** //  DESCRIPTION:
 405:Generated_Source\PSoC5/LCD128x64_1.c **** //
 406:Generated_Source\PSoC5/LCD128x64_1.c **** //	Sets normal or inverse mode
 407:Generated_Source\PSoC5/LCD128x64_1.c **** //
 408:Generated_Source\PSoC5/LCD128x64_1.c **** //  ARGUMENTS:
 409:Generated_Source\PSoC5/LCD128x64_1.c **** //     mode		{GLCD_MODE_INVERT,GLCD_MODE_NORMAL}
 410:Generated_Source\PSoC5/LCD128x64_1.c **** //
 411:Generated_Source\PSoC5/LCD128x64_1.c **** //  RETURNS:
 412:Generated_Source\PSoC5/LCD128x64_1.c **** //     none.
 413:Generated_Source\PSoC5/LCD128x64_1.c **** //
 414:Generated_Source\PSoC5/LCD128x64_1.c **** //-----------------------------------------------------------------------------
 415:Generated_Source\PSoC5/LCD128x64_1.c **** void LCD128x64_1_SetInvert(uint8 mode)
 416:Generated_Source\PSoC5/LCD128x64_1.c **** {
 417:Generated_Source\PSoC5/LCD128x64_1.c **** 	gGLCD_inverted = mode;
 418:Generated_Source\PSoC5/LCD128x64_1.c **** }
 419:Generated_Source\PSoC5/LCD128x64_1.c **** 
 420:Generated_Source\PSoC5/LCD128x64_1.c **** //-----------------------------------------------------------------------------
 421:Generated_Source\PSoC5/LCD128x64_1.c **** //  FUNCTION NAME:	GLCD_FillBuffer
 422:Generated_Source\PSoC5/LCD128x64_1.c **** //
ARM GAS  C:\Users\USUARIO\AppData\Local\Temp\ccVm8SVK.s 			page 10


 423:Generated_Source\PSoC5/LCD128x64_1.c **** //  DESCRIPTION:
 424:Generated_Source\PSoC5/LCD128x64_1.c **** //
 425:Generated_Source\PSoC5/LCD128x64_1.c **** //	Fills memory buffer with specified pattern
 426:Generated_Source\PSoC5/LCD128x64_1.c **** //
 427:Generated_Source\PSoC5/LCD128x64_1.c **** //  ARGUMENTS:
 428:Generated_Source\PSoC5/LCD128x64_1.c **** //     pattern		
 429:Generated_Source\PSoC5/LCD128x64_1.c **** //
 430:Generated_Source\PSoC5/LCD128x64_1.c **** //  RETURNS:
 431:Generated_Source\PSoC5/LCD128x64_1.c **** //     none.
 432:Generated_Source\PSoC5/LCD128x64_1.c **** //
 433:Generated_Source\PSoC5/LCD128x64_1.c **** //-----------------------------------------------------------------------------
 434:Generated_Source\PSoC5/LCD128x64_1.c **** static void LCD128x64_1_FillBuffer(uint8 pattern)
 435:Generated_Source\PSoC5/LCD128x64_1.c **** {
  92              		.loc 1 435 0
  93              		.cfi_startproc
  94              		@ args = 0, pretend = 0, frame = 0
  95              		@ frame_needed = 0, uses_anonymous_args = 0
  96              		@ link register save eliminated.
  97              	.LVL1:
 436:Generated_Source\PSoC5/LCD128x64_1.c **** 	uint16 x,y;
 437:Generated_Source\PSoC5/LCD128x64_1.c **** 	
 438:Generated_Source\PSoC5/LCD128x64_1.c **** 	for (y=0;y<GLCD_Y_BYTES;y++)
  98              		.loc 1 438 0
  99 0000 0021     		movs	r1, #0
 100 0002 0BE0     		b	.L9
 101              	.LVL2:
 102              	.L10:
 439:Generated_Source\PSoC5/LCD128x64_1.c **** 		for (x=0;x<GLCD_X_BYTES;x++) 
 440:Generated_Source\PSoC5/LCD128x64_1.c **** 			gGLCD_buffer[y][x]=pattern;
 103              		.loc 1 440 0 discriminator 3
 104 0004 074A     		ldr	r2, .L13
 105 0006 02EBC112 		add	r2, r2, r1, lsl #7
 106 000a D054     		strb	r0, [r2, r3]
 439:Generated_Source\PSoC5/LCD128x64_1.c **** 		for (x=0;x<GLCD_X_BYTES;x++) 
 107              		.loc 1 439 0 discriminator 3
 108 000c 0133     		adds	r3, r3, #1
 109              	.LVL3:
 110 000e 9BB2     		uxth	r3, r3
 111              	.LVL4:
 112 0010 00E0     		b	.L11
 113              	.LVL5:
 114              	.L12:
 115 0012 0023     		movs	r3, #0
 116              	.L11:
 117              	.LVL6:
 439:Generated_Source\PSoC5/LCD128x64_1.c **** 		for (x=0;x<GLCD_X_BYTES;x++) 
 118              		.loc 1 439 0 is_stmt 0 discriminator 1
 119 0014 7F2B     		cmp	r3, #127
 120 0016 F5D9     		bls	.L10
 438:Generated_Source\PSoC5/LCD128x64_1.c **** 		for (x=0;x<GLCD_X_BYTES;x++) 
 121              		.loc 1 438 0 is_stmt 1 discriminator 2
 122 0018 0131     		adds	r1, r1, #1
 123              	.LVL7:
 124 001a 89B2     		uxth	r1, r1
 125              	.LVL8:
 126              	.L9:
 438:Generated_Source\PSoC5/LCD128x64_1.c **** 		for (x=0;x<GLCD_X_BYTES;x++) 
ARM GAS  C:\Users\USUARIO\AppData\Local\Temp\ccVm8SVK.s 			page 11


 127              		.loc 1 438 0 is_stmt 0 discriminator 1
 128 001c 0729     		cmp	r1, #7
 129 001e F8D9     		bls	.L12
 441:Generated_Source\PSoC5/LCD128x64_1.c **** }
 130              		.loc 1 441 0 is_stmt 1
 131 0020 7047     		bx	lr
 132              	.L14:
 133 0022 00BF     		.align	2
 134              	.L13:
 135 0024 00000000 		.word	.LANCHOR0
 136              		.cfi_endproc
 137              	.LFE74:
 138              		.size	LCD128x64_1_FillBuffer, .-LCD128x64_1_FillBuffer
 139              		.section	.text.LCD128x64_1_Glyph,"ax",%progbits
 140              		.align	2
 141              		.thumb
 142              		.thumb_func
 143              		.type	LCD128x64_1_Glyph, %function
 144              	LCD128x64_1_Glyph:
 145              	.LFB82:
 442:Generated_Source\PSoC5/LCD128x64_1.c **** 
 443:Generated_Source\PSoC5/LCD128x64_1.c **** //-----------------------------------------------------------------------------
 444:Generated_Source\PSoC5/LCD128x64_1.c **** //  FUNCTION NAME:	GLCD_ClrScr
 445:Generated_Source\PSoC5/LCD128x64_1.c **** //
 446:Generated_Source\PSoC5/LCD128x64_1.c **** //  DESCRIPTION:
 447:Generated_Source\PSoC5/LCD128x64_1.c **** //
 448:Generated_Source\PSoC5/LCD128x64_1.c **** //	Clear memory buffer and optionally flushes to display
 449:Generated_Source\PSoC5/LCD128x64_1.c **** //
 450:Generated_Source\PSoC5/LCD128x64_1.c **** //  ARGUMENTS:
 451:Generated_Source\PSoC5/LCD128x64_1.c **** //     bufferAndDisplay		true to flush display
 452:Generated_Source\PSoC5/LCD128x64_1.c **** //
 453:Generated_Source\PSoC5/LCD128x64_1.c **** //  RETURNS:
 454:Generated_Source\PSoC5/LCD128x64_1.c **** //     none.
 455:Generated_Source\PSoC5/LCD128x64_1.c **** //
 456:Generated_Source\PSoC5/LCD128x64_1.c **** //-----------------------------------------------------------------------------
 457:Generated_Source\PSoC5/LCD128x64_1.c **** void LCD128x64_1_ClrScr(uint8 bufferAndDisplay)
 458:Generated_Source\PSoC5/LCD128x64_1.c **** {
 459:Generated_Source\PSoC5/LCD128x64_1.c **** 	LCD128x64_1_FillBuffer(0x00);
 460:Generated_Source\PSoC5/LCD128x64_1.c **** 	if ( bufferAndDisplay ) 
 461:Generated_Source\PSoC5/LCD128x64_1.c **** 		LCD128x64_1_UpdateAll();
 462:Generated_Source\PSoC5/LCD128x64_1.c **** }
 463:Generated_Source\PSoC5/LCD128x64_1.c **** 
 464:Generated_Source\PSoC5/LCD128x64_1.c **** //-----------------------------------------------------------------------------
 465:Generated_Source\PSoC5/LCD128x64_1.c **** //  FUNCTION NAME:	GLCD_Update
 466:Generated_Source\PSoC5/LCD128x64_1.c **** //
 467:Generated_Source\PSoC5/LCD128x64_1.c **** //  DESCRIPTION:
 468:Generated_Source\PSoC5/LCD128x64_1.c **** //
 469:Generated_Source\PSoC5/LCD128x64_1.c **** //	Copy buffer-RAM to display-RAM
 470:Generated_Source\PSoC5/LCD128x64_1.c **** //
 471:Generated_Source\PSoC5/LCD128x64_1.c **** //  ARGUMENTS:
 472:Generated_Source\PSoC5/LCD128x64_1.c **** //      top     top line of area to update.         
 473:Generated_Source\PSoC5/LCD128x64_1.c **** //		bottom  bottom line of area to update.
 474:Generated_Source\PSoC5/LCD128x64_1.c **** //
 475:Generated_Source\PSoC5/LCD128x64_1.c **** //  RETURNS:
 476:Generated_Source\PSoC5/LCD128x64_1.c **** //     none.
 477:Generated_Source\PSoC5/LCD128x64_1.c **** //
 478:Generated_Source\PSoC5/LCD128x64_1.c **** //-----------------------------------------------------------------------------
ARM GAS  C:\Users\USUARIO\AppData\Local\Temp\ccVm8SVK.s 			page 12


 479:Generated_Source\PSoC5/LCD128x64_1.c **** void LCD128x64_1_Update(uint16 top, uint16 bottom)
 480:Generated_Source\PSoC5/LCD128x64_1.c **** {
 481:Generated_Source\PSoC5/LCD128x64_1.c **** 	uint8 x, y, i;
 482:Generated_Source\PSoC5/LCD128x64_1.c **** 	uint8 yt, yb;
 483:Generated_Source\PSoC5/LCD128x64_1.c **** 	uint16 xoffset;
 484:Generated_Source\PSoC5/LCD128x64_1.c **** 	uint8 data;
 485:Generated_Source\PSoC5/LCD128x64_1.c **** 	
 486:Generated_Source\PSoC5/LCD128x64_1.c **** 	yt = top >> 3;				/* setup bytes of range */
 487:Generated_Source\PSoC5/LCD128x64_1.c **** 	yb = bottom >> 3;
 488:Generated_Source\PSoC5/LCD128x64_1.c **** 
 489:Generated_Source\PSoC5/LCD128x64_1.c **** 	for (i=0;i<GLCD_NUMCONTROLLER;i++) {
 490:Generated_Source\PSoC5/LCD128x64_1.c **** 		LCD128x64_1_SelectChip(i);
 491:Generated_Source\PSoC5/LCD128x64_1.c **** 		for (y=yt;y<=yb;y++) {
 492:Generated_Source\PSoC5/LCD128x64_1.c **** 			LCD128x64_1_SetPage(y);
 493:Generated_Source\PSoC5/LCD128x64_1.c **** 			LCD128x64_1_SetAddress(0);
 494:Generated_Source\PSoC5/LCD128x64_1.c **** 			xoffset = i * GLCD_MAXADDRESS;
 495:Generated_Source\PSoC5/LCD128x64_1.c **** 			for (x=0;x<GLCD_MAXADDRESS;x++) {
 496:Generated_Source\PSoC5/LCD128x64_1.c **** 				data = gGLCD_buffer[y][xoffset+x];
 497:Generated_Source\PSoC5/LCD128x64_1.c **** 				if (gGLCD_inverted) data=~data;
 498:Generated_Source\PSoC5/LCD128x64_1.c **** 				LCD128x64_1_WriteData(data);
 499:Generated_Source\PSoC5/LCD128x64_1.c **** 			}
 500:Generated_Source\PSoC5/LCD128x64_1.c **** 		}
 501:Generated_Source\PSoC5/LCD128x64_1.c **** 	}
 502:Generated_Source\PSoC5/LCD128x64_1.c **** 	LCD128x64_1_SelectChip(GLCD_SELECTNONE);
 503:Generated_Source\PSoC5/LCD128x64_1.c **** }
 504:Generated_Source\PSoC5/LCD128x64_1.c **** 
 505:Generated_Source\PSoC5/LCD128x64_1.c **** //-----------------------------------------------------------------------------
 506:Generated_Source\PSoC5/LCD128x64_1.c **** //  FUNCTION NAME:	GLCD_Dot
 507:Generated_Source\PSoC5/LCD128x64_1.c **** //
 508:Generated_Source\PSoC5/LCD128x64_1.c **** //  DESCRIPTION:
 509:Generated_Source\PSoC5/LCD128x64_1.c **** //
 510:Generated_Source\PSoC5/LCD128x64_1.c **** //	Change pixel state in memory buffer
 511:Generated_Source\PSoC5/LCD128x64_1.c **** //
 512:Generated_Source\PSoC5/LCD128x64_1.c **** //  ARGUMENTS:
 513:Generated_Source\PSoC5/LCD128x64_1.c **** //      x     	
 514:Generated_Source\PSoC5/LCD128x64_1.c **** //		y		
 515:Generated_Source\PSoC5/LCD128x64_1.c **** //		mode	{GLCD_MODE_CLEAR,GLCD_MODE_SET,GLCD_MODE_XOR}
 516:Generated_Source\PSoC5/LCD128x64_1.c **** //
 517:Generated_Source\PSoC5/LCD128x64_1.c **** //  RETURNS:
 518:Generated_Source\PSoC5/LCD128x64_1.c **** //     none.
 519:Generated_Source\PSoC5/LCD128x64_1.c **** //
 520:Generated_Source\PSoC5/LCD128x64_1.c **** //-----------------------------------------------------------------------------
 521:Generated_Source\PSoC5/LCD128x64_1.c **** void LCD128x64_1_Dot(uint8 x, uint8 y, uint8 mode) {
 522:Generated_Source\PSoC5/LCD128x64_1.c **** // here 2*1 setup - TODO: for 2*2 setting
 523:Generated_Source\PSoC5/LCD128x64_1.c **** 	uint8 bitnum, bitmask, yByte;
 524:Generated_Source\PSoC5/LCD128x64_1.c **** 	
 525:Generated_Source\PSoC5/LCD128x64_1.c **** 	if ( (x>=GLCD_RIGHT) || (y>=GLCD_BOTTOM) ) return;
 526:Generated_Source\PSoC5/LCD128x64_1.c **** 	
 527:Generated_Source\PSoC5/LCD128x64_1.c **** 	yByte   = y >> 3; // / 8
 528:Generated_Source\PSoC5/LCD128x64_1.c **** 	bitnum  = y & 0x07;
 529:Generated_Source\PSoC5/LCD128x64_1.c **** 	bitmask = GLCD_MaskArray[bitnum];
 530:Generated_Source\PSoC5/LCD128x64_1.c **** 	switch (mode) {
 531:Generated_Source\PSoC5/LCD128x64_1.c **** 		case GLCD_MODE_SET:
 532:Generated_Source\PSoC5/LCD128x64_1.c **** 			gGLCD_buffer[yByte][x] |= bitmask;
 533:Generated_Source\PSoC5/LCD128x64_1.c **** 			break;
 534:Generated_Source\PSoC5/LCD128x64_1.c **** 		case GLCD_MODE_CLEAR:
 535:Generated_Source\PSoC5/LCD128x64_1.c **** 			gGLCD_buffer[yByte][x] &= ~bitmask;
ARM GAS  C:\Users\USUARIO\AppData\Local\Temp\ccVm8SVK.s 			page 13


 536:Generated_Source\PSoC5/LCD128x64_1.c **** 			break;
 537:Generated_Source\PSoC5/LCD128x64_1.c **** 		case GLCD_MODE_XOR:
 538:Generated_Source\PSoC5/LCD128x64_1.c **** 			gGLCD_buffer[yByte][x] ^= bitmask;
 539:Generated_Source\PSoC5/LCD128x64_1.c **** 			break;
 540:Generated_Source\PSoC5/LCD128x64_1.c **** 		default: break;
 541:Generated_Source\PSoC5/LCD128x64_1.c **** 	}
 542:Generated_Source\PSoC5/LCD128x64_1.c **** }
 543:Generated_Source\PSoC5/LCD128x64_1.c **** 
 544:Generated_Source\PSoC5/LCD128x64_1.c **** //-----------------------------------------------------------------------------
 545:Generated_Source\PSoC5/LCD128x64_1.c **** //  FUNCTION NAME:	GLCD_Line
 546:Generated_Source\PSoC5/LCD128x64_1.c **** //
 547:Generated_Source\PSoC5/LCD128x64_1.c **** //  DESCRIPTION:
 548:Generated_Source\PSoC5/LCD128x64_1.c **** //
 549:Generated_Source\PSoC5/LCD128x64_1.c **** //	Draws line in memory buffer
 550:Generated_Source\PSoC5/LCD128x64_1.c **** //
 551:Generated_Source\PSoC5/LCD128x64_1.c **** //  ARGUMENTS:
 552:Generated_Source\PSoC5/LCD128x64_1.c **** //      x1     	
 553:Generated_Source\PSoC5/LCD128x64_1.c **** //		y1		
 554:Generated_Source\PSoC5/LCD128x64_1.c **** //      x2     	
 555:Generated_Source\PSoC5/LCD128x64_1.c **** //		y2		
 556:Generated_Source\PSoC5/LCD128x64_1.c **** //		mode	{GLCD_MODE_CLEAR,GLCD_MODE_SET,GLCD_MODE_XOR}
 557:Generated_Source\PSoC5/LCD128x64_1.c **** //
 558:Generated_Source\PSoC5/LCD128x64_1.c **** //  RETURNS:
 559:Generated_Source\PSoC5/LCD128x64_1.c **** //     none.
 560:Generated_Source\PSoC5/LCD128x64_1.c **** //
 561:Generated_Source\PSoC5/LCD128x64_1.c **** //-----------------------------------------------------------------------------
 562:Generated_Source\PSoC5/LCD128x64_1.c **** void LCD128x64_1_Line( uint8 x1, uint8 y1, 
 563:Generated_Source\PSoC5/LCD128x64_1.c **** 		uint8 x2, uint8 y2,
 564:Generated_Source\PSoC5/LCD128x64_1.c **** 		uint8 mode ) 
 565:Generated_Source\PSoC5/LCD128x64_1.c **** {
 566:Generated_Source\PSoC5/LCD128x64_1.c **** 	uint8 length, xTmp, yTmp, i, y, yAlt;
 567:Generated_Source\PSoC5/LCD128x64_1.c **** 	int16 m;
 568:Generated_Source\PSoC5/LCD128x64_1.c **** 	
 569:Generated_Source\PSoC5/LCD128x64_1.c **** 	if(x1 == x2) {									// vertical line
 570:Generated_Source\PSoC5/LCD128x64_1.c **** 		// x1|y1 must be the upper point
 571:Generated_Source\PSoC5/LCD128x64_1.c **** 		if(y1 > y2) {
 572:Generated_Source\PSoC5/LCD128x64_1.c **** 			xTmp = x1;
 573:Generated_Source\PSoC5/LCD128x64_1.c **** 			yTmp = y1;
 574:Generated_Source\PSoC5/LCD128x64_1.c **** 			x1 = x2;
 575:Generated_Source\PSoC5/LCD128x64_1.c **** 			y1 = y2;
 576:Generated_Source\PSoC5/LCD128x64_1.c **** 			x2 = xTmp;
 577:Generated_Source\PSoC5/LCD128x64_1.c **** 			y2 = yTmp;
 578:Generated_Source\PSoC5/LCD128x64_1.c **** 		}
 579:Generated_Source\PSoC5/LCD128x64_1.c **** 		
 580:Generated_Source\PSoC5/LCD128x64_1.c **** 		length = y2-y1;
 581:Generated_Source\PSoC5/LCD128x64_1.c **** 		for(i=0; i<=length; i++) {
 582:Generated_Source\PSoC5/LCD128x64_1.c **** 			LCD128x64_1_Dot(x1, y1+i, mode);
 583:Generated_Source\PSoC5/LCD128x64_1.c **** 		}
 584:Generated_Source\PSoC5/LCD128x64_1.c **** 	} else if(y1 == y2) {							// horizontal line
 585:Generated_Source\PSoC5/LCD128x64_1.c **** 		// x1|y1 must be the left point
 586:Generated_Source\PSoC5/LCD128x64_1.c **** 		if(x1 > x2) {
 587:Generated_Source\PSoC5/LCD128x64_1.c **** 			xTmp = x1;
 588:Generated_Source\PSoC5/LCD128x64_1.c **** 			yTmp = y1;
 589:Generated_Source\PSoC5/LCD128x64_1.c **** 			x1 = x2;
 590:Generated_Source\PSoC5/LCD128x64_1.c **** 			y1 = y2;
 591:Generated_Source\PSoC5/LCD128x64_1.c **** 			x2 = xTmp;
 592:Generated_Source\PSoC5/LCD128x64_1.c **** 			y2 = yTmp;
ARM GAS  C:\Users\USUARIO\AppData\Local\Temp\ccVm8SVK.s 			page 14


 593:Generated_Source\PSoC5/LCD128x64_1.c **** 		}
 594:Generated_Source\PSoC5/LCD128x64_1.c **** 		
 595:Generated_Source\PSoC5/LCD128x64_1.c **** 		length = x2-x1;
 596:Generated_Source\PSoC5/LCD128x64_1.c **** 		for(i=0; i<=length; i++) {
 597:Generated_Source\PSoC5/LCD128x64_1.c **** 			LCD128x64_1_Dot(x1+i, y1, mode);
 598:Generated_Source\PSoC5/LCD128x64_1.c **** 		}
 599:Generated_Source\PSoC5/LCD128x64_1.c **** 	} else {
 600:Generated_Source\PSoC5/LCD128x64_1.c **** 		// x1 must be smaller than x2
 601:Generated_Source\PSoC5/LCD128x64_1.c **** 		if(x1 > x2) {
 602:Generated_Source\PSoC5/LCD128x64_1.c **** 			xTmp = x1;
 603:Generated_Source\PSoC5/LCD128x64_1.c **** 			yTmp = y1;
 604:Generated_Source\PSoC5/LCD128x64_1.c **** 			x1 = x2;
 605:Generated_Source\PSoC5/LCD128x64_1.c **** 			y1 = y2;
 606:Generated_Source\PSoC5/LCD128x64_1.c **** 			x2 = xTmp;
 607:Generated_Source\PSoC5/LCD128x64_1.c **** 			y2 = yTmp;
 608:Generated_Source\PSoC5/LCD128x64_1.c **** 		}
 609:Generated_Source\PSoC5/LCD128x64_1.c **** 		
 610:Generated_Source\PSoC5/LCD128x64_1.c **** 		if((y2-y1) >= (x2-x1) || (y1-y2) >= (x2-x1)) {	// angle larger or equal 45?
 611:Generated_Source\PSoC5/LCD128x64_1.c **** 			length = x2-x1;								// not really the length :)
 612:Generated_Source\PSoC5/LCD128x64_1.c **** 			m = ((y2-y1)*200)/length;
 613:Generated_Source\PSoC5/LCD128x64_1.c **** 			yAlt = y1;
 614:Generated_Source\PSoC5/LCD128x64_1.c **** 			for(i=0; i<=length; i++) {
 615:Generated_Source\PSoC5/LCD128x64_1.c **** 				y = ((m*i)/200)+y1;
 616:Generated_Source\PSoC5/LCD128x64_1.c **** 				
 617:Generated_Source\PSoC5/LCD128x64_1.c **** 				if((m*i)%200 >= 100)
 618:Generated_Source\PSoC5/LCD128x64_1.c **** 					y++;
 619:Generated_Source\PSoC5/LCD128x64_1.c **** 				else if((m*i)%200 <= -100)
 620:Generated_Source\PSoC5/LCD128x64_1.c **** 					y--;
 621:Generated_Source\PSoC5/LCD128x64_1.c **** 				
 622:Generated_Source\PSoC5/LCD128x64_1.c **** 				LCD128x64_1_Line(x1+i, yAlt, x1+i, y, mode ); /* wuff wuff recurs. */
 623:Generated_Source\PSoC5/LCD128x64_1.c **** 				if(length<=(y2-y1) && y1 < y2)
 624:Generated_Source\PSoC5/LCD128x64_1.c **** 					yAlt = y+1;
 625:Generated_Source\PSoC5/LCD128x64_1.c **** 				else if(length<=(y1-y2) && y1 > y2)
 626:Generated_Source\PSoC5/LCD128x64_1.c **** 					yAlt = y-1;
 627:Generated_Source\PSoC5/LCD128x64_1.c **** 				else
 628:Generated_Source\PSoC5/LCD128x64_1.c **** 					yAlt = y;
 629:Generated_Source\PSoC5/LCD128x64_1.c **** 			}
 630:Generated_Source\PSoC5/LCD128x64_1.c **** 		} else {										// angle smaller 45?
 631:Generated_Source\PSoC5/LCD128x64_1.c **** 			// y1 must be smaller than y2
 632:Generated_Source\PSoC5/LCD128x64_1.c **** 			if(y1 > y2) {
 633:Generated_Source\PSoC5/LCD128x64_1.c **** 				xTmp = x1;
 634:Generated_Source\PSoC5/LCD128x64_1.c **** 				yTmp = y1;
 635:Generated_Source\PSoC5/LCD128x64_1.c **** 				x1 = x2;
 636:Generated_Source\PSoC5/LCD128x64_1.c **** 				y1 = y2;
 637:Generated_Source\PSoC5/LCD128x64_1.c **** 				x2 = xTmp;
 638:Generated_Source\PSoC5/LCD128x64_1.c **** 				y2 = yTmp;
 639:Generated_Source\PSoC5/LCD128x64_1.c **** 			}
 640:Generated_Source\PSoC5/LCD128x64_1.c **** 			length = y2-y1;
 641:Generated_Source\PSoC5/LCD128x64_1.c **** 			m = ((x2-x1)*200)/length;
 642:Generated_Source\PSoC5/LCD128x64_1.c **** 			yAlt = x1;
 643:Generated_Source\PSoC5/LCD128x64_1.c **** 			for(i=0; i<=length; i++) {
 644:Generated_Source\PSoC5/LCD128x64_1.c **** 				y = ((m*i)/200)+x1;
 645:Generated_Source\PSoC5/LCD128x64_1.c **** 				
 646:Generated_Source\PSoC5/LCD128x64_1.c **** 				if((m*i)%200 >= 100)
 647:Generated_Source\PSoC5/LCD128x64_1.c **** 					y++;
 648:Generated_Source\PSoC5/LCD128x64_1.c **** 				else if((m*i)%200 <= -100)
 649:Generated_Source\PSoC5/LCD128x64_1.c **** 					y--;
ARM GAS  C:\Users\USUARIO\AppData\Local\Temp\ccVm8SVK.s 			page 15


 650:Generated_Source\PSoC5/LCD128x64_1.c **** 				
 651:Generated_Source\PSoC5/LCD128x64_1.c **** 				LCD128x64_1_Line(yAlt, y1+i, y, y1+i, mode); /* wuff */
 652:Generated_Source\PSoC5/LCD128x64_1.c **** 				if(length<=(x2-x1) && x1 < x2)
 653:Generated_Source\PSoC5/LCD128x64_1.c **** 					yAlt = y+1;
 654:Generated_Source\PSoC5/LCD128x64_1.c **** 				else if(length<=(x1-x2) && x1 > x2)
 655:Generated_Source\PSoC5/LCD128x64_1.c **** 					yAlt = y-1;
 656:Generated_Source\PSoC5/LCD128x64_1.c **** 				else
 657:Generated_Source\PSoC5/LCD128x64_1.c **** 					yAlt = y;
 658:Generated_Source\PSoC5/LCD128x64_1.c **** 			}
 659:Generated_Source\PSoC5/LCD128x64_1.c **** 		}
 660:Generated_Source\PSoC5/LCD128x64_1.c **** 	}
 661:Generated_Source\PSoC5/LCD128x64_1.c **** }
 662:Generated_Source\PSoC5/LCD128x64_1.c **** 
 663:Generated_Source\PSoC5/LCD128x64_1.c **** //-----------------------------------------------------------------------------
 664:Generated_Source\PSoC5/LCD128x64_1.c **** //  FUNCTION NAME:	GLCD_Rect
 665:Generated_Source\PSoC5/LCD128x64_1.c **** //
 666:Generated_Source\PSoC5/LCD128x64_1.c **** //  DESCRIPTION:
 667:Generated_Source\PSoC5/LCD128x64_1.c **** //
 668:Generated_Source\PSoC5/LCD128x64_1.c **** //	Draws rectangle in memory buffer
 669:Generated_Source\PSoC5/LCD128x64_1.c **** //
 670:Generated_Source\PSoC5/LCD128x64_1.c **** //  ARGUMENTS:
 671:Generated_Source\PSoC5/LCD128x64_1.c **** //      x     	
 672:Generated_Source\PSoC5/LCD128x64_1.c **** //		y		
 673:Generated_Source\PSoC5/LCD128x64_1.c **** //      width  	
 674:Generated_Source\PSoC5/LCD128x64_1.c **** //		height
 675:Generated_Source\PSoC5/LCD128x64_1.c **** //		mode	{GLCD_MODE_CLEAR,GLCD_MODE_SET,GLCD_MODE_XOR}
 676:Generated_Source\PSoC5/LCD128x64_1.c **** //
 677:Generated_Source\PSoC5/LCD128x64_1.c **** //  RETURNS:
 678:Generated_Source\PSoC5/LCD128x64_1.c **** //     none.
 679:Generated_Source\PSoC5/LCD128x64_1.c **** //
 680:Generated_Source\PSoC5/LCD128x64_1.c **** //-----------------------------------------------------------------------------
 681:Generated_Source\PSoC5/LCD128x64_1.c **** void LCD128x64_1_Rect(uint8 x, uint8 y, uint8 width, uint8 height,
 682:Generated_Source\PSoC5/LCD128x64_1.c **** 		uint8 mode) 
 683:Generated_Source\PSoC5/LCD128x64_1.c **** {
 684:Generated_Source\PSoC5/LCD128x64_1.c **** 	width--;
 685:Generated_Source\PSoC5/LCD128x64_1.c **** 	height--;
 686:Generated_Source\PSoC5/LCD128x64_1.c **** 	LCD128x64_1_Line(x, y, x+width, y, mode);		// top
 687:Generated_Source\PSoC5/LCD128x64_1.c **** 	LCD128x64_1_Line(x, y, x, y+height, mode);	// left
 688:Generated_Source\PSoC5/LCD128x64_1.c **** 	LCD128x64_1_Line(x, y+height, x+width, y+height, mode);	// bottom
 689:Generated_Source\PSoC5/LCD128x64_1.c **** 	LCD128x64_1_Line(x+width, y, x+width, y+height, mode);	// right
 690:Generated_Source\PSoC5/LCD128x64_1.c **** }
 691:Generated_Source\PSoC5/LCD128x64_1.c **** 
 692:Generated_Source\PSoC5/LCD128x64_1.c **** //-----------------------------------------------------------------------------
 693:Generated_Source\PSoC5/LCD128x64_1.c **** //  FUNCTION NAME:	GLCD_Box
 694:Generated_Source\PSoC5/LCD128x64_1.c **** //
 695:Generated_Source\PSoC5/LCD128x64_1.c **** //  DESCRIPTION:
 696:Generated_Source\PSoC5/LCD128x64_1.c **** //
 697:Generated_Source\PSoC5/LCD128x64_1.c **** //	Draws box in memory buffer
 698:Generated_Source\PSoC5/LCD128x64_1.c **** //
 699:Generated_Source\PSoC5/LCD128x64_1.c **** //  ARGUMENTS:
 700:Generated_Source\PSoC5/LCD128x64_1.c **** //      x     
 701:Generated_Source\PSoC5/LCD128x64_1.c **** //		y	
 702:Generated_Source\PSoC5/LCD128x64_1.c **** //      width  	
 703:Generated_Source\PSoC5/LCD128x64_1.c **** //		height	
 704:Generated_Source\PSoC5/LCD128x64_1.c **** //		mode	{GLCD_MODE_CLEAR,GLCD_MODE_SET,GLCD_MODE_XOR}
 705:Generated_Source\PSoC5/LCD128x64_1.c **** //
 706:Generated_Source\PSoC5/LCD128x64_1.c **** //  RETURNS:
ARM GAS  C:\Users\USUARIO\AppData\Local\Temp\ccVm8SVK.s 			page 16


 707:Generated_Source\PSoC5/LCD128x64_1.c **** //     none.
 708:Generated_Source\PSoC5/LCD128x64_1.c **** //
 709:Generated_Source\PSoC5/LCD128x64_1.c **** //-----------------------------------------------------------------------------
 710:Generated_Source\PSoC5/LCD128x64_1.c **** void LCD128x64_1_Box(uint8 x, uint8 y, uint8 width, uint8 height,
 711:Generated_Source\PSoC5/LCD128x64_1.c **** 		uint8 mode) 
 712:Generated_Source\PSoC5/LCD128x64_1.c **** {
 713:Generated_Source\PSoC5/LCD128x64_1.c **** 	uint8 i;
 714:Generated_Source\PSoC5/LCD128x64_1.c **** 	
 715:Generated_Source\PSoC5/LCD128x64_1.c **** 	if (!width) return; 
 716:Generated_Source\PSoC5/LCD128x64_1.c **** 	
 717:Generated_Source\PSoC5/LCD128x64_1.c **** 	width--;
 718:Generated_Source\PSoC5/LCD128x64_1.c **** 	
 719:Generated_Source\PSoC5/LCD128x64_1.c **** 	for (i=y;i<y+height;i++) 
 720:Generated_Source\PSoC5/LCD128x64_1.c **** 		LCD128x64_1_Line(x, i, x+width, i, mode);
 721:Generated_Source\PSoC5/LCD128x64_1.c **** }
 722:Generated_Source\PSoC5/LCD128x64_1.c **** 
 723:Generated_Source\PSoC5/LCD128x64_1.c **** //-----------------------------------------------------------------------------
 724:Generated_Source\PSoC5/LCD128x64_1.c **** //  FUNCTION NAME:	GLCD_Circle
 725:Generated_Source\PSoC5/LCD128x64_1.c **** //
 726:Generated_Source\PSoC5/LCD128x64_1.c **** //  DESCRIPTION:
 727:Generated_Source\PSoC5/LCD128x64_1.c **** //
 728:Generated_Source\PSoC5/LCD128x64_1.c **** //	
 729:Generated_Source\PSoC5/LCD128x64_1.c **** //  RETURNS:
 730:Generated_Source\PSoC5/LCD128x64_1.c **** //     none.
 731:Generated_Source\PSoC5/LCD128x64_1.c **** //
 732:Generated_Source\PSoC5/LCD128x64_1.c **** //-----------------------------------------------------------------------------
 733:Generated_Source\PSoC5/LCD128x64_1.c **** void LCD128x64_1_Circle(uint8 xCenter, uint8 yCenter, 
 734:Generated_Source\PSoC5/LCD128x64_1.c **** 		uint8 radius, uint8 mode) 
 735:Generated_Source\PSoC5/LCD128x64_1.c **** {
 736:Generated_Source\PSoC5/LCD128x64_1.c ****   	int16 tSwitch, y, x = 0;
 737:Generated_Source\PSoC5/LCD128x64_1.c ****   	uint8 d;
 738:Generated_Source\PSoC5/LCD128x64_1.c **** 
 739:Generated_Source\PSoC5/LCD128x64_1.c ****   	d = yCenter - xCenter;
 740:Generated_Source\PSoC5/LCD128x64_1.c ****   	y = radius;
 741:Generated_Source\PSoC5/LCD128x64_1.c ****   	tSwitch = 3 - 2 * radius;
 742:Generated_Source\PSoC5/LCD128x64_1.c ****   	
 743:Generated_Source\PSoC5/LCD128x64_1.c ****   	while (x <= y) {
 744:Generated_Source\PSoC5/LCD128x64_1.c ****     	LCD128x64_1_Dot(xCenter + x, yCenter + y, mode);
 745:Generated_Source\PSoC5/LCD128x64_1.c ****     	LCD128x64_1_Dot(xCenter + x, yCenter - y, mode);
 746:Generated_Source\PSoC5/LCD128x64_1.c ****     	
 747:Generated_Source\PSoC5/LCD128x64_1.c ****     	LCD128x64_1_Dot(xCenter - x, yCenter + y, mode);
 748:Generated_Source\PSoC5/LCD128x64_1.c ****     	LCD128x64_1_Dot(xCenter - x, yCenter - y, mode);
 749:Generated_Source\PSoC5/LCD128x64_1.c ****     	
 750:Generated_Source\PSoC5/LCD128x64_1.c ****     	LCD128x64_1_Dot(yCenter + y - d, yCenter + x, mode);
 751:Generated_Source\PSoC5/LCD128x64_1.c ****     	LCD128x64_1_Dot(yCenter + y - d, yCenter - x, mode);
 752:Generated_Source\PSoC5/LCD128x64_1.c ****     	
 753:Generated_Source\PSoC5/LCD128x64_1.c ****     	LCD128x64_1_Dot(yCenter - y - d, yCenter + x, mode);
 754:Generated_Source\PSoC5/LCD128x64_1.c ****     	LCD128x64_1_Dot(yCenter - y - d, yCenter - x, mode);
 755:Generated_Source\PSoC5/LCD128x64_1.c **** 
 756:Generated_Source\PSoC5/LCD128x64_1.c ****     	if (tSwitch < 0) {
 757:Generated_Source\PSoC5/LCD128x64_1.c ****     		tSwitch += (4 * x + 6);
 758:Generated_Source\PSoC5/LCD128x64_1.c ****     	} else {
 759:Generated_Source\PSoC5/LCD128x64_1.c ****       		tSwitch += (4 * (x - y) + 10);
 760:Generated_Source\PSoC5/LCD128x64_1.c ****       		y--;
 761:Generated_Source\PSoC5/LCD128x64_1.c ****     	}
 762:Generated_Source\PSoC5/LCD128x64_1.c ****     	x++;
 763:Generated_Source\PSoC5/LCD128x64_1.c ****   	}
ARM GAS  C:\Users\USUARIO\AppData\Local\Temp\ccVm8SVK.s 			page 17


 764:Generated_Source\PSoC5/LCD128x64_1.c **** }
 765:Generated_Source\PSoC5/LCD128x64_1.c **** 
 766:Generated_Source\PSoC5/LCD128x64_1.c **** //-----------------------------------------------------------------------------
 767:Generated_Source\PSoC5/LCD128x64_1.c **** //  FUNCTION NAME:	GLCD_Glyph
 768:Generated_Source\PSoC5/LCD128x64_1.c **** //
 769:Generated_Source\PSoC5/LCD128x64_1.c **** //  DESCRIPTION:
 770:Generated_Source\PSoC5/LCD128x64_1.c **** //
 771:Generated_Source\PSoC5/LCD128x64_1.c **** //	Writes a glyph("letter") to the display at location x,y
 772:Generated_Source\PSoC5/LCD128x64_1.c **** //	(adapted function from the MJK-code)
 773:Generated_Source\PSoC5/LCD128x64_1.c **** //
 774:Generated_Source\PSoC5/LCD128x64_1.c **** //  ARGUMENTS:
 775:Generated_Source\PSoC5/LCD128x64_1.c **** //      column    - x coordinate of the left part of glyph          
 776:Generated_Source\PSoC5/LCD128x64_1.c **** //		row       - y coordinate of the top part of glyph       
 777:Generated_Source\PSoC5/LCD128x64_1.c **** //      width  	  - size in pixels of the width of the glyph    
 778:Generated_Source\PSoC5/LCD128x64_1.c **** //		height 	  - size in pixels of the height of the glyph   
 779:Generated_Source\PSoC5/LCD128x64_1.c **** //		glyph     - an unsigned char pointer to the glyph pixels 
 780:Generated_Source\PSoC5/LCD128x64_1.c **** //        			to write assumed to be of length "width"
 781:Generated_Source\PSoC5/LCD128x64_1.c **** //  RETURNS:
 782:Generated_Source\PSoC5/LCD128x64_1.c **** //     none.
 783:Generated_Source\PSoC5/LCD128x64_1.c **** //
 784:Generated_Source\PSoC5/LCD128x64_1.c **** //-----------------------------------------------------------------------------
 785:Generated_Source\PSoC5/LCD128x64_1.c **** void LCD128x64_1_Glyph(uint8 left, uint8 top,
 786:Generated_Source\PSoC5/LCD128x64_1.c **** 			   uint8 width, uint8 height,
 787:Generated_Source\PSoC5/LCD128x64_1.c **** 			   const uint8 *glyph, uint8 store_width)
 788:Generated_Source\PSoC5/LCD128x64_1.c **** {
 146              		.loc 1 788 0
 147              		.cfi_startproc
 148              		@ args = 8, pretend = 0, frame = 16
 149              		@ frame_needed = 0, uses_anonymous_args = 0
 150              	.LVL9:
 151 0000 2DE9F04F 		push	{r4, r5, r6, r7, r8, r9, r10, fp, lr}
 152              		.cfi_def_cfa_offset 36
 153              		.cfi_offset 4, -36
 154              		.cfi_offset 5, -32
 155              		.cfi_offset 6, -28
 156              		.cfi_offset 7, -24
 157              		.cfi_offset 8, -20
 158              		.cfi_offset 9, -16
 159              		.cfi_offset 10, -12
 160              		.cfi_offset 11, -8
 161              		.cfi_offset 14, -4
 162 0004 85B0     		sub	sp, sp, #20
 163              		.cfi_def_cfa_offset 56
 164 0006 0291     		str	r1, [sp, #8]
 165 0008 0192     		str	r2, [sp, #4]
 166 000a 0393     		str	r3, [sp, #12]
 167 000c 9DF83CC0 		ldrb	ip, [sp, #60]	@ zero_extendqisi2
 789:Generated_Source\PSoC5/LCD128x64_1.c **** 	uint8 bit_pos;
 790:Generated_Source\PSoC5/LCD128x64_1.c **** 	uint8 byte_offset;
 791:Generated_Source\PSoC5/LCD128x64_1.c **** 	uint8 y_bits;
 792:Generated_Source\PSoC5/LCD128x64_1.c **** 	uint8 remaining_bits;
 793:Generated_Source\PSoC5/LCD128x64_1.c **** 	uint8 mask;
 794:Generated_Source\PSoC5/LCD128x64_1.c **** 	uint8 char_mask;
 795:Generated_Source\PSoC5/LCD128x64_1.c **** 	uint8 x;
 796:Generated_Source\PSoC5/LCD128x64_1.c **** 	const uint8 *glyph_scan;
 797:Generated_Source\PSoC5/LCD128x64_1.c **** 	uint8 glyph_offset;
 798:Generated_Source\PSoC5/LCD128x64_1.c **** 
ARM GAS  C:\Users\USUARIO\AppData\Local\Temp\ccVm8SVK.s 			page 18


 799:Generated_Source\PSoC5/LCD128x64_1.c ****   	bit_pos = top & 0x07;		/* get the bit offset into a byte */
 168              		.loc 1 799 0
 169 0010 01F0070A 		and	r10, r1, #7
 170              	.LVL10:
 800:Generated_Source\PSoC5/LCD128x64_1.c **** 
 801:Generated_Source\PSoC5/LCD128x64_1.c **** 	glyph_offset = 0;			/* start at left side of the glyph rasters */
 802:Generated_Source\PSoC5/LCD128x64_1.c ****     char_mask = 0x80;			/* initial character glyph mask */
 803:Generated_Source\PSoC5/LCD128x64_1.c **** 
 804:Generated_Source\PSoC5/LCD128x64_1.c ****   	for (x = left; x < (left + width); x++)
 171              		.loc 1 804 0
 172 0014 8046     		mov	r8, r0
 801:Generated_Source\PSoC5/LCD128x64_1.c ****     char_mask = 0x80;			/* initial character glyph mask */
 173              		.loc 1 801 0
 174 0016 4FF00009 		mov	r9, #0
 802:Generated_Source\PSoC5/LCD128x64_1.c **** 
 175              		.loc 1 802 0
 176 001a 4FF0800E 		mov	lr, #128
 177              		.loc 1 804 0
 178 001e 40E0     		b	.L16
 179              	.LVL11:
 180              	.L24:
 805:Generated_Source\PSoC5/LCD128x64_1.c ****   	{
 806:Generated_Source\PSoC5/LCD128x64_1.c ****     	byte_offset = top >> 3;        	/* get the byte offset into y direction */
 181              		.loc 1 806 0
 182 0020 029B     		ldr	r3, [sp, #8]
 183 0022 DC08     		lsrs	r4, r3, #3
 184              	.LVL12:
 807:Generated_Source\PSoC5/LCD128x64_1.c **** 		y_bits = height;				/* get length in y direction to write */
 808:Generated_Source\PSoC5/LCD128x64_1.c **** 		remaining_bits = 8 - bit_pos;	/* number of bits left in byte */
 185              		.loc 1 808 0
 186 0024 CAF10803 		rsb	r3, r10, #8
 187 0028 DBB2     		uxtb	r3, r3
 188              	.LVL13:
 809:Generated_Source\PSoC5/LCD128x64_1.c **** 		mask = GLCD_MaskArray[bit_pos];	/* get mask for this bit */
 189              		.loc 1 809 0
 190 002a 224A     		ldr	r2, .L26
 191 002c 12F80A20 		ldrb	r2, [r2, r10]	@ zero_extendqisi2
 192              	.LVL14:
 810:Generated_Source\PSoC5/LCD128x64_1.c **** 		glyph_scan = glyph + glyph_offset;	 /* point to base of the glyph */
 193              		.loc 1 810 0
 194 0030 0E99     		ldr	r1, [sp, #56]
 195 0032 01EB0905 		add	r5, r1, r9
 196              	.LVL15:
 807:Generated_Source\PSoC5/LCD128x64_1.c **** 		y_bits = height;				/* get length in y direction to write */
 197              		.loc 1 807 0
 198 0036 0399     		ldr	r1, [sp, #12]
 811:Generated_Source\PSoC5/LCD128x64_1.c **** 
 812:Generated_Source\PSoC5/LCD128x64_1.c ****     	/* boundary checking here to account for the possibility of  */
 813:Generated_Source\PSoC5/LCD128x64_1.c ****     	/* write past the bottom of the screen.                        */
 814:Generated_Source\PSoC5/LCD128x64_1.c ****     	while((y_bits) && (byte_offset < GLCD_Y_BYTES)) /* while there are bits still to write */
 199              		.loc 1 814 0
 200 0038 23E0     		b	.L17
 201              	.LVL16:
 202              	.L22:
 815:Generated_Source\PSoC5/LCD128x64_1.c ****     	{
 816:Generated_Source\PSoC5/LCD128x64_1.c **** 			/* check if the character pixel is set or not */
 817:Generated_Source\PSoC5/LCD128x64_1.c **** 			if(*glyph_scan & char_mask)
ARM GAS  C:\Users\USUARIO\AppData\Local\Temp\ccVm8SVK.s 			page 19


 203              		.loc 1 817 0
 204 003a 2E78     		ldrb	r6, [r5]	@ zero_extendqisi2
 205 003c 1EEA060F 		tst	lr, r6
 206 0040 09D0     		beq	.L18
 818:Generated_Source\PSoC5/LCD128x64_1.c **** 			{
 819:Generated_Source\PSoC5/LCD128x64_1.c **** 				gGLCD_buffer[byte_offset][x] |= mask;	/* set image pixel */
 207              		.loc 1 819 0
 208 0042 1D4E     		ldr	r6, .L26+4
 209 0044 06EBC416 		add	r6, r6, r4, lsl #7
 210 0048 16F807B0 		ldrb	fp, [r6, r7]	@ zero_extendqisi2
 211 004c 42EA0B0B 		orr	fp, r2, fp
 212 0050 06F807B0 		strb	fp, [r6, r7]
 213 0054 08E0     		b	.L19
 214              	.L18:
 820:Generated_Source\PSoC5/LCD128x64_1.c **** 			}
 821:Generated_Source\PSoC5/LCD128x64_1.c **** 			else
 822:Generated_Source\PSoC5/LCD128x64_1.c **** 			{
 823:Generated_Source\PSoC5/LCD128x64_1.c ****       			gGLCD_buffer[byte_offset][x] &= ~mask;	/* clear the image pixel */
 215              		.loc 1 823 0
 216 0056 184E     		ldr	r6, .L26+4
 217 0058 06EBC416 		add	r6, r6, r4, lsl #7
 218 005c 16F807B0 		ldrb	fp, [r6, r7]	@ zero_extendqisi2
 219 0060 2BEA020B 		bic	fp, fp, r2
 220 0064 06F807B0 		strb	fp, [r6, r7]
 221              	.L19:
 824:Generated_Source\PSoC5/LCD128x64_1.c **** 			}
 825:Generated_Source\PSoC5/LCD128x64_1.c **** 
 826:Generated_Source\PSoC5/LCD128x64_1.c **** 			if(GLCD_MaskArray[0] & 0x80)
 827:Generated_Source\PSoC5/LCD128x64_1.c **** 			{
 828:Generated_Source\PSoC5/LCD128x64_1.c **** 				mask >>= 1;
 829:Generated_Source\PSoC5/LCD128x64_1.c **** 			}
 830:Generated_Source\PSoC5/LCD128x64_1.c **** 			else
 831:Generated_Source\PSoC5/LCD128x64_1.c **** 			{
 832:Generated_Source\PSoC5/LCD128x64_1.c **** 				mask <<= 1;
 222              		.loc 1 832 0
 223 0068 5200     		lsls	r2, r2, #1
 224              	.LVL17:
 225 006a D2B2     		uxtb	r2, r2
 226              	.LVL18:
 833:Generated_Source\PSoC5/LCD128x64_1.c **** 			}
 834:Generated_Source\PSoC5/LCD128x64_1.c **** 			
 835:Generated_Source\PSoC5/LCD128x64_1.c **** 			y_bits--;
 227              		.loc 1 835 0
 228 006c 0139     		subs	r1, r1, #1
 229              	.LVL19:
 230 006e C9B2     		uxtb	r1, r1
 231              	.LVL20:
 836:Generated_Source\PSoC5/LCD128x64_1.c **** 			remaining_bits--;
 232              		.loc 1 836 0
 233 0070 013B     		subs	r3, r3, #1
 234              	.LVL21:
 837:Generated_Source\PSoC5/LCD128x64_1.c ****       		if(remaining_bits == 0)
 235              		.loc 1 837 0
 236 0072 13F0FF03 		ands	r3, r3, #255
 237              	.LVL22:
 238 0076 03D1     		bne	.L20
 239              	.LVL23:
ARM GAS  C:\Users\USUARIO\AppData\Local\Temp\ccVm8SVK.s 			page 20


 838:Generated_Source\PSoC5/LCD128x64_1.c ****       		{
 839:Generated_Source\PSoC5/LCD128x64_1.c **** 				/* just crossed over a byte boundry, reset byte counts */
 840:Generated_Source\PSoC5/LCD128x64_1.c **** 				remaining_bits = 8;
 841:Generated_Source\PSoC5/LCD128x64_1.c **** 				byte_offset++;
 240              		.loc 1 841 0
 241 0078 0134     		adds	r4, r4, #1
 242              	.LVL24:
 243 007a E4B2     		uxtb	r4, r4
 244              	.LVL25:
 842:Generated_Source\PSoC5/LCD128x64_1.c **** 				mask = GLCD_MaskArray[0];
 245              		.loc 1 842 0
 246 007c 0122     		movs	r2, #1
 840:Generated_Source\PSoC5/LCD128x64_1.c **** 				byte_offset++;
 247              		.loc 1 840 0
 248 007e 0823     		movs	r3, #8
 249              	.LVL26:
 250              	.L20:
 843:Generated_Source\PSoC5/LCD128x64_1.c ****       		}
 844:Generated_Source\PSoC5/LCD128x64_1.c **** 
 845:Generated_Source\PSoC5/LCD128x64_1.c **** 			/* bump the glyph scan to next raster */
 846:Generated_Source\PSoC5/LCD128x64_1.c **** 			glyph_scan += store_width;
 251              		.loc 1 846 0
 252 0080 6544     		add	r5, r5, ip
 253              	.LVL27:
 254              	.L17:
 814:Generated_Source\PSoC5/LCD128x64_1.c ****     	{
 255              		.loc 1 814 0
 256 0082 09B1     		cbz	r1, .L21
 814:Generated_Source\PSoC5/LCD128x64_1.c ****     	{
 257              		.loc 1 814 0 is_stmt 0 discriminator 1
 258 0084 072C     		cmp	r4, #7
 259 0086 D8D9     		bls	.L22
 260              	.L21:
 261              	.LVL28:
 847:Generated_Source\PSoC5/LCD128x64_1.c **** 		}
 848:Generated_Source\PSoC5/LCD128x64_1.c **** 
 849:Generated_Source\PSoC5/LCD128x64_1.c **** 		/* shift over to next glyph bit */
 850:Generated_Source\PSoC5/LCD128x64_1.c **** 		char_mask >>= 1;
 851:Generated_Source\PSoC5/LCD128x64_1.c **** 		if(char_mask == 0)				/* reset for next byte in raster */
 262              		.loc 1 851 0 is_stmt 1
 263 0088 5FEA5E0E 		lsrs	lr, lr, #1
 264              	.LVL29:
 265 008c 05D1     		bne	.L23
 266              	.LVL30:
 852:Generated_Source\PSoC5/LCD128x64_1.c **** 		{
 853:Generated_Source\PSoC5/LCD128x64_1.c **** 			char_mask = 0x80;
 854:Generated_Source\PSoC5/LCD128x64_1.c **** 			glyph_offset++;
 267              		.loc 1 854 0
 268 008e 09F10109 		add	r9, r9, #1
 269              	.LVL31:
 270 0092 5FFA89F9 		uxtb	r9, r9
 271              	.LVL32:
 853:Generated_Source\PSoC5/LCD128x64_1.c **** 			glyph_offset++;
 272              		.loc 1 853 0
 273 0096 4FF0800E 		mov	lr, #128
 274              	.LVL33:
 275              	.L23:
ARM GAS  C:\Users\USUARIO\AppData\Local\Temp\ccVm8SVK.s 			page 21


 804:Generated_Source\PSoC5/LCD128x64_1.c ****   	{
 276              		.loc 1 804 0 discriminator 2
 277 009a 08F10108 		add	r8, r8, #1
 278              	.LVL34:
 279 009e 5FFA88F8 		uxtb	r8, r8
 280              	.LVL35:
 281              	.L16:
 804:Generated_Source\PSoC5/LCD128x64_1.c ****   	{
 282              		.loc 1 804 0 is_stmt 0 discriminator 1
 283 00a2 4746     		mov	r7, r8
 284 00a4 019B     		ldr	r3, [sp, #4]
 285 00a6 C318     		adds	r3, r0, r3
 286 00a8 9845     		cmp	r8, r3
 287 00aa B9DB     		blt	.L24
 855:Generated_Source\PSoC5/LCD128x64_1.c **** 	    }
 856:Generated_Source\PSoC5/LCD128x64_1.c **** 	}
 857:Generated_Source\PSoC5/LCD128x64_1.c **** }
 288              		.loc 1 857 0 is_stmt 1
 289 00ac 05B0     		add	sp, sp, #20
 290              		.cfi_def_cfa_offset 36
 291              		@ sp needed
 292 00ae BDE8F08F 		pop	{r4, r5, r6, r7, r8, r9, r10, fp, pc}
 293              	.LVL36:
 294              	.L27:
 295 00b2 00BF     		.align	2
 296              	.L26:
 297 00b4 00000000 		.word	.LANCHOR1
 298 00b8 00000000 		.word	.LANCHOR0
 299              		.cfi_endproc
 300              	.LFE82:
 301              		.size	LCD128x64_1_Glyph, .-LCD128x64_1_Glyph
 302              		.section	.text.LCD128x64_1_TimerSet,"ax",%progbits
 303              		.align	2
 304              		.thumb
 305              		.thumb_func
 306              		.type	LCD128x64_1_TimerSet, %function
 307              	LCD128x64_1_TimerSet:
 308              	.LFB66:
 254:Generated_Source\PSoC5/LCD128x64_1.c **** 	LCD128x64_1_Timer_LCD_WriteCounter(count+1);
 309              		.loc 1 254 0
 310              		.cfi_startproc
 311              		@ args = 0, pretend = 0, frame = 0
 312              		@ frame_needed = 0, uses_anonymous_args = 0
 313              	.LVL37:
 314 0000 08B5     		push	{r3, lr}
 315              		.cfi_def_cfa_offset 8
 316              		.cfi_offset 3, -8
 317              		.cfi_offset 14, -4
 255:Generated_Source\PSoC5/LCD128x64_1.c **** }
 318              		.loc 1 255 0
 319 0002 0130     		adds	r0, r0, #1
 320              	.LVL38:
 321 0004 80B2     		uxth	r0, r0
 322 0006 FFF7FEFF 		bl	LCD128x64_1_Timer_LCD_WriteCounter
 323              	.LVL39:
 324 000a 08BD     		pop	{r3, pc}
 325              		.cfi_endproc
ARM GAS  C:\Users\USUARIO\AppData\Local\Temp\ccVm8SVK.s 			page 22


 326              	.LFE66:
 327              		.size	LCD128x64_1_TimerSet, .-LCD128x64_1_TimerSet
 328              		.section	.text.LCD128x64_1_SetupIO,"ax",%progbits
 329              		.align	2
 330              		.thumb
 331              		.thumb_func
 332              		.type	LCD128x64_1_SetupIO, %function
 333              	LCD128x64_1_SetupIO:
 334              	.LFB63:
 170:Generated_Source\PSoC5/LCD128x64_1.c **** 	LCD128x64_1_LCD_DATA_Write(0);
 335              		.loc 1 170 0
 336              		.cfi_startproc
 337              		@ args = 0, pretend = 0, frame = 0
 338              		@ frame_needed = 0, uses_anonymous_args = 0
 339 0000 08B5     		push	{r3, lr}
 340              		.cfi_def_cfa_offset 8
 341              		.cfi_offset 3, -8
 342              		.cfi_offset 14, -4
 171:Generated_Source\PSoC5/LCD128x64_1.c **** 	
 343              		.loc 1 171 0
 344 0002 0020     		movs	r0, #0
 345 0004 FFF7FEFF 		bl	LCD128x64_1_LCD_DATA_Write
 346              	.LVL40:
 173:Generated_Source\PSoC5/LCD128x64_1.c **** 	CyPins_ClearPin(LCD128x64_1_LCDC_CS1);
 347              		.loc 1 173 0
 348 0008 114A     		ldr	r2, .L32
 349 000a 1378     		ldrb	r3, [r2]	@ zero_extendqisi2
 350 000c 03F0FE03 		and	r3, r3, #254
 351 0010 1370     		strb	r3, [r2]
 174:Generated_Source\PSoC5/LCD128x64_1.c **** 	CyPins_ClearPin(LCD128x64_1_LCDC_CS2);
 352              		.loc 1 174 0
 353 0012 253A     		subs	r2, r2, #37
 354 0014 1378     		ldrb	r3, [r2]	@ zero_extendqisi2
 355 0016 03F0FE03 		and	r3, r3, #254
 356 001a 1370     		strb	r3, [r2]
 175:Generated_Source\PSoC5/LCD128x64_1.c **** 	CyPins_ClearPin(LCD128x64_1_LCDC_DI);
 357              		.loc 1 175 0
 358 001c 2432     		adds	r2, r2, #36
 359 001e 1378     		ldrb	r3, [r2]	@ zero_extendqisi2
 360 0020 03F0FE03 		and	r3, r3, #254
 361 0024 1370     		strb	r3, [r2]
 176:Generated_Source\PSoC5/LCD128x64_1.c **** 
 362              		.loc 1 176 0
 363 0026 023A     		subs	r2, r2, #2
 364 0028 1378     		ldrb	r3, [r2]	@ zero_extendqisi2
 365 002a 03F0FE03 		and	r3, r3, #254
 366 002e 1370     		strb	r3, [r2]
 178:Generated_Source\PSoC5/LCD128x64_1.c **** 	CyPins_SetPin(LCD128x64_1_LCDC_RST);
 367              		.loc 1 178 0
 368 0030 084B     		ldr	r3, .L32+4
 369 0032 1A78     		ldrb	r2, [r3]	@ zero_extendqisi2
 370 0034 02F0FE02 		and	r2, r2, #254
 371 0038 1A70     		strb	r2, [r3]
 179:Generated_Source\PSoC5/LCD128x64_1.c **** 	
 372              		.loc 1 179 0
 373 003a 1A78     		ldrb	r2, [r3]	@ zero_extendqisi2
 374 003c 42F00102 		orr	r2, r2, #1
ARM GAS  C:\Users\USUARIO\AppData\Local\Temp\ccVm8SVK.s 			page 23


 375 0040 1A70     		strb	r2, [r3]
 181:Generated_Source\PSoC5/LCD128x64_1.c **** 	LCD128x64_1_TimerSet(NS_TO_COUNT(BUSY_TIME_NS));
 376              		.loc 1 181 0
 377 0042 FFF7FEFF 		bl	LCD128x64_1_Timer_LCD_Start
 378              	.LVL41:
 182:Generated_Source\PSoC5/LCD128x64_1.c **** }
 379              		.loc 1 182 0
 380 0046 1820     		movs	r0, #24
 381 0048 FFF7FEFF 		bl	LCD128x64_1_TimerSet
 382              	.LVL42:
 383 004c 08BD     		pop	{r3, pc}
 384              	.L33:
 385 004e 00BF     		.align	2
 386              	.L32:
 387 0050 36500040 		.word	1073762358
 388 0054 19500040 		.word	1073762329
 389              		.cfi_endproc
 390              	.LFE63:
 391              		.size	LCD128x64_1_SetupIO, .-LCD128x64_1_SetupIO
 392              		.section	.text.LCD128x64_1_TimerWait,"ax",%progbits
 393              		.align	2
 394              		.thumb
 395              		.thumb_func
 396              		.type	LCD128x64_1_TimerWait, %function
 397              	LCD128x64_1_TimerWait:
 398              	.LFB65:
 234:Generated_Source\PSoC5/LCD128x64_1.c **** 	while (LCD128x64_1_Timer_LCD_ReadCounter()!=0)
 399              		.loc 1 234 0
 400              		.cfi_startproc
 401              		@ args = 0, pretend = 0, frame = 0
 402              		@ frame_needed = 0, uses_anonymous_args = 0
 403 0000 08B5     		push	{r3, lr}
 404              		.cfi_def_cfa_offset 8
 405              		.cfi_offset 3, -8
 406              		.cfi_offset 14, -4
 407              	.L35:
 235:Generated_Source\PSoC5/LCD128x64_1.c **** 	{;}
 408              		.loc 1 235 0 discriminator 1
 409 0002 FFF7FEFF 		bl	LCD128x64_1_Timer_LCD_ReadCounter
 410              	.LVL43:
 411 0006 0028     		cmp	r0, #0
 412 0008 FBD1     		bne	.L35
 237:Generated_Source\PSoC5/LCD128x64_1.c **** 
 413              		.loc 1 237 0
 414 000a 08BD     		pop	{r3, pc}
 415              		.cfi_endproc
 416              	.LFE65:
 417              		.size	LCD128x64_1_TimerWait, .-LCD128x64_1_TimerWait
 418              		.section	.text.LCD128x64_1_WriteDataCmd,"ax",%progbits
 419              		.align	2
 420              		.thumb
 421              		.thumb_func
 422              		.type	LCD128x64_1_WriteDataCmd, %function
 423              	LCD128x64_1_WriteDataCmd:
 424              	.LFB67:
 274:Generated_Source\PSoC5/LCD128x64_1.c **** 	LCD128x64_1_TimerWait();
 425              		.loc 1 274 0
ARM GAS  C:\Users\USUARIO\AppData\Local\Temp\ccVm8SVK.s 			page 24


 426              		.cfi_startproc
 427              		@ args = 0, pretend = 0, frame = 0
 428              		@ frame_needed = 0, uses_anonymous_args = 0
 429              	.LVL44:
 430 0000 38B5     		push	{r3, r4, r5, lr}
 431              		.cfi_def_cfa_offset 16
 432              		.cfi_offset 3, -16
 433              		.cfi_offset 4, -12
 434              		.cfi_offset 5, -8
 435              		.cfi_offset 14, -4
 436 0002 0446     		mov	r4, r0
 437 0004 0D46     		mov	r5, r1
 275:Generated_Source\PSoC5/LCD128x64_1.c **** 	
 438              		.loc 1 275 0
 439 0006 FFF7FEFF 		bl	LCD128x64_1_TimerWait
 440              	.LVL45:
 277:Generated_Source\PSoC5/LCD128x64_1.c **** 		CyPins_ClearPin(LCD128x64_1_LCDC_DI);	// DI to 0 (command)																							
 441              		.loc 1 277 0
 442 000a 2DB9     		cbnz	r5, .L38
 278:Generated_Source\PSoC5/LCD128x64_1.c **** 	else
 443              		.loc 1 278 0
 444 000c 124A     		ldr	r2, .L41
 445 000e 1378     		ldrb	r3, [r2]	@ zero_extendqisi2
 446 0010 03F0FE03 		and	r3, r3, #254
 447 0014 1370     		strb	r3, [r2]
 448 0016 04E0     		b	.L39
 449              	.L38:
 280:Generated_Source\PSoC5/LCD128x64_1.c **** 
 450              		.loc 1 280 0
 451 0018 0F4A     		ldr	r2, .L41
 452 001a 1378     		ldrb	r3, [r2]	@ zero_extendqisi2
 453 001c 43F00103 		orr	r3, r3, #1
 454 0020 1370     		strb	r3, [r2]
 455              	.L39:
 283:Generated_Source\PSoC5/LCD128x64_1.c **** 	LCD128x64_1_TimerWait();
 456              		.loc 1 283 0
 457 0022 0320     		movs	r0, #3
 458 0024 FFF7FEFF 		bl	LCD128x64_1_TimerSet
 459              	.LVL46:
 284:Generated_Source\PSoC5/LCD128x64_1.c **** 
 460              		.loc 1 284 0
 461 0028 FFF7FEFF 		bl	LCD128x64_1_TimerWait
 462              	.LVL47:
 286:Generated_Source\PSoC5/LCD128x64_1.c **** 	
 463              		.loc 1 286 0
 464 002c 2046     		mov	r0, r4
 465 002e FFF7FEFF 		bl	LCD128x64_1_LCD_DATA_Write
 466              	.LVL48:
 288:Generated_Source\PSoC5/LCD128x64_1.c **** 									// Need E high for at least 450ns
 467              		.loc 1 288 0
 468 0032 0A4C     		ldr	r4, .L41+4
 469 0034 2378     		ldrb	r3, [r4]	@ zero_extendqisi2
 470 0036 43F00103 		orr	r3, r3, #1
 471 003a 2370     		strb	r3, [r4]
 290:Generated_Source\PSoC5/LCD128x64_1.c **** 	LCD128x64_1_TimerWait();
 472              		.loc 1 290 0
 473 003c 0A20     		movs	r0, #10
ARM GAS  C:\Users\USUARIO\AppData\Local\Temp\ccVm8SVK.s 			page 25


 474 003e FFF7FEFF 		bl	LCD128x64_1_TimerSet
 475              	.LVL49:
 291:Generated_Source\PSoC5/LCD128x64_1.c **** 	CyPins_ClearPin(LCD128x64_1_LCDC_E);
 476              		.loc 1 291 0
 477 0042 FFF7FEFF 		bl	LCD128x64_1_TimerWait
 478              	.LVL50:
 292:Generated_Source\PSoC5/LCD128x64_1.c **** 									// Starts busy wait time
 479              		.loc 1 292 0
 480 0046 2378     		ldrb	r3, [r4]	@ zero_extendqisi2
 481 0048 03F0FE03 		and	r3, r3, #254
 482 004c 2370     		strb	r3, [r4]
 294:Generated_Source\PSoC5/LCD128x64_1.c **** }
 483              		.loc 1 294 0
 484 004e 1820     		movs	r0, #24
 485 0050 FFF7FEFF 		bl	LCD128x64_1_TimerSet
 486              	.LVL51:
 487 0054 38BD     		pop	{r3, r4, r5, pc}
 488              	.L42:
 489 0056 00BF     		.align	2
 490              	.L41:
 491 0058 33500040 		.word	1073762355
 492 005c 36500040 		.word	1073762358
 493              		.cfi_endproc
 494              	.LFE67:
 495              		.size	LCD128x64_1_WriteDataCmd, .-LCD128x64_1_WriteDataCmd
 496              		.section	.text.LCD128x64_1_WriteCommand,"ax",%progbits
 497              		.align	2
 498              		.thumb
 499              		.thumb_func
 500              		.type	LCD128x64_1_WriteCommand, %function
 501              	LCD128x64_1_WriteCommand:
 502              	.LFB68:
 312:Generated_Source\PSoC5/LCD128x64_1.c **** 	LCD128x64_1_WriteDataCmd(byte, GLCD_MODECMD);
 503              		.loc 1 312 0
 504              		.cfi_startproc
 505              		@ args = 0, pretend = 0, frame = 0
 506              		@ frame_needed = 0, uses_anonymous_args = 0
 507              	.LVL52:
 508 0000 08B5     		push	{r3, lr}
 509              		.cfi_def_cfa_offset 8
 510              		.cfi_offset 3, -8
 511              		.cfi_offset 14, -4
 313:Generated_Source\PSoC5/LCD128x64_1.c **** }
 512              		.loc 1 313 0
 513 0002 0021     		movs	r1, #0
 514 0004 FFF7FEFF 		bl	LCD128x64_1_WriteDataCmd
 515              	.LVL53:
 516 0008 08BD     		pop	{r3, pc}
 517              		.cfi_endproc
 518              	.LFE68:
 519              		.size	LCD128x64_1_WriteCommand, .-LCD128x64_1_WriteCommand
 520 000a 00BF     		.section	.text.LCD128x64_1_SetPage,"ax",%progbits
 521              		.align	2
 522              		.thumb
 523              		.thumb_func
 524              		.type	LCD128x64_1_SetPage, %function
 525              	LCD128x64_1_SetPage:
ARM GAS  C:\Users\USUARIO\AppData\Local\Temp\ccVm8SVK.s 			page 26


 526              	.LFB70:
 350:Generated_Source\PSoC5/LCD128x64_1.c **** 	LCD128x64_1_WriteCommand(GLCD_SET_PAGE+page);
 527              		.loc 1 350 0
 528              		.cfi_startproc
 529              		@ args = 0, pretend = 0, frame = 0
 530              		@ frame_needed = 0, uses_anonymous_args = 0
 531              	.LVL54:
 532 0000 08B5     		push	{r3, lr}
 533              		.cfi_def_cfa_offset 8
 534              		.cfi_offset 3, -8
 535              		.cfi_offset 14, -4
 351:Generated_Source\PSoC5/LCD128x64_1.c **** }
 536              		.loc 1 351 0
 537 0002 4838     		subs	r0, r0, #72
 538              	.LVL55:
 539 0004 C0B2     		uxtb	r0, r0
 540 0006 FFF7FEFF 		bl	LCD128x64_1_WriteCommand
 541              	.LVL56:
 542 000a 08BD     		pop	{r3, pc}
 543              		.cfi_endproc
 544              	.LFE70:
 545              		.size	LCD128x64_1_SetPage, .-LCD128x64_1_SetPage
 546              		.section	.text.LCD128x64_1_SetAddress,"ax",%progbits
 547              		.align	2
 548              		.thumb
 549              		.thumb_func
 550              		.type	LCD128x64_1_SetAddress, %function
 551              	LCD128x64_1_SetAddress:
 552              	.LFB71:
 369:Generated_Source\PSoC5/LCD128x64_1.c **** 	LCD128x64_1_WriteCommand(GLCD_SET_ADDRESS+address);
 553              		.loc 1 369 0
 554              		.cfi_startproc
 555              		@ args = 0, pretend = 0, frame = 0
 556              		@ frame_needed = 0, uses_anonymous_args = 0
 557              	.LVL57:
 558 0000 08B5     		push	{r3, lr}
 559              		.cfi_def_cfa_offset 8
 560              		.cfi_offset 3, -8
 561              		.cfi_offset 14, -4
 370:Generated_Source\PSoC5/LCD128x64_1.c **** }
 562              		.loc 1 370 0
 563 0002 4030     		adds	r0, r0, #64
 564              	.LVL58:
 565 0004 C0B2     		uxtb	r0, r0
 566 0006 FFF7FEFF 		bl	LCD128x64_1_WriteCommand
 567              	.LVL59:
 568 000a 08BD     		pop	{r3, pc}
 569              		.cfi_endproc
 570              	.LFE71:
 571              		.size	LCD128x64_1_SetAddress, .-LCD128x64_1_SetAddress
 572              		.section	.text.LCD128x64_1_WriteData,"ax",%progbits
 573              		.align	2
 574              		.thumb
 575              		.thumb_func
 576              		.type	LCD128x64_1_WriteData, %function
 577              	LCD128x64_1_WriteData:
 578              	.LFB69:
ARM GAS  C:\Users\USUARIO\AppData\Local\Temp\ccVm8SVK.s 			page 27


 331:Generated_Source\PSoC5/LCD128x64_1.c **** 	LCD128x64_1_WriteDataCmd(byte, GLCD_MODEDATA);
 579              		.loc 1 331 0
 580              		.cfi_startproc
 581              		@ args = 0, pretend = 0, frame = 0
 582              		@ frame_needed = 0, uses_anonymous_args = 0
 583              	.LVL60:
 584 0000 08B5     		push	{r3, lr}
 585              		.cfi_def_cfa_offset 8
 586              		.cfi_offset 3, -8
 587              		.cfi_offset 14, -4
 332:Generated_Source\PSoC5/LCD128x64_1.c **** }
 588              		.loc 1 332 0
 589 0002 0121     		movs	r1, #1
 590 0004 FFF7FEFF 		bl	LCD128x64_1_WriteDataCmd
 591              	.LVL61:
 592 0008 08BD     		pop	{r3, pc}
 593              		.cfi_endproc
 594              	.LFE69:
 595              		.size	LCD128x64_1_WriteData, .-LCD128x64_1_WriteData
 596 000a 00BF     		.section	.text.LCD128x64_1_Init,"ax",%progbits
 597              		.align	2
 598              		.global	LCD128x64_1_Init
 599              		.thumb
 600              		.thumb_func
 601              		.type	LCD128x64_1_Init, %function
 602              	LCD128x64_1_Init:
 603              	.LFB72:
 388:Generated_Source\PSoC5/LCD128x64_1.c **** 	uint8 i;
 604              		.loc 1 388 0
 605              		.cfi_startproc
 606              		@ args = 0, pretend = 0, frame = 0
 607              		@ frame_needed = 0, uses_anonymous_args = 0
 608 0000 10B5     		push	{r4, lr}
 609              		.cfi_def_cfa_offset 8
 610              		.cfi_offset 4, -8
 611              		.cfi_offset 14, -4
 391:Generated_Source\PSoC5/LCD128x64_1.c **** 	
 612              		.loc 1 391 0
 613 0002 FFF7FEFF 		bl	LCD128x64_1_SetupIO
 614              	.LVL62:
 393:Generated_Source\PSoC5/LCD128x64_1.c **** 		LCD128x64_1_SelectChip(i);
 615              		.loc 1 393 0
 616 0006 0024     		movs	r4, #0
 617 0008 0AE0     		b	.L52
 618              	.LVL63:
 619              	.L53:
 394:Generated_Source\PSoC5/LCD128x64_1.c **** 		LCD128x64_1_WriteCommand(GLCD_ON); 
 620              		.loc 1 394 0 discriminator 3
 621 000a 2046     		mov	r0, r4
 622 000c FFF7FEFF 		bl	LCD128x64_1_SelectChip
 623              	.LVL64:
 395:Generated_Source\PSoC5/LCD128x64_1.c **** 		LCD128x64_1_WriteCommand(GLCD_DISP_START0);
 624              		.loc 1 395 0 discriminator 3
 625 0010 3F20     		movs	r0, #63
 626 0012 FFF7FEFF 		bl	LCD128x64_1_WriteCommand
 627              	.LVL65:
 396:Generated_Source\PSoC5/LCD128x64_1.c **** 		// GLCD_SetPage(0);
ARM GAS  C:\Users\USUARIO\AppData\Local\Temp\ccVm8SVK.s 			page 28


 628              		.loc 1 396 0 discriminator 3
 629 0016 C020     		movs	r0, #192
 630 0018 FFF7FEFF 		bl	LCD128x64_1_WriteCommand
 631              	.LVL66:
 393:Generated_Source\PSoC5/LCD128x64_1.c **** 		LCD128x64_1_SelectChip(i);
 632              		.loc 1 393 0 discriminator 3
 633 001c 0134     		adds	r4, r4, #1
 634              	.LVL67:
 635 001e E4B2     		uxtb	r4, r4
 636              	.LVL68:
 637              	.L52:
 393:Generated_Source\PSoC5/LCD128x64_1.c **** 		LCD128x64_1_SelectChip(i);
 638              		.loc 1 393 0 is_stmt 0 discriminator 1
 639 0020 012C     		cmp	r4, #1
 640 0022 F2D9     		bls	.L53
 400:Generated_Source\PSoC5/LCD128x64_1.c **** //-----------------------------------------------------------------------------
 641              		.loc 1 400 0 is_stmt 1
 642 0024 10BD     		pop	{r4, pc}
 643              		.cfi_endproc
 644              	.LFE72:
 645              		.size	LCD128x64_1_Init, .-LCD128x64_1_Init
 646 0026 00BF     		.section	.text.LCD128x64_1_SetInvert,"ax",%progbits
 647              		.align	2
 648              		.global	LCD128x64_1_SetInvert
 649              		.thumb
 650              		.thumb_func
 651              		.type	LCD128x64_1_SetInvert, %function
 652              	LCD128x64_1_SetInvert:
 653              	.LFB73:
 416:Generated_Source\PSoC5/LCD128x64_1.c **** 	gGLCD_inverted = mode;
 654              		.loc 1 416 0
 655              		.cfi_startproc
 656              		@ args = 0, pretend = 0, frame = 0
 657              		@ frame_needed = 0, uses_anonymous_args = 0
 658              		@ link register save eliminated.
 659              	.LVL69:
 417:Generated_Source\PSoC5/LCD128x64_1.c **** }
 660              		.loc 1 417 0
 661 0000 014B     		ldr	r3, .L56
 662 0002 83F80004 		strb	r0, [r3, #1024]
 663 0006 7047     		bx	lr
 664              	.L57:
 665              		.align	2
 666              	.L56:
 667 0008 00000000 		.word	.LANCHOR0
 668              		.cfi_endproc
 669              	.LFE73:
 670              		.size	LCD128x64_1_SetInvert, .-LCD128x64_1_SetInvert
 671              		.section	.text.LCD128x64_1_Update,"ax",%progbits
 672              		.align	2
 673              		.global	LCD128x64_1_Update
 674              		.thumb
 675              		.thumb_func
 676              		.type	LCD128x64_1_Update, %function
 677              	LCD128x64_1_Update:
 678              	.LFB76:
 480:Generated_Source\PSoC5/LCD128x64_1.c **** 	uint8 x, y, i;
ARM GAS  C:\Users\USUARIO\AppData\Local\Temp\ccVm8SVK.s 			page 29


 679              		.loc 1 480 0
 680              		.cfi_startproc
 681              		@ args = 0, pretend = 0, frame = 0
 682              		@ frame_needed = 0, uses_anonymous_args = 0
 683              	.LVL70:
 684 0000 2DE9F843 		push	{r3, r4, r5, r6, r7, r8, r9, lr}
 685              		.cfi_def_cfa_offset 32
 686              		.cfi_offset 3, -32
 687              		.cfi_offset 4, -28
 688              		.cfi_offset 5, -24
 689              		.cfi_offset 6, -20
 690              		.cfi_offset 7, -16
 691              		.cfi_offset 8, -12
 692              		.cfi_offset 9, -8
 693              		.cfi_offset 14, -4
 486:Generated_Source\PSoC5/LCD128x64_1.c **** 	yb = bottom >> 3;
 694              		.loc 1 486 0
 695 0004 C0F3C709 		ubfx	r9, r0, #3, #8
 696              	.LVL71:
 487:Generated_Source\PSoC5/LCD128x64_1.c **** 
 697              		.loc 1 487 0
 698 0008 C1F3C708 		ubfx	r8, r1, #3, #8
 699              	.LVL72:
 489:Generated_Source\PSoC5/LCD128x64_1.c **** 		LCD128x64_1_SelectChip(i);
 700              		.loc 1 489 0
 701 000c 0027     		movs	r7, #0
 702 000e 23E0     		b	.L59
 703              	.LVL73:
 704              	.L65:
 490:Generated_Source\PSoC5/LCD128x64_1.c **** 		for (y=yt;y<=yb;y++) {
 705              		.loc 1 490 0
 706 0010 3846     		mov	r0, r7
 707 0012 FFF7FEFF 		bl	LCD128x64_1_SelectChip
 708              	.LVL74:
 491:Generated_Source\PSoC5/LCD128x64_1.c **** 			LCD128x64_1_SetPage(y);
 709              		.loc 1 491 0
 710 0016 4D46     		mov	r5, r9
 711 0018 1AE0     		b	.L60
 712              	.LVL75:
 713              	.L64:
 492:Generated_Source\PSoC5/LCD128x64_1.c **** 			LCD128x64_1_SetAddress(0);
 714              		.loc 1 492 0
 715 001a 2846     		mov	r0, r5
 716 001c FFF7FEFF 		bl	LCD128x64_1_SetPage
 717              	.LVL76:
 493:Generated_Source\PSoC5/LCD128x64_1.c **** 			xoffset = i * GLCD_MAXADDRESS;
 718              		.loc 1 493 0
 719 0020 0020     		movs	r0, #0
 720 0022 FFF7FEFF 		bl	LCD128x64_1_SetAddress
 721              	.LVL77:
 494:Generated_Source\PSoC5/LCD128x64_1.c **** 			for (x=0;x<GLCD_MAXADDRESS;x++) {
 722              		.loc 1 494 0
 723 0026 BE01     		lsls	r6, r7, #6
 724              	.LVL78:
 495:Generated_Source\PSoC5/LCD128x64_1.c **** 				data = gGLCD_buffer[y][xoffset+x];
 725              		.loc 1 495 0
 726 0028 0024     		movs	r4, #0
ARM GAS  C:\Users\USUARIO\AppData\Local\Temp\ccVm8SVK.s 			page 30


 727 002a 0DE0     		b	.L61
 728              	.LVL79:
 729              	.L63:
 496:Generated_Source\PSoC5/LCD128x64_1.c **** 				if (gGLCD_inverted) data=~data;
 730              		.loc 1 496 0
 731 002c 3319     		adds	r3, r6, r4
 732 002e 0E4A     		ldr	r2, .L67
 733 0030 02EBC511 		add	r1, r2, r5, lsl #7
 734 0034 C85C     		ldrb	r0, [r1, r3]	@ zero_extendqisi2
 735              	.LVL80:
 497:Generated_Source\PSoC5/LCD128x64_1.c **** 				LCD128x64_1_WriteData(data);
 736              		.loc 1 497 0
 737 0036 92F80034 		ldrb	r3, [r2, #1024]	@ zero_extendqisi2
 738 003a 0BB1     		cbz	r3, .L62
 497:Generated_Source\PSoC5/LCD128x64_1.c **** 				LCD128x64_1_WriteData(data);
 739              		.loc 1 497 0 is_stmt 0 discriminator 1
 740 003c C043     		mvns	r0, r0
 741              	.LVL81:
 742 003e C0B2     		uxtb	r0, r0
 743              	.LVL82:
 744              	.L62:
 498:Generated_Source\PSoC5/LCD128x64_1.c **** 			}
 745              		.loc 1 498 0 is_stmt 1 discriminator 2
 746 0040 FFF7FEFF 		bl	LCD128x64_1_WriteData
 747              	.LVL83:
 495:Generated_Source\PSoC5/LCD128x64_1.c **** 				data = gGLCD_buffer[y][xoffset+x];
 748              		.loc 1 495 0 discriminator 2
 749 0044 0134     		adds	r4, r4, #1
 750              	.LVL84:
 751 0046 E4B2     		uxtb	r4, r4
 752              	.LVL85:
 753              	.L61:
 495:Generated_Source\PSoC5/LCD128x64_1.c **** 				data = gGLCD_buffer[y][xoffset+x];
 754              		.loc 1 495 0 is_stmt 0 discriminator 1
 755 0048 3F2C     		cmp	r4, #63
 756 004a EFD9     		bls	.L63
 491:Generated_Source\PSoC5/LCD128x64_1.c **** 			LCD128x64_1_SetPage(y);
 757              		.loc 1 491 0 is_stmt 1 discriminator 2
 758 004c 0135     		adds	r5, r5, #1
 759              	.LVL86:
 760 004e EDB2     		uxtb	r5, r5
 761              	.LVL87:
 762              	.L60:
 491:Generated_Source\PSoC5/LCD128x64_1.c **** 			LCD128x64_1_SetPage(y);
 763              		.loc 1 491 0 is_stmt 0 discriminator 1
 764 0050 4545     		cmp	r5, r8
 765 0052 E2D9     		bls	.L64
 489:Generated_Source\PSoC5/LCD128x64_1.c **** 		LCD128x64_1_SelectChip(i);
 766              		.loc 1 489 0 is_stmt 1 discriminator 2
 767 0054 0137     		adds	r7, r7, #1
 768              	.LVL88:
 769 0056 FFB2     		uxtb	r7, r7
 770              	.LVL89:
 771              	.L59:
 489:Generated_Source\PSoC5/LCD128x64_1.c **** 		LCD128x64_1_SelectChip(i);
 772              		.loc 1 489 0 is_stmt 0 discriminator 1
 773 0058 012F     		cmp	r7, #1
ARM GAS  C:\Users\USUARIO\AppData\Local\Temp\ccVm8SVK.s 			page 31


 774 005a D9D9     		bls	.L65
 502:Generated_Source\PSoC5/LCD128x64_1.c **** }
 775              		.loc 1 502 0 is_stmt 1
 776 005c 6320     		movs	r0, #99
 777 005e FFF7FEFF 		bl	LCD128x64_1_SelectChip
 778              	.LVL90:
 779 0062 BDE8F883 		pop	{r3, r4, r5, r6, r7, r8, r9, pc}
 780              	.LVL91:
 781              	.L68:
 782 0066 00BF     		.align	2
 783              	.L67:
 784 0068 00000000 		.word	.LANCHOR0
 785              		.cfi_endproc
 786              	.LFE76:
 787              		.size	LCD128x64_1_Update, .-LCD128x64_1_Update
 788              		.section	.text.LCD128x64_1_ClrScr,"ax",%progbits
 789              		.align	2
 790              		.global	LCD128x64_1_ClrScr
 791              		.thumb
 792              		.thumb_func
 793              		.type	LCD128x64_1_ClrScr, %function
 794              	LCD128x64_1_ClrScr:
 795              	.LFB75:
 458:Generated_Source\PSoC5/LCD128x64_1.c **** 	LCD128x64_1_FillBuffer(0x00);
 796              		.loc 1 458 0
 797              		.cfi_startproc
 798              		@ args = 0, pretend = 0, frame = 0
 799              		@ frame_needed = 0, uses_anonymous_args = 0
 800              	.LVL92:
 801 0000 10B5     		push	{r4, lr}
 802              		.cfi_def_cfa_offset 8
 803              		.cfi_offset 4, -8
 804              		.cfi_offset 14, -4
 805 0002 0446     		mov	r4, r0
 459:Generated_Source\PSoC5/LCD128x64_1.c **** 	if ( bufferAndDisplay ) 
 806              		.loc 1 459 0
 807 0004 0020     		movs	r0, #0
 808              	.LVL93:
 809 0006 FFF7FEFF 		bl	LCD128x64_1_FillBuffer
 810              	.LVL94:
 460:Generated_Source\PSoC5/LCD128x64_1.c **** 		LCD128x64_1_UpdateAll();
 811              		.loc 1 460 0
 812 000a 1CB1     		cbz	r4, .L69
 461:Generated_Source\PSoC5/LCD128x64_1.c **** }
 813              		.loc 1 461 0
 814 000c 3F21     		movs	r1, #63
 815 000e 0020     		movs	r0, #0
 816 0010 FFF7FEFF 		bl	LCD128x64_1_Update
 817              	.LVL95:
 818              	.L69:
 819 0014 10BD     		pop	{r4, pc}
 820              		.cfi_endproc
 821              	.LFE75:
 822              		.size	LCD128x64_1_ClrScr, .-LCD128x64_1_ClrScr
 823 0016 00BF     		.section	.text.LCD128x64_1_Dot,"ax",%progbits
 824              		.align	2
 825              		.global	LCD128x64_1_Dot
ARM GAS  C:\Users\USUARIO\AppData\Local\Temp\ccVm8SVK.s 			page 32


 826              		.thumb
 827              		.thumb_func
 828              		.type	LCD128x64_1_Dot, %function
 829              	LCD128x64_1_Dot:
 830              	.LFB77:
 521:Generated_Source\PSoC5/LCD128x64_1.c **** // here 2*1 setup - TODO: for 2*2 setting
 831              		.loc 1 521 0
 832              		.cfi_startproc
 833              		@ args = 0, pretend = 0, frame = 0
 834              		@ frame_needed = 0, uses_anonymous_args = 0
 835              		@ link register save eliminated.
 836              	.LVL96:
 525:Generated_Source\PSoC5/LCD128x64_1.c **** 	
 837              		.loc 1 525 0
 838 0000 7E28     		cmp	r0, #126
 839 0002 23D8     		bhi	.L79
 525:Generated_Source\PSoC5/LCD128x64_1.c **** 	
 840              		.loc 1 525 0 is_stmt 0 discriminator 1
 841 0004 3E29     		cmp	r1, #62
 842 0006 21D8     		bhi	.L79
 521:Generated_Source\PSoC5/LCD128x64_1.c **** // here 2*1 setup - TODO: for 2*2 setting
 843              		.loc 1 521 0 is_stmt 1
 844 0008 10B4     		push	{r4}
 845              		.cfi_def_cfa_offset 4
 846              		.cfi_offset 4, -4
 527:Generated_Source\PSoC5/LCD128x64_1.c **** 	bitnum  = y & 0x07;
 847              		.loc 1 527 0
 848 000a CC08     		lsrs	r4, r1, #3
 849              	.LVL97:
 528:Generated_Source\PSoC5/LCD128x64_1.c **** 	bitmask = GLCD_MaskArray[bitnum];
 850              		.loc 1 528 0
 851 000c 01F00701 		and	r1, r1, #7
 852              	.LVL98:
 529:Generated_Source\PSoC5/LCD128x64_1.c **** 	switch (mode) {
 853              		.loc 1 529 0
 854 0010 0F4B     		ldr	r3, .L80
 855 0012 5B5C     		ldrb	r3, [r3, r1]	@ zero_extendqisi2
 856              	.LVL99:
 530:Generated_Source\PSoC5/LCD128x64_1.c **** 		case GLCD_MODE_SET:
 857              		.loc 1 530 0
 858 0014 012A     		cmp	r2, #1
 859 0016 03D0     		beq	.L74
 860 0018 4AB1     		cbz	r2, .L75
 861 001a 022A     		cmp	r2, #2
 862 001c 0FD0     		beq	.L76
 863 001e 14E0     		b	.L72
 864              	.L74:
 532:Generated_Source\PSoC5/LCD128x64_1.c **** 			break;
 865              		.loc 1 532 0
 866 0020 0C4A     		ldr	r2, .L80+4
 867              	.LVL100:
 868 0022 02EBC414 		add	r4, r2, r4, lsl #7
 869              	.LVL101:
 870 0026 225C     		ldrb	r2, [r4, r0]	@ zero_extendqisi2
 871 0028 1343     		orrs	r3, r3, r2
 872              	.LVL102:
 873 002a 2354     		strb	r3, [r4, r0]
ARM GAS  C:\Users\USUARIO\AppData\Local\Temp\ccVm8SVK.s 			page 33


 533:Generated_Source\PSoC5/LCD128x64_1.c **** 		case GLCD_MODE_CLEAR:
 874              		.loc 1 533 0
 875 002c 0DE0     		b	.L72
 876              	.LVL103:
 877              	.L75:
 535:Generated_Source\PSoC5/LCD128x64_1.c **** 			break;
 878              		.loc 1 535 0
 879 002e 094A     		ldr	r2, .L80+4
 880              	.LVL104:
 881 0030 02EBC414 		add	r4, r2, r4, lsl #7
 882              	.LVL105:
 883 0034 225C     		ldrb	r2, [r4, r0]	@ zero_extendqisi2
 884 0036 22EA0303 		bic	r3, r2, r3
 885              	.LVL106:
 886 003a 2354     		strb	r3, [r4, r0]
 536:Generated_Source\PSoC5/LCD128x64_1.c **** 		case GLCD_MODE_XOR:
 887              		.loc 1 536 0
 888 003c 05E0     		b	.L72
 889              	.LVL107:
 890              	.L76:
 538:Generated_Source\PSoC5/LCD128x64_1.c **** 			break;
 891              		.loc 1 538 0
 892 003e 054A     		ldr	r2, .L80+4
 893              	.LVL108:
 894 0040 02EBC414 		add	r4, r2, r4, lsl #7
 895              	.LVL109:
 896 0044 225C     		ldrb	r2, [r4, r0]	@ zero_extendqisi2
 897 0046 5340     		eors	r3, r3, r2
 898              	.LVL110:
 899 0048 2354     		strb	r3, [r4, r0]
 900              	.L72:
 542:Generated_Source\PSoC5/LCD128x64_1.c **** 
 901              		.loc 1 542 0
 902 004a 10BC     		pop	{r4}
 903              		.cfi_restore 4
 904              		.cfi_def_cfa_offset 0
 905              	.LVL111:
 906              	.L79:
 907 004c 7047     		bx	lr
 908              	.L81:
 909 004e 00BF     		.align	2
 910              	.L80:
 911 0050 00000000 		.word	.LANCHOR1
 912 0054 00000000 		.word	.LANCHOR0
 913              		.cfi_endproc
 914              	.LFE77:
 915              		.size	LCD128x64_1_Dot, .-LCD128x64_1_Dot
 916              		.section	.text.LCD128x64_1_Line,"ax",%progbits
 917              		.align	2
 918              		.global	LCD128x64_1_Line
 919              		.thumb
 920              		.thumb_func
 921              		.type	LCD128x64_1_Line, %function
 922              	LCD128x64_1_Line:
 923              	.LFB78:
 565:Generated_Source\PSoC5/LCD128x64_1.c **** 	uint8 length, xTmp, yTmp, i, y, yAlt;
 924              		.loc 1 565 0
ARM GAS  C:\Users\USUARIO\AppData\Local\Temp\ccVm8SVK.s 			page 34


 925              		.cfi_startproc
 926              		@ args = 4, pretend = 0, frame = 16
 927              		@ frame_needed = 0, uses_anonymous_args = 0
 928              	.LVL112:
 929 0000 2DE9F04F 		push	{r4, r5, r6, r7, r8, r9, r10, fp, lr}
 930              		.cfi_def_cfa_offset 36
 931              		.cfi_offset 4, -36
 932              		.cfi_offset 5, -32
 933              		.cfi_offset 6, -28
 934              		.cfi_offset 7, -24
 935              		.cfi_offset 8, -20
 936              		.cfi_offset 9, -16
 937              		.cfi_offset 10, -12
 938              		.cfi_offset 11, -8
 939              		.cfi_offset 14, -4
 940 0004 87B0     		sub	sp, sp, #28
 941              		.cfi_def_cfa_offset 64
 942 0006 0746     		mov	r7, r0
 943 0008 0E46     		mov	r6, r1
 944 000a 9946     		mov	r9, r3
 945 000c 9DF84030 		ldrb	r3, [sp, #64]	@ zero_extendqisi2
 946              	.LVL113:
 947 0010 0293     		str	r3, [sp, #8]
 569:Generated_Source\PSoC5/LCD128x64_1.c **** 		// x1|y1 must be the upper point
 948              		.loc 1 569 0
 949 0012 9042     		cmp	r0, r2
 950 0014 15D1     		bne	.L83
 571:Generated_Source\PSoC5/LCD128x64_1.c **** 			xTmp = x1;
 951              		.loc 1 571 0
 952 0016 4945     		cmp	r1, r9
 953 0018 01D9     		bls	.L84
 575:Generated_Source\PSoC5/LCD128x64_1.c **** 			x2 = xTmp;
 954              		.loc 1 575 0
 955 001a 4E46     		mov	r6, r9
 577:Generated_Source\PSoC5/LCD128x64_1.c **** 		}
 956              		.loc 1 577 0
 957 001c 8946     		mov	r9, r1
 958              	.L84:
 959              	.LVL114:
 580:Generated_Source\PSoC5/LCD128x64_1.c **** 		for(i=0; i<=length; i++) {
 960              		.loc 1 580 0
 961 001e C6EB0909 		rsb	r9, r6, r9
 962              	.LVL115:
 963 0022 5FFA89F9 		uxtb	r9, r9
 964              	.LVL116:
 581:Generated_Source\PSoC5/LCD128x64_1.c **** 			LCD128x64_1_Dot(x1, y1+i, mode);
 965              		.loc 1 581 0
 966 0026 0024     		movs	r4, #0
 967 0028 029D     		ldr	r5, [sp, #8]
 968 002a 07E0     		b	.L85
 969              	.LVL117:
 970              	.L86:
 582:Generated_Source\PSoC5/LCD128x64_1.c **** 		}
 971              		.loc 1 582 0 discriminator 3
 972 002c 3119     		adds	r1, r6, r4
 973 002e 2A46     		mov	r2, r5
 974 0030 C9B2     		uxtb	r1, r1
ARM GAS  C:\Users\USUARIO\AppData\Local\Temp\ccVm8SVK.s 			page 35


 975 0032 3846     		mov	r0, r7
 976 0034 FFF7FEFF 		bl	LCD128x64_1_Dot
 977              	.LVL118:
 581:Generated_Source\PSoC5/LCD128x64_1.c **** 			LCD128x64_1_Dot(x1, y1+i, mode);
 978              		.loc 1 581 0 discriminator 3
 979 0038 0134     		adds	r4, r4, #1
 980              	.LVL119:
 981 003a E4B2     		uxtb	r4, r4
 982              	.LVL120:
 983              	.L85:
 581:Generated_Source\PSoC5/LCD128x64_1.c **** 			LCD128x64_1_Dot(x1, y1+i, mode);
 984              		.loc 1 581 0 is_stmt 0 discriminator 1
 985 003c 4C45     		cmp	r4, r9
 986 003e F5D9     		bls	.L86
 987 0040 C1E0     		b	.L82
 988              	.LVL121:
 989              	.L83:
 990 0042 9046     		mov	r8, r2
 584:Generated_Source\PSoC5/LCD128x64_1.c **** 		// x1|y1 must be the left point
 991              		.loc 1 584 0 is_stmt 1
 992 0044 4945     		cmp	r1, r9
 993 0046 15D1     		bne	.L88
 586:Generated_Source\PSoC5/LCD128x64_1.c **** 			xTmp = x1;
 994              		.loc 1 586 0
 995 0048 9042     		cmp	r0, r2
 996 004a 01D9     		bls	.L89
 589:Generated_Source\PSoC5/LCD128x64_1.c **** 			y1 = y2;
 997              		.loc 1 589 0
 998 004c 1746     		mov	r7, r2
 591:Generated_Source\PSoC5/LCD128x64_1.c **** 			y2 = yTmp;
 999              		.loc 1 591 0
 1000 004e 8046     		mov	r8, r0
 1001              	.L89:
 1002              	.LVL122:
 595:Generated_Source\PSoC5/LCD128x64_1.c **** 		for(i=0; i<=length; i++) {
 1003              		.loc 1 595 0
 1004 0050 C7EB0808 		rsb	r8, r7, r8
 1005              	.LVL123:
 1006 0054 5FFA88F8 		uxtb	r8, r8
 1007              	.LVL124:
 596:Generated_Source\PSoC5/LCD128x64_1.c **** 			LCD128x64_1_Dot(x1+i, y1, mode);
 1008              		.loc 1 596 0
 1009 0058 0024     		movs	r4, #0
 1010 005a 029D     		ldr	r5, [sp, #8]
 1011 005c 07E0     		b	.L90
 1012              	.LVL125:
 1013              	.L91:
 597:Generated_Source\PSoC5/LCD128x64_1.c **** 		}
 1014              		.loc 1 597 0 discriminator 3
 1015 005e 3819     		adds	r0, r7, r4
 1016 0060 2A46     		mov	r2, r5
 1017 0062 3146     		mov	r1, r6
 1018 0064 C0B2     		uxtb	r0, r0
 1019 0066 FFF7FEFF 		bl	LCD128x64_1_Dot
 1020              	.LVL126:
 596:Generated_Source\PSoC5/LCD128x64_1.c **** 			LCD128x64_1_Dot(x1+i, y1, mode);
 1021              		.loc 1 596 0 discriminator 3
ARM GAS  C:\Users\USUARIO\AppData\Local\Temp\ccVm8SVK.s 			page 36


 1022 006a 0134     		adds	r4, r4, #1
 1023              	.LVL127:
 1024 006c E4B2     		uxtb	r4, r4
 1025              	.LVL128:
 1026              	.L90:
 596:Generated_Source\PSoC5/LCD128x64_1.c **** 			LCD128x64_1_Dot(x1+i, y1, mode);
 1027              		.loc 1 596 0 is_stmt 0 discriminator 1
 1028 006e 4445     		cmp	r4, r8
 1029 0070 F5D9     		bls	.L91
 1030 0072 A8E0     		b	.L82
 1031              	.LVL129:
 1032              	.L88:
 601:Generated_Source\PSoC5/LCD128x64_1.c **** 			xTmp = x1;
 1033              		.loc 1 601 0 is_stmt 1
 1034 0074 9042     		cmp	r0, r2
 1035 0076 03D9     		bls	.L92
 605:Generated_Source\PSoC5/LCD128x64_1.c **** 			x2 = xTmp;
 1036              		.loc 1 605 0
 1037 0078 4E46     		mov	r6, r9
 607:Generated_Source\PSoC5/LCD128x64_1.c **** 		}
 1038              		.loc 1 607 0
 1039 007a 8946     		mov	r9, r1
 604:Generated_Source\PSoC5/LCD128x64_1.c **** 			y1 = y2;
 1040              		.loc 1 604 0
 1041 007c 1746     		mov	r7, r2
 606:Generated_Source\PSoC5/LCD128x64_1.c **** 			y2 = yTmp;
 1042              		.loc 1 606 0
 1043 007e 8046     		mov	r8, r0
 1044              	.L92:
 1045              	.LVL130:
 610:Generated_Source\PSoC5/LCD128x64_1.c **** 			length = x2-x1;								// not really the length :)
 1046              		.loc 1 610 0
 1047 0080 CDF81090 		str	r9, [sp, #16]
 1048 0084 0596     		str	r6, [sp, #20]
 1049 0086 C6EB090B 		rsb	fp, r6, r9
 1050 008a C7EB0803 		rsb	r3, r7, r8
 1051 008e 9B45     		cmp	fp, r3
 1052 0090 03DA     		bge	.L93
 610:Generated_Source\PSoC5/LCD128x64_1.c **** 			length = x2-x1;								// not really the length :)
 1053              		.loc 1 610 0 is_stmt 0 discriminator 1
 1054 0092 C9EB0602 		rsb	r2, r9, r6
 1055 0096 9342     		cmp	r3, r2
 1056 0098 44DC     		bgt	.L94
 1057              	.L93:
 611:Generated_Source\PSoC5/LCD128x64_1.c **** 			m = ((y2-y1)*200)/length;
 1058              		.loc 1 611 0 is_stmt 1
 1059 009a C7EB0808 		rsb	r8, r7, r8
 1060              	.LVL131:
 1061 009e 5FFA88F8 		uxtb	r8, r8
 1062              	.LVL132:
 612:Generated_Source\PSoC5/LCD128x64_1.c **** 			yAlt = y1;
 1063              		.loc 1 612 0
 1064 00a2 C823     		movs	r3, #200
 1065 00a4 03FB0BF3 		mul	r3, r3, fp
 1066 00a8 C246     		mov	r10, r8
 1067 00aa 93FBF8F3 		sdiv	r3, r3, r8
 1068 00ae 1BB2     		sxth	r3, r3
ARM GAS  C:\Users\USUARIO\AppData\Local\Temp\ccVm8SVK.s 			page 37


 1069 00b0 0393     		str	r3, [sp, #12]
 1070              	.LVL133:
 613:Generated_Source\PSoC5/LCD128x64_1.c **** 			for(i=0; i<=length; i++) {
 1071              		.loc 1 613 0
 1072 00b2 3146     		mov	r1, r6
 614:Generated_Source\PSoC5/LCD128x64_1.c **** 				y = ((m*i)/200)+y1;
 1073              		.loc 1 614 0
 1074 00b4 0025     		movs	r5, #0
 1075 00b6 32E0     		b	.L95
 1076              	.LVL134:
 1077              	.L100:
 615:Generated_Source\PSoC5/LCD128x64_1.c **** 				
 1078              		.loc 1 615 0
 1079 00b8 039B     		ldr	r3, [sp, #12]
 1080 00ba 05FB03F0 		mul	r0, r5, r3
 1081 00be 434B     		ldr	r3, .L113
 1082 00c0 83FB0032 		smull	r3, r2, r3, r0
 1083 00c4 C317     		asrs	r3, r0, #31
 1084 00c6 C3EBA213 		rsb	r3, r3, r2, asr #6
 1085 00ca F418     		adds	r4, r6, r3
 1086 00cc E4B2     		uxtb	r4, r4
 1087              	.LVL135:
 617:Generated_Source\PSoC5/LCD128x64_1.c **** 					y++;
 1088              		.loc 1 617 0
 1089 00ce C822     		movs	r2, #200
 1090 00d0 02FB1302 		mls	r2, r2, r3, r0
 1091 00d4 632A     		cmp	r2, #99
 1092 00d6 02DD     		ble	.L96
 618:Generated_Source\PSoC5/LCD128x64_1.c **** 				else if((m*i)%200 <= -100)
 1093              		.loc 1 618 0
 1094 00d8 0134     		adds	r4, r4, #1
 1095              	.LVL136:
 1096 00da E4B2     		uxtb	r4, r4
 1097              	.LVL137:
 1098 00dc 04E0     		b	.L97
 1099              	.L96:
 619:Generated_Source\PSoC5/LCD128x64_1.c **** 					y--;
 1100              		.loc 1 619 0
 1101 00de 12F1630F 		cmn	r2, #99
 1102 00e2 01DA     		bge	.L97
 620:Generated_Source\PSoC5/LCD128x64_1.c **** 				
 1103              		.loc 1 620 0
 1104 00e4 013C     		subs	r4, r4, #1
 1105              	.LVL138:
 1106 00e6 E4B2     		uxtb	r4, r4
 1107              	.LVL139:
 1108              	.L97:
 622:Generated_Source\PSoC5/LCD128x64_1.c **** 				if(length<=(y2-y1) && y1 < y2)
 1109              		.loc 1 622 0
 1110 00e8 7819     		adds	r0, r7, r5
 1111 00ea C0B2     		uxtb	r0, r0
 1112 00ec 029B     		ldr	r3, [sp, #8]
 1113 00ee 0093     		str	r3, [sp]
 1114 00f0 2346     		mov	r3, r4
 1115 00f2 0246     		mov	r2, r0
 1116 00f4 FFF7FEFF 		bl	LCD128x64_1_Line
 1117              	.LVL140:
ARM GAS  C:\Users\USUARIO\AppData\Local\Temp\ccVm8SVK.s 			page 38


 623:Generated_Source\PSoC5/LCD128x64_1.c **** 					yAlt = y+1;
 1118              		.loc 1 623 0
 1119 00f8 D345     		cmp	fp, r10
 1120 00fa 04DB     		blt	.L98
 623:Generated_Source\PSoC5/LCD128x64_1.c **** 					yAlt = y+1;
 1121              		.loc 1 623 0 is_stmt 0 discriminator 1
 1122 00fc 4E45     		cmp	r6, r9
 1123 00fe 02D2     		bcs	.L98
 624:Generated_Source\PSoC5/LCD128x64_1.c **** 				else if(length<=(y1-y2) && y1 > y2)
 1124              		.loc 1 624 0 is_stmt 1
 1125 0100 0134     		adds	r4, r4, #1
 1126              	.LVL141:
 1127 0102 E4B2     		uxtb	r4, r4
 1128              	.LVL142:
 1129 0104 08E0     		b	.L99
 1130              	.LVL143:
 1131              	.L98:
 625:Generated_Source\PSoC5/LCD128x64_1.c **** 					yAlt = y-1;
 1132              		.loc 1 625 0
 1133 0106 059B     		ldr	r3, [sp, #20]
 1134 0108 049A     		ldr	r2, [sp, #16]
 1135 010a 9B1A     		subs	r3, r3, r2
 1136 010c 9A45     		cmp	r10, r3
 1137 010e 03DC     		bgt	.L99
 625:Generated_Source\PSoC5/LCD128x64_1.c **** 					yAlt = y-1;
 1138              		.loc 1 625 0 is_stmt 0 discriminator 1
 1139 0110 4E45     		cmp	r6, r9
 1140 0112 01D9     		bls	.L99
 626:Generated_Source\PSoC5/LCD128x64_1.c **** 				else
 1141              		.loc 1 626 0 is_stmt 1
 1142 0114 013C     		subs	r4, r4, #1
 1143              	.LVL144:
 1144 0116 E4B2     		uxtb	r4, r4
 1145              	.LVL145:
 1146              	.L99:
 614:Generated_Source\PSoC5/LCD128x64_1.c **** 				y = ((m*i)/200)+y1;
 1147              		.loc 1 614 0 discriminator 2
 1148 0118 0135     		adds	r5, r5, #1
 1149              	.LVL146:
 1150 011a EDB2     		uxtb	r5, r5
 1151              	.LVL147:
 1152 011c 2146     		mov	r1, r4
 1153              	.LVL148:
 1154              	.L95:
 614:Generated_Source\PSoC5/LCD128x64_1.c **** 				y = ((m*i)/200)+y1;
 1155              		.loc 1 614 0 is_stmt 0 discriminator 1
 1156 011e 4545     		cmp	r5, r8
 1157 0120 CAD9     		bls	.L100
 1158 0122 50E0     		b	.L82
 1159              	.LVL149:
 1160              	.L94:
 632:Generated_Source\PSoC5/LCD128x64_1.c **** 				xTmp = x1;
 1161              		.loc 1 632 0 is_stmt 1
 1162 0124 4E45     		cmp	r6, r9
 1163 0126 05D9     		bls	.L101
 1164 0128 3346     		mov	r3, r6
 636:Generated_Source\PSoC5/LCD128x64_1.c **** 				x2 = xTmp;
ARM GAS  C:\Users\USUARIO\AppData\Local\Temp\ccVm8SVK.s 			page 39


 1165              		.loc 1 636 0
 1166 012a 4E46     		mov	r6, r9
 1167              	.LVL150:
 638:Generated_Source\PSoC5/LCD128x64_1.c **** 			}
 1168              		.loc 1 638 0
 1169 012c 9946     		mov	r9, r3
 1170              	.LVL151:
 1171 012e 3B46     		mov	r3, r7
 635:Generated_Source\PSoC5/LCD128x64_1.c **** 				y1 = y2;
 1172              		.loc 1 635 0
 1173 0130 4746     		mov	r7, r8
 1174              	.LVL152:
 637:Generated_Source\PSoC5/LCD128x64_1.c **** 				y2 = yTmp;
 1175              		.loc 1 637 0
 1176 0132 9846     		mov	r8, r3
 1177              	.LVL153:
 1178              	.L101:
 640:Generated_Source\PSoC5/LCD128x64_1.c **** 			m = ((x2-x1)*200)/length;
 1179              		.loc 1 640 0
 1180 0134 C6EB0909 		rsb	r9, r6, r9
 1181              	.LVL154:
 1182 0138 5FFA89F9 		uxtb	r9, r9
 1183              	.LVL155:
 641:Generated_Source\PSoC5/LCD128x64_1.c **** 			yAlt = x1;
 1184              		.loc 1 641 0
 1185 013c CDF81080 		str	r8, [sp, #16]
 1186 0140 0597     		str	r7, [sp, #20]
 1187 0142 C7EB080B 		rsb	fp, r7, r8
 1188 0146 C823     		movs	r3, #200
 1189 0148 03FB0BF3 		mul	r3, r3, fp
 1190 014c CA46     		mov	r10, r9
 1191 014e 93FBF9F3 		sdiv	r3, r3, r9
 1192 0152 1BB2     		sxth	r3, r3
 1193 0154 0393     		str	r3, [sp, #12]
 1194              	.LVL156:
 642:Generated_Source\PSoC5/LCD128x64_1.c **** 			for(i=0; i<=length; i++) {
 1195              		.loc 1 642 0
 1196 0156 3846     		mov	r0, r7
 643:Generated_Source\PSoC5/LCD128x64_1.c **** 				y = ((m*i)/200)+x1;
 1197              		.loc 1 643 0
 1198 0158 0025     		movs	r5, #0
 1199 015a 32E0     		b	.L102
 1200              	.LVL157:
 1201              	.L107:
 644:Generated_Source\PSoC5/LCD128x64_1.c **** 				
 1202              		.loc 1 644 0
 1203 015c 039B     		ldr	r3, [sp, #12]
 1204 015e 05FB03F1 		mul	r1, r5, r3
 1205 0162 1A4B     		ldr	r3, .L113
 1206 0164 83FB0132 		smull	r3, r2, r3, r1
 1207 0168 CB17     		asrs	r3, r1, #31
 1208 016a C3EBA213 		rsb	r3, r3, r2, asr #6
 1209 016e FC18     		adds	r4, r7, r3
 1210 0170 E4B2     		uxtb	r4, r4
 1211              	.LVL158:
 646:Generated_Source\PSoC5/LCD128x64_1.c **** 					y++;
 1212              		.loc 1 646 0
ARM GAS  C:\Users\USUARIO\AppData\Local\Temp\ccVm8SVK.s 			page 40


 1213 0172 C822     		movs	r2, #200
 1214 0174 02FB1312 		mls	r2, r2, r3, r1
 1215 0178 632A     		cmp	r2, #99
 1216 017a 02DD     		ble	.L103
 647:Generated_Source\PSoC5/LCD128x64_1.c **** 				else if((m*i)%200 <= -100)
 1217              		.loc 1 647 0
 1218 017c 0134     		adds	r4, r4, #1
 1219              	.LVL159:
 1220 017e E4B2     		uxtb	r4, r4
 1221              	.LVL160:
 1222 0180 04E0     		b	.L104
 1223              	.L103:
 648:Generated_Source\PSoC5/LCD128x64_1.c **** 					y--;
 1224              		.loc 1 648 0
 1225 0182 12F1630F 		cmn	r2, #99
 1226 0186 01DA     		bge	.L104
 649:Generated_Source\PSoC5/LCD128x64_1.c **** 				
 1227              		.loc 1 649 0
 1228 0188 013C     		subs	r4, r4, #1
 1229              	.LVL161:
 1230 018a E4B2     		uxtb	r4, r4
 1231              	.LVL162:
 1232              	.L104:
 651:Generated_Source\PSoC5/LCD128x64_1.c **** 				if(length<=(x2-x1) && x1 < x2)
 1233              		.loc 1 651 0
 1234 018c 7119     		adds	r1, r6, r5
 1235 018e C9B2     		uxtb	r1, r1
 1236 0190 029B     		ldr	r3, [sp, #8]
 1237 0192 0093     		str	r3, [sp]
 1238 0194 0B46     		mov	r3, r1
 1239 0196 2246     		mov	r2, r4
 1240 0198 FFF7FEFF 		bl	LCD128x64_1_Line
 1241              	.LVL163:
 652:Generated_Source\PSoC5/LCD128x64_1.c **** 					yAlt = y+1;
 1242              		.loc 1 652 0
 1243 019c D345     		cmp	fp, r10
 1244 019e 04DB     		blt	.L105
 652:Generated_Source\PSoC5/LCD128x64_1.c **** 					yAlt = y+1;
 1245              		.loc 1 652 0 is_stmt 0 discriminator 1
 1246 01a0 4745     		cmp	r7, r8
 1247 01a2 02D2     		bcs	.L105
 653:Generated_Source\PSoC5/LCD128x64_1.c **** 				else if(length<=(x1-x2) && x1 > x2)
 1248              		.loc 1 653 0 is_stmt 1
 1249 01a4 0134     		adds	r4, r4, #1
 1250              	.LVL164:
 1251 01a6 E4B2     		uxtb	r4, r4
 1252              	.LVL165:
 1253 01a8 08E0     		b	.L106
 1254              	.LVL166:
 1255              	.L105:
 654:Generated_Source\PSoC5/LCD128x64_1.c **** 					yAlt = y-1;
 1256              		.loc 1 654 0
 1257 01aa 059B     		ldr	r3, [sp, #20]
 1258 01ac 049A     		ldr	r2, [sp, #16]
 1259 01ae 9B1A     		subs	r3, r3, r2
 1260 01b0 9A45     		cmp	r10, r3
 1261 01b2 03DC     		bgt	.L106
ARM GAS  C:\Users\USUARIO\AppData\Local\Temp\ccVm8SVK.s 			page 41


 654:Generated_Source\PSoC5/LCD128x64_1.c **** 					yAlt = y-1;
 1262              		.loc 1 654 0 is_stmt 0 discriminator 1
 1263 01b4 4745     		cmp	r7, r8
 1264 01b6 01D9     		bls	.L106
 655:Generated_Source\PSoC5/LCD128x64_1.c **** 				else
 1265              		.loc 1 655 0 is_stmt 1
 1266 01b8 013C     		subs	r4, r4, #1
 1267              	.LVL167:
 1268 01ba E4B2     		uxtb	r4, r4
 1269              	.LVL168:
 1270              	.L106:
 643:Generated_Source\PSoC5/LCD128x64_1.c **** 				y = ((m*i)/200)+x1;
 1271              		.loc 1 643 0 discriminator 2
 1272 01bc 0135     		adds	r5, r5, #1
 1273              	.LVL169:
 1274 01be EDB2     		uxtb	r5, r5
 1275              	.LVL170:
 1276 01c0 2046     		mov	r0, r4
 1277              	.LVL171:
 1278              	.L102:
 643:Generated_Source\PSoC5/LCD128x64_1.c **** 				y = ((m*i)/200)+x1;
 1279              		.loc 1 643 0 is_stmt 0 discriminator 1
 1280 01c2 4D45     		cmp	r5, r9
 1281 01c4 CAD9     		bls	.L107
 1282              	.LVL172:
 1283              	.L82:
 661:Generated_Source\PSoC5/LCD128x64_1.c **** 
 1284              		.loc 1 661 0 is_stmt 1
 1285 01c6 07B0     		add	sp, sp, #28
 1286              		.cfi_def_cfa_offset 36
 1287              		@ sp needed
 1288 01c8 BDE8F08F 		pop	{r4, r5, r6, r7, r8, r9, r10, fp, pc}
 1289              	.LVL173:
 1290              	.L114:
 1291              		.align	2
 1292              	.L113:
 1293 01cc 1F85EB51 		.word	1374389535
 1294              		.cfi_endproc
 1295              	.LFE78:
 1296              		.size	LCD128x64_1_Line, .-LCD128x64_1_Line
 1297              		.section	.text.LCD128x64_1_Rect,"ax",%progbits
 1298              		.align	2
 1299              		.global	LCD128x64_1_Rect
 1300              		.thumb
 1301              		.thumb_func
 1302              		.type	LCD128x64_1_Rect, %function
 1303              	LCD128x64_1_Rect:
 1304              	.LFB79:
 683:Generated_Source\PSoC5/LCD128x64_1.c **** 	width--;
 1305              		.loc 1 683 0
 1306              		.cfi_startproc
 1307              		@ args = 4, pretend = 0, frame = 0
 1308              		@ frame_needed = 0, uses_anonymous_args = 0
 1309              	.LVL174:
 1310 0000 2DE9F041 		push	{r4, r5, r6, r7, r8, lr}
 1311              		.cfi_def_cfa_offset 24
 1312              		.cfi_offset 4, -24
ARM GAS  C:\Users\USUARIO\AppData\Local\Temp\ccVm8SVK.s 			page 42


 1313              		.cfi_offset 5, -20
 1314              		.cfi_offset 6, -16
 1315              		.cfi_offset 7, -12
 1316              		.cfi_offset 8, -8
 1317              		.cfi_offset 14, -4
 1318 0004 82B0     		sub	sp, sp, #8
 1319              		.cfi_def_cfa_offset 32
 1320 0006 8046     		mov	r8, r0
 1321 0008 0E46     		mov	r6, r1
 1322 000a 9DF82070 		ldrb	r7, [sp, #32]	@ zero_extendqisi2
 684:Generated_Source\PSoC5/LCD128x64_1.c **** 	height--;
 1323              		.loc 1 684 0
 1324 000e 013A     		subs	r2, r2, #1
 1325              	.LVL175:
 1326 0010 D2B2     		uxtb	r2, r2
 1327              	.LVL176:
 685:Generated_Source\PSoC5/LCD128x64_1.c **** 	LCD128x64_1_Line(x, y, x+width, y, mode);		// top
 1328              		.loc 1 685 0
 1329 0012 013B     		subs	r3, r3, #1
 1330              	.LVL177:
 1331 0014 DDB2     		uxtb	r5, r3
 1332              	.LVL178:
 686:Generated_Source\PSoC5/LCD128x64_1.c **** 	LCD128x64_1_Line(x, y, x, y+height, mode);	// left
 1333              		.loc 1 686 0
 1334 0016 0244     		add	r2, r2, r0
 1335              	.LVL179:
 1336 0018 D4B2     		uxtb	r4, r2
 1337 001a 0097     		str	r7, [sp]
 1338 001c 0B46     		mov	r3, r1
 1339 001e 2246     		mov	r2, r4
 1340 0020 FFF7FEFF 		bl	LCD128x64_1_Line
 1341              	.LVL180:
 687:Generated_Source\PSoC5/LCD128x64_1.c **** 	LCD128x64_1_Line(x, y+height, x+width, y+height, mode);	// bottom
 1342              		.loc 1 687 0
 1343 0024 3544     		add	r5, r5, r6
 1344              	.LVL181:
 1345 0026 EDB2     		uxtb	r5, r5
 1346 0028 0097     		str	r7, [sp]
 1347 002a 2B46     		mov	r3, r5
 1348 002c 4246     		mov	r2, r8
 1349 002e 3146     		mov	r1, r6
 1350 0030 4046     		mov	r0, r8
 1351 0032 FFF7FEFF 		bl	LCD128x64_1_Line
 1352              	.LVL182:
 688:Generated_Source\PSoC5/LCD128x64_1.c **** 	LCD128x64_1_Line(x+width, y, x+width, y+height, mode);	// right
 1353              		.loc 1 688 0
 1354 0036 0097     		str	r7, [sp]
 1355 0038 2B46     		mov	r3, r5
 1356 003a 2246     		mov	r2, r4
 1357 003c 2946     		mov	r1, r5
 1358 003e 4046     		mov	r0, r8
 1359 0040 FFF7FEFF 		bl	LCD128x64_1_Line
 1360              	.LVL183:
 689:Generated_Source\PSoC5/LCD128x64_1.c **** }
 1361              		.loc 1 689 0
 1362 0044 0097     		str	r7, [sp]
 1363 0046 2B46     		mov	r3, r5
ARM GAS  C:\Users\USUARIO\AppData\Local\Temp\ccVm8SVK.s 			page 43


 1364 0048 2246     		mov	r2, r4
 1365 004a 3146     		mov	r1, r6
 1366 004c 2046     		mov	r0, r4
 1367 004e FFF7FEFF 		bl	LCD128x64_1_Line
 1368              	.LVL184:
 690:Generated_Source\PSoC5/LCD128x64_1.c **** 
 1369              		.loc 1 690 0
 1370 0052 02B0     		add	sp, sp, #8
 1371              		.cfi_def_cfa_offset 24
 1372              		@ sp needed
 1373 0054 BDE8F081 		pop	{r4, r5, r6, r7, r8, pc}
 1374              		.cfi_endproc
 1375              	.LFE79:
 1376              		.size	LCD128x64_1_Rect, .-LCD128x64_1_Rect
 1377              		.section	.text.LCD128x64_1_Box,"ax",%progbits
 1378              		.align	2
 1379              		.global	LCD128x64_1_Box
 1380              		.thumb
 1381              		.thumb_func
 1382              		.type	LCD128x64_1_Box, %function
 1383              	LCD128x64_1_Box:
 1384              	.LFB80:
 712:Generated_Source\PSoC5/LCD128x64_1.c **** 	uint8 i;
 1385              		.loc 1 712 0
 1386              		.cfi_startproc
 1387              		@ args = 4, pretend = 0, frame = 0
 1388              		@ frame_needed = 0, uses_anonymous_args = 0
 1389              	.LVL185:
 1390 0000 2DE9F043 		push	{r4, r5, r6, r7, r8, r9, lr}
 1391              		.cfi_def_cfa_offset 28
 1392              		.cfi_offset 4, -28
 1393              		.cfi_offset 5, -24
 1394              		.cfi_offset 6, -20
 1395              		.cfi_offset 7, -16
 1396              		.cfi_offset 8, -12
 1397              		.cfi_offset 9, -8
 1398              		.cfi_offset 14, -4
 1399 0004 83B0     		sub	sp, sp, #12
 1400              		.cfi_def_cfa_offset 40
 1401 0006 9DF82890 		ldrb	r9, [sp, #40]	@ zero_extendqisi2
 715:Generated_Source\PSoC5/LCD128x64_1.c **** 	
 1402              		.loc 1 715 0
 1403 000a AAB1     		cbz	r2, .L117
 1404 000c 9846     		mov	r8, r3
 1405 000e 0F46     		mov	r7, r1
 1406 0010 0546     		mov	r5, r0
 717:Generated_Source\PSoC5/LCD128x64_1.c **** 	
 1407              		.loc 1 717 0
 1408 0012 561E     		subs	r6, r2, #1
 1409 0014 F6B2     		uxtb	r6, r6
 1410              	.LVL186:
 719:Generated_Source\PSoC5/LCD128x64_1.c **** 		LCD128x64_1_Line(x, i, x+width, i, mode);
 1411              		.loc 1 719 0
 1412 0016 0C46     		mov	r4, r1
 1413 0018 0AE0     		b	.L119
 1414              	.LVL187:
 1415              	.L120:
ARM GAS  C:\Users\USUARIO\AppData\Local\Temp\ccVm8SVK.s 			page 44


 720:Generated_Source\PSoC5/LCD128x64_1.c **** }
 1416              		.loc 1 720 0 discriminator 3
 1417 001a 7219     		adds	r2, r6, r5
 1418 001c CDF80090 		str	r9, [sp]
 1419 0020 2346     		mov	r3, r4
 1420 0022 D2B2     		uxtb	r2, r2
 1421 0024 2146     		mov	r1, r4
 1422 0026 2846     		mov	r0, r5
 1423 0028 FFF7FEFF 		bl	LCD128x64_1_Line
 1424              	.LVL188:
 719:Generated_Source\PSoC5/LCD128x64_1.c **** 		LCD128x64_1_Line(x, i, x+width, i, mode);
 1425              		.loc 1 719 0 discriminator 3
 1426 002c 0134     		adds	r4, r4, #1
 1427              	.LVL189:
 1428 002e E4B2     		uxtb	r4, r4
 1429              	.LVL190:
 1430              	.L119:
 719:Generated_Source\PSoC5/LCD128x64_1.c **** 		LCD128x64_1_Line(x, i, x+width, i, mode);
 1431              		.loc 1 719 0 is_stmt 0 discriminator 1
 1432 0030 07EB0803 		add	r3, r7, r8
 1433 0034 9C42     		cmp	r4, r3
 1434 0036 F0DB     		blt	.L120
 1435              	.LVL191:
 1436              	.L117:
 721:Generated_Source\PSoC5/LCD128x64_1.c **** 
 1437              		.loc 1 721 0 is_stmt 1
 1438 0038 03B0     		add	sp, sp, #12
 1439              		.cfi_def_cfa_offset 28
 1440              		@ sp needed
 1441 003a BDE8F083 		pop	{r4, r5, r6, r7, r8, r9, pc}
 1442              		.cfi_endproc
 1443              	.LFE80:
 1444              		.size	LCD128x64_1_Box, .-LCD128x64_1_Box
 1445 003e 00BF     		.section	.text.LCD128x64_1_Circle,"ax",%progbits
 1446              		.align	2
 1447              		.global	LCD128x64_1_Circle
 1448              		.thumb
 1449              		.thumb_func
 1450              		.type	LCD128x64_1_Circle, %function
 1451              	LCD128x64_1_Circle:
 1452              	.LFB81:
 735:Generated_Source\PSoC5/LCD128x64_1.c ****   	int16 tSwitch, y, x = 0;
 1453              		.loc 1 735 0
 1454              		.cfi_startproc
 1455              		@ args = 0, pretend = 0, frame = 16
 1456              		@ frame_needed = 0, uses_anonymous_args = 0
 1457              	.LVL192:
 1458 0000 2DE9F04F 		push	{r4, r5, r6, r7, r8, r9, r10, fp, lr}
 1459              		.cfi_def_cfa_offset 36
 1460              		.cfi_offset 4, -36
 1461              		.cfi_offset 5, -32
 1462              		.cfi_offset 6, -28
 1463              		.cfi_offset 7, -24
 1464              		.cfi_offset 8, -20
 1465              		.cfi_offset 9, -16
 1466              		.cfi_offset 10, -12
 1467              		.cfi_offset 11, -8
ARM GAS  C:\Users\USUARIO\AppData\Local\Temp\ccVm8SVK.s 			page 45


 1468              		.cfi_offset 14, -4
 1469 0004 85B0     		sub	sp, sp, #20
 1470              		.cfi_def_cfa_offset 56
 1471 0006 0390     		str	r0, [sp, #12]
 1472 0008 8B46     		mov	fp, r1
 1473 000a 0193     		str	r3, [sp, #4]
 1474              	.LVL193:
 739:Generated_Source\PSoC5/LCD128x64_1.c ****   	y = radius;
 1475              		.loc 1 739 0
 1476 000c 0B1A     		subs	r3, r1, r0
 1477              	.LVL194:
 1478 000e DBB2     		uxtb	r3, r3
 1479 0010 0293     		str	r3, [sp, #8]
 1480              	.LVL195:
 740:Generated_Source\PSoC5/LCD128x64_1.c ****   	tSwitch = 3 - 2 * radius;
 1481              		.loc 1 740 0
 1482 0012 0FFA82F9 		sxth	r9, r2
 1483              	.LVL196:
 741:Generated_Source\PSoC5/LCD128x64_1.c ****   	
 1484              		.loc 1 741 0
 1485 0016 5200     		lsls	r2, r2, #1
 1486              	.LVL197:
 1487 0018 C2F10307 		rsb	r7, r2, #3
 1488              	.LVL198:
 736:Generated_Source\PSoC5/LCD128x64_1.c ****   	uint8 d;
 1489              		.loc 1 736 0
 1490 001c 4FF00008 		mov	r8, #0
 743:Generated_Source\PSoC5/LCD128x64_1.c ****     	LCD128x64_1_Dot(xCenter + x, yCenter + y, mode);
 1491              		.loc 1 743 0
 1492 0020 5EE0     		b	.L123
 1493              	.LVL199:
 1494              	.L126:
 744:Generated_Source\PSoC5/LCD128x64_1.c ****     	LCD128x64_1_Dot(xCenter + x, yCenter - y, mode);
 1495              		.loc 1 744 0
 1496 0022 5FFA88F6 		uxtb	r6, r8
 1497 0026 039B     		ldr	r3, [sp, #12]
 1498 0028 03EB060A 		add	r10, r3, r6
 1499 002c 5FFA8AFA 		uxtb	r10, r10
 1500 0030 5FFA89F4 		uxtb	r4, r9
 1501 0034 0BEB0405 		add	r5, fp, r4
 1502 0038 EDB2     		uxtb	r5, r5
 1503 003a 019A     		ldr	r2, [sp, #4]
 1504 003c 2946     		mov	r1, r5
 1505 003e 5046     		mov	r0, r10
 1506 0040 FFF7FEFF 		bl	LCD128x64_1_Dot
 1507              	.LVL200:
 745:Generated_Source\PSoC5/LCD128x64_1.c ****     	
 1508              		.loc 1 745 0
 1509 0044 C4EB0B04 		rsb	r4, r4, fp
 1510 0048 E4B2     		uxtb	r4, r4
 1511 004a 019A     		ldr	r2, [sp, #4]
 1512 004c 2146     		mov	r1, r4
 1513 004e 5046     		mov	r0, r10
 1514 0050 FFF7FEFF 		bl	LCD128x64_1_Dot
 1515              	.LVL201:
 747:Generated_Source\PSoC5/LCD128x64_1.c ****     	LCD128x64_1_Dot(xCenter - x, yCenter - y, mode);
 1516              		.loc 1 747 0
ARM GAS  C:\Users\USUARIO\AppData\Local\Temp\ccVm8SVK.s 			page 46


 1517 0054 039B     		ldr	r3, [sp, #12]
 1518 0056 C6EB030A 		rsb	r10, r6, r3
 1519 005a 5FFA8AFA 		uxtb	r10, r10
 1520 005e 019A     		ldr	r2, [sp, #4]
 1521 0060 2946     		mov	r1, r5
 1522 0062 5046     		mov	r0, r10
 1523 0064 FFF7FEFF 		bl	LCD128x64_1_Dot
 1524              	.LVL202:
 748:Generated_Source\PSoC5/LCD128x64_1.c ****     	
 1525              		.loc 1 748 0
 1526 0068 019A     		ldr	r2, [sp, #4]
 1527 006a 2146     		mov	r1, r4
 1528 006c 5046     		mov	r0, r10
 1529 006e FFF7FEFF 		bl	LCD128x64_1_Dot
 1530              	.LVL203:
 750:Generated_Source\PSoC5/LCD128x64_1.c ****     	LCD128x64_1_Dot(yCenter + y - d, yCenter - x, mode);
 1531              		.loc 1 750 0
 1532 0072 029B     		ldr	r3, [sp, #8]
 1533 0074 ED1A     		subs	r5, r5, r3
 1534 0076 EDB2     		uxtb	r5, r5
 1535 0078 0BEB060A 		add	r10, fp, r6
 1536 007c 5FFA8AFA 		uxtb	r10, r10
 1537 0080 019A     		ldr	r2, [sp, #4]
 1538 0082 5146     		mov	r1, r10
 1539 0084 2846     		mov	r0, r5
 1540 0086 FFF7FEFF 		bl	LCD128x64_1_Dot
 1541              	.LVL204:
 751:Generated_Source\PSoC5/LCD128x64_1.c ****     	
 1542              		.loc 1 751 0
 1543 008a C6EB0B06 		rsb	r6, r6, fp
 1544 008e F6B2     		uxtb	r6, r6
 1545 0090 019A     		ldr	r2, [sp, #4]
 1546 0092 3146     		mov	r1, r6
 1547 0094 2846     		mov	r0, r5
 1548 0096 FFF7FEFF 		bl	LCD128x64_1_Dot
 1549              	.LVL205:
 753:Generated_Source\PSoC5/LCD128x64_1.c ****     	LCD128x64_1_Dot(yCenter - y - d, yCenter - x, mode);
 1550              		.loc 1 753 0
 1551 009a 029B     		ldr	r3, [sp, #8]
 1552 009c E41A     		subs	r4, r4, r3
 1553 009e E4B2     		uxtb	r4, r4
 1554 00a0 019D     		ldr	r5, [sp, #4]
 1555 00a2 2A46     		mov	r2, r5
 1556 00a4 5146     		mov	r1, r10
 1557 00a6 2046     		mov	r0, r4
 1558 00a8 FFF7FEFF 		bl	LCD128x64_1_Dot
 1559              	.LVL206:
 754:Generated_Source\PSoC5/LCD128x64_1.c **** 
 1560              		.loc 1 754 0
 1561 00ac 2A46     		mov	r2, r5
 1562 00ae 3146     		mov	r1, r6
 1563 00b0 2046     		mov	r0, r4
 1564 00b2 FFF7FEFF 		bl	LCD128x64_1_Dot
 1565              	.LVL207:
 756:Generated_Source\PSoC5/LCD128x64_1.c ****     		tSwitch += (4 * x + 6);
 1566              		.loc 1 756 0
 1567 00b6 002F     		cmp	r7, #0
ARM GAS  C:\Users\USUARIO\AppData\Local\Temp\ccVm8SVK.s 			page 47


 1568 00b8 04DA     		bge	.L124
 757:Generated_Source\PSoC5/LCD128x64_1.c ****     	} else {
 1569              		.loc 1 757 0
 1570 00ba 07EB8807 		add	r7, r7, r8, lsl #2
 1571              	.LVL208:
 1572 00be 0637     		adds	r7, r7, #6
 1573 00c0 3FB2     		sxth	r7, r7
 1574              	.LVL209:
 1575 00c2 09E0     		b	.L125
 1576              	.L124:
 759:Generated_Source\PSoC5/LCD128x64_1.c ****       		y--;
 1577              		.loc 1 759 0
 1578 00c4 C9EB0803 		rsb	r3, r9, r8
 1579 00c8 07EB8307 		add	r7, r7, r3, lsl #2
 1580              	.LVL210:
 1581 00cc 0A37     		adds	r7, r7, #10
 1582 00ce 3FB2     		sxth	r7, r7
 1583              	.LVL211:
 760:Generated_Source\PSoC5/LCD128x64_1.c ****     	}
 1584              		.loc 1 760 0
 1585 00d0 09F1FF39 		add	r9, r9, #-1
 1586              	.LVL212:
 1587 00d4 0FFA89F9 		sxth	r9, r9
 1588              	.LVL213:
 1589              	.L125:
 762:Generated_Source\PSoC5/LCD128x64_1.c ****   	}
 1590              		.loc 1 762 0
 1591 00d8 08F10108 		add	r8, r8, #1
 1592              	.LVL214:
 1593 00dc 0FFA88F8 		sxth	r8, r8
 1594              	.LVL215:
 1595              	.L123:
 743:Generated_Source\PSoC5/LCD128x64_1.c ****     	LCD128x64_1_Dot(xCenter + x, yCenter + y, mode);
 1596              		.loc 1 743 0
 1597 00e0 C145     		cmp	r9, r8
 1598 00e2 9EDA     		bge	.L126
 764:Generated_Source\PSoC5/LCD128x64_1.c **** 
 1599              		.loc 1 764 0
 1600 00e4 05B0     		add	sp, sp, #20
 1601              		.cfi_def_cfa_offset 36
 1602              		@ sp needed
 1603 00e6 BDE8F08F 		pop	{r4, r5, r6, r7, r8, r9, r10, fp, pc}
 1604              		.cfi_endproc
 1605              	.LFE81:
 1606              		.size	LCD128x64_1_Circle, .-LCD128x64_1_Circle
 1607 00ea 00BF     		.section	.text.LCD128x64_1_Text,"ax",%progbits
 1608              		.align	2
 1609              		.global	LCD128x64_1_Text
 1610              		.thumb
 1611              		.thumb_func
 1612              		.type	LCD128x64_1_Text, %function
 1613              	LCD128x64_1_Text:
 1614              	.LFB83:
 858:Generated_Source\PSoC5/LCD128x64_1.c **** //-----------------------------------------------------------------------------
 859:Generated_Source\PSoC5/LCD128x64_1.c **** //  FUNCTION NAME:	GLCD_Text
 860:Generated_Source\PSoC5/LCD128x64_1.c **** //
 861:Generated_Source\PSoC5/LCD128x64_1.c **** //  DESCRIPTION:
ARM GAS  C:\Users\USUARIO\AppData\Local\Temp\ccVm8SVK.s 			page 48


 862:Generated_Source\PSoC5/LCD128x64_1.c **** //
 863:Generated_Source\PSoC5/LCD128x64_1.c **** //	 Prints the given string at location x,y in the specified font.
 864:Generated_Source\PSoC5/LCD128x64_1.c **** //	 Prints each character given via calls to lcd_glyph. The entry string
 865:Generated_Source\PSoC5/LCD128x64_1.c **** //   is null terminated and non 0x20->0x7e characters are ignored.
 866:Generated_Source\PSoC5/LCD128x64_1.c **** //   (adapted function from the MJK-code)
 867:Generated_Source\PSoC5/LCD128x64_1.c **** //
 868:Generated_Source\PSoC5/LCD128x64_1.c **** //  ARGUMENTS:
 869:Generated_Source\PSoC5/LCD128x64_1.c **** //		left       coordinate of left start of string.                
 870:Generated_Source\PSoC5/LCD128x64_1.c **** //		top        coordinate of top of string.
 871:Generated_Source\PSoC5/LCD128x64_1.c **** //		font       font number to use for display (see fonts.h)
 872:Generated_Source\PSoC5/LCD128x64_1.c **** //		str   	   text string to display (null-terminted)
 873:Generated_Source\PSoC5/LCD128x64_1.c **** //
 874:Generated_Source\PSoC5/LCD128x64_1.c **** //  RETURNS:
 875:Generated_Source\PSoC5/LCD128x64_1.c **** //     none.
 876:Generated_Source\PSoC5/LCD128x64_1.c **** //
 877:Generated_Source\PSoC5/LCD128x64_1.c **** //-----------------------------------------------------------------------------
 878:Generated_Source\PSoC5/LCD128x64_1.c **** void LCD128x64_1_Text(uint8 left, uint8 top, uint8 font, const char *str)
 879:Generated_Source\PSoC5/LCD128x64_1.c **** {
 1615              		.loc 1 879 0
 1616              		.cfi_startproc
 1617              		@ args = 0, pretend = 0, frame = 0
 1618              		@ frame_needed = 0, uses_anonymous_args = 0
 1619              	.LVL216:
 1620 0000 2DE9F041 		push	{r4, r5, r6, r7, r8, lr}
 1621              		.cfi_def_cfa_offset 24
 1622              		.cfi_offset 4, -24
 1623              		.cfi_offset 5, -20
 1624              		.cfi_offset 6, -16
 1625              		.cfi_offset 7, -12
 1626              		.cfi_offset 8, -8
 1627              		.cfi_offset 14, -4
 1628 0004 82B0     		sub	sp, sp, #8
 1629              		.cfi_def_cfa_offset 32
 1630 0006 8046     		mov	r8, r0
 1631 0008 0E46     		mov	r6, r1
 1632 000a 1446     		mov	r4, r2
 1633 000c 1F46     		mov	r7, r3
 1634              	.LVL217:
 880:Generated_Source\PSoC5/LCD128x64_1.c ****   	uint8 x = left;
 881:Generated_Source\PSoC5/LCD128x64_1.c ****   	uint8 glyph;
 882:Generated_Source\PSoC5/LCD128x64_1.c ****   	uint8 width;
 883:Generated_Source\PSoC5/LCD128x64_1.c **** 	uint8 height;
 884:Generated_Source\PSoC5/LCD128x64_1.c **** 	uint8 store_width;
 885:Generated_Source\PSoC5/LCD128x64_1.c **** 	const uint8 *glyph_ptr;
 886:Generated_Source\PSoC5/LCD128x64_1.c **** 
 887:Generated_Source\PSoC5/LCD128x64_1.c ****   	while(*str != 0x00)
 1635              		.loc 1 887 0
 1636 000e 53E0     		b	.L129
 1637              	.LVL218:
 1638              	.L137:
 888:Generated_Source\PSoC5/LCD128x64_1.c ****   	{
 889:Generated_Source\PSoC5/LCD128x64_1.c ****     	glyph = (uint8)*str;
 890:Generated_Source\PSoC5/LCD128x64_1.c **** 
 891:Generated_Source\PSoC5/LCD128x64_1.c **** 		//         "
 892:Generated_Source\PSoC5/LCD128x64_1.c **** 		if((glyph < fonts[font].glyph_beg) || (glyph > fonts[font].glyph_end))
 1639              		.loc 1 892 0
 1640 0010 04EB8401 		add	r1, r4, r4, lsl #2
ARM GAS  C:\Users\USUARIO\AppData\Local\Temp\ccVm8SVK.s 			page 49


 1641 0014 8A00     		lsls	r2, r1, #2
 1642 0016 2B49     		ldr	r1, .L141
 1643 0018 0A44     		add	r2, r2, r1
 1644 001a 127C     		ldrb	r2, [r2, #16]	@ zero_extendqisi2
 1645 001c 9342     		cmp	r3, r2
 1646 001e 07D3     		bcc	.L130
 1647              		.loc 1 892 0 is_stmt 0 discriminator 1
 1648 0020 04EB8400 		add	r0, r4, r4, lsl #2
 1649 0024 8100     		lsls	r1, r0, #2
 1650 0026 2748     		ldr	r0, .L141
 1651 0028 0144     		add	r1, r1, r0
 1652 002a 497C     		ldrb	r1, [r1, #17]	@ zero_extendqisi2
 1653 002c 8B42     		cmp	r3, r1
 1654 002e 05D9     		bls	.L131
 1655              	.L130:
 893:Generated_Source\PSoC5/LCD128x64_1.c **** 		{ 
 894:Generated_Source\PSoC5/LCD128x64_1.c **** 			glyph = fonts[font].glyph_def;  //    
 1656              		.loc 1 894 0 is_stmt 1
 1657 0030 04EB8401 		add	r1, r4, r4, lsl #2
 1658 0034 8B00     		lsls	r3, r1, #2
 1659              	.LVL219:
 1660 0036 2349     		ldr	r1, .L141
 1661 0038 0B44     		add	r3, r3, r1
 1662 003a 9B7C     		ldrb	r3, [r3, #18]	@ zero_extendqisi2
 1663              	.LVL220:
 1664              	.L131:
 895:Generated_Source\PSoC5/LCD128x64_1.c **** 		}
 896:Generated_Source\PSoC5/LCD128x64_1.c **** 
 897:Generated_Source\PSoC5/LCD128x64_1.c **** 
 898:Generated_Source\PSoC5/LCD128x64_1.c ****     	/*      ( 0)  
 899:Generated_Source\PSoC5/LCD128x64_1.c ****     	glyph -= fonts[font].glyph_beg; //      _dot_g
 1665              		.loc 1 899 0
 1666 003c 9A1A     		subs	r2, r3, r2
 1667 003e D2B2     		uxtb	r2, r2
 1668              	.LVL221:
 900:Generated_Source\PSoC5/LCD128x64_1.c ****     	width = fonts[font].fixed_width;	/* check if it is a fixed width */
 1669              		.loc 1 900 0
 1670 0040 04EB8403 		add	r3, r4, r4, lsl #2
 1671 0044 9800     		lsls	r0, r3, #2
 1672 0046 1F4B     		ldr	r3, .L141
 1673 0048 1844     		add	r0, r0, r3
 1674 004a 057A     		ldrb	r5, [r0, #8]	@ zero_extendqisi2
 1675              	.LVL222:
 901:Generated_Source\PSoC5/LCD128x64_1.c **** 		if(width == 0)
 1676              		.loc 1 901 0
 1677 004c 0DB9     		cbnz	r5, .L132
 902:Generated_Source\PSoC5/LCD128x64_1.c **** 		{               // 0     
 903:Generated_Source\PSoC5/LCD128x64_1.c **** 			width=fonts[font].width_table[glyph];	/* get the variable width instead */
 1678              		.loc 1 903 0
 1679 004e C368     		ldr	r3, [r0, #12]
 1680 0050 9D5C     		ldrb	r5, [r3, r2]	@ zero_extendqisi2
 1681              	.LVL223:
 1682              	.L132:
 904:Generated_Source\PSoC5/LCD128x64_1.c **** 		}
 905:Generated_Source\PSoC5/LCD128x64_1.c **** 
 906:Generated_Source\PSoC5/LCD128x64_1.c **** 
 907:Generated_Source\PSoC5/LCD128x64_1.c **** 		height = fonts[font].glyph_height;      //    
ARM GAS  C:\Users\USUARIO\AppData\Local\Temp\ccVm8SVK.s 			page 50


 1683              		.loc 1 907 0
 1684 0052 1C49     		ldr	r1, .L141
 1685 0054 A000     		lsls	r0, r4, #2
 1686 0056 0319     		adds	r3, r0, r4
 1687 0058 4FEA830E 		lsl	lr, r3, #2
 1688 005c 01EB0E03 		add	r3, r1, lr
 1689 0060 5B78     		ldrb	r3, [r3, #1]	@ zero_extendqisi2
 1690              	.LVL224:
 908:Generated_Source\PSoC5/LCD128x64_1.c **** 		store_width = fonts[font].store_width;  //   ()
 1691              		.loc 1 908 0
 1692 0062 11F80EC0 		ldrb	ip, [r1, lr]	@ zero_extendqisi2
 1693              	.LVL225:
 909:Generated_Source\PSoC5/LCD128x64_1.c **** 
 910:Generated_Source\PSoC5/LCD128x64_1.c **** 		glyph_ptr = fonts[font].glyph_table + ((unsigned int)glyph * (unsigned int)store_width * (unsigne
 1694              		.loc 1 910 0
 1695 0066 8E44     		add	lr, lr, r1
 1696 0068 DEF80410 		ldr	r1, [lr, #4]
 1697 006c 0CFB02F2 		mul	r2, ip, r2
 1698              	.LVL226:
 1699 0070 03FB0211 		mla	r1, r3, r2, r1
 1700              	.LVL227:
 911:Generated_Source\PSoC5/LCD128x64_1.c ****         //          five_dot_glyph_table --->        -
 912:Generated_Source\PSoC5/LCD128x64_1.c **** 
 913:Generated_Source\PSoC5/LCD128x64_1.c **** 		/* range check / limit things here (    ) */
 914:Generated_Source\PSoC5/LCD128x64_1.c **** 		if(x > GLCD_RIGHT)
 1701              		.loc 1 914 0
 1702 0074 18F0800F 		tst	r8, #128
 1703 0078 01D0     		beq	.L133
 915:Generated_Source\PSoC5/LCD128x64_1.c **** 		{
 916:Generated_Source\PSoC5/LCD128x64_1.c **** 			x = GLCD_RIGHT; 
 1704              		.loc 1 916 0
 1705 007a 4FF07F08 		mov	r8, #127
 1706              	.LVL228:
 1707              	.L133:
 917:Generated_Source\PSoC5/LCD128x64_1.c **** 		}
 918:Generated_Source\PSoC5/LCD128x64_1.c **** 		if((x + width) > GLCD_RIGHT+1)
 1708              		.loc 1 918 0
 1709 007e 08EB0502 		add	r2, r8, r5
 1710 0082 802A     		cmp	r2, #128
 1711 0084 02DD     		ble	.L134
 919:Generated_Source\PSoC5/LCD128x64_1.c **** 		{
 920:Generated_Source\PSoC5/LCD128x64_1.c **** 			width = GLCD_RIGHT - x + 1;
 1712              		.loc 1 920 0
 1713 0086 C8F18000 		rsb	r0, r8, #128
 1714 008a C5B2     		uxtb	r5, r0
 1715              	.LVL229:
 1716              	.L134:
 921:Generated_Source\PSoC5/LCD128x64_1.c **** 		}
 922:Generated_Source\PSoC5/LCD128x64_1.c **** 		if(top > GLCD_BOTTOM)
 1717              		.loc 1 922 0
 1718 008c 3F2E     		cmp	r6, #63
 1719 008e 00D9     		bls	.L135
 923:Generated_Source\PSoC5/LCD128x64_1.c **** 		{
 924:Generated_Source\PSoC5/LCD128x64_1.c **** 			top = GLCD_BOTTOM;
 1720              		.loc 1 924 0
 1721 0090 3F26     		movs	r6, #63
 1722              	.LVL230:
ARM GAS  C:\Users\USUARIO\AppData\Local\Temp\ccVm8SVK.s 			page 51


 1723              	.L135:
 925:Generated_Source\PSoC5/LCD128x64_1.c **** 		}
 926:Generated_Source\PSoC5/LCD128x64_1.c **** 		if((top + height) > GLCD_BOTTOM+1)
 1724              		.loc 1 926 0
 1725 0092 F218     		adds	r2, r6, r3
 1726 0094 402A     		cmp	r2, #64
 1727 0096 02DD     		ble	.L136
 927:Generated_Source\PSoC5/LCD128x64_1.c **** 		{
 928:Generated_Source\PSoC5/LCD128x64_1.c **** 			height = GLCD_BOTTOM - top + 1;
 1728              		.loc 1 928 0
 1729 0098 C6F14003 		rsb	r3, r6, #64
 1730              	.LVL231:
 1731 009c DBB2     		uxtb	r3, r3
 1732              	.LVL232:
 1733              	.L136:
 929:Generated_Source\PSoC5/LCD128x64_1.c **** 		}
 930:Generated_Source\PSoC5/LCD128x64_1.c **** 
 931:Generated_Source\PSoC5/LCD128x64_1.c **** 		LCD128x64_1_Glyph(x,top,width,height,glyph_ptr,store_width);  /* plug symbol into buffer */
 1734              		.loc 1 931 0
 1735 009e CDF804C0 		str	ip, [sp, #4]
 1736 00a2 0091     		str	r1, [sp]
 1737 00a4 2A46     		mov	r2, r5
 1738 00a6 3146     		mov	r1, r6
 1739              	.LVL233:
 1740 00a8 4046     		mov	r0, r8
 1741 00aa FFF7FEFF 		bl	LCD128x64_1_Glyph
 1742              	.LVL234:
 932:Generated_Source\PSoC5/LCD128x64_1.c **** 
 933:Generated_Source\PSoC5/LCD128x64_1.c **** 		x += width;							/* move right for next character */
 1743              		.loc 1 933 0
 1744 00ae 08EB0500 		add	r0, r8, r5
 1745 00b2 5FFA80F8 		uxtb	r8, r0
 1746              	.LVL235:
 934:Generated_Source\PSoC5/LCD128x64_1.c **** 		str++;								/* point to next character in string */
 1747              		.loc 1 934 0
 1748 00b6 0137     		adds	r7, r7, #1
 1749              	.LVL236:
 1750              	.L129:
 887:Generated_Source\PSoC5/LCD128x64_1.c ****   	{
 1751              		.loc 1 887 0
 1752 00b8 3B78     		ldrb	r3, [r7]	@ zero_extendqisi2
 1753 00ba 002B     		cmp	r3, #0
 1754 00bc A8D1     		bne	.L137
 935:Generated_Source\PSoC5/LCD128x64_1.c **** 	}
 936:Generated_Source\PSoC5/LCD128x64_1.c **** }
 1755              		.loc 1 936 0
 1756 00be 02B0     		add	sp, sp, #8
 1757              		.cfi_def_cfa_offset 24
 1758              		@ sp needed
 1759 00c0 BDE8F081 		pop	{r4, r5, r6, r7, r8, pc}
 1760              	.LVL237:
 1761              	.L142:
 1762              		.align	2
 1763              	.L141:
 1764 00c4 00000000 		.word	fonts
 1765              		.cfi_endproc
 1766              	.LFE83:
ARM GAS  C:\Users\USUARIO\AppData\Local\Temp\ccVm8SVK.s 			page 52


 1767              		.size	LCD128x64_1_Text, .-LCD128x64_1_Text
 1768              		.section	.text.LCD128x64_1_ScreenBitmap,"ax",%progbits
 1769              		.align	2
 1770              		.global	LCD128x64_1_ScreenBitmap
 1771              		.thumb
 1772              		.thumb_func
 1773              		.type	LCD128x64_1_ScreenBitmap, %function
 1774              	LCD128x64_1_ScreenBitmap:
 1775              	.LFB84:
 937:Generated_Source\PSoC5/LCD128x64_1.c **** 
 938:Generated_Source\PSoC5/LCD128x64_1.c **** //-----------------------------------------------------------------------------
 939:Generated_Source\PSoC5/LCD128x64_1.c **** //  FUNCTION NAME:	GLCD_ScreenBitmap
 940:Generated_Source\PSoC5/LCD128x64_1.c **** //
 941:Generated_Source\PSoC5/LCD128x64_1.c **** //  DESCRIPTION:
 942:Generated_Source\PSoC5/LCD128x64_1.c **** //
 943:Generated_Source\PSoC5/LCD128x64_1.c **** //	Display full screen bitmap.
 944:Generated_Source\PSoC5/LCD128x64_1.c **** //	Image has to be rotated and bits flipped
 945:Generated_Source\PSoC5/LCD128x64_1.c **** //
 946:Generated_Source\PSoC5/LCD128x64_1.c **** //	Bitmaps can be created by "The Dot Factory" program
 947:Generated_Source\PSoC5/LCD128x64_1.c **** //		Order: LSB first
 948:Generated_Source\PSoC5/LCD128x64_1.c **** //		Flip/rotate: 270?
 949:Generated_Source\PSoC5/LCD128x64_1.c **** //
 950:Generated_Source\PSoC5/LCD128x64_1.c **** //  ARGUMENTS:
 951:Generated_Source\PSoC5/LCD128x64_1.c **** //		pbitmap
 952:Generated_Source\PSoC5/LCD128x64_1.c **** //
 953:Generated_Source\PSoC5/LCD128x64_1.c **** //  RETURNS:
 954:Generated_Source\PSoC5/LCD128x64_1.c **** //     none.
 955:Generated_Source\PSoC5/LCD128x64_1.c **** //
 956:Generated_Source\PSoC5/LCD128x64_1.c **** //-----------------------------------------------------------------------------
 957:Generated_Source\PSoC5/LCD128x64_1.c **** void LCD128x64_1_ScreenBitmap(const uint8 * pbitmap)
 958:Generated_Source\PSoC5/LCD128x64_1.c **** {
 1776              		.loc 1 958 0
 1777              		.cfi_startproc
 1778              		@ args = 0, pretend = 0, frame = 0
 1779              		@ frame_needed = 0, uses_anonymous_args = 0
 1780              	.LVL238:
 1781 0000 F8B5     		push	{r3, r4, r5, r6, r7, lr}
 1782              		.cfi_def_cfa_offset 24
 1783              		.cfi_offset 3, -24
 1784              		.cfi_offset 4, -20
 1785              		.cfi_offset 5, -16
 1786              		.cfi_offset 6, -12
 1787              		.cfi_offset 7, -8
 1788              		.cfi_offset 14, -4
 1789 0002 0746     		mov	r7, r0
 1790              	.LVL239:
 959:Generated_Source\PSoC5/LCD128x64_1.c **** 	// pin in demopic
 960:Generated_Source\PSoC5/LCD128x64_1.c **** 	int i,x,y;
 961:Generated_Source\PSoC5/LCD128x64_1.c **** 	uint8 data;
 962:Generated_Source\PSoC5/LCD128x64_1.c **** 	uint16 idx;
 963:Generated_Source\PSoC5/LCD128x64_1.c **** 	
 964:Generated_Source\PSoC5/LCD128x64_1.c **** 	for (i=0;i<GLCD_NUMCONTROLLER;i++) {
 1791              		.loc 1 964 0
 1792 0004 0026     		movs	r6, #0
 1793 0006 27E0     		b	.L144
 1794              	.LVL240:
 1795              	.L150:
ARM GAS  C:\Users\USUARIO\AppData\Local\Temp\ccVm8SVK.s 			page 53


 965:Generated_Source\PSoC5/LCD128x64_1.c **** 		LCD128x64_1_SelectChip(i);
 1796              		.loc 1 965 0
 1797 0008 F0B2     		uxtb	r0, r6
 1798 000a FFF7FEFF 		bl	LCD128x64_1_SelectChip
 1799              	.LVL241:
 966:Generated_Source\PSoC5/LCD128x64_1.c **** 		for (y=0;y<GLCD_MAXPAGE;y++) {
 1800              		.loc 1 966 0
 1801 000e 0025     		movs	r5, #0
 1802 0010 1FE0     		b	.L145
 1803              	.LVL242:
 1804              	.L149:
 967:Generated_Source\PSoC5/LCD128x64_1.c **** 			LCD128x64_1_SetPage(y);
 1805              		.loc 1 967 0
 1806 0012 E8B2     		uxtb	r0, r5
 1807 0014 FFF7FEFF 		bl	LCD128x64_1_SetPage
 1808              	.LVL243:
 968:Generated_Source\PSoC5/LCD128x64_1.c **** 			LCD128x64_1_SetAddress(0);
 1809              		.loc 1 968 0
 1810 0018 0020     		movs	r0, #0
 1811 001a FFF7FEFF 		bl	LCD128x64_1_SetAddress
 1812              	.LVL244:
 969:Generated_Source\PSoC5/LCD128x64_1.c **** 			for (x=0;x<GLCD_MAXADDRESS;x++) {
 1813              		.loc 1 969 0
 1814 001e 0024     		movs	r4, #0
 1815 0020 14E0     		b	.L146
 1816              	.LVL245:
 1817              	.L148:
 970:Generated_Source\PSoC5/LCD128x64_1.c **** 				idx=((GLCD_NUMCONTROLLER-1-i)*GLCD_MAXADDRESS*GLCD_MAXPAGE);
 1818              		.loc 1 970 0
 1819 0022 C6F10103 		rsb	r3, r6, #1
 1820 0026 5B02     		lsls	r3, r3, #9
 1821 0028 9BB2     		uxth	r3, r3
 1822              	.LVL246:
 971:Generated_Source\PSoC5/LCD128x64_1.c **** 				idx+=GLCD_MAXPAGE*(GLCD_MAXADDRESS-1-x);
 1823              		.loc 1 971 0
 1824 002a C4F13F02 		rsb	r2, r4, #63
 1825 002e 03EBC203 		add	r3, r3, r2, lsl #3
 1826              	.LVL247:
 1827 0032 9BB2     		uxth	r3, r3
 1828              	.LVL248:
 972:Generated_Source\PSoC5/LCD128x64_1.c **** 				idx+=y;
 1829              		.loc 1 972 0
 1830 0034 2B44     		add	r3, r3, r5
 1831              	.LVL249:
 1832 0036 9BB2     		uxth	r3, r3
 1833              	.LVL250:
 973:Generated_Source\PSoC5/LCD128x64_1.c **** 				data=pbitmap[idx];
 1834              		.loc 1 973 0
 1835 0038 F85C     		ldrb	r0, [r7, r3]	@ zero_extendqisi2
 1836              	.LVL251:
 974:Generated_Source\PSoC5/LCD128x64_1.c **** 				if (gGLCD_inverted) data=~data;
 1837              		.loc 1 974 0
 1838 003a 0A4B     		ldr	r3, .L152
 1839              	.LVL252:
 1840 003c 93F80034 		ldrb	r3, [r3, #1024]	@ zero_extendqisi2
 1841 0040 0BB1     		cbz	r3, .L147
 1842              		.loc 1 974 0 is_stmt 0 discriminator 1
ARM GAS  C:\Users\USUARIO\AppData\Local\Temp\ccVm8SVK.s 			page 54


 1843 0042 C043     		mvns	r0, r0
 1844              	.LVL253:
 1845 0044 C0B2     		uxtb	r0, r0
 1846              	.LVL254:
 1847              	.L147:
 975:Generated_Source\PSoC5/LCD128x64_1.c **** 				LCD128x64_1_WriteData(data);
 1848              		.loc 1 975 0 is_stmt 1 discriminator 2
 1849 0046 FFF7FEFF 		bl	LCD128x64_1_WriteData
 1850              	.LVL255:
 969:Generated_Source\PSoC5/LCD128x64_1.c **** 				idx=((GLCD_NUMCONTROLLER-1-i)*GLCD_MAXADDRESS*GLCD_MAXPAGE);
 1851              		.loc 1 969 0 discriminator 2
 1852 004a 0134     		adds	r4, r4, #1
 1853              	.LVL256:
 1854              	.L146:
 969:Generated_Source\PSoC5/LCD128x64_1.c **** 				idx=((GLCD_NUMCONTROLLER-1-i)*GLCD_MAXADDRESS*GLCD_MAXPAGE);
 1855              		.loc 1 969 0 is_stmt 0 discriminator 1
 1856 004c 3F2C     		cmp	r4, #63
 1857 004e E8DD     		ble	.L148
 966:Generated_Source\PSoC5/LCD128x64_1.c **** 			LCD128x64_1_SetPage(y);
 1858              		.loc 1 966 0 is_stmt 1 discriminator 2
 1859 0050 0135     		adds	r5, r5, #1
 1860              	.LVL257:
 1861              	.L145:
 966:Generated_Source\PSoC5/LCD128x64_1.c **** 			LCD128x64_1_SetPage(y);
 1862              		.loc 1 966 0 is_stmt 0 discriminator 1
 1863 0052 072D     		cmp	r5, #7
 1864 0054 DDDD     		ble	.L149
 964:Generated_Source\PSoC5/LCD128x64_1.c **** 		LCD128x64_1_SelectChip(i);
 1865              		.loc 1 964 0 is_stmt 1 discriminator 2
 1866 0056 0136     		adds	r6, r6, #1
 1867              	.LVL258:
 1868              	.L144:
 964:Generated_Source\PSoC5/LCD128x64_1.c **** 		LCD128x64_1_SelectChip(i);
 1869              		.loc 1 964 0 is_stmt 0 discriminator 1
 1870 0058 012E     		cmp	r6, #1
 1871 005a D5DD     		ble	.L150
 976:Generated_Source\PSoC5/LCD128x64_1.c **** 			}
 977:Generated_Source\PSoC5/LCD128x64_1.c **** 		}
 978:Generated_Source\PSoC5/LCD128x64_1.c **** 	}
 979:Generated_Source\PSoC5/LCD128x64_1.c **** 	LCD128x64_1_SelectChip(GLCD_SELECTNONE);
 1872              		.loc 1 979 0 is_stmt 1
 1873 005c 6320     		movs	r0, #99
 1874 005e FFF7FEFF 		bl	LCD128x64_1_SelectChip
 1875              	.LVL259:
 1876 0062 F8BD     		pop	{r3, r4, r5, r6, r7, pc}
 1877              	.LVL260:
 1878              	.L153:
 1879              		.align	2
 1880              	.L152:
 1881 0064 00000000 		.word	.LANCHOR0
 1882              		.cfi_endproc
 1883              	.LFE84:
 1884              		.size	LCD128x64_1_ScreenBitmap, .-LCD128x64_1_ScreenBitmap
 1885              		.section	.rodata
 1886              		.align	2
 1887              		.set	.LANCHOR1,. + 0
 1888              		.type	GLCD_MaskArray, %object
ARM GAS  C:\Users\USUARIO\AppData\Local\Temp\ccVm8SVK.s 			page 55


 1889              		.size	GLCD_MaskArray, 8
 1890              	GLCD_MaskArray:
 1891 0000 01       		.byte	1
 1892 0001 02       		.byte	2
 1893 0002 04       		.byte	4
 1894 0003 08       		.byte	8
 1895 0004 10       		.byte	16
 1896 0005 20       		.byte	32
 1897 0006 40       		.byte	64
 1898 0007 80       		.byte	-128
 1899              		.bss
 1900              		.align	2
 1901              		.set	.LANCHOR0,. + 0
 1902              		.type	gGLCD_buffer, %object
 1903              		.size	gGLCD_buffer, 1024
 1904              	gGLCD_buffer:
 1905 0000 00000000 		.space	1024
 1905      00000000 
 1905      00000000 
 1905      00000000 
 1905      00000000 
 1906              		.type	gGLCD_inverted, %object
 1907              		.size	gGLCD_inverted, 1
 1908              	gGLCD_inverted:
 1909 0400 00       		.space	1
 1910              		.text
 1911              	.Letext0:
 1912              		.file 2 "c:\\program files (x86)\\cypress\\psoc creator\\4.3\\psoc creator\\import\\gnu\\arm\\5.4.
 1913              		.file 3 "c:\\program files (x86)\\cypress\\psoc creator\\4.3\\psoc creator\\import\\gnu\\arm\\5.4.
 1914              		.file 4 "Generated_Source\\PSoC5\\cytypes.h"
 1915              		.file 5 "Generated_Source\\PSoC5/LCD128x64_1_fonts.h"
 1916              		.file 6 "Generated_Source\\PSoC5/core_cm3.h"
 1917              		.file 7 "Generated_Source\\PSoC5/LCD128x64_1_Timer_LCD.h"
 1918              		.file 8 "Generated_Source\\PSoC5/LCD128x64_1_LCD_DATA.h"
 1919              		.section	.debug_info,"",%progbits
 1920              	.Ldebug_info0:
 1921 0000 310E0000 		.4byte	0xe31
 1922 0004 0400     		.2byte	0x4
 1923 0006 00000000 		.4byte	.Ldebug_abbrev0
 1924 000a 04       		.byte	0x4
 1925 000b 01       		.uleb128 0x1
 1926 000c 60050000 		.4byte	.LASF105
 1927 0010 0C       		.byte	0xc
 1928 0011 8D000000 		.4byte	.LASF106
 1929 0015 36040000 		.4byte	.LASF107
 1930 0019 00000000 		.4byte	.Ldebug_ranges0+0
 1931 001d 00000000 		.4byte	0
 1932 0021 00000000 		.4byte	.Ldebug_line0
 1933 0025 02       		.uleb128 0x2
 1934 0026 04       		.byte	0x4
 1935 0027 07       		.byte	0x7
 1936 0028 26030000 		.4byte	.LASF0
 1937 002c 03       		.uleb128 0x3
 1938 002d 04       		.byte	0x4
 1939 002e 05       		.byte	0x5
 1940 002f 696E7400 		.ascii	"int\000"
 1941 0033 02       		.uleb128 0x2
ARM GAS  C:\Users\USUARIO\AppData\Local\Temp\ccVm8SVK.s 			page 56


 1942 0034 08       		.byte	0x8
 1943 0035 05       		.byte	0x5
 1944 0036 B2000000 		.4byte	.LASF1
 1945 003a 02       		.uleb128 0x2
 1946 003b 08       		.byte	0x8
 1947 003c 04       		.byte	0x4
 1948 003d 77020000 		.4byte	.LASF2
 1949 0041 02       		.uleb128 0x2
 1950 0042 01       		.byte	0x1
 1951 0043 06       		.byte	0x6
 1952 0044 E9020000 		.4byte	.LASF3
 1953 0048 02       		.uleb128 0x2
 1954 0049 01       		.byte	0x1
 1955 004a 08       		.byte	0x8
 1956 004b 91020000 		.4byte	.LASF4
 1957 004f 02       		.uleb128 0x2
 1958 0050 02       		.byte	0x2
 1959 0051 05       		.byte	0x5
 1960 0052 46000000 		.4byte	.LASF5
 1961 0056 02       		.uleb128 0x2
 1962 0057 02       		.byte	0x2
 1963 0058 07       		.byte	0x7
 1964 0059 A3030000 		.4byte	.LASF6
 1965 005d 04       		.uleb128 0x4
 1966 005e C5040000 		.4byte	.LASF12
 1967 0062 02       		.byte	0x2
 1968 0063 3F       		.byte	0x3f
 1969 0064 68000000 		.4byte	0x68
 1970 0068 02       		.uleb128 0x2
 1971 0069 04       		.byte	0x4
 1972 006a 05       		.byte	0x5
 1973 006b 01020000 		.4byte	.LASF7
 1974 006f 02       		.uleb128 0x2
 1975 0070 04       		.byte	0x4
 1976 0071 07       		.byte	0x7
 1977 0072 61030000 		.4byte	.LASF8
 1978 0076 02       		.uleb128 0x2
 1979 0077 08       		.byte	0x8
 1980 0078 07       		.byte	0x7
 1981 0079 08030000 		.4byte	.LASF9
 1982 007d 02       		.uleb128 0x2
 1983 007e 04       		.byte	0x4
 1984 007f 07       		.byte	0x7
 1985 0080 EC040000 		.4byte	.LASF10
 1986 0084 02       		.uleb128 0x2
 1987 0085 01       		.byte	0x1
 1988 0086 08       		.byte	0x8
 1989 0087 B6030000 		.4byte	.LASF11
 1990 008b 05       		.uleb128 0x5
 1991 008c 04       		.byte	0x4
 1992 008d 91000000 		.4byte	0x91
 1993 0091 06       		.uleb128 0x6
 1994 0092 84000000 		.4byte	0x84
 1995 0096 04       		.uleb128 0x4
 1996 0097 3F020000 		.4byte	.LASF13
 1997 009b 03       		.byte	0x3
 1998 009c 2C       		.byte	0x2c
ARM GAS  C:\Users\USUARIO\AppData\Local\Temp\ccVm8SVK.s 			page 57


 1999 009d 5D000000 		.4byte	0x5d
 2000 00a1 07       		.uleb128 0x7
 2001 00a2 70010000 		.4byte	.LASF14
 2002 00a6 04       		.byte	0x4
 2003 00a7 E801     		.2byte	0x1e8
 2004 00a9 48000000 		.4byte	0x48
 2005 00ad 07       		.uleb128 0x7
 2006 00ae 2D010000 		.4byte	.LASF15
 2007 00b2 04       		.byte	0x4
 2008 00b3 E901     		.2byte	0x1e9
 2009 00b5 56000000 		.4byte	0x56
 2010 00b9 07       		.uleb128 0x7
 2011 00ba 6A010000 		.4byte	.LASF16
 2012 00be 04       		.byte	0x4
 2013 00bf EC01     		.2byte	0x1ec
 2014 00c1 4F000000 		.4byte	0x4f
 2015 00c5 02       		.uleb128 0x2
 2016 00c6 04       		.byte	0x4
 2017 00c7 04       		.byte	0x4
 2018 00c8 CB010000 		.4byte	.LASF17
 2019 00cc 02       		.uleb128 0x2
 2020 00cd 08       		.byte	0x8
 2021 00ce 04       		.byte	0x4
 2022 00cf 11000000 		.4byte	.LASF18
 2023 00d3 07       		.uleb128 0x7
 2024 00d4 0E040000 		.4byte	.LASF19
 2025 00d8 04       		.byte	0x4
 2026 00d9 9202     		.2byte	0x292
 2027 00db DF000000 		.4byte	0xdf
 2028 00df 08       		.uleb128 0x8
 2029 00e0 A1000000 		.4byte	0xa1
 2030 00e4 09       		.uleb128 0x9
 2031 00e5 01       		.byte	0x1
 2032 00e6 48000000 		.4byte	0x48
 2033 00ea 05       		.byte	0x5
 2034 00eb 12       		.byte	0x12
 2035 00ec 21010000 		.4byte	0x121
 2036 00f0 0A       		.uleb128 0xa
 2037 00f1 73030000 		.4byte	.LASF20
 2038 00f5 00       		.byte	0
 2039 00f6 0A       		.uleb128 0xa
 2040 00f7 6A000000 		.4byte	.LASF21
 2041 00fb 01       		.byte	0x1
 2042 00fc 0A       		.uleb128 0xa
 2043 00fd 25000000 		.4byte	.LASF22
 2044 0101 02       		.byte	0x2
 2045 0102 0A       		.uleb128 0xa
 2046 0103 0C050000 		.4byte	.LASF23
 2047 0107 03       		.byte	0x3
 2048 0108 0A       		.uleb128 0xa
 2049 0109 E2030000 		.4byte	.LASF24
 2050 010d 04       		.byte	0x4
 2051 010e 0A       		.uleb128 0xa
 2052 010f A6040000 		.4byte	.LASF25
 2053 0113 05       		.byte	0x5
 2054 0114 0A       		.uleb128 0xa
 2055 0115 81030000 		.4byte	.LASF26
ARM GAS  C:\Users\USUARIO\AppData\Local\Temp\ccVm8SVK.s 			page 58


 2056 0119 06       		.byte	0x6
 2057 011a 0A       		.uleb128 0xa
 2058 011b 13010000 		.4byte	.LASF27
 2059 011f 07       		.byte	0x7
 2060 0120 00       		.byte	0
 2061 0121 0B       		.uleb128 0xb
 2062 0122 D1010000 		.4byte	.LASF108
 2063 0126 14       		.byte	0x14
 2064 0127 05       		.byte	0x5
 2065 0128 36       		.byte	0x36
 2066 0129 8E010000 		.4byte	0x18e
 2067 012d 0C       		.uleb128 0xc
 2068 012e 07010000 		.4byte	.LASF28
 2069 0132 05       		.byte	0x5
 2070 0133 38       		.byte	0x38
 2071 0134 A1000000 		.4byte	0xa1
 2072 0138 00       		.byte	0
 2073 0139 0C       		.uleb128 0xc
 2074 013a B8020000 		.4byte	.LASF29
 2075 013e 05       		.byte	0x5
 2076 013f 39       		.byte	0x39
 2077 0140 A1000000 		.4byte	0xa1
 2078 0144 01       		.byte	0x1
 2079 0145 0C       		.uleb128 0xc
 2080 0146 33020000 		.4byte	.LASF30
 2081 014a 05       		.byte	0x5
 2082 014b 3A       		.byte	0x3a
 2083 014c 8E010000 		.4byte	0x18e
 2084 0150 04       		.byte	0x4
 2085 0151 0C       		.uleb128 0xc
 2086 0152 CF040000 		.4byte	.LASF31
 2087 0156 05       		.byte	0x5
 2088 0157 3B       		.byte	0x3b
 2089 0158 A1000000 		.4byte	0xa1
 2090 015c 08       		.byte	0x8
 2091 015d 0C       		.uleb128 0xc
 2092 015e 82010000 		.4byte	.LASF32
 2093 0162 05       		.byte	0x5
 2094 0163 3D       		.byte	0x3d
 2095 0164 8E010000 		.4byte	0x18e
 2096 0168 0C       		.byte	0xc
 2097 0169 0C       		.uleb128 0xc
 2098 016a EE050000 		.4byte	.LASF33
 2099 016e 05       		.byte	0x5
 2100 016f 3E       		.byte	0x3e
 2101 0170 A1000000 		.4byte	0xa1
 2102 0174 10       		.byte	0x10
 2103 0175 0C       		.uleb128 0xc
 2104 0176 3D060000 		.4byte	.LASF34
 2105 017a 05       		.byte	0x5
 2106 017b 3F       		.byte	0x3f
 2107 017c A1000000 		.4byte	0xa1
 2108 0180 11       		.byte	0x11
 2109 0181 0C       		.uleb128 0xc
 2110 0182 EF030000 		.4byte	.LASF35
 2111 0186 05       		.byte	0x5
 2112 0187 40       		.byte	0x40
ARM GAS  C:\Users\USUARIO\AppData\Local\Temp\ccVm8SVK.s 			page 59


 2113 0188 A1000000 		.4byte	0xa1
 2114 018c 12       		.byte	0x12
 2115 018d 00       		.byte	0
 2116 018e 05       		.uleb128 0x5
 2117 018f 04       		.byte	0x4
 2118 0190 94010000 		.4byte	0x194
 2119 0194 06       		.uleb128 0x6
 2120 0195 A1000000 		.4byte	0xa1
 2121 0199 0D       		.uleb128 0xd
 2122 019a F0000000 		.4byte	.LASF36
 2123 019e 01       		.byte	0x1
 2124 019f C7       		.byte	0xc7
 2125 01a0 00000000 		.4byte	.LFB64
 2126 01a4 54000000 		.4byte	.LFE64-.LFB64
 2127 01a8 01       		.uleb128 0x1
 2128 01a9 9C       		.byte	0x9c
 2129 01aa BC010000 		.4byte	0x1bc
 2130 01ae 0E       		.uleb128 0xe
 2131 01af A1040000 		.4byte	.LASF38
 2132 01b3 01       		.byte	0x1
 2133 01b4 C7       		.byte	0xc7
 2134 01b5 A1000000 		.4byte	0xa1
 2135 01b9 01       		.uleb128 0x1
 2136 01ba 50       		.byte	0x50
 2137 01bb 00       		.byte	0
 2138 01bc 0F       		.uleb128 0xf
 2139 01bd 1A050000 		.4byte	.LASF37
 2140 01c1 01       		.byte	0x1
 2141 01c2 B201     		.2byte	0x1b2
 2142 01c4 00000000 		.4byte	.LFB74
 2143 01c8 28000000 		.4byte	.LFE74-.LFB74
 2144 01cc 01       		.uleb128 0x1
 2145 01cd 9C       		.byte	0x9c
 2146 01ce FD010000 		.4byte	0x1fd
 2147 01d2 10       		.uleb128 0x10
 2148 01d3 2B020000 		.4byte	.LASF39
 2149 01d7 01       		.byte	0x1
 2150 01d8 B201     		.2byte	0x1b2
 2151 01da A1000000 		.4byte	0xa1
 2152 01de 01       		.uleb128 0x1
 2153 01df 50       		.byte	0x50
 2154 01e0 11       		.uleb128 0x11
 2155 01e1 7800     		.ascii	"x\000"
 2156 01e3 01       		.byte	0x1
 2157 01e4 B401     		.2byte	0x1b4
 2158 01e6 AD000000 		.4byte	0xad
 2159 01ea 00000000 		.4byte	.LLST0
 2160 01ee 11       		.uleb128 0x11
 2161 01ef 7900     		.ascii	"y\000"
 2162 01f1 01       		.byte	0x1
 2163 01f2 B401     		.2byte	0x1b4
 2164 01f4 AD000000 		.4byte	0xad
 2165 01f8 29000000 		.4byte	.LLST1
 2166 01fc 00       		.byte	0
 2167 01fd 0F       		.uleb128 0xf
 2168 01fe D6000000 		.4byte	.LASF40
 2169 0202 01       		.byte	0x1
ARM GAS  C:\Users\USUARIO\AppData\Local\Temp\ccVm8SVK.s 			page 60


 2170 0203 1103     		.2byte	0x311
 2171 0205 00000000 		.4byte	.LFB82
 2172 0209 BC000000 		.4byte	.LFE82-.LFB82
 2173 020d 01       		.uleb128 0x1
 2174 020e 9C       		.byte	0x9c
 2175 020f 00030000 		.4byte	0x300
 2176 0213 10       		.uleb128 0x10
 2177 0214 C1030000 		.4byte	.LASF41
 2178 0218 01       		.byte	0x1
 2179 0219 1103     		.2byte	0x311
 2180 021b A1000000 		.4byte	0xa1
 2181 021f 01       		.uleb128 0x1
 2182 0220 50       		.byte	0x50
 2183 0221 12       		.uleb128 0x12
 2184 0222 746F7000 		.ascii	"top\000"
 2185 0226 01       		.byte	0x1
 2186 0227 1103     		.2byte	0x311
 2187 0229 A1000000 		.4byte	0xa1
 2188 022d 53000000 		.4byte	.LLST2
 2189 0231 13       		.uleb128 0x13
 2190 0232 A8010000 		.4byte	.LASF42
 2191 0236 01       		.byte	0x1
 2192 0237 1203     		.2byte	0x312
 2193 0239 A1000000 		.4byte	0xa1
 2194 023d 74000000 		.4byte	.LLST3
 2195 0241 13       		.uleb128 0x13
 2196 0242 1F030000 		.4byte	.LASF43
 2197 0246 01       		.byte	0x1
 2198 0247 1203     		.2byte	0x312
 2199 0249 A1000000 		.4byte	0xa1
 2200 024d 95000000 		.4byte	.LLST4
 2201 0251 13       		.uleb128 0x13
 2202 0252 BB030000 		.4byte	.LASF44
 2203 0256 01       		.byte	0x1
 2204 0257 1303     		.2byte	0x313
 2205 0259 8E010000 		.4byte	0x18e
 2206 025d B6000000 		.4byte	.LLST5
 2207 0261 13       		.uleb128 0x13
 2208 0262 07010000 		.4byte	.LASF28
 2209 0266 01       		.byte	0x1
 2210 0267 1303     		.2byte	0x313
 2211 0269 A1000000 		.4byte	0xa1
 2212 026d D6000000 		.4byte	.LLST6
 2213 0271 14       		.uleb128 0x14
 2214 0272 04050000 		.4byte	.LASF45
 2215 0276 01       		.byte	0x1
 2216 0277 1503     		.2byte	0x315
 2217 0279 A1000000 		.4byte	0xa1
 2218 027d F6000000 		.4byte	.LLST7
 2219 0281 14       		.uleb128 0x14
 2220 0282 76010000 		.4byte	.LASF46
 2221 0286 01       		.byte	0x1
 2222 0287 1603     		.2byte	0x316
 2223 0289 A1000000 		.4byte	0xa1
 2224 028d 19010000 		.4byte	.LLST8
 2225 0291 14       		.uleb128 0x14
 2226 0292 8A020000 		.4byte	.LASF47
ARM GAS  C:\Users\USUARIO\AppData\Local\Temp\ccVm8SVK.s 			page 61


 2227 0296 01       		.byte	0x1
 2228 0297 1703     		.2byte	0x317
 2229 0299 A1000000 		.4byte	0xa1
 2230 029d 37010000 		.4byte	.LLST9
 2231 02a1 14       		.uleb128 0x14
 2232 02a2 F5040000 		.4byte	.LASF48
 2233 02a6 01       		.byte	0x1
 2234 02a7 1803     		.2byte	0x318
 2235 02a9 A1000000 		.4byte	0xa1
 2236 02ad 61010000 		.4byte	.LLST10
 2237 02b1 14       		.uleb128 0x14
 2238 02b2 47060000 		.4byte	.LASF49
 2239 02b6 01       		.byte	0x1
 2240 02b7 1903     		.2byte	0x319
 2241 02b9 A1000000 		.4byte	0xa1
 2242 02bd 8B010000 		.4byte	.LLST11
 2243 02c1 14       		.uleb128 0x14
 2244 02c2 34010000 		.4byte	.LASF50
 2245 02c6 01       		.byte	0x1
 2246 02c7 1A03     		.2byte	0x31a
 2247 02c9 A1000000 		.4byte	0xa1
 2248 02cd C0010000 		.4byte	.LLST12
 2249 02d1 11       		.uleb128 0x11
 2250 02d2 7800     		.ascii	"x\000"
 2251 02d4 01       		.byte	0x1
 2252 02d5 1B03     		.2byte	0x31b
 2253 02d7 A1000000 		.4byte	0xa1
 2254 02db 07020000 		.4byte	.LLST13
 2255 02df 14       		.uleb128 0x14
 2256 02e0 50000000 		.4byte	.LASF51
 2257 02e4 01       		.byte	0x1
 2258 02e5 1C03     		.2byte	0x31c
 2259 02e7 8E010000 		.4byte	0x18e
 2260 02eb 30020000 		.4byte	.LLST14
 2261 02ef 14       		.uleb128 0x14
 2262 02f0 DA010000 		.4byte	.LASF52
 2263 02f4 01       		.byte	0x1
 2264 02f5 1D03     		.2byte	0x31d
 2265 02f7 A1000000 		.4byte	0xa1
 2266 02fb 43020000 		.4byte	.LLST15
 2267 02ff 00       		.byte	0
 2268 0300 0D       		.uleb128 0xd
 2269 0301 33030000 		.4byte	.LASF53
 2270 0305 01       		.byte	0x1
 2271 0306 FD       		.byte	0xfd
 2272 0307 00000000 		.4byte	.LFB66
 2273 030b 0C000000 		.4byte	.LFE66-.LFB66
 2274 030f 01       		.uleb128 0x1
 2275 0310 9C       		.byte	0x9c
 2276 0311 2E030000 		.4byte	0x32e
 2277 0315 15       		.uleb128 0x15
 2278 0316 BF040000 		.4byte	.LASF54
 2279 031a 01       		.byte	0x1
 2280 031b FD       		.byte	0xfd
 2281 031c AD000000 		.4byte	0xad
 2282 0320 6D020000 		.4byte	.LLST16
 2283 0324 16       		.uleb128 0x16
ARM GAS  C:\Users\USUARIO\AppData\Local\Temp\ccVm8SVK.s 			page 62


 2284 0325 0A000000 		.4byte	.LVL39
 2285 0329 080E0000 		.4byte	0xe08
 2286 032d 00       		.byte	0
 2287 032e 0D       		.uleb128 0xd
 2288 032f 58020000 		.4byte	.LASF55
 2289 0333 01       		.byte	0x1
 2290 0334 A9       		.byte	0xa9
 2291 0335 00000000 		.4byte	.LFB63
 2292 0339 58000000 		.4byte	.LFE63-.LFB63
 2293 033d 01       		.uleb128 0x1
 2294 033e 9C       		.byte	0x9c
 2295 033f 6F030000 		.4byte	0x36f
 2296 0343 17       		.uleb128 0x17
 2297 0344 08000000 		.4byte	.LVL40
 2298 0348 130E0000 		.4byte	0xe13
 2299 034c 56030000 		.4byte	0x356
 2300 0350 18       		.uleb128 0x18
 2301 0351 01       		.uleb128 0x1
 2302 0352 50       		.byte	0x50
 2303 0353 01       		.uleb128 0x1
 2304 0354 30       		.byte	0x30
 2305 0355 00       		.byte	0
 2306 0356 16       		.uleb128 0x16
 2307 0357 46000000 		.4byte	.LVL41
 2308 035b 1E0E0000 		.4byte	0xe1e
 2309 035f 19       		.uleb128 0x19
 2310 0360 4C000000 		.4byte	.LVL42
 2311 0364 00030000 		.4byte	0x300
 2312 0368 18       		.uleb128 0x18
 2313 0369 01       		.uleb128 0x1
 2314 036a 50       		.byte	0x50
 2315 036b 01       		.uleb128 0x1
 2316 036c 48       		.byte	0x48
 2317 036d 00       		.byte	0
 2318 036e 00       		.byte	0
 2319 036f 0D       		.uleb128 0xd
 2320 0370 B5010000 		.4byte	.LASF56
 2321 0374 01       		.byte	0x1
 2322 0375 E9       		.byte	0xe9
 2323 0376 00000000 		.4byte	.LFB65
 2324 037a 0C000000 		.4byte	.LFE65-.LFB65
 2325 037e 01       		.uleb128 0x1
 2326 037f 9C       		.byte	0x9c
 2327 0380 8E030000 		.4byte	0x38e
 2328 0384 16       		.uleb128 0x16
 2329 0385 06000000 		.4byte	.LVL43
 2330 0389 290E0000 		.4byte	0xe29
 2331 038d 00       		.byte	0
 2332 038e 0F       		.uleb128 0xf
 2333 038f 48030000 		.4byte	.LASF57
 2334 0393 01       		.byte	0x1
 2335 0394 1101     		.2byte	0x111
 2336 0396 00000000 		.4byte	.LFB67
 2337 039a 60000000 		.4byte	.LFE67-.LFB67
 2338 039e 01       		.uleb128 0x1
 2339 039f 9C       		.byte	0x9c
 2340 03a0 29040000 		.4byte	0x429
ARM GAS  C:\Users\USUARIO\AppData\Local\Temp\ccVm8SVK.s 			page 63


 2341 03a4 13       		.uleb128 0x13
 2342 03a5 B7040000 		.4byte	.LASF58
 2343 03a9 01       		.byte	0x1
 2344 03aa 1101     		.2byte	0x111
 2345 03ac A1000000 		.4byte	0xa1
 2346 03b0 8E020000 		.4byte	.LLST17
 2347 03b4 13       		.uleb128 0x13
 2348 03b5 D1000000 		.4byte	.LASF59
 2349 03b9 01       		.byte	0x1
 2350 03ba 1101     		.2byte	0x111
 2351 03bc A1000000 		.4byte	0xa1
 2352 03c0 AF020000 		.4byte	.LLST18
 2353 03c4 16       		.uleb128 0x16
 2354 03c5 0A000000 		.4byte	.LVL45
 2355 03c9 6F030000 		.4byte	0x36f
 2356 03cd 17       		.uleb128 0x17
 2357 03ce 28000000 		.4byte	.LVL46
 2358 03d2 00030000 		.4byte	0x300
 2359 03d6 E0030000 		.4byte	0x3e0
 2360 03da 18       		.uleb128 0x18
 2361 03db 01       		.uleb128 0x1
 2362 03dc 50       		.byte	0x50
 2363 03dd 01       		.uleb128 0x1
 2364 03de 33       		.byte	0x33
 2365 03df 00       		.byte	0
 2366 03e0 16       		.uleb128 0x16
 2367 03e1 2C000000 		.4byte	.LVL47
 2368 03e5 6F030000 		.4byte	0x36f
 2369 03e9 17       		.uleb128 0x17
 2370 03ea 32000000 		.4byte	.LVL48
 2371 03ee 130E0000 		.4byte	0xe13
 2372 03f2 FD030000 		.4byte	0x3fd
 2373 03f6 18       		.uleb128 0x18
 2374 03f7 01       		.uleb128 0x1
 2375 03f8 50       		.byte	0x50
 2376 03f9 02       		.uleb128 0x2
 2377 03fa 74       		.byte	0x74
 2378 03fb 00       		.sleb128 0
 2379 03fc 00       		.byte	0
 2380 03fd 17       		.uleb128 0x17
 2381 03fe 42000000 		.4byte	.LVL49
 2382 0402 00030000 		.4byte	0x300
 2383 0406 10040000 		.4byte	0x410
 2384 040a 18       		.uleb128 0x18
 2385 040b 01       		.uleb128 0x1
 2386 040c 50       		.byte	0x50
 2387 040d 01       		.uleb128 0x1
 2388 040e 3A       		.byte	0x3a
 2389 040f 00       		.byte	0
 2390 0410 16       		.uleb128 0x16
 2391 0411 46000000 		.4byte	.LVL50
 2392 0415 6F030000 		.4byte	0x36f
 2393 0419 19       		.uleb128 0x19
 2394 041a 54000000 		.4byte	.LVL51
 2395 041e 00030000 		.4byte	0x300
 2396 0422 18       		.uleb128 0x18
 2397 0423 01       		.uleb128 0x1
ARM GAS  C:\Users\USUARIO\AppData\Local\Temp\ccVm8SVK.s 			page 64


 2398 0424 50       		.byte	0x50
 2399 0425 01       		.uleb128 0x1
 2400 0426 48       		.byte	0x48
 2401 0427 00       		.byte	0
 2402 0428 00       		.byte	0
 2403 0429 0F       		.uleb128 0xf
 2404 042a 0A020000 		.4byte	.LASF60
 2405 042e 01       		.byte	0x1
 2406 042f 3701     		.2byte	0x137
 2407 0431 00000000 		.4byte	.LFB68
 2408 0435 0A000000 		.4byte	.LFE68-.LFB68
 2409 0439 01       		.uleb128 0x1
 2410 043a 9C       		.byte	0x9c
 2411 043b 5F040000 		.4byte	0x45f
 2412 043f 13       		.uleb128 0x13
 2413 0440 6C020000 		.4byte	.LASF61
 2414 0444 01       		.byte	0x1
 2415 0445 3701     		.2byte	0x137
 2416 0447 A1000000 		.4byte	0xa1
 2417 044b D0020000 		.4byte	.LLST19
 2418 044f 19       		.uleb128 0x19
 2419 0450 08000000 		.4byte	.LVL53
 2420 0454 8E030000 		.4byte	0x38e
 2421 0458 18       		.uleb128 0x18
 2422 0459 01       		.uleb128 0x1
 2423 045a 51       		.byte	0x51
 2424 045b 01       		.uleb128 0x1
 2425 045c 30       		.byte	0x30
 2426 045d 00       		.byte	0
 2427 045e 00       		.byte	0
 2428 045f 0F       		.uleb128 0xf
 2429 0460 CE030000 		.4byte	.LASF62
 2430 0464 01       		.byte	0x1
 2431 0465 5D01     		.2byte	0x15d
 2432 0467 00000000 		.4byte	.LFB70
 2433 046b 0C000000 		.4byte	.LFE70-.LFB70
 2434 046f 01       		.uleb128 0x1
 2435 0470 9C       		.byte	0x9c
 2436 0471 8F040000 		.4byte	0x48f
 2437 0475 13       		.uleb128 0x13
 2438 0476 FC010000 		.4byte	.LASF63
 2439 047a 01       		.byte	0x1
 2440 047b 5D01     		.2byte	0x15d
 2441 047d A1000000 		.4byte	0xa1
 2442 0481 F1020000 		.4byte	.LLST20
 2443 0485 16       		.uleb128 0x16
 2444 0486 0A000000 		.4byte	.LVL56
 2445 048a 29040000 		.4byte	0x429
 2446 048e 00       		.byte	0
 2447 048f 0F       		.uleb128 0xf
 2448 0490 4C060000 		.4byte	.LASF64
 2449 0494 01       		.byte	0x1
 2450 0495 7001     		.2byte	0x170
 2451 0497 00000000 		.4byte	.LFB71
 2452 049b 0C000000 		.4byte	.LFE71-.LFB71
 2453 049f 01       		.uleb128 0x1
 2454 04a0 9C       		.byte	0x9c
ARM GAS  C:\Users\USUARIO\AppData\Local\Temp\ccVm8SVK.s 			page 65


 2455 04a1 BF040000 		.4byte	0x4bf
 2456 04a5 13       		.uleb128 0x13
 2457 04a6 23020000 		.4byte	.LASF65
 2458 04aa 01       		.byte	0x1
 2459 04ab 7001     		.2byte	0x170
 2460 04ad A1000000 		.4byte	0xa1
 2461 04b1 12030000 		.4byte	.LLST21
 2462 04b5 16       		.uleb128 0x16
 2463 04b6 0A000000 		.4byte	.LVL59
 2464 04ba 29040000 		.4byte	0x429
 2465 04be 00       		.byte	0
 2466 04bf 0F       		.uleb128 0xf
 2467 04c0 77000000 		.4byte	.LASF66
 2468 04c4 01       		.byte	0x1
 2469 04c5 4A01     		.2byte	0x14a
 2470 04c7 00000000 		.4byte	.LFB69
 2471 04cb 0A000000 		.4byte	.LFE69-.LFB69
 2472 04cf 01       		.uleb128 0x1
 2473 04d0 9C       		.byte	0x9c
 2474 04d1 F5040000 		.4byte	0x4f5
 2475 04d5 13       		.uleb128 0x13
 2476 04d6 6C020000 		.4byte	.LASF61
 2477 04da 01       		.byte	0x1
 2478 04db 4A01     		.2byte	0x14a
 2479 04dd A1000000 		.4byte	0xa1
 2480 04e1 33030000 		.4byte	.LLST22
 2481 04e5 19       		.uleb128 0x19
 2482 04e6 08000000 		.4byte	.LVL61
 2483 04ea 8E030000 		.4byte	0x38e
 2484 04ee 18       		.uleb128 0x18
 2485 04ef 01       		.uleb128 0x1
 2486 04f0 51       		.byte	0x51
 2487 04f1 01       		.uleb128 0x1
 2488 04f2 31       		.byte	0x31
 2489 04f3 00       		.byte	0
 2490 04f4 00       		.byte	0
 2491 04f5 1A       		.uleb128 0x1a
 2492 04f6 3E010000 		.4byte	.LASF67
 2493 04fa 01       		.byte	0x1
 2494 04fb 8301     		.2byte	0x183
 2495 04fd 00000000 		.4byte	.LFB72
 2496 0501 26000000 		.4byte	.LFE72-.LFB72
 2497 0505 01       		.uleb128 0x1
 2498 0506 9C       		.byte	0x9c
 2499 0507 5B050000 		.4byte	0x55b
 2500 050b 11       		.uleb128 0x11
 2501 050c 6900     		.ascii	"i\000"
 2502 050e 01       		.byte	0x1
 2503 050f 8501     		.2byte	0x185
 2504 0511 A1000000 		.4byte	0xa1
 2505 0515 54030000 		.4byte	.LLST23
 2506 0519 16       		.uleb128 0x16
 2507 051a 06000000 		.4byte	.LVL62
 2508 051e 2E030000 		.4byte	0x32e
 2509 0522 17       		.uleb128 0x17
 2510 0523 10000000 		.4byte	.LVL64
 2511 0527 99010000 		.4byte	0x199
ARM GAS  C:\Users\USUARIO\AppData\Local\Temp\ccVm8SVK.s 			page 66


 2512 052b 36050000 		.4byte	0x536
 2513 052f 18       		.uleb128 0x18
 2514 0530 01       		.uleb128 0x1
 2515 0531 50       		.byte	0x50
 2516 0532 02       		.uleb128 0x2
 2517 0533 74       		.byte	0x74
 2518 0534 00       		.sleb128 0
 2519 0535 00       		.byte	0
 2520 0536 17       		.uleb128 0x17
 2521 0537 16000000 		.4byte	.LVL65
 2522 053b 29040000 		.4byte	0x429
 2523 053f 4A050000 		.4byte	0x54a
 2524 0543 18       		.uleb128 0x18
 2525 0544 01       		.uleb128 0x1
 2526 0545 50       		.byte	0x50
 2527 0546 02       		.uleb128 0x2
 2528 0547 08       		.byte	0x8
 2529 0548 3F       		.byte	0x3f
 2530 0549 00       		.byte	0
 2531 054a 19       		.uleb128 0x19
 2532 054b 1C000000 		.4byte	.LVL66
 2533 054f 29040000 		.4byte	0x429
 2534 0553 18       		.uleb128 0x18
 2535 0554 01       		.uleb128 0x1
 2536 0555 50       		.byte	0x50
 2537 0556 02       		.uleb128 0x2
 2538 0557 09       		.byte	0x9
 2539 0558 C0       		.byte	0xc0
 2540 0559 00       		.byte	0
 2541 055a 00       		.byte	0
 2542 055b 1A       		.uleb128 0x1a
 2543 055c F8050000 		.4byte	.LASF68
 2544 0560 01       		.byte	0x1
 2545 0561 9F01     		.2byte	0x19f
 2546 0563 00000000 		.4byte	.LFB73
 2547 0567 0C000000 		.4byte	.LFE73-.LFB73
 2548 056b 01       		.uleb128 0x1
 2549 056c 9C       		.byte	0x9c
 2550 056d 80050000 		.4byte	0x580
 2551 0571 10       		.uleb128 0x10
 2552 0572 D1000000 		.4byte	.LASF59
 2553 0576 01       		.byte	0x1
 2554 0577 9F01     		.2byte	0x19f
 2555 0579 A1000000 		.4byte	0xa1
 2556 057d 01       		.uleb128 0x1
 2557 057e 50       		.byte	0x50
 2558 057f 00       		.byte	0
 2559 0580 1A       		.uleb128 0x1a
 2560 0581 F5020000 		.4byte	.LASF69
 2561 0585 01       		.byte	0x1
 2562 0586 DF01     		.2byte	0x1df
 2563 0588 00000000 		.4byte	.LFB76
 2564 058c 6C000000 		.4byte	.LFE76-.LFB76
 2565 0590 01       		.uleb128 0x1
 2566 0591 9C       		.byte	0x9c
 2567 0592 73060000 		.4byte	0x673
 2568 0596 12       		.uleb128 0x12
ARM GAS  C:\Users\USUARIO\AppData\Local\Temp\ccVm8SVK.s 			page 67


 2569 0597 746F7000 		.ascii	"top\000"
 2570 059b 01       		.byte	0x1
 2571 059c DF01     		.2byte	0x1df
 2572 059e AD000000 		.4byte	0xad
 2573 05a2 7E030000 		.4byte	.LLST24
 2574 05a6 13       		.uleb128 0x13
 2575 05a7 94010000 		.4byte	.LASF70
 2576 05ab 01       		.byte	0x1
 2577 05ac DF01     		.2byte	0x1df
 2578 05ae AD000000 		.4byte	0xad
 2579 05b2 9F030000 		.4byte	.LLST25
 2580 05b6 11       		.uleb128 0x11
 2581 05b7 7800     		.ascii	"x\000"
 2582 05b9 01       		.byte	0x1
 2583 05ba E101     		.2byte	0x1e1
 2584 05bc A1000000 		.4byte	0xa1
 2585 05c0 C0030000 		.4byte	.LLST26
 2586 05c4 11       		.uleb128 0x11
 2587 05c5 7900     		.ascii	"y\000"
 2588 05c7 01       		.byte	0x1
 2589 05c8 E101     		.2byte	0x1e1
 2590 05ca A1000000 		.4byte	0xa1
 2591 05ce EA030000 		.4byte	.LLST27
 2592 05d2 11       		.uleb128 0x11
 2593 05d3 6900     		.ascii	"i\000"
 2594 05d5 01       		.byte	0x1
 2595 05d6 E101     		.2byte	0x1e1
 2596 05d8 A1000000 		.4byte	0xa1
 2597 05dc 13040000 		.4byte	.LLST28
 2598 05e0 11       		.uleb128 0x11
 2599 05e1 797400   		.ascii	"yt\000"
 2600 05e4 01       		.byte	0x1
 2601 05e5 E201     		.2byte	0x1e2
 2602 05e7 A1000000 		.4byte	0xa1
 2603 05eb 3D040000 		.4byte	.LLST29
 2604 05ef 11       		.uleb128 0x11
 2605 05f0 796200   		.ascii	"yb\000"
 2606 05f3 01       		.byte	0x1
 2607 05f4 E201     		.2byte	0x1e2
 2608 05f6 A1000000 		.4byte	0xa1
 2609 05fa 50040000 		.4byte	.LLST30
 2610 05fe 14       		.uleb128 0x14
 2611 05ff E8000000 		.4byte	.LASF71
 2612 0603 01       		.byte	0x1
 2613 0604 E301     		.2byte	0x1e3
 2614 0606 AD000000 		.4byte	0xad
 2615 060a 63040000 		.4byte	.LLST31
 2616 060e 14       		.uleb128 0x14
 2617 060f F9030000 		.4byte	.LASF72
 2618 0613 01       		.byte	0x1
 2619 0614 E401     		.2byte	0x1e4
 2620 0616 A1000000 		.4byte	0xa1
 2621 061a 76040000 		.4byte	.LLST32
 2622 061e 17       		.uleb128 0x17
 2623 061f 16000000 		.4byte	.LVL74
 2624 0623 99010000 		.4byte	0x199
 2625 0627 32060000 		.4byte	0x632
ARM GAS  C:\Users\USUARIO\AppData\Local\Temp\ccVm8SVK.s 			page 68


 2626 062b 18       		.uleb128 0x18
 2627 062c 01       		.uleb128 0x1
 2628 062d 50       		.byte	0x50
 2629 062e 02       		.uleb128 0x2
 2630 062f 77       		.byte	0x77
 2631 0630 00       		.sleb128 0
 2632 0631 00       		.byte	0
 2633 0632 17       		.uleb128 0x17
 2634 0633 20000000 		.4byte	.LVL76
 2635 0637 5F040000 		.4byte	0x45f
 2636 063b 46060000 		.4byte	0x646
 2637 063f 18       		.uleb128 0x18
 2638 0640 01       		.uleb128 0x1
 2639 0641 50       		.byte	0x50
 2640 0642 02       		.uleb128 0x2
 2641 0643 75       		.byte	0x75
 2642 0644 00       		.sleb128 0
 2643 0645 00       		.byte	0
 2644 0646 17       		.uleb128 0x17
 2645 0647 26000000 		.4byte	.LVL77
 2646 064b 8F040000 		.4byte	0x48f
 2647 064f 59060000 		.4byte	0x659
 2648 0653 18       		.uleb128 0x18
 2649 0654 01       		.uleb128 0x1
 2650 0655 50       		.byte	0x50
 2651 0656 01       		.uleb128 0x1
 2652 0657 30       		.byte	0x30
 2653 0658 00       		.byte	0
 2654 0659 16       		.uleb128 0x16
 2655 065a 44000000 		.4byte	.LVL83
 2656 065e BF040000 		.4byte	0x4bf
 2657 0662 19       		.uleb128 0x19
 2658 0663 62000000 		.4byte	.LVL90
 2659 0667 99010000 		.4byte	0x199
 2660 066b 18       		.uleb128 0x18
 2661 066c 01       		.uleb128 0x1
 2662 066d 50       		.byte	0x50
 2663 066e 02       		.uleb128 0x2
 2664 066f 08       		.byte	0x8
 2665 0670 63       		.byte	0x63
 2666 0671 00       		.byte	0
 2667 0672 00       		.byte	0
 2668 0673 1A       		.uleb128 0x1a
 2669 0674 C5020000 		.4byte	.LASF73
 2670 0678 01       		.byte	0x1
 2671 0679 C901     		.2byte	0x1c9
 2672 067b 00000000 		.4byte	.LFB75
 2673 067f 16000000 		.4byte	.LFE75-.LFB75
 2674 0683 01       		.uleb128 0x1
 2675 0684 9C       		.byte	0x9c
 2676 0685 C2060000 		.4byte	0x6c2
 2677 0689 13       		.uleb128 0x13
 2678 068a 47020000 		.4byte	.LASF74
 2679 068e 01       		.byte	0x1
 2680 068f C901     		.2byte	0x1c9
 2681 0691 A1000000 		.4byte	0xa1
 2682 0695 A2040000 		.4byte	.LLST33
ARM GAS  C:\Users\USUARIO\AppData\Local\Temp\ccVm8SVK.s 			page 69


 2683 0699 17       		.uleb128 0x17
 2684 069a 0A000000 		.4byte	.LVL94
 2685 069e BC010000 		.4byte	0x1bc
 2686 06a2 AC060000 		.4byte	0x6ac
 2687 06a6 18       		.uleb128 0x18
 2688 06a7 01       		.uleb128 0x1
 2689 06a8 50       		.byte	0x50
 2690 06a9 01       		.uleb128 0x1
 2691 06aa 30       		.byte	0x30
 2692 06ab 00       		.byte	0
 2693 06ac 19       		.uleb128 0x19
 2694 06ad 14000000 		.4byte	.LVL95
 2695 06b1 80050000 		.4byte	0x580
 2696 06b5 18       		.uleb128 0x18
 2697 06b6 01       		.uleb128 0x1
 2698 06b7 50       		.byte	0x50
 2699 06b8 01       		.uleb128 0x1
 2700 06b9 30       		.byte	0x30
 2701 06ba 18       		.uleb128 0x18
 2702 06bb 01       		.uleb128 0x1
 2703 06bc 51       		.byte	0x51
 2704 06bd 02       		.uleb128 0x2
 2705 06be 08       		.byte	0x8
 2706 06bf 3F       		.byte	0x3f
 2707 06c0 00       		.byte	0
 2708 06c1 00       		.byte	0
 2709 06c2 1A       		.uleb128 0x1a
 2710 06c3 EC010000 		.4byte	.LASF75
 2711 06c7 01       		.byte	0x1
 2712 06c8 0902     		.2byte	0x209
 2713 06ca 00000000 		.4byte	.LFB77
 2714 06ce 58000000 		.4byte	.LFE77-.LFB77
 2715 06d2 01       		.uleb128 0x1
 2716 06d3 9C       		.byte	0x9c
 2717 06d4 33070000 		.4byte	0x733
 2718 06d8 1B       		.uleb128 0x1b
 2719 06d9 7800     		.ascii	"x\000"
 2720 06db 01       		.byte	0x1
 2721 06dc 0902     		.2byte	0x209
 2722 06de A1000000 		.4byte	0xa1
 2723 06e2 01       		.uleb128 0x1
 2724 06e3 50       		.byte	0x50
 2725 06e4 12       		.uleb128 0x12
 2726 06e5 7900     		.ascii	"y\000"
 2727 06e7 01       		.byte	0x1
 2728 06e8 0902     		.2byte	0x209
 2729 06ea A1000000 		.4byte	0xa1
 2730 06ee C3040000 		.4byte	.LLST34
 2731 06f2 13       		.uleb128 0x13
 2732 06f3 D1000000 		.4byte	.LASF59
 2733 06f7 01       		.byte	0x1
 2734 06f8 0902     		.2byte	0x209
 2735 06fa A1000000 		.4byte	0xa1
 2736 06fe E4040000 		.4byte	.LLST35
 2737 0702 14       		.uleb128 0x14
 2738 0703 83020000 		.4byte	.LASF76
 2739 0707 01       		.byte	0x1
ARM GAS  C:\Users\USUARIO\AppData\Local\Temp\ccVm8SVK.s 			page 70


 2740 0708 0B02     		.2byte	0x20b
 2741 070a A1000000 		.4byte	0xa1
 2742 070e 37050000 		.4byte	.LLST36
 2743 0712 14       		.uleb128 0x14
 2744 0713 9B010000 		.4byte	.LASF77
 2745 0717 01       		.byte	0x1
 2746 0718 0B02     		.2byte	0x20b
 2747 071a A1000000 		.4byte	0xa1
 2748 071e 4A050000 		.4byte	.LLST37
 2749 0722 14       		.uleb128 0x14
 2750 0723 71020000 		.4byte	.LASF78
 2751 0727 01       		.byte	0x1
 2752 0728 0B02     		.2byte	0x20b
 2753 072a A1000000 		.4byte	0xa1
 2754 072e A9050000 		.4byte	.LLST38
 2755 0732 00       		.byte	0
 2756 0733 1A       		.uleb128 0x1a
 2757 0734 DB040000 		.4byte	.LASF79
 2758 0738 01       		.byte	0x1
 2759 0739 3202     		.2byte	0x232
 2760 073b 00000000 		.4byte	.LFB78
 2761 073f D0010000 		.4byte	.LFE78-.LFB78
 2762 0743 01       		.uleb128 0x1
 2763 0744 9C       		.byte	0x9c
 2764 0745 98080000 		.4byte	0x898
 2765 0749 12       		.uleb128 0x12
 2766 074a 783100   		.ascii	"x1\000"
 2767 074d 01       		.byte	0x1
 2768 074e 3202     		.2byte	0x232
 2769 0750 A1000000 		.4byte	0xa1
 2770 0754 D2050000 		.4byte	.LLST39
 2771 0758 12       		.uleb128 0x12
 2772 0759 793100   		.ascii	"y1\000"
 2773 075c 01       		.byte	0x1
 2774 075d 3202     		.2byte	0x232
 2775 075f A1000000 		.4byte	0xa1
 2776 0763 27060000 		.4byte	.LLST40
 2777 0767 12       		.uleb128 0x12
 2778 0768 783200   		.ascii	"x2\000"
 2779 076b 01       		.byte	0x1
 2780 076c 3302     		.2byte	0x233
 2781 076e A1000000 		.4byte	0xa1
 2782 0772 7C060000 		.4byte	.LLST41
 2783 0776 12       		.uleb128 0x12
 2784 0777 793200   		.ascii	"y2\000"
 2785 077a 01       		.byte	0x1
 2786 077b 3302     		.2byte	0x233
 2787 077d A1000000 		.4byte	0xa1
 2788 0781 D4060000 		.4byte	.LLST42
 2789 0785 13       		.uleb128 0x13
 2790 0786 D1000000 		.4byte	.LASF59
 2791 078a 01       		.byte	0x1
 2792 078b 3402     		.2byte	0x234
 2793 078d A1000000 		.4byte	0xa1
 2794 0791 24070000 		.4byte	.LLST43
 2795 0795 14       		.uleb128 0x14
 2796 0796 AE010000 		.4byte	.LASF80
ARM GAS  C:\Users\USUARIO\AppData\Local\Temp\ccVm8SVK.s 			page 71


 2797 079a 01       		.byte	0x1
 2798 079b 3602     		.2byte	0x236
 2799 079d A1000000 		.4byte	0xa1
 2800 07a1 44070000 		.4byte	.LLST44
 2801 07a5 1C       		.uleb128 0x1c
 2802 07a6 41000000 		.4byte	.LASF81
 2803 07aa 01       		.byte	0x1
 2804 07ab 3602     		.2byte	0x236
 2805 07ad A1000000 		.4byte	0xa1
 2806 07b1 1C       		.uleb128 0x1c
 2807 07b2 E7010000 		.4byte	.LASF82
 2808 07b6 01       		.byte	0x1
 2809 07b7 3602     		.2byte	0x236
 2810 07b9 A1000000 		.4byte	0xa1
 2811 07bd 11       		.uleb128 0x11
 2812 07be 6900     		.ascii	"i\000"
 2813 07c0 01       		.byte	0x1
 2814 07c1 3602     		.2byte	0x236
 2815 07c3 A1000000 		.4byte	0xa1
 2816 07c7 78070000 		.4byte	.LLST45
 2817 07cb 11       		.uleb128 0x11
 2818 07cc 7900     		.ascii	"y\000"
 2819 07ce 01       		.byte	0x1
 2820 07cf 3602     		.2byte	0x236
 2821 07d1 A1000000 		.4byte	0xa1
 2822 07d5 08080000 		.4byte	.LLST46
 2823 07d9 14       		.uleb128 0x14
 2824 07da A3010000 		.4byte	.LASF83
 2825 07de 01       		.byte	0x1
 2826 07df 3602     		.2byte	0x236
 2827 07e1 A1000000 		.4byte	0xa1
 2828 07e5 9C080000 		.4byte	.LLST47
 2829 07e9 11       		.uleb128 0x11
 2830 07ea 6D00     		.ascii	"m\000"
 2831 07ec 01       		.byte	0x1
 2832 07ed 3702     		.2byte	0x237
 2833 07ef B9000000 		.4byte	0xb9
 2834 07f3 12090000 		.4byte	.LLST48
 2835 07f7 17       		.uleb128 0x17
 2836 07f8 38000000 		.4byte	.LVL118
 2837 07fc C2060000 		.4byte	0x6c2
 2838 0800 1A080000 		.4byte	0x81a
 2839 0804 18       		.uleb128 0x18
 2840 0805 01       		.uleb128 0x1
 2841 0806 50       		.byte	0x50
 2842 0807 02       		.uleb128 0x2
 2843 0808 77       		.byte	0x77
 2844 0809 00       		.sleb128 0
 2845 080a 18       		.uleb128 0x18
 2846 080b 01       		.uleb128 0x1
 2847 080c 51       		.byte	0x51
 2848 080d 05       		.uleb128 0x5
 2849 080e 76       		.byte	0x76
 2850 080f 00       		.sleb128 0
 2851 0810 74       		.byte	0x74
 2852 0811 00       		.sleb128 0
 2853 0812 22       		.byte	0x22
ARM GAS  C:\Users\USUARIO\AppData\Local\Temp\ccVm8SVK.s 			page 72


 2854 0813 18       		.uleb128 0x18
 2855 0814 01       		.uleb128 0x1
 2856 0815 52       		.byte	0x52
 2857 0816 02       		.uleb128 0x2
 2858 0817 75       		.byte	0x75
 2859 0818 00       		.sleb128 0
 2860 0819 00       		.byte	0
 2861 081a 17       		.uleb128 0x17
 2862 081b 6A000000 		.4byte	.LVL126
 2863 081f C2060000 		.4byte	0x6c2
 2864 0823 3D080000 		.4byte	0x83d
 2865 0827 18       		.uleb128 0x18
 2866 0828 01       		.uleb128 0x1
 2867 0829 50       		.byte	0x50
 2868 082a 05       		.uleb128 0x5
 2869 082b 77       		.byte	0x77
 2870 082c 00       		.sleb128 0
 2871 082d 74       		.byte	0x74
 2872 082e 00       		.sleb128 0
 2873 082f 22       		.byte	0x22
 2874 0830 18       		.uleb128 0x18
 2875 0831 01       		.uleb128 0x1
 2876 0832 51       		.byte	0x51
 2877 0833 02       		.uleb128 0x2
 2878 0834 76       		.byte	0x76
 2879 0835 00       		.sleb128 0
 2880 0836 18       		.uleb128 0x18
 2881 0837 01       		.uleb128 0x1
 2882 0838 52       		.byte	0x52
 2883 0839 02       		.uleb128 0x2
 2884 083a 75       		.byte	0x75
 2885 083b 00       		.sleb128 0
 2886 083c 00       		.byte	0
 2887 083d 17       		.uleb128 0x17
 2888 083e F8000000 		.4byte	.LVL140
 2889 0842 33070000 		.4byte	0x733
 2890 0846 6C080000 		.4byte	0x86c
 2891 084a 18       		.uleb128 0x18
 2892 084b 01       		.uleb128 0x1
 2893 084c 50       		.byte	0x50
 2894 084d 05       		.uleb128 0x5
 2895 084e 77       		.byte	0x77
 2896 084f 00       		.sleb128 0
 2897 0850 75       		.byte	0x75
 2898 0851 00       		.sleb128 0
 2899 0852 22       		.byte	0x22
 2900 0853 18       		.uleb128 0x18
 2901 0854 01       		.uleb128 0x1
 2902 0855 52       		.byte	0x52
 2903 0856 05       		.uleb128 0x5
 2904 0857 77       		.byte	0x77
 2905 0858 00       		.sleb128 0
 2906 0859 75       		.byte	0x75
 2907 085a 00       		.sleb128 0
 2908 085b 22       		.byte	0x22
 2909 085c 18       		.uleb128 0x18
 2910 085d 01       		.uleb128 0x1
ARM GAS  C:\Users\USUARIO\AppData\Local\Temp\ccVm8SVK.s 			page 73


 2911 085e 53       		.byte	0x53
 2912 085f 02       		.uleb128 0x2
 2913 0860 74       		.byte	0x74
 2914 0861 00       		.sleb128 0
 2915 0862 18       		.uleb128 0x18
 2916 0863 02       		.uleb128 0x2
 2917 0864 7D       		.byte	0x7d
 2918 0865 00       		.sleb128 0
 2919 0866 04       		.uleb128 0x4
 2920 0867 91       		.byte	0x91
 2921 0868 48       		.sleb128 -56
 2922 0869 94       		.byte	0x94
 2923 086a 01       		.byte	0x1
 2924 086b 00       		.byte	0
 2925 086c 19       		.uleb128 0x19
 2926 086d 9C010000 		.4byte	.LVL163
 2927 0871 33070000 		.4byte	0x733
 2928 0875 18       		.uleb128 0x18
 2929 0876 01       		.uleb128 0x1
 2930 0877 51       		.byte	0x51
 2931 0878 05       		.uleb128 0x5
 2932 0879 76       		.byte	0x76
 2933 087a 00       		.sleb128 0
 2934 087b 75       		.byte	0x75
 2935 087c 00       		.sleb128 0
 2936 087d 22       		.byte	0x22
 2937 087e 18       		.uleb128 0x18
 2938 087f 01       		.uleb128 0x1
 2939 0880 52       		.byte	0x52
 2940 0881 02       		.uleb128 0x2
 2941 0882 74       		.byte	0x74
 2942 0883 00       		.sleb128 0
 2943 0884 18       		.uleb128 0x18
 2944 0885 01       		.uleb128 0x1
 2945 0886 53       		.byte	0x53
 2946 0887 05       		.uleb128 0x5
 2947 0888 76       		.byte	0x76
 2948 0889 00       		.sleb128 0
 2949 088a 75       		.byte	0x75
 2950 088b 00       		.sleb128 0
 2951 088c 22       		.byte	0x22
 2952 088d 18       		.uleb128 0x18
 2953 088e 02       		.uleb128 0x2
 2954 088f 7D       		.byte	0x7d
 2955 0890 00       		.sleb128 0
 2956 0891 04       		.uleb128 0x4
 2957 0892 91       		.byte	0x91
 2958 0893 48       		.sleb128 -56
 2959 0894 94       		.byte	0x94
 2960 0895 01       		.byte	0x1
 2961 0896 00       		.byte	0
 2962 0897 00       		.byte	0
 2963 0898 1A       		.uleb128 0x1a
 2964 0899 00000000 		.4byte	.LASF84
 2965 089d 01       		.byte	0x1
 2966 089e A902     		.2byte	0x2a9
 2967 08a0 00000000 		.4byte	.LFB79
ARM GAS  C:\Users\USUARIO\AppData\Local\Temp\ccVm8SVK.s 			page 74


 2968 08a4 58000000 		.4byte	.LFE79-.LFB79
 2969 08a8 01       		.uleb128 0x1
 2970 08a9 9C       		.byte	0x9c
 2971 08aa AA090000 		.4byte	0x9aa
 2972 08ae 12       		.uleb128 0x12
 2973 08af 7800     		.ascii	"x\000"
 2974 08b1 01       		.byte	0x1
 2975 08b2 A902     		.2byte	0x2a9
 2976 08b4 A1000000 		.4byte	0xa1
 2977 08b8 32090000 		.4byte	.LLST49
 2978 08bc 12       		.uleb128 0x12
 2979 08bd 7900     		.ascii	"y\000"
 2980 08bf 01       		.byte	0x1
 2981 08c0 A902     		.2byte	0x2a9
 2982 08c2 A1000000 		.4byte	0xa1
 2983 08c6 53090000 		.4byte	.LLST50
 2984 08ca 13       		.uleb128 0x13
 2985 08cb A8010000 		.4byte	.LASF42
 2986 08cf 01       		.byte	0x1
 2987 08d0 A902     		.2byte	0x2a9
 2988 08d2 A1000000 		.4byte	0xa1
 2989 08d6 74090000 		.4byte	.LLST51
 2990 08da 13       		.uleb128 0x13
 2991 08db 1F030000 		.4byte	.LASF43
 2992 08df 01       		.byte	0x1
 2993 08e0 A902     		.2byte	0x2a9
 2994 08e2 A1000000 		.4byte	0xa1
 2995 08e6 A0090000 		.4byte	.LLST52
 2996 08ea 10       		.uleb128 0x10
 2997 08eb D1000000 		.4byte	.LASF59
 2998 08ef 01       		.byte	0x1
 2999 08f0 AA02     		.2byte	0x2aa
 3000 08f2 A1000000 		.4byte	0xa1
 3001 08f6 02       		.uleb128 0x2
 3002 08f7 91       		.byte	0x91
 3003 08f8 00       		.sleb128 0
 3004 08f9 17       		.uleb128 0x17
 3005 08fa 24000000 		.4byte	.LVL180
 3006 08fe 33070000 		.4byte	0x733
 3007 0902 26090000 		.4byte	0x926
 3008 0906 18       		.uleb128 0x18
 3009 0907 01       		.uleb128 0x1
 3010 0908 50       		.byte	0x50
 3011 0909 02       		.uleb128 0x2
 3012 090a 78       		.byte	0x78
 3013 090b 00       		.sleb128 0
 3014 090c 18       		.uleb128 0x18
 3015 090d 01       		.uleb128 0x1
 3016 090e 51       		.byte	0x51
 3017 090f 02       		.uleb128 0x2
 3018 0910 76       		.byte	0x76
 3019 0911 00       		.sleb128 0
 3020 0912 18       		.uleb128 0x18
 3021 0913 01       		.uleb128 0x1
 3022 0914 52       		.byte	0x52
 3023 0915 02       		.uleb128 0x2
 3024 0916 74       		.byte	0x74
ARM GAS  C:\Users\USUARIO\AppData\Local\Temp\ccVm8SVK.s 			page 75


 3025 0917 00       		.sleb128 0
 3026 0918 18       		.uleb128 0x18
 3027 0919 01       		.uleb128 0x1
 3028 091a 53       		.byte	0x53
 3029 091b 02       		.uleb128 0x2
 3030 091c 76       		.byte	0x76
 3031 091d 00       		.sleb128 0
 3032 091e 18       		.uleb128 0x18
 3033 091f 02       		.uleb128 0x2
 3034 0920 7D       		.byte	0x7d
 3035 0921 00       		.sleb128 0
 3036 0922 02       		.uleb128 0x2
 3037 0923 77       		.byte	0x77
 3038 0924 00       		.sleb128 0
 3039 0925 00       		.byte	0
 3040 0926 17       		.uleb128 0x17
 3041 0927 36000000 		.4byte	.LVL182
 3042 092b 33070000 		.4byte	0x733
 3043 092f 53090000 		.4byte	0x953
 3044 0933 18       		.uleb128 0x18
 3045 0934 01       		.uleb128 0x1
 3046 0935 50       		.byte	0x50
 3047 0936 02       		.uleb128 0x2
 3048 0937 78       		.byte	0x78
 3049 0938 00       		.sleb128 0
 3050 0939 18       		.uleb128 0x18
 3051 093a 01       		.uleb128 0x1
 3052 093b 51       		.byte	0x51
 3053 093c 02       		.uleb128 0x2
 3054 093d 76       		.byte	0x76
 3055 093e 00       		.sleb128 0
 3056 093f 18       		.uleb128 0x18
 3057 0940 01       		.uleb128 0x1
 3058 0941 52       		.byte	0x52
 3059 0942 02       		.uleb128 0x2
 3060 0943 78       		.byte	0x78
 3061 0944 00       		.sleb128 0
 3062 0945 18       		.uleb128 0x18
 3063 0946 01       		.uleb128 0x1
 3064 0947 53       		.byte	0x53
 3065 0948 02       		.uleb128 0x2
 3066 0949 75       		.byte	0x75
 3067 094a 00       		.sleb128 0
 3068 094b 18       		.uleb128 0x18
 3069 094c 02       		.uleb128 0x2
 3070 094d 7D       		.byte	0x7d
 3071 094e 00       		.sleb128 0
 3072 094f 02       		.uleb128 0x2
 3073 0950 77       		.byte	0x77
 3074 0951 00       		.sleb128 0
 3075 0952 00       		.byte	0
 3076 0953 17       		.uleb128 0x17
 3077 0954 44000000 		.4byte	.LVL183
 3078 0958 33070000 		.4byte	0x733
 3079 095c 80090000 		.4byte	0x980
 3080 0960 18       		.uleb128 0x18
 3081 0961 01       		.uleb128 0x1
ARM GAS  C:\Users\USUARIO\AppData\Local\Temp\ccVm8SVK.s 			page 76


 3082 0962 50       		.byte	0x50
 3083 0963 02       		.uleb128 0x2
 3084 0964 78       		.byte	0x78
 3085 0965 00       		.sleb128 0
 3086 0966 18       		.uleb128 0x18
 3087 0967 01       		.uleb128 0x1
 3088 0968 51       		.byte	0x51
 3089 0969 02       		.uleb128 0x2
 3090 096a 75       		.byte	0x75
 3091 096b 00       		.sleb128 0
 3092 096c 18       		.uleb128 0x18
 3093 096d 01       		.uleb128 0x1
 3094 096e 52       		.byte	0x52
 3095 096f 02       		.uleb128 0x2
 3096 0970 74       		.byte	0x74
 3097 0971 00       		.sleb128 0
 3098 0972 18       		.uleb128 0x18
 3099 0973 01       		.uleb128 0x1
 3100 0974 53       		.byte	0x53
 3101 0975 02       		.uleb128 0x2
 3102 0976 75       		.byte	0x75
 3103 0977 00       		.sleb128 0
 3104 0978 18       		.uleb128 0x18
 3105 0979 02       		.uleb128 0x2
 3106 097a 7D       		.byte	0x7d
 3107 097b 00       		.sleb128 0
 3108 097c 02       		.uleb128 0x2
 3109 097d 77       		.byte	0x77
 3110 097e 00       		.sleb128 0
 3111 097f 00       		.byte	0
 3112 0980 19       		.uleb128 0x19
 3113 0981 52000000 		.4byte	.LVL184
 3114 0985 33070000 		.4byte	0x733
 3115 0989 18       		.uleb128 0x18
 3116 098a 01       		.uleb128 0x1
 3117 098b 50       		.byte	0x50
 3118 098c 02       		.uleb128 0x2
 3119 098d 74       		.byte	0x74
 3120 098e 00       		.sleb128 0
 3121 098f 18       		.uleb128 0x18
 3122 0990 01       		.uleb128 0x1
 3123 0991 51       		.byte	0x51
 3124 0992 02       		.uleb128 0x2
 3125 0993 76       		.byte	0x76
 3126 0994 00       		.sleb128 0
 3127 0995 18       		.uleb128 0x18
 3128 0996 01       		.uleb128 0x1
 3129 0997 52       		.byte	0x52
 3130 0998 02       		.uleb128 0x2
 3131 0999 74       		.byte	0x74
 3132 099a 00       		.sleb128 0
 3133 099b 18       		.uleb128 0x18
 3134 099c 01       		.uleb128 0x1
 3135 099d 53       		.byte	0x53
 3136 099e 02       		.uleb128 0x2
 3137 099f 75       		.byte	0x75
 3138 09a0 00       		.sleb128 0
ARM GAS  C:\Users\USUARIO\AppData\Local\Temp\ccVm8SVK.s 			page 77


 3139 09a1 18       		.uleb128 0x18
 3140 09a2 02       		.uleb128 0x2
 3141 09a3 7D       		.byte	0x7d
 3142 09a4 00       		.sleb128 0
 3143 09a5 02       		.uleb128 0x2
 3144 09a6 77       		.byte	0x77
 3145 09a7 00       		.sleb128 0
 3146 09a8 00       		.byte	0
 3147 09a9 00       		.byte	0
 3148 09aa 1A       		.uleb128 0x1a
 3149 09ab 93030000 		.4byte	.LASF85
 3150 09af 01       		.byte	0x1
 3151 09b0 C602     		.2byte	0x2c6
 3152 09b2 00000000 		.4byte	.LFB80
 3153 09b6 3E000000 		.4byte	.LFE80-.LFB80
 3154 09ba 01       		.uleb128 0x1
 3155 09bb 9C       		.byte	0x9c
 3156 09bc 460A0000 		.4byte	0xa46
 3157 09c0 12       		.uleb128 0x12
 3158 09c1 7800     		.ascii	"x\000"
 3159 09c3 01       		.byte	0x1
 3160 09c4 C602     		.2byte	0x2c6
 3161 09c6 A1000000 		.4byte	0xa1
 3162 09ca CC090000 		.4byte	.LLST53
 3163 09ce 12       		.uleb128 0x12
 3164 09cf 7900     		.ascii	"y\000"
 3165 09d1 01       		.byte	0x1
 3166 09d2 C602     		.2byte	0x2c6
 3167 09d4 A1000000 		.4byte	0xa1
 3168 09d8 ED090000 		.4byte	.LLST54
 3169 09dc 13       		.uleb128 0x13
 3170 09dd A8010000 		.4byte	.LASF42
 3171 09e1 01       		.byte	0x1
 3172 09e2 C602     		.2byte	0x2c6
 3173 09e4 A1000000 		.4byte	0xa1
 3174 09e8 0E0A0000 		.4byte	.LLST55
 3175 09ec 13       		.uleb128 0x13
 3176 09ed 1F030000 		.4byte	.LASF43
 3177 09f1 01       		.byte	0x1
 3178 09f2 C602     		.2byte	0x2c6
 3179 09f4 A1000000 		.4byte	0xa1
 3180 09f8 2C0A0000 		.4byte	.LLST56
 3181 09fc 10       		.uleb128 0x10
 3182 09fd D1000000 		.4byte	.LASF59
 3183 0a01 01       		.byte	0x1
 3184 0a02 C702     		.2byte	0x2c7
 3185 0a04 A1000000 		.4byte	0xa1
 3186 0a08 02       		.uleb128 0x2
 3187 0a09 91       		.byte	0x91
 3188 0a0a 00       		.sleb128 0
 3189 0a0b 11       		.uleb128 0x11
 3190 0a0c 6900     		.ascii	"i\000"
 3191 0a0e 01       		.byte	0x1
 3192 0a0f C902     		.2byte	0x2c9
 3193 0a11 A1000000 		.4byte	0xa1
 3194 0a15 4D0A0000 		.4byte	.LLST57
 3195 0a19 19       		.uleb128 0x19
ARM GAS  C:\Users\USUARIO\AppData\Local\Temp\ccVm8SVK.s 			page 78


 3196 0a1a 2C000000 		.4byte	.LVL188
 3197 0a1e 33070000 		.4byte	0x733
 3198 0a22 18       		.uleb128 0x18
 3199 0a23 01       		.uleb128 0x1
 3200 0a24 50       		.byte	0x50
 3201 0a25 02       		.uleb128 0x2
 3202 0a26 75       		.byte	0x75
 3203 0a27 00       		.sleb128 0
 3204 0a28 18       		.uleb128 0x18
 3205 0a29 01       		.uleb128 0x1
 3206 0a2a 51       		.byte	0x51
 3207 0a2b 02       		.uleb128 0x2
 3208 0a2c 74       		.byte	0x74
 3209 0a2d 00       		.sleb128 0
 3210 0a2e 18       		.uleb128 0x18
 3211 0a2f 01       		.uleb128 0x1
 3212 0a30 52       		.byte	0x52
 3213 0a31 05       		.uleb128 0x5
 3214 0a32 76       		.byte	0x76
 3215 0a33 00       		.sleb128 0
 3216 0a34 75       		.byte	0x75
 3217 0a35 00       		.sleb128 0
 3218 0a36 22       		.byte	0x22
 3219 0a37 18       		.uleb128 0x18
 3220 0a38 01       		.uleb128 0x1
 3221 0a39 53       		.byte	0x53
 3222 0a3a 02       		.uleb128 0x2
 3223 0a3b 74       		.byte	0x74
 3224 0a3c 00       		.sleb128 0
 3225 0a3d 18       		.uleb128 0x18
 3226 0a3e 02       		.uleb128 0x2
 3227 0a3f 7D       		.byte	0x7d
 3228 0a40 00       		.sleb128 0
 3229 0a41 02       		.uleb128 0x2
 3230 0a42 79       		.byte	0x79
 3231 0a43 00       		.sleb128 0
 3232 0a44 00       		.byte	0
 3233 0a45 00       		.byte	0
 3234 0a46 1A       		.uleb128 0x1a
 3235 0a47 0E060000 		.4byte	.LASF86
 3236 0a4b 01       		.byte	0x1
 3237 0a4c DD02     		.2byte	0x2dd
 3238 0a4e 00000000 		.4byte	.LFB81
 3239 0a52 EA000000 		.4byte	.LFE81-.LFB81
 3240 0a56 01       		.uleb128 0x1
 3241 0a57 9C       		.byte	0x9c
 3242 0a58 DE0B0000 		.4byte	0xbde
 3243 0a5c 13       		.uleb128 0x13
 3244 0a5d 34000000 		.4byte	.LASF87
 3245 0a61 01       		.byte	0x1
 3246 0a62 DD02     		.2byte	0x2dd
 3247 0a64 A1000000 		.4byte	0xa1
 3248 0a68 760A0000 		.4byte	.LLST58
 3249 0a6c 13       		.uleb128 0x13
 3250 0a6d C6030000 		.4byte	.LASF88
 3251 0a71 01       		.byte	0x1
 3252 0a72 DD02     		.2byte	0x2dd
ARM GAS  C:\Users\USUARIO\AppData\Local\Temp\ccVm8SVK.s 			page 79


 3253 0a74 A1000000 		.4byte	0xa1
 3254 0a78 970A0000 		.4byte	.LLST59
 3255 0a7c 13       		.uleb128 0x13
 3256 0a7d D8020000 		.4byte	.LASF89
 3257 0a81 01       		.byte	0x1
 3258 0a82 DE02     		.2byte	0x2de
 3259 0a84 A1000000 		.4byte	0xa1
 3260 0a88 B80A0000 		.4byte	.LLST60
 3261 0a8c 13       		.uleb128 0x13
 3262 0a8d D1000000 		.4byte	.LASF59
 3263 0a91 01       		.byte	0x1
 3264 0a92 DE02     		.2byte	0x2de
 3265 0a94 A1000000 		.4byte	0xa1
 3266 0a98 D90A0000 		.4byte	.LLST61
 3267 0a9c 14       		.uleb128 0x14
 3268 0a9d 06040000 		.4byte	.LASF90
 3269 0aa1 01       		.byte	0x1
 3270 0aa2 E002     		.2byte	0x2e0
 3271 0aa4 B9000000 		.4byte	0xb9
 3272 0aa8 FA0A0000 		.4byte	.LLST62
 3273 0aac 11       		.uleb128 0x11
 3274 0aad 7900     		.ascii	"y\000"
 3275 0aaf 01       		.byte	0x1
 3276 0ab0 E002     		.2byte	0x2e0
 3277 0ab2 B9000000 		.4byte	0xb9
 3278 0ab6 230B0000 		.4byte	.LLST63
 3279 0aba 11       		.uleb128 0x11
 3280 0abb 7800     		.ascii	"x\000"
 3281 0abd 01       		.byte	0x1
 3282 0abe E002     		.2byte	0x2e0
 3283 0ac0 B9000000 		.4byte	0xb9
 3284 0ac4 410B0000 		.4byte	.LLST64
 3285 0ac8 1D       		.uleb128 0x1d
 3286 0ac9 6400     		.ascii	"d\000"
 3287 0acb 01       		.byte	0x1
 3288 0acc E102     		.2byte	0x2e1
 3289 0ace A1000000 		.4byte	0xa1
 3290 0ad2 02       		.uleb128 0x2
 3291 0ad3 91       		.byte	0x91
 3292 0ad4 50       		.sleb128 -48
 3293 0ad5 17       		.uleb128 0x17
 3294 0ad6 44000000 		.4byte	.LVL200
 3295 0ada C2060000 		.4byte	0x6c2
 3296 0ade F70A0000 		.4byte	0xaf7
 3297 0ae2 18       		.uleb128 0x18
 3298 0ae3 01       		.uleb128 0x1
 3299 0ae4 50       		.byte	0x50
 3300 0ae5 02       		.uleb128 0x2
 3301 0ae6 7A       		.byte	0x7a
 3302 0ae7 00       		.sleb128 0
 3303 0ae8 18       		.uleb128 0x18
 3304 0ae9 01       		.uleb128 0x1
 3305 0aea 51       		.byte	0x51
 3306 0aeb 02       		.uleb128 0x2
 3307 0aec 75       		.byte	0x75
 3308 0aed 00       		.sleb128 0
 3309 0aee 18       		.uleb128 0x18
ARM GAS  C:\Users\USUARIO\AppData\Local\Temp\ccVm8SVK.s 			page 80


 3310 0aef 01       		.uleb128 0x1
 3311 0af0 52       		.byte	0x52
 3312 0af1 04       		.uleb128 0x4
 3313 0af2 91       		.byte	0x91
 3314 0af3 4C       		.sleb128 -52
 3315 0af4 94       		.byte	0x94
 3316 0af5 01       		.byte	0x1
 3317 0af6 00       		.byte	0
 3318 0af7 17       		.uleb128 0x17
 3319 0af8 54000000 		.4byte	.LVL201
 3320 0afc C2060000 		.4byte	0x6c2
 3321 0b00 190B0000 		.4byte	0xb19
 3322 0b04 18       		.uleb128 0x18
 3323 0b05 01       		.uleb128 0x1
 3324 0b06 50       		.byte	0x50
 3325 0b07 02       		.uleb128 0x2
 3326 0b08 7A       		.byte	0x7a
 3327 0b09 00       		.sleb128 0
 3328 0b0a 18       		.uleb128 0x18
 3329 0b0b 01       		.uleb128 0x1
 3330 0b0c 51       		.byte	0x51
 3331 0b0d 02       		.uleb128 0x2
 3332 0b0e 74       		.byte	0x74
 3333 0b0f 00       		.sleb128 0
 3334 0b10 18       		.uleb128 0x18
 3335 0b11 01       		.uleb128 0x1
 3336 0b12 52       		.byte	0x52
 3337 0b13 04       		.uleb128 0x4
 3338 0b14 91       		.byte	0x91
 3339 0b15 4C       		.sleb128 -52
 3340 0b16 94       		.byte	0x94
 3341 0b17 01       		.byte	0x1
 3342 0b18 00       		.byte	0
 3343 0b19 17       		.uleb128 0x17
 3344 0b1a 68000000 		.4byte	.LVL202
 3345 0b1e C2060000 		.4byte	0x6c2
 3346 0b22 3B0B0000 		.4byte	0xb3b
 3347 0b26 18       		.uleb128 0x18
 3348 0b27 01       		.uleb128 0x1
 3349 0b28 50       		.byte	0x50
 3350 0b29 02       		.uleb128 0x2
 3351 0b2a 7A       		.byte	0x7a
 3352 0b2b 00       		.sleb128 0
 3353 0b2c 18       		.uleb128 0x18
 3354 0b2d 01       		.uleb128 0x1
 3355 0b2e 51       		.byte	0x51
 3356 0b2f 02       		.uleb128 0x2
 3357 0b30 75       		.byte	0x75
 3358 0b31 00       		.sleb128 0
 3359 0b32 18       		.uleb128 0x18
 3360 0b33 01       		.uleb128 0x1
 3361 0b34 52       		.byte	0x52
 3362 0b35 04       		.uleb128 0x4
 3363 0b36 91       		.byte	0x91
 3364 0b37 4C       		.sleb128 -52
 3365 0b38 94       		.byte	0x94
 3366 0b39 01       		.byte	0x1
ARM GAS  C:\Users\USUARIO\AppData\Local\Temp\ccVm8SVK.s 			page 81


 3367 0b3a 00       		.byte	0
 3368 0b3b 17       		.uleb128 0x17
 3369 0b3c 72000000 		.4byte	.LVL203
 3370 0b40 C2060000 		.4byte	0x6c2
 3371 0b44 5D0B0000 		.4byte	0xb5d
 3372 0b48 18       		.uleb128 0x18
 3373 0b49 01       		.uleb128 0x1
 3374 0b4a 50       		.byte	0x50
 3375 0b4b 02       		.uleb128 0x2
 3376 0b4c 7A       		.byte	0x7a
 3377 0b4d 00       		.sleb128 0
 3378 0b4e 18       		.uleb128 0x18
 3379 0b4f 01       		.uleb128 0x1
 3380 0b50 51       		.byte	0x51
 3381 0b51 02       		.uleb128 0x2
 3382 0b52 74       		.byte	0x74
 3383 0b53 00       		.sleb128 0
 3384 0b54 18       		.uleb128 0x18
 3385 0b55 01       		.uleb128 0x1
 3386 0b56 52       		.byte	0x52
 3387 0b57 04       		.uleb128 0x4
 3388 0b58 91       		.byte	0x91
 3389 0b59 4C       		.sleb128 -52
 3390 0b5a 94       		.byte	0x94
 3391 0b5b 01       		.byte	0x1
 3392 0b5c 00       		.byte	0
 3393 0b5d 17       		.uleb128 0x17
 3394 0b5e 8A000000 		.4byte	.LVL204
 3395 0b62 C2060000 		.4byte	0x6c2
 3396 0b66 7F0B0000 		.4byte	0xb7f
 3397 0b6a 18       		.uleb128 0x18
 3398 0b6b 01       		.uleb128 0x1
 3399 0b6c 50       		.byte	0x50
 3400 0b6d 02       		.uleb128 0x2
 3401 0b6e 75       		.byte	0x75
 3402 0b6f 00       		.sleb128 0
 3403 0b70 18       		.uleb128 0x18
 3404 0b71 01       		.uleb128 0x1
 3405 0b72 51       		.byte	0x51
 3406 0b73 02       		.uleb128 0x2
 3407 0b74 7A       		.byte	0x7a
 3408 0b75 00       		.sleb128 0
 3409 0b76 18       		.uleb128 0x18
 3410 0b77 01       		.uleb128 0x1
 3411 0b78 52       		.byte	0x52
 3412 0b79 04       		.uleb128 0x4
 3413 0b7a 91       		.byte	0x91
 3414 0b7b 4C       		.sleb128 -52
 3415 0b7c 94       		.byte	0x94
 3416 0b7d 01       		.byte	0x1
 3417 0b7e 00       		.byte	0
 3418 0b7f 17       		.uleb128 0x17
 3419 0b80 9A000000 		.4byte	.LVL205
 3420 0b84 C2060000 		.4byte	0x6c2
 3421 0b88 A10B0000 		.4byte	0xba1
 3422 0b8c 18       		.uleb128 0x18
 3423 0b8d 01       		.uleb128 0x1
ARM GAS  C:\Users\USUARIO\AppData\Local\Temp\ccVm8SVK.s 			page 82


 3424 0b8e 50       		.byte	0x50
 3425 0b8f 02       		.uleb128 0x2
 3426 0b90 75       		.byte	0x75
 3427 0b91 00       		.sleb128 0
 3428 0b92 18       		.uleb128 0x18
 3429 0b93 01       		.uleb128 0x1
 3430 0b94 51       		.byte	0x51
 3431 0b95 02       		.uleb128 0x2
 3432 0b96 76       		.byte	0x76
 3433 0b97 00       		.sleb128 0
 3434 0b98 18       		.uleb128 0x18
 3435 0b99 01       		.uleb128 0x1
 3436 0b9a 52       		.byte	0x52
 3437 0b9b 04       		.uleb128 0x4
 3438 0b9c 91       		.byte	0x91
 3439 0b9d 4C       		.sleb128 -52
 3440 0b9e 94       		.byte	0x94
 3441 0b9f 01       		.byte	0x1
 3442 0ba0 00       		.byte	0
 3443 0ba1 17       		.uleb128 0x17
 3444 0ba2 AC000000 		.4byte	.LVL206
 3445 0ba6 C2060000 		.4byte	0x6c2
 3446 0baa C10B0000 		.4byte	0xbc1
 3447 0bae 18       		.uleb128 0x18
 3448 0baf 01       		.uleb128 0x1
 3449 0bb0 50       		.byte	0x50
 3450 0bb1 02       		.uleb128 0x2
 3451 0bb2 74       		.byte	0x74
 3452 0bb3 00       		.sleb128 0
 3453 0bb4 18       		.uleb128 0x18
 3454 0bb5 01       		.uleb128 0x1
 3455 0bb6 51       		.byte	0x51
 3456 0bb7 02       		.uleb128 0x2
 3457 0bb8 7A       		.byte	0x7a
 3458 0bb9 00       		.sleb128 0
 3459 0bba 18       		.uleb128 0x18
 3460 0bbb 01       		.uleb128 0x1
 3461 0bbc 52       		.byte	0x52
 3462 0bbd 02       		.uleb128 0x2
 3463 0bbe 75       		.byte	0x75
 3464 0bbf 00       		.sleb128 0
 3465 0bc0 00       		.byte	0
 3466 0bc1 19       		.uleb128 0x19
 3467 0bc2 B6000000 		.4byte	.LVL207
 3468 0bc6 C2060000 		.4byte	0x6c2
 3469 0bca 18       		.uleb128 0x18
 3470 0bcb 01       		.uleb128 0x1
 3471 0bcc 50       		.byte	0x50
 3472 0bcd 02       		.uleb128 0x2
 3473 0bce 74       		.byte	0x74
 3474 0bcf 00       		.sleb128 0
 3475 0bd0 18       		.uleb128 0x18
 3476 0bd1 01       		.uleb128 0x1
 3477 0bd2 51       		.byte	0x51
 3478 0bd3 02       		.uleb128 0x2
 3479 0bd4 76       		.byte	0x76
 3480 0bd5 00       		.sleb128 0
ARM GAS  C:\Users\USUARIO\AppData\Local\Temp\ccVm8SVK.s 			page 83


 3481 0bd6 18       		.uleb128 0x18
 3482 0bd7 01       		.uleb128 0x1
 3483 0bd8 52       		.byte	0x52
 3484 0bd9 02       		.uleb128 0x2
 3485 0bda 75       		.byte	0x75
 3486 0bdb 00       		.sleb128 0
 3487 0bdc 00       		.byte	0
 3488 0bdd 00       		.byte	0
 3489 0bde 1A       		.uleb128 0x1a
 3490 0bdf C0000000 		.4byte	.LASF91
 3491 0be3 01       		.byte	0x1
 3492 0be4 6E03     		.2byte	0x36e
 3493 0be6 00000000 		.4byte	.LFB83
 3494 0bea C8000000 		.4byte	.LFE83-.LFB83
 3495 0bee 01       		.uleb128 0x1
 3496 0bef 9C       		.byte	0x9c
 3497 0bf0 AF0C0000 		.4byte	0xcaf
 3498 0bf4 13       		.uleb128 0x13
 3499 0bf5 C1030000 		.4byte	.LASF41
 3500 0bf9 01       		.byte	0x1
 3501 0bfa 6E03     		.2byte	0x36e
 3502 0bfc A1000000 		.4byte	0xa1
 3503 0c00 6B0B0000 		.4byte	.LLST65
 3504 0c04 12       		.uleb128 0x12
 3505 0c05 746F7000 		.ascii	"top\000"
 3506 0c09 01       		.byte	0x1
 3507 0c0a 6E03     		.2byte	0x36e
 3508 0c0c A1000000 		.4byte	0xa1
 3509 0c10 8C0B0000 		.4byte	.LLST66
 3510 0c14 13       		.uleb128 0x13
 3511 0c15 3C000000 		.4byte	.LASF92
 3512 0c19 01       		.byte	0x1
 3513 0c1a 6E03     		.2byte	0x36e
 3514 0c1c A1000000 		.4byte	0xa1
 3515 0c20 AA0B0000 		.4byte	.LLST67
 3516 0c24 12       		.uleb128 0x12
 3517 0c25 73747200 		.ascii	"str\000"
 3518 0c29 01       		.byte	0x1
 3519 0c2a 6E03     		.2byte	0x36e
 3520 0c2c 8B000000 		.4byte	0x8b
 3521 0c30 CB0B0000 		.4byte	.LLST68
 3522 0c34 11       		.uleb128 0x11
 3523 0c35 7800     		.ascii	"x\000"
 3524 0c37 01       		.byte	0x1
 3525 0c38 7003     		.2byte	0x370
 3526 0c3a A1000000 		.4byte	0xa1
 3527 0c3e E90B0000 		.4byte	.LLST69
 3528 0c42 14       		.uleb128 0x14
 3529 0c43 BB030000 		.4byte	.LASF44
 3530 0c47 01       		.byte	0x1
 3531 0c48 7103     		.2byte	0x371
 3532 0c4a A1000000 		.4byte	0xa1
 3533 0c4e FC0B0000 		.4byte	.LLST70
 3534 0c52 14       		.uleb128 0x14
 3535 0c53 A8010000 		.4byte	.LASF42
 3536 0c57 01       		.byte	0x1
 3537 0c58 7203     		.2byte	0x372
ARM GAS  C:\Users\USUARIO\AppData\Local\Temp\ccVm8SVK.s 			page 84


 3538 0c5a A1000000 		.4byte	0xa1
 3539 0c5e 250C0000 		.4byte	.LLST71
 3540 0c62 14       		.uleb128 0x14
 3541 0c63 1F030000 		.4byte	.LASF43
 3542 0c67 01       		.byte	0x1
 3543 0c68 7303     		.2byte	0x373
 3544 0c6a A1000000 		.4byte	0xa1
 3545 0c6e 380C0000 		.4byte	.LLST72
 3546 0c72 14       		.uleb128 0x14
 3547 0c73 07010000 		.4byte	.LASF28
 3548 0c77 01       		.byte	0x1
 3549 0c78 7403     		.2byte	0x374
 3550 0c7a A1000000 		.4byte	0xa1
 3551 0c7e 620C0000 		.4byte	.LLST73
 3552 0c82 14       		.uleb128 0x14
 3553 0c83 DF020000 		.4byte	.LASF93
 3554 0c87 01       		.byte	0x1
 3555 0c88 7503     		.2byte	0x375
 3556 0c8a 8E010000 		.4byte	0x18e
 3557 0c8e 750C0000 		.4byte	.LLST74
 3558 0c92 19       		.uleb128 0x19
 3559 0c93 AE000000 		.4byte	.LVL234
 3560 0c97 FD010000 		.4byte	0x1fd
 3561 0c9b 18       		.uleb128 0x18
 3562 0c9c 01       		.uleb128 0x1
 3563 0c9d 50       		.byte	0x50
 3564 0c9e 02       		.uleb128 0x2
 3565 0c9f 78       		.byte	0x78
 3566 0ca0 00       		.sleb128 0
 3567 0ca1 18       		.uleb128 0x18
 3568 0ca2 01       		.uleb128 0x1
 3569 0ca3 51       		.byte	0x51
 3570 0ca4 02       		.uleb128 0x2
 3571 0ca5 76       		.byte	0x76
 3572 0ca6 00       		.sleb128 0
 3573 0ca7 18       		.uleb128 0x18
 3574 0ca8 01       		.uleb128 0x1
 3575 0ca9 52       		.byte	0x52
 3576 0caa 02       		.uleb128 0x2
 3577 0cab 75       		.byte	0x75
 3578 0cac 00       		.sleb128 0
 3579 0cad 00       		.byte	0
 3580 0cae 00       		.byte	0
 3581 0caf 1A       		.uleb128 0x1a
 3582 0cb0 9F020000 		.4byte	.LASF94
 3583 0cb4 01       		.byte	0x1
 3584 0cb5 BD03     		.2byte	0x3bd
 3585 0cb7 00000000 		.4byte	.LFB84
 3586 0cbb 68000000 		.4byte	.LFE84-.LFB84
 3587 0cbf 01       		.uleb128 0x1
 3588 0cc0 9C       		.byte	0x9c
 3589 0cc1 740D0000 		.4byte	0xd74
 3590 0cc5 13       		.uleb128 0x13
 3591 0cc6 FE030000 		.4byte	.LASF95
 3592 0cca 01       		.byte	0x1
 3593 0ccb BD03     		.2byte	0x3bd
 3594 0ccd 8E010000 		.4byte	0x18e
ARM GAS  C:\Users\USUARIO\AppData\Local\Temp\ccVm8SVK.s 			page 85


 3595 0cd1 940C0000 		.4byte	.LLST75
 3596 0cd5 11       		.uleb128 0x11
 3597 0cd6 6900     		.ascii	"i\000"
 3598 0cd8 01       		.byte	0x1
 3599 0cd9 C003     		.2byte	0x3c0
 3600 0cdb 2C000000 		.4byte	0x2c
 3601 0cdf C00C0000 		.4byte	.LLST76
 3602 0ce3 11       		.uleb128 0x11
 3603 0ce4 7800     		.ascii	"x\000"
 3604 0ce6 01       		.byte	0x1
 3605 0ce7 C003     		.2byte	0x3c0
 3606 0ce9 2C000000 		.4byte	0x2c
 3607 0ced DF0C0000 		.4byte	.LLST77
 3608 0cf1 11       		.uleb128 0x11
 3609 0cf2 7900     		.ascii	"y\000"
 3610 0cf4 01       		.byte	0x1
 3611 0cf5 C003     		.2byte	0x3c0
 3612 0cf7 2C000000 		.4byte	0x2c
 3613 0cfb FE0C0000 		.4byte	.LLST78
 3614 0cff 14       		.uleb128 0x14
 3615 0d00 F9030000 		.4byte	.LASF72
 3616 0d04 01       		.byte	0x1
 3617 0d05 C103     		.2byte	0x3c1
 3618 0d07 A1000000 		.4byte	0xa1
 3619 0d0b 1D0D0000 		.4byte	.LLST79
 3620 0d0f 11       		.uleb128 0x11
 3621 0d10 69647800 		.ascii	"idx\000"
 3622 0d14 01       		.byte	0x1
 3623 0d15 C203     		.2byte	0x3c2
 3624 0d17 AD000000 		.4byte	0xad
 3625 0d1b 490D0000 		.4byte	.LLST80
 3626 0d1f 17       		.uleb128 0x17
 3627 0d20 0E000000 		.4byte	.LVL241
 3628 0d24 99010000 		.4byte	0x199
 3629 0d28 330D0000 		.4byte	0xd33
 3630 0d2c 18       		.uleb128 0x18
 3631 0d2d 01       		.uleb128 0x1
 3632 0d2e 50       		.byte	0x50
 3633 0d2f 02       		.uleb128 0x2
 3634 0d30 76       		.byte	0x76
 3635 0d31 00       		.sleb128 0
 3636 0d32 00       		.byte	0
 3637 0d33 17       		.uleb128 0x17
 3638 0d34 18000000 		.4byte	.LVL243
 3639 0d38 5F040000 		.4byte	0x45f
 3640 0d3c 470D0000 		.4byte	0xd47
 3641 0d40 18       		.uleb128 0x18
 3642 0d41 01       		.uleb128 0x1
 3643 0d42 50       		.byte	0x50
 3644 0d43 02       		.uleb128 0x2
 3645 0d44 75       		.byte	0x75
 3646 0d45 00       		.sleb128 0
 3647 0d46 00       		.byte	0
 3648 0d47 17       		.uleb128 0x17
 3649 0d48 1E000000 		.4byte	.LVL244
 3650 0d4c 8F040000 		.4byte	0x48f
 3651 0d50 5A0D0000 		.4byte	0xd5a
ARM GAS  C:\Users\USUARIO\AppData\Local\Temp\ccVm8SVK.s 			page 86


 3652 0d54 18       		.uleb128 0x18
 3653 0d55 01       		.uleb128 0x1
 3654 0d56 50       		.byte	0x50
 3655 0d57 01       		.uleb128 0x1
 3656 0d58 30       		.byte	0x30
 3657 0d59 00       		.byte	0
 3658 0d5a 16       		.uleb128 0x16
 3659 0d5b 4A000000 		.4byte	.LVL255
 3660 0d5f BF040000 		.4byte	0x4bf
 3661 0d63 19       		.uleb128 0x19
 3662 0d64 62000000 		.4byte	.LVL259
 3663 0d68 99010000 		.4byte	0x199
 3664 0d6c 18       		.uleb128 0x18
 3665 0d6d 01       		.uleb128 0x1
 3666 0d6e 50       		.byte	0x50
 3667 0d6f 02       		.uleb128 0x2
 3668 0d70 08       		.byte	0x8
 3669 0d71 63       		.byte	0x63
 3670 0d72 00       		.byte	0
 3671 0d73 00       		.byte	0
 3672 0d74 1E       		.uleb128 0x1e
 3673 0d75 5B000000 		.4byte	.LASF96
 3674 0d79 01       		.byte	0x1
 3675 0d7a 7C       		.byte	0x7c
 3676 0d7b A1000000 		.4byte	0xa1
 3677 0d7f 05       		.uleb128 0x5
 3678 0d80 03       		.byte	0x3
 3679 0d81 00040000 		.4byte	gGLCD_inverted
 3680 0d85 1F       		.uleb128 0x1f
 3681 0d86 A1000000 		.4byte	0xa1
 3682 0d8a 9B0D0000 		.4byte	0xd9b
 3683 0d8e 20       		.uleb128 0x20
 3684 0d8f 7D000000 		.4byte	0x7d
 3685 0d93 07       		.byte	0x7
 3686 0d94 20       		.uleb128 0x20
 3687 0d95 7D000000 		.4byte	0x7d
 3688 0d99 7F       		.byte	0x7f
 3689 0d9a 00       		.byte	0
 3690 0d9b 1E       		.uleb128 0x1e
 3691 0d9c 18000000 		.4byte	.LASF97
 3692 0da0 01       		.byte	0x1
 3693 0da1 7E       		.byte	0x7e
 3694 0da2 850D0000 		.4byte	0xd85
 3695 0da6 05       		.uleb128 0x5
 3696 0da7 03       		.byte	0x3
 3697 0da8 00000000 		.4byte	gGLCD_buffer
 3698 0dac 1F       		.uleb128 0x1f
 3699 0dad 94010000 		.4byte	0x194
 3700 0db1 BC0D0000 		.4byte	0xdbc
 3701 0db5 20       		.uleb128 0x20
 3702 0db6 7D000000 		.4byte	0x7d
 3703 0dba 07       		.byte	0x7
 3704 0dbb 00       		.byte	0
 3705 0dbc 1E       		.uleb128 0x1e
 3706 0dbd 1E010000 		.4byte	.LASF98
 3707 0dc1 01       		.byte	0x1
 3708 0dc2 85       		.byte	0x85
ARM GAS  C:\Users\USUARIO\AppData\Local\Temp\ccVm8SVK.s 			page 87


 3709 0dc3 CD0D0000 		.4byte	0xdcd
 3710 0dc7 05       		.uleb128 0x5
 3711 0dc8 03       		.byte	0x3
 3712 0dc9 00000000 		.4byte	GLCD_MaskArray
 3713 0dcd 06       		.uleb128 0x6
 3714 0dce AC0D0000 		.4byte	0xdac
 3715 0dd2 21       		.uleb128 0x21
 3716 0dd3 53050000 		.4byte	.LASF99
 3717 0dd7 06       		.byte	0x6
 3718 0dd8 1207     		.2byte	0x712
 3719 0dda DE0D0000 		.4byte	0xdde
 3720 0dde 08       		.uleb128 0x8
 3721 0ddf 96000000 		.4byte	0x96
 3722 0de3 1F       		.uleb128 0x1f
 3723 0de4 F30D0000 		.4byte	0xdf3
 3724 0de8 F30D0000 		.4byte	0xdf3
 3725 0dec 20       		.uleb128 0x20
 3726 0ded 7D000000 		.4byte	0x7d
 3727 0df1 06       		.byte	0x6
 3728 0df2 00       		.byte	0
 3729 0df3 06       		.uleb128 0x6
 3730 0df4 21010000 		.4byte	0x121
 3731 0df8 22       		.uleb128 0x22
 3732 0df9 8E010000 		.4byte	.LASF100
 3733 0dfd 05       		.byte	0x5
 3734 0dfe 44       		.byte	0x44
 3735 0dff 030E0000 		.4byte	0xe03
 3736 0e03 06       		.uleb128 0x6
 3737 0e04 E30D0000 		.4byte	0xde3
 3738 0e08 23       		.uleb128 0x23
 3739 0e09 13040000 		.4byte	.LASF101
 3740 0e0d 13040000 		.4byte	.LASF101
 3741 0e11 07       		.byte	0x7
 3742 0e12 6A       		.byte	0x6a
 3743 0e13 23       		.uleb128 0x23
 3744 0e14 4F010000 		.4byte	.LASF102
 3745 0e18 4F010000 		.4byte	.LASF102
 3746 0e1c 08       		.byte	0x8
 3747 0e1d 2F       		.byte	0x2f
 3748 0e1e 23       		.uleb128 0x23
 3749 0e1f 21060000 		.4byte	.LASF103
 3750 0e23 21060000 		.4byte	.LASF103
 3751 0e27 07       		.byte	0x7
 3752 0e28 5A       		.byte	0x5a
 3753 0e29 23       		.uleb128 0x23
 3754 0e2a 31050000 		.4byte	.LASF104
 3755 0e2e 31050000 		.4byte	.LASF104
 3756 0e32 07       		.byte	0x7
 3757 0e33 69       		.byte	0x69
 3758 0e34 00       		.byte	0
 3759              		.section	.debug_abbrev,"",%progbits
 3760              	.Ldebug_abbrev0:
 3761 0000 01       		.uleb128 0x1
 3762 0001 11       		.uleb128 0x11
 3763 0002 01       		.byte	0x1
 3764 0003 25       		.uleb128 0x25
 3765 0004 0E       		.uleb128 0xe
ARM GAS  C:\Users\USUARIO\AppData\Local\Temp\ccVm8SVK.s 			page 88


 3766 0005 13       		.uleb128 0x13
 3767 0006 0B       		.uleb128 0xb
 3768 0007 03       		.uleb128 0x3
 3769 0008 0E       		.uleb128 0xe
 3770 0009 1B       		.uleb128 0x1b
 3771 000a 0E       		.uleb128 0xe
 3772 000b 55       		.uleb128 0x55
 3773 000c 17       		.uleb128 0x17
 3774 000d 11       		.uleb128 0x11
 3775 000e 01       		.uleb128 0x1
 3776 000f 10       		.uleb128 0x10
 3777 0010 17       		.uleb128 0x17
 3778 0011 00       		.byte	0
 3779 0012 00       		.byte	0
 3780 0013 02       		.uleb128 0x2
 3781 0014 24       		.uleb128 0x24
 3782 0015 00       		.byte	0
 3783 0016 0B       		.uleb128 0xb
 3784 0017 0B       		.uleb128 0xb
 3785 0018 3E       		.uleb128 0x3e
 3786 0019 0B       		.uleb128 0xb
 3787 001a 03       		.uleb128 0x3
 3788 001b 0E       		.uleb128 0xe
 3789 001c 00       		.byte	0
 3790 001d 00       		.byte	0
 3791 001e 03       		.uleb128 0x3
 3792 001f 24       		.uleb128 0x24
 3793 0020 00       		.byte	0
 3794 0021 0B       		.uleb128 0xb
 3795 0022 0B       		.uleb128 0xb
 3796 0023 3E       		.uleb128 0x3e
 3797 0024 0B       		.uleb128 0xb
 3798 0025 03       		.uleb128 0x3
 3799 0026 08       		.uleb128 0x8
 3800 0027 00       		.byte	0
 3801 0028 00       		.byte	0
 3802 0029 04       		.uleb128 0x4
 3803 002a 16       		.uleb128 0x16
 3804 002b 00       		.byte	0
 3805 002c 03       		.uleb128 0x3
 3806 002d 0E       		.uleb128 0xe
 3807 002e 3A       		.uleb128 0x3a
 3808 002f 0B       		.uleb128 0xb
 3809 0030 3B       		.uleb128 0x3b
 3810 0031 0B       		.uleb128 0xb
 3811 0032 49       		.uleb128 0x49
 3812 0033 13       		.uleb128 0x13
 3813 0034 00       		.byte	0
 3814 0035 00       		.byte	0
 3815 0036 05       		.uleb128 0x5
 3816 0037 0F       		.uleb128 0xf
 3817 0038 00       		.byte	0
 3818 0039 0B       		.uleb128 0xb
 3819 003a 0B       		.uleb128 0xb
 3820 003b 49       		.uleb128 0x49
 3821 003c 13       		.uleb128 0x13
 3822 003d 00       		.byte	0
ARM GAS  C:\Users\USUARIO\AppData\Local\Temp\ccVm8SVK.s 			page 89


 3823 003e 00       		.byte	0
 3824 003f 06       		.uleb128 0x6
 3825 0040 26       		.uleb128 0x26
 3826 0041 00       		.byte	0
 3827 0042 49       		.uleb128 0x49
 3828 0043 13       		.uleb128 0x13
 3829 0044 00       		.byte	0
 3830 0045 00       		.byte	0
 3831 0046 07       		.uleb128 0x7
 3832 0047 16       		.uleb128 0x16
 3833 0048 00       		.byte	0
 3834 0049 03       		.uleb128 0x3
 3835 004a 0E       		.uleb128 0xe
 3836 004b 3A       		.uleb128 0x3a
 3837 004c 0B       		.uleb128 0xb
 3838 004d 3B       		.uleb128 0x3b
 3839 004e 05       		.uleb128 0x5
 3840 004f 49       		.uleb128 0x49
 3841 0050 13       		.uleb128 0x13
 3842 0051 00       		.byte	0
 3843 0052 00       		.byte	0
 3844 0053 08       		.uleb128 0x8
 3845 0054 35       		.uleb128 0x35
 3846 0055 00       		.byte	0
 3847 0056 49       		.uleb128 0x49
 3848 0057 13       		.uleb128 0x13
 3849 0058 00       		.byte	0
 3850 0059 00       		.byte	0
 3851 005a 09       		.uleb128 0x9
 3852 005b 04       		.uleb128 0x4
 3853 005c 01       		.byte	0x1
 3854 005d 0B       		.uleb128 0xb
 3855 005e 0B       		.uleb128 0xb
 3856 005f 49       		.uleb128 0x49
 3857 0060 13       		.uleb128 0x13
 3858 0061 3A       		.uleb128 0x3a
 3859 0062 0B       		.uleb128 0xb
 3860 0063 3B       		.uleb128 0x3b
 3861 0064 0B       		.uleb128 0xb
 3862 0065 01       		.uleb128 0x1
 3863 0066 13       		.uleb128 0x13
 3864 0067 00       		.byte	0
 3865 0068 00       		.byte	0
 3866 0069 0A       		.uleb128 0xa
 3867 006a 28       		.uleb128 0x28
 3868 006b 00       		.byte	0
 3869 006c 03       		.uleb128 0x3
 3870 006d 0E       		.uleb128 0xe
 3871 006e 1C       		.uleb128 0x1c
 3872 006f 0B       		.uleb128 0xb
 3873 0070 00       		.byte	0
 3874 0071 00       		.byte	0
 3875 0072 0B       		.uleb128 0xb
 3876 0073 13       		.uleb128 0x13
 3877 0074 01       		.byte	0x1
 3878 0075 03       		.uleb128 0x3
 3879 0076 0E       		.uleb128 0xe
ARM GAS  C:\Users\USUARIO\AppData\Local\Temp\ccVm8SVK.s 			page 90


 3880 0077 0B       		.uleb128 0xb
 3881 0078 0B       		.uleb128 0xb
 3882 0079 3A       		.uleb128 0x3a
 3883 007a 0B       		.uleb128 0xb
 3884 007b 3B       		.uleb128 0x3b
 3885 007c 0B       		.uleb128 0xb
 3886 007d 01       		.uleb128 0x1
 3887 007e 13       		.uleb128 0x13
 3888 007f 00       		.byte	0
 3889 0080 00       		.byte	0
 3890 0081 0C       		.uleb128 0xc
 3891 0082 0D       		.uleb128 0xd
 3892 0083 00       		.byte	0
 3893 0084 03       		.uleb128 0x3
 3894 0085 0E       		.uleb128 0xe
 3895 0086 3A       		.uleb128 0x3a
 3896 0087 0B       		.uleb128 0xb
 3897 0088 3B       		.uleb128 0x3b
 3898 0089 0B       		.uleb128 0xb
 3899 008a 49       		.uleb128 0x49
 3900 008b 13       		.uleb128 0x13
 3901 008c 38       		.uleb128 0x38
 3902 008d 0B       		.uleb128 0xb
 3903 008e 00       		.byte	0
 3904 008f 00       		.byte	0
 3905 0090 0D       		.uleb128 0xd
 3906 0091 2E       		.uleb128 0x2e
 3907 0092 01       		.byte	0x1
 3908 0093 03       		.uleb128 0x3
 3909 0094 0E       		.uleb128 0xe
 3910 0095 3A       		.uleb128 0x3a
 3911 0096 0B       		.uleb128 0xb
 3912 0097 3B       		.uleb128 0x3b
 3913 0098 0B       		.uleb128 0xb
 3914 0099 27       		.uleb128 0x27
 3915 009a 19       		.uleb128 0x19
 3916 009b 11       		.uleb128 0x11
 3917 009c 01       		.uleb128 0x1
 3918 009d 12       		.uleb128 0x12
 3919 009e 06       		.uleb128 0x6
 3920 009f 40       		.uleb128 0x40
 3921 00a0 18       		.uleb128 0x18
 3922 00a1 9742     		.uleb128 0x2117
 3923 00a3 19       		.uleb128 0x19
 3924 00a4 01       		.uleb128 0x1
 3925 00a5 13       		.uleb128 0x13
 3926 00a6 00       		.byte	0
 3927 00a7 00       		.byte	0
 3928 00a8 0E       		.uleb128 0xe
 3929 00a9 05       		.uleb128 0x5
 3930 00aa 00       		.byte	0
 3931 00ab 03       		.uleb128 0x3
 3932 00ac 0E       		.uleb128 0xe
 3933 00ad 3A       		.uleb128 0x3a
 3934 00ae 0B       		.uleb128 0xb
 3935 00af 3B       		.uleb128 0x3b
 3936 00b0 0B       		.uleb128 0xb
ARM GAS  C:\Users\USUARIO\AppData\Local\Temp\ccVm8SVK.s 			page 91


 3937 00b1 49       		.uleb128 0x49
 3938 00b2 13       		.uleb128 0x13
 3939 00b3 02       		.uleb128 0x2
 3940 00b4 18       		.uleb128 0x18
 3941 00b5 00       		.byte	0
 3942 00b6 00       		.byte	0
 3943 00b7 0F       		.uleb128 0xf
 3944 00b8 2E       		.uleb128 0x2e
 3945 00b9 01       		.byte	0x1
 3946 00ba 03       		.uleb128 0x3
 3947 00bb 0E       		.uleb128 0xe
 3948 00bc 3A       		.uleb128 0x3a
 3949 00bd 0B       		.uleb128 0xb
 3950 00be 3B       		.uleb128 0x3b
 3951 00bf 05       		.uleb128 0x5
 3952 00c0 27       		.uleb128 0x27
 3953 00c1 19       		.uleb128 0x19
 3954 00c2 11       		.uleb128 0x11
 3955 00c3 01       		.uleb128 0x1
 3956 00c4 12       		.uleb128 0x12
 3957 00c5 06       		.uleb128 0x6
 3958 00c6 40       		.uleb128 0x40
 3959 00c7 18       		.uleb128 0x18
 3960 00c8 9742     		.uleb128 0x2117
 3961 00ca 19       		.uleb128 0x19
 3962 00cb 01       		.uleb128 0x1
 3963 00cc 13       		.uleb128 0x13
 3964 00cd 00       		.byte	0
 3965 00ce 00       		.byte	0
 3966 00cf 10       		.uleb128 0x10
 3967 00d0 05       		.uleb128 0x5
 3968 00d1 00       		.byte	0
 3969 00d2 03       		.uleb128 0x3
 3970 00d3 0E       		.uleb128 0xe
 3971 00d4 3A       		.uleb128 0x3a
 3972 00d5 0B       		.uleb128 0xb
 3973 00d6 3B       		.uleb128 0x3b
 3974 00d7 05       		.uleb128 0x5
 3975 00d8 49       		.uleb128 0x49
 3976 00d9 13       		.uleb128 0x13
 3977 00da 02       		.uleb128 0x2
 3978 00db 18       		.uleb128 0x18
 3979 00dc 00       		.byte	0
 3980 00dd 00       		.byte	0
 3981 00de 11       		.uleb128 0x11
 3982 00df 34       		.uleb128 0x34
 3983 00e0 00       		.byte	0
 3984 00e1 03       		.uleb128 0x3
 3985 00e2 08       		.uleb128 0x8
 3986 00e3 3A       		.uleb128 0x3a
 3987 00e4 0B       		.uleb128 0xb
 3988 00e5 3B       		.uleb128 0x3b
 3989 00e6 05       		.uleb128 0x5
 3990 00e7 49       		.uleb128 0x49
 3991 00e8 13       		.uleb128 0x13
 3992 00e9 02       		.uleb128 0x2
 3993 00ea 17       		.uleb128 0x17
ARM GAS  C:\Users\USUARIO\AppData\Local\Temp\ccVm8SVK.s 			page 92


 3994 00eb 00       		.byte	0
 3995 00ec 00       		.byte	0
 3996 00ed 12       		.uleb128 0x12
 3997 00ee 05       		.uleb128 0x5
 3998 00ef 00       		.byte	0
 3999 00f0 03       		.uleb128 0x3
 4000 00f1 08       		.uleb128 0x8
 4001 00f2 3A       		.uleb128 0x3a
 4002 00f3 0B       		.uleb128 0xb
 4003 00f4 3B       		.uleb128 0x3b
 4004 00f5 05       		.uleb128 0x5
 4005 00f6 49       		.uleb128 0x49
 4006 00f7 13       		.uleb128 0x13
 4007 00f8 02       		.uleb128 0x2
 4008 00f9 17       		.uleb128 0x17
 4009 00fa 00       		.byte	0
 4010 00fb 00       		.byte	0
 4011 00fc 13       		.uleb128 0x13
 4012 00fd 05       		.uleb128 0x5
 4013 00fe 00       		.byte	0
 4014 00ff 03       		.uleb128 0x3
 4015 0100 0E       		.uleb128 0xe
 4016 0101 3A       		.uleb128 0x3a
 4017 0102 0B       		.uleb128 0xb
 4018 0103 3B       		.uleb128 0x3b
 4019 0104 05       		.uleb128 0x5
 4020 0105 49       		.uleb128 0x49
 4021 0106 13       		.uleb128 0x13
 4022 0107 02       		.uleb128 0x2
 4023 0108 17       		.uleb128 0x17
 4024 0109 00       		.byte	0
 4025 010a 00       		.byte	0
 4026 010b 14       		.uleb128 0x14
 4027 010c 34       		.uleb128 0x34
 4028 010d 00       		.byte	0
 4029 010e 03       		.uleb128 0x3
 4030 010f 0E       		.uleb128 0xe
 4031 0110 3A       		.uleb128 0x3a
 4032 0111 0B       		.uleb128 0xb
 4033 0112 3B       		.uleb128 0x3b
 4034 0113 05       		.uleb128 0x5
 4035 0114 49       		.uleb128 0x49
 4036 0115 13       		.uleb128 0x13
 4037 0116 02       		.uleb128 0x2
 4038 0117 17       		.uleb128 0x17
 4039 0118 00       		.byte	0
 4040 0119 00       		.byte	0
 4041 011a 15       		.uleb128 0x15
 4042 011b 05       		.uleb128 0x5
 4043 011c 00       		.byte	0
 4044 011d 03       		.uleb128 0x3
 4045 011e 0E       		.uleb128 0xe
 4046 011f 3A       		.uleb128 0x3a
 4047 0120 0B       		.uleb128 0xb
 4048 0121 3B       		.uleb128 0x3b
 4049 0122 0B       		.uleb128 0xb
 4050 0123 49       		.uleb128 0x49
ARM GAS  C:\Users\USUARIO\AppData\Local\Temp\ccVm8SVK.s 			page 93


 4051 0124 13       		.uleb128 0x13
 4052 0125 02       		.uleb128 0x2
 4053 0126 17       		.uleb128 0x17
 4054 0127 00       		.byte	0
 4055 0128 00       		.byte	0
 4056 0129 16       		.uleb128 0x16
 4057 012a 898201   		.uleb128 0x4109
 4058 012d 00       		.byte	0
 4059 012e 11       		.uleb128 0x11
 4060 012f 01       		.uleb128 0x1
 4061 0130 31       		.uleb128 0x31
 4062 0131 13       		.uleb128 0x13
 4063 0132 00       		.byte	0
 4064 0133 00       		.byte	0
 4065 0134 17       		.uleb128 0x17
 4066 0135 898201   		.uleb128 0x4109
 4067 0138 01       		.byte	0x1
 4068 0139 11       		.uleb128 0x11
 4069 013a 01       		.uleb128 0x1
 4070 013b 31       		.uleb128 0x31
 4071 013c 13       		.uleb128 0x13
 4072 013d 01       		.uleb128 0x1
 4073 013e 13       		.uleb128 0x13
 4074 013f 00       		.byte	0
 4075 0140 00       		.byte	0
 4076 0141 18       		.uleb128 0x18
 4077 0142 8A8201   		.uleb128 0x410a
 4078 0145 00       		.byte	0
 4079 0146 02       		.uleb128 0x2
 4080 0147 18       		.uleb128 0x18
 4081 0148 9142     		.uleb128 0x2111
 4082 014a 18       		.uleb128 0x18
 4083 014b 00       		.byte	0
 4084 014c 00       		.byte	0
 4085 014d 19       		.uleb128 0x19
 4086 014e 898201   		.uleb128 0x4109
 4087 0151 01       		.byte	0x1
 4088 0152 11       		.uleb128 0x11
 4089 0153 01       		.uleb128 0x1
 4090 0154 31       		.uleb128 0x31
 4091 0155 13       		.uleb128 0x13
 4092 0156 00       		.byte	0
 4093 0157 00       		.byte	0
 4094 0158 1A       		.uleb128 0x1a
 4095 0159 2E       		.uleb128 0x2e
 4096 015a 01       		.byte	0x1
 4097 015b 3F       		.uleb128 0x3f
 4098 015c 19       		.uleb128 0x19
 4099 015d 03       		.uleb128 0x3
 4100 015e 0E       		.uleb128 0xe
 4101 015f 3A       		.uleb128 0x3a
 4102 0160 0B       		.uleb128 0xb
 4103 0161 3B       		.uleb128 0x3b
 4104 0162 05       		.uleb128 0x5
 4105 0163 27       		.uleb128 0x27
 4106 0164 19       		.uleb128 0x19
 4107 0165 11       		.uleb128 0x11
ARM GAS  C:\Users\USUARIO\AppData\Local\Temp\ccVm8SVK.s 			page 94


 4108 0166 01       		.uleb128 0x1
 4109 0167 12       		.uleb128 0x12
 4110 0168 06       		.uleb128 0x6
 4111 0169 40       		.uleb128 0x40
 4112 016a 18       		.uleb128 0x18
 4113 016b 9742     		.uleb128 0x2117
 4114 016d 19       		.uleb128 0x19
 4115 016e 01       		.uleb128 0x1
 4116 016f 13       		.uleb128 0x13
 4117 0170 00       		.byte	0
 4118 0171 00       		.byte	0
 4119 0172 1B       		.uleb128 0x1b
 4120 0173 05       		.uleb128 0x5
 4121 0174 00       		.byte	0
 4122 0175 03       		.uleb128 0x3
 4123 0176 08       		.uleb128 0x8
 4124 0177 3A       		.uleb128 0x3a
 4125 0178 0B       		.uleb128 0xb
 4126 0179 3B       		.uleb128 0x3b
 4127 017a 05       		.uleb128 0x5
 4128 017b 49       		.uleb128 0x49
 4129 017c 13       		.uleb128 0x13
 4130 017d 02       		.uleb128 0x2
 4131 017e 18       		.uleb128 0x18
 4132 017f 00       		.byte	0
 4133 0180 00       		.byte	0
 4134 0181 1C       		.uleb128 0x1c
 4135 0182 34       		.uleb128 0x34
 4136 0183 00       		.byte	0
 4137 0184 03       		.uleb128 0x3
 4138 0185 0E       		.uleb128 0xe
 4139 0186 3A       		.uleb128 0x3a
 4140 0187 0B       		.uleb128 0xb
 4141 0188 3B       		.uleb128 0x3b
 4142 0189 05       		.uleb128 0x5
 4143 018a 49       		.uleb128 0x49
 4144 018b 13       		.uleb128 0x13
 4145 018c 00       		.byte	0
 4146 018d 00       		.byte	0
 4147 018e 1D       		.uleb128 0x1d
 4148 018f 34       		.uleb128 0x34
 4149 0190 00       		.byte	0
 4150 0191 03       		.uleb128 0x3
 4151 0192 08       		.uleb128 0x8
 4152 0193 3A       		.uleb128 0x3a
 4153 0194 0B       		.uleb128 0xb
 4154 0195 3B       		.uleb128 0x3b
 4155 0196 05       		.uleb128 0x5
 4156 0197 49       		.uleb128 0x49
 4157 0198 13       		.uleb128 0x13
 4158 0199 02       		.uleb128 0x2
 4159 019a 18       		.uleb128 0x18
 4160 019b 00       		.byte	0
 4161 019c 00       		.byte	0
 4162 019d 1E       		.uleb128 0x1e
 4163 019e 34       		.uleb128 0x34
 4164 019f 00       		.byte	0
ARM GAS  C:\Users\USUARIO\AppData\Local\Temp\ccVm8SVK.s 			page 95


 4165 01a0 03       		.uleb128 0x3
 4166 01a1 0E       		.uleb128 0xe
 4167 01a2 3A       		.uleb128 0x3a
 4168 01a3 0B       		.uleb128 0xb
 4169 01a4 3B       		.uleb128 0x3b
 4170 01a5 0B       		.uleb128 0xb
 4171 01a6 49       		.uleb128 0x49
 4172 01a7 13       		.uleb128 0x13
 4173 01a8 02       		.uleb128 0x2
 4174 01a9 18       		.uleb128 0x18
 4175 01aa 00       		.byte	0
 4176 01ab 00       		.byte	0
 4177 01ac 1F       		.uleb128 0x1f
 4178 01ad 01       		.uleb128 0x1
 4179 01ae 01       		.byte	0x1
 4180 01af 49       		.uleb128 0x49
 4181 01b0 13       		.uleb128 0x13
 4182 01b1 01       		.uleb128 0x1
 4183 01b2 13       		.uleb128 0x13
 4184 01b3 00       		.byte	0
 4185 01b4 00       		.byte	0
 4186 01b5 20       		.uleb128 0x20
 4187 01b6 21       		.uleb128 0x21
 4188 01b7 00       		.byte	0
 4189 01b8 49       		.uleb128 0x49
 4190 01b9 13       		.uleb128 0x13
 4191 01ba 2F       		.uleb128 0x2f
 4192 01bb 0B       		.uleb128 0xb
 4193 01bc 00       		.byte	0
 4194 01bd 00       		.byte	0
 4195 01be 21       		.uleb128 0x21
 4196 01bf 34       		.uleb128 0x34
 4197 01c0 00       		.byte	0
 4198 01c1 03       		.uleb128 0x3
 4199 01c2 0E       		.uleb128 0xe
 4200 01c3 3A       		.uleb128 0x3a
 4201 01c4 0B       		.uleb128 0xb
 4202 01c5 3B       		.uleb128 0x3b
 4203 01c6 05       		.uleb128 0x5
 4204 01c7 49       		.uleb128 0x49
 4205 01c8 13       		.uleb128 0x13
 4206 01c9 3F       		.uleb128 0x3f
 4207 01ca 19       		.uleb128 0x19
 4208 01cb 3C       		.uleb128 0x3c
 4209 01cc 19       		.uleb128 0x19
 4210 01cd 00       		.byte	0
 4211 01ce 00       		.byte	0
 4212 01cf 22       		.uleb128 0x22
 4213 01d0 34       		.uleb128 0x34
 4214 01d1 00       		.byte	0
 4215 01d2 03       		.uleb128 0x3
 4216 01d3 0E       		.uleb128 0xe
 4217 01d4 3A       		.uleb128 0x3a
 4218 01d5 0B       		.uleb128 0xb
 4219 01d6 3B       		.uleb128 0x3b
 4220 01d7 0B       		.uleb128 0xb
 4221 01d8 49       		.uleb128 0x49
ARM GAS  C:\Users\USUARIO\AppData\Local\Temp\ccVm8SVK.s 			page 96


 4222 01d9 13       		.uleb128 0x13
 4223 01da 3F       		.uleb128 0x3f
 4224 01db 19       		.uleb128 0x19
 4225 01dc 3C       		.uleb128 0x3c
 4226 01dd 19       		.uleb128 0x19
 4227 01de 00       		.byte	0
 4228 01df 00       		.byte	0
 4229 01e0 23       		.uleb128 0x23
 4230 01e1 2E       		.uleb128 0x2e
 4231 01e2 00       		.byte	0
 4232 01e3 3F       		.uleb128 0x3f
 4233 01e4 19       		.uleb128 0x19
 4234 01e5 3C       		.uleb128 0x3c
 4235 01e6 19       		.uleb128 0x19
 4236 01e7 6E       		.uleb128 0x6e
 4237 01e8 0E       		.uleb128 0xe
 4238 01e9 03       		.uleb128 0x3
 4239 01ea 0E       		.uleb128 0xe
 4240 01eb 3A       		.uleb128 0x3a
 4241 01ec 0B       		.uleb128 0xb
 4242 01ed 3B       		.uleb128 0x3b
 4243 01ee 0B       		.uleb128 0xb
 4244 01ef 00       		.byte	0
 4245 01f0 00       		.byte	0
 4246 01f1 00       		.byte	0
 4247              		.section	.debug_loc,"",%progbits
 4248              	.Ldebug_loc0:
 4249              	.LLST0:
 4250 0000 04000000 		.4byte	.LVL2
 4251 0004 0E000000 		.4byte	.LVL3
 4252 0008 0100     		.2byte	0x1
 4253 000a 53       		.byte	0x53
 4254 000b 10000000 		.4byte	.LVL4
 4255 000f 12000000 		.4byte	.LVL5
 4256 0013 0100     		.2byte	0x1
 4257 0015 53       		.byte	0x53
 4258 0016 14000000 		.4byte	.LVL6
 4259 001a 1C000000 		.4byte	.LVL8
 4260 001e 0100     		.2byte	0x1
 4261 0020 53       		.byte	0x53
 4262 0021 00000000 		.4byte	0
 4263 0025 00000000 		.4byte	0
 4264              	.LLST1:
 4265 0029 00000000 		.4byte	.LVL1
 4266 002d 04000000 		.4byte	.LVL2
 4267 0031 0200     		.2byte	0x2
 4268 0033 30       		.byte	0x30
 4269 0034 9F       		.byte	0x9f
 4270 0035 04000000 		.4byte	.LVL2
 4271 0039 1A000000 		.4byte	.LVL7
 4272 003d 0100     		.2byte	0x1
 4273 003f 51       		.byte	0x51
 4274 0040 1C000000 		.4byte	.LVL8
 4275 0044 28000000 		.4byte	.LFE74
 4276 0048 0100     		.2byte	0x1
 4277 004a 51       		.byte	0x51
 4278 004b 00000000 		.4byte	0
ARM GAS  C:\Users\USUARIO\AppData\Local\Temp\ccVm8SVK.s 			page 97


 4279 004f 00000000 		.4byte	0
 4280              	.LLST2:
 4281 0053 00000000 		.4byte	.LVL9
 4282 0057 20000000 		.4byte	.LVL11
 4283 005b 0100     		.2byte	0x1
 4284 005d 51       		.byte	0x51
 4285 005e 20000000 		.4byte	.LVL11
 4286 0062 BC000000 		.4byte	.LFE82
 4287 0066 0400     		.2byte	0x4
 4288 0068 F3       		.byte	0xf3
 4289 0069 01       		.uleb128 0x1
 4290 006a 51       		.byte	0x51
 4291 006b 9F       		.byte	0x9f
 4292 006c 00000000 		.4byte	0
 4293 0070 00000000 		.4byte	0
 4294              	.LLST3:
 4295 0074 00000000 		.4byte	.LVL9
 4296 0078 20000000 		.4byte	.LVL11
 4297 007c 0100     		.2byte	0x1
 4298 007e 52       		.byte	0x52
 4299 007f 20000000 		.4byte	.LVL11
 4300 0083 BC000000 		.4byte	.LFE82
 4301 0087 0400     		.2byte	0x4
 4302 0089 F3       		.byte	0xf3
 4303 008a 01       		.uleb128 0x1
 4304 008b 52       		.byte	0x52
 4305 008c 9F       		.byte	0x9f
 4306 008d 00000000 		.4byte	0
 4307 0091 00000000 		.4byte	0
 4308              	.LLST4:
 4309 0095 00000000 		.4byte	.LVL9
 4310 0099 20000000 		.4byte	.LVL11
 4311 009d 0100     		.2byte	0x1
 4312 009f 53       		.byte	0x53
 4313 00a0 20000000 		.4byte	.LVL11
 4314 00a4 BC000000 		.4byte	.LFE82
 4315 00a8 0400     		.2byte	0x4
 4316 00aa F3       		.byte	0xf3
 4317 00ab 01       		.uleb128 0x1
 4318 00ac 53       		.byte	0x53
 4319 00ad 9F       		.byte	0x9f
 4320 00ae 00000000 		.4byte	0
 4321 00b2 00000000 		.4byte	0
 4322              	.LLST5:
 4323 00b6 00000000 		.4byte	.LVL9
 4324 00ba B2000000 		.4byte	.LVL36
 4325 00be 0200     		.2byte	0x2
 4326 00c0 91       		.byte	0x91
 4327 00c1 00       		.sleb128 0
 4328 00c2 B2000000 		.4byte	.LVL36
 4329 00c6 BC000000 		.4byte	.LFE82
 4330 00ca 0200     		.2byte	0x2
 4331 00cc 7D       		.byte	0x7d
 4332 00cd 00       		.sleb128 0
 4333 00ce 00000000 		.4byte	0
 4334 00d2 00000000 		.4byte	0
 4335              	.LLST6:
ARM GAS  C:\Users\USUARIO\AppData\Local\Temp\ccVm8SVK.s 			page 98


 4336 00d6 00000000 		.4byte	.LVL9
 4337 00da B2000000 		.4byte	.LVL36
 4338 00de 0200     		.2byte	0x2
 4339 00e0 91       		.byte	0x91
 4340 00e1 04       		.sleb128 4
 4341 00e2 B2000000 		.4byte	.LVL36
 4342 00e6 BC000000 		.4byte	.LFE82
 4343 00ea 0200     		.2byte	0x2
 4344 00ec 7D       		.byte	0x7d
 4345 00ed 04       		.sleb128 4
 4346 00ee 00000000 		.4byte	0
 4347 00f2 00000000 		.4byte	0
 4348              	.LLST7:
 4349 00f6 14000000 		.4byte	.LVL10
 4350 00fa B2000000 		.4byte	.LVL36
 4351 00fe 0100     		.2byte	0x1
 4352 0100 5A       		.byte	0x5a
 4353 0101 B2000000 		.4byte	.LVL36
 4354 0105 BC000000 		.4byte	.LFE82
 4355 0109 0600     		.2byte	0x6
 4356 010b 7D       		.byte	0x7d
 4357 010c 50       		.sleb128 -48
 4358 010d 06       		.byte	0x6
 4359 010e 37       		.byte	0x37
 4360 010f 1A       		.byte	0x1a
 4361 0110 9F       		.byte	0x9f
 4362 0111 00000000 		.4byte	0
 4363 0115 00000000 		.4byte	0
 4364              	.LLST8:
 4365 0119 24000000 		.4byte	.LVL12
 4366 011d 7A000000 		.4byte	.LVL24
 4367 0121 0100     		.2byte	0x1
 4368 0123 54       		.byte	0x54
 4369 0124 7C000000 		.4byte	.LVL25
 4370 0128 A2000000 		.4byte	.LVL35
 4371 012c 0100     		.2byte	0x1
 4372 012e 54       		.byte	0x54
 4373 012f 00000000 		.4byte	0
 4374 0133 00000000 		.4byte	0
 4375              	.LLST9:
 4376 0137 24000000 		.4byte	.LVL12
 4377 013b 3A000000 		.4byte	.LVL16
 4378 013f 0200     		.2byte	0x2
 4379 0141 91       		.byte	0x91
 4380 0142 54       		.sleb128 -44
 4381 0143 3A000000 		.4byte	.LVL16
 4382 0147 6E000000 		.4byte	.LVL19
 4383 014b 0100     		.2byte	0x1
 4384 014d 51       		.byte	0x51
 4385 014e 70000000 		.4byte	.LVL20
 4386 0152 A2000000 		.4byte	.LVL35
 4387 0156 0100     		.2byte	0x1
 4388 0158 51       		.byte	0x51
 4389 0159 00000000 		.4byte	0
 4390 015d 00000000 		.4byte	0
 4391              	.LLST10:
 4392 0161 2A000000 		.4byte	.LVL13
ARM GAS  C:\Users\USUARIO\AppData\Local\Temp\ccVm8SVK.s 			page 99


 4393 0165 76000000 		.4byte	.LVL22
 4394 0169 0100     		.2byte	0x1
 4395 016b 53       		.byte	0x53
 4396 016c 78000000 		.4byte	.LVL23
 4397 0170 80000000 		.4byte	.LVL26
 4398 0174 0200     		.2byte	0x2
 4399 0176 38       		.byte	0x38
 4400 0177 9F       		.byte	0x9f
 4401 0178 80000000 		.4byte	.LVL26
 4402 017c A2000000 		.4byte	.LVL35
 4403 0180 0100     		.2byte	0x1
 4404 0182 53       		.byte	0x53
 4405 0183 00000000 		.4byte	0
 4406 0187 00000000 		.4byte	0
 4407              	.LLST11:
 4408 018b 30000000 		.4byte	.LVL14
 4409 018f 6A000000 		.4byte	.LVL17
 4410 0193 0100     		.2byte	0x1
 4411 0195 52       		.byte	0x52
 4412 0196 6C000000 		.4byte	.LVL18
 4413 019a 7C000000 		.4byte	.LVL25
 4414 019e 0100     		.2byte	0x1
 4415 01a0 52       		.byte	0x52
 4416 01a1 7C000000 		.4byte	.LVL25
 4417 01a5 80000000 		.4byte	.LVL26
 4418 01a9 0200     		.2byte	0x2
 4419 01ab 31       		.byte	0x31
 4420 01ac 9F       		.byte	0x9f
 4421 01ad 80000000 		.4byte	.LVL26
 4422 01b1 A2000000 		.4byte	.LVL35
 4423 01b5 0100     		.2byte	0x1
 4424 01b7 52       		.byte	0x52
 4425 01b8 00000000 		.4byte	0
 4426 01bc 00000000 		.4byte	0
 4427              	.LLST12:
 4428 01c0 14000000 		.4byte	.LVL10
 4429 01c4 20000000 		.4byte	.LVL11
 4430 01c8 0300     		.2byte	0x3
 4431 01ca 09       		.byte	0x9
 4432 01cb 80       		.byte	0x80
 4433 01cc 9F       		.byte	0x9f
 4434 01cd 20000000 		.4byte	.LVL11
 4435 01d1 88000000 		.4byte	.LVL28
 4436 01d5 0100     		.2byte	0x1
 4437 01d7 5E       		.byte	0x5e
 4438 01d8 88000000 		.4byte	.LVL28
 4439 01dc 8C000000 		.4byte	.LVL29
 4440 01e0 0500     		.2byte	0x5
 4441 01e2 7E       		.byte	0x7e
 4442 01e3 00       		.sleb128 0
 4443 01e4 31       		.byte	0x31
 4444 01e5 25       		.byte	0x25
 4445 01e6 9F       		.byte	0x9f
 4446 01e7 8E000000 		.4byte	.LVL30
 4447 01eb 9A000000 		.4byte	.LVL33
 4448 01ef 0300     		.2byte	0x3
 4449 01f1 09       		.byte	0x9
ARM GAS  C:\Users\USUARIO\AppData\Local\Temp\ccVm8SVK.s 			page 100


 4450 01f2 80       		.byte	0x80
 4451 01f3 9F       		.byte	0x9f
 4452 01f4 9A000000 		.4byte	.LVL33
 4453 01f8 BC000000 		.4byte	.LFE82
 4454 01fc 0100     		.2byte	0x1
 4455 01fe 5E       		.byte	0x5e
 4456 01ff 00000000 		.4byte	0
 4457 0203 00000000 		.4byte	0
 4458              	.LLST13:
 4459 0207 14000000 		.4byte	.LVL10
 4460 020b 20000000 		.4byte	.LVL11
 4461 020f 0100     		.2byte	0x1
 4462 0211 50       		.byte	0x50
 4463 0212 20000000 		.4byte	.LVL11
 4464 0216 9E000000 		.4byte	.LVL34
 4465 021a 0100     		.2byte	0x1
 4466 021c 58       		.byte	0x58
 4467 021d A2000000 		.4byte	.LVL35
 4468 0221 B2000000 		.4byte	.LVL36
 4469 0225 0100     		.2byte	0x1
 4470 0227 58       		.byte	0x58
 4471 0228 00000000 		.4byte	0
 4472 022c 00000000 		.4byte	0
 4473              	.LLST14:
 4474 0230 36000000 		.4byte	.LVL15
 4475 0234 A2000000 		.4byte	.LVL35
 4476 0238 0100     		.2byte	0x1
 4477 023a 55       		.byte	0x55
 4478 023b 00000000 		.4byte	0
 4479 023f 00000000 		.4byte	0
 4480              	.LLST15:
 4481 0243 14000000 		.4byte	.LVL10
 4482 0247 20000000 		.4byte	.LVL11
 4483 024b 0200     		.2byte	0x2
 4484 024d 30       		.byte	0x30
 4485 024e 9F       		.byte	0x9f
 4486 024f 20000000 		.4byte	.LVL11
 4487 0253 92000000 		.4byte	.LVL31
 4488 0257 0100     		.2byte	0x1
 4489 0259 59       		.byte	0x59
 4490 025a 96000000 		.4byte	.LVL32
 4491 025e B2000000 		.4byte	.LVL36
 4492 0262 0100     		.2byte	0x1
 4493 0264 59       		.byte	0x59
 4494 0265 00000000 		.4byte	0
 4495 0269 00000000 		.4byte	0
 4496              	.LLST16:
 4497 026d 00000000 		.4byte	.LVL37
 4498 0271 04000000 		.4byte	.LVL38
 4499 0275 0100     		.2byte	0x1
 4500 0277 50       		.byte	0x50
 4501 0278 04000000 		.4byte	.LVL38
 4502 027c 0C000000 		.4byte	.LFE66
 4503 0280 0400     		.2byte	0x4
 4504 0282 F3       		.byte	0xf3
 4505 0283 01       		.uleb128 0x1
 4506 0284 50       		.byte	0x50
ARM GAS  C:\Users\USUARIO\AppData\Local\Temp\ccVm8SVK.s 			page 101


 4507 0285 9F       		.byte	0x9f
 4508 0286 00000000 		.4byte	0
 4509 028a 00000000 		.4byte	0
 4510              	.LLST17:
 4511 028e 00000000 		.4byte	.LVL44
 4512 0292 09000000 		.4byte	.LVL45-1
 4513 0296 0100     		.2byte	0x1
 4514 0298 50       		.byte	0x50
 4515 0299 09000000 		.4byte	.LVL45-1
 4516 029d 60000000 		.4byte	.LFE67
 4517 02a1 0400     		.2byte	0x4
 4518 02a3 F3       		.byte	0xf3
 4519 02a4 01       		.uleb128 0x1
 4520 02a5 50       		.byte	0x50
 4521 02a6 9F       		.byte	0x9f
 4522 02a7 00000000 		.4byte	0
 4523 02ab 00000000 		.4byte	0
 4524              	.LLST18:
 4525 02af 00000000 		.4byte	.LVL44
 4526 02b3 09000000 		.4byte	.LVL45-1
 4527 02b7 0100     		.2byte	0x1
 4528 02b9 51       		.byte	0x51
 4529 02ba 09000000 		.4byte	.LVL45-1
 4530 02be 60000000 		.4byte	.LFE67
 4531 02c2 0400     		.2byte	0x4
 4532 02c4 F3       		.byte	0xf3
 4533 02c5 01       		.uleb128 0x1
 4534 02c6 51       		.byte	0x51
 4535 02c7 9F       		.byte	0x9f
 4536 02c8 00000000 		.4byte	0
 4537 02cc 00000000 		.4byte	0
 4538              	.LLST19:
 4539 02d0 00000000 		.4byte	.LVL52
 4540 02d4 07000000 		.4byte	.LVL53-1
 4541 02d8 0100     		.2byte	0x1
 4542 02da 50       		.byte	0x50
 4543 02db 07000000 		.4byte	.LVL53-1
 4544 02df 0A000000 		.4byte	.LFE68
 4545 02e3 0400     		.2byte	0x4
 4546 02e5 F3       		.byte	0xf3
 4547 02e6 01       		.uleb128 0x1
 4548 02e7 50       		.byte	0x50
 4549 02e8 9F       		.byte	0x9f
 4550 02e9 00000000 		.4byte	0
 4551 02ed 00000000 		.4byte	0
 4552              	.LLST20:
 4553 02f1 00000000 		.4byte	.LVL54
 4554 02f5 04000000 		.4byte	.LVL55
 4555 02f9 0100     		.2byte	0x1
 4556 02fb 50       		.byte	0x50
 4557 02fc 04000000 		.4byte	.LVL55
 4558 0300 0C000000 		.4byte	.LFE70
 4559 0304 0400     		.2byte	0x4
 4560 0306 F3       		.byte	0xf3
 4561 0307 01       		.uleb128 0x1
 4562 0308 50       		.byte	0x50
 4563 0309 9F       		.byte	0x9f
ARM GAS  C:\Users\USUARIO\AppData\Local\Temp\ccVm8SVK.s 			page 102


 4564 030a 00000000 		.4byte	0
 4565 030e 00000000 		.4byte	0
 4566              	.LLST21:
 4567 0312 00000000 		.4byte	.LVL57
 4568 0316 04000000 		.4byte	.LVL58
 4569 031a 0100     		.2byte	0x1
 4570 031c 50       		.byte	0x50
 4571 031d 04000000 		.4byte	.LVL58
 4572 0321 0C000000 		.4byte	.LFE71
 4573 0325 0400     		.2byte	0x4
 4574 0327 F3       		.byte	0xf3
 4575 0328 01       		.uleb128 0x1
 4576 0329 50       		.byte	0x50
 4577 032a 9F       		.byte	0x9f
 4578 032b 00000000 		.4byte	0
 4579 032f 00000000 		.4byte	0
 4580              	.LLST22:
 4581 0333 00000000 		.4byte	.LVL60
 4582 0337 07000000 		.4byte	.LVL61-1
 4583 033b 0100     		.2byte	0x1
 4584 033d 50       		.byte	0x50
 4585 033e 07000000 		.4byte	.LVL61-1
 4586 0342 0A000000 		.4byte	.LFE69
 4587 0346 0400     		.2byte	0x4
 4588 0348 F3       		.byte	0xf3
 4589 0349 01       		.uleb128 0x1
 4590 034a 50       		.byte	0x50
 4591 034b 9F       		.byte	0x9f
 4592 034c 00000000 		.4byte	0
 4593 0350 00000000 		.4byte	0
 4594              	.LLST23:
 4595 0354 06000000 		.4byte	.LVL62
 4596 0358 0A000000 		.4byte	.LVL63
 4597 035c 0200     		.2byte	0x2
 4598 035e 30       		.byte	0x30
 4599 035f 9F       		.byte	0x9f
 4600 0360 0A000000 		.4byte	.LVL63
 4601 0364 1E000000 		.4byte	.LVL67
 4602 0368 0100     		.2byte	0x1
 4603 036a 54       		.byte	0x54
 4604 036b 20000000 		.4byte	.LVL68
 4605 036f 26000000 		.4byte	.LFE72
 4606 0373 0100     		.2byte	0x1
 4607 0375 54       		.byte	0x54
 4608 0376 00000000 		.4byte	0
 4609 037a 00000000 		.4byte	0
 4610              	.LLST24:
 4611 037e 00000000 		.4byte	.LVL70
 4612 0382 10000000 		.4byte	.LVL73
 4613 0386 0100     		.2byte	0x1
 4614 0388 50       		.byte	0x50
 4615 0389 10000000 		.4byte	.LVL73
 4616 038d 6C000000 		.4byte	.LFE76
 4617 0391 0400     		.2byte	0x4
 4618 0393 F3       		.byte	0xf3
 4619 0394 01       		.uleb128 0x1
 4620 0395 50       		.byte	0x50
ARM GAS  C:\Users\USUARIO\AppData\Local\Temp\ccVm8SVK.s 			page 103


 4621 0396 9F       		.byte	0x9f
 4622 0397 00000000 		.4byte	0
 4623 039b 00000000 		.4byte	0
 4624              	.LLST25:
 4625 039f 00000000 		.4byte	.LVL70
 4626 03a3 10000000 		.4byte	.LVL73
 4627 03a7 0100     		.2byte	0x1
 4628 03a9 51       		.byte	0x51
 4629 03aa 10000000 		.4byte	.LVL73
 4630 03ae 6C000000 		.4byte	.LFE76
 4631 03b2 0400     		.2byte	0x4
 4632 03b4 F3       		.byte	0xf3
 4633 03b5 01       		.uleb128 0x1
 4634 03b6 51       		.byte	0x51
 4635 03b7 9F       		.byte	0x9f
 4636 03b8 00000000 		.4byte	0
 4637 03bc 00000000 		.4byte	0
 4638              	.LLST26:
 4639 03c0 28000000 		.4byte	.LVL78
 4640 03c4 2C000000 		.4byte	.LVL79
 4641 03c8 0200     		.2byte	0x2
 4642 03ca 30       		.byte	0x30
 4643 03cb 9F       		.byte	0x9f
 4644 03cc 2C000000 		.4byte	.LVL79
 4645 03d0 46000000 		.4byte	.LVL84
 4646 03d4 0100     		.2byte	0x1
 4647 03d6 54       		.byte	0x54
 4648 03d7 48000000 		.4byte	.LVL85
 4649 03db 50000000 		.4byte	.LVL87
 4650 03df 0100     		.2byte	0x1
 4651 03e1 54       		.byte	0x54
 4652 03e2 00000000 		.4byte	0
 4653 03e6 00000000 		.4byte	0
 4654              	.LLST27:
 4655 03ea 16000000 		.4byte	.LVL74
 4656 03ee 1A000000 		.4byte	.LVL75
 4657 03f2 0100     		.2byte	0x1
 4658 03f4 59       		.byte	0x59
 4659 03f5 1A000000 		.4byte	.LVL75
 4660 03f9 4E000000 		.4byte	.LVL86
 4661 03fd 0100     		.2byte	0x1
 4662 03ff 55       		.byte	0x55
 4663 0400 50000000 		.4byte	.LVL87
 4664 0404 58000000 		.4byte	.LVL89
 4665 0408 0100     		.2byte	0x1
 4666 040a 55       		.byte	0x55
 4667 040b 00000000 		.4byte	0
 4668 040f 00000000 		.4byte	0
 4669              	.LLST28:
 4670 0413 0C000000 		.4byte	.LVL72
 4671 0417 10000000 		.4byte	.LVL73
 4672 041b 0200     		.2byte	0x2
 4673 041d 30       		.byte	0x30
 4674 041e 9F       		.byte	0x9f
 4675 041f 10000000 		.4byte	.LVL73
 4676 0423 56000000 		.4byte	.LVL88
 4677 0427 0100     		.2byte	0x1
ARM GAS  C:\Users\USUARIO\AppData\Local\Temp\ccVm8SVK.s 			page 104


 4678 0429 57       		.byte	0x57
 4679 042a 58000000 		.4byte	.LVL89
 4680 042e 66000000 		.4byte	.LVL91
 4681 0432 0100     		.2byte	0x1
 4682 0434 57       		.byte	0x57
 4683 0435 00000000 		.4byte	0
 4684 0439 00000000 		.4byte	0
 4685              	.LLST29:
 4686 043d 08000000 		.4byte	.LVL71
 4687 0441 66000000 		.4byte	.LVL91
 4688 0445 0100     		.2byte	0x1
 4689 0447 59       		.byte	0x59
 4690 0448 00000000 		.4byte	0
 4691 044c 00000000 		.4byte	0
 4692              	.LLST30:
 4693 0450 0C000000 		.4byte	.LVL72
 4694 0454 66000000 		.4byte	.LVL91
 4695 0458 0100     		.2byte	0x1
 4696 045a 58       		.byte	0x58
 4697 045b 00000000 		.4byte	0
 4698 045f 00000000 		.4byte	0
 4699              	.LLST31:
 4700 0463 28000000 		.4byte	.LVL78
 4701 0467 50000000 		.4byte	.LVL87
 4702 046b 0100     		.2byte	0x1
 4703 046d 56       		.byte	0x56
 4704 046e 00000000 		.4byte	0
 4705 0472 00000000 		.4byte	0
 4706              	.LLST32:
 4707 0476 36000000 		.4byte	.LVL80
 4708 047a 3E000000 		.4byte	.LVL81
 4709 047e 0100     		.2byte	0x1
 4710 0480 50       		.byte	0x50
 4711 0481 3E000000 		.4byte	.LVL81
 4712 0485 40000000 		.4byte	.LVL82
 4713 0489 0400     		.2byte	0x4
 4714 048b 70       		.byte	0x70
 4715 048c 00       		.sleb128 0
 4716 048d 20       		.byte	0x20
 4717 048e 9F       		.byte	0x9f
 4718 048f 40000000 		.4byte	.LVL82
 4719 0493 43000000 		.4byte	.LVL83-1
 4720 0497 0100     		.2byte	0x1
 4721 0499 50       		.byte	0x50
 4722 049a 00000000 		.4byte	0
 4723 049e 00000000 		.4byte	0
 4724              	.LLST33:
 4725 04a2 00000000 		.4byte	.LVL92
 4726 04a6 06000000 		.4byte	.LVL93
 4727 04aa 0100     		.2byte	0x1
 4728 04ac 50       		.byte	0x50
 4729 04ad 06000000 		.4byte	.LVL93
 4730 04b1 16000000 		.4byte	.LFE75
 4731 04b5 0400     		.2byte	0x4
 4732 04b7 F3       		.byte	0xf3
 4733 04b8 01       		.uleb128 0x1
 4734 04b9 50       		.byte	0x50
ARM GAS  C:\Users\USUARIO\AppData\Local\Temp\ccVm8SVK.s 			page 105


 4735 04ba 9F       		.byte	0x9f
 4736 04bb 00000000 		.4byte	0
 4737 04bf 00000000 		.4byte	0
 4738              	.LLST34:
 4739 04c3 00000000 		.4byte	.LVL96
 4740 04c7 10000000 		.4byte	.LVL98
 4741 04cb 0100     		.2byte	0x1
 4742 04cd 51       		.byte	0x51
 4743 04ce 10000000 		.4byte	.LVL98
 4744 04d2 58000000 		.4byte	.LFE77
 4745 04d6 0400     		.2byte	0x4
 4746 04d8 F3       		.byte	0xf3
 4747 04d9 01       		.uleb128 0x1
 4748 04da 51       		.byte	0x51
 4749 04db 9F       		.byte	0x9f
 4750 04dc 00000000 		.4byte	0
 4751 04e0 00000000 		.4byte	0
 4752              	.LLST35:
 4753 04e4 00000000 		.4byte	.LVL96
 4754 04e8 22000000 		.4byte	.LVL100
 4755 04ec 0100     		.2byte	0x1
 4756 04ee 52       		.byte	0x52
 4757 04ef 22000000 		.4byte	.LVL100
 4758 04f3 2E000000 		.4byte	.LVL103
 4759 04f7 0400     		.2byte	0x4
 4760 04f9 F3       		.byte	0xf3
 4761 04fa 01       		.uleb128 0x1
 4762 04fb 52       		.byte	0x52
 4763 04fc 9F       		.byte	0x9f
 4764 04fd 2E000000 		.4byte	.LVL103
 4765 0501 30000000 		.4byte	.LVL104
 4766 0505 0100     		.2byte	0x1
 4767 0507 52       		.byte	0x52
 4768 0508 30000000 		.4byte	.LVL104
 4769 050c 3E000000 		.4byte	.LVL107
 4770 0510 0400     		.2byte	0x4
 4771 0512 F3       		.byte	0xf3
 4772 0513 01       		.uleb128 0x1
 4773 0514 52       		.byte	0x52
 4774 0515 9F       		.byte	0x9f
 4775 0516 3E000000 		.4byte	.LVL107
 4776 051a 40000000 		.4byte	.LVL108
 4777 051e 0100     		.2byte	0x1
 4778 0520 52       		.byte	0x52
 4779 0521 40000000 		.4byte	.LVL108
 4780 0525 58000000 		.4byte	.LFE77
 4781 0529 0400     		.2byte	0x4
 4782 052b F3       		.byte	0xf3
 4783 052c 01       		.uleb128 0x1
 4784 052d 52       		.byte	0x52
 4785 052e 9F       		.byte	0x9f
 4786 052f 00000000 		.4byte	0
 4787 0533 00000000 		.4byte	0
 4788              	.LLST36:
 4789 0537 10000000 		.4byte	.LVL98
 4790 053b 4C000000 		.4byte	.LVL111
 4791 053f 0100     		.2byte	0x1
ARM GAS  C:\Users\USUARIO\AppData\Local\Temp\ccVm8SVK.s 			page 106


 4792 0541 51       		.byte	0x51
 4793 0542 00000000 		.4byte	0
 4794 0546 00000000 		.4byte	0
 4795              	.LLST37:
 4796 054a 14000000 		.4byte	.LVL99
 4797 054e 2A000000 		.4byte	.LVL102
 4798 0552 0100     		.2byte	0x1
 4799 0554 53       		.byte	0x53
 4800 0555 2A000000 		.4byte	.LVL102
 4801 0559 2E000000 		.4byte	.LVL103
 4802 055d 0800     		.2byte	0x8
 4803 055f 71       		.byte	0x71
 4804 0560 00       		.sleb128 0
 4805 0561 03       		.byte	0x3
 4806 0562 00000000 		.4byte	.LANCHOR1
 4807 0566 22       		.byte	0x22
 4808 0567 2E000000 		.4byte	.LVL103
 4809 056b 3A000000 		.4byte	.LVL106
 4810 056f 0100     		.2byte	0x1
 4811 0571 53       		.byte	0x53
 4812 0572 3A000000 		.4byte	.LVL106
 4813 0576 3E000000 		.4byte	.LVL107
 4814 057a 0800     		.2byte	0x8
 4815 057c 71       		.byte	0x71
 4816 057d 00       		.sleb128 0
 4817 057e 03       		.byte	0x3
 4818 057f 00000000 		.4byte	.LANCHOR1
 4819 0583 22       		.byte	0x22
 4820 0584 3E000000 		.4byte	.LVL107
 4821 0588 48000000 		.4byte	.LVL110
 4822 058c 0100     		.2byte	0x1
 4823 058e 53       		.byte	0x53
 4824 058f 48000000 		.4byte	.LVL110
 4825 0593 4C000000 		.4byte	.LVL111
 4826 0597 0800     		.2byte	0x8
 4827 0599 71       		.byte	0x71
 4828 059a 00       		.sleb128 0
 4829 059b 03       		.byte	0x3
 4830 059c 00000000 		.4byte	.LANCHOR1
 4831 05a0 22       		.byte	0x22
 4832 05a1 00000000 		.4byte	0
 4833 05a5 00000000 		.4byte	0
 4834              	.LLST38:
 4835 05a9 0C000000 		.4byte	.LVL97
 4836 05ad 26000000 		.4byte	.LVL101
 4837 05b1 0100     		.2byte	0x1
 4838 05b3 54       		.byte	0x54
 4839 05b4 2E000000 		.4byte	.LVL103
 4840 05b8 34000000 		.4byte	.LVL105
 4841 05bc 0100     		.2byte	0x1
 4842 05be 54       		.byte	0x54
 4843 05bf 3E000000 		.4byte	.LVL107
 4844 05c3 44000000 		.4byte	.LVL109
 4845 05c7 0100     		.2byte	0x1
 4846 05c9 54       		.byte	0x54
 4847 05ca 00000000 		.4byte	0
 4848 05ce 00000000 		.4byte	0
ARM GAS  C:\Users\USUARIO\AppData\Local\Temp\ccVm8SVK.s 			page 107


 4849              	.LLST39:
 4850 05d2 00000000 		.4byte	.LVL112
 4851 05d6 1E000000 		.4byte	.LVL114
 4852 05da 0100     		.2byte	0x1
 4853 05dc 50       		.byte	0x50
 4854 05dd 1E000000 		.4byte	.LVL114
 4855 05e1 42000000 		.4byte	.LVL121
 4856 05e5 0100     		.2byte	0x1
 4857 05e7 57       		.byte	0x57
 4858 05e8 42000000 		.4byte	.LVL121
 4859 05ec 50000000 		.4byte	.LVL122
 4860 05f0 0100     		.2byte	0x1
 4861 05f2 50       		.byte	0x50
 4862 05f3 50000000 		.4byte	.LVL122
 4863 05f7 74000000 		.4byte	.LVL129
 4864 05fb 0100     		.2byte	0x1
 4865 05fd 57       		.byte	0x57
 4866 05fe 74000000 		.4byte	.LVL129
 4867 0602 80000000 		.4byte	.LVL130
 4868 0606 0100     		.2byte	0x1
 4869 0608 50       		.byte	0x50
 4870 0609 80000000 		.4byte	.LVL130
 4871 060d 32010000 		.4byte	.LVL152
 4872 0611 0100     		.2byte	0x1
 4873 0613 57       		.byte	0x57
 4874 0614 34010000 		.4byte	.LVL153
 4875 0618 CC010000 		.4byte	.LVL173
 4876 061c 0100     		.2byte	0x1
 4877 061e 57       		.byte	0x57
 4878 061f 00000000 		.4byte	0
 4879 0623 00000000 		.4byte	0
 4880              	.LLST40:
 4881 0627 00000000 		.4byte	.LVL112
 4882 062b 1E000000 		.4byte	.LVL114
 4883 062f 0100     		.2byte	0x1
 4884 0631 51       		.byte	0x51
 4885 0632 1E000000 		.4byte	.LVL114
 4886 0636 42000000 		.4byte	.LVL121
 4887 063a 0100     		.2byte	0x1
 4888 063c 56       		.byte	0x56
 4889 063d 42000000 		.4byte	.LVL121
 4890 0641 50000000 		.4byte	.LVL122
 4891 0645 0100     		.2byte	0x1
 4892 0647 51       		.byte	0x51
 4893 0648 50000000 		.4byte	.LVL122
 4894 064c 74000000 		.4byte	.LVL129
 4895 0650 0100     		.2byte	0x1
 4896 0652 56       		.byte	0x56
 4897 0653 74000000 		.4byte	.LVL129
 4898 0657 80000000 		.4byte	.LVL130
 4899 065b 0100     		.2byte	0x1
 4900 065d 51       		.byte	0x51
 4901 065e 80000000 		.4byte	.LVL130
 4902 0662 2C010000 		.4byte	.LVL150
 4903 0666 0100     		.2byte	0x1
 4904 0668 56       		.byte	0x56
 4905 0669 34010000 		.4byte	.LVL153
ARM GAS  C:\Users\USUARIO\AppData\Local\Temp\ccVm8SVK.s 			page 108


 4906 066d CC010000 		.4byte	.LVL173
 4907 0671 0100     		.2byte	0x1
 4908 0673 56       		.byte	0x56
 4909 0674 00000000 		.4byte	0
 4910 0678 00000000 		.4byte	0
 4911              	.LLST41:
 4912 067c 00000000 		.4byte	.LVL112
 4913 0680 2C000000 		.4byte	.LVL117
 4914 0684 0100     		.2byte	0x1
 4915 0686 52       		.byte	0x52
 4916 0687 2C000000 		.4byte	.LVL117
 4917 068b 42000000 		.4byte	.LVL121
 4918 068f 0400     		.2byte	0x4
 4919 0691 F3       		.byte	0xf3
 4920 0692 01       		.uleb128 0x1
 4921 0693 52       		.byte	0x52
 4922 0694 9F       		.byte	0x9f
 4923 0695 42000000 		.4byte	.LVL121
 4924 0699 50000000 		.4byte	.LVL122
 4925 069d 0100     		.2byte	0x1
 4926 069f 52       		.byte	0x52
 4927 06a0 50000000 		.4byte	.LVL122
 4928 06a4 54000000 		.4byte	.LVL123
 4929 06a8 0100     		.2byte	0x1
 4930 06aa 58       		.byte	0x58
 4931 06ab 74000000 		.4byte	.LVL129
 4932 06af 80000000 		.4byte	.LVL130
 4933 06b3 0100     		.2byte	0x1
 4934 06b5 52       		.byte	0x52
 4935 06b6 80000000 		.4byte	.LVL130
 4936 06ba 9E000000 		.4byte	.LVL131
 4937 06be 0100     		.2byte	0x1
 4938 06c0 58       		.byte	0x58
 4939 06c1 24010000 		.4byte	.LVL149
 4940 06c5 C6010000 		.4byte	.LVL172
 4941 06c9 0100     		.2byte	0x1
 4942 06cb 58       		.byte	0x58
 4943 06cc 00000000 		.4byte	0
 4944 06d0 00000000 		.4byte	0
 4945              	.LLST42:
 4946 06d4 00000000 		.4byte	.LVL112
 4947 06d8 10000000 		.4byte	.LVL113
 4948 06dc 0100     		.2byte	0x1
 4949 06de 53       		.byte	0x53
 4950 06df 10000000 		.4byte	.LVL113
 4951 06e3 1E000000 		.4byte	.LVL114
 4952 06e7 0400     		.2byte	0x4
 4953 06e9 F3       		.byte	0xf3
 4954 06ea 01       		.uleb128 0x1
 4955 06eb 53       		.byte	0x53
 4956 06ec 9F       		.byte	0x9f
 4957 06ed 1E000000 		.4byte	.LVL114
 4958 06f1 22000000 		.4byte	.LVL115
 4959 06f5 0100     		.2byte	0x1
 4960 06f7 59       		.byte	0x59
 4961 06f8 42000000 		.4byte	.LVL121
 4962 06fc 80000000 		.4byte	.LVL130
ARM GAS  C:\Users\USUARIO\AppData\Local\Temp\ccVm8SVK.s 			page 109


 4963 0700 0400     		.2byte	0x4
 4964 0702 F3       		.byte	0xf3
 4965 0703 01       		.uleb128 0x1
 4966 0704 53       		.byte	0x53
 4967 0705 9F       		.byte	0x9f
 4968 0706 80000000 		.4byte	.LVL130
 4969 070a 2E010000 		.4byte	.LVL151
 4970 070e 0100     		.2byte	0x1
 4971 0710 59       		.byte	0x59
 4972 0711 34010000 		.4byte	.LVL153
 4973 0715 38010000 		.4byte	.LVL154
 4974 0719 0100     		.2byte	0x1
 4975 071b 59       		.byte	0x59
 4976 071c 00000000 		.4byte	0
 4977 0720 00000000 		.4byte	0
 4978              	.LLST43:
 4979 0724 00000000 		.4byte	.LVL112
 4980 0728 CC010000 		.4byte	.LVL173
 4981 072c 0200     		.2byte	0x2
 4982 072e 91       		.byte	0x91
 4983 072f 00       		.sleb128 0
 4984 0730 CC010000 		.4byte	.LVL173
 4985 0734 D0010000 		.4byte	.LFE78
 4986 0738 0200     		.2byte	0x2
 4987 073a 7D       		.byte	0x7d
 4988 073b 00       		.sleb128 0
 4989 073c 00000000 		.4byte	0
 4990 0740 00000000 		.4byte	0
 4991              	.LLST44:
 4992 0744 26000000 		.4byte	.LVL116
 4993 0748 42000000 		.4byte	.LVL121
 4994 074c 0100     		.2byte	0x1
 4995 074e 59       		.byte	0x59
 4996 074f 58000000 		.4byte	.LVL124
 4997 0753 74000000 		.4byte	.LVL129
 4998 0757 0100     		.2byte	0x1
 4999 0759 58       		.byte	0x58
 5000 075a A2000000 		.4byte	.LVL132
 5001 075e 24010000 		.4byte	.LVL149
 5002 0762 0100     		.2byte	0x1
 5003 0764 58       		.byte	0x58
 5004 0765 3C010000 		.4byte	.LVL155
 5005 0769 C6010000 		.4byte	.LVL172
 5006 076d 0100     		.2byte	0x1
 5007 076f 59       		.byte	0x59
 5008 0770 00000000 		.4byte	0
 5009 0774 00000000 		.4byte	0
 5010              	.LLST45:
 5011 0778 26000000 		.4byte	.LVL116
 5012 077c 2C000000 		.4byte	.LVL117
 5013 0780 0200     		.2byte	0x2
 5014 0782 30       		.byte	0x30
 5015 0783 9F       		.byte	0x9f
 5016 0784 2C000000 		.4byte	.LVL117
 5017 0788 3A000000 		.4byte	.LVL119
 5018 078c 0100     		.2byte	0x1
 5019 078e 54       		.byte	0x54
ARM GAS  C:\Users\USUARIO\AppData\Local\Temp\ccVm8SVK.s 			page 110


 5020 078f 3C000000 		.4byte	.LVL120
 5021 0793 42000000 		.4byte	.LVL121
 5022 0797 0100     		.2byte	0x1
 5023 0799 54       		.byte	0x54
 5024 079a 58000000 		.4byte	.LVL124
 5025 079e 5E000000 		.4byte	.LVL125
 5026 07a2 0200     		.2byte	0x2
 5027 07a4 30       		.byte	0x30
 5028 07a5 9F       		.byte	0x9f
 5029 07a6 5E000000 		.4byte	.LVL125
 5030 07aa 6C000000 		.4byte	.LVL127
 5031 07ae 0100     		.2byte	0x1
 5032 07b0 54       		.byte	0x54
 5033 07b1 6E000000 		.4byte	.LVL128
 5034 07b5 74000000 		.4byte	.LVL129
 5035 07b9 0100     		.2byte	0x1
 5036 07bb 54       		.byte	0x54
 5037 07bc B2000000 		.4byte	.LVL133
 5038 07c0 B8000000 		.4byte	.LVL134
 5039 07c4 0200     		.2byte	0x2
 5040 07c6 30       		.byte	0x30
 5041 07c7 9F       		.byte	0x9f
 5042 07c8 B8000000 		.4byte	.LVL134
 5043 07cc 1A010000 		.4byte	.LVL146
 5044 07d0 0100     		.2byte	0x1
 5045 07d2 55       		.byte	0x55
 5046 07d3 1C010000 		.4byte	.LVL147
 5047 07d7 24010000 		.4byte	.LVL149
 5048 07db 0100     		.2byte	0x1
 5049 07dd 55       		.byte	0x55
 5050 07de 56010000 		.4byte	.LVL156
 5051 07e2 5C010000 		.4byte	.LVL157
 5052 07e6 0200     		.2byte	0x2
 5053 07e8 30       		.byte	0x30
 5054 07e9 9F       		.byte	0x9f
 5055 07ea 5C010000 		.4byte	.LVL157
 5056 07ee BE010000 		.4byte	.LVL169
 5057 07f2 0100     		.2byte	0x1
 5058 07f4 55       		.byte	0x55
 5059 07f5 C0010000 		.4byte	.LVL170
 5060 07f9 C6010000 		.4byte	.LVL172
 5061 07fd 0100     		.2byte	0x1
 5062 07ff 55       		.byte	0x55
 5063 0800 00000000 		.4byte	0
 5064 0804 00000000 		.4byte	0
 5065              	.LLST46:
 5066 0808 CE000000 		.4byte	.LVL135
 5067 080c DA000000 		.4byte	.LVL136
 5068 0810 0100     		.2byte	0x1
 5069 0812 54       		.byte	0x54
 5070 0813 DA000000 		.4byte	.LVL136
 5071 0817 DC000000 		.4byte	.LVL137
 5072 081b 0300     		.2byte	0x3
 5073 081d 74       		.byte	0x74
 5074 081e 7F       		.sleb128 -1
 5075 081f 9F       		.byte	0x9f
 5076 0820 DC000000 		.4byte	.LVL137
ARM GAS  C:\Users\USUARIO\AppData\Local\Temp\ccVm8SVK.s 			page 111


 5077 0824 E6000000 		.4byte	.LVL138
 5078 0828 0100     		.2byte	0x1
 5079 082a 54       		.byte	0x54
 5080 082b E6000000 		.4byte	.LVL138
 5081 082f E8000000 		.4byte	.LVL139
 5082 0833 0300     		.2byte	0x3
 5083 0835 74       		.byte	0x74
 5084 0836 01       		.sleb128 1
 5085 0837 9F       		.byte	0x9f
 5086 0838 E8000000 		.4byte	.LVL139
 5087 083c 02010000 		.4byte	.LVL141
 5088 0840 0100     		.2byte	0x1
 5089 0842 54       		.byte	0x54
 5090 0843 06010000 		.4byte	.LVL143
 5091 0847 16010000 		.4byte	.LVL144
 5092 084b 0100     		.2byte	0x1
 5093 084d 54       		.byte	0x54
 5094 084e 72010000 		.4byte	.LVL158
 5095 0852 7E010000 		.4byte	.LVL159
 5096 0856 0100     		.2byte	0x1
 5097 0858 54       		.byte	0x54
 5098 0859 7E010000 		.4byte	.LVL159
 5099 085d 80010000 		.4byte	.LVL160
 5100 0861 0300     		.2byte	0x3
 5101 0863 74       		.byte	0x74
 5102 0864 7F       		.sleb128 -1
 5103 0865 9F       		.byte	0x9f
 5104 0866 80010000 		.4byte	.LVL160
 5105 086a 8A010000 		.4byte	.LVL161
 5106 086e 0100     		.2byte	0x1
 5107 0870 54       		.byte	0x54
 5108 0871 8A010000 		.4byte	.LVL161
 5109 0875 8C010000 		.4byte	.LVL162
 5110 0879 0300     		.2byte	0x3
 5111 087b 74       		.byte	0x74
 5112 087c 01       		.sleb128 1
 5113 087d 9F       		.byte	0x9f
 5114 087e 8C010000 		.4byte	.LVL162
 5115 0882 A6010000 		.4byte	.LVL164
 5116 0886 0100     		.2byte	0x1
 5117 0888 54       		.byte	0x54
 5118 0889 AA010000 		.4byte	.LVL166
 5119 088d BA010000 		.4byte	.LVL167
 5120 0891 0100     		.2byte	0x1
 5121 0893 54       		.byte	0x54
 5122 0894 00000000 		.4byte	0
 5123 0898 00000000 		.4byte	0
 5124              	.LLST47:
 5125 089c B2000000 		.4byte	.LVL133
 5126 08a0 B8000000 		.4byte	.LVL134
 5127 08a4 0100     		.2byte	0x1
 5128 08a6 56       		.byte	0x56
 5129 08a7 B8000000 		.4byte	.LVL134
 5130 08ab F7000000 		.4byte	.LVL140-1
 5131 08af 0100     		.2byte	0x1
 5132 08b1 51       		.byte	0x51
 5133 08b2 04010000 		.4byte	.LVL142
ARM GAS  C:\Users\USUARIO\AppData\Local\Temp\ccVm8SVK.s 			page 112


 5134 08b6 06010000 		.4byte	.LVL143
 5135 08ba 0100     		.2byte	0x1
 5136 08bc 54       		.byte	0x54
 5137 08bd 18010000 		.4byte	.LVL145
 5138 08c1 1E010000 		.4byte	.LVL148
 5139 08c5 0100     		.2byte	0x1
 5140 08c7 54       		.byte	0x54
 5141 08c8 1E010000 		.4byte	.LVL148
 5142 08cc 24010000 		.4byte	.LVL149
 5143 08d0 0100     		.2byte	0x1
 5144 08d2 51       		.byte	0x51
 5145 08d3 56010000 		.4byte	.LVL156
 5146 08d7 5C010000 		.4byte	.LVL157
 5147 08db 0100     		.2byte	0x1
 5148 08dd 57       		.byte	0x57
 5149 08de 5C010000 		.4byte	.LVL157
 5150 08e2 9B010000 		.4byte	.LVL163-1
 5151 08e6 0100     		.2byte	0x1
 5152 08e8 50       		.byte	0x50
 5153 08e9 A8010000 		.4byte	.LVL165
 5154 08ed AA010000 		.4byte	.LVL166
 5155 08f1 0100     		.2byte	0x1
 5156 08f3 54       		.byte	0x54
 5157 08f4 BC010000 		.4byte	.LVL168
 5158 08f8 C2010000 		.4byte	.LVL171
 5159 08fc 0100     		.2byte	0x1
 5160 08fe 54       		.byte	0x54
 5161 08ff C2010000 		.4byte	.LVL171
 5162 0903 C6010000 		.4byte	.LVL172
 5163 0907 0100     		.2byte	0x1
 5164 0909 50       		.byte	0x50
 5165 090a 00000000 		.4byte	0
 5166 090e 00000000 		.4byte	0
 5167              	.LLST48:
 5168 0912 B2000000 		.4byte	.LVL133
 5169 0916 24010000 		.4byte	.LVL149
 5170 091a 0200     		.2byte	0x2
 5171 091c 91       		.byte	0x91
 5172 091d 4C       		.sleb128 -52
 5173 091e 56010000 		.4byte	.LVL156
 5174 0922 C6010000 		.4byte	.LVL172
 5175 0926 0200     		.2byte	0x2
 5176 0928 91       		.byte	0x91
 5177 0929 4C       		.sleb128 -52
 5178 092a 00000000 		.4byte	0
 5179 092e 00000000 		.4byte	0
 5180              	.LLST49:
 5181 0932 00000000 		.4byte	.LVL174
 5182 0936 23000000 		.4byte	.LVL180-1
 5183 093a 0100     		.2byte	0x1
 5184 093c 50       		.byte	0x50
 5185 093d 23000000 		.4byte	.LVL180-1
 5186 0941 58000000 		.4byte	.LFE79
 5187 0945 0400     		.2byte	0x4
 5188 0947 F3       		.byte	0xf3
 5189 0948 01       		.uleb128 0x1
 5190 0949 50       		.byte	0x50
ARM GAS  C:\Users\USUARIO\AppData\Local\Temp\ccVm8SVK.s 			page 113


 5191 094a 9F       		.byte	0x9f
 5192 094b 00000000 		.4byte	0
 5193 094f 00000000 		.4byte	0
 5194              	.LLST50:
 5195 0953 00000000 		.4byte	.LVL174
 5196 0957 23000000 		.4byte	.LVL180-1
 5197 095b 0100     		.2byte	0x1
 5198 095d 51       		.byte	0x51
 5199 095e 23000000 		.4byte	.LVL180-1
 5200 0962 58000000 		.4byte	.LFE79
 5201 0966 0400     		.2byte	0x4
 5202 0968 F3       		.byte	0xf3
 5203 0969 01       		.uleb128 0x1
 5204 096a 51       		.byte	0x51
 5205 096b 9F       		.byte	0x9f
 5206 096c 00000000 		.4byte	0
 5207 0970 00000000 		.4byte	0
 5208              	.LLST51:
 5209 0974 00000000 		.4byte	.LVL174
 5210 0978 10000000 		.4byte	.LVL175
 5211 097c 0100     		.2byte	0x1
 5212 097e 52       		.byte	0x52
 5213 097f 10000000 		.4byte	.LVL175
 5214 0983 12000000 		.4byte	.LVL176
 5215 0987 0400     		.2byte	0x4
 5216 0989 F3       		.byte	0xf3
 5217 098a 01       		.uleb128 0x1
 5218 098b 52       		.byte	0x52
 5219 098c 9F       		.byte	0x9f
 5220 098d 12000000 		.4byte	.LVL176
 5221 0991 18000000 		.4byte	.LVL179
 5222 0995 0100     		.2byte	0x1
 5223 0997 52       		.byte	0x52
 5224 0998 00000000 		.4byte	0
 5225 099c 00000000 		.4byte	0
 5226              	.LLST52:
 5227 09a0 00000000 		.4byte	.LVL174
 5228 09a4 14000000 		.4byte	.LVL177
 5229 09a8 0100     		.2byte	0x1
 5230 09aa 53       		.byte	0x53
 5231 09ab 14000000 		.4byte	.LVL177
 5232 09af 16000000 		.4byte	.LVL178
 5233 09b3 0400     		.2byte	0x4
 5234 09b5 F3       		.byte	0xf3
 5235 09b6 01       		.uleb128 0x1
 5236 09b7 53       		.byte	0x53
 5237 09b8 9F       		.byte	0x9f
 5238 09b9 16000000 		.4byte	.LVL178
 5239 09bd 26000000 		.4byte	.LVL181
 5240 09c1 0100     		.2byte	0x1
 5241 09c3 55       		.byte	0x55
 5242 09c4 00000000 		.4byte	0
 5243 09c8 00000000 		.4byte	0
 5244              	.LLST53:
 5245 09cc 00000000 		.4byte	.LVL185
 5246 09d0 1A000000 		.4byte	.LVL187
 5247 09d4 0100     		.2byte	0x1
ARM GAS  C:\Users\USUARIO\AppData\Local\Temp\ccVm8SVK.s 			page 114


 5248 09d6 50       		.byte	0x50
 5249 09d7 1A000000 		.4byte	.LVL187
 5250 09db 3E000000 		.4byte	.LFE80
 5251 09df 0400     		.2byte	0x4
 5252 09e1 F3       		.byte	0xf3
 5253 09e2 01       		.uleb128 0x1
 5254 09e3 50       		.byte	0x50
 5255 09e4 9F       		.byte	0x9f
 5256 09e5 00000000 		.4byte	0
 5257 09e9 00000000 		.4byte	0
 5258              	.LLST54:
 5259 09ed 00000000 		.4byte	.LVL185
 5260 09f1 1A000000 		.4byte	.LVL187
 5261 09f5 0100     		.2byte	0x1
 5262 09f7 51       		.byte	0x51
 5263 09f8 1A000000 		.4byte	.LVL187
 5264 09fc 3E000000 		.4byte	.LFE80
 5265 0a00 0400     		.2byte	0x4
 5266 0a02 F3       		.byte	0xf3
 5267 0a03 01       		.uleb128 0x1
 5268 0a04 51       		.byte	0x51
 5269 0a05 9F       		.byte	0x9f
 5270 0a06 00000000 		.4byte	0
 5271 0a0a 00000000 		.4byte	0
 5272              	.LLST55:
 5273 0a0e 00000000 		.4byte	.LVL185
 5274 0a12 16000000 		.4byte	.LVL186
 5275 0a16 0100     		.2byte	0x1
 5276 0a18 52       		.byte	0x52
 5277 0a19 16000000 		.4byte	.LVL186
 5278 0a1d 38000000 		.4byte	.LVL191
 5279 0a21 0100     		.2byte	0x1
 5280 0a23 56       		.byte	0x56
 5281 0a24 00000000 		.4byte	0
 5282 0a28 00000000 		.4byte	0
 5283              	.LLST56:
 5284 0a2c 00000000 		.4byte	.LVL185
 5285 0a30 1A000000 		.4byte	.LVL187
 5286 0a34 0100     		.2byte	0x1
 5287 0a36 53       		.byte	0x53
 5288 0a37 1A000000 		.4byte	.LVL187
 5289 0a3b 3E000000 		.4byte	.LFE80
 5290 0a3f 0400     		.2byte	0x4
 5291 0a41 F3       		.byte	0xf3
 5292 0a42 01       		.uleb128 0x1
 5293 0a43 53       		.byte	0x53
 5294 0a44 9F       		.byte	0x9f
 5295 0a45 00000000 		.4byte	0
 5296 0a49 00000000 		.4byte	0
 5297              	.LLST57:
 5298 0a4d 16000000 		.4byte	.LVL186
 5299 0a51 1A000000 		.4byte	.LVL187
 5300 0a55 0100     		.2byte	0x1
 5301 0a57 51       		.byte	0x51
 5302 0a58 1A000000 		.4byte	.LVL187
 5303 0a5c 2E000000 		.4byte	.LVL189
 5304 0a60 0100     		.2byte	0x1
ARM GAS  C:\Users\USUARIO\AppData\Local\Temp\ccVm8SVK.s 			page 115


 5305 0a62 54       		.byte	0x54
 5306 0a63 30000000 		.4byte	.LVL190
 5307 0a67 38000000 		.4byte	.LVL191
 5308 0a6b 0100     		.2byte	0x1
 5309 0a6d 54       		.byte	0x54
 5310 0a6e 00000000 		.4byte	0
 5311 0a72 00000000 		.4byte	0
 5312              	.LLST58:
 5313 0a76 00000000 		.4byte	.LVL192
 5314 0a7a 22000000 		.4byte	.LVL199
 5315 0a7e 0100     		.2byte	0x1
 5316 0a80 50       		.byte	0x50
 5317 0a81 22000000 		.4byte	.LVL199
 5318 0a85 EA000000 		.4byte	.LFE81
 5319 0a89 0400     		.2byte	0x4
 5320 0a8b F3       		.byte	0xf3
 5321 0a8c 01       		.uleb128 0x1
 5322 0a8d 50       		.byte	0x50
 5323 0a8e 9F       		.byte	0x9f
 5324 0a8f 00000000 		.4byte	0
 5325 0a93 00000000 		.4byte	0
 5326              	.LLST59:
 5327 0a97 00000000 		.4byte	.LVL192
 5328 0a9b 22000000 		.4byte	.LVL199
 5329 0a9f 0100     		.2byte	0x1
 5330 0aa1 51       		.byte	0x51
 5331 0aa2 22000000 		.4byte	.LVL199
 5332 0aa6 EA000000 		.4byte	.LFE81
 5333 0aaa 0400     		.2byte	0x4
 5334 0aac F3       		.byte	0xf3
 5335 0aad 01       		.uleb128 0x1
 5336 0aae 51       		.byte	0x51
 5337 0aaf 9F       		.byte	0x9f
 5338 0ab0 00000000 		.4byte	0
 5339 0ab4 00000000 		.4byte	0
 5340              	.LLST60:
 5341 0ab8 00000000 		.4byte	.LVL192
 5342 0abc 18000000 		.4byte	.LVL197
 5343 0ac0 0100     		.2byte	0x1
 5344 0ac2 52       		.byte	0x52
 5345 0ac3 18000000 		.4byte	.LVL197
 5346 0ac7 EA000000 		.4byte	.LFE81
 5347 0acb 0400     		.2byte	0x4
 5348 0acd F3       		.byte	0xf3
 5349 0ace 01       		.uleb128 0x1
 5350 0acf 52       		.byte	0x52
 5351 0ad0 9F       		.byte	0x9f
 5352 0ad1 00000000 		.4byte	0
 5353 0ad5 00000000 		.4byte	0
 5354              	.LLST61:
 5355 0ad9 00000000 		.4byte	.LVL192
 5356 0add 0E000000 		.4byte	.LVL194
 5357 0ae1 0100     		.2byte	0x1
 5358 0ae3 53       		.byte	0x53
 5359 0ae4 0E000000 		.4byte	.LVL194
 5360 0ae8 EA000000 		.4byte	.LFE81
 5361 0aec 0400     		.2byte	0x4
ARM GAS  C:\Users\USUARIO\AppData\Local\Temp\ccVm8SVK.s 			page 116


 5362 0aee F3       		.byte	0xf3
 5363 0aef 01       		.uleb128 0x1
 5364 0af0 53       		.byte	0x53
 5365 0af1 9F       		.byte	0x9f
 5366 0af2 00000000 		.4byte	0
 5367 0af6 00000000 		.4byte	0
 5368              	.LLST62:
 5369 0afa 1C000000 		.4byte	.LVL198
 5370 0afe BE000000 		.4byte	.LVL208
 5371 0b02 0100     		.2byte	0x1
 5372 0b04 57       		.byte	0x57
 5373 0b05 C2000000 		.4byte	.LVL209
 5374 0b09 CC000000 		.4byte	.LVL210
 5375 0b0d 0100     		.2byte	0x1
 5376 0b0f 57       		.byte	0x57
 5377 0b10 D0000000 		.4byte	.LVL211
 5378 0b14 EA000000 		.4byte	.LFE81
 5379 0b18 0100     		.2byte	0x1
 5380 0b1a 57       		.byte	0x57
 5381 0b1b 00000000 		.4byte	0
 5382 0b1f 00000000 		.4byte	0
 5383              	.LLST63:
 5384 0b23 16000000 		.4byte	.LVL196
 5385 0b27 D4000000 		.4byte	.LVL212
 5386 0b2b 0100     		.2byte	0x1
 5387 0b2d 59       		.byte	0x59
 5388 0b2e D8000000 		.4byte	.LVL213
 5389 0b32 EA000000 		.4byte	.LFE81
 5390 0b36 0100     		.2byte	0x1
 5391 0b38 59       		.byte	0x59
 5392 0b39 00000000 		.4byte	0
 5393 0b3d 00000000 		.4byte	0
 5394              	.LLST64:
 5395 0b41 0C000000 		.4byte	.LVL193
 5396 0b45 22000000 		.4byte	.LVL199
 5397 0b49 0200     		.2byte	0x2
 5398 0b4b 30       		.byte	0x30
 5399 0b4c 9F       		.byte	0x9f
 5400 0b4d 22000000 		.4byte	.LVL199
 5401 0b51 DC000000 		.4byte	.LVL214
 5402 0b55 0100     		.2byte	0x1
 5403 0b57 58       		.byte	0x58
 5404 0b58 E0000000 		.4byte	.LVL215
 5405 0b5c EA000000 		.4byte	.LFE81
 5406 0b60 0100     		.2byte	0x1
 5407 0b62 58       		.byte	0x58
 5408 0b63 00000000 		.4byte	0
 5409 0b67 00000000 		.4byte	0
 5410              	.LLST65:
 5411 0b6b 00000000 		.4byte	.LVL216
 5412 0b6f 10000000 		.4byte	.LVL218
 5413 0b73 0100     		.2byte	0x1
 5414 0b75 50       		.byte	0x50
 5415 0b76 10000000 		.4byte	.LVL218
 5416 0b7a C8000000 		.4byte	.LFE83
 5417 0b7e 0400     		.2byte	0x4
 5418 0b80 F3       		.byte	0xf3
ARM GAS  C:\Users\USUARIO\AppData\Local\Temp\ccVm8SVK.s 			page 117


 5419 0b81 01       		.uleb128 0x1
 5420 0b82 50       		.byte	0x50
 5421 0b83 9F       		.byte	0x9f
 5422 0b84 00000000 		.4byte	0
 5423 0b88 00000000 		.4byte	0
 5424              	.LLST66:
 5425 0b8c 00000000 		.4byte	.LVL216
 5426 0b90 10000000 		.4byte	.LVL218
 5427 0b94 0100     		.2byte	0x1
 5428 0b96 51       		.byte	0x51
 5429 0b97 10000000 		.4byte	.LVL218
 5430 0b9b C4000000 		.4byte	.LVL237
 5431 0b9f 0100     		.2byte	0x1
 5432 0ba1 56       		.byte	0x56
 5433 0ba2 00000000 		.4byte	0
 5434 0ba6 00000000 		.4byte	0
 5435              	.LLST67:
 5436 0baa 00000000 		.4byte	.LVL216
 5437 0bae 10000000 		.4byte	.LVL218
 5438 0bb2 0100     		.2byte	0x1
 5439 0bb4 52       		.byte	0x52
 5440 0bb5 10000000 		.4byte	.LVL218
 5441 0bb9 C8000000 		.4byte	.LFE83
 5442 0bbd 0400     		.2byte	0x4
 5443 0bbf F3       		.byte	0xf3
 5444 0bc0 01       		.uleb128 0x1
 5445 0bc1 52       		.byte	0x52
 5446 0bc2 9F       		.byte	0x9f
 5447 0bc3 00000000 		.4byte	0
 5448 0bc7 00000000 		.4byte	0
 5449              	.LLST68:
 5450 0bcb 00000000 		.4byte	.LVL216
 5451 0bcf 10000000 		.4byte	.LVL218
 5452 0bd3 0100     		.2byte	0x1
 5453 0bd5 53       		.byte	0x53
 5454 0bd6 10000000 		.4byte	.LVL218
 5455 0bda C4000000 		.4byte	.LVL237
 5456 0bde 0100     		.2byte	0x1
 5457 0be0 57       		.byte	0x57
 5458 0be1 00000000 		.4byte	0
 5459 0be5 00000000 		.4byte	0
 5460              	.LLST69:
 5461 0be9 0E000000 		.4byte	.LVL217
 5462 0bed C4000000 		.4byte	.LVL237
 5463 0bf1 0100     		.2byte	0x1
 5464 0bf3 58       		.byte	0x58
 5465 0bf4 00000000 		.4byte	0
 5466 0bf8 00000000 		.4byte	0
 5467              	.LLST70:
 5468 0bfc 10000000 		.4byte	.LVL218
 5469 0c00 36000000 		.4byte	.LVL219
 5470 0c04 0100     		.2byte	0x1
 5471 0c06 53       		.byte	0x53
 5472 0c07 3C000000 		.4byte	.LVL220
 5473 0c0b 40000000 		.4byte	.LVL221
 5474 0c0f 0100     		.2byte	0x1
 5475 0c11 53       		.byte	0x53
ARM GAS  C:\Users\USUARIO\AppData\Local\Temp\ccVm8SVK.s 			page 118


 5476 0c12 40000000 		.4byte	.LVL221
 5477 0c16 70000000 		.4byte	.LVL226
 5478 0c1a 0100     		.2byte	0x1
 5479 0c1c 52       		.byte	0x52
 5480 0c1d 00000000 		.4byte	0
 5481 0c21 00000000 		.4byte	0
 5482              	.LLST71:
 5483 0c25 4C000000 		.4byte	.LVL222
 5484 0c29 B8000000 		.4byte	.LVL236
 5485 0c2d 0100     		.2byte	0x1
 5486 0c2f 55       		.byte	0x55
 5487 0c30 00000000 		.4byte	0
 5488 0c34 00000000 		.4byte	0
 5489              	.LLST72:
 5490 0c38 62000000 		.4byte	.LVL224
 5491 0c3c 9C000000 		.4byte	.LVL231
 5492 0c40 0100     		.2byte	0x1
 5493 0c42 53       		.byte	0x53
 5494 0c43 9C000000 		.4byte	.LVL231
 5495 0c47 9E000000 		.4byte	.LVL232
 5496 0c4b 0200     		.2byte	0x2
 5497 0c4d 7E       		.byte	0x7e
 5498 0c4e 01       		.sleb128 1
 5499 0c4f 9E000000 		.4byte	.LVL232
 5500 0c53 AD000000 		.4byte	.LVL234-1
 5501 0c57 0100     		.2byte	0x1
 5502 0c59 53       		.byte	0x53
 5503 0c5a 00000000 		.4byte	0
 5504 0c5e 00000000 		.4byte	0
 5505              	.LLST73:
 5506 0c62 66000000 		.4byte	.LVL225
 5507 0c66 AD000000 		.4byte	.LVL234-1
 5508 0c6a 0100     		.2byte	0x1
 5509 0c6c 5C       		.byte	0x5c
 5510 0c6d 00000000 		.4byte	0
 5511 0c71 00000000 		.4byte	0
 5512              	.LLST74:
 5513 0c75 74000000 		.4byte	.LVL227
 5514 0c79 A8000000 		.4byte	.LVL233
 5515 0c7d 0100     		.2byte	0x1
 5516 0c7f 51       		.byte	0x51
 5517 0c80 A8000000 		.4byte	.LVL233
 5518 0c84 AD000000 		.4byte	.LVL234-1
 5519 0c88 0200     		.2byte	0x2
 5520 0c8a 7D       		.byte	0x7d
 5521 0c8b 00       		.sleb128 0
 5522 0c8c 00000000 		.4byte	0
 5523 0c90 00000000 		.4byte	0
 5524              	.LLST75:
 5525 0c94 00000000 		.4byte	.LVL238
 5526 0c98 08000000 		.4byte	.LVL240
 5527 0c9c 0100     		.2byte	0x1
 5528 0c9e 50       		.byte	0x50
 5529 0c9f 08000000 		.4byte	.LVL240
 5530 0ca3 64000000 		.4byte	.LVL260
 5531 0ca7 0100     		.2byte	0x1
 5532 0ca9 57       		.byte	0x57
ARM GAS  C:\Users\USUARIO\AppData\Local\Temp\ccVm8SVK.s 			page 119


 5533 0caa 64000000 		.4byte	.LVL260
 5534 0cae 68000000 		.4byte	.LFE84
 5535 0cb2 0400     		.2byte	0x4
 5536 0cb4 F3       		.byte	0xf3
 5537 0cb5 01       		.uleb128 0x1
 5538 0cb6 50       		.byte	0x50
 5539 0cb7 9F       		.byte	0x9f
 5540 0cb8 00000000 		.4byte	0
 5541 0cbc 00000000 		.4byte	0
 5542              	.LLST76:
 5543 0cc0 04000000 		.4byte	.LVL239
 5544 0cc4 08000000 		.4byte	.LVL240
 5545 0cc8 0200     		.2byte	0x2
 5546 0cca 30       		.byte	0x30
 5547 0ccb 9F       		.byte	0x9f
 5548 0ccc 08000000 		.4byte	.LVL240
 5549 0cd0 64000000 		.4byte	.LVL260
 5550 0cd4 0100     		.2byte	0x1
 5551 0cd6 56       		.byte	0x56
 5552 0cd7 00000000 		.4byte	0
 5553 0cdb 00000000 		.4byte	0
 5554              	.LLST77:
 5555 0cdf 1E000000 		.4byte	.LVL244
 5556 0ce3 22000000 		.4byte	.LVL245
 5557 0ce7 0200     		.2byte	0x2
 5558 0ce9 30       		.byte	0x30
 5559 0cea 9F       		.byte	0x9f
 5560 0ceb 22000000 		.4byte	.LVL245
 5561 0cef 52000000 		.4byte	.LVL257
 5562 0cf3 0100     		.2byte	0x1
 5563 0cf5 54       		.byte	0x54
 5564 0cf6 00000000 		.4byte	0
 5565 0cfa 00000000 		.4byte	0
 5566              	.LLST78:
 5567 0cfe 0E000000 		.4byte	.LVL241
 5568 0d02 12000000 		.4byte	.LVL242
 5569 0d06 0200     		.2byte	0x2
 5570 0d08 30       		.byte	0x30
 5571 0d09 9F       		.byte	0x9f
 5572 0d0a 12000000 		.4byte	.LVL242
 5573 0d0e 58000000 		.4byte	.LVL258
 5574 0d12 0100     		.2byte	0x1
 5575 0d14 55       		.byte	0x55
 5576 0d15 00000000 		.4byte	0
 5577 0d19 00000000 		.4byte	0
 5578              	.LLST79:
 5579 0d1d 3A000000 		.4byte	.LVL251
 5580 0d21 44000000 		.4byte	.LVL253
 5581 0d25 0100     		.2byte	0x1
 5582 0d27 50       		.byte	0x50
 5583 0d28 44000000 		.4byte	.LVL253
 5584 0d2c 46000000 		.4byte	.LVL254
 5585 0d30 0400     		.2byte	0x4
 5586 0d32 70       		.byte	0x70
 5587 0d33 00       		.sleb128 0
 5588 0d34 20       		.byte	0x20
 5589 0d35 9F       		.byte	0x9f
ARM GAS  C:\Users\USUARIO\AppData\Local\Temp\ccVm8SVK.s 			page 120


 5590 0d36 46000000 		.4byte	.LVL254
 5591 0d3a 49000000 		.4byte	.LVL255-1
 5592 0d3e 0100     		.2byte	0x1
 5593 0d40 50       		.byte	0x50
 5594 0d41 00000000 		.4byte	0
 5595 0d45 00000000 		.4byte	0
 5596              	.LLST80:
 5597 0d49 2A000000 		.4byte	.LVL246
 5598 0d4d 32000000 		.4byte	.LVL247
 5599 0d51 0100     		.2byte	0x1
 5600 0d53 53       		.byte	0x53
 5601 0d54 32000000 		.4byte	.LVL247
 5602 0d58 34000000 		.4byte	.LVL248
 5603 0d5c 0700     		.2byte	0x7
 5604 0d5e 31       		.byte	0x31
 5605 0d5f 76       		.byte	0x76
 5606 0d60 00       		.sleb128 0
 5607 0d61 1C       		.byte	0x1c
 5608 0d62 39       		.byte	0x39
 5609 0d63 24       		.byte	0x24
 5610 0d64 9F       		.byte	0x9f
 5611 0d65 34000000 		.4byte	.LVL248
 5612 0d69 36000000 		.4byte	.LVL249
 5613 0d6d 0100     		.2byte	0x1
 5614 0d6f 53       		.byte	0x53
 5615 0d70 36000000 		.4byte	.LVL249
 5616 0d74 38000000 		.4byte	.LVL250
 5617 0d78 1000     		.2byte	0x10
 5618 0d7a 72       		.byte	0x72
 5619 0d7b 00       		.sleb128 0
 5620 0d7c 33       		.byte	0x33
 5621 0d7d 24       		.byte	0x24
 5622 0d7e 31       		.byte	0x31
 5623 0d7f 76       		.byte	0x76
 5624 0d80 00       		.sleb128 0
 5625 0d81 1C       		.byte	0x1c
 5626 0d82 39       		.byte	0x39
 5627 0d83 24       		.byte	0x24
 5628 0d84 0A       		.byte	0xa
 5629 0d85 FFFF     		.2byte	0xffff
 5630 0d87 1A       		.byte	0x1a
 5631 0d88 22       		.byte	0x22
 5632 0d89 9F       		.byte	0x9f
 5633 0d8a 38000000 		.4byte	.LVL250
 5634 0d8e 3C000000 		.4byte	.LVL252
 5635 0d92 0100     		.2byte	0x1
 5636 0d94 53       		.byte	0x53
 5637 0d95 3C000000 		.4byte	.LVL252
 5638 0d99 49000000 		.4byte	.LVL255-1
 5639 0d9d 1700     		.2byte	0x17
 5640 0d9f 72       		.byte	0x72
 5641 0da0 00       		.sleb128 0
 5642 0da1 33       		.byte	0x33
 5643 0da2 24       		.byte	0x24
 5644 0da3 31       		.byte	0x31
 5645 0da4 76       		.byte	0x76
 5646 0da5 00       		.sleb128 0
ARM GAS  C:\Users\USUARIO\AppData\Local\Temp\ccVm8SVK.s 			page 121


 5647 0da6 1C       		.byte	0x1c
 5648 0da7 39       		.byte	0x39
 5649 0da8 24       		.byte	0x24
 5650 0da9 0A       		.byte	0xa
 5651 0daa FFFF     		.2byte	0xffff
 5652 0dac 1A       		.byte	0x1a
 5653 0dad 22       		.byte	0x22
 5654 0dae 0A       		.byte	0xa
 5655 0daf FFFF     		.2byte	0xffff
 5656 0db1 1A       		.byte	0x1a
 5657 0db2 75       		.byte	0x75
 5658 0db3 00       		.sleb128 0
 5659 0db4 22       		.byte	0x22
 5660 0db5 9F       		.byte	0x9f
 5661 0db6 49000000 		.4byte	.LVL255-1
 5662 0dba 4C000000 		.4byte	.LVL256
 5663 0dbe 1A00     		.2byte	0x1a
 5664 0dc0 08       		.byte	0x8
 5665 0dc1 3F       		.byte	0x3f
 5666 0dc2 74       		.byte	0x74
 5667 0dc3 00       		.sleb128 0
 5668 0dc4 1C       		.byte	0x1c
 5669 0dc5 33       		.byte	0x33
 5670 0dc6 24       		.byte	0x24
 5671 0dc7 31       		.byte	0x31
 5672 0dc8 76       		.byte	0x76
 5673 0dc9 00       		.sleb128 0
 5674 0dca 1C       		.byte	0x1c
 5675 0dcb 39       		.byte	0x39
 5676 0dcc 24       		.byte	0x24
 5677 0dcd 0A       		.byte	0xa
 5678 0dce FFFF     		.2byte	0xffff
 5679 0dd0 1A       		.byte	0x1a
 5680 0dd1 22       		.byte	0x22
 5681 0dd2 0A       		.byte	0xa
 5682 0dd3 FFFF     		.2byte	0xffff
 5683 0dd5 1A       		.byte	0x1a
 5684 0dd6 75       		.byte	0x75
 5685 0dd7 00       		.sleb128 0
 5686 0dd8 22       		.byte	0x22
 5687 0dd9 9F       		.byte	0x9f
 5688 0dda 00000000 		.4byte	0
 5689 0dde 00000000 		.4byte	0
 5690              		.section	.debug_aranges,"",%progbits
 5691 0000 C4000000 		.4byte	0xc4
 5692 0004 0200     		.2byte	0x2
 5693 0006 00000000 		.4byte	.Ldebug_info0
 5694 000a 04       		.byte	0x4
 5695 000b 00       		.byte	0
 5696 000c 0000     		.2byte	0
 5697 000e 0000     		.2byte	0
 5698 0010 00000000 		.4byte	.LFB64
 5699 0014 54000000 		.4byte	.LFE64-.LFB64
 5700 0018 00000000 		.4byte	.LFB74
 5701 001c 28000000 		.4byte	.LFE74-.LFB74
 5702 0020 00000000 		.4byte	.LFB82
 5703 0024 BC000000 		.4byte	.LFE82-.LFB82
ARM GAS  C:\Users\USUARIO\AppData\Local\Temp\ccVm8SVK.s 			page 122


 5704 0028 00000000 		.4byte	.LFB66
 5705 002c 0C000000 		.4byte	.LFE66-.LFB66
 5706 0030 00000000 		.4byte	.LFB63
 5707 0034 58000000 		.4byte	.LFE63-.LFB63
 5708 0038 00000000 		.4byte	.LFB65
 5709 003c 0C000000 		.4byte	.LFE65-.LFB65
 5710 0040 00000000 		.4byte	.LFB67
 5711 0044 60000000 		.4byte	.LFE67-.LFB67
 5712 0048 00000000 		.4byte	.LFB68
 5713 004c 0A000000 		.4byte	.LFE68-.LFB68
 5714 0050 00000000 		.4byte	.LFB70
 5715 0054 0C000000 		.4byte	.LFE70-.LFB70
 5716 0058 00000000 		.4byte	.LFB71
 5717 005c 0C000000 		.4byte	.LFE71-.LFB71
 5718 0060 00000000 		.4byte	.LFB69
 5719 0064 0A000000 		.4byte	.LFE69-.LFB69
 5720 0068 00000000 		.4byte	.LFB72
 5721 006c 26000000 		.4byte	.LFE72-.LFB72
 5722 0070 00000000 		.4byte	.LFB73
 5723 0074 0C000000 		.4byte	.LFE73-.LFB73
 5724 0078 00000000 		.4byte	.LFB76
 5725 007c 6C000000 		.4byte	.LFE76-.LFB76
 5726 0080 00000000 		.4byte	.LFB75
 5727 0084 16000000 		.4byte	.LFE75-.LFB75
 5728 0088 00000000 		.4byte	.LFB77
 5729 008c 58000000 		.4byte	.LFE77-.LFB77
 5730 0090 00000000 		.4byte	.LFB78
 5731 0094 D0010000 		.4byte	.LFE78-.LFB78
 5732 0098 00000000 		.4byte	.LFB79
 5733 009c 58000000 		.4byte	.LFE79-.LFB79
 5734 00a0 00000000 		.4byte	.LFB80
 5735 00a4 3E000000 		.4byte	.LFE80-.LFB80
 5736 00a8 00000000 		.4byte	.LFB81
 5737 00ac EA000000 		.4byte	.LFE81-.LFB81
 5738 00b0 00000000 		.4byte	.LFB83
 5739 00b4 C8000000 		.4byte	.LFE83-.LFB83
 5740 00b8 00000000 		.4byte	.LFB84
 5741 00bc 68000000 		.4byte	.LFE84-.LFB84
 5742 00c0 00000000 		.4byte	0
 5743 00c4 00000000 		.4byte	0
 5744              		.section	.debug_ranges,"",%progbits
 5745              	.Ldebug_ranges0:
 5746 0000 00000000 		.4byte	.LFB64
 5747 0004 54000000 		.4byte	.LFE64
 5748 0008 00000000 		.4byte	.LFB74
 5749 000c 28000000 		.4byte	.LFE74
 5750 0010 00000000 		.4byte	.LFB82
 5751 0014 BC000000 		.4byte	.LFE82
 5752 0018 00000000 		.4byte	.LFB66
 5753 001c 0C000000 		.4byte	.LFE66
 5754 0020 00000000 		.4byte	.LFB63
 5755 0024 58000000 		.4byte	.LFE63
 5756 0028 00000000 		.4byte	.LFB65
 5757 002c 0C000000 		.4byte	.LFE65
 5758 0030 00000000 		.4byte	.LFB67
 5759 0034 60000000 		.4byte	.LFE67
 5760 0038 00000000 		.4byte	.LFB68
ARM GAS  C:\Users\USUARIO\AppData\Local\Temp\ccVm8SVK.s 			page 123


 5761 003c 0A000000 		.4byte	.LFE68
 5762 0040 00000000 		.4byte	.LFB70
 5763 0044 0C000000 		.4byte	.LFE70
 5764 0048 00000000 		.4byte	.LFB71
 5765 004c 0C000000 		.4byte	.LFE71
 5766 0050 00000000 		.4byte	.LFB69
 5767 0054 0A000000 		.4byte	.LFE69
 5768 0058 00000000 		.4byte	.LFB72
 5769 005c 26000000 		.4byte	.LFE72
 5770 0060 00000000 		.4byte	.LFB73
 5771 0064 0C000000 		.4byte	.LFE73
 5772 0068 00000000 		.4byte	.LFB76
 5773 006c 6C000000 		.4byte	.LFE76
 5774 0070 00000000 		.4byte	.LFB75
 5775 0074 16000000 		.4byte	.LFE75
 5776 0078 00000000 		.4byte	.LFB77
 5777 007c 58000000 		.4byte	.LFE77
 5778 0080 00000000 		.4byte	.LFB78
 5779 0084 D0010000 		.4byte	.LFE78
 5780 0088 00000000 		.4byte	.LFB79
 5781 008c 58000000 		.4byte	.LFE79
 5782 0090 00000000 		.4byte	.LFB80
 5783 0094 3E000000 		.4byte	.LFE80
 5784 0098 00000000 		.4byte	.LFB81
 5785 009c EA000000 		.4byte	.LFE81
 5786 00a0 00000000 		.4byte	.LFB83
 5787 00a4 C8000000 		.4byte	.LFE83
 5788 00a8 00000000 		.4byte	.LFB84
 5789 00ac 68000000 		.4byte	.LFE84
 5790 00b0 00000000 		.4byte	0
 5791 00b4 00000000 		.4byte	0
 5792              		.section	.debug_line,"",%progbits
 5793              	.Ldebug_line0:
 5794 0000 2A050000 		.section	.debug_str,"MS",%progbits,1
 5794      02009F01 
 5794      00000201 
 5794      FB0E0D00 
 5794      01010101 
 5795              	.LASF84:
 5796 0000 4C434431 		.ascii	"LCD128x64_1_Rect\000"
 5796      32387836 
 5796      345F315F 
 5796      52656374 
 5796      00
 5797              	.LASF18:
 5798 0011 646F7562 		.ascii	"double\000"
 5798      6C6500
 5799              	.LASF97:
 5800 0018 67474C43 		.ascii	"gGLCD_buffer\000"
 5800      445F6275 
 5800      66666572 
 5800      00
 5801              	.LASF22:
 5802 0025 464F4E54 		.ascii	"FONT_SEVEN_DOT\000"
 5802      5F534556 
 5802      454E5F44 
 5802      4F5400
ARM GAS  C:\Users\USUARIO\AppData\Local\Temp\ccVm8SVK.s 			page 124


 5803              	.LASF87:
 5804 0034 7843656E 		.ascii	"xCenter\000"
 5804      74657200 
 5805              	.LASF92:
 5806 003c 666F6E74 		.ascii	"font\000"
 5806      00
 5807              	.LASF81:
 5808 0041 78546D70 		.ascii	"xTmp\000"
 5808      00
 5809              	.LASF5:
 5810 0046 73686F72 		.ascii	"short int\000"
 5810      7420696E 
 5810      7400
 5811              	.LASF51:
 5812 0050 676C7970 		.ascii	"glyph_scan\000"
 5812      685F7363 
 5812      616E00
 5813              	.LASF96:
 5814 005b 67474C43 		.ascii	"gGLCD_inverted\000"
 5814      445F696E 
 5814      76657274 
 5814      656400
 5815              	.LASF21:
 5816 006a 464F4E54 		.ascii	"FONT_SIX_DOT\000"
 5816      5F534958 
 5816      5F444F54 
 5816      00
 5817              	.LASF66:
 5818 0077 4C434431 		.ascii	"LCD128x64_1_WriteData\000"
 5818      32387836 
 5818      345F315F 
 5818      57726974 
 5818      65446174 
 5819              	.LASF106:
 5820 008d 47656E65 		.ascii	"Generated_Source\\PSoC5\\LCD128x64_1.c\000"
 5820      72617465 
 5820      645F536F 
 5820      75726365 
 5820      5C50536F 
 5821              	.LASF1:
 5822 00b2 6C6F6E67 		.ascii	"long long int\000"
 5822      206C6F6E 
 5822      6720696E 
 5822      7400
 5823              	.LASF91:
 5824 00c0 4C434431 		.ascii	"LCD128x64_1_Text\000"
 5824      32387836 
 5824      345F315F 
 5824      54657874 
 5824      00
 5825              	.LASF59:
 5826 00d1 6D6F6465 		.ascii	"mode\000"
 5826      00
 5827              	.LASF40:
 5828 00d6 4C434431 		.ascii	"LCD128x64_1_Glyph\000"
 5828      32387836 
 5828      345F315F 
ARM GAS  C:\Users\USUARIO\AppData\Local\Temp\ccVm8SVK.s 			page 125


 5828      476C7970 
 5828      6800
 5829              	.LASF71:
 5830 00e8 786F6666 		.ascii	"xoffset\000"
 5830      73657400 
 5831              	.LASF36:
 5832 00f0 4C434431 		.ascii	"LCD128x64_1_SelectChip\000"
 5832      32387836 
 5832      345F315F 
 5832      53656C65 
 5832      63744368 
 5833              	.LASF28:
 5834 0107 73746F72 		.ascii	"store_width\000"
 5834      655F7769 
 5834      64746800 
 5835              	.LASF27:
 5836 0113 464F4E54 		.ascii	"FONT_COUNT\000"
 5836      5F434F55 
 5836      4E5400
 5837              	.LASF98:
 5838 011e 474C4344 		.ascii	"GLCD_MaskArray\000"
 5838      5F4D6173 
 5838      6B417272 
 5838      617900
 5839              	.LASF15:
 5840 012d 75696E74 		.ascii	"uint16\000"
 5840      313600
 5841              	.LASF50:
 5842 0134 63686172 		.ascii	"char_mask\000"
 5842      5F6D6173 
 5842      6B00
 5843              	.LASF67:
 5844 013e 4C434431 		.ascii	"LCD128x64_1_Init\000"
 5844      32387836 
 5844      345F315F 
 5844      496E6974 
 5844      00
 5845              	.LASF102:
 5846 014f 4C434431 		.ascii	"LCD128x64_1_LCD_DATA_Write\000"
 5846      32387836 
 5846      345F315F 
 5846      4C43445F 
 5846      44415441 
 5847              	.LASF16:
 5848 016a 696E7431 		.ascii	"int16\000"
 5848      3600
 5849              	.LASF14:
 5850 0170 75696E74 		.ascii	"uint8\000"
 5850      3800
 5851              	.LASF46:
 5852 0176 62797465 		.ascii	"byte_offset\000"
 5852      5F6F6666 
 5852      73657400 
 5853              	.LASF32:
 5854 0182 77696474 		.ascii	"width_table\000"
 5854      685F7461 
 5854      626C6500 
ARM GAS  C:\Users\USUARIO\AppData\Local\Temp\ccVm8SVK.s 			page 126


 5855              	.LASF100:
 5856 018e 666F6E74 		.ascii	"fonts\000"
 5856      7300
 5857              	.LASF70:
 5858 0194 626F7474 		.ascii	"bottom\000"
 5858      6F6D00
 5859              	.LASF77:
 5860 019b 6269746D 		.ascii	"bitmask\000"
 5860      61736B00 
 5861              	.LASF83:
 5862 01a3 79416C74 		.ascii	"yAlt\000"
 5862      00
 5863              	.LASF42:
 5864 01a8 77696474 		.ascii	"width\000"
 5864      6800
 5865              	.LASF80:
 5866 01ae 6C656E67 		.ascii	"length\000"
 5866      746800
 5867              	.LASF56:
 5868 01b5 4C434431 		.ascii	"LCD128x64_1_TimerWait\000"
 5868      32387836 
 5868      345F315F 
 5868      54696D65 
 5868      72576169 
 5869              	.LASF17:
 5870 01cb 666C6F61 		.ascii	"float\000"
 5870      7400
 5871              	.LASF108:
 5872 01d1 464F4E54 		.ascii	"FONT_DEF\000"
 5872      5F444546 
 5872      00
 5873              	.LASF52:
 5874 01da 676C7970 		.ascii	"glyph_offset\000"
 5874      685F6F66 
 5874      66736574 
 5874      00
 5875              	.LASF82:
 5876 01e7 79546D70 		.ascii	"yTmp\000"
 5876      00
 5877              	.LASF75:
 5878 01ec 4C434431 		.ascii	"LCD128x64_1_Dot\000"
 5878      32387836 
 5878      345F315F 
 5878      446F7400 
 5879              	.LASF63:
 5880 01fc 70616765 		.ascii	"page\000"
 5880      00
 5881              	.LASF7:
 5882 0201 6C6F6E67 		.ascii	"long int\000"
 5882      20696E74 
 5882      00
 5883              	.LASF60:
 5884 020a 4C434431 		.ascii	"LCD128x64_1_WriteCommand\000"
 5884      32387836 
 5884      345F315F 
 5884      57726974 
 5884      65436F6D 
ARM GAS  C:\Users\USUARIO\AppData\Local\Temp\ccVm8SVK.s 			page 127


 5885              	.LASF65:
 5886 0223 61646472 		.ascii	"address\000"
 5886      65737300 
 5887              	.LASF39:
 5888 022b 70617474 		.ascii	"pattern\000"
 5888      65726E00 
 5889              	.LASF30:
 5890 0233 676C7970 		.ascii	"glyph_table\000"
 5890      685F7461 
 5890      626C6500 
 5891              	.LASF13:
 5892 023f 696E7433 		.ascii	"int32_t\000"
 5892      325F7400 
 5893              	.LASF74:
 5894 0247 62756666 		.ascii	"bufferAndDisplay\000"
 5894      6572416E 
 5894      64446973 
 5894      706C6179 
 5894      00
 5895              	.LASF55:
 5896 0258 4C434431 		.ascii	"LCD128x64_1_SetupIO\000"
 5896      32387836 
 5896      345F315F 
 5896      53657475 
 5896      70494F00 
 5897              	.LASF61:
 5898 026c 62797465 		.ascii	"byte\000"
 5898      00
 5899              	.LASF78:
 5900 0271 79427974 		.ascii	"yByte\000"
 5900      6500
 5901              	.LASF2:
 5902 0277 6C6F6E67 		.ascii	"long double\000"
 5902      20646F75 
 5902      626C6500 
 5903              	.LASF76:
 5904 0283 6269746E 		.ascii	"bitnum\000"
 5904      756D00
 5905              	.LASF47:
 5906 028a 795F6269 		.ascii	"y_bits\000"
 5906      747300
 5907              	.LASF4:
 5908 0291 756E7369 		.ascii	"unsigned char\000"
 5908      676E6564 
 5908      20636861 
 5908      7200
 5909              	.LASF94:
 5910 029f 4C434431 		.ascii	"LCD128x64_1_ScreenBitmap\000"
 5910      32387836 
 5910      345F315F 
 5910      53637265 
 5910      656E4269 
 5911              	.LASF29:
 5912 02b8 676C7970 		.ascii	"glyph_height\000"
 5912      685F6865 
 5912      69676874 
 5912      00
ARM GAS  C:\Users\USUARIO\AppData\Local\Temp\ccVm8SVK.s 			page 128


 5913              	.LASF73:
 5914 02c5 4C434431 		.ascii	"LCD128x64_1_ClrScr\000"
 5914      32387836 
 5914      345F315F 
 5914      436C7253 
 5914      637200
 5915              	.LASF89:
 5916 02d8 72616469 		.ascii	"radius\000"
 5916      757300
 5917              	.LASF93:
 5918 02df 676C7970 		.ascii	"glyph_ptr\000"
 5918      685F7074 
 5918      7200
 5919              	.LASF3:
 5920 02e9 7369676E 		.ascii	"signed char\000"
 5920      65642063 
 5920      68617200 
 5921              	.LASF69:
 5922 02f5 4C434431 		.ascii	"LCD128x64_1_Update\000"
 5922      32387836 
 5922      345F315F 
 5922      55706461 
 5922      746500
 5923              	.LASF9:
 5924 0308 6C6F6E67 		.ascii	"long long unsigned int\000"
 5924      206C6F6E 
 5924      6720756E 
 5924      7369676E 
 5924      65642069 
 5925              	.LASF43:
 5926 031f 68656967 		.ascii	"height\000"
 5926      687400
 5927              	.LASF0:
 5928 0326 756E7369 		.ascii	"unsigned int\000"
 5928      676E6564 
 5928      20696E74 
 5928      00
 5929              	.LASF53:
 5930 0333 4C434431 		.ascii	"LCD128x64_1_TimerSet\000"
 5930      32387836 
 5930      345F315F 
 5930      54696D65 
 5930      72536574 
 5931              	.LASF57:
 5932 0348 4C434431 		.ascii	"LCD128x64_1_WriteDataCmd\000"
 5932      32387836 
 5932      345F315F 
 5932      57726974 
 5932      65446174 
 5933              	.LASF8:
 5934 0361 6C6F6E67 		.ascii	"long unsigned int\000"
 5934      20756E73 
 5934      69676E65 
 5934      6420696E 
 5934      7400
 5935              	.LASF20:
 5936 0373 464F4E54 		.ascii	"FONT_FIVE_DOT\000"
ARM GAS  C:\Users\USUARIO\AppData\Local\Temp\ccVm8SVK.s 			page 129


 5936      5F464956 
 5936      455F444F 
 5936      5400
 5937              	.LASF26:
 5938 0381 464F4E54 		.ascii	"FONT_EIGHTEEN_DOT\000"
 5938      5F454947 
 5938      48544545 
 5938      4E5F444F 
 5938      5400
 5939              	.LASF85:
 5940 0393 4C434431 		.ascii	"LCD128x64_1_Box\000"
 5940      32387836 
 5940      345F315F 
 5940      426F7800 
 5941              	.LASF6:
 5942 03a3 73686F72 		.ascii	"short unsigned int\000"
 5942      7420756E 
 5942      7369676E 
 5942      65642069 
 5942      6E7400
 5943              	.LASF11:
 5944 03b6 63686172 		.ascii	"char\000"
 5944      00
 5945              	.LASF44:
 5946 03bb 676C7970 		.ascii	"glyph\000"
 5946      6800
 5947              	.LASF41:
 5948 03c1 6C656674 		.ascii	"left\000"
 5948      00
 5949              	.LASF88:
 5950 03c6 7943656E 		.ascii	"yCenter\000"
 5950      74657200 
 5951              	.LASF62:
 5952 03ce 4C434431 		.ascii	"LCD128x64_1_SetPage\000"
 5952      32387836 
 5952      345F315F 
 5952      53657450 
 5952      61676500 
 5953              	.LASF24:
 5954 03e2 464F4E54 		.ascii	"FONT_TEN_DOT\000"
 5954      5F54454E 
 5954      5F444F54 
 5954      00
 5955              	.LASF35:
 5956 03ef 676C7970 		.ascii	"glyph_def\000"
 5956      685F6465 
 5956      6600
 5957              	.LASF72:
 5958 03f9 64617461 		.ascii	"data\000"
 5958      00
 5959              	.LASF95:
 5960 03fe 70626974 		.ascii	"pbitmap\000"
 5960      6D617000 
 5961              	.LASF90:
 5962 0406 74537769 		.ascii	"tSwitch\000"
 5962      74636800 
 5963              	.LASF19:
ARM GAS  C:\Users\USUARIO\AppData\Local\Temp\ccVm8SVK.s 			page 130


 5964 040e 72656738 		.ascii	"reg8\000"
 5964      00
 5965              	.LASF101:
 5966 0413 4C434431 		.ascii	"LCD128x64_1_Timer_LCD_WriteCounter\000"
 5966      32387836 
 5966      345F315F 
 5966      54696D65 
 5966      725F4C43 
 5967              	.LASF107:
 5968 0436 443A5C4C 		.ascii	"D:\\Laboratorio\\Mufla\\2020\\Mufla 2.2L Psoc Avant"
 5968      61626F72 
 5968      61746F72 
 5968      696F5C4D 
 5968      75666C61 
 5969 0465 696B6120 		.ascii	"ika #0045884XX OP2020346\\Firmware Psoc\\LCD2\\Mufl"
 5969      23303034 
 5969      35383834 
 5969      5858204F 
 5969      50323032 
 5970 0495 61474C43 		.ascii	"aGLCD.cydsn\000"
 5970      442E6379 
 5970      64736E00 
 5971              	.LASF38:
 5972 04a1 63686970 		.ascii	"chip\000"
 5972      00
 5973              	.LASF25:
 5974 04a6 464F4E54 		.ascii	"FONT_FIFTEEN_DOT\000"
 5974      5F464946 
 5974      5445454E 
 5974      5F444F54 
 5974      00
 5975              	.LASF58:
 5976 04b7 64617461 		.ascii	"datacmd\000"
 5976      636D6400 
 5977              	.LASF54:
 5978 04bf 636F756E 		.ascii	"count\000"
 5978      7400
 5979              	.LASF12:
 5980 04c5 5F5F696E 		.ascii	"__int32_t\000"
 5980      7433325F 
 5980      7400
 5981              	.LASF31:
 5982 04cf 66697865 		.ascii	"fixed_width\000"
 5982      645F7769 
 5982      64746800 
 5983              	.LASF79:
 5984 04db 4C434431 		.ascii	"LCD128x64_1_Line\000"
 5984      32387836 
 5984      345F315F 
 5984      4C696E65 
 5984      00
 5985              	.LASF10:
 5986 04ec 73697A65 		.ascii	"sizetype\000"
 5986      74797065 
 5986      00
 5987              	.LASF48:
 5988 04f5 72656D61 		.ascii	"remaining_bits\000"
ARM GAS  C:\Users\USUARIO\AppData\Local\Temp\ccVm8SVK.s 			page 131


 5988      696E696E 
 5988      675F6269 
 5988      747300
 5989              	.LASF45:
 5990 0504 6269745F 		.ascii	"bit_pos\000"
 5990      706F7300 
 5991              	.LASF23:
 5992 050c 464F4E54 		.ascii	"FONT_NINE_DOT\000"
 5992      5F4E494E 
 5992      455F444F 
 5992      5400
 5993              	.LASF37:
 5994 051a 4C434431 		.ascii	"LCD128x64_1_FillBuffer\000"
 5994      32387836 
 5994      345F315F 
 5994      46696C6C 
 5994      42756666 
 5995              	.LASF104:
 5996 0531 4C434431 		.ascii	"LCD128x64_1_Timer_LCD_ReadCounter\000"
 5996      32387836 
 5996      345F315F 
 5996      54696D65 
 5996      725F4C43 
 5997              	.LASF99:
 5998 0553 49544D5F 		.ascii	"ITM_RxBuffer\000"
 5998      52784275 
 5998      66666572 
 5998      00
 5999              	.LASF105:
 6000 0560 474E5520 		.ascii	"GNU C11 5.4.1 20160609 (release) [ARM/embedded-5-br"
 6000      43313120 
 6000      352E342E 
 6000      31203230 
 6000      31363036 
 6001 0593 616E6368 		.ascii	"anch revision 237715] -mcpu=cortex-m3 -mthumb -g -O"
 6001      20726576 
 6001      6973696F 
 6001      6E203233 
 6001      37373135 
 6002 05c6 67202D66 		.ascii	"g -ffunction-sections -ffat-lto-objects\000"
 6002      66756E63 
 6002      74696F6E 
 6002      2D736563 
 6002      74696F6E 
 6003              	.LASF33:
 6004 05ee 676C7970 		.ascii	"glyph_beg\000"
 6004      685F6265 
 6004      6700
 6005              	.LASF68:
 6006 05f8 4C434431 		.ascii	"LCD128x64_1_SetInvert\000"
 6006      32387836 
 6006      345F315F 
 6006      53657449 
 6006      6E766572 
 6007              	.LASF86:
 6008 060e 4C434431 		.ascii	"LCD128x64_1_Circle\000"
 6008      32387836 
ARM GAS  C:\Users\USUARIO\AppData\Local\Temp\ccVm8SVK.s 			page 132


 6008      345F315F 
 6008      43697263 
 6008      6C6500
 6009              	.LASF103:
 6010 0621 4C434431 		.ascii	"LCD128x64_1_Timer_LCD_Start\000"
 6010      32387836 
 6010      345F315F 
 6010      54696D65 
 6010      725F4C43 
 6011              	.LASF34:
 6012 063d 676C7970 		.ascii	"glyph_end\000"
 6012      685F656E 
 6012      6400
 6013              	.LASF49:
 6014 0647 6D61736B 		.ascii	"mask\000"
 6014      00
 6015              	.LASF64:
 6016 064c 4C434431 		.ascii	"LCD128x64_1_SetAddress\000"
 6016      32387836 
 6016      345F315F 
 6016      53657441 
 6016      64647265 
 6017              		.ident	"GCC: (GNU Tools for ARM Embedded Processors) 5.4.1 20160609 (release) [ARM/embedded-5-bran
