ARM GAS  C:\Users\USUARIO\AppData\Local\Temp\ccVm8SVK.s 			page 1


   1              		.syntax unified
   2              		.cpu cortex-m3
   3              		.fpu softvfp
   4              		.eabi_attribute 20, 1
   5              		.eabi_attribute 21, 1
   6              		.eabi_attribute 23, 3
   7              		.eabi_attribute 24, 1
   8              		.eabi_attribute 25, 1
   9              		.eabi_attribute 26, 1
  10              		.eabi_attribute 30, 1
  11              		.eabi_attribute 34, 1
  12              		.eabi_attribute 18, 4
  13              		.thumb
  14              		.syntax unified
  15              		.file	"LCD128x64_1.c"
  16              		.text
  17              	.Ltext0:
  18              		.cfi_sections	.debug_frame
  19              		.section	.text.LCD128x64_1_SelectChip,"ax",%progbits
  20              		.align	2
  21              		.thumb
  22              		.thumb_func
  23              		.type	LCD128x64_1_SelectChip, %function
  24              	LCD128x64_1_SelectChip:
  25              	.LFB64:
  26              		.file 1 "Generated_Source\\PSoC5\\LCD128x64_1.c"
   1:Generated_Source\PSoC5/LCD128x64_1.c **** /*
   2:Generated_Source\PSoC5/LCD128x64_1.c ****  * Graphics-LCD KS0108 with PSoC5
   3:Generated_Source\PSoC5/LCD128x64_1.c ****  * by EA4FRB - Melchor Varela, Madrid, Spain. <melchor.varela@gmail.com>
   4:Generated_Source\PSoC5/LCD128x64_1.c ****  *
   5:Generated_Source\PSoC5/LCD128x64_1.c ****  * Code ported from Graphics-LCD KS0108 with LPC2106 
   6:Generated_Source\PSoC5/LCD128x64_1.c ****  * by Martin THOMAS <eversmith@heizung-thomas.de>
   7:Generated_Source\PSoC5/LCD128x64_1.c ****  *
   8:Generated_Source\PSoC5/LCD128x64_1.c ****  * - text-output based on code from a 8051-sample-application by Michael J. Karas
   9:Generated_Source\PSoC5/LCD128x64_1.c ****  * - graphics-functions (line/circle) from the "ape" AVR-ks0108-library
  10:Generated_Source\PSoC5/LCD128x64_1.c ****  */
  11:Generated_Source\PSoC5/LCD128x64_1.c **** 
  12:Generated_Source\PSoC5/LCD128x64_1.c **** /*
  13:Generated_Source\PSoC5/LCD128x64_1.c **** The following license is for all parts of this code done by 
  14:Generated_Source\PSoC5/LCD128x64_1.c **** Martin Thomas. Code from others used here may have other license terms.
  15:Generated_Source\PSoC5/LCD128x64_1.c **** 
  16:Generated_Source\PSoC5/LCD128x64_1.c **** Copyright (C) 2004 Martin THOMAS
  17:Generated_Source\PSoC5/LCD128x64_1.c **** 
  18:Generated_Source\PSoC5/LCD128x64_1.c **** Permission is hereby granted, free of charge, to any person obtaining a copy of
  19:Generated_Source\PSoC5/LCD128x64_1.c **** this software and associated documentation files (the "Software"), to deal in
  20:Generated_Source\PSoC5/LCD128x64_1.c **** the Software without restriction, including without limitation the rights to
  21:Generated_Source\PSoC5/LCD128x64_1.c **** use, copy, modify, merge, publish, distribute, sublicense, and/or sell copies of
  22:Generated_Source\PSoC5/LCD128x64_1.c **** the Software, and to permit persons to whom the Software is furnished to do so,
  23:Generated_Source\PSoC5/LCD128x64_1.c **** subject to the following conditions:
  24:Generated_Source\PSoC5/LCD128x64_1.c **** 
  25:Generated_Source\PSoC5/LCD128x64_1.c **** ! The above copyright notice and this permission notice shall be included in all
  26:Generated_Source\PSoC5/LCD128x64_1.c **** ! copies or substantial portions of the Software.
  27:Generated_Source\PSoC5/LCD128x64_1.c **** 
  28:Generated_Source\PSoC5/LCD128x64_1.c **** THE SOFTWARE IS PROVIDED "AS IS", WITHOUT WARRANTY OF ANY KIND, EXPRESS OR
  29:Generated_Source\PSoC5/LCD128x64_1.c **** IMPLIED, INCLUDING BUT NOT LIMITED TO THE WARRANTIES OF MERCHANTABILITY, FITNESS
  30:Generated_Source\PSoC5/LCD128x64_1.c **** FOR A PARTICULAR PURPOSE AND NONINFRINGEMENT. IN NO EVENT SHALL THE AUTHORS OR
  31:Generated_Source\PSoC5/LCD128x64_1.c **** COPYRIGHT HOLDERS BE LIABLE FOR ANY CLAIM, DAMAGES OR OTHER LIABILITY, WHETHER
ARM GAS  C:\Users\USUARIO\AppData\Local\Temp\ccVm8SVK.s 			page 2


  32:Generated_Source\PSoC5/LCD128x64_1.c **** IN AN ACTION OF CONTRACT, TORT OR OTHERWISE, ARISING FROM, OUT OF OR IN
  33:Generated_Source\PSoC5/LCD128x64_1.c **** CONNECTION WITH THE SOFTWARE OR THE USE OR OTHER DEALINGS IN THE SOFTWARE.
  34:Generated_Source\PSoC5/LCD128x64_1.c **** */
  35:Generated_Source\PSoC5/LCD128x64_1.c **** //*****************************************************************************/
  36:Generated_Source\PSoC5/LCD128x64_1.c **** //
  37:Generated_Source\PSoC5/LCD128x64_1.c **** //	PROJECT:	GLCD Library
  38:Generated_Source\PSoC5/LCD128x64_1.c **** // 	FILE NAME: 	glcd-ks0108-psoc5.c
  39:Generated_Source\PSoC5/LCD128x64_1.c **** // 	AUTHOR:		EA4FRB - Melchor Varela
  40:Generated_Source\PSoC5/LCD128x64_1.c **** //
  41:Generated_Source\PSoC5/LCD128x64_1.c **** // 	DESCRIPTION
  42:Generated_Source\PSoC5/LCD128x64_1.c **** //	
  43:Generated_Source\PSoC5/LCD128x64_1.c **** //	Graphics-LCD KS0108 with PSoC5
  44:Generated_Source\PSoC5/LCD128x64_1.c **** //
  45:Generated_Source\PSoC5/LCD128x64_1.c **** // 	HISTORY
  46:Generated_Source\PSoC5/LCD128x64_1.c **** //
  47:Generated_Source\PSoC5/LCD128x64_1.c **** //	NAME   	DATE		REMARKS
  48:Generated_Source\PSoC5/LCD128x64_1.c **** //
  49:Generated_Source\PSoC5/LCD128x64_1.c **** //	MVM	   	July 2010	Creation
  50:Generated_Source\PSoC5/LCD128x64_1.c **** //
  51:Generated_Source\PSoC5/LCD128x64_1.c **** //*****************************************************************************/
  52:Generated_Source\PSoC5/LCD128x64_1.c **** /*
  53:Generated_Source\PSoC5/LCD128x64_1.c **** PSoC5 Port Description:
  54:Generated_Source\PSoC5/LCD128x64_1.c **** 
  55:Generated_Source\PSoC5/LCD128x64_1.c **** This port has been prepared for the PSoC5 FirstTouch StarterKit. The display is 
  56:Generated_Source\PSoC5/LCD128x64_1.c **** connected to the kit using the expansion board. Since the display is powered at 5V 
  57:Generated_Source\PSoC5/LCD128x64_1.c **** and the PSoC5 is operating at 3.3V and the I/O ports are not 5V compatible, it has been
  58:Generated_Source\PSoC5/LCD128x64_1.c **** decided using the display in write mode only and perform the busy check with a
  59:Generated_Source\PSoC5/LCD128x64_1.c **** timer. Therefore the display R/W is cabled to '0' level.
  60:Generated_Source\PSoC5/LCD128x64_1.c **** 
  61:Generated_Source\PSoC5/LCD128x64_1.c **** Hardware resources:
  62:Generated_Source\PSoC5/LCD128x64_1.c **** 
  63:Generated_Source\PSoC5/LCD128x64_1.c **** - Timer_LCD: Timer 16bit operating @ 24 Mhz in one-shot mode
  64:Generated_Source\PSoC5/LCD128x64_1.c **** - LCDC: Digital output pins block for display control 
  65:Generated_Source\PSoC5/LCD128x64_1.c **** - LCDD: Digital output pins block for display data 
  66:Generated_Source\PSoC5/LCD128x64_1.c **** - LCD_DATA: Control register connected to LCDD for display data
  67:Generated_Source\PSoC5/LCD128x64_1.c **** 
  68:Generated_Source\PSoC5/LCD128x64_1.c **** Pin Mapping:
  69:Generated_Source\PSoC5/LCD128x64_1.c **** 	- CS1	P2_7
  70:Generated_Source\PSoC5/LCD128x64_1.c **** 	- CS2	P2_6
  71:Generated_Source\PSoC5/LCD128x64_1.c **** 	- RST	P6_7
  72:Generated_Source\PSoC5/LCD128x64_1.c **** 	- E		P6_5
  73:Generated_Source\PSoC5/LCD128x64_1.c **** 	- DI	P6_6
  74:Generated_Source\PSoC5/LCD128x64_1.c **** 	- D0	P6_3
  75:Generated_Source\PSoC5/LCD128x64_1.c **** 	- D1	P6_2
  76:Generated_Source\PSoC5/LCD128x64_1.c **** 	- D2	P6_1
  77:Generated_Source\PSoC5/LCD128x64_1.c **** 	- D3	P6_0
  78:Generated_Source\PSoC5/LCD128x64_1.c **** 	- D4	P4_7
  79:Generated_Source\PSoC5/LCD128x64_1.c **** 	- D5	P4_6
  80:Generated_Source\PSoC5/LCD128x64_1.c **** 	- D6	P4_5
  81:Generated_Source\PSoC5/LCD128x64_1.c **** 	- D7	P4_4
  82:Generated_Source\PSoC5/LCD128x64_1.c **** 	- R/W	"0"
  83:Generated_Source\PSoC5/LCD128x64_1.c **** */
  84:Generated_Source\PSoC5/LCD128x64_1.c **** 
  85:Generated_Source\PSoC5/LCD128x64_1.c **** //#include <device.h>
  86:Generated_Source\PSoC5/LCD128x64_1.c **** 
  87:Generated_Source\PSoC5/LCD128x64_1.c **** //#include "glcd.h"
  88:Generated_Source\PSoC5/LCD128x64_1.c **** //#include "fonts.h"
ARM GAS  C:\Users\USUARIO\AppData\Local\Temp\ccVm8SVK.s 			page 3


  89:Generated_Source\PSoC5/LCD128x64_1.c **** 
  90:Generated_Source\PSoC5/LCD128x64_1.c **** #include "LCD128x64_1.h"
  91:Generated_Source\PSoC5/LCD128x64_1.c **** #include <device.h>
  92:Generated_Source\PSoC5/LCD128x64_1.c **** 
  93:Generated_Source\PSoC5/LCD128x64_1.c **** 
  94:Generated_Source\PSoC5/LCD128x64_1.c **** 
  95:Generated_Source\PSoC5/LCD128x64_1.c **** //-----------------------------------------------------------------------------
  96:Generated_Source\PSoC5/LCD128x64_1.c **** //  Defines
  97:Generated_Source\PSoC5/LCD128x64_1.c **** //-----------------------------------------------------------------------------
  98:Generated_Source\PSoC5/LCD128x64_1.c **** #define GLCD_MODECMD  0
  99:Generated_Source\PSoC5/LCD128x64_1.c **** #define GLCD_MODEDATA 1
 100:Generated_Source\PSoC5/LCD128x64_1.c **** 
 101:Generated_Source\PSoC5/LCD128x64_1.c **** #define GLCD_ON				0x3F
 102:Generated_Source\PSoC5/LCD128x64_1.c **** #define GLCD_DISP_START0	0xC0
 103:Generated_Source\PSoC5/LCD128x64_1.c **** #define GLCD_SET_PAGE       0xB8
 104:Generated_Source\PSoC5/LCD128x64_1.c **** #define GLCD_SET_ADDRESS	0x40
 105:Generated_Source\PSoC5/LCD128x64_1.c **** 
 106:Generated_Source\PSoC5/LCD128x64_1.c **** #define GLCD_X_BYTES 	(GLCD_NUMCONTROLLERX*GLCD_MAXADDRESS)
 107:Generated_Source\PSoC5/LCD128x64_1.c **** #define GLCD_Y_BYTES 	(GLCD_NUMCONTROLLERY*GLCD_MAXPAGE)
 108:Generated_Source\PSoC5/LCD128x64_1.c **** 
 109:Generated_Source\PSoC5/LCD128x64_1.c **** #define GLCD_SELECTNONE		99
 110:Generated_Source\PSoC5/LCD128x64_1.c **** 
 111:Generated_Source\PSoC5/LCD128x64_1.c **** //#define TIMER_LCD_PERIOD_NS	(1000000000/24000000)
 112:Generated_Source\PSoC5/LCD128x64_1.c **** #define TIMER_LCD_PERIOD_NS	(1000000000/24000000)
 113:Generated_Source\PSoC5/LCD128x64_1.c **** #define NS_TO_COUNT(ns)		((ns)/TIMER_LCD_PERIOD_NS)			
 114:Generated_Source\PSoC5/LCD128x64_1.c **** 
 115:Generated_Source\PSoC5/LCD128x64_1.c **** //#define	BUSY_TIME_NS		1000	//1uS
 116:Generated_Source\PSoC5/LCD128x64_1.c **** #define	BUSY_TIME_NS		1000	//1uS
 117:Generated_Source\PSoC5/LCD128x64_1.c **** //#define E_WIDTH_NS			450
 118:Generated_Source\PSoC5/LCD128x64_1.c **** //#define ADDR_SETUP_NS		140
 119:Generated_Source\PSoC5/LCD128x64_1.c **** #define E_WIDTH_NS			450
 120:Generated_Source\PSoC5/LCD128x64_1.c **** #define ADDR_SETUP_NS		140
 121:Generated_Source\PSoC5/LCD128x64_1.c **** //-----------------------------------------------------------------------------
 122:Generated_Source\PSoC5/LCD128x64_1.c **** //  Locals
 123:Generated_Source\PSoC5/LCD128x64_1.c **** //-----------------------------------------------------------------------------
 124:Generated_Source\PSoC5/LCD128x64_1.c **** static uint8 gGLCD_inverted;
 125:Generated_Source\PSoC5/LCD128x64_1.c **** 
 126:Generated_Source\PSoC5/LCD128x64_1.c **** static uint8 gGLCD_buffer[GLCD_Y_BYTES][GLCD_X_BYTES];
 127:Generated_Source\PSoC5/LCD128x64_1.c **** 
 128:Generated_Source\PSoC5/LCD128x64_1.c **** /* from MJK: pixel level bit masks for display */
 129:Generated_Source\PSoC5/LCD128x64_1.c **** /* this array is setup to map the order */
 130:Generated_Source\PSoC5/LCD128x64_1.c **** /* of bits in a byte to the vertical order */
 131:Generated_Source\PSoC5/LCD128x64_1.c **** /* of bits at the LCD controller */
 132:Generated_Source\PSoC5/LCD128x64_1.c **** /* TODO: use somekind of (1<<n) macro */
 133:Generated_Source\PSoC5/LCD128x64_1.c **** static const uint8 GLCD_MaskArray[8] =
 134:Generated_Source\PSoC5/LCD128x64_1.c ****          {0x01,0x02,0x04,0x08,0x10,0x20,0x40,0x80};
 135:Generated_Source\PSoC5/LCD128x64_1.c **** 
 136:Generated_Source\PSoC5/LCD128x64_1.c **** //-----------------------------------------------------------------------------
 137:Generated_Source\PSoC5/LCD128x64_1.c **** //  Prototypes
 138:Generated_Source\PSoC5/LCD128x64_1.c **** //-----------------------------------------------------------------------------
 139:Generated_Source\PSoC5/LCD128x64_1.c **** static void LCD128x64_1_SetupIO(void);
 140:Generated_Source\PSoC5/LCD128x64_1.c **** static void LCD128x64_1_TimerWait(void);
 141:Generated_Source\PSoC5/LCD128x64_1.c **** static void LCD128x64_1_TimerSet(uint16 count);
 142:Generated_Source\PSoC5/LCD128x64_1.c **** static void LCD128x64_1_SetPage(uint8 page);
 143:Generated_Source\PSoC5/LCD128x64_1.c **** static void LCD128x64_1_SetAddress(uint8 address);
 144:Generated_Source\PSoC5/LCD128x64_1.c **** static void LCD128x64_1_SelectChip(uint8 chip);
 145:Generated_Source\PSoC5/LCD128x64_1.c **** static void LCD128x64_1_WriteDataCmd(uint8 byte, uint8 mode);
ARM GAS  C:\Users\USUARIO\AppData\Local\Temp\ccVm8SVK.s 			page 4


 146:Generated_Source\PSoC5/LCD128x64_1.c **** static void LCD128x64_1_WriteCommand(uint8 byte);
 147:Generated_Source\PSoC5/LCD128x64_1.c **** static void LCD128x64_1_WriteData(uint8 byte);
 148:Generated_Source\PSoC5/LCD128x64_1.c **** 
 149:Generated_Source\PSoC5/LCD128x64_1.c **** static void LCD128x64_1_FillBuffer(uint8 pattern);
 150:Generated_Source\PSoC5/LCD128x64_1.c **** 
 151:Generated_Source\PSoC5/LCD128x64_1.c **** static void LCD128x64_1_Glyph(uint8 left, uint8 top,
 152:Generated_Source\PSoC5/LCD128x64_1.c **** 			   uint8 width, uint8 height,
 153:Generated_Source\PSoC5/LCD128x64_1.c **** 			   const uint8 *glyph, uint8 store_width);
 154:Generated_Source\PSoC5/LCD128x64_1.c **** 
 155:Generated_Source\PSoC5/LCD128x64_1.c **** //-----------------------------------------------------------------------------
 156:Generated_Source\PSoC5/LCD128x64_1.c **** //  FUNCTION NAME:	GLCD_SetupIO
 157:Generated_Source\PSoC5/LCD128x64_1.c **** //
 158:Generated_Source\PSoC5/LCD128x64_1.c **** //  DESCRIPTION:
 159:Generated_Source\PSoC5/LCD128x64_1.c **** //
 160:Generated_Source\PSoC5/LCD128x64_1.c **** //	Initializes I/O ports
 161:Generated_Source\PSoC5/LCD128x64_1.c **** //
 162:Generated_Source\PSoC5/LCD128x64_1.c **** //  ARGUMENTS:
 163:Generated_Source\PSoC5/LCD128x64_1.c **** //     none.
 164:Generated_Source\PSoC5/LCD128x64_1.c **** //
 165:Generated_Source\PSoC5/LCD128x64_1.c **** //  RETURNS:
 166:Generated_Source\PSoC5/LCD128x64_1.c **** //     none.
 167:Generated_Source\PSoC5/LCD128x64_1.c **** //
 168:Generated_Source\PSoC5/LCD128x64_1.c **** //-----------------------------------------------------------------------------
 169:Generated_Source\PSoC5/LCD128x64_1.c **** static void LCD128x64_1_SetupIO(void)
 170:Generated_Source\PSoC5/LCD128x64_1.c **** {
 171:Generated_Source\PSoC5/LCD128x64_1.c **** 	LCD128x64_1_LCD_DATA_Write(0);
 172:Generated_Source\PSoC5/LCD128x64_1.c **** 	
 173:Generated_Source\PSoC5/LCD128x64_1.c **** 	CyPins_ClearPin(LCD128x64_1_LCDC_E);
 174:Generated_Source\PSoC5/LCD128x64_1.c **** 	CyPins_ClearPin(LCD128x64_1_LCDC_CS1);
 175:Generated_Source\PSoC5/LCD128x64_1.c **** 	CyPins_ClearPin(LCD128x64_1_LCDC_CS2);
 176:Generated_Source\PSoC5/LCD128x64_1.c **** 	CyPins_ClearPin(LCD128x64_1_LCDC_DI);
 177:Generated_Source\PSoC5/LCD128x64_1.c **** 
 178:Generated_Source\PSoC5/LCD128x64_1.c **** 	CyPins_ClearPin(LCD128x64_1_LCDC_RST);
 179:Generated_Source\PSoC5/LCD128x64_1.c **** 	CyPins_SetPin(LCD128x64_1_LCDC_RST);
 180:Generated_Source\PSoC5/LCD128x64_1.c **** 	
 181:Generated_Source\PSoC5/LCD128x64_1.c **** 	LCD128x64_1_Timer_LCD_Start();
 182:Generated_Source\PSoC5/LCD128x64_1.c **** 	LCD128x64_1_TimerSet(NS_TO_COUNT(BUSY_TIME_NS));
 183:Generated_Source\PSoC5/LCD128x64_1.c **** }
 184:Generated_Source\PSoC5/LCD128x64_1.c **** 
 185:Generated_Source\PSoC5/LCD128x64_1.c **** //-----------------------------------------------------------------------------
 186:Generated_Source\PSoC5/LCD128x64_1.c **** //  FUNCTION NAME:	GLCD_SelectChip
 187:Generated_Source\PSoC5/LCD128x64_1.c **** //
 188:Generated_Source\PSoC5/LCD128x64_1.c **** //  DESCRIPTION:
 189:Generated_Source\PSoC5/LCD128x64_1.c **** //
 190:Generated_Source\PSoC5/LCD128x64_1.c **** //	Selects controller
 191:Generated_Source\PSoC5/LCD128x64_1.c **** //
 192:Generated_Source\PSoC5/LCD128x64_1.c **** //  ARGUMENTS:
 193:Generated_Source\PSoC5/LCD128x64_1.c **** //     chip		{0,1,GLCD_SELECTNONE} 
 194:Generated_Source\PSoC5/LCD128x64_1.c **** //
 195:Generated_Source\PSoC5/LCD128x64_1.c **** //  RETURNS:
 196:Generated_Source\PSoC5/LCD128x64_1.c **** //     none.
 197:Generated_Source\PSoC5/LCD128x64_1.c **** //
 198:Generated_Source\PSoC5/LCD128x64_1.c **** //-----------------------------------------------------------------------------
 199:Generated_Source\PSoC5/LCD128x64_1.c **** static void LCD128x64_1_SelectChip(uint8 chip)
 200:Generated_Source\PSoC5/LCD128x64_1.c **** {
  27              		.loc 1 200 0
  28              		.cfi_startproc
ARM GAS  C:\Users\USUARIO\AppData\Local\Temp\ccVm8SVK.s 			page 5


  29              		@ args = 0, pretend = 0, frame = 0
  30              		@ frame_needed = 0, uses_anonymous_args = 0
  31              		@ link register save eliminated.
  32              	.LVL0:
 201:Generated_Source\PSoC5/LCD128x64_1.c **** 	switch (chip) {
  33              		.loc 1 201 0
  34 0000 0128     		cmp	r0, #1
  35 0002 0ED0     		beq	.L3
  36 0004 10B1     		cbz	r0, .L4
  37 0006 6328     		cmp	r0, #99
  38 0008 16D0     		beq	.L5
  39 000a 7047     		bx	lr
  40              	.L4:
 202:Generated_Source\PSoC5/LCD128x64_1.c **** 		case 0 : 
 203:Generated_Source\PSoC5/LCD128x64_1.c **** 			CyPins_ClearPin(LCD128x64_1_LCDC_CS1);
  41              		.loc 1 203 0
  42 000c 104A     		ldr	r2, .L6
  43 000e 1378     		ldrb	r3, [r2]	@ zero_extendqisi2
  44 0010 03F0FE03 		and	r3, r3, #254
  45 0014 1370     		strb	r3, [r2]
 204:Generated_Source\PSoC5/LCD128x64_1.c **** 			CyPins_SetPin(LCD128x64_1_LCDC_CS2);
  46              		.loc 1 204 0
  47 0016 2432     		adds	r2, r2, #36
  48 0018 1378     		ldrb	r3, [r2]	@ zero_extendqisi2
  49 001a 43F00103 		orr	r3, r3, #1
  50 001e 1370     		strb	r3, [r2]
 205:Generated_Source\PSoC5/LCD128x64_1.c **** 			break;
  51              		.loc 1 205 0
  52 0020 7047     		bx	lr
  53              	.L3:
 206:Generated_Source\PSoC5/LCD128x64_1.c **** 		case 1:
 207:Generated_Source\PSoC5/LCD128x64_1.c **** 			CyPins_SetPin(LCD128x64_1_LCDC_CS1);
  54              		.loc 1 207 0
  55 0022 0B4A     		ldr	r2, .L6
  56 0024 1378     		ldrb	r3, [r2]	@ zero_extendqisi2
  57 0026 43F00103 		orr	r3, r3, #1
  58 002a 1370     		strb	r3, [r2]
 208:Generated_Source\PSoC5/LCD128x64_1.c **** 			CyPins_ClearPin(LCD128x64_1_LCDC_CS2);
  59              		.loc 1 208 0
  60 002c 2432     		adds	r2, r2, #36
  61 002e 1378     		ldrb	r3, [r2]	@ zero_extendqisi2
  62 0030 03F0FE03 		and	r3, r3, #254
  63 0034 1370     		strb	r3, [r2]
 209:Generated_Source\PSoC5/LCD128x64_1.c **** 			break;
  64              		.loc 1 209 0
  65 0036 7047     		bx	lr
  66              	.L5:
 210:Generated_Source\PSoC5/LCD128x64_1.c **** 		case GLCD_SELECTNONE:
 211:Generated_Source\PSoC5/LCD128x64_1.c **** 			CyPins_ClearPin(LCD128x64_1_LCDC_CS1);
  67              		.loc 1 211 0
  68 0038 054A     		ldr	r2, .L6
  69 003a 1378     		ldrb	r3, [r2]	@ zero_extendqisi2
  70 003c 03F0FE03 		and	r3, r3, #254
  71 0040 1370     		strb	r3, [r2]
 212:Generated_Source\PSoC5/LCD128x64_1.c **** 			CyPins_ClearPin(LCD128x64_1_LCDC_CS2);
  72              		.loc 1 212 0
  73 0042 2432     		adds	r2, r2, #36
ARM GAS  C:\Users\USUARIO\AppData\Local\Temp\ccVm8SVK.s 			page 6


  74 0044 1378     		ldrb	r3, [r2]	@ zero_extendqisi2
  75 0046 03F0FE03 		and	r3, r3, #254
  76 004a 1370     		strb	r3, [r2]
  77 004c 7047     		bx	lr
  78              	.L7:
  79 004e 00BF     		.align	2
  80              	.L6:
  81 0050 11500040 		.word	1073762321
  82              		.cfi_endproc
  83              	.LFE64:
  84              		.size	LCD128x64_1_SelectChip, .-LCD128x64_1_SelectChip
  85              		.section	.text.LCD128x64_1_FillBuffer,"ax",%progbits
  86              		.align	2
  87              		.thumb
  88              		.thumb_func
  89              		.type	LCD128x64_1_FillBuffer, %function
  90              	LCD128x64_1_FillBuffer:
  91              	.LFB74:
 213:Generated_Source\PSoC5/LCD128x64_1.c **** 			break;
 214:Generated_Source\PSoC5/LCD128x64_1.c **** 		default: 
 215:Generated_Source\PSoC5/LCD128x64_1.c **** 			break;
 216:Generated_Source\PSoC5/LCD128x64_1.c **** 	}
 217:Generated_Source\PSoC5/LCD128x64_1.c **** }
 218:Generated_Source\PSoC5/LCD128x64_1.c **** 
 219:Generated_Source\PSoC5/LCD128x64_1.c **** //-----------------------------------------------------------------------------
 220:Generated_Source\PSoC5/LCD128x64_1.c **** //  FUNCTION NAME:	GLCD_TimerWait
 221:Generated_Source\PSoC5/LCD128x64_1.c **** //
 222:Generated_Source\PSoC5/LCD128x64_1.c **** //  DESCRIPTION:
 223:Generated_Source\PSoC5/LCD128x64_1.c **** //
 224:Generated_Source\PSoC5/LCD128x64_1.c **** //	Waits for timer end count
 225:Generated_Source\PSoC5/LCD128x64_1.c **** //
 226:Generated_Source\PSoC5/LCD128x64_1.c **** //  ARGUMENTS:
 227:Generated_Source\PSoC5/LCD128x64_1.c **** //     none.
 228:Generated_Source\PSoC5/LCD128x64_1.c **** //
 229:Generated_Source\PSoC5/LCD128x64_1.c **** //  RETURNS:
 230:Generated_Source\PSoC5/LCD128x64_1.c **** //     none.
 231:Generated_Source\PSoC5/LCD128x64_1.c **** //
 232:Generated_Source\PSoC5/LCD128x64_1.c **** //-----------------------------------------------------------------------------
 233:Generated_Source\PSoC5/LCD128x64_1.c **** static void LCD128x64_1_TimerWait(void)
 234:Generated_Source\PSoC5/LCD128x64_1.c **** {
 235:Generated_Source\PSoC5/LCD128x64_1.c **** 	while (LCD128x64_1_Timer_LCD_ReadCounter()!=0)
 236:Generated_Source\PSoC5/LCD128x64_1.c **** 	{;}
 237:Generated_Source\PSoC5/LCD128x64_1.c **** }
 238:Generated_Source\PSoC5/LCD128x64_1.c **** 
 239:Generated_Source\PSoC5/LCD128x64_1.c **** //-----------------------------------------------------------------------------
 240:Generated_Source\PSoC5/LCD128x64_1.c **** //  FUNCTION NAME:	GLCD_TimerSet
 241:Generated_Source\PSoC5/LCD128x64_1.c **** //
 242:Generated_Source\PSoC5/LCD128x64_1.c **** //  DESCRIPTION:
 243:Generated_Source\PSoC5/LCD128x64_1.c **** //
 244:Generated_Source\PSoC5/LCD128x64_1.c **** //	Sets timer count
 245:Generated_Source\PSoC5/LCD128x64_1.c **** //
 246:Generated_Source\PSoC5/LCD128x64_1.c **** //  ARGUMENTS:
 247:Generated_Source\PSoC5/LCD128x64_1.c **** //     count	number of counts (clock @ 24Mhz)
 248:Generated_Source\PSoC5/LCD128x64_1.c **** //
 249:Generated_Source\PSoC5/LCD128x64_1.c **** //  RETURNS:
 250:Generated_Source\PSoC5/LCD128x64_1.c **** //     none.
 251:Generated_Source\PSoC5/LCD128x64_1.c **** //
ARM GAS  C:\Users\USUARIO\AppData\Local\Temp\ccVm8SVK.s 			page 7


 252:Generated_Source\PSoC5/LCD128x64_1.c **** //-----------------------------------------------------------------------------
 253:Generated_Source\PSoC5/LCD128x64_1.c **** static void LCD128x64_1_TimerSet(uint16 count)
 254:Generated_Source\PSoC5/LCD128x64_1.c **** {
 255:Generated_Source\PSoC5/LCD128x64_1.c **** 	LCD128x64_1_Timer_LCD_WriteCounter(count+1);
 256:Generated_Source\PSoC5/LCD128x64_1.c **** }
 257:Generated_Source\PSoC5/LCD128x64_1.c **** 
 258:Generated_Source\PSoC5/LCD128x64_1.c **** //-----------------------------------------------------------------------------
 259:Generated_Source\PSoC5/LCD128x64_1.c **** //  FUNCTION NAME:	GLCD_WriteDataCmd
 260:Generated_Source\PSoC5/LCD128x64_1.c **** //
 261:Generated_Source\PSoC5/LCD128x64_1.c **** //  DESCRIPTION:
 262:Generated_Source\PSoC5/LCD128x64_1.c **** //
 263:Generated_Source\PSoC5/LCD128x64_1.c **** //	Writes to display controller
 264:Generated_Source\PSoC5/LCD128x64_1.c **** //
 265:Generated_Source\PSoC5/LCD128x64_1.c **** //  ARGUMENTS:
 266:Generated_Source\PSoC5/LCD128x64_1.c **** //     	datacmd		data or command
 267:Generated_Source\PSoC5/LCD128x64_1.c **** //		mode		{GLCD_MODECMD, GLCD_MODEDATA}
 268:Generated_Source\PSoC5/LCD128x64_1.c **** //
 269:Generated_Source\PSoC5/LCD128x64_1.c **** //  RETURNS:
 270:Generated_Source\PSoC5/LCD128x64_1.c **** //     none.
 271:Generated_Source\PSoC5/LCD128x64_1.c **** //
 272:Generated_Source\PSoC5/LCD128x64_1.c **** //-----------------------------------------------------------------------------
 273:Generated_Source\PSoC5/LCD128x64_1.c **** static void LCD128x64_1_WriteDataCmd(uint8 datacmd, uint8 mode)
 274:Generated_Source\PSoC5/LCD128x64_1.c **** {				
 275:Generated_Source\PSoC5/LCD128x64_1.c **** 	LCD128x64_1_TimerWait();
 276:Generated_Source\PSoC5/LCD128x64_1.c **** 	
 277:Generated_Source\PSoC5/LCD128x64_1.c **** 	if (mode == GLCD_MODECMD)
 278:Generated_Source\PSoC5/LCD128x64_1.c **** 		CyPins_ClearPin(LCD128x64_1_LCDC_DI);	// DI to 0 (command)																							
 279:Generated_Source\PSoC5/LCD128x64_1.c **** 	else
 280:Generated_Source\PSoC5/LCD128x64_1.c **** 		CyPins_SetPin(LCD128x64_1_LCDC_DI);		// DI to 1 (data)																							
 281:Generated_Source\PSoC5/LCD128x64_1.c **** 
 282:Generated_Source\PSoC5/LCD128x64_1.c **** 									// Address setup time
 283:Generated_Source\PSoC5/LCD128x64_1.c **** 	LCD128x64_1_TimerSet(NS_TO_COUNT(ADDR_SETUP_NS));
 284:Generated_Source\PSoC5/LCD128x64_1.c **** 	LCD128x64_1_TimerWait();
 285:Generated_Source\PSoC5/LCD128x64_1.c **** 
 286:Generated_Source\PSoC5/LCD128x64_1.c **** 	LCD128x64_1_LCD_DATA_Write(datacmd);
 287:Generated_Source\PSoC5/LCD128x64_1.c **** 	
 288:Generated_Source\PSoC5/LCD128x64_1.c **** 	CyPins_SetPin(LCD128x64_1_LCDC_E);
 289:Generated_Source\PSoC5/LCD128x64_1.c **** 									// Need E high for at least 450ns
 290:Generated_Source\PSoC5/LCD128x64_1.c **** 	LCD128x64_1_TimerSet(NS_TO_COUNT(E_WIDTH_NS));
 291:Generated_Source\PSoC5/LCD128x64_1.c **** 	LCD128x64_1_TimerWait();
 292:Generated_Source\PSoC5/LCD128x64_1.c **** 	CyPins_ClearPin(LCD128x64_1_LCDC_E);
 293:Generated_Source\PSoC5/LCD128x64_1.c **** 									// Starts busy wait time
 294:Generated_Source\PSoC5/LCD128x64_1.c **** 	LCD128x64_1_TimerSet(NS_TO_COUNT(BUSY_TIME_NS));
 295:Generated_Source\PSoC5/LCD128x64_1.c **** }
 296:Generated_Source\PSoC5/LCD128x64_1.c **** 
 297:Generated_Source\PSoC5/LCD128x64_1.c **** //-----------------------------------------------------------------------------
 298:Generated_Source\PSoC5/LCD128x64_1.c **** //  FUNCTION NAME:	GLCD_WriteCommand
 299:Generated_Source\PSoC5/LCD128x64_1.c **** //
 300:Generated_Source\PSoC5/LCD128x64_1.c **** //  DESCRIPTION:
 301:Generated_Source\PSoC5/LCD128x64_1.c **** //
 302:Generated_Source\PSoC5/LCD128x64_1.c **** //	Writes command to display controller
 303:Generated_Source\PSoC5/LCD128x64_1.c **** //
 304:Generated_Source\PSoC5/LCD128x64_1.c **** //  ARGUMENTS:
 305:Generated_Source\PSoC5/LCD128x64_1.c **** //     	byte		command
 306:Generated_Source\PSoC5/LCD128x64_1.c **** //
 307:Generated_Source\PSoC5/LCD128x64_1.c **** //  RETURNS:
 308:Generated_Source\PSoC5/LCD128x64_1.c **** //     none.
ARM GAS  C:\Users\USUARIO\AppData\Local\Temp\ccVm8SVK.s 			page 8


 309:Generated_Source\PSoC5/LCD128x64_1.c **** //
 310:Generated_Source\PSoC5/LCD128x64_1.c **** //-----------------------------------------------------------------------------
 311:Generated_Source\PSoC5/LCD128x64_1.c **** static void LCD128x64_1_WriteCommand(uint8 byte)
 312:Generated_Source\PSoC5/LCD128x64_1.c **** {
 313:Generated_Source\PSoC5/LCD128x64_1.c **** 	LCD128x64_1_WriteDataCmd(byte, GLCD_MODECMD);
 314:Generated_Source\PSoC5/LCD128x64_1.c **** }
 315:Generated_Source\PSoC5/LCD128x64_1.c **** 
 316:Generated_Source\PSoC5/LCD128x64_1.c **** //-----------------------------------------------------------------------------
 317:Generated_Source\PSoC5/LCD128x64_1.c **** //  FUNCTION NAME:	GLCD_WriteData
 318:Generated_Source\PSoC5/LCD128x64_1.c **** //
 319:Generated_Source\PSoC5/LCD128x64_1.c **** //  DESCRIPTION:
 320:Generated_Source\PSoC5/LCD128x64_1.c **** //
 321:Generated_Source\PSoC5/LCD128x64_1.c **** //	Writes data to display controller
 322:Generated_Source\PSoC5/LCD128x64_1.c **** //
 323:Generated_Source\PSoC5/LCD128x64_1.c **** //  ARGUMENTS:
 324:Generated_Source\PSoC5/LCD128x64_1.c **** //     	byte		data
 325:Generated_Source\PSoC5/LCD128x64_1.c **** //
 326:Generated_Source\PSoC5/LCD128x64_1.c **** //  RETURNS:
 327:Generated_Source\PSoC5/LCD128x64_1.c **** //     none.
 328:Generated_Source\PSoC5/LCD128x64_1.c **** //
 329:Generated_Source\PSoC5/LCD128x64_1.c **** //-----------------------------------------------------------------------------
 330:Generated_Source\PSoC5/LCD128x64_1.c **** static void LCD128x64_1_WriteData(uint8 byte)
 331:Generated_Source\PSoC5/LCD128x64_1.c **** {
 332:Generated_Source\PSoC5/LCD128x64_1.c **** 	LCD128x64_1_WriteDataCmd(byte, GLCD_MODEDATA);
 333:Generated_Source\PSoC5/LCD128x64_1.c **** }
 334:Generated_Source\PSoC5/LCD128x64_1.c **** 
 335:Generated_Source\PSoC5/LCD128x64_1.c **** //-----------------------------------------------------------------------------
 336:Generated_Source\PSoC5/LCD128x64_1.c **** //  FUNCTION NAME:	GLCD_SetPage
 337:Generated_Source\PSoC5/LCD128x64_1.c **** //
 338:Generated_Source\PSoC5/LCD128x64_1.c **** //  DESCRIPTION:
 339:Generated_Source\PSoC5/LCD128x64_1.c **** //
 340:Generated_Source\PSoC5/LCD128x64_1.c **** //	Sets display page in display controller
 341:Generated_Source\PSoC5/LCD128x64_1.c **** //
 342:Generated_Source\PSoC5/LCD128x64_1.c **** //  ARGUMENTS:
 343:Generated_Source\PSoC5/LCD128x64_1.c **** //     	page		
 344:Generated_Source\PSoC5/LCD128x64_1.c **** //
 345:Generated_Source\PSoC5/LCD128x64_1.c **** //  RETURNS:
 346:Generated_Source\PSoC5/LCD128x64_1.c **** //     none.
 347:Generated_Source\PSoC5/LCD128x64_1.c **** //
 348:Generated_Source\PSoC5/LCD128x64_1.c **** //-----------------------------------------------------------------------------
 349:Generated_Source\PSoC5/LCD128x64_1.c **** static void LCD128x64_1_SetPage(uint8 page)
 350:Generated_Source\PSoC5/LCD128x64_1.c **** {
 351:Generated_Source\PSoC5/LCD128x64_1.c **** 	LCD128x64_1_WriteCommand(GLCD_SET_PAGE+page);
 352:Generated_Source\PSoC5/LCD128x64_1.c **** }
 353:Generated_Source\PSoC5/LCD128x64_1.c **** 
 354:Generated_Source\PSoC5/LCD128x64_1.c **** //-----------------------------------------------------------------------------
 355:Generated_Source\PSoC5/LCD128x64_1.c **** //  FUNCTION NAME:	GLCD_SetAddress
 356:Generated_Source\PSoC5/LCD128x64_1.c **** //
 357:Generated_Source\PSoC5/LCD128x64_1.c **** //  DESCRIPTION:
 358:Generated_Source\PSoC5/LCD128x64_1.c **** //
 359:Generated_Source\PSoC5/LCD128x64_1.c **** //	Sets display address in display controller
 360:Generated_Source\PSoC5/LCD128x64_1.c **** //
 361:Generated_Source\PSoC5/LCD128x64_1.c **** //  ARGUMENTS:
 362:Generated_Source\PSoC5/LCD128x64_1.c **** //     	address		
 363:Generated_Source\PSoC5/LCD128x64_1.c **** //
 364:Generated_Source\PSoC5/LCD128x64_1.c **** //  RETURNS:
 365:Generated_Source\PSoC5/LCD128x64_1.c **** //     none.
ARM GAS  C:\Users\USUARIO\AppData\Local\Temp\ccVm8SVK.s 			page 9


 366:Generated_Source\PSoC5/LCD128x64_1.c **** //
 367:Generated_Source\PSoC5/LCD128x64_1.c **** //-----------------------------------------------------------------------------
 368:Generated_Source\PSoC5/LCD128x64_1.c **** static void LCD128x64_1_SetAddress(uint8 address)
 369:Generated_Source\PSoC5/LCD128x64_1.c **** {
 370:Generated_Source\PSoC5/LCD128x64_1.c **** 	LCD128x64_1_WriteCommand(GLCD_SET_ADDRESS+address);
 371:Generated_Source\PSoC5/LCD128x64_1.c **** }
 372:Generated_Source\PSoC5/LCD128x64_1.c **** 
 373:Generated_Source\PSoC5/LCD128x64_1.c **** //-----------------------------------------------------------------------------
 374:Generated_Source\PSoC5/LCD128x64_1.c **** //  FUNCTION NAME:	GLCD_Init
 375:Generated_Source\PSoC5/LCD128x64_1.c **** //
 376:Generated_Source\PSoC5/LCD128x64_1.c **** //  DESCRIPTION:
 377:Generated_Source\PSoC5/LCD128x64_1.c **** //
 378:Generated_Source\PSoC5/LCD128x64_1.c **** //	Initializes display. 
 379:Generated_Source\PSoC5/LCD128x64_1.c **** //
 380:Generated_Source\PSoC5/LCD128x64_1.c **** //  ARGUMENTS:
 381:Generated_Source\PSoC5/LCD128x64_1.c **** //     none.		
 382:Generated_Source\PSoC5/LCD128x64_1.c **** //
 383:Generated_Source\PSoC5/LCD128x64_1.c **** //  RETURNS:
 384:Generated_Source\PSoC5/LCD128x64_1.c **** //     none.
 385:Generated_Source\PSoC5/LCD128x64_1.c **** //
 386:Generated_Source\PSoC5/LCD128x64_1.c **** //-----------------------------------------------------------------------------
 387:Generated_Source\PSoC5/LCD128x64_1.c **** void LCD128x64_1_Init(void)
 388:Generated_Source\PSoC5/LCD128x64_1.c **** {	
 389:Generated_Source\PSoC5/LCD128x64_1.c **** 	uint8 i;
 390:Generated_Source\PSoC5/LCD128x64_1.c **** 	
 391:Generated_Source\PSoC5/LCD128x64_1.c **** 	LCD128x64_1_SetupIO();
 392:Generated_Source\PSoC5/LCD128x64_1.c **** 	
 393:Generated_Source\PSoC5/LCD128x64_1.c **** 	for (i=0;i<GLCD_NUMCONTROLLER;i++) {
 394:Generated_Source\PSoC5/LCD128x64_1.c **** 		LCD128x64_1_SelectChip(i);
 395:Generated_Source\PSoC5/LCD128x64_1.c **** 		LCD128x64_1_WriteCommand(GLCD_ON); 
 396:Generated_Source\PSoC5/LCD128x64_1.c **** 		LCD128x64_1_WriteCommand(GLCD_DISP_START0);
 397:Generated_Source\PSoC5/LCD128x64_1.c **** 		// GLCD_SetPage(0);
 398:Generated_Source\PSoC5/LCD128x64_1.c **** 		// GLCD_SetAddress(0);
 399:Generated_Source\PSoC5/LCD128x64_1.c **** 	}
 400:Generated_Source\PSoC5/LCD128x64_1.c **** }
 401:Generated_Source\PSoC5/LCD128x64_1.c **** //-----------------------------------------------------------------------------
 402:Generated_Source\PSoC5/LCD128x64_1.c **** //  FUNCTION NAME:	GLCD_SetInvert
 403:Generated_Source\PSoC5/LCD128x64_1.c **** //
 404:Generated_Source\PSoC5/LCD128x64_1.c **** //  DESCRIPTION:
 405:Generated_Source\PSoC5/LCD128x64_1.c **** //
 406:Generated_Source\PSoC5/LCD128x64_1.c **** //	Sets normal or inverse mode
 407:Generated_Source\PSoC5/LCD128x64_1.c **** //
 408:Generated_Source\PSoC5/LCD128x64_1.c **** //  ARGUMENTS:
 409:Generated_Source\PSoC5/LCD128x64_1.c **** //     mode		{GLCD_MODE_INVERT,GLCD_MODE_NORMAL}
 410:Generated_Source\PSoC5/LCD128x64_1.c **** //
 411:Generated_Source\PSoC5/LCD128x64_1.c **** //  RETURNS:
 412:Generated_Source\PSoC5/LCD128x64_1.c **** //     none.
 413:Generated_Source\PSoC5/LCD128x64_1.c **** //
 414:Generated_Source\PSoC5/LCD128x64_1.c **** //-----------------------------------------------------------------------------
 415:Generated_Source\PSoC5/LCD128x64_1.c **** void LCD128x64_1_SetInvert(uint8 mode)
 416:Generated_Source\PSoC5/LCD128x64_1.c **** {
 417:Generated_Source\PSoC5/LCD128x64_1.c **** 	gGLCD_inverted = mode;
 418:Generated_Source\PSoC5/LCD128x64_1.c **** }
 419:Generated_Source\PSoC5/LCD128x64_1.c **** 
 420:Generated_Source\PSoC5/LCD128x64_1.c **** //-----------------------------------------------------------------------------
 421:Generated_Source\PSoC5/LCD128x64_1.c **** //  FUNCTION NAME:	GLCD_FillBuffer
 422:Generated_Source\PSoC5/LCD128x64_1.c **** //
ARM GAS  C:\Users\USUARIO\AppData\Local\Temp\ccVm8SVK.s 			page 10


 423:Generated_Source\PSoC5/LCD128x64_1.c **** //  DESCRIPTION:
 424:Generated_Source\PSoC5/LCD128x64_1.c **** //
 425:Generated_Source\PSoC5/LCD128x64_1.c **** //	Fills memory buffer with specified pattern
 426:Generated_Source\PSoC5/LCD128x64_1.c **** //
 427:Generated_Source\PSoC5/LCD128x64_1.c **** //  ARGUMENTS:
 428:Generated_Source\PSoC5/LCD128x64_1.c **** //     pattern		
 429:Generated_Source\PSoC5/LCD128x64_1.c **** //
 430:Generated_Source\PSoC5/LCD128x64_1.c **** //  RETURNS:
 431:Generated_Source\PSoC5/LCD128x64_1.c **** //     none.
 432:Generated_Source\PSoC5/LCD128x64_1.c **** //
 433:Generated_Source\PSoC5/LCD128x64_1.c **** //-----------------------------------------------------------------------------
 434:Generated_Source\PSoC5/LCD128x64_1.c **** static void LCD128x64_1_FillBuffer(uint8 pattern)
 435:Generated_Source\PSoC5/LCD128x64_1.c **** {
  92              		.loc 1 435 0
  93              		.cfi_startproc
  94              		@ args = 0, pretend = 0, frame = 0
  95              		@ frame_needed = 0, uses_anonymous_args = 0
  96              		@ link register save eliminated.
  97              	.LVL1:
 436:Generated_Source\PSoC5/LCD128x64_1.c **** 	uint16 x,y;
 437:Generated_Source\PSoC5/LCD128x64_1.c **** 	
 438:Generated_Source\PSoC5/LCD128x64_1.c **** 	for (y=0;y<GLCD_Y_BYTES;y++)
  98              		.loc 1 438 0
  99 0000 0021     		movs	r1, #0
 100 0002 0BE0     		b	.L9
 101              	.LVL2:
 102              	.L10:
 439:Generated_Source\PSoC5/LCD128x64_1.c **** 		for (x=0;x<GLCD_X_BYTES;x++) 
 440:Generated_Source\PSoC5/LCD128x64_1.c **** 			gGLCD_buffer[y][x]=pattern;
 103              		.loc 1 440 0 discriminator 3
 104 0004 074A     		ldr	r2, .L13
 105 0006 02EBC112 		add	r2, r2, r1, lsl #7
 106 000a D054     		strb	r0, [r2, r3]
 439:Generated_Source\PSoC5/LCD128x64_1.c **** 		for (x=0;x<GLCD_X_BYTES;x++) 
 107              		.loc 1 439 0 discriminator 3
 108 000c 0133     		adds	r3, r3, #1
 109              	.LVL3:
 110 000e 9BB2     		uxth	r3, r3
 111              	.LVL4:
 112 0010 00E0     		b	.L11
 113              	.LVL5:
 114              	.L12:
 115 0012 0023     		movs	r3, #0
 116              	.L11:
 117              	.LVL6:
 439:Generated_Source\PSoC5/LCD128x64_1.c **** 		for (x=0;x<GLCD_X_BYTES;x++) 
 118              		.loc 1 439 0 is_stmt 0 discriminator 1
 119 0014 7F2B     		cmp	r3, #127
 120 0016 F5D9     		bls	.L10
 438:Generated_Source\PSoC5/LCD128x64_1.c **** 		for (x=0;x<GLCD_X_BYTES;x++) 
 121              		.loc 1 438 0 is_stmt 1 discriminator 2
 122 0018 0131     		adds	r1, r1, #1
 123              	.LVL7:
 124 001a 89B2     		uxth	r1, r1
 125              	.LVL8:
 126              	.L9:
 438:Generated_Source\PSoC5/LCD128x64_1.c **** 		for (x=0;x<GLCD_X_BYTES;x++) 
ARM GAS  C:\Users\USUARIO\AppData\Local\Temp\ccVm8SVK.s 			page 11


 127              		.loc 1 438 0 is_stmt 0 discriminator 1
 128 001c 0729     		cmp	r1, #7
 129 001e F8D9     		bls	.L12
 441:Generated_Source\PSoC5/LCD128x64_1.c **** }
 130              		.loc 1 441 0 is_stmt 1
 131 0020 7047     		bx	lr
 132              	.L14:
 133 0022 00BF     		.align	2
 134              	.L13:
 135 0024 00000000 		.word	.LANCHOR0
 136              		.cfi_endproc
 137              	.LFE74:
 138              		.size	LCD128x64_1_FillBuffer, .-LCD128x64_1_FillBuffer
 139              		.section	.text.LCD128x64_1_Glyph,"ax",%progbits
 140              		.align	2
 141              		.thumb
 142              		.thumb_func
 143              		.type	LCD128x64_1_Glyph, %function
 144              	LCD128x64_1_Glyph:
 145              	.LFB82:
 442:Generated_Source\PSoC5/LCD128x64_1.c **** 
 443:Generated_Source\PSoC5/LCD128x64_1.c **** //-----------------------------------------------------------------------------
 444:Generated_Source\PSoC5/LCD128x64_1.c **** //  FUNCTION NAME:	GLCD_ClrScr
 445:Generated_Source\PSoC5/LCD128x64_1.c **** //
 446:Generated_Source\PSoC5/LCD128x64_1.c **** //  DESCRIPTION:
 447:Generated_Source\PSoC5/LCD128x64_1.c **** //
 448:Generated_Source\PSoC5/LCD128x64_1.c **** //	Clear memory buffer and optionally flushes to display
 449:Generated_Source\PSoC5/LCD128x64_1.c **** //
 450:Generated_Source\PSoC5/LCD128x64_1.c **** //  ARGUMENTS:
 451:Generated_Source\PSoC5/LCD128x64_1.c **** //     bufferAndDisplay		true to flush display
 452:Generated_Source\PSoC5/LCD128x64_1.c **** //
 453:Generated_Source\PSoC5/LCD128x64_1.c **** //  RETURNS:
 454:Generated_Source\PSoC5/LCD128x64_1.c **** //     none.
 455:Generated_Source\PSoC5/LCD128x64_1.c **** //
 456:Generated_Source\PSoC5/LCD128x64_1.c **** //-----------------------------------------------------------------------------
 457:Generated_Source\PSoC5/LCD128x64_1.c **** void LCD128x64_1_ClrScr(uint8 bufferAndDisplay)
 458:Generated_Source\PSoC5/LCD128x64_1.c **** {
 459:Generated_Source\PSoC5/LCD128x64_1.c **** 	LCD128x64_1_FillBuffer(0x00);
 460:Generated_Source\PSoC5/LCD128x64_1.c **** 	if ( bufferAndDisplay ) 
 461:Generated_Source\PSoC5/LCD128x64_1.c **** 		LCD128x64_1_UpdateAll();
 462:Generated_Source\PSoC5/LCD128x64_1.c **** }
 463:Generated_Source\PSoC5/LCD128x64_1.c **** 
 464:Generated_Source\PSoC5/LCD128x64_1.c **** //-----------------------------------------------------------------------------
 465:Generated_Source\PSoC5/LCD128x64_1.c **** //  FUNCTION NAME:	GLCD_Update
 466:Generated_Source\PSoC5/LCD128x64_1.c **** //
 467:Generated_Source\PSoC5/LCD128x64_1.c **** //  DESCRIPTION:
 468:Generated_Source\PSoC5/LCD128x64_1.c **** //
 469:Generated_Source\PSoC5/LCD128x64_1.c **** //	Copy buffer-RAM to display-RAM
 470:Generated_Source\PSoC5/LCD128x64_1.c **** //
 471:Generated_Source\PSoC5/LCD128x64_1.c **** //  ARGUMENTS:
 472:Generated_Source\PSoC5/LCD128x64_1.c **** //      top     top line of area to update.         
 473:Generated_Source\PSoC5/LCD128x64_1.c **** //		bottom  bottom line of area to update.
 474:Generated_Source\PSoC5/LCD128x64_1.c **** //
 475:Generated_Source\PSoC5/LCD128x64_1.c **** //  RETURNS:
 476:Generated_Source\PSoC5/LCD128x64_1.c **** //     none.
 477:Generated_Source\PSoC5/LCD128x64_1.c **** //
 478:Generated_Source\PSoC5/LCD128x64_1.c **** //-----------------------------------------------------------------------------
ARM GAS  C:\Users\USUARIO\AppData\Local\Temp\ccVm8SVK.s 			page 12


 479:Generated_Source\PSoC5/LCD128x64_1.c **** void LCD128x64_1_Update(uint16 top, uint16 bottom)
 480:Generated_Source\PSoC5/LCD128x64_1.c **** {
 481:Generated_Source\PSoC5/LCD128x64_1.c **** 	uint8 x, y, i;
 482:Generated_Source\PSoC5/LCD128x64_1.c **** 	uint8 yt, yb;
 483:Generated_Source\PSoC5/LCD128x64_1.c **** 	uint16 xoffset;
 484:Generated_Source\PSoC5/LCD128x64_1.c **** 	uint8 data;
 485:Generated_Source\PSoC5/LCD128x64_1.c **** 	
 486:Generated_Source\PSoC5/LCD128x64_1.c **** 	yt = top >> 3;				/* setup bytes of range */
 487:Generated_Source\PSoC5/LCD128x64_1.c **** 	yb = bottom >> 3;
 488:Generated_Source\PSoC5/LCD128x64_1.c **** 
 489:Generated_Source\PSoC5/LCD128x64_1.c **** 	for (i=0;i<GLCD_NUMCONTROLLER;i++) {
 490:Generated_Source\PSoC5/LCD128x64_1.c **** 		LCD128x64_1_SelectChip(i);
 491:Generated_Source\PSoC5/LCD128x64_1.c **** 		for (y=yt;y<=yb;y++) {
 492:Generated_Source\PSoC5/LCD128x64_1.c **** 			LCD128x64_1_SetPage(y);
 493:Generated_Source\PSoC5/LCD128x64_1.c **** 			LCD128x64_1_SetAddress(0);
 494:Generated_Source\PSoC5/LCD128x64_1.c **** 			xoffset = i * GLCD_MAXADDRESS;
 495:Generated_Source\PSoC5/LCD128x64_1.c **** 			for (x=0;x<GLCD_MAXADDRESS;x++) {
 496:Generated_Source\PSoC5/LCD128x64_1.c **** 				data = gGLCD_buffer[y][xoffset+x];
 497:Generated_Source\PSoC5/LCD128x64_1.c **** 				if (gGLCD_inverted) data=~data;
 498:Generated_Source\PSoC5/LCD128x64_1.c **** 				LCD128x64_1_WriteData(data);
 499:Generated_Source\PSoC5/LCD128x64_1.c **** 			}
 500:Generated_Source\PSoC5/LCD128x64_1.c **** 		}
 501:Generated_Source\PSoC5/LCD128x64_1.c **** 	}
 502:Generated_Source\PSoC5/LCD128x64_1.c **** 	LCD128x64_1_SelectChip(GLCD_SELECTNONE);
 503:Generated_Source\PSoC5/LCD128x64_1.c **** }
 504:Generated_Source\PSoC5/LCD128x64_1.c **** 
 505:Generated_Source\PSoC5/LCD128x64_1.c **** //-----------------------------------------------------------------------------
 506:Generated_Source\PSoC5/LCD128x64_1.c **** //  FUNCTION NAME:	GLCD_Dot
 507:Generated_Source\PSoC5/LCD128x64_1.c **** //
 508:Generated_Source\PSoC5/LCD128x64_1.c **** //  DESCRIPTION:
 509:Generated_Source\PSoC5/LCD128x64_1.c **** //
 510:Generated_Source\PSoC5/LCD128x64_1.c **** //	Change pixel state in memory buffer
 511:Generated_Source\PSoC5/LCD128x64_1.c **** //
 512:Generated_Source\PSoC5/LCD128x64_1.c **** //  ARGUMENTS:
 513:Generated_Source\PSoC5/LCD128x64_1.c **** //      x     	
 514:Generated_Source\PSoC5/LCD128x64_1.c **** //		y		
 515:Generated_Source\PSoC5/LCD128x64_1.c **** //		mode	{GLCD_MODE_CLEAR,GLCD_MODE_SET,GLCD_MODE_XOR}
 516:Generated_Source\PSoC5/LCD128x64_1.c **** //
 517:Generated_Source\PSoC5/LCD128x64_1.c **** //  RETURNS:
 518:Generated_Source\PSoC5/LCD128x64_1.c **** //     none.
 519:Generated_Source\PSoC5/LCD128x64_1.c **** //
 520:Generated_Source\PSoC5/LCD128x64_1.c **** //-----------------------------------------------------------------------------
 521:Generated_Source\PSoC5/LCD128x64_1.c **** void LCD128x64_1_Dot(uint8 x, uint8 y, uint8 mode) {
 522:Generated_Source\PSoC5/LCD128x64_1.c **** // here 2*1 setup - TODO: for 2*2 setting
 523:Generated_Source\PSoC5/LCD128x64_1.c **** 	uint8 bitnum, bitmask, yByte;
 524:Generated_Source\PSoC5/LCD128x64_1.c **** 	
 525:Generated_Source\PSoC5/LCD128x64_1.c **** 	if ( (x>=GLCD_RIGHT) || (y>=GLCD_BOTTOM) ) return;
 526:Generated_Source\PSoC5/LCD128x64_1.c **** 	
 527:Generated_Source\PSoC5/LCD128x64_1.c **** 	yByte   = y >> 3; // / 8
 528:Generated_Source\PSoC5/LCD128x64_1.c **** 	bitnum  = y & 0x07;
 529:Generated_Source\PSoC5/LCD128x64_1.c **** 	bitmask = GLCD_MaskArray[bitnum];
 530:Generated_Source\PSoC5/LCD128x64_1.c **** 	switch (mode) {
 531:Generated_Source\PSoC5/LCD128x64_1.c **** 		case GLCD_MODE_SET:
 532:Generated_Source\PSoC5/LCD128x64_1.c **** 			gGLCD_buffer[yByte][x] |= bitmask;
 533:Generated_Source\PSoC5/LCD128x64_1.c **** 			break;
 534:Generated_Source\PSoC5/LCD128x64_1.c **** 		case GLCD_MODE_CLEAR:
 535:Generated_Source\PSoC5/LCD128x64_1.c **** 			gGLCD_buffer[yByte][x] &= ~bitmask;
ARM GAS  C:\Users\USUARIO\AppData\Local\Temp\ccVm8SVK.s 			page 13


 536:Generated_Source\PSoC5/LCD128x64_1.c **** 			break;
 537:Generated_Source\PSoC5/LCD128x64_1.c **** 		case GLCD_MODE_XOR:
 538:Generated_Source\PSoC5/LCD128x64_1.c **** 			gGLCD_buffer[yByte][x] ^= bitmask;
 539:Generated_Source\PSoC5/LCD128x64_1.c **** 			break;
 540:Generated_Source\PSoC5/LCD128x64_1.c **** 		default: break;
 541:Generated_Source\PSoC5/LCD128x64_1.c **** 	}
 542:Generated_Source\PSoC5/LCD128x64_1.c **** }
 543:Generated_Source\PSoC5/LCD128x64_1.c **** 
 544:Generated_Source\PSoC5/LCD128x64_1.c **** //-----------------------------------------------------------------------------
 545:Generated_Source\PSoC5/LCD128x64_1.c **** //  FUNCTION NAME:	GLCD_Line
 546:Generated_Source\PSoC5/LCD128x64_1.c **** //
 547:Generated_Source\PSoC5/LCD128x64_1.c **** //  DESCRIPTION:
 548:Generated_Source\PSoC5/LCD128x64_1.c **** //
 549:Generated_Source\PSoC5/LCD128x64_1.c **** //	Draws line in memory buffer
 550:Generated_Source\PSoC5/LCD128x64_1.c **** //
 551:Generated_Source\PSoC5/LCD128x64_1.c **** //  ARGUMENTS:
 552:Generated_Source\PSoC5/LCD128x64_1.c **** //      x1     	
 553:Generated_Source\PSoC5/LCD128x64_1.c **** //		y1		
 554:Generated_Source\PSoC5/LCD128x64_1.c **** //      x2     	
 555:Generated_Source\PSoC5/LCD128x64_1.c **** //		y2		
 556:Generated_Source\PSoC5/LCD128x64_1.c **** //		mode	{GLCD_MODE_CLEAR,GLCD_MODE_SET,GLCD_MODE_XOR}
 557:Generated_Source\PSoC5/LCD128x64_1.c **** //
 558:Generated_Source\PSoC5/LCD128x64_1.c **** //  RETURNS:
 559:Generated_Source\PSoC5/LCD128x64_1.c **** //     none.
 560:Generated_Source\PSoC5/LCD128x64_1.c **** //
 561:Generated_Source\PSoC5/LCD128x64_1.c **** //-----------------------------------------------------------------------------
 562:Generated_Source\PSoC5/LCD128x64_1.c **** void LCD128x64_1_Line( uint8 x1, uint8 y1, 
 563:Generated_Source\PSoC5/LCD128x64_1.c **** 		uint8 x2, uint8 y2,
 564:Generated_Source\PSoC5/LCD128x64_1.c **** 		uint8 mode ) 
 565:Generated_Source\PSoC5/LCD128x64_1.c **** {
 566:Generated_Source\PSoC5/LCD128x64_1.c **** 	uint8 length, xTmp, yTmp, i, y, yAlt;
 567:Generated_Source\PSoC5/LCD128x64_1.c **** 	int16 m;
 568:Generated_Source\PSoC5/LCD128x64_1.c **** 	
 569:Generated_Source\PSoC5/LCD128x64_1.c **** 	if(x1 == x2) {									// vertical line
 570:Generated_Source\PSoC5/LCD128x64_1.c **** 		// x1|y1 must be the upper point
 571:Generated_Source\PSoC5/LCD128x64_1.c **** 		if(y1 > y2) {
 572:Generated_Source\PSoC5/LCD128x64_1.c **** 			xTmp = x1;
 573:Generated_Source\PSoC5/LCD128x64_1.c **** 			yTmp = y1;
 574:Generated_Source\PSoC5/LCD128x64_1.c **** 			x1 = x2;
 575:Generated_Source\PSoC5/LCD128x64_1.c **** 			y1 = y2;
 576:Generated_Source\PSoC5/LCD128x64_1.c **** 			x2 = xTmp;
 577:Generated_Source\PSoC5/LCD128x64_1.c **** 			y2 = yTmp;
 578:Generated_Source\PSoC5/LCD128x64_1.c **** 		}
 579:Generated_Source\PSoC5/LCD128x64_1.c **** 		
 580:Generated_Source\PSoC5/LCD128x64_1.c **** 		length = y2-y1;
 581:Generated_Source\PSoC5/LCD128x64_1.c **** 		for(i=0; i<=length; i++) {
 582:Generated_Source\PSoC5/LCD128x64_1.c **** 			LCD128x64_1_Dot(x1, y1+i, mode);
 583:Generated_Source\PSoC5/LCD128x64_1.c **** 		}
 584:Generated_Source\PSoC5/LCD128x64_1.c **** 	} else if(y1 == y2) {							// horizontal line
 585:Generated_Source\PSoC5/LCD128x64_1.c **** 		// x1|y1 must be the left point
 586:Generated_Source\PSoC5/LCD128x64_1.c **** 		if(x1 > x2) {
 587:Generated_Source\PSoC5/LCD128x64_1.c **** 			xTmp = x1;
 588:Generated_Source\PSoC5/LCD128x64_1.c **** 			yTmp = y1;
 589:Generated_Source\PSoC5/LCD128x64_1.c **** 			x1 = x2;
 590:Generated_Source\PSoC5/LCD128x64_1.c **** 			y1 = y2;
 591:Generated_Source\PSoC5/LCD128x64_1.c **** 			x2 = xTmp;
 592:Generated_Source\PSoC5/LCD128x64_1.c **** 			y2 = yTmp;
ARM GAS  C:\Users\USUARIO\AppData\Local\Temp\ccVm8SVK.s 			page 14


 593:Generated_Source\PSoC5/LCD128x64_1.c **** 		}
 594:Generated_Source\PSoC5/LCD128x64_1.c **** 		
 595:Generated_Source\PSoC5/LCD128x64_1.c **** 		length = x2-x1;
 596:Generated_Source\PSoC5/LCD128x64_1.c **** 		for(i=0; i<=length; i++) {
 597:Generated_Source\PSoC5/LCD128x64_1.c **** 			LCD128x64_1_Dot(x1+i, y1, mode);
 598:Generated_Source\PSoC5/LCD128x64_1.c **** 		}
 599:Generated_Source\PSoC5/LCD128x64_1.c **** 	} else {
 600:Generated_Source\PSoC5/LCD128x64_1.c **** 		// x1 must be smaller than x2
 601:Generated_Source\PSoC5/LCD128x64_1.c **** 		if(x1 > x2) {
 602:Generated_Source\PSoC5/LCD128x64_1.c **** 			xTmp = x1;
 603:Generated_Source\PSoC5/LCD128x64_1.c **** 			yTmp = y1;
 604:Generated_Source\PSoC5/LCD128x64_1.c **** 			x1 = x2;
 605:Generated_Source\PSoC5/LCD128x64_1.c **** 			y1 = y2;
 606:Generated_Source\PSoC5/LCD128x64_1.c **** 			x2 = xTmp;
 607:Generated_Source\PSoC5/LCD128x64_1.c **** 			y2 = yTmp;
 608:Generated_Source\PSoC5/LCD128x64_1.c **** 		}
 609:Generated_Source\PSoC5/LCD128x64_1.c **** 		
 610:Generated_Source\PSoC5/LCD128x64_1.c **** 		if((y2-y1) >= (x2-x1) || (y1-y2) >= (x2-x1)) {	// angle larger or equal 45?
 611:Generated_Source\PSoC5/LCD128x64_1.c **** 			length = x2-x1;								// not really the length :)
 612:Generated_Source\PSoC5/LCD128x64_1.c **** 			m = ((y2-y1)*200)/length;
 613:Generated_Source\PSoC5/LCD128x64_1.c **** 			yAlt = y1;
 614:Generated_Source\PSoC5/LCD128x64_1.c **** 			for(i=0; i<=length; i++) {
 615:Generated_Source\PSoC5/LCD128x64_1.c **** 				y = ((m*i)/200)+y1;
 616:Generated_Source\PSoC5/LCD128x64_1.c **** 				
 617:Generated_Source\PSoC5/LCD128x64_1.c **** 				if((m*i)%200 >= 100)
 618:Generated_Source\PSoC5/LCD128x64_1.c **** 					y++;
 619:Generated_Source\PSoC5/LCD128x64_1.c **** 				else if((m*i)%200 <= -100)
 620:Generated_Source\PSoC5/LCD128x64_1.c **** 					y--;
 621:Generated_Source\PSoC5/LCD128x64_1.c **** 				
 622:Generated_Source\PSoC5/LCD128x64_1.c **** 				LCD128x64_1_Line(x1+i, yAlt, x1+i, y, mode ); /* wuff wuff recurs. */
 623:Generated_Source\PSoC5/LCD128x64_1.c **** 				if(length<=(y2-y1) && y1 < y2)
 624:Generated_Source\PSoC5/LCD128x64_1.c **** 					yAlt = y+1;
 625:Generated_Source\PSoC5/LCD128x64_1.c **** 				else if(length<=(y1-y2) && y1 > y2)
 626:Generated_Source\PSoC5/LCD128x64_1.c **** 					yAlt = y-1;
 627:Generated_Source\PSoC5/LCD128x64_1.c **** 				else
 628:Generated_Source\PSoC5/LCD128x64_1.c **** 					yAlt = y;
 629:Generated_Source\PSoC5/LCD128x64_1.c **** 			}
 630:Generated_Source\PSoC5/LCD128x64_1.c **** 		} else {										// angle smaller 45?
 631:Generated_Source\PSoC5/LCD128x64_1.c **** 			// y1 must be smaller than y2
 632:Generated_Source\PSoC5/LCD128x64_1.c **** 			if(y1 > y2) {
 633:Generated_Source\PSoC5/LCD128x64_1.c **** 				xTmp = x1;
 634:Generated_Source\PSoC5/LCD128x64_1.c **** 				yTmp = y1;
 635:Generated_Source\PSoC5/LCD128x64_1.c **** 				x1 = x2;
 636:Generated_Source\PSoC5/LCD128x64_1.c **** 				y1 = y2;
 637:Generated_Source\PSoC5/LCD128x64_1.c **** 				x2 = xTmp;
 638:Generated_Source\PSoC5/LCD128x64_1.c **** 				y2 = yTmp;
 639:Generated_Source\PSoC5/LCD128x64_1.c **** 			}
 640:Generated_Source\PSoC5/LCD128x64_1.c **** 			length = y2-y1;
 641:Generated_Source\PSoC5/LCD128x64_1.c **** 			m = ((x2-x1)*200)/length;
 642:Generated_Source\PSoC5/LCD128x64_1.c **** 			yAlt = x1;
 643:Generated_Source\PSoC5/LCD128x64_1.c **** 			for(i=0; i<=length; i++) {
 644:Generated_Source\PSoC5/LCD128x64_1.c **** 				y = ((m*i)/200)+x1;
 645:Generated_Source\PSoC5/LCD128x64_1.c **** 				
 646:Generated_Source\PSoC5/LCD128x64_1.c **** 				if((m*i)%200 >= 100)
 647:Generated_Source\PSoC5/LCD128x64_1.c **** 					y++;
 648:Generated_Source\PSoC5/LCD128x64_1.c **** 				else if((m*i)%200 <= -100)
 649:Generated_Source\PSoC5/LCD128x64_1.c **** 					y--;
ARM GAS  C:\Users\USUARIO\AppData\Local\Temp\ccVm8SVK.s 			page 15


 650:Generated_Source\PSoC5/LCD128x64_1.c **** 				
 651:Generated_Source\PSoC5/LCD128x64_1.c **** 				LCD128x64_1_Line(yAlt, y1+i, y, y1+i, mode); /* wuff */
 652:Generated_Source\PSoC5/LCD128x64_1.c **** 				if(length<=(x2-x1) && x1 < x2)
 653:Generated_Source\PSoC5/LCD128x64_1.c **** 					yAlt = y+1;
 654:Generated_Source\PSoC5/LCD128x64_1.c **** 				else if(length<=(x1-x2) && x1 > x2)
 655:Generated_Source\PSoC5/LCD128x64_1.c **** 					yAlt = y-1;
 656:Generated_Source\PSoC5/LCD128x64_1.c **** 				else
 657:Generated_Source\PSoC5/LCD128x64_1.c **** 					yAlt = y;
 658:Generated_Source\PSoC5/LCD128x64_1.c **** 			}
 659:Generated_Source\PSoC5/LCD128x64_1.c **** 		}
 660:Generated_Source\PSoC5/LCD128x64_1.c **** 	}
 661:Generated_Source\PSoC5/LCD128x64_1.c **** }
 662:Generated_Source\PSoC5/LCD128x64_1.c **** 
 663:Generated_Source\PSoC5/LCD128x64_1.c **** //-----------------------------------------------------------------------------
 664:Generated_Source\PSoC5/LCD128x64_1.c **** //  FUNCTION NAME:	GLCD_Rect
 665:Generated_Source\PSoC5/LCD128x64_1.c **** //
 666:Generated_Source\PSoC5/LCD128x64_1.c **** //  DESCRIPTION:
 667:Generated_Source\PSoC5/LCD128x64_1.c **** //
 668:Generated_Source\PSoC5/LCD128x64_1.c **** //	Draws rectangle in memory buffer
 669:Generated_Source\PSoC5/LCD128x64_1.c **** //
 670:Generated_Source\PSoC5/LCD128x64_1.c **** //  ARGUMENTS:
 671:Generated_Source\PSoC5/LCD128x64_1.c **** //      x     	
 672:Generated_Source\PSoC5/LCD128x64_1.c **** //		y		
 673:Generated_Source\PSoC5/LCD128x64_1.c **** //      width  	
 674:Generated_Source\PSoC5/LCD128x64_1.c **** //		height
 675:Generated_Source\PSoC5/LCD128x64_1.c **** //		mode	{GLCD_MODE_CLEAR,GLCD_MODE_SET,GLCD_MODE_XOR}
 676:Generated_Source\PSoC5/LCD128x64_1.c **** //
 677:Generated_Source\PSoC5/LCD128x64_1.c **** //  RETURNS:
 678:Generated_Source\PSoC5/LCD128x64_1.c **** //     none.
 679:Generated_Source\PSoC5/LCD128x64_1.c **** //
 680:Generated_Source\PSoC5/LCD128x64_1.c **** //-----------------------------------------------------------------------------
 681:Generated_Source\PSoC5/LCD128x64_1.c **** void LCD128x64_1_Rect(uint8 x, uint8 y, uint8 width, uint8 height,
 682:Generated_Source\PSoC5/LCD128x64_1.c **** 		uint8 mode) 
 683:Generated_Source\PSoC5/LCD128x64_1.c **** {
 684:Generated_Source\PSoC5/LCD128x64_1.c **** 	width--;
 685:Generated_Source\PSoC5/LCD128x64_1.c **** 	height--;
 686:Generated_Source\PSoC5/LCD128x64_1.c **** 	LCD128x64_1_Line(x, y, x+width, y, mode);		// top
 687:Generated_Source\PSoC5/LCD128x64_1.c **** 	LCD128x64_1_Line(x, y, x, y+height, mode);	// left
 688:Generated_Source\PSoC5/LCD128x64_1.c **** 	LCD128x64_1_Line(x, y+height, x+width, y+height, mode);	// bottom
 689:Generated_Source\PSoC5/LCD128x64_1.c **** 	LCD128x64_1_Line(x+width, y, x+width, y+height, mode);	// right
 690:Generated_Source\PSoC5/LCD128x64_1.c **** }
 691:Generated_Source\PSoC5/LCD128x64_1.c **** 
 692:Generated_Source\PSoC5/LCD128x64_1.c **** //-----------------------------------------------------------------------------
 693:Generated_Source\PSoC5/LCD128x64_1.c **** //  FUNCTION NAME:	GLCD_Box
 694:Generated_Source\PSoC5/LCD128x64_1.c **** //
 695:Generated_Source\PSoC5/LCD128x64_1.c **** //  DESCRIPTION:
 696:Generated_Source\PSoC5/LCD128x64_1.c **** //
 697:Generated_Source\PSoC5/LCD128x64_1.c **** //	Draws box in memory buffer
 698:Generated_Source\PSoC5/LCD128x64_1.c **** //
 699:Generated_Source\PSoC5/LCD128x64_1.c **** //  ARGUMENTS:
 700:Generated_Source\PSoC5/LCD128x64_1.c **** //      x     
 701:Generated_Source\PSoC5/LCD128x64_1.c **** //		y	
 702:Generated_Source\PSoC5/LCD128x64_1.c **** //      width  	
 703:Generated_Source\PSoC5/LCD128x64_1.c **** //		height	
 704:Generated_Source\PSoC5/LCD128x64_1.c **** //		mode	{GLCD_MODE_CLEAR,GLCD_MODE_SET,GLCD_MODE_XOR}
 705:Generated_Source\PSoC5/LCD128x64_1.c **** //
 706:Generated_Source\PSoC5/LCD128x64_1.c **** //  RETURNS:
ARM GAS  C:\Users\USUARIO\AppData\Local\Temp\ccVm8SVK.s 			page 16


 707:Generated_Source\PSoC5/LCD128x64_1.c **** //     none.
 708:Generated_Source\PSoC5/LCD128x64_1.c **** //
 709:Generated_Source\PSoC5/LCD128x64_1.c **** //-----------------------------------------------------------------------------
 710:Generated_Source\PSoC5/LCD128x64_1.c **** void LCD128x64_1_Box(uint8 x, uint8 y, uint8 width, uint8 height,
 711:Generated_Source\PSoC5/LCD128x64_1.c **** 		uint8 mode) 
 712:Generated_Source\PSoC5/LCD128x64_1.c **** {
 713:Generated_Source\PSoC5/LCD128x64_1.c **** 	uint8 i;
 714:Generated_Source\PSoC5/LCD128x64_1.c **** 	
 715:Generated_Source\PSoC5/LCD128x64_1.c **** 	if (!width) return; 
 716:Generated_Source\PSoC5/LCD128x64_1.c **** 	
 717:Generated_Source\PSoC5/LCD128x64_1.c **** 	width--;
 718:Generated_Source\PSoC5/LCD128x64_1.c **** 	
 719:Generated_Source\PSoC5/LCD128x64_1.c **** 	for (i=y;i<y+height;i++) 
 720:Generated_Source\PSoC5/LCD128x64_1.c **** 		LCD128x64_1_Line(x, i, x+width, i, mode);
 721:Generated_Source\PSoC5/LCD128x64_1.c **** }
 722:Generated_Source\PSoC5/LCD128x64_1.c **** 
 723:Generated_Source\PSoC5/LCD128x64_1.c **** //-----------------------------------------------------------------------------
 724:Generated_Source\PSoC5/LCD128x64_1.c **** //  FUNCTION NAME:	GLCD_Circle
 725:Generated_Source\PSoC5/LCD128x64_1.c **** //
 726:Generated_Source\PSoC5/LCD128x64_1.c **** //  DESCRIPTION:
 727:Generated_Source\PSoC5/LCD128x64_1.c **** //
 728:Generated_Source\PSoC5/LCD128x64_1.c **** //	
 729:Generated_Source\PSoC5/LCD128x64_1.c **** //  RETURNS:
 730:Generated_Source\PSoC5/LCD128x64_1.c **** //     none.
 731:Generated_Source\PSoC5/LCD128x64_1.c **** //
 732:Generated_Source\PSoC5/LCD128x64_1.c **** //-----------------------------------------------------------------------------
 733:Generated_Source\PSoC5/LCD128x64_1.c **** void LCD128x64_1_Circle(uint8 xCenter, uint8 yCenter, 
 734:Generated_Source\PSoC5/LCD128x64_1.c **** 		uint8 radius, uint8 mode) 
 735:Generated_Source\PSoC5/LCD128x64_1.c **** {
 736:Generated_Source\PSoC5/LCD128x64_1.c ****   	int16 tSwitch, y, x = 0;
 737:Generated_Source\PSoC5/LCD128x64_1.c ****   	uint8 d;
 738:Generated_Source\PSoC5/LCD128x64_1.c **** 
 739:Generated_Source\PSoC5/LCD128x64_1.c ****   	d = yCenter - xCenter;
 740:Generated_Source\PSoC5/LCD128x64_1.c ****   	y = radius;
 741:Generated_Source\PSoC5/LCD128x64_1.c ****   	tSwitch = 3 - 2 * radius;
 742:Generated_Source\PSoC5/LCD128x64_1.c ****   	
 743:Generated_Source\PSoC5/LCD128x64_1.c ****   	while (x <= y) {
 744:Generated_Source\PSoC5/LCD128x64_1.c ****     	LCD128x64_1_Dot(xCenter + x, yCenter + y, mode);
 745:Generated_Source\PSoC5/LCD128x64_1.c ****     	LCD128x64_1_Dot(xCenter + x, yCenter - y, mode);
 746:Generated_Source\PSoC5/LCD128x64_1.c ****     	
 747:Generated_Source\PSoC5/LCD128x64_1.c ****     	LCD128x64_1_Dot(xCenter - x, yCenter + y, mode);
 748:Generated_Source\PSoC5/LCD128x64_1.c ****     	LCD128x64_1_Dot(xCenter - x, yCenter - y, mode);
 749:Generated_Source\PSoC5/LCD128x64_1.c ****     	
 750:Generated_Source\PSoC5/LCD128x64_1.c ****     	LCD128x64_1_Dot(yCenter + y - d, yCenter + x, mode);
 751:Generated_Source\PSoC5/LCD128x64_1.c ****     	LCD128x64_1_Dot(yCenter + y - d, yCenter - x, mode);
 752:Generated_Source\PSoC5/LCD128x64_1.c ****     	
 753:Generated_Source\PSoC5/LCD128x64_1.c ****     	LCD128x64_1_Dot(yCenter - y - d, yCenter + x, mode);
 754:Generated_Source\PSoC5/LCD128x64_1.c ****     	LCD128x64_1_Dot(yCenter - y - d, yCenter - x, mode);
 755:Generated_Source\PSoC5/LCD128x64_1.c **** 
 756:Generated_Source\PSoC5/LCD128x64_1.c ****     	if (tSwitch < 0) {
 757:Generated_Source\PSoC5/LCD128x64_1.c ****     		tSwitch += (4 * x + 6);
 758:Generated_Source\PSoC5/LCD128x64_1.c ****     	} else {
 759:Generated_Source\PSoC5/LCD128x64_1.c ****       		tSwitch += (4 * (x - y) + 10);
 760:Generated_Source\PSoC5/LCD128x64_1.c ****       		y--;
 761:Generated_Source\PSoC5/LCD128x64_1.c ****     	}
 762:Generated_Source\PSoC5/LCD128x64_1.c ****     	x++;
 763:Generated_Source\PSoC5/LCD128x64_1.c ****   	}
ARM GAS  C:\Users\USUARIO\AppData\Local\Temp\ccVm8SVK.s 			page 17


 764:Generated_Source\PSoC5/LCD128x64_1.c **** }
 765:Generated_Source\PSoC5/LCD128x64_1.c **** 
 766:Generated_Source\PSoC5/LCD128x64_1.c **** //-----------------------------------------------------------------------------
 767:Generated_Source\PSoC5/LCD128x64_1.c **** //  FUNCTION NAME:	GLCD_Glyph
 768:Generated_Source\PSoC5/LCD128x64_1.c **** //
 769:Generated_Source\PSoC5/LCD128x64_1.c **** //  DESCRIPTION:
 770:Generated_Source\PSoC5/LCD128x64_1.c **** //
 771:Generated_Source\PSoC5/LCD128x64_1.c **** //	Writes a glyph("letter") to the display at location x,y
 772:Generated_Source\PSoC5/LCD128x64_1.c **** //	(adapted function from the MJK-code)
 773:Generated_Source\PSoC5/LCD128x64_1.c **** //
 774:Generated_Source\PSoC5/LCD128x64_1.c **** //  ARGUMENTS:
 775:Generated_Source\PSoC5/LCD128x64_1.c **** //      column    - x coordinate of the left part of glyph          
 776:Generated_Source\PSoC5/LCD128x64_1.c **** //		row       - y coordinate of the top part of glyph       
 777:Generated_Source\PSoC5/LCD128x64_1.c **** //      width  	  - size in pixels of the width of the glyph    
 778:Generated_Source\PSoC5/LCD128x64_1.c **** //		height 	  - size in pixels of the height of the glyph   
 779:Generated_Source\PSoC5/LCD128x64_1.c **** //		glyph     - an unsigned char pointer to the glyph pixels 
 780:Generated_Source\PSoC5/LCD128x64_1.c **** //        			to write assumed to be of length "width"
 781:Generated_Source\PSoC5/LCD128x64_1.c **** //  RETURNS:
 782:Generated_Source\PSoC5/LCD128x64_1.c **** //     none.
 783:Generated_Source\PSoC5/LCD128x64_1.c **** //
 784:Generated_Source\PSoC5/LCD128x64_1.c **** //-----------------------------------------------------------------------------
 785:Generated_Source\PSoC5/LCD128x64_1.c **** void LCD128x64_1_Glyph(uint8 left, uint8 top,
 786:Generated_Source\PSoC5/LCD128x64_1.c **** 			   uint8 width, uint8 height,
 787:Generated_Source\PSoC5/LCD128x64_1.c **** 			   const uint8 *glyph, uint8 store_width)
 788:Generated_Source\PSoC5/LCD128x64_1.c **** {
 146              		.loc 1 788 0
 147              		.cfi_startproc
 148              		@ args = 8, pretend = 0, frame = 16
 149              		@ frame_needed = 0, uses_anonymous_args = 0
 150              	.LVL9:
 151 0000 2DE9F04F 		push	{r4, r5, r6, r7, r8, r9, r10, fp, lr}
 152              		.cfi_def_cfa_offset 36
 153              		.cfi_offset 4, -36
 154              		.cfi_offset 5, -32
 155              		.cfi_offset 6, -28
 156              		.cfi_offset 7, -24
 157              		.cfi_offset 8, -20
 158              		.cfi_offset 9, -16
 159              		.cfi_offset 10, -12
 160              		.cfi_offset 11, -8
 161              		.cfi_offset 14, -4
 162 0004 85B0     		sub	sp, sp, #20
 163              		.cfi_def_cfa_offset 56
 164 0006 0291     		str	r1, [sp, #8]
 165 0008 0192     		str	r2, [sp, #4]
 166 000a 0393     		str	r3, [sp, #12]
 167 000c 9DF83CC0 		ldrb	ip, [sp, #60]	@ zero_extendqisi2
 789:Generated_Source\PSoC5/LCD128x64_1.c **** 	uint8 bit_pos;
 790:Generated_Source\PSoC5/LCD128x64_1.c **** 	uint8 byte_offset;
 791:Generated_Source\PSoC5/LCD128x64_1.c **** 	uint8 y_bits;
 792:Generated_Source\PSoC5/LCD128x64_1.c **** 	uint8 remaining_bits;
 793:Generated_Source\PSoC5/LCD128x64_1.c **** 	uint8 mask;
 794:Generated_Source\PSoC5/LCD128x64_1.c **** 	uint8 char_mask;
 795:Generated_Source\PSoC5/LCD128x64_1.c **** 	uint8 x;
 796:Generated_Source\PSoC5/LCD128x64_1.c **** 	const uint8 *glyph_scan;
 797:Generated_Source\PSoC5/LCD128x64_1.c **** 	uint8 glyph_offset;
 798:Generated_Source\PSoC5/LCD128x64_1.c **** 
ARM GAS  C:\Users\USUARIO\AppData\Local\Temp\ccVm8SVK.s 			page 18


 799:Generated_Source\PSoC5/LCD128x64_1.c ****   	bit_pos = top & 0x07;		/* get the bit offset into a byte */
 168              		.loc 1 799 0
 169 0010 01F0070A 		and	r10, r1, #7
 170              	.LVL10:
 800:Generated_Source\PSoC5/LCD128x64_1.c **** 
 801:Generated_Source\PSoC5/LCD128x64_1.c **** 	glyph_offset = 0;			/* start at left side of the glyph rasters */
 802:Generated_Source\PSoC5/LCD128x64_1.c ****     char_mask = 0x80;			/* initial character glyph mask */
 803:Generated_Source\PSoC5/LCD128x64_1.c **** 
 804:Generated_Source\PSoC5/LCD128x64_1.c ****   	for (x = left; x < (left + width); x++)
 171              		.loc 1 804 0
 172 0014 8046     		mov	r8, r0
 801:Generated_Source\PSoC5/LCD128x64_1.c ****     char_mask = 0x80;			/* initial character glyph mask */
 173              		.loc 1 801 0
 174 0016 4FF00009 		mov	r9, #0
 802:Generated_Source\PSoC5/LCD128x64_1.c **** 
 175              		.loc 1 802 0
 176 001a 4FF0800E 		mov	lr, #128
 177              		.loc 1 804 0
 178 001e 40E0     		b	.L16
 179              	.LVL11:
 180              	.L24:
 805:Generated_Source\PSoC5/LCD128x64_1.c ****   	{
 806:Generated_Source\PSoC5/LCD128x64_1.c ****     	byte_offset = top >> 3;        	/* get the byte offset into y direction */
 181              		.loc 1 806 0
 182 0020 029B     		ldr	r3, [sp, #8]
 183 0022 DC08     		lsrs	r4, r3, #3
 184              	.LVL12:
 807:Generated_Source\PSoC5/LCD128x64_1.c **** 		y_bits = height;				/* get length in y direction to write */
 808:Generated_Source\PSoC5/LCD128x64_1.c **** 		remaining_bits = 8 - bit_pos;	/* number of bits left in byte */
 185              		.loc 1 808 0
 186 0024 CAF10803 		rsb	r3, r10, #8
 187 0028 DBB2     		uxtb	r3, r3
 188              	.LVL13:
 809:Generated_Source\PSoC5/LCD128x64_1.c **** 		mask = GLCD_MaskArray[bit_pos];	/* get mask for this bit */
 189              		.loc 1 809 0
 190 002a 224A     		ldr	r2, .L26
 191 002c 12F80A20 		ldrb	r2, [r2, r10]	@ zero_extendqisi2
 192              	.LVL14:
 810:Generated_Source\PSoC5/LCD128x64_1.c **** 		glyph_scan = glyph + glyph_offset;	 /* point to base of the glyph */
 193              		.loc 1 810 0
 194 0030 0E99     		ldr	r1, [sp, #56]
 195 0032 01EB0905 		add	r5, r1, r9
 196              	.LVL15:
 807:Generated_Source\PSoC5/LCD128x64_1.c **** 		y_bits = height;				/* get length in y direction to write */
 197              		.loc 1 807 0
 198 0036 0399     		ldr	r1, [sp, #12]
 811:Generated_Source\PSoC5/LCD128x64_1.c **** 
 812:Generated_Source\PSoC5/LCD128x64_1.c ****     	/* boundary checking here to account for the possibility of  */
 813:Generated_Source\PSoC5/LCD128x64_1.c ****     	/* write past the bottom of the screen.                        */
 814:Generated_Source\PSoC5/LCD128x64_1.c ****     	while((y_bits) && (byte_offset < GLCD_Y_BYTES)) /* while there are bits still to write */
 199              		.loc 1 814 0
 200 0038 23E0     		b	.L17
 201              	.LVL16:
 202              	.L22:
 815:Generated_Source\PSoC5/LCD128x64_1.c ****     	{
 816:Generated_Source\PSoC5/LCD128x64_1.c **** 			/* check if the character pixel is set or not */
 817:Generated_Source\PSoC5/LCD128x64_1.c **** 			if(*glyph_scan & char_mask)
ARM GAS  C:\Users\USUARIO\AppData\Local\Temp\ccVm8SVK.s 			page 19


 203              		.loc 1 817 0
 204 003a 2E78     		ldrb	r6, [r5]	@ zero_extendqisi2
 205 003c 1EEA060F 		tst	lr, r6
 206 0040 09D0     		beq	.L18
 818:Generated_Source\PSoC5/LCD128x64_1.c **** 			{
 819:Generated_Source\PSoC5/LCD128x64_1.c **** 				gGLCD_buffer[byte_offset][x] |= mask;	/* set image pixel */
 207              		.loc 1 819 0
 208 0042 1D4E     		ldr	r6, .L26+4
 209 0044 06EBC416 		add	r6, r6, r4, lsl #7
 210 0048 16F807B0 		ldrb	fp, [r6, r7]	@ zero_extendqisi2
 211 004c 42EA0B0B 		orr	fp, r2, fp
 212 0050 06F807B0 		strb	fp, [r6, r7]
 213 0054 08E0     		b	.L19
 214              	.L18:
 820:Generated_Source\PSoC5/LCD128x64_1.c **** 			}
 821:Generated_Source\PSoC5/LCD128x64_1.c **** 			else
 822:Generated_Source\PSoC5/LCD128x64_1.c **** 			{
 823:Generated_Source\PSoC5/LCD128x64_1.c ****       			gGLCD_buffer[byte_offset][x] &= ~mask;	/* clear the image pixel */
 215              		.loc 1 823 0
 216 0056 184E     		ldr	r6, .L26+4
 217 0058 06EBC416 		add	r6, r6, r4, lsl #7
 218 005c 16F807B0 		ldrb	fp, [r6, r7]	@ zero_extendqisi2
 219 0060 2BEA020B 		bic	fp, fp, r2
 220 0064 06F807B0 		strb	fp, [r6, r7]
 221              	.L19:
 824:Generated_Source\PSoC5/LCD128x64_1.c **** 			}
 825:Generated_Source\PSoC5/LCD128x64_1.c **** 
 826:Generated_Source\PSoC5/LCD128x64_1.c **** 			if(GLCD_MaskArray[0] & 0x80)
 827:Generated_Source\PSoC5/LCD128x64_1.c **** 			{
 828:Generated_Source\PSoC5/LCD128x64_1.c **** 				mask >>= 1;
 829:Generated_Source\PSoC5/LCD128x64_1.c **** 			}
 830:Generated_Source\PSoC5/LCD128x64_1.c **** 			else
 831:Generated_Source\PSoC5/LCD128x64_1.c **** 			{
 832:Generated_Source\PSoC5/LCD128x64_1.c **** 				mask <<= 1;
 222              		.loc 1 832 0
 223 0068 5200     		lsls	r2, r2, #1
 224              	.LVL17:
 225 006a D2B2     		uxtb	r2, r2
 226              	.LVL18:
 833:Generated_Source\PSoC5/LCD128x64_1.c **** 			}
 834:Generated_Source\PSoC5/LCD128x64_1.c **** 			
 835:Generated_Source\PSoC5/LCD128x64_1.c **** 			y_bits--;
 227              		.loc 1 835 0
 228 006c 0139     		subs	r1, r1, #1
 229              	.LVL19:
 230 006e C9B2     		uxtb	r1, r1
 231              	.LVL20:
 836:Generated_Source\PSoC5/LCD128x64_1.c **** 			remaining_bits--;
 232              		.loc 1 836 0
 233 0070 013B     		subs	r3, r3, #1
 234              	.LVL21:
 837:Generated_Source\PSoC5/LCD128x64_1.c ****       		if(remaining_bits == 0)
 235              		.loc 1 837 0
 236 0072 13F0FF03 		ands	r3, r3, #255
 237              	.LVL22:
 238 0076 03D1     		bne	.L20
 239              	.LVL23:
ARM GAS  C:\Users\USUARIO\AppData\Local\Temp\ccVm8SVK.s 			page 20


 838:Generated_Source\PSoC5/LCD128x64_1.c ****       		{
 839:Generated_Source\PSoC5/LCD128x64_1.c **** 				/* just crossed over a byte boundry, reset byte counts */
 840:Generated_Source\PSoC5/LCD128x64_1.c **** 				remaining_bits = 8;
 841:Generated_Source\PSoC5/LCD128x64_1.c **** 				byte_offset++;
 240              		.loc 1 841 0
 241 0078 0134     		adds	r4, r4, #1
 242              	.LVL24:
 243 007a E4B2     		uxtb	r4, r4
 244              	.LVL25:
 842:Generated_Source\PSoC5/LCD128x64_1.c **** 				mask = GLCD_MaskArray[0];
 245              		.loc 1 842 0
 246 007c 0122     		movs	r2, #1
 840:Generated_Source\PSoC5/LCD128x64_1.c **** 				byte_offset++;
 247              		.loc 1 840 0
 248 007e 0823     		movs	r3, #8
 249              	.LVL26:
 250              	.L20:
 843:Generated_Source\PSoC5/LCD128x64_1.c ****       		}
 844:Generated_Source\PSoC5/LCD128x64_1.c **** 
 845:Generated_Source\PSoC5/LCD128x64_1.c **** 			/* bump the glyph scan to next raster */
 846:Generated_Source\PSoC5/LCD128x64_1.c **** 			glyph_scan += store_width;
 251              		.loc 1 846 0
 252 0080 6544     		add	r5, r5, ip
 253              	.LVL27:
 254              	.L17:
 814:Generated_Source\PSoC5/LCD128x64_1.c ****     	{
 255              		.loc 1 814 0
 256 0082 09B1     		cbz	r1, .L21
 814:Generated_Source\PSoC5/LCD128x64_1.c ****     	{
 257              		.loc 1 814 0 is_stmt 0 discriminator 1
 258 0084 072C     		cmp	r4, #7
 259 0086 D8D9     		bls	.L22
 260              	.L21:
 261              	.LVL28:
 847:Generated_Source\PSoC5/LCD128x64_1.c **** 		}
 848:Generated_Source\PSoC5/LCD128x64_1.c **** 
 849:Generated_Source\PSoC5/LCD128x64_1.c **** 		/* shift over to next glyph bit */
 850:Generated_Source\PSoC5/LCD128x64_1.c **** 		char_mask >>= 1;
 851:Generated_Source\PSoC5/LCD128x64_1.c **** 		if(char_mask == 0)				/* reset for next byte in raster */
 262              		.loc 1 851 0 is_stmt 1
 263 0088 5FEA5E0E 		lsrs	lr, lr, #1
 264              	.LVL29:
 265 008c 05D1     		bne	.L23
 266              	.LVL30:
 852:Generated_Source\PSoC5/LCD128x64_1.c **** 		{
 853:Generated_Source\PSoC5/LCD128x64_1.c **** 			char_mask = 0x80;
 854:Generated_Source\PSoC5/LCD128x64_1.c **** 			glyph_offset++;
 267              		.loc 1 854 0
 268 008e 09F10109 		add	r9, r9, #1
 269              	.LVL31:
 270 0092 5FFA89F9 		uxtb	r9, r9
 271              	.LVL32:
 853:Generated_Source\PSoC5/LCD128x64_1.c **** 			glyph_offset++;
 272              		.loc 1 853 0
 273 0096 4FF0800E 		mov	lr, #128
 274              	.LVL33:
 275              	.L23:
ARM GAS  C:\Users\USUARIO\AppData\Local\Temp\ccVm8SVK.s 			page 21


 804:Generated_Source\PSoC5/LCD128x64_1.c ****   	{
 276              		.loc 1 804 0 discriminator 2
 277 009a 08F10108 		add	r8, r8, #1
 278              	.LVL34:
 279 009e 5FFA88F8 		uxtb	r8, r8
 280              	.LVL35:
 281              	.L16:
 804:Generated_Source\PSoC5/LCD128x64_1.c ****   	{
 282              		.loc 1 804 0 is_stmt 0 discriminator 1
 283 00a2 4746     		mov	r7, r8
 284 00a4 019B     		ldr	r3, [sp, #4]
 285 00a6 C318     		adds	r3, r0, r3
 286 00a8 9845     		cmp	r8, r3
 287 00aa B9DB     		blt	.L24
 855:Generated_Source\PSoC5/LCD128x64_1.c **** 	    }
 856:Generated_Source\PSoC5/LCD128x64_1.c **** 	}
 857:Generated_Source\PSoC5/LCD128x64_1.c **** }
 288              		.loc 1 857 0 is_stmt 1
 289 00ac 05B0     		add	sp, sp, #20
 290              		.cfi_def_cfa_offset 36
 291              		@ sp needed
 292 00ae BDE8F08F 		pop	{r4, r5, r6, r7, r8, r9, r10, fp, pc}
 293              	.LVL36:
 294              	.L27:
 295 00b2 00BF     		.align	2
 296              	.L26:
 297 00b4 00000000 		.word	.LANCHOR1
 298 00b8 00000000 		.word	.LANCHOR0
 299              		.cfi_endproc
 300              	.LFE82:
 301              		.size	LCD128x64_1_Glyph, .-LCD128x64_1_Glyph
 302              		.section	.text.LCD128x64_1_TimerSet,"ax",%progbits
 303              		.align	2
 304              		.thumb
 305              		.thumb_func
 306              		.type	LCD128x64_1_TimerSet, %function
 307              	LCD128x64_1_TimerSet:
 308              	.LFB66:
 254:Generated_Source\PSoC5/LCD128x64_1.c **** 	LCD128x64_1_Timer_LCD_WriteCounter(count+1);
 309              		.loc 1 254 0
 310              		.cfi_startproc
 311              		@ args = 0, pretend = 0, frame = 0
 312              		@ frame_needed = 0, uses_anonymous_args = 0
 313              	.LVL37:
 314 0000 08B5     		push	{r3, lr}
 315              		.cfi_def_cfa_offset 8
 316              		.cfi_offset 3, -8
 317              		.cfi_offset 14, -4
 255:Generated_Source\PSoC5/LCD128x64_1.c **** }
 318              		.loc 1 255 0
 319 0002 0130     		adds	r0, r0, #1
 320              	.LVL38:
 321 0004 80B2     		uxth	r0, r0
 322 0006 FFF7FEFF 		bl	LCD128x64_1_Timer_LCD_WriteCounter
 323              	.LVL39:
 324 000a 08BD     		pop	{r3, pc}
 325              		.cfi_endproc
ARM GAS  C:\Users\USUARIO\AppData\Local\Temp\ccVm8SVK.s 			page 22


 326              	.LFE66:
 327              		.size	LCD128x64_1_TimerSet, .-LCD128x64_1_TimerSet
 328              		.section	.text.LCD128x64_1_SetupIO,"ax",%progbits
 329              		.align	2
 330              		.thumb
 331              		.thumb_func
 332              		.type	LCD128x64_1_SetupIO, %function
 333              	LCD128x64_1_SetupIO:
 334              	.LFB63:
 170:Generated_Source\PSoC5/LCD128x64_1.c **** 	LCD128x64_1_LCD_DATA_Write(0);
 335              		.loc 1 170 0
 336              		.cfi_startproc
 337              		@ args = 0, pretend = 0, frame = 0
 338              		@ frame_needed = 0, uses_anonymous_args = 0
 339 0000 08B5     		push	{r3, lr}
 340              		.cfi_def_cfa_offset 8
 341              		.cfi_offset 3, -8
 342              		.cfi_offset 14, -4
 171:Generated_Source\PSoC5/LCD128x64_1.c **** 	
 343              		.loc 1 171 0
 344 0002 0020     		movs	r0, #0
 345 0004 FFF7FEFF 		bl	LCD128x64_1_LCD_DATA_Write
 346              	.LVL40:
 173:Generated_Source\PSoC5/LCD128x64_1.c **** 	CyPins_ClearPin(LCD128x64_1_LCDC_CS1);
 347              		.loc 1 173 0
 348 0008 114A     		ldr	r2, .L32
 349 000a 1378     		ldrb	r3, [r2]	@ zero_extendqisi2
 350 000c 03F0FE03 		and	r3, r3, #254
 351 0010 1370     		strb	r3, [r2]
 174:Generated_Source\PSoC5/LCD128x64_1.c **** 	CyPins_ClearPin(LCD128x64_1_LCDC_CS2);
 352              		.loc 1 174 0
 353 0012 253A     		subs	r2, r2, #37
 354 0014 1378     		ldrb	r3, [r2]	@ zero_extendqisi2
 355 0016 03F0FE03 		and	r3, r3, #254
 356 001a 1370     		strb	r3, [r2]
 175:Generated_Source\PSoC5/LCD128x64_1.c **** 	CyPins_ClearPin(LCD128x64_1_LCDC_DI);
 357              		.loc 1 175 0
 358 001c 2432     		adds	r2, r2, #36
 359 001e 1378     		ldrb	r3, [r2]	@ zero_extendqisi2
 360 0020 03F0FE03 		and	r3, r3, #254
 361 0024 1370     		strb	r3, [r2]
 176:Generated_Source\PSoC5/LCD128x64_1.c **** 
 362              		.loc 1 176 0
 363 0026 023A     		subs	r2, r2, #2
 364 0028 1378     		ldrb	r3, [r2]	@ zero_extendqisi2
 365 002a 03F0FE03 		and	r3, r3, #254
 366 002e 1370     		strb	r3, [r2]
 178:Generated_Source\PSoC5/LCD128x64_1.c **** 	CyPins_SetPin(LCD128x64_1_LCDC_RST);
 367              		.loc 1 178 0
 368 0030 084B     		ldr	r3, .L32+4
 369 0032 1A78     		ldrb	r2, [r3]	@ zero_extendqisi2
 370 0034 02F0FE02 		and	r2, r2, #254
 371 0038 1A70     		strb	r2, [r3]
 179:Generated_Source\PSoC5/LCD128x64_1.c **** 	
 372              		.loc 1 179 0
 373 003a 1A78     		ldrb	r2, [r3]	@ zero_extendqisi2
 374 003c 42F00102 		orr	r2, r2, #1
ARM GAS  C:\Users\USUARIO\AppData\Local\Temp\ccVm8SVK.s 			page 23


 375 0040 1A70     		strb	r2, [r3]
 181:Generated_Source\PSoC5/LCD128x64_1.c **** 	LCD128x64_1_TimerSet(NS_TO_COUNT(BUSY_TIME_NS));
 376              		.loc 1 181 0
 377 0042 FFF7FEFF 		bl	LCD128x64_1_Timer_LCD_Start
 378              	.LVL41:
 182:Generated_Source\PSoC5/LCD128x64_1.c **** }
 379              		.loc 1 182 0
 380 0046 1820     		movs	r0, #24
 381 0048 FFF7FEFF 		bl	LCD128x64_1_TimerSet
 382              	.LVL42:
 383 004c 08BD     		pop	{r3, pc}
 384              	.L33:
 385 004e 00BF     		.align	2
 386              	.L32:
 387 0050 36500040 		.word	1073762358
 388 0054 19500040 		.word	1073762329
 389              		.cfi_endproc
 390              	.LFE63:
 391              		.size	LCD128x64_1_SetupIO, .-LCD128x64_1_SetupIO
 392              		.section	.text.LCD128x64_1_TimerWait,"ax",%progbits
 393              		.align	2
 394              		.thumb
 395              		.thumb_func
 396              		.type	LCD128x64_1_TimerWait, %function
 397              	LCD128x64_1_TimerWait:
 398              	.LFB65:
 234:Generated_Source\PSoC5/LCD128x64_1.c **** 	while (LCD128x64_1_Timer_LCD_ReadCounter()!=0)
 399              		.loc 1 234 0
 400              		.cfi_startproc
 401              		@ args = 0, pretend = 0, frame = 0
 402              		@ frame_needed = 0, uses_anonymous_args = 0
 403 0000 08B5     		push	{r3, lr}
 404              		.cfi_def_cfa_offset 8
 405              		.cfi_offset 3, -8
 406              		.cfi_offset 14, -4
 407              	.L35:
 235:Generated_Source\PSoC5/LCD128x64_1.c **** 	{;}
 408              		.loc 1 235 0 discriminator 1
 409 0002 FFF7FEFF 		bl	LCD128x64_1_Timer_LCD_ReadCounter
 410              	.LVL43:
 411 0006 0028     		cmp	r0, #0
 412 0008 FBD1     		bne	.L35
 237:Generated_Source\PSoC5/LCD128x64_1.c **** 
 413              		.loc 1 237 0
 414 000a 08BD     		pop	{r3, pc}
 415              		.cfi_endproc
 416              	.LFE65:
 417              		.size	LCD128x64_1_TimerWait, .-LCD128x64_1_TimerWait
 418              		.section	.text.LCD128x64_1_WriteDataCmd,"ax",%progbits
 419              		.align	2
 420              		.thumb
 421              		.thumb_func
 422              		.type	LCD128x64_1_WriteDataCmd, %function
 423              	LCD128x64_1_WriteDataCmd:
 424              	.LFB67:
 274:Generated_Source\PSoC5/LCD128x64_1.c **** 	LCD128x64_1_TimerWait();
 425              		.loc 1 274 0
ARM GAS  C:\Users\USUARIO\AppData\Local\Temp\ccVm8SVK.s 			page 24


 426              		.cfi_startproc
 427              		@ args = 0, pretend = 0, frame = 0
 428              		@ frame_needed = 0, uses_anonymous_args = 0
 429              	.LVL44:
 430 0000 38B5     		push	{r3, r4, r5, lr}
 431              		.cfi_def_cfa_offset 16
 432              		.cfi_offset 3, -16
 433              		.cfi_offset 4, -12
 434              		.cfi_offset 5, -8
 435              		.cfi_offset 14, -4
 436 0002 0446     		mov	r4, r0
 437 0004 0D46     		mov	r5, r1
 275:Generated_Source\PSoC5/LCD128x64_1.c **** 	
 438              		.loc 1 275 0
 439 0006 FFF7FEFF 		bl	LCD128x64_1_TimerWait
 440              	.LVL45:
 277:Generated_Source\PSoC5/LCD128x64_1.c **** 		CyPins_ClearPin(LCD128x64_1_LCDC_DI);	// DI to 0 (command)																							
 441              		.loc 1 277 0
 442 000a 2DB9     		cbnz	r5, .L38
 278:Generated_Source\PSoC5/LCD128x64_1.c **** 	else
 443              		.loc 1 278 0
 444 000c 124A     		ldr	r2, .L41
 445 000e 1378     		ldrb	r3, [r2]	@ zero_extendqisi2
 446 0010 03F0FE03 		and	r3, r3, #254
 447 0014 1370     		strb	r3, [r2]
 448 0016 04E0     		b	.L39
 449              	.L38:
 280:Generated_Source\PSoC5/LCD128x64_1.c **** 
 450              		.loc 1 280 0
 451 0018 0F4A     		ldr	r2, .L41
 452 001a 1378     		ldrb	r3, [r2]	@ zero_extendqisi2
 453 001c 43F00103 		orr	r3, r3, #1
 454 0020 1370     		strb	r3, [r2]
 455              	.L39:
 283:Generated_Source\PSoC5/LCD128x64_1.c **** 	LCD128x64_1_TimerWait();
 456              		.loc 1 283 0
 457 0022 0320     		movs	r0, #3
 458 0024 FFF7FEFF 		bl	LCD128x64_1_TimerSet
 459              	.LVL46:
 284:Generated_Source\PSoC5/LCD128x64_1.c **** 
 460              		.loc 1 284 0
 461 0028 FFF7FEFF 		bl	LCD128x64_1_TimerWait
 462              	.LVL47:
 286:Generated_Source\PSoC5/LCD128x64_1.c **** 	
 463              		.loc 1 286 0
 464 002c 2046     		mov	r0, r4
 465 002e FFF7FEFF 		bl	LCD128x64_1_LCD_DATA_Write
 466              	.LVL48:
 288:Generated_Source\PSoC5/LCD128x64_1.c **** 									// Need E high for at least 450ns
 467              		.loc 1 288 0
 468 0032 0A4C     		ldr	r4, .L41+4
 469 0034 2378     		ldrb	r3, [r4]	@ zero_extendqisi2
 470 0036 43F00103 		orr	r3, r3, #1
 471 003a 2370     		strb	r3, [r4]
 290:Generated_Source\PSoC5/LCD128x64_1.c **** 	LCD128x64_1_TimerWait();
 472              		.loc 1 290 0
 473 003c 0A20     		movs	r0, #10
ARM GAS  C:\Users\USUARIO\AppData\Local\Temp\ccVm8SVK.s 			page 25


 474 003e FFF7FEFF 		bl	LCD128x64_1_TimerSet
 475              	.LVL49:
 291:Generated_Source\PSoC5/LCD128x64_1.c **** 	CyPins_ClearPin(LCD128x64_1_LCDC_E);
 476              		.loc 1 291 0
 477 0042 FFF7FEFF 		bl	LCD128x64_1_TimerWait
 478              	.LVL50:
 292:Generated_Source\PSoC5/LCD128x64_1.c **** 									// Starts busy wait time
 479              		.loc 1 292 0
 480 0046 2378     		ldrb	r3, [r4]	@ zero_extendqisi2
 481 0048 03F0FE03 		and	r3, r3, #254
 482 004c 2370     		strb	r3, [r4]
 294:Generated_Source\PSoC5/LCD128x64_1.c **** }
 483              		.loc 1 294 0
 484 004e 1820     		movs	r0, #24
 485 0050 FFF7FEFF 		bl	LCD128x64_1_TimerSet
 486              	.LVL51:
 487 0054 38BD     		pop	{r3, r4, r5, pc}
 488              	.L42:
 489 0056 00BF     		.align	2
 490              	.L41:
 491 0058 33500040 		.word	1073762355
 492 005c 36500040 		.word	1073762358
 493              		.cfi_endproc
 494              	.LFE67:
 495              		.size	LCD128x64_1_WriteDataCmd, .-LCD128x64_1_WriteDataCmd
 496              		.section	.text.LCD128x64_1_WriteCommand,"ax",%progbits
 497              		.align	2
 498              		.thumb
 499              		.thumb_func
 500              		.type	LCD128x64_1_WriteCommand, %function
 501              	LCD128x64_1_WriteCommand:
 502              	.LFB68:
 312:Generated_Source\PSoC5/LCD128x64_1.c **** 	LCD128x64_1_WriteDataCmd(byte, GLCD_MODECMD);
 503              		.loc 1 312 0
 504              		.cfi_startproc
 505              		@ args = 0, pretend = 0, frame = 0
 506              		@ frame_needed = 0, uses_anonymous_args = 0
 507              	.LVL52:
 508 0000 08B5     		push	{r3, lr}
 509              		.cfi_def_cfa_offset 8
 510              		.cfi_offset 3, -8
 511              		.cfi_offset 14, -4
 313:Generated_Source\PSoC5/LCD128x64_1.c **** }
 512              		.loc 1 313 0
 513 0002 0021     		movs	r1, #0
 514 0004 FFF7FEFF 		bl	LCD128x64_1_WriteDataCmd
 515              	.LVL53:
 516 0008 08BD     		pop	{r3, pc}
 517              		.cfi_endproc
 518              	.LFE68:
 519              		.size	LCD128x64_1_WriteCommand, .-LCD128x64_1_WriteCommand
 520 000a 00BF     		.section	.text.LCD128x64_1_SetPage,"ax",%progbits
 521              		.align	2
 522              		.thumb
 523              		.thumb_func
 524              		.type	LCD128x64_1_SetPage, %function
 525              	LCD128x64_1_SetPage:
ARM GAS  C:\Users\USUARIO\AppData\Local\Temp\ccVm8SVK.s 			page 26


 526              	.LFB70:
 350:Generated_Source\PSoC5/LCD128x64_1.c **** 	LCD128x64_1_WriteCommand(GLCD_SET_PAGE+page);
 527              		.loc 1 350 0
 528              		.cfi_startproc
 529              		@ args = 0, pretend = 0, frame = 0
 530              		@ frame_needed = 0, uses_anonymous_args = 0
 531              	.LVL54:
 532 0000 08B5     		push	{r3, lr}
 533              		.cfi_def_cfa_offset 8
 534              		.cfi_offset 3, -8
 535              		.cfi_offset 14, -4
 351:Generated_Source\PSoC5/LCD128x64_1.c **** }
 536              		.loc 1 351 0
 537 0002 4838     		subs	r0, r0, #72
 538              	.LVL55:
 539 0004 C0B2     		uxtb	r0, r0
 540 0006 FFF7FEFF 		bl	LCD128x64_1_WriteCommand
 541              	.LVL56:
 542 000a 08BD     		pop	{r3, pc}
 543              		.cfi_endproc
 544              	.LFE70:
 545              		.size	LCD128x64_1_SetPage, .-LCD128x64_1_SetPage
 546              		.section	.text.LCD128x64_1_SetAddress,"ax",%progbits
 547              		.align	2
 548              		.thumb
 549              		.thumb_func
 550              		.type	LCD128x64_1_SetAddress, %function
 551              	LCD128x64_1_SetAddress:
 552              	.LFB71:
 369:Generated_Source\PSoC5/LCD128x64_1.c **** 	LCD128x64_1_WriteCommand(GLCD_SET_ADDRESS+address);
 553              		.loc 1 369 0
 554              		.cfi_startproc
 555              		@ args = 0, pretend = 0, frame = 0
 556              		@ frame_needed = 0, uses_anonymous_args = 0
 557              	.LVL57:
 558 0000 08B5     		push	{r3, lr}
 559              		.cfi_def_cfa_offset 8
 560              		.cfi_offset 3, -8
 561              		.cfi_offset 14, -4
 370:Generated_Source\PSoC5/LCD128x64_1.c **** }
 562              		.loc 1 370 0
 563 0002 4030     		adds	r0, r0, #64
 564              	.LVL58:
 565 0004 C0B2     		uxtb	r0, r0
 566 0006 FFF7FEFF 		bl	LCD128x64_1_WriteCommand
 567              	.LVL59:
 568 000a 08BD     		pop	{r3, pc}
 569              		.cfi_endproc
 570              	.LFE71:
 571              		.size	LCD128x64_1_SetAddress, .-LCD128x64_1_SetAddress
 572              		.section	.text.LCD128x64_1_WriteData,"ax",%progbits
 573              		.align	2
 574              		.thumb
 575              		.thumb_func
 576              		.type	LCD128x64_1_WriteData, %function
 577              	LCD128x64_1_WriteData:
 578              	.LFB69:
ARM GAS  C:\Users\USUARIO\AppData\Local\Temp\ccVm8SVK.s 			page 27


 331:Generated_Source\PSoC5/LCD128x64_1.c **** 	LCD128x64_1_WriteDataCmd(byte, GLCD_MODEDATA);
 579              		.loc 1 331 0
 580              		.cfi_startproc
 581              		@ args = 0, pretend = 0, frame = 0
 582              		@ frame_needed = 0, uses_anonymous_args = 0
 583              	.LVL60:
 584 0000 08B5     		push	{r3, lr}
 585              		.cfi_def_cfa_offset 8
 586              		.cfi_offset 3, -8
 587              		.cfi_offset 14, -4
 332:Generated_Source\PSoC5/LCD128x64_1.c **** }
 588              		.loc 1 332 0
 589 0002 0121     		movs	r1, #1
 590 0004 FFF7FEFF 		bl	LCD128x64_1_WriteDataCmd
 591              	.LVL61:
 592 0008 08BD     		pop	{r3, pc}
 593              		.cfi_endproc
 594              	.LFE69:
 595              		.size	LCD128x64_1_WriteData, .-LCD128x64_1_WriteData
 596 000a 00BF     		.section	.text.LCD128x64_1_Init,"ax",%progbits
 597              		.align	2
 598              		.global	LCD128x64_1_Init
 599              		.thumb
 600              		.thumb_func
 601              		.type	LCD128x64_1_Init, %function
 602              	LCD128x64_1_Init:
 603              	.LFB72:
 388:Generated_Source\PSoC5/LCD128x64_1.c **** 	uint8 i;
 604              		.loc 1 388 0
 605              		.cfi_startproc
 606              		@ args = 0, pretend = 0, frame = 0
 607              		@ frame_needed = 0, uses_anonymous_args = 0
 608 0000 10B5     		push	{r4, lr}
 609              		.cfi_def_cfa_offset 8
 610              		.cfi_offset 4, -8
 611              		.cfi_offset 14, -4
 391:Generated_Source\PSoC5/LCD128x64_1.c **** 	
 612              		.loc 1 391 0
 613 0002 FFF7FEFF 		bl	LCD128x64_1_SetupIO
 614              	.LVL62:
 393:Generated_Source\PSoC5/LCD128x64_1.c **** 		LCD128x64_1_SelectChip(i);
 615              		.loc 1 393 0
 616 0006 0024     		movs	r4, #0
 617 0008 0AE0     		b	.L52
 618              	.LVL63:
 619              	.L53:
 394:Generated_Source\PSoC5/LCD128x64_1.c **** 		LCD128x64_1_WriteCommand(GLCD_ON); 
 620              		.loc 1 394 0 discriminator 3
 621 000a 2046     		mov	r0, r4
 622 000c FFF7FEFF 		bl	LCD128x64_1_SelectChip
 623              	.LVL64:
 395:Generated_Source\PSoC5/LCD128x64_1.c **** 		LCD128x64_1_WriteCommand(GLCD_DISP_START0);
 624              		.loc 1 395 0 discriminator 3
 625 0010 3F20     		movs	r0, #63
 626 0012 FFF7FEFF 		bl	LCD128x64_1_WriteCommand
 627              	.LVL65:
 396:Generated_Source\PSoC5/LCD128x64_1.c **** 		// GLCD_SetPage(0);
ARM GAS  C:\Users\USUARIO\AppData\Local\Temp\ccVm8SVK.s 			page 28


 628              		.loc 1 396 0 discriminator 3
 629 0016 C020     		movs	r0, #192
 630 0018 FFF7FEFF 		bl	LCD128x64_1_WriteCommand
 631              	.LVL66:
 393:Generated_Source\PSoC5/LCD128x64_1.c **** 		LCD128x64_1_SelectChip(i);
 632              		.loc 1 393 0 discriminator 3
 633 001c 0134     		adds	r4, r4, #1
 634              	.LVL67:
 635 001e E4B2     		uxtb	r4, r4
 636              	.LVL68:
 637              	.L52:
 393:Generated_Source\PSoC5/LCD128x64_1.c **** 		LCD128x64_1_SelectChip(i);
 638              		.loc 1 393 0 is_stmt 0 discriminator 1
 639 0020 012C     		cmp	r4, #1
 640 0022 F2D9     		bls	.L53
 400:Generated_Source\PSoC5/LCD128x64_1.c **** //-----------------------------------------------------------------------------
 641              		.loc 1 400 0 is_stmt 1
 642 0024 10BD     		pop	{r4, pc}
 643              		.cfi_endproc
 644              	.LFE72:
 645              		.size	LCD128x64_1_Init, .-LCD128x64_1_Init
 646 0026 00BF     		.section	.text.LCD128x64_1_SetInvert,"ax",%progbits
 647              		.align	2
 648              		.global	LCD128x64_1_SetInvert
 649              		.thumb
 650              		.thumb_func
 651              		.type	LCD128x64_1_SetInvert, %function
 652              	LCD128x64_1_SetInvert:
 653              	.LFB73:
 416:Generated_Source\PSoC5/LCD128x64_1.c **** 	gGLCD_inverted = mode;
 654              		.loc 1 416 0
 655              		.cfi_startproc
 656              		@ args = 0, pretend = 0, frame = 0
 657              		@ frame_needed = 0, uses_anonymous_args = 0
 658              		@ link register save eliminated.
 659              	.LVL69:
 417:Generated_Source\PSoC5/LCD128x64_1.c **** }
 660              		.loc 1 417 0
 661 0000 014B     		ldr	r3, .L56
 662 0002 83F80004 		strb	r0, [r3, #1024]
 663 0006 7047     		bx	lr
 664              	.L57:
 665              		.align	2
 666              	.L56:
 667 0008 00000000 		.word	.LANCHOR0
 668              		.cfi_endproc
 669              	.LFE73:
 670              		.size	LCD128x64_1_SetInvert, .-LCD128x64_1_SetInvert
 671              		.section	.text.LCD128x64_1_Update,"ax",%progbits
 672              		.align	2
 673              		.global	LCD128x64_1_Update
 674              		.thumb
 675              		.thumb_func
 676              		.type	LCD128x64_1_Update, %function
 677              	LCD128x64_1_Update:
 678              	.LFB76:
 480:Generated_Source\PSoC5/LCD128x64_1.c **** 	uint8 x, y, i;
ARM GAS  C:\Users\USUARIO\AppData\Local\Temp\ccVm8SVK.s 			page 29


 679              		.loc 1 480 0
 680              		.cfi_startproc
 681              		@ args = 0, pretend = 0, frame = 0
 682              		@ frame_needed = 0, uses_anonymous_args = 0
 683              	.LVL70:
 684 0000 2DE9F843 		push	{r3, r4, r5, r6, r7, r8, r9, lr}
 685              		.cfi_def_cfa_offset 32
 686              		.cfi_offset 3, -32
 687              		.cfi_offset 4, -28
 688              		.cfi_offset 5, -24
 689              		.cfi_offset 6, -20
 690              		.cfi_offset 7, -16
 691              		.cfi_offset 8, -12
 692              		.cfi_offset 9, -8
 693              		.cfi_offset 14, -4
 486:Generated_Source\PSoC5/LCD128x64_1.c **** 	yb = bottom >> 3;
 694              		.loc 1 486 0
 695 0004 C0F3C709 		ubfx	r9, r0, #3, #8
 696              	.LVL71:
 487:Generated_Source\PSoC5/LCD128x64_1.c **** 
 697              		.loc 1 487 0
 698 0008 C1F3C708 		ubfx	r8, r1, #3, #8
 699              	.LVL72:
 489:Generated_Source\PSoC5/LCD128x64_1.c **** 		LCD128x64_1_SelectChip(i);
 700              		.loc 1 489 0
 701 000c 0027     		movs	r7, #0
 702 000e 23E0     		b	.L59
 703              	.LVL73:
 704              	.L65:
 490:Generated_Source\PSoC5/LCD128x64_1.c **** 		for (y=yt;y<=yb;y++) {
 705              		.loc 1 490 0
 706 0010 3846     		mov	r0, r7
 707 0012 FFF7FEFF 		bl	LCD128x64_1_SelectChip
 708              	.LVL74:
 491:Generated_Source\PSoC5/LCD128x64_1.c **** 			LCD128x64_1_SetPage(y);
 709              		.loc 1 491 0
 710 0016 4D46     		mov	r5, r9
 711 0018 1AE0     		b	.L60
 712              	.LVL75:
 713              	.L64:
 492:Generated_Source\PSoC5/LCD128x64_1.c **** 			LCD128x64_1_SetAddress(0);
 714              		.loc 1 492 0
 715 001a 2846     		mov	r0, r5
 716 001c FFF7FEFF 		bl	LCD128x64_1_SetPage
 717              	.LVL76:
 493:Generated_Source\PSoC5/LCD128x64_1.c **** 			xoffset = i * GLCD_MAXADDRESS;
 718              		.loc 1 493 0
 719 0020 0020     		movs	r0, #0
 720 0022 FFF7FEFF 		bl	LCD128x64_1_SetAddress
 721              	.LVL77:
 494:Generated_Source\PSoC5/LCD128x64_1.c **** 			for (x=0;x<GLCD_MAXADDRESS;x++) {
 722              		.loc 1 494 0
 723 0026 BE01     		lsls	r6, r7, #6
 724              	.LVL78:
 495:Generated_Source\PSoC5/LCD128x64_1.c **** 				data = gGLCD_buffer[y][xoffset+x];
 725              		.loc 1 495 0
 726 0028 0024     		movs	r4, #0
ARM GAS  C:\Users\USUARIO\AppData\Local\Temp\ccVm8SVK.s 			page 30


 727 002a 0DE0     		b	.L61
 728              	.LVL79:
 729              	.L63:
 496:Generated_Source\PSoC5/LCD128x64_1.c **** 				if (gGLCD_inverted) data=~data;
 730              		.loc 1 496 0
 731 002c 3319     		adds	r3, r6, r4
 732 002e 0E4A     		ldr	r2, .L67
 733 0030 02EBC511 		add	r1, r2, r5, lsl #7
 734 0034 C85C     		ldrb	r0, [r1, r3]	@ zero_extendqisi2
 735              	.LVL80:
 497:Generated_Source\PSoC5/LCD128x64_1.c **** 				LCD128x64_1_WriteData(data);
 736              		.loc 1 497 0
 737 0036 92F80034 		ldrb	r3, [r2, #1024]	@ zero_extendqisi2
 738 003a 0BB1     		cbz	r3, .L62
 497:Generated_Source\PSoC5/LCD128x64_1.c **** 				LCD128x64_1_WriteData(data);
 739              		.loc 1 497 0 is_stmt 0 discriminator 1
 740 003c C043     		mvns	r0, r0
 741              	.LVL81:
 742 003e C0B2     		uxtb	r0, r0
 743              	.LVL82:
 744              	.L62:
 498:Generated_Source\PSoC5/LCD128x64_1.c **** 			}
 745              		.loc 1 498 0 is_stmt 1 discriminator 2
 746 0040 FFF7FEFF 		bl	LCD128x64_1_WriteData
 747              	.LVL83:
 495:Generated_Source\PSoC5/LCD128x64_1.c **** 				data = gGLCD_buffer[y][xoffset+x];
 748              		.loc 1 495 0 discriminator 2
 749 0044 0134     		adds	r4, r4, #1
 750              	.LVL84:
 751 0046 E4B2     		uxtb	r4, r4
 752              	.LVL85:
 753              	.L61:
 495:Generated_Source\PSoC5/LCD128x64_1.c **** 				data = gGLCD_buffer[y][xoffset+x];
 754              		.loc 1 495 0 is_stmt 0 discriminator 1
 755 0048 3F2C     		cmp	r4, #63
 756 004a EFD9     		bls	.L63
 491:Generated_Source\PSoC5/LCD128x64_1.c **** 			LCD128x64_1_SetPage(y);
 757              		.loc 1 491 0 is_stmt 1 discriminator 2
 758 004c 0135     		adds	r5, r5, #1
 759              	.LVL86:
 760 004e EDB2     		uxtb	r5, r5
 761              	.LVL87:
 762              	.L60:
 491:Generated_Source\PSoC5/LCD128x64_1.c **** 			LCD128x64_1_SetPage(y);
 763              		.loc 1 491 0 is_stmt 0 discriminator 1
 764 0050 4545     		cmp	r5, r8
 765 0052 E2D9     		bls	.L64
 489:Generated_Source\PSoC5/LCD128x64_1.c **** 		LCD128x64_1_SelectChip(i);
 766              		.loc 1 489 0 is_stmt 1 discriminator 2
 767 0054 0137     		adds	r7, r7, #1
 768              	.LVL88:
 769 0056 FFB2     		uxtb	r7, r7
 770              	.LVL89:
 771              	.L59:
 489:Generated_Source\PSoC5/LCD128x64_1.c **** 		LCD128x64_1_SelectChip(i);
 772              		.loc 1 489 0 is_stmt 0 discriminator 1
 773 0058 012F     		cmp	r7, #1
ARM GAS  C:\Users\USUARIO\AppData\Local\Temp\ccVm8SVK.s 			page 31


 774 005a D9D9     		bls	.L65
 502:Generated_Source\PSoC5/LCD128x64_1.c **** }
 775              		.loc 1 502 0 is_stmt 1
 776 005c 6320     		movs	r0, #99
 777 005e FFF7FEFF 		bl	LCD128x64_1_SelectChip
 778              	.LVL90:
 779 0062 BDE8F883 		pop	{r3, r4, r5, r6, r7, r8, r9, pc}
 780              	.LVL91:
 781              	.L68:
 782 0066 00BF     		.align	2
 783              	.L67:
 784 0068 00000000 		.word	.LANCHOR0
 785              		.cfi_endproc
 786              	.LFE76:
 787              		.size	LCD128x64_1_Update, .-LCD128x64_1_Update
 788              		.section	.text.LCD128x64_1_ClrScr,"ax",%progbits
 789              		.align	2
 790              		.global	LCD128x64_1_ClrScr
 791              		.thumb
 792              		.thumb_func
 793              		.type	LCD128x64_1_ClrScr, %function
 794              	LCD128x64_1_ClrScr:
 795              	.LFB75:
 458:Generated_Source\PSoC5/LCD128x64_1.c **** 	LCD128x64_1_FillBuffer(0x00);
 796              		.loc 1 458 0
 797              		.cfi_startproc
 798              		@ args = 0, pretend = 0, frame = 0
 799              		@ frame_needed = 0, uses_anonymous_args = 0
 800              	.LVL92:
 801 0000 10B5     		push	{r4, lr}
 802              		.cfi_def_cfa_offset 8
 803              		.cfi_offset 4, -8
 804              		.cfi_offset 14, -4
 805 0002 0446     		mov	r4, r0
 459:Generated_Source\PSoC5/LCD128x64_1.c **** 	if ( bufferAndDisplay ) 
 806              		.loc 1 459 0
 807 0004 0020     		movs	r0, #0
 808              	.LVL93:
 809 0006 FFF7FEFF 		bl	LCD128x64_1_FillBuffer
 810              	.LVL94:
 460:Generated_Source\PSoC5/LCD128x64_1.c **** 		LCD128x64_1_UpdateAll();
 811              		.loc 1 460 0
 812 000a 1CB1     		cbz	r4, .L69
 461:Generated_Source\PSoC5/LCD128x64_1.c **** }
 813              		.loc 1 461 0
 814 000c 3F21     		movs	r1, #63
 815 000e 0020     		movs	r0, #0
 816 0010 FFF7FEFF 		bl	LCD128x64_1_Update
 817              	.LVL95:
 818              	.L69:
 819 0014 10BD     		pop	{r4, pc}
 820              		.cfi_endproc
 821              	.LFE75:
 822              		.size	LCD128x64_1_ClrScr, .-LCD128x64_1_ClrScr
 823 0016 00BF     		.section	.text.LCD128x64_1_Dot,"ax",%progbits
 824              		.align	2
 825              		.global	LCD128x64_1_Dot
ARM GAS  C:\Users\USUARIO\AppData\Local\Temp\ccVm8SVK.s 			page 32


 826              		.thumb
 827              		.thumb_func
 828              		.type	LCD128x64_1_Dot, %function
 829              	LCD128x64_1_Dot:
 830              	.LFB77:
 521:Generated_Source\PSoC5/LCD128x64_1.c **** // here 2*1 setup - TODO: for 2*2 setting
 831              		.loc 1 521 0
 832              		.cfi_startproc
 833              		@ args = 0, pretend = 0, frame = 0
 834              		@ frame_needed = 0, uses_anonymous_args = 0
 835              		@ link register save eliminated.
 836              	.LVL96:
 525:Generated_Source\PSoC5/LCD128x64_1.c **** 	
 837              		.loc 1 525 0
 838 0000 7E28     		cmp	r0, #126
 839 0002 23D8     		bhi	.L79
 525:Generated_Source\PSoC5/LCD128x64_1.c **** 	
 840              		.loc 1 525 0 is_stmt 0 discriminator 1
 841 0004 3E29     		cmp	r1, #62
 842 0006 21D8     		bhi	.L79
 521:Generated_Source\PSoC5/LCD128x64_1.c **** // here 2*1 setup - TODO: for 2*2 setting
 843              		.loc 1 521 0 is_stmt 1
 844 0008 10B4     		push	{r4}
 845              		.cfi_def_cfa_offset 4
 846              		.cfi_offset 4, -4
 527:Generated_Source\PSoC5/LCD128x64_1.c **** 	bitnum  = y & 0x07;
 847              		.loc 1 527 0
 848 000a CC08     		lsrs	r4, r1, #3
 849              	.LVL97:
 528:Generated_Source\PSoC5/LCD128x64_1.c **** 	bitmask = GLCD_MaskArray[bitnum];
 850              		.loc 1 528 0
 851 000c 01F00701 		and	r1, r1, #7
 852              	.LVL98:
 529:Generated_Source\PSoC5/LCD128x64_1.c **** 	switch (mode) {
 853              		.loc 1 529 0
 854 0010 0F4B     		ldr	r3, .L80
 855 0012 5B5C     		ldrb	r3, [r3, r1]	@ zero_extendqisi2
 856              	.LVL99:
 530:Generated_Source\PSoC5/LCD128x64_1.c **** 		case GLCD_MODE_SET:
 857              		.loc 1 530 0
 858 0014 012A     		cmp	r2, #1
 859 0016 03D0     		beq	.L74
 860 0018 4AB1     		cbz	r2, .L75
 861 001a 022A     		cmp	r2, #2
 862 001c 0FD0     		beq	.L76
 863 001e 14E0     		b	.L72
 864              	.L74:
 532:Generated_Source\PSoC5/LCD128x64_1.c **** 			break;
 865              		.loc 1 532 0
 866 0020 0C4A     		ldr	r2, .L80+4
 867              	.LVL100:
 868 0022 02EBC414 		add	r4, r2, r4, lsl #7
 869              	.LVL101:
 870 0026 225C     		ldrb	r2, [r4, r0]	@ zero_extendqisi2
 871 0028 1343     		orrs	r3, r3, r2
 872              	.LVL102:
 873 002a 2354     		strb	r3, [r4, r0]
ARM GAS  C:\Users\USUARIO\AppData\Local\Temp\ccVm8SVK.s 			page 33


 533:Generated_Source\PSoC5/LCD128x64_1.c **** 		case GLCD_MODE_CLEAR:
 874              		.loc 1 533 0
 875 002c 0DE0     		b	.L72
 876              	.LVL103:
 877              	.L75:
 535:Generated_Source\PSoC5/LCD128x64_1.c **** 			break;
 878              		.loc 1 535 0
 879 002e 094A     		ldr	r2, .L80+4
 880              	.LVL104:
 881 0030 02EBC414 		add	r4, r2, r4, lsl #7
 882              	.LVL105:
 883 0034 225C     		ldrb	r2, [r4, r0]	@ zero_extendqisi2
 884 0036 22EA0303 		bic	r3, r2, r3
 885              	.LVL106:
 886 003a 2354     		strb	r3, [r4, r0]
 536:Generated_Source\PSoC5/LCD128x64_1.c **** 		case GLCD_MODE_XOR:
 887              		.loc 1 536 0
 888 003c 05E0     		b	.L72
 889              	.LVL107:
 890              	.L76:
 538:Generated_Source\PSoC5/LCD128x64_1.c **** 			break;
 891              		.loc 1 538 0
 892 003e 054A     		ldr	r2, .L80+4
 893              	.LVL108:
 894 0040 02EBC414 		add	r4, r2, r4, lsl #7
 895              	.LVL109:
 896 0044 225C     		ldrb	r2, [r4, r0]	@ zero_extendqisi2
 897 0046 5340     		eors	r3, r3, r2
 898              	.LVL110:
 899 0048 2354     		strb	r3, [r4, r0]
 900              	.L72:
 542:Generated_Source\PSoC5/LCD128x64_1.c **** 
 901              		.loc 1 542 0
 902 004a 10BC     		pop	{r4}
 903              		.cfi_restore 4
 904              		.cfi_def_cfa_offset 0
 905              	.LVL111:
 906              	.L79:
 907 004c 7047     		bx	lr
 908              	.L81:
 909 004e 00BF     		.align	2
 910              	.L80:
 911 0050 00000000 		.word	.LANCHOR1
 912 0054 00000000 		.word	.LANCHOR0
 913              		.cfi_endproc
 914              	.LFE77:
 915              		.size	LCD128x64_1_Dot, .-LCD128x64_1_Dot
 916              		.section	.text.LCD128x64_1_Line,"ax",%progbits
 917              		.align	2
 918              		.global	LCD128x64_1_Line
 919              		.thumb
 920              		.thumb_func
 921              		.type	LCD128x64_1_Line, %function
 922              	LCD128x64_1_Line:
 923              	.LFB78:
 565:Generated_Source\PSoC5/LCD128x64_1.c **** 	uint8 length, xTmp, yTmp, i, y, yAlt;
 924              		.loc 1 565 0
ARM GAS  C:\Users\USUARIO\AppData\Local\Temp\ccVm8SVK.s 			page 34


 925              		.cfi_startproc
 926              		@ args = 4, pretend = 0, frame = 16
 927              		@ frame_needed = 0, uses_anonymous_args = 0
 928              	.LVL112:
 929 0000 2DE9F04F 		push	{r4, r5, r6, r7, r8, r9, r10, fp, lr}
 930              		.cfi_def_cfa_offset 36
 931              		.cfi_offset 4, -36
 932              		.cfi_offset 5, -32
 933              		.cfi_offset 6, -28
 934              		.cfi_offset 7, -24
 935              		.cfi_offset 8, -20
 936              		.cfi_offset 9, -16
 937              		.cfi_offset 10, -12
 938              		.cfi_offset 11, -8
 939              		.cfi_offset 14, -4
 940 0004 87B0     		sub	sp, sp, #28
 941              		.cfi_def_cfa_offset 64
 942 0006 0746     		mov	r7, r0
 943 0008 0E46     		mov	r6, r1
 944 000a 9946     		mov	r9, r3
 945 000c 9DF84030 		ldrb	r3, [sp, #64]	@ zero_extendqisi2
 946              	.LVL113:
 947 0010 0293     		str	r3, [sp, #8]
 569:Generated_Source\PSoC5/LCD128x64_1.c **** 		// x1|y1 must be the upper point
 948              		.loc 1 569 0
 949 0012 9042     		cmp	r0, r2
 950 0014 15D1     		bne	.L83
 571:Generated_Source\PSoC5/LCD128x64_1.c **** 			xTmp = x1;
 951              		.loc 1 571 0
 952 0016 4945     		cmp	r1, r9
 953 0018 01D9     		bls	.L84
 575:Generated_Source\PSoC5/LCD128x64_1.c **** 			x2 = xTmp;
 954              		.loc 1 575 0
 955 001a 4E46     		mov	r6, r9
 577:Generated_Source\PSoC5/LCD128x64_1.c **** 		}
 956              		.loc 1 577 0
 957 001c 8946     		mov	r9, r1
 958              	.L84:
 959              	.LVL114:
 580:Generated_Source\PSoC5/LCD128x64_1.c **** 		for(i=0; i<=length; i++) {
 960              		.loc 1 580 0
 961 001e C6EB0909 		rsb	r9, r6, r9
 962              	.LVL115:
 963 0022 5FFA89F9 		uxtb	r9, r9
 964              	.LVL116:
 581:Generated_Source\PSoC5/LCD128x64_1.c **** 			LCD128x64_1_Dot(x1, y1+i, mode);
 965              		.loc 1 581 0
 966 0026 0024     		movs	r4, #0
 967 0028 029D     		ldr	r5, [sp, #8]
 968 002a 07E0     		b	.L85
 969              	.LVL117:
 970              	.L86:
 582:Generated_Source\PSoC5/LCD128x64_1.c **** 		}
 971              		.loc 1 582 0 discriminator 3
 972 002c 3119     		adds	r1, r6, r4
 973 002e 2A46     		mov	r2, r5
 974 0030 C9B2     		uxtb	r1, r1
ARM GAS  C:\Users\USUARIO\AppData\Local\Temp\ccVm8SVK.s 			page 35


 975 0032 3846     		mov	r0, r7
 976 0034 FFF7FEFF 		bl	LCD128x64_1_Dot
 977              	.LVL118:
 581:Generated_Source\PSoC5/LCD128x64_1.c **** 			LCD128x64_1_Dot(x1, y1+i, mode);
 978              		.loc 1 581 0 discriminator 3
 979 0038 0134     		adds	r4, r4, #1
 980              	.LVL119:
 981 003a E4B2     		uxtb	r4, r4
 982              	.LVL120:
 983              	.L85:
 581:Generated_Source\PSoC5/LCD128x64_1.c **** 			LCD128x64_1_Dot(x1, y1+i, mode);
 984              		.loc 1 581 0 is_stmt 0 discriminator 1
 985 003c 4C45     		cmp	r4, r9
 986 003e F5D9     		bls	.L86
 987 0040 C1E0     		b	.L82
 988              	.LVL121:
 989              	.L83:
 990 0042 9046     		mov	r8, r2
 584:Generated_Source\PSoC5/LCD128x64_1.c **** 		// x1|y1 must be the left point
 991              		.loc 1 584 0 is_stmt 1
 992 0044 4945     		cmp	r1, r9
 993 0046 15D1     		bne	.L88
 586:Generated_Source\PSoC5/LCD128x64_1.c **** 			xTmp = x1;
 994              		.loc 1 586 0
 995 0048 9042     		cmp	r0, r2
 996 004a 01D9     		bls	.L89
 589:Generated_Source\PSoC5/LCD128x64_1.c **** 			y1 = y2;
 997              		.loc 1 589 0
 998 004c 1746     		mov	r7, r2
 591:Generated_Source\PSoC5/LCD128x64_1.c **** 			y2 = yTmp;
 999              		.loc 1 591 0
 1000 004e 8046     		mov	r8, r0
 1001              	.L89:
 1002              	.LVL122:
 595:Generated_Source\PSoC5/LCD128x64_1.c **** 		for(i=0; i<=length; i++) {
 1003              		.loc 1 595 0
 1004 0050 C7EB0808 		rsb	r8, r7, r8
 1005              	.LVL123:
 1006 0054 5FFA88F8 		uxtb	r8, r8
 1007              	.LVL124:
 596:Generated_Source\PSoC5/LCD128x64_1.c **** 			LCD128x64_1_Dot(x1+i, y1, mode);
 1008              		.loc 1 596 0
 1009 0058 0024     		movs	r4, #0
 1010 005a 029D     		ldr	r5, [sp, #8]
 1011 005c 07E0     		b	.L90
 1012              	.LVL125:
 1013              	.L91:
 597:Generated_Source\PSoC5/LCD128x64_1.c **** 		}
 1014              		.loc 1 597 0 discriminator 3
 1015 005e 3819     		adds	r0, r7, r4
 1016 0060 2A46     		mov	r2, r5
 1017 0062 3146     		mov	r1, r6
 1018 0064 C0B2     		uxtb	r0, r0
 1019 0066 FFF7FEFF 		bl	LCD128x64_1_Dot
 1020              	.LVL126:
 596:Generated_Source\PSoC5/LCD128x64_1.c **** 			LCD128x64_1_Dot(x1+i, y1, mode);
 1021              		.loc 1 596 0 discriminator 3
ARM GAS  C:\Users\USUARIO\AppData\Local\Temp\ccVm8SVK.s 			page 36


 1022 006a 0134     		adds	r4, r4, #1
 1023              	.LVL127:
 1024 006c E4B2     		uxtb	r4, r4
 1025              	.LVL128:
 1026              	.L90:
 596:Generated_Source\PSoC5/LCD128x64_1.c **** 			LCD128x64_1_Dot(x1+i, y1, mode);
 1027              		.loc 1 596 0 is_stmt 0 discriminator 1
 1028 006e 4445     		cmp	r4, r8
 1029 0070 F5D9     		bls	.L91
 1030 0072 A8E0     		b	.L82
 1031              	.LVL129:
 1032              	.L88:
 601:Generated_Source\PSoC5/LCD128x64_1.c **** 			xTmp = x1;
 1033              		.loc 1 601 0 is_stmt 1
 1034 0074 9042     		cmp	r0, r2
 1035 0076 03D9     		bls	.L92
 605:Generated_Source\PSoC5/LCD128x64_1.c **** 			x2 = xTmp;
 1036              		.loc 1 605 0
 1037 0078 4E46     		mov	r6, r9
 607:Generated_Source\PSoC5/LCD128x64_1.c **** 		}
 1038              		.loc 1 607 0
 1039 007a 8946     		mov	r9, r1
 604:Generated_Source\PSoC5/LCD128x64_1.c **** 			y1 = y2;
 1040              		.loc 1 604 0
 1041 007c 1746     		mov	r7, r2
 606:Generated_Source\PSoC5/LCD128x64_1.c **** 			y2 = yTmp;
 1042              		.loc 1 606 0
 1043 007e 8046     		mov	r8, r0
 1044              	.L92:
 1045              	.LVL130:
 610:Generated_Source\PSoC5/LCD128x64_1.c **** 			length = x2-x1;								// not really the length :)
 1046              		.loc 1 610 0
 1047 0080 CDF81090 		str	r9, [sp, #16]
 1048 0084 0596     		str	r6, [sp, #20]
 1049 0086 C6EB090B 		rsb	fp, r6, r9
 1050 008a C7EB0803 		rsb	r3, r7, r8
 1051 008e 9B45     		cmp	fp, r3
 1052 0090 03DA     		bge	.L93
 610:Generated_Source\PSoC5/LCD128x64_1.c **** 			length = x2-x1;								// not really the length :)
 1053              		.loc 1 610 0 is_stmt 0 discriminator 1
 1054 0092 C9EB0602 		rsb	r2, r9, r6
 1055 0096 9342     		cmp	r3, r2
 1056 0098 44DC     		bgt	.L94
 1057              	.L93:
 611:Generated_Source\PSoC5/LCD128x64_1.c **** 			m = ((y2-y1)*200)/length;
 1058              		.loc 1 611 0 is_stmt 1
 1059 009a C7EB0808 		rsb	r8, r7, r8
 1060              	.LVL131:
 1061 009e 5FFA88F8 		uxtb	r8, r8
 1062              	.LVL132:
 612:Generated_Source\PSoC5/LCD128x64_1.c **** 			yAlt = y1;
 1063              		.loc 1 612 0
 1064 00a2 C823     		movs	r3, #200
 1065 00a4 03FB0BF3 		mul	r3, r3, fp
 1066 00a8 C246     		mov	r10, r8
 1067 00aa 93FBF8F3 		sdiv	r3, r3, r8
 1068 00ae 1BB2     		sxth	r3, r3
ARM GAS  C:\Users\USUARIO\AppData\Local\Temp\ccVm8SVK.s 			page 37


 1069 00b0 0393     		str	r3, [sp, #12]
 1070              	.LVL133:
 613:Generated_Source\PSoC5/LCD128x64_1.c **** 			for(i=0; i<=length; i++) {
 1071              		.loc 1 613 0
 1072 00b2 3146     		mov	r1, r6
 614:Generated_Source\PSoC5/LCD128x64_1.c **** 				y = ((m*i)/200)+y1;
 1073              		.loc 1 614 0
 1074 00b4 0025     		movs	r5, #0
 1075 00b6 32E0     		b	.L95
 1076              	.LVL134:
 1077              	.L100:
 615:Generated_Source\PSoC5/LCD128x64_1.c **** 				
 1078              		.loc 1 615 0
 1079 00b8 039B     		ldr	r3, [sp, #12]
 1080 00ba 05FB03F0 		mul	r0, r5, r3
 1081 00be 434B     		ldr	r3, .L113
 1082 00c0 83FB0032 		smull	r3, r2, r3, r0
 1083 00c4 C317     		asrs	r3, r0, #31
 1084 00c6 C3EBA213 		rsb	r3, r3, r2, asr #6
 1085 00ca F418     		adds	r4, r6, r3
 1086 00cc E4B2     		uxtb	r4, r4
 1087              	.LVL135:
 617:Generated_Source\PSoC5/LCD128x64_1.c **** 					y++;
 1088              		.loc 1 617 0
 1089 00ce C822     		movs	r2, #200
 1090 00d0 02FB1302 		mls	r2, r2, r3, r0
 1091 00d4 632A     		cmp	r2, #99
 1092 00d6 02DD     		ble	.L96
 618:Generated_Source\PSoC5/LCD128x64_1.c **** 				else if((m*i)%200 <= -100)
 1093              		.loc 1 618 0
 1094 00d8 0134     		adds	r4, r4, #1
 1095              	.LVL136:
 1096 00da E4B2     		uxtb	r4, r4
 1097              	.LVL137:
 1098 00dc 04E0     		b	.L97
 1099              	.L96:
 619:Generated_Source\PSoC5/LCD128x64_1.c **** 					y--;
 1100              		.loc 1 619 0
 1101 00de 12F1630F 		cmn	r2, #99
 1102 00e2 01DA     		bge	.L97
 620:Generated_Source\PSoC5/LCD128x64_1.c **** 				
 1103              		.loc 1 620 0
 1104 00e4 013C     		subs	r4, r4, #1
 1105              	.LVL138:
 1106 00e6 E4B2     		uxtb	r4, r4
 1107              	.LVL139:
 1108              	.L97:
 622:Generated_Source\PSoC5/LCD128x64_1.c **** 				if(length<=(y2-y1) && y1 < y2)
 1109              		.loc 1 622 0
 1110 00e8 7819     		adds	r0, r7, r5
 1111 00ea C0B2     		uxtb	r0, r0
 1112 00ec 029B     		ldr	r3, [sp, #8]
 1113 00ee 0093     		str	r3, [sp]
 1114 00f0 2346     		mov	r3, r4
 1115 00f2 0246     		mov	r2, r0
 1116 00f4 FFF7FEFF 		bl	LCD128x64_1_Line
 1117              	.LVL140:
ARM GAS  C:\Users\USUARIO\AppData\Local\Temp\ccVm8SVK.s 			page 38


 623:Generated_Source\PSoC5/LCD128x64_1.c **** 					yAlt = y+1;
 1118              		.loc 1 623 0
 1119 00f8 D345     		cmp	fp, r10
 1120 00fa 04DB     		blt	.L98
 623:Generated_Source\PSoC5/LCD128x64_1.c **** 					yAlt = y+1;
 1121              		.loc 1 623 0 is_stmt 0 discriminator 1
 1122 00fc 4E45     		cmp	r6, r9
 1123 00fe 02D2     		bcs	.L98
 624:Generated_Source\PSoC5/LCD128x64_1.c **** 				else if(length<=(y1-y2) && y1 > y2)
 1124              		.loc 1 624 0 is_stmt 1
 1125 0100 0134     		adds	r4, r4, #1
 1126              	.LVL141:
 1127 0102 E4B2     		uxtb	r4, r4
 1128              	.LVL142:
 1129 0104 08E0     		b	.L99
 1130              	.LVL143:
 1131              	.L98:
 625:Generated_Source\PSoC5/LCD128x64_1.c **** 					yAlt = y-1;
 1132              		.loc 1 625 0
 1133 0106 059B     		ldr	r3, [sp, #20]
 1134 0108 049A     		ldr	r2, [sp, #16]
 1135 010a 9B1A     		subs	r3, r3, r2
 1136 010c 9A45     		cmp	r10, r3
 1137 010e 03DC     		bgt	.L99
 625:Generated_Source\PSoC5/LCD128x64_1.c **** 					yAlt = y-1;
 1138              		.loc 1 625 0 is_stmt 0 discriminator 1
 1139 0110 4E45     		cmp	r6, r9
 1140 0112 01D9     		bls	.L99
 626:Generated_Source\PSoC5/LCD128x64_1.c **** 				else
 1141              		.loc 1 626 0 is_stmt 1
 1142 0114 013C     		subs	r4, r4, #1
 1143              	.LVL144:
 1144 0116 E4B2     		uxtb	r4, r4
 1145              	.LVL145:
 1146              	.L99:
 614:Generated_Source\PSoC5/LCD128x64_1.c **** 				y = ((m*i)/200)+y1;
 1147              		.loc 1 614 0 discriminator 2
 1148 0118 0135     		adds	r5, r5, #1
 1149              	.LVL146:
 1150 011a EDB2     		uxtb	r5, r5
 1151              	.LVL147:
 1152 011c 2146     		mov	r1, r4
 1153              	.LVL148:
 1154              	.L95:
 614:Generated_Source\PSoC5/LCD128x64_1.c **** 				y = ((m*i)/200)+y1;
 1155              		.loc 1 614 0 is_stmt 0 discriminator 1
 1156 011e 4545     		cmp	r5, r8
 1157 0120 CAD9     		bls	.L100
 1158 0122 50E0     		b	.L82
 1159              	.LVL149:
 1160              	.L94:
 632:Generated_Source\PSoC5/LCD128x64_1.c **** 				xTmp = x1;
 1161              		.loc 1 632 0 is_stmt 1
 1162 0124 4E45     		cmp	r6, r9
 1163 0126 05D9     		bls	.L101
 1164 0128 3346     		mov	r3, r6
 636:Generated_Source\PSoC5/LCD128x64_1.c **** 				x2 = xTmp;
ARM GAS  C:\Users\USUARIO\AppData\Local\Temp\ccVm8SVK.s 			page 39


 1165              		.loc 1 636 0
 1166 012a 4E46     		mov	r6, r9
 1167              	.LVL150:
 638:Generated_Source\PSoC5/LCD128x64_1.c **** 			}
 1168              		.loc 1 638 0
 1169 012c 9946     		mov	r9, r3
 1170              	.LVL151:
 1171 012e 3B46     		mov	r3, r7
 635:Generated_Source\PSoC5/LCD128x64_1.c **** 				y1 = y2;
 1172              		.loc 1 635 0
 1173 0130 4746     		mov	r7, r8
 1174              	.LVL152:
 637:Generated_Source\PSoC5/LCD128x64_1.c **** 				y2 = yTmp;
 1175              		.loc 1 637 0
 1176 0132 9846     		mov	r8, r3
 1177              	.LVL153:
 1178              	.L101:
 640:Generated_Source\PSoC5/LCD128x64_1.c **** 			m = ((x2-x1)*200)/length;
 1179              		.loc 1 640 0
 1180 0134 C6EB0909 		rsb	r9, r6, r9
 1181              	.LVL154:
 1182 0138 5FFA89F9 		uxtb	r9, r9
 1183              	.LVL155:
 641:Generated_Source\PSoC5/LCD128x64_1.c **** 			yAlt = x1;
 1184              		.loc 1 641 0
 1185 013c CDF81080 		str	r8, [sp, #16]
 1186 0140 0597     		str	r7, [sp, #20]
 1187 0142 C7EB080B 		rsb	fp, r7, r8
 1188 0146 C823     		movs	r3, #200
 1189 0148 03FB0BF3 		mul	r3, r3, fp
 1190 014c CA46     		mov	r10, r9
 1191 014e 93FBF9F3 		sdiv	r3, r3, r9
 1192 0152 1BB2     		sxth	r3, r3
 1193 0154 0393     		str	r3, [sp, #12]
 1194              	.LVL156:
 642:Generated_Source\PSoC5/LCD128x64_1.c **** 			for(i=0; i<=length; i++) {
 1195              		.loc 1 642 0
 1196 0156 3846     		mov	r0, r7
 643:Generated_Source\PSoC5/LCD128x64_1.c **** 				y = ((m*i)/200)+x1;
 1197              		.loc 1 643 0
 1198 0158 0025     		movs	r5, #0
 1199 015a 32E0     		b	.L102
 1200              	.LVL157:
 1201              	.L107:
 644:Generated_Source\PSoC5/LCD128x64_1.c **** 				
 1202              		.loc 1 644 0
 1203 015c 039B     		ldr	r3, [sp, #12]
 1204 015e 05FB03F1 		mul	r1, r5, r3
 1205 0162 1A4B     		ldr	r3, .L113
 1206 0164 83FB0132 		smull	r3, r2, r3, r1
 1207 0168 CB17     		asrs	r3, r1, #31
 1208 016a C3EBA213 		rsb	r3, r3, r2, asr #6
 1209 016e FC18     		adds	r4, r7, r3
 1210 0170 E4B2     		uxtb	r4, r4
 1211              	.LVL158:
 646:Generated_Source\PSoC5/LCD128x64_1.c **** 					y++;
 1212              		.loc 1 646 0
ARM GAS  C:\Users\USUARIO\AppData\Local\Temp\ccVm8SVK.s 			page 40


 1213 0172 C822     		movs	r2, #200
 1214 0174 02FB1312 		mls	r2, r2, r3, r1
 1215 0178 632A     		cmp	r2, #99
 1216 017a 02DD     		ble	.L103
 647:Generated_Source\PSoC5/LCD128x64_1.c **** 				else if((m*i)%200 <= -100)
 1217              		.loc 1 647 0
 1218 017c 0134     		adds	r4, r4, #1
 1219              	.LVL159:
 1220 017e E4B2     		uxtb	r4, r4
 1221              	.LVL160:
 1222 0180 04E0     		b	.L104
 1223              	.L103:
 648:Generated_Source\PSoC5/LCD128x64_1.c **** 					y--;
 1224              		.loc 1 648 0
 1225 0182 12F1630F 		cmn	r2, #99
 1226 0186 01DA     		bge	.L104
 649:Generated_Source\PSoC5/LCD128x64_1.c **** 				
 1227              		.loc 1 649 0
 1228 0188 013C     		subs	r4, r4, #1
 1229              	.LVL161:
 1230 018a E4B2     		uxtb	r4, r4
 1231              	.LVL162:
 1232              	.L104:
 651:Generated_Source\PSoC5/LCD128x64_1.c **** 				if(length<=(x2-x1) && x1 < x2)
 1233              		.loc 1 651 0
 1234 018c 7119     		adds	r1, r6, r5
 1235 018e C9B2     		uxtb	r1, r1
 1236 0190 029B     		ldr	r3, [sp, #8]
 1237 0192 0093     		str	r3, [sp]
 1238 0194 0B46     		mov	r3, r1
 1239 0196 2246     		mov	r2, r4
 1240 0198 FFF7FEFF 		bl	LCD128x64_1_Line
 1241              	.LVL163:
 652:Generated_Source\PSoC5/LCD128x64_1.c **** 					yAlt = y+1;
 1242              		.loc 1 652 0
 1243 019c D345     		cmp	fp, r10
 1244 019e 04DB     		blt	.L105
 652:Generated_Source\PSoC5/LCD128x64_1.c **** 					yAlt = y+1;
 1245              		.loc 1 652 0 is_stmt 0 discriminator 1
 1246 01a0 4745     		cmp	r7, r8
 1247 01a2 02D2     		bcs	.L105
 653:Generated_Source\PSoC5/LCD128x64_1.c **** 				else if(length<=(x1-x2) && x1 > x2)
 1248              		.loc 1 653 0 is_stmt 1
 1249 01a4 0134     		adds	r4, r4, #1
 1250              	.LVL164:
 1251 01a6 E4B2     		uxtb	r4, r4
 1252              	.LVL165:
 1253 01a8 08E0     		b	.L106
 1254              	.LVL166:
 1255              	.L105:
 654:Generated_Source\PSoC5/LCD128x64_1.c **** 					yAlt = y-1;
 1256              		.loc 1 654 0
 1257 01aa 059B     		ldr	r3, [sp, #20]
 1258 01ac 049A     		ldr	r2, [sp, #16]
 1259 01ae 9B1A     		subs	r3, r3, r2
 1260 01b0 9A45     		cmp	r10, r3
 1261 01b2 03DC     		bgt	.L106
ARM GAS  C:\Users\USUARIO\AppData\Local\Temp\ccVm8SVK.s 			page 41


 654:Generated_Source\PSoC5/LCD128x64_1.c **** 					yAlt = y-1;
 1262              		.loc 1 654 0 is_stmt 0 discriminator 1
 1263 01b4 4745     		cmp	r7, r8
 1264 01b6 01D9     		bls	.L106
 655:Generated_Source\PSoC5/LCD128x64_1.c **** 				else
 1265              		.loc 1 655 0 is_stmt 1
 1266 01b8 013C     		subs	r4, r4, #1
 1267              	.LVL167:
 1268 01ba E4B2     		uxtb	r4, r4
 1269              	.LVL168:
 1270              	.L106:
 643:Generated_Source\PSoC5/LCD128x64_1.c **** 				y = ((m*i)/200)+x1;
 1271              		.loc 1 643 0 discriminator 2
 1272 01bc 0135     		adds	r5, r5, #1
 1273              	.LVL169:
 1274 01be EDB2     		uxtb	r5, r5
 1275              	.LVL170:
 1276 01c0 2046     		mov	r0, r4
 1277              	.LVL171:
 1278              	.L102:
 643:Generated_Source\PSoC5/LCD128x64_1.c **** 				y = ((m*i)/200)+x1;
 1279              		.loc 1 643 0 is_stmt 0 discriminator 1
 1280 01c2 4D45     		cmp	r5, r9
 1281 01c4 CAD9     		bls	.L107
 1282              	.LVL172:
 1283              	.L82:
 661:Generated_Source\PSoC5/LCD128x64_1.c **** 
 1284              		.loc 1 661 0 is_stmt 1
 1285 01c6 07B0     		add	sp, sp, #28
 1286              		.cfi_def_cfa_offset 36
 1287              		@ sp needed
 1288 01c8 BDE8F08F 		pop	{r4, r5, r6, r7, r8, r9, r10, fp, pc}
 1289              	.LVL173:
 1290              	.L114:
 1291              		.align	2
 1292              	.L113:
 1293 01cc 1F85EB51 		.word	1374389535
 1294              		.cfi_endproc
 1295              	.LFE78:
 1296              		.size	LCD128x64_1_Line, .-LCD128x64_1_Line
 1297              		.section	.text.LCD128x64_1_Rect,"ax",%progbits
 1298              		.align	2
 1299              		.global	LCD128x64_1_Rect
 1300              		.thumb
 1301              		.thumb_func
 1302              		.type	LCD128x64_1_Rect, %function
 1303              	LCD128x64_1_Rect:
 1304              	.LFB79:
 683:Generated_Source\PSoC5/LCD128x64_1.c **** 	width--;
 1305              		.loc 1 683 0
 1306              		.cfi_startproc
 1307              		@ args = 4, pretend = 0, frame = 0
 1308              		@ frame_needed = 0, uses_anonymous_args = 0
 1309              	.LVL174:
 1310 0000 2DE9F041 		push	{r4, r5, r6, r7, r8, lr}
 1311              		.cfi_def_cfa_offset 24
 1312              		.cfi_offset 4, -24
ARM GAS  C:\Users\USUARIO\AppData\Local\Temp\ccVm8SVK.s 			page 42


 1313              		.cfi_offset 5, -20
 1314              		.cfi_offset 6, -16
 1315              		.cfi_offset 7, -12
 1316              		.cfi_offset 8, -8
 1317              		.cfi_offset 14, -4
 1318 0004 82B0     		sub	sp, sp, #8
 1319              		.cfi_def_cfa_offset 32
 1320 0006 8046     		mov	r8, r0
 1321 0008 0E46     		mov	r6, r1
 1322 000a 9DF82070 		ldrb	r7, [sp, #32]	@ zero_extendqisi2
 684:Generated_Source\PSoC5/LCD128x64_1.c **** 	height--;
 1323              		.loc 1 684 0
 1324 000e 013A     		subs	r2, r2, #1
 1325              	.LVL175:
 1326 0010 D2B2     		uxtb	r2, r2
 1327              	.LVL176:
 685:Generated_Source\PSoC5/LCD128x64_1.c **** 	LCD128x64_1_Line(x, y, x+width, y, mode);		// top
 1328              		.loc 1 685 0
 1329 0012 013B     		subs	r3, r3, #1
 1330              	.LVL177:
 1331 0014 DDB2     		uxtb	r5, r3
 1332              	.LVL178:
 686:Generated_Source\PSoC5/LCD128x64_1.c **** 	LCD128x64_1_Line(x, y, x, y+height, mode);	// left
 1333              		.loc 1 686 0
 1334 0016 0244     		add	r2, r2, r0
 1335              	.LVL179:
 1336 0018 D4B2     		uxtb	r4, r2
 1337 001a 0097     		str	r7, [sp]
 1338 001c 0B46     		mov	r3, r1
 1339 001e 2246     		mov	r2, r4
 1340 0020 FFF7FEFF 		bl	LCD128x64_1_Line
 1341              	.LVL180:
 687:Generated_Source\PSoC5/LCD128x64_1.c **** 	LCD128x64_1_Line(x, y+height, x+width, y+height, mode);	// bottom
 1342              		.loc 1 687 0
 1343 0024 3544     		add	r5, r5, r6
 1344              	.LVL181:
 1345 0026 EDB2     		uxtb	r5, r5
 1346 0028 0097     		str	r7, [sp]
 1347 002a 2B46     		mov	r3, r5
 1348 002c 4246     		mov	r2, r8
 1349 002e 3146     		mov	r1, r6
 1350 0030 4046     		mov	r0, r8
 1351 0032 FFF7FEFF 		bl	LCD128x64_1_Line
 1352              	.LVL182:
 688:Generated_Source\PSoC5/LCD128x64_1.c **** 	LCD128x64_1_Line(x+width, y, x+width, y+height, mode);	// right
 1353              		.loc 1 688 0
 1354 0036 0097     		str	r7, [sp]
 1355 0038 2B46     		mov	r3, r5
 1356 003a 2246     		mov	r2, r4
 1357 003c 2946     		mov	r1, r5
 1358 003e 4046     		mov	r0, r8
 1359 0040 FFF7FEFF 		bl	LCD128x64_1_Line
 1360              	.LVL183:
 689:Generated_Source\PSoC5/LCD128x64_1.c **** }
 1361              		.loc 1 689 0
 1362 0044 0097     		str	r7, [sp]
 1363 0046 2B46     		mov	r3, r5
ARM GAS  C:\Users\USUARIO\AppData\Local\Temp\ccVm8SVK.s 			page 43


 1364 0048 2246     		mov	r2, r4
 1365 004a 3146     		mov	r1, r6
 1366 004c 2046     		mov	r0, r4
 1367 004e FFF7FEFF 		bl	LCD128x64_1_Line
 1368              	.LVL184:
 690:Generated_Source\PSoC5/LCD128x64_1.c **** 
 1369              		.loc 1 690 0
 1370 0052 02B0     		add	sp, sp, #8
 1371              		.cfi_def_cfa_offset 24
 1372              		@ sp needed
 1373 0054 BDE8F081 		pop	{r4, r5, r6, r7, r8, pc}
 1374              		.cfi_endproc
 1375              	.LFE79:
 1376              		.size	LCD128x64_1_Rect, .-LCD128x64_1_Rect
 1377              		.section	.text.LCD128x64_1_Box,"ax",%progbits
 1378              		.align	2
 1379              		.global	LCD128x64_1_Box
 1380              		.thumb
 1381              		.thumb_func
 1382              		.type	LCD128x64_1_Box, %function
 1383              	LCD128x64_1_Box:
 1384              	.LFB80:
 712:Generated_Source\PSoC5/LCD128x64_1.c **** 	uint8 i;
 1385              		.loc 1 712 0
 1386              		.cfi_startproc
 1387              		@ args = 4, pretend = 0, frame = 0
 1388              		@ frame_needed = 0, uses_anonymous_args = 0
 1389              	.LVL185:
 1390 0000 2DE9F043 		push	{r4, r5, r6, r7, r8, r9, lr}
 1391              		.cfi_def_cfa_offset 28
 1392              		.cfi_offset 4, -28
 1393              		.cfi_offset 5, -24
 1394              		.cfi_offset 6, -20
 1395              		.cfi_offset 7, -16
 1396              		.cfi_offset 8, -12
 1397              		.cfi_offset 9, -8
 1398              		.cfi_offset 14, -4
 1399 0004 83B0     		sub	sp, sp, #12
 1400              		.cfi_def_cfa_offset 40
 1401 0006 9DF82890 		ldrb	r9, [sp, #40]	@ zero_extendqisi2
 715:Generated_Source\PSoC5/LCD128x64_1.c **** 	
 1402              		.loc 1 715 0
 1403 000a AAB1     		cbz	r2, .L117
 1404 000c 9846     		mov	r8, r3
 1405 000e 0F46     		mov	r7, r1
 1406 0010 0546     		mov	r5, r0
 717:Generated_Source\PSoC5/LCD128x64_1.c **** 	
 1407              		.loc 1 717 0
 1408 0012 561E     		subs	r6, r2, #1
 1409 0014 F6B2     		uxtb	r6, r6
 1410              	.LVL186:
 719:Generated_Source\PSoC5/LCD128x64_1.c **** 		LCD128x64_1_Line(x, i, x+width, i, mode);
 1411              		.loc 1 719 0
 1412 0016 0C46     		mov	r4, r1
 1413 0018 0AE0     		b	.L119
 1414              	.LVL187:
 1415              	.L120:
ARM GAS  C:\Users\USUARIO\AppData\Local\Temp\ccVm8SVK.s 			page 44


 720:Generated_Source\PSoC5/LCD128x64_1.c **** }
 1416              		.loc 1 720 0 discriminator 3
 1417 001a 7219     		adds	r2, r6, r5
 1418 001c CDF80090 		str	r9, [sp]
 1419 0020 2346     		mov	r3, r4
 1420 0022 D2B2     		uxtb	r2, r2
 1421 0024 2146     		mov	r1, r4
 1422 0026 2846     		mov	r0, r5
 1423 0028 FFF7FEFF 		bl	LCD128x64_1_Line
 1424              	.LVL188:
 719:Generated_Source\PSoC5/LCD128x64_1.c **** 		LCD128x64_1_Line(x, i, x+width, i, mode);
 1425              		.loc 1 719 0 discriminator 3
 1426 002c 0134     		adds	r4, r4, #1
 1427              	.LVL189:
 1428 002e E4B2     		uxtb	r4, r4
 1429              	.LVL190:
 1430              	.L119:
 719:Generated_Source\PSoC5/LCD128x64_1.c **** 		LCD128x64_1_Line(x, i, x+width, i, mode);
 1431              		.loc 1 719 0 is_stmt 0 discriminator 1
 1432 0030 07EB0803 		add	r3, r7, r8
 1433 0034 9C42     		cmp	r4, r3
 1434 0036 F0DB     		blt	.L120
 1435              	.LVL191:
 1436              	.L117:
 721:Generated_Source\PSoC5/LCD128x64_1.c **** 
 1437              		.loc 1 721 0 is_stmt 1
 1438 0038 03B0     		add	sp, sp, #12
 1439              		.cfi_def_cfa_offset 28
 1440              		@ sp needed
 1441 003a BDE8F083 		pop	{r4, r5, r6, r7, r8, r9, pc}
 1442              		.cfi_endproc
 1443              	.LFE80:
 1444              		.size	LCD128x64_1_Box, .-LCD128x64_1_Box
 1445 003e 00BF     		.section	.text.LCD128x64_1_Circle,"ax",%progbits
 1446              		.align	2
 1447              		.global	LCD128x64_1_Circle
 1448              		.thumb
 1449              		.thumb_func
 1450              		.type	LCD128x64_1_Circle, %function
 1451              	LCD128x64_1_Circle:
 1452              	.LFB81:
 735:Generated_Source\PSoC5/LCD128x64_1.c ****   	int16 tSwitch, y, x = 0;
 1453              		.loc 1 735 0
 1454              		.cfi_startproc
 1455              		@ args = 0, pretend = 0, frame = 16
 1456              		@ frame_needed = 0, uses_anonymous_args = 0
 1457              	.LVL192:
 1458 0000 2DE9F04F 		push	{r4, r5, r6, r7, r8, r9, r10, fp, lr}
 1459              		.cfi_def_cfa_offset 36
 1460              		.cfi_offset 4, -36
 1461              		.cfi_offset 5, -32
 1462              		.cfi_offset 6, -28
 1463              		.cfi_offset 7, -24
 1464              		.cfi_offset 8, -20
 1465              		.cfi_offset 9, -16
 1466              		.cfi_offset 10, -12
 1467              		.cfi_offset 11, -8
ARM GAS  C:\Users\USUARIO\AppData\Local\Temp\ccVm8SVK.s 			page 45


 1468              		.cfi_offset 14, -4
 1469 0004 85B0     		sub	sp, sp, #20
 1470              		.cfi_def_cfa_offset 56
 1471 0006 0390     		str	r0, [sp, #12]
 1472 0008 8B46     		mov	fp, r1
 1473 000a 0193     		str	r3, [sp, #4]
 1474              	.LVL193:
 739:Generated_Source\PSoC5/LCD128x64_1.c ****   	y = radius;
 1475              		.loc 1 739 0
 1476 000c 0B1A     		subs	r3, r1, r0
 1477              	.LVL194:
 1478 000e DBB2     		uxtb	r3, r3
 1479 0010 0293     		str	r3, [sp, #8]
 1480              	.LVL195:
 740:Generated_Source\PSoC5/LCD128x64_1.c ****   	tSwitch = 3 - 2 * radius;
 1481              		.loc 1 740 0
 1482 0012 0FFA82F9 		sxth	r9, r2
 1483              	.LVL196:
 741:Generated_Source\PSoC5/LCD128x64_1.c ****   	
 1484              		.loc 1 741 0
 1485 0016 5200     		lsls	r2, r2, #1
 1486              	.LVL197:
 1487 0018 C2F10307 		rsb	r7, r2, #3
 1488              	.LVL198:
 736:Generated_Source\PSoC5/LCD128x64_1.c ****   	uint8 d;
 1489              		.loc 1 736 0
 1490 001c 4FF00008 		mov	r8, #0
 743:Generated_Source\PSoC5/LCD128x64_1.c ****     	LCD128x64_1_Dot(xCenter + x, yCenter + y, mode);
 1491              		.loc 1 743 0
 1492 0020 5EE0     		b	.L123
 1493              	.LVL199:
 1494              	.L126:
 744:Generated_Source\PSoC5/LCD128x64_1.c ****     	LCD128x64_1_Dot(xCenter + x, yCenter - y, mode);
 1495              		.loc 1 744 0
 1496 0022 5FFA88F6 		uxtb	r6, r8
 1497 0026 039B     		ldr	r3, [sp, #12]
 1498 0028 03EB060A 		add	r10, r3, r6
 1499 002c 5FFA8AFA 		uxtb	r10, r10
 1500 0030 5FFA89F4 		uxtb	r4, r9
 1501 0034 0BEB0405 		add	r5, fp, r4
 1502 0038 EDB2     		uxtb	r5, r5
 1503 003a 019A     		ldr	r2, [sp, #4]
 1504 003c 2946     		mov	r1, r5
 1505 003e 5046     		mov	r0, r10
 1506 0040 FFF7FEFF 		bl	LCD128x64_1_Dot
 1507              	.LVL200:
 745:Generated_Source\PSoC5/LCD128x64_1.c ****     	
 1508              		.loc 1 745 0
 1509 0044 C4EB0B04 		rsb	r4, r4, fp
 1510 0048 E4B2     		uxtb	r4, r4
 1511 004a 019A     		ldr	r2, [sp, #4]
 1512 004c 2146     		mov	r1, r4
 1513 004e 5046     		mov	r0, r10
 1514 0050 FFF7FEFF 		bl	LCD128x64_1_Dot
 1515              	.LVL201:
 747:Generated_Source\PSoC5/LCD128x64_1.c ****     	LCD128x64_1_Dot(xCenter - x, yCenter - y, mode);
 1516              		.loc 1 747 0
ARM GAS  C:\Users\USUARIO\AppData\Local\Temp\ccVm8SVK.s 			page 46


 1517 0054 039B     		ldr	r3, [sp, #12]
 1518 0056 C6EB030A 		rsb	r10, r6, r3
 1519 005a 5FFA8AFA 		uxtb	r10, r10
 1520 005e 019A     		ldr	r2, [sp, #4]
 1521 0060 2946     		mov	r1, r5
 1522 0062 5046     		mov	r0, r10
 1523 0064 FFF7FEFF 		bl	LCD128x64_1_Dot
 1524              	.LVL202:
 748:Generated_Source\PSoC5/LCD128x64_1.c ****     	
 1525              		.loc 1 748 0
 1526 0068 019A     		ldr	r2, [sp, #4]
 1527 006a 2146     		mov	r1, r4
 1528 006c 5046     		mov	r0, r10
 1529 006e FFF7FEFF 		bl	LCD128x64_1_Dot
 1530              	.LVL203:
 750:Generated_Source\PSoC5/LCD128x64_1.c ****     	LCD128x64_1_Dot(yCenter + y - d, yCenter - x, mode);
 1531              		.loc 1 750 0
 1532 0072 029B     		ldr	r3, [sp, #8]
 1533 0074 ED1A     		subs	r5, r5, r3
 1534 0076 EDB2     		uxtb	r5, r5
 1535 0078 0BEB060A 		add	r10, fp, r6
 1536 007c 5FFA8AFA 		uxtb	r10, r10
 1537 0080 019A     		ldr	r2, [sp, #4]
 1538 0082 5146     		mov	r1, r10
 1539 0084 2846     		mov	r0, r5
 1540 0086 FFF7FEFF 		bl	LCD128x64_1_Dot
 1541              	.LVL204:
 751:Generated_Source\PSoC5/LCD128x64_1.c ****     	
 1542              		.loc 1 751 0
 1543 008a C6EB0B06 		rsb	r6, r6, fp
 1544 008e F6B2     		uxtb	r6, r6
 1545 0090 019A     		ldr	r2, [sp, #4]
 1546 0092 3146     		mov	r1, r6
 1547 0094 2846     		mov	r0, r5
 1548 0096 FFF7FEFF 		bl	LCD128x64_1_Dot
 1549              	.LVL205:
 753:Generated_Source\PSoC5/LCD128x64_1.c ****     	LCD128x64_1_Dot(yCenter - y - d, yCenter - x, mode);
 1550              		.loc 1 753 0
 1551 009a 029B     		ldr	r3, [sp, #8]
 1552 009c E41A     		subs	r4, r4, r3
 1553 009e E4B2     		uxtb	r4, r4
 1554 00a0 019D     		ldr	r5, [sp, #4]
 1555 00a2 2A46     		mov	r2, r5
 1556 00a4 5146     		mov	r1, r10
 1557 00a6 2046     		mov	r0, r4
 1558 00a8 FFF7FEFF 		bl	LCD128x64_1_Dot
 1559              	.LVL206:
 754:Generated_Source\PSoC5/LCD128x64_1.c **** 
 1560              		.loc 1 754 0
 1561 00ac 2A46     		mov	r2, r5
 1562 00ae 3146     		mov	r1, r6
 1563 00b0 2046     		mov	r0, r4
 1564 00b2 FFF7FEFF 		bl	LCD128x64_1_Dot
 1565              	.LVL207:
 756:Generated_Source\PSoC5/LCD128x64_1.c ****     		tSwitch += (4 * x + 6);
 1566              		.loc 1 756 0
 1567 00b6 002F     		cmp	r7, #0
ARM GAS  C:\Users\USUARIO\AppData\Local\Temp\ccVm8SVK.s 			page 47


 1568 00b8 04DA     		bge	.L124
 757:Generated_Source\PSoC5/LCD128x64_1.c ****     	} else {
 1569              		.loc 1 757 0
 1570 00ba 07EB8807 		add	r7, r7, r8, lsl #2
 1571              	.LVL208:
 1572 00be 0637     		adds	r7, r7, #6
 1573 00c0 3FB2     		sxth	r7, r7
 1574              	.LVL209:
 1575 00c2 09E0     		b	.L125
 1576              	.L124:
 759:Generated_Source\PSoC5/LCD128x64_1.c ****       		y--;
 1577              		.loc 1 759 0
 1578 00c4 C9EB0803 		rsb	r3, r9, r8
 1579 00c8 07EB8307 		add	r7, r7, r3, lsl #2
 1580              	.LVL210:
 1581 00cc 0A37     		adds	r7, r7, #10
 1582 00ce 3FB2     		sxth	r7, r7
 1583              	.LVL211:
 760:Generated_Source\PSoC5/LCD128x64_1.c ****     	}
 1584              		.loc 1 760 0
 1585 00d0 09F1FF39 		add	r9, r9, #-1
 1586              	.LVL212:
 1587 00d4 0FFA89F9 		sxth	r9, r9
 1588              	.LVL213:
 1589              	.L125:
 762:Generated_Source\PSoC5/LCD128x64_1.c ****   	}
 1590              		.loc 1 762 0
 1591 00d8 08F10108 		add	r8, r8, #1
 1592              	.LVL214:
 1593 00dc 0FFA88F8 		sxth	r8, r8
 1594              	.LVL215:
 1595              	.L123:
 743:Generated_Source\PSoC5/LCD128x64_1.c ****     	LCD128x64_1_Dot(xCenter + x, yCenter + y, mode);
 1596              		.loc 1 743 0
 1597 00e0 C145     		cmp	r9, r8
 1598 00e2 9EDA     		bge	.L126
 764:Generated_Source\PSoC5/LCD128x64_1.c **** 
 1599              		.loc 1 764 0
 1600 00e4 05B0     		add	sp, sp, #20
 1601              		.cfi_def_cfa_offset 36
 1602              		@ sp needed
 1603 00e6 BDE8F08F 		pop	{r4, r5, r6, r7, r8, r9, r10, fp, pc}
 1604              		.cfi_endproc
 1605              	.LFE81:
 1606              		.size	LCD128x64_1_Circle, .-LCD128x64_1_Circle
 1607 00ea 00BF     		.section	.text.LCD128x64_1_Text,"ax",%progbits
 1608              		.align	2
 1609              		.global	LCD128x64_1_Text
 1610              		.thumb
 1611              		.thumb_func
 1612              		.type	LCD128x64_1_Text, %function
 1613              	LCD128x64_1_Text:
 1614              	.LFB83:
 858:Generated_Source\PSoC5/LCD128x64_1.c **** //-----------------------------------------------------------------------------
 859:Generated_Source\PSoC5/LCD128x64_1.c **** //  FUNCTION NAME:	GLCD_Text
 860:Generated_Source\PSoC5/LCD128x64_1.c **** //
 861:Generated_Source\PSoC5/LCD128x64_1.c **** //  DESCRIPTION:
ARM GAS  C:\Users\USUARIO\AppData\Local\Temp\ccVm8SVK.s 			page 48


 862:Generated_Source\PSoC5/LCD128x64_1.c **** //
 863:Generated_Source\PSoC5/LCD128x64_1.c **** //	 Prints the given string at location x,y in the specified font.
 864:Generated_Source\PSoC5/LCD128x64_1.c **** //	 Prints each character given via calls to lcd_glyph. The entry string
 865:Generated_Source\PSoC5/LCD128x64_1.c **** //   is null terminated and non 0x20->0x7e characters are ignored.
 866:Generated_Source\PSoC5/LCD128x64_1.c **** //   (adapted function from the MJK-code)
 867:Generated_Source\PSoC5/LCD128x64_1.c **** //
 868:Generated_Source\PSoC5/LCD128x64_1.c **** //  ARGUMENTS:
 869:Generated_Source\PSoC5/LCD128x64_1.c **** //		left       coordinate of left start of string.                
 870:Generated_Source\PSoC5/LCD128x64_1.c **** //		top        coordinate of top of string.
 871:Generated_Source\PSoC5/LCD128x64_1.c **** //		font       font number to use for display (see fonts.h)
 872:Generated_Source\PSoC5/LCD128x64_1.c **** //		str   	   text string to display (null-terminted)
 873:Generated_Source\PSoC5/LCD128x64_1.c **** //
 874:Generated_Source\PSoC5/LCD128x64_1.c **** //  RETURNS:
 875:Generated_Source\PSoC5/LCD128x64_1.c **** //     none.
 876:Generated_Source\PSoC5/LCD128x64_1.c **** //
 877:Generated_Source\PSoC5/LCD128x64_1.c **** //-----------------------------------------------------------------------------
 878:Generated_Source\PSoC5/LCD128x64_1.c **** void LCD128x64_1_Text(uint8 left, uint8 top, uint8 font, const char *str)
 879:Generated_Source\PSoC5/LCD128x64_1.c **** {
 1615              		.loc 1 879 0
 1616              		.cfi_startproc
 1617              		@ args = 0, pretend = 0, frame = 0
 1618              		@ frame_needed = 0, uses_anonymous_args = 0
 1619              	.LVL216:
 1620 0000 2DE9F041 		push	{r4, r5, r6, r7, r8, lr}
 1621              		.cfi_def_cfa_offset 24
 1622              		.cfi_offset 4, -24
 1623              		.cfi_offset 5, -20
 1624              		.cfi_offset 6, -16
 1625              		.cfi_offset 7, -12
 1626              		.cfi_offset 8, -8
 1627              		.cfi_offset 14, -4
 1628 0004 82B0     		sub	sp, sp, #8
 1629              		.cfi_def_cfa_offset 32
 1630 0006 8046     		mov	r8, r0
 1631 0008 0E46     		mov	r6, r1
 1632 000a 1446     		mov	r4, r2
 1633 000c 1F46     		mov	r7, r3
 1634              	.LVL217:
 880:Generated_Source\PSoC5/LCD128x64_1.c ****   	uint8 x = left;
 881:Generated_Source\PSoC5/LCD128x64_1.c ****   	uint8 glyph;
 882:Generated_Source\PSoC5/LCD128x64_1.c ****   	uint8 width;
 883:Generated_Source\PSoC5/LCD128x64_1.c **** 	uint8 height;
 884:Generated_Source\PSoC5/LCD128x64_1.c **** 	uint8 store_width;
 885:Generated_Source\PSoC5/LCD128x64_1.c **** 	const uint8 *glyph_ptr;
 886:Generated_Source\PSoC5/LCD128x64_1.c **** 
 887:Generated_Source\PSoC5/LCD128x64_1.c ****   	while(*str != 0x00)
 1635              		.loc 1 887 0
 1636 000e 53E0     		b	.L129
 1637              	.LVL218:
 1638              	.L137:
 888:Generated_Source\PSoC5/LCD128x64_1.c ****   	{
 889:Generated_Source\PSoC5/LCD128x64_1.c ****     	glyph = (uint8)*str;
 890:Generated_Source\PSoC5/LCD128x64_1.c **** 
 891:Generated_Source\PSoC5/LCD128x64_1.c **** 		//         "
 892:Generated_Source\PSoC5/LCD128x64_1.c **** 		if((glyph < fonts[font].glyph_beg) || (glyph > fonts[font].glyph_end))
 1639              		.loc 1 892 0
 1640 0010 04EB8401 		add	r1, r4, r4, lsl #2
ARM GAS  C:\Users\USUARIO\AppData\Local\Temp\ccVm8SVK.s 			page 49


 1641 0014 8A00     		lsls	r2, r1, #2
 1642 0016 2B49     		ldr	r1, .L141
 1643 0018 0A44     		add	r2, r2, r1
 1644 001a 127C     		ldrb	r2, [r2, #16]	@ zero_extendqisi2
 1645 001c 9342     		cmp	r3, r2
 1646 001e 07D3     		bcc	.L130
 1647              		.loc 1 892 0 is_stmt 0 discriminator 1
 1648 0020 04EB8400 		add	r0, r4, r4, lsl #2
 1649 0024 8100     		lsls	r1, r0, #2
 1650 0026 2748     		ldr	r0, .L141
 1651 0028 0144     		add	r1, r1, r0
 1652 002a 497C     		ldrb	r1, [r1, #17]	@ zero_extendqisi2
 1653 002c 8B42     		cmp	r3, r1
 1654 002e 05D9     		bls	.L131
 1655              	.L130:
 893:Generated_Source\PSoC5/LCD128x64_1.c **** 		{ 
 894:Generated_Source\PSoC5/LCD128x64_1.c **** 			glyph = fonts[font].glyph_def;  //    
 1656              		.loc 1 894 0 is_stmt 1
 1657 0030 04EB8401 		add	r1, r4, r4, lsl #2
 1658 0034 8B00     		lsls	r3, r1, #2
 1659              	.LVL219:
 1660 0036 2349     		ldr	r1, .L141
 1661 0038 0B44     		add	r3, r3, r1
 1662 003a 9B7C     		ldrb	r3, [r3, #18]	@ zero_extendqisi2
 1663              	.LVL220:
 1664              	.L131:
 895:Generated_Source\PSoC5/LCD128x64_1.c **** 		}
 896:Generated_Source\PSoC5/LCD128x64_1.c **** 
 897:Generated_Source\PSoC5/LCD128x64_1.c **** 
 898:Generated_Source\PSoC5/LCD128x64_1.c ****     	/*      ( 0)  
 899:Generated_Source\PSoC5/LCD128x64_1.c ****     	glyph -= fonts[font].glyph_beg; //      _dot_g
 1665              		.loc 1 899 0
 1666 003c 9A1A     		subs	r2, r3, r2
 1667 003e D2B2     		uxtb	r2, r2
 1668              	.LVL221:
 900:Generated_Source\PSoC5/LCD128x64_1.c ****     	width = fonts[font].fixed_width;	/* check if it is a fixed width */
 1669              		.loc 1 900 0
 1670 0040 04EB8403 		add	r3, r4, r4, lsl #2
 1671 0044 9800     		lsls	r0, r3, #2
 1672 0046 1F4B     		ldr	r3, .L141
 1673 0048 1844     		add	r0, r0, r3
 1674 004a 057A     		ldrb	r5, [r0, #8]	@ zero_extendqisi2
 1675              	.LVL222:
 901:Generated_Source\PSoC5/LCD128x64_1.c **** 		if(width == 0)
 1676              		.loc 1 901 0
 1677 004c 0DB9     		cbnz	r5, .L132
 902:Generated_Source\PSoC5/LCD128x64_1.c **** 		{               // 0     
 903:Generated_Source\PSoC5/LCD128x64_1.c **** 			width=fonts[font].width_table[glyph];	/* get the variable width instead */
 1678              		.loc 1 903 0
 1679 004e C368     		ldr	r3, [r0, #12]
 1680 0050 9D5C     		ldrb	r5, [r3, r2]	@ zero_extendqisi2
 1681              	.LVL223:
 1682              	.L132:
 904:Generated_Source\PSoC5/LCD128x64_1.c **** 		}
 905:Generated_Source\PSoC5/LCD128x64_1.c **** 
 906:Generated_Source\PSoC5/LCD128x64_1.c **** 
 907:Generated_Source\PSoC5/LCD128x64_1.c **** 		height = fonts[font].glyph_height;      //    
ARM GAS  C:\Users\USUARIO\AppData\Local\Temp\ccVm8SVK.s 			page 50


 1683              		.loc 1 907 0
 1684 0052 1C49     		ldr	r1, .L141
 1685 0054 A000     		lsls	r0, r4, #2
 1686 0056 0319     		adds	r3, r0, r4
 1687 0058 4FEA830E 		lsl	lr, r3, #2
 1688 005c 01EB0E03 		add	r3, r1, lr
 1689 0060 5B78     		ldrb	r3, [r3, #1]	@ zero_extendqisi2
 1690              	.LVL224:
 908:Generated_Source\PSoC5/LCD128x64_1.c **** 		store_width = fonts[font].store_width;  //   ()
 1691              		.loc 1 908 0
 1692 0062 11F80EC0 		ldrb	ip, [r1, lr]	@ zero_extendqisi2
 1693              	.LVL225:
 909:Generated_Source\PSoC5/LCD128x64_1.c **** 
 910:Generated_Source\PSoC5/LCD128x64_1.c **** 		glyph_ptr = fonts[font].glyph_table + ((unsigned int)glyph * (unsigned int)store_width * (unsigne
 1694              		.loc 1 910 0
 1695 0066 8E44     		add	lr, lr, r1
 1696 0068 DEF80410 		ldr	r1, [lr, #4]
 1697 006c 0CFB02F2 		mul	r2, ip, r2
 1698              	.LVL226:
 1699 0070 03FB0211 		mla	r1, r3, r2, r1
 1700              	.LVL227:
 911:Generated_Source\PSoC5/LCD128x64_1.c ****         //          five_dot_glyph_table --->        -
 912:Generated_Source\PSoC5/LCD128x64_1.c **** 
 913:Generated_Source\PSoC5/LCD128x64_1.c **** 		/* range check / limit things here (    ) */
 914:Generated_Source\PSoC5/LCD128x64_1.c **** 		if(x > GLCD_RIGHT)
 1701              		.loc 1 914 0
 1702 0074 18F0800F 		tst	r8, #128
 1703 0078 01D0     		beq	.L133
 915:Generated_Source\PSoC5/LCD128x64_1.c **** 		{
 916:Generated_Source\PSoC5/LCD128x64_1.c **** 			x = GLCD_RIGHT; 
 1704              		.loc 1 916 0
 1705 007a 4FF07F08 		mov	r8, #127
 1706              	.LVL228:
 1707              	.L133:
 917:Generated_Source\PSoC5/LCD128x64_1.c **** 		}
 918:Generated_Source\PSoC5/LCD128x64_1.c **** 		if((x + width) > GLCD_RIGHT+1)
 1708              		.loc 1 918 0
 1709 007e 08EB0502 		add	r2, r8, r5
 1710 0082 802A     		cmp	r2, #128
 1711 0084 02DD     		ble	.L134
 919:Generated_Source\PSoC5/LCD128x64_1.c **** 		{
 920:Generated_Source\PSoC5/LCD128x64_1.c **** 			width = GLCD_RIGHT - x + 1;
 1712              		.loc 1 920 0
 1713 0086 C8F18000 		rsb	r0, r8, #128
 1714 008a C5B2     		uxtb	r5, r0
 1715              	.LVL229:
 1716              	.L134:
 921:Generated_Source\PSoC5/LCD128x64_1.c **** 		}
 922:Generated_Source\PSoC5/LCD128x64_1.c **** 		if(top > GLCD_BOTTOM)
 1717              		.loc 1 922 0
 1718 008c 3F2E     		cmp	r6, #63
 1719 008e 00D9     		bls	.L135
 923:Generated_Source\PSoC5/LCD128x64_1.c **** 		{
 924:Generated_Source\PSoC5/LCD128x64_1.c **** 			top = GLCD_BOTTOM;
 1720              		.loc 1 924 0
 1721 0090 3F26     		movs	r6, #63
 1722              	.LVL230:
ARM GAS  C:\Users\USUARIO\AppData\Local\Temp\ccVm8SVK.s 			page 51


 1723              	.L135:
 925:Generated_Source\PSoC5/LCD128x64_1.c **** 		}
 926:Generated_Source\PSoC5/LCD128x64_1.c **** 		if((top + height) > GLCD_BOTTOM+1)
 1724              		.loc 1 926 0
 1725 0092 F218     		adds	r2, r6, r3
 1726 0094 402A     		cmp	r2, #64
 1727 0096 02DD     		ble	.L136
 927:Generated_Source\PSoC5/LCD128x64_1.c **** 		{
 928:Generated_Source\PSoC5/LCD128x64_1.c **** 			height = GLCD_BOTTOM - top + 1;
 1728              		.loc 1 928 0
 1729 0098 C6F14003 		rsb	r3, r6, #64
 1730              	.LVL231:
 1731 009c DBB2     		uxtb	r3, r3
 1732              	.LVL232:
 1733              	.L136:
 929:Generated_Source\PSoC5/LCD128x64_1.c **** 		}
 930:Generated_Source\PSoC5/LCD128x64_1.c **** 
 931:Generated_Source\PSoC5/LCD128x64_1.c **** 		LCD128x64_1_Glyph(x,top,width,height,glyph_ptr,store_width);  /* plug symbol into buffer */
 1734              		.loc 1 931 0
 1735 009e CDF804C0 		str	ip, [sp, #4]
 1736 00a2 0091     		str	r1, [sp]
 1737 00a4 2A46     		mov	r2, r5
 1738 00a6 3146     		mov	r1, r6
 1739              	.LVL233:
 1740 00a8 4046     		mov	r0, r8
 1741 00aa FFF7FEFF 		bl	LCD128x64_1_Glyph
 1742              	.LVL234:
 932:Generated_Source\PSoC5/LCD128x64_1.c **** 
 933:Generated_Source\PSoC5/LCD128x64_1.c **** 		x += width;							/* move right for next character */
 1743              		.loc 1 933 0
 1744 00ae 08EB0500 		add	r0, r8, r5
 1745 00b2 5FFA80F8 		uxtb	r8, r0
 1746              	.LVL235:
 934:Generated_Source\PSoC5/LCD128x64_1.c **** 		str++;								/* point to next character in string */
 1747              		.loc 1 934 0
 1748 00b6 0137     		adds	r7, r7, #1
 1749              	.LVL236:
 1750              	.L129:
 887:Generated_Source\PSoC5/LCD128x64_1.c ****   	{
 1751              		.loc 1 887 0
 1752 00b8 3B78     		ldrb	r3, [r7]	@ zero_extendqisi2
 1753 00ba 002B     		cmp	r3, #0
 1754 00bc A8D1     		bne	.L137
 935:Generated_Source\PSoC5/LCD128x64_1.c **** 	}
 936:Generated_Source\PSoC5/LCD128x64_1.c **** }
 1755              		.loc 1 936 0
 1756 00be 02B0     		add	sp, sp, #8
 1757              		.cfi_def_cfa_offset 24
 1758              		@ sp needed
 1759 00c0 BDE8F081 		pop	{r4, r5, r6, r7, r8, pc}
 1760              	.LVL237:
 1761              	.L142:
 1762              		.align	2
 1763              	.L141:
 1764 00c4 00000000 		.word	fonts
 1765              		.cfi_endproc
 1766              	.LFE83:
ARM GAS  C:\Users\USUARIO\AppData\Local\Temp\ccVm8SVK.s 			page 52


 1767              		.size	LCD128x64_1_Text, .-LCD128x64_1_Text
 1768              		.section	.text.LCD128x64_1_ScreenBitmap,"ax",%progbits
 1769              		.align	2
 1770              		.global	LCD128x64_1_ScreenBitmap
 1771              		.thumb
 1772              		.thumb_func
 1773              		.type	LCD128x64_1_ScreenBitmap, %function
 1774              	LCD128x64_1_ScreenBitmap:
 1775              	.LFB84:
 937:Generated_Source\PSoC5/LCD128x64_1.c **** 
 938:Generated_Source\PSoC5/LCD128x64_1.c **** //-----------------------------------------------------------------------------
 939:Generated_Source\PSoC5/LCD128x64_1.c **** //  FUNCTION NAME:	GLCD_ScreenBitmap
 940:Generated_Source\PSoC5/LCD128x64_1.c **** //
 941:Generated_Source\PSoC5/LCD128x64_1.c **** //  DESCRIPTION:
 942:Generated_Source\PSoC5/LCD128x64_1.c **** //
 943:Generated_Source\PSoC5/LCD128x64_1.c **** //	Display full screen bitmap.
 944:Generated_Source\PSoC5/LCD128x64_1.c **** //	Image has to be rotated and bits flipped
 945:Generated_Source\PSoC5/LCD128x64_1.c **** //
 946:Generated_Source\PSoC5/LCD128x64_1.c **** //	Bitmaps can be created by "The Dot Factory" program
 947:Generated_Source\PSoC5/LCD128x64_1.c **** //		Order: LSB first
 948:Generated_Source\PSoC5/LCD128x64_1.c **** //		Flip/rotate: 270?
 949:Generated_Source\PSoC5/LCD128x64_1.c **** //
 950:Generated_Source\PSoC5/LCD128x64_1.c **** //  ARGUMENTS:
 951:Generated_Source\PSoC5/LCD128x64_1.c **** //		pbitmap
 952:Generated_Source\PSoC5/LCD128x64_1.c **** //
 953:Generated_Source\PSoC5/LCD128x64_1.c **** //  RETURNS:
 954:Generated_Source\PSoC5/LCD128x64_1.c **** //     none.
 955:Generated_Source\PSoC5/LCD128x64_1.c **** //
 956:Generated_Source\PSoC5/LCD128x64_1.c **** //-----------------------------------------------------------------------------
 957:Generated_Source\PSoC5/LCD128x64_1.c **** void LCD128x64_1_ScreenBitmap(const uint8 * pbitmap)
 958:Generated_Source\PSoC5/LCD128x64_1.c **** {
 1776              		.loc 1 958 0
 1777              		.cfi_startproc
 1778              		@ args = 0, pretend = 0, frame = 0
 1779              		@ frame_needed = 0, uses_anonymous_args = 0
 1780              	.LVL238:
 1781 0000 F8B5     		push	{r3, r4, r5, r6, r7, lr}
 1782              		.cfi_def_cfa_offset 24
 1783              		.cfi_offset 3, -24
 1784              		.cfi_offset 4, -20
 1785              		.cfi_offset 5, -16
 1786              		.cfi_offset 6, -12
 1787              		.cfi_offset 7, -8
 1788              		.cfi_offset 14, -4
 1789 0002 0746     		mov	r7, r0
 1790              	.LVL239:
 959:Generated_Source\PSoC5/LCD128x64_1.c **** 	// pin in demopic
 960:Generated_Source\PSoC5/LCD128x64_1.c **** 	int i,x,y;
 961:Generated_Source\PSoC5/LCD128x64_1.c **** 	uint8 data;
 962:Generated_Source\PSoC5/LCD128x64_1.c **** 	uint16 idx;
 963:Generated_Source\PSoC5/LCD128x64_1.c **** 	
 964:Generated_Source\PSoC5/LCD128x64_1.c **** 	for (i=0;i<GLCD_NUMCONTROLLER;i++) {
 1791              		.loc 1 964 0
 1792 0004 0026     		movs	r6, #0
 1793 0006 27E0     		b	.L144
 1794              	.LVL240:
 1795              	.L150:
ARM GAS  C:\Users\USUARIO\AppData\Local\Temp\ccVm8SVK.s 			page 53


 965:Generated_Source\PSoC5/LCD128x64_1.c **** 		LCD128x64_1_SelectChip(i);
 1796              		.loc 1 965 0
 1797 0008 F0B2     		uxtb	r0, r6
 1798 000a FFF7FEFF 		bl	LCD128x64_1_SelectChip
 1799              	.LVL241:
 966:Generated_Source\PSoC5/LCD128x64_1.c **** 		for (y=0;y<GLCD_MAXPAGE;y++) {
 1800              		.loc 1 966 0
 1801 000e 0025     		movs	r5, #0
 1802 0010 1FE0     		b	.L145
 1803              	.LVL242:
 1804              	.L149:
 967:Generated_Source\PSoC5/LCD128x64_1.c **** 			LCD128x64_1_SetPage(y);
 1805              		.loc 1 967 0
 1806 0012 E8B2     		uxtb	r0, r5
 1807 0014 FFF7FEFF 		bl	LCD128x64_1_SetPage
 1808              	.LVL243:
 968:Generated_Source\PSoC5/LCD128x64_1.c **** 			LCD128x64_1_SetAddress(0);
 1809              		.loc 1 968 0
 1810 0018 0020     		movs	r0, #0
 1811 001a FFF7FEFF 		bl	LCD128x64_1_SetAddress
 1812              	.LVL244:
 969:Generated_Source\PSoC5/LCD128x64_1.c **** 			for (x=0;x<GLCD_MAXADDRESS;x++) {
 1813              		.loc 1 969 0
 1814 001e 0024     		movs	r4, #0
 1815 0020 14E0     		b	.L146
 1816              	.LVL245:
 1817              	.L148:
 970:Generated_Source\PSoC5/LCD128x64_1.c **** 				idx=((GLCD_NUMCONTROLLER-1-i)*GLCD_MAXADDRESS*GLCD_MAXPAGE);
 1818              		.loc 1 970 0
 1819 0022 C6F10103 		rsb	r3, r6, #1
 1820 0026 5B02     		lsls	r3, r3, #9
 1821 0028 9BB2     		uxth	r3, r3
 1822              	.LVL246:
 971:Generated_Source\PSoC5/LCD128x64_1.c **** 				idx+=GLCD_MAXPAGE*(GLCD_MAXADDRESS-1-x);
 1823              		.loc 1 971 0
 1824 002a C4F13F02 		rsb	r2, r4, #63
 1825 002e 03EBC203 		add	r3, r3, r2, lsl #3
 1826              	.LVL247:
 1827 0032 9BB2     		uxth	r3, r3
 1828              	.LVL248:
 972:Generated_Source\PSoC5/LCD128x64_1.c **** 				idx+=y;
 1829              		.loc 1 972 0
 1830 0034 2B44     		add	r3, r3, r5
 1831              	.LVL249:
 1832 0036 9BB2     		uxth	r3, r3
 1833              	.LVL250:
 973:Generated_Source\PSoC5/LCD128x64_1.c **** 				data=pbitmap[idx];
 1834              		.loc 1 973 0
 1835 0038 F85C     		ldrb	r0, [r7, r3]	@ zero_extendqisi2
 1836              	.LVL251:
 974:Generated_Source\PSoC5/LCD128x64_1.c **** 				if (gGLCD_inverted) data=~data;
 1837              		.loc 1 974 0
 1838 003a 0A4B     		ldr	r3, .L152
 1839              	.LVL252:
 1840 003c 93F80034 		ldrb	r3, [r3, #1024]	@ zero_extendqisi2
 1841 0040 0BB1     		cbz	r3, .L147
 1842              		.loc 1 974 0 is_stmt 0 discriminator 1
ARM GAS  C:\Users\USUARIO\AppData\Local\Temp\ccVm8SVK.s 			page 54


 1843 0042 C043     		mvns	r0, r0
 1844              	.LVL253:
 1845 0044 C0B2     		uxtb	r0, r0
 1846              	.LVL254:
 1847              	.L147:
 975:Generated_Source\PSoC5/LCD128x64_1.c **** 				LCD128x64_1_WriteData(data);
 1848              		.loc 1 975 0 is_stmt 1 discriminator 2
 1849 0046 FFF7FEFF 		bl	LCD128x64_1_WriteData
 1850              	.LVL255:
 969:Generated_Source\PSoC5/LCD128x64_1.c **** 				idx=((GLCD_NUMCONTROLLER-1-i)*GLCD_MAXADDRESS*GLCD_MAXPAGE);
 1851              		.loc 1 969 0 discriminator 2
 1852 004a 0134     		adds	r4, r4, #1
 1853              	.LVL256:
 1854              	.L146:
 969:Generated_Source\PSoC5/LCD128x64_1.c **** 				idx=((GLCD_NUMCONTROLLER-1-i)*GLCD_MAXADDRESS*GLCD_MAXPAGE);
 1855              		.loc 1 969 0 is_stmt 0 discriminator 1
 1856 004c 3F2C     		cmp	r4, #63
 1857 004e E8DD     		ble	.L148
 966:Generated_Source\PSoC5/LCD128x64_1.c **** 			LCD128x64_1_SetPage(y);
 1858              		.loc 1 966 0 is_stmt 1 discriminator 2
 1859 0050 0135     		adds	r5, r5, #1
 1860              	.LVL257:
 1861              	.L145:
 966:Generated_Source\PSoC5/LCD128x64_1.c **** 			LCD128x64_1_SetPage(y);
 1862              		.loc 1 966 0 is_stmt 0 discriminator 1
 1863 0052 072D     		cmp	r5, #7
 1864 0054 DDDD     		ble	.L149
 964:Generated_Source\PSoC5/LCD128x64_1.c **** 		LCD128x64_1_SelectChip(i);
 1865              		.loc 1 964 0 is_stmt 1 discriminator 2
 1866 0056 0136     		adds	r6, r6, #1
 1867              	.LVL258:
 1868              	.L144:
 964:Generated_Source\PSoC5/LCD128x64_1.c **** 		LCD128x64_1_SelectChip(i);
 1869              		.loc 1 964 0 is_stmt 0 discriminator 1
 1870 0058 012E     		cmp	r6, #1
 1871 005a D5DD     		ble	.L150
 976:Generated_Source\PSoC5/LCD128x64_1.c **** 			}
 977:Generated_Source\PSoC5/LCD128x64_1.c **** 		}
 978:Generated_Source\PSoC5/LCD128x64_1.c **** 	}
 979:Generated_Source\PSoC5/LCD128x64_1.c **** 	LCD128x64_1_SelectChip(GLCD_SELECTNONE);
 1872              		.loc 1 979 0 is_stmt 1
 1873 005c 6320     		movs	r0, #99
 1874 005e FFF7FEFF 		bl	LCD128x64_1_SelectChip
 1875              	.LVL259:
 1876 0062 F8BD     		pop	{r3, r4, r5, r6, r7, pc}
 1877              	.LVL260:
 1878              	.L153:
 1879              		.align	2
 1880              	.L152:
 1881 0064 00000000 		.word	.LANCHOR0
 1882              		.cfi_endproc
 1883              	.LFE84:
 1884              		.size	LCD128x64_1_ScreenBitmap, .-LCD128x64_1_ScreenBitmap
 1885              		.section	.rodata
 1886              		.align	2
 1887              		.set	.LANCHOR1,. + 0
 1888              		.type	GLCD_MaskArray, %object
ARM GAS  C:\Users\USUARIO\AppData\Local\Temp\ccVm8SVK.s 			page 55


 1889              		.size	GLCD_MaskArray, 8
 1890              	GLCD_MaskArray:
 1891 0000 01       		.byte	1
 1892 0001 02       		.byte	2
 1893 0002 04       		.byte	4
 1894 0003 08       		.byte	8
 1895 0004 10       		.byte	16
 1896 0005 20       		.byte	32
 1897 0006 40       		.byte	64
 1898 0007 80       		.byte	-128
 1899              		.bss
 1900              		.align	2
 1901              		.set	.LANCHOR0,. + 0
 1902              		.type	gGLCD_buffer, %object
 1903              		.size	gGLCD_buffer, 1024
 1904              	gGLCD_buffer:
 1905 0000 00000000 		.space	1024
 1905      00000000 
 1905      00000000 
 1905      00000000 
 1905      00000000 
 1906              		.type	gGLCD_inverted, %object
 1907              		.size	gGLCD_inverted, 1
 1908              	gGLCD_inverted:
 1909 0400 00       		.space	1
 1910              		.text
 1911              	.Letext0:
 1912              		.file 2 "c:\\program files (x86)\\cypress\\psoc creator\\4.3\\psoc creator\\import\\gnu\\arm\\5.4.
 1913              		.file 3 "c:\\program files (x86)\\cypress\\psoc creator\\4.3\\psoc creator\\import\\gnu\\arm\\5.4.
 1914              		.file 4 "Generated_Source\\PSoC5\\cytypes.h"
 1915              		.file 5 "Generated_Source\\PSoC5/LCD128x64_1_fonts.h"
 1916              		.file 6 "Generated_Source\\PSoC5/core_cm3.h"
 1917              		.file 7 "Generated_Source\\PSoC5/LCD128x64_1_Timer_LCD.h"
 1918              		.file 8 "Generated_Source\\PSoC5/LCD128x64_1_LCD_DATA.h"