ARM GAS  C:\Users\USUARIO\AppData\Local\Temp\cc1DyRb0.s 			page 1


   1              		.syntax unified
   2              		.cpu cortex-m3
   3              		.fpu softvfp
   4              		.eabi_attribute 20, 1
   5              		.eabi_attribute 21, 1
   6              		.eabi_attribute 23, 3
   7              		.eabi_attribute 24, 1
   8              		.eabi_attribute 25, 1
   9              		.eabi_attribute 26, 1
  10              		.eabi_attribute 30, 1
  11              		.eabi_attribute 34, 1
  12              		.eabi_attribute 18, 4
  13              		.thumb
  14              		.syntax unified
  15              		.file	"HDM64GS12.c"
  16              		.text
  17              	.Ltext0:
  18              		.cfi_sections	.debug_frame
  19              		.section	.text.glcd_pixel,"ax",%progbits
  20              		.align	2
  21              		.global	glcd_pixel
  22              		.thumb
  23              		.thumb_func
  24              		.type	glcd_pixel, %function
  25              	glcd_pixel:
  26              	.LFB65:
  27              		.file 1 "HDM64GS12.c"
   1:HDM64GS12.c   **** /////////////////////////////////////////////////////////////////////////
   2:HDM64GS12.c   **** ////                           HDM64GS12.c                           ////
   3:HDM64GS12.c   **** ////                                                                 ////
   4:HDM64GS12.c   **** //// This file contains drivers for using a Hantronix HDM64GS12 with ////
   5:HDM64GS12.c   **** //// a KS0108 display controller. The HDM64GS12 is 128 by 64 pixels. ////
   6:HDM64GS12.c   **** //// The driver treats the upper left pixel as (0,0).                ////
   7:HDM64GS12.c   **** ////                                                                 ////
   8:HDM64GS12.c   **** //// Use #define FAST_GLCD if the target chip has at least 1k of RAM ////
   9:HDM64GS12.c   **** //// to decrease the time it takes to update the display.            ////
  10:HDM64GS12.c   **** //// glcd_update() must then be called to update the display after   ////
  11:HDM64GS12.c   **** //// changing the pixel information.                                 ////
  12:HDM64GS12.c   **** //// See ex_glcd.c for suggested usage.                              ////
  13:HDM64GS12.c   **** //// See KS0108.c for controlling a single 64 by 64 display          ////
  14:HDM64GS12.c   **** /////////////////////////////////////////////////////////////////////////
  15:HDM64GS12.c   **** ////                                                                 ////
  16:HDM64GS12.c   **** //// LCD Pin connections:                                            ////
  17:HDM64GS12.c   **** //// (These can be changed as needed in the following defines).      ////
  18:HDM64GS12.c   **** ////  * 1: VSS is connected to GND                                   ////
  19:HDM64GS12.c   **** ////  * 2: VDD is connected to +5V                                   ////
  20:HDM64GS12.c   **** ////  * 3: V0  - LCD operating voltage (Constrast adjustment)        ////
  21:HDM64GS12.c   **** ////  * 4: D/I - Data or Instruction is connected to B2              ////
  22:HDM64GS12.c   **** ////  * 5: R/W - Read or Write is connected to B4                    ////
  23:HDM64GS12.c   **** ////  * 6: Enable is connected to B5                                 ////
  24:HDM64GS12.c   **** ////  *7-14: Data Bus 0 to 7 is connected to port d                  ////
  25:HDM64GS12.c   **** ////  *15: Chip Select 1 is connected to B0                          ////
  26:HDM64GS12.c   **** ////  *16: Chip Select 2 is connected to B1                          ////
  27:HDM64GS12.c   **** ////  *17: Reset is connected to C0                                  ////
  28:HDM64GS12.c   **** ////  *18: Negative voltage is also connected to the 20k Ohm POT     ////
  29:HDM64GS12.c   **** ////  *19: Positive voltage for LED backlight is connected to +5V    ////
  30:HDM64GS12.c   **** ////  *20: Negavtive voltage for LED backlight is connected to GND   ////
ARM GAS  C:\Users\USUARIO\AppData\Local\Temp\cc1DyRb0.s 			page 2


  31:HDM64GS12.c   **** ////                                                                 ////
  32:HDM64GS12.c   **** /////////////////////////////////////////////////////////////////////////
  33:HDM64GS12.c   **** ////                                                                 ////
  34:HDM64GS12.c   **** ////  glcd_init(mode)                                                ////
  35:HDM64GS12.c   **** ////     * Must be called before any other function.                 ////
  36:HDM64GS12.c   **** ////       - mode can be ON or OFF to turn the LCD on or off         ////
  37:HDM64GS12.c   **** ////                                                                 ////
  38:HDM64GS12.c   **** ////  glcd_pixel(x,y,color)                                          ////
  39:HDM64GS12.c   **** ////     * Sets the pixel to the given color.                        ////
  40:HDM64GS12.c   **** ////       - color can be ON or OFF                                  ////
  41:HDM64GS12.c   **** ////                                                                 ////
  42:HDM64GS12.c   **** ////  glcd_fillScreen(color)                                         ////
  43:HDM64GS12.c   **** ////     * Fills the entire LCD with the given color.                ////
  44:HDM64GS12.c   **** ////       - color can be ON or OFF                                  ////
  45:HDM64GS12.c   **** ////                                                                 ////
  46:HDM64GS12.c   **** ////  glcd_update()                                                  ////
  47:HDM64GS12.c   **** ////     * Write the display data stored in RAM to the LCD           ////
  48:HDM64GS12.c   **** ////     * Only available if FAST_GLCD is defined                    ////
  49:HDM64GS12.c   **** ////                                                                 ////
  50:HDM64GS12.c   **** /////////////////////////////////////////////////////////////////////////
  51:HDM64GS12.c   **** ////        (C) Copyright 1996, 2004 Custom Computer Services        ////
  52:HDM64GS12.c   **** //// This source code may only be used by licensed users of the CCS  ////
  53:HDM64GS12.c   **** //// C compiler.  This source code may only be distributed to other  ////
  54:HDM64GS12.c   **** //// licensed users of the CCS C compiler.  No other use,            ////
  55:HDM64GS12.c   **** //// reproduction or distribution is permitted without written       ////
  56:HDM64GS12.c   **** //// permission.  Derivative programs created using this software    ////
  57:HDM64GS12.c   **** //// in object code form are not restricted in any way.              ////
  58:HDM64GS12.c   **** /////////////////////////////////////////////////////////////////////////
  59:HDM64GS12.c   **** 
  60:HDM64GS12.c   **** #include <device.h>
  61:HDM64GS12.c   **** #include <math.h>
  62:HDM64GS12.c   **** #include <HDM64GS12.h>
  63:HDM64GS12.c   **** 
  64:HDM64GS12.c   **** /*
  65:HDM64GS12.c   **** #ifndef GLCD_CS1
  66:HDM64GS12.c   **** #define GLCD_CS1     PIN_B2   // Chip Selection 1
  67:HDM64GS12.c   **** #endif
  68:HDM64GS12.c   **** 
  69:HDM64GS12.c   **** #ifndef GLCD_CS2
  70:HDM64GS12.c   **** #define GLCD_CS2     PIN_B3   // Chip Selection 2
  71:HDM64GS12.c   **** #endif
  72:HDM64GS12.c   **** 
  73:HDM64GS12.c   **** #ifndef GLCD_DI
  74:HDM64GS12.c   **** #define GLCD_DI      PIN_B5   // Data or Instruction input
  75:HDM64GS12.c   **** #endif
  76:HDM64GS12.c   **** 
  77:HDM64GS12.c   **** #ifndef GLCD_RW
  78:HDM64GS12.c   **** #define GLCD_RW      PIN_B6   // Read/Write
  79:HDM64GS12.c   **** #endif
  80:HDM64GS12.c   **** 
  81:HDM64GS12.c   **** #ifndef GLCD_E
  82:HDM64GS12.c   **** #define GLCD_E       PIN_B7   // Enable
  83:HDM64GS12.c   **** #endif
  84:HDM64GS12.c   **** 
  85:HDM64GS12.c   **** #ifndef GLCD_RST
  86:HDM64GS12.c   **** #define GLCD_RST     PIN_B4   // Reset
  87:HDM64GS12.c   **** #endif
ARM GAS  C:\Users\USUARIO\AppData\Local\Temp\cc1DyRb0.s 			page 3


  88:HDM64GS12.c   **** */
  89:HDM64GS12.c   **** 
  90:HDM64GS12.c   **** /////////////////////////////////////////////////////////////////////////
  91:HDM64GS12.c   **** 
  92:HDM64GS12.c   **** #ifdef FAST_GLCD
  93:HDM64GS12.c   **** struct
  94:HDM64GS12.c   **** {
  95:HDM64GS12.c   ****    uint8 left[512];
  96:HDM64GS12.c   ****    uint8 right[512];
  97:HDM64GS12.c   **** } displayData;
  98:HDM64GS12.c   **** #endif
  99:HDM64GS12.c   **** 
 100:HDM64GS12.c   **** 
 101:HDM64GS12.c   **** // Purpose:       Initialize the LCD.
 102:HDM64GS12.c   **** //                Call before using any other LCD function.
 103:HDM64GS12.c   **** // Inputs:        OFF - Turns the LCD off
 104:HDM64GS12.c   **** //                ON  - Turns the LCD on
 105:HDM64GS12.c   **** void glcd_init(short mode)
 106:HDM64GS12.c   **** {
 107:HDM64GS12.c   ****    // Initialze some pins
 108:HDM64GS12.c   ****    //output_high(GLCD_RST);
 109:HDM64GS12.c   ****    //output_low(GLCD_E);
 110:HDM64GS12.c   ****    //output_low(GLCD_CS1);
 111:HDM64GS12.c   ****    //output_low(GLCD_CS2);
 112:HDM64GS12.c   ****    GLCD_RST_Write(1);
 113:HDM64GS12.c   ****    GLCD_E_Write(0);
 114:HDM64GS12.c   ****    GLCD_CS1_Write(0);
 115:HDM64GS12.c   ****    GLCD_CS2_Write(0);
 116:HDM64GS12.c   ****    
 117:HDM64GS12.c   **** 
 118:HDM64GS12.c   ****    //output_low(GLCD_DI);                 // Set for instruction
 119:HDM64GS12.c   ****    GLCD_DI_Write(0);
 120:HDM64GS12.c   ****    glcd_writeByte(GLCD_LEFT,  0xC0);    // Specify first RAM line at the top
 121:HDM64GS12.c   ****    glcd_writeByte(GLCD_RIGH, 0xC0);    //   of the screen
 122:HDM64GS12.c   ****    glcd_writeByte(GLCD_LEFT,  0x40);    // Set the column address to 0
 123:HDM64GS12.c   ****    glcd_writeByte(GLCD_RIGH, 0x40);
 124:HDM64GS12.c   ****    glcd_writeByte(GLCD_LEFT,  0xB8);    // Set the page address to 0
 125:HDM64GS12.c   ****    glcd_writeByte(GLCD_RIGH, 0xB8);
 126:HDM64GS12.c   **** 
 127:HDM64GS12.c   ****    if(mode == ON)
 128:HDM64GS12.c   ****    {
 129:HDM64GS12.c   ****       glcd_writeByte(GLCD_LEFT,  0x3F); // Turn the display on
 130:HDM64GS12.c   ****       glcd_writeByte(GLCD_RIGH, 0x3F);
 131:HDM64GS12.c   ****    }
 132:HDM64GS12.c   ****    else
 133:HDM64GS12.c   ****    {
 134:HDM64GS12.c   ****       glcd_writeByte(GLCD_LEFT,  0x3E); // Turn the display off
 135:HDM64GS12.c   ****       glcd_writeByte(GLCD_RIGH, 0x3E);
 136:HDM64GS12.c   ****    }
 137:HDM64GS12.c   **** 
 138:HDM64GS12.c   ****    glcd_fillScreen(OFF);                // Clear the display
 139:HDM64GS12.c   **** 
 140:HDM64GS12.c   ****    #ifdef FAST_GLCD
 141:HDM64GS12.c   ****    glcd_update();
 142:HDM64GS12.c   ****    #endif
 143:HDM64GS12.c   **** }
 144:HDM64GS12.c   **** 
ARM GAS  C:\Users\USUARIO\AppData\Local\Temp\cc1DyRb0.s 			page 4


 145:HDM64GS12.c   **** 
 146:HDM64GS12.c   **** // Purpose:    Update the LCD with data from the display arrays
 147:HDM64GS12.c   **** #ifdef FAST_GLCD
 148:HDM64GS12.c   **** void glcd_update()
 149:HDM64GS12.c   **** {
 150:HDM64GS12.c   ****    uint8 i, j;
 151:HDM64GS12.c   ****    uint8 *p1, *p2;
 152:HDM64GS12.c   **** 
 153:HDM64GS12.c   ****    p1 = displayData.left;
 154:HDM64GS12.c   ****    p2 = displayData.right;
 155:HDM64GS12.c   **** 
 156:HDM64GS12.c   ****    // Loop through the vertical pages
 157:HDM64GS12.c   ****    for(i = 0; i < 8; ++i)
 158:HDM64GS12.c   ****    {
 159:HDM64GS12.c   ****       //output_low(GLCD_DI);                      // Set for instruction
 160:HDM64GS12.c   ****       GLCD_DI_Write(0);                      // Set for instruction
 161:HDM64GS12.c   ****       glcd_writeByte(GLCD_LEFT, 0x40);          // Set horizontal address to 0
 162:HDM64GS12.c   ****       glcd_writeByte(GLCD_RIGH, 0x40);
 163:HDM64GS12.c   ****       glcd_writeByte(GLCD_LEFT, i | 0xB8);      // Set page address
 164:HDM64GS12.c   ****       glcd_writeByte(GLCD_RIGH, i | 0xB8);
 165:HDM64GS12.c   ****       //output_high(GLCD_DI);                     // Set for data
 166:HDM64GS12.c   ****       GLCD_DI_Write(1);                      // Set for instruction
 167:HDM64GS12.c   **** 
 168:HDM64GS12.c   ****       // Loop through the horizontal sections
 169:HDM64GS12.c   ****       for(j = 0; j < 64; ++j)
 170:HDM64GS12.c   ****       {
 171:HDM64GS12.c   ****          glcd_writeByte(GLCD_LEFT, *p1++);      // Turn pixels on or off
 172:HDM64GS12.c   ****          glcd_writeByte(GLCD_RIGH, *p2++);     // Turn pixels on or off
 173:HDM64GS12.c   ****       }
 174:HDM64GS12.c   ****    }
 175:HDM64GS12.c   **** }
 176:HDM64GS12.c   **** #endif
 177:HDM64GS12.c   **** 
 178:HDM64GS12.c   **** 
 179:HDM64GS12.c   **** 
 180:HDM64GS12.c   **** // Purpose:    Turn a pixel on a graphic LCD on or off
 181:HDM64GS12.c   **** // Inputs:     1) x - the x coordinate of the pixel
 182:HDM64GS12.c   **** //             2) y - the y coordinate of the pixel
 183:HDM64GS12.c   **** //             3) color - ON or OFF
 184:HDM64GS12.c   **** void glcd_pixel(uint8 x, uint8 y, short color)
 185:HDM64GS12.c   **** #ifdef FAST_GLCD
 186:HDM64GS12.c   **** {
  28              		.loc 1 186 0
  29              		.cfi_startproc
  30              		@ args = 0, pretend = 0, frame = 0
  31              		@ frame_needed = 0, uses_anonymous_args = 0
  32              		@ link register save eliminated.
  33              	.LVL0:
 187:HDM64GS12.c   ****    uint8* p;
 188:HDM64GS12.c   ****    uint16 temp;
 189:HDM64GS12.c   ****    temp =  y/8;
  34              		.loc 1 189 0
  35 0000 CB08     		lsrs	r3, r1, #3
  36              	.LVL1:
 190:HDM64GS12.c   ****    temp *= 64;
 191:HDM64GS12.c   ****    temp += x;
  37              		.loc 1 191 0
ARM GAS  C:\Users\USUARIO\AppData\Local\Temp\cc1DyRb0.s 			page 5


  38 0002 00EB8313 		add	r3, r0, r3, lsl #6
  39              	.LVL2:
 192:HDM64GS12.c   **** 
 193:HDM64GS12.c   ****    if(x > 63)
  40              		.loc 1 193 0
  41 0006 3F28     		cmp	r0, #63
  42 0008 03D9     		bls	.L2
 194:HDM64GS12.c   ****    {
 195:HDM64GS12.c   ****       p = displayData.right + temp - 64;
  43              		.loc 1 195 0
  44 000a 403B     		subs	r3, r3, #64
  45              	.LVL3:
  46 000c 0C48     		ldr	r0, .L6
  47              	.LVL4:
  48 000e 0344     		add	r3, r3, r0
  49              	.LVL5:
  50 0010 01E0     		b	.L3
  51              	.LVL6:
  52              	.L2:
 196:HDM64GS12.c   ****    }
 197:HDM64GS12.c   ****    else
 198:HDM64GS12.c   ****    {
 199:HDM64GS12.c   ****       p = displayData.left + temp;
  53              		.loc 1 199 0
  54 0012 0C48     		ldr	r0, .L6+4
  55              	.LVL7:
  56 0014 0344     		add	r3, r3, r0
  57              	.LVL8:
  58              	.L3:
 200:HDM64GS12.c   ****    }
 201:HDM64GS12.c   **** 
 202:HDM64GS12.c   ****    if(color)
  59              		.loc 1 202 0
  60 0016 42B1     		cbz	r2, .L4
 203:HDM64GS12.c   ****    {
 204:HDM64GS12.c   ****       bitSet(*p, y%8);
  61              		.loc 1 204 0
  62 0018 01F00701 		and	r1, r1, #7
  63              	.LVL9:
  64 001c 0122     		movs	r2, #1
  65              	.LVL10:
  66 001e 02FA01F1 		lsl	r1, r2, r1
  67 0022 1A78     		ldrb	r2, [r3]	@ zero_extendqisi2
  68 0024 1143     		orrs	r1, r1, r2
  69 0026 1970     		strb	r1, [r3]
  70 0028 7047     		bx	lr
  71              	.LVL11:
  72              	.L4:
 205:HDM64GS12.c   ****    }
 206:HDM64GS12.c   ****    else
 207:HDM64GS12.c   ****    {
 208:HDM64GS12.c   ****       bitClear(*p, y%8);
  73              		.loc 1 208 0
  74 002a 01F00701 		and	r1, r1, #7
  75              	.LVL12:
  76 002e 0122     		movs	r2, #1
  77              	.LVL13:
ARM GAS  C:\Users\USUARIO\AppData\Local\Temp\cc1DyRb0.s 			page 6


  78 0030 02FA01F1 		lsl	r1, r2, r1
  79 0034 1A78     		ldrb	r2, [r3]	@ zero_extendqisi2
  80 0036 22EA0101 		bic	r1, r2, r1
  81 003a 1970     		strb	r1, [r3]
  82 003c 7047     		bx	lr
  83              	.L7:
  84 003e 00BF     		.align	2
  85              	.L6:
  86 0040 00020000 		.word	displayData+512
  87 0044 00000000 		.word	displayData
  88              		.cfi_endproc
  89              	.LFE65:
  90              		.size	glcd_pixel, .-glcd_pixel
  91              		.section	.text.glcd_fillScreen,"ax",%progbits
  92              		.align	2
  93              		.global	glcd_fillScreen
  94              		.thumb
  95              		.thumb_func
  96              		.type	glcd_fillScreen, %function
  97              	glcd_fillScreen:
  98              	.LFB66:
 209:HDM64GS12.c   ****    }
 210:HDM64GS12.c   **** }
 211:HDM64GS12.c   **** #else
 212:HDM64GS12.c   **** {
 213:HDM64GS12.c   ****    BYTE data;
 214:HDM64GS12.c   ****    int1 side = GLCD_LEFT;  // Stores which chip to use on the LCD
 215:HDM64GS12.c   **** 
 216:HDM64GS12.c   ****    if(x > 63)              // Check for first or second display area
 217:HDM64GS12.c   ****    {
 218:HDM64GS12.c   ****       x -= 64;
 219:HDM64GS12.c   ****       side = GLCD_RIGHT;
 220:HDM64GS12.c   ****    }
 221:HDM64GS12.c   **** 
 222:HDM64GS12.c   ****    output_low(GLCD_DI);                         // Set for instruction
 223:HDM64GS12.c   ****    bit_clear(x,7);                              // Clear the MSB. Part of an instruction code
 224:HDM64GS12.c   ****    bit_set(x,6);                                // Set bit 6. Also part of an instruction code
 225:HDM64GS12.c   ****    glcd_writeByte(side, x);                     // Set the horizontal address
 226:HDM64GS12.c   ****    glcd_writeByte(side, (y/8 & 0xBF) | 0xB8);   // Set the vertical page address
 227:HDM64GS12.c   ****    output_high(GLCD_DI);                        // Set for data
 228:HDM64GS12.c   ****    glcd_readByte(side);                         // Need two reads to get data
 229:HDM64GS12.c   ****    data = glcd_readByte(side);                  //  at new address
 230:HDM64GS12.c   **** 
 231:HDM64GS12.c   ****    if(color == ON)
 232:HDM64GS12.c   ****       bit_set(data, y%8);        // Turn the pixel on
 233:HDM64GS12.c   ****    else                          // or
 234:HDM64GS12.c   ****       bit_clear(data, y%8);      // turn the pixel off
 235:HDM64GS12.c   **** 
 236:HDM64GS12.c   ****    output_low(GLCD_DI);          // Set for instruction
 237:HDM64GS12.c   ****    glcd_writeByte(side, x);      // Set the horizontal address
 238:HDM64GS12.c   ****    output_high(GLCD_DI);         // Set for data
 239:HDM64GS12.c   ****    glcd_writeByte(side, data);   // Write the pixel data
 240:HDM64GS12.c   **** }
 241:HDM64GS12.c   **** #endif
 242:HDM64GS12.c   **** 
 243:HDM64GS12.c   **** 
 244:HDM64GS12.c   **** // Purpose:    Fill the LCD screen with the passed in color
ARM GAS  C:\Users\USUARIO\AppData\Local\Temp\cc1DyRb0.s 			page 7


 245:HDM64GS12.c   **** // Inputs:     ON  - turn all the pixels on
 246:HDM64GS12.c   **** //             OFF - turn all the pixels off
 247:HDM64GS12.c   **** void glcd_fillScreen(short color)
 248:HDM64GS12.c   **** #ifdef FAST_GLCD
 249:HDM64GS12.c   **** {
  99              		.loc 1 249 0
 100              		.cfi_startproc
 101              		@ args = 0, pretend = 0, frame = 0
 102              		@ frame_needed = 0, uses_anonymous_args = 0
 103              		@ link register save eliminated.
 104              	.LVL14:
 250:HDM64GS12.c   ****    uint8  data;
 251:HDM64GS12.c   ****    uint8  *p1, *p2;
 252:HDM64GS12.c   ****    uint16 i;
 253:HDM64GS12.c   **** 
 254:HDM64GS12.c   ****    p1 = displayData.left;
 255:HDM64GS12.c   ****    p2 = displayData.right;
 256:HDM64GS12.c   ****    data = 0xFF * color;
 105              		.loc 1 256 0
 106 0000 4042     		negs	r0, r0
 107              	.LVL15:
 108 0002 C0B2     		uxtb	r0, r0
 109              	.LVL16:
 257:HDM64GS12.c   **** 
 258:HDM64GS12.c   ****    for(i=0; i<512; ++i)
 110              		.loc 1 258 0
 111 0004 0023     		movs	r3, #0
 255:HDM64GS12.c   ****    data = 0xFF * color;
 112              		.loc 1 255 0
 113 0006 074A     		ldr	r2, .L11
 114              	.LVL17:
 254:HDM64GS12.c   ****    p2 = displayData.right;
 115              		.loc 1 254 0
 116 0008 A2F50071 		sub	r1, r2, #512
 117              		.loc 1 258 0
 118 000c 05E0     		b	.L9
 119              	.LVL18:
 120              	.L10:
 259:HDM64GS12.c   ****    {
 260:HDM64GS12.c   ****       *p1++ = data;
 121              		.loc 1 260 0 discriminator 3
 122 000e 0870     		strb	r0, [r1]
 123              	.LVL19:
 261:HDM64GS12.c   ****       *p2++ = data;
 124              		.loc 1 261 0 discriminator 3
 125 0010 1070     		strb	r0, [r2]
 258:HDM64GS12.c   ****    {
 126              		.loc 1 258 0 discriminator 3
 127 0012 0133     		adds	r3, r3, #1
 128              	.LVL20:
 129 0014 9BB2     		uxth	r3, r3
 130              	.LVL21:
 131              		.loc 1 261 0 discriminator 3
 132 0016 0132     		adds	r2, r2, #1
 133              	.LVL22:
 260:HDM64GS12.c   ****       *p2++ = data;
 134              		.loc 1 260 0 discriminator 3
ARM GAS  C:\Users\USUARIO\AppData\Local\Temp\cc1DyRb0.s 			page 8


 135 0018 0131     		adds	r1, r1, #1
 136              	.LVL23:
 137              	.L9:
 258:HDM64GS12.c   ****    {
 138              		.loc 1 258 0 discriminator 1
 139 001a B3F5007F 		cmp	r3, #512
 140 001e F6D3     		bcc	.L10
 262:HDM64GS12.c   ****    }
 263:HDM64GS12.c   **** }
 141              		.loc 1 263 0
 142 0020 7047     		bx	lr
 143              	.L12:
 144 0022 00BF     		.align	2
 145              	.L11:
 146 0024 00020000 		.word	displayData+512
 147              		.cfi_endproc
 148              	.LFE66:
 149              		.size	glcd_fillScreen, .-glcd_fillScreen
 150              		.section	.text.glcd_writeByte,"ax",%progbits
 151              		.align	2
 152              		.global	glcd_writeByte
 153              		.thumb
 154              		.thumb_func
 155              		.type	glcd_writeByte, %function
 156              	glcd_writeByte:
 157              	.LFB67:
 264:HDM64GS12.c   **** #else
 265:HDM64GS12.c   **** {
 266:HDM64GS12.c   ****    int8 i, j;
 267:HDM64GS12.c   **** 
 268:HDM64GS12.c   ****    // Loop through the vertical pages
 269:HDM64GS12.c   ****    for(i = 0; i < 8; ++i)
 270:HDM64GS12.c   ****    {
 271:HDM64GS12.c   ****       output_low(GLCD_DI);                      // Set for instruction
 272:HDM64GS12.c   ****       glcd_writeByte(GLCD_LEFT, 0b01000000);    // Set horizontal address to 0
 273:HDM64GS12.c   ****       glcd_writeByte(GLCD_RIGHT, 0b01000000);
 274:HDM64GS12.c   ****       glcd_writeByte(GLCD_LEFT, i | 0b10111000);// Set page address
 275:HDM64GS12.c   ****       glcd_writeByte(GLCD_RIGHT, i | 0b10111000);
 276:HDM64GS12.c   ****       output_high(GLCD_DI);                     // Set for data
 277:HDM64GS12.c   **** 
 278:HDM64GS12.c   ****       // Loop through the horizontal sections
 279:HDM64GS12.c   ****       for(j = 0; j < 64; ++j)
 280:HDM64GS12.c   ****       {
 281:HDM64GS12.c   ****          glcd_writeByte(GLCD_LEFT, 0xFF*color);  // Turn pixels on or off
 282:HDM64GS12.c   ****          glcd_writeByte(GLCD_RIGHT, 0xFF*color); // Turn pixels on or off
 283:HDM64GS12.c   ****       }
 284:HDM64GS12.c   ****    }
 285:HDM64GS12.c   **** }
 286:HDM64GS12.c   **** #endif
 287:HDM64GS12.c   **** 
 288:HDM64GS12.c   **** 
 289:HDM64GS12.c   **** // Purpose:    Write a byte of data to the specified chip
 290:HDM64GS12.c   **** // Inputs:     1) chipSelect - which chip to write the data to
 291:HDM64GS12.c   **** //             2) data - the byte of data to write
 292:HDM64GS12.c   **** void glcd_writeByte(short side, uint8 data)
 293:HDM64GS12.c   **** {
 158              		.loc 1 293 0
ARM GAS  C:\Users\USUARIO\AppData\Local\Temp\cc1DyRb0.s 			page 9


 159              		.cfi_startproc
 160              		@ args = 0, pretend = 0, frame = 0
 161              		@ frame_needed = 0, uses_anonymous_args = 0
 162              	.LVL24:
 163 0000 10B5     		push	{r4, lr}
 164              		.cfi_def_cfa_offset 8
 165              		.cfi_offset 4, -8
 166              		.cfi_offset 14, -4
 167 0002 0C46     		mov	r4, r1
 294:HDM64GS12.c   ****    if(side)                   // Choose which side to write to
 168              		.loc 1 294 0
 169 0004 18B1     		cbz	r0, .L14
 295:HDM64GS12.c   ****       //output_high(GLCD_CS2);
 296:HDM64GS12.c   ****       GLCD_CS2_Write(1);  
 170              		.loc 1 296 0
 171 0006 0120     		movs	r0, #1
 172              	.LVL25:
 173 0008 FFF7FEFF 		bl	GLCD_CS2_Write
 174              	.LVL26:
 175 000c 02E0     		b	.L15
 176              	.LVL27:
 177              	.L14:
 297:HDM64GS12.c   ****    else
 298:HDM64GS12.c   ****       //output_high(GLCD_CS1);
 299:HDM64GS12.c   ****       GLCD_CS1_Write(1);  
 178              		.loc 1 299 0
 179 000e 0120     		movs	r0, #1
 180              	.LVL28:
 181 0010 FFF7FEFF 		bl	GLCD_CS1_Write
 182              	.LVL29:
 183              	.L15:
 300:HDM64GS12.c   **** 
 301:HDM64GS12.c   ****    //output_low(GLCD_RW);       // Set for writing
 302:HDM64GS12.c   ****    GLCD_RW_Write(0);  
 184              		.loc 1 302 0
 185 0014 0020     		movs	r0, #0
 186 0016 FFF7FEFF 		bl	GLCD_RW_Write
 187              	.LVL30:
 303:HDM64GS12.c   ****    //output_d(data);            // Put the data on the port
 304:HDM64GS12.c   ****    Control_Reg_Write(data);
 188              		.loc 1 304 0
 189 001a 2046     		mov	r0, r4
 190 001c FFF7FEFF 		bl	Control_Reg_Write
 191              	.LVL31:
 305:HDM64GS12.c   ****    //delay_cycles(1);
 306:HDM64GS12.c   ****    CyDelayCycles(1);
 192              		.loc 1 306 0
 193 0020 0120     		movs	r0, #1
 194 0022 FFF7FEFF 		bl	CyDelayCycles
 195              	.LVL32:
 307:HDM64GS12.c   ****    //output_high(GLCD_E);       // Pulse the enable pin
 308:HDM64GS12.c   ****    GLCD_E_Write(1);  
 196              		.loc 1 308 0
 197 0026 0120     		movs	r0, #1
 198 0028 FFF7FEFF 		bl	GLCD_E_Write
 199              	.LVL33:
 309:HDM64GS12.c   ****    //delay_cycles(5);
ARM GAS  C:\Users\USUARIO\AppData\Local\Temp\cc1DyRb0.s 			page 10


 310:HDM64GS12.c   ****    CyDelayCycles(5);
 200              		.loc 1 310 0
 201 002c 0520     		movs	r0, #5
 202 002e FFF7FEFF 		bl	CyDelayCycles
 203              	.LVL34:
 311:HDM64GS12.c   ****    //output_low(GLCD_E);
 312:HDM64GS12.c   ****    GLCD_E_Write(0);  
 204              		.loc 1 312 0
 205 0032 0020     		movs	r0, #0
 206 0034 FFF7FEFF 		bl	GLCD_E_Write
 207              	.LVL35:
 313:HDM64GS12.c   **** 
 314:HDM64GS12.c   ****    //output_low(GLCD_CS1);      // Reset the chip select lines
 315:HDM64GS12.c   ****    //output_low(GLCD_CS2);
 316:HDM64GS12.c   ****    GLCD_CS1_Write(0);  
 208              		.loc 1 316 0
 209 0038 0020     		movs	r0, #0
 210 003a FFF7FEFF 		bl	GLCD_CS1_Write
 211              	.LVL36:
 317:HDM64GS12.c   ****    GLCD_CS2_Write(0);   
 212              		.loc 1 317 0
 213 003e 0020     		movs	r0, #0
 214 0040 FFF7FEFF 		bl	GLCD_CS2_Write
 215              	.LVL37:
 216 0044 10BD     		pop	{r4, pc}
 217              		.cfi_endproc
 218              	.LFE67:
 219              		.size	glcd_writeByte, .-glcd_writeByte
 220              		.section	.text.glcd_update,"ax",%progbits
 221              		.align	2
 222              		.global	glcd_update
 223              		.thumb
 224              		.thumb_func
 225              		.type	glcd_update, %function
 226              	glcd_update:
 227              	.LFB64:
 149:HDM64GS12.c   ****    uint8 i, j;
 228              		.loc 1 149 0
 229              		.cfi_startproc
 230              		@ args = 0, pretend = 0, frame = 0
 231              		@ frame_needed = 0, uses_anonymous_args = 0
 232 0000 2DE9F041 		push	{r4, r5, r6, r7, r8, lr}
 233              		.cfi_def_cfa_offset 24
 234              		.cfi_offset 4, -24
 235              		.cfi_offset 5, -20
 236              		.cfi_offset 6, -16
 237              		.cfi_offset 7, -12
 238              		.cfi_offset 8, -8
 239              		.cfi_offset 14, -4
 240              	.LVL38:
 154:HDM64GS12.c   **** 
 241              		.loc 1 154 0
 242 0004 1C4D     		ldr	r5, .L23
 243              	.LVL39:
 153:HDM64GS12.c   ****    p2 = displayData.right;
 244              		.loc 1 153 0
 245 0006 A5F50076 		sub	r6, r5, #512
ARM GAS  C:\Users\USUARIO\AppData\Local\Temp\cc1DyRb0.s 			page 11


 157:HDM64GS12.c   ****    {
 246              		.loc 1 157 0
 247 000a 4FF00008 		mov	r8, #0
 248 000e 2DE0     		b	.L18
 249              	.LVL40:
 250              	.L21:
 160:HDM64GS12.c   ****       glcd_writeByte(GLCD_LEFT, 0x40);          // Set horizontal address to 0
 251              		.loc 1 160 0
 252 0010 0020     		movs	r0, #0
 253 0012 FFF7FEFF 		bl	GLCD_DI_Write
 254              	.LVL41:
 161:HDM64GS12.c   ****       glcd_writeByte(GLCD_RIGH, 0x40);
 255              		.loc 1 161 0
 256 0016 4021     		movs	r1, #64
 257 0018 0020     		movs	r0, #0
 258 001a FFF7FEFF 		bl	glcd_writeByte
 259              	.LVL42:
 162:HDM64GS12.c   ****       glcd_writeByte(GLCD_LEFT, i | 0xB8);      // Set page address
 260              		.loc 1 162 0
 261 001e 4021     		movs	r1, #64
 262 0020 0120     		movs	r0, #1
 263 0022 FFF7FEFF 		bl	glcd_writeByte
 264              	.LVL43:
 163:HDM64GS12.c   ****       glcd_writeByte(GLCD_RIGH, i | 0xB8);
 265              		.loc 1 163 0
 266 0026 48F0B804 		orr	r4, r8, #184
 267 002a 2146     		mov	r1, r4
 268 002c 0020     		movs	r0, #0
 269 002e FFF7FEFF 		bl	glcd_writeByte
 270              	.LVL44:
 164:HDM64GS12.c   ****       //output_high(GLCD_DI);                     // Set for data
 271              		.loc 1 164 0
 272 0032 2146     		mov	r1, r4
 273 0034 0120     		movs	r0, #1
 274 0036 FFF7FEFF 		bl	glcd_writeByte
 275              	.LVL45:
 166:HDM64GS12.c   **** 
 276              		.loc 1 166 0
 277 003a 0120     		movs	r0, #1
 278 003c FFF7FEFF 		bl	GLCD_DI_Write
 279              	.LVL46:
 169:HDM64GS12.c   ****       {
 280              		.loc 1 169 0
 281 0040 0024     		movs	r4, #0
 282 0042 0DE0     		b	.L19
 283              	.LVL47:
 284              	.L20:
 171:HDM64GS12.c   ****          glcd_writeByte(GLCD_RIGH, *p2++);     // Turn pixels on or off
 285              		.loc 1 171 0 discriminator 3
 286 0044 771C     		adds	r7, r6, #1
 287              	.LVL48:
 288 0046 3178     		ldrb	r1, [r6]	@ zero_extendqisi2
 289 0048 0020     		movs	r0, #0
 290 004a FFF7FEFF 		bl	glcd_writeByte
 291              	.LVL49:
 172:HDM64GS12.c   ****       }
 292              		.loc 1 172 0 discriminator 3
ARM GAS  C:\Users\USUARIO\AppData\Local\Temp\cc1DyRb0.s 			page 12


 293 004e 6E1C     		adds	r6, r5, #1
 294              	.LVL50:
 295 0050 2978     		ldrb	r1, [r5]	@ zero_extendqisi2
 296 0052 0120     		movs	r0, #1
 297 0054 FFF7FEFF 		bl	glcd_writeByte
 298              	.LVL51:
 169:HDM64GS12.c   ****       {
 299              		.loc 1 169 0 discriminator 3
 300 0058 0134     		adds	r4, r4, #1
 301              	.LVL52:
 302 005a E4B2     		uxtb	r4, r4
 303              	.LVL53:
 172:HDM64GS12.c   ****       }
 304              		.loc 1 172 0 discriminator 3
 305 005c 3546     		mov	r5, r6
 171:HDM64GS12.c   ****          glcd_writeByte(GLCD_RIGH, *p2++);     // Turn pixels on or off
 306              		.loc 1 171 0 discriminator 3
 307 005e 3E46     		mov	r6, r7
 308              	.LVL54:
 309              	.L19:
 169:HDM64GS12.c   ****       {
 310              		.loc 1 169 0 discriminator 1
 311 0060 3F2C     		cmp	r4, #63
 312 0062 EFD9     		bls	.L20
 157:HDM64GS12.c   ****    {
 313              		.loc 1 157 0 discriminator 2
 314 0064 08F10108 		add	r8, r8, #1
 315              	.LVL55:
 316 0068 5FFA88F8 		uxtb	r8, r8
 317              	.LVL56:
 318              	.L18:
 157:HDM64GS12.c   ****    {
 319              		.loc 1 157 0 is_stmt 0 discriminator 1
 320 006c B8F1070F 		cmp	r8, #7
 321 0070 CED9     		bls	.L21
 175:HDM64GS12.c   **** #endif
 322              		.loc 1 175 0 is_stmt 1
 323 0072 BDE8F081 		pop	{r4, r5, r6, r7, r8, pc}
 324              	.LVL57:
 325              	.L24:
 326 0076 00BF     		.align	2
 327              	.L23:
 328 0078 00020000 		.word	displayData+512
 329              		.cfi_endproc
 330              	.LFE64:
 331              		.size	glcd_update, .-glcd_update
 332              		.section	.text.glcd_init,"ax",%progbits
 333              		.align	2
 334              		.global	glcd_init
 335              		.thumb
 336              		.thumb_func
 337              		.type	glcd_init, %function
 338              	glcd_init:
 339              	.LFB63:
 106:HDM64GS12.c   ****    // Initialze some pins
 340              		.loc 1 106 0
 341              		.cfi_startproc
ARM GAS  C:\Users\USUARIO\AppData\Local\Temp\cc1DyRb0.s 			page 13


 342              		@ args = 0, pretend = 0, frame = 0
 343              		@ frame_needed = 0, uses_anonymous_args = 0
 344              	.LVL58:
 345 0000 10B5     		push	{r4, lr}
 346              		.cfi_def_cfa_offset 8
 347              		.cfi_offset 4, -8
 348              		.cfi_offset 14, -4
 349 0002 0446     		mov	r4, r0
 112:HDM64GS12.c   ****    GLCD_E_Write(0);
 350              		.loc 1 112 0
 351 0004 0120     		movs	r0, #1
 352              	.LVL59:
 353 0006 FFF7FEFF 		bl	GLCD_RST_Write
 354              	.LVL60:
 113:HDM64GS12.c   ****    GLCD_CS1_Write(0);
 355              		.loc 1 113 0
 356 000a 0020     		movs	r0, #0
 357 000c FFF7FEFF 		bl	GLCD_E_Write
 358              	.LVL61:
 114:HDM64GS12.c   ****    GLCD_CS2_Write(0);
 359              		.loc 1 114 0
 360 0010 0020     		movs	r0, #0
 361 0012 FFF7FEFF 		bl	GLCD_CS1_Write
 362              	.LVL62:
 115:HDM64GS12.c   ****    
 363              		.loc 1 115 0
 364 0016 0020     		movs	r0, #0
 365 0018 FFF7FEFF 		bl	GLCD_CS2_Write
 366              	.LVL63:
 119:HDM64GS12.c   ****    glcd_writeByte(GLCD_LEFT,  0xC0);    // Specify first RAM line at the top
 367              		.loc 1 119 0
 368 001c 0020     		movs	r0, #0
 369 001e FFF7FEFF 		bl	GLCD_DI_Write
 370              	.LVL64:
 120:HDM64GS12.c   ****    glcd_writeByte(GLCD_RIGH, 0xC0);    //   of the screen
 371              		.loc 1 120 0
 372 0022 C021     		movs	r1, #192
 373 0024 0020     		movs	r0, #0
 374 0026 FFF7FEFF 		bl	glcd_writeByte
 375              	.LVL65:
 121:HDM64GS12.c   ****    glcd_writeByte(GLCD_LEFT,  0x40);    // Set the column address to 0
 376              		.loc 1 121 0
 377 002a C021     		movs	r1, #192
 378 002c 0120     		movs	r0, #1
 379 002e FFF7FEFF 		bl	glcd_writeByte
 380              	.LVL66:
 122:HDM64GS12.c   ****    glcd_writeByte(GLCD_RIGH, 0x40);
 381              		.loc 1 122 0
 382 0032 4021     		movs	r1, #64
 383 0034 0020     		movs	r0, #0
 384 0036 FFF7FEFF 		bl	glcd_writeByte
 385              	.LVL67:
 123:HDM64GS12.c   ****    glcd_writeByte(GLCD_LEFT,  0xB8);    // Set the page address to 0
 386              		.loc 1 123 0
 387 003a 4021     		movs	r1, #64
 388 003c 0120     		movs	r0, #1
 389 003e FFF7FEFF 		bl	glcd_writeByte
ARM GAS  C:\Users\USUARIO\AppData\Local\Temp\cc1DyRb0.s 			page 14


 390              	.LVL68:
 124:HDM64GS12.c   ****    glcd_writeByte(GLCD_RIGH, 0xB8);
 391              		.loc 1 124 0
 392 0042 B821     		movs	r1, #184
 393 0044 0020     		movs	r0, #0
 394 0046 FFF7FEFF 		bl	glcd_writeByte
 395              	.LVL69:
 125:HDM64GS12.c   **** 
 396              		.loc 1 125 0
 397 004a B821     		movs	r1, #184
 398 004c 0120     		movs	r0, #1
 399 004e FFF7FEFF 		bl	glcd_writeByte
 400              	.LVL70:
 127:HDM64GS12.c   ****    {
 401              		.loc 1 127 0
 402 0052 012C     		cmp	r4, #1
 403 0054 08D1     		bne	.L26
 129:HDM64GS12.c   ****       glcd_writeByte(GLCD_RIGH, 0x3F);
 404              		.loc 1 129 0
 405 0056 3F21     		movs	r1, #63
 406 0058 0020     		movs	r0, #0
 407 005a FFF7FEFF 		bl	glcd_writeByte
 408              	.LVL71:
 130:HDM64GS12.c   ****    }
 409              		.loc 1 130 0
 410 005e 3F21     		movs	r1, #63
 411 0060 0120     		movs	r0, #1
 412 0062 FFF7FEFF 		bl	glcd_writeByte
 413              	.LVL72:
 414 0066 07E0     		b	.L27
 415              	.L26:
 134:HDM64GS12.c   ****       glcd_writeByte(GLCD_RIGH, 0x3E);
 416              		.loc 1 134 0
 417 0068 3E21     		movs	r1, #62
 418 006a 0020     		movs	r0, #0
 419 006c FFF7FEFF 		bl	glcd_writeByte
 420              	.LVL73:
 135:HDM64GS12.c   ****    }
 421              		.loc 1 135 0
 422 0070 3E21     		movs	r1, #62
 423 0072 0120     		movs	r0, #1
 424 0074 FFF7FEFF 		bl	glcd_writeByte
 425              	.LVL74:
 426              	.L27:
 138:HDM64GS12.c   **** 
 427              		.loc 1 138 0
 428 0078 0020     		movs	r0, #0
 429 007a FFF7FEFF 		bl	glcd_fillScreen
 430              	.LVL75:
 141:HDM64GS12.c   ****    #endif
 431              		.loc 1 141 0
 432 007e FFF7FEFF 		bl	glcd_update
 433              	.LVL76:
 434 0082 10BD     		pop	{r4, pc}
 435              		.cfi_endproc
 436              	.LFE63:
 437              		.size	glcd_init, .-glcd_init
ARM GAS  C:\Users\USUARIO\AppData\Local\Temp\cc1DyRb0.s 			page 15


 438              		.section	.text.glcd_readByte,"ax",%progbits
 439              		.align	2
 440              		.global	glcd_readByte
 441              		.thumb
 442              		.thumb_func
 443              		.type	glcd_readByte, %function
 444              	glcd_readByte:
 445              	.LFB68:
 318:HDM64GS12.c   **** }
 319:HDM64GS12.c   **** 
 320:HDM64GS12.c   **** 
 321:HDM64GS12.c   **** // Purpose:    Reads a byte of data from the specified chip
 322:HDM64GS12.c   **** // Ouputs:     A byte of data read from the chip
 323:HDM64GS12.c   **** uint8 glcd_readByte(short side)
 324:HDM64GS12.c   **** {
 446              		.loc 1 324 0
 447              		.cfi_startproc
 448              		@ args = 0, pretend = 0, frame = 0
 449              		@ frame_needed = 0, uses_anonymous_args = 0
 450              	.LVL77:
 451 0000 10B5     		push	{r4, lr}
 452              		.cfi_def_cfa_offset 8
 453              		.cfi_offset 4, -8
 454              		.cfi_offset 14, -4
 455 0002 0446     		mov	r4, r0
 325:HDM64GS12.c   ****    uint8 data;                 // Stores the data read from the LCD
 326:HDM64GS12.c   **** 
 327:HDM64GS12.c   ****    //set_tris_d(0xFF);          // Set port d to input   
 328:HDM64GS12.c   ****    //output_high(GLCD_RW);      // Set for reading
 329:HDM64GS12.c   ****     GLCD_RW_Write(1);  
 456              		.loc 1 329 0
 457 0004 0120     		movs	r0, #1
 458              	.LVL78:
 459 0006 FFF7FEFF 		bl	GLCD_RW_Write
 460              	.LVL79:
 330:HDM64GS12.c   **** 
 331:HDM64GS12.c   ****    if(side)                   // Choose which side to write to
 461              		.loc 1 331 0
 462 000a 1CB1     		cbz	r4, .L30
 332:HDM64GS12.c   ****       //output_high(GLCD_CS2);
 333:HDM64GS12.c   ****       GLCD_CS2_Write(1);  
 463              		.loc 1 333 0
 464 000c 0120     		movs	r0, #1
 465 000e FFF7FEFF 		bl	GLCD_CS2_Write
 466              	.LVL80:
 467 0012 02E0     		b	.L31
 468              	.L30:
 334:HDM64GS12.c   ****    else
 335:HDM64GS12.c   ****       //output_high(GLCD_CS1);
 336:HDM64GS12.c   ****       GLCD_CS1_Write(1);  
 469              		.loc 1 336 0
 470 0014 0120     		movs	r0, #1
 471 0016 FFF7FEFF 		bl	GLCD_CS1_Write
 472              	.LVL81:
 473              	.L31:
 337:HDM64GS12.c   **** 
 338:HDM64GS12.c   ****    //delay_cycles(1);
ARM GAS  C:\Users\USUARIO\AppData\Local\Temp\cc1DyRb0.s 			page 16


 339:HDM64GS12.c   ****     CyDelayCycles(1);
 474              		.loc 1 339 0
 475 001a 0120     		movs	r0, #1
 476 001c FFF7FEFF 		bl	CyDelayCycles
 477              	.LVL82:
 340:HDM64GS12.c   ****    //output_high(GLCD_E);       // Pulse the enable pin
 341:HDM64GS12.c   ****     GLCD_E_Write(1);  
 478              		.loc 1 341 0
 479 0020 0120     		movs	r0, #1
 480 0022 FFF7FEFF 		bl	GLCD_E_Write
 481              	.LVL83:
 342:HDM64GS12.c   ****    //delay_cycles(4);
 343:HDM64GS12.c   ****     CyDelayCycles(4);
 482              		.loc 1 343 0
 483 0026 0420     		movs	r0, #4
 484 0028 FFF7FEFF 		bl	CyDelayCycles
 485              	.LVL84:
 344:HDM64GS12.c   ****    //data = input_d();          // Get the data from the display's output register
 345:HDM64GS12.c   ****     data=Control_Reg_Read();  
 486              		.loc 1 345 0
 487 002c FFF7FEFF 		bl	Control_Reg_Read
 488              	.LVL85:
 489 0030 0446     		mov	r4, r0
 490              	.LVL86:
 346:HDM64GS12.c   ****    //output_low(GLCD_E);
 347:HDM64GS12.c   ****     GLCD_E_Write(0);  
 491              		.loc 1 347 0
 492 0032 0020     		movs	r0, #0
 493 0034 FFF7FEFF 		bl	GLCD_E_Write
 494              	.LVL87:
 348:HDM64GS12.c   **** 
 349:HDM64GS12.c   ****    //output_low(GLCD_CS1);      // Reset the chip select lines
 350:HDM64GS12.c   ****    //output_low(GLCD_CS2);
 351:HDM64GS12.c   ****     GLCD_CS1_Write(0);  
 495              		.loc 1 351 0
 496 0038 0020     		movs	r0, #0
 497 003a FFF7FEFF 		bl	GLCD_CS1_Write
 498              	.LVL88:
 352:HDM64GS12.c   ****     GLCD_CS2_Write(0);  
 499              		.loc 1 352 0
 500 003e 0020     		movs	r0, #0
 501 0040 FFF7FEFF 		bl	GLCD_CS2_Write
 502              	.LVL89:
 353:HDM64GS12.c   ****    return data;               // Return the read data
 354:HDM64GS12.c   **** }
 503              		.loc 1 354 0
 504 0044 2046     		mov	r0, r4
 505 0046 10BD     		pop	{r4, pc}
 506              		.cfi_endproc
 507              	.LFE68:
 508              		.size	glcd_readByte, .-glcd_readByte
 509              		.comm	displayData,1024,4
 510              		.text
 511              	.Letext0:
 512              		.file 2 "c:\\program files (x86)\\cypress\\psoc creator\\4.3\\psoc creator\\import\\gnu\\arm\\5.4.
 513              		.file 3 "c:\\program files (x86)\\cypress\\psoc creator\\4.3\\psoc creator\\import\\gnu\\arm\\5.4.
 514              		.file 4 "Generated_Source\\PSoC5/cytypes.h"
ARM GAS  C:\Users\USUARIO\AppData\Local\Temp\cc1DyRb0.s 			page 17


 515              		.file 5 "Generated_Source\\PSoC5/core_cm3.h"
 516              		.file 6 "Generated_Source\\PSoC5/GLCD_CS2.h"
 517              		.file 7 "Generated_Source\\PSoC5/GLCD_CS1.h"
 518              		.file 8 "Generated_Source\\PSoC5/GLCD_RW.h"
 519              		.file 9 "Generated_Source\\PSoC5/Control_Reg.h"
 520              		.file 10 "Generated_Source\\PSoC5/CyLib.h"
 521              		.file 11 "Generated_Source\\PSoC5/GLCD_E.h"
 522              		.file 12 "Generated_Source\\PSoC5/GLCD_DI.h"
 523              		.file 13 "Generated_Source\\PSoC5/GLCD_RST.h"