CCS PCH C Compiler, Version 4.104, 5967               13-oct.-20 16:22

               Filename: D:\Laboratorio\Mufla\2020\Mufla 2.2L Avantika #004588378-79 OP202094-95\Firmware\Firmware_V2_AjustePendiente\Mufla.lst

               ROM used: 56558 bytes (58%)
                         Largest free fragment is 32768
               RAM used: 2315 (70%) at main() level
                         2373 (71%) worst case
               Stack:    6 worst case (5 in main + 1 for interrupts)

*
00000:  GOTO   6FFA
*
00008:  MOVWF  04
0000A:  MOVFF  FD8,05
0000E:  MOVFF  FE0,06
00012:  MOVLB  0
00014:  MOVFF  FE9,0C
00018:  MOVFF  FEA,07
0001C:  MOVFF  FE1,08
00020:  MOVFF  FE2,09
00024:  MOVFF  FD9,0A
00028:  MOVFF  FDA,0B
0002C:  MOVFF  FF3,12
00030:  MOVFF  FF4,13
00034:  MOVFF  FFA,14
00038:  MOVFF  FFB,15
0003C:  MOVFF  00,0E
00040:  MOVFF  01,0F
00044:  MOVFF  02,10
00048:  MOVFF  03,11
0004C:  BTFSS  F9D.0
0004E:  GOTO   0058
00052:  BTFSC  F9E.0
00054:  GOTO   12F0
00058:  MOVFF  0E,00
0005C:  MOVFF  0F,01
00060:  MOVFF  10,02
00064:  MOVFF  11,03
00068:  MOVFF  0C,FE9
0006C:  MOVFF  07,FEA
00070:  BSF    07.7
00072:  MOVFF  08,FE1
00076:  MOVFF  09,FE2
0007A:  MOVFF  0A,FD9
0007E:  MOVFF  0B,FDA
00082:  MOVFF  12,FF3
00086:  MOVFF  13,FF4
0008A:  MOVFF  14,FFA
0008E:  MOVFF  15,FFB
00092:  MOVF   04,W
00094:  MOVFF  06,FE0
00098:  MOVFF  05,FD8
0009C:  RETFIE 0
.................... // Control para mufla con rampas  
.................... // Se pueden programar 5 Programas de 10 Segmentos cada Uno. 
.................... // En un segmento se puede programar una rampa o una meseta. 
....................  
....................  
.................... #include <18F4685.h> 
.................... //////// Standard Header file for the PIC18F4685 device //////////////// 
.................... #device PIC18F4685 
.................... #list 
....................  
.................... #device adc=10 
.................... #fuses HS,NOWDT,NOPROTECT,NOLVP,NODEBUG,NOSTVREN,NOPUT,NOCPD,NOWRT,NOIESO,NOFCMEN,NOPBADEN,NOWRTC,NOWRTB,NOEBTR,NOEBTRB,NOCPB,NOXINST,NOLPT1OSC,NOMCLR 
.................... #use delay(clock=20000000) 
*
013A4:  MOVLW  09
013A6:  MOVWF  FEA
013A8:  MOVLW  1D
013AA:  MOVWF  FE9
013AC:  MOVF   FEF,W
013AE:  BZ    13CA
013B0:  MOVLW  06
013B2:  MOVWF  01
013B4:  CLRF   00
013B6:  DECFSZ 00,F
013B8:  BRA    13B6
013BA:  DECFSZ 01,F
013BC:  BRA    13B4
013BE:  MOVLW  7B
013C0:  MOVWF  00
013C2:  DECFSZ 00,F
013C4:  BRA    13C2
013C6:  DECFSZ FEF,F
013C8:  BRA    13B0
013CA:  RETLW  00
.................... #use i2c(Master,slow,sda=PIN_C4,scl=PIN_C3) 
*
03846:  MOVLW  08
03848:  MOVWF  01
0384A:  MOVLW  05
0384C:  MOVWF  00
0384E:  DECFSZ 00,F
03850:  BRA    384E
03852:  BCF    F8B.3
03854:  BCF    F94.3
03856:  MOVLW  06
03858:  MOVWF  00
0385A:  DECFSZ 00,F
0385C:  BRA    385A
0385E:  MOVLB  9
03860:  RLCF   x0B,F
03862:  BCF    F8B.4
03864:  BTFSC  FD8.0
03866:  BSF    F94.4
03868:  BTFSS  FD8.0
0386A:  BCF    F94.4
0386C:  BSF    F94.3
0386E:  BTFSS  F82.3
03870:  BRA    386E
03872:  DECFSZ 01,F
03874:  BRA    3878
03876:  BRA    387C
03878:  MOVLB  0
0387A:  BRA    384A
0387C:  MOVLW  05
0387E:  MOVWF  00
03880:  DECFSZ 00,F
03882:  BRA    3880
03884:  BCF    F8B.3
03886:  BCF    F94.3
03888:  NOP   
0388A:  BSF    F94.4
0388C:  MOVLW  06
0388E:  MOVWF  00
03890:  DECFSZ 00,F
03892:  BRA    3890
03894:  MOVLW  06
03896:  MOVWF  00
03898:  DECFSZ 00,F
0389A:  BRA    3898
0389C:  BSF    F94.3
0389E:  BTFSS  F82.3
038A0:  BRA    389E
038A2:  CLRF   01
038A4:  MOVLW  06
038A6:  MOVWF  00
038A8:  DECFSZ 00,F
038AA:  BRA    38A8
038AC:  BTFSC  F82.4
038AE:  BSF    01.0
038B0:  BCF    F8B.3
038B2:  BCF    F94.3
038B4:  BCF    F8B.4
038B6:  BCF    F94.4
038B8:  MOVLB  0
038BA:  RETLW  00
.................... #include "HDM64GS12.c" 
.................... ///////////////////////////////////////////////////////////////////////// 
.................... ////                           HDM64GS12.c                           //// 
.................... ////                                                                 //// 
.................... //// This file contains drivers for using a Hantronix HDM64GS12 with //// 
.................... //// a KS0108 display controller. The HDM64GS12 is 128 by 64 pixels. //// 
.................... //// The driver treats the upper left pixel as (0,0).                //// 
.................... ////                                                                 //// 
.................... //// Use #define FAST_GLCD if the target chip has at least 1k of RAM //// 
.................... //// to decrease the time it takes to update the display.            //// 
.................... //// glcd_update() must then be called to update the display after   //// 
.................... //// changing the pixel information.                                 //// 
.................... //// See ex_glcd.c for suggested usage.                              //// 
.................... //// See KS0108.c for controlling a single 64 by 64 display          //// 
.................... ///////////////////////////////////////////////////////////////////////// 
.................... ////                                                                 //// 
.................... //// LCD Pin connections:                                            //// 
.................... //// (These can be changed as needed in the following defines).      //// 
.................... ////  * 1: VSS is connected to GND                                   //// 
.................... ////  * 2: VDD is connected to +5V                                   //// 
.................... ////  * 3: V0  - LCD operating voltage (Constrast adjustment)        //// 
.................... ////  * 4: D/I - Data or Instruction is connected to B2              //// 
.................... ////  * 5: R/W - Read or Write is connected to B4                    //// 
.................... ////  * 6: Enable is connected to B5                                 //// 
.................... ////  *7-14: Data Bus 0 to 7 is connected to port d                  //// 
.................... ////  *15: Chip Select 1 is connected to B0                          //// 
.................... ////  *16: Chip Select 2 is connected to B1                          //// 
.................... ////  *17: Reset is connected to C0                                  //// 
.................... ////  *18: Negative voltage is also connected to the 20k Ohm POT     //// 
.................... ////  *19: Positive voltage for LED backlight is connected to +5V    //// 
.................... ////  *20: Negavtive voltage for LED backlight is connected to GND   //// 
.................... ////                                                                 //// 
.................... ///////////////////////////////////////////////////////////////////////// 
.................... ////                                                                 //// 
.................... ////  glcd_init(mode)                                                //// 
.................... ////     * Must be called before any other function.                 //// 
.................... ////       - mode can be ON or OFF to turn the LCD on or off         //// 
.................... ////                                                                 //// 
.................... ////  glcd_pixel(x,y,color)                                          //// 
.................... ////     * Sets the pixel to the given color.                        //// 
.................... ////       - color can be ON or OFF                                  //// 
.................... ////                                                                 //// 
.................... ////  glcd_fillScreen(color)                                         //// 
.................... ////     * Fills the entire LCD with the given color.                //// 
.................... ////       - color can be ON or OFF                                  //// 
.................... ////                                                                 //// 
.................... ////  glcd_update()                                                  //// 
.................... ////     * Write the display data stored in RAM to the LCD           //// 
.................... ////     * Only available if FAST_GLCD is defined                    //// 
.................... ////                                                                 //// 
.................... ///////////////////////////////////////////////////////////////////////// 
.................... ////        (C) Copyright 1996, 2004 Custom Computer Services        //// 
.................... //// This source code may only be used by licensed users of the CCS  //// 
.................... //// C compiler.  This source code may only be distributed to other  //// 
.................... //// licensed users of the CCS C compiler.  No other use,            //// 
.................... //// reproduction or distribution is permitted without written       //// 
.................... //// permission.  Derivative programs created using this software    //// 
.................... //// in object code form are not restricted in any way.              //// 
.................... ///////////////////////////////////////////////////////////////////////// 
....................  
....................  
....................  
.................... #ifndef HDM64GS12 
.................... #define HDM64GS12 
....................  
.................... #ifndef FAST_GLCD 
.................... #define FAST_GLCD 
....................  
.................... #ifndef GLCD_WIDTH 
.................... #define GLCD_WIDTH   128 
.................... #endif 
....................  
.................... #ifndef GLCD_CS1 
.................... #define GLCD_CS1     PIN_B2   // Chip Selection 1 
.................... #endif 
....................  
.................... #ifndef GLCD_CS2 
.................... #define GLCD_CS2     PIN_B3   // Chip Selection 2 
.................... #endif 
....................  
.................... #ifndef GLCD_DI 
.................... #define GLCD_DI      PIN_B5   // Data or Instruction input 
.................... #endif 
....................  
.................... #ifndef GLCD_RW 
.................... #define GLCD_RW      PIN_B6   // Read/Write 
.................... #endif 
....................  
.................... #ifndef GLCD_E 
.................... #define GLCD_E       PIN_B7   // Enable 
.................... #endif 
....................  
.................... #ifndef GLCD_RST 
.................... #define GLCD_RST     PIN_B4   // Reset 
.................... #endif 
....................  
.................... #define GLCD_LEFT    0 
.................... #define GLCD_RIGHT   1 
....................  
.................... #ifndef ON 
.................... #define ON           1 
.................... #endif 
....................  
.................... #ifndef OFF 
.................... #define OFF          0 
.................... #endif 
....................  
.................... ///////////////////////////////////////////////////////////////////////// 
.................... // Function Prototypes 
.................... ///////////////////////////////////////////////////////////////////////// 
.................... void glcd_init(int1 mode); 
.................... void glcd_pixel(int8 x, int8 y, int1 color); 
.................... void glcd_fillScreen(int1 color); 
.................... void glcd_writeByte(int1 side, BYTE data); 
.................... BYTE glcd_readByte(int1 side); 
.................... void glcd_update(); 
.................... ///////////////////////////////////////////////////////////////////////// 
....................  
.................... #ifdef FAST_GLCD 
.................... struct 
.................... { 
....................    int8 left[512]; 
....................    int8 right[512]; 
.................... } displayData; 
.................... #endif 
....................  
....................  
.................... // Purpose:       Initialize the LCD. 
.................... //                Call before using any other LCD function. 
.................... // Inputs:        OFF - Turns the LCD off 
.................... //                ON  - Turns the LCD on 
.................... void glcd_init(int1 mode) 
.................... { 
....................    // Initialze some pins 
....................    output_high(GLCD_RST); 
*
01536:  BCF    F93.4
01538:  BSF    F8A.4
....................    output_low(GLCD_E); 
0153A:  BCF    F93.7
0153C:  BCF    F8A.7
....................    output_low(GLCD_CS1); 
0153E:  BCF    F93.2
01540:  BCF    F8A.2
....................    output_low(GLCD_CS2); 
01542:  BCF    F93.3
01544:  BCF    F8A.3
....................  
....................    output_low(GLCD_DI);                 // Set for instruction 
01546:  BCF    F93.5
01548:  BCF    F8A.5
....................    glcd_writeByte(GLCD_LEFT,  0xC0);    // Specify first RAM line at the top 
0154A:  MOVLB  9
0154C:  CLRF   x24
0154E:  MOVLW  C0
01550:  MOVWF  x25
01552:  MOVLB  0
01554:  RCALL  13EE
....................    glcd_writeByte(GLCD_RIGHT, 0xC0);    //   of the screen 
01556:  MOVLW  01
01558:  MOVLB  9
0155A:  MOVWF  x24
0155C:  MOVLW  C0
0155E:  MOVWF  x25
01560:  MOVLB  0
01562:  RCALL  13EE
....................    glcd_writeByte(GLCD_LEFT,  0x40);    // Set the column address to 0 
01564:  MOVLB  9
01566:  CLRF   x24
01568:  MOVLW  40
0156A:  MOVWF  x25
0156C:  MOVLB  0
0156E:  RCALL  13EE
....................    glcd_writeByte(GLCD_RIGHT, 0x40); 
01570:  MOVLW  01
01572:  MOVLB  9
01574:  MOVWF  x24
01576:  MOVLW  40
01578:  MOVWF  x25
0157A:  MOVLB  0
0157C:  RCALL  13EE
....................    glcd_writeByte(GLCD_LEFT,  0xB8);    // Set the page address to 0 
0157E:  MOVLB  9
01580:  CLRF   x24
01582:  MOVLW  B8
01584:  MOVWF  x25
01586:  MOVLB  0
01588:  RCALL  13EE
....................    glcd_writeByte(GLCD_RIGHT, 0xB8); 
0158A:  MOVLW  01
0158C:  MOVLB  9
0158E:  MOVWF  x24
01590:  MOVLW  B8
01592:  MOVWF  x25
01594:  MOVLB  0
01596:  RCALL  13EE
....................  
....................    if(mode == ON) 
01598:  MOVLB  9
0159A:  DECFSZ x07,W
0159C:  BRA    15BA
....................    { 
....................       glcd_writeByte(GLCD_LEFT,  0x3F); // Turn the display on 
0159E:  CLRF   x24
015A0:  MOVLW  3F
015A2:  MOVWF  x25
015A4:  MOVLB  0
015A6:  RCALL  13EE
....................       glcd_writeByte(GLCD_RIGHT, 0x3F); 
015A8:  MOVLW  01
015AA:  MOVLB  9
015AC:  MOVWF  x24
015AE:  MOVLW  3F
015B0:  MOVWF  x25
015B2:  MOVLB  0
015B4:  RCALL  13EE
....................    } 
....................    else 
015B6:  BRA    15D2
015B8:  MOVLB  9
....................    { 
....................       glcd_writeByte(GLCD_LEFT,  0x3E); // Turn the display off 
015BA:  CLRF   x24
015BC:  MOVLW  3E
015BE:  MOVWF  x25
015C0:  MOVLB  0
015C2:  RCALL  13EE
....................       glcd_writeByte(GLCD_RIGHT, 0x3E); 
015C4:  MOVLW  01
015C6:  MOVLB  9
015C8:  MOVWF  x24
015CA:  MOVLW  3E
015CC:  MOVWF  x25
015CE:  MOVLB  0
015D0:  RCALL  13EE
....................    } 
....................  
....................    glcd_fillScreen(OFF);                // Clear the display 
015D2:  MOVLB  9
015D4:  CLRF   x0E
015D6:  MOVLB  0
015D8:  RCALL  1424
....................  
....................    #ifdef FAST_GLCD 
....................    glcd_update(); 
015DA:  RCALL  147E
....................    #endif 
.................... } 
015DC:  RETLW  00
....................  
....................  
.................... // Purpose:    Update the LCD with data from the display arrays 
.................... #ifdef FAST_GLCD 
.................... void glcd_update() 
.................... { 
....................    int8 i, j; 
....................    int8 *p1, *p2; 
....................  
....................    p1 = displayData.left; 
*
0147E:  MOVLB  9
01480:  CLRF   x20
01482:  MOVLW  17
01484:  MOVWF  x1F
....................    p2 = displayData.right; 
01486:  MOVLW  02
01488:  MOVWF  x22
0148A:  MOVLW  17
0148C:  MOVWF  x21
....................  
....................    // Loop through the vertical pages 
....................    for(i = 0; i < 8; ++i) 
0148E:  CLRF   x1D
01490:  MOVF   x1D,W
01492:  SUBLW  07
01494:  BNC   1532
....................    { 
....................       output_low(GLCD_DI);                      // Set for instruction 
01496:  BCF    F93.5
01498:  BCF    F8A.5
....................       glcd_writeByte(GLCD_LEFT, 0x40);          // Set horizontal address to 0 
0149A:  CLRF   x24
0149C:  MOVLW  40
0149E:  MOVWF  x25
014A0:  MOVLB  0
014A2:  RCALL  13EE
....................       glcd_writeByte(GLCD_RIGHT, 0x40); 
014A4:  MOVLW  01
014A6:  MOVLB  9
014A8:  MOVWF  x24
014AA:  MOVLW  40
014AC:  MOVWF  x25
014AE:  MOVLB  0
014B0:  RCALL  13EE
....................       glcd_writeByte(GLCD_LEFT, i | 0xB8);      // Set page address 
014B2:  MOVLB  9
014B4:  MOVF   x1D,W
014B6:  IORLW  B8
014B8:  MOVWF  x23
014BA:  CLRF   x24
014BC:  MOVWF  x25
014BE:  MOVLB  0
014C0:  RCALL  13EE
....................       glcd_writeByte(GLCD_RIGHT, i | 0xB8); 
014C2:  MOVLB  9
014C4:  MOVF   x1D,W
014C6:  IORLW  B8
014C8:  MOVWF  x23
014CA:  MOVLW  01
014CC:  MOVWF  x24
014CE:  MOVFF  923,925
014D2:  MOVLB  0
014D4:  RCALL  13EE
....................       output_high(GLCD_DI);                     // Set for data 
014D6:  BCF    F93.5
014D8:  BSF    F8A.5
....................  
....................       // Loop through the horizontal sections 
....................       for(j = 0; j < 64; ++j) 
014DA:  MOVLB  9
014DC:  CLRF   x1E
014DE:  MOVF   x1E,W
014E0:  SUBLW  3F
014E2:  BNC   152E
....................       { 
....................          glcd_writeByte(GLCD_LEFT, *p1++);      // Turn pixels on or off 
014E4:  MOVFF  920,03
014E8:  MOVF   x1F,W
014EA:  INCF   x1F,F
014EC:  BTFSC  FD8.2
014EE:  INCF   x20,F
014F0:  MOVWF  FE9
014F2:  MOVFF  03,FEA
014F6:  MOVFF  FEF,923
014FA:  CLRF   x24
014FC:  MOVFF  923,925
01500:  MOVLB  0
01502:  RCALL  13EE
....................          glcd_writeByte(GLCD_RIGHT, *p2++);     // Turn pixels on or off 
01504:  MOVLB  9
01506:  MOVFF  922,03
0150A:  MOVF   x21,W
0150C:  INCF   x21,F
0150E:  BTFSC  FD8.2
01510:  INCF   x22,F
01512:  MOVWF  FE9
01514:  MOVFF  03,FEA
01518:  MOVFF  FEF,923
0151C:  MOVLW  01
0151E:  MOVWF  x24
01520:  MOVFF  923,925
01524:  MOVLB  0
01526:  RCALL  13EE
....................       } 
01528:  MOVLB  9
0152A:  INCF   x1E,F
0152C:  BRA    14DE
....................    } 
0152E:  INCF   x1D,F
01530:  BRA    1490
.................... } 
01532:  MOVLB  0
01534:  RETLW  00
.................... #endif 
....................  
....................  
.................... // Purpose:    Turn a pixel on a graphic LCD on or off 
.................... // Inputs:     1) x - the x coordinate of the pixel 
.................... //             2) y - the y coordinate of the pixel 
.................... //             3) color - ON or OFF 
.................... void glcd_pixel(int8 x, int8 y, int1 color) 
.................... #ifdef FAST_GLCD 
.................... { 
....................    int8* p; 
....................    int16 temp; 
....................    temp =  y/8; 
*
015DE:  MOVLB  9
015E0:  CLRF   x41
015E2:  RRCF   x3C,W
015E4:  MOVWF  x40
015E6:  RRCF   x40,F
015E8:  RRCF   x40,F
015EA:  MOVLW  1F
015EC:  ANDWF  x40,F
....................    temp *= 64; 
015EE:  RLCF   x40,F
015F0:  RLCF   x41,F
015F2:  RLCF   x40,F
015F4:  RLCF   x41,F
015F6:  RLCF   x40,F
015F8:  RLCF   x41,F
015FA:  RLCF   x40,F
015FC:  RLCF   x41,F
015FE:  RLCF   x40,F
01600:  RLCF   x41,F
01602:  RLCF   x40,F
01604:  RLCF   x41,F
01606:  MOVLW  C0
01608:  ANDWF  x40,F
....................    temp += x; 
0160A:  MOVF   x3B,W
0160C:  ADDWF  x40,F
0160E:  MOVLW  00
01610:  ADDWFC x41,F
....................  
....................    if(x > 63) 
01612:  MOVF   x3B,W
01614:  SUBLW  3F
01616:  BC    1632
....................    { 
....................       p = displayData.right + temp - 64; 
01618:  MOVLW  17
0161A:  ADDWF  x40,W
0161C:  MOVWF  x42
0161E:  MOVLW  02
01620:  ADDWFC x41,W
01622:  MOVWF  x43
01624:  MOVLW  40
01626:  SUBWF  x42,W
01628:  MOVWF  x3E
0162A:  MOVLW  00
0162C:  SUBWFB x43,W
0162E:  MOVWF  x3F
....................    } 
....................    else 
01630:  BRA    163E
....................    { 
....................       p = displayData.left + temp; 
01632:  MOVLW  17
01634:  ADDWF  x40,W
01636:  MOVWF  x3E
01638:  MOVLW  00
0163A:  ADDWFC x41,W
0163C:  MOVWF  x3F
....................    } 
....................  
....................    if(color) 
0163E:  MOVF   x3D,F
01640:  BZ    166C
....................    { 
....................       bit_set(*p, y%8); 
01642:  MOVFF  93F,03
01646:  MOVFF  93E,FE9
0164A:  MOVFF  93F,FEA
0164E:  MOVF   x3C,W
01650:  ANDLW  07
01652:  MOVWF  x42
01654:  MOVLW  01
01656:  MOVWF  00
01658:  MOVF   x42,W
0165A:  MOVWF  01
0165C:  BZ    1666
0165E:  BCF    FD8.0
01660:  RLCF   00,F
01662:  DECFSZ 01,F
01664:  BRA    165E
01666:  MOVF   00,W
01668:  IORWF  FEF,F
....................    } 
....................    else 
0166A:  BRA    1696
....................    { 
....................       bit_clear(*p, y%8); 
0166C:  MOVFF  93F,03
01670:  MOVFF  93E,FE9
01674:  MOVFF  93F,FEA
01678:  MOVF   x3C,W
0167A:  ANDLW  07
0167C:  MOVWF  x42
0167E:  MOVLW  01
01680:  MOVWF  00
01682:  MOVF   x42,W
01684:  MOVWF  01
01686:  BZ    1690
01688:  BCF    FD8.0
0168A:  RLCF   00,F
0168C:  DECFSZ 01,F
0168E:  BRA    1688
01690:  MOVF   00,W
01692:  XORLW  FF
01694:  ANDWF  FEF,F
....................    } 
.................... } 
01696:  MOVLB  0
01698:  RETLW  00
.................... #else 
.................... { 
....................    BYTE data; 
....................    int1 side = GLCD_LEFT;  // Stores which chip to use on the LCD 
....................  
....................    if(x > 63)              // Check for first or second display area 
....................    { 
....................       x -= 64; 
....................       side = GLCD_RIGHT; 
....................    } 
....................  
....................    output_low(GLCD_DI);                         // Set for instruction 
....................    bit_clear(x,7);                              // Clear the MSB. Part of an instruction code 
....................    bit_set(x,6);                                // Set bit 6. Also part of an instruction code 
....................    glcd_writeByte(side, x);                     // Set the horizontal address 
....................    glcd_writeByte(side, (y/8 & 0xBF) | 0xB8);   // Set the vertical page address 
....................    output_high(GLCD_DI);                        // Set for data 
....................    glcd_readByte(side);                         // Need two reads to get data 
....................    data = glcd_readByte(side);                  //  at new address 
....................  
....................    if(color == ON) 
....................       bit_set(data, y%8);        // Turn the pixel on 
....................    else                          // or 
....................       bit_clear(data, y%8);      // turn the pixel off 
....................  
....................    output_low(GLCD_DI);          // Set for instruction 
....................    glcd_writeByte(side, x);      // Set the horizontal address 
....................    output_high(GLCD_DI);         // Set for data 
....................    glcd_writeByte(side, data);   // Write the pixel data 
.................... } 
.................... #endif 
....................  
....................  
.................... // Purpose:    Fill the LCD screen with the passed in color 
.................... // Inputs:     ON  - turn all the pixels on 
.................... //             OFF - turn all the pixels off 
.................... void glcd_fillScreen(int1 color) 
.................... #ifdef FAST_GLCD 
.................... { 
....................    int8  data; 
....................    int8  *p1, *p2; 
....................    int16 i; 
....................  
....................    p1 = displayData.left; 
*
01424:  MOVLB  9
01426:  CLRF   x11
01428:  MOVLW  17
0142A:  MOVWF  x10
....................    p2 = displayData.right; 
0142C:  MOVLW  02
0142E:  MOVWF  x13
01430:  MOVLW  17
01432:  MOVWF  x12
....................    data = 0xFF * color; 
01434:  MOVF   x0E,W
01436:  MULLW  FF
01438:  MOVFF  FF3,90F
....................  
....................    for(i=0; i<512; ++i) 
0143C:  CLRF   x15
0143E:  CLRF   x14
01440:  MOVF   x15,W
01442:  SUBLW  01
01444:  BNC   147A
....................    { 
....................       *p1++ = data; 
01446:  MOVFF  911,03
0144A:  MOVF   x10,W
0144C:  INCF   x10,F
0144E:  BTFSC  FD8.2
01450:  INCF   x11,F
01452:  MOVWF  FE9
01454:  MOVFF  03,FEA
01458:  MOVFF  90F,FEF
....................       *p2++ = data; 
0145C:  MOVFF  913,03
01460:  MOVF   x12,W
01462:  INCF   x12,F
01464:  BTFSC  FD8.2
01466:  INCF   x13,F
01468:  MOVWF  FE9
0146A:  MOVFF  03,FEA
0146E:  MOVFF  90F,FEF
....................    } 
01472:  INCF   x14,F
01474:  BTFSC  FD8.2
01476:  INCF   x15,F
01478:  BRA    1440
.................... } 
0147A:  MOVLB  0
0147C:  RETLW  00
.................... #else 
.................... { 
....................    int8 i, j; 
....................  
....................    // Loop through the vertical pages 
....................    for(i = 0; i < 8; ++i) 
....................    { 
....................       output_low(GLCD_DI);                      // Set for instruction 
....................       glcd_writeByte(GLCD_LEFT, 0b01000000);    // Set horizontal address to 0 
....................       glcd_writeByte(GLCD_RIGHT, 0b01000000); 
....................       glcd_writeByte(GLCD_LEFT, i | 0b10111000);// Set page address 
....................       glcd_writeByte(GLCD_RIGHT, i | 0b10111000); 
....................       output_high(GLCD_DI);                     // Set for data 
....................  
....................       // Loop through the horizontal sections 
....................       for(j = 0; j < 64; ++j) 
....................       { 
....................          glcd_writeByte(GLCD_LEFT, 0xFF*color);  // Turn pixels on or off 
....................          glcd_writeByte(GLCD_RIGHT, 0xFF*color); // Turn pixels on or off 
....................       } 
....................    } 
.................... } 
.................... #endif 
....................  
....................  
.................... // Purpose:    Write a byte of data to the specified chip 
.................... // Inputs:     1) chipSelect - which chip to write the data to 
.................... //             2) data - the byte of data to write 
.................... void glcd_writeByte(int1 side, BYTE data) 
.................... { 
....................    if(side)                   // Choose which side to write to 
*
013EE:  MOVLB  9
013F0:  MOVF   x24,F
013F2:  BZ    13FA
....................       output_high(GLCD_CS2); 
013F4:  BCF    F93.3
013F6:  BSF    F8A.3
....................    else 
013F8:  BRA    13FE
....................       output_high(GLCD_CS1); 
013FA:  BCF    F93.2
013FC:  BSF    F8A.2
....................  
....................    output_low(GLCD_RW);       // Set for writing 
013FE:  BCF    F93.6
01400:  BCF    F8A.6
....................    output_d(data);            // Put the data on the port 
01402:  CLRF   F95
01404:  MOVFF  925,F8C
....................    delay_cycles(1); 
01408:  NOP   
....................    output_high(GLCD_E);       // Pulse the enable pin 
0140A:  BCF    F93.7
0140C:  BSF    F8A.7
....................    delay_cycles(5); 
0140E:  BRA    1410
01410:  BRA    1412
01412:  NOP   
....................    output_low(GLCD_E); 
01414:  BCF    F93.7
01416:  BCF    F8A.7
....................  
....................    output_low(GLCD_CS1);      // Reset the chip select lines 
01418:  BCF    F93.2
0141A:  BCF    F8A.2
....................    output_low(GLCD_CS2); 
0141C:  BCF    F93.3
0141E:  BCF    F8A.3
.................... } 
01420:  MOVLB  0
01422:  RETLW  00
....................  
....................  
.................... // Purpose:    Reads a byte of data from the specified chip 
.................... // Ouputs:     A byte of data read from the chip 
.................... BYTE glcd_readByte(int1 side) 
.................... { 
....................    BYTE data;                 // Stores the data read from the LCD 
....................  
....................    set_tris_d(0xFF);          // Set port d to input 
....................    output_high(GLCD_RW);      // Set for reading 
....................  
....................    if(side)                   // Choose which side to write to 
....................       output_high(GLCD_CS2); 
....................    else 
....................       output_high(GLCD_CS1); 
....................  
....................    delay_cycles(1); 
....................    output_high(GLCD_E);       // Pulse the enable pin 
....................    delay_cycles(4); 
....................    data = input_d();          // Get the data from the display's output register 
....................    output_low(GLCD_E); 
....................  
....................    output_low(GLCD_CS1);      // Reset the chip select lines 
....................    output_low(GLCD_CS2); 
....................    return data;               // Return the read data 
.................... } 
....................  
.................... #endif 
....................  
.................... #include "GRAPHICS.c" 
.................... ///////////////////////////////////////////////////////////////////////// 
.................... ////                          graphics.c                             //// 
.................... ////                                                                 //// 
.................... ////   This file contains functions to draw lines, rectangles, bars, //// 
.................... ////   circles and text to a display. A function which draws a       //// 
.................... ////   single pixel must be defined before calling the functions in  //// 
.................... ////   this file. Call it glcd_pixel(x, y, color) where x is the     //// 
.................... ////   horizontal coordinate, y is the vertical coordinate, and      //// 
.................... ////   color is 1 bit to turn the pixel on or off.                   //// 
.................... ////                                                                 //// 
.................... ////   * Note: (0, 0) is treated as the upper left corner            //// 
.................... ////                                                                 //// 
.................... ///////////////////////////////////////////////////////////////////////// 
.................... ////                                                                 //// 
.................... ////  glcd_line(x1, y1, x2, y2, color)                               //// 
.................... ////     * Draws a line from the first point to the second point     //// 
.................... ////       with the given color                                      //// 
.................... ////       - color can be ON or OFF                                  //// 
.................... ////                                                                 //// 
.................... ////  glcd_rect(x1, y1, x2, y2, fill, color)                         //// 
.................... ////     * Draws a rectangle with one corner at point (x1,y1) and    //// 
.................... ////       the other corner at point (x2,y2)                         //// 
.................... ////       - fill can be YES or NO                                   //// 
.................... ////       - color can be ON or OFF                                  //// 
.................... ////                                                                 //// 
.................... ////  glcd_bar(x1, y1, x2, y2, width, color)                         //// 
.................... ////     * Draws a bar (wide line) from the first point to the       //// 
.................... ////       second point                                              //// 
.................... ////       - width is the number of pixels wide                      //// 
.................... ////       - color is ON or OFF                                      //// 
.................... ////                                                                 //// 
.................... ////  glcd_circle(x, y, radius, fill, color)                         //// 
.................... ////     * Draws a circle with center at (x,y)                       //// 
.................... ////       - fill can be YES or NO                                   //// 
.................... ////       - color can be ON or OFF                                  //// 
.................... ////                                                                 //// 
.................... ////  glcd_text57(x, y, textptr, size, color)                        //// 
.................... ////     * Write the null terminated text pointed to by textptr with //// 
.................... ////       the upper left coordinate of the first character at (x,y) //// 
.................... ////       Characters are 5 pixels wide and 7 pixels tall            //// 
.................... ////       - size is an integer that scales the size of the text     //// 
.................... ////       - color is ON or OFF                                      //// 
.................... ////     * Note - This function wraps characters to the next line    //// 
.................... ////              use #define GLCD_WIDTH to specify a display width  //// 
.................... ////                                                                 //// 
.................... ///////////////////////////////////////////////////////////////////////// 
.................... ////        (C) Copyright 1996, 2004 Custom Computer Services        //// 
.................... //// This source code may only be used by licensed users of the CCS  //// 
.................... //// C compiler.  This source code may only be distributed to other  //// 
.................... //// licensed users of the CCS C compiler.  No other use,            //// 
.................... //// reproduction or distribution is permitted without written       //// 
.................... //// permission.  Derivative programs created using this software    //// 
.................... //// in object code form are not restricted in any way.              //// 
.................... ///////////////////////////////////////////////////////////////////////// 
....................  
....................  
.................... ///////////////////////////////////////////////////////////////////////// 
.................... #ifndef GRAPHICS_DRAWING_FUNCTIONS 
.................... #define GRAPHICS_DRAWING_FUNCTIONS 
.................... ///////////////////////////////////////////////////////////////////////// 
....................  
....................  
.................... ///////////////////////////////////////////////////////////////////////// 
.................... #ifndef ON 
.................... #define ON  1 
.................... #endif 
....................  
.................... #ifndef OFF 
.................... #define OFF 0 
.................... #endif 
....................  
.................... #ifndef YES 
.................... #define YES 1 
.................... #endif 
....................  
.................... #ifndef NO 
.................... #define NO  0 
.................... #endif 
.................... ///////////////////////////////////////////////////////////////////////// 
....................  
....................  
.................... ///////////////////////////////////////////////////////////////////////// 
.................... //// Defines a 5x7 font 
.................... ///////////////////////////////////////////////////////////////////////// 
.................... const int8 FONT[51][5] ={0x00, 0x00, 0x00, 0x00, 0x00, // SPACE 
....................                          0x00, 0x00, 0x5F, 0x00, 0x00, // ! 
....................                          0x00, 0x03, 0x00, 0x03, 0x00, // " 
....................                          0x14, 0x3E, 0x14, 0x3E, 0x14, // # 
....................                          0x24, 0x2A, 0x7F, 0x2A, 0x12, // $ 
....................                          0x43, 0x33, 0x08, 0x66, 0x61, // % 
....................                          0x36, 0x49, 0x55, 0x22, 0x50, // & 
....................                          0x00, 0x05, 0x03, 0x00, 0x00, // ' 
....................                          0x00, 0x1C, 0x22, 0x41, 0x00, // ( 
....................                          0x00, 0x41, 0x22, 0x1C, 0x00, // ) 
....................                          0x14, 0x08, 0x3E, 0x08, 0x14, // * 
....................                          0x08, 0x08, 0x3E, 0x08, 0x08, // + 
....................                          0x00, 0x50, 0x30, 0x00, 0x00, // , 
....................                          0x08, 0x08, 0x08, 0x08, 0x08, // - 
....................                          0x00, 0x60, 0x60, 0x00, 0x00, // . 
....................                          0x20, 0x10, 0x08, 0x04, 0x02, // / 
....................                          0x3E, 0x51, 0x49, 0x45, 0x3E, // 0 
....................                          0x00, 0x04, 0x02, 0x7F, 0x00, // 1 
....................                          0x42, 0x61, 0x51, 0x49, 0x46, // 2 
....................                          0x22, 0x41, 0x49, 0x49, 0x36, // 3 
....................                          0x18, 0x14, 0x12, 0x7F, 0x10, // 4 
....................                          0x27, 0x45, 0x45, 0x45, 0x39, // 5 
....................                          0x3E, 0x49, 0x49, 0x49, 0x32, // 6 
....................                          0x01, 0x01, 0x71, 0x09, 0x07, // 7 
....................                          0x36, 0x49, 0x49, 0x49, 0x36, // 8 
....................                          0x26, 0x49, 0x49, 0x49, 0x3E, // 9 
....................                          0x00, 0x36, 0x36, 0x00, 0x00, // : 
....................                          0x00, 0x56, 0x36, 0x00, 0x00, // ; 
....................                          0x08, 0x14, 0x22, 0x41, 0x00, // < 
....................                          0x14, 0x14, 0x14, 0x14, 0x14, // = 
....................                          0x00, 0x41, 0x22, 0x14, 0x08, // > 
....................                          0x02, 0x01, 0x51, 0x09, 0x06, // ? 
....................                          0x3E, 0x41, 0x59, 0x55, 0x5E, // @ 
....................                          0x7E, 0x09, 0x09, 0x09, 0x7E, // A 
....................                          0x7F, 0x49, 0x49, 0x49, 0x36, // B 
....................                          0x3E, 0x41, 0x41, 0x41, 0x22, // C 
....................                          0x7F, 0x41, 0x41, 0x41, 0x3E, // D 
....................                          0x7F, 0x49, 0x49, 0x49, 0x41, // E 
....................                          0x7F, 0x09, 0x09, 0x09, 0x01, // F 
....................                          0x3E, 0x41, 0x41, 0x49, 0x3A, // G 
....................                          0x7F, 0x08, 0x08, 0x08, 0x7F, // H 
....................                          0x00, 0x41, 0x7F, 0x41, 0x00, // I 
....................                          0x30, 0x40, 0x40, 0x40, 0x3F, // J 
....................                          0x7F, 0x08, 0x14, 0x22, 0x41, // K 
....................                          0x7F, 0x40, 0x40, 0x40, 0x40, // L 
....................                          0x7F, 0x02, 0x0C, 0x02, 0x7F, // M 
....................                          0x7F, 0x02, 0x04, 0x08, 0x7F, // N 
....................                          0x3E, 0x41, 0x41, 0x41, 0x3E, // O 
....................                          0x7F, 0x09, 0x09, 0x09, 0x06, // P 
....................                          0x1E, 0x21, 0x21, 0x21, 0x5E, // Q 
....................                          0x7F, 0x09, 0x09, 0x09, 0x76};// R 
....................  
.................... const int8 FONT2[44][5]={0x26, 0x49, 0x49, 0x49, 0x32, // S 
....................                          0x01, 0x01, 0x7F, 0x01, 0x01, // T 
....................                          0x3F, 0x40, 0x40, 0x40, 0x3F, // U 
....................                          0x1F, 0x20, 0x40, 0x20, 0x1F, // V 
....................                          0x7F, 0x20, 0x10, 0x20, 0x7F, // W 
....................                          0x41, 0x22, 0x1C, 0x22, 0x41, // X 
....................                          0x07, 0x08, 0x70, 0x08, 0x07, // Y 
....................                          0x61, 0x51, 0x49, 0x45, 0x43, // Z 
....................                          0x00, 0x7F, 0x41, 0x00, 0x00, // [ 
....................                          0x02, 0x04, 0x08, 0x10, 0x20, // \ 
....................                          0x00, 0x00, 0x41, 0x7F, 0x00, // ] 
....................                          0x04, 0x02, 0x01, 0x02, 0x04, // ^ 
....................                          0x40, 0x40, 0x40, 0x40, 0x40, // _ 
....................                          0x00, 0x01, 0x02, 0x04, 0x00, // ` 
....................                          0x20, 0x54, 0x54, 0x54, 0x78, // a 
....................                          0x7F, 0x44, 0x44, 0x44, 0x38, // b 
....................                          0x38, 0x44, 0x44, 0x44, 0x44, // c 
....................                          0x38, 0x44, 0x44, 0x44, 0x7F, // d 
....................                          0x38, 0x54, 0x54, 0x54, 0x18, // e 
....................                          0x04, 0x04, 0x7E, 0x05, 0x05, // f 
....................                          0x08, 0x54, 0x54, 0x54, 0x3C, // g 
....................                          0x7F, 0x08, 0x04, 0x04, 0x78, // h 
....................                          0x00, 0x44, 0x7D, 0x40, 0x00, // i 
....................                          0x20, 0x40, 0x44, 0x3D, 0x00, // j 
....................                          0x7F, 0x10, 0x28, 0x44, 0x00, // k 
....................                          0x00, 0x41, 0x7F, 0x40, 0x00, // l 
....................                          0x7C, 0x04, 0x78, 0x04, 0x78, // m 
....................                          0x7C, 0x08, 0x04, 0x04, 0x78, // n 
....................                          0x38, 0x44, 0x44, 0x44, 0x38, // o 
....................                          0x7C, 0x14, 0x14, 0x14, 0x08, // p 
....................                          0x08, 0x14, 0x14, 0x14, 0x7C, // q 
....................                          0x00, 0x7C, 0x08, 0x04, 0x04, // r 
....................                          0x48, 0x54, 0x54, 0x54, 0x20, // s 
....................                          0x04, 0x04, 0x3F, 0x44, 0x44, // t 
....................                          0x3C, 0x40, 0x40, 0x20, 0x7C, // u 
....................                          0x1C, 0x20, 0x40, 0x20, 0x1C, // v 
....................                          0x3C, 0x40, 0x30, 0x40, 0x3C, // w 
....................                          0x44, 0x28, 0x10, 0x28, 0x44, // x 
....................                          0x0C, 0x50, 0x50, 0x50, 0x3C, // y 
....................                          0x44, 0x64, 0x54, 0x4C, 0x44, // z 
....................                          0x00, 0x08, 0x36, 0x41, 0x41, // { 
....................                          0x00, 0x00, 0x7F, 0x00, 0x00, // | 
....................                          0x41, 0x41, 0x36, 0x08, 0x00, // } 
....................                          0x02, 0x01, 0x02, 0x04, 0x02};// ~ 
.................... ///////////////////////////////////////////////////////////////////////// 
....................  
....................  
.................... ///////////////////////////////////////////////////////////////////////// 
.................... // Purpose:       Draw a line on a graphic LCD using Bresenham's 
.................... //                line drawing algorithm 
.................... // Inputs:        (x1, y1) - the start coordinate 
.................... //                (x2, y2) - the end coordinate 
.................... //                color - ON or OFF 
.................... // Dependencies:  glcd_pixel() 
.................... ///////////////////////////////////////////////////////////////////////// 
.................... #ifdef LARGE_LCD 
.................... void glcd_line(int16 x1, int16 y1, int16 x2, int16 y2, int1 color) 
.................... #else 
.................... void glcd_line(int8 x1, int8 y1, int8 x2, int8 y2, int1 color) 
.................... #endif 
.................... { 
*
0169A:  MOVLW  01
0169C:  MOVLB  9
0169E:  MOVWF  x34
016A0:  MOVWF  x35
016A2:  CLRF   x3A
....................    int16        dy, dx; 
....................    signed int8  addx=1, addy=1; 
....................    signed int16 P, diff; 
....................  
....................    #ifdef LARGE_LCD 
....................    int16 i=0; 
....................    dx = abs((signed int16)(x2 - x1)); 
....................    dy = abs((signed int16)(y2 - y1)); 
....................    #else 
....................    int8 i=0; 
....................    dx = abs((signed int8)(x2 - x1)); 
016A4:  MOVF   x2B,W
016A6:  SUBWF  x2D,W
016A8:  MOVWF  x3B
016AA:  MOVF   x3B,W
016AC:  BTFSS  x3B.7
016AE:  BRA    16B6
016B0:  MOVLW  00
016B2:  BSF    FD8.0
016B4:  SUBFWB x3B,W
016B6:  CLRF   03
016B8:  MOVWF  x32
016BA:  MOVFF  03,933
....................    dy = abs((signed int8)(y2 - y1)); 
016BE:  MOVF   x2C,W
016C0:  SUBWF  x2E,W
016C2:  MOVWF  x3B
016C4:  MOVF   x3B,W
016C6:  BTFSS  x3B.7
016C8:  BRA    16D0
016CA:  MOVLW  00
016CC:  BSF    FD8.0
016CE:  SUBFWB x3B,W
016D0:  CLRF   03
016D2:  MOVWF  x30
016D4:  MOVFF  03,931
....................    #endif 
....................  
....................    if(x1 > x2) 
016D8:  MOVF   x2B,W
016DA:  SUBWF  x2D,W
016DC:  BC    16E2
....................       addx = -1; 
016DE:  MOVLW  FF
016E0:  MOVWF  x34
....................    if(y1 > y2) 
016E2:  MOVF   x2C,W
016E4:  SUBWF  x2E,W
016E6:  BC    16EC
....................       addy = -1; 
016E8:  MOVLW  FF
016EA:  MOVWF  x35
....................  
....................    if(dx >= dy) 
016EC:  MOVF   x31,W
016EE:  SUBWF  x33,W
016F0:  BNC   1768
016F2:  BNZ   16FA
016F4:  MOVF   x30,W
016F6:  SUBWF  x32,W
016F8:  BNC   1768
....................    { 
....................       dy *= 2; 
016FA:  BCF    FD8.0
016FC:  RLCF   x30,F
016FE:  RLCF   x31,F
....................       P = dy - dx; 
01700:  MOVF   x32,W
01702:  SUBWF  x30,W
01704:  MOVWF  00
01706:  MOVF   x33,W
01708:  SUBWFB x31,W
0170A:  MOVFF  00,936
0170E:  MOVWF  x37
....................       diff = P - dx; 
01710:  MOVF   x32,W
01712:  SUBWF  x36,W
01714:  MOVWF  x38
01716:  MOVF   x33,W
01718:  SUBWFB x37,W
0171A:  MOVWF  x39
....................  
....................       for(; i<=dx; ++i) 
0171C:  MOVF   x33,F
0171E:  BNZ   1726
01720:  MOVF   x3A,W
01722:  SUBWF  x32,W
01724:  BNC   1766
....................       { 
....................          glcd_pixel(x1, y1, color); 
01726:  MOVFF  92B,93B
0172A:  MOVFF  92C,93C
0172E:  MOVFF  92F,93D
01732:  MOVLB  0
01734:  RCALL  15DE
....................  
....................          if(P < 0) 
01736:  MOVLB  9
01738:  BTFSC  x37.7
0173A:  BRA    173E
0173C:  BRA    174E
....................          { 
....................             P  += dy; 
0173E:  MOVF   x30,W
01740:  ADDWF  x36,F
01742:  MOVF   x31,W
01744:  ADDWFC x37,F
....................             x1 += addx; 
01746:  MOVF   x34,W
01748:  ADDWF  x2B,W
0174A:  MOVWF  x2B
....................          } 
....................          else 
0174C:  BRA    1762
....................          { 
....................             P  += diff; 
0174E:  MOVF   x38,W
01750:  ADDWF  x36,F
01752:  MOVF   x39,W
01754:  ADDWFC x37,F
....................             x1 += addx; 
01756:  MOVF   x34,W
01758:  ADDWF  x2B,W
0175A:  MOVWF  x2B
....................             y1 += addy; 
0175C:  MOVF   x35,W
0175E:  ADDWF  x2C,W
01760:  MOVWF  x2C
....................          } 
....................       } 
01762:  INCF   x3A,F
01764:  BRA    171C
....................    } 
....................    else 
01766:  BRA    17D4
....................    { 
....................       dx *= 2; 
01768:  BCF    FD8.0
0176A:  RLCF   x32,F
0176C:  RLCF   x33,F
....................       P = dx - dy; 
0176E:  MOVF   x30,W
01770:  SUBWF  x32,W
01772:  MOVWF  00
01774:  MOVF   x31,W
01776:  SUBWFB x33,W
01778:  MOVFF  00,936
0177C:  MOVWF  x37
....................       diff = P - dy; 
0177E:  MOVF   x30,W
01780:  SUBWF  x36,W
01782:  MOVWF  x38
01784:  MOVF   x31,W
01786:  SUBWFB x37,W
01788:  MOVWF  x39
....................  
....................       for(; i<=dy; ++i) 
0178A:  MOVF   x31,F
0178C:  BNZ   1794
0178E:  MOVF   x3A,W
01790:  SUBWF  x30,W
01792:  BNC   17D4
....................       { 
....................          glcd_pixel(x1, y1, color); 
01794:  MOVFF  92B,93B
01798:  MOVFF  92C,93C
0179C:  MOVFF  92F,93D
017A0:  MOVLB  0
017A2:  RCALL  15DE
....................  
....................          if(P < 0) 
017A4:  MOVLB  9
017A6:  BTFSC  x37.7
017A8:  BRA    17AC
017AA:  BRA    17BC
....................          { 
....................             P  += dx; 
017AC:  MOVF   x32,W
017AE:  ADDWF  x36,F
017B0:  MOVF   x33,W
017B2:  ADDWFC x37,F
....................             y1 += addy; 
017B4:  MOVF   x35,W
017B6:  ADDWF  x2C,W
017B8:  MOVWF  x2C
....................          } 
....................          else 
017BA:  BRA    17D0
....................          { 
....................             P  += diff; 
017BC:  MOVF   x38,W
017BE:  ADDWF  x36,F
017C0:  MOVF   x39,W
017C2:  ADDWFC x37,F
....................             x1 += addx; 
017C4:  MOVF   x34,W
017C6:  ADDWF  x2B,W
017C8:  MOVWF  x2B
....................             y1 += addy; 
017CA:  MOVF   x35,W
017CC:  ADDWF  x2C,W
017CE:  MOVWF  x2C
....................          } 
....................       } 
017D0:  INCF   x3A,F
017D2:  BRA    178A
....................    } 
.................... } 
017D4:  MOVLB  0
017D6:  RETLW  00
....................  
....................  
.................... ///////////////////////////////////////////////////////////////////////// 
.................... // Purpose:       Draw a rectangle on a graphic LCD 
.................... // Inputs:        (x1, y1) - the start coordinate 
.................... //                (x2, y2) - the end coordinate 
.................... //                fill  - YES or NO 
.................... //                color - ON or OFF 
.................... // Dependencies:  glcd_pixel(), glcd_line() 
.................... ///////////////////////////////////////////////////////////////////////// 
.................... #ifdef LARGE_LCD 
.................... void glcd_rect(int16 x1, int16 y1, int16 x2, int16 y2, int1 fill, int1 color) 
.................... #else 
.................... void glcd_rect(int8 x1, int8 y1, int8 x2, int8 y2, int1 fill, int1 color) 
.................... #endif 
.................... { 
....................    if(fill) 
017D8:  MOVLB  9
017DA:  MOVF   x23,F
017DC:  BZ    183A
....................    { 
....................       #ifdef LARGE_LCD 
....................       int16 i, xmin, xmax, ymin, ymax; 
....................       #else 
....................       int8  i, xmin, xmax, ymin, ymax; 
....................       #endif 
....................  
....................       if(x1 < x2)                            //  Find x min and max 
017DE:  MOVF   x21,W
017E0:  SUBWF  x1F,W
017E2:  BC    17EE
....................       { 
....................          xmin = x1; 
017E4:  MOVFF  91F,926
....................          xmax = x2; 
017E8:  MOVFF  921,927
....................       } 
....................       else 
017EC:  BRA    17F6
....................       { 
....................          xmin = x2; 
017EE:  MOVFF  921,926
....................          xmax = x1; 
017F2:  MOVFF  91F,927
....................       } 
....................  
....................       if(y1 < y2)                            // Find the y min and max 
017F6:  MOVF   x22,W
017F8:  SUBWF  x20,W
017FA:  BC    1806
....................       { 
....................          ymin = y1; 
017FC:  MOVFF  920,928
....................          ymax = y2; 
01800:  MOVFF  922,929
....................       } 
....................       else 
01804:  BRA    180E
....................       { 
....................          ymin = y2; 
01806:  MOVFF  922,928
....................          ymax = y1; 
0180A:  MOVFF  920,929
....................       } 
....................  
....................       for(; xmin <= xmax; ++xmin) 
0180E:  MOVF   x26,W
01810:  SUBWF  x27,W
01812:  BNC   1838
....................       { 
....................          for(i=ymin; i<=ymax; ++i) 
01814:  MOVFF  928,925
01818:  MOVF   x25,W
0181A:  SUBWF  x29,W
0181C:  BNC   1834
....................          { 
....................             glcd_pixel(xmin, i, color); 
0181E:  MOVFF  926,93B
01822:  MOVFF  925,93C
01826:  MOVFF  924,93D
0182A:  MOVLB  0
0182C:  RCALL  15DE
....................          } 
0182E:  MOVLB  9
01830:  INCF   x25,F
01832:  BRA    1818
....................       } 
01834:  INCF   x26,F
01836:  BRA    180E
....................    } 
....................    else 
01838:  BRA    1896
....................    { 
....................       glcd_line(x1, y1, x2, y1, color);      // Draw the 4 sides 
0183A:  MOVFF  91F,92B
0183E:  MOVFF  920,92C
01842:  MOVFF  921,92D
01846:  MOVFF  920,92E
0184A:  MOVFF  924,92F
0184E:  MOVLB  0
01850:  RCALL  169A
....................       glcd_line(x1, y2, x2, y2, color); 
01852:  MOVFF  91F,92B
01856:  MOVFF  922,92C
0185A:  MOVFF  921,92D
0185E:  MOVFF  922,92E
01862:  MOVFF  924,92F
01866:  RCALL  169A
....................       glcd_line(x1, y1, x1, y2, color); 
01868:  MOVFF  91F,92B
0186C:  MOVFF  920,92C
01870:  MOVFF  91F,92D
01874:  MOVFF  922,92E
01878:  MOVFF  924,92F
0187C:  RCALL  169A
....................       glcd_line(x2, y1, x2, y2, color); 
0187E:  MOVFF  921,92B
01882:  MOVFF  920,92C
01886:  MOVFF  921,92D
0188A:  MOVFF  922,92E
0188E:  MOVFF  924,92F
01892:  RCALL  169A
01894:  MOVLB  9
....................    } 
.................... } 
01896:  MOVLB  0
01898:  RETLW  00
....................  
.................... ///////////////////////////////////////////////////////////////////////// 
.................... // Purpose:       Draw a bar (wide line) on a graphic LCD 
.................... // Inputs:        (x1, y1) - the start coordinate 
.................... //                (x2, y2) - the end coordinate 
.................... //                width  - The number of pixels wide 
.................... //                color - ON or OFF 
.................... ///////////////////////////////////////////////////////////////////////// 
.................... #ifdef LARGE_LCD 
.................... void glcd_bar(int16 x1, int16 y1, int16 x2, int16 y2, int8 width, int1 color) 
.................... #else 
.................... void glcd_bar(int8 x1, int8 y1, int8 x2, int8 y2, int8 width, int1 color) 
.................... #endif 
.................... { 
....................    int8         half_width; 
....................    signed int16 dy, dx; 
....................    signed int8  addx=1, addy=1, j; 
....................    signed int16 P, diff, c1, c2; 
....................  
....................    #ifdef LARGE_LCD 
....................    int16 i=0; 
....................    dx = abs((signed int16)(x2 - x1)); 
....................    dy = abs((signed int16)(y2 - y1)); 
....................    #else 
....................    int8 i=0; 
....................    dx = abs((signed int8)(x2 - x1)); 
....................    dy = abs((signed int8)(y2 - y1)); 
....................    #endif 
....................  
....................    half_width = width/2; 
....................    c1 = -(dx*x1 + dy*y1); 
....................    c2 = -(dx*x2 + dy*y2); 
....................  
....................    if(x1 > x2) 
....................    { 
....................       signed int16 temp; 
....................       temp = c1; 
....................       c1 = c2; 
....................       c2 = temp; 
....................       addx = -1; 
....................    } 
....................    if(y1 > y2) 
....................    { 
....................       signed int16 temp; 
....................       temp = c1; 
....................       c1 = c2; 
....................       c2 = temp; 
....................       addy = -1; 
....................    } 
....................  
....................    if(dx >= dy) 
....................    { 
....................       P = 2*dy - dx; 
....................       diff = P - dx; 
....................  
....................       for(i=0; i<=dx; ++i) 
....................       { 
....................          for(j=-half_width; j<half_width+width%2; ++j) 
....................          { 
....................             #ifdef LARGE_LCD 
....................             int16 temp; 
....................             #else 
....................             int8 temp; 
....................             #endif 
....................  
....................             temp = dx*x1+dy*(y1+j);    // Use more RAM to increase speed 
....................             if(temp+c1 >= 0 && temp+c2 <=0) 
....................                glcd_pixel(x1, y1+j, color); 
....................          } 
....................          if(P < 0) 
....................          { 
....................             P  += 2*dy; 
....................             x1 += addx; 
....................          } 
....................          else 
....................          { 
....................             P  += diff; 
....................             x1 += addx; 
....................             y1 += addy; 
....................          } 
....................       } 
....................    } 
....................    else 
....................    { 
....................       P = 2*dx - dy; 
....................       diff = P - dy; 
....................  
....................       for(i=0; i<=dy; ++i) 
....................       { 
....................          if(P < 0) 
....................          { 
....................             P  += 2*dx; 
....................             y1 += addy; 
....................          } 
....................          else 
....................          { 
....................             P  += diff; 
....................             x1 += addx; 
....................             y1 += addy; 
....................          } 
....................          for(j=-half_width; j<half_width+width%2; ++j) 
....................          { 
....................             #ifdef LARGE_LCD 
....................             int16 temp; 
....................             #else 
....................             int8 temp; 
....................             #endif 
....................  
....................             temp = dx*x1+dy*(y1+j);    // Use more RAM to increase speed 
....................             if(temp+c1 >= 0 && temp+c2 <=0) 
....................                glcd_pixel(x1+j, y1, color); 
....................          } 
....................       } 
....................    } 
.................... } 
....................  
....................  
.................... ///////////////////////////////////////////////////////////////////////// 
.................... // Purpose:       Draw a circle on a graphic LCD 
.................... // Inputs:        (x,y) - the center of the circle 
.................... //                radius - the radius of the circle 
.................... //                fill - YES or NO 
.................... //                color - ON or OFF 
.................... ///////////////////////////////////////////////////////////////////////// 
.................... #ifdef LARGE_LCD 
.................... void glcd_circle(int16 x, int16 y, int16 radius, int1 fill, int1 color) 
.................... #else 
.................... void glcd_circle(int8 x, int8 y, int8 radius, int1 fill, int1 color) 
.................... #endif 
.................... { 
....................    #ifdef LARGE_LCD 
....................    signed int16 a, b, P; 
....................    #else 
....................    signed int8  a, b, P; 
....................    #endif 
....................  
....................    a = 0; 
*
04572:  MOVLB  9
04574:  CLRF   x24
....................    b = radius; 
04576:  MOVFF  921,925
....................    P = 1 - radius; 
0457A:  MOVLW  01
0457C:  BSF    FD8.0
0457E:  SUBFWB x21,W
04580:  MOVWF  x26
....................  
....................    do 
....................    { 
....................       if(fill) 
04582:  MOVF   x22,F
04584:  BZ    4650
....................       { 
....................          glcd_line(x-a, y+b, x+a, y+b, color); 
04586:  MOVF   x24,W
04588:  SUBWF  x1F,W
0458A:  MOVWF  x27
0458C:  MOVF   x25,W
0458E:  ADDWF  x20,W
04590:  MOVWF  x28
04592:  MOVF   x24,W
04594:  ADDWF  x1F,W
04596:  MOVWF  x29
04598:  MOVF   x25,W
0459A:  ADDWF  x20,W
0459C:  MOVWF  x2A
0459E:  MOVFF  927,92B
045A2:  MOVFF  928,92C
045A6:  MOVFF  929,92D
045AA:  MOVWF  x2E
045AC:  MOVFF  923,92F
045B0:  MOVLB  0
045B2:  CALL   169A
....................          glcd_line(x-a, y-b, x+a, y-b, color); 
045B6:  MOVLB  9
045B8:  MOVF   x24,W
045BA:  SUBWF  x1F,W
045BC:  MOVWF  x27
045BE:  MOVF   x25,W
045C0:  SUBWF  x20,W
045C2:  MOVWF  x28
045C4:  MOVF   x24,W
045C6:  ADDWF  x1F,W
045C8:  MOVWF  x29
045CA:  MOVF   x25,W
045CC:  SUBWF  x20,W
045CE:  MOVWF  x2A
045D0:  MOVFF  927,92B
045D4:  MOVFF  928,92C
045D8:  MOVFF  929,92D
045DC:  MOVWF  x2E
045DE:  MOVFF  923,92F
045E2:  MOVLB  0
045E4:  CALL   169A
....................          glcd_line(x-b, y+a, x+b, y+a, color); 
045E8:  MOVLB  9
045EA:  MOVF   x25,W
045EC:  SUBWF  x1F,W
045EE:  MOVWF  x27
045F0:  MOVF   x24,W
045F2:  ADDWF  x20,W
045F4:  MOVWF  x28
045F6:  MOVF   x25,W
045F8:  ADDWF  x1F,W
045FA:  MOVWF  x29
045FC:  MOVF   x24,W
045FE:  ADDWF  x20,W
04600:  MOVWF  x2A
04602:  MOVFF  927,92B
04606:  MOVFF  928,92C
0460A:  MOVFF  929,92D
0460E:  MOVWF  x2E
04610:  MOVFF  923,92F
04614:  MOVLB  0
04616:  CALL   169A
....................          glcd_line(x-b, y-a, x+b, y-a, color); 
0461A:  MOVLB  9
0461C:  MOVF   x25,W
0461E:  SUBWF  x1F,W
04620:  MOVWF  x27
04622:  MOVF   x24,W
04624:  SUBWF  x20,W
04626:  MOVWF  x28
04628:  MOVF   x25,W
0462A:  ADDWF  x1F,W
0462C:  MOVWF  x29
0462E:  MOVF   x24,W
04630:  SUBWF  x20,W
04632:  MOVWF  x2A
04634:  MOVFF  927,92B
04638:  MOVFF  928,92C
0463C:  MOVFF  929,92D
04640:  MOVWF  x2E
04642:  MOVFF  923,92F
04646:  MOVLB  0
04648:  CALL   169A
....................       } 
....................       else 
0464C:  BRA    473E
0464E:  MOVLB  9
....................       { 
....................          glcd_pixel(a+x, b+y, color); 
04650:  MOVF   x1F,W
04652:  ADDWF  x24,W
04654:  MOVWF  x27
04656:  MOVF   x20,W
04658:  ADDWF  x25,W
0465A:  MOVWF  x28
0465C:  MOVFF  927,93B
04660:  MOVWF  x3C
04662:  MOVFF  923,93D
04666:  MOVLB  0
04668:  CALL   15DE
....................          glcd_pixel(b+x, a+y, color); 
0466C:  MOVLB  9
0466E:  MOVF   x1F,W
04670:  ADDWF  x25,W
04672:  MOVWF  x27
04674:  MOVF   x20,W
04676:  ADDWF  x24,W
04678:  MOVWF  x28
0467A:  MOVFF  927,93B
0467E:  MOVWF  x3C
04680:  MOVFF  923,93D
04684:  MOVLB  0
04686:  CALL   15DE
....................          glcd_pixel(x-a, b+y, color); 
0468A:  MOVLB  9
0468C:  MOVF   x24,W
0468E:  SUBWF  x1F,W
04690:  MOVWF  x27
04692:  MOVF   x20,W
04694:  ADDWF  x25,W
04696:  MOVWF  x28
04698:  MOVFF  927,93B
0469C:  MOVWF  x3C
0469E:  MOVFF  923,93D
046A2:  MOVLB  0
046A4:  CALL   15DE
....................          glcd_pixel(x-b, a+y, color); 
046A8:  MOVLB  9
046AA:  MOVF   x25,W
046AC:  SUBWF  x1F,W
046AE:  MOVWF  x27
046B0:  MOVF   x20,W
046B2:  ADDWF  x24,W
046B4:  MOVWF  x28
046B6:  MOVFF  927,93B
046BA:  MOVWF  x3C
046BC:  MOVFF  923,93D
046C0:  MOVLB  0
046C2:  CALL   15DE
....................          glcd_pixel(b+x, y-a, color); 
046C6:  MOVLB  9
046C8:  MOVF   x1F,W
046CA:  ADDWF  x25,W
046CC:  MOVWF  x27
046CE:  MOVF   x24,W
046D0:  SUBWF  x20,W
046D2:  MOVWF  x28
046D4:  MOVFF  927,93B
046D8:  MOVWF  x3C
046DA:  MOVFF  923,93D
046DE:  MOVLB  0
046E0:  CALL   15DE
....................          glcd_pixel(a+x, y-b, color); 
046E4:  MOVLB  9
046E6:  MOVF   x1F,W
046E8:  ADDWF  x24,W
046EA:  MOVWF  x27
046EC:  MOVF   x25,W
046EE:  SUBWF  x20,W
046F0:  MOVWF  x28
046F2:  MOVFF  927,93B
046F6:  MOVWF  x3C
046F8:  MOVFF  923,93D
046FC:  MOVLB  0
046FE:  CALL   15DE
....................          glcd_pixel(x-a, y-b, color); 
04702:  MOVLB  9
04704:  MOVF   x24,W
04706:  SUBWF  x1F,W
04708:  MOVWF  x27
0470A:  MOVF   x25,W
0470C:  SUBWF  x20,W
0470E:  MOVWF  x28
04710:  MOVFF  927,93B
04714:  MOVWF  x3C
04716:  MOVFF  923,93D
0471A:  MOVLB  0
0471C:  CALL   15DE
....................          glcd_pixel(x-b, y-a, color); 
04720:  MOVLB  9
04722:  MOVF   x25,W
04724:  SUBWF  x1F,W
04726:  MOVWF  x27
04728:  MOVF   x24,W
0472A:  SUBWF  x20,W
0472C:  MOVWF  x28
0472E:  MOVFF  927,93B
04732:  MOVWF  x3C
04734:  MOVFF  923,93D
04738:  MOVLB  0
0473A:  CALL   15DE
....................       } 
....................  
....................       if(P < 0) 
0473E:  MOVLB  9
04740:  BTFSC  x26.7
04742:  BRA    4746
04744:  BRA    4762
....................          P += 3 + 2 * a++; 
04746:  MOVF   x24,W
04748:  INCF   x24,F
0474A:  MOVWF  x27
0474C:  MOVLW  02
0474E:  MOVWF  x28
04750:  MOVFF  927,929
04754:  MOVLB  0
04756:  RCALL  4236
04758:  MOVF   01,W
0475A:  ADDLW  03
0475C:  MOVLB  9
0475E:  ADDWF  x26,F
....................       else 
04760:  BRA    4784
....................          P += 5 + 2 * (a++ - b--); 
04762:  MOVF   x24,W
04764:  INCF   x24,F
04766:  MOVWF  x27
04768:  MOVF   x25,W
0476A:  DECF   x25,F
0476C:  SUBWF  x27,W
0476E:  MOVWF  x27
04770:  MOVLW  02
04772:  MOVWF  x28
04774:  MOVFF  927,929
04778:  MOVLB  0
0477A:  RCALL  4236
0477C:  MOVF   01,W
0477E:  ADDLW  05
04780:  MOVLB  9
04782:  ADDWF  x26,F
....................     } while(a <= b); 
04784:  MOVF   x24,W
04786:  XORLW  80
04788:  MOVWF  00
0478A:  MOVF   x25,W
0478C:  XORLW  80
0478E:  SUBWF  00,W
04790:  BTFSC  FD8.2
04792:  BRA    4582
04794:  BTFSS  FD8.0
04796:  BRA    4582
.................... } 
04798:  MOVLB  0
0479A:  RETLW  00
....................  
....................  
.................... ///////////////////////////////////////////////////////////////////////// 
.................... // Purpose:       Write text on a graphic LCD 
.................... // Inputs:        (x,y) - The upper left coordinate of the first letter 
.................... //                textptr - A pointer to an array of text to display 
.................... //                size - The size of the text: 1 = 5x7, 2 = 10x14, ... 
.................... //                color - ON or OFF 
.................... ///////////////////////////////////////////////////////////////////////// 
.................... #ifdef LARGE_LCD 
.................... void glcd_text57(int16 x, int16 y, char* textptr, int8 size, int1 color) 
.................... #else 
.................... void glcd_text57(int8 x, int8 y, char* textptr, int8 size, int1 color) 
.................... #endif 
.................... { 
....................    int8 j, k, l, m;                       // Loop counters 
....................    int8 pixelData[5];                     // Stores character data 
....................  
....................    for(; *textptr != '\0'; ++textptr, ++x)// Loop through the passed string 
*
0189A:  MOVFF  922,03
0189E:  MOVLB  9
018A0:  MOVFF  921,FE9
018A4:  MOVFF  922,FEA
018A8:  MOVF   FEF,F
018AA:  BTFSC  FD8.2
018AC:  BRA    1A4E
....................    { 
....................       if(*textptr < 'S') // Checks if the letter is in the first font array 
018AE:  MOVFF  922,03
018B2:  MOVFF  921,FE9
018B6:  MOVFF  922,FEA
018BA:  MOVF   FEF,W
018BC:  SUBLW  52
018BE:  BNC   190E
....................          memcpy(pixelData, FONT[*textptr - ' '], 5); 
018C0:  MOVFF  922,03
018C4:  MOVFF  921,FE9
018C8:  MOVFF  922,FEA
018CC:  MOVLW  20
018CE:  SUBWF  FEF,W
018D0:  MULLW  05
018D2:  MOVF   FF3,W
018D4:  CLRF   03
018D6:  MOVWF  x2E
018D8:  MOVLW  09
018DA:  MOVWF  FEA
018DC:  MOVLW  29
018DE:  MOVWF  FE9
018E0:  CLRF   x32
018E2:  MOVFF  92E,931
018E6:  MOVFF  FF2,92F
018EA:  BCF    FF2.7
018EC:  MOVLW  05
018EE:  MOVWF  01
018F0:  CLRF   FF7
018F2:  MOVF   x2E,W
018F4:  MOVLB  0
018F6:  CALL   009E
018FA:  TBLRD*-
018FC:  TBLRD*+
018FE:  MOVFF  FF5,FEE
01902:  DECFSZ 01,F
01904:  BRA    18FC
01906:  MOVLB  9
01908:  BTFSC  x2F.7
0190A:  BSF    FF2.7
....................       else if(*textptr <= '~') // Check if the letter is in the second font array 
0190C:  BRA    1978
0190E:  MOVFF  922,03
01912:  MOVFF  921,FE9
01916:  MOVFF  922,FEA
0191A:  MOVF   FEF,W
0191C:  SUBLW  7E
0191E:  BNC   196E
....................          memcpy(pixelData, FONT2[*textptr - 'S'], 5); 
01920:  MOVFF  922,03
01924:  MOVFF  921,FE9
01928:  MOVFF  922,FEA
0192C:  MOVLW  53
0192E:  SUBWF  FEF,W
01930:  MULLW  05
01932:  MOVF   FF3,W
01934:  CLRF   03
01936:  MOVWF  x2E
01938:  MOVLW  09
0193A:  MOVWF  FEA
0193C:  MOVLW  29
0193E:  MOVWF  FE9
01940:  CLRF   x32
01942:  MOVFF  92E,931
01946:  MOVFF  FF2,92F
0194A:  BCF    FF2.7
0194C:  MOVLW  05
0194E:  MOVWF  01
01950:  CLRF   FF7
01952:  MOVF   x2E,W
01954:  MOVLB  0
01956:  CALL   01BC
0195A:  TBLRD*-
0195C:  TBLRD*+
0195E:  MOVFF  FF5,FEE
01962:  DECFSZ 01,F
01964:  BRA    195C
01966:  MOVLB  9
01968:  BTFSC  x2F.7
0196A:  BSF    FF2.7
....................       else 
0196C:  BRA    1978
....................          memcpy(pixelData, FONT[0], 5);   // Default to space 
0196E:  CLRF   x29
01970:  CLRF   x2A
01972:  CLRF   x2B
01974:  CLRF   x2C
01976:  CLRF   x2D
....................  
....................       // Handles newline and carriage returns 
....................       switch(*textptr) 
....................       { 
01978:  MOVFF  922,03
0197C:  MOVF   x21,W
0197E:  MOVWF  FE9
01980:  MOVFF  03,FEA
01984:  MOVF   FEF,W
01986:  XORLW  0A
01988:  MOVLB  0
0198A:  BZ    1992
0198C:  XORLW  07
0198E:  BZ    19A2
01990:  BRA    19A8
....................          case '\n': 
....................             y += 7*size + 1; 
01992:  MOVLB  9
01994:  MOVF   x23,W
01996:  MULLW  07
01998:  MOVF   FF3,W
0199A:  ADDLW  01
0199C:  ADDWF  x20,F
....................             continue; 
0199E:  BRA    1A40
019A0:  MOVLB  0
....................          case '\r': 
....................             x = 0; 
019A2:  MOVLB  9
019A4:  CLRF   x1F
....................             continue; 
019A6:  BRA    1A40
....................       } 
....................  
....................       if(x+5*size >= GLCD_WIDTH)          // Performs character wrapping 
019A8:  MOVLB  9
019AA:  MOVF   x23,W
019AC:  MULLW  05
019AE:  MOVF   FF3,W
019B0:  ADDWF  x1F,W
019B2:  SUBLW  7F
019B4:  BC    19C2
....................       { 
....................          x = 0;                           // Set x at far left position 
019B6:  CLRF   x1F
....................          y += 7*size + 1;                 // Set y at next position down 
019B8:  MOVF   x23,W
019BA:  MULLW  07
019BC:  MOVF   FF3,W
019BE:  ADDLW  01
019C0:  ADDWF  x20,F
....................       } 
....................       for(j=0; j<5; ++j, x+=size)         // Loop through character byte data 
019C2:  CLRF   x25
019C4:  MOVF   x25,W
019C6:  SUBLW  04
019C8:  BNC   1A40
....................       { 
....................          for(k=0; k < 7; ++k)             // Loop through the vertical pixels 
019CA:  CLRF   x26
019CC:  MOVF   x26,W
019CE:  SUBLW  06
019D0:  BNC   1A38
....................          { 
....................             if(bit_test(pixelData[j], k)) // Check if the pixel should be set 
019D2:  CLRF   03
019D4:  MOVF   x25,W
019D6:  ADDLW  29
019D8:  MOVWF  FE9
019DA:  MOVLW  09
019DC:  ADDWFC 03,W
019DE:  MOVWF  FEA
019E0:  MOVFF  FEF,92E
019E4:  MOVFF  92E,00
019E8:  MOVF   x26,W
019EA:  MOVWF  01
019EC:  BZ    19F6
019EE:  BCF    FD8.0
019F0:  RRCF   00,F
019F2:  DECFSZ 01,F
019F4:  BRA    19EE
019F6:  BTFSS  00.0
019F8:  BRA    1A34
....................             { 
....................                for(l=0; l < size; ++l)    // These two loops change the 
019FA:  CLRF   x27
019FC:  MOVF   x23,W
019FE:  SUBWF  x27,W
01A00:  BC    1A34
....................                {                          // character's size 
....................                   for(m=0; m < size; ++m) 
01A02:  CLRF   x28
01A04:  MOVF   x23,W
01A06:  SUBWF  x28,W
01A08:  BC    1A30
....................                   { 
....................                      glcd_pixel(x+m, y+k*size+l, color); // Draws the pixel 
01A0A:  MOVF   x28,W
01A0C:  ADDWF  x1F,W
01A0E:  MOVWF  x2E
01A10:  MOVF   x26,W
01A12:  MULWF  x23
01A14:  MOVF   FF3,W
01A16:  ADDWF  x20,W
01A18:  ADDWF  x27,W
01A1A:  MOVWF  x2F
01A1C:  MOVFF  92E,93B
01A20:  MOVWF  x3C
01A22:  MOVFF  924,93D
01A26:  MOVLB  0
01A28:  RCALL  15DE
....................                   } 
01A2A:  MOVLB  9
01A2C:  INCF   x28,F
01A2E:  BRA    1A04
....................                } 
01A30:  INCF   x27,F
01A32:  BRA    19FC
....................             } 
....................          } 
01A34:  INCF   x26,F
01A36:  BRA    19CC
....................       } 
01A38:  INCF   x25,F
01A3A:  MOVF   x23,W
01A3C:  ADDWF  x1F,F
01A3E:  BRA    19C4
....................    } 
01A40:  INCF   x21,F
01A42:  BTFSC  FD8.2
01A44:  INCF   x22,F
01A46:  INCF   x1F,F
01A48:  MOVLB  0
01A4A:  BRA    189A
01A4C:  MOVLB  9
.................... } 
01A4E:  MOVLB  0
01A50:  RETLW  00
....................  
.................... #endif 
....................  
.................... #include "imagen.h" 
.................... const int8 Horno [64][16] = { 
.................... 0x00, 0x00, 0x00, 0x00, 0x00, 0x00, 0x00, 0x00, 0x00, 0x00, 0x00, 0x00, 0x00, 0x00, 0x00, 0x00, 
.................... 0x01, 0xC0, 0x00, 0x00, 0x00, 0x00, 0x00, 0x00, 0x00, 0x00, 0x00, 0x00, 0x00, 0x00, 0x00, 0x00, 
.................... 0x07, 0xF0, 0x00, 0x00, 0x00, 0x00, 0x00, 0x00, 0x00, 0x00, 0x00, 0x00, 0x00, 0x00, 0x00, 0x00, 
.................... 0x1C, 0x9C, 0x00, 0x00, 0x00, 0x00, 0x00, 0x00, 0x00, 0x00, 0x00, 0x00, 0x00, 0x00, 0x00, 0x00, 
.................... 0x18, 0x0C, 0x00, 0x00, 0x00, 0x00, 0x00, 0x00, 0x00, 0x00, 0x00, 0x00, 0x00, 0x00, 0x00, 0x00, 
.................... 0x30, 0x86, 0x00, 0x00, 0x00, 0x00, 0x00, 0x00, 0x00, 0x00, 0x00, 0x00, 0x00, 0x00, 0x00, 0x00, 
.................... 0x20, 0x82, 0x00, 0x00, 0x00, 0x00, 0x00, 0x00, 0x00, 0x00, 0x00, 0x00, 0x00, 0x00, 0x00, 0x00, 
.................... 0x60, 0x83, 0x00, 0x00, 0x00, 0x00, 0x00, 0x00, 0x00, 0x00, 0x00, 0x00, 0x00, 0x00, 0x00, 0x00, 
.................... 0x70, 0x87, 0x00, 0x00, 0x00, 0x00, 0x00, 0x00, 0x00, 0x00, 0x00, 0x00, 0x00, 0x00, 0x00, 0x00, 
.................... 0x60, 0xC3, 0x00, 0x00, 0x00, 0x00, 0x00, 0x00, 0x00, 0x00, 0x00, 0x00, 0x00, 0x00, 0x00, 0x00, 
.................... 0x20, 0x62, 0x00, 0x00, 0x00, 0x00, 0x00, 0x00, 0x00, 0x00, 0x00, 0x00, 0x00, 0x00, 0x00, 0x00, 
.................... 0x30, 0x26, 0x00, 0x00, 0x00, 0x00, 0x00, 0x00, 0x00, 0x00, 0x00, 0x00, 0x00, 0x00, 0x00, 0x00, 
.................... 0x18, 0x0C, 0x00, 0x00, 0x00, 0x00, 0x00, 0x00, 0x00, 0x00, 0x00, 0x00, 0x00, 0x00, 0x00, 0x00, 
.................... 0x1C, 0x9C, 0x00, 0x00, 0x00, 0x00, 0x00, 0x00, 0x00, 0x00, 0x00, 0x00, 0x00, 0x00, 0x00, 0x00, 
.................... 0x07, 0xF0, 0x00, 0x00, 0x00, 0x00, 0x00, 0x00, 0x00, 0x00, 0x00, 0x00, 0x00, 0x00, 0x00, 0x00, 
.................... 0x01, 0xC0, 0x00, 0x00, 0x00, 0x00, 0x00, 0x00, 0x00, 0x00, 0x00, 0x00, 0x00, 0x00, 0x00, 0x00, 
.................... 0x00, 0x00, 0x00, 0x00, 0x00, 0x00, 0x00, 0x00, 0x00, 0x00, 0x00, 0x00, 0x00, 0x00, 0x00, 0x00, 
.................... 0x00, 0x00, 0x00, 0x00, 0x00, 0x00, 0x00, 0x00, 0x00, 0x00, 0x00, 0x00, 0x00, 0x00, 0x00, 0x00, 
.................... 0x00, 0x00, 0x00, 0x00, 0x00, 0x00, 0x00, 0x00, 0x00, 0x00, 0x00, 0x00, 0x00, 0x00, 0x00, 0x00, 
.................... 0x00, 0x00, 0x00, 0x00, 0x00, 0x00, 0x00, 0x00, 0x00, 0x00, 0x00, 0x00, 0x00, 0x00, 0x00, 0x00, 
.................... 0x00, 0x00, 0x00, 0x00, 0x00, 0x00, 0x00, 0x00, 0x00, 0x00, 0x00, 0x00, 0x00, 0x00, 0x00, 0x00, 
.................... 0x00, 0x00, 0x00, 0x00, 0x00, 0x00, 0x00, 0x00, 0x00, 0x00, 0x00, 0x00, 0x00, 0x00, 0x00, 0x00, 
.................... 0x00, 0x00, 0x00, 0x00, 0x00, 0x00, 0x00, 0x00, 0x00, 0x00, 0x00, 0x00, 0x00, 0x00, 0x00, 0x00, 
.................... 0x00, 0x00, 0x00, 0x00, 0x00, 0x00, 0x00, 0x00, 0x00, 0x00, 0x00, 0x00, 0x00, 0x00, 0x00, 0x00, 
.................... 0x00, 0x00, 0x00, 0x00, 0x00, 0x00, 0x00, 0x00, 0x00, 0x00, 0x00, 0x00, 0x00, 0x00, 0x00, 0x00, 
.................... 0x00, 0x00, 0x00, 0x00, 0x00, 0x00, 0x00, 0x00, 0x00, 0x00, 0x00, 0x00, 0x00, 0x00, 0x00, 0x00, 
.................... 0x00, 0x00, 0x00, 0x00, 0x00, 0x00, 0x00, 0x00, 0x00, 0x00, 0x00, 0x00, 0x00, 0x00, 0x00, 0x00, 
.................... 0x00, 0x00, 0x00, 0x00, 0x00, 0x00, 0x00, 0x00, 0x00, 0x00, 0x00, 0x00, 0x00, 0x00, 0x00, 0x00, 
.................... 0x01, 0x80, 0x00, 0x00, 0x00, 0x00, 0x00, 0x00, 0x00, 0x00, 0x00, 0x00, 0x00, 0x00, 0x00, 0x00, 
.................... 0x02, 0x40, 0x00, 0x00, 0x00, 0x00, 0x00, 0x00, 0x00, 0x00, 0x00, 0x00, 0x00, 0x00, 0x00, 0x00, 
.................... 0x02, 0x70, 0x00, 0x00, 0x00, 0x00, 0x00, 0x00, 0x00, 0x00, 0x00, 0x00, 0x00, 0x00, 0x00, 0x00, 
.................... 0x02, 0x40, 0x00, 0x00, 0x00, 0x00, 0x00, 0x00, 0x00, 0x00, 0x00, 0x00, 0x00, 0x00, 0x00, 0x00, 
.................... 0x03, 0xC0, 0x00, 0x00, 0x00, 0x00, 0x00, 0x00, 0x00, 0x00, 0x00, 0x00, 0x00, 0x00, 0x00, 0x00, 
.................... 0x03, 0xF0, 0x00, 0x00, 0x00, 0x00, 0x00, 0x00, 0x00, 0x00, 0x00, 0x00, 0x00, 0x00, 0x00, 0x00, 
.................... 0x03, 0xC0, 0x00, 0x00, 0x00, 0x00, 0x00, 0x00, 0x00, 0x00, 0x00, 0x00, 0x00, 0x00, 0x00, 0x00, 
.................... 0x03, 0xC0, 0x00, 0x00, 0x00, 0x00, 0x00, 0x00, 0x00, 0x00, 0x00, 0x00, 0x00, 0x00, 0x00, 0x00, 
.................... 0x07, 0xE0, 0x00, 0x00, 0x00, 0x00, 0x00, 0x00, 0x00, 0x00, 0x00, 0x00, 0x00, 0x00, 0x00, 0x00, 
.................... 0x0F, 0xF0, 0x00, 0x00, 0x00, 0x00, 0x00, 0x00, 0x00, 0x00, 0x00, 0x00, 0x00, 0x00, 0x00, 0x00, 
.................... 0x0B, 0xF0, 0x00, 0x00, 0x00, 0x00, 0x00, 0x00, 0x00, 0x00, 0x00, 0x00, 0x00, 0x00, 0x00, 0x00, 
.................... 0x0B, 0xF0, 0x00, 0x00, 0x00, 0x00, 0x00, 0x00, 0x00, 0x00, 0x00, 0x00, 0x00, 0x00, 0x00, 0x00, 
.................... 0x0F, 0xF0, 0x00, 0x00, 0x00, 0x00, 0x00, 0x00, 0x00, 0x00, 0x00, 0x00, 0x00, 0x00, 0x00, 0x00, 
.................... 0x0F, 0xF0, 0x00, 0x00, 0x00, 0x00, 0x00, 0x00, 0x00, 0x00, 0x00, 0x00, 0x00, 0x00, 0x00, 0x00, 
.................... 0x07, 0xE0, 0x00, 0x00, 0x00, 0x00, 0x00, 0x00, 0x00, 0x00, 0x00, 0x00, 0x00, 0x00, 0x00, 0x00, 
.................... 0x03, 0xC0, 0x00, 0x00, 0x00, 0x00, 0x00, 0x00, 0x00, 0x00, 0x00, 0x00, 0x00, 0x00, 0x00, 0x00, 
.................... 0x00, 0x00, 0x00, 0x00, 0x00, 0x00, 0x00, 0x00, 0x00, 0x00, 0x00, 0x00, 0x00, 0x00, 0x00, 0x00, 
.................... 0x00, 0x00, 0x00, 0x00, 0x00, 0x00, 0x00, 0x00, 0x00, 0x00, 0x00, 0x00, 0x00, 0x00, 0x00, 0x00, 
.................... 0x00, 0x00, 0x00, 0x00, 0x00, 0x00, 0x00, 0x00, 0x00, 0x00, 0x00, 0x00, 0x00, 0x00, 0x00, 0x00, 
.................... 0x00, 0x00, 0x00, 0x00, 0x00, 0x00, 0x00, 0x00, 0x00, 0x00, 0x00, 0x00, 0x00, 0x00, 0x00, 0x00, 
.................... 0x00, 0x00, 0x00, 0x00, 0x00, 0x00, 0x00, 0x00, 0x00, 0x00, 0x00, 0x00, 0x00, 0x00, 0x00, 0x00, 
.................... 0x00, 0x00, 0x00, 0x00, 0x00, 0x00, 0x00, 0x00, 0x00, 0x00, 0x00, 0x00, 0x00, 0x00, 0x00, 0x00, 
.................... 0x00, 0x00, 0x00, 0x00, 0x00, 0x00, 0x00, 0x00, 0x00, 0x00, 0x00, 0x00, 0x00, 0x00, 0x00, 0x00, 
.................... 0x00, 0x00, 0x00, 0x00, 0x00, 0x00, 0x00, 0x00, 0x00, 0x00, 0x00, 0x00, 0x00, 0x00, 0x00, 0x00, 
.................... 0x00, 0x00, 0x00, 0x00, 0x00, 0x00, 0x00, 0x00, 0x00, 0x00, 0x00, 0x00, 0x00, 0x00, 0x00, 0x00, 
.................... 0x00, 0x00, 0x00, 0x00, 0x00, 0x00, 0x00, 0x00, 0x00, 0x00, 0x00, 0x00, 0x00, 0x00, 0x00, 0x00, 
.................... 0x00, 0x00, 0x00, 0x00, 0x00, 0x00, 0x00, 0x00, 0x00, 0x00, 0x00, 0x00, 0x00, 0x00, 0x00, 0x00, 
.................... 0x00, 0x00, 0x00, 0x00, 0x00, 0x00, 0x00, 0x00, 0x00, 0x00, 0x00, 0x00, 0x00, 0x00, 0x00, 0x00, 
.................... 0x00, 0x00, 0x00, 0x00, 0x00, 0x00, 0x00, 0x00, 0x00, 0x00, 0x00, 0x00, 0x00, 0x00, 0x00, 0x00, 
.................... 0x00, 0x00, 0x00, 0x00, 0x00, 0x00, 0x00, 0x00, 0x00, 0x00, 0x00, 0x00, 0x00, 0x00, 0x00, 0x00, 
.................... 0x00, 0x00, 0x00, 0x00, 0x00, 0x00, 0x00, 0x00, 0x00, 0x00, 0x00, 0x00, 0x00, 0x00, 0x00, 0x00, 
.................... 0x00, 0x00, 0x00, 0x00, 0x00, 0x00, 0x00, 0x00, 0x00, 0x00, 0x00, 0x00, 0x00, 0x00, 0x00, 0x00, 
.................... 0x00, 0x00, 0x00, 0x00, 0x00, 0x00, 0x00, 0x00, 0x00, 0x00, 0x00, 0x00, 0x00, 0x00, 0x00, 0x00, 
.................... 0x00, 0x00, 0x00, 0x00, 0x00, 0x00, 0x00, 0x00, 0x00, 0x00, 0x00, 0x00, 0x00, 0x00, 0x00, 0x00, 
.................... 0x00, 0x00, 0x00, 0x00, 0x00, 0x00, 0x00, 0x00, 0x00, 0x00, 0x00, 0x00, 0x00, 0x00, 0x00, 0x00, 
.................... 0x00, 0x00, 0x00, 0x00, 0x00, 0x00, 0x00, 0x00, 0x00, 0x00, 0x00, 0x00, 0x00, 0x00, 0x00, 0x00 
.................... }; 
....................  
....................  
.................... #include <MATH.h> 
.................... //////////////////////////////////////////////////////////////////////////// 
.................... ////        (C) Copyright 1996,2008 Custom Computer Services            //// 
.................... //// This source code may only be used by licensed users of the CCS C   //// 
.................... //// compiler.  This source code may only be distributed to other       //// 
.................... //// licensed users of the CCS C compiler.  No other use, reproduction  //// 
.................... //// or distribution is permitted without written permission.           //// 
.................... //// Derivative programs created using this software in object code     //// 
.................... //// form are not restricted in any way.                                //// 
.................... //////////////////////////////////////////////////////////////////////////// 
.................... ////                                                                    //// 
.................... //// History:                                                           //// 
.................... ////  * 9/20/2001 :  Improvments are made to sin/cos code.              //// 
.................... ////                 The code now is small, much faster,                //// 
.................... ////                 and more accurate.                                 //// 
.................... ////  * 2/21/2007 :  Compiler handles & operator differently and does 
.................... ////                 not return generic (int8 *) so type cast is done   //// 
.................... ////                                                                    //// 
.................... //////////////////////////////////////////////////////////////////////////// 
....................  
.................... #ifndef MATH_H 
.................... #define MATH_H 
....................  
.................... #ifdef PI 
.................... #undef  PI 
.................... #endif 
.................... #define PI     3.1415926535897932 
....................  
....................  
.................... #define SQRT2  1.4142135623730950 
....................  
.................... //float const ps[4] = {5.9304945, 21.125224, 8.9403076, 0.29730279}; 
.................... //float const qs[4] = {1.0000000, 15.035723, 17.764134, 2.4934718}; 
....................  
.................... ///////////////////////////// Round Functions ////////////////////////////// 
....................  
.................... float32 CEIL_FLOOR(float32 x, unsigned int8 n) 
.................... { 
....................    float32 y, res; 
....................    unsigned int16 l; 
....................    int1 s; 
....................  
....................    s = 0; 
....................    y = x; 
....................  
....................    if (x < 0) 
....................    { 
....................       s = 1; 
....................       y = -y; 
....................    } 
....................  
....................    if (y <= 32768.0) 
....................   res = (float32)(unsigned int16)y; 
....................  
....................  else if (y < 10000000.0) 
....................    { 
....................   l = (unsigned int16)(y/32768.0); 
....................       y = 32768.0*(y/32768.0 - (float32)l); 
....................   res = 32768.0*(float32)l; 
....................   res += (float32)(unsigned int16)y; 
....................  } 
....................  
....................  else 
....................   res = y; 
....................  
....................  y = y - (float32)(unsigned int16)y; 
....................  
....................  if (s) 
....................   res = -res; 
....................  
....................  if (y != 0) 
....................  { 
....................   if (s == 1 && n == 0) 
....................    res -= 1.0; 
....................  
....................   if (s == 0 && n == 1) 
....................    res += 1.0; 
....................  } 
....................  if (x == 0) 
....................     res = 0; 
....................  
....................  return (res); 
.................... } 
....................  
.................... // Overloaded Functions to take care for new Data types in PCD 
.................... // Overloaded function CEIL_FLOOR() for data type - Float48 
.................... #if defined(__PCD__) 
.................... float48 CEIL_FLOOR(float48 x, unsigned int8 n) 
.................... { 
....................    float48 y, res; 
....................    unsigned int16 l; 
....................    int1 s; 
....................  
....................    s = 0; 
....................    y = x; 
....................  
....................    if (x < 0) 
....................    { 
....................       s = 1; 
....................       y = -y; 
....................    } 
....................  
....................    if (y <= 32768.0) 
....................   res = (float48)(unsigned int16)y; 
....................  
....................  else if (y < 10000000.0) 
....................    { 
....................   l = (unsigned int16)(y/32768.0); 
....................       y = 32768.0*(y/32768.0 - (float48)l); 
....................   res = 32768.0*(float32)l; 
....................   res += (float48)(unsigned int16)y; 
....................  } 
....................  
....................  else 
....................   res = y; 
....................  
....................  y = y - (float48)(unsigned int16)y; 
....................  
....................  if (s) 
....................   res = -res; 
....................  
....................  if (y != 0) 
....................  { 
....................   if (s == 1 && n == 0) 
....................    res -= 1.0; 
....................  
....................   if (s == 0 && n == 1) 
....................    res += 1.0; 
....................  } 
....................  if (x == 0) 
....................     res = 0; 
....................  
....................  return (res); 
.................... } 
....................  
....................  
.................... // Overloaded function CEIL_FLOOR() for data type - Float64 
.................... float64 CEIL_FLOOR(float64 x, unsigned int8 n) 
.................... { 
....................    float64 y, res; 
....................    unsigned int16 l; 
....................    int1 s; 
....................  
....................    s = 0; 
....................    y = x; 
....................  
....................    if (x < 0) 
....................    { 
....................       s = 1; 
....................       y = -y; 
....................    } 
....................  
....................    if (y <= 32768.0) 
....................   res = (float64)(unsigned int16)y; 
....................  
....................  else if (y < 10000000.0) 
....................    { 
....................   l = (unsigned int16)(y/32768.0); 
....................       y = 32768.0*(y/32768.0 - (float64)l); 
....................   res = 32768.0*(float64)l; 
....................   res += (float64)(unsigned int16)y; 
....................  } 
....................  
....................  else 
....................   res = y; 
....................  
....................  y = y - (float64)(unsigned int16)y; 
....................  
....................  if (s) 
....................   res = -res; 
....................  
....................  if (y != 0) 
....................  { 
....................   if (s == 1 && n == 0) 
....................    res -= 1.0; 
....................  
....................   if (s == 0 && n == 1) 
....................    res += 1.0; 
....................  } 
....................  if (x == 0) 
....................     res = 0; 
....................  
....................  return (res); 
.................... } 
.................... #endif 
....................  
.................... //////////////////////////////////////////////////////////////////////////// 
.................... //   float floor(float x) 
.................... //////////////////////////////////////////////////////////////////////////// 
.................... // Description : rounds down the number x. 
.................... // Date : N/A 
.................... // 
.................... float32 floor(float32 x) 
.................... { 
....................    return CEIL_FLOOR(x, 0); 
.................... } 
.................... // Following 2 functions are overloaded functions of floor() for PCD 
.................... // Overloaded function floor() for data type - Float48 
.................... #if defined(__PCD__) 
.................... float48 floor(float48 x) 
.................... { 
....................    return CEIL_FLOOR(x, 0); 
.................... } 
....................  
.................... // Overloaded function floor() for data type - Float64 
.................... float64 floor(float64 x) 
.................... { 
....................    return CEIL_FLOOR(x, 0); 
.................... } 
.................... #endif 
....................  
....................  
.................... //////////////////////////////////////////////////////////////////////////// 
.................... //   float ceil(float x) 
.................... //////////////////////////////////////////////////////////////////////////// 
.................... // Description : rounds up the number x. 
.................... // Date : N/A 
.................... // 
.................... float32 ceil(float32 x) 
.................... { 
....................    return CEIL_FLOOR(x, 1); 
.................... } 
.................... // Following 2 functions are overloaded functions of ceil() for PCD 
.................... // Overloaded function ceil() for data type - Float48 
.................... #if defined(__PCD__) 
.................... float48 ceil(float48 x) 
.................... { 
....................    return CEIL_FLOOR(x, 1); 
.................... } 
....................  
.................... // Overloaded function ceil() for data type - Float64 
.................... float64 ceil(float64 x) 
.................... { 
....................    return CEIL_FLOOR(x, 1); 
.................... } 
.................... #endif 
....................  
....................  //////////////////////////////////////////////////////////////////////////// 
.................... //   float fabs(float x) 
.................... //////////////////////////////////////////////////////////////////////////// 
.................... // Description : Computes the absolute value of floating point number x 
.................... // Returns : returns the absolute value of x 
.................... // Date : N/A 
.................... // 
.................... #define fabs abs 
....................  
.................... //////////////////////////////////////////////////////////////////////////// 
.................... //   float fmod(float x) 
.................... //////////////////////////////////////////////////////////////////////////// 
.................... // Description : Computes the floating point remainder of x/y 
.................... // Returns : returns the value of x= i*y, for some integer i such that, if y 
.................... // is non zero, the result has the same isgn of x na dmagnitude less than the 
.................... // magnitude of y. If y is zero then a domain error occurs. 
.................... // Date : N/A 
.................... // 
....................  
.................... float fmod(float32 x,float32 y) 
.................... { 
....................    float32 i; 
....................    if (y!=0.0) 
....................    { 
....................       i=(x/y < 0.0)? ceil(x/y): floor(x/y); 
....................       return(x-(i*y)); 
....................    } 
....................    else 
....................    { 
....................    #ifdef _ERRNO 
....................    { 
....................       errno=EDOM; 
....................    } 
....................    #endif 
....................    } 
.................... } 
.................... //Overloaded function for fmod() for PCD 
.................... // Overloaded function fmod() for data type - Float48 
.................... #if defined(__PCD__) 
.................... float48 fmod(float48 x,float48 y) 
.................... { 
....................    float48 i; 
....................    if (y!=0.0) 
....................    { 
....................       i=(x/y < 0.0)? ceil(x/y): floor(x/y); 
....................       return(x-(i*y)); 
....................    } 
....................    else 
....................    { 
....................    #ifdef _ERRNO 
....................    { 
....................       errno=EDOM; 
....................    } 
....................    #endif 
....................    } 
.................... } 
.................... // Overloaded function fmod() for data type - Float64 
.................... float64 fmod(float64 x,float64 y) 
.................... { 
....................    float64 i; 
....................    if (y!=0.0) 
....................    { 
....................       i=(x/y < 0.0)? ceil(x/y): floor(x/y); 
....................       return(x-(i*y)); 
....................    } 
....................    else 
....................    { 
....................    #ifdef _ERRNO 
....................    { 
....................       errno=EDOM; 
....................    } 
....................    #endif 
....................    } 
.................... } 
.................... #endif 
.................... //////////////////// Exponential and logarithmic functions //////////////////// 
.................... //////////////////////////////////////////////////////////////////////////// 
.................... //   float exp(float x) 
.................... //////////////////////////////////////////////////////////////////////////// 
.................... // Description : returns the value (e^x) 
.................... // Date : N/A 
.................... // 
.................... #define LN2 0.6931471805599453 
....................  
.................... float const pe[6] = {0.000207455774, 0.00127100575, 0.00965065093, 
....................                      0.0554965651,  0.240227138,  0.693147172}; 
....................  
....................  
.................... float32 exp(float32 x) 
.................... { 
....................    float32 y, res, r; 
....................    #if defined(__PCD__) 
....................    int8 data1; 
....................    #endif 
....................    signed int8 n; 
....................    int1 s; 
....................    #ifdef _ERRNO 
....................    if(x > 88.722838) 
....................    { 
....................       errno=ERANGE; 
....................       return(0); 
....................    } 
....................    #endif 
....................    n = (signed int16)(x/LN2); 
....................    s = 0; 
....................    y = x; 
....................  
....................    if (x < 0) 
....................    { 
....................       s = 1; 
....................       n = -n; 
....................       y = -y; 
....................    } 
....................  
....................    res = 0.0; 
.................... #if !defined(__PCD__) 
....................    *((unsigned int8 *)(&res)) = n + 0x7F; 
.................... #endif 
....................  
.................... #if defined(__PCD__)  // Takes care of IEEE format for PCD 
....................    data1 = n+0x7F; 
....................    if(bit_test(data1,0)) 
....................    bit_set(*(((unsigned int8 *)(&res)+2)),7); 
....................    rotate_right(&data1,1); 
....................    bit_clear(data1,7); 
....................    *(((unsigned int8 *)(&res)+3)) = data1; 
.................... #endif 
....................  
....................    y = y/LN2 - (float32)n; 
....................  
....................    r = pe[0]*y + pe[1]; 
....................    r = r*y + pe[2]; 
....................    r = r*y + pe[3]; 
....................    r = r*y + pe[4]; 
....................    r = r*y + pe[5]; 
....................  
....................    res = res*(1.0 + y*r); 
....................  
....................    if (s) 
....................       res = 1.0/res; 
....................    return(res); 
.................... } 
....................  
....................  
.................... //Overloaded function for exp() for PCD 
.................... // Overloaded function exp() for data type - Float48 
.................... #if defined(__PCD__) 
.................... float48 exp(float48 x) 
.................... { 
....................    float48 y, res, r; 
....................    int8 data1; 
....................    signed int8 n; 
....................    int1 s; 
....................    #ifdef _ERRNO 
....................    if(x > 88.722838) 
....................    { 
....................       errno=ERANGE; 
....................       return(0); 
....................    } 
....................    #endif 
....................    n = (signed int16)(x/LN2); 
....................    s = 0; 
....................    y = x; 
....................  
....................    if (x < 0) 
....................    { 
....................       s = 1; 
....................       n = -n; 
....................       y = -y; 
....................    } 
....................  
....................    res = 0.0; 
....................  
....................    data1 = n+0x7F; 
....................    if(bit_test(data1,0)) 
....................    bit_set(*(((unsigned int8 *)(&res)+4)),7); 
....................    rotate_right(&data1,1); 
....................    bit_clear(data1,7); 
....................    *(((unsigned int8 *)(&res)+5)) = data1; 
....................  
....................    y = y/LN2 - (float48)n; 
....................  
....................    r = pe[0]*y + pe[1]; 
....................    r = r*y + pe[2]; 
....................    r = r*y + pe[3]; 
....................    r = r*y + pe[4]; 
....................    r = r*y + pe[5]; 
....................  
....................    res = res*(1.0 + y*r); 
....................  
....................    if (s) 
....................       res = 1.0/res; 
....................    return(res); 
.................... } 
....................  
.................... // Overloaded function exp() for data type - Float64 
.................... float64 exp(float64 x) 
.................... { 
....................    float64 y, res, r; 
....................    unsigned int16 data1, data2; 
....................    unsigned int16 *p; 
....................    signed int16 n; 
....................    int1 s; 
....................    #ifdef _ERRNO 
....................    if(x > 709.7827128) 
....................    { 
....................       errno=ERANGE; 
....................       return(0); 
....................    } 
....................    #endif 
....................    n = (signed int16)(x/LN2); 
....................    s = 0; 
....................    y = x; 
....................  
....................    if (x < 0) 
....................    { 
....................       s = 1; 
....................       n = -n; 
....................       y = -y; 
....................    } 
....................  
....................    res = 0.0; 
....................  
.................... #if !defined(__PCD__) 
....................    *((unsigned int16 *)(&res)) = n + 0x7F; 
.................... #endif 
....................    p= (((unsigned int16 *)(&res))+3); 
....................    data1 = *p; 
....................    data2 = *p;    
....................    data1 = n + 0x3FF; 
....................    data1 = data1 <<4; 
....................    if(bit_test(data2,15)) 
....................    bit_set(data1,15); 
....................    data2 = data2 & 0x000F; 
....................    data1 ^= data2; 
....................  
....................    *(((unsigned int16 *)(&res)+3)) = data1; 
....................  
....................  
....................    y = y/LN2 - (float64)n; 
....................  
....................    r = pe[0]*y + pe[1]; 
....................    r = r*y + pe[2]; 
....................    r = r*y + pe[3]; 
....................    r = r*y + pe[4]; 
....................    r = r*y + pe[5]; 
....................  
....................    res = res*(1.0 + y*r); 
....................  
....................    if (s) 
....................       res = 1.0/res; 
....................    return(res); 
.................... } 
....................  
.................... #ENDIF 
....................  
....................  
.................... /************************************************************/ 
....................  
.................... float32 const pl[4] = {0.45145214, -9.0558803, 26.940971, -19.860189}; 
.................... float32 const ql[4] = {1.0000000,  -8.1354259, 16.780517, -9.9300943}; 
....................  
.................... //////////////////////////////////////////////////////////////////////////// 
.................... //   float log(float x) 
.................... //////////////////////////////////////////////////////////////////////////// 
.................... // Description : returns the the natural log of x 
.................... // Date : N/A 
.................... // 
.................... float32 log(float32 x) 
.................... { 
....................    float32 y, res, r, y2; 
....................    #if defined(__PCD__) 
....................    unsigned int8  data1,data2; 
....................    #endif 
....................    signed int8 n; 
....................    #ifdef _ERRNO 
....................    if(x <0) 
....................    { 
....................       errno=EDOM; 
....................    } 
....................    if(x ==0) 
....................    { 
....................       errno=ERANGE; 
....................       return(0); 
....................    } 
....................    #endif 
....................    y = x; 
....................  
....................    if (y != 1.0) 
....................    { 
.................... #if !defined(__PCD__) 
....................     *((unsigned int8 *)(&y)) = 0x7E;  
.................... #endif 
....................  
.................... #if defined(__PCD__) // Takes care of IEEE format 
....................    data2 = *(((unsigned int8 *)(&y))+3); 
....................    *(((unsigned int8 *)(&y))+3) = 0x3F; 
....................    data1 = *(((unsigned int8 *)(&y))+2); 
....................    bit_clear(data1,7); 
....................    *(((unsigned int8 *)(&y))+2) = data1; 
....................    if(bit_test(data2,7)) 
....................    bit_set(*(((unsigned int8 *)(&y))+3),7); 
.................... #endif 
....................  
....................       y = (y - 1.0)/(y + 1.0); 
....................  
....................       y2=y*y; 
....................  
....................       res = pl[0]*y2 + pl[1]; 
....................       res = res*y2 + pl[2]; 
....................       res = res*y2 + pl[3]; 
....................  
....................       r = ql[0]*y2 + ql[1]; 
....................       r = r*y2 + ql[2]; 
....................       r = r*y2 + ql[3]; 
....................  
....................       res = y*res/r; 
.................... #if !defined(__PCD__) 
....................       n = *((unsigned int8 *)(&x)) - 0x7E; 
.................... #endif 
.................... #if defined(__PCD__)  
....................     data1 = *(((unsigned int8 *)(&x)+3)); 
....................     rotate_left(&data1,1); 
....................     data2 = *(((unsigned int8 *)(&x)+2)); 
....................     if(bit_test (data2,7)) 
....................       bit_set(data1,0); 
....................     n = data1 - 0x7E; 
.................... #endif 
....................  
....................       if (n<0)  
....................          r = -(float32)-n; 
....................       else 
....................          r = (float32)n; 
....................  
....................       res += r*LN2; 
....................    } 
....................  
....................    else 
....................       res = 0.0; 
....................  
....................    return(res); 
.................... } 
....................  
.................... //Overloaded function for log() for PCD 
.................... // Overloaded function log() for data type - Float48 
.................... #if defined(__PCD__) 
.................... float48 log(float48 x) 
.................... { 
....................    float48 y, res, r, y2; 
....................    unsigned int8  data1,data2; 
....................    signed int8 n; 
....................    #ifdef _ERRNO 
....................    if(x <0) 
....................    { 
....................       errno=EDOM; 
....................    } 
....................    if(x ==0) 
....................    { 
....................       errno=ERANGE; 
....................       return(0); 
....................    } 
....................    #endif 
....................    y = x; 
....................  
....................    if (y != 1.0) 
....................    { 
....................     
....................    #if !defined(__PCD__) 
....................        *((unsigned int8 *)(&y)) = 0x7E;  
....................    #endif 
....................       data2 = *(((unsigned int8 *)(&y))+5); 
....................       *(((unsigned int8 *)(&y))+5) = 0x3F; 
....................       data1 = *(((unsigned int8 *)(&y))+4); 
....................       bit_clear(data1,7); 
....................       *(((unsigned int8 *)(&y))+4) = data1; 
....................    
....................       if(bit_test(data2,7)) 
....................          bit_set(*(((unsigned int8 *)(&y))+4),7); 
....................       y = (y - 1.0)/(y + 1.0); 
....................  
....................       y2=y*y; 
....................  
....................       res = pl[0]*y2 + pl[1]; 
....................       res = res*y2 + pl[2]; 
....................       res = res*y2 + pl[3]; 
....................  
....................       r = ql[0]*y2 + ql[1]; 
....................       r = r*y2 + ql[2]; 
....................       r = r*y2 + ql[3]; 
....................  
....................       res = y*res/r; 
....................  
....................     data1 = *(((unsigned int8 *)(&x)+5)); 
....................     rotate_left(&data1,1); 
....................     data2 = *(((unsigned int8 *)(&x)+4)); 
....................     if(bit_test (data2,7)) 
....................        bit_set(data1,0); 
....................       
....................     n = data1 - 0x7E; 
....................  
....................       if (n<0) 
....................          r = -(float48)-n; 
....................       else 
....................          r = (float48)n; 
....................  
....................       res += r*LN2; 
....................    } 
....................  
....................    else 
....................       res = 0.0; 
....................  
....................    return(res); 
.................... } 
....................  
.................... // Overloaded function log() for data type - Float48 
.................... #if defined(__PCD__) 
.................... float32 const pl_64[4] = {0.45145214, -9.0558803, 26.940971, -19.860189}; 
.................... float32 const ql_64[4] = {1.0000000,  -8.1354259, 16.780517, -9.9300943}; 
.................... #endif 
.................... float64 log(float64 x) 
.................... { 
....................    float64 y, res, r, y2; 
....................    unsigned int16  data1,data2; 
....................    unsigned int16 *p; 
....................    signed int16 n; 
....................    #ifdef _ERRNO 
....................    if(x <0) 
....................    { 
....................       errno=EDOM; 
....................    } 
....................    if(x ==0) 
....................    { 
....................       errno=ERANGE; 
....................       return(0); 
....................    } 
....................    #endif 
....................    y = x; 
....................  
....................    if (y != 1.0) 
....................    { 
....................    #if !defined(__PCD__) 
....................        *((unsigned int8 *)(&y)) = 0x7E;  
....................    #endif 
....................       p= (((unsigned int16 *)(&y))+3); 
....................       data1 = *p; 
....................       data2 = *p; 
....................       data1 = 0x3FE; 
....................       data1 = data1 <<4; 
....................       if(bit_test (data2,15)) 
....................       bit_set(data1,15); 
....................       data2 = data2 & 0x000F; 
....................       data1 ^=data2; 
....................  
....................       *p = data1; 
....................  
....................       y = (y - 1.0)/(y + 1.0); 
....................  
....................       y2=y*y; 
....................  
....................       res = pl_64[0]*y2 + pl_64[1]; 
....................       res = res*y2 + pl_64[2]; 
....................       res = res*y2 + pl_64[3]; 
....................  
....................       r = ql_64[0]*y2 + ql_64[1]; 
....................       r = r*y2 + ql_64[2]; 
....................       r = r*y2 + ql_64[3]; 
....................  
....................       res = y*res/r; 
....................   
....................       p= (((unsigned int16 *)(&x))+3); 
....................       data1 = *p; 
....................       bit_clear(data1,15); 
....................       data1 = data1 >>4;     
....................       n = data1 - 0x3FE; 
....................  
....................  
....................       if (n<0) 
....................          r = -(float64)-n; 
....................       else 
....................          r = (float64)n; 
....................  
....................       res += r*LN2; 
....................    } 
....................  
....................    else 
....................       res = 0.0; 
....................  
....................    return(res); 
.................... } 
.................... #endif 
....................  
....................  
.................... #define LN10 2.3025850929940456 
....................  
.................... //////////////////////////////////////////////////////////////////////////// 
.................... //   float log10(float x) 
.................... //////////////////////////////////////////////////////////////////////////// 
.................... // Description : returns the the log base 10 of x 
.................... // Date : N/A 
.................... // 
.................... float32 log10(float32 x) 
.................... { 
....................    float32 r; 
....................  
....................    r = log(x); 
....................    r = r/LN10; 
....................    return(r); 
.................... } 
....................  
.................... //Overloaded functions for log10() for PCD 
.................... // Overloaded function log10() for data type - Float48 
.................... #if defined(__PCD__) 
.................... float48 log10(float48 x) 
.................... { 
....................    float48 r; 
....................  
....................    r = log(x); 
....................    r = r/LN10; 
....................    return(r); 
.................... } 
....................  
.................... // Overloaded function log10() for data type - Float64 
.................... float64 log10(float64 x) 
.................... { 
....................    float64 r; 
....................  
....................    r = log(x); 
....................    r = r/LN10; 
....................    return(r); 
.................... } 
.................... #endif 
.................... //////////////////////////////////////////////////////////////////////////// 
.................... //   float modf(float x) 
.................... //////////////////////////////////////////////////////////////////////////// 
.................... // Description :breaks the argument value int integral and fractional parts, 
.................... // ach of which have the same sign as the argument.  It stores the integral part 
.................... // as a float in the object pointed to by the iptr 
.................... // Returns : returns the signed fractional part of value. 
.................... // Date : N/A 
.................... // 
....................  
.................... float32 modf(float32 value,float32 *iptr) 
.................... { 
....................    *iptr=(value < 0.0)? ceil(value): floor(value); 
....................    return(value - *iptr); 
.................... } 
.................... //Overloaded functions for modf() for PCD 
.................... // Overloaded function modf() for data type - Float48 
.................... #if defined(__PCD__) 
.................... float48 modf(float48 value,float48 *iptr) 
.................... { 
....................    *iptr=(value < 0.0)? ceil(value): floor(value); 
....................    return(value - *iptr); 
.................... } 
.................... // Overloaded function modf() for data type - Float64 
.................... float64 modf(float64 value,float64 *iptr) 
.................... { 
....................    *iptr=(value < 0.0)? ceil(value): floor(value); 
....................    return(value - *iptr); 
.................... } 
.................... #endif 
....................  
.................... //////////////////////////////////////////////////////////////////////////// 
.................... //   float pwr(float x,float y) 
.................... //////////////////////////////////////////////////////////////////////////// 
.................... // Description : returns the value (x^y) 
.................... // Date : N/A 
.................... // Note : 0 is returned when the function will generate an imaginary number 
.................... // 
.................... float32 pwr(float32 x,float32 y) 
.................... { 
....................    if(0 > x && fmod(y, 1) == 0) { 
....................       if(fmod(y, 2) == 0) { 
....................          return (exp(log(-x) * y)); 
....................       } else { 
....................          return (-exp(log(-x) * y)); 
....................       } 
....................    } else if(0 > x && fmod(y, 1) != 0) { 
....................       return 0; 
....................    } else { 
....................       if(x != 0 || 0 >= y) { 
....................          return (exp(log(x) * y)); 
....................       } 
....................    } 
.................... } 
.................... //Overloaded functions for pwr() for PCD 
.................... // Overloaded function pwr() for data type - Float48 
.................... #if defined(__PCD__) 
.................... float48 pwr(float48 x,float48 y) 
.................... { 
....................    if(0 > x && fmod(y, 1) == 0) { 
....................       if(fmod(y, 2) == 0) { 
....................          return (exp(log(-x) * y)); 
....................       } else { 
....................          return (-exp(log(-x) * y)); 
....................       } 
....................    } else if(0 > x && fmod(y, 1) != 0) { 
....................       return 0; 
....................    } else { 
....................       if(x != 0 || 0 >= y) { 
....................          return (exp(log(x) * y)); 
....................       } 
....................    } 
.................... } 
.................... // Overloaded function pwr() for data type - Float64 
.................... float64 pwr(float64 x,float64 y) 
.................... { 
....................    if(0 > x && fmod(y, 1) == 0) { 
....................       if(fmod(y, 2) == 0) { 
....................          return (exp(log(-x) * y)); 
....................       } else { 
....................          return (-exp(log(-x) * y)); 
....................       } 
....................    } else if(0 > x && fmod(y, 1) != 0) { 
....................       return 0; 
....................    } else { 
....................       if(x != 0 || 0 >= y) { 
....................          return (exp(log(x) * y)); 
....................       } 
....................    } 
.................... } 
.................... #endif 
....................  
.................... //////////////////// Power functions //////////////////// 
....................  
.................... //////////////////////////////////////////////////////////////////////////// 
.................... //   float pow(float x,float y) 
.................... //////////////////////////////////////////////////////////////////////////// 
.................... // Description : returns the value (x^y) 
.................... // Date : N/A 
.................... // Note : 0 is returned when the function will generate an imaginary number 
.................... // 
.................... float32 pow(float32 x,float32 y) 
.................... { 
....................    if(0 > x && fmod(y, 1) == 0) { 
....................       if(fmod(y, 2) == 0) { 
....................          return (exp(log(-x) * y)); 
....................       } else { 
....................          return (-exp(log(-x) * y)); 
....................       } 
....................    } else if(0 > x && fmod(y, 1) != 0) { 
....................       return 0; 
....................    } else { 
....................       if(x != 0 || 0 >= y) { 
....................          return (exp(log(x) * y)); 
....................       } 
....................    } 
.................... } 
.................... //Overloaded functions for pow() for PCD 
.................... // Overloaded function for pow() data type - Float48 
.................... #if defined(__PCD__) 
.................... float48 pow(float48 x,float48 y) 
.................... { 
....................    if(0 > x && fmod(y, 1) == 0) { 
....................       if(fmod(y, 2) == 0) { 
....................          return (exp(log(-x) * y)); 
....................       } else { 
....................          return (-exp(log(-x) * y)); 
....................       } 
....................    } else if(0 > x && fmod(y, 1) != 0) { 
....................       return 0; 
....................    } else { 
....................       if(x != 0 || 0 >= y) { 
....................          return (exp(log(x) * y)); 
....................       } 
....................    } 
.................... } 
....................  
.................... // Overloaded function pow() for data type - Float64 
.................... float64 pow(float64 x,float64 y) 
.................... { 
....................    if(0 > x && fmod(y, 1) == 0) { 
....................       if(fmod(y, 2) == 0) { 
....................          return (exp(log(-x) * y)); 
....................       } else { 
....................          return (-exp(log(-x) * y)); 
....................       } 
....................    } else if(0 > x && fmod(y, 1) != 0) { 
....................       return 0; 
....................    } else { 
....................       if(x != 0 || 0 >= y) { 
....................          return (exp(log(x) * y)); 
....................       } 
....................    } 
.................... } 
.................... #endif 
....................  
.................... //////////////////////////////////////////////////////////////////////////// 
.................... //   float sqrt(float x) 
.................... //////////////////////////////////////////////////////////////////////////// 
.................... // Description : returns the square root of x 
.................... // Date : N/A 
.................... // 
.................... float32 sqrt(float32 x) 
.................... { 
....................    float32 y, res; 
....................    #if defined(__PCD__) 
....................    unsigned int16 data1,data2; 
....................    #endif 
....................    BYTE *p; 
....................  
....................    #ifdef _ERRNO 
....................    if(x < 0) 
....................    { 
....................       errno=EDOM; 
....................    } 
....................    #endif 
....................  
....................    if( x<=0.0) 
....................       return(0.0); 
....................  
....................    y=x; 
....................     
....................    #if !defined(__PCD__) 
....................     p=&y; 
....................    (*p)=(BYTE)((((unsigned int16)(*p)) + 127) >> 1); 
....................    #endif 
....................     
....................    #if defined(__PCD__) 
....................     p = (((unsigned int8 *)(&y))+3); 
....................     data1 = *(((unsigned int8 *)(&y))+3); 
....................     data2 = *(((unsigned int8 *)(&y))+2); 
....................     rotate_left(&data1,1);     
....................     if(bit_test(data2,7))     
....................     bit_set(data1,0);     
....................     data1 = ((data1+127) >>1); 
....................     bit_clear(data2,7); 
....................     if(bit_test(data1,0)) 
....................     bit_set(data2,7); 
....................     data1 = data1 >>1; 
....................     *(((unsigned int8 *)(&y))+3) = data1; 
....................     *(((unsigned int8 *)(&y))+2) = data2; 
....................      
....................   #endif 
....................  
....................    do { 
....................       res=y; 
....................       y+=(x/y); 
....................  
....................       #if !defined(__PCD__) 
....................      (*p)--; 
....................    #endif 
....................     
....................    #if defined(__PCD__) 
....................     data1 = *(((unsigned int8 *)(&y))+3); 
....................     data2 = *(((unsigned int8 *)(&y))+2); 
....................     rotate_left(&data1,1); 
....................     if(bit_test(data2,7)) 
....................     bit_set(data1,0);     
....................     data1--; 
....................     bit_clear(data2,7); 
....................     if(bit_test(data1,0)) 
....................     bit_set(data2,7); 
....................     data1 = data1 >>1; 
....................     *(((unsigned int8 *)(&y))+3) = data1; 
....................     *(((unsigned int8 *)(&y))+2) = data2; 
....................      
....................   #endif 
....................    } while(res != y); 
....................  
....................    return(res); 
.................... } 
.................... //Overloaded functions for sqrt() for PCD 
.................... // Overloaded function sqrt() for data type - Float48 
.................... #if defined(__PCD__) 
.................... float48 sqrt(float48 x) 
.................... { 
....................    float48 y, res; 
....................    unsigned int16 data1,data2; 
....................    BYTE *p; 
....................  
....................    #ifdef _ERRNO 
....................    if(x < 0) 
....................    { 
....................       errno=EDOM; 
....................    } 
....................    #endif 
....................  
....................    if( x<=0.0) 
....................       return(0.0); 
....................  
....................    y=x; 
....................     
....................    #if !defined(__PCD__) 
....................     p=&y; 
....................    (*p)=(BYTE)((((unsigned int16)(*p)) + 127) >> 1); 
....................    #endif 
....................     
....................    #if defined(__PCD__) 
....................     p = (((unsigned int8 *)(&y))+5); 
....................     data1 = *(((unsigned int8 *)(&y))+5); 
....................     data2 = *(((unsigned int8 *)(&y))+4); 
....................     rotate_left(&data1,1); 
....................     if(bit_test(data2,7)) 
....................     bit_set(data1,0);     
....................     data1 = ((data1+127) >>1); 
....................     bit_clear(data2,7); 
....................     if(bit_test(data1,0)) 
....................     bit_set(data2,7); 
....................     data1 = data1 >>1; 
....................     *(((unsigned int8 *)(&y))+5) = data1; 
....................     *(((unsigned int8 *)(&y))+4) = data2; 
....................      
....................   #endif 
....................  
....................    do { 
....................       res=y; 
....................       y+=(x/y); 
....................  
....................       #if !defined(__PCD__) 
....................      (*p)--; 
....................    #endif 
....................     
....................     data1 = *(((unsigned int8 *)(&y))+5); 
....................     data2 = *(((unsigned int8 *)(&y))+4); 
....................     rotate_left(&data1,1); 
....................     if(bit_test(data2,7)) 
....................     bit_set(data1,0);     
....................     data1--; 
....................     bit_clear(data2,7); 
....................     if(bit_test(data1,0)) 
....................     bit_set(data2,7); 
....................     data1 = data1 >>1; 
....................     *(((unsigned int8 *)(&y))+5) = data1; 
....................     *(((unsigned int8 *)(&y))+4) = data2; 
....................      
....................    } while(res != y); 
....................  
....................    return(res); 
.................... } 
....................  
.................... // Overloaded function sqrt() for data type - Float64 
.................... float64 sqrt(float64 x) 
.................... { 
....................    float64 y, res; 
....................    unsigned int16 *p; 
....................    unsigned int16 temp1,temp2; 
....................  
....................    #ifdef _ERRNO 
....................    if(x < 0) 
....................    { 
....................       errno=EDOM; 
....................    } 
....................    #endif 
....................  
....................    if( x<=0.0) 
....................       return(0.0); 
....................  
....................    y=x; 
....................    p= (((unsigned int16 *)(&y))+3); 
....................    temp1 = *p; 
....................    temp2 = *p; 
....................    bit_clear(temp1,15); 
....................    temp1 = (temp1>>4)+1023; 
....................    temp1 = temp1 >> 1; 
....................    temp1 = (temp1<<4) & 0xFFF0; 
....................    if(bit_test(temp2,15)) 
....................    bit_set(temp1,15); 
....................    temp2 = temp2 & 0x000F; 
....................    temp1 ^= temp2; 
....................     
....................    (*p) = temp1; 
....................     
....................    do { 
....................       res=y; 
....................       y+=(x/y); 
....................      temp1 = *p; 
....................      temp2 = *p; 
....................      bit_clear(temp1,15); 
....................      temp1 = (temp1>>4); 
....................      temp1--; 
....................      temp1 = (temp1<<4) & 0xFFF0; 
....................      if(bit_test(temp2,15)) 
....................      bit_set(temp1,15); 
....................      temp2 = temp2 & 0x000F; 
....................      temp1 ^= temp2; 
....................      (*p) = temp1; 
....................  
....................    } while(res != y); 
....................  
....................    return(res); 
.................... } 
.................... #endif 
....................  
.................... ////////////////////////////// Trig Functions ////////////////////////////// 
.................... #ifdef PI_DIV_BY_TWO 
.................... #undef PI_DIV_BY_TWO 
.................... #endif 
.................... #define PI_DIV_BY_TWO   1.5707963267948966 
.................... #ifdef TWOBYPI 
.................... #undef TWOBYPI 
.................... #define TWOBYPI          0.6366197723675813 
.................... #endif 
.................... //////////////////////////////////////////////////////////////////////////// 
.................... //   float cos(float x) 
.................... //////////////////////////////////////////////////////////////////////////// 
.................... // Description : returns the cosine value of the angle x, which is in radian 
.................... // Date : 9/20/2001 
.................... // 
.................... float32 cos(float32 x) 
.................... { 
....................    float32 y, t, t2 = 1.0; 
....................    unsigned int8 quad, i; 
....................    float32 frac; 
....................    float32 p[6] = {                    //by the series definition for cosine 
....................       -0.5,                            // sum ( ( (-1)^n * x^2n )/(2n)! ) 
....................        0.04166666666667, 
....................       -0.00138888888889, 
....................        0.00002480158730, 
....................       -0.00000027557319, 
....................        0.00000000208767, 
....................       //-0.00000000001147, 
....................       // 0.00000000000005 
....................    }; 
....................  
....................    if (x < 0) x = -x;                  // absolute value of input 
....................  
....................    quad = (unsigned int8)(x / PI_DIV_BY_TWO);    // quadrant 
....................    frac = (x / PI_DIV_BY_TWO) - quad;  // fractional part of input 
....................    quad = quad % 4;                    // quadrant (0 to 3) 
....................  
....................    if (quad == 0 || quad == 2) 
....................       t = frac * PI_DIV_BY_TWO; 
....................    else if (quad == 1) 
....................       t = (1-frac) * PI_DIV_BY_TWO; 
....................    else // should be 3 
....................       t = (frac-1) * PI_DIV_BY_TWO; 
....................  
....................    y = 1.0; 
....................    t = t * t; 
....................    for (i = 0; i <= 5; i++) 
....................    { 
....................       t2 = t2 * t; 
....................       y = y + p[i] * t2; 
....................    } 
....................  
....................    if (quad == 2 || quad == 1) 
....................       y = -y;  // correct sign 
....................  
....................    return (y); 
.................... } 
....................  
....................  
.................... //Overloaded functions for cos() for PCD 
.................... // Overloaded function cos() for data type - Float48 
.................... #if defined(__PCD__) 
.................... float48 cos(float48 x) 
.................... { 
....................    float48 y, t, t2 = 1.0; 
....................    unsigned int8 quad, i; 
....................    float48 frac; 
....................    float48 p[6] = {                    //by the series definition for cosine 
....................       -0.5,                            // sum ( ( (-1)^n * x^2n )/(2n)! ) 
....................        0.04166666666667, 
....................       -0.00138888888889, 
....................        0.00002480158730, 
....................       -0.00000027557319, 
....................        0.00000000208767, 
....................       //-0.00000000001147, 
....................       // 0.00000000000005 
....................    }; 
....................  
....................    if (x < 0) x = -x;                  // absolute value of input 
....................  
....................    quad = (unsigned int8)(x / PI_DIV_BY_TWO);    // quadrant 
....................    frac = (x / PI_DIV_BY_TWO) - quad;  // fractional part of input 
....................    quad = quad % 4;                    // quadrant (0 to 3) 
....................  
....................    if (quad == 0 || quad == 2) 
....................       t = frac * PI_DIV_BY_TWO; 
....................    else if (quad == 1) 
....................       t = (1-frac) * PI_DIV_BY_TWO; 
....................    else // should be 3 
....................       t = (frac-1) * PI_DIV_BY_TWO; 
....................  
....................    y = 0.999999999781; 
....................    t = t * t; 
....................    for (i = 0; i <= 5; i++) 
....................    { 
....................       t2 = t2 * t; 
....................       y = y + p[i] * t2; 
....................    } 
....................  
....................    if (quad == 2 || quad == 1) 
....................       y = -y;  // correct sign 
....................  
....................    return (y); 
.................... } 
....................  
.................... // Overloaded function cos() for data type - Float48 
.................... float64 cos(float64 x) 
.................... { 
....................    float64 y, t, t2 = 1.0; 
....................    unsigned int8 quad, i; 
....................    float64 frac; 
....................    float64 p[6] = {                    //by the series definition for cosine 
....................       -0.5,                            // sum ( ( (-1)^n * x^2n )/(2n)! ) 
....................        0.04166666666667, 
....................       -0.00138888888889, 
....................        0.00002480158730, 
....................       -0.00000027557319, 
....................        0.00000000208767, 
....................       //-0.00000000001147, 
....................       // 0.00000000000005 
....................    }; 
....................  
....................    if (x < 0) x = -x;                  // absolute value of input 
....................  
....................    quad = (unsigned int8)(x / PI_DIV_BY_TWO);    // quadrant 
....................    frac = (x / PI_DIV_BY_TWO) - quad;  // fractional part of input 
....................    quad = quad % 4;                    // quadrant (0 to 3) 
....................  
....................    if (quad == 0 || quad == 2) 
....................       t = frac * PI_DIV_BY_TWO; 
....................    else if (quad == 1) 
....................       t = (1-frac) * PI_DIV_BY_TWO; 
....................    else // should be 3 
....................       t = (frac-1) * PI_DIV_BY_TWO; 
....................  
....................    y = 0.999999999781; 
....................    t = t * t; 
....................    for (i = 0; i <= 5; i++) 
....................    { 
....................       t2 = t2 * t; 
....................       y = y + p[i] * t2; 
....................    } 
....................  
....................    if (quad == 2 || quad == 1) 
....................       y = -y;  // correct sign 
....................  
....................    return (y); 
.................... } 
....................  
.................... #endif 
....................  
.................... //////////////////////////////////////////////////////////////////////////// 
.................... //   float sin(float x) 
.................... //////////////////////////////////////////////////////////////////////////// 
.................... // Description : returns the sine value of the angle x, which is in radian 
.................... // Date : 9/20/2001 
.................... // 
.................... float32 sin(float32 x) 
.................... { 
....................    return cos(x - PI_DIV_BY_TWO); 
.................... } 
....................  
.................... //Overloaded functions for sin() for PCD 
.................... // Overloaded function sin() for data type - Float48 
.................... #if defined(__PCD__) 
.................... float48 sin(float48 x) 
.................... { 
....................    return cos(x - PI_DIV_BY_TWO); 
.................... } 
....................  
.................... // Overloaded function sin() for data type - Float48 
.................... float64 sin(float64 x) 
.................... { 
....................    return cos(x - PI_DIV_BY_TWO); 
.................... } 
.................... #endif 
....................  
.................... //////////////////////////////////////////////////////////////////////////// 
.................... //   float tan(float x) 
.................... //////////////////////////////////////////////////////////////////////////// 
.................... // Description : returns the tangent value of the angle x, which is in radian 
.................... // Date : 9/20/2001 
.................... // 
.................... float32 tan(float32 x) 
.................... { 
....................    float32 c, s; 
....................  
....................    c = cos(x); 
....................    if (c == 0.0) 
....................       return (1.0e+36); 
....................  
....................    s = sin(x); 
....................    return(s/c); 
.................... } 
.................... //Overloaded functions for tan() for PCD 
.................... // Overloaded function tan() for data type - Float48 
.................... #if defined(__PCD__) 
.................... float48 tan(float48 x) 
.................... { 
....................    float48 c, s; 
....................  
....................    c = cos(x); 
....................    if (c == 0.0) 
....................       return (1.0e+36); 
....................  
....................    s = sin(x); 
....................    return(s/c); 
.................... } 
....................  
.................... // Overloaded function tan() for data type - Float48 
.................... float64 tan(float64 x) 
.................... { 
....................    float64 c, s; 
....................  
....................    c = cos(x); 
....................    if (c == 0.0) 
....................       return (1.0e+36); 
....................  
....................    s = sin(x); 
....................    return(s/c); 
.................... } 
.................... #endif 
....................  
.................... float32 const pas[3] = {0.49559947, -4.6145309, 5.6036290}; 
.................... float32 const qas[3] = {1.0000000,  -5.5484666, 5.6036290}; 
....................  
.................... float32 ASIN_COS(float32 x, unsigned int8 n) 
.................... { 
....................    float32 y, res, r, y2; 
....................    int1 s; 
....................    #ifdef _ERRNO 
....................    if(x <-1 || x > 1) 
....................    { 
....................       errno=EDOM; 
....................    } 
....................    #endif 
....................    s = 0; 
....................    y = x; 
....................  
....................    if (x < 0) 
....................    { 
....................       s = 1; 
....................       y = -y; 
....................    } 
....................  
....................    if (y > 0.5) 
....................    { 
....................       y = sqrt((1.0 - y)/2.0); 
....................       n += 2; 
....................    } 
....................  
....................    y2=y*y; 
....................  
....................    res = pas[0]*y2 + pas[1]; 
....................    res = res*y2 + pas[2]; 
....................  
....................    r = qas[0]*y2 + qas[1]; 
....................    r = r*y2 + qas[2]; 
....................  
....................    res = y*res/r; 
....................  
....................    if (n & 2)     // |x| > 0.5 
....................       res = PI_DIV_BY_TWO - 2.0*res; 
....................    if (s) 
....................       res = -res; 
....................    if (n & 1)           // take arccos 
....................       res = PI_DIV_BY_TWO - res; 
....................  
....................    return(res); 
.................... } 
....................  
.................... //Overloaded functions for ASIN_COS() for PCD 
.................... // Overloaded function ASIN_COS() for data type - Float48 
.................... #if defined(__PCD__) 
.................... float48 ASIN_COS(float48 x, unsigned int8 n) 
.................... { 
....................    float48 y, res, r, y2; 
....................    int1 s; 
....................    #ifdef _ERRNO 
....................    if(x <-1 || x > 1) 
....................    { 
....................       errno=EDOM; 
....................    } 
....................    #endif 
....................    s = 0; 
....................    y = x; 
....................  
....................    if (x < 0) 
....................    { 
....................       s = 1; 
....................       y = -y; 
....................    } 
....................  
....................    if (y > 0.5) 
....................    { 
....................       y = sqrt((1.0 - y)/2.0); 
....................       n += 2; 
....................    } 
....................  
....................    y2=y*y; 
....................  
....................    res = pas[0]*y2 + pas[1]; 
....................    res = res*y2 + pas[2]; 
....................  
....................    r = qas[0]*y2 + qas[1]; 
....................    r = r*y2 + qas[2]; 
....................  
....................    res = y*res/r; 
....................  
....................    if (n & 2)     // |x| > 0.5 
....................       res = PI_DIV_BY_TWO - 2.0*res; 
....................    if (s) 
....................       res = -res; 
....................    if (n & 1)           // take arccos 
....................       res = PI_DIV_BY_TWO - res; 
....................  
....................    return(res); 
.................... } 
....................  
.................... // Overloaded function ASIN_COS() for data type - Float64 
.................... float64 ASIN_COS(float64 x, unsigned int8 n) 
.................... { 
....................    float64 y, res, r, y2; 
....................    int1 s; 
....................    #ifdef _ERRNO 
....................    if(x <-1 || x > 1) 
....................    { 
....................       errno=EDOM; 
....................    } 
....................    #endif 
....................    s = 0; 
....................    y = x; 
....................  
....................    if (x < 0) 
....................    { 
....................       s = 1; 
....................       y = -y; 
....................    } 
....................  
....................    if (y > 0.5) 
....................    { 
....................       y = sqrt((1.0 - y)/2.0); 
....................       n += 2; 
....................    } 
....................  
....................    y2=y*y; 
....................  
....................    res = pas[0]*y2 + pas[1]; 
....................    res = res*y2 + pas[2]; 
....................  
....................    r = qas[0]*y2 + qas[1]; 
....................    r = r*y2 + qas[2]; 
....................  
....................    res = y*res/r; 
....................  
....................    if (n & 2)     // |x| > 0.5 
....................       res = PI_DIV_BY_TWO - 2.0*res; 
....................    if (s) 
....................       res = -res; 
....................    if (n & 1)           // take arccos 
....................       res = PI_DIV_BY_TWO - res; 
....................  
....................    return(res); 
.................... } 
.................... #endif 
....................  
.................... //////////////////////////////////////////////////////////////////////////// 
.................... //   float asin(float x) 
.................... //////////////////////////////////////////////////////////////////////////// 
.................... // Description : returns the arcsine value of the value x. 
.................... // Date : N/A 
.................... // 
.................... float32 asin(float32 x) 
.................... { 
....................    float32 r; 
....................  
....................    r = ASIN_COS(x, 0); 
....................    return(r); 
.................... } 
.................... //Overloaded functions for asin() for PCD 
.................... // Overloaded function asin() for data type - Float48 
.................... #if defined(__PCD__) 
.................... float48 asin(float48 x) 
.................... { 
....................    float48 r; 
....................  
....................    r = ASIN_COS(x, 0); 
....................    return(r); 
.................... } 
....................  
.................... // Overloaded function asin() for data type - Float64 
.................... float64 asin(float64 x) 
.................... { 
....................    float64 r; 
....................  
....................    r = ASIN_COS(x, 0); 
....................    return(r); 
.................... } 
.................... #endif 
....................  
.................... //////////////////////////////////////////////////////////////////////////// 
.................... //   float acos(float x) 
.................... //////////////////////////////////////////////////////////////////////////// 
.................... // Description : returns the arccosine value of the value x. 
.................... // Date : N/A 
.................... // 
.................... float32 acos(float32 x) 
.................... { 
....................    float32 r; 
....................  
....................    r = ASIN_COS(x, 1); 
....................    return(r); 
.................... } 
.................... //Overloaded functions for acos() for PCD 
.................... // Overloaded function acos() for data type - Float48 
.................... #if defined(__PCD__) 
.................... float48 acos(float48 x) 
.................... { 
....................    float48 r; 
....................  
....................    r = ASIN_COS(x, 1); 
....................    return(r); 
.................... } 
....................  
.................... // Overloaded function acos() for data type - Float64 
.................... float64 acos(float64 x) 
.................... { 
....................    float64 r; 
....................  
....................    r = ASIN_COS(x, 1); 
....................    return(r); 
.................... } 
.................... #endif 
....................  
.................... float32 const pat[4] = {0.17630401, 5.6710795, 22.376096, 19.818457}; 
.................... float32 const qat[4] = {1.0000000,  11.368190, 28.982246, 19.818457}; 
....................  
.................... //////////////////////////////////////////////////////////////////////////// 
.................... //   float atan(float x) 
.................... //////////////////////////////////////////////////////////////////////////// 
.................... // Description : returns the arctangent value of the value x. 
.................... // Date : N/A 
.................... // 
.................... float32 atan(float32 x) 
.................... { 
....................    float32 y, res, r; 
....................    int1 s, flag; 
....................  
....................    s = 0; 
....................    flag = 0; 
....................    y = x; 
....................  
....................    if (x < 0) 
....................    { 
....................       s = 1; 
....................       y = -y; 
....................    } 
....................  
....................    if (y > 1.0) 
....................    { 
....................       y = 1.0/y; 
....................       flag = 1; 
....................    } 
....................  
....................    res = pat[0]*y*y + pat[1]; 
....................    res = res*y*y + pat[2]; 
....................    res = res*y*y + pat[3]; 
....................  
....................    r = qat[0]*y*y + qat[1]; 
....................    r = r*y*y + qat[2]; 
....................    r = r*y*y + qat[3]; 
....................  
....................    res = y*res/r; 
....................  
....................  
....................    if (flag)                              // for |x| > 1 
....................       res = PI_DIV_BY_TWO - res; 
....................    if (s) 
....................       res = -res; 
....................  
....................    return(res); 
.................... } 
.................... //Overloaded functions for atan() for PCD 
.................... // Overloaded function atan() for data type - Float48 
.................... #if defined(__PCD__) 
.................... float48 atan(float48 x) 
.................... { 
....................    float48 y, res, r; 
....................    int1 s, flag; 
....................  
....................    s = 0; 
....................    flag = 0; 
....................    y = x; 
....................  
....................    if (x < 0) 
....................    { 
....................       s = 1; 
....................       y = -y; 
....................    } 
....................  
....................    if (y > 1.0) 
....................    { 
....................       y = 1.0/y; 
....................       flag = 1; 
....................    } 
....................  
....................    res = pat[0]*y*y + pat[1]; 
....................    res = res*y*y + pat[2]; 
....................    res = res*y*y + pat[3]; 
....................  
....................    r = qat[0]*y*y + qat[1]; 
....................    r = r*y*y + qat[2]; 
....................    r = r*y*y + qat[3]; 
....................  
....................    res = y*res/r; 
....................  
....................  
....................    if (flag)                              // for |x| > 1 
....................       res = PI_DIV_BY_TWO - res; 
....................    if (s) 
....................       res = -res; 
....................  
....................    return(res); 
.................... } 
....................  
.................... // Overloaded function atan() for data type - Float64 
.................... float64 atan(float64 x) 
.................... { 
....................    float64 y, res, r; 
....................    int1 s, flag; 
....................  
....................    s = 0; 
....................    flag = 0; 
....................    y = x; 
....................  
....................    if (x < 0) 
....................    { 
....................       s = 1; 
....................       y = -y; 
....................    } 
....................  
....................    if (y > 1.0) 
....................    { 
....................       y = 1.0/y; 
....................       flag = 1; 
....................    } 
....................  
....................    res = pat[0]*y*y + pat[1]; 
....................    res = res*y*y + pat[2]; 
....................    res = res*y*y + pat[3]; 
....................  
....................    r = qat[0]*y*y + qat[1]; 
....................    r = r*y*y + qat[2]; 
....................    r = r*y*y + qat[3]; 
....................  
....................    res = y*res/r; 
....................  
....................  
....................    if (flag)                              // for |x| > 1 
....................       res = PI_DIV_BY_TWO - res; 
....................    if (s) 
....................       res = -res; 
....................  
....................    return(res); 
.................... } 
.................... #endif 
....................  
.................... ///////////////////////////////////////////////////////////////////////////// 
.................... //   float atan2(float y, float x) 
.................... ///////////////////////////////////////////////////////////////////////////// 
.................... // Description :computes the principal value of arc tangent of y/x, using the 
.................... // signs of both the arguments to determine the quadrant of the return value 
.................... // Returns : returns the arc tangent of y/x. 
.................... // Date : N/A 
.................... // 
....................  
.................... float32 atan2(float32 y,float32 x) 
.................... { 
....................    float32 z; 
....................    int1 sign; 
....................    unsigned int8 quad; 
....................    sign=0; 
....................    quad=0; //quadrant 
....................    quad=((y<=0.0)?((x<=0.0)?3:4):((x<0.0)?2:1)); 
....................    if(y<0.0) 
....................    { 
....................       sign=1; 
....................       y=-y; 
....................    } 
....................    if(x<0.0) 
....................    { 
....................       x=-x; 
....................    } 
....................    if (x==0.0) 
....................    { 
....................       if(y==0.0) 
....................       { 
....................       #ifdef _ERRNO 
....................       { 
....................          errno=EDOM; 
....................       } 
....................       #endif 
....................       } 
....................       else 
....................       { 
....................          if(sign) 
....................          { 
....................          return (-(PI_DIV_BY_TWO)); 
....................          } 
....................          else 
....................          { 
....................          return (PI_DIV_BY_TWO); 
....................          } 
....................       } 
....................    } 
....................    else 
....................    { 
....................       z=y/x; 
....................       switch(quad) 
....................       { 
....................          case 1: 
....................          { 
....................             return atan(z); 
....................             break; 
....................          } 
....................          case 2: 
....................          { 
.................... //            return (atan(z)+PI_DIV_BY_TWO);  //2L3122 
....................             return (PI-atan(z)); 
....................             break; 
....................          } 
....................          case 3: 
....................          { 
....................             return (atan(z)-PI); 
....................             break; 
....................          } 
....................          case 4: 
....................          { 
....................             return (-atan(z)); 
....................             break; 
....................          } 
....................       } 
....................    } 
.................... } 
....................  
.................... //Overloaded functions for atan2() for PCD 
.................... // Overloaded function atan2() for data type - Float48 
.................... #if defined(__PCD__) 
.................... float48 atan2(float48 y,float48 x) 
.................... { 
....................    float48 z; 
....................    int1 sign; 
....................    unsigned int8 quad; 
....................    sign=0; 
....................    quad=0; //quadrant 
....................    quad=((y<=0.0)?((x<=0.0)?3:4):((x<0.0)?2:1)); 
....................    if(y<0.0) 
....................    { 
....................       sign=1; 
....................       y=-y; 
....................    } 
....................    if(x<0.0) 
....................    { 
....................       x=-x; 
....................    } 
....................    if (x==0.0) 
....................    { 
....................       if(y==0.0) 
....................       { 
....................       #ifdef _ERRNO 
....................       { 
....................          errno=EDOM; 
....................       } 
....................       #endif 
....................       } 
....................       else 
....................       { 
....................          if(sign) 
....................          { 
....................          return (-(PI_DIV_BY_TWO)); 
....................          } 
....................          else 
....................          { 
....................          return (PI_DIV_BY_TWO); 
....................          } 
....................       } 
....................    } 
....................    else 
....................    { 
....................       z=y/x; 
....................       switch(quad) 
....................       { 
....................          case 1: 
....................          { 
....................             return atan(z); 
....................             break; 
....................          } 
....................          case 2: 
....................          { 
.................... //            return (atan(z)+PI_DIV_BY_TWO);  //2L3122 
....................             return (PI-atan(z)); 
....................             break; 
....................          } 
....................          case 3: 
....................          { 
....................             return (atan(z)-PI); 
....................             break; 
....................          } 
....................          case 4: 
....................          { 
....................             return (-atan(z)); 
....................             break; 
....................          } 
....................       } 
....................    } 
.................... } 
....................  
.................... // Overloaded function atan2() for data type - Float64 
.................... float64 atan2(float64 y,float64 x) 
.................... { 
....................    float64 z; 
....................    int1 sign; 
....................    unsigned int8 quad; 
....................    sign=0; 
....................    quad=0; //quadrant 
....................    quad=((y<=0.0)?((x<=0.0)?3:4):((x<0.0)?2:1)); 
....................    if(y<0.0) 
....................    { 
....................       sign=1; 
....................       y=-y; 
....................    } 
....................    if(x<0.0) 
....................    { 
....................       x=-x; 
....................    } 
....................    if (x==0.0) 
....................    { 
....................       if(y==0.0) 
....................       { 
....................       #ifdef _ERRNO 
....................       { 
....................          errno=EDOM; 
....................       } 
....................       #endif 
....................       } 
....................       else 
....................       { 
....................          if(sign) 
....................          { 
....................          return (-(PI_DIV_BY_TWO)); 
....................          } 
....................          else 
....................          { 
....................          return (PI_DIV_BY_TWO); 
....................          } 
....................       } 
....................    } 
....................    else 
....................    { 
....................       z=y/x; 
....................       switch(quad) 
....................       { 
....................          case 1: 
....................          { 
....................             return atan(z); 
....................             break; 
....................          } 
....................          case 2: 
....................          { 
.................... //            return (atan(z)+PI_DIV_BY_TWO);  //2L3122 
....................             return (PI-atan(z)); 
....................             break; 
....................          } 
....................          case 3: 
....................          { 
....................             return (atan(z)-PI); 
....................             break; 
....................          } 
....................          case 4: 
....................          { 
....................             return (-atan(z)); 
....................             break; 
....................          } 
....................       } 
....................    } 
.................... } 
.................... #endif 
....................  
.................... //////////////////// Hyperbolic functions //////////////////// 
....................  
.................... //////////////////////////////////////////////////////////////////////////// 
.................... //   float cosh(float x) 
.................... //////////////////////////////////////////////////////////////////////////// 
.................... // Description : Computes the hyperbolic cosine value of x 
.................... // Returns : returns the hyperbolic cosine value of x 
.................... // Date : N/A 
.................... // 
....................  
.................... float32 cosh(float32 x) 
.................... { 
....................    return ((exp(x)+exp(-x))/2); 
.................... } 
.................... //Overloaded functions for cosh() for PCD 
.................... // Overloaded function cosh() for data type - Float48 
.................... #if defined(__PCD__) 
.................... float48 cosh(float48 x) 
.................... { 
....................    return ((exp(x)+exp(-x))/2); 
.................... } 
....................  
.................... // Overloaded function cosh() for data type - Float64 
.................... float64 cosh(float64 x) 
.................... { 
....................    return ((exp(x)+exp(-x))/2); 
.................... } 
.................... #endif 
....................  
.................... //////////////////////////////////////////////////////////////////////////// 
.................... //   float sinh(float x) 
.................... //////////////////////////////////////////////////////////////////////////// 
.................... // Description : Computes the hyperbolic sine value of x 
.................... // Returns : returns the hyperbolic sine value of x 
.................... // Date : N/A 
.................... // 
....................  
.................... float32 sinh(float32 x) 
.................... { 
....................  
....................    return ((exp(x) - exp(-x))/2); 
.................... } 
.................... //Overloaded functions for sinh() for PCD 
.................... // Overloaded function sinh() for data type - Float48 
.................... #if defined(__PCD__) 
.................... float48 sinh(float48 x) 
.................... { 
....................  
....................    return ((exp(x) - exp(-x))/2); 
.................... } 
....................  
.................... // Overloaded function sinh() for data type - Float48 
.................... float64 sinh(float64 x) 
.................... { 
....................  
....................    return ((exp(x) - exp(-x))/2); 
.................... } 
.................... #endif 
....................  
.................... //////////////////////////////////////////////////////////////////////////// 
.................... //   float tanh(float x) 
.................... //////////////////////////////////////////////////////////////////////////// 
.................... // Description : Computes the hyperbolic tangent value of x 
.................... // Returns : returns the hyperbolic tangent value of x 
.................... // Date : N/A 
.................... // 
....................  
.................... float32 tanh(float32 x) 
.................... { 
....................    return(sinh(x)/cosh(x)); 
.................... } 
.................... //Overloaded functions for tanh() for PCD 
.................... // Overloaded function tanh() for data type - Float48 
.................... #if defined(__PCD__) 
.................... float48 tanh(float48 x) 
.................... { 
....................    return(sinh(x)/cosh(x)); 
.................... } 
....................  
.................... // Overloaded function tanh() for data type - Float64 
.................... float64 tanh(float64 x) 
.................... { 
....................    return(sinh(x)/cosh(x)); 
.................... } 
.................... #endif 
....................  
.................... //////////////////////////////////////////////////////////////////////////// 
.................... //   float frexp(float x, signed int *exp) 
.................... //////////////////////////////////////////////////////////////////////////// 
.................... // Description : breaks a floating point number into a normalized fraction and an integral 
.................... // power of 2. It stores the integer in the signed int object pointed to by exp. 
.................... // Returns : returns the value x, such that x is a double with magnitude in the interval 
.................... // [1/2,1) or zero, and value equals x times 2 raised to the power *exp.If value is zero, 
.................... // both parts of the result are zero. 
.................... // Date : N/A 
.................... // 
....................  
.................... #define LOG2 .30102999566398119521 
.................... float32 frexp(float32 x, signed int8 *exp) 
.................... { 
....................    float32 res; 
....................    int1 sign = 0; 
....................    if(x == 0.0) 
....................    { 
....................       *exp=0; 
....................       return (0.0); 
....................    } 
....................    if(x < 0.0) 
....................    { 
....................      x=-x; 
....................      sign=1; 
....................    } 
....................    if (x > 1.0) 
....................    { 
....................       *exp=(ceil(log10(x)/LOG2)); 
....................       res=x/(pow(2, *exp)); 
....................       if (res == 1) 
....................       { 
....................          *exp=*exp+1; 
....................           res=.5; 
....................       } 
....................    } 
....................    else 
....................    { 
....................       if(x < 0.5) 
....................       { 
....................          *exp=-1; 
....................          res=x*2; 
....................       } 
....................       else 
....................       { 
....................          *exp=0; 
....................           res=x; 
....................       } 
....................    } 
....................    if(sign) 
....................    { 
....................       res=-res; 
....................    } 
....................    return res; 
.................... } 
....................  
.................... //Overloaded functions for frexp() for PCD 
.................... // Overloaded function frexp() for data type - Float48 
.................... #if defined(__PCD__) 
.................... float48 frexp(float48 x, signed int8 *exp) 
.................... { 
....................    float48 res; 
....................    int1 sign = 0; 
....................    if(x == 0.0) 
....................    { 
....................       *exp=0; 
....................       return (0.0); 
....................    } 
....................    if(x < 0.0) 
....................    { 
....................      x=-x; 
....................      sign=1; 
....................    } 
....................    if (x > 1.0) 
....................    { 
....................       *exp=(ceil(log10(x)/LOG2)); 
....................       res=x/(pow(2, *exp)); 
....................       if (res == 1) 
....................       { 
....................          *exp=*exp+1; 
....................           res=.5; 
....................       } 
....................    } 
....................    else 
....................    { 
....................       if(x < 0.5) 
....................       { 
....................          *exp=-1; 
....................          res=x*2; 
....................       } 
....................       else 
....................       { 
....................          *exp=0; 
....................           res=x; 
....................       } 
....................    } 
....................    if(sign) 
....................    { 
....................       res=-res; 
....................    } 
....................    return res; 
.................... } 
....................  
.................... // Overloaded function frexp() for data type - Float64 
.................... float64 frexp(float64 x, signed int8 *exp) 
.................... { 
....................    float64 res; 
....................    int1 sign = 0; 
....................    if(x == 0.0) 
....................    { 
....................       *exp=0; 
....................       return (0.0); 
....................    } 
....................    if(x < 0.0) 
....................    { 
....................      x=-x; 
....................      sign=1; 
....................    } 
....................    if (x > 1.0) 
....................    { 
....................       *exp=(ceil(log10(x)/LOG2)); 
....................       res=x/(pow(2, *exp)); 
....................       if (res == 1) 
....................       { 
....................          *exp=*exp+1; 
....................           res=.5; 
....................       } 
....................    } 
....................    else 
....................    { 
....................       if(x < 0.5) 
....................       { 
....................          *exp=-1; 
....................          res=x*2; 
....................       } 
....................       else 
....................       { 
....................          *exp=0; 
....................           res=x; 
....................       } 
....................    } 
....................    if(sign) 
....................    { 
....................       res=-res; 
....................    } 
....................    return res; 
.................... } 
.................... #endif 
....................  
.................... ////////////////////////////////////////////////////////////////////////////// 
.................... //   float ldexp(float x, signed int *exp) 
.................... ////////////////////////////////////////////////////////////////////////////// 
.................... // Description : multiplies a floating point number by an integral power of 2. 
.................... // Returns : returns the value of x times 2 raised to the power exp. 
.................... // Date : N/A 
.................... // 
....................  
.................... float32 ldexp(float32 value, signed int8 exp) 
.................... { 
....................    return (value * pow(2,exp)); 
.................... } 
.................... //Overloaded functions for ldexp() for PCD 
.................... // Overloaded function ldexp() for data type - Float48 
....................  
.................... #if defined(__PCD__) 
.................... float48 ldexp(float48 value, signed int8 exp) 
.................... { 
....................    return (value * pow(2,exp)); 
.................... } 
.................... // Overloaded function ldexp() for data type - Float64 
.................... float64 ldexp(float64 value, signed int8 exp) 
.................... { 
....................    return (value * pow(2,exp)); 
.................... } 
.................... #endif 
....................  
.................... #endif 
....................  
....................  
.................... // Definicin de teclado - NO 
.................... #define   UP               !input(PIN_A5) 
.................... #define   DOWN             !input(PIN_E0) 
.................... #define   RIGHT            !input(PIN_E1) 
.................... #define   LEFT             !input(PIN_E2) 
....................  
.................... #define   DOOR             input(PIN_A4) 
.................... #define   TERM             input(PIN_A3) 
....................  
.................... #define   Resistencia_on   output_bit(PIN_C0,1) 
.................... #define   Resistencia_off  output_bit(PIN_C0,0) 
.................... #define   Buzz_on          output_bit(PIN_C5,1) 
.................... #define   Buzz_off         output_bit(PIN_C5,0) 
.................... #define   Vent1_on         output_bit(PIN_C1,0) 
.................... #define   Vent1_off        output_bit(PIN_C1,1) 
.................... #define   Vent2_on         output_bit(PIN_C2,0) 
.................... #define   Vent2_off        output_bit(PIN_C2,1) 
.................... #define   Display_on       output_bit(PIN_B1,1) 
.................... #define   Display_off      output_bit(PIN_B1,0) 
....................  
.................... #define Pasos 16 
....................  
.................... //Comunicacion//------------------------ 
.................... byte SlaveA0Tx[0X20]; 
.................... byte dato=0;            //Contendr la informacin a enviar o recibir 
.................... byte direccion=0;       //Contendr la direccin del esclavo en el bus I2C 
.................... byte posicion=0;  
.................... float promedio[90]={0.0,0.0,0.0,0.0,0.0,0.0,0.0,0.0,0.0,0.0,0.0,0.0,0.0,0.0,0.0,0.0,0.0,0.0,0.0,0.0,0.0,0.0,0.0,0.0,0.0,0.0,0.0,0.0,0.0,0.0,0.0,0.0,0.0,0.0,0.0,0.0,0.0,0.0,0.0,0.0,0.0,0.0,0.0,0.0,0.0,0.0,0.0,0.0,0.0,0.0,0.0,0.0,0.0,0.0,0.0,0.0,0.0,0.0,0.0,0.0,0.0,0.0,0.0,0.0,0.0,0.0,0.0,0.0,0.0,0.0,0.0,0.0,0.0,0.0}; 
.................... float promedio2[30]; 
.................... float X[2]={0.0,0.0}; 
.................... short flagup=0,flagdn=0,Desconectado=0,mensaje=0; 
.................... int8 h=0,l=0,Ajuste=0,Ajusten=0,MediaMovil=10,tiemporecta=0,flag_ganancia=0,Lectura2=0,tiempoup=0,tiempodn=0,Segmentos=0,Segmento=0,Modo=5; 
.................... short Flanco=0,Flanco1=0,Flanco2=0,visual=1,Lectura=0,flag_calcula=0; 
.................... short flag_clear2=0,flag_clear3=0,flag_tiempocalentamiento=0,flag_display=0,flag_setpoint=0,Dibuja=0; 
.................... int8 y=0,tiemporeset=0,Programa=1,Control=0,n=0,l2=0,h2=0; 
.................... int8 Menu=0, unidad=1,i=0,j=1,Pausa=0,Pausa_ant=0,TiempoControl=0; 
.................... int8 Opcion=1,tiempo_esterilizacion=0,ProgramaSeleccionado=0,Alarma=10,m_int=0,m_dec=0,b_int=0,b_dec=0; 
.................... int16 tiempos=0,tiempos3=0,tiempoctrl=0,tinicio=0,tiempocalentamiento=0,tiemposetpoint=0,Tp=0,Tc=0,AlTem=20.0,b16=0; 
.................... float PendienteMinutos=0,TempeInicial=20,Tiempo=0,TiempoActual=0,PendienteActual=0,HorasActual=0,MinutosActual=0,TiempoRampa=0; 
.................... float Potencia=0.0,PotenciaEntregada=0.0,ambiente=0.0; 
.................... signed int  Testerilizacion[4]={0,0,0,0};   // Tiempo transcurrido 
.................... signed int  Testerilizacionp[4]={0,0,0,0};   // Tiempo transcurrido 
.................... signed int  Contrasena[4]={0,0,0,0};      // Contrasena de 4 digitos 
.................... signed int  Password[4]={0,0,0,0};        // Contrasena Almacenada de 4 digitos 
.................... float V0=0.0,Tciclo=10.0,Tpulso=0.0,error=0.0,Prom=0.0,Temperature=0.0,tmp=0.0,GananciaIn=0,Ganancia=3.0,desvio=3.0,Coeficiente=150.0,resistencia=240.0; 
.................... float Aumento=0.0,Temperatura=0.0,Pendiente=0.0,DifPendiente=0.0,Setpoint=0,Integral=0,Derivativo=0,m=0,b=0,adcSup=0,adcInf=0,Tsup=1250,Tinf=0,penMufla=50; 
.................... float TemperaturaIdeal=0,penInicial=0; 
.................... signed int16 Temperatura1[Pasos*5]; 
.................... signed int16 Horas1[Pasos*5]; 
.................... signed int16 Minutos1[Pasos*5]; 
....................  
.................... #include <Funciones.h> 
.................... //Funciones utilizadas en la Mufla 
....................  
.................... typedef struct{ 
....................    char Letra[30]; 
.................... }MENUU; 
....................  
.................... MENUU Menus; 
....................  
.................... void ActualizaRecta(){ 
....................    X[y]=Temperatura; 
*
05900:  MOVLB  6
05902:  MOVF   x31,W
05904:  MULLW  04
05906:  MOVF   FF3,W
05908:  CLRF   03
0590A:  ADDLW  1A
0590C:  MOVWF  FE9
0590E:  MOVLW  06
05910:  ADDWFC 03,W
05912:  MOVWF  FEA
05914:  MOVFF  6CB,FEF
05918:  MOVFF  6CC,FEC
0591C:  MOVFF  6CD,FEC
05920:  MOVFF  6CE,FEC
....................    y++; 
05924:  INCF   x31,F
....................    if(y>=2) 
05926:  MOVF   x31,W
05928:  SUBLW  01
0592A:  BTFSC  FD8.0
0592C:  BRA    5BD4
....................    { 
....................       y=0; 
0592E:  CLRF   x31
....................       Aumento=X[1]-X[0]; 
05930:  BSF    FD8.1
05932:  MOVFF  621,91D
05936:  MOVFF  620,91C
0593A:  MOVFF  61F,91B
0593E:  MOVFF  61E,91A
05942:  MOVFF  61D,921
05946:  MOVFF  61C,920
0594A:  MOVFF  61B,91F
0594E:  MOVFF  61A,91E
05952:  MOVLB  0
05954:  CALL   1F68
05958:  MOVFF  03,6CA
0595C:  MOVFF  02,6C9
05960:  MOVFF  01,6C8
05964:  MOVFF  00,6C7
....................       HorasActual=(Testerilizacion[3]*10)+Testerilizacion[2]; 
05968:  MOVFF  68A,928
0596C:  MOVLW  0A
0596E:  MOVLB  9
05970:  MOVWF  x29
05972:  MOVLB  0
05974:  CALL   4236
05978:  MOVLB  6
0597A:  MOVF   x89,W
0597C:  ADDWF  01,W
0597E:  MOVLB  9
05980:  CLRF   x0C
05982:  MOVWF  x0B
05984:  BTFSC  x0B.7
05986:  DECF   x0C,F
05988:  MOVLB  0
0598A:  CALL   41E6
0598E:  MOVFF  03,672
05992:  MOVFF  02,671
05996:  MOVFF  01,670
0599A:  MOVFF  00,66F
....................       MinutosActual=(Testerilizacion[1]*10)+Testerilizacion[0]; 
0599E:  MOVFF  688,928
059A2:  MOVLW  0A
059A4:  MOVLB  9
059A6:  MOVWF  x29
059A8:  MOVLB  0
059AA:  CALL   4236
059AE:  MOVLB  6
059B0:  MOVF   x87,W
059B2:  ADDWF  01,W
059B4:  MOVLB  9
059B6:  CLRF   x0C
059B8:  MOVWF  x0B
059BA:  BTFSC  x0B.7
059BC:  DECF   x0C,F
059BE:  MOVLB  0
059C0:  CALL   41E6
059C4:  MOVFF  03,676
059C8:  MOVFF  02,675
059CC:  MOVFF  01,674
059D0:  MOVFF  00,673
....................       TiempoActual=Tiempo-((HorasActual*3600)+(MinutosActual*60)+tinicio); 
059D4:  MOVFF  672,92B
059D8:  MOVFF  671,92A
059DC:  MOVFF  670,929
059E0:  MOVFF  66F,928
059E4:  MOVLB  9
059E6:  CLRF   x2F
059E8:  CLRF   x2E
059EA:  MOVLW  61
059EC:  MOVWF  x2D
059EE:  MOVLW  8A
059F0:  MOVWF  x2C
059F2:  MOVLB  0
059F4:  CALL   32D4
059F8:  MOVFF  00,907
059FC:  MOVFF  01,908
05A00:  MOVFF  02,909
05A04:  MOVFF  03,90A
05A08:  MOVFF  676,92B
05A0C:  MOVFF  675,92A
05A10:  MOVFF  674,929
05A14:  MOVFF  673,928
05A18:  MOVLB  9
05A1A:  CLRF   x2F
05A1C:  CLRF   x2E
05A1E:  MOVLW  70
05A20:  MOVWF  x2D
05A22:  MOVLW  84
05A24:  MOVWF  x2C
05A26:  MOVLB  0
05A28:  CALL   32D4
05A2C:  BCF    FD8.1
05A2E:  MOVFF  90A,91D
05A32:  MOVFF  909,91C
05A36:  MOVFF  908,91B
05A3A:  MOVFF  907,91A
05A3E:  MOVFF  03,921
05A42:  MOVFF  02,920
05A46:  MOVFF  01,91F
05A4A:  MOVFF  00,91E
05A4E:  CALL   1F68
05A52:  MOVFF  00,907
05A56:  MOVFF  01,908
05A5A:  MOVFF  02,909
05A5E:  MOVFF  03,90A
05A62:  MOVFF  64E,91E
05A66:  MOVFF  64D,91D
05A6A:  CALL   1D5A
05A6E:  BCF    FD8.1
05A70:  MOVFF  90A,91D
05A74:  MOVFF  909,91C
05A78:  MOVFF  908,91B
05A7C:  MOVFF  907,91A
05A80:  MOVFF  03,921
05A84:  MOVFF  02,920
05A88:  MOVFF  01,91F
05A8C:  MOVFF  00,91E
05A90:  CALL   1F68
05A94:  BSF    FD8.1
05A96:  MOVFF  666,91D
05A9A:  MOVFF  665,91C
05A9E:  MOVFF  664,91B
05AA2:  MOVFF  663,91A
05AA6:  MOVFF  03,921
05AAA:  MOVFF  02,920
05AAE:  MOVFF  01,91F
05AB2:  MOVFF  00,91E
05AB6:  CALL   1F68
05ABA:  MOVFF  03,66A
05ABE:  MOVFF  02,669
05AC2:  MOVFF  01,668
05AC6:  MOVFF  00,667
....................       PendienteActual=((Setpoint-Temperatura)/TiempoActual); 
05ACA:  BSF    FD8.1
05ACC:  MOVFF  6DA,91D
05AD0:  MOVFF  6D9,91C
05AD4:  MOVFF  6D8,91B
05AD8:  MOVFF  6D7,91A
05ADC:  MOVFF  6CE,921
05AE0:  MOVFF  6CD,920
05AE4:  MOVFF  6CC,91F
05AE8:  MOVFF  6CB,91E
05AEC:  CALL   1F68
05AF0:  MOVFF  00,907
05AF4:  MOVFF  01,908
05AF8:  MOVFF  02,909
05AFC:  MOVFF  03,90A
05B00:  MOVFF  03,91F
05B04:  MOVFF  02,91E
05B08:  MOVFF  01,91D
05B0C:  MOVFF  00,91C
05B10:  MOVFF  66A,923
05B14:  MOVFF  669,922
05B18:  MOVFF  668,921
05B1C:  MOVFF  667,920
05B20:  CALL   1E0A
05B24:  MOVFF  03,66E
05B28:  MOVFF  02,66D
05B2C:  MOVFF  01,66C
05B30:  MOVFF  00,66B
....................       DifPendiente=(PendienteActual*20)-Aumento; 
05B34:  MOVFF  66E,92B
05B38:  MOVFF  66D,92A
05B3C:  MOVFF  66C,929
05B40:  MOVFF  66B,928
05B44:  MOVLB  9
05B46:  CLRF   x2F
05B48:  CLRF   x2E
05B4A:  MOVLW  20
05B4C:  MOVWF  x2D
05B4E:  MOVLW  83
05B50:  MOVWF  x2C
05B52:  MOVLB  0
05B54:  CALL   32D4
05B58:  MOVFF  00,907
05B5C:  MOVFF  01,908
05B60:  MOVFF  02,909
05B64:  MOVFF  03,90A
05B68:  BSF    FD8.1
05B6A:  MOVFF  03,91D
05B6E:  MOVFF  02,91C
05B72:  MOVFF  01,91B
05B76:  MOVFF  00,91A
05B7A:  MOVFF  6CA,921
05B7E:  MOVFF  6C9,920
05B82:  MOVFF  6C8,91F
05B86:  MOVFF  6C7,91E
05B8A:  CALL   1F68
05B8E:  MOVFF  03,6D6
05B92:  MOVFF  02,6D5
05B96:  MOVFF  01,6D4
05B9A:  MOVFF  00,6D3
....................       DifPendiente=DifPendiente*5; 
05B9E:  MOVFF  6D6,92B
05BA2:  MOVFF  6D5,92A
05BA6:  MOVFF  6D4,929
05BAA:  MOVFF  6D3,928
05BAE:  MOVLB  9
05BB0:  CLRF   x2F
05BB2:  CLRF   x2E
05BB4:  MOVLW  20
05BB6:  MOVWF  x2D
05BB8:  MOVLW  81
05BBA:  MOVWF  x2C
05BBC:  MOVLB  0
05BBE:  CALL   32D4
05BC2:  MOVFF  03,6D6
05BC6:  MOVFF  02,6D5
05BCA:  MOVFF  01,6D4
05BCE:  MOVFF  00,6D3
05BD2:  MOVLB  6
....................       //penMufla=(6000*(Aumento/20))/PotenciaEntregada; 
....................    } 
.................... } 
05BD4:  MOVLB  0
05BD6:  GOTO   5BE6 (RETURN)
....................  
.................... // Funcion para conversor analogo-digital 
.................... float sensores(int x){ 
.................... float y;set_adc_channel(x);delay_ms(1);y=read_adc();return (y); 
*
0325A:  MOVLB  9
0325C:  RLCF   x18,W
0325E:  MOVWF  00
03260:  RLCF   00,F
03262:  MOVLW  FC
03264:  ANDWF  00,F
03266:  MOVFF  00,01
0326A:  MOVF   FC2,W
0326C:  ANDLW  C3
0326E:  IORWF  00,W
03270:  MOVWF  FC2
03272:  MOVLW  01
03274:  MOVWF  x1D
03276:  MOVLB  0
03278:  CALL   13A4
0327C:  BSF    FC2.1
0327E:  BTFSC  FC2.1
03280:  BRA    327E
03282:  MOVFF  FC4,91E
03286:  MOVFF  FC3,91D
0328A:  MOVLB  0
0328C:  CALL   1D5A
03290:  MOVFF  03,91C
03294:  MOVFF  02,91B
03298:  MOVFF  01,91A
0329C:  MOVFF  00,919
032A0:  MOVFF  919,00
032A4:  MOVFF  91A,01
032A8:  MOVFF  91B,02
032AC:  MOVFF  91C,03
.................... } 
032B0:  RETLW  00
.................... float Leer_Sensor(int media) 
.................... { 
....................    Prom=0.0; 
*
033CA:  MOVLB  6
033CC:  CLRF   xAA
033CE:  CLRF   xA9
033D0:  CLRF   xA8
033D2:  CLRF   xA7
....................    V0 = sensores(0);   //Lectura de Divisor de Voltaje de PT100 con resistencia de 6.18k (+-2%)    
033D4:  MOVLB  9
033D6:  CLRF   x18
033D8:  MOVLB  0
033DA:  RCALL  325A
033DC:  MOVFF  03,69A
033E0:  MOVFF  02,699
033E4:  MOVFF  01,698
033E8:  MOVFF  00,697
....................              
....................    if(l>(media-1)) 
033EC:  MOVLW  01
033EE:  MOVLB  9
033F0:  SUBWF  x07,W
033F2:  MOVLB  6
033F4:  SUBWF  x24,W
033F6:  BZ    33FC
033F8:  BNC   33FC
....................    {l=0;} 
033FA:  CLRF   x24
....................    //promedio[l]=Temperature;l++; 
....................    promedio[l]=V0;l++; 
033FC:  MOVLB  9
033FE:  CLRF   x0C
03400:  MOVFF  624,90B
03404:  CLRF   x0E
03406:  MOVLW  04
03408:  MOVWF  x0D
0340A:  MOVLB  0
0340C:  RCALL  32B2
0340E:  MOVF   01,W
03410:  ADDLW  3A
03412:  MOVWF  FE9
03414:  MOVLW  04
03416:  ADDWFC 02,W
03418:  MOVWF  FEA
0341A:  MOVFF  697,FEF
0341E:  MOVFF  698,FEC
03422:  MOVFF  699,FEC
03426:  MOVFF  69A,FEC
0342A:  MOVLB  6
0342C:  INCF   x24,F
....................           
....................    for(h=0;h<media;h++) 
0342E:  CLRF   x23
03430:  MOVLB  9
03432:  MOVF   x07,W
03434:  MOVLB  6
03436:  SUBWF  x23,W
03438:  BC    34B8
....................    { 
....................       Prom+=promedio[h]; 
0343A:  MOVLB  9
0343C:  CLRF   x0C
0343E:  MOVFF  623,90B
03442:  CLRF   x0E
03444:  MOVLW  04
03446:  MOVWF  x0D
03448:  MOVLB  0
0344A:  RCALL  32B2
0344C:  MOVFF  02,03
03450:  MOVF   01,W
03452:  ADDLW  3A
03454:  MOVWF  FE9
03456:  MOVLW  04
03458:  ADDWFC 02,W
0345A:  MOVWF  FEA
0345C:  MOVFF  FEF,00
03460:  MOVFF  FEC,01
03464:  MOVFF  FEC,02
03468:  MOVFF  FEC,03
0346C:  MOVFF  FEA,909
03470:  MOVFF  FE9,908
03474:  BCF    FD8.1
03476:  MOVFF  6AA,91D
0347A:  MOVFF  6A9,91C
0347E:  MOVFF  6A8,91B
03482:  MOVFF  6A7,91A
03486:  MOVFF  03,921
0348A:  MOVFF  02,920
0348E:  MOVFF  01,91F
03492:  MOVFF  00,91E
03496:  CALL   1F68
0349A:  MOVFF  909,FEA
0349E:  MOVFF  908,FE9
034A2:  MOVFF  03,6AA
034A6:  MOVFF  02,6A9
034AA:  MOVFF  01,6A8
034AE:  MOVFF  00,6A7
....................    }  
034B2:  MOVLB  6
034B4:  INCF   x23,F
034B6:  BRA    3430
....................    Prom=Prom/media;    
034B8:  MOVLB  9
034BA:  CLRF   x1E
034BC:  MOVFF  907,91D
034C0:  MOVLB  0
034C2:  CALL   1D5A
034C6:  MOVFF  6AA,91F
034CA:  MOVFF  6A9,91E
034CE:  MOVFF  6A8,91D
034D2:  MOVFF  6A7,91C
034D6:  MOVFF  03,923
034DA:  MOVFF  02,922
034DE:  MOVFF  01,921
034E2:  MOVFF  00,920
034E6:  CALL   1E0A
034EA:  MOVFF  03,6AA
034EE:  MOVFF  02,6A9
034F2:  MOVFF  01,6A8
034F6:  MOVFF  00,6A7
....................    //Temperature=(Prom-100.0)/(0.385);  // Ecuacin determinada por linealizacin en Matlab. Revisar este polinomio.   
....................    //Temperature=(1.5275*Prom)-299.23; // Recta dada por T 0C-1200C y ADC Modo Real    
....................    Temperature=(m*Prom)-b; // Recta dada por T 0C-1200C y ADC Modo Real 
034FA:  MOVFF  6E6,92B
034FE:  MOVFF  6E5,92A
03502:  MOVFF  6E4,929
03506:  MOVFF  6E3,928
0350A:  MOVFF  6AA,92F
0350E:  MOVFF  6A9,92E
03512:  MOVFF  6A8,92D
03516:  MOVFF  6A7,92C
0351A:  RCALL  32D4
0351C:  MOVFF  00,908
03520:  MOVFF  01,909
03524:  MOVFF  02,90A
03528:  MOVFF  03,90B
0352C:  BSF    FD8.1
0352E:  MOVFF  03,91D
03532:  MOVFF  02,91C
03536:  MOVFF  01,91B
0353A:  MOVFF  00,91A
0353E:  MOVFF  6EA,921
03542:  MOVFF  6E9,920
03546:  MOVFF  6E8,91F
0354A:  MOVFF  6E7,91E
0354E:  CALL   1F68
03552:  MOVFF  03,6AE
03556:  MOVFF  02,6AD
0355A:  MOVFF  01,6AC
0355E:  MOVFF  00,6AB
....................     
....................    Temperature+=((float)Ajuste-(float)Ajusten); 
03562:  MOVLB  9
03564:  CLRF   x1E
03566:  MOVFF  625,91D
0356A:  MOVLB  0
0356C:  CALL   1D5A
03570:  MOVFF  00,908
03574:  MOVFF  01,909
03578:  MOVFF  02,90A
0357C:  MOVFF  03,90B
03580:  MOVLB  9
03582:  CLRF   x1E
03584:  MOVFF  626,91D
03588:  MOVLB  0
0358A:  CALL   1D5A
0358E:  BSF    FD8.1
03590:  MOVFF  90B,91D
03594:  MOVFF  90A,91C
03598:  MOVFF  909,91B
0359C:  MOVFF  908,91A
035A0:  MOVFF  03,921
035A4:  MOVFF  02,920
035A8:  MOVFF  01,91F
035AC:  MOVFF  00,91E
035B0:  CALL   1F68
035B4:  BCF    FD8.1
035B6:  MOVFF  6AE,91D
035BA:  MOVFF  6AD,91C
035BE:  MOVFF  6AC,91B
035C2:  MOVFF  6AB,91A
035C6:  MOVFF  03,921
035CA:  MOVFF  02,920
035CE:  MOVFF  01,91F
035D2:  MOVFF  00,91E
035D6:  CALL   1F68
035DA:  MOVFF  03,6AE
035DE:  MOVFF  02,6AD
035E2:  MOVFF  01,6AC
035E6:  MOVFF  00,6AB
....................     
....................    //return Prom; 
....................    return Temperature; 
035EA:  MOVFF  6AB,00
035EE:  MOVFF  6AC,01
035F2:  MOVFF  6AD,02
035F6:  MOVFF  6AE,03
.................... } 
035FA:  RETLW  00
....................  
.................... float leeTemperatura(int8 media){ 
035FC:  MOVLB  9
035FE:  CLRF   x0B
03600:  CLRF   x0A
03602:  CLRF   x09
03604:  CLRF   x08
03606:  CLRF   x0F
03608:  CLRF   x0E
0360A:  CLRF   x0D
0360C:  CLRF   x0C
0360E:  CLRF   x13
03610:  CLRF   x12
03612:  CLRF   x11
03614:  CLRF   x10
03616:  CLRF   x17
03618:  CLRF   x16
0361A:  CLRF   x15
0361C:  CLRF   x14
....................    float ADC=0,V=0,T=0,Tempera=0; 
....................    ADC=sensores(2); 
0361E:  MOVLW  02
03620:  MOVWF  x18
03622:  MOVLB  0
03624:  RCALL  325A
03626:  MOVFF  03,90B
0362A:  MOVFF  02,90A
0362E:  MOVFF  01,909
03632:  MOVFF  00,908
....................    V=5*ADC/1023; 
03636:  MOVLB  9
03638:  CLRF   x2B
0363A:  CLRF   x2A
0363C:  MOVLW  20
0363E:  MOVWF  x29
03640:  MOVLW  81
03642:  MOVWF  x28
03644:  MOVFF  90B,92F
03648:  MOVFF  90A,92E
0364C:  MOVFF  909,92D
03650:  MOVFF  908,92C
03654:  MOVLB  0
03656:  RCALL  32D4
03658:  MOVFF  00,918
0365C:  MOVFF  01,919
03660:  MOVFF  02,91A
03664:  MOVFF  03,91B
03668:  MOVFF  03,91F
0366C:  MOVFF  02,91E
03670:  MOVFF  01,91D
03674:  MOVFF  00,91C
03678:  MOVLB  9
0367A:  CLRF   x23
0367C:  MOVLW  C0
0367E:  MOVWF  x22
03680:  MOVLW  7F
03682:  MOVWF  x21
03684:  MOVLW  88
03686:  MOVWF  x20
03688:  MOVLB  0
0368A:  CALL   1E0A
0368E:  MOVFF  03,90F
03692:  MOVFF  02,90E
03696:  MOVFF  01,90D
0369A:  MOVFF  00,90C
....................    T=V/0.01; 
0369E:  MOVFF  90F,91F
036A2:  MOVFF  90E,91E
036A6:  MOVFF  90D,91D
036AA:  MOVFF  90C,91C
036AE:  MOVLW  0A
036B0:  MOVLB  9
036B2:  MOVWF  x23
036B4:  MOVLW  D7
036B6:  MOVWF  x22
036B8:  MOVLW  23
036BA:  MOVWF  x21
036BC:  MOVLW  78
036BE:  MOVWF  x20
036C0:  MOVLB  0
036C2:  CALL   1E0A
036C6:  MOVFF  03,913
036CA:  MOVFF  02,912
036CE:  MOVFF  01,911
036D2:  MOVFF  00,910
....................    if(l2>media) 
036D6:  MOVLB  6
036D8:  MOVF   x36,W
036DA:  MOVLB  9
036DC:  SUBWF  x07,W
036DE:  BC    36E4
....................       l2=0; 
036E0:  MOVLB  6
036E2:  CLRF   x36
....................        
....................    promedio2[l2]=T;l2++; 
036E4:  MOVLB  6
036E6:  MOVF   x36,W
036E8:  MULLW  04
036EA:  MOVF   FF3,W
036EC:  CLRF   03
036EE:  ADDLW  A2
036F0:  MOVWF  FE9
036F2:  MOVLW  05
036F4:  ADDWFC 03,W
036F6:  MOVWF  FEA
036F8:  MOVFF  910,FEF
036FC:  MOVFF  911,FEC
03700:  MOVFF  912,FEC
03704:  MOVFF  913,FEC
03708:  INCF   x36,F
....................    Tempera=0; 
0370A:  MOVLB  9
0370C:  CLRF   x17
0370E:  CLRF   x16
03710:  CLRF   x15
03712:  CLRF   x14
....................       
....................      for(h2=0;h2<=(media-1);h2++){ 
03714:  MOVLB  6
03716:  CLRF   x37
03718:  MOVLW  01
0371A:  MOVLB  9
0371C:  SUBWF  x07,W
0371E:  MOVLB  6
03720:  SUBWF  x37,W
03722:  BZ    3726
03724:  BC    3796
....................         Tempera+=promedio2[h2]; 
03726:  MOVF   x37,W
03728:  MULLW  04
0372A:  MOVF   FF3,W
0372C:  CLRF   03
0372E:  ADDLW  A2
03730:  MOVWF  FE9
03732:  MOVLW  05
03734:  ADDWFC 03,W
03736:  MOVWF  FEA
03738:  MOVFF  FEF,00
0373C:  MOVFF  FEC,01
03740:  MOVFF  FEC,02
03744:  MOVFF  FEC,03
03748:  MOVFF  FEA,919
0374C:  MOVFF  FE9,918
03750:  BCF    FD8.1
03752:  MOVFF  917,91D
03756:  MOVFF  916,91C
0375A:  MOVFF  915,91B
0375E:  MOVFF  914,91A
03762:  MOVFF  03,921
03766:  MOVFF  02,920
0376A:  MOVFF  01,91F
0376E:  MOVFF  00,91E
03772:  MOVLB  0
03774:  CALL   1F68
03778:  MOVFF  919,FEA
0377C:  MOVFF  918,FE9
03780:  MOVFF  03,917
03784:  MOVFF  02,916
03788:  MOVFF  01,915
0378C:  MOVFF  00,914
....................      }       
03790:  MOVLB  6
03792:  INCF   x37,F
03794:  BRA    3718
....................    return Tempera/media; 
03796:  MOVLB  9
03798:  CLRF   x1E
0379A:  MOVFF  907,91D
0379E:  MOVLB  0
037A0:  CALL   1D5A
037A4:  MOVFF  917,91F
037A8:  MOVFF  916,91E
037AC:  MOVFF  915,91D
037B0:  MOVFF  914,91C
037B4:  MOVFF  03,923
037B8:  MOVFF  02,922
037BC:  MOVFF  01,921
037C0:  MOVFF  00,920
037C4:  CALL   1E0A
.................... } 
037C8:  RETLW  00
....................  
.................... void Controla(){ 
.................... //-------------------------------Control de Calentamiento------------------------------------------------------------//          
....................    if(tiemporecta>=10) 
*
05BDA:  MOVLB  6
05BDC:  MOVF   x28,W
05BDE:  SUBLW  09
05BE0:  BC    5BEA
....................    { 
....................       ActualizaRecta(); 
05BE2:  MOVLB  0
05BE4:  BRA    5900
....................       tiemporecta=0; 
05BE6:  MOVLB  6
05BE8:  CLRF   x28
....................    } 
....................    
....................    if(Segmento==0){ 
05BEA:  MOVF   x2E,F
05BEC:  BTFSS  FD8.2
05BEE:  BRA    5EC4
....................       if(flag_calcula==0){ 
05BF0:  BTFSC  x30.1
05BF2:  BRA    5EC2
....................          Tiempo=(Horas1[ProgramaSeleccionado*Pasos]*3600)+(Minutos1[ProgramaSeleccionado*Pasos]*60);          
05BF4:  MOVF   x41,W
05BF6:  MULLW  10
05BF8:  MOVFF  FF3,00
05BFC:  BCF    FD8.0
05BFE:  RLCF   00,F
05C00:  MOVF   00,W
05C02:  CLRF   03
05C04:  ADDLW  A7
05C06:  MOVWF  FE9
05C08:  MOVLW  07
05C0A:  ADDWFC 03,W
05C0C:  MOVWF  FEA
05C0E:  MOVFF  FEC,908
05C12:  MOVF   FED,F
05C14:  MOVFF  FEF,907
05C18:  MOVFF  908,90C
05C1C:  MOVFF  907,90B
05C20:  MOVLW  0E
05C22:  MOVLB  9
05C24:  MOVWF  x0E
05C26:  MOVLW  10
05C28:  MOVWF  x0D
05C2A:  MOVLB  0
05C2C:  CALL   4192
05C30:  MOVFF  02,908
05C34:  MOVFF  01,907
05C38:  MOVLB  6
05C3A:  MOVF   x41,W
05C3C:  MULLW  10
05C3E:  MOVFF  FF3,00
05C42:  BCF    FD8.0
05C44:  RLCF   00,F
05C46:  MOVF   00,W
05C48:  CLRF   03
05C4A:  ADDLW  47
05C4C:  MOVWF  FE9
05C4E:  MOVLW  08
05C50:  ADDWFC 03,W
05C52:  MOVWF  FEA
05C54:  MOVFF  FEC,90A
05C58:  MOVF   FED,F
05C5A:  MOVFF  FEF,909
05C5E:  MOVFF  90A,90C
05C62:  MOVFF  909,90B
05C66:  MOVLB  9
05C68:  CLRF   x0E
05C6A:  MOVLW  3C
05C6C:  MOVWF  x0D
05C6E:  MOVLB  0
05C70:  CALL   4192
05C74:  MOVFF  02,03
05C78:  MOVF   01,W
05C7A:  MOVLB  9
05C7C:  ADDWF  x07,W
05C7E:  MOVWF  01
05C80:  MOVF   x08,W
05C82:  ADDWFC 03,F
05C84:  MOVFF  01,90B
05C88:  MOVFF  03,90C
05C8C:  MOVLB  0
05C8E:  CALL   41E6
05C92:  MOVFF  03,666
05C96:  MOVFF  02,665
05C9A:  MOVFF  01,664
05C9E:  MOVFF  00,663
....................          Setpoint=Temperatura1[(ProgramaSeleccionado*Pasos)+Segmento]; 
05CA2:  MOVLB  6
05CA4:  MOVF   x41,W
05CA6:  MULLW  10
05CA8:  MOVF   FF3,W
05CAA:  ADDWF  x2E,W
05CAC:  MOVWF  00
05CAE:  BCF    FD8.0
05CB0:  RLCF   00,F
05CB2:  MOVF   00,W
05CB4:  CLRF   03
05CB6:  ADDLW  07
05CB8:  MOVWF  FE9
05CBA:  MOVLW  07
05CBC:  ADDWFC 03,W
05CBE:  MOVWF  FEA
05CC0:  MOVFF  FEC,03
05CC4:  MOVF   FED,F
05CC6:  MOVFF  FEF,90B
05CCA:  MOVFF  03,90C
05CCE:  MOVLB  0
05CD0:  CALL   41E6
05CD4:  MOVFF  03,6DA
05CD8:  MOVFF  02,6D9
05CDC:  MOVFF  01,6D8
05CE0:  MOVFF  00,6D7
....................          Pendiente=((Setpoint-TempeInicial)/Tiempo); 
05CE4:  BSF    FD8.1
05CE6:  MOVFF  6DA,91D
05CEA:  MOVFF  6D9,91C
05CEE:  MOVFF  6D8,91B
05CF2:  MOVFF  6D7,91A
05CF6:  MOVFF  662,921
05CFA:  MOVFF  661,920
05CFE:  MOVFF  660,91F
05D02:  MOVFF  65F,91E
05D06:  CALL   1F68
05D0A:  MOVFF  00,907
05D0E:  MOVFF  01,908
05D12:  MOVFF  02,909
05D16:  MOVFF  03,90A
05D1A:  MOVFF  03,91F
05D1E:  MOVFF  02,91E
05D22:  MOVFF  01,91D
05D26:  MOVFF  00,91C
05D2A:  MOVFF  666,923
05D2E:  MOVFF  665,922
05D32:  MOVFF  664,921
05D36:  MOVFF  663,920
05D3A:  CALL   1E0A
05D3E:  MOVFF  03,6D2
05D42:  MOVFF  02,6D1
05D46:  MOVFF  01,6D0
05D4A:  MOVFF  00,6CF
....................          Testerilizacionp[3]=(int8)Horas1[(ProgramaSeleccionado*Pasos)+Segmento]/10; 
05D4E:  MOVLB  6
05D50:  MOVF   x41,W
05D52:  MULLW  10
05D54:  MOVF   FF3,W
05D56:  ADDWF  x2E,W
05D58:  MOVWF  00
05D5A:  BCF    FD8.0
05D5C:  RLCF   00,F
05D5E:  MOVF   00,W
05D60:  CLRF   03
05D62:  ADDLW  A7
05D64:  MOVWF  FE9
05D66:  MOVLW  07
05D68:  ADDWFC 03,W
05D6A:  MOVWF  FEA
05D6C:  MOVFF  FEF,923
05D70:  MOVLW  0A
05D72:  MOVLB  9
05D74:  MOVWF  x24
05D76:  MOVLB  0
05D78:  CALL   1B78
05D7C:  MOVFF  01,68E
05D80:  MOVLB  6
....................          Testerilizacionp[2]=Horas1[(ProgramaSeleccionado*Pasos)+Segmento]-(Testerilizacionp[3]*10); 
05D82:  MOVF   x41,W
05D84:  MULLW  10
05D86:  MOVF   FF3,W
05D88:  ADDWF  x2E,W
05D8A:  MOVWF  00
05D8C:  BCF    FD8.0
05D8E:  RLCF   00,F
05D90:  MOVF   00,W
05D92:  CLRF   03
05D94:  ADDLW  A7
05D96:  MOVWF  FE9
05D98:  MOVLW  07
05D9A:  ADDWFC 03,W
05D9C:  MOVWF  FEA
05D9E:  MOVFF  FEC,908
05DA2:  MOVF   FED,F
05DA4:  MOVFF  FEF,907
05DA8:  MOVFF  68E,928
05DAC:  MOVLW  0A
05DAE:  MOVLB  9
05DB0:  MOVWF  x29
05DB2:  MOVLB  0
05DB4:  CALL   4236
05DB8:  MOVF   01,W
05DBA:  CLRF   03
05DBC:  MOVWF  00
05DBE:  BTFSC  FE8.7
05DC0:  DECF   03,F
05DC2:  MOVLB  9
05DC4:  SUBWF  x07,W
05DC6:  MOVWF  00
05DC8:  MOVF   03,W
05DCA:  SUBWFB x08,W
05DCC:  MOVFF  00,68D
05DD0:  MOVLB  6
....................          Testerilizacionp[1]=Minutos1[(ProgramaSeleccionado*Pasos)+Segmento]/10; 
05DD2:  MOVF   x41,W
05DD4:  MULLW  10
05DD6:  MOVF   FF3,W
05DD8:  ADDWF  x2E,W
05DDA:  MOVWF  00
05DDC:  BCF    FD8.0
05DDE:  RLCF   00,F
05DE0:  MOVF   00,W
05DE2:  CLRF   03
05DE4:  ADDLW  47
05DE6:  MOVWF  FE9
05DE8:  MOVLW  08
05DEA:  ADDWFC 03,W
05DEC:  MOVWF  FEA
05DEE:  MOVFF  FEC,908
05DF2:  MOVF   FED,F
05DF4:  MOVFF  FEF,907
05DF8:  MOVFF  908,90A
05DFC:  MOVFF  907,909
05E00:  MOVLB  9
05E02:  CLRF   x0C
05E04:  MOVLW  0A
05E06:  MOVWF  x0B
05E08:  MOVLB  0
05E0A:  CALL   4284
05E0E:  MOVFF  01,68C
05E12:  MOVLB  6
....................          Testerilizacionp[0]=Minutos1[(ProgramaSeleccionado*Pasos)+Segmento]-(Testerilizacionp[1]*10); 
05E14:  MOVF   x41,W
05E16:  MULLW  10
05E18:  MOVF   FF3,W
05E1A:  ADDWF  x2E,W
05E1C:  MOVWF  00
05E1E:  BCF    FD8.0
05E20:  RLCF   00,F
05E22:  MOVF   00,W
05E24:  CLRF   03
05E26:  ADDLW  47
05E28:  MOVWF  FE9
05E2A:  MOVLW  08
05E2C:  ADDWFC 03,W
05E2E:  MOVWF  FEA
05E30:  MOVFF  FEC,908
05E34:  MOVF   FED,F
05E36:  MOVFF  FEF,907
05E3A:  MOVFF  68C,928
05E3E:  MOVLW  0A
05E40:  MOVLB  9
05E42:  MOVWF  x29
05E44:  MOVLB  0
05E46:  CALL   4236
05E4A:  MOVF   01,W
05E4C:  CLRF   03
05E4E:  MOVWF  00
05E50:  BTFSC  FE8.7
05E52:  DECF   03,F
05E54:  MOVLB  9
05E56:  SUBWF  x07,W
05E58:  MOVWF  00
05E5A:  MOVF   03,W
05E5C:  SUBWFB x08,W
05E5E:  MOVFF  00,68B
05E62:  MOVLB  6
....................          flag_calcula=1; 
05E64:  BSF    x30.1
....................          Ganancia=GananciaIn*(Setpoint/Coeficiente); 
05E66:  MOVFF  6DA,91F
05E6A:  MOVFF  6D9,91E
05E6E:  MOVFF  6D8,91D
05E72:  MOVFF  6D7,91C
05E76:  MOVFF  6C2,923
05E7A:  MOVFF  6C1,922
05E7E:  MOVFF  6C0,921
05E82:  MOVFF  6BF,920
05E86:  MOVLB  0
05E88:  CALL   1E0A
05E8C:  MOVFF  6B6,92B
05E90:  MOVFF  6B5,92A
05E94:  MOVFF  6B4,929
05E98:  MOVFF  6B3,928
05E9C:  MOVFF  03,92F
05EA0:  MOVFF  02,92E
05EA4:  MOVFF  01,92D
05EA8:  MOVFF  00,92C
05EAC:  CALL   32D4
05EB0:  MOVFF  03,6BA
05EB4:  MOVFF  02,6B9
05EB8:  MOVFF  01,6B8
05EBC:  MOVFF  00,6B7
05EC0:  MOVLB  6
....................       } 
....................    } 
....................    else{ 
05EC2:  BRA    61C8
....................       if(flag_calcula==0){ 
05EC4:  BTFSC  x30.1
05EC6:  BRA    61C8
....................          Tiempo=(Horas1[(ProgramaSeleccionado*Pasos)+Segmento]*3600)+(Minutos1[(ProgramaSeleccionado*Pasos)+Segmento]*60); 
05EC8:  MOVF   x41,W
05ECA:  MULLW  10
05ECC:  MOVF   FF3,W
05ECE:  ADDWF  x2E,W
05ED0:  MOVWF  00
05ED2:  BCF    FD8.0
05ED4:  RLCF   00,F
05ED6:  MOVF   00,W
05ED8:  CLRF   03
05EDA:  ADDLW  A7
05EDC:  MOVWF  FE9
05EDE:  MOVLW  07
05EE0:  ADDWFC 03,W
05EE2:  MOVWF  FEA
05EE4:  MOVFF  FEC,908
05EE8:  MOVF   FED,F
05EEA:  MOVFF  FEF,907
05EEE:  MOVFF  908,90C
05EF2:  MOVFF  907,90B
05EF6:  MOVLW  0E
05EF8:  MOVLB  9
05EFA:  MOVWF  x0E
05EFC:  MOVLW  10
05EFE:  MOVWF  x0D
05F00:  MOVLB  0
05F02:  CALL   4192
05F06:  MOVFF  02,908
05F0A:  MOVFF  01,907
05F0E:  MOVLB  6
05F10:  MOVF   x41,W
05F12:  MULLW  10
05F14:  MOVF   FF3,W
05F16:  ADDWF  x2E,W
05F18:  MOVWF  00
05F1A:  BCF    FD8.0
05F1C:  RLCF   00,F
05F1E:  MOVF   00,W
05F20:  CLRF   03
05F22:  ADDLW  47
05F24:  MOVWF  FE9
05F26:  MOVLW  08
05F28:  ADDWFC 03,W
05F2A:  MOVWF  FEA
05F2C:  MOVFF  FEC,90A
05F30:  MOVF   FED,F
05F32:  MOVFF  FEF,909
05F36:  MOVFF  90A,90C
05F3A:  MOVFF  909,90B
05F3E:  MOVLB  9
05F40:  CLRF   x0E
05F42:  MOVLW  3C
05F44:  MOVWF  x0D
05F46:  MOVLB  0
05F48:  CALL   4192
05F4C:  MOVFF  02,03
05F50:  MOVF   01,W
05F52:  MOVLB  9
05F54:  ADDWF  x07,W
05F56:  MOVWF  01
05F58:  MOVF   x08,W
05F5A:  ADDWFC 03,F
05F5C:  MOVFF  01,90B
05F60:  MOVFF  03,90C
05F64:  MOVLB  0
05F66:  CALL   41E6
05F6A:  MOVFF  03,666
05F6E:  MOVFF  02,665
05F72:  MOVFF  01,664
05F76:  MOVFF  00,663
....................          Pendiente=((Temperatura1[(ProgramaSeleccionado*Pasos)+Segmento]-Temperatura1[(ProgramaSeleccionado*Pasos)+Segmento-1])/Tiempo); 
05F7A:  MOVLB  6
05F7C:  MOVF   x41,W
05F7E:  MULLW  10
05F80:  MOVF   FF3,W
05F82:  ADDWF  x2E,W
05F84:  MOVWF  00
05F86:  BCF    FD8.0
05F88:  RLCF   00,F
05F8A:  MOVF   00,W
05F8C:  CLRF   03
05F8E:  ADDLW  07
05F90:  MOVWF  FE9
05F92:  MOVLW  07
05F94:  ADDWFC 03,W
05F96:  MOVWF  FEA
05F98:  MOVFF  FEC,908
05F9C:  MOVF   FED,F
05F9E:  MOVFF  FEF,907
05FA2:  MOVF   x41,W
05FA4:  MULLW  10
05FA6:  MOVF   FF3,W
05FA8:  ADDWF  x2E,W
05FAA:  ADDLW  FF
05FAC:  MOVWF  00
05FAE:  BCF    FD8.0
05FB0:  RLCF   00,F
05FB2:  MOVF   00,W
05FB4:  CLRF   03
05FB6:  ADDLW  07
05FB8:  MOVWF  FE9
05FBA:  MOVLW  07
05FBC:  ADDWFC 03,W
05FBE:  MOVWF  FEA
05FC0:  MOVFF  FEC,03
05FC4:  MOVF   FED,F
05FC6:  MOVF   FEF,W
05FC8:  MOVLB  9
05FCA:  SUBWF  x07,F
05FCC:  MOVF   03,W
05FCE:  SUBWFB x08,F
05FD0:  MOVFF  908,90C
05FD4:  MOVFF  907,90B
05FD8:  MOVLB  0
05FDA:  CALL   41E6
05FDE:  MOVFF  03,91F
05FE2:  MOVFF  02,91E
05FE6:  MOVFF  01,91D
05FEA:  MOVFF  00,91C
05FEE:  MOVFF  666,923
05FF2:  MOVFF  665,922
05FF6:  MOVFF  664,921
05FFA:  MOVFF  663,920
05FFE:  CALL   1E0A
06002:  MOVFF  03,6D2
06006:  MOVFF  02,6D1
0600A:  MOVFF  01,6D0
0600E:  MOVFF  00,6CF
....................          Setpoint=Temperatura1[(ProgramaSeleccionado*Pasos)+Segmento]; 
06012:  MOVLB  6
06014:  MOVF   x41,W
06016:  MULLW  10
06018:  MOVF   FF3,W
0601A:  ADDWF  x2E,W
0601C:  MOVWF  00
0601E:  BCF    FD8.0
06020:  RLCF   00,F
06022:  MOVF   00,W
06024:  CLRF   03
06026:  ADDLW  07
06028:  MOVWF  FE9
0602A:  MOVLW  07
0602C:  ADDWFC 03,W
0602E:  MOVWF  FEA
06030:  MOVFF  FEC,03
06034:  MOVF   FED,F
06036:  MOVFF  FEF,90B
0603A:  MOVFF  03,90C
0603E:  MOVLB  0
06040:  CALL   41E6
06044:  MOVFF  03,6DA
06048:  MOVFF  02,6D9
0604C:  MOVFF  01,6D8
06050:  MOVFF  00,6D7
....................          Testerilizacionp[3]=(int8)Horas1[(ProgramaSeleccionado*Pasos)+Segmento]/10; 
06054:  MOVLB  6
06056:  MOVF   x41,W
06058:  MULLW  10
0605A:  MOVF   FF3,W
0605C:  ADDWF  x2E,W
0605E:  MOVWF  00
06060:  BCF    FD8.0
06062:  RLCF   00,F
06064:  MOVF   00,W
06066:  CLRF   03
06068:  ADDLW  A7
0606A:  MOVWF  FE9
0606C:  MOVLW  07
0606E:  ADDWFC 03,W
06070:  MOVWF  FEA
06072:  MOVFF  FEF,923
06076:  MOVLW  0A
06078:  MOVLB  9
0607A:  MOVWF  x24
0607C:  MOVLB  0
0607E:  CALL   1B78
06082:  MOVFF  01,68E
06086:  MOVLB  6
....................          Testerilizacionp[2]=Horas1[(ProgramaSeleccionado*Pasos)+Segmento]-(Testerilizacionp[3]*10); 
06088:  MOVF   x41,W
0608A:  MULLW  10
0608C:  MOVF   FF3,W
0608E:  ADDWF  x2E,W
06090:  MOVWF  00
06092:  BCF    FD8.0
06094:  RLCF   00,F
06096:  MOVF   00,W
06098:  CLRF   03
0609A:  ADDLW  A7
0609C:  MOVWF  FE9
0609E:  MOVLW  07
060A0:  ADDWFC 03,W
060A2:  MOVWF  FEA
060A4:  MOVFF  FEC,908
060A8:  MOVF   FED,F
060AA:  MOVFF  FEF,907
060AE:  MOVFF  68E,928
060B2:  MOVLW  0A
060B4:  MOVLB  9
060B6:  MOVWF  x29
060B8:  MOVLB  0
060BA:  CALL   4236
060BE:  MOVF   01,W
060C0:  CLRF   03
060C2:  MOVWF  00
060C4:  BTFSC  FE8.7
060C6:  DECF   03,F
060C8:  MOVLB  9
060CA:  SUBWF  x07,W
060CC:  MOVWF  00
060CE:  MOVF   03,W
060D0:  SUBWFB x08,W
060D2:  MOVFF  00,68D
060D6:  MOVLB  6
....................          Testerilizacionp[1]=Minutos1[(ProgramaSeleccionado*Pasos)+Segmento]/10; 
060D8:  MOVF   x41,W
060DA:  MULLW  10
060DC:  MOVF   FF3,W
060DE:  ADDWF  x2E,W
060E0:  MOVWF  00
060E2:  BCF    FD8.0
060E4:  RLCF   00,F
060E6:  MOVF   00,W
060E8:  CLRF   03
060EA:  ADDLW  47
060EC:  MOVWF  FE9
060EE:  MOVLW  08
060F0:  ADDWFC 03,W
060F2:  MOVWF  FEA
060F4:  MOVFF  FEC,908
060F8:  MOVF   FED,F
060FA:  MOVFF  FEF,907
060FE:  MOVFF  908,90A
06102:  MOVFF  907,909
06106:  MOVLB  9
06108:  CLRF   x0C
0610A:  MOVLW  0A
0610C:  MOVWF  x0B
0610E:  MOVLB  0
06110:  CALL   4284
06114:  MOVFF  01,68C
06118:  MOVLB  6
....................          Testerilizacionp[0]=Minutos1[(ProgramaSeleccionado*Pasos)+Segmento]-(Testerilizacionp[1]*10); 
0611A:  MOVF   x41,W
0611C:  MULLW  10
0611E:  MOVF   FF3,W
06120:  ADDWF  x2E,W
06122:  MOVWF  00
06124:  BCF    FD8.0
06126:  RLCF   00,F
06128:  MOVF   00,W
0612A:  CLRF   03
0612C:  ADDLW  47
0612E:  MOVWF  FE9
06130:  MOVLW  08
06132:  ADDWFC 03,W
06134:  MOVWF  FEA
06136:  MOVFF  FEC,908
0613A:  MOVF   FED,F
0613C:  MOVFF  FEF,907
06140:  MOVFF  68C,928
06144:  MOVLW  0A
06146:  MOVLB  9
06148:  MOVWF  x29
0614A:  MOVLB  0
0614C:  CALL   4236
06150:  MOVF   01,W
06152:  CLRF   03
06154:  MOVWF  00
06156:  BTFSC  FE8.7
06158:  DECF   03,F
0615A:  MOVLB  9
0615C:  SUBWF  x07,W
0615E:  MOVWF  00
06160:  MOVF   03,W
06162:  SUBWFB x08,W
06164:  MOVFF  00,68B
06168:  MOVLB  6
....................          flag_calcula=1; 
0616A:  BSF    x30.1
....................          Ganancia=GananciaIn*(Setpoint/Coeficiente); 
0616C:  MOVFF  6DA,91F
06170:  MOVFF  6D9,91E
06174:  MOVFF  6D8,91D
06178:  MOVFF  6D7,91C
0617C:  MOVFF  6C2,923
06180:  MOVFF  6C1,922
06184:  MOVFF  6C0,921
06188:  MOVFF  6BF,920
0618C:  MOVLB  0
0618E:  CALL   1E0A
06192:  MOVFF  6B6,92B
06196:  MOVFF  6B5,92A
0619A:  MOVFF  6B4,929
0619E:  MOVFF  6B3,928
061A2:  MOVFF  03,92F
061A6:  MOVFF  02,92E
061AA:  MOVFF  01,92D
061AE:  MOVFF  00,92C
061B2:  CALL   32D4
061B6:  MOVFF  03,6BA
061BA:  MOVFF  02,6B9
061BE:  MOVFF  01,6B8
061C2:  MOVFF  00,6B7
061C6:  MOVLB  6
....................       } 
....................    } 
....................     
....................    if(Pendiente==0){// Si Esta realizando una Meseta debe realizar el control JuDifuso 
061C8:  MOVFF  6D2,90A
061CC:  MOVFF  6D1,909
061D0:  MOVFF  6D0,908
061D4:  MOVFF  6CF,907
061D8:  MOVLB  9
061DA:  CLRF   x0E
061DC:  CLRF   x0D
061DE:  CLRF   x0C
061E0:  CLRF   x0B
061E2:  MOVLB  0
061E4:  CALL   1D90
061E8:  BTFSS  FD8.2
061EA:  BRA    65A2
....................       error=desvio+Setpoint-Temperatura;      // Clculo del error ****** 
061EC:  BCF    FD8.1
061EE:  MOVFF  6BE,91D
061F2:  MOVFF  6BD,91C
061F6:  MOVFF  6BC,91B
061FA:  MOVFF  6BB,91A
061FE:  MOVFF  6DA,921
06202:  MOVFF  6D9,920
06206:  MOVFF  6D8,91F
0620A:  MOVFF  6D7,91E
0620E:  CALL   1F68
06212:  MOVFF  00,907
06216:  MOVFF  01,908
0621A:  MOVFF  02,909
0621E:  MOVFF  03,90A
06222:  BSF    FD8.1
06224:  MOVFF  03,91D
06228:  MOVFF  02,91C
0622C:  MOVFF  01,91B
06230:  MOVFF  00,91A
06234:  MOVFF  6CE,921
06238:  MOVFF  6CD,920
0623C:  MOVFF  6CC,91F
06240:  MOVFF  6CB,91E
06244:  CALL   1F68
06248:  MOVFF  03,6A6
0624C:  MOVFF  02,6A5
06250:  MOVFF  01,6A4
06254:  MOVFF  00,6A3
....................        
....................       if(error>3.0 && Aumento<1) 
06258:  MOVLB  9
0625A:  CLRF   x0A
0625C:  CLRF   x09
0625E:  MOVLW  40
06260:  MOVWF  x08
06262:  MOVLW  80
06264:  MOVWF  x07
06266:  MOVFF  6A6,90E
0626A:  MOVFF  6A5,90D
0626E:  MOVFF  6A4,90C
06272:  MOVFF  6A3,90B
06276:  MOVLB  0
06278:  CALL   1D90
0627C:  BTFSS  FD8.0
0627E:  BRA    6442
06280:  MOVFF  6CA,90A
06284:  MOVFF  6C9,909
06288:  MOVFF  6C8,908
0628C:  MOVFF  6C7,907
06290:  MOVLB  9
06292:  CLRF   x0E
06294:  CLRF   x0D
06296:  CLRF   x0C
06298:  MOVLW  7F
0629A:  MOVWF  x0B
0629C:  MOVLB  0
0629E:  CALL   1D90
062A2:  BTFSS  FD8.0
062A4:  BRA    6442
....................       { 
....................          if(Potencia<90.0) 
062A6:  MOVFF  67E,90A
062AA:  MOVFF  67D,909
062AE:  MOVFF  67C,908
062B2:  MOVFF  67B,907
062B6:  MOVLB  9
062B8:  CLRF   x0E
062BA:  CLRF   x0D
062BC:  MOVLW  34
062BE:  MOVWF  x0C
062C0:  MOVLW  85
062C2:  MOVWF  x0B
062C4:  MOVLB  0
062C6:  CALL   1D90
062CA:  BTFSS  FD8.0
062CC:  BRA    6442
....................          { 
....................             if(TiempoControl>=Derivativo) 
062CE:  MOVLB  9
062D0:  CLRF   x1E
062D2:  MOVFF  63E,91D
062D6:  MOVLB  0
062D8:  CALL   1D5A
062DC:  MOVFF  6E2,90A
062E0:  MOVFF  6E1,909
062E4:  MOVFF  6E0,908
062E8:  MOVFF  6DF,907
062EC:  MOVFF  03,90E
062F0:  MOVFF  02,90D
062F4:  MOVFF  01,90C
062F8:  MOVFF  00,90B
062FC:  CALL   1D90
06300:  BC    6306
06302:  BTFSS  FD8.2
06304:  BRA    6442
....................             { 
....................                TiempoControl=0; 
06306:  MOVLB  6
06308:  CLRF   x3E
....................                if(Aumento<-2) 
0630A:  MOVFF  6CA,90A
0630E:  MOVFF  6C9,909
06312:  MOVFF  6C8,908
06316:  MOVFF  6C7,907
0631A:  MOVLB  9
0631C:  CLRF   x0E
0631E:  CLRF   x0D
06320:  MOVLW  80
06322:  MOVWF  x0C
06324:  MOVWF  x0B
06326:  MOVLB  0
06328:  CALL   1D90
0632C:  BNC   638A
....................                { 
....................                   Ganancia+=Integral+1; 
0632E:  BCF    FD8.1
06330:  MOVFF  6DE,91D
06334:  MOVFF  6DD,91C
06338:  MOVFF  6DC,91B
0633C:  MOVFF  6DB,91A
06340:  MOVLB  9
06342:  CLRF   x21
06344:  CLRF   x20
06346:  CLRF   x1F
06348:  MOVLW  7F
0634A:  MOVWF  x1E
0634C:  MOVLB  0
0634E:  CALL   1F68
06352:  BCF    FD8.1
06354:  MOVFF  6BA,91D
06358:  MOVFF  6B9,91C
0635C:  MOVFF  6B8,91B
06360:  MOVFF  6B7,91A
06364:  MOVFF  03,921
06368:  MOVFF  02,920
0636C:  MOVFF  01,91F
06370:  MOVFF  00,91E
06374:  CALL   1F68
06378:  MOVFF  03,6BA
0637C:  MOVFF  02,6B9
06380:  MOVFF  01,6B8
06384:  MOVFF  00,6B7
....................                } 
....................                else 
06388:  BRA    6442
....................                { 
....................                   if(Aumento<-1) 
0638A:  MOVFF  6CA,90A
0638E:  MOVFF  6C9,909
06392:  MOVFF  6C8,908
06396:  MOVFF  6C7,907
0639A:  MOVLB  9
0639C:  CLRF   x0E
0639E:  CLRF   x0D
063A0:  MOVLW  80
063A2:  MOVWF  x0C
063A4:  MOVLW  7F
063A6:  MOVWF  x0B
063A8:  MOVLB  0
063AA:  CALL   1D90
063AE:  BNC   63E8
....................                   { 
....................                      Ganancia+=Integral; 
063B0:  BCF    FD8.1
063B2:  MOVFF  6BA,91D
063B6:  MOVFF  6B9,91C
063BA:  MOVFF  6B8,91B
063BE:  MOVFF  6B7,91A
063C2:  MOVFF  6DE,921
063C6:  MOVFF  6DD,920
063CA:  MOVFF  6DC,91F
063CE:  MOVFF  6DB,91E
063D2:  CALL   1F68
063D6:  MOVFF  03,6BA
063DA:  MOVFF  02,6B9
063DE:  MOVFF  01,6B8
063E2:  MOVFF  00,6B7
....................                   }    
....................                   else 
063E6:  BRA    6442
....................                   { 
....................                      Ganancia+=Integral-0.5; 
063E8:  BSF    FD8.1
063EA:  MOVFF  6DE,91D
063EE:  MOVFF  6DD,91C
063F2:  MOVFF  6DC,91B
063F6:  MOVFF  6DB,91A
063FA:  MOVLB  9
063FC:  CLRF   x21
063FE:  CLRF   x20
06400:  CLRF   x1F
06402:  MOVLW  7E
06404:  MOVWF  x1E
06406:  MOVLB  0
06408:  CALL   1F68
0640C:  BCF    FD8.1
0640E:  MOVFF  6BA,91D
06412:  MOVFF  6B9,91C
06416:  MOVFF  6B8,91B
0641A:  MOVFF  6B7,91A
0641E:  MOVFF  03,921
06422:  MOVFF  02,920
06426:  MOVFF  01,91F
0642A:  MOVFF  00,91E
0642E:  CALL   1F68
06432:  MOVFF  03,6BA
06436:  MOVFF  02,6B9
0643A:  MOVFF  01,6B8
0643E:  MOVFF  00,6B7
....................                   } 
....................                } 
....................             } 
....................          } 
....................       } 
....................        
....................       //if(error<-5) 
....................       //{ 
....................       //   Ganancia=6*(Setpoint/100); 
....................       //} 
....................        
....................       if(Ganancia<0.5) 
06442:  MOVFF  6BA,90A
06446:  MOVFF  6B9,909
0644A:  MOVFF  6B8,908
0644E:  MOVFF  6B7,907
06452:  MOVLB  9
06454:  CLRF   x0E
06456:  CLRF   x0D
06458:  CLRF   x0C
0645A:  MOVLW  7E
0645C:  MOVWF  x0B
0645E:  MOVLB  0
06460:  CALL   1D90
06464:  BNC   6472
....................       { 
....................          Ganancia=0.5; 
06466:  MOVLB  6
06468:  CLRF   xBA
0646A:  CLRF   xB9
0646C:  CLRF   xB8
0646E:  MOVLW  7E
06470:  MOVWF  xB7
....................       } 
....................        
....................        
....................       if(error<0.0)     // Anti Wind_DOWN     
06472:  MOVFF  6A6,90A
06476:  MOVFF  6A5,909
0647A:  MOVFF  6A4,908
0647E:  MOVFF  6A3,907
06482:  MOVLB  9
06484:  CLRF   x0E
06486:  CLRF   x0D
06488:  CLRF   x0C
0648A:  CLRF   x0B
0648C:  MOVLB  0
0648E:  CALL   1D90
06492:  BNC   64A0
....................       { 
....................          error=0.0; 
06494:  MOVLB  6
06496:  CLRF   xA6
06498:  CLRF   xA5
0649A:  CLRF   xA4
0649C:  CLRF   xA3
0649E:  MOVLB  0
....................       } 
....................     
....................       tmp=error*Ganancia;  // Control Proporcional. 
064A0:  MOVFF  6A6,92B
064A4:  MOVFF  6A5,92A
064A8:  MOVFF  6A4,929
064AC:  MOVFF  6A3,928
064B0:  MOVFF  6BA,92F
064B4:  MOVFF  6B9,92E
064B8:  MOVFF  6B8,92D
064BC:  MOVFF  6B7,92C
064C0:  CALL   32D4
064C4:  MOVFF  03,6B2
064C8:  MOVFF  02,6B1
064CC:  MOVFF  01,6B0
064D0:  MOVFF  00,6AF
....................              
....................       if(tmp>Setpoint)   // Anti Wind-UP       
064D4:  MOVFF  6DA,90A
064D8:  MOVFF  6D9,909
064DC:  MOVFF  6D8,908
064E0:  MOVFF  6D7,907
064E4:  MOVFF  6B2,90E
064E8:  MOVFF  6B1,90D
064EC:  MOVFF  6B0,90C
064F0:  MOVFF  6AF,90B
064F4:  CALL   1D90
064F8:  BNC   650A
....................       { 
....................          tmp=Setpoint; 
064FA:  MOVFF  6DA,6B2
064FE:  MOVFF  6D9,6B1
06502:  MOVFF  6D8,6B0
06506:  MOVFF  6D7,6AF
....................       } 
....................                    
....................       if(tmp<0.0)     // Anti Wind_DOWN     
0650A:  MOVFF  6B2,90A
0650E:  MOVFF  6B1,909
06512:  MOVFF  6B0,908
06516:  MOVFF  6AF,907
0651A:  MOVLB  9
0651C:  CLRF   x0E
0651E:  CLRF   x0D
06520:  CLRF   x0C
06522:  CLRF   x0B
06524:  MOVLB  0
06526:  CALL   1D90
0652A:  BNC   6538
....................       { 
....................          tmp=0.0; 
0652C:  MOVLB  6
0652E:  CLRF   xB2
06530:  CLRF   xB1
06532:  CLRF   xB0
06534:  CLRF   xAF
06536:  MOVLB  0
....................       } 
....................        
....................       // Tpulso(t)= Tciclo*(y(t)-ymin)/(ymax - ymin); calculo de ciclo util para control de resistencia.ymax=140.ymin=0; 
....................       // Tpulso es float, hay que pasar ese ciclo a una salida de un puerto usando el TMR1. 
....................       Tpulso=(tmp/Setpoint)*Tciclo;  
06538:  MOVFF  6B2,91F
0653C:  MOVFF  6B1,91E
06540:  MOVFF  6B0,91D
06544:  MOVFF  6AF,91C
06548:  MOVFF  6DA,923
0654C:  MOVFF  6D9,922
06550:  MOVFF  6D8,921
06554:  MOVFF  6D7,920
06558:  CALL   1E0A
0655C:  MOVFF  00,907
06560:  MOVFF  01,908
06564:  MOVFF  02,909
06568:  MOVFF  03,90A
0656C:  MOVFF  03,92B
06570:  MOVFF  02,92A
06574:  MOVFF  01,929
06578:  MOVFF  00,928
0657C:  MOVFF  69E,92F
06580:  MOVFF  69D,92E
06584:  MOVFF  69C,92D
06588:  MOVFF  69B,92C
0658C:  CALL   32D4
06590:  MOVFF  03,6A2
06594:  MOVFF  02,6A1
06598:  MOVFF  01,6A0
0659C:  MOVFF  00,69F
....................    } 
....................    else{// Si Esta realizando una Rampa debe realizar el control de acuerdo a la pendiente de Temperatura. Aprox 10C * min Maximo Valor de Pendiente. 
065A0:  BRA    6B46
....................       PendienteMinutos=PendienteActual*60; 
065A2:  MOVFF  66E,92B
065A6:  MOVFF  66D,92A
065AA:  MOVFF  66C,929
065AE:  MOVFF  66B,928
065B2:  MOVLB  9
065B4:  CLRF   x2F
065B6:  CLRF   x2E
065B8:  MOVLW  70
065BA:  MOVWF  x2D
065BC:  MOVLW  84
065BE:  MOVWF  x2C
065C0:  MOVLB  0
065C2:  CALL   32D4
065C6:  MOVFF  03,65E
065CA:  MOVFF  02,65D
065CE:  MOVFF  01,65C
065D2:  MOVFF  00,65B
....................       //PotenciaEntregada=((PendienteMinutos+DifPendiente)*100)/penMufla; 
....................       TiempoRampa=((HorasActual*3600)+(MinutosActual*60)+tinicio); 
065D6:  MOVFF  672,92B
065DA:  MOVFF  671,92A
065DE:  MOVFF  670,929
065E2:  MOVFF  66F,928
065E6:  MOVLB  9
065E8:  CLRF   x2F
065EA:  CLRF   x2E
065EC:  MOVLW  61
065EE:  MOVWF  x2D
065F0:  MOVLW  8A
065F2:  MOVWF  x2C
065F4:  MOVLB  0
065F6:  CALL   32D4
065FA:  MOVFF  00,907
065FE:  MOVFF  01,908
06602:  MOVFF  02,909
06606:  MOVFF  03,90A
0660A:  MOVFF  676,92B
0660E:  MOVFF  675,92A
06612:  MOVFF  674,929
06616:  MOVFF  673,928
0661A:  MOVLB  9
0661C:  CLRF   x2F
0661E:  CLRF   x2E
06620:  MOVLW  70
06622:  MOVWF  x2D
06624:  MOVLW  84
06626:  MOVWF  x2C
06628:  MOVLB  0
0662A:  CALL   32D4
0662E:  BCF    FD8.1
06630:  MOVFF  90A,91D
06634:  MOVFF  909,91C
06638:  MOVFF  908,91B
0663C:  MOVFF  907,91A
06640:  MOVFF  03,921
06644:  MOVFF  02,920
06648:  MOVFF  01,91F
0664C:  MOVFF  00,91E
06650:  CALL   1F68
06654:  MOVFF  00,907
06658:  MOVFF  01,908
0665C:  MOVFF  02,909
06660:  MOVFF  03,90A
06664:  MOVFF  64E,91E
06668:  MOVFF  64D,91D
0666C:  CALL   1D5A
06670:  BCF    FD8.1
06672:  MOVFF  90A,91D
06676:  MOVFF  909,91C
0667A:  MOVFF  908,91B
0667E:  MOVFF  907,91A
06682:  MOVFF  03,921
06686:  MOVFF  02,920
0668A:  MOVFF  01,91F
0668E:  MOVFF  00,91E
06692:  CALL   1F68
06696:  MOVFF  03,67A
0669A:  MOVFF  02,679
0669E:  MOVFF  01,678
066A2:  MOVFF  00,677
....................       if(Segmento==0){ 
066A6:  MOVLB  6
066A8:  MOVF   x2E,F
066AA:  BNZ   671C
....................          TemperaturaIdeal=(Pendiente*TiempoRampa)+TempeInicial; 
066AC:  MOVFF  6D2,92B
066B0:  MOVFF  6D1,92A
066B4:  MOVFF  6D0,929
066B8:  MOVFF  6CF,928
066BC:  MOVFF  67A,92F
066C0:  MOVFF  679,92E
066C4:  MOVFF  678,92D
066C8:  MOVFF  677,92C
066CC:  MOVLB  0
066CE:  CALL   32D4
066D2:  MOVFF  00,907
066D6:  MOVFF  01,908
066DA:  MOVFF  02,909
066DE:  MOVFF  03,90A
066E2:  BCF    FD8.1
066E4:  MOVFF  03,91D
066E8:  MOVFF  02,91C
066EC:  MOVFF  01,91B
066F0:  MOVFF  00,91A
066F4:  MOVFF  662,921
066F8:  MOVFF  661,920
066FC:  MOVFF  660,91F
06700:  MOVFF  65F,91E
06704:  CALL   1F68
06708:  MOVFF  03,702
0670C:  MOVFF  02,701
06710:  MOVFF  01,700
06714:  MOVFF  00,6FF
....................       }else{ 
06718:  BRA    67CC
0671A:  MOVLB  6
....................          TemperaturaIdeal=(Pendiente*TiempoRampa)+Temperatura1[(ProgramaSeleccionado*Pasos)+Segmento-1]; 
0671C:  MOVFF  6D2,92B
06720:  MOVFF  6D1,92A
06724:  MOVFF  6D0,929
06728:  MOVFF  6CF,928
0672C:  MOVFF  67A,92F
06730:  MOVFF  679,92E
06734:  MOVFF  678,92D
06738:  MOVFF  677,92C
0673C:  MOVLB  0
0673E:  CALL   32D4
06742:  MOVFF  00,907
06746:  MOVFF  01,908
0674A:  MOVFF  02,909
0674E:  MOVFF  03,90A
06752:  MOVLB  6
06754:  MOVF   x41,W
06756:  MULLW  10
06758:  MOVF   FF3,W
0675A:  ADDWF  x2E,W
0675C:  ADDLW  FF
0675E:  MOVWF  00
06760:  BCF    FD8.0
06762:  RLCF   00,F
06764:  MOVF   00,W
06766:  CLRF   03
06768:  ADDLW  07
0676A:  MOVWF  FE9
0676C:  MOVLW  07
0676E:  ADDWFC 03,W
06770:  MOVWF  FEA
06772:  MOVFF  FEC,03
06776:  MOVF   FED,F
06778:  MOVFF  FEF,90B
0677C:  MOVFF  03,90C
06780:  MOVLB  0
06782:  CALL   41E6
06786:  MOVFF  FEA,90C
0678A:  MOVFF  FE9,90B
0678E:  BCF    FD8.1
06790:  MOVFF  90A,91D
06794:  MOVFF  909,91C
06798:  MOVFF  908,91B
0679C:  MOVFF  907,91A
067A0:  MOVFF  03,921
067A4:  MOVFF  02,920
067A8:  MOVFF  01,91F
067AC:  MOVFF  00,91E
067B0:  CALL   1F68
067B4:  MOVFF  90C,FEA
067B8:  MOVFF  90B,FE9
067BC:  MOVFF  03,702
067C0:  MOVFF  02,701
067C4:  MOVFF  01,700
067C8:  MOVFF  00,6FF
....................       } 
....................       PotenciaEntregada=((TemperaturaIdeal-Temperatura)*100)/penMufla; 
067CC:  BSF    FD8.1
067CE:  MOVFF  702,91D
067D2:  MOVFF  701,91C
067D6:  MOVFF  700,91B
067DA:  MOVFF  6FF,91A
067DE:  MOVFF  6CE,921
067E2:  MOVFF  6CD,920
067E6:  MOVFF  6CC,91F
067EA:  MOVFF  6CB,91E
067EE:  CALL   1F68
067F2:  MOVFF  00,907
067F6:  MOVFF  01,908
067FA:  MOVFF  02,909
067FE:  MOVFF  03,90A
06802:  MOVFF  03,92B
06806:  MOVFF  02,92A
0680A:  MOVFF  01,929
0680E:  MOVFF  00,928
06812:  MOVLB  9
06814:  CLRF   x2F
06816:  CLRF   x2E
06818:  MOVLW  48
0681A:  MOVWF  x2D
0681C:  MOVLW  85
0681E:  MOVWF  x2C
06820:  MOVLB  0
06822:  CALL   32D4
06826:  MOVFF  00,907
0682A:  MOVFF  01,908
0682E:  MOVFF  02,909
06832:  MOVFF  03,90A
06836:  MOVFF  03,91F
0683A:  MOVFF  02,91E
0683E:  MOVFF  01,91D
06842:  MOVFF  00,91C
06846:  MOVFF  6FE,923
0684A:  MOVFF  6FD,922
0684E:  MOVFF  6FC,921
06852:  MOVFF  6FB,920
06856:  CALL   1E0A
0685A:  MOVFF  03,682
0685E:  MOVFF  02,681
06862:  MOVFF  01,680
06866:  MOVFF  00,67F
.................... // Pendiente determinar si el comportamiento de la mufla es lineal 10C/min o si tiene un comportamiento diferente. 
....................           
....................       if(Temperatura<450 && Temperatura>=200) 
0686A:  MOVFF  6CE,90A
0686E:  MOVFF  6CD,909
06872:  MOVFF  6CC,908
06876:  MOVFF  6CB,907
0687A:  MOVLB  9
0687C:  CLRF   x0E
0687E:  CLRF   x0D
06880:  MOVLW  61
06882:  MOVWF  x0C
06884:  MOVLW  87
06886:  MOVWF  x0B
06888:  MOVLB  0
0688A:  CALL   1D90
0688E:  BNC   68EC
06890:  MOVLB  9
06892:  CLRF   x0A
06894:  CLRF   x09
06896:  MOVLW  48
06898:  MOVWF  x08
0689A:  MOVLW  86
0689C:  MOVWF  x07
0689E:  MOVFF  6CE,90E
068A2:  MOVFF  6CD,90D
068A6:  MOVFF  6CC,90C
068AA:  MOVFF  6CB,90B
068AE:  MOVLB  0
068B0:  CALL   1D90
068B4:  BC    68B8
068B6:  BNZ   68EC
....................          penMufla=penInicial*0.9; 
068B8:  MOVFF  706,92B
068BC:  MOVFF  705,92A
068C0:  MOVFF  704,929
068C4:  MOVFF  703,928
068C8:  MOVLW  66
068CA:  MOVLB  9
068CC:  MOVWF  x2F
068CE:  MOVWF  x2E
068D0:  MOVWF  x2D
068D2:  MOVLW  7E
068D4:  MOVWF  x2C
068D6:  MOVLB  0
068D8:  CALL   32D4
068DC:  MOVFF  03,6FE
068E0:  MOVFF  02,6FD
068E4:  MOVFF  01,6FC
068E8:  MOVFF  00,6FB
....................           
....................       if(Temperatura<600 && Temperatura>=450) 
068EC:  MOVFF  6CE,90A
068F0:  MOVFF  6CD,909
068F4:  MOVFF  6CC,908
068F8:  MOVFF  6CB,907
068FC:  MOVLB  9
068FE:  CLRF   x0E
06900:  CLRF   x0D
06902:  MOVLW  16
06904:  MOVWF  x0C
06906:  MOVLW  88
06908:  MOVWF  x0B
0690A:  MOVLB  0
0690C:  CALL   1D90
06910:  BNC   6972
06912:  MOVLB  9
06914:  CLRF   x0A
06916:  CLRF   x09
06918:  MOVLW  61
0691A:  MOVWF  x08
0691C:  MOVLW  87
0691E:  MOVWF  x07
06920:  MOVFF  6CE,90E
06924:  MOVFF  6CD,90D
06928:  MOVFF  6CC,90C
0692C:  MOVFF  6CB,90B
06930:  MOVLB  0
06932:  CALL   1D90
06936:  BC    693A
06938:  BNZ   6972
....................          penMufla=penInicial*0.8; 
0693A:  MOVFF  706,92B
0693E:  MOVFF  705,92A
06942:  MOVFF  704,929
06946:  MOVFF  703,928
0694A:  MOVLW  CD
0694C:  MOVLB  9
0694E:  MOVWF  x2F
06950:  MOVLW  CC
06952:  MOVWF  x2E
06954:  MOVLW  4C
06956:  MOVWF  x2D
06958:  MOVLW  7E
0695A:  MOVWF  x2C
0695C:  MOVLB  0
0695E:  CALL   32D4
06962:  MOVFF  03,6FE
06966:  MOVFF  02,6FD
0696A:  MOVFF  01,6FC
0696E:  MOVFF  00,6FB
....................           
....................       if(Temperatura<900 && Temperatura>=600) 
06972:  MOVFF  6CE,90A
06976:  MOVFF  6CD,909
0697A:  MOVFF  6CC,908
0697E:  MOVFF  6CB,907
06982:  MOVLB  9
06984:  CLRF   x0E
06986:  CLRF   x0D
06988:  MOVLW  61
0698A:  MOVWF  x0C
0698C:  MOVLW  88
0698E:  MOVWF  x0B
06990:  MOVLB  0
06992:  CALL   1D90
06996:  BNC   69F4
06998:  MOVLB  9
0699A:  CLRF   x0A
0699C:  CLRF   x09
0699E:  MOVLW  16
069A0:  MOVWF  x08
069A2:  MOVLW  88
069A4:  MOVWF  x07
069A6:  MOVFF  6CE,90E
069AA:  MOVFF  6CD,90D
069AE:  MOVFF  6CC,90C
069B2:  MOVFF  6CB,90B
069B6:  MOVLB  0
069B8:  CALL   1D90
069BC:  BC    69C0
069BE:  BNZ   69F4
....................          penMufla=penInicial*0.7;   
069C0:  MOVFF  706,92B
069C4:  MOVFF  705,92A
069C8:  MOVFF  704,929
069CC:  MOVFF  703,928
069D0:  MOVLW  33
069D2:  MOVLB  9
069D4:  MOVWF  x2F
069D6:  MOVWF  x2E
069D8:  MOVWF  x2D
069DA:  MOVLW  7E
069DC:  MOVWF  x2C
069DE:  MOVLB  0
069E0:  CALL   32D4
069E4:  MOVFF  03,6FE
069E8:  MOVFF  02,6FD
069EC:  MOVFF  01,6FC
069F0:  MOVFF  00,6FB
....................           
....................       if(Temperatura<=1200 && Temperatura>=900) 
069F4:  MOVFF  6CE,90A
069F8:  MOVFF  6CD,909
069FC:  MOVFF  6CC,908
06A00:  MOVFF  6CB,907
06A04:  MOVLB  9
06A06:  CLRF   x0E
06A08:  CLRF   x0D
06A0A:  MOVLW  16
06A0C:  MOVWF  x0C
06A0E:  MOVLW  89
06A10:  MOVWF  x0B
06A12:  MOVLB  0
06A14:  CALL   1D90
06A18:  BC    6A1C
06A1A:  BNZ   6A7C
06A1C:  MOVLB  9
06A1E:  CLRF   x0A
06A20:  CLRF   x09
06A22:  MOVLW  61
06A24:  MOVWF  x08
06A26:  MOVLW  88
06A28:  MOVWF  x07
06A2A:  MOVFF  6CE,90E
06A2E:  MOVFF  6CD,90D
06A32:  MOVFF  6CC,90C
06A36:  MOVFF  6CB,90B
06A3A:  MOVLB  0
06A3C:  CALL   1D90
06A40:  BC    6A44
06A42:  BNZ   6A7C
....................          penMufla=penInicial*0.6;    
06A44:  MOVFF  706,92B
06A48:  MOVFF  705,92A
06A4C:  MOVFF  704,929
06A50:  MOVFF  703,928
06A54:  MOVLW  9A
06A56:  MOVLB  9
06A58:  MOVWF  x2F
06A5A:  MOVLW  99
06A5C:  MOVWF  x2E
06A5E:  MOVLW  19
06A60:  MOVWF  x2D
06A62:  MOVLW  7E
06A64:  MOVWF  x2C
06A66:  MOVLB  0
06A68:  CALL   32D4
06A6C:  MOVFF  03,6FE
06A70:  MOVFF  02,6FD
06A74:  MOVFF  01,6FC
06A78:  MOVFF  00,6FB
....................        
....................       if(PotenciaEntregada>100.0){ 
06A7C:  MOVLB  9
06A7E:  CLRF   x0A
06A80:  CLRF   x09
06A82:  MOVLW  48
06A84:  MOVWF  x08
06A86:  MOVLW  85
06A88:  MOVWF  x07
06A8A:  MOVFF  682,90E
06A8E:  MOVFF  681,90D
06A92:  MOVFF  680,90C
06A96:  MOVFF  67F,90B
06A9A:  MOVLB  0
06A9C:  CALL   1D90
06AA0:  BNC   6AB0
....................          PotenciaEntregada=100.0; 
06AA2:  MOVLB  6
06AA4:  CLRF   x82
06AA6:  CLRF   x81
06AA8:  MOVLW  48
06AAA:  MOVWF  x80
06AAC:  MOVLW  85
06AAE:  MOVWF  x7F
....................       } 
....................        
....................       if(PotenciaEntregada<0){ 
06AB0:  MOVFF  682,90A
06AB4:  MOVFF  681,909
06AB8:  MOVFF  680,908
06ABC:  MOVFF  67F,907
06AC0:  MOVLB  9
06AC2:  CLRF   x0E
06AC4:  CLRF   x0D
06AC6:  CLRF   x0C
06AC8:  CLRF   x0B
06ACA:  MOVLB  0
06ACC:  CALL   1D90
06AD0:  BNC   6ADE
....................          PotenciaEntregada=0; 
06AD2:  MOVLB  6
06AD4:  CLRF   x82
06AD6:  CLRF   x81
06AD8:  CLRF   x80
06ADA:  CLRF   x7F
06ADC:  MOVLB  0
....................       } 
....................        
....................       Tpulso=(PotenciaEntregada*Tciclo)/100; 
06ADE:  MOVFF  682,92B
06AE2:  MOVFF  681,92A
06AE6:  MOVFF  680,929
06AEA:  MOVFF  67F,928
06AEE:  MOVFF  69E,92F
06AF2:  MOVFF  69D,92E
06AF6:  MOVFF  69C,92D
06AFA:  MOVFF  69B,92C
06AFE:  CALL   32D4
06B02:  MOVFF  00,907
06B06:  MOVFF  01,908
06B0A:  MOVFF  02,909
06B0E:  MOVFF  03,90A
06B12:  MOVFF  03,91F
06B16:  MOVFF  02,91E
06B1A:  MOVFF  01,91D
06B1E:  MOVFF  00,91C
06B22:  MOVLB  9
06B24:  CLRF   x23
06B26:  CLRF   x22
06B28:  MOVLW  48
06B2A:  MOVWF  x21
06B2C:  MOVLW  85
06B2E:  MOVWF  x20
06B30:  MOVLB  0
06B32:  CALL   1E0A
06B36:  MOVFF  03,6A2
06B3A:  MOVFF  02,6A1
06B3E:  MOVFF  01,6A0
06B42:  MOVFF  00,69F
....................    } 
....................    Tp=(int16)(Tpulso/0.005); 
06B46:  MOVFF  6A2,91F
06B4A:  MOVFF  6A1,91E
06B4E:  MOVFF  6A0,91D
06B52:  MOVFF  69F,91C
06B56:  MOVLW  0A
06B58:  MOVLB  9
06B5A:  MOVWF  x23
06B5C:  MOVLW  D7
06B5E:  MOVWF  x22
06B60:  MOVLW  23
06B62:  MOVWF  x21
06B64:  MOVLW  77
06B66:  MOVWF  x20
06B68:  MOVLB  0
06B6A:  CALL   1E0A
06B6E:  MOVFF  03,916
06B72:  MOVFF  02,915
06B76:  MOVFF  01,914
06B7A:  MOVFF  00,913
06B7E:  CALL   37CA
06B82:  MOVFF  02,654
06B86:  MOVFF  01,653
....................    Tc=(int16)(Tciclo/0.005); 
06B8A:  MOVFF  69E,91F
06B8E:  MOVFF  69D,91E
06B92:  MOVFF  69C,91D
06B96:  MOVFF  69B,91C
06B9A:  MOVLW  0A
06B9C:  MOVLB  9
06B9E:  MOVWF  x23
06BA0:  MOVLW  D7
06BA2:  MOVWF  x22
06BA4:  MOVLW  23
06BA6:  MOVWF  x21
06BA8:  MOVLW  77
06BAA:  MOVWF  x20
06BAC:  MOVLB  0
06BAE:  CALL   1E0A
06BB2:  MOVFF  03,916
06BB6:  MOVFF  02,915
06BBA:  MOVFF  01,914
06BBE:  MOVFF  00,913
06BC2:  CALL   37CA
06BC6:  MOVFF  02,656
06BCA:  MOVFF  01,655
....................           
.................... //--------------------------------------------------------------------------------------------------------------------//    
.................... } 
06BCE:  RETLW  00
....................  
....................  
.................... void Envio_I2C(direccion, posicion, dato){ 
....................  
....................    i2c_start();            // Comienzo comunicacin 
*
038BC:  BSF    F94.4
038BE:  MOVLW  05
038C0:  MOVWF  00
038C2:  DECFSZ 00,F
038C4:  BRA    38C2
038C6:  BSF    F94.3
038C8:  MOVLW  06
038CA:  MOVWF  00
038CC:  DECFSZ 00,F
038CE:  BRA    38CC
038D0:  BCF    F8B.4
038D2:  BCF    F94.4
038D4:  MOVLW  05
038D6:  MOVWF  00
038D8:  DECFSZ 00,F
038DA:  BRA    38D8
038DC:  BCF    F8B.3
038DE:  BCF    F94.3
....................    i2c_write(direccion);   // Direccin del esclavo en el bus I2C 
038E0:  MOVFF  908,90B
038E4:  RCALL  3846
....................    i2c_write(posicion);    // Posicin donde se guardara el dato transmitido 
038E6:  MOVFF  909,90B
038EA:  RCALL  3846
....................    i2c_write(dato);        // Dato a transmitir 
038EC:  MOVFF  90A,90B
038F0:  RCALL  3846
....................    i2c_stop();             // Fin comunicacin 
038F2:  BCF    F94.4
038F4:  NOP   
038F6:  BSF    F94.3
038F8:  BTFSS  F82.3
038FA:  BRA    38F8
038FC:  MOVLW  05
038FE:  MOVWF  00
03900:  DECFSZ 00,F
03902:  BRA    3900
03904:  BRA    3906
03906:  NOP   
03908:  BSF    F94.4
0390A:  MOVLW  05
0390C:  MOVWF  00
0390E:  DECFSZ 00,F
03910:  BRA    390E
....................  } 
03912:  GOTO   394C (RETURN)
....................  
.................... void Lectura_I2C (byte direccion, byte posicion, byte &dato) { 
....................  
....................    i2c_start();            // Comienzo de la comunicacin 
....................    i2c_write(direccion);   // Direccin del esclavo en el bus I2C 
....................    i2c_write(posicion);    // Posicin de donde se leer el dato en el esclavo 
....................    i2c_start();            // Reinicio 
....................    i2c_write(direccion+1); // Direccin del esclavo en modo lectura 
....................    dato=i2c_read(0);       // Lectura del dato 
....................    i2c_stop();             // Fin comunicacin 
.................... } 
....................  
.................... void Carga_Vector(void){ 
....................    SlaveA0Tx[0]=make8((int16)Temperatura,0); 
*
03806:  MOVFF  6CE,916
0380A:  MOVFF  6CD,915
0380E:  MOVFF  6CC,914
03812:  MOVFF  6CB,913
03816:  RCALL  37CA
03818:  MOVFF  01,417
0381C:  MOVLB  4
....................    SlaveA0Tx[1]=make8((int16)Temperatura,1); 
0381E:  MOVFF  6CE,916
03822:  MOVFF  6CD,915
03826:  MOVFF  6CC,914
0382A:  MOVFF  6CB,913
0382E:  MOVLB  0
03830:  RCALL  37CA
03832:  MOVFF  02,418
03836:  MOVLB  4
....................    SlaveA0Tx[2]=0xff; 
03838:  MOVLW  FF
0383A:  MOVWF  x19
....................    SlaveA0Tx[3]=0xe0; 
0383C:  MOVLW  E0
0383E:  MOVWF  x1A
.................... } 
03840:  MOVLB  0
03842:  GOTO   3918 (RETURN)
....................  
.................... void Lee_Vector(void){ 
....................    /*Dia=txbuf[0]; 
....................    Mess=txbuf[1]; 
....................    Year=txbuf[2]; 
....................    Hora=txbuf[3]; 
....................    Minuto=txbuf[4]; 
....................    Segundo=txbuf[5]; 
....................    dow=txbuf[6];*/ 
.................... } 
....................  
.................... void Envio_Esclavos(void){ 
....................    Carga_Vector(); 
*
03916:  BRA    3806
....................    for(n=0;n<4;n++) 
03918:  MOVLB  6
0391A:  CLRF   x35
0391C:  MOVF   x35,W
0391E:  SUBLW  03
03920:  BNC   3952
....................    { 
....................       direccion=0xB0; 
03922:  MOVLW  B0
03924:  MOVLB  4
03926:  MOVWF  x38
....................       Envio_I2C(direccion,n,SlaveA0Tx[n]); 
03928:  CLRF   03
0392A:  MOVLB  6
0392C:  MOVF   x35,W
0392E:  ADDLW  17
03930:  MOVWF  FE9
03932:  MOVLW  04
03934:  ADDWFC 03,W
03936:  MOVWF  FEA
03938:  MOVFF  FEF,907
0393C:  MOVFF  438,908
03940:  MOVFF  635,909
03944:  MOVFF  907,90A
03948:  MOVLB  0
0394A:  BRA    38BC
....................    }  
0394C:  MOVLB  6
0394E:  INCF   x35,F
03950:  BRA    391C
.................... } 
03952:  MOVLB  0
03954:  GOTO   77E8 (RETURN)
.................... void Lectura_Esclavos(void){ 
....................    //for(i=0;i<7;i++) 
....................    //{ 
....................    //   direccion=0xA0;                        //Direccin en el bus I2c 
....................    //   posicion=i;                         //Posicin de memoria a leer 
....................    //   Lectura_I2C(direccion, posicion, dato);    //Lectura por I2C 
....................    //   txbuf[i]=(int8)dato; 
....................    //} 
....................    //Lee_Vector(); 
.................... } 
....................  
.................... void displayMenu(char palabra[30], int x, int y, int sombreado, int tamano) 
.................... { 
....................    strcpy(Menus.Letra,palabra); 
*
01A52:  MOVLB  9
01A54:  MOVFF  90E,01
01A58:  MOVFF  90F,03
01A5C:  MOVFF  90E,914
01A60:  MOVFF  90F,915
01A64:  MOVLW  08
01A66:  MOVWF  FEA
01A68:  MOVLW  E7
01A6A:  MOVWF  FE9
01A6C:  MOVFF  90F,FE2
01A70:  MOVFF  90E,FE1
01A74:  MOVF   FE7,F
01A76:  MOVFF  FE6,FEE
01A7A:  BNZ   1A74
....................     
....................    if(sombreado==3) 
01A7C:  MOVF   x12,W
01A7E:  SUBLW  03
01A80:  BNZ   1AA8
....................       {glcd_text57(x+1, y+1, Menus.Letra, tamano, OFF);} 
01A82:  MOVLW  01
01A84:  ADDWF  x10,W
01A86:  MOVWF  x14
01A88:  MOVLW  01
01A8A:  ADDWF  x11,W
01A8C:  MOVWF  x15
01A8E:  MOVFF  914,91F
01A92:  MOVWF  x20
01A94:  MOVLW  08
01A96:  MOVWF  x22
01A98:  MOVLW  E7
01A9A:  MOVWF  x21
01A9C:  MOVFF  913,923
01AA0:  CLRF   x24
01AA2:  MOVLB  0
01AA4:  RCALL  189A
01AA6:  MOVLB  9
....................    if(sombreado==2) 
01AA8:  MOVF   x12,W
01AAA:  SUBLW  02
01AAC:  BNZ   1AD6
....................       {glcd_text57(x+1, y+1, Menus.Letra, tamano, ON);} 
01AAE:  MOVLW  01
01AB0:  ADDWF  x10,W
01AB2:  MOVWF  x14
01AB4:  MOVLW  01
01AB6:  ADDWF  x11,W
01AB8:  MOVWF  x15
01ABA:  MOVFF  914,91F
01ABE:  MOVWF  x20
01AC0:  MOVLW  08
01AC2:  MOVWF  x22
01AC4:  MOVLW  E7
01AC6:  MOVWF  x21
01AC8:  MOVFF  913,923
01ACC:  MOVLW  01
01ACE:  MOVWF  x24
01AD0:  MOVLB  0
01AD2:  RCALL  189A
01AD4:  MOVLB  9
....................    if(sombreado==1) 
01AD6:  DECFSZ x12,W
01AD8:  BRA    1B24
....................       {glcd_rect(0, y, 127, y+(tamano*8), YES, ON);glcd_text57(x+1, y+1, Menus.Letra, tamano, OFF);} 
01ADA:  MOVF   x13,W
01ADC:  MULLW  08
01ADE:  MOVF   FF3,W
01AE0:  ADDWF  x11,W
01AE2:  MOVWF  x14
01AE4:  CLRF   x1F
01AE6:  MOVFF  911,920
01AEA:  MOVLW  7F
01AEC:  MOVWF  x21
01AEE:  MOVFF  914,922
01AF2:  MOVLW  01
01AF4:  MOVWF  x23
01AF6:  MOVWF  x24
01AF8:  MOVLB  0
01AFA:  RCALL  17D8
01AFC:  MOVLW  01
01AFE:  MOVLB  9
01B00:  ADDWF  x10,W
01B02:  MOVWF  x14
01B04:  MOVLW  01
01B06:  ADDWF  x11,W
01B08:  MOVWF  x15
01B0A:  MOVFF  914,91F
01B0E:  MOVWF  x20
01B10:  MOVLW  08
01B12:  MOVWF  x22
01B14:  MOVLW  E7
01B16:  MOVWF  x21
01B18:  MOVFF  913,923
01B1C:  CLRF   x24
01B1E:  MOVLB  0
01B20:  RCALL  189A
01B22:  MOVLB  9
....................    if(sombreado==0) 
01B24:  MOVF   x12,F
01B26:  BNZ   1B72
....................       {glcd_rect(0, y, 127, y+(tamano*8), YES, OFF);glcd_text57(x+1, y+1, Menus.Letra, tamano, ON);} 
01B28:  MOVF   x13,W
01B2A:  MULLW  08
01B2C:  MOVF   FF3,W
01B2E:  ADDWF  x11,W
01B30:  MOVWF  x14
01B32:  CLRF   x1F
01B34:  MOVFF  911,920
01B38:  MOVLW  7F
01B3A:  MOVWF  x21
01B3C:  MOVFF  914,922
01B40:  MOVLW  01
01B42:  MOVWF  x23
01B44:  CLRF   x24
01B46:  MOVLB  0
01B48:  RCALL  17D8
01B4A:  MOVLW  01
01B4C:  MOVLB  9
01B4E:  ADDWF  x10,W
01B50:  MOVWF  x14
01B52:  MOVLW  01
01B54:  ADDWF  x11,W
01B56:  MOVWF  x15
01B58:  MOVFF  914,91F
01B5C:  MOVWF  x20
01B5E:  MOVLW  08
01B60:  MOVWF  x22
01B62:  MOVLW  E7
01B64:  MOVWF  x21
01B66:  MOVFF  913,923
01B6A:  MOVLW  01
01B6C:  MOVWF  x24
01B6E:  MOVLB  0
01B70:  RCALL  189A
....................    glcd_update(); 
01B72:  MOVLB  0
01B74:  RCALL  147E
.................... } 
01B76:  RETLW  00
....................  
.................... void displayTemps(char palabra[30], int16 digito, int x, int y, int sombreado, int tamano) 
.................... { 
....................    char voltage[9]; 
....................     
....................    if(sombreado==11) 
*
0479C:  MOVLB  9
0479E:  MOVF   x12,W
047A0:  SUBLW  0B
047A2:  BNZ   4862
....................    { 
....................       sprintf(voltage, "%02Lu", digito); 
047A4:  MOVLW  09
047A6:  MOVWF  x06
047A8:  MOVLW  14
047AA:  MOVWF  x05
047AC:  MOVLW  0B
047AE:  MOVWF  FE9
047B0:  MOVFF  90F,91E
047B4:  MOVFF  90E,91D
047B8:  MOVLB  0
047BA:  RCALL  42FC
....................       glcd_rect(0, y-2, 127, y+(tamano*8), YES, ON); 
047BC:  MOVLW  02
047BE:  MOVLB  9
047C0:  SUBWF  x11,W
047C2:  MOVWF  x1D
047C4:  MOVF   x13,W
047C6:  MULLW  08
047C8:  MOVF   FF3,W
047CA:  ADDWF  x11,W
047CC:  MOVWF  x1E
047CE:  CLRF   x1F
047D0:  MOVFF  91D,920
047D4:  MOVLW  7F
047D6:  MOVWF  x21
047D8:  MOVFF  91E,922
047DC:  MOVLW  01
047DE:  MOVWF  x23
047E0:  MOVWF  x24
047E2:  MOVLB  0
047E4:  CALL   17D8
....................       strcpy(Menus.Letra,palabra); 
047E8:  MOVLB  9
047EA:  MOVFF  90C,01
047EE:  MOVFF  90D,03
047F2:  MOVFF  90C,91D
047F6:  MOVFF  90D,91E
047FA:  MOVLW  08
047FC:  MOVWF  FEA
047FE:  MOVLW  E7
04800:  MOVWF  FE9
04802:  MOVFF  90D,FE2
04806:  MOVFF  90C,FE1
0480A:  MOVF   FE7,F
0480C:  MOVFF  FE6,FEE
04810:  BNZ   480A
....................       glcd_text57(x+90, y+1, voltage, tamano, OFF); 
04812:  MOVLW  5A
04814:  ADDWF  x10,W
04816:  MOVWF  x1D
04818:  MOVLW  01
0481A:  ADDWF  x11,W
0481C:  MOVWF  x1E
0481E:  MOVFF  91D,91F
04822:  MOVWF  x20
04824:  MOVLW  09
04826:  MOVWF  x22
04828:  MOVLW  14
0482A:  MOVWF  x21
0482C:  MOVFF  913,923
04830:  CLRF   x24
04832:  MOVLB  0
04834:  CALL   189A
....................       glcd_text57(x+1, y+1, Menus.Letra, tamano, OFF); 
04838:  MOVLW  01
0483A:  MOVLB  9
0483C:  ADDWF  x10,W
0483E:  MOVWF  x1D
04840:  MOVLW  01
04842:  ADDWF  x11,W
04844:  MOVWF  x1E
04846:  MOVFF  91D,91F
0484A:  MOVWF  x20
0484C:  MOVLW  08
0484E:  MOVWF  x22
04850:  MOVLW  E7
04852:  MOVWF  x21
04854:  MOVFF  913,923
04858:  CLRF   x24
0485A:  MOVLB  0
0485C:  CALL   189A
04860:  MOVLB  9
....................    } 
....................    if(sombreado==10) 
04862:  MOVF   x12,W
04864:  SUBLW  0A
04866:  BNZ   492A
....................    { 
....................       sprintf(voltage, "%02Lu", digito); 
04868:  MOVLW  09
0486A:  MOVWF  x06
0486C:  MOVLW  14
0486E:  MOVWF  x05
04870:  MOVLW  0B
04872:  MOVWF  FE9
04874:  MOVFF  90F,91E
04878:  MOVFF  90E,91D
0487C:  MOVLB  0
0487E:  RCALL  42FC
....................       glcd_rect(0, y-2, 127, y+(tamano*8), YES, OFF); 
04880:  MOVLW  02
04882:  MOVLB  9
04884:  SUBWF  x11,W
04886:  MOVWF  x1D
04888:  MOVF   x13,W
0488A:  MULLW  08
0488C:  MOVF   FF3,W
0488E:  ADDWF  x11,W
04890:  MOVWF  x1E
04892:  CLRF   x1F
04894:  MOVFF  91D,920
04898:  MOVLW  7F
0489A:  MOVWF  x21
0489C:  MOVFF  91E,922
048A0:  MOVLW  01
048A2:  MOVWF  x23
048A4:  CLRF   x24
048A6:  MOVLB  0
048A8:  CALL   17D8
....................       strcpy(Menus.Letra,palabra); 
048AC:  MOVLB  9
048AE:  MOVFF  90C,01
048B2:  MOVFF  90D,03
048B6:  MOVFF  90C,91D
048BA:  MOVFF  90D,91E
048BE:  MOVLW  08
048C0:  MOVWF  FEA
048C2:  MOVLW  E7
048C4:  MOVWF  FE9
048C6:  MOVFF  90D,FE2
048CA:  MOVFF  90C,FE1
048CE:  MOVF   FE7,F
048D0:  MOVFF  FE6,FEE
048D4:  BNZ   48CE
....................       glcd_text57(x+90, y+1, voltage, tamano, ON); 
048D6:  MOVLW  5A
048D8:  ADDWF  x10,W
048DA:  MOVWF  x1D
048DC:  MOVLW  01
048DE:  ADDWF  x11,W
048E0:  MOVWF  x1E
048E2:  MOVFF  91D,91F
048E6:  MOVWF  x20
048E8:  MOVLW  09
048EA:  MOVWF  x22
048EC:  MOVLW  14
048EE:  MOVWF  x21
048F0:  MOVFF  913,923
048F4:  MOVLW  01
048F6:  MOVWF  x24
048F8:  MOVLB  0
048FA:  CALL   189A
....................       glcd_text57(x+1, y+1, Menus.Letra, tamano, ON); 
048FE:  MOVLW  01
04900:  MOVLB  9
04902:  ADDWF  x10,W
04904:  MOVWF  x1D
04906:  MOVLW  01
04908:  ADDWF  x11,W
0490A:  MOVWF  x1E
0490C:  MOVFF  91D,91F
04910:  MOVWF  x20
04912:  MOVLW  08
04914:  MOVWF  x22
04916:  MOVLW  E7
04918:  MOVWF  x21
0491A:  MOVFF  913,923
0491E:  MOVLW  01
04920:  MOVWF  x24
04922:  MOVLB  0
04924:  CALL   189A
04928:  MOVLB  9
....................    } 
....................     
....................    if(sombreado==1) 
0492A:  DECFSZ x12,W
0492C:  BRA    4A58
....................    { 
....................       sprintf(voltage, "%04Lu", digito); 
0492E:  MOVLW  09
04930:  MOVWF  x06
04932:  MOVLW  14
04934:  MOVWF  x05
04936:  MOVLW  09
04938:  MOVWF  FE9
0493A:  MOVFF  90F,91E
0493E:  MOVFF  90E,91D
04942:  MOVLB  0
04944:  RCALL  42FC
....................       glcd_rect(0, y-2, 127, y+(tamano*8), YES, ON); 
04946:  MOVLW  02
04948:  MOVLB  9
0494A:  SUBWF  x11,W
0494C:  MOVWF  x1D
0494E:  MOVF   x13,W
04950:  MULLW  08
04952:  MOVF   FF3,W
04954:  ADDWF  x11,W
04956:  MOVWF  x1E
04958:  CLRF   x1F
0495A:  MOVFF  91D,920
0495E:  MOVLW  7F
04960:  MOVWF  x21
04962:  MOVFF  91E,922
04966:  MOVLW  01
04968:  MOVWF  x23
0496A:  MOVWF  x24
0496C:  MOVLB  0
0496E:  CALL   17D8
....................       strcpy(Menus.Letra,palabra); 
04972:  MOVLB  9
04974:  MOVFF  90C,01
04978:  MOVFF  90D,03
0497C:  MOVFF  90C,91D
04980:  MOVFF  90D,91E
04984:  MOVLW  08
04986:  MOVWF  FEA
04988:  MOVLW  E7
0498A:  MOVWF  FE9
0498C:  MOVFF  90D,FE2
04990:  MOVFF  90C,FE1
04994:  MOVF   FE7,F
04996:  MOVFF  FE6,FEE
0499A:  BNZ   4994
....................       glcd_text57(x+90, y+1, voltage, tamano, OFF); 
0499C:  MOVLW  5A
0499E:  ADDWF  x10,W
049A0:  MOVWF  x1D
049A2:  MOVLW  01
049A4:  ADDWF  x11,W
049A6:  MOVWF  x1E
049A8:  MOVFF  91D,91F
049AC:  MOVWF  x20
049AE:  MOVLW  09
049B0:  MOVWF  x22
049B2:  MOVLW  14
049B4:  MOVWF  x21
049B6:  MOVFF  913,923
049BA:  CLRF   x24
049BC:  MOVLB  0
049BE:  CALL   189A
....................       glcd_text57(x+1, y+1, Menus.Letra, tamano, OFF); 
049C2:  MOVLW  01
049C4:  MOVLB  9
049C6:  ADDWF  x10,W
049C8:  MOVWF  x1D
049CA:  MOVLW  01
049CC:  ADDWF  x11,W
049CE:  MOVWF  x1E
049D0:  MOVFF  91D,91F
049D4:  MOVWF  x20
049D6:  MOVLW  08
049D8:  MOVWF  x22
049DA:  MOVLW  E7
049DC:  MOVWF  x21
049DE:  MOVFF  913,923
049E2:  CLRF   x24
049E4:  MOVLB  0
049E6:  CALL   189A
....................       strcpy(Menus.Letra,"C"); 
049EA:  MOVLW  08
049EC:  MOVWF  FEA
049EE:  MOVLW  E7
049F0:  MOVWF  FE9
049F2:  MOVFF  FF2,91D
049F6:  BCF    FF2.7
049F8:  MOVLW  00
049FA:  CALL   06D2
049FE:  TBLRD*-
04A00:  TBLRD*+
04A02:  MOVF   FF5,W
04A04:  MOVWF  FEE
04A06:  IORLW  00
04A08:  BNZ   4A00
04A0A:  MOVLB  9
04A0C:  BTFSC  x1D.7
04A0E:  BSF    FF2.7
....................       glcd_text57(x+120, y+1, Menus.Letra, tamano, OFF); 
04A10:  MOVLW  78
04A12:  ADDWF  x10,W
04A14:  MOVWF  x1D
04A16:  MOVLW  01
04A18:  ADDWF  x11,W
04A1A:  MOVWF  x1E
04A1C:  MOVFF  91D,91F
04A20:  MOVWF  x20
04A22:  MOVLW  08
04A24:  MOVWF  x22
04A26:  MOVLW  E7
04A28:  MOVWF  x21
04A2A:  MOVFF  913,923
04A2E:  CLRF   x24
04A30:  MOVLB  0
04A32:  CALL   189A
....................       glcd_circle(x+115,y-1,1,NO,OFF); 
04A36:  MOVLW  73
04A38:  MOVLB  9
04A3A:  ADDWF  x10,W
04A3C:  MOVWF  x1D
04A3E:  MOVLW  01
04A40:  SUBWF  x11,W
04A42:  MOVWF  x1E
04A44:  MOVFF  91D,91F
04A48:  MOVWF  x20
04A4A:  MOVLW  01
04A4C:  MOVWF  x21
04A4E:  CLRF   x22
04A50:  CLRF   x23
04A52:  MOVLB  0
04A54:  RCALL  4572
04A56:  MOVLB  9
....................    } 
....................    if(sombreado==0) 
04A58:  MOVF   x12,F
04A5A:  BTFSS  FD8.2
04A5C:  BRA    4B8C
....................    { 
....................       sprintf(voltage, "%04Lu", digito); 
04A5E:  MOVLW  09
04A60:  MOVWF  x06
04A62:  MOVLW  14
04A64:  MOVWF  x05
04A66:  MOVLW  09
04A68:  MOVWF  FE9
04A6A:  MOVFF  90F,91E
04A6E:  MOVFF  90E,91D
04A72:  MOVLB  0
04A74:  RCALL  42FC
....................       glcd_rect(0, y-2, 127, y+(tamano*8), YES, OFF); 
04A76:  MOVLW  02
04A78:  MOVLB  9
04A7A:  SUBWF  x11,W
04A7C:  MOVWF  x1D
04A7E:  MOVF   x13,W
04A80:  MULLW  08
04A82:  MOVF   FF3,W
04A84:  ADDWF  x11,W
04A86:  MOVWF  x1E
04A88:  CLRF   x1F
04A8A:  MOVFF  91D,920
04A8E:  MOVLW  7F
04A90:  MOVWF  x21
04A92:  MOVFF  91E,922
04A96:  MOVLW  01
04A98:  MOVWF  x23
04A9A:  CLRF   x24
04A9C:  MOVLB  0
04A9E:  CALL   17D8
....................       strcpy(Menus.Letra,palabra); 
04AA2:  MOVLB  9
04AA4:  MOVFF  90C,01
04AA8:  MOVFF  90D,03
04AAC:  MOVFF  90C,91D
04AB0:  MOVFF  90D,91E
04AB4:  MOVLW  08
04AB6:  MOVWF  FEA
04AB8:  MOVLW  E7
04ABA:  MOVWF  FE9
04ABC:  MOVFF  90D,FE2
04AC0:  MOVFF  90C,FE1
04AC4:  MOVF   FE7,F
04AC6:  MOVFF  FE6,FEE
04ACA:  BNZ   4AC4
....................       glcd_text57(x+90, y+1, voltage, tamano, ON); 
04ACC:  MOVLW  5A
04ACE:  ADDWF  x10,W
04AD0:  MOVWF  x1D
04AD2:  MOVLW  01
04AD4:  ADDWF  x11,W
04AD6:  MOVWF  x1E
04AD8:  MOVFF  91D,91F
04ADC:  MOVWF  x20
04ADE:  MOVLW  09
04AE0:  MOVWF  x22
04AE2:  MOVLW  14
04AE4:  MOVWF  x21
04AE6:  MOVFF  913,923
04AEA:  MOVLW  01
04AEC:  MOVWF  x24
04AEE:  MOVLB  0
04AF0:  CALL   189A
....................       glcd_text57(x+1, y+1, Menus.Letra, tamano, ON); 
04AF4:  MOVLW  01
04AF6:  MOVLB  9
04AF8:  ADDWF  x10,W
04AFA:  MOVWF  x1D
04AFC:  MOVLW  01
04AFE:  ADDWF  x11,W
04B00:  MOVWF  x1E
04B02:  MOVFF  91D,91F
04B06:  MOVWF  x20
04B08:  MOVLW  08
04B0A:  MOVWF  x22
04B0C:  MOVLW  E7
04B0E:  MOVWF  x21
04B10:  MOVFF  913,923
04B14:  MOVLW  01
04B16:  MOVWF  x24
04B18:  MOVLB  0
04B1A:  CALL   189A
....................       strcpy(Menus.Letra,"C"); 
04B1E:  MOVLW  08
04B20:  MOVWF  FEA
04B22:  MOVLW  E7
04B24:  MOVWF  FE9
04B26:  MOVFF  FF2,91D
04B2A:  BCF    FF2.7
04B2C:  MOVLW  00
04B2E:  CALL   06D2
04B32:  TBLRD*-
04B34:  TBLRD*+
04B36:  MOVF   FF5,W
04B38:  MOVWF  FEE
04B3A:  IORLW  00
04B3C:  BNZ   4B34
04B3E:  MOVLB  9
04B40:  BTFSC  x1D.7
04B42:  BSF    FF2.7
....................       glcd_text57(x+120, y+1, Menus.Letra, tamano, ON); 
04B44:  MOVLW  78
04B46:  ADDWF  x10,W
04B48:  MOVWF  x1D
04B4A:  MOVLW  01
04B4C:  ADDWF  x11,W
04B4E:  MOVWF  x1E
04B50:  MOVFF  91D,91F
04B54:  MOVWF  x20
04B56:  MOVLW  08
04B58:  MOVWF  x22
04B5A:  MOVLW  E7
04B5C:  MOVWF  x21
04B5E:  MOVFF  913,923
04B62:  MOVLW  01
04B64:  MOVWF  x24
04B66:  MOVLB  0
04B68:  CALL   189A
....................       glcd_circle(x+115,y-1,1,NO,ON); 
04B6C:  MOVLW  73
04B6E:  MOVLB  9
04B70:  ADDWF  x10,W
04B72:  MOVWF  x1D
04B74:  MOVLW  01
04B76:  SUBWF  x11,W
04B78:  MOVWF  x1E
04B7A:  MOVFF  91D,91F
04B7E:  MOVWF  x20
04B80:  MOVLW  01
04B82:  MOVWF  x21
04B84:  CLRF   x22
04B86:  MOVWF  x23
04B88:  MOVLB  0
04B8A:  RCALL  4572
....................    } 
....................    glcd_update(); 
04B8C:  MOVLB  0
04B8E:  CALL   147E
.................... } 
04B92:  RETLW  00
....................  
.................... void displayTiempo(int digito, int x, int y, int sombreado, int tamano) 
.................... { 
....................    char voltage[9]; 
....................     
....................    if(sombreado==2) 
*
03FCC:  MOVLB  9
03FCE:  MOVF   x0D,W
03FD0:  SUBLW  02
03FD2:  BNZ   4044
....................    { 
....................       sprintf(voltage, "%03u", digito); 
03FD4:  MOVLW  09
03FD6:  MOVWF  x06
03FD8:  MOVLW  0F
03FDA:  MOVWF  x05
03FDC:  MOVFF  90A,918
03FE0:  MOVLW  03
03FE2:  MOVWF  x19
03FE4:  MOVLB  0
03FE6:  RCALL  3F46
....................       glcd_rect(x, y, x+(tamano*18), y+(tamano*8), YES, ON); 
03FE8:  MOVLB  9
03FEA:  MOVF   x0E,W
03FEC:  MULLW  12
03FEE:  MOVF   FF3,W
03FF0:  ADDWF  x0B,W
03FF2:  MOVWF  x18
03FF4:  MOVF   x0E,W
03FF6:  MULLW  08
03FF8:  MOVF   FF3,W
03FFA:  ADDWF  x0C,W
03FFC:  MOVWF  x19
03FFE:  MOVFF  90B,91F
04002:  MOVFF  90C,920
04006:  MOVFF  918,921
0400A:  MOVWF  x22
0400C:  MOVLW  01
0400E:  MOVWF  x23
04010:  MOVWF  x24
04012:  MOVLB  0
04014:  CALL   17D8
....................       glcd_text57(x+1, y+1, voltage, tamano, OFF); 
04018:  MOVLW  01
0401A:  MOVLB  9
0401C:  ADDWF  x0B,W
0401E:  MOVWF  x18
04020:  MOVLW  01
04022:  ADDWF  x0C,W
04024:  MOVWF  x19
04026:  MOVFF  918,91F
0402A:  MOVWF  x20
0402C:  MOVLW  09
0402E:  MOVWF  x22
04030:  MOVLW  0F
04032:  MOVWF  x21
04034:  MOVFF  90E,923
04038:  CLRF   x24
0403A:  MOVLB  0
0403C:  CALL   189A
....................    } 
....................    else 
04040:  BRA    4188
04042:  MOVLB  9
....................    { 
....................       if(sombreado==3) 
04044:  MOVF   x0D,W
04046:  SUBLW  03
04048:  BNZ   40BA
....................       { 
....................          sprintf(voltage, "%03u", digito); 
0404A:  MOVLW  09
0404C:  MOVWF  x06
0404E:  MOVLW  0F
04050:  MOVWF  x05
04052:  MOVFF  90A,918
04056:  MOVLW  03
04058:  MOVWF  x19
0405A:  MOVLB  0
0405C:  RCALL  3F46
....................          glcd_rect(x, y, x+(tamano*18), y+(tamano*8), YES, OFF); 
0405E:  MOVLB  9
04060:  MOVF   x0E,W
04062:  MULLW  12
04064:  MOVF   FF3,W
04066:  ADDWF  x0B,W
04068:  MOVWF  x18
0406A:  MOVF   x0E,W
0406C:  MULLW  08
0406E:  MOVF   FF3,W
04070:  ADDWF  x0C,W
04072:  MOVWF  x19
04074:  MOVFF  90B,91F
04078:  MOVFF  90C,920
0407C:  MOVFF  918,921
04080:  MOVWF  x22
04082:  MOVLW  01
04084:  MOVWF  x23
04086:  CLRF   x24
04088:  MOVLB  0
0408A:  CALL   17D8
....................          glcd_text57(x+1, y+1, voltage, tamano, ON); 
0408E:  MOVLW  01
04090:  MOVLB  9
04092:  ADDWF  x0B,W
04094:  MOVWF  x18
04096:  MOVLW  01
04098:  ADDWF  x0C,W
0409A:  MOVWF  x19
0409C:  MOVFF  918,91F
040A0:  MOVWF  x20
040A2:  MOVLW  09
040A4:  MOVWF  x22
040A6:  MOVLW  0F
040A8:  MOVWF  x21
040AA:  MOVFF  90E,923
040AE:  MOVLW  01
040B0:  MOVWF  x24
040B2:  MOVLB  0
040B4:  CALL   189A
040B8:  MOVLB  9
....................       } 
....................       sprintf(voltage, "%u", digito); 
040BA:  MOVLW  09
040BC:  MOVWF  x06
040BE:  MOVLW  0F
040C0:  MOVWF  x05
040C2:  MOVFF  90A,918
040C6:  MOVLW  1B
040C8:  MOVWF  x19
040CA:  MOVLB  0
040CC:  RCALL  3F46
....................       if(sombreado==1) 
040CE:  MOVLB  9
040D0:  DECFSZ x0D,W
040D2:  BRA    412C
....................          {glcd_rect(x, y, x+(tamano*5), y+(tamano*8), YES, ON);glcd_text57(x+1, y+1, voltage, tamano, OFF);} 
040D4:  MOVF   x0E,W
040D6:  MULLW  05
040D8:  MOVF   FF3,W
040DA:  ADDWF  x0B,W
040DC:  MOVWF  x18
040DE:  MOVF   x0E,W
040E0:  MULLW  08
040E2:  MOVF   FF3,W
040E4:  ADDWF  x0C,W
040E6:  MOVWF  x19
040E8:  MOVFF  90B,91F
040EC:  MOVFF  90C,920
040F0:  MOVFF  918,921
040F4:  MOVWF  x22
040F6:  MOVLW  01
040F8:  MOVWF  x23
040FA:  MOVWF  x24
040FC:  MOVLB  0
040FE:  CALL   17D8
04102:  MOVLW  01
04104:  MOVLB  9
04106:  ADDWF  x0B,W
04108:  MOVWF  x18
0410A:  MOVLW  01
0410C:  ADDWF  x0C,W
0410E:  MOVWF  x19
04110:  MOVFF  918,91F
04114:  MOVWF  x20
04116:  MOVLW  09
04118:  MOVWF  x22
0411A:  MOVLW  0F
0411C:  MOVWF  x21
0411E:  MOVFF  90E,923
04122:  CLRF   x24
04124:  MOVLB  0
04126:  CALL   189A
0412A:  MOVLB  9
....................       if(sombreado==0) 
0412C:  MOVF   x0D,F
0412E:  BNZ   418A
....................          {glcd_rect(x, y, x+(tamano*5), y+(tamano*8), YES, OFF);glcd_text57(x+1, y+1, voltage, tamano, ON);} 
04130:  MOVF   x0E,W
04132:  MULLW  05
04134:  MOVF   FF3,W
04136:  ADDWF  x0B,W
04138:  MOVWF  x18
0413A:  MOVF   x0E,W
0413C:  MULLW  08
0413E:  MOVF   FF3,W
04140:  ADDWF  x0C,W
04142:  MOVWF  x19
04144:  MOVFF  90B,91F
04148:  MOVFF  90C,920
0414C:  MOVFF  918,921
04150:  MOVWF  x22
04152:  MOVLW  01
04154:  MOVWF  x23
04156:  CLRF   x24
04158:  MOVLB  0
0415A:  CALL   17D8
0415E:  MOVLW  01
04160:  MOVLB  9
04162:  ADDWF  x0B,W
04164:  MOVWF  x18
04166:  MOVLW  01
04168:  ADDWF  x0C,W
0416A:  MOVWF  x19
0416C:  MOVFF  918,91F
04170:  MOVWF  x20
04172:  MOVLW  09
04174:  MOVWF  x22
04176:  MOVLW  0F
04178:  MOVWF  x21
0417A:  MOVFF  90E,923
0417E:  MOVLW  01
04180:  MOVWF  x24
04182:  MOVLB  0
04184:  CALL   189A
04188:  MOVLB  9
....................    } 
....................    glcd_update(); 
0418A:  MOVLB  0
0418C:  CALL   147E
.................... } 
04190:  RETLW  00
....................  
.................... void displayTemperatura(int16 digito, int x, int y, int sombreado, int tamano) 
.................... { 
....................    char voltage[9]; 
....................     
....................    if(sombreado==2) 
*
043BA:  MOVLB  9
043BC:  MOVF   x10,W
043BE:  SUBLW  02
043C0:  BNZ   4436
....................    { 
....................       sprintf(voltage, "%04Lu", digito); 
043C2:  MOVLW  09
043C4:  MOVWF  x06
043C6:  MOVLW  12
043C8:  MOVWF  x05
043CA:  MOVLW  09
043CC:  MOVWF  FE9
043CE:  MOVFF  90D,91E
043D2:  MOVFF  90C,91D
043D6:  MOVLB  0
043D8:  RCALL  42FC
....................       glcd_rect(x, y, x+(tamano*18), y+(tamano*8), YES, ON); 
043DA:  MOVLB  9
043DC:  MOVF   x11,W
043DE:  MULLW  12
043E0:  MOVF   FF3,W
043E2:  ADDWF  x0E,W
043E4:  MOVWF  x1B
043E6:  MOVF   x11,W
043E8:  MULLW  08
043EA:  MOVF   FF3,W
043EC:  ADDWF  x0F,W
043EE:  MOVWF  x1C
043F0:  MOVFF  90E,91F
043F4:  MOVFF  90F,920
043F8:  MOVFF  91B,921
043FC:  MOVWF  x22
043FE:  MOVLW  01
04400:  MOVWF  x23
04402:  MOVWF  x24
04404:  MOVLB  0
04406:  CALL   17D8
....................       glcd_text57(x+1, y+1, voltage, tamano, OFF); 
0440A:  MOVLW  01
0440C:  MOVLB  9
0440E:  ADDWF  x0E,W
04410:  MOVWF  x1B
04412:  MOVLW  01
04414:  ADDWF  x0F,W
04416:  MOVWF  x1C
04418:  MOVFF  91B,91F
0441C:  MOVWF  x20
0441E:  MOVLW  09
04420:  MOVWF  x22
04422:  MOVLW  12
04424:  MOVWF  x21
04426:  MOVFF  911,923
0442A:  CLRF   x24
0442C:  MOVLB  0
0442E:  CALL   189A
....................    } 
....................    else 
04432:  BRA    4568
04434:  MOVLB  9
....................    { 
....................       sprintf(voltage, "%04Lu", digito); 
04436:  MOVLW  09
04438:  MOVWF  x06
0443A:  MOVLW  12
0443C:  MOVWF  x05
0443E:  MOVLW  09
04440:  MOVWF  FE9
04442:  MOVFF  90D,91E
04446:  MOVFF  90C,91D
0444A:  MOVLB  0
0444C:  RCALL  42FC
....................     
....................       if(sombreado==4) 
0444E:  MOVLB  9
04450:  MOVF   x10,W
04452:  SUBLW  04
04454:  BNZ   44B0
....................       { 
....................          glcd_rect(x, y, x+(tamano*16), y+(tamano*8), YES, OFF); 
04456:  MOVF   x11,W
04458:  MULLW  10
0445A:  MOVF   FF3,W
0445C:  ADDWF  x0E,W
0445E:  MOVWF  x1B
04460:  MOVF   x11,W
04462:  MULLW  08
04464:  MOVF   FF3,W
04466:  ADDWF  x0F,W
04468:  MOVWF  x1C
0446A:  MOVFF  90E,91F
0446E:  MOVFF  90F,920
04472:  MOVFF  91B,921
04476:  MOVWF  x22
04478:  MOVLW  01
0447A:  MOVWF  x23
0447C:  CLRF   x24
0447E:  MOVLB  0
04480:  CALL   17D8
....................          glcd_text57(x+1, y+1, voltage, tamano, ON); 
04484:  MOVLW  01
04486:  MOVLB  9
04488:  ADDWF  x0E,W
0448A:  MOVWF  x1B
0448C:  MOVLW  01
0448E:  ADDWF  x0F,W
04490:  MOVWF  x1C
04492:  MOVFF  91B,91F
04496:  MOVWF  x20
04498:  MOVLW  09
0449A:  MOVWF  x22
0449C:  MOVLW  12
0449E:  MOVWF  x21
044A0:  MOVFF  911,923
044A4:  MOVLW  01
044A6:  MOVWF  x24
044A8:  MOVLB  0
044AA:  CALL   189A
044AE:  MOVLB  9
....................       } 
....................       if(sombreado==1) 
044B0:  DECFSZ x10,W
044B2:  BRA    450C
....................          {glcd_rect(x, y, x+(tamano*5), y+(tamano*8), YES, ON);glcd_text57(x+1, y+1, voltage, tamano, OFF);} 
044B4:  MOVF   x11,W
044B6:  MULLW  05
044B8:  MOVF   FF3,W
044BA:  ADDWF  x0E,W
044BC:  MOVWF  x1B
044BE:  MOVF   x11,W
044C0:  MULLW  08
044C2:  MOVF   FF3,W
044C4:  ADDWF  x0F,W
044C6:  MOVWF  x1C
044C8:  MOVFF  90E,91F
044CC:  MOVFF  90F,920
044D0:  MOVFF  91B,921
044D4:  MOVWF  x22
044D6:  MOVLW  01
044D8:  MOVWF  x23
044DA:  MOVWF  x24
044DC:  MOVLB  0
044DE:  CALL   17D8
044E2:  MOVLW  01
044E4:  MOVLB  9
044E6:  ADDWF  x0E,W
044E8:  MOVWF  x1B
044EA:  MOVLW  01
044EC:  ADDWF  x0F,W
044EE:  MOVWF  x1C
044F0:  MOVFF  91B,91F
044F4:  MOVWF  x20
044F6:  MOVLW  09
044F8:  MOVWF  x22
044FA:  MOVLW  12
044FC:  MOVWF  x21
044FE:  MOVFF  911,923
04502:  CLRF   x24
04504:  MOVLB  0
04506:  CALL   189A
0450A:  MOVLB  9
....................       if(sombreado==0) 
0450C:  MOVF   x10,F
0450E:  BNZ   456A
....................          {glcd_rect(x, y, x+(tamano*5), y+(tamano*8), YES, OFF);glcd_text57(x+1, y+1, voltage, tamano, ON);} 
04510:  MOVF   x11,W
04512:  MULLW  05
04514:  MOVF   FF3,W
04516:  ADDWF  x0E,W
04518:  MOVWF  x1B
0451A:  MOVF   x11,W
0451C:  MULLW  08
0451E:  MOVF   FF3,W
04520:  ADDWF  x0F,W
04522:  MOVWF  x1C
04524:  MOVFF  90E,91F
04528:  MOVFF  90F,920
0452C:  MOVFF  91B,921
04530:  MOVWF  x22
04532:  MOVLW  01
04534:  MOVWF  x23
04536:  CLRF   x24
04538:  MOVLB  0
0453A:  CALL   17D8
0453E:  MOVLW  01
04540:  MOVLB  9
04542:  ADDWF  x0E,W
04544:  MOVWF  x1B
04546:  MOVLW  01
04548:  ADDWF  x0F,W
0454A:  MOVWF  x1C
0454C:  MOVFF  91B,91F
04550:  MOVWF  x20
04552:  MOVLW  09
04554:  MOVWF  x22
04556:  MOVLW  12
04558:  MOVWF  x21
0455A:  MOVFF  911,923
0455E:  MOVLW  01
04560:  MOVWF  x24
04562:  MOVLB  0
04564:  CALL   189A
04568:  MOVLB  9
....................    } 
....................    glcd_update(); 
0456A:  MOVLB  0
0456C:  CALL   147E
.................... } 
04570:  RETLW  00
....................  
.................... void glcd_imagen(int8 x) 
.................... { 
....................    char i,j; 
....................    signed char k;  
....................     
....................    if(x==5){ 
*
0584E:  MOVLB  9
05850:  MOVF   x07,W
05852:  SUBLW  05
05854:  BNZ   58FA
....................    for( i = 0 ; i < 64 ; i ++ ) 
05856:  CLRF   x08
05858:  MOVF   x08,W
0585A:  SUBLW  3F
0585C:  BNC   58FA
....................    {   
....................       for( j = 0 ; j < 16 ; j ++) 
0585E:  CLRF   x09
05860:  MOVF   x09,W
05862:  SUBLW  0F
05864:  BNC   58F6
....................       {     
....................          for(k=7;k>-1;k--) 
05866:  MOVLW  07
05868:  MOVWF  x0A
0586A:  MOVF   x0A,W
0586C:  XORLW  80
0586E:  SUBLW  7F
05870:  BC    58F2
....................          {       
....................             if( bit_test(Horno[i][j] ,7-k ))  
05872:  CLRF   x0C
05874:  MOVFF  908,90B
05878:  CLRF   x0E
0587A:  MOVLW  10
0587C:  MOVWF  x0D
0587E:  MOVLB  0
05880:  CALL   32B2
05884:  MOVFF  02,90C
05888:  MOVFF  01,90B
0588C:  MOVLB  9
0588E:  MOVF   x09,W
05890:  ADDWF  01,W
05892:  MOVWF  01
05894:  MOVLW  00
05896:  ADDWFC 02,W
05898:  MOVWF  03
0589A:  MOVF   01,W
0589C:  MOVFF  FF2,90B
058A0:  BCF    FF2.7
058A2:  MOVFF  03,FF7
058A6:  MOVLB  0
058A8:  CALL   02B6
058AC:  MOVLB  9
058AE:  BTFSC  x0B.7
058B0:  BSF    FF2.7
058B2:  MOVWF  x0B
058B4:  MOVLW  07
058B6:  BSF    FD8.0
058B8:  SUBFWB x0A,W
058BA:  MOVWF  x0C
058BC:  MOVFF  90B,00
058C0:  MOVF   x0C,W
058C2:  MOVWF  01
058C4:  BZ    58CE
058C6:  BCF    FD8.0
058C8:  RRCF   00,F
058CA:  DECFSZ 01,F
058CC:  BRA    58C6
058CE:  BTFSS  00.0
058D0:  BRA    58EE
....................                glcd_pixel( j*8+k,i, ON ); 
058D2:  MOVF   x09,W
058D4:  MULLW  08
058D6:  MOVF   FF3,W
058D8:  ADDWF  x0A,W
058DA:  MOVWF  x0B
058DC:  MOVWF  x3B
058DE:  MOVFF  908,93C
058E2:  MOVLW  01
058E4:  MOVWF  x3D
058E6:  MOVLB  0
058E8:  CALL   15DE
058EC:  MOVLB  9
....................          }   
058EE:  DECF   x0A,F
058F0:  BRA    586A
....................       } 
058F2:  INCF   x09,F
058F4:  BRA    5860
....................    } 
058F6:  INCF   x08,F
058F8:  BRA    5858
....................    } 
....................     
.................... } 
058FA:  MOVLB  0
058FC:  GOTO   9E94 (RETURN)
....................     
.................... void Limpia(int x1,int x2,int y){ 
....................    glcd_rect(x1, y, x2, y+7, YES, OFF); 
.................... } 
....................  
.................... void displayT(int16 adc,int x,int y,int w) { 
....................    char voltage[9];     
....................    sprintf(voltage, "%04Lu",adc); // Converts adc to text 
*
06BD0:  MOVLW  09
06BD2:  MOVLB  9
06BD4:  MOVWF  x06
06BD6:  MOVLW  0E
06BD8:  MOVWF  x05
06BDA:  MOVLW  09
06BDC:  MOVWF  FE9
06BDE:  MOVFF  90A,91E
06BE2:  MOVFF  909,91D
06BE6:  MOVLB  0
06BE8:  CALL   42FC
....................    glcd_rect(x, y, x+(w*27), y+(w*8), YES, OFF); 
06BEC:  MOVLB  9
06BEE:  MOVF   x0D,W
06BF0:  MULLW  1B
06BF2:  MOVF   FF3,W
06BF4:  ADDWF  x0B,W
06BF6:  MOVWF  x17
06BF8:  MOVF   x0D,W
06BFA:  MULLW  08
06BFC:  MOVF   FF3,W
06BFE:  ADDWF  x0C,W
06C00:  MOVWF  x18
06C02:  MOVFF  90B,91F
06C06:  MOVFF  90C,920
06C0A:  MOVFF  917,921
06C0E:  MOVWF  x22
06C10:  MOVLW  01
06C12:  MOVWF  x23
06C14:  CLRF   x24
06C16:  MOVLB  0
06C18:  CALL   17D8
....................    glcd_text57(x, y, voltage, w, ON); 
06C1C:  MOVFF  90B,91F
06C20:  MOVFF  90C,920
06C24:  MOVLW  09
06C26:  MOVLB  9
06C28:  MOVWF  x22
06C2A:  MOVLW  0E
06C2C:  MOVWF  x21
06C2E:  MOVFF  90D,923
06C32:  MOVLW  01
06C34:  MOVWF  x24
06C36:  MOVLB  0
06C38:  CALL   189A
.................... } 
06C3C:  GOTO   A82C (RETURN)
....................  
.................... void displayFloat(float adc,int x,int y,int w) { 
....................    char voltage[9];     
....................    sprintf(voltage, "%03.2f",adc); // Converts adc to text 
*
06EBA:  MOVLW  09
06EBC:  MOVLB  9
06EBE:  MOVWF  x06
06EC0:  MOVLW  12
06EC2:  MOVWF  x05
06EC4:  MOVLW  42
06EC6:  MOVWF  FE9
06EC8:  MOVFF  90E,91E
06ECC:  MOVFF  90D,91D
06ED0:  MOVFF  90C,91C
06ED4:  MOVFF  90B,91B
06ED8:  MOVLW  02
06EDA:  MOVWF  x1F
06EDC:  MOVLB  0
06EDE:  BRA    6D04
....................    glcd_rect(x, y, x+(w*27), y+(w*8), YES, OFF); 
06EE0:  MOVLB  9
06EE2:  MOVF   x11,W
06EE4:  MULLW  1B
06EE6:  MOVF   FF3,W
06EE8:  ADDWF  x0F,W
06EEA:  MOVWF  x1B
06EEC:  MOVF   x11,W
06EEE:  MULLW  08
06EF0:  MOVF   FF3,W
06EF2:  ADDWF  x10,W
06EF4:  MOVWF  x1C
06EF6:  MOVFF  90F,91F
06EFA:  MOVFF  910,920
06EFE:  MOVFF  91B,921
06F02:  MOVWF  x22
06F04:  MOVLW  01
06F06:  MOVWF  x23
06F08:  CLRF   x24
06F0A:  MOVLB  0
06F0C:  CALL   17D8
....................    glcd_text57(x, y, voltage, w, ON); 
06F10:  MOVFF  90F,91F
06F14:  MOVFF  910,920
06F18:  MOVLW  09
06F1A:  MOVLB  9
06F1C:  MOVWF  x22
06F1E:  MOVLW  12
06F20:  MOVWF  x21
06F22:  MOVFF  911,923
06F26:  MOVLW  01
06F28:  MOVWF  x24
06F2A:  MOVLB  0
06F2C:  CALL   189A
.................... } 
06F30:  RETLW  00
....................  
.................... void displayContrasena(int digito, int x, int y, int sombreado) 
.................... { 
....................    char voltage[9]; 
....................    sprintf(voltage, "%i", digito); 
*
01CA4:  MOVLW  09
01CA6:  MOVLB  9
01CA8:  MOVWF  x06
01CAA:  MOVLW  14
01CAC:  MOVWF  x05
01CAE:  MOVFF  910,91D
01CB2:  MOVLW  1F
01CB4:  MOVWF  x1E
01CB6:  MOVLB  0
01CB8:  BRA    1BC4
....................     
....................    if(sombreado==1) 
01CBA:  MOVLB  9
01CBC:  DECFSZ x13,W
01CBE:  BRA    1D0E
....................       {glcd_rect(x, y, x+18, y+24, YES, ON);glcd_text57(x+2, y+1, voltage, 2, OFF);} 
01CC0:  MOVLW  12
01CC2:  ADDWF  x11,W
01CC4:  MOVWF  x1D
01CC6:  MOVLW  18
01CC8:  ADDWF  x12,W
01CCA:  MOVWF  x1E
01CCC:  MOVFF  911,91F
01CD0:  MOVFF  912,920
01CD4:  MOVFF  91D,921
01CD8:  MOVWF  x22
01CDA:  MOVLW  01
01CDC:  MOVWF  x23
01CDE:  MOVWF  x24
01CE0:  MOVLB  0
01CE2:  RCALL  17D8
01CE4:  MOVLW  02
01CE6:  MOVLB  9
01CE8:  ADDWF  x11,W
01CEA:  MOVWF  x1D
01CEC:  MOVLW  01
01CEE:  ADDWF  x12,W
01CF0:  MOVWF  x1E
01CF2:  MOVFF  91D,91F
01CF6:  MOVWF  x20
01CF8:  MOVLW  09
01CFA:  MOVWF  x22
01CFC:  MOVLW  14
01CFE:  MOVWF  x21
01D00:  MOVLW  02
01D02:  MOVWF  x23
01D04:  CLRF   x24
01D06:  MOVLB  0
01D08:  RCALL  189A
....................    else    
01D0A:  BRA    1D58
01D0C:  MOVLB  9
....................       {glcd_rect(x, y, x+18, y+24, NO, OFF);glcd_text57(x+2, y+1, voltage, 2, ON);} 
01D0E:  MOVLW  12
01D10:  ADDWF  x11,W
01D12:  MOVWF  x1D
01D14:  MOVLW  18
01D16:  ADDWF  x12,W
01D18:  MOVWF  x1E
01D1A:  MOVFF  911,91F
01D1E:  MOVFF  912,920
01D22:  MOVFF  91D,921
01D26:  MOVWF  x22
01D28:  CLRF   x23
01D2A:  CLRF   x24
01D2C:  MOVLB  0
01D2E:  RCALL  17D8
01D30:  MOVLW  02
01D32:  MOVLB  9
01D34:  ADDWF  x11,W
01D36:  MOVWF  x1D
01D38:  MOVLW  01
01D3A:  ADDWF  x12,W
01D3C:  MOVWF  x1E
01D3E:  MOVFF  91D,91F
01D42:  MOVWF  x20
01D44:  MOVLW  09
01D46:  MOVWF  x22
01D48:  MOVLW  14
01D4A:  MOVWF  x21
01D4C:  MOVLW  02
01D4E:  MOVWF  x23
01D50:  MOVLW  01
01D52:  MOVWF  x24
01D54:  MOVLB  0
01D56:  RCALL  189A
....................  
.................... } 
01D58:  RETLW  00
....................  
.................... void displayTiempos(int digito, int x, int y, int sombreado, int tamano) 
.................... { 
....................    char voltage[9]; 
....................     
....................    if(sombreado==2) 
....................    { 
....................       sprintf(voltage, "%02d", digito); 
....................       glcd_rect(x, y, x+(tamano*12), y+(tamano*8), YES, OFF); 
....................       glcd_text57(x+1, y+1, voltage, tamano, ON); 
....................    } 
....................    else 
....................    { 
....................       if(sombreado==3) 
....................       { 
....................          sprintf(voltage, "%03u", digito); 
....................          glcd_rect(x, y, x+(tamano*18), y+(tamano*8), YES, OFF); 
....................          glcd_text57(x+1, y+1, voltage, tamano, ON); 
....................       } 
....................       sprintf(voltage, "%u", digito); 
....................       if(sombreado==1) 
....................          {glcd_rect(x, y, x+(tamano*5), y+(tamano*8), YES, ON);glcd_text57(x+1, y+1, voltage, tamano, OFF);} 
....................       if(sombreado==0) 
....................          {glcd_rect(x, y, x+(tamano*5), y+(tamano*8), YES, OFF);glcd_text57(x+1, y+1, voltage, tamano, ON);} 
....................    } 
....................    glcd_update(); 
.................... } 
....................  
.................... void MuestraSegmento(int8 Opcio,int8 l,int8 Prog ){ 
....................          if(Temperatura1[l+((Prog-1)*Pasos)]>1200) 
*
04B94:  MOVLW  01
04B96:  MOVLB  9
04B98:  SUBWF  x09,W
04B9A:  MULLW  10
04B9C:  MOVF   FF3,W
04B9E:  ADDWF  x08,W
04BA0:  MOVWF  00
04BA2:  BCF    FD8.0
04BA4:  RLCF   00,F
04BA6:  MOVF   00,W
04BA8:  CLRF   03
04BAA:  ADDLW  07
04BAC:  MOVWF  FE9
04BAE:  MOVLW  07
04BB0:  ADDWFC 03,W
04BB2:  MOVWF  FEA
04BB4:  MOVFF  FEC,90B
04BB8:  MOVF   FED,F
04BBA:  MOVFF  FEF,90A
04BBE:  BTFSC  x0B.7
04BC0:  BRA    4BF6
04BC2:  MOVF   x0B,W
04BC4:  SUBLW  03
04BC6:  BC    4BF6
04BC8:  XORLW  FF
04BCA:  BNZ   4BD2
04BCC:  MOVF   x0A,W
04BCE:  SUBLW  B0
04BD0:  BC    4BF6
....................             Temperatura1[l+((Prog-1)*Pasos)]=0; 
04BD2:  MOVLW  01
04BD4:  SUBWF  x09,W
04BD6:  MULLW  10
04BD8:  MOVF   FF3,W
04BDA:  ADDWF  x08,W
04BDC:  MOVWF  00
04BDE:  BCF    FD8.0
04BE0:  RLCF   00,F
04BE2:  MOVF   00,W
04BE4:  CLRF   03
04BE6:  ADDLW  07
04BE8:  MOVWF  FE9
04BEA:  MOVLW  07
04BEC:  ADDWFC 03,W
04BEE:  MOVWF  FEA
04BF0:  CLRF   FEC
04BF2:  MOVF   FED,F
04BF4:  CLRF   FEF
....................           
....................          if(Temperatura1[l+((Prog-1)*Pasos)]<0) 
04BF6:  MOVLW  01
04BF8:  SUBWF  x09,W
04BFA:  MULLW  10
04BFC:  MOVF   FF3,W
04BFE:  ADDWF  x08,W
04C00:  MOVWF  00
04C02:  BCF    FD8.0
04C04:  RLCF   00,F
04C06:  MOVF   00,W
04C08:  CLRF   03
04C0A:  ADDLW  07
04C0C:  MOVWF  FE9
04C0E:  MOVLW  07
04C10:  ADDWFC 03,W
04C12:  MOVWF  FEA
04C14:  MOVFF  FEC,90B
04C18:  MOVF   FED,F
04C1A:  MOVFF  FEF,90A
04C1E:  BTFSC  x0B.7
04C20:  BRA    4C24
04C22:  BRA    4C4C
....................             Temperatura1[l+((Prog-1)*Pasos)]=1200; 
04C24:  MOVLW  01
04C26:  SUBWF  x09,W
04C28:  MULLW  10
04C2A:  MOVF   FF3,W
04C2C:  ADDWF  x08,W
04C2E:  MOVWF  00
04C30:  BCF    FD8.0
04C32:  RLCF   00,F
04C34:  MOVF   00,W
04C36:  CLRF   03
04C38:  ADDLW  07
04C3A:  MOVWF  FE9
04C3C:  MOVLW  07
04C3E:  ADDWFC 03,W
04C40:  MOVWF  FEA
04C42:  MOVLW  04
04C44:  MOVWF  FEC
04C46:  MOVF   FED,F
04C48:  MOVLW  B0
04C4A:  MOVWF  FEF
....................           
....................          if(Temperatura1[l+((Prog-1)*Pasos)]>1100) 
04C4C:  MOVLW  01
04C4E:  SUBWF  x09,W
04C50:  MULLW  10
04C52:  MOVF   FF3,W
04C54:  ADDWF  x08,W
04C56:  MOVWF  00
04C58:  BCF    FD8.0
04C5A:  RLCF   00,F
04C5C:  MOVF   00,W
04C5E:  CLRF   03
04C60:  ADDLW  07
04C62:  MOVWF  FE9
04C64:  MOVLW  07
04C66:  ADDWFC 03,W
04C68:  MOVWF  FEA
04C6A:  MOVFF  FEC,90B
04C6E:  MOVF   FED,F
04C70:  MOVFF  FEF,90A
04C74:  BTFSC  x0B.7
04C76:  BRA    4CAC
04C78:  MOVF   x0B,W
04C7A:  SUBLW  03
04C7C:  BC    4CAC
04C7E:  XORLW  FF
04C80:  BNZ   4C88
04C82:  MOVF   x0A,W
04C84:  SUBLW  4C
04C86:  BC    4CAC
....................             Horas1[l+((Prog-1)*Pasos)]=0; 
04C88:  MOVLW  01
04C8A:  SUBWF  x09,W
04C8C:  MULLW  10
04C8E:  MOVF   FF3,W
04C90:  ADDWF  x08,W
04C92:  MOVWF  00
04C94:  BCF    FD8.0
04C96:  RLCF   00,F
04C98:  MOVF   00,W
04C9A:  CLRF   03
04C9C:  ADDLW  A7
04C9E:  MOVWF  FE9
04CA0:  MOVLW  07
04CA2:  ADDWFC 03,W
04CA4:  MOVWF  FEA
04CA6:  CLRF   FEC
04CA8:  MOVF   FED,F
04CAA:  CLRF   FEF
....................           
....................          strcpy(Menus.Letra,"P 0"); 
04CAC:  MOVLW  08
04CAE:  MOVWF  FEA
04CB0:  MOVLW  E7
04CB2:  MOVWF  FE9
04CB4:  MOVFF  FF2,90A
04CB8:  BCF    FF2.7
04CBA:  MOVLW  00
04CBC:  MOVLB  0
04CBE:  CALL   06F2
04CC2:  TBLRD*-
04CC4:  TBLRD*+
04CC6:  MOVF   FF5,W
04CC8:  MOVWF  FEE
04CCA:  IORLW  00
04CCC:  BNZ   4CC4
04CCE:  MOVLB  9
04CD0:  BTFSC  x0A.7
04CD2:  BSF    FF2.7
....................          displayMenu(Menus.Letra,30,0,1,2); 
04CD4:  MOVLW  08
04CD6:  MOVWF  x0F
04CD8:  MOVLW  E7
04CDA:  MOVWF  x0E
04CDC:  MOVLW  1E
04CDE:  MOVWF  x10
04CE0:  CLRF   x11
04CE2:  MOVLW  01
04CE4:  MOVWF  x12
04CE6:  MOVLW  02
04CE8:  MOVWF  x13
04CEA:  MOVLB  0
04CEC:  CALL   1A52
....................          displayTiempo(Prog,68,0,1,2); 
04CF0:  MOVFF  909,90A
04CF4:  MOVLW  44
04CF6:  MOVLB  9
04CF8:  MOVWF  x0B
04CFA:  CLRF   x0C
04CFC:  MOVLW  01
04CFE:  MOVWF  x0D
04D00:  MOVLW  02
04D02:  MOVWF  x0E
04D04:  MOVLB  0
04D06:  CALL   3FCC
....................           
....................          strcpy(Menus.Letra,"Segmento "); 
04D0A:  MOVLW  08
04D0C:  MOVWF  FEA
04D0E:  MOVLW  E7
04D10:  MOVWF  FE9
04D12:  MOVFF  FF2,90A
04D16:  BCF    FF2.7
04D18:  MOVLW  00
04D1A:  CALL   0714
04D1E:  TBLRD*-
04D20:  TBLRD*+
04D22:  MOVF   FF5,W
04D24:  MOVWF  FEE
04D26:  IORLW  00
04D28:  BNZ   4D20
04D2A:  MOVLB  9
04D2C:  BTFSC  x0A.7
04D2E:  BSF    FF2.7
....................          displayMenu(Menus.Letra,0,20,1,1); 
04D30:  MOVLW  08
04D32:  MOVWF  x0F
04D34:  MOVLW  E7
04D36:  MOVWF  x0E
04D38:  CLRF   x10
04D3A:  MOVLW  14
04D3C:  MOVWF  x11
04D3E:  MOVLW  01
04D40:  MOVWF  x12
04D42:  MOVWF  x13
04D44:  MOVLB  0
04D46:  CALL   1A52
....................          displayTiempo(l,63,20,1,1); 
04D4A:  MOVFF  908,90A
04D4E:  MOVLW  3F
04D50:  MOVLB  9
04D52:  MOVWF  x0B
04D54:  MOVLW  14
04D56:  MOVWF  x0C
04D58:  MOVLW  01
04D5A:  MOVWF  x0D
04D5C:  MOVWF  x0E
04D5E:  MOVLB  0
04D60:  CALL   3FCC
....................           
....................          strcpy(Menus.Letra,"TA:"); 
04D64:  MOVLW  08
04D66:  MOVWF  FEA
04D68:  MOVLW  E7
04D6A:  MOVWF  FE9
04D6C:  MOVFF  FF2,90A
04D70:  BCF    FF2.7
04D72:  MOVLW  00
04D74:  CALL   073C
04D78:  TBLRD*-
04D7A:  TBLRD*+
04D7C:  MOVF   FF5,W
04D7E:  MOVWF  FEE
04D80:  IORLW  00
04D82:  BNZ   4D7A
04D84:  MOVLB  9
04D86:  BTFSC  x0A.7
04D88:  BSF    FF2.7
....................          displayMenu(Menus.Letra,80,20,3,1); 
04D8A:  MOVLW  08
04D8C:  MOVWF  x0F
04D8E:  MOVLW  E7
04D90:  MOVWF  x0E
04D92:  MOVLW  50
04D94:  MOVWF  x10
04D96:  MOVLW  14
04D98:  MOVWF  x11
04D9A:  MOVLW  03
04D9C:  MOVWF  x12
04D9E:  MOVLW  01
04DA0:  MOVWF  x13
04DA2:  MOVLB  0
04DA4:  CALL   1A52
....................           
....................          if(l>0) 
04DA8:  MOVLB  9
04DAA:  MOVF   x08,F
04DAC:  BZ    4DFA
....................             displayTemperatura(Temperatura1[l-1+((Prog-1)*Pasos)],100,20,1,1); 
04DAE:  MOVLW  01
04DB0:  SUBWF  x08,W
04DB2:  MOVWF  x0A
04DB4:  MOVLW  01
04DB6:  SUBWF  x09,W
04DB8:  MULLW  10
04DBA:  MOVF   FF3,W
04DBC:  ADDWF  x0A,W
04DBE:  MOVWF  00
04DC0:  BCF    FD8.0
04DC2:  RLCF   00,F
04DC4:  MOVF   00,W
04DC6:  CLRF   03
04DC8:  ADDLW  07
04DCA:  MOVWF  FE9
04DCC:  MOVLW  07
04DCE:  ADDWFC 03,W
04DD0:  MOVWF  FEA
04DD2:  MOVFF  FEC,90B
04DD6:  MOVF   FED,F
04DD8:  MOVFF  FEF,90A
04DDC:  MOVFF  90B,90D
04DE0:  MOVFF  90A,90C
04DE4:  MOVLW  64
04DE6:  MOVWF  x0E
04DE8:  MOVLW  14
04DEA:  MOVWF  x0F
04DEC:  MOVLW  01
04DEE:  MOVWF  x10
04DF0:  MOVWF  x11
04DF2:  MOVLB  0
04DF4:  CALL   43BA
04DF8:  MOVLB  9
....................           
....................          if(Opcio==1){ 
04DFA:  DECFSZ x07,W
04DFC:  BRA    51EC
....................             strcpy(Menus.Letra,"Temperatura:"); 
04DFE:  MOVLW  08
04E00:  MOVWF  FEA
04E02:  MOVLW  E7
04E04:  MOVWF  FE9
04E06:  MOVFF  FF2,90A
04E0A:  BCF    FF2.7
04E0C:  MOVLW  00
04E0E:  MOVLB  0
04E10:  CALL   075E
04E14:  TBLRD*-
04E16:  TBLRD*+
04E18:  MOVF   FF5,W
04E1A:  MOVWF  FEE
04E1C:  IORLW  00
04E1E:  BNZ   4E16
04E20:  MOVLB  9
04E22:  BTFSC  x0A.7
04E24:  BSF    FF2.7
....................             displayTemps(Menus.Letra,Temperatura1[l+((Prog-1)*Pasos)],0,32,1,1); 
04E26:  MOVLW  01
04E28:  SUBWF  x09,W
04E2A:  MULLW  10
04E2C:  MOVF   FF3,W
04E2E:  ADDWF  x08,W
04E30:  MOVWF  00
04E32:  BCF    FD8.0
04E34:  RLCF   00,F
04E36:  MOVF   00,W
04E38:  CLRF   03
04E3A:  ADDLW  07
04E3C:  MOVWF  FE9
04E3E:  MOVLW  07
04E40:  ADDWFC 03,W
04E42:  MOVWF  FEA
04E44:  MOVFF  FEC,90B
04E48:  MOVF   FED,F
04E4A:  MOVFF  FEF,90A
04E4E:  MOVLW  08
04E50:  MOVWF  x0D
04E52:  MOVLW  E7
04E54:  MOVWF  x0C
04E56:  MOVFF  90B,90F
04E5A:  MOVFF  90A,90E
04E5E:  CLRF   x10
04E60:  MOVLW  20
04E62:  MOVWF  x11
04E64:  MOVLW  01
04E66:  MOVWF  x12
04E68:  MOVWF  x13
04E6A:  MOVLB  0
04E6C:  RCALL  479C
....................             strcpy(Menus.Letra,"Horas:"); 
04E6E:  MOVLW  08
04E70:  MOVWF  FEA
04E72:  MOVLW  E7
04E74:  MOVWF  FE9
04E76:  MOVFF  FF2,90A
04E7A:  BCF    FF2.7
04E7C:  MOVLW  00
04E7E:  CALL   078A
04E82:  TBLRD*-
04E84:  TBLRD*+
04E86:  MOVF   FF5,W
04E88:  MOVWF  FEE
04E8A:  IORLW  00
04E8C:  BNZ   4E84
04E8E:  MOVLB  9
04E90:  BTFSC  x0A.7
04E92:  BSF    FF2.7
....................             displayTemps(Menus.Letra,Horas1[l+((Prog-1)*Pasos)],0,44,10,1); 
04E94:  MOVLW  01
04E96:  SUBWF  x09,W
04E98:  MULLW  10
04E9A:  MOVF   FF3,W
04E9C:  ADDWF  x08,W
04E9E:  MOVWF  00
04EA0:  BCF    FD8.0
04EA2:  RLCF   00,F
04EA4:  MOVF   00,W
04EA6:  CLRF   03
04EA8:  ADDLW  A7
04EAA:  MOVWF  FE9
04EAC:  MOVLW  07
04EAE:  ADDWFC 03,W
04EB0:  MOVWF  FEA
04EB2:  MOVFF  FEC,90B
04EB6:  MOVF   FED,F
04EB8:  MOVFF  FEF,90A
04EBC:  MOVLW  08
04EBE:  MOVWF  x0D
04EC0:  MOVLW  E7
04EC2:  MOVWF  x0C
04EC4:  MOVFF  90B,90F
04EC8:  MOVFF  90A,90E
04ECC:  CLRF   x10
04ECE:  MOVLW  2C
04ED0:  MOVWF  x11
04ED2:  MOVLW  0A
04ED4:  MOVWF  x12
04ED6:  MOVLW  01
04ED8:  MOVWF  x13
04EDA:  MOVLB  0
04EDC:  RCALL  479C
....................             strcpy(Menus.Letra,"Minutos:"); 
04EDE:  MOVLW  08
04EE0:  MOVWF  FEA
04EE2:  MOVLW  E7
04EE4:  MOVWF  FE9
04EE6:  MOVFF  FF2,90A
04EEA:  BCF    FF2.7
04EEC:  MOVLW  00
04EEE:  CALL   07B0
04EF2:  TBLRD*-
04EF4:  TBLRD*+
04EF6:  MOVF   FF5,W
04EF8:  MOVWF  FEE
04EFA:  IORLW  00
04EFC:  BNZ   4EF4
04EFE:  MOVLB  9
04F00:  BTFSC  x0A.7
04F02:  BSF    FF2.7
....................             displayTemps(Menus.Letra,Minutos1[l+((Prog-1)*Pasos)],0,55,10,1); 
04F04:  MOVLW  01
04F06:  SUBWF  x09,W
04F08:  MULLW  10
04F0A:  MOVF   FF3,W
04F0C:  ADDWF  x08,W
04F0E:  MOVWF  00
04F10:  BCF    FD8.0
04F12:  RLCF   00,F
04F14:  MOVF   00,W
04F16:  CLRF   03
04F18:  ADDLW  47
04F1A:  MOVWF  FE9
04F1C:  MOVLW  08
04F1E:  ADDWFC 03,W
04F20:  MOVWF  FEA
04F22:  MOVFF  FEC,90B
04F26:  MOVF   FED,F
04F28:  MOVFF  FEF,90A
04F2C:  MOVLW  08
04F2E:  MOVWF  x0D
04F30:  MOVLW  E7
04F32:  MOVWF  x0C
04F34:  MOVFF  90B,90F
04F38:  MOVFF  90A,90E
04F3C:  CLRF   x10
04F3E:  MOVLW  37
04F40:  MOVWF  x11
04F42:  MOVLW  0A
04F44:  MOVWF  x12
04F46:  MOVLW  01
04F48:  MOVWF  x13
04F4A:  MOVLB  0
04F4C:  RCALL  479C
....................             if(UP)//Si oprime hacia arriba 
04F4E:  BSF    F92.5
04F50:  BTFSC  F80.5
04F52:  BRA    509C
....................             { 
....................                Buzz_on;delay_ms(10);Buzz_off; 
04F54:  BSF    F8B.5
04F56:  BCF    F94.5
04F58:  MOVLW  0A
04F5A:  MOVLB  9
04F5C:  MOVWF  x1D
04F5E:  MOVLB  0
04F60:  CALL   13A4
04F64:  BCF    F8B.5
04F66:  BCF    F94.5
....................                if(tiempoup<4){ 
04F68:  MOVLB  6
04F6A:  MOVF   x2B,W
04F6C:  SUBLW  03
04F6E:  BNC   4F9E
....................                   flagup=1; 
04F70:  BSF    x22.0
....................                   Temperatura1[l+((Prog-1)*Pasos)]++; 
04F72:  MOVLW  01
04F74:  MOVLB  9
04F76:  SUBWF  x09,W
04F78:  MULLW  10
04F7A:  MOVF   FF3,W
04F7C:  ADDWF  x08,W
04F7E:  MOVWF  00
04F80:  BCF    FD8.0
04F82:  RLCF   00,F
04F84:  MOVF   00,W
04F86:  CLRF   03
04F88:  ADDLW  07
04F8A:  MOVWF  FE9
04F8C:  MOVLW  07
04F8E:  ADDWFC 03,W
04F90:  MOVWF  FEA
04F92:  MOVLW  01
04F94:  ADDWF  FEE,F
04F96:  BNC   4F9A
04F98:  INCF   FEF,F
....................                } 
....................                else{ 
04F9A:  BRA    4FD2
04F9C:  MOVLB  6
....................                   flagup=0; 
04F9E:  BCF    x22.0
....................                   Temperatura1[l+((Prog-1)*Pasos)]+=10; 
04FA0:  MOVLW  01
04FA2:  MOVLB  9
04FA4:  SUBWF  x09,W
04FA6:  MULLW  10
04FA8:  MOVF   FF3,W
04FAA:  ADDWF  x08,W
04FAC:  MOVWF  00
04FAE:  BCF    FD8.0
04FB0:  RLCF   00,F
04FB2:  MOVF   00,W
04FB4:  CLRF   03
04FB6:  ADDLW  07
04FB8:  MOVWF  FE9
04FBA:  MOVLW  07
04FBC:  ADDWFC 03,W
04FBE:  MOVWF  FEA
04FC0:  MOVLW  0A
04FC2:  ADDWF  FEF,W
04FC4:  MOVWF  01
04FC6:  MOVLW  00
04FC8:  ADDWFC FEC,W
04FCA:  MOVF   FED,F
04FCC:  MOVFF  01,FEF
04FD0:  MOVWF  FEC
....................                }  
....................                if(l<Pasos-1) 
04FD2:  MOVF   x08,W
04FD4:  SUBLW  0E
04FD6:  BNC   5038
....................                   Temperatura1[l+1+((Prog-1)*Pasos)]=Temperatura1[l+((Prog-1)*Pasos)];  
04FD8:  MOVLW  01
04FDA:  ADDWF  x08,W
04FDC:  MOVWF  x0A
04FDE:  MOVLW  01
04FE0:  SUBWF  x09,W
04FE2:  MULLW  10
04FE4:  MOVF   FF3,W
04FE6:  ADDWF  x0A,W
04FE8:  MOVWF  00
04FEA:  BCF    FD8.0
04FEC:  RLCF   00,F
04FEE:  MOVF   00,W
04FF0:  CLRF   03
04FF2:  ADDLW  07
04FF4:  MOVWF  01
04FF6:  MOVLW  07
04FF8:  ADDWFC 03,F
04FFA:  MOVFF  03,90B
04FFE:  MOVLW  01
05000:  SUBWF  x09,W
05002:  MULLW  10
05004:  MOVF   FF3,W
05006:  ADDWF  x08,W
05008:  MOVWF  00
0500A:  BCF    FD8.0
0500C:  RLCF   00,F
0500E:  MOVF   00,W
05010:  CLRF   03
05012:  ADDLW  07
05014:  MOVWF  FE9
05016:  MOVLW  07
05018:  ADDWFC 03,W
0501A:  MOVWF  FEA
0501C:  MOVFF  FEC,03
05020:  MOVF   FED,F
05022:  MOVFF  FEF,90C
05026:  MOVFF  90B,FEA
0502A:  MOVFF  01,FE9
0502E:  MOVFF  03,FEC
05032:  MOVF   FED,F
05034:  MOVFF  90C,FEF
....................                    
....................                if(Temperatura1[l+((Prog-1)*Pasos)]>1200) 
05038:  MOVLW  01
0503A:  SUBWF  x09,W
0503C:  MULLW  10
0503E:  MOVF   FF3,W
05040:  ADDWF  x08,W
05042:  MOVWF  00
05044:  BCF    FD8.0
05046:  RLCF   00,F
05048:  MOVF   00,W
0504A:  CLRF   03
0504C:  ADDLW  07
0504E:  MOVWF  FE9
05050:  MOVLW  07
05052:  ADDWFC 03,W
05054:  MOVWF  FEA
05056:  MOVFF  FEC,90B
0505A:  MOVF   FED,F
0505C:  MOVFF  FEF,90A
05060:  BTFSC  x0B.7
05062:  BRA    5098
05064:  MOVF   x0B,W
05066:  SUBLW  03
05068:  BC    5098
0506A:  XORLW  FF
0506C:  BNZ   5074
0506E:  MOVF   x0A,W
05070:  SUBLW  B0
05072:  BC    5098
....................                   Temperatura1[l+((Prog-1)*Pasos)]=0; 
05074:  MOVLW  01
05076:  SUBWF  x09,W
05078:  MULLW  10
0507A:  MOVF   FF3,W
0507C:  ADDWF  x08,W
0507E:  MOVWF  00
05080:  BCF    FD8.0
05082:  RLCF   00,F
05084:  MOVF   00,W
05086:  CLRF   03
05088:  ADDLW  07
0508A:  MOVWF  FE9
0508C:  MOVLW  07
0508E:  ADDWFC 03,W
05090:  MOVWF  FEA
05092:  CLRF   FEC
05094:  MOVF   FED,F
05096:  CLRF   FEF
....................             } 
....................             else 
05098:  BRA    50A4
0509A:  MOVLB  0
....................             { 
....................                flagup=0;tiempoup=0; 
0509C:  MOVLB  6
0509E:  BCF    x22.0
050A0:  CLRF   x2B
050A2:  MOVLB  9
....................             } 
....................                       
....................             if(DOWN)//Si oprime hacia abajo 
050A4:  BSF    F96.0
050A6:  BTFSC  F84.0
050A8:  BRA    51E4
....................             { 
....................                Buzz_on;delay_ms(10);Buzz_off; 
050AA:  BSF    F8B.5
050AC:  BCF    F94.5
050AE:  MOVLW  0A
050B0:  MOVWF  x1D
050B2:  MOVLB  0
050B4:  CALL   13A4
050B8:  BCF    F8B.5
050BA:  BCF    F94.5
....................                if(tiempodn<4){ 
050BC:  MOVLB  6
050BE:  MOVF   x2C,W
050C0:  SUBLW  03
050C2:  BNC   50F4
....................                   flagdn=1; 
050C4:  BSF    x22.1
....................                   Temperatura1[l+((Prog-1)*Pasos)]--; 
050C6:  MOVLW  01
050C8:  MOVLB  9
050CA:  SUBWF  x09,W
050CC:  MULLW  10
050CE:  MOVF   FF3,W
050D0:  ADDWF  x08,W
050D2:  MOVWF  00
050D4:  BCF    FD8.0
050D6:  RLCF   00,F
050D8:  MOVF   00,W
050DA:  CLRF   03
050DC:  ADDLW  07
050DE:  MOVWF  FE9
050E0:  MOVLW  07
050E2:  ADDWFC 03,W
050E4:  MOVWF  FEA
050E6:  MOVLW  FF
050E8:  ADDWF  FEF,F
050EA:  BC    50F0
050EC:  MOVF   FEE,F
050EE:  DECF   FED,F
....................                } 
....................                else{ 
050F0:  BRA    512C
050F2:  MOVLB  6
....................                   flagdn=0; 
050F4:  BCF    x22.1
....................                   Temperatura1[l+((Prog-1)*Pasos)]-=10; 
050F6:  MOVLW  01
050F8:  MOVLB  9
050FA:  SUBWF  x09,W
050FC:  MULLW  10
050FE:  MOVF   FF3,W
05100:  ADDWF  x08,W
05102:  MOVWF  00
05104:  BCF    FD8.0
05106:  RLCF   00,F
05108:  MOVF   00,W
0510A:  CLRF   03
0510C:  ADDLW  07
0510E:  MOVWF  FE9
05110:  MOVLW  07
05112:  ADDWFC 03,W
05114:  MOVWF  FEA
05116:  MOVLW  0A
05118:  SUBWF  FEF,W
0511A:  MOVWF  00
0511C:  MOVLW  00
0511E:  SUBWFB FEC,W
05120:  MOVWF  03
05122:  MOVF   00,W
05124:  MOVF   FED,F
05126:  MOVWF  FEF
05128:  MOVFF  03,FEC
....................                } 
....................                Temperatura1[l+1+((Prog-1)*Pasos)]=Temperatura1[l+((Prog-1)*Pasos)];  
0512C:  MOVLW  01
0512E:  ADDWF  x08,W
05130:  MOVWF  x0A
05132:  MOVLW  01
05134:  SUBWF  x09,W
05136:  MULLW  10
05138:  MOVF   FF3,W
0513A:  ADDWF  x0A,W
0513C:  MOVWF  00
0513E:  BCF    FD8.0
05140:  RLCF   00,F
05142:  MOVF   00,W
05144:  CLRF   03
05146:  ADDLW  07
05148:  MOVWF  01
0514A:  MOVLW  07
0514C:  ADDWFC 03,F
0514E:  MOVFF  03,90B
05152:  MOVLW  01
05154:  SUBWF  x09,W
05156:  MULLW  10
05158:  MOVF   FF3,W
0515A:  ADDWF  x08,W
0515C:  MOVWF  00
0515E:  BCF    FD8.0
05160:  RLCF   00,F
05162:  MOVF   00,W
05164:  CLRF   03
05166:  ADDLW  07
05168:  MOVWF  FE9
0516A:  MOVLW  07
0516C:  ADDWFC 03,W
0516E:  MOVWF  FEA
05170:  MOVFF  FEC,03
05174:  MOVF   FED,F
05176:  MOVFF  FEF,90C
0517A:  MOVFF  90B,FEA
0517E:  MOVFF  01,FE9
05182:  MOVFF  03,FEC
05186:  MOVF   FED,F
05188:  MOVFF  90C,FEF
....................                 
....................                if(Temperatura1[l+((Prog-1)*Pasos)]<0) 
0518C:  MOVLW  01
0518E:  SUBWF  x09,W
05190:  MULLW  10
05192:  MOVF   FF3,W
05194:  ADDWF  x08,W
05196:  MOVWF  00
05198:  BCF    FD8.0
0519A:  RLCF   00,F
0519C:  MOVF   00,W
0519E:  CLRF   03
051A0:  ADDLW  07
051A2:  MOVWF  FE9
051A4:  MOVLW  07
051A6:  ADDWFC 03,W
051A8:  MOVWF  FEA
051AA:  MOVFF  FEC,90B
051AE:  MOVF   FED,F
051B0:  MOVFF  FEF,90A
051B4:  BTFSC  x0B.7
051B6:  BRA    51BA
051B8:  BRA    51E2
....................                   Temperatura1[l+((Prog-1)*Pasos)]=1200; 
051BA:  MOVLW  01
051BC:  SUBWF  x09,W
051BE:  MULLW  10
051C0:  MOVF   FF3,W
051C2:  ADDWF  x08,W
051C4:  MOVWF  00
051C6:  BCF    FD8.0
051C8:  RLCF   00,F
051CA:  MOVF   00,W
051CC:  CLRF   03
051CE:  ADDLW  07
051D0:  MOVWF  FE9
051D2:  MOVLW  07
051D4:  ADDWFC 03,W
051D6:  MOVWF  FEA
051D8:  MOVLW  04
051DA:  MOVWF  FEC
051DC:  MOVF   FED,F
051DE:  MOVLW  B0
051E0:  MOVWF  FEF
....................             } 
....................             else{ 
051E2:  BRA    51EC
....................                flagdn=0;tiempodn=0; 
051E4:  MOVLB  6
051E6:  BCF    x22.1
051E8:  CLRF   x2C
051EA:  MOVLB  9
....................             } 
....................          } 
....................           
....................          if(Opcio==2){ 
051EC:  MOVF   x07,W
051EE:  SUBLW  02
051F0:  BTFSS  FD8.2
051F2:  BRA    551A
....................             strcpy(Menus.Letra,"Temperatura:"); 
051F4:  MOVLW  08
051F6:  MOVWF  FEA
051F8:  MOVLW  E7
051FA:  MOVWF  FE9
051FC:  MOVFF  FF2,90A
05200:  BCF    FF2.7
05202:  MOVLW  00
05204:  MOVLB  0
05206:  CALL   075E
0520A:  TBLRD*-
0520C:  TBLRD*+
0520E:  MOVF   FF5,W
05210:  MOVWF  FEE
05212:  IORLW  00
05214:  BNZ   520C
05216:  MOVLB  9
05218:  BTFSC  x0A.7
0521A:  BSF    FF2.7
....................             displayTemps(Menus.Letra,Temperatura1[l+((Prog-1)*Pasos)],0,32,0,1); 
0521C:  MOVLW  01
0521E:  SUBWF  x09,W
05220:  MULLW  10
05222:  MOVF   FF3,W
05224:  ADDWF  x08,W
05226:  MOVWF  00
05228:  BCF    FD8.0
0522A:  RLCF   00,F
0522C:  MOVF   00,W
0522E:  CLRF   03
05230:  ADDLW  07
05232:  MOVWF  FE9
05234:  MOVLW  07
05236:  ADDWFC 03,W
05238:  MOVWF  FEA
0523A:  MOVFF  FEC,90B
0523E:  MOVF   FED,F
05240:  MOVFF  FEF,90A
05244:  MOVLW  08
05246:  MOVWF  x0D
05248:  MOVLW  E7
0524A:  MOVWF  x0C
0524C:  MOVFF  90B,90F
05250:  MOVFF  90A,90E
05254:  CLRF   x10
05256:  MOVLW  20
05258:  MOVWF  x11
0525A:  CLRF   x12
0525C:  MOVLW  01
0525E:  MOVWF  x13
05260:  MOVLB  0
05262:  CALL   479C
....................             strcpy(Menus.Letra,"Horas:"); 
05266:  MOVLW  08
05268:  MOVWF  FEA
0526A:  MOVLW  E7
0526C:  MOVWF  FE9
0526E:  MOVFF  FF2,90A
05272:  BCF    FF2.7
05274:  MOVLW  00
05276:  CALL   078A
0527A:  TBLRD*-
0527C:  TBLRD*+
0527E:  MOVF   FF5,W
05280:  MOVWF  FEE
05282:  IORLW  00
05284:  BNZ   527C
05286:  MOVLB  9
05288:  BTFSC  x0A.7
0528A:  BSF    FF2.7
....................             displayTemps(Menus.Letra,Horas1[l+((Prog-1)*Pasos)],0,44,11,1); 
0528C:  MOVLW  01
0528E:  SUBWF  x09,W
05290:  MULLW  10
05292:  MOVF   FF3,W
05294:  ADDWF  x08,W
05296:  MOVWF  00
05298:  BCF    FD8.0
0529A:  RLCF   00,F
0529C:  MOVF   00,W
0529E:  CLRF   03
052A0:  ADDLW  A7
052A2:  MOVWF  FE9
052A4:  MOVLW  07
052A6:  ADDWFC 03,W
052A8:  MOVWF  FEA
052AA:  MOVFF  FEC,90B
052AE:  MOVF   FED,F
052B0:  MOVFF  FEF,90A
052B4:  MOVLW  08
052B6:  MOVWF  x0D
052B8:  MOVLW  E7
052BA:  MOVWF  x0C
052BC:  MOVFF  90B,90F
052C0:  MOVFF  90A,90E
052C4:  CLRF   x10
052C6:  MOVLW  2C
052C8:  MOVWF  x11
052CA:  MOVLW  0B
052CC:  MOVWF  x12
052CE:  MOVLW  01
052D0:  MOVWF  x13
052D2:  MOVLB  0
052D4:  CALL   479C
....................             strcpy(Menus.Letra,"Minutos:"); 
052D8:  MOVLW  08
052DA:  MOVWF  FEA
052DC:  MOVLW  E7
052DE:  MOVWF  FE9
052E0:  MOVFF  FF2,90A
052E4:  BCF    FF2.7
052E6:  MOVLW  00
052E8:  CALL   07B0
052EC:  TBLRD*-
052EE:  TBLRD*+
052F0:  MOVF   FF5,W
052F2:  MOVWF  FEE
052F4:  IORLW  00
052F6:  BNZ   52EE
052F8:  MOVLB  9
052FA:  BTFSC  x0A.7
052FC:  BSF    FF2.7
....................             displayTemps(Menus.Letra,Minutos1[l+((Prog-1)*Pasos)],0,55,10,1); 
052FE:  MOVLW  01
05300:  SUBWF  x09,W
05302:  MULLW  10
05304:  MOVF   FF3,W
05306:  ADDWF  x08,W
05308:  MOVWF  00
0530A:  BCF    FD8.0
0530C:  RLCF   00,F
0530E:  MOVF   00,W
05310:  CLRF   03
05312:  ADDLW  47
05314:  MOVWF  FE9
05316:  MOVLW  08
05318:  ADDWFC 03,W
0531A:  MOVWF  FEA
0531C:  MOVFF  FEC,90B
05320:  MOVF   FED,F
05322:  MOVFF  FEF,90A
05326:  MOVLW  08
05328:  MOVWF  x0D
0532A:  MOVLW  E7
0532C:  MOVWF  x0C
0532E:  MOVFF  90B,90F
05332:  MOVFF  90A,90E
05336:  CLRF   x10
05338:  MOVLW  37
0533A:  MOVWF  x11
0533C:  MOVLW  0A
0533E:  MOVWF  x12
05340:  MOVLW  01
05342:  MOVWF  x13
05344:  MOVLB  0
05346:  CALL   479C
....................             if(UP)//Si oprime hacia arriba 
0534A:  BSF    F92.5
0534C:  BTFSC  F80.5
0534E:  BRA    542C
....................             { 
....................                Buzz_on;delay_ms(10);Buzz_off; 
05350:  BSF    F8B.5
05352:  BCF    F94.5
05354:  MOVLW  0A
05356:  MOVLB  9
05358:  MOVWF  x1D
0535A:  MOVLB  0
0535C:  CALL   13A4
05360:  BCF    F8B.5
05362:  BCF    F94.5
....................                if(tiempoup<4){ 
05364:  MOVLB  6
05366:  MOVF   x2B,W
05368:  SUBLW  03
0536A:  BNC   539A
....................                   flagup=1; 
0536C:  BSF    x22.0
....................                   Horas1[l+((Prog-1)*Pasos)]++; 
0536E:  MOVLW  01
05370:  MOVLB  9
05372:  SUBWF  x09,W
05374:  MULLW  10
05376:  MOVF   FF3,W
05378:  ADDWF  x08,W
0537A:  MOVWF  00
0537C:  BCF    FD8.0
0537E:  RLCF   00,F
05380:  MOVF   00,W
05382:  CLRF   03
05384:  ADDLW  A7
05386:  MOVWF  FE9
05388:  MOVLW  07
0538A:  ADDWFC 03,W
0538C:  MOVWF  FEA
0538E:  MOVLW  01
05390:  ADDWF  FEE,F
05392:  BNC   5396
05394:  INCF   FEF,F
....................                } 
....................                else{ 
05396:  BRA    53CE
05398:  MOVLB  6
....................                   flagup=0; 
0539A:  BCF    x22.0
....................                   Horas1[l+((Prog-1)*Pasos)]+=10; 
0539C:  MOVLW  01
0539E:  MOVLB  9
053A0:  SUBWF  x09,W
053A2:  MULLW  10
053A4:  MOVF   FF3,W
053A6:  ADDWF  x08,W
053A8:  MOVWF  00
053AA:  BCF    FD8.0
053AC:  RLCF   00,F
053AE:  MOVF   00,W
053B0:  CLRF   03
053B2:  ADDLW  A7
053B4:  MOVWF  FE9
053B6:  MOVLW  07
053B8:  ADDWFC 03,W
053BA:  MOVWF  FEA
053BC:  MOVLW  0A
053BE:  ADDWF  FEF,W
053C0:  MOVWF  01
053C2:  MOVLW  00
053C4:  ADDWFC FEC,W
053C6:  MOVF   FED,F
053C8:  MOVFF  01,FEF
053CC:  MOVWF  FEC
....................                } 
....................                if(Horas1[l+((Prog-1)*Pasos)]>99) 
053CE:  MOVLW  01
053D0:  SUBWF  x09,W
053D2:  MULLW  10
053D4:  MOVF   FF3,W
053D6:  ADDWF  x08,W
053D8:  MOVWF  00
053DA:  BCF    FD8.0
053DC:  RLCF   00,F
053DE:  MOVF   00,W
053E0:  CLRF   03
053E2:  ADDLW  A7
053E4:  MOVWF  FE9
053E6:  MOVLW  07
053E8:  ADDWFC 03,W
053EA:  MOVWF  FEA
053EC:  MOVFF  FEC,90B
053F0:  MOVF   FED,F
053F2:  MOVFF  FEF,90A
053F6:  BTFSC  x0B.7
053F8:  BRA    5428
053FA:  MOVF   x0B,F
053FC:  BNZ   5404
053FE:  MOVF   x0A,W
05400:  SUBLW  63
05402:  BC    5428
....................                   Horas1[l+((Prog-1)*Pasos)]=0; 
05404:  MOVLW  01
05406:  SUBWF  x09,W
05408:  MULLW  10
0540A:  MOVF   FF3,W
0540C:  ADDWF  x08,W
0540E:  MOVWF  00
05410:  BCF    FD8.0
05412:  RLCF   00,F
05414:  MOVF   00,W
05416:  CLRF   03
05418:  ADDLW  A7
0541A:  MOVWF  FE9
0541C:  MOVLW  07
0541E:  ADDWFC 03,W
05420:  MOVWF  FEA
05422:  CLRF   FEC
05424:  MOVF   FED,F
05426:  CLRF   FEF
....................             } 
....................             else{ 
05428:  BRA    5434
0542A:  MOVLB  0
....................                flagup=0;tiempoup=0; 
0542C:  MOVLB  6
0542E:  BCF    x22.0
05430:  CLRF   x2B
05432:  MOVLB  9
....................             } 
....................                       
....................             if(DOWN)//Si oprime hacia abajo 
05434:  BSF    F96.0
05436:  BTFSC  F84.0
05438:  BRA    5512
....................             { 
....................                Buzz_on;delay_ms(10);Buzz_off; 
0543A:  BSF    F8B.5
0543C:  BCF    F94.5
0543E:  MOVLW  0A
05440:  MOVWF  x1D
05442:  MOVLB  0
05444:  CALL   13A4
05448:  BCF    F8B.5
0544A:  BCF    F94.5
....................                if(tiempodn<4){ 
0544C:  MOVLB  6
0544E:  MOVF   x2C,W
05450:  SUBLW  03
05452:  BNC   5484
....................                   flagdn=1; 
05454:  BSF    x22.1
....................                   Horas1[l+((Prog-1)*Pasos)]--; 
05456:  MOVLW  01
05458:  MOVLB  9
0545A:  SUBWF  x09,W
0545C:  MULLW  10
0545E:  MOVF   FF3,W
05460:  ADDWF  x08,W
05462:  MOVWF  00
05464:  BCF    FD8.0
05466:  RLCF   00,F
05468:  MOVF   00,W
0546A:  CLRF   03
0546C:  ADDLW  A7
0546E:  MOVWF  FE9
05470:  MOVLW  07
05472:  ADDWFC 03,W
05474:  MOVWF  FEA
05476:  MOVLW  FF
05478:  ADDWF  FEF,F
0547A:  BC    5480
0547C:  MOVF   FEE,F
0547E:  DECF   FED,F
....................                } 
....................                else{ 
05480:  BRA    54BC
05482:  MOVLB  6
....................                   flagdn=0; 
05484:  BCF    x22.1
....................                   Horas1[l+((Prog-1)*Pasos)]-=10; 
05486:  MOVLW  01
05488:  MOVLB  9
0548A:  SUBWF  x09,W
0548C:  MULLW  10
0548E:  MOVF   FF3,W
05490:  ADDWF  x08,W
05492:  MOVWF  00
05494:  BCF    FD8.0
05496:  RLCF   00,F
05498:  MOVF   00,W
0549A:  CLRF   03
0549C:  ADDLW  A7
0549E:  MOVWF  FE9
054A0:  MOVLW  07
054A2:  ADDWFC 03,W
054A4:  MOVWF  FEA
054A6:  MOVLW  0A
054A8:  SUBWF  FEF,W
054AA:  MOVWF  00
054AC:  MOVLW  00
054AE:  SUBWFB FEC,W
054B0:  MOVWF  03
054B2:  MOVF   00,W
054B4:  MOVF   FED,F
054B6:  MOVWF  FEF
054B8:  MOVFF  03,FEC
....................                } 
....................                if(Horas1[l+((Prog-1)*Pasos)]<0) 
054BC:  MOVLW  01
054BE:  SUBWF  x09,W
054C0:  MULLW  10
054C2:  MOVF   FF3,W
054C4:  ADDWF  x08,W
054C6:  MOVWF  00
054C8:  BCF    FD8.0
054CA:  RLCF   00,F
054CC:  MOVF   00,W
054CE:  CLRF   03
054D0:  ADDLW  A7
054D2:  MOVWF  FE9
054D4:  MOVLW  07
054D6:  ADDWFC 03,W
054D8:  MOVWF  FEA
054DA:  MOVFF  FEC,90B
054DE:  MOVF   FED,F
054E0:  MOVFF  FEF,90A
054E4:  BTFSC  x0B.7
054E6:  BRA    54EA
054E8:  BRA    5510
....................                   Horas1[l+((Prog-1)*Pasos)]=99; 
054EA:  MOVLW  01
054EC:  SUBWF  x09,W
054EE:  MULLW  10
054F0:  MOVF   FF3,W
054F2:  ADDWF  x08,W
054F4:  MOVWF  00
054F6:  BCF    FD8.0
054F8:  RLCF   00,F
054FA:  MOVF   00,W
054FC:  CLRF   03
054FE:  ADDLW  A7
05500:  MOVWF  FE9
05502:  MOVLW  07
05504:  ADDWFC 03,W
05506:  MOVWF  FEA
05508:  CLRF   FEC
0550A:  MOVF   FED,F
0550C:  MOVLW  63
0550E:  MOVWF  FEF
....................             } 
....................             else{ 
05510:  BRA    551A
....................                flagdn=0;tiempodn=0; 
05512:  MOVLB  6
05514:  BCF    x22.1
05516:  CLRF   x2C
05518:  MOVLB  9
....................             } 
....................          } 
....................           
....................          if(Opcio==3){ 
0551A:  MOVF   x07,W
0551C:  SUBLW  03
0551E:  BTFSS  FD8.2
05520:  BRA    5848
....................             strcpy(Menus.Letra,"Temperatura:"); 
05522:  MOVLW  08
05524:  MOVWF  FEA
05526:  MOVLW  E7
05528:  MOVWF  FE9
0552A:  MOVFF  FF2,90A
0552E:  BCF    FF2.7
05530:  MOVLW  00
05532:  MOVLB  0
05534:  CALL   075E
05538:  TBLRD*-
0553A:  TBLRD*+
0553C:  MOVF   FF5,W
0553E:  MOVWF  FEE
05540:  IORLW  00
05542:  BNZ   553A
05544:  MOVLB  9
05546:  BTFSC  x0A.7
05548:  BSF    FF2.7
....................             displayTemps(Menus.Letra,Temperatura1[l+((Prog-1)*Pasos)],0,32,0,1); 
0554A:  MOVLW  01
0554C:  SUBWF  x09,W
0554E:  MULLW  10
05550:  MOVF   FF3,W
05552:  ADDWF  x08,W
05554:  MOVWF  00
05556:  BCF    FD8.0
05558:  RLCF   00,F
0555A:  MOVF   00,W
0555C:  CLRF   03
0555E:  ADDLW  07
05560:  MOVWF  FE9
05562:  MOVLW  07
05564:  ADDWFC 03,W
05566:  MOVWF  FEA
05568:  MOVFF  FEC,90B
0556C:  MOVF   FED,F
0556E:  MOVFF  FEF,90A
05572:  MOVLW  08
05574:  MOVWF  x0D
05576:  MOVLW  E7
05578:  MOVWF  x0C
0557A:  MOVFF  90B,90F
0557E:  MOVFF  90A,90E
05582:  CLRF   x10
05584:  MOVLW  20
05586:  MOVWF  x11
05588:  CLRF   x12
0558A:  MOVLW  01
0558C:  MOVWF  x13
0558E:  MOVLB  0
05590:  CALL   479C
....................             strcpy(Menus.Letra,"Horas:"); 
05594:  MOVLW  08
05596:  MOVWF  FEA
05598:  MOVLW  E7
0559A:  MOVWF  FE9
0559C:  MOVFF  FF2,90A
055A0:  BCF    FF2.7
055A2:  MOVLW  00
055A4:  CALL   078A
055A8:  TBLRD*-
055AA:  TBLRD*+
055AC:  MOVF   FF5,W
055AE:  MOVWF  FEE
055B0:  IORLW  00
055B2:  BNZ   55AA
055B4:  MOVLB  9
055B6:  BTFSC  x0A.7
055B8:  BSF    FF2.7
....................             displayTemps(Menus.Letra,Horas1[l+((Prog-1)*Pasos)],0,44,10,1); 
055BA:  MOVLW  01
055BC:  SUBWF  x09,W
055BE:  MULLW  10
055C0:  MOVF   FF3,W
055C2:  ADDWF  x08,W
055C4:  MOVWF  00
055C6:  BCF    FD8.0
055C8:  RLCF   00,F
055CA:  MOVF   00,W
055CC:  CLRF   03
055CE:  ADDLW  A7
055D0:  MOVWF  FE9
055D2:  MOVLW  07
055D4:  ADDWFC 03,W
055D6:  MOVWF  FEA
055D8:  MOVFF  FEC,90B
055DC:  MOVF   FED,F
055DE:  MOVFF  FEF,90A
055E2:  MOVLW  08
055E4:  MOVWF  x0D
055E6:  MOVLW  E7
055E8:  MOVWF  x0C
055EA:  MOVFF  90B,90F
055EE:  MOVFF  90A,90E
055F2:  CLRF   x10
055F4:  MOVLW  2C
055F6:  MOVWF  x11
055F8:  MOVLW  0A
055FA:  MOVWF  x12
055FC:  MOVLW  01
055FE:  MOVWF  x13
05600:  MOVLB  0
05602:  CALL   479C
....................             strcpy(Menus.Letra,"Minutos:"); 
05606:  MOVLW  08
05608:  MOVWF  FEA
0560A:  MOVLW  E7
0560C:  MOVWF  FE9
0560E:  MOVFF  FF2,90A
05612:  BCF    FF2.7
05614:  MOVLW  00
05616:  CALL   07B0
0561A:  TBLRD*-
0561C:  TBLRD*+
0561E:  MOVF   FF5,W
05620:  MOVWF  FEE
05622:  IORLW  00
05624:  BNZ   561C
05626:  MOVLB  9
05628:  BTFSC  x0A.7
0562A:  BSF    FF2.7
....................             displayTemps(Menus.Letra,Minutos1[l+((Prog-1)*Pasos)],0,55,11,1); 
0562C:  MOVLW  01
0562E:  SUBWF  x09,W
05630:  MULLW  10
05632:  MOVF   FF3,W
05634:  ADDWF  x08,W
05636:  MOVWF  00
05638:  BCF    FD8.0
0563A:  RLCF   00,F
0563C:  MOVF   00,W
0563E:  CLRF   03
05640:  ADDLW  47
05642:  MOVWF  FE9
05644:  MOVLW  08
05646:  ADDWFC 03,W
05648:  MOVWF  FEA
0564A:  MOVFF  FEC,90B
0564E:  MOVF   FED,F
05650:  MOVFF  FEF,90A
05654:  MOVLW  08
05656:  MOVWF  x0D
05658:  MOVLW  E7
0565A:  MOVWF  x0C
0565C:  MOVFF  90B,90F
05660:  MOVFF  90A,90E
05664:  CLRF   x10
05666:  MOVLW  37
05668:  MOVWF  x11
0566A:  MOVLW  0B
0566C:  MOVWF  x12
0566E:  MOVLW  01
05670:  MOVWF  x13
05672:  MOVLB  0
05674:  CALL   479C
....................             if(UP)//Si oprime hacia arriba 
05678:  BSF    F92.5
0567A:  BTFSC  F80.5
0567C:  BRA    575A
....................             { 
....................                Buzz_on;delay_ms(10);Buzz_off; 
0567E:  BSF    F8B.5
05680:  BCF    F94.5
05682:  MOVLW  0A
05684:  MOVLB  9
05686:  MOVWF  x1D
05688:  MOVLB  0
0568A:  CALL   13A4
0568E:  BCF    F8B.5
05690:  BCF    F94.5
....................                if(tiempoup<4){ 
05692:  MOVLB  6
05694:  MOVF   x2B,W
05696:  SUBLW  03
05698:  BNC   56C8
....................                   flagup=1; 
0569A:  BSF    x22.0
....................                   Minutos1[l+((Prog-1)*Pasos)]++; 
0569C:  MOVLW  01
0569E:  MOVLB  9
056A0:  SUBWF  x09,W
056A2:  MULLW  10
056A4:  MOVF   FF3,W
056A6:  ADDWF  x08,W
056A8:  MOVWF  00
056AA:  BCF    FD8.0
056AC:  RLCF   00,F
056AE:  MOVF   00,W
056B0:  CLRF   03
056B2:  ADDLW  47
056B4:  MOVWF  FE9
056B6:  MOVLW  08
056B8:  ADDWFC 03,W
056BA:  MOVWF  FEA
056BC:  MOVLW  01
056BE:  ADDWF  FEE,F
056C0:  BNC   56C4
056C2:  INCF   FEF,F
....................                }   
....................                else{ 
056C4:  BRA    56FC
056C6:  MOVLB  6
....................                   flagup=0; 
056C8:  BCF    x22.0
....................                   Minutos1[l+((Prog-1)*Pasos)]+=10; 
056CA:  MOVLW  01
056CC:  MOVLB  9
056CE:  SUBWF  x09,W
056D0:  MULLW  10
056D2:  MOVF   FF3,W
056D4:  ADDWF  x08,W
056D6:  MOVWF  00
056D8:  BCF    FD8.0
056DA:  RLCF   00,F
056DC:  MOVF   00,W
056DE:  CLRF   03
056E0:  ADDLW  47
056E2:  MOVWF  FE9
056E4:  MOVLW  08
056E6:  ADDWFC 03,W
056E8:  MOVWF  FEA
056EA:  MOVLW  0A
056EC:  ADDWF  FEF,W
056EE:  MOVWF  01
056F0:  MOVLW  00
056F2:  ADDWFC FEC,W
056F4:  MOVF   FED,F
056F6:  MOVFF  01,FEF
056FA:  MOVWF  FEC
....................                } 
....................                if(Minutos1[l+((Prog-1)*Pasos)]>59) 
056FC:  MOVLW  01
056FE:  SUBWF  x09,W
05700:  MULLW  10
05702:  MOVF   FF3,W
05704:  ADDWF  x08,W
05706:  MOVWF  00
05708:  BCF    FD8.0
0570A:  RLCF   00,F
0570C:  MOVF   00,W
0570E:  CLRF   03
05710:  ADDLW  47
05712:  MOVWF  FE9
05714:  MOVLW  08
05716:  ADDWFC 03,W
05718:  MOVWF  FEA
0571A:  MOVFF  FEC,90B
0571E:  MOVF   FED,F
05720:  MOVFF  FEF,90A
05724:  BTFSC  x0B.7
05726:  BRA    5756
05728:  MOVF   x0B,F
0572A:  BNZ   5732
0572C:  MOVF   x0A,W
0572E:  SUBLW  3B
05730:  BC    5756
....................                   Minutos1[l+((Prog-1)*Pasos)]=0; 
05732:  MOVLW  01
05734:  SUBWF  x09,W
05736:  MULLW  10
05738:  MOVF   FF3,W
0573A:  ADDWF  x08,W
0573C:  MOVWF  00
0573E:  BCF    FD8.0
05740:  RLCF   00,F
05742:  MOVF   00,W
05744:  CLRF   03
05746:  ADDLW  47
05748:  MOVWF  FE9
0574A:  MOVLW  08
0574C:  ADDWFC 03,W
0574E:  MOVWF  FEA
05750:  CLRF   FEC
05752:  MOVF   FED,F
05754:  CLRF   FEF
....................             } 
....................             else{ 
05756:  BRA    5762
05758:  MOVLB  0
....................                flagup=0;tiempoup=0; 
0575A:  MOVLB  6
0575C:  BCF    x22.0
0575E:  CLRF   x2B
05760:  MOVLB  9
....................             } 
....................                       
....................             if(DOWN)//Si oprime hacia abajo 
05762:  BSF    F96.0
05764:  BTFSC  F84.0
05766:  BRA    5840
....................             { 
....................                Buzz_on;delay_ms(10);Buzz_off; 
05768:  BSF    F8B.5
0576A:  BCF    F94.5
0576C:  MOVLW  0A
0576E:  MOVWF  x1D
05770:  MOVLB  0
05772:  CALL   13A4
05776:  BCF    F8B.5
05778:  BCF    F94.5
....................                if(tiempodn<4){ 
0577A:  MOVLB  6
0577C:  MOVF   x2C,W
0577E:  SUBLW  03
05780:  BNC   57B2
....................                   flagdn=1; 
05782:  BSF    x22.1
....................                   Minutos1[l+((Prog-1)*Pasos)]--; 
05784:  MOVLW  01
05786:  MOVLB  9
05788:  SUBWF  x09,W
0578A:  MULLW  10
0578C:  MOVF   FF3,W
0578E:  ADDWF  x08,W
05790:  MOVWF  00
05792:  BCF    FD8.0
05794:  RLCF   00,F
05796:  MOVF   00,W
05798:  CLRF   03
0579A:  ADDLW  47
0579C:  MOVWF  FE9
0579E:  MOVLW  08
057A0:  ADDWFC 03,W
057A2:  MOVWF  FEA
057A4:  MOVLW  FF
057A6:  ADDWF  FEF,F
057A8:  BC    57AE
057AA:  MOVF   FEE,F
057AC:  DECF   FED,F
....................                } 
....................                else{ 
057AE:  BRA    57EA
057B0:  MOVLB  6
....................                   flagdn=0; 
057B2:  BCF    x22.1
....................                   Minutos1[l+((Prog-1)*Pasos)]-=10; 
057B4:  MOVLW  01
057B6:  MOVLB  9
057B8:  SUBWF  x09,W
057BA:  MULLW  10
057BC:  MOVF   FF3,W
057BE:  ADDWF  x08,W
057C0:  MOVWF  00
057C2:  BCF    FD8.0
057C4:  RLCF   00,F
057C6:  MOVF   00,W
057C8:  CLRF   03
057CA:  ADDLW  47
057CC:  MOVWF  FE9
057CE:  MOVLW  08
057D0:  ADDWFC 03,W
057D2:  MOVWF  FEA
057D4:  MOVLW  0A
057D6:  SUBWF  FEF,W
057D8:  MOVWF  00
057DA:  MOVLW  00
057DC:  SUBWFB FEC,W
057DE:  MOVWF  03
057E0:  MOVF   00,W
057E2:  MOVF   FED,F
057E4:  MOVWF  FEF
057E6:  MOVFF  03,FEC
....................                } 
....................                if(Minutos1[l+((Prog-1)*Pasos)]<0) 
057EA:  MOVLW  01
057EC:  SUBWF  x09,W
057EE:  MULLW  10
057F0:  MOVF   FF3,W
057F2:  ADDWF  x08,W
057F4:  MOVWF  00
057F6:  BCF    FD8.0
057F8:  RLCF   00,F
057FA:  MOVF   00,W
057FC:  CLRF   03
057FE:  ADDLW  47
05800:  MOVWF  FE9
05802:  MOVLW  08
05804:  ADDWFC 03,W
05806:  MOVWF  FEA
05808:  MOVFF  FEC,90B
0580C:  MOVF   FED,F
0580E:  MOVFF  FEF,90A
05812:  BTFSC  x0B.7
05814:  BRA    5818
05816:  BRA    583E
....................                   Minutos1[l+((Prog-1)*Pasos)]=59; 
05818:  MOVLW  01
0581A:  SUBWF  x09,W
0581C:  MULLW  10
0581E:  MOVF   FF3,W
05820:  ADDWF  x08,W
05822:  MOVWF  00
05824:  BCF    FD8.0
05826:  RLCF   00,F
05828:  MOVF   00,W
0582A:  CLRF   03
0582C:  ADDLW  47
0582E:  MOVWF  FE9
05830:  MOVLW  08
05832:  ADDWFC 03,W
05834:  MOVWF  FEA
05836:  CLRF   FEC
05838:  MOVF   FED,F
0583A:  MOVLW  3B
0583C:  MOVWF  FEF
....................             } 
....................             else{ 
0583E:  BRA    5848
....................                flagdn=0;tiempodn=0; 
05840:  MOVLB  6
05842:  BCF    x22.1
05844:  CLRF   x2C
05846:  MOVLB  9
....................             } 
....................          } 
.................... } 
05848:  MOVLB  0
0584A:  GOTO   9BF8 (RETURN)
....................  
.................... int8 extraeDecimal(float data){ 
*
06F32:  MOVLB  9
06F34:  CLRF   x0E
06F36:  CLRF   x0D
06F38:  CLRF   x0C
06F3A:  CLRF   x0B
06F3C:  CLRF   x12
06F3E:  CLRF   x11
06F40:  CLRF   x10
06F42:  CLRF   x0F
....................    float entero=0; 
....................    float tmp=0.0; 
....................     
....................    entero=(int8)data; 
06F44:  MOVFF  90A,916
06F48:  MOVFF  909,915
06F4C:  MOVFF  908,914
06F50:  MOVFF  907,913
06F54:  MOVLB  0
06F56:  CALL   37CA
06F5A:  MOVLB  9
06F5C:  CLRF   x1E
06F5E:  MOVFF  01,91D
06F62:  MOVLB  0
06F64:  CALL   1D5A
06F68:  MOVFF  03,90E
06F6C:  MOVFF  02,90D
06F70:  MOVFF  01,90C
06F74:  MOVFF  00,90B
....................    tmp=(data-entero)*100; 
06F78:  BSF    FD8.1
06F7A:  MOVFF  90A,91D
06F7E:  MOVFF  909,91C
06F82:  MOVFF  908,91B
06F86:  MOVFF  907,91A
06F8A:  MOVFF  90E,921
06F8E:  MOVFF  90D,920
06F92:  MOVFF  90C,91F
06F96:  MOVFF  90B,91E
06F9A:  CALL   1F68
06F9E:  MOVFF  00,913
06FA2:  MOVFF  01,914
06FA6:  MOVFF  02,915
06FAA:  MOVFF  03,916
06FAE:  MOVFF  03,92B
06FB2:  MOVFF  02,92A
06FB6:  MOVFF  01,929
06FBA:  MOVFF  00,928
06FBE:  MOVLB  9
06FC0:  CLRF   x2F
06FC2:  CLRF   x2E
06FC4:  MOVLW  48
06FC6:  MOVWF  x2D
06FC8:  MOVLW  85
06FCA:  MOVWF  x2C
06FCC:  MOVLB  0
06FCE:  CALL   32D4
06FD2:  MOVFF  03,912
06FD6:  MOVFF  02,911
06FDA:  MOVFF  01,910
06FDE:  MOVFF  00,90F
....................    return (int8)tmp; 
06FE2:  MOVFF  912,916
06FE6:  MOVFF  911,915
06FEA:  MOVFF  910,914
06FEE:  MOVFF  90F,913
06FF2:  CALL   37CA
06FF6:  MOVF   01,W
.................... } 
06FF8:  RETLW  00
....................  
.................... float inttofloat(int8 decimal){ 
....................    float tmp; 
....................    tmp=decimal; 
....................    return tmp/100; 
.................... } 
....................  
.................... void ConfigInicial(){ 
....................    setup_timer_1(T1_INTERNAL|T1_DIV_BY_1); 
*
013CC:  MOVLW  85
013CE:  MOVWF  FCD
....................    enable_interrupts(INT_TIMER1); 
013D0:  BSF    F9D.0
....................    setup_adc_ports(AN0_TO_AN2); 
013D2:  MOVF   FC1,W
013D4:  ANDLW  C0
013D6:  IORLW  0C
013D8:  MOVWF  FC1
....................    setup_adc(ADC_CLOCK_DIV_64); 
013DA:  MOVF   FC0,W
013DC:  ANDLW  C0
013DE:  IORLW  06
013E0:  MOVWF  FC0
013E2:  BSF    FC0.7
013E4:  BSF    FC2.0
....................    enable_interrupts(global); 
013E6:  MOVLW  C0
013E8:  IORWF  FF2,F
.................... } 
013EA:  GOTO   7538 (RETURN)
....................  
.................... void LeeEEPROM(){  
....................    for(j=1;j<6;j++){ 
*
021E0:  MOVLW  01
021E2:  MOVLB  6
021E4:  MOVWF  x3B
021E6:  MOVF   x3B,W
021E8:  SUBLW  05
021EA:  BTFSS  FD8.0
021EC:  BRA    25D2
....................       for(i=0;i<Pasos;i++){ 
021EE:  CLRF   x3A
021F0:  MOVF   x3A,W
021F2:  SUBLW  0F
021F4:  BTFSS  FD8.0
021F6:  BRA    25CE
....................          delay_ms(10);  
021F8:  MOVLW  0A
021FA:  MOVLB  9
021FC:  MOVWF  x1D
021FE:  MOVLB  0
02200:  CALL   13A4
....................          Temperatura1[i+((j-1)*Pasos)]=make16(read_eeprom((i*2)+1+((j-1)*(Pasos*4))),read_eeprom((i*2)+((j-1)*(Pasos*4)))); 
02204:  MOVLW  01
02206:  MOVLB  6
02208:  SUBWF  x3B,W
0220A:  MULLW  10
0220C:  MOVF   FF3,W
0220E:  ADDWF  x3A,W
02210:  MOVWF  00
02212:  BCF    FD8.0
02214:  RLCF   00,F
02216:  MOVF   00,W
02218:  CLRF   03
0221A:  ADDLW  07
0221C:  MOVWF  FE9
0221E:  MOVLW  07
02220:  ADDWFC 03,W
02222:  MOVWF  FEA
02224:  BCF    FD8.0
02226:  RLCF   x3A,W
02228:  ADDLW  01
0222A:  MOVLB  9
0222C:  MOVWF  x09
0222E:  MOVLW  01
02230:  MOVLB  6
02232:  SUBWF  x3B,W
02234:  MULLW  40
02236:  MOVF   FF3,W
02238:  MOVLB  9
0223A:  ADDWF  x09,F
0223C:  MOVFF  FF2,90A
02240:  BCF    FF2.7
02242:  CLRF   FAA
02244:  MOVFF  909,FA9
02248:  BCF    FA6.6
0224A:  BCF    FA6.7
0224C:  BSF    FA6.0
0224E:  MOVF   FA8,W
02250:  BTFSC  x0A.7
02252:  BSF    FF2.7
02254:  MOVWF  x09
02256:  BCF    FD8.0
02258:  MOVLB  6
0225A:  RLCF   x3A,W
0225C:  MOVLB  9
0225E:  MOVWF  x0B
02260:  MOVLW  01
02262:  MOVLB  6
02264:  SUBWF  x3B,W
02266:  MULLW  40
02268:  MOVF   FF3,W
0226A:  MOVLB  9
0226C:  ADDWF  x0B,F
0226E:  MOVFF  FF2,90C
02272:  BCF    FF2.7
02274:  CLRF   FAA
02276:  MOVFF  90B,FA9
0227A:  BCF    FA6.6
0227C:  BCF    FA6.7
0227E:  BSF    FA6.0
02280:  MOVF   FA8,W
02282:  BTFSC  x0C.7
02284:  BSF    FF2.7
02286:  MOVWF  x0B
02288:  MOVFF  909,FEC
0228C:  MOVF   FED,F
0228E:  MOVFF  90B,FEF
....................          if(Temperatura1[i+((j-1)*Pasos)]>1200 || Temperatura1[i+((j-1)*Pasos)]<0){ 
02292:  MOVLW  01
02294:  MOVLB  6
02296:  SUBWF  x3B,W
02298:  MULLW  10
0229A:  MOVF   FF3,W
0229C:  ADDWF  x3A,W
0229E:  MOVWF  00
022A0:  BCF    FD8.0
022A2:  RLCF   00,F
022A4:  MOVF   00,W
022A6:  CLRF   03
022A8:  ADDLW  07
022AA:  MOVWF  FE9
022AC:  MOVLW  07
022AE:  ADDWFC 03,W
022B0:  MOVWF  FEA
022B2:  MOVFF  FEC,908
022B6:  MOVF   FED,F
022B8:  MOVFF  FEF,907
022BC:  MOVLB  9
022BE:  BTFSC  x08.7
022C0:  BRA    22D2
022C2:  MOVF   x08,W
022C4:  SUBLW  03
022C6:  BC    22D2
022C8:  XORLW  FF
022CA:  BNZ   2304
022CC:  MOVF   x07,W
022CE:  SUBLW  B0
022D0:  BNC   2304
022D2:  MOVLW  01
022D4:  MOVLB  6
022D6:  SUBWF  x3B,W
022D8:  MULLW  10
022DA:  MOVF   FF3,W
022DC:  ADDWF  x3A,W
022DE:  MOVWF  00
022E0:  BCF    FD8.0
022E2:  RLCF   00,F
022E4:  MOVF   00,W
022E6:  CLRF   03
022E8:  ADDLW  07
022EA:  MOVWF  FE9
022EC:  MOVLW  07
022EE:  ADDWFC 03,W
022F0:  MOVWF  FEA
022F2:  MOVFF  FEC,908
022F6:  MOVF   FED,F
022F8:  MOVFF  FEF,907
022FC:  MOVLB  9
022FE:  BTFSC  x08.7
02300:  BRA    2304
02302:  BRA    23C8
....................             Temperatura1[i+((j-1)*Pasos)]=0; 
02304:  MOVLW  01
02306:  MOVLB  6
02308:  SUBWF  x3B,W
0230A:  MULLW  10
0230C:  MOVF   FF3,W
0230E:  ADDWF  x3A,W
02310:  MOVWF  00
02312:  BCF    FD8.0
02314:  RLCF   00,F
02316:  MOVF   00,W
02318:  CLRF   03
0231A:  ADDLW  07
0231C:  MOVWF  FE9
0231E:  MOVLW  07
02320:  ADDWFC 03,W
02322:  MOVWF  FEA
02324:  CLRF   FEC
02326:  MOVF   FED,F
02328:  CLRF   FEF
....................             write_eeprom((i*2)+1+((j-1)*(Pasos*4)),0); 
0232A:  BCF    FD8.0
0232C:  RLCF   x3A,W
0232E:  ADDLW  01
02330:  MOVLB  9
02332:  MOVWF  x07
02334:  MOVLW  01
02336:  MOVLB  6
02338:  SUBWF  x3B,W
0233A:  MULLW  40
0233C:  MOVF   FF3,W
0233E:  MOVLB  9
02340:  ADDWF  x07,F
02342:  CLRF   FAA
02344:  MOVFF  907,FA9
02348:  CLRF   FA8
0234A:  BCF    FA6.6
0234C:  BCF    FA6.7
0234E:  BSF    FA6.2
02350:  MOVF   FF2,W
02352:  MOVWF  00
02354:  BCF    FF2.7
02356:  MOVLB  F
02358:  MOVLW  55
0235A:  MOVWF  FA7
0235C:  MOVLW  AA
0235E:  MOVWF  FA7
02360:  BSF    FA6.1
02362:  BTFSC  FA6.1
02364:  BRA    2362
02366:  BCF    FA6.2
02368:  MOVF   00,W
0236A:  IORWF  FF2,F
....................             delay_ms(20); 
0236C:  MOVLW  14
0236E:  MOVLB  9
02370:  MOVWF  x1D
02372:  MOVLB  0
02374:  CALL   13A4
....................             write_eeprom((i*2)+((j-1)*(Pasos*4)),0); 
02378:  BCF    FD8.0
0237A:  MOVLB  6
0237C:  RLCF   x3A,W
0237E:  MOVLB  9
02380:  MOVWF  x07
02382:  MOVLW  01
02384:  MOVLB  6
02386:  SUBWF  x3B,W
02388:  MULLW  40
0238A:  MOVF   FF3,W
0238C:  MOVLB  9
0238E:  ADDWF  x07,F
02390:  CLRF   FAA
02392:  MOVFF  907,FA9
02396:  CLRF   FA8
02398:  BCF    FA6.6
0239A:  BCF    FA6.7
0239C:  BSF    FA6.2
0239E:  MOVF   FF2,W
023A0:  MOVWF  00
023A2:  BCF    FF2.7
023A4:  MOVLB  F
023A6:  MOVLW  55
023A8:  MOVWF  FA7
023AA:  MOVLW  AA
023AC:  MOVWF  FA7
023AE:  BSF    FA6.1
023B0:  BTFSC  FA6.1
023B2:  BRA    23B0
023B4:  BCF    FA6.2
023B6:  MOVF   00,W
023B8:  IORWF  FF2,F
....................             delay_ms(20); 
023BA:  MOVLW  14
023BC:  MOVLB  9
023BE:  MOVWF  x1D
023C0:  MOVLB  0
023C2:  CALL   13A4
023C6:  MOVLB  9
....................          } 
....................          delay_ms(10); 
023C8:  MOVLW  0A
023CA:  MOVWF  x1D
023CC:  MOVLB  0
023CE:  CALL   13A4
....................          Horas1[i+((j-1)*Pasos)]=read_eeprom(i+(((Pasos*4)*j)-(Pasos*2)));      
023D2:  MOVLW  01
023D4:  MOVLB  6
023D6:  SUBWF  x3B,W
023D8:  MULLW  10
023DA:  MOVF   FF3,W
023DC:  ADDWF  x3A,W
023DE:  MOVWF  00
023E0:  BCF    FD8.0
023E2:  RLCF   00,F
023E4:  MOVF   00,W
023E6:  CLRF   03
023E8:  ADDLW  A7
023EA:  MOVWF  FE9
023EC:  MOVLW  07
023EE:  ADDWFC 03,W
023F0:  MOVWF  FEA
023F2:  MOVF   x3B,W
023F4:  MULLW  40
023F6:  MOVF   FF3,W
023F8:  ADDLW  E0
023FA:  ADDWF  x3A,W
023FC:  MOVLB  9
023FE:  MOVWF  x09
02400:  MOVFF  FF2,90A
02404:  BCF    FF2.7
02406:  CLRF   FAA
02408:  MOVFF  909,FA9
0240C:  BCF    FA6.6
0240E:  BCF    FA6.7
02410:  BSF    FA6.0
02412:  MOVF   FA8,W
02414:  BTFSC  x0A.7
02416:  BSF    FF2.7
02418:  CLRF   03
0241A:  MOVWF  FEF
0241C:  MOVFF  03,FEC
02420:  MOVF   FED,F
....................          if(Horas1[i+((j-1)*Pasos)]>99){ 
02422:  MOVLW  01
02424:  MOVLB  6
02426:  SUBWF  x3B,W
02428:  MULLW  10
0242A:  MOVF   FF3,W
0242C:  ADDWF  x3A,W
0242E:  MOVWF  00
02430:  BCF    FD8.0
02432:  RLCF   00,F
02434:  MOVF   00,W
02436:  CLRF   03
02438:  ADDLW  A7
0243A:  MOVWF  FE9
0243C:  MOVLW  07
0243E:  ADDWFC 03,W
02440:  MOVWF  FEA
02442:  MOVFF  FEC,908
02446:  MOVF   FED,F
02448:  MOVFF  FEF,907
0244C:  MOVLB  9
0244E:  BTFSC  x08.7
02450:  BRA    24C8
02452:  MOVF   x08,F
02454:  BNZ   245C
02456:  MOVF   x07,W
02458:  SUBLW  63
0245A:  BC    24C8
....................             Horas1[i+((j-1)*Pasos)]=0; 
0245C:  MOVLW  01
0245E:  MOVLB  6
02460:  SUBWF  x3B,W
02462:  MULLW  10
02464:  MOVF   FF3,W
02466:  ADDWF  x3A,W
02468:  MOVWF  00
0246A:  BCF    FD8.0
0246C:  RLCF   00,F
0246E:  MOVF   00,W
02470:  CLRF   03
02472:  ADDLW  A7
02474:  MOVWF  FE9
02476:  MOVLW  07
02478:  ADDWFC 03,W
0247A:  MOVWF  FEA
0247C:  CLRF   FEC
0247E:  MOVF   FED,F
02480:  CLRF   FEF
....................             write_eeprom(i+(((Pasos*4)*j)-(Pasos*2)),0); 
02482:  MOVF   x3B,W
02484:  MULLW  40
02486:  MOVF   FF3,W
02488:  ADDLW  E0
0248A:  ADDWF  x3A,W
0248C:  MOVLB  9
0248E:  MOVWF  x07
02490:  CLRF   FAA
02492:  MOVFF  907,FA9
02496:  CLRF   FA8
02498:  BCF    FA6.6
0249A:  BCF    FA6.7
0249C:  BSF    FA6.2
0249E:  MOVF   FF2,W
024A0:  MOVWF  00
024A2:  BCF    FF2.7
024A4:  MOVLB  F
024A6:  MOVLW  55
024A8:  MOVWF  FA7
024AA:  MOVLW  AA
024AC:  MOVWF  FA7
024AE:  BSF    FA6.1
024B0:  BTFSC  FA6.1
024B2:  BRA    24B0
024B4:  BCF    FA6.2
024B6:  MOVF   00,W
024B8:  IORWF  FF2,F
....................             delay_ms(20); 
024BA:  MOVLW  14
024BC:  MOVLB  9
024BE:  MOVWF  x1D
024C0:  MOVLB  0
024C2:  CALL   13A4
024C6:  MOVLB  9
....................          } 
....................          delay_ms(10);     
024C8:  MOVLW  0A
024CA:  MOVWF  x1D
024CC:  MOVLB  0
024CE:  CALL   13A4
....................          Minutos1[i+((j-1)*Pasos)]=read_eeprom(i+(((Pasos*4)*j)-Pasos)); 
024D2:  MOVLW  01
024D4:  MOVLB  6
024D6:  SUBWF  x3B,W
024D8:  MULLW  10
024DA:  MOVF   FF3,W
024DC:  ADDWF  x3A,W
024DE:  MOVWF  00
024E0:  BCF    FD8.0
024E2:  RLCF   00,F
024E4:  MOVF   00,W
024E6:  CLRF   03
024E8:  ADDLW  47
024EA:  MOVWF  FE9
024EC:  MOVLW  08
024EE:  ADDWFC 03,W
024F0:  MOVWF  FEA
024F2:  MOVF   x3B,W
024F4:  MULLW  40
024F6:  MOVF   FF3,W
024F8:  ADDLW  F0
024FA:  ADDWF  x3A,W
024FC:  MOVLB  9
024FE:  MOVWF  x09
02500:  MOVFF  FF2,90A
02504:  BCF    FF2.7
02506:  CLRF   FAA
02508:  MOVFF  909,FA9
0250C:  BCF    FA6.6
0250E:  BCF    FA6.7
02510:  BSF    FA6.0
02512:  MOVF   FA8,W
02514:  BTFSC  x0A.7
02516:  BSF    FF2.7
02518:  CLRF   03
0251A:  MOVWF  FEF
0251C:  MOVFF  03,FEC
02520:  MOVF   FED,F
....................          if(Minutos1[i+((j-1)*Pasos)]>59){ 
02522:  MOVLW  01
02524:  MOVLB  6
02526:  SUBWF  x3B,W
02528:  MULLW  10
0252A:  MOVF   FF3,W
0252C:  ADDWF  x3A,W
0252E:  MOVWF  00
02530:  BCF    FD8.0
02532:  RLCF   00,F
02534:  MOVF   00,W
02536:  CLRF   03
02538:  ADDLW  47
0253A:  MOVWF  FE9
0253C:  MOVLW  08
0253E:  ADDWFC 03,W
02540:  MOVWF  FEA
02542:  MOVFF  FEC,908
02546:  MOVF   FED,F
02548:  MOVFF  FEF,907
0254C:  MOVLB  9
0254E:  BTFSC  x08.7
02550:  BRA    25C8
02552:  MOVF   x08,F
02554:  BNZ   255C
02556:  MOVF   x07,W
02558:  SUBLW  3B
0255A:  BC    25C8
....................             Minutos1[i+((j-1)*Pasos)]=0; 
0255C:  MOVLW  01
0255E:  MOVLB  6
02560:  SUBWF  x3B,W
02562:  MULLW  10
02564:  MOVF   FF3,W
02566:  ADDWF  x3A,W
02568:  MOVWF  00
0256A:  BCF    FD8.0
0256C:  RLCF   00,F
0256E:  MOVF   00,W
02570:  CLRF   03
02572:  ADDLW  47
02574:  MOVWF  FE9
02576:  MOVLW  08
02578:  ADDWFC 03,W
0257A:  MOVWF  FEA
0257C:  CLRF   FEC
0257E:  MOVF   FED,F
02580:  CLRF   FEF
....................             write_eeprom(i+(((Pasos*4)*j)-Pasos),0); 
02582:  MOVF   x3B,W
02584:  MULLW  40
02586:  MOVF   FF3,W
02588:  ADDLW  F0
0258A:  ADDWF  x3A,W
0258C:  MOVLB  9
0258E:  MOVWF  x07
02590:  CLRF   FAA
02592:  MOVFF  907,FA9
02596:  CLRF   FA8
02598:  BCF    FA6.6
0259A:  BCF    FA6.7
0259C:  BSF    FA6.2
0259E:  MOVF   FF2,W
025A0:  MOVWF  00
025A2:  BCF    FF2.7
025A4:  MOVLB  F
025A6:  MOVLW  55
025A8:  MOVWF  FA7
025AA:  MOVLW  AA
025AC:  MOVWF  FA7
025AE:  BSF    FA6.1
025B0:  BTFSC  FA6.1
025B2:  BRA    25B0
025B4:  BCF    FA6.2
025B6:  MOVF   00,W
025B8:  IORWF  FF2,F
....................             delay_ms(20); 
025BA:  MOVLW  14
025BC:  MOVLB  9
025BE:  MOVWF  x1D
025C0:  MOVLB  0
025C2:  CALL   13A4
025C6:  MOVLB  9
....................          } 
....................           
....................       } 
025C8:  MOVLB  6
025CA:  INCF   x3A,F
025CC:  BRA    21F0
....................    } 
025CE:  INCF   x3B,F
025D0:  BRA    21E6
....................     
....................    delay_ms(50);    
025D2:  MOVLW  32
025D4:  MOVLB  9
025D6:  MOVWF  x1D
025D8:  MOVLB  0
025DA:  CALL   13A4
....................    Ganancia=read_eeprom(450); 
025DE:  MOVFF  FF2,907
025E2:  BCF    FF2.7
025E4:  MOVLW  01
025E6:  MOVWF  FAA
025E8:  MOVLW  C2
025EA:  MOVWF  FA9
025EC:  BCF    FA6.6
025EE:  BCF    FA6.7
025F0:  BSF    FA6.0
025F2:  MOVF   FA8,W
025F4:  MOVLB  9
025F6:  BTFSC  x07.7
025F8:  BSF    FF2.7
025FA:  CLRF   x1E
025FC:  MOVWF  x1D
025FE:  MOVLB  0
02600:  CALL   1D5A
02604:  MOVFF  03,6BA
02608:  MOVFF  02,6B9
0260C:  MOVFF  01,6B8
02610:  MOVFF  00,6B7
....................    delay_ms(50);    
02614:  MOVLW  32
02616:  MOVLB  9
02618:  MOVWF  x1D
0261A:  MOVLB  0
0261C:  CALL   13A4
....................    if(Ganancia>10){ 
02620:  MOVLB  9
02622:  CLRF   x0A
02624:  CLRF   x09
02626:  MOVLW  20
02628:  MOVWF  x08
0262A:  MOVLW  82
0262C:  MOVWF  x07
0262E:  MOVFF  6BA,90E
02632:  MOVFF  6B9,90D
02636:  MOVFF  6B8,90C
0263A:  MOVFF  6B7,90B
0263E:  MOVLB  0
02640:  CALL   1D90
02644:  BNC   268E
....................       Ganancia=3; 
02646:  MOVLB  6
02648:  CLRF   xBA
0264A:  CLRF   xB9
0264C:  MOVLW  40
0264E:  MOVWF  xB8
02650:  MOVLW  80
02652:  MOVWF  xB7
....................       write_eeprom(450,3); 
02654:  MOVLW  01
02656:  MOVWF  FAA
02658:  MOVLW  C2
0265A:  MOVWF  FA9
0265C:  MOVLW  03
0265E:  MOVWF  FA8
02660:  BCF    FA6.6
02662:  BCF    FA6.7
02664:  BSF    FA6.2
02666:  MOVF   FF2,W
02668:  MOVWF  00
0266A:  BCF    FF2.7
0266C:  MOVLB  F
0266E:  MOVLW  55
02670:  MOVWF  FA7
02672:  MOVLW  AA
02674:  MOVWF  FA7
02676:  BSF    FA6.1
02678:  BTFSC  FA6.1
0267A:  BRA    2678
0267C:  BCF    FA6.2
0267E:  MOVF   00,W
02680:  IORWF  FF2,F
....................       delay_ms(20); 
02682:  MOVLW  14
02684:  MOVLB  9
02686:  MOVWF  x1D
02688:  MOVLB  0
0268A:  CALL   13A4
....................    } 
....................    GananciaIn=Ganancia; 
0268E:  MOVFF  6BA,6B6
02692:  MOVFF  6B9,6B5
02696:  MOVFF  6B8,6B4
0269A:  MOVFF  6B7,6B3
....................    Tciclo=read_eeprom(451); 
0269E:  MOVFF  FF2,907
026A2:  BCF    FF2.7
026A4:  MOVLW  01
026A6:  MOVWF  FAA
026A8:  MOVLW  C3
026AA:  MOVWF  FA9
026AC:  BCF    FA6.6
026AE:  BCF    FA6.7
026B0:  BSF    FA6.0
026B2:  MOVF   FA8,W
026B4:  MOVLB  9
026B6:  BTFSC  x07.7
026B8:  BSF    FF2.7
026BA:  CLRF   x1E
026BC:  MOVWF  x1D
026BE:  MOVLB  0
026C0:  CALL   1D5A
026C4:  MOVFF  03,69E
026C8:  MOVFF  02,69D
026CC:  MOVFF  01,69C
026D0:  MOVFF  00,69B
....................    delay_ms(50);    
026D4:  MOVLW  32
026D6:  MOVLB  9
026D8:  MOVWF  x1D
026DA:  MOVLB  0
026DC:  CALL   13A4
....................    if(Tciclo>10){ 
026E0:  MOVLB  9
026E2:  CLRF   x0A
026E4:  CLRF   x09
026E6:  MOVLW  20
026E8:  MOVWF  x08
026EA:  MOVLW  82
026EC:  MOVWF  x07
026EE:  MOVFF  69E,90E
026F2:  MOVFF  69D,90D
026F6:  MOVFF  69C,90C
026FA:  MOVFF  69B,90B
026FE:  MOVLB  0
02700:  CALL   1D90
02704:  BNC   274E
....................       Tciclo=10; 
02706:  MOVLB  6
02708:  CLRF   x9E
0270A:  CLRF   x9D
0270C:  MOVLW  20
0270E:  MOVWF  x9C
02710:  MOVLW  82
02712:  MOVWF  x9B
....................       write_eeprom(451,10); 
02714:  MOVLW  01
02716:  MOVWF  FAA
02718:  MOVLW  C3
0271A:  MOVWF  FA9
0271C:  MOVLW  0A
0271E:  MOVWF  FA8
02720:  BCF    FA6.6
02722:  BCF    FA6.7
02724:  BSF    FA6.2
02726:  MOVF   FF2,W
02728:  MOVWF  00
0272A:  BCF    FF2.7
0272C:  MOVLB  F
0272E:  MOVLW  55
02730:  MOVWF  FA7
02732:  MOVLW  AA
02734:  MOVWF  FA7
02736:  BSF    FA6.1
02738:  BTFSC  FA6.1
0273A:  BRA    2738
0273C:  BCF    FA6.2
0273E:  MOVF   00,W
02740:  IORWF  FF2,F
....................       delay_ms(20); 
02742:  MOVLW  14
02744:  MOVLB  9
02746:  MOVWF  x1D
02748:  MOVLB  0
0274A:  CALL   13A4
....................    } 
....................    Ajuste=read_eeprom(452); 
0274E:  MOVFF  FF2,907
02752:  BCF    FF2.7
02754:  MOVLW  01
02756:  MOVWF  FAA
02758:  MOVLW  C4
0275A:  MOVWF  FA9
0275C:  BCF    FA6.6
0275E:  BCF    FA6.7
02760:  BSF    FA6.0
02762:  MOVF   FA8,W
02764:  MOVLB  9
02766:  BTFSC  x07.7
02768:  BSF    FF2.7
0276A:  MOVLB  6
0276C:  MOVWF  x25
....................    delay_ms(50); 
0276E:  MOVLW  32
02770:  MOVLB  9
02772:  MOVWF  x1D
02774:  MOVLB  0
02776:  CALL   13A4
....................    if(Ajuste>10){ 
0277A:  MOVLB  6
0277C:  MOVF   x25,W
0277E:  SUBLW  0A
02780:  BC    27BE
....................       Ajuste=0; 
02782:  CLRF   x25
....................       write_eeprom(452,0); 
02784:  MOVLW  01
02786:  MOVWF  FAA
02788:  MOVLW  C4
0278A:  MOVWF  FA9
0278C:  CLRF   FA8
0278E:  BCF    FA6.6
02790:  BCF    FA6.7
02792:  BSF    FA6.2
02794:  MOVF   FF2,W
02796:  MOVWF  00
02798:  BCF    FF2.7
0279A:  MOVLB  F
0279C:  MOVLW  55
0279E:  MOVWF  FA7
027A0:  MOVLW  AA
027A2:  MOVWF  FA7
027A4:  BSF    FA6.1
027A6:  BTFSC  FA6.1
027A8:  BRA    27A6
027AA:  BCF    FA6.2
027AC:  MOVF   00,W
027AE:  IORWF  FF2,F
....................       delay_ms(20); 
027B0:  MOVLW  14
027B2:  MOVLB  9
027B4:  MOVWF  x1D
027B6:  MOVLB  0
027B8:  CALL   13A4
027BC:  MOVLB  6
....................    } 
....................    Ajusten=read_eeprom(453); 
027BE:  MOVFF  FF2,907
027C2:  BCF    FF2.7
027C4:  MOVLW  01
027C6:  MOVWF  FAA
027C8:  MOVLW  C5
027CA:  MOVWF  FA9
027CC:  BCF    FA6.6
027CE:  BCF    FA6.7
027D0:  BSF    FA6.0
027D2:  MOVF   FA8,W
027D4:  MOVLB  9
027D6:  BTFSC  x07.7
027D8:  BSF    FF2.7
027DA:  MOVLB  6
027DC:  MOVWF  x26
....................    delay_ms(50); 
027DE:  MOVLW  32
027E0:  MOVLB  9
027E2:  MOVWF  x1D
027E4:  MOVLB  0
027E6:  CALL   13A4
....................    if(Ajusten>10){ 
027EA:  MOVLB  6
027EC:  MOVF   x26,W
027EE:  SUBLW  0A
027F0:  BC    282E
....................       Ajusten=0; 
027F2:  CLRF   x26
....................       write_eeprom(453,0); 
027F4:  MOVLW  01
027F6:  MOVWF  FAA
027F8:  MOVLW  C5
027FA:  MOVWF  FA9
027FC:  CLRF   FA8
027FE:  BCF    FA6.6
02800:  BCF    FA6.7
02802:  BSF    FA6.2
02804:  MOVF   FF2,W
02806:  MOVWF  00
02808:  BCF    FF2.7
0280A:  MOVLB  F
0280C:  MOVLW  55
0280E:  MOVWF  FA7
02810:  MOVLW  AA
02812:  MOVWF  FA7
02814:  BSF    FA6.1
02816:  BTFSC  FA6.1
02818:  BRA    2816
0281A:  BCF    FA6.2
0281C:  MOVF   00,W
0281E:  IORWF  FF2,F
....................       delay_ms(20); 
02820:  MOVLW  14
02822:  MOVLB  9
02824:  MOVWF  x1D
02826:  MOVLB  0
02828:  CALL   13A4
0282C:  MOVLB  6
....................    } 
....................    MediaMovil=read_eeprom(454); 
0282E:  MOVFF  FF2,907
02832:  BCF    FF2.7
02834:  MOVLW  01
02836:  MOVWF  FAA
02838:  MOVLW  C6
0283A:  MOVWF  FA9
0283C:  BCF    FA6.6
0283E:  BCF    FA6.7
02840:  BSF    FA6.0
02842:  MOVF   FA8,W
02844:  MOVLB  9
02846:  BTFSC  x07.7
02848:  BSF    FF2.7
0284A:  MOVLB  6
0284C:  MOVWF  x27
....................    delay_ms(50);    
0284E:  MOVLW  32
02850:  MOVLB  9
02852:  MOVWF  x1D
02854:  MOVLB  0
02856:  CALL   13A4
....................    if(MediaMovil>40){ 
0285A:  MOVLB  6
0285C:  MOVF   x27,W
0285E:  SUBLW  28
02860:  BC    28A2
....................       MediaMovil=20; 
02862:  MOVLW  14
02864:  MOVWF  x27
....................       write_eeprom(454,20); 
02866:  MOVLW  01
02868:  MOVWF  FAA
0286A:  MOVLW  C6
0286C:  MOVWF  FA9
0286E:  MOVLW  14
02870:  MOVWF  FA8
02872:  BCF    FA6.6
02874:  BCF    FA6.7
02876:  BSF    FA6.2
02878:  MOVF   FF2,W
0287A:  MOVWF  00
0287C:  BCF    FF2.7
0287E:  MOVLB  F
02880:  MOVLW  55
02882:  MOVWF  FA7
02884:  MOVLW  AA
02886:  MOVWF  FA7
02888:  BSF    FA6.1
0288A:  BTFSC  FA6.1
0288C:  BRA    288A
0288E:  BCF    FA6.2
02890:  MOVF   00,W
02892:  IORWF  FF2,F
....................       delay_ms(20); 
02894:  MOVLW  14
02896:  MOVLB  9
02898:  MOVWF  x1D
0289A:  MOVLB  0
0289C:  CALL   13A4
028A0:  MOVLB  6
....................    } 
....................    Coeficiente=read_eeprom(455); 
028A2:  MOVFF  FF2,907
028A6:  BCF    FF2.7
028A8:  MOVLW  01
028AA:  MOVWF  FAA
028AC:  MOVLW  C7
028AE:  MOVWF  FA9
028B0:  BCF    FA6.6
028B2:  BCF    FA6.7
028B4:  BSF    FA6.0
028B6:  MOVF   FA8,W
028B8:  MOVLB  9
028BA:  BTFSC  x07.7
028BC:  BSF    FF2.7
028BE:  CLRF   x1E
028C0:  MOVWF  x1D
028C2:  MOVLB  0
028C4:  CALL   1D5A
028C8:  MOVFF  03,6C2
028CC:  MOVFF  02,6C1
028D0:  MOVFF  01,6C0
028D4:  MOVFF  00,6BF
....................    delay_ms(50);    
028D8:  MOVLW  32
028DA:  MOVLB  9
028DC:  MOVWF  x1D
028DE:  MOVLB  0
028E0:  CALL   13A4
....................    resistencia=read_eeprom(457); 
028E4:  MOVFF  FF2,907
028E8:  BCF    FF2.7
028EA:  MOVLW  01
028EC:  MOVWF  FAA
028EE:  MOVLW  C9
028F0:  MOVWF  FA9
028F2:  BCF    FA6.6
028F4:  BCF    FA6.7
028F6:  BSF    FA6.0
028F8:  MOVF   FA8,W
028FA:  MOVLB  9
028FC:  BTFSC  x07.7
028FE:  BSF    FF2.7
02900:  CLRF   x1E
02902:  MOVWF  x1D
02904:  MOVLB  0
02906:  CALL   1D5A
0290A:  MOVFF  03,6C6
0290E:  MOVFF  02,6C5
02912:  MOVFF  01,6C4
02916:  MOVFF  00,6C3
....................    delay_ms(50);  
0291A:  MOVLW  32
0291C:  MOVLB  9
0291E:  MOVWF  x1D
02920:  MOVLB  0
02922:  CALL   13A4
....................    if(resistencia>250){ 
02926:  MOVLB  9
02928:  CLRF   x0A
0292A:  CLRF   x09
0292C:  MOVLW  7A
0292E:  MOVWF  x08
02930:  MOVLW  86
02932:  MOVWF  x07
02934:  MOVFF  6C6,90E
02938:  MOVFF  6C5,90D
0293C:  MOVFF  6C4,90C
02940:  MOVFF  6C3,90B
02944:  MOVLB  0
02946:  CALL   1D90
0294A:  BNC   2994
....................       resistencia=238; 
0294C:  MOVLB  6
0294E:  CLRF   xC6
02950:  CLRF   xC5
02952:  MOVLW  6E
02954:  MOVWF  xC4
02956:  MOVLW  86
02958:  MOVWF  xC3
....................       write_eeprom(457,240); 
0295A:  MOVLW  01
0295C:  MOVWF  FAA
0295E:  MOVLW  C9
02960:  MOVWF  FA9
02962:  MOVLW  F0
02964:  MOVWF  FA8
02966:  BCF    FA6.6
02968:  BCF    FA6.7
0296A:  BSF    FA6.2
0296C:  MOVF   FF2,W
0296E:  MOVWF  00
02970:  BCF    FF2.7
02972:  MOVLB  F
02974:  MOVLW  55
02976:  MOVWF  FA7
02978:  MOVLW  AA
0297A:  MOVWF  FA7
0297C:  BSF    FA6.1
0297E:  BTFSC  FA6.1
02980:  BRA    297E
02982:  BCF    FA6.2
02984:  MOVF   00,W
02986:  IORWF  FF2,F
....................       delay_ms(20); 
02988:  MOVLW  14
0298A:  MOVLB  9
0298C:  MOVWF  x1D
0298E:  MOVLB  0
02990:  CALL   13A4
....................    } 
....................    penMufla=read_eeprom(458); 
02994:  MOVFF  FF2,907
02998:  BCF    FF2.7
0299A:  MOVLW  01
0299C:  MOVWF  FAA
0299E:  MOVLW  CA
029A0:  MOVWF  FA9
029A2:  BCF    FA6.6
029A4:  BCF    FA6.7
029A6:  BSF    FA6.0
029A8:  MOVF   FA8,W
029AA:  MOVLB  9
029AC:  BTFSC  x07.7
029AE:  BSF    FF2.7
029B0:  CLRF   x1E
029B2:  MOVWF  x1D
029B4:  MOVLB  0
029B6:  CALL   1D5A
029BA:  MOVFF  03,6FE
029BE:  MOVFF  02,6FD
029C2:  MOVFF  01,6FC
029C6:  MOVFF  00,6FB
....................    delay_ms(50);  
029CA:  MOVLW  32
029CC:  MOVLB  9
029CE:  MOVWF  x1D
029D0:  MOVLB  0
029D2:  CALL   13A4
....................    if(penMufla>70){ 
029D6:  MOVLB  9
029D8:  CLRF   x0A
029DA:  CLRF   x09
029DC:  MOVLW  0C
029DE:  MOVWF  x08
029E0:  MOVLW  85
029E2:  MOVWF  x07
029E4:  MOVFF  6FE,90E
029E8:  MOVFF  6FD,90D
029EC:  MOVFF  6FC,90C
029F0:  MOVFF  6FB,90B
029F4:  MOVLB  0
029F6:  CALL   1D90
029FA:  BNC   2A44
....................       penMufla=50; 
029FC:  MOVLB  6
029FE:  CLRF   xFE
02A00:  CLRF   xFD
02A02:  MOVLW  48
02A04:  MOVWF  xFC
02A06:  MOVLW  84
02A08:  MOVWF  xFB
....................       write_eeprom(458,100); 
02A0A:  MOVLW  01
02A0C:  MOVWF  FAA
02A0E:  MOVLW  CA
02A10:  MOVWF  FA9
02A12:  MOVLW  64
02A14:  MOVWF  FA8
02A16:  BCF    FA6.6
02A18:  BCF    FA6.7
02A1A:  BSF    FA6.2
02A1C:  MOVF   FF2,W
02A1E:  MOVWF  00
02A20:  BCF    FF2.7
02A22:  MOVLB  F
02A24:  MOVLW  55
02A26:  MOVWF  FA7
02A28:  MOVLW  AA
02A2A:  MOVWF  FA7
02A2C:  BSF    FA6.1
02A2E:  BTFSC  FA6.1
02A30:  BRA    2A2E
02A32:  BCF    FA6.2
02A34:  MOVF   00,W
02A36:  IORWF  FF2,F
....................       delay_ms(20); 
02A38:  MOVLW  14
02A3A:  MOVLB  9
02A3C:  MOVWF  x1D
02A3E:  MOVLB  0
02A40:  CALL   13A4
....................    } 
....................     
....................    Password[0]=read_eeprom(460); 
02A44:  MOVFF  FF2,907
02A48:  BCF    FF2.7
02A4A:  MOVLW  01
02A4C:  MOVWF  FAA
02A4E:  MOVLW  CC
02A50:  MOVWF  FA9
02A52:  BCF    FA6.6
02A54:  BCF    FA6.7
02A56:  BSF    FA6.0
02A58:  MOVF   FA8,W
02A5A:  MOVLB  9
02A5C:  BTFSC  x07.7
02A5E:  BSF    FF2.7
02A60:  MOVLB  6
02A62:  MOVWF  x93
....................    delay_ms(50);    
02A64:  MOVLW  32
02A66:  MOVLB  9
02A68:  MOVWF  x1D
02A6A:  MOVLB  0
02A6C:  CALL   13A4
....................    if(Password[0]>9 || Password[0]<0){ 
02A70:  MOVLB  6
02A72:  BTFSC  x93.7
02A74:  BRA    2A7C
02A76:  MOVF   x93,W
02A78:  SUBLW  09
02A7A:  BNC   2A82
02A7C:  BTFSC  x93.7
02A7E:  BRA    2A82
02A80:  BRA    2ABE
....................       Password[0]=0; 
02A82:  CLRF   x93
....................       write_eeprom(460,0); 
02A84:  MOVLW  01
02A86:  MOVWF  FAA
02A88:  MOVLW  CC
02A8A:  MOVWF  FA9
02A8C:  CLRF   FA8
02A8E:  BCF    FA6.6
02A90:  BCF    FA6.7
02A92:  BSF    FA6.2
02A94:  MOVF   FF2,W
02A96:  MOVWF  00
02A98:  BCF    FF2.7
02A9A:  MOVLB  F
02A9C:  MOVLW  55
02A9E:  MOVWF  FA7
02AA0:  MOVLW  AA
02AA2:  MOVWF  FA7
02AA4:  BSF    FA6.1
02AA6:  BTFSC  FA6.1
02AA8:  BRA    2AA6
02AAA:  BCF    FA6.2
02AAC:  MOVF   00,W
02AAE:  IORWF  FF2,F
....................       delay_ms(20); 
02AB0:  MOVLW  14
02AB2:  MOVLB  9
02AB4:  MOVWF  x1D
02AB6:  MOVLB  0
02AB8:  CALL   13A4
02ABC:  MOVLB  6
....................    } 
....................    Password[1]=read_eeprom(461); 
02ABE:  MOVFF  FF2,907
02AC2:  BCF    FF2.7
02AC4:  MOVLW  01
02AC6:  MOVWF  FAA
02AC8:  MOVLW  CD
02ACA:  MOVWF  FA9
02ACC:  BCF    FA6.6
02ACE:  BCF    FA6.7
02AD0:  BSF    FA6.0
02AD2:  MOVF   FA8,W
02AD4:  MOVLB  9
02AD6:  BTFSC  x07.7
02AD8:  BSF    FF2.7
02ADA:  MOVLB  6
02ADC:  MOVWF  x94
....................    delay_ms(50);    
02ADE:  MOVLW  32
02AE0:  MOVLB  9
02AE2:  MOVWF  x1D
02AE4:  MOVLB  0
02AE6:  CALL   13A4
....................    if(Password[1]>9 || Password[1]<0){ 
02AEA:  MOVLB  6
02AEC:  BTFSC  x94.7
02AEE:  BRA    2AF6
02AF0:  MOVF   x94,W
02AF2:  SUBLW  09
02AF4:  BNC   2AFC
02AF6:  BTFSC  x94.7
02AF8:  BRA    2AFC
02AFA:  BRA    2B38
....................       Password[1]=0; 
02AFC:  CLRF   x94
....................       write_eeprom(461,0); 
02AFE:  MOVLW  01
02B00:  MOVWF  FAA
02B02:  MOVLW  CD
02B04:  MOVWF  FA9
02B06:  CLRF   FA8
02B08:  BCF    FA6.6
02B0A:  BCF    FA6.7
02B0C:  BSF    FA6.2
02B0E:  MOVF   FF2,W
02B10:  MOVWF  00
02B12:  BCF    FF2.7
02B14:  MOVLB  F
02B16:  MOVLW  55
02B18:  MOVWF  FA7
02B1A:  MOVLW  AA
02B1C:  MOVWF  FA7
02B1E:  BSF    FA6.1
02B20:  BTFSC  FA6.1
02B22:  BRA    2B20
02B24:  BCF    FA6.2
02B26:  MOVF   00,W
02B28:  IORWF  FF2,F
....................       delay_ms(20); 
02B2A:  MOVLW  14
02B2C:  MOVLB  9
02B2E:  MOVWF  x1D
02B30:  MOVLB  0
02B32:  CALL   13A4
02B36:  MOVLB  6
....................    } 
....................    Password[2]=read_eeprom(462); 
02B38:  MOVFF  FF2,907
02B3C:  BCF    FF2.7
02B3E:  MOVLW  01
02B40:  MOVWF  FAA
02B42:  MOVLW  CE
02B44:  MOVWF  FA9
02B46:  BCF    FA6.6
02B48:  BCF    FA6.7
02B4A:  BSF    FA6.0
02B4C:  MOVF   FA8,W
02B4E:  MOVLB  9
02B50:  BTFSC  x07.7
02B52:  BSF    FF2.7
02B54:  MOVLB  6
02B56:  MOVWF  x95
....................    delay_ms(50);    
02B58:  MOVLW  32
02B5A:  MOVLB  9
02B5C:  MOVWF  x1D
02B5E:  MOVLB  0
02B60:  CALL   13A4
....................    if(Password[2]>9 || Password[2]<0){ 
02B64:  MOVLB  6
02B66:  BTFSC  x95.7
02B68:  BRA    2B70
02B6A:  MOVF   x95,W
02B6C:  SUBLW  09
02B6E:  BNC   2B76
02B70:  BTFSC  x95.7
02B72:  BRA    2B76
02B74:  BRA    2BB2
....................       Password[2]=0; 
02B76:  CLRF   x95
....................       write_eeprom(462,0); 
02B78:  MOVLW  01
02B7A:  MOVWF  FAA
02B7C:  MOVLW  CE
02B7E:  MOVWF  FA9
02B80:  CLRF   FA8
02B82:  BCF    FA6.6
02B84:  BCF    FA6.7
02B86:  BSF    FA6.2
02B88:  MOVF   FF2,W
02B8A:  MOVWF  00
02B8C:  BCF    FF2.7
02B8E:  MOVLB  F
02B90:  MOVLW  55
02B92:  MOVWF  FA7
02B94:  MOVLW  AA
02B96:  MOVWF  FA7
02B98:  BSF    FA6.1
02B9A:  BTFSC  FA6.1
02B9C:  BRA    2B9A
02B9E:  BCF    FA6.2
02BA0:  MOVF   00,W
02BA2:  IORWF  FF2,F
....................       delay_ms(20); 
02BA4:  MOVLW  14
02BA6:  MOVLB  9
02BA8:  MOVWF  x1D
02BAA:  MOVLB  0
02BAC:  CALL   13A4
02BB0:  MOVLB  6
....................    } 
....................    Password[3]=read_eeprom(463); 
02BB2:  MOVFF  FF2,907
02BB6:  BCF    FF2.7
02BB8:  MOVLW  01
02BBA:  MOVWF  FAA
02BBC:  MOVLW  CF
02BBE:  MOVWF  FA9
02BC0:  BCF    FA6.6
02BC2:  BCF    FA6.7
02BC4:  BSF    FA6.0
02BC6:  MOVF   FA8,W
02BC8:  MOVLB  9
02BCA:  BTFSC  x07.7
02BCC:  BSF    FF2.7
02BCE:  MOVLB  6
02BD0:  MOVWF  x96
....................    delay_ms(50); 
02BD2:  MOVLW  32
02BD4:  MOVLB  9
02BD6:  MOVWF  x1D
02BD8:  MOVLB  0
02BDA:  CALL   13A4
....................    if(Password[3]>9 || Password[3]<0){ 
02BDE:  MOVLB  6
02BE0:  BTFSC  x96.7
02BE2:  BRA    2BEA
02BE4:  MOVF   x96,W
02BE6:  SUBLW  09
02BE8:  BNC   2BF0
02BEA:  BTFSC  x96.7
02BEC:  BRA    2BF0
02BEE:  BRA    2C2C
....................       Password[3]=0; 
02BF0:  CLRF   x96
....................       write_eeprom(463,0); 
02BF2:  MOVLW  01
02BF4:  MOVWF  FAA
02BF6:  MOVLW  CF
02BF8:  MOVWF  FA9
02BFA:  CLRF   FA8
02BFC:  BCF    FA6.6
02BFE:  BCF    FA6.7
02C00:  BSF    FA6.2
02C02:  MOVF   FF2,W
02C04:  MOVWF  00
02C06:  BCF    FF2.7
02C08:  MOVLB  F
02C0A:  MOVLW  55
02C0C:  MOVWF  FA7
02C0E:  MOVLW  AA
02C10:  MOVWF  FA7
02C12:  BSF    FA6.1
02C14:  BTFSC  FA6.1
02C16:  BRA    2C14
02C18:  BCF    FA6.2
02C1A:  MOVF   00,W
02C1C:  IORWF  FF2,F
....................       delay_ms(20); 
02C1E:  MOVLW  14
02C20:  MOVLB  9
02C22:  MOVWF  x1D
02C24:  MOVLB  0
02C26:  CALL   13A4
02C2A:  MOVLB  6
....................    } 
....................     
....................    Integral=read_eeprom(470); 
02C2C:  MOVFF  FF2,907
02C30:  BCF    FF2.7
02C32:  MOVLW  01
02C34:  MOVWF  FAA
02C36:  MOVLW  D6
02C38:  MOVWF  FA9
02C3A:  BCF    FA6.6
02C3C:  BCF    FA6.7
02C3E:  BSF    FA6.0
02C40:  MOVF   FA8,W
02C42:  MOVLB  9
02C44:  BTFSC  x07.7
02C46:  BSF    FF2.7
02C48:  CLRF   x1E
02C4A:  MOVWF  x1D
02C4C:  MOVLB  0
02C4E:  CALL   1D5A
02C52:  MOVFF  03,6DE
02C56:  MOVFF  02,6DD
02C5A:  MOVFF  01,6DC
02C5E:  MOVFF  00,6DB
....................    delay_ms(50);  
02C62:  MOVLW  32
02C64:  MOVLB  9
02C66:  MOVWF  x1D
02C68:  MOVLB  0
02C6A:  CALL   13A4
....................    if(Integral>5){ 
02C6E:  MOVLB  9
02C70:  CLRF   x0A
02C72:  CLRF   x09
02C74:  MOVLW  20
02C76:  MOVWF  x08
02C78:  MOVLW  81
02C7A:  MOVWF  x07
02C7C:  MOVFF  6DE,90E
02C80:  MOVFF  6DD,90D
02C84:  MOVFF  6DC,90C
02C88:  MOVFF  6DB,90B
02C8C:  MOVLB  0
02C8E:  CALL   1D90
02C92:  BNC   2CDA
....................       Integral=1; 
02C94:  MOVLB  6
02C96:  CLRF   xDE
02C98:  CLRF   xDD
02C9A:  CLRF   xDC
02C9C:  MOVLW  7F
02C9E:  MOVWF  xDB
....................       write_eeprom(470,1); 
02CA0:  MOVLW  01
02CA2:  MOVWF  FAA
02CA4:  MOVLW  D6
02CA6:  MOVWF  FA9
02CA8:  MOVLW  01
02CAA:  MOVWF  FA8
02CAC:  BCF    FA6.6
02CAE:  BCF    FA6.7
02CB0:  BSF    FA6.2
02CB2:  MOVF   FF2,W
02CB4:  MOVWF  00
02CB6:  BCF    FF2.7
02CB8:  MOVLB  F
02CBA:  MOVLW  55
02CBC:  MOVWF  FA7
02CBE:  MOVLW  AA
02CC0:  MOVWF  FA7
02CC2:  BSF    FA6.1
02CC4:  BTFSC  FA6.1
02CC6:  BRA    2CC4
02CC8:  BCF    FA6.2
02CCA:  MOVF   00,W
02CCC:  IORWF  FF2,F
....................       delay_ms(20); 
02CCE:  MOVLW  14
02CD0:  MOVLB  9
02CD2:  MOVWF  x1D
02CD4:  MOVLB  0
02CD6:  CALL   13A4
....................    } 
....................    Derivativo=read_eeprom(471); 
02CDA:  MOVFF  FF2,907
02CDE:  BCF    FF2.7
02CE0:  MOVLW  01
02CE2:  MOVWF  FAA
02CE4:  MOVLW  D7
02CE6:  MOVWF  FA9
02CE8:  BCF    FA6.6
02CEA:  BCF    FA6.7
02CEC:  BSF    FA6.0
02CEE:  MOVF   FA8,W
02CF0:  MOVLB  9
02CF2:  BTFSC  x07.7
02CF4:  BSF    FF2.7
02CF6:  CLRF   x1E
02CF8:  MOVWF  x1D
02CFA:  MOVLB  0
02CFC:  CALL   1D5A
02D00:  MOVFF  03,6E2
02D04:  MOVFF  02,6E1
02D08:  MOVFF  01,6E0
02D0C:  MOVFF  00,6DF
....................    delay_ms(50);  
02D10:  MOVLW  32
02D12:  MOVLB  9
02D14:  MOVWF  x1D
02D16:  MOVLB  0
02D18:  CALL   13A4
....................    if(Derivativo>40){ 
02D1C:  MOVLB  9
02D1E:  CLRF   x0A
02D20:  CLRF   x09
02D22:  MOVLW  20
02D24:  MOVWF  x08
02D26:  MOVLW  84
02D28:  MOVWF  x07
02D2A:  MOVFF  6E2,90E
02D2E:  MOVFF  6E1,90D
02D32:  MOVFF  6E0,90C
02D36:  MOVFF  6DF,90B
02D3A:  MOVLB  0
02D3C:  CALL   1D90
02D40:  BNC   2D8A
....................       Derivativo=30; 
02D42:  MOVLB  6
02D44:  CLRF   xE2
02D46:  CLRF   xE1
02D48:  MOVLW  70
02D4A:  MOVWF  xE0
02D4C:  MOVLW  83
02D4E:  MOVWF  xDF
....................       write_eeprom(471,30); 
02D50:  MOVLW  01
02D52:  MOVWF  FAA
02D54:  MOVLW  D7
02D56:  MOVWF  FA9
02D58:  MOVLW  1E
02D5A:  MOVWF  FA8
02D5C:  BCF    FA6.6
02D5E:  BCF    FA6.7
02D60:  BSF    FA6.2
02D62:  MOVF   FF2,W
02D64:  MOVWF  00
02D66:  BCF    FF2.7
02D68:  MOVLB  F
02D6A:  MOVLW  55
02D6C:  MOVWF  FA7
02D6E:  MOVLW  AA
02D70:  MOVWF  FA7
02D72:  BSF    FA6.1
02D74:  BTFSC  FA6.1
02D76:  BRA    2D74
02D78:  BCF    FA6.2
02D7A:  MOVF   00,W
02D7C:  IORWF  FF2,F
....................       delay_ms(20); 
02D7E:  MOVLW  14
02D80:  MOVLB  9
02D82:  MOVWF  x1D
02D84:  MOVLB  0
02D86:  CALL   13A4
....................    } 
....................    AlTem=make16(read_eeprom(473),read_eeprom(472)); 
02D8A:  MOVFF  FF2,907
02D8E:  BCF    FF2.7
02D90:  MOVLW  01
02D92:  MOVWF  FAA
02D94:  MOVLW  D9
02D96:  MOVWF  FA9
02D98:  BCF    FA6.6
02D9A:  BCF    FA6.7
02D9C:  BSF    FA6.0
02D9E:  MOVF   FA8,W
02DA0:  MOVLB  9
02DA2:  BTFSC  x07.7
02DA4:  BSF    FF2.7
02DA6:  MOVWF  x08
02DA8:  MOVFF  FF2,909
02DAC:  BCF    FF2.7
02DAE:  MOVLW  01
02DB0:  MOVWF  FAA
02DB2:  MOVLW  D8
02DB4:  MOVWF  FA9
02DB6:  BCF    FA6.6
02DB8:  BCF    FA6.7
02DBA:  BSF    FA6.0
02DBC:  MOVF   FA8,W
02DBE:  BTFSC  x09.7
02DC0:  BSF    FF2.7
02DC2:  MOVWF  x0A
02DC4:  MOVFF  908,658
02DC8:  MOVFF  90A,657
....................    delay_ms(50);  
02DCC:  MOVLW  32
02DCE:  MOVWF  x1D
02DD0:  MOVLB  0
02DD2:  CALL   13A4
....................    if(AlTem>500){ 
02DD6:  MOVLB  6
02DD8:  MOVF   x58,W
02DDA:  SUBLW  00
02DDC:  BC    2E62
02DDE:  XORLW  FF
02DE0:  BNZ   2DE8
02DE2:  MOVF   x57,W
02DE4:  SUBLW  F4
02DE6:  BC    2E62
....................       AlTem=200; 
02DE8:  CLRF   x58
02DEA:  MOVLW  C8
02DEC:  MOVWF  x57
....................       write_eeprom(472,200); 
02DEE:  MOVLW  01
02DF0:  MOVWF  FAA
02DF2:  MOVLW  D8
02DF4:  MOVWF  FA9
02DF6:  MOVLW  C8
02DF8:  MOVWF  FA8
02DFA:  BCF    FA6.6
02DFC:  BCF    FA6.7
02DFE:  BSF    FA6.2
02E00:  MOVF   FF2,W
02E02:  MOVWF  00
02E04:  BCF    FF2.7
02E06:  MOVLB  F
02E08:  MOVLW  55
02E0A:  MOVWF  FA7
02E0C:  MOVLW  AA
02E0E:  MOVWF  FA7
02E10:  BSF    FA6.1
02E12:  BTFSC  FA6.1
02E14:  BRA    2E12
02E16:  BCF    FA6.2
02E18:  MOVF   00,W
02E1A:  IORWF  FF2,F
....................       delay_ms(20); 
02E1C:  MOVLW  14
02E1E:  MOVLB  9
02E20:  MOVWF  x1D
02E22:  MOVLB  0
02E24:  CALL   13A4
....................       write_eeprom(473,0); 
02E28:  MOVLW  01
02E2A:  MOVWF  FAA
02E2C:  MOVLW  D9
02E2E:  MOVWF  FA9
02E30:  CLRF   FA8
02E32:  BCF    FA6.6
02E34:  BCF    FA6.7
02E36:  BSF    FA6.2
02E38:  MOVF   FF2,W
02E3A:  MOVWF  00
02E3C:  BCF    FF2.7
02E3E:  MOVLB  F
02E40:  MOVLW  55
02E42:  MOVWF  FA7
02E44:  MOVLW  AA
02E46:  MOVWF  FA7
02E48:  BSF    FA6.1
02E4A:  BTFSC  FA6.1
02E4C:  BRA    2E4A
02E4E:  BCF    FA6.2
02E50:  MOVF   00,W
02E52:  IORWF  FF2,F
....................       delay_ms(20); 
02E54:  MOVLW  14
02E56:  MOVLB  9
02E58:  MOVWF  x1D
02E5A:  MOVLB  0
02E5C:  CALL   13A4
02E60:  MOVLB  6
....................    } 
....................    Modo=read_eeprom(480); 
02E62:  MOVFF  FF2,907
02E66:  BCF    FF2.7
02E68:  MOVLW  01
02E6A:  MOVWF  FAA
02E6C:  MOVLW  E0
02E6E:  MOVWF  FA9
02E70:  BCF    FA6.6
02E72:  BCF    FA6.7
02E74:  BSF    FA6.0
02E76:  MOVF   FA8,W
02E78:  MOVLB  9
02E7A:  BTFSC  x07.7
02E7C:  BSF    FF2.7
02E7E:  MOVLB  6
02E80:  MOVWF  x2F
....................    delay_ms(50);  
02E82:  MOVLW  32
02E84:  MOVLB  9
02E86:  MOVWF  x1D
02E88:  MOVLB  0
02E8A:  CALL   13A4
....................    m_int=read_eeprom(490); 
02E8E:  MOVFF  FF2,907
02E92:  BCF    FF2.7
02E94:  MOVLW  01
02E96:  MOVWF  FAA
02E98:  MOVLW  EA
02E9A:  MOVWF  FA9
02E9C:  BCF    FA6.6
02E9E:  BCF    FA6.7
02EA0:  BSF    FA6.0
02EA2:  MOVF   FA8,W
02EA4:  MOVLB  9
02EA6:  BTFSC  x07.7
02EA8:  BSF    FF2.7
02EAA:  MOVLB  6
02EAC:  MOVWF  x43
....................    delay_ms(50);  
02EAE:  MOVLW  32
02EB0:  MOVLB  9
02EB2:  MOVWF  x1D
02EB4:  MOVLB  0
02EB6:  CALL   13A4
....................    m_dec=read_eeprom(491); 
02EBA:  MOVFF  FF2,907
02EBE:  BCF    FF2.7
02EC0:  MOVLW  01
02EC2:  MOVWF  FAA
02EC4:  MOVLW  EB
02EC6:  MOVWF  FA9
02EC8:  BCF    FA6.6
02ECA:  BCF    FA6.7
02ECC:  BSF    FA6.0
02ECE:  MOVF   FA8,W
02ED0:  MOVLB  9
02ED2:  BTFSC  x07.7
02ED4:  BSF    FF2.7
02ED6:  MOVLB  6
02ED8:  MOVWF  x44
....................    delay_ms(50);  
02EDA:  MOVLW  32
02EDC:  MOVLB  9
02EDE:  MOVWF  x1D
02EE0:  MOVLB  0
02EE2:  CALL   13A4
....................    m=m_int+((float)m_dec/100); 
02EE6:  MOVLB  9
02EE8:  CLRF   x1E
02EEA:  MOVFF  644,91D
02EEE:  MOVLB  0
02EF0:  CALL   1D5A
02EF4:  MOVFF  00,907
02EF8:  MOVFF  01,908
02EFC:  MOVFF  02,909
02F00:  MOVFF  03,90A
02F04:  MOVFF  03,91F
02F08:  MOVFF  02,91E
02F0C:  MOVFF  01,91D
02F10:  MOVFF  00,91C
02F14:  MOVLB  9
02F16:  CLRF   x23
02F18:  CLRF   x22
02F1A:  MOVLW  48
02F1C:  MOVWF  x21
02F1E:  MOVLW  85
02F20:  MOVWF  x20
02F22:  MOVLB  0
02F24:  CALL   1E0A
02F28:  MOVFF  00,907
02F2C:  MOVFF  01,908
02F30:  MOVFF  02,909
02F34:  MOVFF  03,90A
02F38:  MOVLB  9
02F3A:  CLRF   x1E
02F3C:  MOVFF  643,91D
02F40:  MOVLB  0
02F42:  CALL   1D5A
02F46:  BCF    FD8.1
02F48:  MOVFF  03,91D
02F4C:  MOVFF  02,91C
02F50:  MOVFF  01,91B
02F54:  MOVFF  00,91A
02F58:  MOVFF  90A,921
02F5C:  MOVFF  909,920
02F60:  MOVFF  908,91F
02F64:  MOVFF  907,91E
02F68:  CALL   1F68
02F6C:  MOVFF  03,6E6
02F70:  MOVFF  02,6E5
02F74:  MOVFF  01,6E4
02F78:  MOVFF  00,6E3
....................    b16=make16(read_eeprom(493),read_eeprom(492)); 
02F7C:  MOVFF  FF2,907
02F80:  BCF    FF2.7
02F82:  MOVLW  01
02F84:  MOVWF  FAA
02F86:  MOVLW  ED
02F88:  MOVWF  FA9
02F8A:  BCF    FA6.6
02F8C:  BCF    FA6.7
02F8E:  BSF    FA6.0
02F90:  MOVF   FA8,W
02F92:  MOVLB  9
02F94:  BTFSC  x07.7
02F96:  BSF    FF2.7
02F98:  MOVWF  x08
02F9A:  MOVFF  FF2,909
02F9E:  BCF    FF2.7
02FA0:  MOVLW  01
02FA2:  MOVWF  FAA
02FA4:  MOVLW  EC
02FA6:  MOVWF  FA9
02FA8:  BCF    FA6.6
02FAA:  BCF    FA6.7
02FAC:  BSF    FA6.0
02FAE:  MOVF   FA8,W
02FB0:  BTFSC  x09.7
02FB2:  BSF    FF2.7
02FB4:  MOVWF  x0A
02FB6:  MOVFF  908,65A
02FBA:  MOVFF  90A,659
....................    b_dec=read_eeprom(494); 
02FBE:  MOVFF  FF2,907
02FC2:  BCF    FF2.7
02FC4:  MOVLW  01
02FC6:  MOVWF  FAA
02FC8:  MOVLW  EE
02FCA:  MOVWF  FA9
02FCC:  BCF    FA6.6
02FCE:  BCF    FA6.7
02FD0:  BSF    FA6.0
02FD2:  MOVF   FA8,W
02FD4:  BTFSC  x07.7
02FD6:  BSF    FF2.7
02FD8:  MOVLB  6
02FDA:  MOVWF  x46
....................    delay_ms(50);  
02FDC:  MOVLW  32
02FDE:  MOVLB  9
02FE0:  MOVWF  x1D
02FE2:  MOVLB  0
02FE4:  CALL   13A4
....................    b=b16+((float)b_dec/100); 
02FE8:  MOVLB  9
02FEA:  CLRF   x1E
02FEC:  MOVFF  646,91D
02FF0:  MOVLB  0
02FF2:  CALL   1D5A
02FF6:  MOVFF  00,907
02FFA:  MOVFF  01,908
02FFE:  MOVFF  02,909
03002:  MOVFF  03,90A
03006:  MOVFF  03,91F
0300A:  MOVFF  02,91E
0300E:  MOVFF  01,91D
03012:  MOVFF  00,91C
03016:  MOVLB  9
03018:  CLRF   x23
0301A:  CLRF   x22
0301C:  MOVLW  48
0301E:  MOVWF  x21
03020:  MOVLW  85
03022:  MOVWF  x20
03024:  MOVLB  0
03026:  CALL   1E0A
0302A:  MOVFF  00,907
0302E:  MOVFF  01,908
03032:  MOVFF  02,909
03036:  MOVFF  03,90A
0303A:  MOVFF  65A,91E
0303E:  MOVFF  659,91D
03042:  CALL   1D5A
03046:  BCF    FD8.1
03048:  MOVFF  03,91D
0304C:  MOVFF  02,91C
03050:  MOVFF  01,91B
03054:  MOVFF  00,91A
03058:  MOVFF  90A,921
0305C:  MOVFF  909,920
03060:  MOVFF  908,91F
03064:  MOVFF  907,91E
03068:  CALL   1F68
0306C:  MOVFF  03,6EA
03070:  MOVFF  02,6E9
03074:  MOVFF  01,6E8
03078:  MOVFF  00,6E7
....................    if(b<300 || b>400){ 
0307C:  MOVFF  6EA,90A
03080:  MOVFF  6E9,909
03084:  MOVFF  6E8,908
03088:  MOVFF  6E7,907
0308C:  MOVLB  9
0308E:  CLRF   x0E
03090:  CLRF   x0D
03092:  MOVLW  16
03094:  MOVWF  x0C
03096:  MOVLW  87
03098:  MOVWF  x0B
0309A:  MOVLB  0
0309C:  CALL   1D90
030A0:  BC    30C8
030A2:  MOVLB  9
030A4:  CLRF   x0A
030A6:  CLRF   x09
030A8:  MOVLW  48
030AA:  MOVWF  x08
030AC:  MOVLW  87
030AE:  MOVWF  x07
030B0:  MOVFF  6EA,90E
030B4:  MOVFF  6E9,90D
030B8:  MOVFF  6E8,90C
030BC:  MOVFF  6E7,90B
030C0:  MOVLB  0
030C2:  CALL   1D90
030C6:  BNC   3188
....................       b=347.66; 
030C8:  MOVLW  7B
030CA:  MOVLB  6
030CC:  MOVWF  xEA
030CE:  MOVLW  D4
030D0:  MOVWF  xE9
030D2:  MOVLW  2D
030D4:  MOVWF  xE8
030D6:  MOVLW  87
030D8:  MOVWF  xE7
....................       write_eeprom(492,make8(347,0)); 
030DA:  MOVLW  01
030DC:  MOVWF  FAA
030DE:  MOVLW  EC
030E0:  MOVWF  FA9
030E2:  MOVLW  5B
030E4:  MOVWF  FA8
030E6:  BCF    FA6.6
030E8:  BCF    FA6.7
030EA:  BSF    FA6.2
030EC:  MOVF   FF2,W
030EE:  MOVWF  00
030F0:  BCF    FF2.7
030F2:  MOVLB  F
030F4:  MOVLW  55
030F6:  MOVWF  FA7
030F8:  MOVLW  AA
030FA:  MOVWF  FA7
030FC:  BSF    FA6.1
030FE:  BTFSC  FA6.1
03100:  BRA    30FE
03102:  BCF    FA6.2
03104:  MOVF   00,W
03106:  IORWF  FF2,F
....................       delay_ms(10); 
03108:  MOVLW  0A
0310A:  MOVLB  9
0310C:  MOVWF  x1D
0310E:  MOVLB  0
03110:  CALL   13A4
....................       write_eeprom(493,make8(347,1)); 
03114:  MOVLW  01
03116:  MOVWF  FAA
03118:  MOVLW  ED
0311A:  MOVWF  FA9
0311C:  MOVLW  01
0311E:  MOVWF  FA8
03120:  BCF    FA6.6
03122:  BCF    FA6.7
03124:  BSF    FA6.2
03126:  MOVF   FF2,W
03128:  MOVWF  00
0312A:  BCF    FF2.7
0312C:  MOVLB  F
0312E:  MOVLW  55
03130:  MOVWF  FA7
03132:  MOVLW  AA
03134:  MOVWF  FA7
03136:  BSF    FA6.1
03138:  BTFSC  FA6.1
0313A:  BRA    3138
0313C:  BCF    FA6.2
0313E:  MOVF   00,W
03140:  IORWF  FF2,F
....................       delay_ms(10); 
03142:  MOVLW  0A
03144:  MOVLB  9
03146:  MOVWF  x1D
03148:  MOVLB  0
0314A:  CALL   13A4
....................       write_eeprom(494,66); 
0314E:  MOVLW  01
03150:  MOVWF  FAA
03152:  MOVLW  EE
03154:  MOVWF  FA9
03156:  MOVLW  42
03158:  MOVWF  FA8
0315A:  BCF    FA6.6
0315C:  BCF    FA6.7
0315E:  BSF    FA6.2
03160:  MOVF   FF2,W
03162:  MOVWF  00
03164:  BCF    FF2.7
03166:  MOVLB  F
03168:  MOVLW  55
0316A:  MOVWF  FA7
0316C:  MOVLW  AA
0316E:  MOVWF  FA7
03170:  BSF    FA6.1
03172:  BTFSC  FA6.1
03174:  BRA    3172
03176:  BCF    FA6.2
03178:  MOVF   00,W
0317A:  IORWF  FF2,F
....................       delay_ms(10); 
0317C:  MOVLW  0A
0317E:  MOVLB  9
03180:  MOVWF  x1D
03182:  MOVLB  0
03184:  CALL   13A4
....................    } 
....................    if(m<1.0 || m>2.0){ 
03188:  MOVFF  6E6,90A
0318C:  MOVFF  6E5,909
03190:  MOVFF  6E4,908
03194:  MOVFF  6E3,907
03198:  MOVLB  9
0319A:  CLRF   x0E
0319C:  CLRF   x0D
0319E:  CLRF   x0C
031A0:  MOVLW  7F
031A2:  MOVWF  x0B
031A4:  MOVLB  0
031A6:  CALL   1D90
031AA:  BC    31D0
031AC:  MOVLB  9
031AE:  CLRF   x0A
031B0:  CLRF   x09
031B2:  CLRF   x08
031B4:  MOVLW  80
031B6:  MOVWF  x07
031B8:  MOVFF  6E6,90E
031BC:  MOVFF  6E5,90D
031C0:  MOVFF  6E4,90C
031C4:  MOVFF  6E3,90B
031C8:  MOVLB  0
031CA:  CALL   1D90
031CE:  BNC   3256
....................       m=1.79; 
031D0:  MOVLW  B8
031D2:  MOVLB  6
031D4:  MOVWF  xE6
031D6:  MOVLW  1E
031D8:  MOVWF  xE5
031DA:  MOVLW  65
031DC:  MOVWF  xE4
031DE:  MOVLW  7F
031E0:  MOVWF  xE3
....................       write_eeprom(490,1); 
031E2:  MOVLW  01
031E4:  MOVWF  FAA
031E6:  MOVLW  EA
031E8:  MOVWF  FA9
031EA:  MOVLW  01
031EC:  MOVWF  FA8
031EE:  BCF    FA6.6
031F0:  BCF    FA6.7
031F2:  BSF    FA6.2
031F4:  MOVF   FF2,W
031F6:  MOVWF  00
031F8:  BCF    FF2.7
031FA:  MOVLB  F
031FC:  MOVLW  55
031FE:  MOVWF  FA7
03200:  MOVLW  AA
03202:  MOVWF  FA7
03204:  BSF    FA6.1
03206:  BTFSC  FA6.1
03208:  BRA    3206
0320A:  BCF    FA6.2
0320C:  MOVF   00,W
0320E:  IORWF  FF2,F
....................       delay_ms(10); 
03210:  MOVLW  0A
03212:  MOVLB  9
03214:  MOVWF  x1D
03216:  MOVLB  0
03218:  CALL   13A4
....................       write_eeprom(491,79); 
0321C:  MOVLW  01
0321E:  MOVWF  FAA
03220:  MOVLW  EB
03222:  MOVWF  FA9
03224:  MOVLW  4F
03226:  MOVWF  FA8
03228:  BCF    FA6.6
0322A:  BCF    FA6.7
0322C:  BSF    FA6.2
0322E:  MOVF   FF2,W
03230:  MOVWF  00
03232:  BCF    FF2.7
03234:  MOVLB  F
03236:  MOVLW  55
03238:  MOVWF  FA7
0323A:  MOVLW  AA
0323C:  MOVWF  FA7
0323E:  BSF    FA6.1
03240:  BTFSC  FA6.1
03242:  BRA    3240
03244:  BCF    FA6.2
03246:  MOVF   00,W
03248:  IORWF  FF2,F
....................       delay_ms(10); 
0324A:  MOVLW  0A
0324C:  MOVLB  9
0324E:  MOVWF  x1D
03250:  MOVLB  0
03252:  CALL   13A4
....................    } 
.................... } 
03256:  GOTO   7710 (RETURN)
....................  
.................... short PidePassword(int8 MenuAnt, int8 MenuActual, int8 MenuPost, int8 clave0,int8 clave1, int8 clave2,int8 clave3){ 
....................       if(n==0) 
*
03958:  MOVLB  6
0395A:  MOVF   x35,F
0395C:  BNZ   3A00
....................       { 
....................          displayContrasena(Contrasena[0],20,30,1);displayContrasena(Contrasena[1],40,30,0); 
0395E:  MOVFF  68F,910
03962:  MOVLW  14
03964:  MOVLB  9
03966:  MOVWF  x11
03968:  MOVLW  1E
0396A:  MOVWF  x12
0396C:  MOVLW  01
0396E:  MOVWF  x13
03970:  MOVLB  0
03972:  CALL   1CA4
03976:  MOVFF  690,910
0397A:  MOVLW  28
0397C:  MOVLB  9
0397E:  MOVWF  x11
03980:  MOVLW  1E
03982:  MOVWF  x12
03984:  CLRF   x13
03986:  MOVLB  0
03988:  CALL   1CA4
....................          displayContrasena(Contrasena[2],60,30,0);displayContrasena(Contrasena[0],80,30,0); 
0398C:  MOVFF  691,910
03990:  MOVLW  3C
03992:  MOVLB  9
03994:  MOVWF  x11
03996:  MOVLW  1E
03998:  MOVWF  x12
0399A:  CLRF   x13
0399C:  MOVLB  0
0399E:  CALL   1CA4
039A2:  MOVFF  68F,910
039A6:  MOVLW  50
039A8:  MOVLB  9
039AA:  MOVWF  x11
039AC:  MOVLW  1E
039AE:  MOVWF  x12
039B0:  CLRF   x13
039B2:  MOVLB  0
039B4:  CALL   1CA4
....................          strcpy(Menus.Letra,"Clave"); 
039B8:  MOVLW  08
039BA:  MOVWF  FEA
039BC:  MOVLW  E7
039BE:  MOVWF  FE9
039C0:  MOVFF  FF2,90E
039C4:  BCF    FF2.7
039C6:  MOVLW  00
039C8:  CALL   07D8
039CC:  TBLRD*-
039CE:  TBLRD*+
039D0:  MOVF   FF5,W
039D2:  MOVWF  FEE
039D4:  IORLW  00
039D6:  BNZ   39CE
039D8:  MOVLB  9
039DA:  BTFSC  x0E.7
039DC:  BSF    FF2.7
....................          displayMenu(Menus.Letra,20,0,1,3); 
039DE:  MOVLW  08
039E0:  MOVWF  x0F
039E2:  MOVLW  E7
039E4:  MOVWF  x0E
039E6:  MOVLW  14
039E8:  MOVWF  x10
039EA:  CLRF   x11
039EC:  MOVLW  01
039EE:  MOVWF  x12
039F0:  MOVLW  03
039F2:  MOVWF  x13
039F4:  MOVLB  0
039F6:  CALL   1A52
....................          n=1; 
039FA:  MOVLW  01
039FC:  MOVLB  6
039FE:  MOVWF  x35
....................       } 
....................        
....................       if(UP){ 
03A00:  BSF    F92.5
03A02:  BTFSC  F80.5
03A04:  BRA    3ADA
....................          if(Flanco == 0){ 
03A06:  BTFSC  x22.4
03A08:  BRA    3AD8
....................             Flanco = 1;delay_ms(5); 
03A0A:  BSF    x22.4
03A0C:  MOVLW  05
03A0E:  MOVLB  9
03A10:  MOVWF  x1D
03A12:  MOVLB  0
03A14:  CALL   13A4
....................             for(i=1;i<=4;i++){ 
03A18:  MOVLW  01
03A1A:  MOVLB  6
03A1C:  MOVWF  x3A
03A1E:  MOVF   x3A,W
03A20:  SUBLW  04
03A22:  BNC   3AD8
....................                if(unidad==i){ 
03A24:  MOVF   x3A,W
03A26:  SUBWF  x39,W
03A28:  BNZ   3AA0
....................                   Contrasena[i-1]++; 
03A2A:  MOVLW  01
03A2C:  SUBWF  x3A,W
03A2E:  CLRF   03
03A30:  ADDLW  8F
03A32:  MOVWF  FE9
03A34:  MOVLW  06
03A36:  ADDWFC 03,W
03A38:  MOVWF  FEA
03A3A:  INCF   FEF,F
....................                   if(Contrasena[i-1]>9){ 
03A3C:  MOVLW  01
03A3E:  SUBWF  x3A,W
03A40:  CLRF   03
03A42:  ADDLW  8F
03A44:  MOVWF  FE9
03A46:  MOVLW  06
03A48:  ADDWFC 03,W
03A4A:  MOVWF  FEA
03A4C:  BTFSC  FEF.7
03A4E:  BRA    3A68
03A50:  MOVF   FEF,W
03A52:  SUBLW  09
03A54:  BC    3A68
....................                      Contrasena[i-1]=0; 
03A56:  MOVLW  01
03A58:  SUBWF  x3A,W
03A5A:  CLRF   03
03A5C:  ADDLW  8F
03A5E:  MOVWF  FE9
03A60:  MOVLW  06
03A62:  ADDWFC 03,W
03A64:  MOVWF  FEA
03A66:  CLRF   FEF
....................                   } 
....................                   displayContrasena(Contrasena[i-1],i*20,30,1); 
03A68:  MOVLW  01
03A6A:  SUBWF  x3A,W
03A6C:  CLRF   03
03A6E:  ADDLW  8F
03A70:  MOVWF  FE9
03A72:  MOVLW  06
03A74:  ADDWFC 03,W
03A76:  MOVWF  FEA
03A78:  MOVFF  FEF,90E
03A7C:  MOVF   x3A,W
03A7E:  MULLW  14
03A80:  MOVFF  FF3,90F
03A84:  MOVLB  9
03A86:  MOVFF  90E,910
03A8A:  MOVFF  90F,911
03A8E:  MOVLW  1E
03A90:  MOVWF  x12
03A92:  MOVLW  01
03A94:  MOVWF  x13
03A96:  MOVLB  0
03A98:  CALL   1CA4
....................                }else{ 
03A9C:  BRA    3AD2
03A9E:  MOVLB  6
....................                   displayContrasena(Contrasena[i-1],i*20,30,0); 
03AA0:  MOVLW  01
03AA2:  SUBWF  x3A,W
03AA4:  CLRF   03
03AA6:  ADDLW  8F
03AA8:  MOVWF  FE9
03AAA:  MOVLW  06
03AAC:  ADDWFC 03,W
03AAE:  MOVWF  FEA
03AB0:  MOVFF  FEF,90E
03AB4:  MOVF   x3A,W
03AB6:  MULLW  14
03AB8:  MOVFF  FF3,90F
03ABC:  MOVLB  9
03ABE:  MOVFF  90E,910
03AC2:  MOVFF  90F,911
03AC6:  MOVLW  1E
03AC8:  MOVWF  x12
03ACA:  CLRF   x13
03ACC:  MOVLB  0
03ACE:  CALL   1CA4
....................                } 
....................             } 
03AD2:  MOVLB  6
03AD4:  INCF   x3A,F
03AD6:  BRA    3A1E
....................          } 
....................       }else{ 
03AD8:  BRA    3ADC
....................          Flanco = 0; 
03ADA:  BCF    x22.4
....................       } 
....................              
....................       if(DOWN){ 
03ADC:  BSF    F96.0
03ADE:  BTFSC  F84.0
03AE0:  BRA    3BB4
....................          if(Flanco2 == 0){ 
03AE2:  BTFSC  x22.6
03AE4:  BRA    3BB2
....................             Flanco2 = 1;delay_ms(5); 
03AE6:  BSF    x22.6
03AE8:  MOVLW  05
03AEA:  MOVLB  9
03AEC:  MOVWF  x1D
03AEE:  MOVLB  0
03AF0:  CALL   13A4
....................             for(i=1;i<=4;i++){ 
03AF4:  MOVLW  01
03AF6:  MOVLB  6
03AF8:  MOVWF  x3A
03AFA:  MOVF   x3A,W
03AFC:  SUBLW  04
03AFE:  BNC   3BB2
....................                if(unidad==i){ 
03B00:  MOVF   x3A,W
03B02:  SUBWF  x39,W
03B04:  BNZ   3B7A
....................                   Contrasena[i-1]--; 
03B06:  MOVLW  01
03B08:  SUBWF  x3A,W
03B0A:  CLRF   03
03B0C:  ADDLW  8F
03B0E:  MOVWF  FE9
03B10:  MOVLW  06
03B12:  ADDWFC 03,W
03B14:  MOVWF  FEA
03B16:  DECF   FEF,F
....................                   if(Contrasena[i-1]<0){ 
03B18:  MOVLW  01
03B1A:  SUBWF  x3A,W
03B1C:  CLRF   03
03B1E:  ADDLW  8F
03B20:  MOVWF  FE9
03B22:  MOVLW  06
03B24:  ADDWFC 03,W
03B26:  MOVWF  FEA
03B28:  BTFSC  FEF.7
03B2A:  BRA    3B2E
03B2C:  BRA    3B42
....................                      Contrasena[i-1]=9; 
03B2E:  MOVLW  01
03B30:  SUBWF  x3A,W
03B32:  CLRF   03
03B34:  ADDLW  8F
03B36:  MOVWF  FE9
03B38:  MOVLW  06
03B3A:  ADDWFC 03,W
03B3C:  MOVWF  FEA
03B3E:  MOVLW  09
03B40:  MOVWF  FEF
....................                   } 
....................                   displayContrasena(Contrasena[i-1],i*20,30,1); 
03B42:  MOVLW  01
03B44:  SUBWF  x3A,W
03B46:  CLRF   03
03B48:  ADDLW  8F
03B4A:  MOVWF  FE9
03B4C:  MOVLW  06
03B4E:  ADDWFC 03,W
03B50:  MOVWF  FEA
03B52:  MOVFF  FEF,90E
03B56:  MOVF   x3A,W
03B58:  MULLW  14
03B5A:  MOVFF  FF3,90F
03B5E:  MOVLB  9
03B60:  MOVFF  90E,910
03B64:  MOVFF  90F,911
03B68:  MOVLW  1E
03B6A:  MOVWF  x12
03B6C:  MOVLW  01
03B6E:  MOVWF  x13
03B70:  MOVLB  0
03B72:  CALL   1CA4
....................                }else{ 
03B76:  BRA    3BAC
03B78:  MOVLB  6
....................                   displayContrasena(Contrasena[i-1],i*20,30,0); 
03B7A:  MOVLW  01
03B7C:  SUBWF  x3A,W
03B7E:  CLRF   03
03B80:  ADDLW  8F
03B82:  MOVWF  FE9
03B84:  MOVLW  06
03B86:  ADDWFC 03,W
03B88:  MOVWF  FEA
03B8A:  MOVFF  FEF,90E
03B8E:  MOVF   x3A,W
03B90:  MULLW  14
03B92:  MOVFF  FF3,90F
03B96:  MOVLB  9
03B98:  MOVFF  90E,910
03B9C:  MOVFF  90F,911
03BA0:  MOVLW  1E
03BA2:  MOVWF  x12
03BA4:  CLRF   x13
03BA6:  MOVLB  0
03BA8:  CALL   1CA4
....................                } 
....................             }       
03BAC:  MOVLB  6
03BAE:  INCF   x3A,F
03BB0:  BRA    3AFA
....................          }      
....................       }else{ 
03BB2:  BRA    3BB6
....................          Flanco2 = 0; 
03BB4:  BCF    x22.6
....................       } 
....................              
....................       if(RIGHT){ 
03BB6:  BSF    F96.1
03BB8:  BTFSC  F84.1
03BBA:  BRA    3C54
....................          if(Flanco1 == 0){ 
03BBC:  BTFSC  x22.5
03BBE:  BRA    3C52
....................             Flanco1 = 1;delay_ms(5);unidad++; 
03BC0:  BSF    x22.5
03BC2:  MOVLW  05
03BC4:  MOVLB  9
03BC6:  MOVWF  x1D
03BC8:  MOVLB  0
03BCA:  CALL   13A4
03BCE:  MOVLB  6
03BD0:  INCF   x39,F
....................             for(i=1;i<=4;i++){ 
03BD2:  MOVLW  01
03BD4:  MOVWF  x3A
03BD6:  MOVF   x3A,W
03BD8:  SUBLW  04
03BDA:  BNC   3C52
....................                if(unidad==i){ 
03BDC:  MOVF   x3A,W
03BDE:  SUBWF  x39,W
03BE0:  BNZ   3C1A
....................                   displayContrasena(Contrasena[i-1],i*20,30,1); 
03BE2:  MOVLW  01
03BE4:  SUBWF  x3A,W
03BE6:  CLRF   03
03BE8:  ADDLW  8F
03BEA:  MOVWF  FE9
03BEC:  MOVLW  06
03BEE:  ADDWFC 03,W
03BF0:  MOVWF  FEA
03BF2:  MOVFF  FEF,90E
03BF6:  MOVF   x3A,W
03BF8:  MULLW  14
03BFA:  MOVFF  FF3,90F
03BFE:  MOVLB  9
03C00:  MOVFF  90E,910
03C04:  MOVFF  90F,911
03C08:  MOVLW  1E
03C0A:  MOVWF  x12
03C0C:  MOVLW  01
03C0E:  MOVWF  x13
03C10:  MOVLB  0
03C12:  CALL   1CA4
....................                }else{ 
03C16:  BRA    3C4C
03C18:  MOVLB  6
....................                   displayContrasena(Contrasena[i-1],i*20,30,0); 
03C1A:  MOVLW  01
03C1C:  SUBWF  x3A,W
03C1E:  CLRF   03
03C20:  ADDLW  8F
03C22:  MOVWF  FE9
03C24:  MOVLW  06
03C26:  ADDWFC 03,W
03C28:  MOVWF  FEA
03C2A:  MOVFF  FEF,90E
03C2E:  MOVF   x3A,W
03C30:  MULLW  14
03C32:  MOVFF  FF3,90F
03C36:  MOVLB  9
03C38:  MOVFF  90E,910
03C3C:  MOVFF  90F,911
03C40:  MOVLW  1E
03C42:  MOVWF  x12
03C44:  CLRF   x13
03C46:  MOVLB  0
03C48:  CALL   1CA4
....................                } 
....................             } 
03C4C:  MOVLB  6
03C4E:  INCF   x3A,F
03C50:  BRA    3BD6
....................          } 
....................       }else{ 
03C52:  BRA    3C56
....................          Flanco1 = 0; 
03C54:  BCF    x22.5
....................       } 
....................        
....................       if(LEFT){ 
03C56:  BSF    F96.2
03C58:  BTFSC  F84.2
03C5A:  BRA    3CA4
....................          delay_ms(100); 
03C5C:  MOVLW  64
03C5E:  MOVLB  9
03C60:  MOVWF  x1D
03C62:  MOVLB  0
03C64:  CALL   13A4
....................          if(LEFT){ 
03C68:  BSF    F96.2
03C6A:  BTFSC  F84.2
03C6C:  BRA    3CA2
....................             Menu=MenuAnt;glcd_fillScreen(OFF);n=0;Opcion=1;unidad=1; 
03C6E:  MOVFF  907,638
03C72:  MOVLB  9
03C74:  CLRF   x0E
03C76:  MOVLB  0
03C78:  CALL   1424
03C7C:  MOVLB  6
03C7E:  CLRF   x35
03C80:  MOVLW  01
03C82:  MOVWF  x3F
03C84:  MOVWF  x39
....................             Contrasena[0]=0;Contrasena[1]=0;Contrasena[2]=0;Contrasena[3]=0; 
03C86:  CLRF   x8F
03C88:  CLRF   x90
03C8A:  CLRF   x91
03C8C:  CLRF   x92
....................             glcd_fillScreen(OFF);glcd_update(); 
03C8E:  MOVLB  9
03C90:  CLRF   x0E
03C92:  MOVLB  0
03C94:  CALL   1424
03C98:  CALL   147E
....................             return 1; 
03C9C:  MOVLW  01
03C9E:  MOVWF  01
03CA0:  BRA    3F40
03CA2:  MOVLB  6
....................          } 
....................       } 
....................      
....................       if(unidad>4){ 
03CA4:  MOVF   x39,W
03CA6:  SUBLW  04
03CA8:  BTFSC  FD8.0
03CAA:  BRA    3F42
....................          glcd_fillScreen(OFF);unidad=1; 
03CAC:  MOVLB  9
03CAE:  CLRF   x0E
03CB0:  MOVLB  0
03CB2:  CALL   1424
03CB6:  MOVLW  01
03CB8:  MOVLB  6
03CBA:  MOVWF  x39
....................          /* 
....................          if(Contrasena[0]==3&&Contrasena[1]==8&&Contrasena[2]==9&&Contrasena[3]==2 && MenuActual==0){ // Si Ingresa clave para reset general del sistema. 
....................             write_eeprom(0,0);delay_ms(20);write_eeprom(1,0);delay_ms(20);// Reestablece a contrasea de Fabrica y reinicia Programa. 
....................             write_eeprom(2,0);delay_ms(20);write_eeprom(3,0);delay_ms(20); 
....................             reset_cpu(); 
....................          } 
....................       */ 
....................          if((Contrasena[0]==clave0)&&(Contrasena[1]==clave1)&&(Contrasena[2]==clave2)&&(Contrasena[3]==clave3)){ 
03CBC:  MOVLB  9
03CBE:  MOVF   x0A,W
03CC0:  MOVLB  6
03CC2:  SUBWF  x8F,W
03CC4:  BTFSS  FD8.2
03CC6:  BRA    3DB0
03CC8:  MOVLB  9
03CCA:  MOVF   x0B,W
03CCC:  MOVLB  6
03CCE:  SUBWF  x90,W
03CD0:  BNZ   3DB0
03CD2:  MOVLB  9
03CD4:  MOVF   x0C,W
03CD6:  MOVLB  6
03CD8:  SUBWF  x91,W
03CDA:  BNZ   3DB0
03CDC:  MOVLB  9
03CDE:  MOVF   x0D,W
03CE0:  MOVLB  6
03CE2:  SUBWF  x92,W
03CE4:  BNZ   3DB0
....................             glcd_fillScreen(OFF); 
03CE6:  MOVLB  9
03CE8:  CLRF   x0E
03CEA:  MOVLB  0
03CEC:  CALL   1424
....................             strcpy(Menus.Letra,"Clave"); 
03CF0:  MOVLW  08
03CF2:  MOVWF  FEA
03CF4:  MOVLW  E7
03CF6:  MOVWF  FE9
03CF8:  MOVFF  FF2,90E
03CFC:  BCF    FF2.7
03CFE:  MOVLW  00
03D00:  CALL   07D8
03D04:  TBLRD*-
03D06:  TBLRD*+
03D08:  MOVF   FF5,W
03D0A:  MOVWF  FEE
03D0C:  IORLW  00
03D0E:  BNZ   3D06
03D10:  MOVLB  9
03D12:  BTFSC  x0E.7
03D14:  BSF    FF2.7
....................             displayMenu(Menus.Letra,30,0,0,2); 
03D16:  MOVLW  08
03D18:  MOVWF  x0F
03D1A:  MOVLW  E7
03D1C:  MOVWF  x0E
03D1E:  MOVLW  1E
03D20:  MOVWF  x10
03D22:  CLRF   x11
03D24:  CLRF   x12
03D26:  MOVLW  02
03D28:  MOVWF  x13
03D2A:  MOVLB  0
03D2C:  CALL   1A52
....................             strcpy(Menus.Letra,"Correcta"); 
03D30:  MOVLW  08
03D32:  MOVWF  FEA
03D34:  MOVLW  E7
03D36:  MOVWF  FE9
03D38:  MOVFF  FF2,90E
03D3C:  BCF    FF2.7
03D3E:  MOVLW  00
03D40:  CALL   07FC
03D44:  TBLRD*-
03D46:  TBLRD*+
03D48:  MOVF   FF5,W
03D4A:  MOVWF  FEE
03D4C:  IORLW  00
03D4E:  BNZ   3D46
03D50:  MOVLB  9
03D52:  BTFSC  x0E.7
03D54:  BSF    FF2.7
....................             displayMenu(Menus.Letra,15,30,0,2); 
03D56:  MOVLW  08
03D58:  MOVWF  x0F
03D5A:  MOVLW  E7
03D5C:  MOVWF  x0E
03D5E:  MOVLW  0F
03D60:  MOVWF  x10
03D62:  MOVLW  1E
03D64:  MOVWF  x11
03D66:  CLRF   x12
03D68:  MOVLW  02
03D6A:  MOVWF  x13
03D6C:  MOVLB  0
03D6E:  CALL   1A52
....................             Menu=MenuPost;glcd_update();delay_ms(1000);glcd_fillScreen(OFF); 
03D72:  MOVFF  909,638
03D76:  CALL   147E
03D7A:  MOVLW  04
03D7C:  MOVLB  9
03D7E:  MOVWF  x0E
03D80:  MOVLW  FA
03D82:  MOVWF  x1D
03D84:  MOVLB  0
03D86:  CALL   13A4
03D8A:  MOVLB  9
03D8C:  DECFSZ x0E,F
03D8E:  BRA    3D80
03D90:  CLRF   x0E
03D92:  MOVLB  0
03D94:  CALL   1424
....................             Contrasena[0]=0;Contrasena[1]=0;Contrasena[2]=0;Contrasena[3]=0; 
03D98:  MOVLB  6
03D9A:  CLRF   x8F
03D9C:  CLRF   x90
03D9E:  CLRF   x91
03DA0:  CLRF   x92
....................             n=0; 
03DA2:  CLRF   x35
....................             return 1; 
03DA4:  MOVLW  01
03DA6:  MOVWF  01
03DA8:  MOVLB  0
03DAA:  BRA    3F40
....................          }else{ 
03DAC:  BRA    3F40
03DAE:  MOVLB  6
....................             glcd_fillScreen(OFF); 
03DB0:  MOVLB  9
03DB2:  CLRF   x0E
03DB4:  MOVLB  0
03DB6:  CALL   1424
....................             strcpy(Menus.Letra,"Clave"); 
03DBA:  MOVLW  08
03DBC:  MOVWF  FEA
03DBE:  MOVLW  E7
03DC0:  MOVWF  FE9
03DC2:  MOVFF  FF2,90E
03DC6:  BCF    FF2.7
03DC8:  MOVLW  00
03DCA:  CALL   07D8
03DCE:  TBLRD*-
03DD0:  TBLRD*+
03DD2:  MOVF   FF5,W
03DD4:  MOVWF  FEE
03DD6:  IORLW  00
03DD8:  BNZ   3DD0
03DDA:  MOVLB  9
03DDC:  BTFSC  x0E.7
03DDE:  BSF    FF2.7
....................             displayMenu(Menus.Letra,30,0,0,2); 
03DE0:  MOVLW  08
03DE2:  MOVWF  x0F
03DE4:  MOVLW  E7
03DE6:  MOVWF  x0E
03DE8:  MOVLW  1E
03DEA:  MOVWF  x10
03DEC:  CLRF   x11
03DEE:  CLRF   x12
03DF0:  MOVLW  02
03DF2:  MOVWF  x13
03DF4:  MOVLB  0
03DF6:  CALL   1A52
....................             strcpy(Menus.Letra,"Incorrecta"); 
03DFA:  MOVLW  08
03DFC:  MOVWF  FEA
03DFE:  MOVLW  E7
03E00:  MOVWF  FE9
03E02:  MOVFF  FF2,90E
03E06:  BCF    FF2.7
03E08:  MOVLW  00
03E0A:  CALL   0824
03E0E:  TBLRD*-
03E10:  TBLRD*+
03E12:  MOVF   FF5,W
03E14:  MOVWF  FEE
03E16:  IORLW  00
03E18:  BNZ   3E10
03E1A:  MOVLB  9
03E1C:  BTFSC  x0E.7
03E1E:  BSF    FF2.7
....................             displayMenu(Menus.Letra,0,30,0,2); 
03E20:  MOVLW  08
03E22:  MOVWF  x0F
03E24:  MOVLW  E7
03E26:  MOVWF  x0E
03E28:  CLRF   x10
03E2A:  MOVLW  1E
03E2C:  MOVWF  x11
03E2E:  CLRF   x12
03E30:  MOVLW  02
03E32:  MOVWF  x13
03E34:  MOVLB  0
03E36:  CALL   1A52
....................             unidad=1;glcd_update();delay_ms(1000);Contrasena[0]=0;Contrasena[1]=0;Contrasena[2]=0;Contrasena[3]=0;glcd_fillScreen(OFF); 
03E3A:  MOVLW  01
03E3C:  MOVLB  6
03E3E:  MOVWF  x39
03E40:  MOVLB  0
03E42:  CALL   147E
03E46:  MOVLW  04
03E48:  MOVLB  9
03E4A:  MOVWF  x0E
03E4C:  MOVLW  FA
03E4E:  MOVWF  x1D
03E50:  MOVLB  0
03E52:  CALL   13A4
03E56:  MOVLB  9
03E58:  DECFSZ x0E,F
03E5A:  BRA    3E4C
03E5C:  MOVLB  6
03E5E:  CLRF   x8F
03E60:  CLRF   x90
03E62:  CLRF   x91
03E64:  CLRF   x92
03E66:  MOVLB  9
03E68:  CLRF   x0E
03E6A:  MOVLB  0
03E6C:  CALL   1424
....................             glcd_rect(0, 0, 127, 25, YES, ON);strcpy(Menus.Letra,"Clave");glcd_text57(25, 1, Menus.Letra, 3, OFF);displayContrasena(Contrasena[0],20,30,1); 
03E70:  MOVLB  9
03E72:  CLRF   x1F
03E74:  CLRF   x20
03E76:  MOVLW  7F
03E78:  MOVWF  x21
03E7A:  MOVLW  19
03E7C:  MOVWF  x22
03E7E:  MOVLW  01
03E80:  MOVWF  x23
03E82:  MOVWF  x24
03E84:  MOVLB  0
03E86:  CALL   17D8
03E8A:  MOVLW  08
03E8C:  MOVWF  FEA
03E8E:  MOVLW  E7
03E90:  MOVWF  FE9
03E92:  MOVFF  FF2,90E
03E96:  BCF    FF2.7
03E98:  MOVLW  00
03E9A:  CALL   07D8
03E9E:  TBLRD*-
03EA0:  TBLRD*+
03EA2:  MOVF   FF5,W
03EA4:  MOVWF  FEE
03EA6:  IORLW  00
03EA8:  BNZ   3EA0
03EAA:  MOVLB  9
03EAC:  BTFSC  x0E.7
03EAE:  BSF    FF2.7
03EB0:  MOVLW  19
03EB2:  MOVWF  x1F
03EB4:  MOVLW  01
03EB6:  MOVWF  x20
03EB8:  MOVLW  08
03EBA:  MOVWF  x22
03EBC:  MOVLW  E7
03EBE:  MOVWF  x21
03EC0:  MOVLW  03
03EC2:  MOVWF  x23
03EC4:  CLRF   x24
03EC6:  MOVLB  0
03EC8:  CALL   189A
03ECC:  MOVFF  68F,910
03ED0:  MOVLW  14
03ED2:  MOVLB  9
03ED4:  MOVWF  x11
03ED6:  MOVLW  1E
03ED8:  MOVWF  x12
03EDA:  MOVLW  01
03EDC:  MOVWF  x13
03EDE:  MOVLB  0
03EE0:  CALL   1CA4
....................             displayContrasena(Contrasena[1],40,30,0);displayContrasena(Contrasena[2],60,30,0);displayContrasena(Contrasena[0],80,30,0); 
03EE4:  MOVFF  690,910
03EE8:  MOVLW  28
03EEA:  MOVLB  9
03EEC:  MOVWF  x11
03EEE:  MOVLW  1E
03EF0:  MOVWF  x12
03EF2:  CLRF   x13
03EF4:  MOVLB  0
03EF6:  CALL   1CA4
03EFA:  MOVFF  691,910
03EFE:  MOVLW  3C
03F00:  MOVLB  9
03F02:  MOVWF  x11
03F04:  MOVLW  1E
03F06:  MOVWF  x12
03F08:  CLRF   x13
03F0A:  MOVLB  0
03F0C:  CALL   1CA4
03F10:  MOVFF  68F,910
03F14:  MOVLW  50
03F16:  MOVLB  9
03F18:  MOVWF  x11
03F1A:  MOVLW  1E
03F1C:  MOVWF  x12
03F1E:  CLRF   x13
03F20:  MOVLB  0
03F22:  CALL   1CA4
....................             Menu=MenuAnt;glcd_fillScreen(OFF);n=0; 
03F26:  MOVFF  907,638
03F2A:  MOVLB  9
03F2C:  CLRF   x0E
03F2E:  MOVLB  0
03F30:  CALL   1424
03F34:  MOVLB  6
03F36:  CLRF   x35
....................             return 0; 
03F38:  MOVLW  00
03F3A:  MOVWF  01
03F3C:  MOVLB  0
03F3E:  BRA    3F40
03F40:  MOVLB  6
....................          } 
....................       } 
.................... } 
03F42:  MOVLB  0
03F44:  RETLW  00
....................  
....................  
.................... #int_TIMER1 
.................... void temp1s(void){ 
....................    //set_timer1(45612);  // 5 ms 5536 , Posiblemente cargar con 22144 debido a F=12MHz 
....................    set_timer1(40536); 
*
012F0:  MOVLW  9E
012F2:  MOVWF  FCF
012F4:  MOVLW  58
012F6:  MOVWF  FCE
....................    tiempos++; 
012F8:  MOVLB  6
012FA:  INCF   x47,F
012FC:  BTFSC  FD8.2
012FE:  INCF   x48,F
....................    tiempos3++; 
01300:  INCF   x49,F
01302:  BTFSC  FD8.2
01304:  INCF   x4A,F
....................    tiempoctrl++; 
01306:  INCF   x4B,F
01308:  BTFSC  FD8.2
0130A:  INCF   x4C,F
....................     
....................    if(Control==1){ 
0130C:  DECFSZ x34,W
0130E:  BRA    133C
....................       if(tiempoctrl>=Tc) // Si el tiempo de control es mayor al tiempo de ciclo se reinicia tiempo de control 
01310:  MOVF   x56,W
01312:  SUBWF  x4C,W
01314:  BNC   1322
01316:  BNZ   131E
01318:  MOVF   x55,W
0131A:  SUBWF  x4B,W
0131C:  BNC   1322
....................          tiempoctrl=0; 
0131E:  CLRF   x4C
01320:  CLRF   x4B
....................        // tiempoctrl incrementa una unidad cada 5ms, por eso se dividen los tiempos por 0.005. 
....................        
....................       if(tiempoctrl<=Tp) // Si el tiempo es menor o igual al tiempo de control se enciende la resistencia de lo contrario se apaga. 
01322:  MOVF   x4C,W
01324:  SUBWF  x54,W
01326:  BNC   1336
01328:  BNZ   1330
0132A:  MOVF   x4B,W
0132C:  SUBWF  x53,W
0132E:  BNC   1336
....................          Resistencia_on;  
01330:  BSF    F8B.0
01332:  BCF    F94.0
....................       else          
01334:  BRA    133A
....................          Resistencia_off; 
01336:  BCF    F8B.0
01338:  BCF    F94.0
....................    }else{ 
0133A:  BRA    1340
....................       Resistencia_off; 
0133C:  BCF    F8B.0
0133E:  BCF    F94.0
....................    } 
....................     
....................    if(tiempos3>=200){ 
01340:  MOVF   x4A,F
01342:  BNZ   134A
01344:  MOVF   x49,W
01346:  SUBLW  C7
01348:  BC    135E
....................       Lectura2=1; 
0134A:  MOVLW  01
0134C:  MOVWF  x2A
....................       if(flagup) 
0134E:  BTFSS  x22.0
01350:  BRA    1354
....................          tiempoup++; 
01352:  INCF   x2B,F
....................       if(flagdn) 
01354:  BTFSS  x22.1
01356:  BRA    135A
....................          tiempodn++;    
01358:  INCF   x2C,F
....................       tiempos3=0; 
0135A:  CLRF   x4A
0135C:  CLRF   x49
....................    } 
....................      
....................    if(tiempos>=200){  // 12000 para que incremente cada minuto, 200para que incremente cada segundo. 
0135E:  MOVF   x48,F
01360:  BNZ   1368
01362:  MOVF   x47,W
01364:  SUBLW  C7
01366:  BC    139C
....................       tiempos=0;Lectura=1;tiemporeset++;TiempoControl++;tiemporecta++;mensaje=!mensaje; 
01368:  CLRF   x48
0136A:  CLRF   x47
0136C:  BSF    x30.0
0136E:  INCF   x32,F
01370:  INCF   x3E,F
01372:  INCF   x28,F
01374:  BTG    x22.3
....................     
....................       if(flag_setpoint==1) 
01376:  BTFSS  x30.6
01378:  BRA    1380
....................          tiemposetpoint++; 
0137A:  INCF   x51,F
0137C:  BTFSC  FD8.2
0137E:  INCF   x52,F
....................        
....................       if(tiempo_esterilizacion==1 || tiempo_esterilizacion==2){                
01380:  DECFSZ x40,W
01382:  BRA    1386
01384:  BRA    138C
01386:  MOVF   x40,W
01388:  SUBLW  02
0138A:  BNZ   1392
....................          tinicio++; 
0138C:  INCF   x4D,F
0138E:  BTFSC  FD8.2
01390:  INCF   x4E,F
....................       } 
....................           
....................       if(flag_tiempocalentamiento==1) 
01392:  BTFSS  x30.4
01394:  BRA    139C
....................          tiempocalentamiento++; 
01396:  INCF   x4F,F
01398:  BTFSC  FD8.2
0139A:  INCF   x50,F
....................    }         
.................... } 
....................  
0139C:  BCF    F9E.0
0139E:  MOVLB  0
013A0:  GOTO   0058
.................... void main()  
.................... {  
*
06FFA:  CLRF   FF8
06FFC:  BCF    FD0.7
06FFE:  BSF    07.7
07000:  CLRF   FEA
07002:  CLRF   FE9
07004:  MOVLB  4
07006:  CLRF   x37
07008:  CLRF   x38
0700A:  CLRF   x39
0700C:  MOVLB  6
0700E:  BCF    x22.0
07010:  BCF    x22.1
07012:  BCF    x22.2
07014:  BCF    x22.3
07016:  CLRF   x23
07018:  CLRF   x24
0701A:  CLRF   x25
0701C:  CLRF   x26
0701E:  MOVLW  0A
07020:  MOVWF  x27
07022:  CLRF   x28
07024:  CLRF   x29
07026:  CLRF   x2A
07028:  CLRF   x2B
0702A:  CLRF   x2C
0702C:  CLRF   x2D
0702E:  CLRF   x2E
07030:  MOVLW  05
07032:  MOVWF  x2F
07034:  BCF    x22.4
07036:  BCF    x22.5
07038:  BCF    x22.6
0703A:  BSF    x22.7
0703C:  BCF    x30.0
0703E:  BCF    x30.1
07040:  BCF    x30.2
07042:  BCF    x30.3
07044:  BCF    x30.4
07046:  BCF    x30.5
07048:  BCF    x30.6
0704A:  BCF    x30.7
0704C:  CLRF   x31
0704E:  CLRF   x32
07050:  MOVLW  01
07052:  MOVWF  x33
07054:  CLRF   x34
07056:  CLRF   x35
07058:  CLRF   x36
0705A:  CLRF   x37
0705C:  CLRF   x38
0705E:  MOVWF  x39
07060:  CLRF   x3A
07062:  MOVWF  x3B
07064:  CLRF   x3C
07066:  CLRF   x3D
07068:  CLRF   x3E
0706A:  MOVWF  x3F
0706C:  CLRF   x40
0706E:  CLRF   x41
07070:  MOVLW  0A
07072:  MOVWF  x42
07074:  CLRF   x43
07076:  CLRF   x44
07078:  CLRF   x45
0707A:  CLRF   x46
0707C:  CLRF   x48
0707E:  CLRF   x47
07080:  CLRF   x4A
07082:  CLRF   x49
07084:  CLRF   x4C
07086:  CLRF   x4B
07088:  CLRF   x4E
0708A:  CLRF   x4D
0708C:  CLRF   x50
0708E:  CLRF   x4F
07090:  CLRF   x52
07092:  CLRF   x51
07094:  CLRF   x54
07096:  CLRF   x53
07098:  CLRF   x56
0709A:  CLRF   x55
0709C:  CLRF   x58
0709E:  MOVLW  14
070A0:  MOVWF  x57
070A2:  CLRF   x5A
070A4:  CLRF   x59
070A6:  CLRF   x5E
070A8:  CLRF   x5D
070AA:  CLRF   x5C
070AC:  CLRF   x5B
070AE:  CLRF   x62
070B0:  CLRF   x61
070B2:  MOVLW  20
070B4:  MOVWF  x60
070B6:  MOVLW  83
070B8:  MOVWF  x5F
070BA:  CLRF   x66
070BC:  CLRF   x65
070BE:  CLRF   x64
070C0:  CLRF   x63
070C2:  CLRF   x6A
070C4:  CLRF   x69
070C6:  CLRF   x68
070C8:  CLRF   x67
070CA:  CLRF   x6E
070CC:  CLRF   x6D
070CE:  CLRF   x6C
070D0:  CLRF   x6B
070D2:  CLRF   x72
070D4:  CLRF   x71
070D6:  CLRF   x70
070D8:  CLRF   x6F
070DA:  CLRF   x76
070DC:  CLRF   x75
070DE:  CLRF   x74
070E0:  CLRF   x73
070E2:  CLRF   x7A
070E4:  CLRF   x79
070E6:  CLRF   x78
070E8:  CLRF   x77
070EA:  CLRF   x7E
070EC:  CLRF   x7D
070EE:  CLRF   x7C
070F0:  CLRF   x7B
070F2:  CLRF   x82
070F4:  CLRF   x81
070F6:  CLRF   x80
070F8:  CLRF   x7F
070FA:  CLRF   x86
070FC:  CLRF   x85
070FE:  CLRF   x84
07100:  CLRF   x83
07102:  CLRF   x9A
07104:  CLRF   x99
07106:  CLRF   x98
07108:  CLRF   x97
0710A:  CLRF   x9E
0710C:  CLRF   x9D
0710E:  MOVLW  20
07110:  MOVWF  x9C
07112:  MOVLW  82
07114:  MOVWF  x9B
07116:  CLRF   xA2
07118:  CLRF   xA1
0711A:  CLRF   xA0
0711C:  CLRF   x9F
0711E:  CLRF   xA6
07120:  CLRF   xA5
07122:  CLRF   xA4
07124:  CLRF   xA3
07126:  CLRF   xAA
07128:  CLRF   xA9
0712A:  CLRF   xA8
0712C:  CLRF   xA7
0712E:  CLRF   xAE
07130:  CLRF   xAD
07132:  CLRF   xAC
07134:  CLRF   xAB
07136:  CLRF   xB2
07138:  CLRF   xB1
0713A:  CLRF   xB0
0713C:  CLRF   xAF
0713E:  CLRF   xB6
07140:  CLRF   xB5
07142:  CLRF   xB4
07144:  CLRF   xB3
07146:  CLRF   xBA
07148:  CLRF   xB9
0714A:  MOVLW  40
0714C:  MOVWF  xB8
0714E:  MOVLW  80
07150:  MOVWF  xB7
07152:  CLRF   xBE
07154:  CLRF   xBD
07156:  MOVLW  40
07158:  MOVWF  xBC
0715A:  MOVLW  80
0715C:  MOVWF  xBB
0715E:  CLRF   xC2
07160:  CLRF   xC1
07162:  MOVLW  16
07164:  MOVWF  xC0
07166:  MOVLW  86
07168:  MOVWF  xBF
0716A:  CLRF   xC6
0716C:  CLRF   xC5
0716E:  MOVLW  70
07170:  MOVWF  xC4
07172:  MOVLW  86
07174:  MOVWF  xC3
07176:  CLRF   xCA
07178:  CLRF   xC9
0717A:  CLRF   xC8
0717C:  CLRF   xC7
0717E:  CLRF   xCE
07180:  CLRF   xCD
07182:  CLRF   xCC
07184:  CLRF   xCB
07186:  CLRF   xD2
07188:  CLRF   xD1
0718A:  CLRF   xD0
0718C:  CLRF   xCF
0718E:  CLRF   xD6
07190:  CLRF   xD5
07192:  CLRF   xD4
07194:  CLRF   xD3
07196:  CLRF   xDA
07198:  CLRF   xD9
0719A:  CLRF   xD8
0719C:  CLRF   xD7
0719E:  CLRF   xDE
071A0:  CLRF   xDD
071A2:  CLRF   xDC
071A4:  CLRF   xDB
071A6:  CLRF   xE2
071A8:  CLRF   xE1
071AA:  CLRF   xE0
071AC:  CLRF   xDF
071AE:  CLRF   xE6
071B0:  CLRF   xE5
071B2:  CLRF   xE4
071B4:  CLRF   xE3
071B6:  CLRF   xEA
071B8:  CLRF   xE9
071BA:  CLRF   xE8
071BC:  CLRF   xE7
071BE:  CLRF   xEE
071C0:  CLRF   xED
071C2:  CLRF   xEC
071C4:  CLRF   xEB
071C6:  CLRF   xF2
071C8:  CLRF   xF1
071CA:  CLRF   xF0
071CC:  CLRF   xEF
071CE:  CLRF   xF6
071D0:  MOVLW  40
071D2:  MOVWF  xF5
071D4:  MOVLW  1C
071D6:  MOVWF  xF4
071D8:  MOVLW  89
071DA:  MOVWF  xF3
071DC:  CLRF   xFA
071DE:  CLRF   xF9
071E0:  CLRF   xF8
071E2:  CLRF   xF7
071E4:  CLRF   xFE
071E6:  CLRF   xFD
071E8:  MOVLW  48
071EA:  MOVWF  xFC
071EC:  MOVLW  84
071EE:  MOVWF  xFB
071F0:  MOVLB  7
071F2:  CLRF   x02
071F4:  CLRF   x01
071F6:  CLRF   x00
071F8:  MOVLB  6
071FA:  CLRF   xFF
071FC:  MOVLB  7
071FE:  CLRF   x06
07200:  CLRF   x05
07202:  CLRF   x04
07204:  CLRF   x03
07206:  MOVF   FC1,W
07208:  ANDLW  C0
0720A:  IORLW  0F
0720C:  MOVWF  FC1
0720E:  MOVLW  07
07210:  MOVWF  FB4
07212:  MOVLB  4
07214:  CLRF   x3A
07216:  CLRF   x3B
07218:  CLRF   x3C
0721A:  CLRF   x3D
0721C:  CLRF   x3E
0721E:  CLRF   x3F
07220:  CLRF   x40
07222:  CLRF   x41
07224:  CLRF   x42
07226:  CLRF   x43
07228:  CLRF   x44
0722A:  CLRF   x45
0722C:  CLRF   x46
0722E:  CLRF   x47
07230:  CLRF   x48
07232:  CLRF   x49
07234:  CLRF   x4A
07236:  CLRF   x4B
07238:  CLRF   x4C
0723A:  CLRF   x4D
0723C:  CLRF   x4E
0723E:  CLRF   x4F
07240:  CLRF   x50
07242:  CLRF   x51
07244:  CLRF   x52
07246:  CLRF   x53
07248:  CLRF   x54
0724A:  CLRF   x55
0724C:  CLRF   x56
0724E:  CLRF   x57
07250:  CLRF   x58
07252:  CLRF   x59
07254:  CLRF   x5A
07256:  CLRF   x5B
07258:  CLRF   x5C
0725A:  CLRF   x5D
0725C:  CLRF   x5E
0725E:  CLRF   x5F
07260:  CLRF   x60
07262:  CLRF   x61
07264:  CLRF   x62
07266:  CLRF   x63
07268:  CLRF   x64
0726A:  CLRF   x65
0726C:  CLRF   x66
0726E:  CLRF   x67
07270:  CLRF   x68
07272:  CLRF   x69
07274:  CLRF   x6A
07276:  CLRF   x6B
07278:  CLRF   x6C
0727A:  CLRF   x6D
0727C:  CLRF   x6E
0727E:  CLRF   x6F
07280:  CLRF   x70
07282:  CLRF   x71
07284:  CLRF   x72
07286:  CLRF   x73
07288:  CLRF   x74
0728A:  CLRF   x75
0728C:  CLRF   x76
0728E:  CLRF   x77
07290:  CLRF   x78
07292:  CLRF   x79
07294:  CLRF   x7A
07296:  CLRF   x7B
07298:  CLRF   x7C
0729A:  CLRF   x7D
0729C:  CLRF   x7E
0729E:  CLRF   x7F
072A0:  CLRF   x80
072A2:  CLRF   x81
072A4:  CLRF   x82
072A6:  CLRF   x83
072A8:  CLRF   x84
072AA:  CLRF   x85
072AC:  CLRF   x86
072AE:  CLRF   x87
072B0:  CLRF   x88
072B2:  CLRF   x89
072B4:  CLRF   x8A
072B6:  CLRF   x8B
072B8:  CLRF   x8C
072BA:  CLRF   x8D
072BC:  CLRF   x8E
072BE:  CLRF   x8F
072C0:  CLRF   x90
072C2:  CLRF   x91
072C4:  CLRF   x92
072C6:  CLRF   x93
072C8:  CLRF   x94
072CA:  CLRF   x95
072CC:  CLRF   x96
072CE:  CLRF   x97
072D0:  CLRF   x98
072D2:  CLRF   x99
072D4:  CLRF   x9A
072D6:  CLRF   x9B
072D8:  CLRF   x9C
072DA:  CLRF   x9D
072DC:  CLRF   x9E
072DE:  CLRF   x9F
072E0:  CLRF   xA0
072E2:  CLRF   xA1
072E4:  CLRF   xA2
072E6:  CLRF   xA3
072E8:  CLRF   xA4
072EA:  CLRF   xA5
072EC:  CLRF   xA6
072EE:  CLRF   xA7
072F0:  CLRF   xA8
072F2:  CLRF   xA9
072F4:  CLRF   xAA
072F6:  CLRF   xAB
072F8:  CLRF   xAC
072FA:  CLRF   xAD
072FC:  CLRF   xAE
072FE:  CLRF   xAF
07300:  CLRF   xB0
07302:  CLRF   xB1
07304:  CLRF   xB2
07306:  CLRF   xB3
07308:  CLRF   xB4
0730A:  CLRF   xB5
0730C:  CLRF   xB6
0730E:  CLRF   xB7
07310:  CLRF   xB8
07312:  CLRF   xB9
07314:  CLRF   xBA
07316:  CLRF   xBB
07318:  CLRF   xBC
0731A:  CLRF   xBD
0731C:  CLRF   xBE
0731E:  CLRF   xBF
07320:  CLRF   xC0
07322:  CLRF   xC1
07324:  CLRF   xC2
07326:  CLRF   xC3
07328:  CLRF   xC4
0732A:  CLRF   xC5
0732C:  CLRF   xC6
0732E:  CLRF   xC7
07330:  CLRF   xC8
07332:  CLRF   xC9
07334:  CLRF   xCA
07336:  CLRF   xCB
07338:  CLRF   xCC
0733A:  CLRF   xCD
0733C:  CLRF   xCE
0733E:  CLRF   xCF
07340:  CLRF   xD0
07342:  CLRF   xD1
07344:  CLRF   xD2
07346:  CLRF   xD3
07348:  CLRF   xD4
0734A:  CLRF   xD5
0734C:  CLRF   xD6
0734E:  CLRF   xD7
07350:  CLRF   xD8
07352:  CLRF   xD9
07354:  CLRF   xDA
07356:  CLRF   xDB
07358:  CLRF   xDC
0735A:  CLRF   xDD
0735C:  CLRF   xDE
0735E:  CLRF   xDF
07360:  CLRF   xE0
07362:  CLRF   xE1
07364:  CLRF   xE2
07366:  CLRF   xE3
07368:  CLRF   xE4
0736A:  CLRF   xE5
0736C:  CLRF   xE6
0736E:  CLRF   xE7
07370:  CLRF   xE8
07372:  CLRF   xE9
07374:  CLRF   xEA
07376:  CLRF   xEB
07378:  CLRF   xEC
0737A:  CLRF   xED
0737C:  CLRF   xEE
0737E:  CLRF   xEF
07380:  CLRF   xF0
07382:  CLRF   xF1
07384:  CLRF   xF2
07386:  CLRF   xF3
07388:  CLRF   xF4
0738A:  CLRF   xF5
0738C:  CLRF   xF6
0738E:  CLRF   xF7
07390:  CLRF   xF8
07392:  CLRF   xF9
07394:  CLRF   xFA
07396:  CLRF   xFB
07398:  CLRF   xFC
0739A:  CLRF   xFD
0739C:  CLRF   xFE
0739E:  CLRF   xFF
073A0:  MOVLB  5
073A2:  CLRF   x00
073A4:  CLRF   x01
073A6:  CLRF   x02
073A8:  CLRF   x03
073AA:  CLRF   x04
073AC:  CLRF   x05
073AE:  CLRF   x06
073B0:  CLRF   x07
073B2:  CLRF   x08
073B4:  CLRF   x09
073B6:  CLRF   x0A
073B8:  CLRF   x0B
073BA:  CLRF   x0C
073BC:  CLRF   x0D
073BE:  CLRF   x0E
073C0:  CLRF   x0F
073C2:  CLRF   x10
073C4:  CLRF   x11
073C6:  CLRF   x12
073C8:  CLRF   x13
073CA:  CLRF   x14
073CC:  CLRF   x15
073CE:  CLRF   x16
073D0:  CLRF   x17
073D2:  CLRF   x18
073D4:  CLRF   x19
073D6:  CLRF   x1A
073D8:  CLRF   x1B
073DA:  CLRF   x1C
073DC:  CLRF   x1D
073DE:  CLRF   x1E
073E0:  CLRF   x1F
073E2:  CLRF   x20
073E4:  CLRF   x21
073E6:  CLRF   x22
073E8:  CLRF   x23
073EA:  CLRF   x24
073EC:  CLRF   x25
073EE:  CLRF   x26
073F0:  CLRF   x27
073F2:  CLRF   x28
073F4:  CLRF   x29
073F6:  CLRF   x2A
073F8:  CLRF   x2B
073FA:  CLRF   x2C
073FC:  CLRF   x2D
073FE:  CLRF   x2E
07400:  CLRF   x2F
07402:  CLRF   x30
07404:  CLRF   x31
07406:  CLRF   x32
07408:  CLRF   x33
0740A:  CLRF   x34
0740C:  CLRF   x35
0740E:  CLRF   x36
07410:  CLRF   x37
07412:  CLRF   x38
07414:  CLRF   x39
07416:  CLRF   x3A
07418:  CLRF   x3B
0741A:  CLRF   x3C
0741C:  CLRF   x3D
0741E:  CLRF   x3E
07420:  CLRF   x3F
07422:  CLRF   x40
07424:  CLRF   x41
07426:  CLRF   x42
07428:  CLRF   x43
0742A:  CLRF   x44
0742C:  CLRF   x45
0742E:  CLRF   x46
07430:  CLRF   x47
07432:  CLRF   x48
07434:  CLRF   x49
07436:  CLRF   x4A
07438:  CLRF   x4B
0743A:  CLRF   x4C
0743C:  CLRF   x4D
0743E:  CLRF   x4E
07440:  CLRF   x4F
07442:  CLRF   x50
07444:  CLRF   x51
07446:  CLRF   x52
07448:  CLRF   x53
0744A:  CLRF   x54
0744C:  CLRF   x55
0744E:  CLRF   x56
07450:  CLRF   x57
07452:  CLRF   x58
07454:  CLRF   x59
07456:  CLRF   x5A
07458:  CLRF   x5B
0745A:  CLRF   x5C
0745C:  CLRF   x5D
0745E:  CLRF   x5E
07460:  CLRF   x5F
07462:  CLRF   x60
07464:  CLRF   x61
07466:  CLRF   x62
07468:  CLRF   x63
0746A:  CLRF   x64
0746C:  CLRF   x65
0746E:  CLRF   x66
07470:  CLRF   x67
07472:  CLRF   x68
07474:  CLRF   x69
07476:  CLRF   x6A
07478:  CLRF   x6B
0747A:  CLRF   x6C
0747C:  CLRF   x6D
0747E:  CLRF   x6E
07480:  CLRF   x6F
07482:  CLRF   x70
07484:  CLRF   x71
07486:  CLRF   x72
07488:  CLRF   x73
0748A:  CLRF   x74
0748C:  CLRF   x75
0748E:  CLRF   x76
07490:  CLRF   x77
07492:  CLRF   x78
07494:  CLRF   x79
07496:  CLRF   x7A
07498:  CLRF   x7B
0749A:  CLRF   x7C
0749C:  CLRF   x7D
0749E:  CLRF   x7E
074A0:  CLRF   x7F
074A2:  CLRF   x80
074A4:  CLRF   x81
074A6:  CLRF   x82
074A8:  CLRF   x83
074AA:  CLRF   x84
074AC:  CLRF   x85
074AE:  CLRF   x86
074B0:  CLRF   x87
074B2:  CLRF   x88
074B4:  CLRF   x89
074B6:  CLRF   x8A
074B8:  CLRF   x8B
074BA:  CLRF   x8C
074BC:  CLRF   x8D
074BE:  CLRF   x8E
074C0:  CLRF   x8F
074C2:  CLRF   x90
074C4:  CLRF   x91
074C6:  CLRF   x92
074C8:  CLRF   x93
074CA:  CLRF   x94
074CC:  CLRF   x95
074CE:  CLRF   x96
074D0:  CLRF   x97
074D2:  CLRF   x98
074D4:  CLRF   x99
074D6:  CLRF   x9A
074D8:  CLRF   x9B
074DA:  CLRF   x9C
074DC:  CLRF   x9D
074DE:  CLRF   x9E
074E0:  CLRF   x9F
074E2:  CLRF   xA0
074E4:  CLRF   xA1
074E6:  MOVLB  6
074E8:  CLRF   x1A
074EA:  CLRF   x1B
074EC:  CLRF   x1C
074EE:  CLRF   x1D
074F0:  CLRF   x1E
074F2:  CLRF   x1F
074F4:  CLRF   x20
074F6:  CLRF   x21
074F8:  CLRF   x87
074FA:  CLRF   x88
074FC:  CLRF   x89
074FE:  CLRF   x8A
07500:  CLRF   x8B
07502:  CLRF   x8C
07504:  CLRF   x8D
07506:  CLRF   x8E
07508:  CLRF   x8F
0750A:  CLRF   x90
0750C:  CLRF   x91
0750E:  CLRF   x92
07510:  CLRF   x93
07512:  CLRF   x94
07514:  CLRF   x95
07516:  CLRF   x96
07518:  MOVLB  9
0751A:  CLRF   x05
0751C:  CLRF   x06
....................    delay_ms(1000); 
0751E:  MOVLW  04
07520:  MOVWF  x07
07522:  MOVLW  FA
07524:  MOVWF  x1D
07526:  MOVLB  0
07528:  CALL   13A4
0752C:  MOVLB  9
0752E:  DECFSZ x07,F
07530:  BRA    7522
....................    ConfigInicial(); 
07532:  MOVLB  0
07534:  GOTO   13CC
....................    for (posicion=0;posicion<0x10;posicion++){ 
07538:  MOVLB  4
0753A:  CLRF   x39
0753C:  MOVF   x39,W
0753E:  SUBLW  0F
07540:  BNC   7556
....................       SlaveA0Tx[posicion] = 0x00; 
07542:  CLRF   03
07544:  MOVF   x39,W
07546:  ADDLW  17
07548:  MOVWF  FE9
0754A:  MOVLW  04
0754C:  ADDWFC 03,W
0754E:  MOVWF  FEA
07550:  CLRF   FEF
....................    } 
07552:  INCF   x39,F
07554:  BRA    753C
....................    Display_on; 
07556:  BSF    F8A.1
07558:  BCF    F93.1
....................    glcd_init(ON);             //Inicializa la glcd 
0755A:  MOVLW  01
0755C:  MOVLB  9
0755E:  MOVWF  x07
07560:  MOVLB  0
07562:  CALL   1536
....................    glcd_fillScreen(OFF);      //Limpia la pantalla 
07566:  MOVLB  9
07568:  CLRF   x0E
0756A:  MOVLB  0
0756C:  CALL   1424
....................    glcd_rect(0,61,127,63,YES,ON); 
07570:  MOVLB  9
07572:  CLRF   x1F
07574:  MOVLW  3D
07576:  MOVWF  x20
07578:  MOVLW  7F
0757A:  MOVWF  x21
0757C:  MOVLW  3F
0757E:  MOVWF  x22
07580:  MOVLW  01
07582:  MOVWF  x23
07584:  MOVWF  x24
07586:  MOVLB  0
07588:  CALL   17D8
....................    strcpy(Menus.Letra,"JP Inglobal"); 
0758C:  MOVLW  08
0758E:  MOVWF  FEA
07590:  MOVLW  E7
07592:  MOVWF  FE9
07594:  MOVFF  FF2,907
07598:  BCF    FF2.7
0759A:  MOVLW  00
0759C:  CALL   084E
075A0:  TBLRD*-
075A2:  TBLRD*+
075A4:  MOVF   FF5,W
075A6:  MOVWF  FEE
075A8:  IORLW  00
075AA:  BNZ   75A2
075AC:  MOVLB  9
075AE:  BTFSC  x07.7
075B0:  BSF    FF2.7
....................    displayMenu(Menus.Letra,0,0,0,2);      
075B2:  MOVLW  08
075B4:  MOVWF  x0F
075B6:  MOVLW  E7
075B8:  MOVWF  x0E
075BA:  CLRF   x10
075BC:  CLRF   x11
075BE:  CLRF   x12
075C0:  MOVLW  02
075C2:  MOVWF  x13
075C4:  MOVLB  0
075C6:  CALL   1A52
....................    strcpy(Menus.Letra,"    Mufla Digital"); 
075CA:  MOVLW  08
075CC:  MOVWF  FEA
075CE:  MOVLW  E7
075D0:  MOVWF  FE9
075D2:  MOVFF  FF2,907
075D6:  BCF    FF2.7
075D8:  MOVLW  00
075DA:  CALL   0878
075DE:  TBLRD*-
075E0:  TBLRD*+
075E2:  MOVF   FF5,W
075E4:  MOVWF  FEE
075E6:  IORLW  00
075E8:  BNZ   75E0
075EA:  MOVLB  9
075EC:  BTFSC  x07.7
075EE:  BSF    FF2.7
....................    displayMenu(Menus.Letra,0,20,0,1);        
075F0:  MOVLW  08
075F2:  MOVWF  x0F
075F4:  MOVLW  E7
075F6:  MOVWF  x0E
075F8:  CLRF   x10
075FA:  MOVLW  14
075FC:  MOVWF  x11
075FE:  CLRF   x12
07600:  MOVLW  01
07602:  MOVWF  x13
07604:  MOVLB  0
07606:  CALL   1A52
....................    strcpy(Menus.Letra,"     con Rampas"); 
0760A:  MOVLW  08
0760C:  MOVWF  FEA
0760E:  MOVLW  E7
07610:  MOVWF  FE9
07612:  MOVFF  FF2,907
07616:  BCF    FF2.7
07618:  MOVLW  00
0761A:  CALL   08A8
0761E:  TBLRD*-
07620:  TBLRD*+
07622:  MOVF   FF5,W
07624:  MOVWF  FEE
07626:  IORLW  00
07628:  BNZ   7620
0762A:  MOVLB  9
0762C:  BTFSC  x07.7
0762E:  BSF    FF2.7
....................    displayMenu(Menus.Letra,0,29,0,1);        
07630:  MOVLW  08
07632:  MOVWF  x0F
07634:  MOVLW  E7
07636:  MOVWF  x0E
07638:  CLRF   x10
0763A:  MOVLW  1D
0763C:  MOVWF  x11
0763E:  CLRF   x12
07640:  MOVLW  01
07642:  MOVWF  x13
07644:  MOVLB  0
07646:  CALL   1A52
....................    strcpy(Menus.Letra,"     2.2L"); 
0764A:  MOVLW  08
0764C:  MOVWF  FEA
0764E:  MOVLW  E7
07650:  MOVWF  FE9
07652:  MOVFF  FF2,907
07656:  BCF    FF2.7
07658:  MOVLW  00
0765A:  CALL   08D6
0765E:  TBLRD*-
07660:  TBLRD*+
07662:  MOVF   FF5,W
07664:  MOVWF  FEE
07666:  IORLW  00
07668:  BNZ   7660
0766A:  MOVLB  9
0766C:  BTFSC  x07.7
0766E:  BSF    FF2.7
....................    displayMenu(Menus.Letra,0,45,0,2); 
07670:  MOVLW  08
07672:  MOVWF  x0F
07674:  MOVLW  E7
07676:  MOVWF  x0E
07678:  CLRF   x10
0767A:  MOVLW  2D
0767C:  MOVWF  x11
0767E:  CLRF   x12
07680:  MOVLW  02
07682:  MOVWF  x13
07684:  MOVLB  0
07686:  CALL   1A52
....................    delay_ms(1000); 
0768A:  MOVLW  04
0768C:  MOVLB  9
0768E:  MOVWF  x07
07690:  MOVLW  FA
07692:  MOVWF  x1D
07694:  MOVLB  0
07696:  CALL   13A4
0769A:  MOVLB  9
0769C:  DECFSZ x07,F
0769E:  BRA    7690
....................     
....................    Resistencia_off; 
076A0:  BCF    F8B.0
076A2:  BCF    F94.0
....................    glcd_fillScreen(OFF);      //Limpia la pantalla 
076A4:  CLRF   x0E
076A6:  MOVLB  0
076A8:  CALL   1424
....................    displayContrasena(Contrasena[0],20,30,1); 
076AC:  MOVFF  68F,910
076B0:  MOVLW  14
076B2:  MOVLB  9
076B4:  MOVWF  x11
076B6:  MOVLW  1E
076B8:  MOVWF  x12
076BA:  MOVLW  01
076BC:  MOVWF  x13
076BE:  MOVLB  0
076C0:  CALL   1CA4
....................    displayContrasena(Contrasena[1],40,30,0); 
076C4:  MOVFF  690,910
076C8:  MOVLW  28
076CA:  MOVLB  9
076CC:  MOVWF  x11
076CE:  MOVLW  1E
076D0:  MOVWF  x12
076D2:  CLRF   x13
076D4:  MOVLB  0
076D6:  CALL   1CA4
....................    displayContrasena(Contrasena[2],60,30,0); 
076DA:  MOVFF  691,910
076DE:  MOVLW  3C
076E0:  MOVLB  9
076E2:  MOVWF  x11
076E4:  MOVLW  1E
076E6:  MOVWF  x12
076E8:  CLRF   x13
076EA:  MOVLB  0
076EC:  CALL   1CA4
....................    displayContrasena(Contrasena[3],80,30,0);  
076F0:  MOVFF  692,910
076F4:  MOVLW  50
076F6:  MOVLB  9
076F8:  MOVWF  x11
076FA:  MOVLW  1E
076FC:  MOVWF  x12
076FE:  CLRF   x13
07700:  MOVLB  0
07702:  CALL   1CA4
....................    Menu=0; 
07706:  MOVLB  6
07708:  CLRF   x38
....................    LeeEEPROM(); 
0770A:  MOVLB  0
0770C:  GOTO   21E0
....................     
....................    for(i=0;i<80;i++){ 
07710:  MOVLB  6
07712:  CLRF   x3A
07714:  MOVF   x3A,W
07716:  SUBLW  4F
07718:  BNC   7756
....................       Temperatura=Leer_Sensor(MediaMovil); 
0771A:  MOVFF  627,907
0771E:  MOVLB  0
07720:  CALL   33CA
07724:  MOVFF  03,6CE
07728:  MOVFF  02,6CD
0772C:  MOVFF  01,6CC
07730:  MOVFF  00,6CB
....................       ambiente=leeTemperatura(10); 
07734:  MOVLW  0A
07736:  MOVLB  9
07738:  MOVWF  x07
0773A:  MOVLB  0
0773C:  CALL   35FC
07740:  MOVFF  03,686
07744:  MOVFF  02,685
07748:  MOVFF  01,684
0774C:  MOVFF  00,683
....................    } 
07750:  MOVLB  6
07752:  INCF   x3A,F
07754:  BRA    7714
....................     
....................    //adcInf=(0.004*resistencia*1023)/5.0; 
....................    //adcSup=(0.02*resistencia*1023)/5.0; 
....................    //m=(Tsup-Tinf)/(adcSup-adcInf); 
....................    //b=Tsup-(m*adcSup); 
....................    //m=1.9233; 
....................    //b=-371.28; 
....................    //b=b*-1.0; 
....................    penInicial=penMufla; 
07756:  MOVFF  6FE,706
0775A:  MOVFF  6FD,705
0775E:  MOVFF  6FC,704
07762:  MOVFF  6FB,703
....................    while(TRUE)  
....................    {  
....................       ambiente=leeTemperatura(10); 
07766:  MOVLW  0A
07768:  MOVLB  9
0776A:  MOVWF  x07
0776C:  MOVLB  0
0776E:  CALL   35FC
07772:  MOVFF  03,686
07776:  MOVFF  02,685
0777A:  MOVFF  01,684
0777E:  MOVFF  00,683
....................       if(ambiente>30){ 
07782:  MOVLB  9
07784:  CLRF   x0A
07786:  CLRF   x09
07788:  MOVLW  70
0778A:  MOVWF  x08
0778C:  MOVLW  83
0778E:  MOVWF  x07
07790:  MOVFF  686,90E
07794:  MOVFF  685,90D
07798:  MOVFF  684,90C
0779C:  MOVFF  683,90B
077A0:  MOVLB  0
077A2:  CALL   1D90
077A6:  BNC   77B2
....................          Vent1_on; 
077A8:  BCF    F8B.1
077AA:  BCF    F94.1
....................          Vent2_on; 
077AC:  BCF    F8B.2
077AE:  BCF    F94.2
....................       }else if(ambiente<25){ 
077B0:  BRA    77E0
077B2:  MOVFF  686,90A
077B6:  MOVFF  685,909
077BA:  MOVFF  684,908
077BE:  MOVFF  683,907
077C2:  MOVLB  9
077C4:  CLRF   x0E
077C6:  CLRF   x0D
077C8:  MOVLW  48
077CA:  MOVWF  x0C
077CC:  MOVLW  83
077CE:  MOVWF  x0B
077D0:  MOVLB  0
077D2:  CALL   1D90
077D6:  BNC   77E0
....................          Vent1_off; 
077D8:  BSF    F8B.1
077DA:  BCF    F94.1
....................          Vent2_off; 
077DC:  BSF    F8B.2
077DE:  BCF    F94.2
....................       } 
....................       glcd_update();             
077E0:  CALL   147E
....................       Envio_Esclavos(); 
077E4:  GOTO   3916
.................... //_-------------------------------------------------------------------------------------------------------------------------------------------------------- 
....................       if(Menu==0){ //Menu de Contrasea. 
077E8:  MOVLB  6
077EA:  MOVF   x38,F
077EC:  BTFSS  FD8.2
077EE:  BRA    7DB8
....................        
....................       strcpy(Menus.Letra,"Clave"); 
077F0:  MOVLW  08
077F2:  MOVWF  FEA
077F4:  MOVLW  E7
077F6:  MOVWF  FE9
077F8:  MOVFF  FF2,907
077FC:  BCF    FF2.7
077FE:  MOVLW  00
07800:  MOVLB  0
07802:  CALL   07D8
07806:  TBLRD*-
07808:  TBLRD*+
0780A:  MOVF   FF5,W
0780C:  MOVWF  FEE
0780E:  IORLW  00
07810:  BNZ   7808
07812:  MOVLB  9
07814:  BTFSC  x07.7
07816:  BSF    FF2.7
....................       displayMenu(Menus.Letra,30,0,1,2);      
07818:  MOVLW  08
0781A:  MOVWF  x0F
0781C:  MOVLW  E7
0781E:  MOVWF  x0E
07820:  MOVLW  1E
07822:  MOVWF  x10
07824:  CLRF   x11
07826:  MOVLW  01
07828:  MOVWF  x12
0782A:  MOVLW  02
0782C:  MOVWF  x13
0782E:  MOVLB  0
07830:  CALL   1A52
....................        
....................       if(UP)//Si oprime hacia arriba 
07834:  BSF    F92.5
07836:  BTFSC  F80.5
07838:  BRA    791C
....................       { 
....................          Buzz_on;delay_ms(10);Buzz_off; 
0783A:  BSF    F8B.5
0783C:  BCF    F94.5
0783E:  MOVLW  0A
07840:  MOVLB  9
07842:  MOVWF  x1D
07844:  MOVLB  0
07846:  CALL   13A4
0784A:  BCF    F8B.5
0784C:  BCF    F94.5
....................          delay_ms(200); 
0784E:  MOVLW  C8
07850:  MOVLB  9
07852:  MOVWF  x1D
07854:  MOVLB  0
07856:  CALL   13A4
....................          for(i=1;i<=4;i++) 
0785A:  MOVLW  01
0785C:  MOVLB  6
0785E:  MOVWF  x3A
07860:  MOVF   x3A,W
07862:  SUBLW  04
07864:  BNC   791A
....................          { 
....................             if(unidad==i) 
07866:  MOVF   x3A,W
07868:  SUBWF  x39,W
0786A:  BNZ   78E2
....................             { 
....................                Contrasena[i-1]++; 
0786C:  MOVLW  01
0786E:  SUBWF  x3A,W
07870:  CLRF   03
07872:  ADDLW  8F
07874:  MOVWF  FE9
07876:  MOVLW  06
07878:  ADDWFC 03,W
0787A:  MOVWF  FEA
0787C:  INCF   FEF,F
....................                if(Contrasena[i-1]>9)    
0787E:  MOVLW  01
07880:  SUBWF  x3A,W
07882:  CLRF   03
07884:  ADDLW  8F
07886:  MOVWF  FE9
07888:  MOVLW  06
0788A:  ADDWFC 03,W
0788C:  MOVWF  FEA
0788E:  BTFSC  FEF.7
07890:  BRA    78AA
07892:  MOVF   FEF,W
07894:  SUBLW  09
07896:  BC    78AA
....................                { 
....................                   Contrasena[i-1]=0; 
07898:  MOVLW  01
0789A:  SUBWF  x3A,W
0789C:  CLRF   03
0789E:  ADDLW  8F
078A0:  MOVWF  FE9
078A2:  MOVLW  06
078A4:  ADDWFC 03,W
078A6:  MOVWF  FEA
078A8:  CLRF   FEF
....................                } 
....................                displayContrasena(Contrasena[i-1],i*20,30,1); 
078AA:  MOVLW  01
078AC:  SUBWF  x3A,W
078AE:  CLRF   03
078B0:  ADDLW  8F
078B2:  MOVWF  FE9
078B4:  MOVLW  06
078B6:  ADDWFC 03,W
078B8:  MOVWF  FEA
078BA:  MOVFF  FEF,907
078BE:  MOVF   x3A,W
078C0:  MULLW  14
078C2:  MOVFF  FF3,908
078C6:  MOVLB  9
078C8:  MOVFF  907,910
078CC:  MOVFF  908,911
078D0:  MOVLW  1E
078D2:  MOVWF  x12
078D4:  MOVLW  01
078D6:  MOVWF  x13
078D8:  MOVLB  0
078DA:  CALL   1CA4
....................             } 
....................             else 
078DE:  BRA    7914
078E0:  MOVLB  6
....................             { 
....................                displayContrasena(Contrasena[i-1],i*20,30,0); 
078E2:  MOVLW  01
078E4:  SUBWF  x3A,W
078E6:  CLRF   03
078E8:  ADDLW  8F
078EA:  MOVWF  FE9
078EC:  MOVLW  06
078EE:  ADDWFC 03,W
078F0:  MOVWF  FEA
078F2:  MOVFF  FEF,907
078F6:  MOVF   x3A,W
078F8:  MULLW  14
078FA:  MOVFF  FF3,908
078FE:  MOVLB  9
07900:  MOVFF  907,910
07904:  MOVFF  908,911
07908:  MOVLW  1E
0790A:  MOVWF  x12
0790C:  CLRF   x13
0790E:  MOVLB  0
07910:  CALL   1CA4
....................             } 
....................          } 
07914:  MOVLB  6
07916:  INCF   x3A,F
07918:  BRA    7860
0791A:  MOVLB  0
....................       } 
....................              
....................       if(DOWN)//Si oprime hacia abajo 
0791C:  BSF    F96.0
0791E:  BTFSC  F84.0
07920:  BRA    7A02
....................       { 
....................          Buzz_on;delay_ms(10);Buzz_off; 
07922:  BSF    F8B.5
07924:  BCF    F94.5
07926:  MOVLW  0A
07928:  MOVLB  9
0792A:  MOVWF  x1D
0792C:  MOVLB  0
0792E:  CALL   13A4
07932:  BCF    F8B.5
07934:  BCF    F94.5
....................          delay_ms(200); 
07936:  MOVLW  C8
07938:  MOVLB  9
0793A:  MOVWF  x1D
0793C:  MOVLB  0
0793E:  CALL   13A4
....................          for(i=1;i<=4;i++) 
07942:  MOVLW  01
07944:  MOVLB  6
07946:  MOVWF  x3A
07948:  MOVF   x3A,W
0794A:  SUBLW  04
0794C:  BNC   7A00
....................          { 
....................             if(unidad==i) 
0794E:  MOVF   x3A,W
07950:  SUBWF  x39,W
07952:  BNZ   79C8
....................             { 
....................                Contrasena[i-1]--; 
07954:  MOVLW  01
07956:  SUBWF  x3A,W
07958:  CLRF   03
0795A:  ADDLW  8F
0795C:  MOVWF  FE9
0795E:  MOVLW  06
07960:  ADDWFC 03,W
07962:  MOVWF  FEA
07964:  DECF   FEF,F
....................                if(Contrasena[i-1]<0) 
07966:  MOVLW  01
07968:  SUBWF  x3A,W
0796A:  CLRF   03
0796C:  ADDLW  8F
0796E:  MOVWF  FE9
07970:  MOVLW  06
07972:  ADDWFC 03,W
07974:  MOVWF  FEA
07976:  BTFSC  FEF.7
07978:  BRA    797C
0797A:  BRA    7990
....................                   {Contrasena[i-1]=9;} 
0797C:  MOVLW  01
0797E:  SUBWF  x3A,W
07980:  CLRF   03
07982:  ADDLW  8F
07984:  MOVWF  FE9
07986:  MOVLW  06
07988:  ADDWFC 03,W
0798A:  MOVWF  FEA
0798C:  MOVLW  09
0798E:  MOVWF  FEF
....................                displayContrasena(Contrasena[i-1],i*20,30,1);} 
07990:  MOVLW  01
07992:  SUBWF  x3A,W
07994:  CLRF   03
07996:  ADDLW  8F
07998:  MOVWF  FE9
0799A:  MOVLW  06
0799C:  ADDWFC 03,W
0799E:  MOVWF  FEA
079A0:  MOVFF  FEF,907
079A4:  MOVF   x3A,W
079A6:  MULLW  14
079A8:  MOVFF  FF3,908
079AC:  MOVLB  9
079AE:  MOVFF  907,910
079B2:  MOVFF  908,911
079B6:  MOVLW  1E
079B8:  MOVWF  x12
079BA:  MOVLW  01
079BC:  MOVWF  x13
079BE:  MOVLB  0
079C0:  CALL   1CA4
....................             else 
079C4:  BRA    79FA
079C6:  MOVLB  6
....................             {displayContrasena(Contrasena[i-1],i*20,30,0);} 
079C8:  MOVLW  01
079CA:  SUBWF  x3A,W
079CC:  CLRF   03
079CE:  ADDLW  8F
079D0:  MOVWF  FE9
079D2:  MOVLW  06
079D4:  ADDWFC 03,W
079D6:  MOVWF  FEA
079D8:  MOVFF  FEF,907
079DC:  MOVF   x3A,W
079DE:  MULLW  14
079E0:  MOVFF  FF3,908
079E4:  MOVLB  9
079E6:  MOVFF  907,910
079EA:  MOVFF  908,911
079EE:  MOVLW  1E
079F0:  MOVWF  x12
079F2:  CLRF   x13
079F4:  MOVLB  0
079F6:  CALL   1CA4
....................          }         
079FA:  MOVLB  6
079FC:  INCF   x3A,F
079FE:  BRA    7948
07A00:  MOVLB  0
....................       } 
....................              
....................       if(RIGHT)//Si oprime RIGHT 
07A02:  BSF    F96.1
07A04:  BTFSC  F84.1
07A06:  BRA    7AAC
....................       { 
....................          Buzz_on;delay_ms(10);Buzz_off; 
07A08:  BSF    F8B.5
07A0A:  BCF    F94.5
07A0C:  MOVLW  0A
07A0E:  MOVLB  9
07A10:  MOVWF  x1D
07A12:  MOVLB  0
07A14:  CALL   13A4
07A18:  BCF    F8B.5
07A1A:  BCF    F94.5
....................          delay_ms(200);unidad++; 
07A1C:  MOVLW  C8
07A1E:  MOVLB  9
07A20:  MOVWF  x1D
07A22:  MOVLB  0
07A24:  CALL   13A4
07A28:  MOVLB  6
07A2A:  INCF   x39,F
....................          for(i=1;i<=4;i++) 
07A2C:  MOVLW  01
07A2E:  MOVWF  x3A
07A30:  MOVF   x3A,W
07A32:  SUBLW  04
07A34:  BNC   7AAC
....................          { 
....................             if(unidad==i) 
07A36:  MOVF   x3A,W
07A38:  SUBWF  x39,W
07A3A:  BNZ   7A74
....................             {displayContrasena(Contrasena[i-1],i*20,30,1);} 
07A3C:  MOVLW  01
07A3E:  SUBWF  x3A,W
07A40:  CLRF   03
07A42:  ADDLW  8F
07A44:  MOVWF  FE9
07A46:  MOVLW  06
07A48:  ADDWFC 03,W
07A4A:  MOVWF  FEA
07A4C:  MOVFF  FEF,907
07A50:  MOVF   x3A,W
07A52:  MULLW  14
07A54:  MOVFF  FF3,908
07A58:  MOVLB  9
07A5A:  MOVFF  907,910
07A5E:  MOVFF  908,911
07A62:  MOVLW  1E
07A64:  MOVWF  x12
07A66:  MOVLW  01
07A68:  MOVWF  x13
07A6A:  MOVLB  0
07A6C:  CALL   1CA4
....................             else 
07A70:  BRA    7AA6
07A72:  MOVLB  6
....................             {displayContrasena(Contrasena[i-1],i*20,30,0);} 
07A74:  MOVLW  01
07A76:  SUBWF  x3A,W
07A78:  CLRF   03
07A7A:  ADDLW  8F
07A7C:  MOVWF  FE9
07A7E:  MOVLW  06
07A80:  ADDWFC 03,W
07A82:  MOVWF  FEA
07A84:  MOVFF  FEF,907
07A88:  MOVF   x3A,W
07A8A:  MULLW  14
07A8C:  MOVFF  FF3,908
07A90:  MOVLB  9
07A92:  MOVFF  907,910
07A96:  MOVFF  908,911
07A9A:  MOVLW  1E
07A9C:  MOVWF  x12
07A9E:  CLRF   x13
07AA0:  MOVLB  0
07AA2:  CALL   1CA4
....................          } 
07AA6:  MOVLB  6
07AA8:  INCF   x3A,F
07AAA:  BRA    7A30
....................       } 
....................      
....................       if(unidad>4) 
07AAC:  MOVLB  6
07AAE:  MOVF   x39,W
07AB0:  SUBLW  04
07AB2:  BTFSC  FD8.0
07AB4:  BRA    7DB8
....................       {glcd_fillScreen(OFF);unidad=4; 
07AB6:  MOVLB  9
07AB8:  CLRF   x0E
07ABA:  MOVLB  0
07ABC:  CALL   1424
07AC0:  MOVLW  04
07AC2:  MOVLB  6
07AC4:  MOVWF  x39
....................          if(Contrasena[0]==3&&Contrasena[1]==8&&Contrasena[2]==9&&Contrasena[3]==2) // Si Ingresa clave para reset general del sistema. 
07AC6:  MOVF   x8F,W
07AC8:  SUBLW  03
07ACA:  BTFSS  FD8.2
07ACC:  BRA    7BC6
07ACE:  MOVF   x90,W
07AD0:  SUBLW  08
07AD2:  BTFSS  FD8.2
07AD4:  BRA    7BC6
07AD6:  MOVF   x91,W
07AD8:  SUBLW  09
07ADA:  BNZ   7BC6
07ADC:  MOVF   x92,W
07ADE:  SUBLW  02
07AE0:  BNZ   7BC6
....................             {write_eeprom(460,0);delay_ms(20);write_eeprom(461,0);delay_ms(20);// Reestablece a contrasea de Fabrica y reinicia Programa. 
07AE2:  MOVLW  01
07AE4:  MOVWF  FAA
07AE6:  MOVLW  CC
07AE8:  MOVWF  FA9
07AEA:  CLRF   FA8
07AEC:  BCF    FA6.6
07AEE:  BCF    FA6.7
07AF0:  BSF    FA6.2
07AF2:  MOVF   FF2,W
07AF4:  MOVWF  00
07AF6:  BCF    FF2.7
07AF8:  MOVLB  F
07AFA:  MOVLW  55
07AFC:  MOVWF  FA7
07AFE:  MOVLW  AA
07B00:  MOVWF  FA7
07B02:  BSF    FA6.1
07B04:  BTFSC  FA6.1
07B06:  BRA    7B04
07B08:  BCF    FA6.2
07B0A:  MOVF   00,W
07B0C:  IORWF  FF2,F
07B0E:  MOVLW  14
07B10:  MOVLB  9
07B12:  MOVWF  x1D
07B14:  MOVLB  0
07B16:  CALL   13A4
07B1A:  MOVLW  01
07B1C:  MOVWF  FAA
07B1E:  MOVLW  CD
07B20:  MOVWF  FA9
07B22:  CLRF   FA8
07B24:  BCF    FA6.6
07B26:  BCF    FA6.7
07B28:  BSF    FA6.2
07B2A:  MOVF   FF2,W
07B2C:  MOVWF  00
07B2E:  BCF    FF2.7
07B30:  MOVLB  F
07B32:  MOVLW  55
07B34:  MOVWF  FA7
07B36:  MOVLW  AA
07B38:  MOVWF  FA7
07B3A:  BSF    FA6.1
07B3C:  BTFSC  FA6.1
07B3E:  BRA    7B3C
07B40:  BCF    FA6.2
07B42:  MOVF   00,W
07B44:  IORWF  FF2,F
07B46:  MOVLW  14
07B48:  MOVLB  9
07B4A:  MOVWF  x1D
07B4C:  MOVLB  0
07B4E:  CALL   13A4
....................              write_eeprom(462,0);delay_ms(20);write_eeprom(463,0);delay_ms(20); 
07B52:  MOVLW  01
07B54:  MOVWF  FAA
07B56:  MOVLW  CE
07B58:  MOVWF  FA9
07B5A:  CLRF   FA8
07B5C:  BCF    FA6.6
07B5E:  BCF    FA6.7
07B60:  BSF    FA6.2
07B62:  MOVF   FF2,W
07B64:  MOVWF  00
07B66:  BCF    FF2.7
07B68:  MOVLB  F
07B6A:  MOVLW  55
07B6C:  MOVWF  FA7
07B6E:  MOVLW  AA
07B70:  MOVWF  FA7
07B72:  BSF    FA6.1
07B74:  BTFSC  FA6.1
07B76:  BRA    7B74
07B78:  BCF    FA6.2
07B7A:  MOVF   00,W
07B7C:  IORWF  FF2,F
07B7E:  MOVLW  14
07B80:  MOVLB  9
07B82:  MOVWF  x1D
07B84:  MOVLB  0
07B86:  CALL   13A4
07B8A:  MOVLW  01
07B8C:  MOVWF  FAA
07B8E:  MOVLW  CF
07B90:  MOVWF  FA9
07B92:  CLRF   FA8
07B94:  BCF    FA6.6
07B96:  BCF    FA6.7
07B98:  BSF    FA6.2
07B9A:  MOVF   FF2,W
07B9C:  MOVWF  00
07B9E:  BCF    FF2.7
07BA0:  MOVLB  F
07BA2:  MOVLW  55
07BA4:  MOVWF  FA7
07BA6:  MOVLW  AA
07BA8:  MOVWF  FA7
07BAA:  BSF    FA6.1
07BAC:  BTFSC  FA6.1
07BAE:  BRA    7BAC
07BB0:  BCF    FA6.2
07BB2:  MOVF   00,W
07BB4:  IORWF  FF2,F
07BB6:  MOVLW  14
07BB8:  MOVLB  9
07BBA:  MOVWF  x1D
07BBC:  MOVLB  0
07BBE:  CALL   13A4
....................              reset_cpu();}         
07BC2:  RESET
07BC4:  MOVLB  6
....................           
....................          if((Contrasena[0]==Password[0])&&(Contrasena[1]==Password[1])&&(Contrasena[2]==Password[2])&&(Contrasena[3]==Password[3])) 
07BC6:  MOVF   x93,W
07BC8:  SUBWF  x8F,W
07BCA:  BNZ   7C9C
07BCC:  MOVF   x94,W
07BCE:  SUBWF  x90,W
07BD0:  BNZ   7C9C
07BD2:  MOVF   x95,W
07BD4:  SUBWF  x91,W
07BD6:  BNZ   7C9C
07BD8:  MOVF   x96,W
07BDA:  SUBWF  x92,W
07BDC:  BNZ   7C9C
....................          { 
....................             glcd_fillScreen(OFF); 
07BDE:  MOVLB  9
07BE0:  CLRF   x0E
07BE2:  MOVLB  0
07BE4:  CALL   1424
....................             strcpy(Menus.Letra,"Clave"); 
07BE8:  MOVLW  08
07BEA:  MOVWF  FEA
07BEC:  MOVLW  E7
07BEE:  MOVWF  FE9
07BF0:  MOVFF  FF2,907
07BF4:  BCF    FF2.7
07BF6:  MOVLW  00
07BF8:  CALL   07D8
07BFC:  TBLRD*-
07BFE:  TBLRD*+
07C00:  MOVF   FF5,W
07C02:  MOVWF  FEE
07C04:  IORLW  00
07C06:  BNZ   7BFE
07C08:  MOVLB  9
07C0A:  BTFSC  x07.7
07C0C:  BSF    FF2.7
....................             displayMenu(Menus.Letra,30,0,0,2); 
07C0E:  MOVLW  08
07C10:  MOVWF  x0F
07C12:  MOVLW  E7
07C14:  MOVWF  x0E
07C16:  MOVLW  1E
07C18:  MOVWF  x10
07C1A:  CLRF   x11
07C1C:  CLRF   x12
07C1E:  MOVLW  02
07C20:  MOVWF  x13
07C22:  MOVLB  0
07C24:  CALL   1A52
....................             strcpy(Menus.Letra,"Correcta"); 
07C28:  MOVLW  08
07C2A:  MOVWF  FEA
07C2C:  MOVLW  E7
07C2E:  MOVWF  FE9
07C30:  MOVFF  FF2,907
07C34:  BCF    FF2.7
07C36:  MOVLW  00
07C38:  CALL   07FC
07C3C:  TBLRD*-
07C3E:  TBLRD*+
07C40:  MOVF   FF5,W
07C42:  MOVWF  FEE
07C44:  IORLW  00
07C46:  BNZ   7C3E
07C48:  MOVLB  9
07C4A:  BTFSC  x07.7
07C4C:  BSF    FF2.7
....................             displayMenu(Menus.Letra,15,30,0,2); 
07C4E:  MOVLW  08
07C50:  MOVWF  x0F
07C52:  MOVLW  E7
07C54:  MOVWF  x0E
07C56:  MOVLW  0F
07C58:  MOVWF  x10
07C5A:  MOVLW  1E
07C5C:  MOVWF  x11
07C5E:  CLRF   x12
07C60:  MOVLW  02
07C62:  MOVWF  x13
07C64:  MOVLB  0
07C66:  CALL   1A52
....................             Menu=1;glcd_update();delay_ms(1000); 
07C6A:  MOVLW  01
07C6C:  MOVLB  6
07C6E:  MOVWF  x38
07C70:  MOVLB  0
07C72:  CALL   147E
07C76:  MOVLW  04
07C78:  MOVLB  9
07C7A:  MOVWF  x07
07C7C:  MOVLW  FA
07C7E:  MOVWF  x1D
07C80:  MOVLB  0
07C82:  CALL   13A4
07C86:  MOVLB  9
07C88:  DECFSZ x07,F
07C8A:  BRA    7C7C
....................             glcd_fillScreen(OFF);unidad=1; 
07C8C:  CLRF   x0E
07C8E:  MOVLB  0
07C90:  CALL   1424
07C94:  MOVLW  01
07C96:  MOVLB  6
07C98:  MOVWF  x39
....................          }// Esta parte se puede agregar en el Menu 1 dependiendo de la ubicacin del vidrio. 
....................          else 
07C9A:  BRA    7DB8
....................          { 
....................             glcd_fillScreen(OFF); 
07C9C:  MOVLB  9
07C9E:  CLRF   x0E
07CA0:  MOVLB  0
07CA2:  CALL   1424
....................             strcpy(Menus.Letra,"Clave"); 
07CA6:  MOVLW  08
07CA8:  MOVWF  FEA
07CAA:  MOVLW  E7
07CAC:  MOVWF  FE9
07CAE:  MOVFF  FF2,907
07CB2:  BCF    FF2.7
07CB4:  MOVLW  00
07CB6:  CALL   07D8
07CBA:  TBLRD*-
07CBC:  TBLRD*+
07CBE:  MOVF   FF5,W
07CC0:  MOVWF  FEE
07CC2:  IORLW  00
07CC4:  BNZ   7CBC
07CC6:  MOVLB  9
07CC8:  BTFSC  x07.7
07CCA:  BSF    FF2.7
....................             displayMenu(Menus.Letra,30,0,0,2); 
07CCC:  MOVLW  08
07CCE:  MOVWF  x0F
07CD0:  MOVLW  E7
07CD2:  MOVWF  x0E
07CD4:  MOVLW  1E
07CD6:  MOVWF  x10
07CD8:  CLRF   x11
07CDA:  CLRF   x12
07CDC:  MOVLW  02
07CDE:  MOVWF  x13
07CE0:  MOVLB  0
07CE2:  CALL   1A52
....................             strcpy(Menus.Letra,"Incorrecta"); 
07CE6:  MOVLW  08
07CE8:  MOVWF  FEA
07CEA:  MOVLW  E7
07CEC:  MOVWF  FE9
07CEE:  MOVFF  FF2,907
07CF2:  BCF    FF2.7
07CF4:  MOVLW  00
07CF6:  CALL   0824
07CFA:  TBLRD*-
07CFC:  TBLRD*+
07CFE:  MOVF   FF5,W
07D00:  MOVWF  FEE
07D02:  IORLW  00
07D04:  BNZ   7CFC
07D06:  MOVLB  9
07D08:  BTFSC  x07.7
07D0A:  BSF    FF2.7
....................             displayMenu(Menus.Letra,0,30,0,2); 
07D0C:  MOVLW  08
07D0E:  MOVWF  x0F
07D10:  MOVLW  E7
07D12:  MOVWF  x0E
07D14:  CLRF   x10
07D16:  MOVLW  1E
07D18:  MOVWF  x11
07D1A:  CLRF   x12
07D1C:  MOVLW  02
07D1E:  MOVWF  x13
07D20:  MOVLB  0
07D22:  CALL   1A52
....................             Menu=0;glcd_update();delay_ms(1000); 
07D26:  MOVLB  6
07D28:  CLRF   x38
07D2A:  MOVLB  0
07D2C:  CALL   147E
07D30:  MOVLW  04
07D32:  MOVLB  9
07D34:  MOVWF  x07
07D36:  MOVLW  FA
07D38:  MOVWF  x1D
07D3A:  MOVLB  0
07D3C:  CALL   13A4
07D40:  MOVLB  9
07D42:  DECFSZ x07,F
07D44:  BRA    7D36
....................             glcd_fillScreen(OFF);unidad=1; 
07D46:  CLRF   x0E
07D48:  MOVLB  0
07D4A:  CALL   1424
07D4E:  MOVLW  01
07D50:  MOVLB  6
07D52:  MOVWF  x39
....................             Contrasena[0]=0;Contrasena[1]=0;Contrasena[2]=0;Contrasena[3]=0; 
07D54:  CLRF   x8F
07D56:  CLRF   x90
07D58:  CLRF   x91
07D5A:  CLRF   x92
....................             displayContrasena(Contrasena[0],20,30,1); 
07D5C:  MOVFF  68F,910
07D60:  MOVLW  14
07D62:  MOVLB  9
07D64:  MOVWF  x11
07D66:  MOVLW  1E
07D68:  MOVWF  x12
07D6A:  MOVLW  01
07D6C:  MOVWF  x13
07D6E:  MOVLB  0
07D70:  CALL   1CA4
....................             displayContrasena(Contrasena[1],40,30,0); 
07D74:  MOVFF  690,910
07D78:  MOVLW  28
07D7A:  MOVLB  9
07D7C:  MOVWF  x11
07D7E:  MOVLW  1E
07D80:  MOVWF  x12
07D82:  CLRF   x13
07D84:  MOVLB  0
07D86:  CALL   1CA4
....................             displayContrasena(Contrasena[2],60,30,0); 
07D8A:  MOVFF  691,910
07D8E:  MOVLW  3C
07D90:  MOVLB  9
07D92:  MOVWF  x11
07D94:  MOVLW  1E
07D96:  MOVWF  x12
07D98:  CLRF   x13
07D9A:  MOVLB  0
07D9C:  CALL   1CA4
....................             displayContrasena(Contrasena[3],80,30,0); 
07DA0:  MOVFF  692,910
07DA4:  MOVLW  50
07DA6:  MOVLB  9
07DA8:  MOVWF  x11
07DAA:  MOVLW  1E
07DAC:  MOVWF  x12
07DAE:  CLRF   x13
07DB0:  MOVLB  0
07DB2:  CALL   1CA4
07DB6:  MOVLB  6
....................          } 
....................       } 
....................     } 
.................... //_--------------------------------------------------------------------------------------------------------------------------------------------------------        
....................  
.................... //_-------------------------------------------------------------------------------------------------------------------------------------------------------- 
....................       if(Menu==1){ //Menu Principal.       
07DB8:  DECFSZ x38,W
07DBA:  BRA    81C2
....................        
....................          if(Opcion>5) 
07DBC:  MOVF   x3F,W
07DBE:  SUBLW  05
07DC0:  BC    7DC6
....................          {Opcion=1;} 
07DC2:  MOVLW  01
07DC4:  MOVWF  x3F
....................          if(Opcion<1) 
07DC6:  MOVF   x3F,F
07DC8:  BNZ   7DCE
....................          {Opcion=5;} 
07DCA:  MOVLW  05
07DCC:  MOVWF  x3F
....................           
....................          strcpy(Menus.Letra,"Menu"); 
07DCE:  MOVLW  08
07DD0:  MOVWF  FEA
07DD2:  MOVLW  E7
07DD4:  MOVWF  FE9
07DD6:  MOVFF  FF2,907
07DDA:  BCF    FF2.7
07DDC:  MOVLW  00
07DDE:  MOVLB  0
07DE0:  CALL   08FE
07DE4:  TBLRD*-
07DE6:  TBLRD*+
07DE8:  MOVF   FF5,W
07DEA:  MOVWF  FEE
07DEC:  IORLW  00
07DEE:  BNZ   7DE6
07DF0:  MOVLB  9
07DF2:  BTFSC  x07.7
07DF4:  BSF    FF2.7
....................          displayMenu(Menus.Letra,30,0,1,2); 
07DF6:  MOVLW  08
07DF8:  MOVWF  x0F
07DFA:  MOVLW  E7
07DFC:  MOVWF  x0E
07DFE:  MOVLW  1E
07E00:  MOVWF  x10
07E02:  CLRF   x11
07E04:  MOVLW  01
07E06:  MOVWF  x12
07E08:  MOVLW  02
07E0A:  MOVWF  x13
07E0C:  MOVLB  0
07E0E:  CALL   1A52
....................        
....................          if(Opcion==1)    
07E12:  MOVLB  6
07E14:  DECFSZ x3F,W
07E16:  BRA    7E5E
....................             {strcpy(Menus.Letra,"Iniciar Programa"); 
07E18:  MOVLW  08
07E1A:  MOVWF  FEA
07E1C:  MOVLW  E7
07E1E:  MOVWF  FE9
07E20:  MOVFF  FF2,907
07E24:  BCF    FF2.7
07E26:  MOVLW  00
07E28:  MOVLB  0
07E2A:  CALL   0922
07E2E:  TBLRD*-
07E30:  TBLRD*+
07E32:  MOVF   FF5,W
07E34:  MOVWF  FEE
07E36:  IORLW  00
07E38:  BNZ   7E30
07E3A:  MOVLB  9
07E3C:  BTFSC  x07.7
07E3E:  BSF    FF2.7
....................             displayMenu(Menus.Letra,0,18,1,1);} 
07E40:  MOVLW  08
07E42:  MOVWF  x0F
07E44:  MOVLW  E7
07E46:  MOVWF  x0E
07E48:  CLRF   x10
07E4A:  MOVLW  12
07E4C:  MOVWF  x11
07E4E:  MOVLW  01
07E50:  MOVWF  x12
07E52:  MOVWF  x13
07E54:  MOVLB  0
07E56:  CALL   1A52
....................          else 
07E5A:  BRA    7EA0
07E5C:  MOVLB  6
....................             {strcpy(Menus.Letra,"Iniciar Programa"); 
07E5E:  MOVLW  08
07E60:  MOVWF  FEA
07E62:  MOVLW  E7
07E64:  MOVWF  FE9
07E66:  MOVFF  FF2,907
07E6A:  BCF    FF2.7
07E6C:  MOVLW  00
07E6E:  MOVLB  0
07E70:  CALL   0922
07E74:  TBLRD*-
07E76:  TBLRD*+
07E78:  MOVF   FF5,W
07E7A:  MOVWF  FEE
07E7C:  IORLW  00
07E7E:  BNZ   7E76
07E80:  MOVLB  9
07E82:  BTFSC  x07.7
07E84:  BSF    FF2.7
....................             displayMenu(Menus.Letra,0,18,0,1);} 
07E86:  MOVLW  08
07E88:  MOVWF  x0F
07E8A:  MOVLW  E7
07E8C:  MOVWF  x0E
07E8E:  CLRF   x10
07E90:  MOVLW  12
07E92:  MOVWF  x11
07E94:  CLRF   x12
07E96:  MOVLW  01
07E98:  MOVWF  x13
07E9A:  MOVLB  0
07E9C:  CALL   1A52
....................           
....................          if(Opcion==2)    
07EA0:  MOVLB  6
07EA2:  MOVF   x3F,W
07EA4:  SUBLW  02
07EA6:  BNZ   7EEE
....................             {strcpy(Menus.Letra,"Editar Programa"); 
07EA8:  MOVLW  08
07EAA:  MOVWF  FEA
07EAC:  MOVLW  E7
07EAE:  MOVWF  FE9
07EB0:  MOVFF  FF2,907
07EB4:  BCF    FF2.7
07EB6:  MOVLW  00
07EB8:  MOVLB  0
07EBA:  CALL   0952
07EBE:  TBLRD*-
07EC0:  TBLRD*+
07EC2:  MOVF   FF5,W
07EC4:  MOVWF  FEE
07EC6:  IORLW  00
07EC8:  BNZ   7EC0
07ECA:  MOVLB  9
07ECC:  BTFSC  x07.7
07ECE:  BSF    FF2.7
....................             displayMenu(Menus.Letra,0,27,1,1);} 
07ED0:  MOVLW  08
07ED2:  MOVWF  x0F
07ED4:  MOVLW  E7
07ED6:  MOVWF  x0E
07ED8:  CLRF   x10
07EDA:  MOVLW  1B
07EDC:  MOVWF  x11
07EDE:  MOVLW  01
07EE0:  MOVWF  x12
07EE2:  MOVWF  x13
07EE4:  MOVLB  0
07EE6:  CALL   1A52
....................          else 
07EEA:  BRA    7F30
07EEC:  MOVLB  6
....................             {strcpy(Menus.Letra,"Editar Programa"); 
07EEE:  MOVLW  08
07EF0:  MOVWF  FEA
07EF2:  MOVLW  E7
07EF4:  MOVWF  FE9
07EF6:  MOVFF  FF2,907
07EFA:  BCF    FF2.7
07EFC:  MOVLW  00
07EFE:  MOVLB  0
07F00:  CALL   0952
07F04:  TBLRD*-
07F06:  TBLRD*+
07F08:  MOVF   FF5,W
07F0A:  MOVWF  FEE
07F0C:  IORLW  00
07F0E:  BNZ   7F06
07F10:  MOVLB  9
07F12:  BTFSC  x07.7
07F14:  BSF    FF2.7
....................             displayMenu(Menus.Letra,0,27,0,1);} 
07F16:  MOVLW  08
07F18:  MOVWF  x0F
07F1A:  MOVLW  E7
07F1C:  MOVWF  x0E
07F1E:  CLRF   x10
07F20:  MOVLW  1B
07F22:  MOVWF  x11
07F24:  CLRF   x12
07F26:  MOVLW  01
07F28:  MOVWF  x13
07F2A:  MOVLB  0
07F2C:  CALL   1A52
....................              
....................          if(Opcion==3)    
07F30:  MOVLB  6
07F32:  MOVF   x3F,W
07F34:  SUBLW  03
07F36:  BNZ   7F7E
....................             {strcpy(Menus.Letra,"Borrar Programa"); 
07F38:  MOVLW  08
07F3A:  MOVWF  FEA
07F3C:  MOVLW  E7
07F3E:  MOVWF  FE9
07F40:  MOVFF  FF2,907
07F44:  BCF    FF2.7
07F46:  MOVLW  00
07F48:  MOVLB  0
07F4A:  CALL   0980
07F4E:  TBLRD*-
07F50:  TBLRD*+
07F52:  MOVF   FF5,W
07F54:  MOVWF  FEE
07F56:  IORLW  00
07F58:  BNZ   7F50
07F5A:  MOVLB  9
07F5C:  BTFSC  x07.7
07F5E:  BSF    FF2.7
....................             displayMenu(Menus.Letra,0,36,1,1);} 
07F60:  MOVLW  08
07F62:  MOVWF  x0F
07F64:  MOVLW  E7
07F66:  MOVWF  x0E
07F68:  CLRF   x10
07F6A:  MOVLW  24
07F6C:  MOVWF  x11
07F6E:  MOVLW  01
07F70:  MOVWF  x12
07F72:  MOVWF  x13
07F74:  MOVLB  0
07F76:  CALL   1A52
....................          else 
07F7A:  BRA    7FC0
07F7C:  MOVLB  6
....................             {strcpy(Menus.Letra,"Borrar Programa"); 
07F7E:  MOVLW  08
07F80:  MOVWF  FEA
07F82:  MOVLW  E7
07F84:  MOVWF  FE9
07F86:  MOVFF  FF2,907
07F8A:  BCF    FF2.7
07F8C:  MOVLW  00
07F8E:  MOVLB  0
07F90:  CALL   0980
07F94:  TBLRD*-
07F96:  TBLRD*+
07F98:  MOVF   FF5,W
07F9A:  MOVWF  FEE
07F9C:  IORLW  00
07F9E:  BNZ   7F96
07FA0:  MOVLB  9
07FA2:  BTFSC  x07.7
07FA4:  BSF    FF2.7
....................             displayMenu(Menus.Letra,0,36,0,1);}    
07FA6:  MOVLW  08
07FA8:  MOVWF  x0F
07FAA:  MOVLW  E7
07FAC:  MOVWF  x0E
07FAE:  CLRF   x10
07FB0:  MOVLW  24
07FB2:  MOVWF  x11
07FB4:  CLRF   x12
07FB6:  MOVLW  01
07FB8:  MOVWF  x13
07FBA:  MOVLB  0
07FBC:  CALL   1A52
....................                          
....................          if(Opcion==4)    
07FC0:  MOVLB  6
07FC2:  MOVF   x3F,W
07FC4:  SUBLW  04
07FC6:  BNZ   800E
....................             {strcpy(Menus.Letra,"Ajustes"); 
07FC8:  MOVLW  08
07FCA:  MOVWF  FEA
07FCC:  MOVLW  E7
07FCE:  MOVWF  FE9
07FD0:  MOVFF  FF2,907
07FD4:  BCF    FF2.7
07FD6:  MOVLW  00
07FD8:  MOVLB  0
07FDA:  CALL   09AE
07FDE:  TBLRD*-
07FE0:  TBLRD*+
07FE2:  MOVF   FF5,W
07FE4:  MOVWF  FEE
07FE6:  IORLW  00
07FE8:  BNZ   7FE0
07FEA:  MOVLB  9
07FEC:  BTFSC  x07.7
07FEE:  BSF    FF2.7
....................             displayMenu(Menus.Letra,0,45,1,1);} 
07FF0:  MOVLW  08
07FF2:  MOVWF  x0F
07FF4:  MOVLW  E7
07FF6:  MOVWF  x0E
07FF8:  CLRF   x10
07FFA:  MOVLW  2D
07FFC:  MOVWF  x11
07FFE:  MOVLW  01
08000:  MOVWF  x12
08002:  MOVWF  x13
08004:  MOVLB  0
08006:  CALL   1A52
....................          else 
0800A:  BRA    8050
0800C:  MOVLB  6
....................             {strcpy(Menus.Letra,"Ajustes"); 
0800E:  MOVLW  08
08010:  MOVWF  FEA
08012:  MOVLW  E7
08014:  MOVWF  FE9
08016:  MOVFF  FF2,907
0801A:  BCF    FF2.7
0801C:  MOVLW  00
0801E:  MOVLB  0
08020:  CALL   09AE
08024:  TBLRD*-
08026:  TBLRD*+
08028:  MOVF   FF5,W
0802A:  MOVWF  FEE
0802C:  IORLW  00
0802E:  BNZ   8026
08030:  MOVLB  9
08032:  BTFSC  x07.7
08034:  BSF    FF2.7
....................             displayMenu(Menus.Letra,0,45,0,1);}      
08036:  MOVLW  08
08038:  MOVWF  x0F
0803A:  MOVLW  E7
0803C:  MOVWF  x0E
0803E:  CLRF   x10
08040:  MOVLW  2D
08042:  MOVWF  x11
08044:  CLRF   x12
08046:  MOVLW  01
08048:  MOVWF  x13
0804A:  MOVLB  0
0804C:  CALL   1A52
....................           
....................          if(Opcion==5)    
08050:  MOVLB  6
08052:  MOVF   x3F,W
08054:  SUBLW  05
08056:  BNZ   809E
....................             {strcpy(Menus.Letra,"Cambio Clave"); 
08058:  MOVLW  08
0805A:  MOVWF  FEA
0805C:  MOVLW  E7
0805E:  MOVWF  FE9
08060:  MOVFF  FF2,907
08064:  BCF    FF2.7
08066:  MOVLW  00
08068:  MOVLB  0
0806A:  CALL   09D4
0806E:  TBLRD*-
08070:  TBLRD*+
08072:  MOVF   FF5,W
08074:  MOVWF  FEE
08076:  IORLW  00
08078:  BNZ   8070
0807A:  MOVLB  9
0807C:  BTFSC  x07.7
0807E:  BSF    FF2.7
....................             displayMenu(Menus.Letra,0,54,1,1);} 
08080:  MOVLW  08
08082:  MOVWF  x0F
08084:  MOVLW  E7
08086:  MOVWF  x0E
08088:  CLRF   x10
0808A:  MOVLW  36
0808C:  MOVWF  x11
0808E:  MOVLW  01
08090:  MOVWF  x12
08092:  MOVWF  x13
08094:  MOVLB  0
08096:  CALL   1A52
....................          else 
0809A:  BRA    80E0
0809C:  MOVLB  6
....................             {strcpy(Menus.Letra,"Cambio Clave"); 
0809E:  MOVLW  08
080A0:  MOVWF  FEA
080A2:  MOVLW  E7
080A4:  MOVWF  FE9
080A6:  MOVFF  FF2,907
080AA:  BCF    FF2.7
080AC:  MOVLW  00
080AE:  MOVLB  0
080B0:  CALL   09D4
080B4:  TBLRD*-
080B6:  TBLRD*+
080B8:  MOVF   FF5,W
080BA:  MOVWF  FEE
080BC:  IORLW  00
080BE:  BNZ   80B6
080C0:  MOVLB  9
080C2:  BTFSC  x07.7
080C4:  BSF    FF2.7
....................             displayMenu(Menus.Letra,0,54,0,1);}      
080C6:  MOVLW  08
080C8:  MOVWF  x0F
080CA:  MOVLW  E7
080CC:  MOVWF  x0E
080CE:  CLRF   x10
080D0:  MOVLW  36
080D2:  MOVWF  x11
080D4:  CLRF   x12
080D6:  MOVLW  01
080D8:  MOVWF  x13
080DA:  MOVLB  0
080DC:  CALL   1A52
....................           
....................          if(UP)//Si oprime hacia arriba 
080E0:  BSF    F92.5
080E2:  BTFSC  F80.5
080E4:  BRA    8100
....................          { 
....................             Buzz_on;delay_ms(30);Opcion--;Buzz_off; 
080E6:  BSF    F8B.5
080E8:  BCF    F94.5
080EA:  MOVLW  1E
080EC:  MOVLB  9
080EE:  MOVWF  x1D
080F0:  MOVLB  0
080F2:  CALL   13A4
080F6:  MOVLB  6
080F8:  DECF   x3F,F
080FA:  BCF    F8B.5
080FC:  BCF    F94.5
080FE:  MOVLB  0
....................          } 
....................                    
....................          if(DOWN)//Si oprime hacia abajo 
08100:  BSF    F96.0
08102:  BTFSC  F84.0
08104:  BRA    8120
....................          { 
....................             Buzz_on;delay_ms(30);Opcion++; Buzz_off; 
08106:  BSF    F8B.5
08108:  BCF    F94.5
0810A:  MOVLW  1E
0810C:  MOVLB  9
0810E:  MOVWF  x1D
08110:  MOVLB  0
08112:  CALL   13A4
08116:  MOVLB  6
08118:  INCF   x3F,F
0811A:  BCF    F8B.5
0811C:  BCF    F94.5
0811E:  MOVLB  0
....................          } 
....................                 
....................          if(RIGHT)//Si oprime SET 
08120:  BSF    F96.1
08122:  BTFSC  F84.1
08124:  BRA    81C4
....................          {  
....................             Buzz_on;delay_ms(50);Menu=Opcion+3;Opcion=1;glcd_fillscreen(OFF);Buzz_off; 
08126:  BSF    F8B.5
08128:  BCF    F94.5
0812A:  MOVLW  32
0812C:  MOVLB  9
0812E:  MOVWF  x1D
08130:  MOVLB  0
08132:  CALL   13A4
08136:  MOVLW  03
08138:  MOVLB  6
0813A:  ADDWF  x3F,W
0813C:  MOVWF  x38
0813E:  MOVLW  01
08140:  MOVWF  x3F
08142:  MOVLB  9
08144:  CLRF   x0E
08146:  MOVLB  0
08148:  CALL   1424
0814C:  BCF    F8B.5
0814E:  BCF    F94.5
....................             if(Menu==7){ 
08150:  MOVLB  6
08152:  MOVF   x38,W
08154:  SUBLW  07
08156:  BNZ   81C2
....................                //Menu=100; 
....................             delay_ms(100); 
08158:  MOVLW  64
0815A:  MOVLB  9
0815C:  MOVWF  x1D
0815E:  MOVLB  0
08160:  CALL   13A4
....................             glcd_fillScreen(OFF); 
08164:  MOVLB  9
08166:  CLRF   x0E
08168:  MOVLB  0
0816A:  CALL   1424
....................             while(!PidePassword(1,1,100,4,4,4,4)){ 
0816E:  MOVLW  01
08170:  MOVLB  9
08172:  MOVWF  x07
08174:  MOVWF  x08
08176:  MOVLW  64
08178:  MOVWF  x09
0817A:  MOVLW  04
0817C:  MOVWF  x0A
0817E:  MOVWF  x0B
08180:  MOVWF  x0C
08182:  MOVWF  x0D
08184:  MOVLB  0
08186:  CALL   3958
0818A:  MOVF   01,F
0818C:  BNZ   81B0
....................                PidePassword(1,1,100,4,4,4,4);glcd_update(); 
0818E:  MOVLW  01
08190:  MOVLB  9
08192:  MOVWF  x07
08194:  MOVWF  x08
08196:  MOVLW  64
08198:  MOVWF  x09
0819A:  MOVLW  04
0819C:  MOVWF  x0A
0819E:  MOVWF  x0B
081A0:  MOVWF  x0C
081A2:  MOVWF  x0D
081A4:  MOVLB  0
081A6:  CALL   3958
081AA:  CALL   147E
....................             }             
081AE:  BRA    816E
....................             glcd_fillScreen(OFF);Opcion=1;unidad=1; 
081B0:  MOVLB  9
081B2:  CLRF   x0E
081B4:  MOVLB  0
081B6:  CALL   1424
081BA:  MOVLW  01
081BC:  MOVLB  6
081BE:  MOVWF  x3F
081C0:  MOVWF  x39
081C2:  MOVLB  0
....................           
....................        
....................             } 
....................          } 
....................        
....................  
....................    } 
.................... //_--------------------------------------------------------------------------------------------------------------------------------------------------------        
....................  
.................... //_-------------------------------------------------------------------------------------------------------------------------------------------------------- 
....................       if(Menu==4){ //Menu de Continuar 
081C4:  MOVLB  6
081C6:  MOVF   x38,W
081C8:  SUBLW  04
081CA:  BTFSS  FD8.2
081CC:  BRA    8922
....................        
....................       if(Opcion>5) 
081CE:  MOVF   x3F,W
081D0:  SUBLW  05
081D2:  BC    81D8
....................          Opcion=1; 
081D4:  MOVLW  01
081D6:  MOVWF  x3F
....................           
....................       if(Opcion<1) 
081D8:  MOVF   x3F,F
081DA:  BNZ   81E0
....................          Opcion=5; 
081DC:  MOVLW  05
081DE:  MOVWF  x3F
....................        
....................          strcpy(Menus.Letra,"Seleccione"); 
081E0:  MOVLW  08
081E2:  MOVWF  FEA
081E4:  MOVLW  E7
081E6:  MOVWF  FE9
081E8:  MOVFF  FF2,907
081EC:  BCF    FF2.7
081EE:  MOVLW  00
081F0:  MOVLB  0
081F2:  CALL   0A00
081F6:  TBLRD*-
081F8:  TBLRD*+
081FA:  MOVF   FF5,W
081FC:  MOVWF  FEE
081FE:  IORLW  00
08200:  BNZ   81F8
08202:  MOVLB  9
08204:  BTFSC  x07.7
08206:  BSF    FF2.7
....................          displayMenu(Menus.Letra,0,0,1,2); 
08208:  MOVLW  08
0820A:  MOVWF  x0F
0820C:  MOVLW  E7
0820E:  MOVWF  x0E
08210:  CLRF   x10
08212:  CLRF   x11
08214:  MOVLW  01
08216:  MOVWF  x12
08218:  MOVLW  02
0821A:  MOVWF  x13
0821C:  MOVLB  0
0821E:  CALL   1A52
....................           
....................          strcpy(Menus.Letra," Programa"); 
08222:  MOVLW  08
08224:  MOVWF  FEA
08226:  MOVLW  E7
08228:  MOVWF  FE9
0822A:  MOVFF  FF2,907
0822E:  BCF    FF2.7
08230:  MOVLW  00
08232:  CALL   0A2A
08236:  TBLRD*-
08238:  TBLRD*+
0823A:  MOVF   FF5,W
0823C:  MOVWF  FEE
0823E:  IORLW  00
08240:  BNZ   8238
08242:  MOVLB  9
08244:  BTFSC  x07.7
08246:  BSF    FF2.7
....................          displayMenu(Menus.Letra,0,16,1,2); 
08248:  MOVLW  08
0824A:  MOVWF  x0F
0824C:  MOVLW  E7
0824E:  MOVWF  x0E
08250:  CLRF   x10
08252:  MOVLW  10
08254:  MOVWF  x11
08256:  MOVLW  01
08258:  MOVWF  x12
0825A:  MOVLW  02
0825C:  MOVWF  x13
0825E:  MOVLB  0
08260:  CALL   1A52
....................            
....................           
....................          if(Opcion==1) 
08264:  MOVLB  6
08266:  DECFSZ x3F,W
08268:  BRA    82AE
....................          { 
....................             strcpy(Menus.Letra,"Programa 01"); 
0826A:  MOVLW  08
0826C:  MOVWF  FEA
0826E:  MOVLW  E7
08270:  MOVWF  FE9
08272:  MOVFF  FF2,907
08276:  BCF    FF2.7
08278:  MOVLW  00
0827A:  MOVLB  0
0827C:  CALL   0A52
08280:  TBLRD*-
08282:  TBLRD*+
08284:  MOVF   FF5,W
08286:  MOVWF  FEE
08288:  IORLW  00
0828A:  BNZ   8282
0828C:  MOVLB  9
0828E:  BTFSC  x07.7
08290:  BSF    FF2.7
....................             displayMenu(Menus.Letra,0,38,0,2); 
08292:  MOVLW  08
08294:  MOVWF  x0F
08296:  MOVLW  E7
08298:  MOVWF  x0E
0829A:  CLRF   x10
0829C:  MOVLW  26
0829E:  MOVWF  x11
082A0:  CLRF   x12
082A2:  MOVLW  02
082A4:  MOVWF  x13
082A6:  MOVLB  0
082A8:  CALL   1A52
082AC:  MOVLB  6
....................          } 
....................           
....................          if(Opcion==2) 
082AE:  MOVF   x3F,W
082B0:  SUBLW  02
082B2:  BNZ   82F8
....................          { 
....................             strcpy(Menus.Letra,"Programa 02"); 
082B4:  MOVLW  08
082B6:  MOVWF  FEA
082B8:  MOVLW  E7
082BA:  MOVWF  FE9
082BC:  MOVFF  FF2,907
082C0:  BCF    FF2.7
082C2:  MOVLW  00
082C4:  MOVLB  0
082C6:  CALL   0A7C
082CA:  TBLRD*-
082CC:  TBLRD*+
082CE:  MOVF   FF5,W
082D0:  MOVWF  FEE
082D2:  IORLW  00
082D4:  BNZ   82CC
082D6:  MOVLB  9
082D8:  BTFSC  x07.7
082DA:  BSF    FF2.7
....................             displayMenu(Menus.Letra,0,38,0,2); 
082DC:  MOVLW  08
082DE:  MOVWF  x0F
082E0:  MOVLW  E7
082E2:  MOVWF  x0E
082E4:  CLRF   x10
082E6:  MOVLW  26
082E8:  MOVWF  x11
082EA:  CLRF   x12
082EC:  MOVLW  02
082EE:  MOVWF  x13
082F0:  MOVLB  0
082F2:  CALL   1A52
082F6:  MOVLB  6
....................          } 
....................           
....................          if(Opcion==3) 
082F8:  MOVF   x3F,W
082FA:  SUBLW  03
082FC:  BNZ   8342
....................          { 
....................             strcpy(Menus.Letra,"Programa 03"); 
082FE:  MOVLW  08
08300:  MOVWF  FEA
08302:  MOVLW  E7
08304:  MOVWF  FE9
08306:  MOVFF  FF2,907
0830A:  BCF    FF2.7
0830C:  MOVLW  00
0830E:  MOVLB  0
08310:  CALL   0AA6
08314:  TBLRD*-
08316:  TBLRD*+
08318:  MOVF   FF5,W
0831A:  MOVWF  FEE
0831C:  IORLW  00
0831E:  BNZ   8316
08320:  MOVLB  9
08322:  BTFSC  x07.7
08324:  BSF    FF2.7
....................             displayMenu(Menus.Letra,0,38,0,2); 
08326:  MOVLW  08
08328:  MOVWF  x0F
0832A:  MOVLW  E7
0832C:  MOVWF  x0E
0832E:  CLRF   x10
08330:  MOVLW  26
08332:  MOVWF  x11
08334:  CLRF   x12
08336:  MOVLW  02
08338:  MOVWF  x13
0833A:  MOVLB  0
0833C:  CALL   1A52
08340:  MOVLB  6
....................          } 
....................           
....................          if(Opcion==4) 
08342:  MOVF   x3F,W
08344:  SUBLW  04
08346:  BNZ   838C
....................          { 
....................             strcpy(Menus.Letra,"Programa 04"); 
08348:  MOVLW  08
0834A:  MOVWF  FEA
0834C:  MOVLW  E7
0834E:  MOVWF  FE9
08350:  MOVFF  FF2,907
08354:  BCF    FF2.7
08356:  MOVLW  00
08358:  MOVLB  0
0835A:  CALL   0AD0
0835E:  TBLRD*-
08360:  TBLRD*+
08362:  MOVF   FF5,W
08364:  MOVWF  FEE
08366:  IORLW  00
08368:  BNZ   8360
0836A:  MOVLB  9
0836C:  BTFSC  x07.7
0836E:  BSF    FF2.7
....................             displayMenu(Menus.Letra,0,38,0,2); 
08370:  MOVLW  08
08372:  MOVWF  x0F
08374:  MOVLW  E7
08376:  MOVWF  x0E
08378:  CLRF   x10
0837A:  MOVLW  26
0837C:  MOVWF  x11
0837E:  CLRF   x12
08380:  MOVLW  02
08382:  MOVWF  x13
08384:  MOVLB  0
08386:  CALL   1A52
0838A:  MOVLB  6
....................          } 
....................           
....................          if(Opcion==5) 
0838C:  MOVF   x3F,W
0838E:  SUBLW  05
08390:  BNZ   83D6
....................          { 
....................             strcpy(Menus.Letra,"Programa 05"); 
08392:  MOVLW  08
08394:  MOVWF  FEA
08396:  MOVLW  E7
08398:  MOVWF  FE9
0839A:  MOVFF  FF2,907
0839E:  BCF    FF2.7
083A0:  MOVLW  00
083A2:  MOVLB  0
083A4:  CALL   0AFA
083A8:  TBLRD*-
083AA:  TBLRD*+
083AC:  MOVF   FF5,W
083AE:  MOVWF  FEE
083B0:  IORLW  00
083B2:  BNZ   83AA
083B4:  MOVLB  9
083B6:  BTFSC  x07.7
083B8:  BSF    FF2.7
....................             displayMenu(Menus.Letra,0,38,0,2); 
083BA:  MOVLW  08
083BC:  MOVWF  x0F
083BE:  MOVLW  E7
083C0:  MOVWF  x0E
083C2:  CLRF   x10
083C4:  MOVLW  26
083C6:  MOVWF  x11
083C8:  CLRF   x12
083CA:  MOVLW  02
083CC:  MOVWF  x13
083CE:  MOVLB  0
083D0:  CALL   1A52
083D4:  MOVLB  6
....................          } 
....................           
....................          
....................       if(UP)//Si oprime hacia arriba 
083D6:  BSF    F92.5
083D8:  BTFSC  F80.5
083DA:  BRA    8414
....................       { 
....................          Buzz_on;delay_ms(30);Opcion++;Buzz_off; 
083DC:  BSF    F8B.5
083DE:  BCF    F94.5
083E0:  MOVLW  1E
083E2:  MOVLB  9
083E4:  MOVWF  x1D
083E6:  MOVLB  0
083E8:  CALL   13A4
083EC:  MOVLB  6
083EE:  INCF   x3F,F
083F0:  BCF    F8B.5
083F2:  BCF    F94.5
....................          glcd_rect(40, 35, 85, 60, YES, OFF); 
083F4:  MOVLW  28
083F6:  MOVLB  9
083F8:  MOVWF  x1F
083FA:  MOVLW  23
083FC:  MOVWF  x20
083FE:  MOVLW  55
08400:  MOVWF  x21
08402:  MOVLW  3C
08404:  MOVWF  x22
08406:  MOVLW  01
08408:  MOVWF  x23
0840A:  CLRF   x24
0840C:  MOVLB  0
0840E:  CALL   17D8
08412:  MOVLB  6
....................       } 
....................              
....................       if(DOWN)//Si oprime hacia abajo 
08414:  BSF    F96.0
08416:  BTFSC  F84.0
08418:  BRA    8452
....................       {   
....................          Buzz_on;delay_ms(30);Opcion--;Buzz_off; 
0841A:  BSF    F8B.5
0841C:  BCF    F94.5
0841E:  MOVLW  1E
08420:  MOVLB  9
08422:  MOVWF  x1D
08424:  MOVLB  0
08426:  CALL   13A4
0842A:  MOVLB  6
0842C:  DECF   x3F,F
0842E:  BCF    F8B.5
08430:  BCF    F94.5
....................          glcd_rect(40, 35, 85, 60, YES, OFF); 
08432:  MOVLW  28
08434:  MOVLB  9
08436:  MOVWF  x1F
08438:  MOVLW  23
0843A:  MOVWF  x20
0843C:  MOVLW  55
0843E:  MOVWF  x21
08440:  MOVLW  3C
08442:  MOVWF  x22
08444:  MOVLW  01
08446:  MOVWF  x23
08448:  CLRF   x24
0844A:  MOVLB  0
0844C:  CALL   17D8
08450:  MOVLB  6
....................       } 
....................              
....................       if(RIGHT)//Si oprime SET 
08452:  BSF    F96.1
08454:  BTFSC  F84.1
08456:  BRA    88EC
....................       {   
....................          Menu=20;glcd_fillscreen(OFF); 
08458:  MOVLW  14
0845A:  MOVWF  x38
0845C:  MOVLB  9
0845E:  CLRF   x0E
08460:  MOVLB  0
08462:  CALL   1424
....................          for(i=0;i<Pasos;i++){ 
08466:  MOVLB  6
08468:  CLRF   x3A
0846A:  MOVF   x3A,W
0846C:  SUBLW  0F
0846E:  BNC   84B8
....................             if(Temperatura1[i+((Opcion-1)*Pasos)]==0){ 
08470:  MOVLW  01
08472:  SUBWF  x3F,W
08474:  MULLW  10
08476:  MOVF   FF3,W
08478:  ADDWF  x3A,W
0847A:  MOVWF  00
0847C:  BCF    FD8.0
0847E:  RLCF   00,F
08480:  MOVF   00,W
08482:  CLRF   03
08484:  ADDLW  07
08486:  MOVWF  FE9
08488:  MOVLW  07
0848A:  ADDWFC 03,W
0848C:  MOVWF  FEA
0848E:  MOVFF  FEC,908
08492:  MOVF   FED,F
08494:  MOVFF  FEF,907
08498:  MOVLB  9
0849A:  MOVF   x07,F
0849C:  BNZ   84AE
0849E:  MOVF   x08,F
084A0:  BNZ   84AE
....................                Segmentos=i; 
084A2:  MOVFF  63A,62D
....................                break; 
084A6:  MOVLB  6
084A8:  BRA    84B8
....................             } 
....................             else{ 
084AA:  BRA    84B4
084AC:  MOVLB  9
....................                Segmentos=Pasos-1; 
084AE:  MOVLW  0F
084B0:  MOVLB  6
084B2:  MOVWF  x2D
....................             } 
....................             //Horas1[i+((Opcion-1)*10)]=0; 
....................             //Minutos1[i+((Opcion-1)*10)]=0; 
....................          } 
084B4:  INCF   x3A,F
084B6:  BRA    846A
....................          if(Segmentos>0){ 
084B8:  MOVF   x2D,F
084BA:  BTFSC  FD8.2
084BC:  BRA    882C
....................             ProgramaSeleccionado=Opcion-1; 
084BE:  MOVLW  01
084C0:  SUBWF  x3F,W
084C2:  MOVWF  x41
....................             glcd_fillscreen(OFF); 
084C4:  MOVLB  9
084C6:  CLRF   x0E
084C8:  MOVLB  0
084CA:  CALL   1424
....................              
....................             strcpy(Menus.Letra," Segmentos"); 
084CE:  MOVLW  08
084D0:  MOVWF  FEA
084D2:  MOVLW  E7
084D4:  MOVWF  FE9
084D6:  MOVFF  FF2,907
084DA:  BCF    FF2.7
084DC:  MOVLW  00
084DE:  CALL   0B24
084E2:  TBLRD*-
084E4:  TBLRD*+
084E6:  MOVF   FF5,W
084E8:  MOVWF  FEE
084EA:  IORLW  00
084EC:  BNZ   84E4
084EE:  MOVLB  9
084F0:  BTFSC  x07.7
084F2:  BSF    FF2.7
....................             displayMenu(Menus.Letra,0,0,0,2); 
084F4:  MOVLW  08
084F6:  MOVWF  x0F
084F8:  MOVLW  E7
084FA:  MOVWF  x0E
084FC:  CLRF   x10
084FE:  CLRF   x11
08500:  CLRF   x12
08502:  MOVLW  02
08504:  MOVWF  x13
08506:  MOVLB  0
08508:  CALL   1A52
....................              
....................             displayTiempo(Segmentos,63,30,3,2); 
0850C:  MOVFF  62D,90A
08510:  MOVLW  3F
08512:  MOVLB  9
08514:  MOVWF  x0B
08516:  MOVLW  1E
08518:  MOVWF  x0C
0851A:  MOVLW  03
0851C:  MOVWF  x0D
0851E:  MOVLW  02
08520:  MOVWF  x0E
08522:  MOVLB  0
08524:  CALL   3FCC
....................             delay_ms(2000); 
08528:  MOVLW  08
0852A:  MOVLB  9
0852C:  MOVWF  x07
0852E:  MOVLW  FA
08530:  MOVWF  x1D
08532:  MOVLB  0
08534:  CALL   13A4
08538:  MOVLB  9
0853A:  DECFSZ x07,F
0853C:  BRA    852E
....................             glcd_fillscreen(OFF); 
0853E:  CLRF   x0E
08540:  MOVLB  0
08542:  CALL   1424
....................             Opcion=1;visual=1;//Faltaa cuadrar esta parte 
08546:  MOVLW  01
08548:  MOVLB  6
0854A:  MOVWF  x3F
0854C:  BSF    x22.7
....................             TempeInicial=Temperatura; 
0854E:  MOVFF  6CE,662
08552:  MOVFF  6CD,661
08556:  MOVFF  6CC,660
0855A:  MOVFF  6CB,65F
....................             Ganancia=GananciaIn*(Setpoint/Coeficiente); 
0855E:  MOVFF  6DA,91F
08562:  MOVFF  6D9,91E
08566:  MOVFF  6D8,91D
0856A:  MOVFF  6D7,91C
0856E:  MOVFF  6C2,923
08572:  MOVFF  6C1,922
08576:  MOVFF  6C0,921
0857A:  MOVFF  6BF,920
0857E:  MOVLB  0
08580:  CALL   1E0A
08584:  MOVFF  6B6,92B
08588:  MOVFF  6B5,92A
0858C:  MOVFF  6B4,929
08590:  MOVFF  6B3,928
08594:  MOVFF  03,92F
08598:  MOVFF  02,92E
0859C:  MOVFF  01,92D
085A0:  MOVFF  00,92C
085A4:  CALL   32D4
085A8:  MOVFF  03,6BA
085AC:  MOVFF  02,6B9
085B0:  MOVFF  01,6B8
085B4:  MOVFF  00,6B7
....................              
....................             Tiempo=(Horas1[ProgramaSeleccionado*Pasos]*3600)+(Minutos1[ProgramaSeleccionado*Pasos]*60);          
085B8:  MOVLB  6
085BA:  MOVF   x41,W
085BC:  MULLW  10
085BE:  MOVFF  FF3,00
085C2:  BCF    FD8.0
085C4:  RLCF   00,F
085C6:  MOVF   00,W
085C8:  CLRF   03
085CA:  ADDLW  A7
085CC:  MOVWF  FE9
085CE:  MOVLW  07
085D0:  ADDWFC 03,W
085D2:  MOVWF  FEA
085D4:  MOVFF  FEC,908
085D8:  MOVF   FED,F
085DA:  MOVFF  FEF,907
085DE:  MOVFF  908,90C
085E2:  MOVFF  907,90B
085E6:  MOVLW  0E
085E8:  MOVLB  9
085EA:  MOVWF  x0E
085EC:  MOVLW  10
085EE:  MOVWF  x0D
085F0:  MOVLB  0
085F2:  CALL   4192
085F6:  MOVFF  02,908
085FA:  MOVFF  01,907
085FE:  MOVLB  6
08600:  MOVF   x41,W
08602:  MULLW  10
08604:  MOVFF  FF3,00
08608:  BCF    FD8.0
0860A:  RLCF   00,F
0860C:  MOVF   00,W
0860E:  CLRF   03
08610:  ADDLW  47
08612:  MOVWF  FE9
08614:  MOVLW  08
08616:  ADDWFC 03,W
08618:  MOVWF  FEA
0861A:  MOVFF  FEC,90A
0861E:  MOVF   FED,F
08620:  MOVFF  FEF,909
08624:  MOVFF  90A,90C
08628:  MOVFF  909,90B
0862C:  MOVLB  9
0862E:  CLRF   x0E
08630:  MOVLW  3C
08632:  MOVWF  x0D
08634:  MOVLB  0
08636:  CALL   4192
0863A:  MOVFF  02,03
0863E:  MOVF   01,W
08640:  MOVLB  9
08642:  ADDWF  x07,W
08644:  MOVWF  01
08646:  MOVF   x08,W
08648:  ADDWFC 03,F
0864A:  MOVFF  01,90B
0864E:  MOVFF  03,90C
08652:  MOVLB  0
08654:  CALL   41E6
08658:  MOVFF  03,666
0865C:  MOVFF  02,665
08660:  MOVFF  01,664
08664:  MOVFF  00,663
....................             Setpoint=Temperatura1[(ProgramaSeleccionado*Pasos)+Segmento]; 
08668:  MOVLB  6
0866A:  MOVF   x41,W
0866C:  MULLW  10
0866E:  MOVF   FF3,W
08670:  ADDWF  x2E,W
08672:  MOVWF  00
08674:  BCF    FD8.0
08676:  RLCF   00,F
08678:  MOVF   00,W
0867A:  CLRF   03
0867C:  ADDLW  07
0867E:  MOVWF  FE9
08680:  MOVLW  07
08682:  ADDWFC 03,W
08684:  MOVWF  FEA
08686:  MOVFF  FEC,03
0868A:  MOVF   FED,F
0868C:  MOVFF  FEF,90B
08690:  MOVFF  03,90C
08694:  MOVLB  0
08696:  CALL   41E6
0869A:  MOVFF  03,6DA
0869E:  MOVFF  02,6D9
086A2:  MOVFF  01,6D8
086A6:  MOVFF  00,6D7
....................             Pendiente=((Setpoint-TempeInicial)/Tiempo); 
086AA:  BSF    FD8.1
086AC:  MOVFF  6DA,91D
086B0:  MOVFF  6D9,91C
086B4:  MOVFF  6D8,91B
086B8:  MOVFF  6D7,91A
086BC:  MOVFF  662,921
086C0:  MOVFF  661,920
086C4:  MOVFF  660,91F
086C8:  MOVFF  65F,91E
086CC:  CALL   1F68
086D0:  MOVFF  00,907
086D4:  MOVFF  01,908
086D8:  MOVFF  02,909
086DC:  MOVFF  03,90A
086E0:  MOVFF  03,91F
086E4:  MOVFF  02,91E
086E8:  MOVFF  01,91D
086EC:  MOVFF  00,91C
086F0:  MOVFF  666,923
086F4:  MOVFF  665,922
086F8:  MOVFF  664,921
086FC:  MOVFF  663,920
08700:  CALL   1E0A
08704:  MOVFF  03,6D2
08708:  MOVFF  02,6D1
0870C:  MOVFF  01,6D0
08710:  MOVFF  00,6CF
....................             Testerilizacionp[3]=(int8)Horas1[(ProgramaSeleccionado*Pasos)+Segmento]/10; 
08714:  MOVLB  6
08716:  MOVF   x41,W
08718:  MULLW  10
0871A:  MOVF   FF3,W
0871C:  ADDWF  x2E,W
0871E:  MOVWF  00
08720:  BCF    FD8.0
08722:  RLCF   00,F
08724:  MOVF   00,W
08726:  CLRF   03
08728:  ADDLW  A7
0872A:  MOVWF  FE9
0872C:  MOVLW  07
0872E:  ADDWFC 03,W
08730:  MOVWF  FEA
08732:  MOVFF  FEF,923
08736:  MOVLW  0A
08738:  MOVLB  9
0873A:  MOVWF  x24
0873C:  MOVLB  0
0873E:  CALL   1B78
08742:  MOVFF  01,68E
08746:  MOVLB  6
....................             Testerilizacionp[2]=Horas1[(ProgramaSeleccionado*Pasos)+Segmento]-(Testerilizacionp[3]*10); 
08748:  MOVF   x41,W
0874A:  MULLW  10
0874C:  MOVF   FF3,W
0874E:  ADDWF  x2E,W
08750:  MOVWF  00
08752:  BCF    FD8.0
08754:  RLCF   00,F
08756:  MOVF   00,W
08758:  CLRF   03
0875A:  ADDLW  A7
0875C:  MOVWF  FE9
0875E:  MOVLW  07
08760:  ADDWFC 03,W
08762:  MOVWF  FEA
08764:  MOVFF  FEC,908
08768:  MOVF   FED,F
0876A:  MOVFF  FEF,907
0876E:  MOVFF  68E,928
08772:  MOVLW  0A
08774:  MOVLB  9
08776:  MOVWF  x29
08778:  MOVLB  0
0877A:  CALL   4236
0877E:  MOVF   01,W
08780:  CLRF   03
08782:  MOVWF  00
08784:  BTFSC  FE8.7
08786:  DECF   03,F
08788:  MOVLB  9
0878A:  SUBWF  x07,W
0878C:  MOVWF  00
0878E:  MOVF   03,W
08790:  SUBWFB x08,W
08792:  MOVFF  00,68D
08796:  MOVLB  6
....................             Testerilizacionp[1]=Minutos1[(ProgramaSeleccionado*Pasos)+Segmento]/10; 
08798:  MOVF   x41,W
0879A:  MULLW  10
0879C:  MOVF   FF3,W
0879E:  ADDWF  x2E,W
087A0:  MOVWF  00
087A2:  BCF    FD8.0
087A4:  RLCF   00,F
087A6:  MOVF   00,W
087A8:  CLRF   03
087AA:  ADDLW  47
087AC:  MOVWF  FE9
087AE:  MOVLW  08
087B0:  ADDWFC 03,W
087B2:  MOVWF  FEA
087B4:  MOVFF  FEC,908
087B8:  MOVF   FED,F
087BA:  MOVFF  FEF,907
087BE:  MOVFF  908,90A
087C2:  MOVFF  907,909
087C6:  MOVLB  9
087C8:  CLRF   x0C
087CA:  MOVLW  0A
087CC:  MOVWF  x0B
087CE:  MOVLB  0
087D0:  CALL   4284
087D4:  MOVFF  01,68C
087D8:  MOVLB  6
....................             Testerilizacionp[0]=Minutos1[(ProgramaSeleccionado*Pasos)+Segmento]-(Testerilizacionp[1]*10); 
087DA:  MOVF   x41,W
087DC:  MULLW  10
087DE:  MOVF   FF3,W
087E0:  ADDWF  x2E,W
087E2:  MOVWF  00
087E4:  BCF    FD8.0
087E6:  RLCF   00,F
087E8:  MOVF   00,W
087EA:  CLRF   03
087EC:  ADDLW  47
087EE:  MOVWF  FE9
087F0:  MOVLW  08
087F2:  ADDWFC 03,W
087F4:  MOVWF  FEA
087F6:  MOVFF  FEC,908
087FA:  MOVF   FED,F
087FC:  MOVFF  FEF,907
08800:  MOVFF  68C,928
08804:  MOVLW  0A
08806:  MOVLB  9
08808:  MOVWF  x29
0880A:  MOVLB  0
0880C:  CALL   4236
08810:  MOVF   01,W
08812:  CLRF   03
08814:  MOVWF  00
08816:  BTFSC  FE8.7
08818:  DECF   03,F
0881A:  MOVLB  9
0881C:  SUBWF  x07,W
0881E:  MOVWF  00
08820:  MOVF   03,W
08822:  SUBWFB x08,W
08824:  MOVFF  00,68B
08828:  MOVLB  6
....................              
....................          } 
....................          else{ 
0882A:  BRA    88EC
....................             glcd_fillscreen(OFF); 
0882C:  MOVLB  9
0882E:  CLRF   x0E
08830:  MOVLB  0
08832:  CALL   1424
....................             strcpy(Menus.Letra," !Programa"); 
08836:  MOVLW  08
08838:  MOVWF  FEA
0883A:  MOVLW  E7
0883C:  MOVWF  FE9
0883E:  MOVFF  FF2,907
08842:  BCF    FF2.7
08844:  MOVLW  00
08846:  CALL   0B4E
0884A:  TBLRD*-
0884C:  TBLRD*+
0884E:  MOVF   FF5,W
08850:  MOVWF  FEE
08852:  IORLW  00
08854:  BNZ   884C
08856:  MOVLB  9
08858:  BTFSC  x07.7
0885A:  BSF    FF2.7
....................             displayMenu(Menus.Letra,0,0,0,2); 
0885C:  MOVLW  08
0885E:  MOVWF  x0F
08860:  MOVLW  E7
08862:  MOVWF  x0E
08864:  CLRF   x10
08866:  CLRF   x11
08868:  CLRF   x12
0886A:  MOVLW  02
0886C:  MOVWF  x13
0886E:  MOVLB  0
08870:  CALL   1A52
....................             strcpy(Menus.Letra,"    Vacio!"); 
08874:  MOVLW  08
08876:  MOVWF  FEA
08878:  MOVLW  E7
0887A:  MOVWF  FE9
0887C:  MOVFF  FF2,907
08880:  BCF    FF2.7
08882:  MOVLW  00
08884:  CALL   0B78
08888:  TBLRD*-
0888A:  TBLRD*+
0888C:  MOVF   FF5,W
0888E:  MOVWF  FEE
08890:  IORLW  00
08892:  BNZ   888A
08894:  MOVLB  9
08896:  BTFSC  x07.7
08898:  BSF    FF2.7
....................             displayMenu(Menus.Letra,0,20,0,2); 
0889A:  MOVLW  08
0889C:  MOVWF  x0F
0889E:  MOVLW  E7
088A0:  MOVWF  x0E
088A2:  CLRF   x10
088A4:  MOVLW  14
088A6:  MOVWF  x11
088A8:  CLRF   x12
088AA:  MOVLW  02
088AC:  MOVWF  x13
088AE:  MOVLB  0
088B0:  CALL   1A52
....................             Opcion=1;Buzz_off;delay_ms(2000);Menu=1;glcd_fillscreen(OFF);Opcion=1;visual=1; 
088B4:  MOVLW  01
088B6:  MOVLB  6
088B8:  MOVWF  x3F
088BA:  BCF    F8B.5
088BC:  BCF    F94.5
088BE:  MOVLW  08
088C0:  MOVLB  9
088C2:  MOVWF  x07
088C4:  MOVLW  FA
088C6:  MOVWF  x1D
088C8:  MOVLB  0
088CA:  CALL   13A4
088CE:  MOVLB  9
088D0:  DECFSZ x07,F
088D2:  BRA    88C4
088D4:  MOVLW  01
088D6:  MOVLB  6
088D8:  MOVWF  x38
088DA:  MOVLB  9
088DC:  CLRF   x0E
088DE:  MOVLB  0
088E0:  CALL   1424
088E4:  MOVLW  01
088E6:  MOVLB  6
088E8:  MOVWF  x3F
088EA:  BSF    x22.7
....................          } 
....................       }  
....................                    
....................       if(LEFT)//Si oprime boton de Toma. 
088EC:  BSF    F96.2
088EE:  BTFSC  F84.2
088F0:  BRA    8922
....................       { 
....................          Buzz_on;Opcion=1;Buzz_off;delay_ms(50);Menu=1;glcd_fillscreen(OFF);Opcion=1;visual=1; 
088F2:  BSF    F8B.5
088F4:  BCF    F94.5
088F6:  MOVLW  01
088F8:  MOVWF  x3F
088FA:  BCF    F8B.5
088FC:  BCF    F94.5
088FE:  MOVLW  32
08900:  MOVLB  9
08902:  MOVWF  x1D
08904:  MOVLB  0
08906:  CALL   13A4
0890A:  MOVLW  01
0890C:  MOVLB  6
0890E:  MOVWF  x38
08910:  MOVLB  9
08912:  CLRF   x0E
08914:  MOVLB  0
08916:  CALL   1424
0891A:  MOVLW  01
0891C:  MOVLB  6
0891E:  MOVWF  x3F
08920:  BSF    x22.7
....................       }  
....................     } 
.................... //_--------------------------------------------------------------------------------------------------------------------------------------------------------        
....................  
.................... //_-------------------------------------------------------------------------------------------------------------------------------------------------------- 
....................       if(Menu==5){ //Menu Editar Programa 
08922:  MOVF   x38,W
08924:  SUBLW  05
08926:  BTFSS  FD8.2
08928:  BRA    8CF2
....................        
....................          if(Opcion>5) 
0892A:  MOVF   x3F,W
0892C:  SUBLW  05
0892E:  BC    8934
....................          {Opcion=1;} 
08930:  MOVLW  01
08932:  MOVWF  x3F
....................          if(Opcion<1) 
08934:  MOVF   x3F,F
08936:  BNZ   893C
....................          {Opcion=5;} 
08938:  MOVLW  05
0893A:  MOVWF  x3F
....................           
....................          strcpy(Menus.Letra,"Editar"); 
0893C:  MOVLW  08
0893E:  MOVWF  FEA
08940:  MOVLW  E7
08942:  MOVWF  FE9
08944:  MOVFF  FF2,907
08948:  BCF    FF2.7
0894A:  MOVLW  00
0894C:  MOVLB  0
0894E:  CALL   0BA2
08952:  TBLRD*-
08954:  TBLRD*+
08956:  MOVF   FF5,W
08958:  MOVWF  FEE
0895A:  IORLW  00
0895C:  BNZ   8954
0895E:  MOVLB  9
08960:  BTFSC  x07.7
08962:  BSF    FF2.7
....................          displayMenu(Menus.Letra,30,0,1,2); 
08964:  MOVLW  08
08966:  MOVWF  x0F
08968:  MOVLW  E7
0896A:  MOVWF  x0E
0896C:  MOVLW  1E
0896E:  MOVWF  x10
08970:  CLRF   x11
08972:  MOVLW  01
08974:  MOVWF  x12
08976:  MOVLW  02
08978:  MOVWF  x13
0897A:  MOVLB  0
0897C:  CALL   1A52
....................        
....................          if(Opcion==1)    
08980:  MOVLB  6
08982:  DECFSZ x3F,W
08984:  BRA    89CC
....................             {strcpy(Menus.Letra,"Programa 01"); 
08986:  MOVLW  08
08988:  MOVWF  FEA
0898A:  MOVLW  E7
0898C:  MOVWF  FE9
0898E:  MOVFF  FF2,907
08992:  BCF    FF2.7
08994:  MOVLW  00
08996:  MOVLB  0
08998:  CALL   0A52
0899C:  TBLRD*-
0899E:  TBLRD*+
089A0:  MOVF   FF5,W
089A2:  MOVWF  FEE
089A4:  IORLW  00
089A6:  BNZ   899E
089A8:  MOVLB  9
089AA:  BTFSC  x07.7
089AC:  BSF    FF2.7
....................             displayMenu(Menus.Letra,0,18,1,1);} 
089AE:  MOVLW  08
089B0:  MOVWF  x0F
089B2:  MOVLW  E7
089B4:  MOVWF  x0E
089B6:  CLRF   x10
089B8:  MOVLW  12
089BA:  MOVWF  x11
089BC:  MOVLW  01
089BE:  MOVWF  x12
089C0:  MOVWF  x13
089C2:  MOVLB  0
089C4:  CALL   1A52
....................          else 
089C8:  BRA    8A0E
089CA:  MOVLB  6
....................             {strcpy(Menus.Letra,"Programa 01"); 
089CC:  MOVLW  08
089CE:  MOVWF  FEA
089D0:  MOVLW  E7
089D2:  MOVWF  FE9
089D4:  MOVFF  FF2,907
089D8:  BCF    FF2.7
089DA:  MOVLW  00
089DC:  MOVLB  0
089DE:  CALL   0A52
089E2:  TBLRD*-
089E4:  TBLRD*+
089E6:  MOVF   FF5,W
089E8:  MOVWF  FEE
089EA:  IORLW  00
089EC:  BNZ   89E4
089EE:  MOVLB  9
089F0:  BTFSC  x07.7
089F2:  BSF    FF2.7
....................             displayMenu(Menus.Letra,0,18,0,1);} 
089F4:  MOVLW  08
089F6:  MOVWF  x0F
089F8:  MOVLW  E7
089FA:  MOVWF  x0E
089FC:  CLRF   x10
089FE:  MOVLW  12
08A00:  MOVWF  x11
08A02:  CLRF   x12
08A04:  MOVLW  01
08A06:  MOVWF  x13
08A08:  MOVLB  0
08A0A:  CALL   1A52
....................           
....................          if(Opcion==2)    
08A0E:  MOVLB  6
08A10:  MOVF   x3F,W
08A12:  SUBLW  02
08A14:  BNZ   8A5C
....................             {strcpy(Menus.Letra,"Programa 02"); 
08A16:  MOVLW  08
08A18:  MOVWF  FEA
08A1A:  MOVLW  E7
08A1C:  MOVWF  FE9
08A1E:  MOVFF  FF2,907
08A22:  BCF    FF2.7
08A24:  MOVLW  00
08A26:  MOVLB  0
08A28:  CALL   0A7C
08A2C:  TBLRD*-
08A2E:  TBLRD*+
08A30:  MOVF   FF5,W
08A32:  MOVWF  FEE
08A34:  IORLW  00
08A36:  BNZ   8A2E
08A38:  MOVLB  9
08A3A:  BTFSC  x07.7
08A3C:  BSF    FF2.7
....................             displayMenu(Menus.Letra,0,27,1,1);} 
08A3E:  MOVLW  08
08A40:  MOVWF  x0F
08A42:  MOVLW  E7
08A44:  MOVWF  x0E
08A46:  CLRF   x10
08A48:  MOVLW  1B
08A4A:  MOVWF  x11
08A4C:  MOVLW  01
08A4E:  MOVWF  x12
08A50:  MOVWF  x13
08A52:  MOVLB  0
08A54:  CALL   1A52
....................          else 
08A58:  BRA    8A9E
08A5A:  MOVLB  6
....................             {strcpy(Menus.Letra,"Programa 02"); 
08A5C:  MOVLW  08
08A5E:  MOVWF  FEA
08A60:  MOVLW  E7
08A62:  MOVWF  FE9
08A64:  MOVFF  FF2,907
08A68:  BCF    FF2.7
08A6A:  MOVLW  00
08A6C:  MOVLB  0
08A6E:  CALL   0A7C
08A72:  TBLRD*-
08A74:  TBLRD*+
08A76:  MOVF   FF5,W
08A78:  MOVWF  FEE
08A7A:  IORLW  00
08A7C:  BNZ   8A74
08A7E:  MOVLB  9
08A80:  BTFSC  x07.7
08A82:  BSF    FF2.7
....................             displayMenu(Menus.Letra,0,27,0,1);} 
08A84:  MOVLW  08
08A86:  MOVWF  x0F
08A88:  MOVLW  E7
08A8A:  MOVWF  x0E
08A8C:  CLRF   x10
08A8E:  MOVLW  1B
08A90:  MOVWF  x11
08A92:  CLRF   x12
08A94:  MOVLW  01
08A96:  MOVWF  x13
08A98:  MOVLB  0
08A9A:  CALL   1A52
....................              
....................          if(Opcion==3)    
08A9E:  MOVLB  6
08AA0:  MOVF   x3F,W
08AA2:  SUBLW  03
08AA4:  BNZ   8AEC
....................             {strcpy(Menus.Letra,"Programa 03"); 
08AA6:  MOVLW  08
08AA8:  MOVWF  FEA
08AAA:  MOVLW  E7
08AAC:  MOVWF  FE9
08AAE:  MOVFF  FF2,907
08AB2:  BCF    FF2.7
08AB4:  MOVLW  00
08AB6:  MOVLB  0
08AB8:  CALL   0AA6
08ABC:  TBLRD*-
08ABE:  TBLRD*+
08AC0:  MOVF   FF5,W
08AC2:  MOVWF  FEE
08AC4:  IORLW  00
08AC6:  BNZ   8ABE
08AC8:  MOVLB  9
08ACA:  BTFSC  x07.7
08ACC:  BSF    FF2.7
....................             displayMenu(Menus.Letra,0,36,1,1);} 
08ACE:  MOVLW  08
08AD0:  MOVWF  x0F
08AD2:  MOVLW  E7
08AD4:  MOVWF  x0E
08AD6:  CLRF   x10
08AD8:  MOVLW  24
08ADA:  MOVWF  x11
08ADC:  MOVLW  01
08ADE:  MOVWF  x12
08AE0:  MOVWF  x13
08AE2:  MOVLB  0
08AE4:  CALL   1A52
....................          else 
08AE8:  BRA    8B2E
08AEA:  MOVLB  6
....................             {strcpy(Menus.Letra,"Programa 03"); 
08AEC:  MOVLW  08
08AEE:  MOVWF  FEA
08AF0:  MOVLW  E7
08AF2:  MOVWF  FE9
08AF4:  MOVFF  FF2,907
08AF8:  BCF    FF2.7
08AFA:  MOVLW  00
08AFC:  MOVLB  0
08AFE:  CALL   0AA6
08B02:  TBLRD*-
08B04:  TBLRD*+
08B06:  MOVF   FF5,W
08B08:  MOVWF  FEE
08B0A:  IORLW  00
08B0C:  BNZ   8B04
08B0E:  MOVLB  9
08B10:  BTFSC  x07.7
08B12:  BSF    FF2.7
....................             displayMenu(Menus.Letra,0,36,0,1);}    
08B14:  MOVLW  08
08B16:  MOVWF  x0F
08B18:  MOVLW  E7
08B1A:  MOVWF  x0E
08B1C:  CLRF   x10
08B1E:  MOVLW  24
08B20:  MOVWF  x11
08B22:  CLRF   x12
08B24:  MOVLW  01
08B26:  MOVWF  x13
08B28:  MOVLB  0
08B2A:  CALL   1A52
....................                          
....................          if(Opcion==4)    
08B2E:  MOVLB  6
08B30:  MOVF   x3F,W
08B32:  SUBLW  04
08B34:  BNZ   8B7C
....................             {strcpy(Menus.Letra,"Programa 04"); 
08B36:  MOVLW  08
08B38:  MOVWF  FEA
08B3A:  MOVLW  E7
08B3C:  MOVWF  FE9
08B3E:  MOVFF  FF2,907
08B42:  BCF    FF2.7
08B44:  MOVLW  00
08B46:  MOVLB  0
08B48:  CALL   0AD0
08B4C:  TBLRD*-
08B4E:  TBLRD*+
08B50:  MOVF   FF5,W
08B52:  MOVWF  FEE
08B54:  IORLW  00
08B56:  BNZ   8B4E
08B58:  MOVLB  9
08B5A:  BTFSC  x07.7
08B5C:  BSF    FF2.7
....................             displayMenu(Menus.Letra,0,45,1,1);} 
08B5E:  MOVLW  08
08B60:  MOVWF  x0F
08B62:  MOVLW  E7
08B64:  MOVWF  x0E
08B66:  CLRF   x10
08B68:  MOVLW  2D
08B6A:  MOVWF  x11
08B6C:  MOVLW  01
08B6E:  MOVWF  x12
08B70:  MOVWF  x13
08B72:  MOVLB  0
08B74:  CALL   1A52
....................          else 
08B78:  BRA    8BBE
08B7A:  MOVLB  6
....................             {strcpy(Menus.Letra,"Programa 04"); 
08B7C:  MOVLW  08
08B7E:  MOVWF  FEA
08B80:  MOVLW  E7
08B82:  MOVWF  FE9
08B84:  MOVFF  FF2,907
08B88:  BCF    FF2.7
08B8A:  MOVLW  00
08B8C:  MOVLB  0
08B8E:  CALL   0AD0
08B92:  TBLRD*-
08B94:  TBLRD*+
08B96:  MOVF   FF5,W
08B98:  MOVWF  FEE
08B9A:  IORLW  00
08B9C:  BNZ   8B94
08B9E:  MOVLB  9
08BA0:  BTFSC  x07.7
08BA2:  BSF    FF2.7
....................             displayMenu(Menus.Letra,0,45,0,1);}      
08BA4:  MOVLW  08
08BA6:  MOVWF  x0F
08BA8:  MOVLW  E7
08BAA:  MOVWF  x0E
08BAC:  CLRF   x10
08BAE:  MOVLW  2D
08BB0:  MOVWF  x11
08BB2:  CLRF   x12
08BB4:  MOVLW  01
08BB6:  MOVWF  x13
08BB8:  MOVLB  0
08BBA:  CALL   1A52
....................           
....................          if(Opcion==5)    
08BBE:  MOVLB  6
08BC0:  MOVF   x3F,W
08BC2:  SUBLW  05
08BC4:  BNZ   8C0C
....................             {strcpy(Menus.Letra,"Programa 05"); 
08BC6:  MOVLW  08
08BC8:  MOVWF  FEA
08BCA:  MOVLW  E7
08BCC:  MOVWF  FE9
08BCE:  MOVFF  FF2,907
08BD2:  BCF    FF2.7
08BD4:  MOVLW  00
08BD6:  MOVLB  0
08BD8:  CALL   0AFA
08BDC:  TBLRD*-
08BDE:  TBLRD*+
08BE0:  MOVF   FF5,W
08BE2:  MOVWF  FEE
08BE4:  IORLW  00
08BE6:  BNZ   8BDE
08BE8:  MOVLB  9
08BEA:  BTFSC  x07.7
08BEC:  BSF    FF2.7
....................             displayMenu(Menus.Letra,0,54,1,1);} 
08BEE:  MOVLW  08
08BF0:  MOVWF  x0F
08BF2:  MOVLW  E7
08BF4:  MOVWF  x0E
08BF6:  CLRF   x10
08BF8:  MOVLW  36
08BFA:  MOVWF  x11
08BFC:  MOVLW  01
08BFE:  MOVWF  x12
08C00:  MOVWF  x13
08C02:  MOVLB  0
08C04:  CALL   1A52
....................          else 
08C08:  BRA    8C4E
08C0A:  MOVLB  6
....................             {strcpy(Menus.Letra,"Programa 05"); 
08C0C:  MOVLW  08
08C0E:  MOVWF  FEA
08C10:  MOVLW  E7
08C12:  MOVWF  FE9
08C14:  MOVFF  FF2,907
08C18:  BCF    FF2.7
08C1A:  MOVLW  00
08C1C:  MOVLB  0
08C1E:  CALL   0AFA
08C22:  TBLRD*-
08C24:  TBLRD*+
08C26:  MOVF   FF5,W
08C28:  MOVWF  FEE
08C2A:  IORLW  00
08C2C:  BNZ   8C24
08C2E:  MOVLB  9
08C30:  BTFSC  x07.7
08C32:  BSF    FF2.7
....................             displayMenu(Menus.Letra,0,54,0,1);}      
08C34:  MOVLW  08
08C36:  MOVWF  x0F
08C38:  MOVLW  E7
08C3A:  MOVWF  x0E
08C3C:  CLRF   x10
08C3E:  MOVLW  36
08C40:  MOVWF  x11
08C42:  CLRF   x12
08C44:  MOVLW  01
08C46:  MOVWF  x13
08C48:  MOVLB  0
08C4A:  CALL   1A52
....................           
....................          if(UP)//Si oprime hacia arriba 
08C4E:  BSF    F92.5
08C50:  BTFSC  F80.5
08C52:  BRA    8C6E
....................          { 
....................             Buzz_on;delay_ms(30);Opcion--;Buzz_off; 
08C54:  BSF    F8B.5
08C56:  BCF    F94.5
08C58:  MOVLW  1E
08C5A:  MOVLB  9
08C5C:  MOVWF  x1D
08C5E:  MOVLB  0
08C60:  CALL   13A4
08C64:  MOVLB  6
08C66:  DECF   x3F,F
08C68:  BCF    F8B.5
08C6A:  BCF    F94.5
08C6C:  MOVLB  0
....................          } 
....................                    
....................          if(DOWN)//Si oprime hacia abajo 
08C6E:  BSF    F96.0
08C70:  BTFSC  F84.0
08C72:  BRA    8C8E
....................          { 
....................             Buzz_on;delay_ms(30);Opcion++; Buzz_off; 
08C74:  BSF    F8B.5
08C76:  BCF    F94.5
08C78:  MOVLW  1E
08C7A:  MOVLB  9
08C7C:  MOVWF  x1D
08C7E:  MOVLB  0
08C80:  CALL   13A4
08C84:  MOVLB  6
08C86:  INCF   x3F,F
08C88:  BCF    F8B.5
08C8A:  BCF    F94.5
08C8C:  MOVLB  0
....................          } 
....................                 
....................          if(RIGHT)//Si oprime SET 
08C8E:  BSF    F96.1
08C90:  BTFSC  F84.1
08C92:  BRA    8CC4
....................          {  
....................             Buzz_on;delay_ms(50);Menu=Opcion+10;Opcion=1;glcd_fillscreen(OFF);Buzz_off;i=0; 
08C94:  BSF    F8B.5
08C96:  BCF    F94.5
08C98:  MOVLW  32
08C9A:  MOVLB  9
08C9C:  MOVWF  x1D
08C9E:  MOVLB  0
08CA0:  CALL   13A4
08CA4:  MOVLW  0A
08CA6:  MOVLB  6
08CA8:  ADDWF  x3F,W
08CAA:  MOVWF  x38
08CAC:  MOVLW  01
08CAE:  MOVWF  x3F
08CB0:  MOVLB  9
08CB2:  CLRF   x0E
08CB4:  MOVLB  0
08CB6:  CALL   1424
08CBA:  BCF    F8B.5
08CBC:  BCF    F94.5
08CBE:  MOVLB  6
08CC0:  CLRF   x3A
08CC2:  MOVLB  0
....................          } 
....................           
....................          if(LEFT){ 
08CC4:  BSF    F96.2
08CC6:  BTFSC  F84.2
08CC8:  BRA    8CF0
....................             Buzz_on;delay_ms(50);Menu=1;Opcion=1;glcd_fillscreen(OFF);Buzz_off; 
08CCA:  BSF    F8B.5
08CCC:  BCF    F94.5
08CCE:  MOVLW  32
08CD0:  MOVLB  9
08CD2:  MOVWF  x1D
08CD4:  MOVLB  0
08CD6:  CALL   13A4
08CDA:  MOVLW  01
08CDC:  MOVLB  6
08CDE:  MOVWF  x38
08CE0:  MOVWF  x3F
08CE2:  MOVLB  9
08CE4:  CLRF   x0E
08CE6:  MOVLB  0
08CE8:  CALL   1424
08CEC:  BCF    F8B.5
08CEE:  BCF    F94.5
08CF0:  MOVLB  6
....................          } 
....................    } 
.................... //_--------------------------------------------------------------------------------------------------------------------------------------------------------        
....................  
.................... //_-------------------------------------------------------------------------------------------------------------------------------------------------------- 
....................       if(Menu==6){ //Menu de Borrar Programa 
08CF2:  MOVF   x38,W
08CF4:  SUBLW  06
08CF6:  BTFSS  FD8.2
08CF8:  BRA    925E
....................        
....................       if(Opcion>5) 
08CFA:  MOVF   x3F,W
08CFC:  SUBLW  05
08CFE:  BC    8D04
....................          Opcion=1; 
08D00:  MOVLW  01
08D02:  MOVWF  x3F
....................           
....................       if(Opcion<1) 
08D04:  MOVF   x3F,F
08D06:  BNZ   8D0C
....................          Opcion=5; 
08D08:  MOVLW  05
08D0A:  MOVWF  x3F
....................        
....................          strcpy(Menus.Letra,"  Elimine"); 
08D0C:  MOVLW  08
08D0E:  MOVWF  FEA
08D10:  MOVLW  E7
08D12:  MOVWF  FE9
08D14:  MOVFF  FF2,907
08D18:  BCF    FF2.7
08D1A:  MOVLW  00
08D1C:  MOVLB  0
08D1E:  CALL   0BC8
08D22:  TBLRD*-
08D24:  TBLRD*+
08D26:  MOVF   FF5,W
08D28:  MOVWF  FEE
08D2A:  IORLW  00
08D2C:  BNZ   8D24
08D2E:  MOVLB  9
08D30:  BTFSC  x07.7
08D32:  BSF    FF2.7
....................          displayMenu(Menus.Letra,0,0,1,2); 
08D34:  MOVLW  08
08D36:  MOVWF  x0F
08D38:  MOVLW  E7
08D3A:  MOVWF  x0E
08D3C:  CLRF   x10
08D3E:  CLRF   x11
08D40:  MOVLW  01
08D42:  MOVWF  x12
08D44:  MOVLW  02
08D46:  MOVWF  x13
08D48:  MOVLB  0
08D4A:  CALL   1A52
....................           
....................          strcpy(Menus.Letra," Programa"); 
08D4E:  MOVLW  08
08D50:  MOVWF  FEA
08D52:  MOVLW  E7
08D54:  MOVWF  FE9
08D56:  MOVFF  FF2,907
08D5A:  BCF    FF2.7
08D5C:  MOVLW  00
08D5E:  CALL   0A2A
08D62:  TBLRD*-
08D64:  TBLRD*+
08D66:  MOVF   FF5,W
08D68:  MOVWF  FEE
08D6A:  IORLW  00
08D6C:  BNZ   8D64
08D6E:  MOVLB  9
08D70:  BTFSC  x07.7
08D72:  BSF    FF2.7
....................          displayMenu(Menus.Letra,0,16,1,2); 
08D74:  MOVLW  08
08D76:  MOVWF  x0F
08D78:  MOVLW  E7
08D7A:  MOVWF  x0E
08D7C:  CLRF   x10
08D7E:  MOVLW  10
08D80:  MOVWF  x11
08D82:  MOVLW  01
08D84:  MOVWF  x12
08D86:  MOVLW  02
08D88:  MOVWF  x13
08D8A:  MOVLB  0
08D8C:  CALL   1A52
....................            
....................           
....................          if(Opcion==1) 
08D90:  MOVLB  6
08D92:  DECFSZ x3F,W
08D94:  BRA    8DDA
....................          { 
....................             strcpy(Menus.Letra,"Programa 01"); 
08D96:  MOVLW  08
08D98:  MOVWF  FEA
08D9A:  MOVLW  E7
08D9C:  MOVWF  FE9
08D9E:  MOVFF  FF2,907
08DA2:  BCF    FF2.7
08DA4:  MOVLW  00
08DA6:  MOVLB  0
08DA8:  CALL   0A52
08DAC:  TBLRD*-
08DAE:  TBLRD*+
08DB0:  MOVF   FF5,W
08DB2:  MOVWF  FEE
08DB4:  IORLW  00
08DB6:  BNZ   8DAE
08DB8:  MOVLB  9
08DBA:  BTFSC  x07.7
08DBC:  BSF    FF2.7
....................             displayMenu(Menus.Letra,0,38,0,2); 
08DBE:  MOVLW  08
08DC0:  MOVWF  x0F
08DC2:  MOVLW  E7
08DC4:  MOVWF  x0E
08DC6:  CLRF   x10
08DC8:  MOVLW  26
08DCA:  MOVWF  x11
08DCC:  CLRF   x12
08DCE:  MOVLW  02
08DD0:  MOVWF  x13
08DD2:  MOVLB  0
08DD4:  CALL   1A52
08DD8:  MOVLB  6
....................          } 
....................           
....................          if(Opcion==2) 
08DDA:  MOVF   x3F,W
08DDC:  SUBLW  02
08DDE:  BNZ   8E24
....................          { 
....................             strcpy(Menus.Letra,"Programa 02"); 
08DE0:  MOVLW  08
08DE2:  MOVWF  FEA
08DE4:  MOVLW  E7
08DE6:  MOVWF  FE9
08DE8:  MOVFF  FF2,907
08DEC:  BCF    FF2.7
08DEE:  MOVLW  00
08DF0:  MOVLB  0
08DF2:  CALL   0A7C
08DF6:  TBLRD*-
08DF8:  TBLRD*+
08DFA:  MOVF   FF5,W
08DFC:  MOVWF  FEE
08DFE:  IORLW  00
08E00:  BNZ   8DF8
08E02:  MOVLB  9
08E04:  BTFSC  x07.7
08E06:  BSF    FF2.7
....................             displayMenu(Menus.Letra,0,38,0,2); 
08E08:  MOVLW  08
08E0A:  MOVWF  x0F
08E0C:  MOVLW  E7
08E0E:  MOVWF  x0E
08E10:  CLRF   x10
08E12:  MOVLW  26
08E14:  MOVWF  x11
08E16:  CLRF   x12
08E18:  MOVLW  02
08E1A:  MOVWF  x13
08E1C:  MOVLB  0
08E1E:  CALL   1A52
08E22:  MOVLB  6
....................          } 
....................           
....................          if(Opcion==3) 
08E24:  MOVF   x3F,W
08E26:  SUBLW  03
08E28:  BNZ   8E6E
....................          { 
....................             strcpy(Menus.Letra,"Programa 03"); 
08E2A:  MOVLW  08
08E2C:  MOVWF  FEA
08E2E:  MOVLW  E7
08E30:  MOVWF  FE9
08E32:  MOVFF  FF2,907
08E36:  BCF    FF2.7
08E38:  MOVLW  00
08E3A:  MOVLB  0
08E3C:  CALL   0AA6
08E40:  TBLRD*-
08E42:  TBLRD*+
08E44:  MOVF   FF5,W
08E46:  MOVWF  FEE
08E48:  IORLW  00
08E4A:  BNZ   8E42
08E4C:  MOVLB  9
08E4E:  BTFSC  x07.7
08E50:  BSF    FF2.7
....................             displayMenu(Menus.Letra,0,38,0,2); 
08E52:  MOVLW  08
08E54:  MOVWF  x0F
08E56:  MOVLW  E7
08E58:  MOVWF  x0E
08E5A:  CLRF   x10
08E5C:  MOVLW  26
08E5E:  MOVWF  x11
08E60:  CLRF   x12
08E62:  MOVLW  02
08E64:  MOVWF  x13
08E66:  MOVLB  0
08E68:  CALL   1A52
08E6C:  MOVLB  6
....................          } 
....................           
....................          if(Opcion==4) 
08E6E:  MOVF   x3F,W
08E70:  SUBLW  04
08E72:  BNZ   8EB8
....................          { 
....................             strcpy(Menus.Letra,"Programa 04"); 
08E74:  MOVLW  08
08E76:  MOVWF  FEA
08E78:  MOVLW  E7
08E7A:  MOVWF  FE9
08E7C:  MOVFF  FF2,907
08E80:  BCF    FF2.7
08E82:  MOVLW  00
08E84:  MOVLB  0
08E86:  CALL   0AD0
08E8A:  TBLRD*-
08E8C:  TBLRD*+
08E8E:  MOVF   FF5,W
08E90:  MOVWF  FEE
08E92:  IORLW  00
08E94:  BNZ   8E8C
08E96:  MOVLB  9
08E98:  BTFSC  x07.7
08E9A:  BSF    FF2.7
....................             displayMenu(Menus.Letra,0,38,0,2); 
08E9C:  MOVLW  08
08E9E:  MOVWF  x0F
08EA0:  MOVLW  E7
08EA2:  MOVWF  x0E
08EA4:  CLRF   x10
08EA6:  MOVLW  26
08EA8:  MOVWF  x11
08EAA:  CLRF   x12
08EAC:  MOVLW  02
08EAE:  MOVWF  x13
08EB0:  MOVLB  0
08EB2:  CALL   1A52
08EB6:  MOVLB  6
....................          } 
....................           
....................          if(Opcion==5) 
08EB8:  MOVF   x3F,W
08EBA:  SUBLW  05
08EBC:  BNZ   8F02
....................          { 
....................             strcpy(Menus.Letra,"Programa 05"); 
08EBE:  MOVLW  08
08EC0:  MOVWF  FEA
08EC2:  MOVLW  E7
08EC4:  MOVWF  FE9
08EC6:  MOVFF  FF2,907
08ECA:  BCF    FF2.7
08ECC:  MOVLW  00
08ECE:  MOVLB  0
08ED0:  CALL   0AFA
08ED4:  TBLRD*-
08ED6:  TBLRD*+
08ED8:  MOVF   FF5,W
08EDA:  MOVWF  FEE
08EDC:  IORLW  00
08EDE:  BNZ   8ED6
08EE0:  MOVLB  9
08EE2:  BTFSC  x07.7
08EE4:  BSF    FF2.7
....................             displayMenu(Menus.Letra,0,38,0,2); 
08EE6:  MOVLW  08
08EE8:  MOVWF  x0F
08EEA:  MOVLW  E7
08EEC:  MOVWF  x0E
08EEE:  CLRF   x10
08EF0:  MOVLW  26
08EF2:  MOVWF  x11
08EF4:  CLRF   x12
08EF6:  MOVLW  02
08EF8:  MOVWF  x13
08EFA:  MOVLB  0
08EFC:  CALL   1A52
08F00:  MOVLB  6
....................          } 
....................           
....................          
....................       if(UP)//Si oprime hacia arriba 
08F02:  BSF    F92.5
08F04:  BTFSC  F80.5
08F06:  BRA    8F40
....................       { 
....................          Buzz_on;delay_ms(30);Opcion++;Buzz_off; 
08F08:  BSF    F8B.5
08F0A:  BCF    F94.5
08F0C:  MOVLW  1E
08F0E:  MOVLB  9
08F10:  MOVWF  x1D
08F12:  MOVLB  0
08F14:  CALL   13A4
08F18:  MOVLB  6
08F1A:  INCF   x3F,F
08F1C:  BCF    F8B.5
08F1E:  BCF    F94.5
....................          glcd_rect(40, 35, 85, 60, YES, OFF); 
08F20:  MOVLW  28
08F22:  MOVLB  9
08F24:  MOVWF  x1F
08F26:  MOVLW  23
08F28:  MOVWF  x20
08F2A:  MOVLW  55
08F2C:  MOVWF  x21
08F2E:  MOVLW  3C
08F30:  MOVWF  x22
08F32:  MOVLW  01
08F34:  MOVWF  x23
08F36:  CLRF   x24
08F38:  MOVLB  0
08F3A:  CALL   17D8
08F3E:  MOVLB  6
....................       } 
....................              
....................       if(DOWN)//Si oprime hacia abajo 
08F40:  BSF    F96.0
08F42:  BTFSC  F84.0
08F44:  BRA    8F7E
....................       {   
....................          Buzz_on;delay_ms(30);Opcion--;Buzz_off; 
08F46:  BSF    F8B.5
08F48:  BCF    F94.5
08F4A:  MOVLW  1E
08F4C:  MOVLB  9
08F4E:  MOVWF  x1D
08F50:  MOVLB  0
08F52:  CALL   13A4
08F56:  MOVLB  6
08F58:  DECF   x3F,F
08F5A:  BCF    F8B.5
08F5C:  BCF    F94.5
....................          glcd_rect(40, 35, 85, 60, YES, OFF); 
08F5E:  MOVLW  28
08F60:  MOVLB  9
08F62:  MOVWF  x1F
08F64:  MOVLW  23
08F66:  MOVWF  x20
08F68:  MOVLW  55
08F6A:  MOVWF  x21
08F6C:  MOVLW  3C
08F6E:  MOVWF  x22
08F70:  MOVLW  01
08F72:  MOVWF  x23
08F74:  CLRF   x24
08F76:  MOVLB  0
08F78:  CALL   17D8
08F7C:  MOVLB  6
....................       } 
....................              
....................       if(RIGHT)//Si oprime SET 
08F7E:  BSF    F96.1
08F80:  BTFSC  F84.1
08F82:  BRA    921E
....................       {   
....................          Buzz_on; 
08F84:  BSF    F8B.5
08F86:  BCF    F94.5
....................          for(i=0;i<Pasos;i++){ 
08F88:  CLRF   x3A
08F8A:  MOVF   x3A,W
08F8C:  SUBLW  0F
08F8E:  BNC   9000
....................             Temperatura1[i+((Opcion-1)*Pasos)]=0; 
08F90:  MOVLW  01
08F92:  SUBWF  x3F,W
08F94:  MULLW  10
08F96:  MOVF   FF3,W
08F98:  ADDWF  x3A,W
08F9A:  MOVWF  00
08F9C:  BCF    FD8.0
08F9E:  RLCF   00,F
08FA0:  MOVF   00,W
08FA2:  CLRF   03
08FA4:  ADDLW  07
08FA6:  MOVWF  FE9
08FA8:  MOVLW  07
08FAA:  ADDWFC 03,W
08FAC:  MOVWF  FEA
08FAE:  CLRF   FEC
08FB0:  MOVF   FED,F
08FB2:  CLRF   FEF
....................             Horas1[i+((Opcion-1)*Pasos)]=0; 
08FB4:  MOVLW  01
08FB6:  SUBWF  x3F,W
08FB8:  MULLW  10
08FBA:  MOVF   FF3,W
08FBC:  ADDWF  x3A,W
08FBE:  MOVWF  00
08FC0:  BCF    FD8.0
08FC2:  RLCF   00,F
08FC4:  MOVF   00,W
08FC6:  CLRF   03
08FC8:  ADDLW  A7
08FCA:  MOVWF  FE9
08FCC:  MOVLW  07
08FCE:  ADDWFC 03,W
08FD0:  MOVWF  FEA
08FD2:  CLRF   FEC
08FD4:  MOVF   FED,F
08FD6:  CLRF   FEF
....................             Minutos1[i+((Opcion-1)*Pasos)]=0; 
08FD8:  MOVLW  01
08FDA:  SUBWF  x3F,W
08FDC:  MULLW  10
08FDE:  MOVF   FF3,W
08FE0:  ADDWF  x3A,W
08FE2:  MOVWF  00
08FE4:  BCF    FD8.0
08FE6:  RLCF   00,F
08FE8:  MOVF   00,W
08FEA:  CLRF   03
08FEC:  ADDLW  47
08FEE:  MOVWF  FE9
08FF0:  MOVLW  08
08FF2:  ADDWFC 03,W
08FF4:  MOVWF  FEA
08FF6:  CLRF   FEC
08FF8:  MOVF   FED,F
08FFA:  CLRF   FEF
....................          } 
08FFC:  INCF   x3A,F
08FFE:  BRA    8F8A
....................           
....................          for(i=0;i<Pasos;i++){ 
09000:  CLRF   x3A
09002:  MOVF   x3A,W
09004:  SUBLW  0F
09006:  BTFSS  FD8.0
09008:  BRA    913A
....................             delay_ms(10);     
0900A:  MOVLW  0A
0900C:  MOVLB  9
0900E:  MOVWF  x1D
09010:  MOVLB  0
09012:  CALL   13A4
....................             write_eeprom((i*2)+((Pasos*4)*(Opcion-1)),0); 
09016:  BCF    FD8.0
09018:  MOVLB  6
0901A:  RLCF   x3A,W
0901C:  MOVLB  9
0901E:  MOVWF  x07
09020:  MOVLW  01
09022:  MOVLB  6
09024:  SUBWF  x3F,W
09026:  MULLW  40
09028:  MOVF   FF3,W
0902A:  MOVLB  9
0902C:  ADDWF  x07,F
0902E:  CLRF   FAA
09030:  MOVFF  907,FA9
09034:  CLRF   FA8
09036:  BCF    FA6.6
09038:  BCF    FA6.7
0903A:  BSF    FA6.2
0903C:  MOVF   FF2,W
0903E:  MOVWF  00
09040:  BCF    FF2.7
09042:  MOVLB  F
09044:  MOVLW  55
09046:  MOVWF  FA7
09048:  MOVLW  AA
0904A:  MOVWF  FA7
0904C:  BSF    FA6.1
0904E:  BTFSC  FA6.1
09050:  BRA    904E
09052:  BCF    FA6.2
09054:  MOVF   00,W
09056:  IORWF  FF2,F
....................             delay_ms(10);     
09058:  MOVLW  0A
0905A:  MOVLB  9
0905C:  MOVWF  x1D
0905E:  MOVLB  0
09060:  CALL   13A4
....................             write_eeprom((i*2)+1+((Pasos*4)*(Opcion-1)),0); 
09064:  BCF    FD8.0
09066:  MOVLB  6
09068:  RLCF   x3A,W
0906A:  ADDLW  01
0906C:  MOVLB  9
0906E:  MOVWF  x07
09070:  MOVLW  01
09072:  MOVLB  6
09074:  SUBWF  x3F,W
09076:  MULLW  40
09078:  MOVF   FF3,W
0907A:  MOVLB  9
0907C:  ADDWF  x07,F
0907E:  CLRF   FAA
09080:  MOVFF  907,FA9
09084:  CLRF   FA8
09086:  BCF    FA6.6
09088:  BCF    FA6.7
0908A:  BSF    FA6.2
0908C:  MOVF   FF2,W
0908E:  MOVWF  00
09090:  BCF    FF2.7
09092:  MOVLB  F
09094:  MOVLW  55
09096:  MOVWF  FA7
09098:  MOVLW  AA
0909A:  MOVWF  FA7
0909C:  BSF    FA6.1
0909E:  BTFSC  FA6.1
090A0:  BRA    909E
090A2:  BCF    FA6.2
090A4:  MOVF   00,W
090A6:  IORWF  FF2,F
....................             delay_ms(10);     
090A8:  MOVLW  0A
090AA:  MOVLB  9
090AC:  MOVWF  x1D
090AE:  MOVLB  0
090B0:  CALL   13A4
....................             write_eeprom(i+(((Pasos*4)*Opcion)-(Pasos*2)),0); 
090B4:  MOVLB  6
090B6:  MOVF   x3F,W
090B8:  MULLW  40
090BA:  MOVF   FF3,W
090BC:  ADDLW  E0
090BE:  ADDWF  x3A,W
090C0:  MOVLB  9
090C2:  MOVWF  x07
090C4:  CLRF   FAA
090C6:  MOVFF  907,FA9
090CA:  CLRF   FA8
090CC:  BCF    FA6.6
090CE:  BCF    FA6.7
090D0:  BSF    FA6.2
090D2:  MOVF   FF2,W
090D4:  MOVWF  00
090D6:  BCF    FF2.7
090D8:  MOVLB  F
090DA:  MOVLW  55
090DC:  MOVWF  FA7
090DE:  MOVLW  AA
090E0:  MOVWF  FA7
090E2:  BSF    FA6.1
090E4:  BTFSC  FA6.1
090E6:  BRA    90E4
090E8:  BCF    FA6.2
090EA:  MOVF   00,W
090EC:  IORWF  FF2,F
....................             delay_ms(10);     
090EE:  MOVLW  0A
090F0:  MOVLB  9
090F2:  MOVWF  x1D
090F4:  MOVLB  0
090F6:  CALL   13A4
....................             write_eeprom(i+(((Pasos*4)*Opcion)-Pasos),0); 
090FA:  MOVLB  6
090FC:  MOVF   x3F,W
090FE:  MULLW  40
09100:  MOVF   FF3,W
09102:  ADDLW  F0
09104:  ADDWF  x3A,W
09106:  MOVLB  9
09108:  MOVWF  x07
0910A:  CLRF   FAA
0910C:  MOVFF  907,FA9
09110:  CLRF   FA8
09112:  BCF    FA6.6
09114:  BCF    FA6.7
09116:  BSF    FA6.2
09118:  MOVF   FF2,W
0911A:  MOVWF  00
0911C:  BCF    FF2.7
0911E:  MOVLB  F
09120:  MOVLW  55
09122:  MOVWF  FA7
09124:  MOVLW  AA
09126:  MOVWF  FA7
09128:  BSF    FA6.1
0912A:  BTFSC  FA6.1
0912C:  BRA    912A
0912E:  BCF    FA6.2
09130:  MOVF   00,W
09132:  IORWF  FF2,F
....................          }  
09134:  MOVLB  6
09136:  INCF   x3A,F
09138:  BRA    9002
....................           
....................          delay_ms(200);Buzz_off;Menu=1;glcd_fillscreen(OFF);Opcion=1;visual=1; 
0913A:  MOVLW  C8
0913C:  MOVLB  9
0913E:  MOVWF  x1D
09140:  MOVLB  0
09142:  CALL   13A4
09146:  BCF    F8B.5
09148:  BCF    F94.5
0914A:  MOVLW  01
0914C:  MOVLB  6
0914E:  MOVWF  x38
09150:  MOVLB  9
09152:  CLRF   x0E
09154:  MOVLB  0
09156:  CALL   1424
0915A:  MOVLW  01
0915C:  MOVLB  6
0915E:  MOVWF  x3F
09160:  BSF    x22.7
....................          glcd_fillScreen(OFF); 
09162:  MOVLB  9
09164:  CLRF   x0E
09166:  MOVLB  0
09168:  CALL   1424
....................          strcpy(Menus.Letra,"Programa"); 
0916C:  MOVLW  08
0916E:  MOVWF  FEA
09170:  MOVLW  E7
09172:  MOVWF  FE9
09174:  MOVFF  FF2,907
09178:  BCF    FF2.7
0917A:  MOVLW  00
0917C:  CALL   0BF0
09180:  TBLRD*-
09182:  TBLRD*+
09184:  MOVF   FF5,W
09186:  MOVWF  FEE
09188:  IORLW  00
0918A:  BNZ   9182
0918C:  MOVLB  9
0918E:  BTFSC  x07.7
09190:  BSF    FF2.7
....................          displayMenu(Menus.Letra,15,0,0,2); 
09192:  MOVLW  08
09194:  MOVWF  x0F
09196:  MOVLW  E7
09198:  MOVWF  x0E
0919A:  MOVLW  0F
0919C:  MOVWF  x10
0919E:  CLRF   x11
091A0:  CLRF   x12
091A2:  MOVLW  02
091A4:  MOVWF  x13
091A6:  MOVLB  0
091A8:  CALL   1A52
....................          strcpy(Menus.Letra,"Eliminado"); 
091AC:  MOVLW  08
091AE:  MOVWF  FEA
091B0:  MOVLW  E7
091B2:  MOVWF  FE9
091B4:  MOVFF  FF2,907
091B8:  BCF    FF2.7
091BA:  MOVLW  00
091BC:  CALL   0C18
091C0:  TBLRD*-
091C2:  TBLRD*+
091C4:  MOVF   FF5,W
091C6:  MOVWF  FEE
091C8:  IORLW  00
091CA:  BNZ   91C2
091CC:  MOVLB  9
091CE:  BTFSC  x07.7
091D0:  BSF    FF2.7
....................          displayMenu(Menus.Letra,15,30,0,2); 
091D2:  MOVLW  08
091D4:  MOVWF  x0F
091D6:  MOVLW  E7
091D8:  MOVWF  x0E
091DA:  MOVLW  0F
091DC:  MOVWF  x10
091DE:  MOVLW  1E
091E0:  MOVWF  x11
091E2:  CLRF   x12
091E4:  MOVLW  02
091E6:  MOVWF  x13
091E8:  MOVLB  0
091EA:  CALL   1A52
....................          Menu=1;glcd_update();delay_ms(1000); 
091EE:  MOVLW  01
091F0:  MOVLB  6
091F2:  MOVWF  x38
091F4:  MOVLB  0
091F6:  CALL   147E
091FA:  MOVLW  04
091FC:  MOVLB  9
091FE:  MOVWF  x07
09200:  MOVLW  FA
09202:  MOVWF  x1D
09204:  MOVLB  0
09206:  CALL   13A4
0920A:  MOVLB  9
0920C:  DECFSZ x07,F
0920E:  BRA    9200
....................          glcd_fillScreen(OFF);unidad=1; 
09210:  CLRF   x0E
09212:  MOVLB  0
09214:  CALL   1424
09218:  MOVLW  01
0921A:  MOVLB  6
0921C:  MOVWF  x39
....................       }  
....................                    
....................       if(LEFT)//Si oprime boton de Toma. 
0921E:  BSF    F96.2
09220:  BTFSC  F84.2
09222:  BRA    925E
....................       { 
....................          Buzz_on;Opcion=1;Buzz_off;delay_ms(500);Menu=1;glcd_fillscreen(OFF);Opcion=1;visual=1; 
09224:  BSF    F8B.5
09226:  BCF    F94.5
09228:  MOVLW  01
0922A:  MOVWF  x3F
0922C:  BCF    F8B.5
0922E:  BCF    F94.5
09230:  MOVLW  02
09232:  MOVLB  9
09234:  MOVWF  x07
09236:  MOVLW  FA
09238:  MOVWF  x1D
0923A:  MOVLB  0
0923C:  CALL   13A4
09240:  MOVLB  9
09242:  DECFSZ x07,F
09244:  BRA    9236
09246:  MOVLW  01
09248:  MOVLB  6
0924A:  MOVWF  x38
0924C:  MOVLB  9
0924E:  CLRF   x0E
09250:  MOVLB  0
09252:  CALL   1424
09256:  MOVLW  01
09258:  MOVLB  6
0925A:  MOVWF  x3F
0925C:  BSF    x22.7
....................       }  
....................     } 
.................... //_--------------------------------------------------------------------------------------------------------------------------------------------------------        
....................  
.................... //_--------------------------------------------------------------------------------------------------------------------------------------------------------       
....................       if(Menu==8){ // Menu de Cambio de Contrasea 
0925E:  MOVF   x38,W
09260:  SUBLW  08
09262:  BTFSS  FD8.2
09264:  BRA    9742
....................          
....................       strcpy(Menus.Letra,"Clave"); 
09266:  MOVLW  08
09268:  MOVWF  FEA
0926A:  MOVLW  E7
0926C:  MOVWF  FE9
0926E:  MOVFF  FF2,907
09272:  BCF    FF2.7
09274:  MOVLW  00
09276:  MOVLB  0
09278:  CALL   07D8
0927C:  TBLRD*-
0927E:  TBLRD*+
09280:  MOVF   FF5,W
09282:  MOVWF  FEE
09284:  IORLW  00
09286:  BNZ   927E
09288:  MOVLB  9
0928A:  BTFSC  x07.7
0928C:  BSF    FF2.7
....................       displayMenu(Menus.Letra,30,0,1,2);      
0928E:  MOVLW  08
09290:  MOVWF  x0F
09292:  MOVLW  E7
09294:  MOVWF  x0E
09296:  MOVLW  1E
09298:  MOVWF  x10
0929A:  CLRF   x11
0929C:  MOVLW  01
0929E:  MOVWF  x12
092A0:  MOVLW  02
092A2:  MOVWF  x13
092A4:  MOVLB  0
092A6:  CALL   1A52
....................        
....................       if(unidad==1) 
092AA:  MOVLB  6
092AC:  DECFSZ x39,W
092AE:  BRA    930E
....................       { 
....................          displayContrasena(Contrasena[0],20,30,1); 
092B0:  MOVFF  68F,910
092B4:  MOVLW  14
092B6:  MOVLB  9
092B8:  MOVWF  x11
092BA:  MOVLW  1E
092BC:  MOVWF  x12
092BE:  MOVLW  01
092C0:  MOVWF  x13
092C2:  MOVLB  0
092C4:  CALL   1CA4
....................          displayContrasena(Contrasena[1],40,30,0); 
092C8:  MOVFF  690,910
092CC:  MOVLW  28
092CE:  MOVLB  9
092D0:  MOVWF  x11
092D2:  MOVLW  1E
092D4:  MOVWF  x12
092D6:  CLRF   x13
092D8:  MOVLB  0
092DA:  CALL   1CA4
....................          displayContrasena(Contrasena[2],60,30,0); 
092DE:  MOVFF  691,910
092E2:  MOVLW  3C
092E4:  MOVLB  9
092E6:  MOVWF  x11
092E8:  MOVLW  1E
092EA:  MOVWF  x12
092EC:  CLRF   x13
092EE:  MOVLB  0
092F0:  CALL   1CA4
....................          displayContrasena(Contrasena[3],80,30,0); 
092F4:  MOVFF  692,910
092F8:  MOVLW  50
092FA:  MOVLB  9
092FC:  MOVWF  x11
092FE:  MOVLW  1E
09300:  MOVWF  x12
09302:  CLRF   x13
09304:  MOVLB  0
09306:  CALL   1CA4
....................       } 
....................       else 
0930A:  BRA    9436
0930C:  MOVLB  6
....................       { 
....................          if(unidad==2) 
0930E:  MOVF   x39,W
09310:  SUBLW  02
09312:  BNZ   9372
....................          { 
....................             displayContrasena(Contrasena[0],20,30,0); 
09314:  MOVFF  68F,910
09318:  MOVLW  14
0931A:  MOVLB  9
0931C:  MOVWF  x11
0931E:  MOVLW  1E
09320:  MOVWF  x12
09322:  CLRF   x13
09324:  MOVLB  0
09326:  CALL   1CA4
....................             displayContrasena(Contrasena[1],40,30,1); 
0932A:  MOVFF  690,910
0932E:  MOVLW  28
09330:  MOVLB  9
09332:  MOVWF  x11
09334:  MOVLW  1E
09336:  MOVWF  x12
09338:  MOVLW  01
0933A:  MOVWF  x13
0933C:  MOVLB  0
0933E:  CALL   1CA4
....................             displayContrasena(Contrasena[2],60,30,0); 
09342:  MOVFF  691,910
09346:  MOVLW  3C
09348:  MOVLB  9
0934A:  MOVWF  x11
0934C:  MOVLW  1E
0934E:  MOVWF  x12
09350:  CLRF   x13
09352:  MOVLB  0
09354:  CALL   1CA4
....................             displayContrasena(Contrasena[3],80,30,0); 
09358:  MOVFF  692,910
0935C:  MOVLW  50
0935E:  MOVLB  9
09360:  MOVWF  x11
09362:  MOVLW  1E
09364:  MOVWF  x12
09366:  CLRF   x13
09368:  MOVLB  0
0936A:  CALL   1CA4
....................          } 
....................          else 
0936E:  BRA    9436
09370:  MOVLB  6
....................          { 
....................             if(unidad==3) 
09372:  MOVF   x39,W
09374:  SUBLW  03
09376:  BNZ   93D6
....................             { 
....................                displayContrasena(Contrasena[0],20,30,0); 
09378:  MOVFF  68F,910
0937C:  MOVLW  14
0937E:  MOVLB  9
09380:  MOVWF  x11
09382:  MOVLW  1E
09384:  MOVWF  x12
09386:  CLRF   x13
09388:  MOVLB  0
0938A:  CALL   1CA4
....................                displayContrasena(Contrasena[1],40,30,0); 
0938E:  MOVFF  690,910
09392:  MOVLW  28
09394:  MOVLB  9
09396:  MOVWF  x11
09398:  MOVLW  1E
0939A:  MOVWF  x12
0939C:  CLRF   x13
0939E:  MOVLB  0
093A0:  CALL   1CA4
....................                displayContrasena(Contrasena[2],60,30,1); 
093A4:  MOVFF  691,910
093A8:  MOVLW  3C
093AA:  MOVLB  9
093AC:  MOVWF  x11
093AE:  MOVLW  1E
093B0:  MOVWF  x12
093B2:  MOVLW  01
093B4:  MOVWF  x13
093B6:  MOVLB  0
093B8:  CALL   1CA4
....................                displayContrasena(Contrasena[3],80,30,0); 
093BC:  MOVFF  692,910
093C0:  MOVLW  50
093C2:  MOVLB  9
093C4:  MOVWF  x11
093C6:  MOVLW  1E
093C8:  MOVWF  x12
093CA:  CLRF   x13
093CC:  MOVLB  0
093CE:  CALL   1CA4
....................             } 
....................             else 
093D2:  BRA    9436
093D4:  MOVLB  6
....................             { 
....................                if(unidad==4) 
093D6:  MOVF   x39,W
093D8:  SUBLW  04
093DA:  BNZ   9438
....................                { 
....................                   displayContrasena(Contrasena[0],20,30,0); 
093DC:  MOVFF  68F,910
093E0:  MOVLW  14
093E2:  MOVLB  9
093E4:  MOVWF  x11
093E6:  MOVLW  1E
093E8:  MOVWF  x12
093EA:  CLRF   x13
093EC:  MOVLB  0
093EE:  CALL   1CA4
....................                   displayContrasena(Contrasena[1],40,30,0); 
093F2:  MOVFF  690,910
093F6:  MOVLW  28
093F8:  MOVLB  9
093FA:  MOVWF  x11
093FC:  MOVLW  1E
093FE:  MOVWF  x12
09400:  CLRF   x13
09402:  MOVLB  0
09404:  CALL   1CA4
....................                   displayContrasena(Contrasena[2],60,30,0); 
09408:  MOVFF  691,910
0940C:  MOVLW  3C
0940E:  MOVLB  9
09410:  MOVWF  x11
09412:  MOVLW  1E
09414:  MOVWF  x12
09416:  CLRF   x13
09418:  MOVLB  0
0941A:  CALL   1CA4
....................                   displayContrasena(Contrasena[3],80,30,1); 
0941E:  MOVFF  692,910
09422:  MOVLW  50
09424:  MOVLB  9
09426:  MOVWF  x11
09428:  MOVLW  1E
0942A:  MOVWF  x12
0942C:  MOVLW  01
0942E:  MOVWF  x13
09430:  MOVLB  0
09432:  CALL   1CA4
09436:  MOVLB  6
....................                } 
....................             } 
....................          } 
....................       } 
....................        
....................       if(UP)//Si oprime hacia arriba 
09438:  BSF    F92.5
0943A:  BTFSC  F80.5
0943C:  BRA    94B2
....................       { 
....................          Buzz_on;delay_ms(10);Buzz_off; 
0943E:  BSF    F8B.5
09440:  BCF    F94.5
09442:  MOVLW  0A
09444:  MOVLB  9
09446:  MOVWF  x1D
09448:  MOVLB  0
0944A:  CALL   13A4
0944E:  BCF    F8B.5
09450:  BCF    F94.5
....................          delay_ms(30); 
09452:  MOVLW  1E
09454:  MOVLB  9
09456:  MOVWF  x1D
09458:  MOVLB  0
0945A:  CALL   13A4
....................          for(i=1;i<=4;i++) 
0945E:  MOVLW  01
09460:  MOVLB  6
09462:  MOVWF  x3A
09464:  MOVF   x3A,W
09466:  SUBLW  04
09468:  BNC   94B2
....................          { 
....................             if(unidad==i) 
0946A:  MOVF   x3A,W
0946C:  SUBWF  x39,W
0946E:  BNZ   94AE
....................             { 
....................                Contrasena[i-1]++; 
09470:  MOVLW  01
09472:  SUBWF  x3A,W
09474:  CLRF   03
09476:  ADDLW  8F
09478:  MOVWF  FE9
0947A:  MOVLW  06
0947C:  ADDWFC 03,W
0947E:  MOVWF  FEA
09480:  INCF   FEF,F
....................                if(Contrasena[i-1]>9)    
09482:  MOVLW  01
09484:  SUBWF  x3A,W
09486:  CLRF   03
09488:  ADDLW  8F
0948A:  MOVWF  FE9
0948C:  MOVLW  06
0948E:  ADDWFC 03,W
09490:  MOVWF  FEA
09492:  BTFSC  FEF.7
09494:  BRA    94AE
09496:  MOVF   FEF,W
09498:  SUBLW  09
0949A:  BC    94AE
....................                { 
....................                   Contrasena[i-1]=0; 
0949C:  MOVLW  01
0949E:  SUBWF  x3A,W
094A0:  CLRF   03
094A2:  ADDLW  8F
094A4:  MOVWF  FE9
094A6:  MOVLW  06
094A8:  ADDWFC 03,W
094AA:  MOVWF  FEA
094AC:  CLRF   FEF
....................                } 
....................             } 
....................          } 
094AE:  INCF   x3A,F
094B0:  BRA    9464
....................       } 
....................              
....................       if(DOWN)//Si oprime hacia abajo 
094B2:  BSF    F96.0
094B4:  BTFSC  F84.0
094B6:  BRA    952A
....................       { 
....................          Buzz_on;delay_ms(10);Buzz_off; 
094B8:  BSF    F8B.5
094BA:  BCF    F94.5
094BC:  MOVLW  0A
094BE:  MOVLB  9
094C0:  MOVWF  x1D
094C2:  MOVLB  0
094C4:  CALL   13A4
094C8:  BCF    F8B.5
094CA:  BCF    F94.5
....................          delay_ms(30); 
094CC:  MOVLW  1E
094CE:  MOVLB  9
094D0:  MOVWF  x1D
094D2:  MOVLB  0
094D4:  CALL   13A4
....................          for(i=1;i<=4;i++) 
094D8:  MOVLW  01
094DA:  MOVLB  6
094DC:  MOVWF  x3A
094DE:  MOVF   x3A,W
094E0:  SUBLW  04
094E2:  BNC   952A
....................          { 
....................             if(unidad==i) 
094E4:  MOVF   x3A,W
094E6:  SUBWF  x39,W
094E8:  BNZ   9526
....................             {Contrasena[i-1]--;  
094EA:  MOVLW  01
094EC:  SUBWF  x3A,W
094EE:  CLRF   03
094F0:  ADDLW  8F
094F2:  MOVWF  FE9
094F4:  MOVLW  06
094F6:  ADDWFC 03,W
094F8:  MOVWF  FEA
094FA:  DECF   FEF,F
....................             if(Contrasena[i-1]<0) 
094FC:  MOVLW  01
094FE:  SUBWF  x3A,W
09500:  CLRF   03
09502:  ADDLW  8F
09504:  MOVWF  FE9
09506:  MOVLW  06
09508:  ADDWFC 03,W
0950A:  MOVWF  FEA
0950C:  BTFSC  FEF.7
0950E:  BRA    9512
09510:  BRA    9526
....................             {Contrasena[i-1]=9;} 
09512:  MOVLW  01
09514:  SUBWF  x3A,W
09516:  CLRF   03
09518:  ADDLW  8F
0951A:  MOVWF  FE9
0951C:  MOVLW  06
0951E:  ADDWFC 03,W
09520:  MOVWF  FEA
09522:  MOVLW  09
09524:  MOVWF  FEF
....................             } 
....................          }   
09526:  INCF   x3A,F
09528:  BRA    94DE
....................       } 
....................              
....................       if(RIGHT)//Si oprime RIGHT 
0952A:  BSF    F96.1
0952C:  BTFSC  F84.1
0952E:  BRA    9554
....................       { 
....................          Buzz_on;delay_ms(10);Buzz_off;delay_ms(30);unidad++; 
09530:  BSF    F8B.5
09532:  BCF    F94.5
09534:  MOVLW  0A
09536:  MOVLB  9
09538:  MOVWF  x1D
0953A:  MOVLB  0
0953C:  CALL   13A4
09540:  BCF    F8B.5
09542:  BCF    F94.5
09544:  MOVLW  1E
09546:  MOVLB  9
09548:  MOVWF  x1D
0954A:  MOVLB  0
0954C:  CALL   13A4
09550:  MOVLB  6
09552:  INCF   x39,F
....................       } 
....................        
....................       if(LEFT)//Si oprime Izquierda 
09554:  BSF    F96.2
09556:  BTFSC  F84.2
09558:  BRA    9596
....................       { 
....................          Buzz_on;delay_ms(10);Buzz_off;delay_ms(700);Menu=1;glcd_fillscreen(OFF); 
0955A:  BSF    F8B.5
0955C:  BCF    F94.5
0955E:  MOVLW  0A
09560:  MOVLB  9
09562:  MOVWF  x1D
09564:  MOVLB  0
09566:  CALL   13A4
0956A:  BCF    F8B.5
0956C:  BCF    F94.5
0956E:  MOVLW  04
09570:  MOVLB  9
09572:  MOVWF  x07
09574:  MOVLW  AF
09576:  MOVWF  x1D
09578:  MOVLB  0
0957A:  CALL   13A4
0957E:  MOVLB  9
09580:  DECFSZ x07,F
09582:  BRA    9574
09584:  MOVLW  01
09586:  MOVLB  6
09588:  MOVWF  x38
0958A:  MOVLB  9
0958C:  CLRF   x0E
0958E:  MOVLB  0
09590:  CALL   1424
09594:  MOVLB  6
....................       } 
....................        
....................       if(unidad>4) 
09596:  MOVF   x39,W
09598:  SUBLW  04
0959A:  BTFSC  FD8.0
0959C:  BRA    9742
....................       {glcd_fillScreen(OFF); 
0959E:  MOVLB  9
095A0:  CLRF   x0E
095A2:  MOVLB  0
095A4:  CALL   1424
....................           
....................          if((Contrasena[0]==Password[0])&&(Contrasena[1]==Password[1])&&(Contrasena[2]==Password[2])&&(Contrasena[3]==Password[3])) 
095A8:  MOVLB  6
095AA:  MOVF   x93,W
095AC:  SUBWF  x8F,W
095AE:  BNZ   9680
095B0:  MOVF   x94,W
095B2:  SUBWF  x90,W
095B4:  BNZ   9680
095B6:  MOVF   x95,W
095B8:  SUBWF  x91,W
095BA:  BNZ   9680
095BC:  MOVF   x96,W
095BE:  SUBWF  x92,W
095C0:  BNZ   9680
....................          { 
....................             glcd_fillScreen(OFF); 
095C2:  MOVLB  9
095C4:  CLRF   x0E
095C6:  MOVLB  0
095C8:  CALL   1424
....................             strcpy(Menus.Letra,"Clave"); 
095CC:  MOVLW  08
095CE:  MOVWF  FEA
095D0:  MOVLW  E7
095D2:  MOVWF  FE9
095D4:  MOVFF  FF2,907
095D8:  BCF    FF2.7
095DA:  MOVLW  00
095DC:  CALL   07D8
095E0:  TBLRD*-
095E2:  TBLRD*+
095E4:  MOVF   FF5,W
095E6:  MOVWF  FEE
095E8:  IORLW  00
095EA:  BNZ   95E2
095EC:  MOVLB  9
095EE:  BTFSC  x07.7
095F0:  BSF    FF2.7
....................             displayMenu(Menus.Letra,30,0,0,2); 
095F2:  MOVLW  08
095F4:  MOVWF  x0F
095F6:  MOVLW  E7
095F8:  MOVWF  x0E
095FA:  MOVLW  1E
095FC:  MOVWF  x10
095FE:  CLRF   x11
09600:  CLRF   x12
09602:  MOVLW  02
09604:  MOVWF  x13
09606:  MOVLB  0
09608:  CALL   1A52
....................             strcpy(Menus.Letra,"Correcta"); 
0960C:  MOVLW  08
0960E:  MOVWF  FEA
09610:  MOVLW  E7
09612:  MOVWF  FE9
09614:  MOVFF  FF2,907
09618:  BCF    FF2.7
0961A:  MOVLW  00
0961C:  CALL   07FC
09620:  TBLRD*-
09622:  TBLRD*+
09624:  MOVF   FF5,W
09626:  MOVWF  FEE
09628:  IORLW  00
0962A:  BNZ   9622
0962C:  MOVLB  9
0962E:  BTFSC  x07.7
09630:  BSF    FF2.7
....................             displayMenu(Menus.Letra,15,30,0,2); 
09632:  MOVLW  08
09634:  MOVWF  x0F
09636:  MOVLW  E7
09638:  MOVWF  x0E
0963A:  MOVLW  0F
0963C:  MOVWF  x10
0963E:  MOVLW  1E
09640:  MOVWF  x11
09642:  CLRF   x12
09644:  MOVLW  02
09646:  MOVWF  x13
09648:  MOVLB  0
0964A:  CALL   1A52
....................             Menu=91;glcd_update();delay_ms(1000); 
0964E:  MOVLW  5B
09650:  MOVLB  6
09652:  MOVWF  x38
09654:  MOVLB  0
09656:  CALL   147E
0965A:  MOVLW  04
0965C:  MOVLB  9
0965E:  MOVWF  x07
09660:  MOVLW  FA
09662:  MOVWF  x1D
09664:  MOVLB  0
09666:  CALL   13A4
0966A:  MOVLB  9
0966C:  DECFSZ x07,F
0966E:  BRA    9660
....................             glcd_fillScreen(OFF);unidad=1; 
09670:  CLRF   x0E
09672:  MOVLB  0
09674:  CALL   1424
09678:  MOVLW  01
0967A:  MOVLB  6
0967C:  MOVWF  x39
....................          }// Esta parte se puede agregar en el Menu 1 dependiendo de la ubicacin del vidrio. 
....................          else 
0967E:  BRA    9742
....................          { 
....................             glcd_fillScreen(OFF); 
09680:  MOVLB  9
09682:  CLRF   x0E
09684:  MOVLB  0
09686:  CALL   1424
....................             strcpy(Menus.Letra,"Clave"); 
0968A:  MOVLW  08
0968C:  MOVWF  FEA
0968E:  MOVLW  E7
09690:  MOVWF  FE9
09692:  MOVFF  FF2,907
09696:  BCF    FF2.7
09698:  MOVLW  00
0969A:  CALL   07D8
0969E:  TBLRD*-
096A0:  TBLRD*+
096A2:  MOVF   FF5,W
096A4:  MOVWF  FEE
096A6:  IORLW  00
096A8:  BNZ   96A0
096AA:  MOVLB  9
096AC:  BTFSC  x07.7
096AE:  BSF    FF2.7
....................             displayMenu(Menus.Letra,30,0,0,2); 
096B0:  MOVLW  08
096B2:  MOVWF  x0F
096B4:  MOVLW  E7
096B6:  MOVWF  x0E
096B8:  MOVLW  1E
096BA:  MOVWF  x10
096BC:  CLRF   x11
096BE:  CLRF   x12
096C0:  MOVLW  02
096C2:  MOVWF  x13
096C4:  MOVLB  0
096C6:  CALL   1A52
....................             strcpy(Menus.Letra,"Incorrecta"); 
096CA:  MOVLW  08
096CC:  MOVWF  FEA
096CE:  MOVLW  E7
096D0:  MOVWF  FE9
096D2:  MOVFF  FF2,907
096D6:  BCF    FF2.7
096D8:  MOVLW  00
096DA:  CALL   0824
096DE:  TBLRD*-
096E0:  TBLRD*+
096E2:  MOVF   FF5,W
096E4:  MOVWF  FEE
096E6:  IORLW  00
096E8:  BNZ   96E0
096EA:  MOVLB  9
096EC:  BTFSC  x07.7
096EE:  BSF    FF2.7
....................             displayMenu(Menus.Letra,0,30,0,2); 
096F0:  MOVLW  08
096F2:  MOVWF  x0F
096F4:  MOVLW  E7
096F6:  MOVWF  x0E
096F8:  CLRF   x10
096FA:  MOVLW  1E
096FC:  MOVWF  x11
096FE:  CLRF   x12
09700:  MOVLW  02
09702:  MOVWF  x13
09704:  MOVLB  0
09706:  CALL   1A52
....................             Menu=1;glcd_update();delay_ms(1000); 
0970A:  MOVLW  01
0970C:  MOVLB  6
0970E:  MOVWF  x38
09710:  MOVLB  0
09712:  CALL   147E
09716:  MOVLW  04
09718:  MOVLB  9
0971A:  MOVWF  x07
0971C:  MOVLW  FA
0971E:  MOVWF  x1D
09720:  MOVLB  0
09722:  CALL   13A4
09726:  MOVLB  9
09728:  DECFSZ x07,F
0972A:  BRA    971C
....................             glcd_fillScreen(OFF);unidad=1; 
0972C:  CLRF   x0E
0972E:  MOVLB  0
09730:  CALL   1424
09734:  MOVLW  01
09736:  MOVLB  6
09738:  MOVWF  x39
....................             Contrasena[0]=0;Contrasena[1]=0;Contrasena[2]=0;Contrasena[3]=0; 
0973A:  CLRF   x8F
0973C:  CLRF   x90
0973E:  CLRF   x91
09740:  CLRF   x92
....................          } 
....................       } 
....................     }     
.................... //_--------------------------------------------------------------------------------------------------------------------------------------------------------     
....................  
.................... //_--------------------------------------------------------------------------------------------------------------------------------------------------------       
....................       if(Menu==91){ // Menu de Cambio de Contrasea 
09742:  MOVF   x38,W
09744:  SUBLW  5B
09746:  BTFSS  FD8.2
09748:  BRA    9B84
....................          
....................       strcpy(Menus.Letra,"Clave Nueva"); 
0974A:  MOVLW  08
0974C:  MOVWF  FEA
0974E:  MOVLW  E7
09750:  MOVWF  FE9
09752:  MOVFF  FF2,907
09756:  BCF    FF2.7
09758:  MOVLW  00
0975A:  MOVLB  0
0975C:  CALL   0C40
09760:  TBLRD*-
09762:  TBLRD*+
09764:  MOVF   FF5,W
09766:  MOVWF  FEE
09768:  IORLW  00
0976A:  BNZ   9762
0976C:  MOVLB  9
0976E:  BTFSC  x07.7
09770:  BSF    FF2.7
....................       displayMenu(Menus.Letra,0,0,1,2);      
09772:  MOVLW  08
09774:  MOVWF  x0F
09776:  MOVLW  E7
09778:  MOVWF  x0E
0977A:  CLRF   x10
0977C:  CLRF   x11
0977E:  MOVLW  01
09780:  MOVWF  x12
09782:  MOVLW  02
09784:  MOVWF  x13
09786:  MOVLB  0
09788:  CALL   1A52
....................        
....................       if(unidad==1) 
0978C:  MOVLB  6
0978E:  DECFSZ x39,W
09790:  BRA    97F0
....................       { 
....................          displayContrasena(Password[0],20,30,1); 
09792:  MOVFF  693,910
09796:  MOVLW  14
09798:  MOVLB  9
0979A:  MOVWF  x11
0979C:  MOVLW  1E
0979E:  MOVWF  x12
097A0:  MOVLW  01
097A2:  MOVWF  x13
097A4:  MOVLB  0
097A6:  CALL   1CA4
....................          displayContrasena(Password[1],40,30,0); 
097AA:  MOVFF  694,910
097AE:  MOVLW  28
097B0:  MOVLB  9
097B2:  MOVWF  x11
097B4:  MOVLW  1E
097B6:  MOVWF  x12
097B8:  CLRF   x13
097BA:  MOVLB  0
097BC:  CALL   1CA4
....................          displayContrasena(Password[2],60,30,0); 
097C0:  MOVFF  695,910
097C4:  MOVLW  3C
097C6:  MOVLB  9
097C8:  MOVWF  x11
097CA:  MOVLW  1E
097CC:  MOVWF  x12
097CE:  CLRF   x13
097D0:  MOVLB  0
097D2:  CALL   1CA4
....................          displayContrasena(Password[3],80,30,0); 
097D6:  MOVFF  696,910
097DA:  MOVLW  50
097DC:  MOVLB  9
097DE:  MOVWF  x11
097E0:  MOVLW  1E
097E2:  MOVWF  x12
097E4:  CLRF   x13
097E6:  MOVLB  0
097E8:  CALL   1CA4
....................       } 
....................       else 
097EC:  BRA    9918
097EE:  MOVLB  6
....................       { 
....................          if(unidad==2) 
097F0:  MOVF   x39,W
097F2:  SUBLW  02
097F4:  BNZ   9854
....................          { 
....................             displayContrasena(Password[0],20,30,0); 
097F6:  MOVFF  693,910
097FA:  MOVLW  14
097FC:  MOVLB  9
097FE:  MOVWF  x11
09800:  MOVLW  1E
09802:  MOVWF  x12
09804:  CLRF   x13
09806:  MOVLB  0
09808:  CALL   1CA4
....................             displayContrasena(Password[1],40,30,1); 
0980C:  MOVFF  694,910
09810:  MOVLW  28
09812:  MOVLB  9
09814:  MOVWF  x11
09816:  MOVLW  1E
09818:  MOVWF  x12
0981A:  MOVLW  01
0981C:  MOVWF  x13
0981E:  MOVLB  0
09820:  CALL   1CA4
....................             displayContrasena(Password[2],60,30,0); 
09824:  MOVFF  695,910
09828:  MOVLW  3C
0982A:  MOVLB  9
0982C:  MOVWF  x11
0982E:  MOVLW  1E
09830:  MOVWF  x12
09832:  CLRF   x13
09834:  MOVLB  0
09836:  CALL   1CA4
....................             displayContrasena(Password[3],80,30,0); 
0983A:  MOVFF  696,910
0983E:  MOVLW  50
09840:  MOVLB  9
09842:  MOVWF  x11
09844:  MOVLW  1E
09846:  MOVWF  x12
09848:  CLRF   x13
0984A:  MOVLB  0
0984C:  CALL   1CA4
....................          } 
....................          else 
09850:  BRA    9918
09852:  MOVLB  6
....................          { 
....................             if(unidad==3) 
09854:  MOVF   x39,W
09856:  SUBLW  03
09858:  BNZ   98B8
....................             { 
....................                displayContrasena(Password[0],20,30,0); 
0985A:  MOVFF  693,910
0985E:  MOVLW  14
09860:  MOVLB  9
09862:  MOVWF  x11
09864:  MOVLW  1E
09866:  MOVWF  x12
09868:  CLRF   x13
0986A:  MOVLB  0
0986C:  CALL   1CA4
....................                displayContrasena(Password[1],40,30,0); 
09870:  MOVFF  694,910
09874:  MOVLW  28
09876:  MOVLB  9
09878:  MOVWF  x11
0987A:  MOVLW  1E
0987C:  MOVWF  x12
0987E:  CLRF   x13
09880:  MOVLB  0
09882:  CALL   1CA4
....................                displayContrasena(Password[2],60,30,1); 
09886:  MOVFF  695,910
0988A:  MOVLW  3C
0988C:  MOVLB  9
0988E:  MOVWF  x11
09890:  MOVLW  1E
09892:  MOVWF  x12
09894:  MOVLW  01
09896:  MOVWF  x13
09898:  MOVLB  0
0989A:  CALL   1CA4
....................                displayContrasena(Password[3],80,30,0); 
0989E:  MOVFF  696,910
098A2:  MOVLW  50
098A4:  MOVLB  9
098A6:  MOVWF  x11
098A8:  MOVLW  1E
098AA:  MOVWF  x12
098AC:  CLRF   x13
098AE:  MOVLB  0
098B0:  CALL   1CA4
....................             } 
....................             else 
098B4:  BRA    9918
098B6:  MOVLB  6
....................             { 
....................                if(unidad==4) 
098B8:  MOVF   x39,W
098BA:  SUBLW  04
098BC:  BNZ   991A
....................                { 
....................                   displayContrasena(Password[0],20,30,0); 
098BE:  MOVFF  693,910
098C2:  MOVLW  14
098C4:  MOVLB  9
098C6:  MOVWF  x11
098C8:  MOVLW  1E
098CA:  MOVWF  x12
098CC:  CLRF   x13
098CE:  MOVLB  0
098D0:  CALL   1CA4
....................                   displayContrasena(Password[1],40,30,0); 
098D4:  MOVFF  694,910
098D8:  MOVLW  28
098DA:  MOVLB  9
098DC:  MOVWF  x11
098DE:  MOVLW  1E
098E0:  MOVWF  x12
098E2:  CLRF   x13
098E4:  MOVLB  0
098E6:  CALL   1CA4
....................                   displayContrasena(Password[2],60,30,0); 
098EA:  MOVFF  695,910
098EE:  MOVLW  3C
098F0:  MOVLB  9
098F2:  MOVWF  x11
098F4:  MOVLW  1E
098F6:  MOVWF  x12
098F8:  CLRF   x13
098FA:  MOVLB  0
098FC:  CALL   1CA4
....................                   displayContrasena(Password[3],80,30,1); 
09900:  MOVFF  696,910
09904:  MOVLW  50
09906:  MOVLB  9
09908:  MOVWF  x11
0990A:  MOVLW  1E
0990C:  MOVWF  x12
0990E:  MOVLW  01
09910:  MOVWF  x13
09912:  MOVLB  0
09914:  CALL   1CA4
09918:  MOVLB  6
....................                } 
....................             } 
....................          } 
....................       } 
....................        
....................       if(UP)//Si oprime hacia arriba 
0991A:  BSF    F92.5
0991C:  BTFSC  F80.5
0991E:  BRA    9994
....................       { 
....................          Buzz_on;delay_ms(10);Buzz_off; 
09920:  BSF    F8B.5
09922:  BCF    F94.5
09924:  MOVLW  0A
09926:  MOVLB  9
09928:  MOVWF  x1D
0992A:  MOVLB  0
0992C:  CALL   13A4
09930:  BCF    F8B.5
09932:  BCF    F94.5
....................          delay_ms(30); 
09934:  MOVLW  1E
09936:  MOVLB  9
09938:  MOVWF  x1D
0993A:  MOVLB  0
0993C:  CALL   13A4
....................          for(i=1;i<=4;i++) 
09940:  MOVLW  01
09942:  MOVLB  6
09944:  MOVWF  x3A
09946:  MOVF   x3A,W
09948:  SUBLW  04
0994A:  BNC   9994
....................          { 
....................             if(unidad==i) 
0994C:  MOVF   x3A,W
0994E:  SUBWF  x39,W
09950:  BNZ   9990
....................             { 
....................                Password[i-1]++; 
09952:  MOVLW  01
09954:  SUBWF  x3A,W
09956:  CLRF   03
09958:  ADDLW  93
0995A:  MOVWF  FE9
0995C:  MOVLW  06
0995E:  ADDWFC 03,W
09960:  MOVWF  FEA
09962:  INCF   FEF,F
....................                if(Password[i-1]>9)    
09964:  MOVLW  01
09966:  SUBWF  x3A,W
09968:  CLRF   03
0996A:  ADDLW  93
0996C:  MOVWF  FE9
0996E:  MOVLW  06
09970:  ADDWFC 03,W
09972:  MOVWF  FEA
09974:  BTFSC  FEF.7
09976:  BRA    9990
09978:  MOVF   FEF,W
0997A:  SUBLW  09
0997C:  BC    9990
....................                { 
....................                   Password[i-1]=0; 
0997E:  MOVLW  01
09980:  SUBWF  x3A,W
09982:  CLRF   03
09984:  ADDLW  93
09986:  MOVWF  FE9
09988:  MOVLW  06
0998A:  ADDWFC 03,W
0998C:  MOVWF  FEA
0998E:  CLRF   FEF
....................                } 
....................             } 
....................          } 
09990:  INCF   x3A,F
09992:  BRA    9946
....................       } 
....................              
....................       if(DOWN)//Si oprime hacia abajo 
09994:  BSF    F96.0
09996:  BTFSC  F84.0
09998:  BRA    9A0C
....................       { 
....................          Buzz_on;delay_ms(10);Buzz_off; 
0999A:  BSF    F8B.5
0999C:  BCF    F94.5
0999E:  MOVLW  0A
099A0:  MOVLB  9
099A2:  MOVWF  x1D
099A4:  MOVLB  0
099A6:  CALL   13A4
099AA:  BCF    F8B.5
099AC:  BCF    F94.5
....................          delay_ms(30); 
099AE:  MOVLW  1E
099B0:  MOVLB  9
099B2:  MOVWF  x1D
099B4:  MOVLB  0
099B6:  CALL   13A4
....................          for(i=1;i<=4;i++) 
099BA:  MOVLW  01
099BC:  MOVLB  6
099BE:  MOVWF  x3A
099C0:  MOVF   x3A,W
099C2:  SUBLW  04
099C4:  BNC   9A0C
....................             { 
....................                if(unidad==i) 
099C6:  MOVF   x3A,W
099C8:  SUBWF  x39,W
099CA:  BNZ   9A08
....................                { 
....................                   Password[i-1]--; 
099CC:  MOVLW  01
099CE:  SUBWF  x3A,W
099D0:  CLRF   03
099D2:  ADDLW  93
099D4:  MOVWF  FE9
099D6:  MOVLW  06
099D8:  ADDWFC 03,W
099DA:  MOVWF  FEA
099DC:  DECF   FEF,F
....................                   if(Password[i-1]<0) 
099DE:  MOVLW  01
099E0:  SUBWF  x3A,W
099E2:  CLRF   03
099E4:  ADDLW  93
099E6:  MOVWF  FE9
099E8:  MOVLW  06
099EA:  ADDWFC 03,W
099EC:  MOVWF  FEA
099EE:  BTFSC  FEF.7
099F0:  BRA    99F4
099F2:  BRA    9A08
....................                   { 
....................                      Password[i-1]=9; 
099F4:  MOVLW  01
099F6:  SUBWF  x3A,W
099F8:  CLRF   03
099FA:  ADDLW  93
099FC:  MOVWF  FE9
099FE:  MOVLW  06
09A00:  ADDWFC 03,W
09A02:  MOVWF  FEA
09A04:  MOVLW  09
09A06:  MOVWF  FEF
....................                   } 
....................                } 
....................             }        
09A08:  INCF   x3A,F
09A0A:  BRA    99C0
....................       } 
....................              
....................       if(RIGHT)//Si oprime RIGHT 
09A0C:  BSF    F96.1
09A0E:  BTFSC  F84.1
09A10:  BRA    9A36
....................       { 
....................          Buzz_on;delay_ms(10);Buzz_off;delay_ms(30);unidad++; 
09A12:  BSF    F8B.5
09A14:  BCF    F94.5
09A16:  MOVLW  0A
09A18:  MOVLB  9
09A1A:  MOVWF  x1D
09A1C:  MOVLB  0
09A1E:  CALL   13A4
09A22:  BCF    F8B.5
09A24:  BCF    F94.5
09A26:  MOVLW  1E
09A28:  MOVLB  9
09A2A:  MOVWF  x1D
09A2C:  MOVLB  0
09A2E:  CALL   13A4
09A32:  MOVLB  6
09A34:  INCF   x39,F
....................       } 
....................        
....................       if(LEFT)//Si oprime Izquierda 
09A36:  BSF    F96.2
09A38:  BTFSC  F84.2
09A3A:  BRA    9A78
....................       { 
....................          Buzz_on;delay_ms(10);Buzz_off;delay_ms(700);Menu=1;glcd_fillscreen(OFF); 
09A3C:  BSF    F8B.5
09A3E:  BCF    F94.5
09A40:  MOVLW  0A
09A42:  MOVLB  9
09A44:  MOVWF  x1D
09A46:  MOVLB  0
09A48:  CALL   13A4
09A4C:  BCF    F8B.5
09A4E:  BCF    F94.5
09A50:  MOVLW  04
09A52:  MOVLB  9
09A54:  MOVWF  x07
09A56:  MOVLW  AF
09A58:  MOVWF  x1D
09A5A:  MOVLB  0
09A5C:  CALL   13A4
09A60:  MOVLB  9
09A62:  DECFSZ x07,F
09A64:  BRA    9A56
09A66:  MOVLW  01
09A68:  MOVLB  6
09A6A:  MOVWF  x38
09A6C:  MOVLB  9
09A6E:  CLRF   x0E
09A70:  MOVLB  0
09A72:  CALL   1424
09A76:  MOVLB  6
....................       } 
....................        
....................       if(unidad>4) 
09A78:  MOVF   x39,W
09A7A:  SUBLW  04
09A7C:  BTFSC  FD8.0
09A7E:  BRA    9B84
....................       { 
....................          Opcion=1;unidad=1; 
09A80:  MOVLW  01
09A82:  MOVWF  x3F
09A84:  MOVWF  x39
....................          write_eeprom(460,Password[0]); 
09A86:  MOVWF  FAA
09A88:  MOVLW  CC
09A8A:  MOVWF  FA9
09A8C:  MOVFF  693,FA8
09A90:  BCF    FA6.6
09A92:  BCF    FA6.7
09A94:  BSF    FA6.2
09A96:  MOVF   FF2,W
09A98:  MOVWF  00
09A9A:  BCF    FF2.7
09A9C:  MOVLB  F
09A9E:  MOVLW  55
09AA0:  MOVWF  FA7
09AA2:  MOVLW  AA
09AA4:  MOVWF  FA7
09AA6:  BSF    FA6.1
09AA8:  BTFSC  FA6.1
09AAA:  BRA    9AA8
09AAC:  BCF    FA6.2
09AAE:  MOVF   00,W
09AB0:  IORWF  FF2,F
....................          delay_ms(50);    
09AB2:  MOVLW  32
09AB4:  MOVLB  9
09AB6:  MOVWF  x1D
09AB8:  MOVLB  0
09ABA:  CALL   13A4
....................          write_eeprom(461,Password[1]); 
09ABE:  MOVLW  01
09AC0:  MOVWF  FAA
09AC2:  MOVLW  CD
09AC4:  MOVWF  FA9
09AC6:  MOVFF  694,FA8
09ACA:  BCF    FA6.6
09ACC:  BCF    FA6.7
09ACE:  BSF    FA6.2
09AD0:  MOVF   FF2,W
09AD2:  MOVWF  00
09AD4:  BCF    FF2.7
09AD6:  MOVLB  F
09AD8:  MOVLW  55
09ADA:  MOVWF  FA7
09ADC:  MOVLW  AA
09ADE:  MOVWF  FA7
09AE0:  BSF    FA6.1
09AE2:  BTFSC  FA6.1
09AE4:  BRA    9AE2
09AE6:  BCF    FA6.2
09AE8:  MOVF   00,W
09AEA:  IORWF  FF2,F
....................          delay_ms(50);    
09AEC:  MOVLW  32
09AEE:  MOVLB  9
09AF0:  MOVWF  x1D
09AF2:  MOVLB  0
09AF4:  CALL   13A4
....................          write_eeprom(462,Password[2]); 
09AF8:  MOVLW  01
09AFA:  MOVWF  FAA
09AFC:  MOVLW  CE
09AFE:  MOVWF  FA9
09B00:  MOVFF  695,FA8
09B04:  BCF    FA6.6
09B06:  BCF    FA6.7
09B08:  BSF    FA6.2
09B0A:  MOVF   FF2,W
09B0C:  MOVWF  00
09B0E:  BCF    FF2.7
09B10:  MOVLB  F
09B12:  MOVLW  55
09B14:  MOVWF  FA7
09B16:  MOVLW  AA
09B18:  MOVWF  FA7
09B1A:  BSF    FA6.1
09B1C:  BTFSC  FA6.1
09B1E:  BRA    9B1C
09B20:  BCF    FA6.2
09B22:  MOVF   00,W
09B24:  IORWF  FF2,F
....................          delay_ms(50);    
09B26:  MOVLW  32
09B28:  MOVLB  9
09B2A:  MOVWF  x1D
09B2C:  MOVLB  0
09B2E:  CALL   13A4
....................          write_eeprom(463,Password[3]); 
09B32:  MOVLW  01
09B34:  MOVWF  FAA
09B36:  MOVLW  CF
09B38:  MOVWF  FA9
09B3A:  MOVFF  696,FA8
09B3E:  BCF    FA6.6
09B40:  BCF    FA6.7
09B42:  BSF    FA6.2
09B44:  MOVF   FF2,W
09B46:  MOVWF  00
09B48:  BCF    FF2.7
09B4A:  MOVLB  F
09B4C:  MOVLW  55
09B4E:  MOVWF  FA7
09B50:  MOVLW  AA
09B52:  MOVWF  FA7
09B54:  BSF    FA6.1
09B56:  BTFSC  FA6.1
09B58:  BRA    9B56
09B5A:  BCF    FA6.2
09B5C:  MOVF   00,W
09B5E:  IORWF  FF2,F
....................          delay_ms(1000);glcd_fillScreen(OFF);Menu=1; 
09B60:  MOVLW  04
09B62:  MOVLB  9
09B64:  MOVWF  x07
09B66:  MOVLW  FA
09B68:  MOVWF  x1D
09B6A:  MOVLB  0
09B6C:  CALL   13A4
09B70:  MOVLB  9
09B72:  DECFSZ x07,F
09B74:  BRA    9B66
09B76:  CLRF   x0E
09B78:  MOVLB  0
09B7A:  CALL   1424
09B7E:  MOVLW  01
09B80:  MOVLB  6
09B82:  MOVWF  x38
....................       } 
....................     }     
.................... //_--------------------------------------------------------------------------------------------------------------------------------------------------------     
....................  
.................... //_-------------------------------------------------------------------------------------------------------------------------------------------------------- 
....................       if(Menu>10 && Menu<16){ //Menu Editar Programa 01, Programa 02, Programa 03, Programa 04 y Programa 05 
09B84:  MOVF   x38,W
09B86:  SUBLW  0A
09B88:  BTFSC  FD8.0
09B8A:  BRA    9E7E
09B8C:  MOVF   x38,W
09B8E:  SUBLW  0F
09B90:  BTFSS  FD8.0
09B92:  BRA    9E7E
....................        
....................          if(Opcion>3) 
09B94:  MOVF   x3F,W
09B96:  SUBLW  03
09B98:  BC    9BA6
....................          { 
....................             Opcion=1; 
09B9A:  MOVLW  01
09B9C:  MOVWF  x3F
....................             if(i<15){ 
09B9E:  MOVF   x3A,W
09BA0:  SUBLW  0E
09BA2:  BNC   9BA6
....................                i++;   
09BA4:  INCF   x3A,F
....................             } 
....................          } 
....................           
....................          if(Opcion<1) 
09BA6:  MOVF   x3F,F
09BA8:  BNZ   9BB4
....................          { 
....................             if(i>0) 
09BAA:  MOVF   x3A,F
09BAC:  BZ    9BB0
....................                i--; 
09BAE:  DECF   x3A,F
....................                 
....................             Opcion=3; 
09BB0:  MOVLW  03
09BB2:  MOVWF  x3F
....................          } 
....................           
....................          if(Menu==11) 
09BB4:  MOVF   x38,W
09BB6:  SUBLW  0B
09BB8:  BNZ   9BBE
....................             Programa=1; 
09BBA:  MOVLW  01
09BBC:  MOVWF  x33
....................           
....................          if(Menu==12) 
09BBE:  MOVF   x38,W
09BC0:  SUBLW  0C
09BC2:  BNZ   9BC8
....................             Programa=2; 
09BC4:  MOVLW  02
09BC6:  MOVWF  x33
....................              
....................          if(Menu==13) 
09BC8:  MOVF   x38,W
09BCA:  SUBLW  0D
09BCC:  BNZ   9BD2
....................             Programa=3; 
09BCE:  MOVLW  03
09BD0:  MOVWF  x33
....................              
....................          if(Menu==14) 
09BD2:  MOVF   x38,W
09BD4:  SUBLW  0E
09BD6:  BNZ   9BDC
....................             Programa=4; 
09BD8:  MOVLW  04
09BDA:  MOVWF  x33
....................              
....................          if(Menu==15) 
09BDC:  MOVF   x38,W
09BDE:  SUBLW  0F
09BE0:  BNZ   9BE6
....................             Programa=5;    
09BE2:  MOVLW  05
09BE4:  MOVWF  x33
....................           
....................          MuestraSegmento(Opcion,i,Programa); 
09BE6:  MOVFF  63F,907
09BEA:  MOVFF  63A,908
09BEE:  MOVFF  633,909
09BF2:  MOVLB  0
09BF4:  GOTO   4B94
....................           
....................          if(RIGHT && LEFT){ 
09BF8:  BSF    F96.1
09BFA:  BTFSC  F84.1
09BFC:  BRA    9E2C
09BFE:  BSF    F96.2
09C00:  BTFSC  F84.2
09C02:  BRA    9E2C
....................             Buzz_on;Menu=5;Opcion=1;glcd_fillscreen(OFF);delay_ms(500);Buzz_off; 
09C04:  BSF    F8B.5
09C06:  BCF    F94.5
09C08:  MOVLW  05
09C0A:  MOVLB  6
09C0C:  MOVWF  x38
09C0E:  MOVLW  01
09C10:  MOVWF  x3F
09C12:  MOVLB  9
09C14:  CLRF   x0E
09C16:  MOVLB  0
09C18:  CALL   1424
09C1C:  MOVLW  02
09C1E:  MOVLB  9
09C20:  MOVWF  x07
09C22:  MOVLW  FA
09C24:  MOVWF  x1D
09C26:  MOVLB  0
09C28:  CALL   13A4
09C2C:  MOVLB  9
09C2E:  DECFSZ x07,F
09C30:  BRA    9C22
09C32:  BCF    F8B.5
09C34:  BCF    F94.5
....................              
....................             for(i=0;i<Pasos;i++){ 
09C36:  MOVLB  6
09C38:  CLRF   x3A
09C3A:  MOVF   x3A,W
09C3C:  SUBLW  0F
09C3E:  BTFSS  FD8.0
09C40:  BRA    9E2A
....................                delay_ms(10);     
09C42:  MOVLW  0A
09C44:  MOVLB  9
09C46:  MOVWF  x1D
09C48:  MOVLB  0
09C4A:  CALL   13A4
....................                write_eeprom((i*2)+((Pasos*4)*(Programa-1)),make8(Temperatura1[i+((Programa-1)*Pasos)],0)); 
09C4E:  BCF    FD8.0
09C50:  MOVLB  6
09C52:  RLCF   x3A,W
09C54:  MOVLB  9
09C56:  MOVWF  x07
09C58:  MOVLW  01
09C5A:  MOVLB  6
09C5C:  SUBWF  x33,W
09C5E:  MULLW  40
09C60:  MOVF   FF3,W
09C62:  MOVLB  9
09C64:  ADDWF  x07,F
09C66:  MOVLW  01
09C68:  MOVLB  6
09C6A:  SUBWF  x33,W
09C6C:  MULLW  10
09C6E:  MOVF   FF3,W
09C70:  ADDWF  x3A,W
09C72:  MOVWF  00
09C74:  BCF    FD8.0
09C76:  RLCF   00,F
09C78:  MOVF   00,W
09C7A:  CLRF   03
09C7C:  ADDLW  07
09C7E:  MOVWF  FE9
09C80:  MOVLW  07
09C82:  ADDWFC 03,W
09C84:  MOVWF  FEA
09C86:  MOVFF  FEC,909
09C8A:  MOVF   FED,F
09C8C:  MOVFF  FEF,908
09C90:  MOVFF  908,90A
09C94:  CLRF   FAA
09C96:  MOVFF  907,FA9
09C9A:  MOVFF  90A,FA8
09C9E:  BCF    FA6.6
09CA0:  BCF    FA6.7
09CA2:  BSF    FA6.2
09CA4:  MOVF   FF2,W
09CA6:  MOVWF  00
09CA8:  BCF    FF2.7
09CAA:  MOVLB  F
09CAC:  MOVLW  55
09CAE:  MOVWF  FA7
09CB0:  MOVLW  AA
09CB2:  MOVWF  FA7
09CB4:  BSF    FA6.1
09CB6:  BTFSC  FA6.1
09CB8:  BRA    9CB6
09CBA:  BCF    FA6.2
09CBC:  MOVF   00,W
09CBE:  IORWF  FF2,F
....................                delay_ms(10);     
09CC0:  MOVLW  0A
09CC2:  MOVLB  9
09CC4:  MOVWF  x1D
09CC6:  MOVLB  0
09CC8:  CALL   13A4
....................                write_eeprom((i*2)+1+((Pasos*4)*(Programa-1)),make8(Temperatura1[i+((Programa-1)*Pasos)],1)); 
09CCC:  BCF    FD8.0
09CCE:  MOVLB  6
09CD0:  RLCF   x3A,W
09CD2:  ADDLW  01
09CD4:  MOVLB  9
09CD6:  MOVWF  x07
09CD8:  MOVLW  01
09CDA:  MOVLB  6
09CDC:  SUBWF  x33,W
09CDE:  MULLW  40
09CE0:  MOVF   FF3,W
09CE2:  MOVLB  9
09CE4:  ADDWF  x07,F
09CE6:  MOVLW  01
09CE8:  MOVLB  6
09CEA:  SUBWF  x33,W
09CEC:  MULLW  10
09CEE:  MOVF   FF3,W
09CF0:  ADDWF  x3A,W
09CF2:  MOVWF  00
09CF4:  BCF    FD8.0
09CF6:  RLCF   00,F
09CF8:  MOVF   00,W
09CFA:  CLRF   03
09CFC:  ADDLW  07
09CFE:  MOVWF  FE9
09D00:  MOVLW  07
09D02:  ADDWFC 03,W
09D04:  MOVWF  FEA
09D06:  MOVFF  FEC,909
09D0A:  MOVF   FED,F
09D0C:  MOVFF  FEF,908
09D10:  MOVFF  909,90A
09D14:  CLRF   FAA
09D16:  MOVFF  907,FA9
09D1A:  MOVFF  90A,FA8
09D1E:  BCF    FA6.6
09D20:  BCF    FA6.7
09D22:  BSF    FA6.2
09D24:  MOVF   FF2,W
09D26:  MOVWF  00
09D28:  BCF    FF2.7
09D2A:  MOVLB  F
09D2C:  MOVLW  55
09D2E:  MOVWF  FA7
09D30:  MOVLW  AA
09D32:  MOVWF  FA7
09D34:  BSF    FA6.1
09D36:  BTFSC  FA6.1
09D38:  BRA    9D36
09D3A:  BCF    FA6.2
09D3C:  MOVF   00,W
09D3E:  IORWF  FF2,F
....................                delay_ms(10);     
09D40:  MOVLW  0A
09D42:  MOVLB  9
09D44:  MOVWF  x1D
09D46:  MOVLB  0
09D48:  CALL   13A4
....................                write_eeprom(i+(((Pasos*4)*Programa)-((Pasos*2))),Horas1[i+((Programa-1)*Pasos)]); 
09D4C:  MOVLB  6
09D4E:  MOVF   x33,W
09D50:  MULLW  40
09D52:  MOVF   FF3,W
09D54:  ADDLW  E0
09D56:  ADDWF  x3A,W
09D58:  MOVLB  9
09D5A:  MOVWF  x07
09D5C:  MOVLW  01
09D5E:  MOVLB  6
09D60:  SUBWF  x33,W
09D62:  MULLW  10
09D64:  MOVF   FF3,W
09D66:  ADDWF  x3A,W
09D68:  MOVWF  00
09D6A:  BCF    FD8.0
09D6C:  RLCF   00,F
09D6E:  MOVF   00,W
09D70:  CLRF   03
09D72:  ADDLW  A7
09D74:  MOVWF  FE9
09D76:  MOVLW  07
09D78:  ADDWFC 03,W
09D7A:  MOVWF  FEA
09D7C:  MOVFF  FEC,909
09D80:  MOVF   FED,F
09D82:  MOVFF  FEF,908
09D86:  CLRF   FAA
09D88:  MOVFF  907,FA9
09D8C:  MOVFF  908,FA8
09D90:  BCF    FA6.6
09D92:  BCF    FA6.7
09D94:  BSF    FA6.2
09D96:  MOVF   FF2,W
09D98:  MOVWF  00
09D9A:  BCF    FF2.7
09D9C:  MOVLB  F
09D9E:  MOVLW  55
09DA0:  MOVWF  FA7
09DA2:  MOVLW  AA
09DA4:  MOVWF  FA7
09DA6:  BSF    FA6.1
09DA8:  BTFSC  FA6.1
09DAA:  BRA    9DA8
09DAC:  BCF    FA6.2
09DAE:  MOVF   00,W
09DB0:  IORWF  FF2,F
....................                delay_ms(10);     
09DB2:  MOVLW  0A
09DB4:  MOVLB  9
09DB6:  MOVWF  x1D
09DB8:  MOVLB  0
09DBA:  CALL   13A4
....................                write_eeprom(i+(((Pasos*4)*Programa)-Pasos),Minutos1[i+((Programa-1)*Pasos)]); 
09DBE:  MOVLB  6
09DC0:  MOVF   x33,W
09DC2:  MULLW  40
09DC4:  MOVF   FF3,W
09DC6:  ADDLW  F0
09DC8:  ADDWF  x3A,W
09DCA:  MOVLB  9
09DCC:  MOVWF  x07
09DCE:  MOVLW  01
09DD0:  MOVLB  6
09DD2:  SUBWF  x33,W
09DD4:  MULLW  10
09DD6:  MOVF   FF3,W
09DD8:  ADDWF  x3A,W
09DDA:  MOVWF  00
09DDC:  BCF    FD8.0
09DDE:  RLCF   00,F
09DE0:  MOVF   00,W
09DE2:  CLRF   03
09DE4:  ADDLW  47
09DE6:  MOVWF  FE9
09DE8:  MOVLW  08
09DEA:  ADDWFC 03,W
09DEC:  MOVWF  FEA
09DEE:  MOVFF  FEC,909
09DF2:  MOVF   FED,F
09DF4:  MOVFF  FEF,908
09DF8:  CLRF   FAA
09DFA:  MOVFF  907,FA9
09DFE:  MOVFF  908,FA8
09E02:  BCF    FA6.6
09E04:  BCF    FA6.7
09E06:  BSF    FA6.2
09E08:  MOVF   FF2,W
09E0A:  MOVWF  00
09E0C:  BCF    FF2.7
09E0E:  MOVLB  F
09E10:  MOVLW  55
09E12:  MOVWF  FA7
09E14:  MOVLW  AA
09E16:  MOVWF  FA7
09E18:  BSF    FA6.1
09E1A:  BTFSC  FA6.1
09E1C:  BRA    9E1A
09E1E:  BCF    FA6.2
09E20:  MOVF   00,W
09E22:  IORWF  FF2,F
....................             }  
09E24:  MOVLB  6
09E26:  INCF   x3A,F
09E28:  BRA    9C3A
09E2A:  MOVLB  0
....................          } 
....................           
....................          if(RIGHT)//Si oprime SET 
09E2C:  BSF    F96.1
09E2E:  BTFSC  F84.1
09E30:  BRA    9E54
....................          {  
....................             Buzz_on;delay_ms(50);Opcion++;glcd_fillscreen(OFF);Buzz_off; 
09E32:  BSF    F8B.5
09E34:  BCF    F94.5
09E36:  MOVLW  32
09E38:  MOVLB  9
09E3A:  MOVWF  x1D
09E3C:  MOVLB  0
09E3E:  CALL   13A4
09E42:  MOVLB  6
09E44:  INCF   x3F,F
09E46:  MOVLB  9
09E48:  CLRF   x0E
09E4A:  MOVLB  0
09E4C:  CALL   1424
09E50:  BCF    F8B.5
09E52:  BCF    F94.5
....................          } 
....................           
....................          if(LEFT){ 
09E54:  BSF    F96.2
09E56:  BTFSC  F84.2
09E58:  BRA    9E7C
....................             Buzz_on;delay_ms(50);Opcion--;glcd_fillscreen(OFF);Buzz_off; 
09E5A:  BSF    F8B.5
09E5C:  BCF    F94.5
09E5E:  MOVLW  32
09E60:  MOVLB  9
09E62:  MOVWF  x1D
09E64:  MOVLB  0
09E66:  CALL   13A4
09E6A:  MOVLB  6
09E6C:  DECF   x3F,F
09E6E:  MOVLB  9
09E70:  CLRF   x0E
09E72:  MOVLB  0
09E74:  CALL   1424
09E78:  BCF    F8B.5
09E7A:  BCF    F94.5
09E7C:  MOVLB  6
....................          } 
....................    } 
.................... //_--------------------------------------------------------------------------------------------------------------------------------------------------------        
....................  
.................... //_-------------------------------------------------------------------------------------------------------------------------------------------------------- 
....................       if(Menu==20){ //Menu de Funcionamiento 
09E7E:  MOVF   x38,W
09E80:  SUBLW  14
09E82:  BTFSS  FD8.2
09E84:  GOTO   B094
....................        
....................       // Muestra imagen de fondo en Display GLCD       
....................       glcd_imagen(5); 
09E88:  MOVLW  05
09E8A:  MOVLB  9
09E8C:  MOVWF  x07
09E8E:  MOVLB  0
09E90:  GOTO   584E
....................       //flag_display=0; 
....................  
....................       if(UP && DOWN)//Si oprime hacia abajo 
09E94:  BSF    F92.5
09E96:  BTFSC  F80.5
09E98:  BRA    9EBC
09E9A:  BSF    F96.0
09E9C:  BTFSC  F84.0
09E9E:  BRA    9EBC
....................       { 
....................          glcd_init(ON);delay_ms(200);flag_display=!flag_display;          
09EA0:  MOVLW  01
09EA2:  MOVLB  9
09EA4:  MOVWF  x07
09EA6:  MOVLB  0
09EA8:  CALL   1536
09EAC:  MOVLW  C8
09EAE:  MOVLB  9
09EB0:  MOVWF  x1D
09EB2:  MOVLB  0
09EB4:  CALL   13A4
09EB8:  MOVLB  6
09EBA:  BTG    x30.5
....................       } 
....................  
....................       if(Temperatura>1250 || Temperatura<0) 
09EBC:  MOVLB  9
09EBE:  CLRF   x0A
09EC0:  MOVLW  40
09EC2:  MOVWF  x09
09EC4:  MOVLW  1C
09EC6:  MOVWF  x08
09EC8:  MOVLW  89
09ECA:  MOVWF  x07
09ECC:  MOVFF  6CE,90E
09ED0:  MOVFF  6CD,90D
09ED4:  MOVFF  6CC,90C
09ED8:  MOVFF  6CB,90B
09EDC:  MOVLB  0
09EDE:  CALL   1D90
09EE2:  BC    9F06
09EE4:  MOVFF  6CE,90A
09EE8:  MOVFF  6CD,909
09EEC:  MOVFF  6CC,908
09EF0:  MOVFF  6CB,907
09EF4:  MOVLB  9
09EF6:  CLRF   x0E
09EF8:  CLRF   x0D
09EFA:  CLRF   x0C
09EFC:  CLRF   x0B
09EFE:  MOVLB  0
09F00:  CALL   1D90
09F04:  BNC   9FA6
....................       { 
....................          glcd_rect(0, 55, 127, 63, YES, OFF); 
09F06:  MOVLB  9
09F08:  CLRF   x1F
09F0A:  MOVLW  37
09F0C:  MOVWF  x20
09F0E:  MOVLW  7F
09F10:  MOVWF  x21
09F12:  MOVLW  3F
09F14:  MOVWF  x22
09F16:  MOVLW  01
09F18:  MOVWF  x23
09F1A:  CLRF   x24
09F1C:  MOVLB  0
09F1E:  CALL   17D8
....................          strcpy(Menus.Letra,"Status:Sensor Descon."); 
09F22:  MOVLW  08
09F24:  MOVWF  FEA
09F26:  MOVLW  E7
09F28:  MOVWF  FE9
09F2A:  MOVFF  FF2,907
09F2E:  BCF    FF2.7
09F30:  MOVLW  00
09F32:  CALL   0C6A
09F36:  TBLRD*-
09F38:  TBLRD*+
09F3A:  MOVF   FF5,W
09F3C:  MOVWF  FEE
09F3E:  IORLW  00
09F40:  BNZ   9F38
09F42:  MOVLB  9
09F44:  BTFSC  x07.7
09F46:  BSF    FF2.7
....................          displayMenu(Menus.Letra,0,55,2,1); 
09F48:  MOVLW  08
09F4A:  MOVWF  x0F
09F4C:  MOVLW  E7
09F4E:  MOVWF  x0E
09F50:  CLRF   x10
09F52:  MOVLW  37
09F54:  MOVWF  x11
09F56:  MOVLW  02
09F58:  MOVWF  x12
09F5A:  MOVLW  01
09F5C:  MOVWF  x13
09F5E:  MOVLB  0
09F60:  CALL   1A52
....................          tiempo_esterilizacion=0; 
09F64:  MOVLB  6
09F66:  CLRF   x40
....................          Resistencia_off; 
09F68:  BCF    F8B.0
09F6A:  BCF    F94.0
....................          Tpulso=0.0; 
09F6C:  CLRF   xA2
09F6E:  CLRF   xA1
09F70:  CLRF   xA0
09F72:  CLRF   x9F
....................          flag_tiempocalentamiento=0; 
09F74:  BCF    x30.4
....................          Buzz_on; 
09F76:  BSF    F8B.5
09F78:  BCF    F94.5
....................          delay_ms(500); 
09F7A:  MOVLW  02
09F7C:  MOVLB  9
09F7E:  MOVWF  x07
09F80:  MOVLW  FA
09F82:  MOVWF  x1D
09F84:  MOVLB  0
09F86:  CALL   13A4
09F8A:  MOVLB  9
09F8C:  DECFSZ x07,F
09F8E:  BRA    9F80
....................          Buzz_off; 
09F90:  BCF    F8B.5
09F92:  BCF    F94.5
....................          delay_ms(250); 
09F94:  MOVLW  FA
09F96:  MOVWF  x1D
09F98:  MOVLB  0
09F9A:  CALL   13A4
....................          Control=0; 
09F9E:  MOVLB  6
09FA0:  CLRF   x34
....................       } 
....................       else 
09FA2:  BRA    A628
09FA4:  MOVLB  0
....................       { 
....................           
....................          if(Pausa==0 && !DOOR && !TERM) 
09FA6:  MOVLB  6
09FA8:  MOVF   x3C,F
09FAA:  BTFSS  FD8.2
09FAC:  BRA    A318
09FAE:  BSF    F92.4
09FB0:  BTFSC  F80.4
09FB2:  BRA    A318
09FB4:  BSF    F92.3
09FB6:  BTFSC  F80.3
09FB8:  BRA    A318
....................          { 
....................             Control=1; 
09FBA:  MOVLW  01
09FBC:  MOVWF  x34
....................              
....................             if(Temperatura>Setpoint+AlTem && AlTem>0){ 
09FBE:  MOVFF  658,91E
09FC2:  MOVFF  657,91D
09FC6:  MOVLB  0
09FC8:  CALL   1D5A
09FCC:  BCF    FD8.1
09FCE:  MOVFF  6DA,91D
09FD2:  MOVFF  6D9,91C
09FD6:  MOVFF  6D8,91B
09FDA:  MOVFF  6D7,91A
09FDE:  MOVFF  03,921
09FE2:  MOVFF  02,920
09FE6:  MOVFF  01,91F
09FEA:  MOVFF  00,91E
09FEE:  CALL   1F68
09FF2:  MOVFF  03,90A
09FF6:  MOVFF  02,909
09FFA:  MOVFF  01,908
09FFE:  MOVFF  00,907
0A002:  MOVFF  6CE,90E
0A006:  MOVFF  6CD,90D
0A00A:  MOVFF  6CC,90C
0A00E:  MOVFF  6CB,90B
0A012:  CALL   1D90
0A016:  BNC   A030
0A018:  MOVLB  6
0A01A:  MOVF   x57,F
0A01C:  BNZ   A028
0A01E:  MOVF   x58,F
0A020:  BTFSS  FD8.2
0A022:  BRA    A028
0A024:  MOVLB  0
0A026:  BRA    A030
....................                Alarma=5; 
0A028:  MOVLW  05
0A02A:  MOVWF  x42
....................             }else{   
0A02C:  BRA    A318
0A02E:  MOVLB  0
....................                Alarma=10; 
0A030:  MOVLW  0A
0A032:  MOVLB  6
0A034:  MOVWF  x42
....................                if((Temperatura>=Setpoint-10) && (Temperatura<Setpoint+50)) 
0A036:  BSF    FD8.1
0A038:  MOVFF  6DA,91D
0A03C:  MOVFF  6D9,91C
0A040:  MOVFF  6D8,91B
0A044:  MOVFF  6D7,91A
0A048:  MOVLB  9
0A04A:  CLRF   x21
0A04C:  CLRF   x20
0A04E:  MOVLW  20
0A050:  MOVWF  x1F
0A052:  MOVLW  82
0A054:  MOVWF  x1E
0A056:  MOVLB  0
0A058:  CALL   1F68
0A05C:  MOVFF  03,90A
0A060:  MOVFF  02,909
0A064:  MOVFF  01,908
0A068:  MOVFF  00,907
0A06C:  MOVFF  6CE,90E
0A070:  MOVFF  6CD,90D
0A074:  MOVFF  6CC,90C
0A078:  MOVFF  6CB,90B
0A07C:  CALL   1D90
0A080:  BC    A086
0A082:  BTFSS  FD8.2
0A084:  BRA    A1FA
0A086:  BCF    FD8.1
0A088:  MOVFF  6DA,91D
0A08C:  MOVFF  6D9,91C
0A090:  MOVFF  6D8,91B
0A094:  MOVFF  6D7,91A
0A098:  MOVLB  9
0A09A:  CLRF   x21
0A09C:  CLRF   x20
0A09E:  MOVLW  48
0A0A0:  MOVWF  x1F
0A0A2:  MOVLW  84
0A0A4:  MOVWF  x1E
0A0A6:  MOVLB  0
0A0A8:  CALL   1F68
0A0AC:  MOVFF  6CE,90A
0A0B0:  MOVFF  6CD,909
0A0B4:  MOVFF  6CC,908
0A0B8:  MOVFF  6CB,907
0A0BC:  MOVFF  03,90E
0A0C0:  MOVFF  02,90D
0A0C4:  MOVFF  01,90C
0A0C8:  MOVFF  00,90B
0A0CC:  CALL   1D90
0A0D0:  BTFSS  FD8.0
0A0D2:  BRA    A1FA
....................                { 
....................                   if(Pendiente!=0){ 
0A0D4:  MOVFF  6D2,90A
0A0D8:  MOVFF  6D1,909
0A0DC:  MOVFF  6D0,908
0A0E0:  MOVFF  6CF,907
0A0E4:  MOVLB  9
0A0E6:  CLRF   x0E
0A0E8:  CLRF   x0D
0A0EA:  CLRF   x0C
0A0EC:  CLRF   x0B
0A0EE:  MOVLB  0
0A0F0:  CALL   1D90
0A0F4:  BZ    A15E
....................                      tiempo_esterilizacion=1; 
0A0F6:  MOVLW  01
0A0F8:  MOVLB  6
0A0FA:  MOVWF  x40
....................                      if(flag_display==0){ 
0A0FC:  BTFSC  x30.5
0A0FE:  BRA    A160
....................                         glcd_rect(0, 55, 127, 63, YES, OFF); 
0A100:  MOVLB  9
0A102:  CLRF   x1F
0A104:  MOVLW  37
0A106:  MOVWF  x20
0A108:  MOVLW  7F
0A10A:  MOVWF  x21
0A10C:  MOVLW  3F
0A10E:  MOVWF  x22
0A110:  MOVLW  01
0A112:  MOVWF  x23
0A114:  CLRF   x24
0A116:  MOVLB  0
0A118:  CALL   17D8
....................                         strcpy(Menus.Letra,"Status:Controlando"); 
0A11C:  MOVLW  08
0A11E:  MOVWF  FEA
0A120:  MOVLW  E7
0A122:  MOVWF  FE9
0A124:  MOVFF  FF2,907
0A128:  BCF    FF2.7
0A12A:  MOVLW  00
0A12C:  CALL   0C9E
0A130:  TBLRD*-
0A132:  TBLRD*+
0A134:  MOVF   FF5,W
0A136:  MOVWF  FEE
0A138:  IORLW  00
0A13A:  BNZ   A132
0A13C:  MOVLB  9
0A13E:  BTFSC  x07.7
0A140:  BSF    FF2.7
....................                         displayMenu(Menus.Letra,0,55,2,1); 
0A142:  MOVLW  08
0A144:  MOVWF  x0F
0A146:  MOVLW  E7
0A148:  MOVWF  x0E
0A14A:  CLRF   x10
0A14C:  MOVLW  37
0A14E:  MOVWF  x11
0A150:  MOVLW  02
0A152:  MOVWF  x12
0A154:  MOVLW  01
0A156:  MOVWF  x13
0A158:  MOVLB  0
0A15A:  CALL   1A52
0A15E:  MOVLB  6
....................                      } 
....................                   } 
....................                    
....................                   if(Pendiente==0){ 
0A160:  MOVFF  6D2,90A
0A164:  MOVFF  6D1,909
0A168:  MOVFF  6D0,908
0A16C:  MOVFF  6CF,907
0A170:  MOVLB  9
0A172:  CLRF   x0E
0A174:  CLRF   x0D
0A176:  CLRF   x0C
0A178:  CLRF   x0B
0A17A:  MOVLB  0
0A17C:  CALL   1D90
0A180:  BNZ   A1EE
....................                      if(flag_display==0){ 
0A182:  MOVLB  6
0A184:  BTFSC  x30.5
0A186:  BRA    A1E8
....................                         glcd_rect(0, 55, 127, 63, YES, OFF); 
0A188:  MOVLB  9
0A18A:  CLRF   x1F
0A18C:  MOVLW  37
0A18E:  MOVWF  x20
0A190:  MOVLW  7F
0A192:  MOVWF  x21
0A194:  MOVLW  3F
0A196:  MOVWF  x22
0A198:  MOVLW  01
0A19A:  MOVWF  x23
0A19C:  CLRF   x24
0A19E:  MOVLB  0
0A1A0:  CALL   17D8
....................                         strcpy(Menus.Letra,"Status:Meseta  "); 
0A1A4:  MOVLW  08
0A1A6:  MOVWF  FEA
0A1A8:  MOVLW  E7
0A1AA:  MOVWF  FE9
0A1AC:  MOVFF  FF2,907
0A1B0:  BCF    FF2.7
0A1B2:  MOVLW  00
0A1B4:  CALL   0CD0
0A1B8:  TBLRD*-
0A1BA:  TBLRD*+
0A1BC:  MOVF   FF5,W
0A1BE:  MOVWF  FEE
0A1C0:  IORLW  00
0A1C2:  BNZ   A1BA
0A1C4:  MOVLB  9
0A1C6:  BTFSC  x07.7
0A1C8:  BSF    FF2.7
....................                         displayMenu(Menus.Letra,0,55,2,1); 
0A1CA:  MOVLW  08
0A1CC:  MOVWF  x0F
0A1CE:  MOVLW  E7
0A1D0:  MOVWF  x0E
0A1D2:  CLRF   x10
0A1D4:  MOVLW  37
0A1D6:  MOVWF  x11
0A1D8:  MOVLW  02
0A1DA:  MOVWF  x12
0A1DC:  MOVLW  01
0A1DE:  MOVWF  x13
0A1E0:  MOVLB  0
0A1E2:  CALL   1A52
0A1E6:  MOVLB  6
....................                      } 
....................                      tiempo_esterilizacion=2; 
0A1E8:  MOVLW  02
0A1EA:  MOVWF  x40
0A1EC:  MOVLB  0
....................                   } 
....................                   Controla(); 
0A1EE:  CALL   5BDA
....................                   flag_tiempocalentamiento=0; 
0A1F2:  MOVLB  6
0A1F4:  BCF    x30.4
....................                } 
....................                else 
0A1F6:  BRA    A318
0A1F8:  MOVLB  0
....................                { 
....................                   if(Pendiente!=0){ 
0A1FA:  MOVFF  6D2,90A
0A1FE:  MOVFF  6D1,909
0A202:  MOVFF  6D0,908
0A206:  MOVFF  6CF,907
0A20A:  MOVLB  9
0A20C:  CLRF   x0E
0A20E:  CLRF   x0D
0A210:  CLRF   x0C
0A212:  CLRF   x0B
0A214:  MOVLB  0
0A216:  CALL   1D90
0A21A:  BZ    A284
....................                      tiempo_esterilizacion=1; 
0A21C:  MOVLW  01
0A21E:  MOVLB  6
0A220:  MOVWF  x40
....................                      if(flag_display==0){ 
0A222:  BTFSC  x30.5
0A224:  BRA    A286
....................                         glcd_rect(0, 55, 127, 63, YES, OFF); 
0A226:  MOVLB  9
0A228:  CLRF   x1F
0A22A:  MOVLW  37
0A22C:  MOVWF  x20
0A22E:  MOVLW  7F
0A230:  MOVWF  x21
0A232:  MOVLW  3F
0A234:  MOVWF  x22
0A236:  MOVLW  01
0A238:  MOVWF  x23
0A23A:  CLRF   x24
0A23C:  MOVLB  0
0A23E:  CALL   17D8
....................                         strcpy(Menus.Letra,"Status:Rampa  "); 
0A242:  MOVLW  08
0A244:  MOVWF  FEA
0A246:  MOVLW  E7
0A248:  MOVWF  FE9
0A24A:  MOVFF  FF2,907
0A24E:  BCF    FF2.7
0A250:  MOVLW  00
0A252:  CALL   0CFE
0A256:  TBLRD*-
0A258:  TBLRD*+
0A25A:  MOVF   FF5,W
0A25C:  MOVWF  FEE
0A25E:  IORLW  00
0A260:  BNZ   A258
0A262:  MOVLB  9
0A264:  BTFSC  x07.7
0A266:  BSF    FF2.7
....................                         displayMenu(Menus.Letra,0,55,2,1); 
0A268:  MOVLW  08
0A26A:  MOVWF  x0F
0A26C:  MOVLW  E7
0A26E:  MOVWF  x0E
0A270:  CLRF   x10
0A272:  MOVLW  37
0A274:  MOVWF  x11
0A276:  MOVLW  02
0A278:  MOVWF  x12
0A27A:  MOVLW  01
0A27C:  MOVWF  x13
0A27E:  MOVLB  0
0A280:  CALL   1A52
0A284:  MOVLB  6
....................                      } 
....................                   } 
....................                    
....................                   if(Pendiente==0){ 
0A286:  MOVFF  6D2,90A
0A28A:  MOVFF  6D1,909
0A28E:  MOVFF  6D0,908
0A292:  MOVFF  6CF,907
0A296:  MOVLB  9
0A298:  CLRF   x0E
0A29A:  CLRF   x0D
0A29C:  CLRF   x0C
0A29E:  CLRF   x0B
0A2A0:  MOVLB  0
0A2A2:  CALL   1D90
0A2A6:  BNZ   A312
....................                      if(flag_display==0){ 
0A2A8:  MOVLB  6
0A2AA:  BTFSC  x30.5
0A2AC:  BRA    A30E
....................                         glcd_rect(0, 55, 127, 63, YES, OFF); 
0A2AE:  MOVLB  9
0A2B0:  CLRF   x1F
0A2B2:  MOVLW  37
0A2B4:  MOVWF  x20
0A2B6:  MOVLW  7F
0A2B8:  MOVWF  x21
0A2BA:  MOVLW  3F
0A2BC:  MOVWF  x22
0A2BE:  MOVLW  01
0A2C0:  MOVWF  x23
0A2C2:  CLRF   x24
0A2C4:  MOVLB  0
0A2C6:  CALL   17D8
....................                         strcpy(Menus.Letra,"Status:Calentando"); 
0A2CA:  MOVLW  08
0A2CC:  MOVWF  FEA
0A2CE:  MOVLW  E7
0A2D0:  MOVWF  FE9
0A2D2:  MOVFF  FF2,907
0A2D6:  BCF    FF2.7
0A2D8:  MOVLW  00
0A2DA:  CALL   0D2C
0A2DE:  TBLRD*-
0A2E0:  TBLRD*+
0A2E2:  MOVF   FF5,W
0A2E4:  MOVWF  FEE
0A2E6:  IORLW  00
0A2E8:  BNZ   A2E0
0A2EA:  MOVLB  9
0A2EC:  BTFSC  x07.7
0A2EE:  BSF    FF2.7
....................                         displayMenu(Menus.Letra,0,55,2,1); 
0A2F0:  MOVLW  08
0A2F2:  MOVWF  x0F
0A2F4:  MOVLW  E7
0A2F6:  MOVWF  x0E
0A2F8:  CLRF   x10
0A2FA:  MOVLW  37
0A2FC:  MOVWF  x11
0A2FE:  MOVLW  02
0A300:  MOVWF  x12
0A302:  MOVLW  01
0A304:  MOVWF  x13
0A306:  MOVLB  0
0A308:  CALL   1A52
0A30C:  MOVLB  6
....................                      } 
....................                      tiempo_esterilizacion=0; 
0A30E:  CLRF   x40
0A310:  MOVLB  0
....................                   } 
....................                   Controla(); 
0A312:  CALL   5BDA
0A316:  MOVLB  6
....................                } 
....................             } 
....................          } 
....................           
....................          if(Pausa==1 && !DOOR) 
0A318:  DECFSZ x3C,W
0A31A:  BRA    A37A
0A31C:  BSF    F92.4
0A31E:  BTFSC  F80.4
0A320:  BRA    A37A
....................          { 
....................             flag_tiempocalentamiento=0; 
0A322:  BCF    x30.4
....................             strcpy(Menus.Letra,"Status:Pausado"); 
0A324:  MOVLW  08
0A326:  MOVWF  FEA
0A328:  MOVLW  E7
0A32A:  MOVWF  FE9
0A32C:  MOVFF  FF2,907
0A330:  BCF    FF2.7
0A332:  MOVLW  00
0A334:  MOVLB  0
0A336:  CALL   0D5C
0A33A:  TBLRD*-
0A33C:  TBLRD*+
0A33E:  MOVF   FF5,W
0A340:  MOVWF  FEE
0A342:  IORLW  00
0A344:  BNZ   A33C
0A346:  MOVLB  9
0A348:  BTFSC  x07.7
0A34A:  BSF    FF2.7
....................             displayMenu(Menus.Letra,0,55,2,1); 
0A34C:  MOVLW  08
0A34E:  MOVWF  x0F
0A350:  MOVLW  E7
0A352:  MOVWF  x0E
0A354:  CLRF   x10
0A356:  MOVLW  37
0A358:  MOVWF  x11
0A35A:  MOVLW  02
0A35C:  MOVWF  x12
0A35E:  MOVLW  01
0A360:  MOVWF  x13
0A362:  MOVLB  0
0A364:  CALL   1A52
....................             tiempo_esterilizacion=0; 
0A368:  MOVLB  6
0A36A:  CLRF   x40
....................             Control=0; 
0A36C:  CLRF   x34
....................             Resistencia_off; 
0A36E:  BCF    F8B.0
0A370:  BCF    F94.0
....................             Tpulso=0.0; 
0A372:  CLRF   xA2
0A374:  CLRF   xA1
0A376:  CLRF   xA0
0A378:  CLRF   x9F
....................          } 
....................           
....................          if(DOOR) 
0A37A:  BSF    F92.4
0A37C:  BTFSS  F80.4
0A37E:  BRA    A4AA
....................          { 
....................             Control=0;             
0A380:  CLRF   x34
....................             flag_tiempocalentamiento=0; 
0A382:  BCF    x30.4
....................             tiempo_esterilizacion=0; 
0A384:  CLRF   x40
....................             Resistencia_off; 
0A386:  BCF    F8B.0
0A388:  BCF    F94.0
....................             Tpulso=0.0; 
0A38A:  CLRF   xA2
0A38C:  CLRF   xA1
0A38E:  CLRF   xA0
0A390:  CLRF   x9F
....................             if(flag_clear2==0) 
0A392:  BTFSC  x30.2
0A394:  BRA    A430
....................             { 
....................                //Ganancia=read_eeprom(90); 
....................                //Ganancia=Setpoint*(Ganancia/Coeficiente); 
....................                //glcd_fillScreen(OFF); 
....................                Ganancia=GananciaIn*(Setpoint/Coeficiente); 
0A396:  MOVFF  6DA,91F
0A39A:  MOVFF  6D9,91E
0A39E:  MOVFF  6D8,91D
0A3A2:  MOVFF  6D7,91C
0A3A6:  MOVFF  6C2,923
0A3AA:  MOVFF  6C1,922
0A3AE:  MOVFF  6C0,921
0A3B2:  MOVFF  6BF,920
0A3B6:  MOVLB  0
0A3B8:  CALL   1E0A
0A3BC:  MOVFF  6B6,92B
0A3C0:  MOVFF  6B5,92A
0A3C4:  MOVFF  6B4,929
0A3C8:  MOVFF  6B3,928
0A3CC:  MOVFF  03,92F
0A3D0:  MOVFF  02,92E
0A3D4:  MOVFF  01,92D
0A3D8:  MOVFF  00,92C
0A3DC:  CALL   32D4
0A3E0:  MOVFF  03,6BA
0A3E4:  MOVFF  02,6B9
0A3E8:  MOVFF  01,6B8
0A3EC:  MOVFF  00,6B7
....................                glcd_fillScreen(OFF); 
0A3F0:  MOVLB  9
0A3F2:  CLRF   x0E
0A3F4:  MOVLB  0
0A3F6:  CALL   1424
....................                glcd_init(ON); 
0A3FA:  MOVLW  01
0A3FC:  MOVLB  9
0A3FE:  MOVWF  x07
0A400:  MOVLB  0
0A402:  CALL   1536
....................                glcd_rect(0, 55, 127, 63, YES, OFF); 
0A406:  MOVLB  9
0A408:  CLRF   x1F
0A40A:  MOVLW  37
0A40C:  MOVWF  x20
0A40E:  MOVLW  7F
0A410:  MOVWF  x21
0A412:  MOVLW  3F
0A414:  MOVWF  x22
0A416:  MOVLW  01
0A418:  MOVWF  x23
0A41A:  CLRF   x24
0A41C:  MOVLB  0
0A41E:  CALL   17D8
....................                Tpulso=0.0; 
0A422:  MOVLB  6
0A424:  CLRF   xA2
0A426:  CLRF   xA1
0A428:  CLRF   xA0
0A42A:  CLRF   x9F
....................                flag_clear2=1; 
0A42C:  BSF    x30.2
....................                flag_ganancia=0; 
0A42E:  CLRF   x29
....................             } 
....................             strcpy(Menus.Letra,"Status:Puerta Abierta"); 
0A430:  MOVLW  08
0A432:  MOVWF  FEA
0A434:  MOVLW  E7
0A436:  MOVWF  FE9
0A438:  MOVFF  FF2,907
0A43C:  BCF    FF2.7
0A43E:  MOVLW  00
0A440:  MOVLB  0
0A442:  CALL   0D8A
0A446:  TBLRD*-
0A448:  TBLRD*+
0A44A:  MOVF   FF5,W
0A44C:  MOVWF  FEE
0A44E:  IORLW  00
0A450:  BNZ   A448
0A452:  MOVLB  9
0A454:  BTFSC  x07.7
0A456:  BSF    FF2.7
....................             displayMenu(Menus.Letra,0,55,2,1); 
0A458:  MOVLW  08
0A45A:  MOVWF  x0F
0A45C:  MOVLW  E7
0A45E:  MOVWF  x0E
0A460:  CLRF   x10
0A462:  MOVLW  37
0A464:  MOVWF  x11
0A466:  MOVLW  02
0A468:  MOVWF  x12
0A46A:  MOVLW  01
0A46C:  MOVWF  x13
0A46E:  MOVLB  0
0A470:  CALL   1A52
....................             Buzz_on; 
0A474:  BSF    F8B.5
0A476:  BCF    F94.5
....................             delay_ms(1000); 
0A478:  MOVLW  04
0A47A:  MOVLB  9
0A47C:  MOVWF  x07
0A47E:  MOVLW  FA
0A480:  MOVWF  x1D
0A482:  MOVLB  0
0A484:  CALL   13A4
0A488:  MOVLB  9
0A48A:  DECFSZ x07,F
0A48C:  BRA    A47E
....................             Buzz_off; 
0A48E:  BCF    F8B.5
0A490:  BCF    F94.5
....................             delay_ms(1000); 
0A492:  MOVLW  04
0A494:  MOVWF  x07
0A496:  MOVLW  FA
0A498:  MOVWF  x1D
0A49A:  MOVLB  0
0A49C:  CALL   13A4
0A4A0:  MOVLB  9
0A4A2:  DECFSZ x07,F
0A4A4:  BRA    A496
....................          } 
....................          else 
0A4A6:  BRA    A62A
0A4A8:  MOVLB  6
....................          { 
....................             if(flag_clear2==1){ 
0A4AA:  BTFSS  x30.2
0A4AC:  BRA    A4D8
....................                glcd_fillScreen(OFF); 
0A4AE:  MOVLB  9
0A4B0:  CLRF   x0E
0A4B2:  MOVLB  0
0A4B4:  CALL   1424
....................                glcd_rect(0, 55, 127, 63, YES, OFF); 
0A4B8:  MOVLB  9
0A4BA:  CLRF   x1F
0A4BC:  MOVLW  37
0A4BE:  MOVWF  x20
0A4C0:  MOVLW  7F
0A4C2:  MOVWF  x21
0A4C4:  MOVLW  3F
0A4C6:  MOVWF  x22
0A4C8:  MOVLW  01
0A4CA:  MOVWF  x23
0A4CC:  CLRF   x24
0A4CE:  MOVLB  0
0A4D0:  CALL   17D8
....................                flag_clear2=0; 
0A4D4:  MOVLB  6
0A4D6:  BCF    x30.2
....................             } 
....................             if(TERM || Alarma==5){ 
0A4D8:  BSF    F92.3
0A4DA:  BTFSC  F80.3
0A4DC:  BRA    A4E6
0A4DE:  MOVF   x42,W
0A4E0:  SUBLW  05
0A4E2:  BTFSS  FD8.2
0A4E4:  BRA    A5FE
....................             Control=0;             
0A4E6:  CLRF   x34
....................             flag_tiempocalentamiento=0; 
0A4E8:  BCF    x30.4
....................             tiempo_esterilizacion=0; 
0A4EA:  CLRF   x40
....................             Resistencia_off; 
0A4EC:  BCF    F8B.0
0A4EE:  BCF    F94.0
....................             Tpulso=0.0; 
0A4F0:  CLRF   xA2
0A4F2:  CLRF   xA1
0A4F4:  CLRF   xA0
0A4F6:  CLRF   x9F
....................             if(flag_clear3==0){ 
0A4F8:  BTFSC  x30.3
0A4FA:  BRA    A52C
....................                glcd_rect(0, 55, 127, 63, YES, OFF); 
0A4FC:  MOVLB  9
0A4FE:  CLRF   x1F
0A500:  MOVLW  37
0A502:  MOVWF  x20
0A504:  MOVLW  7F
0A506:  MOVWF  x21
0A508:  MOVLW  3F
0A50A:  MOVWF  x22
0A50C:  MOVLW  01
0A50E:  MOVWF  x23
0A510:  CLRF   x24
0A512:  MOVLB  0
0A514:  CALL   17D8
....................                tiempo_esterilizacion=0; 
0A518:  MOVLB  6
0A51A:  CLRF   x40
....................                Resistencia_off; 
0A51C:  BCF    F8B.0
0A51E:  BCF    F94.0
....................                Tpulso=0.0; 
0A520:  CLRF   xA2
0A522:  CLRF   xA1
0A524:  CLRF   xA0
0A526:  CLRF   x9F
....................                flag_clear3=1; 
0A528:  BSF    x30.3
....................                flag_ganancia=0; 
0A52A:  CLRF   x29
....................             } 
....................             strcpy(Menus.Letra,"Status:Sobre Temp"); 
0A52C:  MOVLW  08
0A52E:  MOVWF  FEA
0A530:  MOVLW  E7
0A532:  MOVWF  FE9
0A534:  MOVFF  FF2,907
0A538:  BCF    FF2.7
0A53A:  MOVLW  00
0A53C:  MOVLB  0
0A53E:  CALL   0DBE
0A542:  TBLRD*-
0A544:  TBLRD*+
0A546:  MOVF   FF5,W
0A548:  MOVWF  FEE
0A54A:  IORLW  00
0A54C:  BNZ   A544
0A54E:  MOVLB  9
0A550:  BTFSC  x07.7
0A552:  BSF    FF2.7
....................             displayMenu(Menus.Letra,0,55,2,1);  
0A554:  MOVLW  08
0A556:  MOVWF  x0F
0A558:  MOVLW  E7
0A55A:  MOVWF  x0E
0A55C:  CLRF   x10
0A55E:  MOVLW  37
0A560:  MOVWF  x11
0A562:  MOVLW  02
0A564:  MOVWF  x12
0A566:  MOVLW  01
0A568:  MOVWF  x13
0A56A:  MOVLB  0
0A56C:  CALL   1A52
....................             Ganancia=gananciaIn*(Setpoint/150); 
0A570:  MOVFF  6DA,91F
0A574:  MOVFF  6D9,91E
0A578:  MOVFF  6D8,91D
0A57C:  MOVFF  6D7,91C
0A580:  MOVLB  9
0A582:  CLRF   x23
0A584:  CLRF   x22
0A586:  MOVLW  16
0A588:  MOVWF  x21
0A58A:  MOVLW  86
0A58C:  MOVWF  x20
0A58E:  MOVLB  0
0A590:  CALL   1E0A
0A594:  MOVFF  6B6,92B
0A598:  MOVFF  6B5,92A
0A59C:  MOVFF  6B4,929
0A5A0:  MOVFF  6B3,928
0A5A4:  MOVFF  03,92F
0A5A8:  MOVFF  02,92E
0A5AC:  MOVFF  01,92D
0A5B0:  MOVFF  00,92C
0A5B4:  CALL   32D4
0A5B8:  MOVFF  03,6BA
0A5BC:  MOVFF  02,6B9
0A5C0:  MOVFF  01,6B8
0A5C4:  MOVFF  00,6B7
....................             Buzz_on; 
0A5C8:  BSF    F8B.5
0A5CA:  BCF    F94.5
....................             delay_ms(500); 
0A5CC:  MOVLW  02
0A5CE:  MOVLB  9
0A5D0:  MOVWF  x07
0A5D2:  MOVLW  FA
0A5D4:  MOVWF  x1D
0A5D6:  MOVLB  0
0A5D8:  CALL   13A4
0A5DC:  MOVLB  9
0A5DE:  DECFSZ x07,F
0A5E0:  BRA    A5D2
....................             Buzz_off; 
0A5E2:  BCF    F8B.5
0A5E4:  BCF    F94.5
....................             delay_ms(500); 
0A5E6:  MOVLW  02
0A5E8:  MOVWF  x07
0A5EA:  MOVLW  FA
0A5EC:  MOVWF  x1D
0A5EE:  MOVLB  0
0A5F0:  CALL   13A4
0A5F4:  MOVLB  9
0A5F6:  DECFSZ x07,F
0A5F8:  BRA    A5EA
....................          }else{ 
0A5FA:  BRA    A62A
0A5FC:  MOVLB  6
....................             Alarma=0; 
0A5FE:  CLRF   x42
....................             if(flag_clear3==1){ 
0A600:  BTFSS  x30.3
0A602:  BRA    A624
....................                glcd_rect(0, 55, 127, 63, YES, OFF); 
0A604:  MOVLB  9
0A606:  CLRF   x1F
0A608:  MOVLW  37
0A60A:  MOVWF  x20
0A60C:  MOVLW  7F
0A60E:  MOVWF  x21
0A610:  MOVLW  3F
0A612:  MOVWF  x22
0A614:  MOVLW  01
0A616:  MOVWF  x23
0A618:  CLRF   x24
0A61A:  MOVLB  0
0A61C:  CALL   17D8
....................                flag_clear3=0; 
0A620:  MOVLB  6
0A622:  BCF    x30.3
....................             } 
....................             Buzz_off; 
0A624:  BCF    F8B.5
0A626:  BCF    F94.5
0A628:  MOVLB  9
....................          }  
....................          } 
....................       } 
....................       /* 
....................       if(UP)//Si oprime hacia arriba 
....................       { 
....................          glcd_fillscreen(OFF); 
....................                glcd_line(27,0,27,55,ON); 
....................                glcd_line(27,55,127,55,ON); 
....................                 
....................                strcpy(Menus.Letra,"Grafica Rampas");displayMenu(Menus.Letra,0,0,1,1);  
....................                 
....................                glcd_line(24,55-10,27,55-10,ON); 
....................                strcpy(Menus.Letra,"300");displayMenu(Menus.Letra,0,55-15,2,1);  
....................                glcd_line(24,55-20,27,55-20,ON); 
....................                strcpy(Menus.Letra,"600");displayMenu(Menus.Letra,0,55-25,2,1);  
....................                glcd_line(24,55-30,27,55-30,ON); 
....................                strcpy(Menus.Letra,"900");displayMenu(Menus.Letra,0,55-35,2,1); 
....................                glcd_line(24,55-40,27,55-40,ON); 
....................                strcpy(Menus.Letra,"1200");displayMenu(Menus.Letra,0,55-45,2,1);  
....................                 
....................                glcd_line(27+0,55-TempeInicial/30,27+(100/Pasos),55-Temperatura1[ProgramaSeleccionado*Pasos]/30,ON); 
....................                for(i=1;i<Pasos;i++){ 
....................                   glcd_line(27+(i+1*(100/Pasos)),55-Temperatura1[(ProgramaSeleccionado*Pasos)+i]/30,27+(i+2*(100/Pasos)),55-Temperatura1[(ProgramaSeleccionado*Pasos)+i+1]/30,ON); 
....................                } 
....................                glcd_update(); 
....................                for(i=0;i<80;i++) 
....................                { 
....................                   Temperatura=Leer_Sensor(MediaMovil); 
....................                } 
....................             delay_ms(3000); 
....................             glcd_fillscreen(OFF); 
....................       } 
....................       */       
....................       if(DOWN)//Si oprime hacia abajo 
0A62A:  BSF    F96.0
0A62C:  BTFSC  F84.0
0A62E:  BRA    A630
....................       {   
....................       } 
....................        
....................       if(RIGHT)//Si oprime SET 
0A630:  BSF    F96.1
0A632:  BTFSC  F84.1
0A634:  BRA    A684
....................       {   
....................          if(Pausa!=2) 
0A636:  MOVLB  6
0A638:  MOVF   x3C,W
0A63A:  SUBLW  02
0A63C:  BZ    A684
....................          { 
....................             if(Pausa==0) 
0A63E:  MOVF   x3C,F
0A640:  BNZ   A656
....................             { 
....................                delay_ms(200);Pausa=1; 
0A642:  MOVLW  C8
0A644:  MOVLB  9
0A646:  MOVWF  x1D
0A648:  MOVLB  0
0A64A:  CALL   13A4
0A64E:  MOVLW  01
0A650:  MOVLB  6
0A652:  MOVWF  x3C
....................             } 
....................             else 
0A654:  BRA    A666
....................             { 
....................                delay_ms(200);Pausa=0; 
0A656:  MOVLW  C8
0A658:  MOVLB  9
0A65A:  MOVWF  x1D
0A65C:  MOVLB  0
0A65E:  CALL   13A4
0A662:  MOVLB  6
0A664:  CLRF   x3C
....................             } 
....................             glcd_rect(0, 55, 127, 63, YES, OFF); 
0A666:  MOVLB  9
0A668:  CLRF   x1F
0A66A:  MOVLW  37
0A66C:  MOVWF  x20
0A66E:  MOVLW  7F
0A670:  MOVWF  x21
0A672:  MOVLW  3F
0A674:  MOVWF  x22
0A676:  MOVLW  01
0A678:  MOVWF  x23
0A67A:  CLRF   x24
0A67C:  MOVLB  0
0A67E:  CALL   17D8
0A682:  MOVLB  6
....................          } 
....................       } 
....................        
....................          
....................       if(Lectura==1)// Utilizado para visualizar la lectura de la temperatura 
0A684:  MOVLB  6
0A686:  BTFSS  x30.0
0A688:  BRA    AD20
....................       {                  
....................           
....................          Lectura=0; 
0A68A:  BCF    x30.0
....................          Potencia=(100.0/Tciclo)*Tpulso; 
0A68C:  MOVLB  9
0A68E:  CLRF   x1F
0A690:  CLRF   x1E
0A692:  MOVLW  48
0A694:  MOVWF  x1D
0A696:  MOVLW  85
0A698:  MOVWF  x1C
0A69A:  MOVFF  69E,923
0A69E:  MOVFF  69D,922
0A6A2:  MOVFF  69C,921
0A6A6:  MOVFF  69B,920
0A6AA:  MOVLB  0
0A6AC:  CALL   1E0A
0A6B0:  MOVFF  00,907
0A6B4:  MOVFF  01,908
0A6B8:  MOVFF  02,909
0A6BC:  MOVFF  03,90A
0A6C0:  MOVFF  03,92B
0A6C4:  MOVFF  02,92A
0A6C8:  MOVFF  01,929
0A6CC:  MOVFF  00,928
0A6D0:  MOVFF  6A2,92F
0A6D4:  MOVFF  6A1,92E
0A6D8:  MOVFF  6A0,92D
0A6DC:  MOVFF  69F,92C
0A6E0:  CALL   32D4
0A6E4:  MOVFF  03,67E
0A6E8:  MOVFF  02,67D
0A6EC:  MOVFF  01,67C
0A6F0:  MOVFF  00,67B
....................           
....................  //----------------Muestra Temperatura-------------------------- 
....................          if(Temperatura>1250 || Temperatura<0) 
0A6F4:  MOVLB  9
0A6F6:  CLRF   x0A
0A6F8:  MOVLW  40
0A6FA:  MOVWF  x09
0A6FC:  MOVLW  1C
0A6FE:  MOVWF  x08
0A700:  MOVLW  89
0A702:  MOVWF  x07
0A704:  MOVFF  6CE,90E
0A708:  MOVFF  6CD,90D
0A70C:  MOVFF  6CC,90C
0A710:  MOVFF  6CB,90B
0A714:  MOVLB  0
0A716:  CALL   1D90
0A71A:  BC    A73E
0A71C:  MOVFF  6CE,90A
0A720:  MOVFF  6CD,909
0A724:  MOVFF  6CC,908
0A728:  MOVFF  6CB,907
0A72C:  MOVLB  9
0A72E:  CLRF   x0E
0A730:  CLRF   x0D
0A732:  CLRF   x0C
0A734:  CLRF   x0B
0A736:  MOVLB  0
0A738:  CALL   1D90
0A73C:  BNC   A7A8
....................          { 
....................             glcd_rect(15, 29, 69, 45, YES, OFF); 
0A73E:  MOVLW  0F
0A740:  MOVLB  9
0A742:  MOVWF  x1F
0A744:  MOVLW  1D
0A746:  MOVWF  x20
0A748:  MOVLW  45
0A74A:  MOVWF  x21
0A74C:  MOVLW  2D
0A74E:  MOVWF  x22
0A750:  MOVLW  01
0A752:  MOVWF  x23
0A754:  CLRF   x24
0A756:  MOVLB  0
0A758:  CALL   17D8
....................             strcpy(Menus.Letra,"-----");displayMenu(Menus.Letra,15,29,2,2); 
0A75C:  MOVLW  08
0A75E:  MOVWF  FEA
0A760:  MOVLW  E7
0A762:  MOVWF  FE9
0A764:  MOVFF  FF2,907
0A768:  BCF    FF2.7
0A76A:  MOVLW  00
0A76C:  CALL   0DEE
0A770:  TBLRD*-
0A772:  TBLRD*+
0A774:  MOVF   FF5,W
0A776:  MOVWF  FEE
0A778:  IORLW  00
0A77A:  BNZ   A772
0A77C:  MOVLB  9
0A77E:  BTFSC  x07.7
0A780:  BSF    FF2.7
0A782:  MOVLW  08
0A784:  MOVWF  x0F
0A786:  MOVLW  E7
0A788:  MOVWF  x0E
0A78A:  MOVLW  0F
0A78C:  MOVWF  x10
0A78E:  MOVLW  1D
0A790:  MOVWF  x11
0A792:  MOVLW  02
0A794:  MOVWF  x12
0A796:  MOVWF  x13
0A798:  MOVLB  0
0A79A:  CALL   1A52
....................             Desconectado=1; 
0A79E:  MOVLB  6
0A7A0:  BSF    x22.2
....................             Control=0; 
0A7A2:  CLRF   x34
....................          } 
....................          else 
0A7A4:  BRA    A82E
0A7A6:  MOVLB  0
....................          { 
....................             if(Desconectado==1) 
0A7A8:  MOVLB  6
0A7AA:  BTFSS  x22.2
0A7AC:  BRA    A7F2
....................             { 
....................                Desconectado=0; 
0A7AE:  BCF    x22.2
....................                delay_ms(2000); 
0A7B0:  MOVLW  08
0A7B2:  MOVLB  9
0A7B4:  MOVWF  x07
0A7B6:  MOVLW  FA
0A7B8:  MOVWF  x1D
0A7BA:  MOVLB  0
0A7BC:  CALL   13A4
0A7C0:  MOVLB  9
0A7C2:  DECFSZ x07,F
0A7C4:  BRA    A7B6
....................                for(i=0;i<80;i++) 
0A7C6:  MOVLB  6
0A7C8:  CLRF   x3A
0A7CA:  MOVF   x3A,W
0A7CC:  SUBLW  4F
0A7CE:  BNC   A7F2
....................                { 
....................                   Temperatura=Leer_Sensor(80); 
0A7D0:  MOVLW  50
0A7D2:  MOVLB  9
0A7D4:  MOVWF  x07
0A7D6:  MOVLB  0
0A7D8:  CALL   33CA
0A7DC:  MOVFF  03,6CE
0A7E0:  MOVFF  02,6CD
0A7E4:  MOVFF  01,6CC
0A7E8:  MOVFF  00,6CB
....................                } 
0A7EC:  MOVLB  6
0A7EE:  INCF   x3A,F
0A7F0:  BRA    A7CA
....................             } 
....................              
....................                displayT(Temperatura,15,29,2); 
0A7F2:  MOVFF  6CE,916
0A7F6:  MOVFF  6CD,915
0A7FA:  MOVFF  6CC,914
0A7FE:  MOVFF  6CB,913
0A802:  MOVLB  0
0A804:  CALL   37CA
0A808:  MOVFF  02,908
0A80C:  MOVFF  01,907
0A810:  MOVFF  02,90A
0A814:  MOVFF  01,909
0A818:  MOVLW  0F
0A81A:  MOVLB  9
0A81C:  MOVWF  x0B
0A81E:  MOVLW  1D
0A820:  MOVWF  x0C
0A822:  MOVLW  02
0A824:  MOVWF  x0D
0A826:  MOVLB  0
0A828:  GOTO   6BD0
0A82C:  MOVLB  6
....................              
....................             //displayTemperatura(Temperatura,15,29,0,2); 
....................          } 
....................  
....................          //displayT(Temperatura,15,29,2); 
....................             Dibuja=0; 
0A82E:  BCF    x30.7
....................             glcd_circle(74,30,2,NO,ON); 
0A830:  MOVLW  4A
0A832:  MOVLB  9
0A834:  MOVWF  x1F
0A836:  MOVLW  1E
0A838:  MOVWF  x20
0A83A:  MOVLW  02
0A83C:  MOVWF  x21
0A83E:  CLRF   x22
0A840:  MOVLW  01
0A842:  MOVWF  x23
0A844:  MOVLB  0
0A846:  CALL   4572
....................             strcpy(Menus.Letra,"C");displayMenu(Menus.Letra,75,30,2,2); 
0A84A:  MOVLW  08
0A84C:  MOVWF  FEA
0A84E:  MOVLW  E7
0A850:  MOVWF  FE9
0A852:  MOVFF  FF2,907
0A856:  BCF    FF2.7
0A858:  MOVLW  00
0A85A:  CALL   06D2
0A85E:  TBLRD*-
0A860:  TBLRD*+
0A862:  MOVF   FF5,W
0A864:  MOVWF  FEE
0A866:  IORLW  00
0A868:  BNZ   A860
0A86A:  MOVLB  9
0A86C:  BTFSC  x07.7
0A86E:  BSF    FF2.7
0A870:  MOVLW  08
0A872:  MOVWF  x0F
0A874:  MOVLW  E7
0A876:  MOVWF  x0E
0A878:  MOVLW  4B
0A87A:  MOVWF  x10
0A87C:  MOVLW  1E
0A87E:  MOVWF  x11
0A880:  MOVLW  02
0A882:  MOVWF  x12
0A884:  MOVWF  x13
0A886:  MOVLB  0
0A888:  CALL   1A52
....................              
....................             displayTemperatura(Setpoint,30,45,0,1); 
0A88C:  MOVFF  6DA,916
0A890:  MOVFF  6D9,915
0A894:  MOVFF  6D8,914
0A898:  MOVFF  6D7,913
0A89C:  CALL   37CA
0A8A0:  MOVFF  02,908
0A8A4:  MOVFF  01,907
0A8A8:  MOVFF  02,90D
0A8AC:  MOVFF  01,90C
0A8B0:  MOVLW  1E
0A8B2:  MOVLB  9
0A8B4:  MOVWF  x0E
0A8B6:  MOVLW  2D
0A8B8:  MOVWF  x0F
0A8BA:  CLRF   x10
0A8BC:  MOVLW  01
0A8BE:  MOVWF  x11
0A8C0:  MOVLB  0
0A8C2:  CALL   43BA
....................             glcd_circle(60,47,1,NO,ON); 
0A8C6:  MOVLW  3C
0A8C8:  MOVLB  9
0A8CA:  MOVWF  x1F
0A8CC:  MOVLW  2F
0A8CE:  MOVWF  x20
0A8D0:  MOVLW  01
0A8D2:  MOVWF  x21
0A8D4:  CLRF   x22
0A8D6:  MOVWF  x23
0A8D8:  MOVLB  0
0A8DA:  CALL   4572
....................             strcpy(Menus.Letra,"C");displayMenu(Menus.Letra,63,45,2,1); 
0A8DE:  MOVLW  08
0A8E0:  MOVWF  FEA
0A8E2:  MOVLW  E7
0A8E4:  MOVWF  FE9
0A8E6:  MOVFF  FF2,907
0A8EA:  BCF    FF2.7
0A8EC:  MOVLW  00
0A8EE:  CALL   06D2
0A8F2:  TBLRD*-
0A8F4:  TBLRD*+
0A8F6:  MOVF   FF5,W
0A8F8:  MOVWF  FEE
0A8FA:  IORLW  00
0A8FC:  BNZ   A8F4
0A8FE:  MOVLB  9
0A900:  BTFSC  x07.7
0A902:  BSF    FF2.7
0A904:  MOVLW  08
0A906:  MOVWF  x0F
0A908:  MOVLW  E7
0A90A:  MOVWF  x0E
0A90C:  MOVLW  3F
0A90E:  MOVWF  x10
0A910:  MOVLW  2D
0A912:  MOVWF  x11
0A914:  MOVLW  02
0A916:  MOVWF  x12
0A918:  MOVLW  01
0A91A:  MOVWF  x13
0A91C:  MOVLB  0
0A91E:  CALL   1A52
....................             strcpy(Menus.Letra,"Temp:");displayMenu(Menus.Letra,0,45,2,1);  
0A922:  MOVLW  08
0A924:  MOVWF  FEA
0A926:  MOVLW  E7
0A928:  MOVWF  FE9
0A92A:  MOVFF  FF2,907
0A92E:  BCF    FF2.7
0A930:  MOVLW  00
0A932:  CALL   0E12
0A936:  TBLRD*-
0A938:  TBLRD*+
0A93A:  MOVF   FF5,W
0A93C:  MOVWF  FEE
0A93E:  IORLW  00
0A940:  BNZ   A938
0A942:  MOVLB  9
0A944:  BTFSC  x07.7
0A946:  BSF    FF2.7
0A948:  MOVLW  08
0A94A:  MOVWF  x0F
0A94C:  MOVLW  E7
0A94E:  MOVWF  x0E
0A950:  CLRF   x10
0A952:  MOVLW  2D
0A954:  MOVWF  x11
0A956:  MOVLW  02
0A958:  MOVWF  x12
0A95A:  MOVLW  01
0A95C:  MOVWF  x13
0A95E:  MOVLB  0
0A960:  CALL   1A52
....................              
....................             strcpy(Menus.Letra,"Power:");displayMenu(Menus.Letra,91,32,2,1); 
0A964:  MOVLW  08
0A966:  MOVWF  FEA
0A968:  MOVLW  E7
0A96A:  MOVWF  FE9
0A96C:  MOVFF  FF2,907
0A970:  BCF    FF2.7
0A972:  MOVLW  00
0A974:  CALL   0E36
0A978:  TBLRD*-
0A97A:  TBLRD*+
0A97C:  MOVF   FF5,W
0A97E:  MOVWF  FEE
0A980:  IORLW  00
0A982:  BNZ   A97A
0A984:  MOVLB  9
0A986:  BTFSC  x07.7
0A988:  BSF    FF2.7
0A98A:  MOVLW  08
0A98C:  MOVWF  x0F
0A98E:  MOVLW  E7
0A990:  MOVWF  x0E
0A992:  MOVLW  5B
0A994:  MOVWF  x10
0A996:  MOVLW  20
0A998:  MOVWF  x11
0A99A:  MOVLW  02
0A99C:  MOVWF  x12
0A99E:  MOVLW  01
0A9A0:  MOVWF  x13
0A9A2:  MOVLB  0
0A9A4:  CALL   1A52
....................             displayTiempo(Potencia,97,42,3,1);strcpy(Menus.Letra,"%");displayMenu(Menus.Letra,115,42,2,1); 
0A9A8:  MOVFF  67E,916
0A9AC:  MOVFF  67D,915
0A9B0:  MOVFF  67C,914
0A9B4:  MOVFF  67B,913
0A9B8:  CALL   37CA
0A9BC:  MOVFF  01,907
0A9C0:  MOVFF  01,90A
0A9C4:  MOVLW  61
0A9C6:  MOVLB  9
0A9C8:  MOVWF  x0B
0A9CA:  MOVLW  2A
0A9CC:  MOVWF  x0C
0A9CE:  MOVLW  03
0A9D0:  MOVWF  x0D
0A9D2:  MOVLW  01
0A9D4:  MOVWF  x0E
0A9D6:  MOVLB  0
0A9D8:  CALL   3FCC
0A9DC:  MOVLW  08
0A9DE:  MOVWF  FEA
0A9E0:  MOVLW  E7
0A9E2:  MOVWF  FE9
0A9E4:  MOVFF  FF2,907
0A9E8:  BCF    FF2.7
0A9EA:  MOVLW  00
0A9EC:  CALL   0E5C
0A9F0:  TBLRD*-
0A9F2:  TBLRD*+
0A9F4:  MOVF   FF5,W
0A9F6:  MOVWF  FEE
0A9F8:  IORLW  00
0A9FA:  BNZ   A9F2
0A9FC:  MOVLB  9
0A9FE:  BTFSC  x07.7
0AA00:  BSF    FF2.7
0AA02:  MOVLW  08
0AA04:  MOVWF  x0F
0AA06:  MOVLW  E7
0AA08:  MOVWF  x0E
0AA0A:  MOVLW  73
0AA0C:  MOVWF  x10
0AA0E:  MOVLW  2A
0AA10:  MOVWF  x11
0AA12:  MOVLW  02
0AA14:  MOVWF  x12
0AA16:  MOVLW  01
0AA18:  MOVWF  x13
0AA1A:  MOVLB  0
0AA1C:  CALL   1A52
....................             strcpy(Menus.Letra,"Segm.");displayMenu(Menus.Letra,95,10,2,1); 
0AA20:  MOVLW  08
0AA22:  MOVWF  FEA
0AA24:  MOVLW  E7
0AA26:  MOVWF  FE9
0AA28:  MOVFF  FF2,907
0AA2C:  BCF    FF2.7
0AA2E:  MOVLW  00
0AA30:  CALL   0E7C
0AA34:  TBLRD*-
0AA36:  TBLRD*+
0AA38:  MOVF   FF5,W
0AA3A:  MOVWF  FEE
0AA3C:  IORLW  00
0AA3E:  BNZ   AA36
0AA40:  MOVLB  9
0AA42:  BTFSC  x07.7
0AA44:  BSF    FF2.7
0AA46:  MOVLW  08
0AA48:  MOVWF  x0F
0AA4A:  MOVLW  E7
0AA4C:  MOVWF  x0E
0AA4E:  MOVLW  5F
0AA50:  MOVWF  x10
0AA52:  MOVLW  0A
0AA54:  MOVWF  x11
0AA56:  MOVLW  02
0AA58:  MOVWF  x12
0AA5A:  MOVLW  01
0AA5C:  MOVWF  x13
0AA5E:  MOVLB  0
0AA60:  CALL   1A52
....................             displayTiempo(Segmento,96,20,3,1); 
0AA64:  MOVFF  62E,90A
0AA68:  MOVLW  60
0AA6A:  MOVLB  9
0AA6C:  MOVWF  x0B
0AA6E:  MOVLW  14
0AA70:  MOVWF  x0C
0AA72:  MOVLW  03
0AA74:  MOVWF  x0D
0AA76:  MOVLW  01
0AA78:  MOVWF  x0E
0AA7A:  MOVLB  0
0AA7C:  CALL   3FCC
....................             glcd_rect(90, 0, 127, 54, NO, ON); 
0AA80:  MOVLW  5A
0AA82:  MOVLB  9
0AA84:  MOVWF  x1F
0AA86:  CLRF   x20
0AA88:  MOVLW  7F
0AA8A:  MOVWF  x21
0AA8C:  MOVLW  36
0AA8E:  MOVWF  x22
0AA90:  CLRF   x23
0AA92:  MOVLW  01
0AA94:  MOVWF  x24
0AA96:  MOVLB  0
0AA98:  CALL   17D8
....................              
....................          //displayTiempo(Tpulsomin*10,97,42,3,1);strcpy(Menus.Letra,"%");displayMenu(Menus.Letra,115,42,2,1); 
....................           
....................          if(flag_display==1){ 
0AA9C:  MOVLB  6
0AA9E:  BTFSS  x30.5
0AAA0:  BRA    AB16
....................             displayTiempo(penMufla,97,1,3,1); 
0AAA2:  MOVFF  6FE,916
0AAA6:  MOVFF  6FD,915
0AAAA:  MOVFF  6FC,914
0AAAE:  MOVFF  6FB,913
0AAB2:  MOVLB  0
0AAB4:  CALL   37CA
0AAB8:  MOVFF  01,907
0AABC:  MOVFF  01,90A
0AAC0:  MOVLW  61
0AAC2:  MOVLB  9
0AAC4:  MOVWF  x0B
0AAC6:  MOVLW  01
0AAC8:  MOVWF  x0C
0AACA:  MOVLW  03
0AACC:  MOVWF  x0D
0AACE:  MOVLW  01
0AAD0:  MOVWF  x0E
0AAD2:  MOVLB  0
0AAD4:  CALL   3FCC
....................             //displayTemperatura(Prom,97,13,0,1); 
....................             //displayFloat(Setpoint-TempeInicial,97,13,1); 
....................             displayFloat(sensores(0),97,10,1);} 
0AAD8:  MOVLB  9
0AADA:  CLRF   x18
0AADC:  MOVLB  0
0AADE:  CALL   325A
0AAE2:  MOVFF  00,907
0AAE6:  MOVFF  01,908
0AAEA:  MOVFF  02,909
0AAEE:  MOVFF  03,90A
0AAF2:  MOVFF  03,90E
0AAF6:  MOVFF  02,90D
0AAFA:  MOVFF  01,90C
0AAFE:  MOVFF  00,90B
0AB02:  MOVLW  61
0AB04:  MOVLB  9
0AB06:  MOVWF  x0F
0AB08:  MOVLW  0A
0AB0A:  MOVWF  x10
0AB0C:  MOVLW  01
0AB0E:  MOVWF  x11
0AB10:  MOVLB  0
0AB12:  CALL   6EBA
....................   //       else{ 
.................... //            glcd_rect(60, 46, 88, 52, YES, OFF); 
.................... //            glcd_rect(97, 13, 88, 52, YES, OFF); 
....................          //} 
....................           
....................          // Muestra Valor de esterilizacion Programado. 
....................             displayTiempo(Testerilizacion[3],20,2,0,2);displayTiempo(Testerilizacion[2],33,2,0,2); 
0AB16:  MOVFF  68A,90A
0AB1A:  MOVLW  14
0AB1C:  MOVLB  9
0AB1E:  MOVWF  x0B
0AB20:  MOVLW  02
0AB22:  MOVWF  x0C
0AB24:  CLRF   x0D
0AB26:  MOVWF  x0E
0AB28:  MOVLB  0
0AB2A:  CALL   3FCC
0AB2E:  MOVFF  689,90A
0AB32:  MOVLW  21
0AB34:  MOVLB  9
0AB36:  MOVWF  x0B
0AB38:  MOVLW  02
0AB3A:  MOVWF  x0C
0AB3C:  CLRF   x0D
0AB3E:  MOVWF  x0E
0AB40:  MOVLB  0
0AB42:  CALL   3FCC
....................             strcpy(Menus.Letra,":");displayMenu(Menus.Letra,46,2,2,2);  
0AB46:  MOVLW  08
0AB48:  MOVWF  FEA
0AB4A:  MOVLW  E7
0AB4C:  MOVWF  FE9
0AB4E:  MOVFF  FF2,907
0AB52:  BCF    FF2.7
0AB54:  MOVLW  00
0AB56:  CALL   0EA0
0AB5A:  TBLRD*-
0AB5C:  TBLRD*+
0AB5E:  MOVF   FF5,W
0AB60:  MOVWF  FEE
0AB62:  IORLW  00
0AB64:  BNZ   AB5C
0AB66:  MOVLB  9
0AB68:  BTFSC  x07.7
0AB6A:  BSF    FF2.7
0AB6C:  MOVLW  08
0AB6E:  MOVWF  x0F
0AB70:  MOVLW  E7
0AB72:  MOVWF  x0E
0AB74:  MOVLW  2E
0AB76:  MOVWF  x10
0AB78:  MOVLW  02
0AB7A:  MOVWF  x11
0AB7C:  MOVWF  x12
0AB7E:  MOVWF  x13
0AB80:  MOVLB  0
0AB82:  CALL   1A52
....................             displayTiempo(Testerilizacion[1],55,2,0,2);displayTiempo(Testerilizacion[0],68,2,0,2); 
0AB86:  MOVFF  688,90A
0AB8A:  MOVLW  37
0AB8C:  MOVLB  9
0AB8E:  MOVWF  x0B
0AB90:  MOVLW  02
0AB92:  MOVWF  x0C
0AB94:  CLRF   x0D
0AB96:  MOVWF  x0E
0AB98:  MOVLB  0
0AB9A:  CALL   3FCC
0AB9E:  MOVFF  687,90A
0ABA2:  MOVLW  44
0ABA4:  MOVLB  9
0ABA6:  MOVWF  x0B
0ABA8:  MOVLW  02
0ABAA:  MOVWF  x0C
0ABAC:  CLRF   x0D
0ABAE:  MOVWF  x0E
0ABB0:  MOVLB  0
0ABB2:  CALL   3FCC
....................              
....................             // Muestra Valor de esterilizacion actual. 
....................             strcpy(Menus.Letra,"Time:");displayMenu(Menus.Letra,0,18,2,1);  
0ABB6:  MOVLW  08
0ABB8:  MOVWF  FEA
0ABBA:  MOVLW  E7
0ABBC:  MOVWF  FE9
0ABBE:  MOVFF  FF2,907
0ABC2:  BCF    FF2.7
0ABC4:  MOVLW  00
0ABC6:  CALL   0EC0
0ABCA:  TBLRD*-
0ABCC:  TBLRD*+
0ABCE:  MOVF   FF5,W
0ABD0:  MOVWF  FEE
0ABD2:  IORLW  00
0ABD4:  BNZ   ABCC
0ABD6:  MOVLB  9
0ABD8:  BTFSC  x07.7
0ABDA:  BSF    FF2.7
0ABDC:  MOVLW  08
0ABDE:  MOVWF  x0F
0ABE0:  MOVLW  E7
0ABE2:  MOVWF  x0E
0ABE4:  CLRF   x10
0ABE6:  MOVLW  12
0ABE8:  MOVWF  x11
0ABEA:  MOVLW  02
0ABEC:  MOVWF  x12
0ABEE:  MOVLW  01
0ABF0:  MOVWF  x13
0ABF2:  MOVLB  0
0ABF4:  CALL   1A52
....................             //displayTiempos(Horas1[Segmento],30,18,2,1);//displayTiempo(Testerilizacionp[2],36,18,0,1); 
....................             displayTiempo(Testerilizacionp[3],30,18,0,1);displayTiempo(Testerilizacionp[2],36,18,0,1); 
0ABF8:  MOVFF  68E,90A
0ABFC:  MOVLW  1E
0ABFE:  MOVLB  9
0AC00:  MOVWF  x0B
0AC02:  MOVLW  12
0AC04:  MOVWF  x0C
0AC06:  CLRF   x0D
0AC08:  MOVLW  01
0AC0A:  MOVWF  x0E
0AC0C:  MOVLB  0
0AC0E:  CALL   3FCC
0AC12:  MOVFF  68D,90A
0AC16:  MOVLW  24
0AC18:  MOVLB  9
0AC1A:  MOVWF  x0B
0AC1C:  MOVLW  12
0AC1E:  MOVWF  x0C
0AC20:  CLRF   x0D
0AC22:  MOVLW  01
0AC24:  MOVWF  x0E
0AC26:  MOVLB  0
0AC28:  CALL   3FCC
....................             strcpy(Menus.Letra,":");displayMenu(Menus.Letra,42,18,2,1);  
0AC2C:  MOVLW  08
0AC2E:  MOVWF  FEA
0AC30:  MOVLW  E7
0AC32:  MOVWF  FE9
0AC34:  MOVFF  FF2,907
0AC38:  BCF    FF2.7
0AC3A:  MOVLW  00
0AC3C:  CALL   0EA0
0AC40:  TBLRD*-
0AC42:  TBLRD*+
0AC44:  MOVF   FF5,W
0AC46:  MOVWF  FEE
0AC48:  IORLW  00
0AC4A:  BNZ   AC42
0AC4C:  MOVLB  9
0AC4E:  BTFSC  x07.7
0AC50:  BSF    FF2.7
0AC52:  MOVLW  08
0AC54:  MOVWF  x0F
0AC56:  MOVLW  E7
0AC58:  MOVWF  x0E
0AC5A:  MOVLW  2A
0AC5C:  MOVWF  x10
0AC5E:  MOVLW  12
0AC60:  MOVWF  x11
0AC62:  MOVLW  02
0AC64:  MOVWF  x12
0AC66:  MOVLW  01
0AC68:  MOVWF  x13
0AC6A:  MOVLB  0
0AC6C:  CALL   1A52
....................             //displayTiempos(Minutos1[Segmento],48,18,2,1);//displayTiempo(Testerilizacionp[0],54,18,0,1); 
....................             displayTiempo(Testerilizacionp[1],48,18,0,1);displayTiempo(Testerilizacionp[0],54,18,0,1); 
0AC70:  MOVFF  68C,90A
0AC74:  MOVLW  30
0AC76:  MOVLB  9
0AC78:  MOVWF  x0B
0AC7A:  MOVLW  12
0AC7C:  MOVWF  x0C
0AC7E:  CLRF   x0D
0AC80:  MOVLW  01
0AC82:  MOVWF  x0E
0AC84:  MOVLB  0
0AC86:  CALL   3FCC
0AC8A:  MOVFF  68B,90A
0AC8E:  MOVLW  36
0AC90:  MOVLB  9
0AC92:  MOVWF  x0B
0AC94:  MOVLW  12
0AC96:  MOVWF  x0C
0AC98:  CLRF   x0D
0AC9A:  MOVLW  01
0AC9C:  MOVWF  x0E
0AC9E:  MOVLB  0
0ACA0:  CALL   3FCC
....................             strcpy(Menus.Letra,"(H:M)");displayMenu(Menus.Letra,60,18,2,1);  
0ACA4:  MOVLW  08
0ACA6:  MOVWF  FEA
0ACA8:  MOVLW  E7
0ACAA:  MOVWF  FE9
0ACAC:  MOVFF  FF2,907
0ACB0:  BCF    FF2.7
0ACB2:  MOVLW  00
0ACB4:  CALL   0EE4
0ACB8:  TBLRD*-
0ACBA:  TBLRD*+
0ACBC:  MOVF   FF5,W
0ACBE:  MOVWF  FEE
0ACC0:  IORLW  00
0ACC2:  BNZ   ACBA
0ACC4:  MOVLB  9
0ACC6:  BTFSC  x07.7
0ACC8:  BSF    FF2.7
0ACCA:  MOVLW  08
0ACCC:  MOVWF  x0F
0ACCE:  MOVLW  E7
0ACD0:  MOVWF  x0E
0ACD2:  MOVLW  3C
0ACD4:  MOVWF  x10
0ACD6:  MOVLW  12
0ACD8:  MOVWF  x11
0ACDA:  MOVLW  02
0ACDC:  MOVWF  x12
0ACDE:  MOVLW  01
0ACE0:  MOVWF  x13
0ACE2:  MOVLB  0
0ACE4:  CALL   1A52
....................           
....................             glcd_rect(0, 0, 89, 27, NO, ON); 
0ACE8:  MOVLB  9
0ACEA:  CLRF   x1F
0ACEC:  CLRF   x20
0ACEE:  MOVLW  59
0ACF0:  MOVWF  x21
0ACF2:  MOVLW  1B
0ACF4:  MOVWF  x22
0ACF6:  CLRF   x23
0ACF8:  MOVLW  01
0ACFA:  MOVWF  x24
0ACFC:  MOVLB  0
0ACFE:  CALL   17D8
....................             glcd_rect(0, 27, 89, 54, NO, ON); 
0AD02:  MOVLB  9
0AD04:  CLRF   x1F
0AD06:  MOVLW  1B
0AD08:  MOVWF  x20
0AD0A:  MOVLW  59
0AD0C:  MOVWF  x21
0AD0E:  MOVLW  36
0AD10:  MOVWF  x22
0AD12:  CLRF   x23
0AD14:  MOVLW  01
0AD16:  MOVWF  x24
0AD18:  MOVLB  0
0AD1A:  CALL   17D8
0AD1E:  MOVLB  6
....................       }  
....................       
....................       // Si cumplio el tiempo de esterilizacin, Muestre ciclo finalizado y detenga control de temperatura. 
....................       if((Testerilizacion[0]>=Testerilizacionp[0])&&(Testerilizacion[1]>=Testerilizacionp[1])&&(Testerilizacion[2]>=Testerilizacionp[2])&&(Testerilizacion[3]>=Testerilizacionp[3]) && Pausa<3) 
0AD20:  MOVF   x8B,W
0AD22:  XORLW  80
0AD24:  MOVWF  00
0AD26:  MOVF   x87,W
0AD28:  XORLW  80
0AD2A:  SUBWF  00,W
0AD2C:  BZ    AD32
0AD2E:  BTFSC  FD8.0
0AD30:  BRA    AE34
0AD32:  MOVF   x8C,W
0AD34:  XORLW  80
0AD36:  MOVWF  00
0AD38:  MOVF   x88,W
0AD3A:  XORLW  80
0AD3C:  SUBWF  00,W
0AD3E:  BZ    AD44
0AD40:  BTFSC  FD8.0
0AD42:  BRA    AE34
0AD44:  MOVF   x8D,W
0AD46:  XORLW  80
0AD48:  MOVWF  00
0AD4A:  MOVF   x89,W
0AD4C:  XORLW  80
0AD4E:  SUBWF  00,W
0AD50:  BZ    AD54
0AD52:  BC    AE34
0AD54:  MOVF   x8E,W
0AD56:  XORLW  80
0AD58:  MOVWF  00
0AD5A:  MOVF   x8A,W
0AD5C:  XORLW  80
0AD5E:  SUBWF  00,W
0AD60:  BZ    AD64
0AD62:  BC    AE34
0AD64:  MOVF   x3C,W
0AD66:  SUBLW  02
0AD68:  BNC   AE34
....................       { 
....................          flag_calcula=0; 
0AD6A:  BCF    x30.1
....................          if(Segmento<Segmentos){ 
0AD6C:  MOVF   x2D,W
0AD6E:  SUBWF  x2E,W
0AD70:  BC    AD7E
....................             Segmento++; 
0AD72:  INCF   x2E,F
....................             Testerilizacion[0]=0; 
0AD74:  CLRF   x87
....................             Testerilizacion[1]=0; 
0AD76:  CLRF   x88
....................             Testerilizacion[2]=0; 
0AD78:  CLRF   x89
....................             Testerilizacion[3]=0; 
0AD7A:  CLRF   x8A
....................          } 
....................          else{ 
0AD7C:  BRA    AD82
....................             Pausa=3; 
0AD7E:  MOVLW  03
0AD80:  MOVWF  x3C
....................          } 
....................          glcd_fillScreen(OFF); 
0AD82:  MOVLB  9
0AD84:  CLRF   x0E
0AD86:  MOVLB  0
0AD88:  CALL   1424
....................          Buzz_on; 
0AD8C:  BSF    F8B.5
0AD8E:  BCF    F94.5
....................          delay_ms(1000); 
0AD90:  MOVLW  04
0AD92:  MOVLB  9
0AD94:  MOVWF  x07
0AD96:  MOVLW  FA
0AD98:  MOVWF  x1D
0AD9A:  MOVLB  0
0AD9C:  CALL   13A4
0ADA0:  MOVLB  9
0ADA2:  DECFSZ x07,F
0ADA4:  BRA    AD96
....................          Buzz_off; 
0ADA6:  BCF    F8B.5
0ADA8:  BCF    F94.5
....................          delay_ms(1000); 
0ADAA:  MOVLW  04
0ADAC:  MOVWF  x07
0ADAE:  MOVLW  FA
0ADB0:  MOVWF  x1D
0ADB2:  MOVLB  0
0ADB4:  CALL   13A4
0ADB8:  MOVLB  9
0ADBA:  DECFSZ x07,F
0ADBC:  BRA    ADAE
....................          glcd_init(ON); 
0ADBE:  MOVLW  01
0ADC0:  MOVWF  x07
0ADC2:  MOVLB  0
0ADC4:  CALL   1536
....................          strcpy(Menus.Letra,"Status:Cambio Seg."); 
0ADC8:  MOVLW  08
0ADCA:  MOVWF  FEA
0ADCC:  MOVLW  E7
0ADCE:  MOVWF  FE9
0ADD0:  MOVFF  FF2,907
0ADD4:  BCF    FF2.7
0ADD6:  MOVLW  00
0ADD8:  CALL   0F08
0ADDC:  TBLRD*-
0ADDE:  TBLRD*+
0ADE0:  MOVF   FF5,W
0ADE2:  MOVWF  FEE
0ADE4:  IORLW  00
0ADE6:  BNZ   ADDE
0ADE8:  MOVLB  9
0ADEA:  BTFSC  x07.7
0ADEC:  BSF    FF2.7
....................          displayMenu(Menus.Letra,0,55,2,1);          
0ADEE:  MOVLW  08
0ADF0:  MOVWF  x0F
0ADF2:  MOVLW  E7
0ADF4:  MOVWF  x0E
0ADF6:  CLRF   x10
0ADF8:  MOVLW  37
0ADFA:  MOVWF  x11
0ADFC:  MOVLW  02
0ADFE:  MOVWF  x12
0AE00:  MOVLW  01
0AE02:  MOVWF  x13
0AE04:  MOVLB  0
0AE06:  CALL   1A52
....................          delay_ms(500); 
0AE0A:  MOVLW  02
0AE0C:  MOVLB  9
0AE0E:  MOVWF  x07
0AE10:  MOVLW  FA
0AE12:  MOVWF  x1D
0AE14:  MOVLB  0
0AE16:  CALL   13A4
0AE1A:  MOVLB  9
0AE1C:  DECFSZ x07,F
0AE1E:  BRA    AE10
....................           
....................          if(Pausa==3){ 
0AE20:  MOVLB  6
0AE22:  MOVF   x3C,W
0AE24:  SUBLW  03
0AE26:  BNZ   AE34
....................             glcd_fillScreen(OFF); 
0AE28:  MOVLB  9
0AE2A:  CLRF   x0E
0AE2C:  MOVLB  0
0AE2E:  CALL   1424
0AE32:  MOVLB  6
....................          } 
....................       }  
....................        
....................       if(tinicio>=60) 
0AE34:  MOVF   x4E,F
0AE36:  BNZ   AE3E
0AE38:  MOVF   x4D,W
0AE3A:  SUBLW  3B
0AE3C:  BC    AE7A
....................       { 
....................          tinicio=0; 
0AE3E:  CLRF   x4E
0AE40:  CLRF   x4D
....................          Testerilizacion[0]++; 
0AE42:  INCF   x87,F
....................          if(Testerilizacion[0]>9) 
0AE44:  BTFSC  x87.7
0AE46:  BRA    AE52
0AE48:  MOVF   x87,W
0AE4A:  SUBLW  09
0AE4C:  BC    AE52
....................          { 
....................             Testerilizacion[0]=0; 
0AE4E:  CLRF   x87
....................             Testerilizacion[1]++; 
0AE50:  INCF   x88,F
....................          } 
....................          if(Testerilizacion[1]>5) 
0AE52:  BTFSC  x88.7
0AE54:  BRA    AE60
0AE56:  MOVF   x88,W
0AE58:  SUBLW  05
0AE5A:  BC    AE60
....................          { 
....................             Testerilizacion[1]=0; 
0AE5C:  CLRF   x88
....................             Testerilizacion[2]++; 
0AE5E:  INCF   x89,F
....................          } 
....................          if(Testerilizacion[2]>9) 
0AE60:  BTFSC  x89.7
0AE62:  BRA    AE6E
0AE64:  MOVF   x89,W
0AE66:  SUBLW  09
0AE68:  BC    AE6E
....................          { 
....................             Testerilizacion[2]=0; 
0AE6A:  CLRF   x89
....................             Testerilizacion[3]++; 
0AE6C:  INCF   x8A,F
....................          } 
....................          if(Testerilizacion[3]>9) 
0AE6E:  BTFSC  x8A.7
0AE70:  BRA    AE7A
0AE72:  MOVF   x8A,W
0AE74:  SUBLW  09
0AE76:  BC    AE7A
....................          { 
....................             Testerilizacion[3]=0; 
0AE78:  CLRF   x8A
....................          } 
....................       } 
....................        
....................       if(LEFT)//Si oprime boton de Toma. 
0AE7A:  BSF    F96.2
0AE7C:  BTFSC  F84.2
0AE7E:  BRA    AEBE
....................       { 
....................          if(Pausa<3){ 
0AE80:  MOVF   x3C,W
0AE82:  SUBLW  02
0AE84:  BNC   AEBE
....................             if(Pausa!=2) 
0AE86:  MOVF   x3C,W
0AE88:  SUBLW  02
0AE8A:  BZ    AEBE
....................             { 
....................                delay_ms(500);Menu=30;glcd_fillscreen(OFF);Opcion=1;visual=1;Pausa=1;Menu=1; 
0AE8C:  MOVLW  02
0AE8E:  MOVLB  9
0AE90:  MOVWF  x07
0AE92:  MOVLW  FA
0AE94:  MOVWF  x1D
0AE96:  MOVLB  0
0AE98:  CALL   13A4
0AE9C:  MOVLB  9
0AE9E:  DECFSZ x07,F
0AEA0:  BRA    AE92
0AEA2:  MOVLW  1E
0AEA4:  MOVLB  6
0AEA6:  MOVWF  x38
0AEA8:  MOVLB  9
0AEAA:  CLRF   x0E
0AEAC:  MOVLB  0
0AEAE:  CALL   1424
0AEB2:  MOVLW  01
0AEB4:  MOVLB  6
0AEB6:  MOVWF  x3F
0AEB8:  BSF    x22.7
0AEBA:  MOVWF  x3C
0AEBC:  MOVWF  x38
....................             } 
....................          } 
....................       } 
....................        
....................       if(Pausa==3 && !DOOR){          
0AEBE:  MOVF   x3C,W
0AEC0:  SUBLW  03
0AEC2:  BTFSS  FD8.2
0AEC4:  BRA    B094
0AEC6:  BSF    F92.4
0AEC8:  BTFSC  F80.4
0AECA:  BRA    B094
....................          //strcpy(Menus.Letra,"Status:Finalizado"); 
....................          if(Temperatura>80){ 
0AECC:  MOVLB  9
0AECE:  CLRF   x0A
0AED0:  CLRF   x09
0AED2:  MOVLW  20
0AED4:  MOVWF  x08
0AED6:  MOVLW  85
0AED8:  MOVWF  x07
0AEDA:  MOVFF  6CE,90E
0AEDE:  MOVFF  6CD,90D
0AEE2:  MOVFF  6CC,90C
0AEE6:  MOVFF  6CB,90B
0AEEA:  MOVLB  0
0AEEC:  CALL   1D90
0AEF0:  BNC   AFBA
....................             if(mensaje){ 
0AEF2:  MOVLB  6
0AEF4:  BTFSS  x22.3
0AEF6:  BRA    AF5A
....................                glcd_rect(0, 55, 127, 63, YES, OFF); 
0AEF8:  MOVLB  9
0AEFA:  CLRF   x1F
0AEFC:  MOVLW  37
0AEFE:  MOVWF  x20
0AF00:  MOVLW  7F
0AF02:  MOVWF  x21
0AF04:  MOVLW  3F
0AF06:  MOVWF  x22
0AF08:  MOVLW  01
0AF0A:  MOVWF  x23
0AF0C:  CLRF   x24
0AF0E:  MOVLB  0
0AF10:  CALL   17D8
....................                strcpy(Menus.Letra,"NO APAGUE EL EQUIPO"); 
0AF14:  MOVLW  08
0AF16:  MOVWF  FEA
0AF18:  MOVLW  E7
0AF1A:  MOVWF  FE9
0AF1C:  MOVFF  FF2,907
0AF20:  BCF    FF2.7
0AF22:  MOVLW  00
0AF24:  CALL   0F3A
0AF28:  TBLRD*-
0AF2A:  TBLRD*+
0AF2C:  MOVF   FF5,W
0AF2E:  MOVWF  FEE
0AF30:  IORLW  00
0AF32:  BNZ   AF2A
0AF34:  MOVLB  9
0AF36:  BTFSC  x07.7
0AF38:  BSF    FF2.7
....................                displayMenu(Menus.Letra,0,55,2,1); 
0AF3A:  MOVLW  08
0AF3C:  MOVWF  x0F
0AF3E:  MOVLW  E7
0AF40:  MOVWF  x0E
0AF42:  CLRF   x10
0AF44:  MOVLW  37
0AF46:  MOVWF  x11
0AF48:  MOVLW  02
0AF4A:  MOVWF  x12
0AF4C:  MOVLW  01
0AF4E:  MOVWF  x13
0AF50:  MOVLB  0
0AF52:  CALL   1A52
....................             }else{ 
0AF56:  BRA    AFB8
0AF58:  MOVLB  6
....................                glcd_rect(0, 55, 127, 63, YES, OFF); 
0AF5A:  MOVLB  9
0AF5C:  CLRF   x1F
0AF5E:  MOVLW  37
0AF60:  MOVWF  x20
0AF62:  MOVLW  7F
0AF64:  MOVWF  x21
0AF66:  MOVLW  3F
0AF68:  MOVWF  x22
0AF6A:  MOVLW  01
0AF6C:  MOVWF  x23
0AF6E:  CLRF   x24
0AF70:  MOVLB  0
0AF72:  CALL   17D8
....................                strcpy(Menus.Letra,"Status:Finalizado"); 
0AF76:  MOVLW  08
0AF78:  MOVWF  FEA
0AF7A:  MOVLW  E7
0AF7C:  MOVWF  FE9
0AF7E:  MOVFF  FF2,907
0AF82:  BCF    FF2.7
0AF84:  MOVLW  00
0AF86:  CALL   0F6C
0AF8A:  TBLRD*-
0AF8C:  TBLRD*+
0AF8E:  MOVF   FF5,W
0AF90:  MOVWF  FEE
0AF92:  IORLW  00
0AF94:  BNZ   AF8C
0AF96:  MOVLB  9
0AF98:  BTFSC  x07.7
0AF9A:  BSF    FF2.7
....................                displayMenu(Menus.Letra,0,55,2,1); 
0AF9C:  MOVLW  08
0AF9E:  MOVWF  x0F
0AFA0:  MOVLW  E7
0AFA2:  MOVWF  x0E
0AFA4:  CLRF   x10
0AFA6:  MOVLW  37
0AFA8:  MOVWF  x11
0AFAA:  MOVLW  02
0AFAC:  MOVWF  x12
0AFAE:  MOVLW  01
0AFB0:  MOVWF  x13
0AFB2:  MOVLB  0
0AFB4:  CALL   1A52
....................             } 
....................          }else{ 
0AFB8:  BRA    B080
....................             if(mensaje){ 
0AFBA:  MOVLB  6
0AFBC:  BTFSS  x22.3
0AFBE:  BRA    B022
....................                glcd_rect(0, 55, 127, 63, YES, OFF); 
0AFC0:  MOVLB  9
0AFC2:  CLRF   x1F
0AFC4:  MOVLW  37
0AFC6:  MOVWF  x20
0AFC8:  MOVLW  7F
0AFCA:  MOVWF  x21
0AFCC:  MOVLW  3F
0AFCE:  MOVWF  x22
0AFD0:  MOVLW  01
0AFD2:  MOVWF  x23
0AFD4:  CLRF   x24
0AFD6:  MOVLB  0
0AFD8:  CALL   17D8
....................                strcpy(Menus.Letra,"Puede apagar la Mufla"); 
0AFDC:  MOVLW  08
0AFDE:  MOVWF  FEA
0AFE0:  MOVLW  E7
0AFE2:  MOVWF  FE9
0AFE4:  MOVFF  FF2,907
0AFE8:  BCF    FF2.7
0AFEA:  MOVLW  00
0AFEC:  CALL   0F9C
0AFF0:  TBLRD*-
0AFF2:  TBLRD*+
0AFF4:  MOVF   FF5,W
0AFF6:  MOVWF  FEE
0AFF8:  IORLW  00
0AFFA:  BNZ   AFF2
0AFFC:  MOVLB  9
0AFFE:  BTFSC  x07.7
0B000:  BSF    FF2.7
....................                displayMenu(Menus.Letra,0,55,2,1); 
0B002:  MOVLW  08
0B004:  MOVWF  x0F
0B006:  MOVLW  E7
0B008:  MOVWF  x0E
0B00A:  CLRF   x10
0B00C:  MOVLW  37
0B00E:  MOVWF  x11
0B010:  MOVLW  02
0B012:  MOVWF  x12
0B014:  MOVLW  01
0B016:  MOVWF  x13
0B018:  MOVLB  0
0B01A:  CALL   1A52
....................             }else{ 
0B01E:  BRA    B080
0B020:  MOVLB  6
....................                glcd_rect(0, 55, 127, 63, YES, OFF); 
0B022:  MOVLB  9
0B024:  CLRF   x1F
0B026:  MOVLW  37
0B028:  MOVWF  x20
0B02A:  MOVLW  7F
0B02C:  MOVWF  x21
0B02E:  MOVLW  3F
0B030:  MOVWF  x22
0B032:  MOVLW  01
0B034:  MOVWF  x23
0B036:  CLRF   x24
0B038:  MOVLB  0
0B03A:  CALL   17D8
....................                strcpy(Menus.Letra,"Status:Finalizado"); 
0B03E:  MOVLW  08
0B040:  MOVWF  FEA
0B042:  MOVLW  E7
0B044:  MOVWF  FE9
0B046:  MOVFF  FF2,907
0B04A:  BCF    FF2.7
0B04C:  MOVLW  00
0B04E:  CALL   0F6C
0B052:  TBLRD*-
0B054:  TBLRD*+
0B056:  MOVF   FF5,W
0B058:  MOVWF  FEE
0B05A:  IORLW  00
0B05C:  BNZ   B054
0B05E:  MOVLB  9
0B060:  BTFSC  x07.7
0B062:  BSF    FF2.7
....................                displayMenu(Menus.Letra,0,55,2,1); 
0B064:  MOVLW  08
0B066:  MOVWF  x0F
0B068:  MOVLW  E7
0B06A:  MOVWF  x0E
0B06C:  CLRF   x10
0B06E:  MOVLW  37
0B070:  MOVWF  x11
0B072:  MOVLW  02
0B074:  MOVWF  x12
0B076:  MOVLW  01
0B078:  MOVWF  x13
0B07A:  MOVLB  0
0B07C:  CALL   1A52
....................             } 
....................          } 
....................          tiempo_esterilizacion=4; 
0B080:  MOVLW  04
0B082:  MOVLB  6
0B084:  MOVWF  x40
....................          Control=0; 
0B086:  CLRF   x34
....................          Resistencia_off; 
0B088:  BCF    F8B.0
0B08A:  BCF    F94.0
....................          Tpulso=0.0; 
0B08C:  CLRF   xA2
0B08E:  CLRF   xA1
0B090:  CLRF   xA0
0B092:  CLRF   x9F
....................       } 
....................          
....................     } 
.................... //_--------------------------------------------------------------------------------------------------------------------------------------------------------        
....................  
.................... //_-------------------------------------------------------------------------------------------------------------------------------------------------------- 
....................       if(Menu==100){ //Menu de Configuracin de Parametros de Control 
0B094:  MOVF   x38,W
0B096:  SUBLW  64
0B098:  BTFSS  FD8.2
0B09A:  GOTO   B904
....................        
....................       if(Opcion>13) 
0B09E:  MOVF   x3F,W
0B0A0:  SUBLW  0D
0B0A2:  BC    B0A8
....................       {Opcion=1;} 
0B0A4:  MOVLW  01
0B0A6:  MOVWF  x3F
....................       if(Opcion<1) 
0B0A8:  MOVF   x3F,F
0B0AA:  BNZ   B0B0
....................       {Opcion=13;} 
0B0AC:  MOVLW  0D
0B0AE:  MOVWF  x3F
....................        
....................       if(Opcion<=6){ 
0B0B0:  MOVF   x3F,W
0B0B2:  SUBLW  06
0B0B4:  BTFSS  FD8.0
0B0B6:  BRA    B414
....................          if(Opcion==1)    
0B0B8:  DECFSZ x3F,W
0B0BA:  BRA    B100
....................             {strcpy(Menus.Letra,"Proporcional"); 
0B0BC:  MOVLW  08
0B0BE:  MOVWF  FEA
0B0C0:  MOVLW  E7
0B0C2:  MOVWF  FE9
0B0C4:  MOVFF  FF2,907
0B0C8:  BCF    FF2.7
0B0CA:  MOVLW  00
0B0CC:  MOVLB  0
0B0CE:  CALL   0FD0
0B0D2:  TBLRD*-
0B0D4:  TBLRD*+
0B0D6:  MOVF   FF5,W
0B0D8:  MOVWF  FEE
0B0DA:  IORLW  00
0B0DC:  BNZ   B0D4
0B0DE:  MOVLB  9
0B0E0:  BTFSC  x07.7
0B0E2:  BSF    FF2.7
....................             displayMenu(Menus.Letra,0,0,1,1);} 
0B0E4:  MOVLW  08
0B0E6:  MOVWF  x0F
0B0E8:  MOVLW  E7
0B0EA:  MOVWF  x0E
0B0EC:  CLRF   x10
0B0EE:  CLRF   x11
0B0F0:  MOVLW  01
0B0F2:  MOVWF  x12
0B0F4:  MOVWF  x13
0B0F6:  MOVLB  0
0B0F8:  CALL   1A52
....................          else 
0B0FC:  BRA    B140
0B0FE:  MOVLB  6
....................             {strcpy(Menus.Letra,"Proporcional"); 
0B100:  MOVLW  08
0B102:  MOVWF  FEA
0B104:  MOVLW  E7
0B106:  MOVWF  FE9
0B108:  MOVFF  FF2,907
0B10C:  BCF    FF2.7
0B10E:  MOVLW  00
0B110:  MOVLB  0
0B112:  CALL   0FD0
0B116:  TBLRD*-
0B118:  TBLRD*+
0B11A:  MOVF   FF5,W
0B11C:  MOVWF  FEE
0B11E:  IORLW  00
0B120:  BNZ   B118
0B122:  MOVLB  9
0B124:  BTFSC  x07.7
0B126:  BSF    FF2.7
....................             displayMenu(Menus.Letra,0,0,0,1);} 
0B128:  MOVLW  08
0B12A:  MOVWF  x0F
0B12C:  MOVLW  E7
0B12E:  MOVWF  x0E
0B130:  CLRF   x10
0B132:  CLRF   x11
0B134:  CLRF   x12
0B136:  MOVLW  01
0B138:  MOVWF  x13
0B13A:  MOVLB  0
0B13C:  CALL   1A52
....................           
....................          if(Opcion==2)    
0B140:  MOVLB  6
0B142:  MOVF   x3F,W
0B144:  SUBLW  02
0B146:  BNZ   B18E
....................             {strcpy(Menus.Letra,"Integral"); 
0B148:  MOVLW  08
0B14A:  MOVWF  FEA
0B14C:  MOVLW  E7
0B14E:  MOVWF  FE9
0B150:  MOVFF  FF2,907
0B154:  BCF    FF2.7
0B156:  MOVLW  00
0B158:  MOVLB  0
0B15A:  CALL   0FFC
0B15E:  TBLRD*-
0B160:  TBLRD*+
0B162:  MOVF   FF5,W
0B164:  MOVWF  FEE
0B166:  IORLW  00
0B168:  BNZ   B160
0B16A:  MOVLB  9
0B16C:  BTFSC  x07.7
0B16E:  BSF    FF2.7
....................             displayMenu(Menus.Letra,0,9,1,1);} 
0B170:  MOVLW  08
0B172:  MOVWF  x0F
0B174:  MOVLW  E7
0B176:  MOVWF  x0E
0B178:  CLRF   x10
0B17A:  MOVLW  09
0B17C:  MOVWF  x11
0B17E:  MOVLW  01
0B180:  MOVWF  x12
0B182:  MOVWF  x13
0B184:  MOVLB  0
0B186:  CALL   1A52
....................          else 
0B18A:  BRA    B1D0
0B18C:  MOVLB  6
....................             {strcpy(Menus.Letra,"Integral"); 
0B18E:  MOVLW  08
0B190:  MOVWF  FEA
0B192:  MOVLW  E7
0B194:  MOVWF  FE9
0B196:  MOVFF  FF2,907
0B19A:  BCF    FF2.7
0B19C:  MOVLW  00
0B19E:  MOVLB  0
0B1A0:  CALL   0FFC
0B1A4:  TBLRD*-
0B1A6:  TBLRD*+
0B1A8:  MOVF   FF5,W
0B1AA:  MOVWF  FEE
0B1AC:  IORLW  00
0B1AE:  BNZ   B1A6
0B1B0:  MOVLB  9
0B1B2:  BTFSC  x07.7
0B1B4:  BSF    FF2.7
....................             displayMenu(Menus.Letra,0,9,0,1);} 
0B1B6:  MOVLW  08
0B1B8:  MOVWF  x0F
0B1BA:  MOVLW  E7
0B1BC:  MOVWF  x0E
0B1BE:  CLRF   x10
0B1C0:  MOVLW  09
0B1C2:  MOVWF  x11
0B1C4:  CLRF   x12
0B1C6:  MOVLW  01
0B1C8:  MOVWF  x13
0B1CA:  MOVLB  0
0B1CC:  CALL   1A52
....................              
....................          if(Opcion==3)    
0B1D0:  MOVLB  6
0B1D2:  MOVF   x3F,W
0B1D4:  SUBLW  03
0B1D6:  BNZ   B21E
....................             {strcpy(Menus.Letra,"Derivativo"); 
0B1D8:  MOVLW  08
0B1DA:  MOVWF  FEA
0B1DC:  MOVLW  E7
0B1DE:  MOVWF  FE9
0B1E0:  MOVFF  FF2,907
0B1E4:  BCF    FF2.7
0B1E6:  MOVLW  00
0B1E8:  MOVLB  0
0B1EA:  CALL   1024
0B1EE:  TBLRD*-
0B1F0:  TBLRD*+
0B1F2:  MOVF   FF5,W
0B1F4:  MOVWF  FEE
0B1F6:  IORLW  00
0B1F8:  BNZ   B1F0
0B1FA:  MOVLB  9
0B1FC:  BTFSC  x07.7
0B1FE:  BSF    FF2.7
....................             displayMenu(Menus.Letra,0,18,1,1);} 
0B200:  MOVLW  08
0B202:  MOVWF  x0F
0B204:  MOVLW  E7
0B206:  MOVWF  x0E
0B208:  CLRF   x10
0B20A:  MOVLW  12
0B20C:  MOVWF  x11
0B20E:  MOVLW  01
0B210:  MOVWF  x12
0B212:  MOVWF  x13
0B214:  MOVLB  0
0B216:  CALL   1A52
....................          else 
0B21A:  BRA    B260
0B21C:  MOVLB  6
....................             {strcpy(Menus.Letra,"Derivativo"); 
0B21E:  MOVLW  08
0B220:  MOVWF  FEA
0B222:  MOVLW  E7
0B224:  MOVWF  FE9
0B226:  MOVFF  FF2,907
0B22A:  BCF    FF2.7
0B22C:  MOVLW  00
0B22E:  MOVLB  0
0B230:  CALL   1024
0B234:  TBLRD*-
0B236:  TBLRD*+
0B238:  MOVF   FF5,W
0B23A:  MOVWF  FEE
0B23C:  IORLW  00
0B23E:  BNZ   B236
0B240:  MOVLB  9
0B242:  BTFSC  x07.7
0B244:  BSF    FF2.7
....................             displayMenu(Menus.Letra,0,18,0,1);}    
0B246:  MOVLW  08
0B248:  MOVWF  x0F
0B24A:  MOVLW  E7
0B24C:  MOVWF  x0E
0B24E:  CLRF   x10
0B250:  MOVLW  12
0B252:  MOVWF  x11
0B254:  CLRF   x12
0B256:  MOVLW  01
0B258:  MOVWF  x13
0B25A:  MOVLB  0
0B25C:  CALL   1A52
....................           
....................          if(Opcion==4)    
0B260:  MOVLB  6
0B262:  MOVF   x3F,W
0B264:  SUBLW  04
0B266:  BNZ   B2AE
....................             {strcpy(Menus.Letra,"Tciclo"); 
0B268:  MOVLW  08
0B26A:  MOVWF  FEA
0B26C:  MOVLW  E7
0B26E:  MOVWF  FE9
0B270:  MOVFF  FF2,907
0B274:  BCF    FF2.7
0B276:  MOVLW  00
0B278:  MOVLB  0
0B27A:  CALL   104E
0B27E:  TBLRD*-
0B280:  TBLRD*+
0B282:  MOVF   FF5,W
0B284:  MOVWF  FEE
0B286:  IORLW  00
0B288:  BNZ   B280
0B28A:  MOVLB  9
0B28C:  BTFSC  x07.7
0B28E:  BSF    FF2.7
....................             displayMenu(Menus.Letra,0,27,1,1);} 
0B290:  MOVLW  08
0B292:  MOVWF  x0F
0B294:  MOVLW  E7
0B296:  MOVWF  x0E
0B298:  CLRF   x10
0B29A:  MOVLW  1B
0B29C:  MOVWF  x11
0B29E:  MOVLW  01
0B2A0:  MOVWF  x12
0B2A2:  MOVWF  x13
0B2A4:  MOVLB  0
0B2A6:  CALL   1A52
....................          else 
0B2AA:  BRA    B2F0
0B2AC:  MOVLB  6
....................             {strcpy(Menus.Letra,"Tciclo"); 
0B2AE:  MOVLW  08
0B2B0:  MOVWF  FEA
0B2B2:  MOVLW  E7
0B2B4:  MOVWF  FE9
0B2B6:  MOVFF  FF2,907
0B2BA:  BCF    FF2.7
0B2BC:  MOVLW  00
0B2BE:  MOVLB  0
0B2C0:  CALL   104E
0B2C4:  TBLRD*-
0B2C6:  TBLRD*+
0B2C8:  MOVF   FF5,W
0B2CA:  MOVWF  FEE
0B2CC:  IORLW  00
0B2CE:  BNZ   B2C6
0B2D0:  MOVLB  9
0B2D2:  BTFSC  x07.7
0B2D4:  BSF    FF2.7
....................             displayMenu(Menus.Letra,0,27,0,1);} 
0B2D6:  MOVLW  08
0B2D8:  MOVWF  x0F
0B2DA:  MOVLW  E7
0B2DC:  MOVWF  x0E
0B2DE:  CLRF   x10
0B2E0:  MOVLW  1B
0B2E2:  MOVWF  x11
0B2E4:  CLRF   x12
0B2E6:  MOVLW  01
0B2E8:  MOVWF  x13
0B2EA:  MOVLB  0
0B2EC:  CALL   1A52
....................              
....................          if(Opcion==5)    
0B2F0:  MOVLB  6
0B2F2:  MOVF   x3F,W
0B2F4:  SUBLW  05
0B2F6:  BNZ   B33E
....................             {strcpy(Menus.Letra,"Ajuste +"); 
0B2F8:  MOVLW  08
0B2FA:  MOVWF  FEA
0B2FC:  MOVLW  E7
0B2FE:  MOVWF  FE9
0B300:  MOVFF  FF2,907
0B304:  BCF    FF2.7
0B306:  MOVLW  00
0B308:  MOVLB  0
0B30A:  CALL   1074
0B30E:  TBLRD*-
0B310:  TBLRD*+
0B312:  MOVF   FF5,W
0B314:  MOVWF  FEE
0B316:  IORLW  00
0B318:  BNZ   B310
0B31A:  MOVLB  9
0B31C:  BTFSC  x07.7
0B31E:  BSF    FF2.7
....................             displayMenu(Menus.Letra,0,36,1,1);} 
0B320:  MOVLW  08
0B322:  MOVWF  x0F
0B324:  MOVLW  E7
0B326:  MOVWF  x0E
0B328:  CLRF   x10
0B32A:  MOVLW  24
0B32C:  MOVWF  x11
0B32E:  MOVLW  01
0B330:  MOVWF  x12
0B332:  MOVWF  x13
0B334:  MOVLB  0
0B336:  CALL   1A52
....................          else 
0B33A:  BRA    B380
0B33C:  MOVLB  6
....................             {strcpy(Menus.Letra,"Ajuste +"); 
0B33E:  MOVLW  08
0B340:  MOVWF  FEA
0B342:  MOVLW  E7
0B344:  MOVWF  FE9
0B346:  MOVFF  FF2,907
0B34A:  BCF    FF2.7
0B34C:  MOVLW  00
0B34E:  MOVLB  0
0B350:  CALL   1074
0B354:  TBLRD*-
0B356:  TBLRD*+
0B358:  MOVF   FF5,W
0B35A:  MOVWF  FEE
0B35C:  IORLW  00
0B35E:  BNZ   B356
0B360:  MOVLB  9
0B362:  BTFSC  x07.7
0B364:  BSF    FF2.7
....................             displayMenu(Menus.Letra,0,36,0,1);}    
0B366:  MOVLW  08
0B368:  MOVWF  x0F
0B36A:  MOVLW  E7
0B36C:  MOVWF  x0E
0B36E:  CLRF   x10
0B370:  MOVLW  24
0B372:  MOVWF  x11
0B374:  CLRF   x12
0B376:  MOVLW  01
0B378:  MOVWF  x13
0B37A:  MOVLB  0
0B37C:  CALL   1A52
....................                          
....................          if(Opcion==6)    
0B380:  MOVLB  6
0B382:  MOVF   x3F,W
0B384:  SUBLW  06
0B386:  BNZ   B3CE
....................             {strcpy(Menus.Letra,"Ajuste -"); 
0B388:  MOVLW  08
0B38A:  MOVWF  FEA
0B38C:  MOVLW  E7
0B38E:  MOVWF  FE9
0B390:  MOVFF  FF2,907
0B394:  BCF    FF2.7
0B396:  MOVLW  00
0B398:  MOVLB  0
0B39A:  CALL   109C
0B39E:  TBLRD*-
0B3A0:  TBLRD*+
0B3A2:  MOVF   FF5,W
0B3A4:  MOVWF  FEE
0B3A6:  IORLW  00
0B3A8:  BNZ   B3A0
0B3AA:  MOVLB  9
0B3AC:  BTFSC  x07.7
0B3AE:  BSF    FF2.7
....................             displayMenu(Menus.Letra,0,45,1,1);} 
0B3B0:  MOVLW  08
0B3B2:  MOVWF  x0F
0B3B4:  MOVLW  E7
0B3B6:  MOVWF  x0E
0B3B8:  CLRF   x10
0B3BA:  MOVLW  2D
0B3BC:  MOVWF  x11
0B3BE:  MOVLW  01
0B3C0:  MOVWF  x12
0B3C2:  MOVWF  x13
0B3C4:  MOVLB  0
0B3C6:  CALL   1A52
....................          else 
0B3CA:  BRA    B410
0B3CC:  MOVLB  6
....................             {strcpy(Menus.Letra,"Ajuste -"); 
0B3CE:  MOVLW  08
0B3D0:  MOVWF  FEA
0B3D2:  MOVLW  E7
0B3D4:  MOVWF  FE9
0B3D6:  MOVFF  FF2,907
0B3DA:  BCF    FF2.7
0B3DC:  MOVLW  00
0B3DE:  MOVLB  0
0B3E0:  CALL   109C
0B3E4:  TBLRD*-
0B3E6:  TBLRD*+
0B3E8:  MOVF   FF5,W
0B3EA:  MOVWF  FEE
0B3EC:  IORLW  00
0B3EE:  BNZ   B3E6
0B3F0:  MOVLB  9
0B3F2:  BTFSC  x07.7
0B3F4:  BSF    FF2.7
....................             displayMenu(Menus.Letra,0,45,0,1);}      
0B3F6:  MOVLW  08
0B3F8:  MOVWF  x0F
0B3FA:  MOVLW  E7
0B3FC:  MOVWF  x0E
0B3FE:  CLRF   x10
0B400:  MOVLW  2D
0B402:  MOVWF  x11
0B404:  CLRF   x12
0B406:  MOVLW  01
0B408:  MOVWF  x13
0B40A:  MOVLB  0
0B40C:  CALL   1A52
....................       } 
....................       else{ 
0B410:  BRA    B7FE
0B412:  MOVLB  6
....................          if(Opcion==7)    
0B414:  MOVF   x3F,W
0B416:  SUBLW  07
0B418:  BNZ   B45E
....................             {strcpy(Menus.Letra,"Media Movil"); 
0B41A:  MOVLW  08
0B41C:  MOVWF  FEA
0B41E:  MOVLW  E7
0B420:  MOVWF  FE9
0B422:  MOVFF  FF2,907
0B426:  BCF    FF2.7
0B428:  MOVLW  00
0B42A:  MOVLB  0
0B42C:  CALL   10C4
0B430:  TBLRD*-
0B432:  TBLRD*+
0B434:  MOVF   FF5,W
0B436:  MOVWF  FEE
0B438:  IORLW  00
0B43A:  BNZ   B432
0B43C:  MOVLB  9
0B43E:  BTFSC  x07.7
0B440:  BSF    FF2.7
....................             displayMenu(Menus.Letra,0,0,1,1);} 
0B442:  MOVLW  08
0B444:  MOVWF  x0F
0B446:  MOVLW  E7
0B448:  MOVWF  x0E
0B44A:  CLRF   x10
0B44C:  CLRF   x11
0B44E:  MOVLW  01
0B450:  MOVWF  x12
0B452:  MOVWF  x13
0B454:  MOVLB  0
0B456:  CALL   1A52
....................          else 
0B45A:  BRA    B49E
0B45C:  MOVLB  6
....................             {strcpy(Menus.Letra,"Media Movil"); 
0B45E:  MOVLW  08
0B460:  MOVWF  FEA
0B462:  MOVLW  E7
0B464:  MOVWF  FE9
0B466:  MOVFF  FF2,907
0B46A:  BCF    FF2.7
0B46C:  MOVLW  00
0B46E:  MOVLB  0
0B470:  CALL   10C4
0B474:  TBLRD*-
0B476:  TBLRD*+
0B478:  MOVF   FF5,W
0B47A:  MOVWF  FEE
0B47C:  IORLW  00
0B47E:  BNZ   B476
0B480:  MOVLB  9
0B482:  BTFSC  x07.7
0B484:  BSF    FF2.7
....................             displayMenu(Menus.Letra,0,0,0,1);}      
0B486:  MOVLW  08
0B488:  MOVWF  x0F
0B48A:  MOVLW  E7
0B48C:  MOVWF  x0E
0B48E:  CLRF   x10
0B490:  CLRF   x11
0B492:  CLRF   x12
0B494:  MOVLW  01
0B496:  MOVWF  x13
0B498:  MOVLB  0
0B49A:  CALL   1A52
....................              
....................          if(Opcion==8)    
0B49E:  MOVLB  6
0B4A0:  MOVF   x3F,W
0B4A2:  SUBLW  08
0B4A4:  BNZ   B4EC
....................             {strcpy(Menus.Letra,"Coeficiente"); 
0B4A6:  MOVLW  08
0B4A8:  MOVWF  FEA
0B4AA:  MOVLW  E7
0B4AC:  MOVWF  FE9
0B4AE:  MOVFF  FF2,907
0B4B2:  BCF    FF2.7
0B4B4:  MOVLW  00
0B4B6:  MOVLB  0
0B4B8:  CALL   10EE
0B4BC:  TBLRD*-
0B4BE:  TBLRD*+
0B4C0:  MOVF   FF5,W
0B4C2:  MOVWF  FEE
0B4C4:  IORLW  00
0B4C6:  BNZ   B4BE
0B4C8:  MOVLB  9
0B4CA:  BTFSC  x07.7
0B4CC:  BSF    FF2.7
....................             displayMenu(Menus.Letra,0,9,1,1);} 
0B4CE:  MOVLW  08
0B4D0:  MOVWF  x0F
0B4D2:  MOVLW  E7
0B4D4:  MOVWF  x0E
0B4D6:  CLRF   x10
0B4D8:  MOVLW  09
0B4DA:  MOVWF  x11
0B4DC:  MOVLW  01
0B4DE:  MOVWF  x12
0B4E0:  MOVWF  x13
0B4E2:  MOVLB  0
0B4E4:  CALL   1A52
....................          else 
0B4E8:  BRA    B52E
0B4EA:  MOVLB  6
....................             {strcpy(Menus.Letra,"Coeficiente"); 
0B4EC:  MOVLW  08
0B4EE:  MOVWF  FEA
0B4F0:  MOVLW  E7
0B4F2:  MOVWF  FE9
0B4F4:  MOVFF  FF2,907
0B4F8:  BCF    FF2.7
0B4FA:  MOVLW  00
0B4FC:  MOVLB  0
0B4FE:  CALL   10EE
0B502:  TBLRD*-
0B504:  TBLRD*+
0B506:  MOVF   FF5,W
0B508:  MOVWF  FEE
0B50A:  IORLW  00
0B50C:  BNZ   B504
0B50E:  MOVLB  9
0B510:  BTFSC  x07.7
0B512:  BSF    FF2.7
....................             displayMenu(Menus.Letra,0,9,0,1);}   
0B514:  MOVLW  08
0B516:  MOVWF  x0F
0B518:  MOVLW  E7
0B51A:  MOVWF  x0E
0B51C:  CLRF   x10
0B51E:  MOVLW  09
0B520:  MOVWF  x11
0B522:  CLRF   x12
0B524:  MOVLW  01
0B526:  MOVWF  x13
0B528:  MOVLB  0
0B52A:  CALL   1A52
....................              
....................          if(Opcion==9)    
0B52E:  MOVLB  6
0B530:  MOVF   x3F,W
0B532:  SUBLW  09
0B534:  BNZ   B57C
....................             {strcpy(Menus.Letra,"Alarma SobreT"); 
0B536:  MOVLW  08
0B538:  MOVWF  FEA
0B53A:  MOVLW  E7
0B53C:  MOVWF  FE9
0B53E:  MOVFF  FF2,907
0B542:  BCF    FF2.7
0B544:  MOVLW  00
0B546:  MOVLB  0
0B548:  CALL   1118
0B54C:  TBLRD*-
0B54E:  TBLRD*+
0B550:  MOVF   FF5,W
0B552:  MOVWF  FEE
0B554:  IORLW  00
0B556:  BNZ   B54E
0B558:  MOVLB  9
0B55A:  BTFSC  x07.7
0B55C:  BSF    FF2.7
....................             displayMenu(Menus.Letra,0,18,1,1);} 
0B55E:  MOVLW  08
0B560:  MOVWF  x0F
0B562:  MOVLW  E7
0B564:  MOVWF  x0E
0B566:  CLRF   x10
0B568:  MOVLW  12
0B56A:  MOVWF  x11
0B56C:  MOVLW  01
0B56E:  MOVWF  x12
0B570:  MOVWF  x13
0B572:  MOVLB  0
0B574:  CALL   1A52
....................          else 
0B578:  BRA    B5BE
0B57A:  MOVLB  6
....................             {strcpy(Menus.Letra,"Alarma SobreT"); 
0B57C:  MOVLW  08
0B57E:  MOVWF  FEA
0B580:  MOVLW  E7
0B582:  MOVWF  FE9
0B584:  MOVFF  FF2,907
0B588:  BCF    FF2.7
0B58A:  MOVLW  00
0B58C:  MOVLB  0
0B58E:  CALL   1118
0B592:  TBLRD*-
0B594:  TBLRD*+
0B596:  MOVF   FF5,W
0B598:  MOVWF  FEE
0B59A:  IORLW  00
0B59C:  BNZ   B594
0B59E:  MOVLB  9
0B5A0:  BTFSC  x07.7
0B5A2:  BSF    FF2.7
....................             displayMenu(Menus.Letra,0,18,0,1);}      
0B5A4:  MOVLW  08
0B5A6:  MOVWF  x0F
0B5A8:  MOVLW  E7
0B5AA:  MOVWF  x0E
0B5AC:  CLRF   x10
0B5AE:  MOVLW  12
0B5B0:  MOVWF  x11
0B5B2:  CLRF   x12
0B5B4:  MOVLW  01
0B5B6:  MOVWF  x13
0B5B8:  MOVLB  0
0B5BA:  CALL   1A52
....................              
....................          if(Opcion==10)    
0B5BE:  MOVLB  6
0B5C0:  MOVF   x3F,W
0B5C2:  SUBLW  0A
0B5C4:  BNZ   B60C
....................             {strcpy(Menus.Letra,"Resistencia"); 
0B5C6:  MOVLW  08
0B5C8:  MOVWF  FEA
0B5CA:  MOVLW  E7
0B5CC:  MOVWF  FE9
0B5CE:  MOVFF  FF2,907
0B5D2:  BCF    FF2.7
0B5D4:  MOVLW  00
0B5D6:  MOVLB  0
0B5D8:  CALL   1144
0B5DC:  TBLRD*-
0B5DE:  TBLRD*+
0B5E0:  MOVF   FF5,W
0B5E2:  MOVWF  FEE
0B5E4:  IORLW  00
0B5E6:  BNZ   B5DE
0B5E8:  MOVLB  9
0B5EA:  BTFSC  x07.7
0B5EC:  BSF    FF2.7
....................             displayMenu(Menus.Letra,0,27,1,1);} 
0B5EE:  MOVLW  08
0B5F0:  MOVWF  x0F
0B5F2:  MOVLW  E7
0B5F4:  MOVWF  x0E
0B5F6:  CLRF   x10
0B5F8:  MOVLW  1B
0B5FA:  MOVWF  x11
0B5FC:  MOVLW  01
0B5FE:  MOVWF  x12
0B600:  MOVWF  x13
0B602:  MOVLB  0
0B604:  CALL   1A52
....................          else 
0B608:  BRA    B64E
0B60A:  MOVLB  6
....................             {strcpy(Menus.Letra,"Resistencia"); 
0B60C:  MOVLW  08
0B60E:  MOVWF  FEA
0B610:  MOVLW  E7
0B612:  MOVWF  FE9
0B614:  MOVFF  FF2,907
0B618:  BCF    FF2.7
0B61A:  MOVLW  00
0B61C:  MOVLB  0
0B61E:  CALL   1144
0B622:  TBLRD*-
0B624:  TBLRD*+
0B626:  MOVF   FF5,W
0B628:  MOVWF  FEE
0B62A:  IORLW  00
0B62C:  BNZ   B624
0B62E:  MOVLB  9
0B630:  BTFSC  x07.7
0B632:  BSF    FF2.7
....................             displayMenu(Menus.Letra,0,27,0,1);}      
0B634:  MOVLW  08
0B636:  MOVWF  x0F
0B638:  MOVLW  E7
0B63A:  MOVWF  x0E
0B63C:  CLRF   x10
0B63E:  MOVLW  1B
0B640:  MOVWF  x11
0B642:  CLRF   x12
0B644:  MOVLW  01
0B646:  MOVWF  x13
0B648:  MOVLB  0
0B64A:  CALL   1A52
....................              
....................          if(Opcion==11)    
0B64E:  MOVLB  6
0B650:  MOVF   x3F,W
0B652:  SUBLW  0B
0B654:  BNZ   B69C
....................             {strcpy(Menus.Letra,"m Mufla"); 
0B656:  MOVLW  08
0B658:  MOVWF  FEA
0B65A:  MOVLW  E7
0B65C:  MOVWF  FE9
0B65E:  MOVFF  FF2,907
0B662:  BCF    FF2.7
0B664:  MOVLW  00
0B666:  MOVLB  0
0B668:  CALL   116E
0B66C:  TBLRD*-
0B66E:  TBLRD*+
0B670:  MOVF   FF5,W
0B672:  MOVWF  FEE
0B674:  IORLW  00
0B676:  BNZ   B66E
0B678:  MOVLB  9
0B67A:  BTFSC  x07.7
0B67C:  BSF    FF2.7
....................             displayMenu(Menus.Letra,0,36,1,1);} 
0B67E:  MOVLW  08
0B680:  MOVWF  x0F
0B682:  MOVLW  E7
0B684:  MOVWF  x0E
0B686:  CLRF   x10
0B688:  MOVLW  24
0B68A:  MOVWF  x11
0B68C:  MOVLW  01
0B68E:  MOVWF  x12
0B690:  MOVWF  x13
0B692:  MOVLB  0
0B694:  CALL   1A52
....................          else 
0B698:  BRA    B6DE
0B69A:  MOVLB  6
....................             {strcpy(Menus.Letra,"m Mufla"); 
0B69C:  MOVLW  08
0B69E:  MOVWF  FEA
0B6A0:  MOVLW  E7
0B6A2:  MOVWF  FE9
0B6A4:  MOVFF  FF2,907
0B6A8:  BCF    FF2.7
0B6AA:  MOVLW  00
0B6AC:  MOVLB  0
0B6AE:  CALL   116E
0B6B2:  TBLRD*-
0B6B4:  TBLRD*+
0B6B6:  MOVF   FF5,W
0B6B8:  MOVWF  FEE
0B6BA:  IORLW  00
0B6BC:  BNZ   B6B4
0B6BE:  MOVLB  9
0B6C0:  BTFSC  x07.7
0B6C2:  BSF    FF2.7
....................             displayMenu(Menus.Letra,0,36,0,1);}      
0B6C4:  MOVLW  08
0B6C6:  MOVWF  x0F
0B6C8:  MOVLW  E7
0B6CA:  MOVWF  x0E
0B6CC:  CLRF   x10
0B6CE:  MOVLW  24
0B6D0:  MOVWF  x11
0B6D2:  CLRF   x12
0B6D4:  MOVLW  01
0B6D6:  MOVWF  x13
0B6D8:  MOVLB  0
0B6DA:  CALL   1A52
....................           
....................          if(Opcion==12) 
0B6DE:  MOVLB  6
0B6E0:  MOVF   x3F,W
0B6E2:  SUBLW  0C
0B6E4:  BNZ   B72C
....................             {strcpy(Menus.Letra,"m"); 
0B6E6:  MOVLW  08
0B6E8:  MOVWF  FEA
0B6EA:  MOVLW  E7
0B6EC:  MOVWF  FE9
0B6EE:  MOVFF  FF2,907
0B6F2:  BCF    FF2.7
0B6F4:  MOVLW  00
0B6F6:  MOVLB  0
0B6F8:  CALL   1194
0B6FC:  TBLRD*-
0B6FE:  TBLRD*+
0B700:  MOVF   FF5,W
0B702:  MOVWF  FEE
0B704:  IORLW  00
0B706:  BNZ   B6FE
0B708:  MOVLB  9
0B70A:  BTFSC  x07.7
0B70C:  BSF    FF2.7
....................             displayMenu(Menus.Letra,0,45,1,1);} 
0B70E:  MOVLW  08
0B710:  MOVWF  x0F
0B712:  MOVLW  E7
0B714:  MOVWF  x0E
0B716:  CLRF   x10
0B718:  MOVLW  2D
0B71A:  MOVWF  x11
0B71C:  MOVLW  01
0B71E:  MOVWF  x12
0B720:  MOVWF  x13
0B722:  MOVLB  0
0B724:  CALL   1A52
....................          else 
0B728:  BRA    B76E
0B72A:  MOVLB  6
....................             {strcpy(Menus.Letra,"m"); 
0B72C:  MOVLW  08
0B72E:  MOVWF  FEA
0B730:  MOVLW  E7
0B732:  MOVWF  FE9
0B734:  MOVFF  FF2,907
0B738:  BCF    FF2.7
0B73A:  MOVLW  00
0B73C:  MOVLB  0
0B73E:  CALL   1194
0B742:  TBLRD*-
0B744:  TBLRD*+
0B746:  MOVF   FF5,W
0B748:  MOVWF  FEE
0B74A:  IORLW  00
0B74C:  BNZ   B744
0B74E:  MOVLB  9
0B750:  BTFSC  x07.7
0B752:  BSF    FF2.7
....................             displayMenu(Menus.Letra,0,45,0,1);}        
0B754:  MOVLW  08
0B756:  MOVWF  x0F
0B758:  MOVLW  E7
0B75A:  MOVWF  x0E
0B75C:  CLRF   x10
0B75E:  MOVLW  2D
0B760:  MOVWF  x11
0B762:  CLRF   x12
0B764:  MOVLW  01
0B766:  MOVWF  x13
0B768:  MOVLB  0
0B76A:  CALL   1A52
....................           
....................          if(Opcion==13) 
0B76E:  MOVLB  6
0B770:  MOVF   x3F,W
0B772:  SUBLW  0D
0B774:  BNZ   B7BC
....................             {strcpy(Menus.Letra,"b"); 
0B776:  MOVLW  08
0B778:  MOVWF  FEA
0B77A:  MOVLW  E7
0B77C:  MOVWF  FE9
0B77E:  MOVFF  FF2,907
0B782:  BCF    FF2.7
0B784:  MOVLW  00
0B786:  MOVLB  0
0B788:  CALL   11B4
0B78C:  TBLRD*-
0B78E:  TBLRD*+
0B790:  MOVF   FF5,W
0B792:  MOVWF  FEE
0B794:  IORLW  00
0B796:  BNZ   B78E
0B798:  MOVLB  9
0B79A:  BTFSC  x07.7
0B79C:  BSF    FF2.7
....................             displayMenu(Menus.Letra,0,54,1,1);} 
0B79E:  MOVLW  08
0B7A0:  MOVWF  x0F
0B7A2:  MOVLW  E7
0B7A4:  MOVWF  x0E
0B7A6:  CLRF   x10
0B7A8:  MOVLW  36
0B7AA:  MOVWF  x11
0B7AC:  MOVLW  01
0B7AE:  MOVWF  x12
0B7B0:  MOVWF  x13
0B7B2:  MOVLB  0
0B7B4:  CALL   1A52
....................          else 
0B7B8:  BRA    B7FE
0B7BA:  MOVLB  6
....................             {strcpy(Menus.Letra,"b"); 
0B7BC:  MOVLW  08
0B7BE:  MOVWF  FEA
0B7C0:  MOVLW  E7
0B7C2:  MOVWF  FE9
0B7C4:  MOVFF  FF2,907
0B7C8:  BCF    FF2.7
0B7CA:  MOVLW  00
0B7CC:  MOVLB  0
0B7CE:  CALL   11B4
0B7D2:  TBLRD*-
0B7D4:  TBLRD*+
0B7D6:  MOVF   FF5,W
0B7D8:  MOVWF  FEE
0B7DA:  IORLW  00
0B7DC:  BNZ   B7D4
0B7DE:  MOVLB  9
0B7E0:  BTFSC  x07.7
0B7E2:  BSF    FF2.7
....................             displayMenu(Menus.Letra,0,54,0,1);} 
0B7E4:  MOVLW  08
0B7E6:  MOVWF  x0F
0B7E8:  MOVLW  E7
0B7EA:  MOVWF  x0E
0B7EC:  CLRF   x10
0B7EE:  MOVLW  36
0B7F0:  MOVWF  x11
0B7F2:  CLRF   x12
0B7F4:  MOVLW  01
0B7F6:  MOVWF  x13
0B7F8:  MOVLB  0
0B7FA:  CALL   1A52
....................           
....................       }    
....................        
....................          if(UP)//Si oprime hacia arriba 
0B7FE:  BSF    F92.5
0B800:  BTFSC  F80.5
0B802:  BRA    B834
....................          { 
....................             Buzz_on;delay_ms(10);Buzz_off; 
0B804:  BSF    F8B.5
0B806:  BCF    F94.5
0B808:  MOVLW  0A
0B80A:  MOVLB  9
0B80C:  MOVWF  x1D
0B80E:  MOVLB  0
0B810:  CALL   13A4
0B814:  BCF    F8B.5
0B816:  BCF    F94.5
....................             if(Flanco == 0) 
0B818:  MOVLB  6
0B81A:  BTFSC  x22.4
0B81C:  BRA    B832
....................                {Flanco = 1;delay_ms(30);Opcion--;visual=1; 
0B81E:  BSF    x22.4
0B820:  MOVLW  1E
0B822:  MOVLB  9
0B824:  MOVWF  x1D
0B826:  MOVLB  0
0B828:  CALL   13A4
0B82C:  MOVLB  6
0B82E:  DECF   x3F,F
0B830:  BSF    x22.7
....................                } 
....................          } 
....................             else 
0B832:  BRA    B838
....................                {Flanco = 0;} 
0B834:  MOVLB  6
0B836:  BCF    x22.4
....................                    
....................          if(DOWN)//Si oprime hacia abajo 
0B838:  BSF    F96.0
0B83A:  BTFSC  F84.0
0B83C:  BRA    B86E
....................          { 
....................             Buzz_on;delay_ms(10);Buzz_off; 
0B83E:  BSF    F8B.5
0B840:  BCF    F94.5
0B842:  MOVLW  0A
0B844:  MOVLB  9
0B846:  MOVWF  x1D
0B848:  MOVLB  0
0B84A:  CALL   13A4
0B84E:  BCF    F8B.5
0B850:  BCF    F94.5
....................             if(Flanco2 == 0) 
0B852:  MOVLB  6
0B854:  BTFSC  x22.6
0B856:  BRA    B86C
....................                {Flanco2 = 1;delay_ms(30);Opcion++;visual=1; 
0B858:  BSF    x22.6
0B85A:  MOVLW  1E
0B85C:  MOVLB  9
0B85E:  MOVWF  x1D
0B860:  MOVLB  0
0B862:  CALL   13A4
0B866:  MOVLB  6
0B868:  INCF   x3F,F
0B86A:  BSF    x22.7
....................                }      
....................          } 
....................             else 
0B86C:  BRA    B870
....................                {Flanco2 = 0;}   
0B86E:  BCF    x22.6
....................                 
....................          if(RIGHT)//Si oprime SET 
0B870:  BSF    F96.1
0B872:  BTFSC  F84.1
0B874:  BRA    B8BA
....................          {   
....................             Buzz_on;delay_ms(10);Buzz_off; 
0B876:  BSF    F8B.5
0B878:  BCF    F94.5
0B87A:  MOVLW  0A
0B87C:  MOVLB  9
0B87E:  MOVWF  x1D
0B880:  MOVLB  0
0B882:  CALL   13A4
0B886:  BCF    F8B.5
0B888:  BCF    F94.5
....................             if(Flanco1 == 0) 
0B88A:  MOVLB  6
0B88C:  BTFSC  x22.5
0B88E:  BRA    B8B8
....................                {Flanco1 = 1;delay_ms(30);Menu=Opcion+100;Opcion=1;glcd_fillscreen(OFF);visual=1; 
0B890:  BSF    x22.5
0B892:  MOVLW  1E
0B894:  MOVLB  9
0B896:  MOVWF  x1D
0B898:  MOVLB  0
0B89A:  CALL   13A4
0B89E:  MOVLW  64
0B8A0:  MOVLB  6
0B8A2:  ADDWF  x3F,W
0B8A4:  MOVWF  x38
0B8A6:  MOVLW  01
0B8A8:  MOVWF  x3F
0B8AA:  MOVLB  9
0B8AC:  CLRF   x0E
0B8AE:  MOVLB  0
0B8B0:  CALL   1424
0B8B4:  MOVLB  6
0B8B6:  BSF    x22.7
....................                } 
....................          } 
....................             else 
0B8B8:  BRA    B8BC
....................                {Flanco1 = 0;}  
0B8BA:  BCF    x22.5
....................                 
....................          if(LEFT)//Si oprime boton de Toma. 
0B8BC:  BSF    F96.2
0B8BE:  BTFSC  F84.2
0B8C0:  BRA    B904
....................          { 
....................             Buzz_on;delay_ms(10);Buzz_off; 
0B8C2:  BSF    F8B.5
0B8C4:  BCF    F94.5
0B8C6:  MOVLW  0A
0B8C8:  MOVLB  9
0B8CA:  MOVWF  x1D
0B8CC:  MOVLB  0
0B8CE:  CALL   13A4
0B8D2:  BCF    F8B.5
0B8D4:  BCF    F94.5
....................             delay_ms(700);Menu=1;glcd_fillscreen(OFF);Opcion=1;visual=1;             
0B8D6:  MOVLW  04
0B8D8:  MOVLB  9
0B8DA:  MOVWF  x07
0B8DC:  MOVLW  AF
0B8DE:  MOVWF  x1D
0B8E0:  MOVLB  0
0B8E2:  CALL   13A4
0B8E6:  MOVLB  9
0B8E8:  DECFSZ x07,F
0B8EA:  BRA    B8DC
0B8EC:  MOVLW  01
0B8EE:  MOVLB  6
0B8F0:  MOVWF  x38
0B8F2:  MOVLB  9
0B8F4:  CLRF   x0E
0B8F6:  MOVLB  0
0B8F8:  CALL   1424
0B8FC:  MOVLW  01
0B8FE:  MOVLB  6
0B900:  MOVWF  x3F
0B902:  BSF    x22.7
....................          }       
....................          
....................     } 
.................... //_--------------------------------------------------------------------------------------------------------------------------------------------------------        
....................  
.................... //_--------------------------------------------------------------------------------------------------------------------------------------------------------       
....................       if(Menu==101){ // Menu de Ajuste de Ganancia 
0B904:  MOVF   x38,W
0B906:  SUBLW  65
0B908:  BTFSS  FD8.2
0B90A:  BRA    BBB4
....................        
....................       if(Ganancia>40) 
0B90C:  MOVLB  9
0B90E:  CLRF   x0A
0B910:  CLRF   x09
0B912:  MOVLW  20
0B914:  MOVWF  x08
0B916:  MOVLW  84
0B918:  MOVWF  x07
0B91A:  MOVFF  6BA,90E
0B91E:  MOVFF  6B9,90D
0B922:  MOVFF  6B8,90C
0B926:  MOVFF  6B7,90B
0B92A:  MOVLB  0
0B92C:  CALL   1D90
0B930:  BNC   B93E
....................       { 
....................          Ganancia=2; 
0B932:  MOVLB  6
0B934:  CLRF   xBA
0B936:  CLRF   xB9
0B938:  CLRF   xB8
0B93A:  MOVLW  80
0B93C:  MOVWF  xB7
....................       } 
....................        
....................       if(visual==1) 
0B93E:  MOVLB  6
0B940:  BTFSS  x22.7
0B942:  BRA    B9CA
....................       { 
....................          glcd_fillScreen(OFF); 
0B944:  MOVLB  9
0B946:  CLRF   x0E
0B948:  MOVLB  0
0B94A:  CALL   1424
....................          strcpy(Menus.Letra,"P"); 
0B94E:  MOVLW  08
0B950:  MOVWF  FEA
0B952:  MOVLW  E7
0B954:  MOVWF  FE9
0B956:  MOVFF  FF2,907
0B95A:  BCF    FF2.7
0B95C:  MOVLW  00
0B95E:  CALL   11D4
0B962:  TBLRD*-
0B964:  TBLRD*+
0B966:  MOVF   FF5,W
0B968:  MOVWF  FEE
0B96A:  IORLW  00
0B96C:  BNZ   B964
0B96E:  MOVLB  9
0B970:  BTFSC  x07.7
0B972:  BSF    FF2.7
....................          displayMenu(Menus.Letra,0,0,1,2); 
0B974:  MOVLW  08
0B976:  MOVWF  x0F
0B978:  MOVLW  E7
0B97A:  MOVWF  x0E
0B97C:  CLRF   x10
0B97E:  CLRF   x11
0B980:  MOVLW  01
0B982:  MOVWF  x12
0B984:  MOVLW  02
0B986:  MOVWF  x13
0B988:  MOVLB  0
0B98A:  CALL   1A52
....................           
....................          displayTemperatura(Ganancia,30,30,0,3); 
0B98E:  MOVFF  6BA,916
0B992:  MOVFF  6B9,915
0B996:  MOVFF  6B8,914
0B99A:  MOVFF  6B7,913
0B99E:  CALL   37CA
0B9A2:  MOVFF  02,908
0B9A6:  MOVFF  01,907
0B9AA:  MOVFF  02,90D
0B9AE:  MOVFF  01,90C
0B9B2:  MOVLW  1E
0B9B4:  MOVLB  9
0B9B6:  MOVWF  x0E
0B9B8:  MOVWF  x0F
0B9BA:  CLRF   x10
0B9BC:  MOVLW  03
0B9BE:  MOVWF  x11
0B9C0:  MOVLB  0
0B9C2:  CALL   43BA
....................           
....................          visual=0; 
0B9C6:  MOVLB  6
0B9C8:  BCF    x22.7
....................       } 
....................        
....................          if(UP)//Si oprime hacia arriba 
0B9CA:  BSF    F92.5
0B9CC:  BTFSC  F80.5
0B9CE:  BRA    BA70
....................          {   
....................             Buzz_on;delay_ms(10);Buzz_off; 
0B9D0:  BSF    F8B.5
0B9D2:  BCF    F94.5
0B9D4:  MOVLW  0A
0B9D6:  MOVLB  9
0B9D8:  MOVWF  x1D
0B9DA:  MOVLB  0
0B9DC:  CALL   13A4
0B9E0:  BCF    F8B.5
0B9E2:  BCF    F94.5
....................             if(Ganancia>40) 
0B9E4:  MOVLB  9
0B9E6:  CLRF   x0A
0B9E8:  CLRF   x09
0B9EA:  MOVLW  20
0B9EC:  MOVWF  x08
0B9EE:  MOVLW  84
0B9F0:  MOVWF  x07
0B9F2:  MOVFF  6BA,90E
0B9F6:  MOVFF  6B9,90D
0B9FA:  MOVFF  6B8,90C
0B9FE:  MOVFF  6B7,90B
0BA02:  MOVLB  0
0BA04:  CALL   1D90
0BA08:  BNC   BA2C
....................             { 
....................                Ganancia=40;delay_ms(100);visual=1; 
0BA0A:  MOVLB  6
0BA0C:  CLRF   xBA
0BA0E:  CLRF   xB9
0BA10:  MOVLW  20
0BA12:  MOVWF  xB8
0BA14:  MOVLW  84
0BA16:  MOVWF  xB7
0BA18:  MOVLW  64
0BA1A:  MOVLB  9
0BA1C:  MOVWF  x1D
0BA1E:  MOVLB  0
0BA20:  CALL   13A4
0BA24:  MOVLB  6
0BA26:  BSF    x22.7
....................             } 
....................             else 
0BA28:  BRA    BA70
0BA2A:  MOVLB  0
....................             { 
....................                delay_ms(30);Ganancia+=1.0;visual=1; 
0BA2C:  MOVLW  1E
0BA2E:  MOVLB  9
0BA30:  MOVWF  x1D
0BA32:  MOVLB  0
0BA34:  CALL   13A4
0BA38:  BCF    FD8.1
0BA3A:  MOVFF  6BA,91D
0BA3E:  MOVFF  6B9,91C
0BA42:  MOVFF  6B8,91B
0BA46:  MOVFF  6B7,91A
0BA4A:  MOVLB  9
0BA4C:  CLRF   x21
0BA4E:  CLRF   x20
0BA50:  CLRF   x1F
0BA52:  MOVLW  7F
0BA54:  MOVWF  x1E
0BA56:  MOVLB  0
0BA58:  CALL   1F68
0BA5C:  MOVFF  03,6BA
0BA60:  MOVFF  02,6B9
0BA64:  MOVFF  01,6B8
0BA68:  MOVFF  00,6B7
0BA6C:  MOVLB  6
0BA6E:  BSF    x22.7
....................             } 
....................          } 
....................                 
....................          if(DOWN)//Si oprime hacia abajo 
0BA70:  BSF    F96.0
0BA72:  BTFSC  F84.0
0BA74:  BRA    BAF2
....................          {   
....................             Buzz_on;delay_ms(10);Buzz_off; 
0BA76:  BSF    F8B.5
0BA78:  BCF    F94.5
0BA7A:  MOVLW  0A
0BA7C:  MOVLB  9
0BA7E:  MOVWF  x1D
0BA80:  MOVLB  0
0BA82:  CALL   13A4
0BA86:  BCF    F8B.5
0BA88:  BCF    F94.5
....................             if(Ganancia>1) 
0BA8A:  MOVLB  9
0BA8C:  CLRF   x0A
0BA8E:  CLRF   x09
0BA90:  CLRF   x08
0BA92:  MOVLW  7F
0BA94:  MOVWF  x07
0BA96:  MOVFF  6BA,90E
0BA9A:  MOVFF  6B9,90D
0BA9E:  MOVFF  6B8,90C
0BAA2:  MOVFF  6B7,90B
0BAA6:  MOVLB  0
0BAA8:  CALL   1D90
0BAAC:  BNC   BAF4
....................             { 
....................                delay_ms(30);Ganancia-=1.0;visual=1;      
0BAAE:  MOVLW  1E
0BAB0:  MOVLB  9
0BAB2:  MOVWF  x1D
0BAB4:  MOVLB  0
0BAB6:  CALL   13A4
0BABA:  BSF    FD8.1
0BABC:  MOVFF  6BA,91D
0BAC0:  MOVFF  6B9,91C
0BAC4:  MOVFF  6B8,91B
0BAC8:  MOVFF  6B7,91A
0BACC:  MOVLB  9
0BACE:  CLRF   x21
0BAD0:  CLRF   x20
0BAD2:  CLRF   x1F
0BAD4:  MOVLW  7F
0BAD6:  MOVWF  x1E
0BAD8:  MOVLB  0
0BADA:  CALL   1F68
0BADE:  MOVFF  03,6BA
0BAE2:  MOVFF  02,6B9
0BAE6:  MOVFF  01,6B8
0BAEA:  MOVFF  00,6B7
0BAEE:  MOVLB  6
0BAF0:  BSF    x22.7
0BAF2:  MOVLB  0
....................             } 
....................          } 
....................                 
....................          if(RIGHT)//Si oprime SET 
0BAF4:  BSF    F96.1
0BAF6:  BTFSC  F84.1
0BAF8:  BRA    BB20
....................          {   
....................             Buzz_on;delay_ms(10);Buzz_off; 
0BAFA:  BSF    F8B.5
0BAFC:  BCF    F94.5
0BAFE:  MOVLW  0A
0BB00:  MOVLB  9
0BB02:  MOVWF  x1D
0BB04:  MOVLB  0
0BB06:  CALL   13A4
0BB0A:  BCF    F8B.5
0BB0C:  BCF    F94.5
....................             delay_ms(30);visual=1; 
0BB0E:  MOVLW  1E
0BB10:  MOVLB  9
0BB12:  MOVWF  x1D
0BB14:  MOVLB  0
0BB16:  CALL   13A4
0BB1A:  MOVLB  6
0BB1C:  BSF    x22.7
0BB1E:  MOVLB  0
....................          }  
....................                    
....................          if(LEFT)//Si oprime boton de Toma. 
0BB20:  BSF    F96.2
0BB22:  BTFSC  F84.2
0BB24:  BRA    BBB2
....................          { 
....................             Buzz_on;delay_ms(10);Buzz_off; 
0BB26:  BSF    F8B.5
0BB28:  BCF    F94.5
0BB2A:  MOVLW  0A
0BB2C:  MOVLB  9
0BB2E:  MOVWF  x1D
0BB30:  MOVLB  0
0BB32:  CALL   13A4
0BB36:  BCF    F8B.5
0BB38:  BCF    F94.5
....................             delay_ms(700);Menu=100;glcd_fillscreen(OFF);Opcion=1;visual=1; 
0BB3A:  MOVLW  04
0BB3C:  MOVLB  9
0BB3E:  MOVWF  x07
0BB40:  MOVLW  AF
0BB42:  MOVWF  x1D
0BB44:  MOVLB  0
0BB46:  CALL   13A4
0BB4A:  MOVLB  9
0BB4C:  DECFSZ x07,F
0BB4E:  BRA    BB40
0BB50:  MOVLW  64
0BB52:  MOVLB  6
0BB54:  MOVWF  x38
0BB56:  MOVLB  9
0BB58:  CLRF   x0E
0BB5A:  MOVLB  0
0BB5C:  CALL   1424
0BB60:  MOVLW  01
0BB62:  MOVLB  6
0BB64:  MOVWF  x3F
0BB66:  BSF    x22.7
....................             write_eeprom(450,(int8)Ganancia); 
0BB68:  MOVFF  6BA,916
0BB6C:  MOVFF  6B9,915
0BB70:  MOVFF  6B8,914
0BB74:  MOVFF  6B7,913
0BB78:  MOVLB  0
0BB7A:  CALL   37CA
0BB7E:  MOVFF  01,907
0BB82:  MOVLW  01
0BB84:  MOVWF  FAA
0BB86:  MOVLW  C2
0BB88:  MOVWF  FA9
0BB8A:  MOVFF  907,FA8
0BB8E:  BCF    FA6.6
0BB90:  BCF    FA6.7
0BB92:  BSF    FA6.2
0BB94:  MOVF   FF2,W
0BB96:  MOVWF  00
0BB98:  BCF    FF2.7
0BB9A:  MOVLB  F
0BB9C:  MOVLW  55
0BB9E:  MOVWF  FA7
0BBA0:  MOVLW  AA
0BBA2:  MOVWF  FA7
0BBA4:  BSF    FA6.1
0BBA6:  BTFSC  FA6.1
0BBA8:  BRA    BBA6
0BBAA:  BCF    FA6.2
0BBAC:  MOVF   00,W
0BBAE:  IORWF  FF2,F
0BBB0:  MOVLB  0
0BBB2:  MOVLB  6
....................          } 
....................      } 
.................... //_-------------------------------------------------------------------------------------------------------------------------------------------------------- 
....................  
.................... //_--------------------------------------------------------------------------------------------------------------------------------------------------------       
....................       if(Menu==102){ // Menu de Ajuste de Integral 
0BBB4:  MOVF   x38,W
0BBB6:  SUBLW  66
0BBB8:  BTFSS  FD8.2
0BBBA:  BRA    BE64
....................        
....................       if(Integral>40) 
0BBBC:  MOVLB  9
0BBBE:  CLRF   x0A
0BBC0:  CLRF   x09
0BBC2:  MOVLW  20
0BBC4:  MOVWF  x08
0BBC6:  MOVLW  84
0BBC8:  MOVWF  x07
0BBCA:  MOVFF  6DE,90E
0BBCE:  MOVFF  6DD,90D
0BBD2:  MOVFF  6DC,90C
0BBD6:  MOVFF  6DB,90B
0BBDA:  MOVLB  0
0BBDC:  CALL   1D90
0BBE0:  BNC   BBEE
....................       { 
....................          Integral=1; 
0BBE2:  MOVLB  6
0BBE4:  CLRF   xDE
0BBE6:  CLRF   xDD
0BBE8:  CLRF   xDC
0BBEA:  MOVLW  7F
0BBEC:  MOVWF  xDB
....................       } 
....................        
....................       if(visual==1) 
0BBEE:  MOVLB  6
0BBF0:  BTFSS  x22.7
0BBF2:  BRA    BC7A
....................       { 
....................          glcd_fillScreen(OFF); 
0BBF4:  MOVLB  9
0BBF6:  CLRF   x0E
0BBF8:  MOVLB  0
0BBFA:  CALL   1424
....................          strcpy(Menus.Letra,"I"); 
0BBFE:  MOVLW  08
0BC00:  MOVWF  FEA
0BC02:  MOVLW  E7
0BC04:  MOVWF  FE9
0BC06:  MOVFF  FF2,907
0BC0A:  BCF    FF2.7
0BC0C:  MOVLW  00
0BC0E:  CALL   11F4
0BC12:  TBLRD*-
0BC14:  TBLRD*+
0BC16:  MOVF   FF5,W
0BC18:  MOVWF  FEE
0BC1A:  IORLW  00
0BC1C:  BNZ   BC14
0BC1E:  MOVLB  9
0BC20:  BTFSC  x07.7
0BC22:  BSF    FF2.7
....................          displayMenu(Menus.Letra,0,0,1,2); 
0BC24:  MOVLW  08
0BC26:  MOVWF  x0F
0BC28:  MOVLW  E7
0BC2A:  MOVWF  x0E
0BC2C:  CLRF   x10
0BC2E:  CLRF   x11
0BC30:  MOVLW  01
0BC32:  MOVWF  x12
0BC34:  MOVLW  02
0BC36:  MOVWF  x13
0BC38:  MOVLB  0
0BC3A:  CALL   1A52
....................           
....................          displayTemperatura(Integral,30,30,0,3); 
0BC3E:  MOVFF  6DE,916
0BC42:  MOVFF  6DD,915
0BC46:  MOVFF  6DC,914
0BC4A:  MOVFF  6DB,913
0BC4E:  CALL   37CA
0BC52:  MOVFF  02,908
0BC56:  MOVFF  01,907
0BC5A:  MOVFF  02,90D
0BC5E:  MOVFF  01,90C
0BC62:  MOVLW  1E
0BC64:  MOVLB  9
0BC66:  MOVWF  x0E
0BC68:  MOVWF  x0F
0BC6A:  CLRF   x10
0BC6C:  MOVLW  03
0BC6E:  MOVWF  x11
0BC70:  MOVLB  0
0BC72:  CALL   43BA
....................           
....................          visual=0; 
0BC76:  MOVLB  6
0BC78:  BCF    x22.7
....................       } 
....................        
....................          if(UP)//Si oprime hacia arriba 
0BC7A:  BSF    F92.5
0BC7C:  BTFSC  F80.5
0BC7E:  BRA    BD20
....................          {   
....................             Buzz_on;delay_ms(10);Buzz_off; 
0BC80:  BSF    F8B.5
0BC82:  BCF    F94.5
0BC84:  MOVLW  0A
0BC86:  MOVLB  9
0BC88:  MOVWF  x1D
0BC8A:  MOVLB  0
0BC8C:  CALL   13A4
0BC90:  BCF    F8B.5
0BC92:  BCF    F94.5
....................             if(Integral>40) 
0BC94:  MOVLB  9
0BC96:  CLRF   x0A
0BC98:  CLRF   x09
0BC9A:  MOVLW  20
0BC9C:  MOVWF  x08
0BC9E:  MOVLW  84
0BCA0:  MOVWF  x07
0BCA2:  MOVFF  6DE,90E
0BCA6:  MOVFF  6DD,90D
0BCAA:  MOVFF  6DC,90C
0BCAE:  MOVFF  6DB,90B
0BCB2:  MOVLB  0
0BCB4:  CALL   1D90
0BCB8:  BNC   BCDC
....................             { 
....................                Integral=40;delay_ms(100);visual=1; 
0BCBA:  MOVLB  6
0BCBC:  CLRF   xDE
0BCBE:  CLRF   xDD
0BCC0:  MOVLW  20
0BCC2:  MOVWF  xDC
0BCC4:  MOVLW  84
0BCC6:  MOVWF  xDB
0BCC8:  MOVLW  64
0BCCA:  MOVLB  9
0BCCC:  MOVWF  x1D
0BCCE:  MOVLB  0
0BCD0:  CALL   13A4
0BCD4:  MOVLB  6
0BCD6:  BSF    x22.7
....................             } 
....................             else 
0BCD8:  BRA    BD20
0BCDA:  MOVLB  0
....................             { 
....................                delay_ms(30);Integral+=1.0;visual=1; 
0BCDC:  MOVLW  1E
0BCDE:  MOVLB  9
0BCE0:  MOVWF  x1D
0BCE2:  MOVLB  0
0BCE4:  CALL   13A4
0BCE8:  BCF    FD8.1
0BCEA:  MOVFF  6DE,91D
0BCEE:  MOVFF  6DD,91C
0BCF2:  MOVFF  6DC,91B
0BCF6:  MOVFF  6DB,91A
0BCFA:  MOVLB  9
0BCFC:  CLRF   x21
0BCFE:  CLRF   x20
0BD00:  CLRF   x1F
0BD02:  MOVLW  7F
0BD04:  MOVWF  x1E
0BD06:  MOVLB  0
0BD08:  CALL   1F68
0BD0C:  MOVFF  03,6DE
0BD10:  MOVFF  02,6DD
0BD14:  MOVFF  01,6DC
0BD18:  MOVFF  00,6DB
0BD1C:  MOVLB  6
0BD1E:  BSF    x22.7
....................             } 
....................          } 
....................                 
....................          if(DOWN)//Si oprime hacia abajo 
0BD20:  BSF    F96.0
0BD22:  BTFSC  F84.0
0BD24:  BRA    BDA2
....................          {   
....................             Buzz_on;delay_ms(10);Buzz_off; 
0BD26:  BSF    F8B.5
0BD28:  BCF    F94.5
0BD2A:  MOVLW  0A
0BD2C:  MOVLB  9
0BD2E:  MOVWF  x1D
0BD30:  MOVLB  0
0BD32:  CALL   13A4
0BD36:  BCF    F8B.5
0BD38:  BCF    F94.5
....................             if(Integral>1) 
0BD3A:  MOVLB  9
0BD3C:  CLRF   x0A
0BD3E:  CLRF   x09
0BD40:  CLRF   x08
0BD42:  MOVLW  7F
0BD44:  MOVWF  x07
0BD46:  MOVFF  6DE,90E
0BD4A:  MOVFF  6DD,90D
0BD4E:  MOVFF  6DC,90C
0BD52:  MOVFF  6DB,90B
0BD56:  MOVLB  0
0BD58:  CALL   1D90
0BD5C:  BNC   BDA4
....................             { 
....................                delay_ms(30);Integral-=1.0;visual=1;      
0BD5E:  MOVLW  1E
0BD60:  MOVLB  9
0BD62:  MOVWF  x1D
0BD64:  MOVLB  0
0BD66:  CALL   13A4
0BD6A:  BSF    FD8.1
0BD6C:  MOVFF  6DE,91D
0BD70:  MOVFF  6DD,91C
0BD74:  MOVFF  6DC,91B
0BD78:  MOVFF  6DB,91A
0BD7C:  MOVLB  9
0BD7E:  CLRF   x21
0BD80:  CLRF   x20
0BD82:  CLRF   x1F
0BD84:  MOVLW  7F
0BD86:  MOVWF  x1E
0BD88:  MOVLB  0
0BD8A:  CALL   1F68
0BD8E:  MOVFF  03,6DE
0BD92:  MOVFF  02,6DD
0BD96:  MOVFF  01,6DC
0BD9A:  MOVFF  00,6DB
0BD9E:  MOVLB  6
0BDA0:  BSF    x22.7
0BDA2:  MOVLB  0
....................             } 
....................          } 
....................                 
....................          if(RIGHT)//Si oprime SET 
0BDA4:  BSF    F96.1
0BDA6:  BTFSC  F84.1
0BDA8:  BRA    BDD0
....................          {   
....................             Buzz_on;delay_ms(10);Buzz_off; 
0BDAA:  BSF    F8B.5
0BDAC:  BCF    F94.5
0BDAE:  MOVLW  0A
0BDB0:  MOVLB  9
0BDB2:  MOVWF  x1D
0BDB4:  MOVLB  0
0BDB6:  CALL   13A4
0BDBA:  BCF    F8B.5
0BDBC:  BCF    F94.5
....................             delay_ms(30);visual=1; 
0BDBE:  MOVLW  1E
0BDC0:  MOVLB  9
0BDC2:  MOVWF  x1D
0BDC4:  MOVLB  0
0BDC6:  CALL   13A4
0BDCA:  MOVLB  6
0BDCC:  BSF    x22.7
0BDCE:  MOVLB  0
....................          }  
....................                    
....................          if(LEFT)//Si oprime boton de Toma. 
0BDD0:  BSF    F96.2
0BDD2:  BTFSC  F84.2
0BDD4:  BRA    BE62
....................          { 
....................             Buzz_on;delay_ms(10);Buzz_off; 
0BDD6:  BSF    F8B.5
0BDD8:  BCF    F94.5
0BDDA:  MOVLW  0A
0BDDC:  MOVLB  9
0BDDE:  MOVWF  x1D
0BDE0:  MOVLB  0
0BDE2:  CALL   13A4
0BDE6:  BCF    F8B.5
0BDE8:  BCF    F94.5
....................             delay_ms(700);Menu=100;glcd_fillscreen(OFF);Opcion=1;visual=1; 
0BDEA:  MOVLW  04
0BDEC:  MOVLB  9
0BDEE:  MOVWF  x07
0BDF0:  MOVLW  AF
0BDF2:  MOVWF  x1D
0BDF4:  MOVLB  0
0BDF6:  CALL   13A4
0BDFA:  MOVLB  9
0BDFC:  DECFSZ x07,F
0BDFE:  BRA    BDF0
0BE00:  MOVLW  64
0BE02:  MOVLB  6
0BE04:  MOVWF  x38
0BE06:  MOVLB  9
0BE08:  CLRF   x0E
0BE0A:  MOVLB  0
0BE0C:  CALL   1424
0BE10:  MOVLW  01
0BE12:  MOVLB  6
0BE14:  MOVWF  x3F
0BE16:  BSF    x22.7
....................             write_eeprom(470,(int8)Integral); 
0BE18:  MOVFF  6DE,916
0BE1C:  MOVFF  6DD,915
0BE20:  MOVFF  6DC,914
0BE24:  MOVFF  6DB,913
0BE28:  MOVLB  0
0BE2A:  CALL   37CA
0BE2E:  MOVFF  01,907
0BE32:  MOVLW  01
0BE34:  MOVWF  FAA
0BE36:  MOVLW  D6
0BE38:  MOVWF  FA9
0BE3A:  MOVFF  907,FA8
0BE3E:  BCF    FA6.6
0BE40:  BCF    FA6.7
0BE42:  BSF    FA6.2
0BE44:  MOVF   FF2,W
0BE46:  MOVWF  00
0BE48:  BCF    FF2.7
0BE4A:  MOVLB  F
0BE4C:  MOVLW  55
0BE4E:  MOVWF  FA7
0BE50:  MOVLW  AA
0BE52:  MOVWF  FA7
0BE54:  BSF    FA6.1
0BE56:  BTFSC  FA6.1
0BE58:  BRA    BE56
0BE5A:  BCF    FA6.2
0BE5C:  MOVF   00,W
0BE5E:  IORWF  FF2,F
0BE60:  MOVLB  0
0BE62:  MOVLB  6
....................          } 
....................      } 
.................... //_-------------------------------------------------------------------------------------------------------------------------------------------------------- 
....................  
.................... //_--------------------------------------------------------------------------------------------------------------------------------------------------------       
....................       if(Menu==103){ // Menu de Ajuste de Derivativo 
0BE64:  MOVF   x38,W
0BE66:  SUBLW  67
0BE68:  BTFSS  FD8.2
0BE6A:  BRA    C114
....................        
....................       if(Derivativo>200) 
0BE6C:  MOVLB  9
0BE6E:  CLRF   x0A
0BE70:  CLRF   x09
0BE72:  MOVLW  48
0BE74:  MOVWF  x08
0BE76:  MOVLW  86
0BE78:  MOVWF  x07
0BE7A:  MOVFF  6E2,90E
0BE7E:  MOVFF  6E1,90D
0BE82:  MOVFF  6E0,90C
0BE86:  MOVFF  6DF,90B
0BE8A:  MOVLB  0
0BE8C:  CALL   1D90
0BE90:  BNC   BE9E
....................       { 
....................          Derivativo=2; 
0BE92:  MOVLB  6
0BE94:  CLRF   xE2
0BE96:  CLRF   xE1
0BE98:  CLRF   xE0
0BE9A:  MOVLW  80
0BE9C:  MOVWF  xDF
....................       } 
....................        
....................       if(visual==1) 
0BE9E:  MOVLB  6
0BEA0:  BTFSS  x22.7
0BEA2:  BRA    BF2A
....................       { 
....................          glcd_fillScreen(OFF); 
0BEA4:  MOVLB  9
0BEA6:  CLRF   x0E
0BEA8:  MOVLB  0
0BEAA:  CALL   1424
....................          strcpy(Menus.Letra,"D"); 
0BEAE:  MOVLW  08
0BEB0:  MOVWF  FEA
0BEB2:  MOVLW  E7
0BEB4:  MOVWF  FE9
0BEB6:  MOVFF  FF2,907
0BEBA:  BCF    FF2.7
0BEBC:  MOVLW  00
0BEBE:  CALL   1214
0BEC2:  TBLRD*-
0BEC4:  TBLRD*+
0BEC6:  MOVF   FF5,W
0BEC8:  MOVWF  FEE
0BECA:  IORLW  00
0BECC:  BNZ   BEC4
0BECE:  MOVLB  9
0BED0:  BTFSC  x07.7
0BED2:  BSF    FF2.7
....................          displayMenu(Menus.Letra,0,0,1,2); 
0BED4:  MOVLW  08
0BED6:  MOVWF  x0F
0BED8:  MOVLW  E7
0BEDA:  MOVWF  x0E
0BEDC:  CLRF   x10
0BEDE:  CLRF   x11
0BEE0:  MOVLW  01
0BEE2:  MOVWF  x12
0BEE4:  MOVLW  02
0BEE6:  MOVWF  x13
0BEE8:  MOVLB  0
0BEEA:  CALL   1A52
....................           
....................          displayTemperatura(Derivativo,30,30,0,3); 
0BEEE:  MOVFF  6E2,916
0BEF2:  MOVFF  6E1,915
0BEF6:  MOVFF  6E0,914
0BEFA:  MOVFF  6DF,913
0BEFE:  CALL   37CA
0BF02:  MOVFF  02,908
0BF06:  MOVFF  01,907
0BF0A:  MOVFF  02,90D
0BF0E:  MOVFF  01,90C
0BF12:  MOVLW  1E
0BF14:  MOVLB  9
0BF16:  MOVWF  x0E
0BF18:  MOVWF  x0F
0BF1A:  CLRF   x10
0BF1C:  MOVLW  03
0BF1E:  MOVWF  x11
0BF20:  MOVLB  0
0BF22:  CALL   43BA
....................           
....................          visual=0; 
0BF26:  MOVLB  6
0BF28:  BCF    x22.7
....................       } 
....................        
....................          if(UP)//Si oprime hacia arriba 
0BF2A:  BSF    F92.5
0BF2C:  BTFSC  F80.5
0BF2E:  BRA    BFD0
....................          {   
....................             Buzz_on;delay_ms(10);Buzz_off; 
0BF30:  BSF    F8B.5
0BF32:  BCF    F94.5
0BF34:  MOVLW  0A
0BF36:  MOVLB  9
0BF38:  MOVWF  x1D
0BF3A:  MOVLB  0
0BF3C:  CALL   13A4
0BF40:  BCF    F8B.5
0BF42:  BCF    F94.5
....................             if(Derivativo>200) 
0BF44:  MOVLB  9
0BF46:  CLRF   x0A
0BF48:  CLRF   x09
0BF4A:  MOVLW  48
0BF4C:  MOVWF  x08
0BF4E:  MOVLW  86
0BF50:  MOVWF  x07
0BF52:  MOVFF  6E2,90E
0BF56:  MOVFF  6E1,90D
0BF5A:  MOVFF  6E0,90C
0BF5E:  MOVFF  6DF,90B
0BF62:  MOVLB  0
0BF64:  CALL   1D90
0BF68:  BNC   BF8C
....................             { 
....................                Derivativo=200;delay_ms(100);visual=1; 
0BF6A:  MOVLB  6
0BF6C:  CLRF   xE2
0BF6E:  CLRF   xE1
0BF70:  MOVLW  48
0BF72:  MOVWF  xE0
0BF74:  MOVLW  86
0BF76:  MOVWF  xDF
0BF78:  MOVLW  64
0BF7A:  MOVLB  9
0BF7C:  MOVWF  x1D
0BF7E:  MOVLB  0
0BF80:  CALL   13A4
0BF84:  MOVLB  6
0BF86:  BSF    x22.7
....................             } 
....................             else 
0BF88:  BRA    BFD0
0BF8A:  MOVLB  0
....................             { 
....................                delay_ms(30);Derivativo+=1.0;visual=1; 
0BF8C:  MOVLW  1E
0BF8E:  MOVLB  9
0BF90:  MOVWF  x1D
0BF92:  MOVLB  0
0BF94:  CALL   13A4
0BF98:  BCF    FD8.1
0BF9A:  MOVFF  6E2,91D
0BF9E:  MOVFF  6E1,91C
0BFA2:  MOVFF  6E0,91B
0BFA6:  MOVFF  6DF,91A
0BFAA:  MOVLB  9
0BFAC:  CLRF   x21
0BFAE:  CLRF   x20
0BFB0:  CLRF   x1F
0BFB2:  MOVLW  7F
0BFB4:  MOVWF  x1E
0BFB6:  MOVLB  0
0BFB8:  CALL   1F68
0BFBC:  MOVFF  03,6E2
0BFC0:  MOVFF  02,6E1
0BFC4:  MOVFF  01,6E0
0BFC8:  MOVFF  00,6DF
0BFCC:  MOVLB  6
0BFCE:  BSF    x22.7
....................             } 
....................          } 
....................                 
....................          if(DOWN)//Si oprime hacia abajo 
0BFD0:  BSF    F96.0
0BFD2:  BTFSC  F84.0
0BFD4:  BRA    C052
....................          {   
....................             Buzz_on;delay_ms(10);Buzz_off; 
0BFD6:  BSF    F8B.5
0BFD8:  BCF    F94.5
0BFDA:  MOVLW  0A
0BFDC:  MOVLB  9
0BFDE:  MOVWF  x1D
0BFE0:  MOVLB  0
0BFE2:  CALL   13A4
0BFE6:  BCF    F8B.5
0BFE8:  BCF    F94.5
....................             if(Derivativo>1) 
0BFEA:  MOVLB  9
0BFEC:  CLRF   x0A
0BFEE:  CLRF   x09
0BFF0:  CLRF   x08
0BFF2:  MOVLW  7F
0BFF4:  MOVWF  x07
0BFF6:  MOVFF  6E2,90E
0BFFA:  MOVFF  6E1,90D
0BFFE:  MOVFF  6E0,90C
0C002:  MOVFF  6DF,90B
0C006:  MOVLB  0
0C008:  CALL   1D90
0C00C:  BNC   C054
....................             { 
....................                delay_ms(30);Derivativo-=1.0;visual=1;      
0C00E:  MOVLW  1E
0C010:  MOVLB  9
0C012:  MOVWF  x1D
0C014:  MOVLB  0
0C016:  CALL   13A4
0C01A:  BSF    FD8.1
0C01C:  MOVFF  6E2,91D
0C020:  MOVFF  6E1,91C
0C024:  MOVFF  6E0,91B
0C028:  MOVFF  6DF,91A
0C02C:  MOVLB  9
0C02E:  CLRF   x21
0C030:  CLRF   x20
0C032:  CLRF   x1F
0C034:  MOVLW  7F
0C036:  MOVWF  x1E
0C038:  MOVLB  0
0C03A:  CALL   1F68
0C03E:  MOVFF  03,6E2
0C042:  MOVFF  02,6E1
0C046:  MOVFF  01,6E0
0C04A:  MOVFF  00,6DF
0C04E:  MOVLB  6
0C050:  BSF    x22.7
0C052:  MOVLB  0
....................             } 
....................          } 
....................                 
....................          if(RIGHT)//Si oprime SET 
0C054:  BSF    F96.1
0C056:  BTFSC  F84.1
0C058:  BRA    C080
....................          {   
....................             Buzz_on;delay_ms(10);Buzz_off; 
0C05A:  BSF    F8B.5
0C05C:  BCF    F94.5
0C05E:  MOVLW  0A
0C060:  MOVLB  9
0C062:  MOVWF  x1D
0C064:  MOVLB  0
0C066:  CALL   13A4
0C06A:  BCF    F8B.5
0C06C:  BCF    F94.5
....................             delay_ms(30);visual=1; 
0C06E:  MOVLW  1E
0C070:  MOVLB  9
0C072:  MOVWF  x1D
0C074:  MOVLB  0
0C076:  CALL   13A4
0C07A:  MOVLB  6
0C07C:  BSF    x22.7
0C07E:  MOVLB  0
....................          }  
....................                    
....................          if(LEFT)//Si oprime boton de Toma. 
0C080:  BSF    F96.2
0C082:  BTFSC  F84.2
0C084:  BRA    C112
....................          { 
....................             Buzz_on;delay_ms(10);Buzz_off; 
0C086:  BSF    F8B.5
0C088:  BCF    F94.5
0C08A:  MOVLW  0A
0C08C:  MOVLB  9
0C08E:  MOVWF  x1D
0C090:  MOVLB  0
0C092:  CALL   13A4
0C096:  BCF    F8B.5
0C098:  BCF    F94.5
....................             delay_ms(700);Menu=100;glcd_fillscreen(OFF);Opcion=1;visual=1; 
0C09A:  MOVLW  04
0C09C:  MOVLB  9
0C09E:  MOVWF  x07
0C0A0:  MOVLW  AF
0C0A2:  MOVWF  x1D
0C0A4:  MOVLB  0
0C0A6:  CALL   13A4
0C0AA:  MOVLB  9
0C0AC:  DECFSZ x07,F
0C0AE:  BRA    C0A0
0C0B0:  MOVLW  64
0C0B2:  MOVLB  6
0C0B4:  MOVWF  x38
0C0B6:  MOVLB  9
0C0B8:  CLRF   x0E
0C0BA:  MOVLB  0
0C0BC:  CALL   1424
0C0C0:  MOVLW  01
0C0C2:  MOVLB  6
0C0C4:  MOVWF  x3F
0C0C6:  BSF    x22.7
....................             write_eeprom(471,(int8)Derivativo); 
0C0C8:  MOVFF  6E2,916
0C0CC:  MOVFF  6E1,915
0C0D0:  MOVFF  6E0,914
0C0D4:  MOVFF  6DF,913
0C0D8:  MOVLB  0
0C0DA:  CALL   37CA
0C0DE:  MOVFF  01,907
0C0E2:  MOVLW  01
0C0E4:  MOVWF  FAA
0C0E6:  MOVLW  D7
0C0E8:  MOVWF  FA9
0C0EA:  MOVFF  907,FA8
0C0EE:  BCF    FA6.6
0C0F0:  BCF    FA6.7
0C0F2:  BSF    FA6.2
0C0F4:  MOVF   FF2,W
0C0F6:  MOVWF  00
0C0F8:  BCF    FF2.7
0C0FA:  MOVLB  F
0C0FC:  MOVLW  55
0C0FE:  MOVWF  FA7
0C100:  MOVLW  AA
0C102:  MOVWF  FA7
0C104:  BSF    FA6.1
0C106:  BTFSC  FA6.1
0C108:  BRA    C106
0C10A:  BCF    FA6.2
0C10C:  MOVF   00,W
0C10E:  IORWF  FF2,F
0C110:  MOVLB  0
0C112:  MOVLB  6
....................          } 
....................      } 
.................... //_-------------------------------------------------------------------------------------------------------------------------------------------------------- 
....................  
....................  
.................... //_--------------------------------------------------------------------------------------------------------------------------------------------------------       
....................       if(Menu==104){ // Menu de Ajuste de Ganancia2 
0C114:  MOVF   x38,W
0C116:  SUBLW  68
0C118:  BTFSS  FD8.2
0C11A:  BRA    C3C6
....................        
....................       if(Tciclo>40) 
0C11C:  MOVLB  9
0C11E:  CLRF   x0A
0C120:  CLRF   x09
0C122:  MOVLW  20
0C124:  MOVWF  x08
0C126:  MOVLW  84
0C128:  MOVWF  x07
0C12A:  MOVFF  69E,90E
0C12E:  MOVFF  69D,90D
0C132:  MOVFF  69C,90C
0C136:  MOVFF  69B,90B
0C13A:  MOVLB  0
0C13C:  CALL   1D90
0C140:  BNC   C150
....................       { 
....................          Tciclo=40; 
0C142:  MOVLB  6
0C144:  CLRF   x9E
0C146:  CLRF   x9D
0C148:  MOVLW  20
0C14A:  MOVWF  x9C
0C14C:  MOVLW  84
0C14E:  MOVWF  x9B
....................       } 
....................        
....................       if(visual==1) 
0C150:  MOVLB  6
0C152:  BTFSS  x22.7
0C154:  BRA    C1DC
....................       { 
....................          glcd_fillScreen(OFF); 
0C156:  MOVLB  9
0C158:  CLRF   x0E
0C15A:  MOVLB  0
0C15C:  CALL   1424
....................          strcpy(Menus.Letra,"Tciclo"); 
0C160:  MOVLW  08
0C162:  MOVWF  FEA
0C164:  MOVLW  E7
0C166:  MOVWF  FE9
0C168:  MOVFF  FF2,907
0C16C:  BCF    FF2.7
0C16E:  MOVLW  00
0C170:  CALL   104E
0C174:  TBLRD*-
0C176:  TBLRD*+
0C178:  MOVF   FF5,W
0C17A:  MOVWF  FEE
0C17C:  IORLW  00
0C17E:  BNZ   C176
0C180:  MOVLB  9
0C182:  BTFSC  x07.7
0C184:  BSF    FF2.7
....................          displayMenu(Menus.Letra,0,0,1,2); 
0C186:  MOVLW  08
0C188:  MOVWF  x0F
0C18A:  MOVLW  E7
0C18C:  MOVWF  x0E
0C18E:  CLRF   x10
0C190:  CLRF   x11
0C192:  MOVLW  01
0C194:  MOVWF  x12
0C196:  MOVLW  02
0C198:  MOVWF  x13
0C19A:  MOVLB  0
0C19C:  CALL   1A52
....................           
....................          displayTemperatura(Tciclo,30,30,0,3); 
0C1A0:  MOVFF  69E,916
0C1A4:  MOVFF  69D,915
0C1A8:  MOVFF  69C,914
0C1AC:  MOVFF  69B,913
0C1B0:  CALL   37CA
0C1B4:  MOVFF  02,908
0C1B8:  MOVFF  01,907
0C1BC:  MOVFF  02,90D
0C1C0:  MOVFF  01,90C
0C1C4:  MOVLW  1E
0C1C6:  MOVLB  9
0C1C8:  MOVWF  x0E
0C1CA:  MOVWF  x0F
0C1CC:  CLRF   x10
0C1CE:  MOVLW  03
0C1D0:  MOVWF  x11
0C1D2:  MOVLB  0
0C1D4:  CALL   43BA
....................           
....................          visual=0; 
0C1D8:  MOVLB  6
0C1DA:  BCF    x22.7
....................       } 
....................        
....................          if(UP)//Si oprime hacia arriba 
0C1DC:  BSF    F92.5
0C1DE:  BTFSC  F80.5
0C1E0:  BRA    C282
....................          {   
....................             Buzz_on;delay_ms(10);Buzz_off; 
0C1E2:  BSF    F8B.5
0C1E4:  BCF    F94.5
0C1E6:  MOVLW  0A
0C1E8:  MOVLB  9
0C1EA:  MOVWF  x1D
0C1EC:  MOVLB  0
0C1EE:  CALL   13A4
0C1F2:  BCF    F8B.5
0C1F4:  BCF    F94.5
....................             if(Tciclo>40) 
0C1F6:  MOVLB  9
0C1F8:  CLRF   x0A
0C1FA:  CLRF   x09
0C1FC:  MOVLW  20
0C1FE:  MOVWF  x08
0C200:  MOVLW  84
0C202:  MOVWF  x07
0C204:  MOVFF  69E,90E
0C208:  MOVFF  69D,90D
0C20C:  MOVFF  69C,90C
0C210:  MOVFF  69B,90B
0C214:  MOVLB  0
0C216:  CALL   1D90
0C21A:  BNC   C23E
....................             { 
....................                Tciclo=40;delay_ms(100);visual=1; 
0C21C:  MOVLB  6
0C21E:  CLRF   x9E
0C220:  CLRF   x9D
0C222:  MOVLW  20
0C224:  MOVWF  x9C
0C226:  MOVLW  84
0C228:  MOVWF  x9B
0C22A:  MOVLW  64
0C22C:  MOVLB  9
0C22E:  MOVWF  x1D
0C230:  MOVLB  0
0C232:  CALL   13A4
0C236:  MOVLB  6
0C238:  BSF    x22.7
....................             } 
....................             else 
0C23A:  BRA    C282
0C23C:  MOVLB  0
....................             { 
....................                delay_ms(30);Tciclo+=1.0;visual=1; 
0C23E:  MOVLW  1E
0C240:  MOVLB  9
0C242:  MOVWF  x1D
0C244:  MOVLB  0
0C246:  CALL   13A4
0C24A:  BCF    FD8.1
0C24C:  MOVFF  69E,91D
0C250:  MOVFF  69D,91C
0C254:  MOVFF  69C,91B
0C258:  MOVFF  69B,91A
0C25C:  MOVLB  9
0C25E:  CLRF   x21
0C260:  CLRF   x20
0C262:  CLRF   x1F
0C264:  MOVLW  7F
0C266:  MOVWF  x1E
0C268:  MOVLB  0
0C26A:  CALL   1F68
0C26E:  MOVFF  03,69E
0C272:  MOVFF  02,69D
0C276:  MOVFF  01,69C
0C27A:  MOVFF  00,69B
0C27E:  MOVLB  6
0C280:  BSF    x22.7
....................             } 
....................          } 
....................                 
....................          if(DOWN)//Si oprime hacia abajo 
0C282:  BSF    F96.0
0C284:  BTFSC  F84.0
0C286:  BRA    C304
....................          {   
....................             Buzz_on;delay_ms(10);Buzz_off; 
0C288:  BSF    F8B.5
0C28A:  BCF    F94.5
0C28C:  MOVLW  0A
0C28E:  MOVLB  9
0C290:  MOVWF  x1D
0C292:  MOVLB  0
0C294:  CALL   13A4
0C298:  BCF    F8B.5
0C29A:  BCF    F94.5
....................             if(Tciclo>1) 
0C29C:  MOVLB  9
0C29E:  CLRF   x0A
0C2A0:  CLRF   x09
0C2A2:  CLRF   x08
0C2A4:  MOVLW  7F
0C2A6:  MOVWF  x07
0C2A8:  MOVFF  69E,90E
0C2AC:  MOVFF  69D,90D
0C2B0:  MOVFF  69C,90C
0C2B4:  MOVFF  69B,90B
0C2B8:  MOVLB  0
0C2BA:  CALL   1D90
0C2BE:  BNC   C306
....................             { 
....................                delay_ms(30);Tciclo-=1.0;visual=1;      
0C2C0:  MOVLW  1E
0C2C2:  MOVLB  9
0C2C4:  MOVWF  x1D
0C2C6:  MOVLB  0
0C2C8:  CALL   13A4
0C2CC:  BSF    FD8.1
0C2CE:  MOVFF  69E,91D
0C2D2:  MOVFF  69D,91C
0C2D6:  MOVFF  69C,91B
0C2DA:  MOVFF  69B,91A
0C2DE:  MOVLB  9
0C2E0:  CLRF   x21
0C2E2:  CLRF   x20
0C2E4:  CLRF   x1F
0C2E6:  MOVLW  7F
0C2E8:  MOVWF  x1E
0C2EA:  MOVLB  0
0C2EC:  CALL   1F68
0C2F0:  MOVFF  03,69E
0C2F4:  MOVFF  02,69D
0C2F8:  MOVFF  01,69C
0C2FC:  MOVFF  00,69B
0C300:  MOVLB  6
0C302:  BSF    x22.7
0C304:  MOVLB  0
....................             } 
....................          } 
....................                 
....................          if(RIGHT)//Si oprime SET 
0C306:  BSF    F96.1
0C308:  BTFSC  F84.1
0C30A:  BRA    C332
....................          {   
....................             Buzz_on;delay_ms(10);Buzz_off; 
0C30C:  BSF    F8B.5
0C30E:  BCF    F94.5
0C310:  MOVLW  0A
0C312:  MOVLB  9
0C314:  MOVWF  x1D
0C316:  MOVLB  0
0C318:  CALL   13A4
0C31C:  BCF    F8B.5
0C31E:  BCF    F94.5
....................             delay_ms(30);visual=1; 
0C320:  MOVLW  1E
0C322:  MOVLB  9
0C324:  MOVWF  x1D
0C326:  MOVLB  0
0C328:  CALL   13A4
0C32C:  MOVLB  6
0C32E:  BSF    x22.7
0C330:  MOVLB  0
....................          }  
....................                    
....................          if(LEFT)//Si oprime boton de Toma. 
0C332:  BSF    F96.2
0C334:  BTFSC  F84.2
0C336:  BRA    C3C4
....................          { 
....................             Buzz_on;delay_ms(10);Buzz_off; 
0C338:  BSF    F8B.5
0C33A:  BCF    F94.5
0C33C:  MOVLW  0A
0C33E:  MOVLB  9
0C340:  MOVWF  x1D
0C342:  MOVLB  0
0C344:  CALL   13A4
0C348:  BCF    F8B.5
0C34A:  BCF    F94.5
....................             delay_ms(700);Menu=100;glcd_fillscreen(OFF);Opcion=1;visual=1; 
0C34C:  MOVLW  04
0C34E:  MOVLB  9
0C350:  MOVWF  x07
0C352:  MOVLW  AF
0C354:  MOVWF  x1D
0C356:  MOVLB  0
0C358:  CALL   13A4
0C35C:  MOVLB  9
0C35E:  DECFSZ x07,F
0C360:  BRA    C352
0C362:  MOVLW  64
0C364:  MOVLB  6
0C366:  MOVWF  x38
0C368:  MOVLB  9
0C36A:  CLRF   x0E
0C36C:  MOVLB  0
0C36E:  CALL   1424
0C372:  MOVLW  01
0C374:  MOVLB  6
0C376:  MOVWF  x3F
0C378:  BSF    x22.7
....................             write_eeprom(451,(int8)Tciclo); 
0C37A:  MOVFF  69E,916
0C37E:  MOVFF  69D,915
0C382:  MOVFF  69C,914
0C386:  MOVFF  69B,913
0C38A:  MOVLB  0
0C38C:  CALL   37CA
0C390:  MOVFF  01,907
0C394:  MOVLW  01
0C396:  MOVWF  FAA
0C398:  MOVLW  C3
0C39A:  MOVWF  FA9
0C39C:  MOVFF  907,FA8
0C3A0:  BCF    FA6.6
0C3A2:  BCF    FA6.7
0C3A4:  BSF    FA6.2
0C3A6:  MOVF   FF2,W
0C3A8:  MOVWF  00
0C3AA:  BCF    FF2.7
0C3AC:  MOVLB  F
0C3AE:  MOVLW  55
0C3B0:  MOVWF  FA7
0C3B2:  MOVLW  AA
0C3B4:  MOVWF  FA7
0C3B6:  BSF    FA6.1
0C3B8:  BTFSC  FA6.1
0C3BA:  BRA    C3B8
0C3BC:  BCF    FA6.2
0C3BE:  MOVF   00,W
0C3C0:  IORWF  FF2,F
0C3C2:  MOVLB  0
0C3C4:  MOVLB  6
....................          } 
....................      } 
.................... //_-------------------------------------------------------------------------------------------------------------------------------------------------------- 
....................  
.................... //_--------------------------------------------------------------------------------------------------------------------------------------------------------       
....................       if(Menu==105){ // Menu de Ajuste de Ajuste 
0C3C6:  MOVF   x38,W
0C3C8:  SUBLW  69
0C3CA:  BTFSS  FD8.2
0C3CC:  BRA    C5EC
....................        
....................       if(Ajuste>100) 
0C3CE:  MOVF   x25,W
0C3D0:  SUBLW  64
0C3D2:  BC    C3D6
....................       { 
....................          Ajuste=0; 
0C3D4:  CLRF   x25
....................       } 
....................        
....................       if(visual==1) 
0C3D6:  BTFSS  x22.7
0C3D8:  BRA    C442
....................       { 
....................          glcd_fillScreen(OFF); 
0C3DA:  MOVLB  9
0C3DC:  CLRF   x0E
0C3DE:  MOVLB  0
0C3E0:  CALL   1424
....................          strcpy(Menus.Letra,"Ajuste"); 
0C3E4:  MOVLW  08
0C3E6:  MOVWF  FEA
0C3E8:  MOVLW  E7
0C3EA:  MOVWF  FE9
0C3EC:  MOVFF  FF2,907
0C3F0:  BCF    FF2.7
0C3F2:  MOVLW  00
0C3F4:  CALL   1234
0C3F8:  TBLRD*-
0C3FA:  TBLRD*+
0C3FC:  MOVF   FF5,W
0C3FE:  MOVWF  FEE
0C400:  IORLW  00
0C402:  BNZ   C3FA
0C404:  MOVLB  9
0C406:  BTFSC  x07.7
0C408:  BSF    FF2.7
....................          displayMenu(Menus.Letra,0,0,1,2); 
0C40A:  MOVLW  08
0C40C:  MOVWF  x0F
0C40E:  MOVLW  E7
0C410:  MOVWF  x0E
0C412:  CLRF   x10
0C414:  CLRF   x11
0C416:  MOVLW  01
0C418:  MOVWF  x12
0C41A:  MOVLW  02
0C41C:  MOVWF  x13
0C41E:  MOVLB  0
0C420:  CALL   1A52
....................           
....................          displayTemperatura(Ajuste,30,30,0,3); 
0C424:  MOVLB  9
0C426:  CLRF   x0D
0C428:  MOVFF  625,90C
0C42C:  MOVLW  1E
0C42E:  MOVWF  x0E
0C430:  MOVWF  x0F
0C432:  CLRF   x10
0C434:  MOVLW  03
0C436:  MOVWF  x11
0C438:  MOVLB  0
0C43A:  CALL   43BA
....................           
....................          visual=0; 
0C43E:  MOVLB  6
0C440:  BCF    x22.7
....................       } 
....................        
....................          if(UP)//Si oprime hacia arriba 
0C442:  BSF    F92.5
0C444:  BTFSC  F80.5
0C446:  BRA    C4D2
....................          {   
....................             Buzz_on;delay_ms(10);Buzz_off; 
0C448:  BSF    F8B.5
0C44A:  BCF    F94.5
0C44C:  MOVLW  0A
0C44E:  MOVLB  9
0C450:  MOVWF  x1D
0C452:  MOVLB  0
0C454:  CALL   13A4
0C458:  BCF    F8B.5
0C45A:  BCF    F94.5
....................             if(Ajuste>100) 
0C45C:  MOVLB  6
0C45E:  MOVF   x25,W
0C460:  SUBLW  64
0C462:  BC    C478
....................             { 
....................                Ajuste=100;delay_ms(100);visual=1; 
0C464:  MOVLW  64
0C466:  MOVWF  x25
0C468:  MOVLB  9
0C46A:  MOVWF  x1D
0C46C:  MOVLB  0
0C46E:  CALL   13A4
0C472:  MOVLB  6
0C474:  BSF    x22.7
....................             } 
....................             else 
0C476:  BRA    C4D2
....................             { 
....................                delay_ms(30);Ajuste+=1.0;visual=1; 
0C478:  MOVLW  1E
0C47A:  MOVLB  9
0C47C:  MOVWF  x1D
0C47E:  MOVLB  0
0C480:  CALL   13A4
0C484:  MOVLB  9
0C486:  CLRF   x1E
0C488:  MOVFF  625,91D
0C48C:  MOVLB  0
0C48E:  CALL   1D5A
0C492:  BCF    FD8.1
0C494:  MOVFF  03,91D
0C498:  MOVFF  02,91C
0C49C:  MOVFF  01,91B
0C4A0:  MOVFF  00,91A
0C4A4:  MOVLB  9
0C4A6:  CLRF   x21
0C4A8:  CLRF   x20
0C4AA:  CLRF   x1F
0C4AC:  MOVLW  7F
0C4AE:  MOVWF  x1E
0C4B0:  MOVLB  0
0C4B2:  CALL   1F68
0C4B6:  MOVFF  03,916
0C4BA:  MOVFF  02,915
0C4BE:  MOVFF  01,914
0C4C2:  MOVFF  00,913
0C4C6:  CALL   37CA
0C4CA:  MOVFF  01,625
0C4CE:  MOVLB  6
0C4D0:  BSF    x22.7
....................             } 
....................          } 
....................                 
....................          if(DOWN)//Si oprime hacia abajo 
0C4D2:  BSF    F96.0
0C4D4:  BTFSC  F84.0
0C4D6:  BRA    C54C
....................          {   
....................             Buzz_on;delay_ms(10);Buzz_off; 
0C4D8:  BSF    F8B.5
0C4DA:  BCF    F94.5
0C4DC:  MOVLW  0A
0C4DE:  MOVLB  9
0C4E0:  MOVWF  x1D
0C4E2:  MOVLB  0
0C4E4:  CALL   13A4
0C4E8:  BCF    F8B.5
0C4EA:  BCF    F94.5
....................             if(Ajuste>0) 
0C4EC:  MOVLB  6
0C4EE:  MOVF   x25,F
0C4F0:  BZ    C54C
....................             { 
....................                delay_ms(30);Ajuste-=1.0;visual=1;      
0C4F2:  MOVLW  1E
0C4F4:  MOVLB  9
0C4F6:  MOVWF  x1D
0C4F8:  MOVLB  0
0C4FA:  CALL   13A4
0C4FE:  MOVLB  9
0C500:  CLRF   x1E
0C502:  MOVFF  625,91D
0C506:  MOVLB  0
0C508:  CALL   1D5A
0C50C:  BSF    FD8.1
0C50E:  MOVFF  03,91D
0C512:  MOVFF  02,91C
0C516:  MOVFF  01,91B
0C51A:  MOVFF  00,91A
0C51E:  MOVLB  9
0C520:  CLRF   x21
0C522:  CLRF   x20
0C524:  CLRF   x1F
0C526:  MOVLW  7F
0C528:  MOVWF  x1E
0C52A:  MOVLB  0
0C52C:  CALL   1F68
0C530:  MOVFF  03,916
0C534:  MOVFF  02,915
0C538:  MOVFF  01,914
0C53C:  MOVFF  00,913
0C540:  CALL   37CA
0C544:  MOVFF  01,625
0C548:  MOVLB  6
0C54A:  BSF    x22.7
....................             } 
....................          } 
....................                 
....................          if(RIGHT)//Si oprime SET 
0C54C:  BSF    F96.1
0C54E:  BTFSC  F84.1
0C550:  BRA    C576
....................          {   
....................             Buzz_on;delay_ms(10);Buzz_off; 
0C552:  BSF    F8B.5
0C554:  BCF    F94.5
0C556:  MOVLW  0A
0C558:  MOVLB  9
0C55A:  MOVWF  x1D
0C55C:  MOVLB  0
0C55E:  CALL   13A4
0C562:  BCF    F8B.5
0C564:  BCF    F94.5
....................             delay_ms(30);visual=1; 
0C566:  MOVLW  1E
0C568:  MOVLB  9
0C56A:  MOVWF  x1D
0C56C:  MOVLB  0
0C56E:  CALL   13A4
0C572:  MOVLB  6
0C574:  BSF    x22.7
....................          }  
....................                    
....................          if(LEFT)//Si oprime boton de Toma. 
0C576:  BSF    F96.2
0C578:  BTFSC  F84.2
0C57A:  BRA    C5EC
....................          { 
....................             Buzz_on;delay_ms(10);Buzz_off; 
0C57C:  BSF    F8B.5
0C57E:  BCF    F94.5
0C580:  MOVLW  0A
0C582:  MOVLB  9
0C584:  MOVWF  x1D
0C586:  MOVLB  0
0C588:  CALL   13A4
0C58C:  BCF    F8B.5
0C58E:  BCF    F94.5
....................             delay_ms(700);Menu=100;glcd_fillscreen(OFF);Opcion=1;visual=1; 
0C590:  MOVLW  04
0C592:  MOVLB  9
0C594:  MOVWF  x07
0C596:  MOVLW  AF
0C598:  MOVWF  x1D
0C59A:  MOVLB  0
0C59C:  CALL   13A4
0C5A0:  MOVLB  9
0C5A2:  DECFSZ x07,F
0C5A4:  BRA    C596
0C5A6:  MOVLW  64
0C5A8:  MOVLB  6
0C5AA:  MOVWF  x38
0C5AC:  MOVLB  9
0C5AE:  CLRF   x0E
0C5B0:  MOVLB  0
0C5B2:  CALL   1424
0C5B6:  MOVLW  01
0C5B8:  MOVLB  6
0C5BA:  MOVWF  x3F
0C5BC:  BSF    x22.7
....................             write_eeprom(452,Ajuste); 
0C5BE:  MOVWF  FAA
0C5C0:  MOVLW  C4
0C5C2:  MOVWF  FA9
0C5C4:  MOVFF  625,FA8
0C5C8:  BCF    FA6.6
0C5CA:  BCF    FA6.7
0C5CC:  BSF    FA6.2
0C5CE:  MOVF   FF2,W
0C5D0:  MOVWF  00
0C5D2:  BCF    FF2.7
0C5D4:  MOVLB  F
0C5D6:  MOVLW  55
0C5D8:  MOVWF  FA7
0C5DA:  MOVLW  AA
0C5DC:  MOVWF  FA7
0C5DE:  BSF    FA6.1
0C5E0:  BTFSC  FA6.1
0C5E2:  BRA    C5E0
0C5E4:  BCF    FA6.2
0C5E6:  MOVF   00,W
0C5E8:  IORWF  FF2,F
0C5EA:  MOVLB  6
....................          } 
....................      } 
.................... //_-------------------------------------------------------------------------------------------------------------------------------------------------------- 
....................  
.................... //_--------------------------------------------------------------------------------------------------------------------------------------------------------       
....................       if(Menu==106){ // Menu de Ajuste de Ajusten 
0C5EC:  MOVF   x38,W
0C5EE:  SUBLW  6A
0C5F0:  BTFSS  FD8.2
0C5F2:  BRA    C812
....................        
....................       if(Ajusten>100) 
0C5F4:  MOVF   x26,W
0C5F6:  SUBLW  64
0C5F8:  BC    C5FC
....................       { 
....................          Ajusten=0; 
0C5FA:  CLRF   x26
....................       } 
....................        
....................       if(visual==1) 
0C5FC:  BTFSS  x22.7
0C5FE:  BRA    C668
....................       { 
....................          glcd_fillScreen(OFF); 
0C600:  MOVLB  9
0C602:  CLRF   x0E
0C604:  MOVLB  0
0C606:  CALL   1424
....................          strcpy(Menus.Letra,"Ajusten"); 
0C60A:  MOVLW  08
0C60C:  MOVWF  FEA
0C60E:  MOVLW  E7
0C610:  MOVWF  FE9
0C612:  MOVFF  FF2,907
0C616:  BCF    FF2.7
0C618:  MOVLW  00
0C61A:  CALL   125A
0C61E:  TBLRD*-
0C620:  TBLRD*+
0C622:  MOVF   FF5,W
0C624:  MOVWF  FEE
0C626:  IORLW  00
0C628:  BNZ   C620
0C62A:  MOVLB  9
0C62C:  BTFSC  x07.7
0C62E:  BSF    FF2.7
....................          displayMenu(Menus.Letra,0,0,1,2); 
0C630:  MOVLW  08
0C632:  MOVWF  x0F
0C634:  MOVLW  E7
0C636:  MOVWF  x0E
0C638:  CLRF   x10
0C63A:  CLRF   x11
0C63C:  MOVLW  01
0C63E:  MOVWF  x12
0C640:  MOVLW  02
0C642:  MOVWF  x13
0C644:  MOVLB  0
0C646:  CALL   1A52
....................           
....................          displayTemperatura(Ajusten,30,30,0,3); 
0C64A:  MOVLB  9
0C64C:  CLRF   x0D
0C64E:  MOVFF  626,90C
0C652:  MOVLW  1E
0C654:  MOVWF  x0E
0C656:  MOVWF  x0F
0C658:  CLRF   x10
0C65A:  MOVLW  03
0C65C:  MOVWF  x11
0C65E:  MOVLB  0
0C660:  CALL   43BA
....................           
....................          visual=0; 
0C664:  MOVLB  6
0C666:  BCF    x22.7
....................       } 
....................        
....................          if(UP)//Si oprime hacia arriba 
0C668:  BSF    F92.5
0C66A:  BTFSC  F80.5
0C66C:  BRA    C6F8
....................          {   
....................             Buzz_on;delay_ms(10);Buzz_off; 
0C66E:  BSF    F8B.5
0C670:  BCF    F94.5
0C672:  MOVLW  0A
0C674:  MOVLB  9
0C676:  MOVWF  x1D
0C678:  MOVLB  0
0C67A:  CALL   13A4
0C67E:  BCF    F8B.5
0C680:  BCF    F94.5
....................             if(Ajusten>100) 
0C682:  MOVLB  6
0C684:  MOVF   x26,W
0C686:  SUBLW  64
0C688:  BC    C69E
....................             { 
....................                Ajusten=100;delay_ms(100);visual=1; 
0C68A:  MOVLW  64
0C68C:  MOVWF  x26
0C68E:  MOVLB  9
0C690:  MOVWF  x1D
0C692:  MOVLB  0
0C694:  CALL   13A4
0C698:  MOVLB  6
0C69A:  BSF    x22.7
....................             } 
....................             else 
0C69C:  BRA    C6F8
....................             { 
....................                delay_ms(30);Ajusten+=1.0;visual=1; 
0C69E:  MOVLW  1E
0C6A0:  MOVLB  9
0C6A2:  MOVWF  x1D
0C6A4:  MOVLB  0
0C6A6:  CALL   13A4
0C6AA:  MOVLB  9
0C6AC:  CLRF   x1E
0C6AE:  MOVFF  626,91D
0C6B2:  MOVLB  0
0C6B4:  CALL   1D5A
0C6B8:  BCF    FD8.1
0C6BA:  MOVFF  03,91D
0C6BE:  MOVFF  02,91C
0C6C2:  MOVFF  01,91B
0C6C6:  MOVFF  00,91A
0C6CA:  MOVLB  9
0C6CC:  CLRF   x21
0C6CE:  CLRF   x20
0C6D0:  CLRF   x1F
0C6D2:  MOVLW  7F
0C6D4:  MOVWF  x1E
0C6D6:  MOVLB  0
0C6D8:  CALL   1F68
0C6DC:  MOVFF  03,916
0C6E0:  MOVFF  02,915
0C6E4:  MOVFF  01,914
0C6E8:  MOVFF  00,913
0C6EC:  CALL   37CA
0C6F0:  MOVFF  01,626
0C6F4:  MOVLB  6
0C6F6:  BSF    x22.7
....................             } 
....................          } 
....................                 
....................          if(DOWN)//Si oprime hacia abajo 
0C6F8:  BSF    F96.0
0C6FA:  BTFSC  F84.0
0C6FC:  BRA    C772
....................          {   
....................             Buzz_on;delay_ms(10);Buzz_off; 
0C6FE:  BSF    F8B.5
0C700:  BCF    F94.5
0C702:  MOVLW  0A
0C704:  MOVLB  9
0C706:  MOVWF  x1D
0C708:  MOVLB  0
0C70A:  CALL   13A4
0C70E:  BCF    F8B.5
0C710:  BCF    F94.5
....................             if(Ajusten>0) 
0C712:  MOVLB  6
0C714:  MOVF   x26,F
0C716:  BZ    C772
....................             { 
....................                delay_ms(30);Ajusten-=1.0;visual=1;      
0C718:  MOVLW  1E
0C71A:  MOVLB  9
0C71C:  MOVWF  x1D
0C71E:  MOVLB  0
0C720:  CALL   13A4
0C724:  MOVLB  9
0C726:  CLRF   x1E
0C728:  MOVFF  626,91D
0C72C:  MOVLB  0
0C72E:  CALL   1D5A
0C732:  BSF    FD8.1
0C734:  MOVFF  03,91D
0C738:  MOVFF  02,91C
0C73C:  MOVFF  01,91B
0C740:  MOVFF  00,91A
0C744:  MOVLB  9
0C746:  CLRF   x21
0C748:  CLRF   x20
0C74A:  CLRF   x1F
0C74C:  MOVLW  7F
0C74E:  MOVWF  x1E
0C750:  MOVLB  0
0C752:  CALL   1F68
0C756:  MOVFF  03,916
0C75A:  MOVFF  02,915
0C75E:  MOVFF  01,914
0C762:  MOVFF  00,913
0C766:  CALL   37CA
0C76A:  MOVFF  01,626
0C76E:  MOVLB  6
0C770:  BSF    x22.7
....................             } 
....................          } 
....................                 
....................          if(RIGHT)//Si oprime SET 
0C772:  BSF    F96.1
0C774:  BTFSC  F84.1
0C776:  BRA    C79C
....................          {   
....................             Buzz_on;delay_ms(10);Buzz_off; 
0C778:  BSF    F8B.5
0C77A:  BCF    F94.5
0C77C:  MOVLW  0A
0C77E:  MOVLB  9
0C780:  MOVWF  x1D
0C782:  MOVLB  0
0C784:  CALL   13A4
0C788:  BCF    F8B.5
0C78A:  BCF    F94.5
....................             delay_ms(30);visual=1; 
0C78C:  MOVLW  1E
0C78E:  MOVLB  9
0C790:  MOVWF  x1D
0C792:  MOVLB  0
0C794:  CALL   13A4
0C798:  MOVLB  6
0C79A:  BSF    x22.7
....................          }  
....................                    
....................          if(LEFT)//Si oprime boton de Toma. 
0C79C:  BSF    F96.2
0C79E:  BTFSC  F84.2
0C7A0:  BRA    C812
....................          { 
....................             Buzz_on;delay_ms(10);Buzz_off; 
0C7A2:  BSF    F8B.5
0C7A4:  BCF    F94.5
0C7A6:  MOVLW  0A
0C7A8:  MOVLB  9
0C7AA:  MOVWF  x1D
0C7AC:  MOVLB  0
0C7AE:  CALL   13A4
0C7B2:  BCF    F8B.5
0C7B4:  BCF    F94.5
....................             delay_ms(700);Menu=100;glcd_fillscreen(OFF);Opcion=1;visual=1; 
0C7B6:  MOVLW  04
0C7B8:  MOVLB  9
0C7BA:  MOVWF  x07
0C7BC:  MOVLW  AF
0C7BE:  MOVWF  x1D
0C7C0:  MOVLB  0
0C7C2:  CALL   13A4
0C7C6:  MOVLB  9
0C7C8:  DECFSZ x07,F
0C7CA:  BRA    C7BC
0C7CC:  MOVLW  64
0C7CE:  MOVLB  6
0C7D0:  MOVWF  x38
0C7D2:  MOVLB  9
0C7D4:  CLRF   x0E
0C7D6:  MOVLB  0
0C7D8:  CALL   1424
0C7DC:  MOVLW  01
0C7DE:  MOVLB  6
0C7E0:  MOVWF  x3F
0C7E2:  BSF    x22.7
....................             write_eeprom(453,Ajusten); 
0C7E4:  MOVWF  FAA
0C7E6:  MOVLW  C5
0C7E8:  MOVWF  FA9
0C7EA:  MOVFF  626,FA8
0C7EE:  BCF    FA6.6
0C7F0:  BCF    FA6.7
0C7F2:  BSF    FA6.2
0C7F4:  MOVF   FF2,W
0C7F6:  MOVWF  00
0C7F8:  BCF    FF2.7
0C7FA:  MOVLB  F
0C7FC:  MOVLW  55
0C7FE:  MOVWF  FA7
0C800:  MOVLW  AA
0C802:  MOVWF  FA7
0C804:  BSF    FA6.1
0C806:  BTFSC  FA6.1
0C808:  BRA    C806
0C80A:  BCF    FA6.2
0C80C:  MOVF   00,W
0C80E:  IORWF  FF2,F
0C810:  MOVLB  6
....................          } 
....................      } 
.................... //_-------------------------------------------------------------------------------------------------------------------------------------------------------- 
....................  
.................... //_--------------------------------------------------------------------------------------------------------------------------------------------------------       
....................       if(Menu==107){ // Menu de Ajuste de Media Movil 
0C812:  MOVF   x38,W
0C814:  SUBLW  6B
0C816:  BTFSS  FD8.2
0C818:  BRA    CA3E
....................        
....................       if(MediaMovil>80) 
0C81A:  MOVF   x27,W
0C81C:  SUBLW  50
0C81E:  BC    C824
....................       { 
....................          MediaMovil=10; 
0C820:  MOVLW  0A
0C822:  MOVWF  x27
....................       } 
....................        
....................       if(visual==1) 
0C824:  BTFSS  x22.7
0C826:  BRA    C890
....................       { 
....................          glcd_fillScreen(OFF); 
0C828:  MOVLB  9
0C82A:  CLRF   x0E
0C82C:  MOVLB  0
0C82E:  CALL   1424
....................          strcpy(Menus.Letra,"Media"); 
0C832:  MOVLW  08
0C834:  MOVWF  FEA
0C836:  MOVLW  E7
0C838:  MOVWF  FE9
0C83A:  MOVFF  FF2,907
0C83E:  BCF    FF2.7
0C840:  MOVLW  00
0C842:  CALL   1280
0C846:  TBLRD*-
0C848:  TBLRD*+
0C84A:  MOVF   FF5,W
0C84C:  MOVWF  FEE
0C84E:  IORLW  00
0C850:  BNZ   C848
0C852:  MOVLB  9
0C854:  BTFSC  x07.7
0C856:  BSF    FF2.7
....................          displayMenu(Menus.Letra,0,0,1,2); 
0C858:  MOVLW  08
0C85A:  MOVWF  x0F
0C85C:  MOVLW  E7
0C85E:  MOVWF  x0E
0C860:  CLRF   x10
0C862:  CLRF   x11
0C864:  MOVLW  01
0C866:  MOVWF  x12
0C868:  MOVLW  02
0C86A:  MOVWF  x13
0C86C:  MOVLB  0
0C86E:  CALL   1A52
....................           
....................          displayTemperatura(MediaMovil,30,30,0,3); 
0C872:  MOVLB  9
0C874:  CLRF   x0D
0C876:  MOVFF  627,90C
0C87A:  MOVLW  1E
0C87C:  MOVWF  x0E
0C87E:  MOVWF  x0F
0C880:  CLRF   x10
0C882:  MOVLW  03
0C884:  MOVWF  x11
0C886:  MOVLB  0
0C888:  CALL   43BA
....................           
....................          visual=0; 
0C88C:  MOVLB  6
0C88E:  BCF    x22.7
....................       } 
....................        
....................          if(UP)//Si oprime hacia arriba 
0C890:  BSF    F92.5
0C892:  BTFSC  F80.5
0C894:  BRA    C922
....................          {   
....................             Buzz_on;delay_ms(10);Buzz_off; 
0C896:  BSF    F8B.5
0C898:  BCF    F94.5
0C89A:  MOVLW  0A
0C89C:  MOVLB  9
0C89E:  MOVWF  x1D
0C8A0:  MOVLB  0
0C8A2:  CALL   13A4
0C8A6:  BCF    F8B.5
0C8A8:  BCF    F94.5
....................             if(MediaMovil>79) 
0C8AA:  MOVLB  6
0C8AC:  MOVF   x27,W
0C8AE:  SUBLW  4F
0C8B0:  BC    C8C8
....................             { 
....................                MediaMovil=79;delay_ms(100);visual=1; 
0C8B2:  MOVLW  4F
0C8B4:  MOVWF  x27
0C8B6:  MOVLW  64
0C8B8:  MOVLB  9
0C8BA:  MOVWF  x1D
0C8BC:  MOVLB  0
0C8BE:  CALL   13A4
0C8C2:  MOVLB  6
0C8C4:  BSF    x22.7
....................             } 
....................             else 
0C8C6:  BRA    C922
....................             { 
....................                delay_ms(30);MediaMovil+=1.0;visual=1; 
0C8C8:  MOVLW  1E
0C8CA:  MOVLB  9
0C8CC:  MOVWF  x1D
0C8CE:  MOVLB  0
0C8D0:  CALL   13A4
0C8D4:  MOVLB  9
0C8D6:  CLRF   x1E
0C8D8:  MOVFF  627,91D
0C8DC:  MOVLB  0
0C8DE:  CALL   1D5A
0C8E2:  BCF    FD8.1
0C8E4:  MOVFF  03,91D
0C8E8:  MOVFF  02,91C
0C8EC:  MOVFF  01,91B
0C8F0:  MOVFF  00,91A
0C8F4:  MOVLB  9
0C8F6:  CLRF   x21
0C8F8:  CLRF   x20
0C8FA:  CLRF   x1F
0C8FC:  MOVLW  7F
0C8FE:  MOVWF  x1E
0C900:  MOVLB  0
0C902:  CALL   1F68
0C906:  MOVFF  03,916
0C90A:  MOVFF  02,915
0C90E:  MOVFF  01,914
0C912:  MOVFF  00,913
0C916:  CALL   37CA
0C91A:  MOVFF  01,627
0C91E:  MOVLB  6
0C920:  BSF    x22.7
....................             } 
....................          } 
....................                 
....................          if(DOWN)//Si oprime hacia abajo 
0C922:  BSF    F96.0
0C924:  BTFSC  F84.0
0C926:  BRA    C99E
....................          {   
....................             Buzz_on;delay_ms(10);Buzz_off; 
0C928:  BSF    F8B.5
0C92A:  BCF    F94.5
0C92C:  MOVLW  0A
0C92E:  MOVLB  9
0C930:  MOVWF  x1D
0C932:  MOVLB  0
0C934:  CALL   13A4
0C938:  BCF    F8B.5
0C93A:  BCF    F94.5
....................             if(MediaMovil>1) 
0C93C:  MOVLB  6
0C93E:  MOVF   x27,W
0C940:  SUBLW  01
0C942:  BC    C99E
....................             { 
....................                delay_ms(30);MediaMovil-=1.0;visual=1;      
0C944:  MOVLW  1E
0C946:  MOVLB  9
0C948:  MOVWF  x1D
0C94A:  MOVLB  0
0C94C:  CALL   13A4
0C950:  MOVLB  9
0C952:  CLRF   x1E
0C954:  MOVFF  627,91D
0C958:  MOVLB  0
0C95A:  CALL   1D5A
0C95E:  BSF    FD8.1
0C960:  MOVFF  03,91D
0C964:  MOVFF  02,91C
0C968:  MOVFF  01,91B
0C96C:  MOVFF  00,91A
0C970:  MOVLB  9
0C972:  CLRF   x21
0C974:  CLRF   x20
0C976:  CLRF   x1F
0C978:  MOVLW  7F
0C97A:  MOVWF  x1E
0C97C:  MOVLB  0
0C97E:  CALL   1F68
0C982:  MOVFF  03,916
0C986:  MOVFF  02,915
0C98A:  MOVFF  01,914
0C98E:  MOVFF  00,913
0C992:  CALL   37CA
0C996:  MOVFF  01,627
0C99A:  MOVLB  6
0C99C:  BSF    x22.7
....................             } 
....................          } 
....................                 
....................          if(RIGHT)//Si oprime SET 
0C99E:  BSF    F96.1
0C9A0:  BTFSC  F84.1
0C9A2:  BRA    C9C8
....................          {   
....................             Buzz_on;delay_ms(10);Buzz_off; 
0C9A4:  BSF    F8B.5
0C9A6:  BCF    F94.5
0C9A8:  MOVLW  0A
0C9AA:  MOVLB  9
0C9AC:  MOVWF  x1D
0C9AE:  MOVLB  0
0C9B0:  CALL   13A4
0C9B4:  BCF    F8B.5
0C9B6:  BCF    F94.5
....................             delay_ms(30);visual=1; 
0C9B8:  MOVLW  1E
0C9BA:  MOVLB  9
0C9BC:  MOVWF  x1D
0C9BE:  MOVLB  0
0C9C0:  CALL   13A4
0C9C4:  MOVLB  6
0C9C6:  BSF    x22.7
....................          }  
....................                    
....................          if(LEFT)//Si oprime boton de Toma. 
0C9C8:  BSF    F96.2
0C9CA:  BTFSC  F84.2
0C9CC:  BRA    CA3E
....................          { 
....................             Buzz_on;delay_ms(10);Buzz_off; 
0C9CE:  BSF    F8B.5
0C9D0:  BCF    F94.5
0C9D2:  MOVLW  0A
0C9D4:  MOVLB  9
0C9D6:  MOVWF  x1D
0C9D8:  MOVLB  0
0C9DA:  CALL   13A4
0C9DE:  BCF    F8B.5
0C9E0:  BCF    F94.5
....................             delay_ms(700);Menu=100;glcd_fillscreen(OFF);Opcion=1;visual=1; 
0C9E2:  MOVLW  04
0C9E4:  MOVLB  9
0C9E6:  MOVWF  x07
0C9E8:  MOVLW  AF
0C9EA:  MOVWF  x1D
0C9EC:  MOVLB  0
0C9EE:  CALL   13A4
0C9F2:  MOVLB  9
0C9F4:  DECFSZ x07,F
0C9F6:  BRA    C9E8
0C9F8:  MOVLW  64
0C9FA:  MOVLB  6
0C9FC:  MOVWF  x38
0C9FE:  MOVLB  9
0CA00:  CLRF   x0E
0CA02:  MOVLB  0
0CA04:  CALL   1424
0CA08:  MOVLW  01
0CA0A:  MOVLB  6
0CA0C:  MOVWF  x3F
0CA0E:  BSF    x22.7
....................             write_eeprom(454,(int8)MediaMovil); 
0CA10:  MOVWF  FAA
0CA12:  MOVLW  C6
0CA14:  MOVWF  FA9
0CA16:  MOVFF  627,FA8
0CA1A:  BCF    FA6.6
0CA1C:  BCF    FA6.7
0CA1E:  BSF    FA6.2
0CA20:  MOVF   FF2,W
0CA22:  MOVWF  00
0CA24:  BCF    FF2.7
0CA26:  MOVLB  F
0CA28:  MOVLW  55
0CA2A:  MOVWF  FA7
0CA2C:  MOVLW  AA
0CA2E:  MOVWF  FA7
0CA30:  BSF    FA6.1
0CA32:  BTFSC  FA6.1
0CA34:  BRA    CA32
0CA36:  BCF    FA6.2
0CA38:  MOVF   00,W
0CA3A:  IORWF  FF2,F
0CA3C:  MOVLB  6
....................          } 
....................      } 
.................... //_-------------------------------------------------------------------------------------------------------------------------------------------------------- 
....................  
.................... //_--------------------------------------------------------------------------------------------------------------------------------------------------------       
....................       if(Menu==108){ // Menu de Ajuste de Coeficiente Regulador 
0CA3E:  MOVF   x38,W
0CA40:  SUBLW  6C
0CA42:  BTFSS  FD8.2
0CA44:  BRA    CCF0
....................        
....................       if(Coeficiente>250) 
0CA46:  MOVLB  9
0CA48:  CLRF   x0A
0CA4A:  CLRF   x09
0CA4C:  MOVLW  7A
0CA4E:  MOVWF  x08
0CA50:  MOVLW  86
0CA52:  MOVWF  x07
0CA54:  MOVFF  6C2,90E
0CA58:  MOVFF  6C1,90D
0CA5C:  MOVFF  6C0,90C
0CA60:  MOVFF  6BF,90B
0CA64:  MOVLB  0
0CA66:  CALL   1D90
0CA6A:  BNC   CA7A
....................       { 
....................          Coeficiente=100; 
0CA6C:  MOVLB  6
0CA6E:  CLRF   xC2
0CA70:  CLRF   xC1
0CA72:  MOVLW  48
0CA74:  MOVWF  xC0
0CA76:  MOVLW  85
0CA78:  MOVWF  xBF
....................       } 
....................        
....................       if(visual==1) 
0CA7A:  MOVLB  6
0CA7C:  BTFSS  x22.7
0CA7E:  BRA    CB06
....................       { 
....................          glcd_fillScreen(OFF); 
0CA80:  MOVLB  9
0CA82:  CLRF   x0E
0CA84:  MOVLB  0
0CA86:  CALL   1424
....................          strcpy(Menus.Letra,"Coeficiente"); 
0CA8A:  MOVLW  08
0CA8C:  MOVWF  FEA
0CA8E:  MOVLW  E7
0CA90:  MOVWF  FE9
0CA92:  MOVFF  FF2,907
0CA96:  BCF    FF2.7
0CA98:  MOVLW  00
0CA9A:  CALL   10EE
0CA9E:  TBLRD*-
0CAA0:  TBLRD*+
0CAA2:  MOVF   FF5,W
0CAA4:  MOVWF  FEE
0CAA6:  IORLW  00
0CAA8:  BNZ   CAA0
0CAAA:  MOVLB  9
0CAAC:  BTFSC  x07.7
0CAAE:  BSF    FF2.7
....................          displayMenu(Menus.Letra,0,0,1,2); 
0CAB0:  MOVLW  08
0CAB2:  MOVWF  x0F
0CAB4:  MOVLW  E7
0CAB6:  MOVWF  x0E
0CAB8:  CLRF   x10
0CABA:  CLRF   x11
0CABC:  MOVLW  01
0CABE:  MOVWF  x12
0CAC0:  MOVLW  02
0CAC2:  MOVWF  x13
0CAC4:  MOVLB  0
0CAC6:  CALL   1A52
....................           
....................          displayTemperatura(Coeficiente,30,30,0,3); 
0CACA:  MOVFF  6C2,916
0CACE:  MOVFF  6C1,915
0CAD2:  MOVFF  6C0,914
0CAD6:  MOVFF  6BF,913
0CADA:  CALL   37CA
0CADE:  MOVFF  02,908
0CAE2:  MOVFF  01,907
0CAE6:  MOVFF  02,90D
0CAEA:  MOVFF  01,90C
0CAEE:  MOVLW  1E
0CAF0:  MOVLB  9
0CAF2:  MOVWF  x0E
0CAF4:  MOVWF  x0F
0CAF6:  CLRF   x10
0CAF8:  MOVLW  03
0CAFA:  MOVWF  x11
0CAFC:  MOVLB  0
0CAFE:  CALL   43BA
....................           
....................          visual=0; 
0CB02:  MOVLB  6
0CB04:  BCF    x22.7
....................       } 
....................        
....................          if(UP)//Si oprime hacia arriba 
0CB06:  BSF    F92.5
0CB08:  BTFSC  F80.5
0CB0A:  BRA    CBAC
....................          {   
....................             Buzz_on;delay_ms(10);Buzz_off; 
0CB0C:  BSF    F8B.5
0CB0E:  BCF    F94.5
0CB10:  MOVLW  0A
0CB12:  MOVLB  9
0CB14:  MOVWF  x1D
0CB16:  MOVLB  0
0CB18:  CALL   13A4
0CB1C:  BCF    F8B.5
0CB1E:  BCF    F94.5
....................             if(Coeficiente>250) 
0CB20:  MOVLB  9
0CB22:  CLRF   x0A
0CB24:  CLRF   x09
0CB26:  MOVLW  7A
0CB28:  MOVWF  x08
0CB2A:  MOVLW  86
0CB2C:  MOVWF  x07
0CB2E:  MOVFF  6C2,90E
0CB32:  MOVFF  6C1,90D
0CB36:  MOVFF  6C0,90C
0CB3A:  MOVFF  6BF,90B
0CB3E:  MOVLB  0
0CB40:  CALL   1D90
0CB44:  BNC   CB68
....................             { 
....................                Coeficiente=250;delay_ms(100);visual=1; 
0CB46:  MOVLB  6
0CB48:  CLRF   xC2
0CB4A:  CLRF   xC1
0CB4C:  MOVLW  7A
0CB4E:  MOVWF  xC0
0CB50:  MOVLW  86
0CB52:  MOVWF  xBF
0CB54:  MOVLW  64
0CB56:  MOVLB  9
0CB58:  MOVWF  x1D
0CB5A:  MOVLB  0
0CB5C:  CALL   13A4
0CB60:  MOVLB  6
0CB62:  BSF    x22.7
....................             } 
....................             else 
0CB64:  BRA    CBAC
0CB66:  MOVLB  0
....................             { 
....................                delay_ms(30);Coeficiente+=1.0;visual=1; 
0CB68:  MOVLW  1E
0CB6A:  MOVLB  9
0CB6C:  MOVWF  x1D
0CB6E:  MOVLB  0
0CB70:  CALL   13A4
0CB74:  BCF    FD8.1
0CB76:  MOVFF  6C2,91D
0CB7A:  MOVFF  6C1,91C
0CB7E:  MOVFF  6C0,91B
0CB82:  MOVFF  6BF,91A
0CB86:  MOVLB  9
0CB88:  CLRF   x21
0CB8A:  CLRF   x20
0CB8C:  CLRF   x1F
0CB8E:  MOVLW  7F
0CB90:  MOVWF  x1E
0CB92:  MOVLB  0
0CB94:  CALL   1F68
0CB98:  MOVFF  03,6C2
0CB9C:  MOVFF  02,6C1
0CBA0:  MOVFF  01,6C0
0CBA4:  MOVFF  00,6BF
0CBA8:  MOVLB  6
0CBAA:  BSF    x22.7
....................             } 
....................          } 
....................                 
....................          if(DOWN)//Si oprime hacia abajo 
0CBAC:  BSF    F96.0
0CBAE:  BTFSC  F84.0
0CBB0:  BRA    CC2E
....................          {   
....................             Buzz_on;delay_ms(10);Buzz_off; 
0CBB2:  BSF    F8B.5
0CBB4:  BCF    F94.5
0CBB6:  MOVLW  0A
0CBB8:  MOVLB  9
0CBBA:  MOVWF  x1D
0CBBC:  MOVLB  0
0CBBE:  CALL   13A4
0CBC2:  BCF    F8B.5
0CBC4:  BCF    F94.5
....................             if(Coeficiente>1) 
0CBC6:  MOVLB  9
0CBC8:  CLRF   x0A
0CBCA:  CLRF   x09
0CBCC:  CLRF   x08
0CBCE:  MOVLW  7F
0CBD0:  MOVWF  x07
0CBD2:  MOVFF  6C2,90E
0CBD6:  MOVFF  6C1,90D
0CBDA:  MOVFF  6C0,90C
0CBDE:  MOVFF  6BF,90B
0CBE2:  MOVLB  0
0CBE4:  CALL   1D90
0CBE8:  BNC   CC30
....................             { 
....................                delay_ms(30);Coeficiente-=1.0;visual=1;      
0CBEA:  MOVLW  1E
0CBEC:  MOVLB  9
0CBEE:  MOVWF  x1D
0CBF0:  MOVLB  0
0CBF2:  CALL   13A4
0CBF6:  BSF    FD8.1
0CBF8:  MOVFF  6C2,91D
0CBFC:  MOVFF  6C1,91C
0CC00:  MOVFF  6C0,91B
0CC04:  MOVFF  6BF,91A
0CC08:  MOVLB  9
0CC0A:  CLRF   x21
0CC0C:  CLRF   x20
0CC0E:  CLRF   x1F
0CC10:  MOVLW  7F
0CC12:  MOVWF  x1E
0CC14:  MOVLB  0
0CC16:  CALL   1F68
0CC1A:  MOVFF  03,6C2
0CC1E:  MOVFF  02,6C1
0CC22:  MOVFF  01,6C0
0CC26:  MOVFF  00,6BF
0CC2A:  MOVLB  6
0CC2C:  BSF    x22.7
0CC2E:  MOVLB  0
....................             } 
....................          } 
....................                 
....................          if(RIGHT)//Si oprime SET 
0CC30:  BSF    F96.1
0CC32:  BTFSC  F84.1
0CC34:  BRA    CC5C
....................          {   
....................             Buzz_on;delay_ms(10);Buzz_off; 
0CC36:  BSF    F8B.5
0CC38:  BCF    F94.5
0CC3A:  MOVLW  0A
0CC3C:  MOVLB  9
0CC3E:  MOVWF  x1D
0CC40:  MOVLB  0
0CC42:  CALL   13A4
0CC46:  BCF    F8B.5
0CC48:  BCF    F94.5
....................             delay_ms(30);visual=1; 
0CC4A:  MOVLW  1E
0CC4C:  MOVLB  9
0CC4E:  MOVWF  x1D
0CC50:  MOVLB  0
0CC52:  CALL   13A4
0CC56:  MOVLB  6
0CC58:  BSF    x22.7
0CC5A:  MOVLB  0
....................          }  
....................                    
....................          if(LEFT)//Si oprime boton de Toma. 
0CC5C:  BSF    F96.2
0CC5E:  BTFSC  F84.2
0CC60:  BRA    CCEE
....................          { 
....................             Buzz_on;delay_ms(10);Buzz_off; 
0CC62:  BSF    F8B.5
0CC64:  BCF    F94.5
0CC66:  MOVLW  0A
0CC68:  MOVLB  9
0CC6A:  MOVWF  x1D
0CC6C:  MOVLB  0
0CC6E:  CALL   13A4
0CC72:  BCF    F8B.5
0CC74:  BCF    F94.5
....................             delay_ms(700);Menu=100;glcd_fillscreen(OFF);Opcion=1;visual=1; 
0CC76:  MOVLW  04
0CC78:  MOVLB  9
0CC7A:  MOVWF  x07
0CC7C:  MOVLW  AF
0CC7E:  MOVWF  x1D
0CC80:  MOVLB  0
0CC82:  CALL   13A4
0CC86:  MOVLB  9
0CC88:  DECFSZ x07,F
0CC8A:  BRA    CC7C
0CC8C:  MOVLW  64
0CC8E:  MOVLB  6
0CC90:  MOVWF  x38
0CC92:  MOVLB  9
0CC94:  CLRF   x0E
0CC96:  MOVLB  0
0CC98:  CALL   1424
0CC9C:  MOVLW  01
0CC9E:  MOVLB  6
0CCA0:  MOVWF  x3F
0CCA2:  BSF    x22.7
....................             write_eeprom(455,(int8)Coeficiente); 
0CCA4:  MOVFF  6C2,916
0CCA8:  MOVFF  6C1,915
0CCAC:  MOVFF  6C0,914
0CCB0:  MOVFF  6BF,913
0CCB4:  MOVLB  0
0CCB6:  CALL   37CA
0CCBA:  MOVFF  01,907
0CCBE:  MOVLW  01
0CCC0:  MOVWF  FAA
0CCC2:  MOVLW  C7
0CCC4:  MOVWF  FA9
0CCC6:  MOVFF  907,FA8
0CCCA:  BCF    FA6.6
0CCCC:  BCF    FA6.7
0CCCE:  BSF    FA6.2
0CCD0:  MOVF   FF2,W
0CCD2:  MOVWF  00
0CCD4:  BCF    FF2.7
0CCD6:  MOVLB  F
0CCD8:  MOVLW  55
0CCDA:  MOVWF  FA7
0CCDC:  MOVLW  AA
0CCDE:  MOVWF  FA7
0CCE0:  BSF    FA6.1
0CCE2:  BTFSC  FA6.1
0CCE4:  BRA    CCE2
0CCE6:  BCF    FA6.2
0CCE8:  MOVF   00,W
0CCEA:  IORWF  FF2,F
0CCEC:  MOVLB  0
0CCEE:  MOVLB  6
....................          } 
....................      } 
.................... //_-------------------------------------------------------------------------------------------------------------------------------------------------------- 
....................  
.................... //_--------------------------------------------------------------------------------------------------------------------------------------------------------       
....................       if(Menu==109){ // Menu de Alarma Sobretemperatura 
0CCF0:  MOVF   x38,W
0CCF2:  SUBLW  6D
0CCF4:  BTFSS  FD8.2
0CCF6:  BRA    CF8E
....................        
....................       if(AlTem>500) 
0CCF8:  MOVF   x58,W
0CCFA:  SUBLW  00
0CCFC:  BC    CD10
0CCFE:  XORLW  FF
0CD00:  BNZ   CD08
0CD02:  MOVF   x57,W
0CD04:  SUBLW  F4
0CD06:  BC    CD10
....................          AlTem=500; 
0CD08:  MOVLW  01
0CD0A:  MOVWF  x58
0CD0C:  MOVLW  F4
0CD0E:  MOVWF  x57
....................        
....................        
....................       if(visual==1) 
0CD10:  BTFSS  x22.7
0CD12:  BRA    CD7E
....................       { 
....................          glcd_fillScreen(OFF); 
0CD14:  MOVLB  9
0CD16:  CLRF   x0E
0CD18:  MOVLB  0
0CD1A:  CALL   1424
....................          strcpy(Menus.Letra,"Alarma"); 
0CD1E:  MOVLW  08
0CD20:  MOVWF  FEA
0CD22:  MOVLW  E7
0CD24:  MOVWF  FE9
0CD26:  MOVFF  FF2,907
0CD2A:  BCF    FF2.7
0CD2C:  MOVLW  00
0CD2E:  CALL   12A4
0CD32:  TBLRD*-
0CD34:  TBLRD*+
0CD36:  MOVF   FF5,W
0CD38:  MOVWF  FEE
0CD3A:  IORLW  00
0CD3C:  BNZ   CD34
0CD3E:  MOVLB  9
0CD40:  BTFSC  x07.7
0CD42:  BSF    FF2.7
....................          displayMenu(Menus.Letra,0,0,1,2); 
0CD44:  MOVLW  08
0CD46:  MOVWF  x0F
0CD48:  MOVLW  E7
0CD4A:  MOVWF  x0E
0CD4C:  CLRF   x10
0CD4E:  CLRF   x11
0CD50:  MOVLW  01
0CD52:  MOVWF  x12
0CD54:  MOVLW  02
0CD56:  MOVWF  x13
0CD58:  MOVLB  0
0CD5A:  CALL   1A52
....................           
....................          displayTemperatura(AlTem,30,30,0,3); 
0CD5E:  MOVFF  658,90D
0CD62:  MOVFF  657,90C
0CD66:  MOVLW  1E
0CD68:  MOVLB  9
0CD6A:  MOVWF  x0E
0CD6C:  MOVWF  x0F
0CD6E:  CLRF   x10
0CD70:  MOVLW  03
0CD72:  MOVWF  x11
0CD74:  MOVLB  0
0CD76:  CALL   43BA
....................           
....................          visual=0; 
0CD7A:  MOVLB  6
0CD7C:  BCF    x22.7
....................       } 
....................        
....................          if(UP)//Si oprime hacia arriba 
0CD7E:  BSF    F92.5
0CD80:  BTFSC  F80.5
0CD82:  BRA    CE20
....................          {   
....................             Buzz_on;delay_ms(10);Buzz_off; 
0CD84:  BSF    F8B.5
0CD86:  BCF    F94.5
0CD88:  MOVLW  0A
0CD8A:  MOVLB  9
0CD8C:  MOVWF  x1D
0CD8E:  MOVLB  0
0CD90:  CALL   13A4
0CD94:  BCF    F8B.5
0CD96:  BCF    F94.5
....................             if(AlTem>500) 
0CD98:  MOVLB  6
0CD9A:  MOVF   x58,W
0CD9C:  SUBLW  00
0CD9E:  BC    CDC4
0CDA0:  XORLW  FF
0CDA2:  BNZ   CDAA
0CDA4:  MOVF   x57,W
0CDA6:  SUBLW  F4
0CDA8:  BC    CDC4
....................             { 
....................                AlTem=500;delay_ms(100);visual=1; 
0CDAA:  MOVLW  01
0CDAC:  MOVWF  x58
0CDAE:  MOVLW  F4
0CDB0:  MOVWF  x57
0CDB2:  MOVLW  64
0CDB4:  MOVLB  9
0CDB6:  MOVWF  x1D
0CDB8:  MOVLB  0
0CDBA:  CALL   13A4
0CDBE:  MOVLB  6
0CDC0:  BSF    x22.7
....................             } 
....................             else 
0CDC2:  BRA    CE20
....................             { 
....................                delay_ms(30);AlTem+=1.0;visual=1; 
0CDC4:  MOVLW  1E
0CDC6:  MOVLB  9
0CDC8:  MOVWF  x1D
0CDCA:  MOVLB  0
0CDCC:  CALL   13A4
0CDD0:  MOVFF  658,91E
0CDD4:  MOVFF  657,91D
0CDD8:  CALL   1D5A
0CDDC:  BCF    FD8.1
0CDDE:  MOVFF  03,91D
0CDE2:  MOVFF  02,91C
0CDE6:  MOVFF  01,91B
0CDEA:  MOVFF  00,91A
0CDEE:  MOVLB  9
0CDF0:  CLRF   x21
0CDF2:  CLRF   x20
0CDF4:  CLRF   x1F
0CDF6:  MOVLW  7F
0CDF8:  MOVWF  x1E
0CDFA:  MOVLB  0
0CDFC:  CALL   1F68
0CE00:  MOVFF  03,916
0CE04:  MOVFF  02,915
0CE08:  MOVFF  01,914
0CE0C:  MOVFF  00,913
0CE10:  CALL   37CA
0CE14:  MOVFF  02,658
0CE18:  MOVFF  01,657
0CE1C:  MOVLB  6
0CE1E:  BSF    x22.7
....................             } 
....................          } 
....................                 
....................          if(DOWN)//Si oprime hacia abajo 
0CE20:  BSF    F96.0
0CE22:  BTFSC  F84.0
0CE24:  BRA    CEA0
....................          {   
....................             Buzz_on;delay_ms(10);Buzz_off; 
0CE26:  BSF    F8B.5
0CE28:  BCF    F94.5
0CE2A:  MOVLW  0A
0CE2C:  MOVLB  9
0CE2E:  MOVWF  x1D
0CE30:  MOVLB  0
0CE32:  CALL   13A4
0CE36:  BCF    F8B.5
0CE38:  BCF    F94.5
....................             if(AlTem>0) 
0CE3A:  MOVLB  6
0CE3C:  MOVF   x57,F
0CE3E:  BNZ   CE44
0CE40:  MOVF   x58,F
0CE42:  BZ    CEA0
....................             { 
....................                delay_ms(30);AlTem-=1.0;visual=1;      
0CE44:  MOVLW  1E
0CE46:  MOVLB  9
0CE48:  MOVWF  x1D
0CE4A:  MOVLB  0
0CE4C:  CALL   13A4
0CE50:  MOVFF  658,91E
0CE54:  MOVFF  657,91D
0CE58:  CALL   1D5A
0CE5C:  BSF    FD8.1
0CE5E:  MOVFF  03,91D
0CE62:  MOVFF  02,91C
0CE66:  MOVFF  01,91B
0CE6A:  MOVFF  00,91A
0CE6E:  MOVLB  9
0CE70:  CLRF   x21
0CE72:  CLRF   x20
0CE74:  CLRF   x1F
0CE76:  MOVLW  7F
0CE78:  MOVWF  x1E
0CE7A:  MOVLB  0
0CE7C:  CALL   1F68
0CE80:  MOVFF  03,916
0CE84:  MOVFF  02,915
0CE88:  MOVFF  01,914
0CE8C:  MOVFF  00,913
0CE90:  CALL   37CA
0CE94:  MOVFF  02,658
0CE98:  MOVFF  01,657
0CE9C:  MOVLB  6
0CE9E:  BSF    x22.7
....................             } 
....................          } 
....................                 
....................          if(RIGHT)//Si oprime SET 
0CEA0:  BSF    F96.1
0CEA2:  BTFSC  F84.1
0CEA4:  BRA    CECA
....................          {   
....................             Buzz_on;delay_ms(10);Buzz_off; 
0CEA6:  BSF    F8B.5
0CEA8:  BCF    F94.5
0CEAA:  MOVLW  0A
0CEAC:  MOVLB  9
0CEAE:  MOVWF  x1D
0CEB0:  MOVLB  0
0CEB2:  CALL   13A4
0CEB6:  BCF    F8B.5
0CEB8:  BCF    F94.5
....................             delay_ms(30);visual=1; 
0CEBA:  MOVLW  1E
0CEBC:  MOVLB  9
0CEBE:  MOVWF  x1D
0CEC0:  MOVLB  0
0CEC2:  CALL   13A4
0CEC6:  MOVLB  6
0CEC8:  BSF    x22.7
....................          }  
....................                    
....................          if(LEFT)//Si oprime boton de Toma. 
0CECA:  BSF    F96.2
0CECC:  BTFSC  F84.2
0CECE:  BRA    CF8E
....................          { 
....................             Buzz_on;delay_ms(10);Buzz_off; 
0CED0:  BSF    F8B.5
0CED2:  BCF    F94.5
0CED4:  MOVLW  0A
0CED6:  MOVLB  9
0CED8:  MOVWF  x1D
0CEDA:  MOVLB  0
0CEDC:  CALL   13A4
0CEE0:  BCF    F8B.5
0CEE2:  BCF    F94.5
....................             delay_ms(700);Menu=100;glcd_fillscreen(OFF);Opcion=1;visual=1; 
0CEE4:  MOVLW  04
0CEE6:  MOVLB  9
0CEE8:  MOVWF  x07
0CEEA:  MOVLW  AF
0CEEC:  MOVWF  x1D
0CEEE:  MOVLB  0
0CEF0:  CALL   13A4
0CEF4:  MOVLB  9
0CEF6:  DECFSZ x07,F
0CEF8:  BRA    CEEA
0CEFA:  MOVLW  64
0CEFC:  MOVLB  6
0CEFE:  MOVWF  x38
0CF00:  MOVLB  9
0CF02:  CLRF   x0E
0CF04:  MOVLB  0
0CF06:  CALL   1424
0CF0A:  MOVLW  01
0CF0C:  MOVLB  6
0CF0E:  MOVWF  x3F
0CF10:  BSF    x22.7
....................             write_eeprom(472,make8(AlTem,0)); 
0CF12:  MOVFF  657,907
0CF16:  MOVWF  FAA
0CF18:  MOVLW  D8
0CF1A:  MOVWF  FA9
0CF1C:  MOVFF  907,FA8
0CF20:  BCF    FA6.6
0CF22:  BCF    FA6.7
0CF24:  BSF    FA6.2
0CF26:  MOVF   FF2,W
0CF28:  MOVWF  00
0CF2A:  BCF    FF2.7
0CF2C:  MOVLB  F
0CF2E:  MOVLW  55
0CF30:  MOVWF  FA7
0CF32:  MOVLW  AA
0CF34:  MOVWF  FA7
0CF36:  BSF    FA6.1
0CF38:  BTFSC  FA6.1
0CF3A:  BRA    CF38
0CF3C:  BCF    FA6.2
0CF3E:  MOVF   00,W
0CF40:  IORWF  FF2,F
....................             delay_ms(10); 
0CF42:  MOVLW  0A
0CF44:  MOVLB  9
0CF46:  MOVWF  x1D
0CF48:  MOVLB  0
0CF4A:  CALL   13A4
....................             write_eeprom(473,make8(AlTem,1)); 
0CF4E:  MOVFF  658,907
0CF52:  MOVLW  01
0CF54:  MOVWF  FAA
0CF56:  MOVLW  D9
0CF58:  MOVWF  FA9
0CF5A:  MOVFF  907,FA8
0CF5E:  BCF    FA6.6
0CF60:  BCF    FA6.7
0CF62:  BSF    FA6.2
0CF64:  MOVF   FF2,W
0CF66:  MOVWF  00
0CF68:  BCF    FF2.7
0CF6A:  MOVLB  F
0CF6C:  MOVLW  55
0CF6E:  MOVWF  FA7
0CF70:  MOVLW  AA
0CF72:  MOVWF  FA7
0CF74:  BSF    FA6.1
0CF76:  BTFSC  FA6.1
0CF78:  BRA    CF76
0CF7A:  BCF    FA6.2
0CF7C:  MOVF   00,W
0CF7E:  IORWF  FF2,F
....................             delay_ms(10); 
0CF80:  MOVLW  0A
0CF82:  MOVLB  9
0CF84:  MOVWF  x1D
0CF86:  MOVLB  0
0CF88:  CALL   13A4
0CF8C:  MOVLB  6
....................          } 
....................      } 
.................... //_-------------------------------------------------------------------------------------------------------------------------------------------------------- 
....................  
.................... //_--------------------------------------------------------------------------------------------------------------------------------------------------------       
....................       if(Menu==110){ // Menu de Resistencia conversora I/V 
0CF8E:  MOVF   x38,W
0CF90:  SUBLW  6E
0CF92:  BTFSS  FD8.2
0CF94:  BRA    D442
....................        
....................       if(resistencia>260)       
0CF96:  MOVLB  9
0CF98:  CLRF   x0A
0CF9A:  CLRF   x09
0CF9C:  MOVLW  02
0CF9E:  MOVWF  x08
0CFA0:  MOVLW  87
0CFA2:  MOVWF  x07
0CFA4:  MOVFF  6C6,90E
0CFA8:  MOVFF  6C5,90D
0CFAC:  MOVFF  6C4,90C
0CFB0:  MOVFF  6C3,90B
0CFB4:  MOVLB  0
0CFB6:  CALL   1D90
0CFBA:  BNC   CFCC
....................          resistencia=240; 
0CFBC:  MOVLB  6
0CFBE:  CLRF   xC6
0CFC0:  CLRF   xC5
0CFC2:  MOVLW  70
0CFC4:  MOVWF  xC4
0CFC6:  MOVLW  86
0CFC8:  MOVWF  xC3
....................       else if(resistencia<230) 
0CFCA:  BRA    D000
0CFCC:  MOVFF  6C6,90A
0CFD0:  MOVFF  6C5,909
0CFD4:  MOVFF  6C4,908
0CFD8:  MOVFF  6C3,907
0CFDC:  MOVLB  9
0CFDE:  CLRF   x0E
0CFE0:  CLRF   x0D
0CFE2:  MOVLW  66
0CFE4:  MOVWF  x0C
0CFE6:  MOVLW  86
0CFE8:  MOVWF  x0B
0CFEA:  MOVLB  0
0CFEC:  CALL   1D90
0CFF0:  BNC   D000
....................          resistencia=240; 
0CFF2:  MOVLB  6
0CFF4:  CLRF   xC6
0CFF6:  CLRF   xC5
0CFF8:  MOVLW  70
0CFFA:  MOVWF  xC4
0CFFC:  MOVLW  86
0CFFE:  MOVWF  xC3
....................        
....................       if(visual==1){ 
0D000:  MOVLB  6
0D002:  BTFSS  x22.7
0D004:  BRA    D08C
....................          glcd_fillScreen(OFF); 
0D006:  MOVLB  9
0D008:  CLRF   x0E
0D00A:  MOVLB  0
0D00C:  CALL   1424
....................          strcpy(Menus.Letra,"Resis."); 
0D010:  MOVLW  08
0D012:  MOVWF  FEA
0D014:  MOVLW  E7
0D016:  MOVWF  FE9
0D018:  MOVFF  FF2,907
0D01C:  BCF    FF2.7
0D01E:  MOVLW  00
0D020:  CALL   12CA
0D024:  TBLRD*-
0D026:  TBLRD*+
0D028:  MOVF   FF5,W
0D02A:  MOVWF  FEE
0D02C:  IORLW  00
0D02E:  BNZ   D026
0D030:  MOVLB  9
0D032:  BTFSC  x07.7
0D034:  BSF    FF2.7
....................          displayMenu(Menus.Letra,0,0,1,2); 
0D036:  MOVLW  08
0D038:  MOVWF  x0F
0D03A:  MOVLW  E7
0D03C:  MOVWF  x0E
0D03E:  CLRF   x10
0D040:  CLRF   x11
0D042:  MOVLW  01
0D044:  MOVWF  x12
0D046:  MOVLW  02
0D048:  MOVWF  x13
0D04A:  MOVLB  0
0D04C:  CALL   1A52
....................           
....................          displayTemperatura(resistencia,30,30,0,3); 
0D050:  MOVFF  6C6,916
0D054:  MOVFF  6C5,915
0D058:  MOVFF  6C4,914
0D05C:  MOVFF  6C3,913
0D060:  CALL   37CA
0D064:  MOVFF  02,908
0D068:  MOVFF  01,907
0D06C:  MOVFF  02,90D
0D070:  MOVFF  01,90C
0D074:  MOVLW  1E
0D076:  MOVLB  9
0D078:  MOVWF  x0E
0D07A:  MOVWF  x0F
0D07C:  CLRF   x10
0D07E:  MOVLW  03
0D080:  MOVWF  x11
0D082:  MOVLB  0
0D084:  CALL   43BA
....................           
....................          visual=0; 
0D088:  MOVLB  6
0D08A:  BCF    x22.7
....................       } 
....................        
....................          if(UP)//Si oprime hacia arriba 
0D08C:  BSF    F92.5
0D08E:  BTFSC  F80.5
0D090:  BRA    D0EC
....................          {   
....................             Buzz_on;delay_ms(10);Buzz_off; 
0D092:  BSF    F8B.5
0D094:  BCF    F94.5
0D096:  MOVLW  0A
0D098:  MOVLB  9
0D09A:  MOVWF  x1D
0D09C:  MOVLB  0
0D09E:  CALL   13A4
0D0A2:  BCF    F8B.5
0D0A4:  BCF    F94.5
....................             visual=1; 
0D0A6:  MOVLB  6
0D0A8:  BSF    x22.7
....................             resistencia+=1.0; 
0D0AA:  BCF    FD8.1
0D0AC:  MOVFF  6C6,91D
0D0B0:  MOVFF  6C5,91C
0D0B4:  MOVFF  6C4,91B
0D0B8:  MOVFF  6C3,91A
0D0BC:  MOVLB  9
0D0BE:  CLRF   x21
0D0C0:  CLRF   x20
0D0C2:  CLRF   x1F
0D0C4:  MOVLW  7F
0D0C6:  MOVWF  x1E
0D0C8:  MOVLB  0
0D0CA:  CALL   1F68
0D0CE:  MOVFF  03,6C6
0D0D2:  MOVFF  02,6C5
0D0D6:  MOVFF  01,6C4
0D0DA:  MOVFF  00,6C3
....................             delay_ms(30); 
0D0DE:  MOVLW  1E
0D0E0:  MOVLB  9
0D0E2:  MOVWF  x1D
0D0E4:  MOVLB  0
0D0E6:  CALL   13A4
0D0EA:  MOVLB  6
....................          } 
....................                 
....................          if(DOWN)//Si oprime hacia abajo 
0D0EC:  BSF    F96.0
0D0EE:  BTFSC  F84.0
0D0F0:  BRA    D14C
....................          {   
....................             Buzz_on;delay_ms(10);Buzz_off; 
0D0F2:  BSF    F8B.5
0D0F4:  BCF    F94.5
0D0F6:  MOVLW  0A
0D0F8:  MOVLB  9
0D0FA:  MOVWF  x1D
0D0FC:  MOVLB  0
0D0FE:  CALL   13A4
0D102:  BCF    F8B.5
0D104:  BCF    F94.5
....................             visual=1; 
0D106:  MOVLB  6
0D108:  BSF    x22.7
....................             resistencia-=1.0; 
0D10A:  BSF    FD8.1
0D10C:  MOVFF  6C6,91D
0D110:  MOVFF  6C5,91C
0D114:  MOVFF  6C4,91B
0D118:  MOVFF  6C3,91A
0D11C:  MOVLB  9
0D11E:  CLRF   x21
0D120:  CLRF   x20
0D122:  CLRF   x1F
0D124:  MOVLW  7F
0D126:  MOVWF  x1E
0D128:  MOVLB  0
0D12A:  CALL   1F68
0D12E:  MOVFF  03,6C6
0D132:  MOVFF  02,6C5
0D136:  MOVFF  01,6C4
0D13A:  MOVFF  00,6C3
....................             delay_ms(30); 
0D13E:  MOVLW  1E
0D140:  MOVLB  9
0D142:  MOVWF  x1D
0D144:  MOVLB  0
0D146:  CALL   13A4
0D14A:  MOVLB  6
....................          } 
....................                 
....................          if(RIGHT)//Si oprime SET 
0D14C:  BSF    F96.1
0D14E:  BTFSC  F84.1
0D150:  BRA    D176
....................          {   
....................             Buzz_on;delay_ms(10);Buzz_off; 
0D152:  BSF    F8B.5
0D154:  BCF    F94.5
0D156:  MOVLW  0A
0D158:  MOVLB  9
0D15A:  MOVWF  x1D
0D15C:  MOVLB  0
0D15E:  CALL   13A4
0D162:  BCF    F8B.5
0D164:  BCF    F94.5
....................             delay_ms(30);visual=1; 
0D166:  MOVLW  1E
0D168:  MOVLB  9
0D16A:  MOVWF  x1D
0D16C:  MOVLB  0
0D16E:  CALL   13A4
0D172:  MOVLB  6
0D174:  BSF    x22.7
....................          }  
....................                    
....................          if(LEFT)//Si oprime boton de Toma. 
0D176:  BSF    F96.2
0D178:  BTFSC  F84.2
0D17A:  BRA    D442
....................          { 
....................             Buzz_on;delay_ms(10);Buzz_off; 
0D17C:  BSF    F8B.5
0D17E:  BCF    F94.5
0D180:  MOVLW  0A
0D182:  MOVLB  9
0D184:  MOVWF  x1D
0D186:  MOVLB  0
0D188:  CALL   13A4
0D18C:  BCF    F8B.5
0D18E:  BCF    F94.5
....................             delay_ms(700);Menu=100;glcd_fillscreen(OFF);Opcion=1;visual=1; 
0D190:  MOVLW  04
0D192:  MOVLB  9
0D194:  MOVWF  x07
0D196:  MOVLW  AF
0D198:  MOVWF  x1D
0D19A:  MOVLB  0
0D19C:  CALL   13A4
0D1A0:  MOVLB  9
0D1A2:  DECFSZ x07,F
0D1A4:  BRA    D196
0D1A6:  MOVLW  64
0D1A8:  MOVLB  6
0D1AA:  MOVWF  x38
0D1AC:  MOVLB  9
0D1AE:  CLRF   x0E
0D1B0:  MOVLB  0
0D1B2:  CALL   1424
0D1B6:  MOVLW  01
0D1B8:  MOVLB  6
0D1BA:  MOVWF  x3F
0D1BC:  BSF    x22.7
....................             write_eeprom(457,(int8)resistencia); 
0D1BE:  MOVFF  6C6,916
0D1C2:  MOVFF  6C5,915
0D1C6:  MOVFF  6C4,914
0D1CA:  MOVFF  6C3,913
0D1CE:  MOVLB  0
0D1D0:  CALL   37CA
0D1D4:  MOVFF  01,907
0D1D8:  MOVLW  01
0D1DA:  MOVWF  FAA
0D1DC:  MOVLW  C9
0D1DE:  MOVWF  FA9
0D1E0:  MOVFF  907,FA8
0D1E4:  BCF    FA6.6
0D1E6:  BCF    FA6.7
0D1E8:  BSF    FA6.2
0D1EA:  MOVF   FF2,W
0D1EC:  MOVWF  00
0D1EE:  BCF    FF2.7
0D1F0:  MOVLB  F
0D1F2:  MOVLW  55
0D1F4:  MOVWF  FA7
0D1F6:  MOVLW  AA
0D1F8:  MOVWF  FA7
0D1FA:  BSF    FA6.1
0D1FC:  BTFSC  FA6.1
0D1FE:  BRA    D1FC
0D200:  BCF    FA6.2
0D202:  MOVF   00,W
0D204:  IORWF  FF2,F
....................             delay_ms(10); 
0D206:  MOVLW  0A
0D208:  MOVLB  9
0D20A:  MOVWF  x1D
0D20C:  MOVLB  0
0D20E:  CALL   13A4
....................             adcInf=(0.004*resistencia*1023)/5.0; 
0D212:  MOVLW  6F
0D214:  MOVLB  9
0D216:  MOVWF  x2B
0D218:  MOVLW  12
0D21A:  MOVWF  x2A
0D21C:  MOVLW  03
0D21E:  MOVWF  x29
0D220:  MOVLW  77
0D222:  MOVWF  x28
0D224:  MOVFF  6C6,92F
0D228:  MOVFF  6C5,92E
0D22C:  MOVFF  6C4,92D
0D230:  MOVFF  6C3,92C
0D234:  MOVLB  0
0D236:  CALL   32D4
0D23A:  MOVFF  00,907
0D23E:  MOVFF  01,908
0D242:  MOVFF  02,909
0D246:  MOVFF  03,90A
0D24A:  MOVFF  03,92B
0D24E:  MOVFF  02,92A
0D252:  MOVFF  01,929
0D256:  MOVFF  00,928
0D25A:  MOVLB  9
0D25C:  CLRF   x2F
0D25E:  MOVLW  C0
0D260:  MOVWF  x2E
0D262:  MOVLW  7F
0D264:  MOVWF  x2D
0D266:  MOVLW  88
0D268:  MOVWF  x2C
0D26A:  MOVLB  0
0D26C:  CALL   32D4
0D270:  MOVFF  00,907
0D274:  MOVFF  01,908
0D278:  MOVFF  02,909
0D27C:  MOVFF  03,90A
0D280:  MOVFF  03,91F
0D284:  MOVFF  02,91E
0D288:  MOVFF  01,91D
0D28C:  MOVFF  00,91C
0D290:  MOVLB  9
0D292:  CLRF   x23
0D294:  CLRF   x22
0D296:  MOVLW  20
0D298:  MOVWF  x21
0D29A:  MOVLW  81
0D29C:  MOVWF  x20
0D29E:  MOVLB  0
0D2A0:  CALL   1E0A
0D2A4:  MOVFF  03,6F2
0D2A8:  MOVFF  02,6F1
0D2AC:  MOVFF  01,6F0
0D2B0:  MOVFF  00,6EF
....................             adcSup=(0.02*resistencia*1023)/5.0; 
0D2B4:  MOVLW  0A
0D2B6:  MOVLB  9
0D2B8:  MOVWF  x2B
0D2BA:  MOVLW  D7
0D2BC:  MOVWF  x2A
0D2BE:  MOVLW  23
0D2C0:  MOVWF  x29
0D2C2:  MOVLW  79
0D2C4:  MOVWF  x28
0D2C6:  MOVFF  6C6,92F
0D2CA:  MOVFF  6C5,92E
0D2CE:  MOVFF  6C4,92D
0D2D2:  MOVFF  6C3,92C
0D2D6:  MOVLB  0
0D2D8:  CALL   32D4
0D2DC:  MOVFF  00,907
0D2E0:  MOVFF  01,908
0D2E4:  MOVFF  02,909
0D2E8:  MOVFF  03,90A
0D2EC:  MOVFF  03,92B
0D2F0:  MOVFF  02,92A
0D2F4:  MOVFF  01,929
0D2F8:  MOVFF  00,928
0D2FC:  MOVLB  9
0D2FE:  CLRF   x2F
0D300:  MOVLW  C0
0D302:  MOVWF  x2E
0D304:  MOVLW  7F
0D306:  MOVWF  x2D
0D308:  MOVLW  88
0D30A:  MOVWF  x2C
0D30C:  MOVLB  0
0D30E:  CALL   32D4
0D312:  MOVFF  00,907
0D316:  MOVFF  01,908
0D31A:  MOVFF  02,909
0D31E:  MOVFF  03,90A
0D322:  MOVFF  03,91F
0D326:  MOVFF  02,91E
0D32A:  MOVFF  01,91D
0D32E:  MOVFF  00,91C
0D332:  MOVLB  9
0D334:  CLRF   x23
0D336:  CLRF   x22
0D338:  MOVLW  20
0D33A:  MOVWF  x21
0D33C:  MOVLW  81
0D33E:  MOVWF  x20
0D340:  MOVLB  0
0D342:  CALL   1E0A
0D346:  MOVFF  03,6EE
0D34A:  MOVFF  02,6ED
0D34E:  MOVFF  01,6EC
0D352:  MOVFF  00,6EB
....................             m=(Tsup-Tinf)/(adcSup-adcInf); 
0D356:  BSF    FD8.1
0D358:  MOVFF  6F6,91D
0D35C:  MOVFF  6F5,91C
0D360:  MOVFF  6F4,91B
0D364:  MOVFF  6F3,91A
0D368:  MOVFF  6FA,921
0D36C:  MOVFF  6F9,920
0D370:  MOVFF  6F8,91F
0D374:  MOVFF  6F7,91E
0D378:  CALL   1F68
0D37C:  MOVFF  00,907
0D380:  MOVFF  01,908
0D384:  MOVFF  02,909
0D388:  MOVFF  03,90A
0D38C:  BSF    FD8.1
0D38E:  MOVFF  6EE,91D
0D392:  MOVFF  6ED,91C
0D396:  MOVFF  6EC,91B
0D39A:  MOVFF  6EB,91A
0D39E:  MOVFF  6F2,921
0D3A2:  MOVFF  6F1,920
0D3A6:  MOVFF  6F0,91F
0D3AA:  MOVFF  6EF,91E
0D3AE:  CALL   1F68
0D3B2:  MOVFF  90A,91F
0D3B6:  MOVFF  909,91E
0D3BA:  MOVFF  908,91D
0D3BE:  MOVFF  907,91C
0D3C2:  MOVFF  03,923
0D3C6:  MOVFF  02,922
0D3CA:  MOVFF  01,921
0D3CE:  MOVFF  00,920
0D3D2:  CALL   1E0A
0D3D6:  MOVFF  03,6E6
0D3DA:  MOVFF  02,6E5
0D3DE:  MOVFF  01,6E4
0D3E2:  MOVFF  00,6E3
....................             b=Tsup-(m*adcSup); 
0D3E6:  MOVFF  6E6,92B
0D3EA:  MOVFF  6E5,92A
0D3EE:  MOVFF  6E4,929
0D3F2:  MOVFF  6E3,928
0D3F6:  MOVFF  6EE,92F
0D3FA:  MOVFF  6ED,92E
0D3FE:  MOVFF  6EC,92D
0D402:  MOVFF  6EB,92C
0D406:  CALL   32D4
0D40A:  BSF    FD8.1
0D40C:  MOVFF  6F6,91D
0D410:  MOVFF  6F5,91C
0D414:  MOVFF  6F4,91B
0D418:  MOVFF  6F3,91A
0D41C:  MOVFF  03,921
0D420:  MOVFF  02,920
0D424:  MOVFF  01,91F
0D428:  MOVFF  00,91E
0D42C:  CALL   1F68
0D430:  MOVFF  03,6EA
0D434:  MOVFF  02,6E9
0D438:  MOVFF  01,6E8
0D43C:  MOVFF  00,6E7
0D440:  MOVLB  6
....................          } 
....................      } 
.................... //_-------------------------------------------------------------------------------------------------------------------------------------------------------- 
....................  
.................... //_--------------------------------------------------------------------------------------------------------------------------------------------------------       
....................       if(Menu==111){ // Menu de Pendiente de calentamiento de mufla 
0D442:  MOVF   x38,W
0D444:  SUBLW  6F
0D446:  BTFSS  FD8.2
0D448:  BRA    D6C4
....................        
....................       if(penMufla>255)       
0D44A:  MOVLB  9
0D44C:  CLRF   x0A
0D44E:  CLRF   x09
0D450:  MOVLW  7F
0D452:  MOVWF  x08
0D454:  MOVLW  86
0D456:  MOVWF  x07
0D458:  MOVFF  6FE,90E
0D45C:  MOVFF  6FD,90D
0D460:  MOVFF  6FC,90C
0D464:  MOVFF  6FB,90B
0D468:  MOVLB  0
0D46A:  CALL   1D90
0D46E:  BNC   D47E
....................          penMufla=1; 
0D470:  MOVLB  6
0D472:  CLRF   xFE
0D474:  CLRF   xFD
0D476:  CLRF   xFC
0D478:  MOVLW  7F
0D47A:  MOVWF  xFB
....................       else if(penMufla<1) 
0D47C:  BRA    D4B0
0D47E:  MOVFF  6FE,90A
0D482:  MOVFF  6FD,909
0D486:  MOVFF  6FC,908
0D48A:  MOVFF  6FB,907
0D48E:  MOVLB  9
0D490:  CLRF   x0E
0D492:  CLRF   x0D
0D494:  CLRF   x0C
0D496:  MOVLW  7F
0D498:  MOVWF  x0B
0D49A:  MOVLB  0
0D49C:  CALL   1D90
0D4A0:  BNC   D4B0
....................          penMufla=255; 
0D4A2:  MOVLB  6
0D4A4:  CLRF   xFE
0D4A6:  CLRF   xFD
0D4A8:  MOVLW  7F
0D4AA:  MOVWF  xFC
0D4AC:  MOVLW  86
0D4AE:  MOVWF  xFB
....................        
....................       if(visual==1){ 
0D4B0:  MOVLB  6
0D4B2:  BTFSS  x22.7
0D4B4:  BRA    D53C
....................          glcd_fillScreen(OFF); 
0D4B6:  MOVLB  9
0D4B8:  CLRF   x0E
0D4BA:  MOVLB  0
0D4BC:  CALL   1424
....................          strcpy(Menus.Letra,"m Mufla"); 
0D4C0:  MOVLW  08
0D4C2:  MOVWF  FEA
0D4C4:  MOVLW  E7
0D4C6:  MOVWF  FE9
0D4C8:  MOVFF  FF2,907
0D4CC:  BCF    FF2.7
0D4CE:  MOVLW  00
0D4D0:  CALL   116E
0D4D4:  TBLRD*-
0D4D6:  TBLRD*+
0D4D8:  MOVF   FF5,W
0D4DA:  MOVWF  FEE
0D4DC:  IORLW  00
0D4DE:  BNZ   D4D6
0D4E0:  MOVLB  9
0D4E2:  BTFSC  x07.7
0D4E4:  BSF    FF2.7
....................          displayMenu(Menus.Letra,0,0,1,2); 
0D4E6:  MOVLW  08
0D4E8:  MOVWF  x0F
0D4EA:  MOVLW  E7
0D4EC:  MOVWF  x0E
0D4EE:  CLRF   x10
0D4F0:  CLRF   x11
0D4F2:  MOVLW  01
0D4F4:  MOVWF  x12
0D4F6:  MOVLW  02
0D4F8:  MOVWF  x13
0D4FA:  MOVLB  0
0D4FC:  CALL   1A52
....................           
....................          displayTemperatura(penMufla,30,30,0,3); 
0D500:  MOVFF  6FE,916
0D504:  MOVFF  6FD,915
0D508:  MOVFF  6FC,914
0D50C:  MOVFF  6FB,913
0D510:  CALL   37CA
0D514:  MOVFF  02,908
0D518:  MOVFF  01,907
0D51C:  MOVFF  02,90D
0D520:  MOVFF  01,90C
0D524:  MOVLW  1E
0D526:  MOVLB  9
0D528:  MOVWF  x0E
0D52A:  MOVWF  x0F
0D52C:  CLRF   x10
0D52E:  MOVLW  03
0D530:  MOVWF  x11
0D532:  MOVLB  0
0D534:  CALL   43BA
....................           
....................          visual=0; 
0D538:  MOVLB  6
0D53A:  BCF    x22.7
....................       } 
....................        
....................          if(UP)//Si oprime hacia arriba 
0D53C:  BSF    F92.5
0D53E:  BTFSC  F80.5
0D540:  BRA    D59C
....................          {   
....................             Buzz_on;delay_ms(10);Buzz_off; 
0D542:  BSF    F8B.5
0D544:  BCF    F94.5
0D546:  MOVLW  0A
0D548:  MOVLB  9
0D54A:  MOVWF  x1D
0D54C:  MOVLB  0
0D54E:  CALL   13A4
0D552:  BCF    F8B.5
0D554:  BCF    F94.5
....................             visual=1; 
0D556:  MOVLB  6
0D558:  BSF    x22.7
....................             penMufla+=1.0; 
0D55A:  BCF    FD8.1
0D55C:  MOVFF  6FE,91D
0D560:  MOVFF  6FD,91C
0D564:  MOVFF  6FC,91B
0D568:  MOVFF  6FB,91A
0D56C:  MOVLB  9
0D56E:  CLRF   x21
0D570:  CLRF   x20
0D572:  CLRF   x1F
0D574:  MOVLW  7F
0D576:  MOVWF  x1E
0D578:  MOVLB  0
0D57A:  CALL   1F68
0D57E:  MOVFF  03,6FE
0D582:  MOVFF  02,6FD
0D586:  MOVFF  01,6FC
0D58A:  MOVFF  00,6FB
....................             delay_ms(30); 
0D58E:  MOVLW  1E
0D590:  MOVLB  9
0D592:  MOVWF  x1D
0D594:  MOVLB  0
0D596:  CALL   13A4
0D59A:  MOVLB  6
....................          } 
....................                 
....................          if(DOWN)//Si oprime hacia abajo 
0D59C:  BSF    F96.0
0D59E:  BTFSC  F84.0
0D5A0:  BRA    D5FC
....................          {   
....................             Buzz_on;delay_ms(10);Buzz_off; 
0D5A2:  BSF    F8B.5
0D5A4:  BCF    F94.5
0D5A6:  MOVLW  0A
0D5A8:  MOVLB  9
0D5AA:  MOVWF  x1D
0D5AC:  MOVLB  0
0D5AE:  CALL   13A4
0D5B2:  BCF    F8B.5
0D5B4:  BCF    F94.5
....................             visual=1; 
0D5B6:  MOVLB  6
0D5B8:  BSF    x22.7
....................             penMufla-=1.0; 
0D5BA:  BSF    FD8.1
0D5BC:  MOVFF  6FE,91D
0D5C0:  MOVFF  6FD,91C
0D5C4:  MOVFF  6FC,91B
0D5C8:  MOVFF  6FB,91A
0D5CC:  MOVLB  9
0D5CE:  CLRF   x21
0D5D0:  CLRF   x20
0D5D2:  CLRF   x1F
0D5D4:  MOVLW  7F
0D5D6:  MOVWF  x1E
0D5D8:  MOVLB  0
0D5DA:  CALL   1F68
0D5DE:  MOVFF  03,6FE
0D5E2:  MOVFF  02,6FD
0D5E6:  MOVFF  01,6FC
0D5EA:  MOVFF  00,6FB
....................             delay_ms(30); 
0D5EE:  MOVLW  1E
0D5F0:  MOVLB  9
0D5F2:  MOVWF  x1D
0D5F4:  MOVLB  0
0D5F6:  CALL   13A4
0D5FA:  MOVLB  6
....................          } 
....................                 
....................          if(RIGHT)//Si oprime SET 
0D5FC:  BSF    F96.1
0D5FE:  BTFSC  F84.1
0D600:  BRA    D626
....................          {   
....................             Buzz_on;delay_ms(10);Buzz_off; 
0D602:  BSF    F8B.5
0D604:  BCF    F94.5
0D606:  MOVLW  0A
0D608:  MOVLB  9
0D60A:  MOVWF  x1D
0D60C:  MOVLB  0
0D60E:  CALL   13A4
0D612:  BCF    F8B.5
0D614:  BCF    F94.5
....................             delay_ms(30);visual=1; 
0D616:  MOVLW  1E
0D618:  MOVLB  9
0D61A:  MOVWF  x1D
0D61C:  MOVLB  0
0D61E:  CALL   13A4
0D622:  MOVLB  6
0D624:  BSF    x22.7
....................          }  
....................                    
....................          if(LEFT)//Si oprime boton de Toma. 
0D626:  BSF    F96.2
0D628:  BTFSC  F84.2
0D62A:  BRA    D6C4
....................          { 
....................             Buzz_on;delay_ms(10);Buzz_off; 
0D62C:  BSF    F8B.5
0D62E:  BCF    F94.5
0D630:  MOVLW  0A
0D632:  MOVLB  9
0D634:  MOVWF  x1D
0D636:  MOVLB  0
0D638:  CALL   13A4
0D63C:  BCF    F8B.5
0D63E:  BCF    F94.5
....................             delay_ms(700);Menu=100;glcd_fillscreen(OFF);Opcion=1;visual=1; 
0D640:  MOVLW  04
0D642:  MOVLB  9
0D644:  MOVWF  x07
0D646:  MOVLW  AF
0D648:  MOVWF  x1D
0D64A:  MOVLB  0
0D64C:  CALL   13A4
0D650:  MOVLB  9
0D652:  DECFSZ x07,F
0D654:  BRA    D646
0D656:  MOVLW  64
0D658:  MOVLB  6
0D65A:  MOVWF  x38
0D65C:  MOVLB  9
0D65E:  CLRF   x0E
0D660:  MOVLB  0
0D662:  CALL   1424
0D666:  MOVLW  01
0D668:  MOVLB  6
0D66A:  MOVWF  x3F
0D66C:  BSF    x22.7
....................             write_eeprom(458,(int8)penMufla); 
0D66E:  MOVFF  6FE,916
0D672:  MOVFF  6FD,915
0D676:  MOVFF  6FC,914
0D67A:  MOVFF  6FB,913
0D67E:  MOVLB  0
0D680:  CALL   37CA
0D684:  MOVFF  01,907
0D688:  MOVLW  01
0D68A:  MOVWF  FAA
0D68C:  MOVLW  CA
0D68E:  MOVWF  FA9
0D690:  MOVFF  907,FA8
0D694:  BCF    FA6.6
0D696:  BCF    FA6.7
0D698:  BSF    FA6.2
0D69A:  MOVF   FF2,W
0D69C:  MOVWF  00
0D69E:  BCF    FF2.7
0D6A0:  MOVLB  F
0D6A2:  MOVLW  55
0D6A4:  MOVWF  FA7
0D6A6:  MOVLW  AA
0D6A8:  MOVWF  FA7
0D6AA:  BSF    FA6.1
0D6AC:  BTFSC  FA6.1
0D6AE:  BRA    D6AC
0D6B0:  BCF    FA6.2
0D6B2:  MOVF   00,W
0D6B4:  IORWF  FF2,F
....................             delay_ms(10); 
0D6B6:  MOVLW  0A
0D6B8:  MOVLB  9
0D6BA:  MOVWF  x1D
0D6BC:  MOVLB  0
0D6BE:  CALL   13A4
0D6C2:  MOVLB  6
....................          } 
....................      } 
.................... //_-------------------------------------------------------------------------------------------------------------------------------------------------------- 
....................  
.................... //_--------------------------------------------------------------------------------------------------------------------------------------------------------       
....................       if(Menu==112){ // Menu de Pendiente de termocupla 
0D6C4:  MOVF   x38,W
0D6C6:  SUBLW  70
0D6C8:  BTFSS  FD8.2
0D6CA:  BRA    D996
....................        
....................       if(m>2.0)       
0D6CC:  MOVLB  9
0D6CE:  CLRF   x0A
0D6D0:  CLRF   x09
0D6D2:  CLRF   x08
0D6D4:  MOVLW  80
0D6D6:  MOVWF  x07
0D6D8:  MOVFF  6E6,90E
0D6DC:  MOVFF  6E5,90D
0D6E0:  MOVFF  6E4,90C
0D6E4:  MOVFF  6E3,90B
0D6E8:  MOVLB  0
0D6EA:  CALL   1D90
0D6EE:  BNC   D704
....................          m=1.2; 
0D6F0:  MOVLW  9A
0D6F2:  MOVLB  6
0D6F4:  MOVWF  xE6
0D6F6:  MOVLW  99
0D6F8:  MOVWF  xE5
0D6FA:  MOVLW  19
0D6FC:  MOVWF  xE4
0D6FE:  MOVLW  7F
0D700:  MOVWF  xE3
....................       else if(m<1.2) 
0D702:  BRA    D73A
0D704:  MOVFF  6E6,90A
0D708:  MOVFF  6E5,909
0D70C:  MOVFF  6E4,908
0D710:  MOVFF  6E3,907
0D714:  MOVLW  9A
0D716:  MOVLB  9
0D718:  MOVWF  x0E
0D71A:  MOVLW  99
0D71C:  MOVWF  x0D
0D71E:  MOVLW  19
0D720:  MOVWF  x0C
0D722:  MOVLW  7F
0D724:  MOVWF  x0B
0D726:  MOVLB  0
0D728:  CALL   1D90
0D72C:  BNC   D73A
....................          m=2.0; 
0D72E:  MOVLB  6
0D730:  CLRF   xE6
0D732:  CLRF   xE5
0D734:  CLRF   xE4
0D736:  MOVLW  80
0D738:  MOVWF  xE3
....................        
....................       if(visual==1){ 
0D73A:  MOVLB  6
0D73C:  BTFSS  x22.7
0D73E:  BRA    D7B0
....................          glcd_fillScreen(OFF); 
0D740:  MOVLB  9
0D742:  CLRF   x0E
0D744:  MOVLB  0
0D746:  CALL   1424
....................          strcpy(Menus.Letra,"m"); 
0D74A:  MOVLW  08
0D74C:  MOVWF  FEA
0D74E:  MOVLW  E7
0D750:  MOVWF  FE9
0D752:  MOVFF  FF2,907
0D756:  BCF    FF2.7
0D758:  MOVLW  00
0D75A:  CALL   1194
0D75E:  TBLRD*-
0D760:  TBLRD*+
0D762:  MOVF   FF5,W
0D764:  MOVWF  FEE
0D766:  IORLW  00
0D768:  BNZ   D760
0D76A:  MOVLB  9
0D76C:  BTFSC  x07.7
0D76E:  BSF    FF2.7
....................          displayMenu(Menus.Letra,0,0,1,2); 
0D770:  MOVLW  08
0D772:  MOVWF  x0F
0D774:  MOVLW  E7
0D776:  MOVWF  x0E
0D778:  CLRF   x10
0D77A:  CLRF   x11
0D77C:  MOVLW  01
0D77E:  MOVWF  x12
0D780:  MOVLW  02
0D782:  MOVWF  x13
0D784:  MOVLB  0
0D786:  CALL   1A52
....................           
....................          displayFloat(m,30,30,3); 
0D78A:  MOVFF  6E6,90E
0D78E:  MOVFF  6E5,90D
0D792:  MOVFF  6E4,90C
0D796:  MOVFF  6E3,90B
0D79A:  MOVLW  1E
0D79C:  MOVLB  9
0D79E:  MOVWF  x0F
0D7A0:  MOVWF  x10
0D7A2:  MOVLW  03
0D7A4:  MOVWF  x11
0D7A6:  MOVLB  0
0D7A8:  CALL   6EBA
....................           
....................          visual=0; 
0D7AC:  MOVLB  6
0D7AE:  BCF    x22.7
....................       } 
....................        
....................          if(UP)//Si oprime hacia arriba 
0D7B0:  BSF    F92.5
0D7B2:  BTFSC  F80.5
0D7B4:  BRA    D816
....................          {   
....................             Buzz_on;delay_ms(10);Buzz_off; 
0D7B6:  BSF    F8B.5
0D7B8:  BCF    F94.5
0D7BA:  MOVLW  0A
0D7BC:  MOVLB  9
0D7BE:  MOVWF  x1D
0D7C0:  MOVLB  0
0D7C2:  CALL   13A4
0D7C6:  BCF    F8B.5
0D7C8:  BCF    F94.5
....................             visual=1; 
0D7CA:  MOVLB  6
0D7CC:  BSF    x22.7
....................             m+=0.01; 
0D7CE:  BCF    FD8.1
0D7D0:  MOVFF  6E6,91D
0D7D4:  MOVFF  6E5,91C
0D7D8:  MOVFF  6E4,91B
0D7DC:  MOVFF  6E3,91A
0D7E0:  MOVLW  0A
0D7E2:  MOVLB  9
0D7E4:  MOVWF  x21
0D7E6:  MOVLW  D7
0D7E8:  MOVWF  x20
0D7EA:  MOVLW  23
0D7EC:  MOVWF  x1F
0D7EE:  MOVLW  78
0D7F0:  MOVWF  x1E
0D7F2:  MOVLB  0
0D7F4:  CALL   1F68
0D7F8:  MOVFF  03,6E6
0D7FC:  MOVFF  02,6E5
0D800:  MOVFF  01,6E4
0D804:  MOVFF  00,6E3
....................             delay_ms(10); 
0D808:  MOVLW  0A
0D80A:  MOVLB  9
0D80C:  MOVWF  x1D
0D80E:  MOVLB  0
0D810:  CALL   13A4
0D814:  MOVLB  6
....................          } 
....................                 
....................          if(DOWN)//Si oprime hacia abajo 
0D816:  BSF    F96.0
0D818:  BTFSC  F84.0
0D81A:  BRA    D87C
....................          {   
....................             Buzz_on;delay_ms(10);Buzz_off; 
0D81C:  BSF    F8B.5
0D81E:  BCF    F94.5
0D820:  MOVLW  0A
0D822:  MOVLB  9
0D824:  MOVWF  x1D
0D826:  MOVLB  0
0D828:  CALL   13A4
0D82C:  BCF    F8B.5
0D82E:  BCF    F94.5
....................             visual=1; 
0D830:  MOVLB  6
0D832:  BSF    x22.7
....................             m-=0.01; 
0D834:  BSF    FD8.1
0D836:  MOVFF  6E6,91D
0D83A:  MOVFF  6E5,91C
0D83E:  MOVFF  6E4,91B
0D842:  MOVFF  6E3,91A
0D846:  MOVLW  0A
0D848:  MOVLB  9
0D84A:  MOVWF  x21
0D84C:  MOVLW  D7
0D84E:  MOVWF  x20
0D850:  MOVLW  23
0D852:  MOVWF  x1F
0D854:  MOVLW  78
0D856:  MOVWF  x1E
0D858:  MOVLB  0
0D85A:  CALL   1F68
0D85E:  MOVFF  03,6E6
0D862:  MOVFF  02,6E5
0D866:  MOVFF  01,6E4
0D86A:  MOVFF  00,6E3
....................             delay_ms(10); 
0D86E:  MOVLW  0A
0D870:  MOVLB  9
0D872:  MOVWF  x1D
0D874:  MOVLB  0
0D876:  CALL   13A4
0D87A:  MOVLB  6
....................          } 
....................                 
....................          if(RIGHT)//Si oprime SET 
0D87C:  BSF    F96.1
0D87E:  BTFSC  F84.1
0D880:  BRA    D8A6
....................          {   
....................             Buzz_on;delay_ms(10);Buzz_off; 
0D882:  BSF    F8B.5
0D884:  BCF    F94.5
0D886:  MOVLW  0A
0D888:  MOVLB  9
0D88A:  MOVWF  x1D
0D88C:  MOVLB  0
0D88E:  CALL   13A4
0D892:  BCF    F8B.5
0D894:  BCF    F94.5
....................             delay_ms(30);visual=1; 
0D896:  MOVLW  1E
0D898:  MOVLB  9
0D89A:  MOVWF  x1D
0D89C:  MOVLB  0
0D89E:  CALL   13A4
0D8A2:  MOVLB  6
0D8A4:  BSF    x22.7
....................          }  
....................                    
....................          if(LEFT)//Si oprime boton de Toma. 
0D8A6:  BSF    F96.2
0D8A8:  BTFSC  F84.2
0D8AA:  BRA    D996
....................          { 
....................             Buzz_on;delay_ms(10);Buzz_off; 
0D8AC:  BSF    F8B.5
0D8AE:  BCF    F94.5
0D8B0:  MOVLW  0A
0D8B2:  MOVLB  9
0D8B4:  MOVWF  x1D
0D8B6:  MOVLB  0
0D8B8:  CALL   13A4
0D8BC:  BCF    F8B.5
0D8BE:  BCF    F94.5
....................             delay_ms(700);Menu=100;glcd_fillscreen(OFF);Opcion=1;visual=1; 
0D8C0:  MOVLW  04
0D8C2:  MOVLB  9
0D8C4:  MOVWF  x07
0D8C6:  MOVLW  AF
0D8C8:  MOVWF  x1D
0D8CA:  MOVLB  0
0D8CC:  CALL   13A4
0D8D0:  MOVLB  9
0D8D2:  DECFSZ x07,F
0D8D4:  BRA    D8C6
0D8D6:  MOVLW  64
0D8D8:  MOVLB  6
0D8DA:  MOVWF  x38
0D8DC:  MOVLB  9
0D8DE:  CLRF   x0E
0D8E0:  MOVLB  0
0D8E2:  CALL   1424
0D8E6:  MOVLW  01
0D8E8:  MOVLB  6
0D8EA:  MOVWF  x3F
0D8EC:  BSF    x22.7
....................             write_eeprom(490,(int8)m); 
0D8EE:  MOVFF  6E6,916
0D8F2:  MOVFF  6E5,915
0D8F6:  MOVFF  6E4,914
0D8FA:  MOVFF  6E3,913
0D8FE:  MOVLB  0
0D900:  CALL   37CA
0D904:  MOVFF  01,907
0D908:  MOVLW  01
0D90A:  MOVWF  FAA
0D90C:  MOVLW  EA
0D90E:  MOVWF  FA9
0D910:  MOVFF  907,FA8
0D914:  BCF    FA6.6
0D916:  BCF    FA6.7
0D918:  BSF    FA6.2
0D91A:  MOVF   FF2,W
0D91C:  MOVWF  00
0D91E:  BCF    FF2.7
0D920:  MOVLB  F
0D922:  MOVLW  55
0D924:  MOVWF  FA7
0D926:  MOVLW  AA
0D928:  MOVWF  FA7
0D92A:  BSF    FA6.1
0D92C:  BTFSC  FA6.1
0D92E:  BRA    D92C
0D930:  BCF    FA6.2
0D932:  MOVF   00,W
0D934:  IORWF  FF2,F
....................             delay_ms(10); 
0D936:  MOVLW  0A
0D938:  MOVLB  9
0D93A:  MOVWF  x1D
0D93C:  MOVLB  0
0D93E:  CALL   13A4
....................             write_eeprom(491,extraeDecimal(m)); 
0D942:  MOVFF  6E6,90A
0D946:  MOVFF  6E5,909
0D94A:  MOVFF  6E4,908
0D94E:  MOVFF  6E3,907
0D952:  CALL   6F32
0D956:  MOVFF  01,907
0D95A:  MOVLW  01
0D95C:  MOVWF  FAA
0D95E:  MOVLW  EB
0D960:  MOVWF  FA9
0D962:  MOVFF  907,FA8
0D966:  BCF    FA6.6
0D968:  BCF    FA6.7
0D96A:  BSF    FA6.2
0D96C:  MOVF   FF2,W
0D96E:  MOVWF  00
0D970:  BCF    FF2.7
0D972:  MOVLB  F
0D974:  MOVLW  55
0D976:  MOVWF  FA7
0D978:  MOVLW  AA
0D97A:  MOVWF  FA7
0D97C:  BSF    FA6.1
0D97E:  BTFSC  FA6.1
0D980:  BRA    D97E
0D982:  BCF    FA6.2
0D984:  MOVF   00,W
0D986:  IORWF  FF2,F
....................             delay_ms(10); 
0D988:  MOVLW  0A
0D98A:  MOVLB  9
0D98C:  MOVWF  x1D
0D98E:  MOVLB  0
0D990:  CALL   13A4
0D994:  MOVLB  6
....................          } 
....................      } 
.................... //_-------------------------------------------------------------------------------------------------------------------------------------------------------- 
....................  
.................... //_--------------------------------------------------------------------------------------------------------------------------------------------------------       
....................       if(Menu==113){ // Menu de b de termocupla 
0D996:  MOVF   x38,W
0D998:  SUBLW  71
0D99A:  BTFSS  FD8.2
0D99C:  BRA    DCAA
....................        
....................       if(b>400)       
0D99E:  MOVLB  9
0D9A0:  CLRF   x0A
0D9A2:  CLRF   x09
0D9A4:  MOVLW  48
0D9A6:  MOVWF  x08
0D9A8:  MOVLW  87
0D9AA:  MOVWF  x07
0D9AC:  MOVFF  6EA,90E
0D9B0:  MOVFF  6E9,90D
0D9B4:  MOVFF  6E8,90C
0D9B8:  MOVFF  6E7,90B
0D9BC:  MOVLB  0
0D9BE:  CALL   1D90
0D9C2:  BNC   D9D4
....................          b=300; 
0D9C4:  MOVLB  6
0D9C6:  CLRF   xEA
0D9C8:  CLRF   xE9
0D9CA:  MOVLW  16
0D9CC:  MOVWF  xE8
0D9CE:  MOVLW  87
0D9D0:  MOVWF  xE7
....................       else if(b<300) 
0D9D2:  BRA    DA08
0D9D4:  MOVFF  6EA,90A
0D9D8:  MOVFF  6E9,909
0D9DC:  MOVFF  6E8,908
0D9E0:  MOVFF  6E7,907
0D9E4:  MOVLB  9
0D9E6:  CLRF   x0E
0D9E8:  CLRF   x0D
0D9EA:  MOVLW  16
0D9EC:  MOVWF  x0C
0D9EE:  MOVLW  87
0D9F0:  MOVWF  x0B
0D9F2:  MOVLB  0
0D9F4:  CALL   1D90
0D9F8:  BNC   DA08
....................          b=400; 
0D9FA:  MOVLB  6
0D9FC:  CLRF   xEA
0D9FE:  CLRF   xE9
0DA00:  MOVLW  48
0DA02:  MOVWF  xE8
0DA04:  MOVLW  87
0DA06:  MOVWF  xE7
....................        
....................       if(visual==1){ 
0DA08:  MOVLB  6
0DA0A:  BTFSS  x22.7
0DA0C:  BRA    DA7E
....................          glcd_fillScreen(OFF); 
0DA0E:  MOVLB  9
0DA10:  CLRF   x0E
0DA12:  MOVLB  0
0DA14:  CALL   1424
....................          strcpy(Menus.Letra,"b"); 
0DA18:  MOVLW  08
0DA1A:  MOVWF  FEA
0DA1C:  MOVLW  E7
0DA1E:  MOVWF  FE9
0DA20:  MOVFF  FF2,907
0DA24:  BCF    FF2.7
0DA26:  MOVLW  00
0DA28:  CALL   11B4
0DA2C:  TBLRD*-
0DA2E:  TBLRD*+
0DA30:  MOVF   FF5,W
0DA32:  MOVWF  FEE
0DA34:  IORLW  00
0DA36:  BNZ   DA2E
0DA38:  MOVLB  9
0DA3A:  BTFSC  x07.7
0DA3C:  BSF    FF2.7
....................          displayMenu(Menus.Letra,0,0,1,2); 
0DA3E:  MOVLW  08
0DA40:  MOVWF  x0F
0DA42:  MOVLW  E7
0DA44:  MOVWF  x0E
0DA46:  CLRF   x10
0DA48:  CLRF   x11
0DA4A:  MOVLW  01
0DA4C:  MOVWF  x12
0DA4E:  MOVLW  02
0DA50:  MOVWF  x13
0DA52:  MOVLB  0
0DA54:  CALL   1A52
....................           
....................          displayFloat(b,30,30,3); 
0DA58:  MOVFF  6EA,90E
0DA5C:  MOVFF  6E9,90D
0DA60:  MOVFF  6E8,90C
0DA64:  MOVFF  6E7,90B
0DA68:  MOVLW  1E
0DA6A:  MOVLB  9
0DA6C:  MOVWF  x0F
0DA6E:  MOVWF  x10
0DA70:  MOVLW  03
0DA72:  MOVWF  x11
0DA74:  MOVLB  0
0DA76:  CALL   6EBA
....................           
....................          visual=0; 
0DA7A:  MOVLB  6
0DA7C:  BCF    x22.7
....................       } 
....................        
....................          if(UP)//Si oprime hacia arriba 
0DA7E:  BSF    F92.5
0DA80:  BTFSC  F80.5
0DA82:  BRA    DAE4
....................          {   
....................             Buzz_on;delay_ms(10);Buzz_off; 
0DA84:  BSF    F8B.5
0DA86:  BCF    F94.5
0DA88:  MOVLW  0A
0DA8A:  MOVLB  9
0DA8C:  MOVWF  x1D
0DA8E:  MOVLB  0
0DA90:  CALL   13A4
0DA94:  BCF    F8B.5
0DA96:  BCF    F94.5
....................             visual=1; 
0DA98:  MOVLB  6
0DA9A:  BSF    x22.7
....................             b+=0.1; 
0DA9C:  BCF    FD8.1
0DA9E:  MOVFF  6EA,91D
0DAA2:  MOVFF  6E9,91C
0DAA6:  MOVFF  6E8,91B
0DAAA:  MOVFF  6E7,91A
0DAAE:  MOVLW  CD
0DAB0:  MOVLB  9
0DAB2:  MOVWF  x21
0DAB4:  MOVLW  CC
0DAB6:  MOVWF  x20
0DAB8:  MOVLW  4C
0DABA:  MOVWF  x1F
0DABC:  MOVLW  7B
0DABE:  MOVWF  x1E
0DAC0:  MOVLB  0
0DAC2:  CALL   1F68
0DAC6:  MOVFF  03,6EA
0DACA:  MOVFF  02,6E9
0DACE:  MOVFF  01,6E8
0DAD2:  MOVFF  00,6E7
....................             delay_ms(10); 
0DAD6:  MOVLW  0A
0DAD8:  MOVLB  9
0DADA:  MOVWF  x1D
0DADC:  MOVLB  0
0DADE:  CALL   13A4
0DAE2:  MOVLB  6
....................          } 
....................                 
....................          if(DOWN)//Si oprime hacia abajo 
0DAE4:  BSF    F96.0
0DAE6:  BTFSC  F84.0
0DAE8:  BRA    DB4A
....................          {   
....................             Buzz_on;delay_ms(10);Buzz_off; 
0DAEA:  BSF    F8B.5
0DAEC:  BCF    F94.5
0DAEE:  MOVLW  0A
0DAF0:  MOVLB  9
0DAF2:  MOVWF  x1D
0DAF4:  MOVLB  0
0DAF6:  CALL   13A4
0DAFA:  BCF    F8B.5
0DAFC:  BCF    F94.5
....................             visual=1; 
0DAFE:  MOVLB  6
0DB00:  BSF    x22.7
....................             b-=0.1; 
0DB02:  BSF    FD8.1
0DB04:  MOVFF  6EA,91D
0DB08:  MOVFF  6E9,91C
0DB0C:  MOVFF  6E8,91B
0DB10:  MOVFF  6E7,91A
0DB14:  MOVLW  CD
0DB16:  MOVLB  9
0DB18:  MOVWF  x21
0DB1A:  MOVLW  CC
0DB1C:  MOVWF  x20
0DB1E:  MOVLW  4C
0DB20:  MOVWF  x1F
0DB22:  MOVLW  7B
0DB24:  MOVWF  x1E
0DB26:  MOVLB  0
0DB28:  CALL   1F68
0DB2C:  MOVFF  03,6EA
0DB30:  MOVFF  02,6E9
0DB34:  MOVFF  01,6E8
0DB38:  MOVFF  00,6E7
....................             delay_ms(10); 
0DB3C:  MOVLW  0A
0DB3E:  MOVLB  9
0DB40:  MOVWF  x1D
0DB42:  MOVLB  0
0DB44:  CALL   13A4
0DB48:  MOVLB  6
....................          } 
....................                 
....................          if(RIGHT)//Si oprime SET 
0DB4A:  BSF    F96.1
0DB4C:  BTFSC  F84.1
0DB4E:  BRA    DB74
....................          {   
....................             Buzz_on;delay_ms(10);Buzz_off; 
0DB50:  BSF    F8B.5
0DB52:  BCF    F94.5
0DB54:  MOVLW  0A
0DB56:  MOVLB  9
0DB58:  MOVWF  x1D
0DB5A:  MOVLB  0
0DB5C:  CALL   13A4
0DB60:  BCF    F8B.5
0DB62:  BCF    F94.5
....................             delay_ms(30);visual=1; 
0DB64:  MOVLW  1E
0DB66:  MOVLB  9
0DB68:  MOVWF  x1D
0DB6A:  MOVLB  0
0DB6C:  CALL   13A4
0DB70:  MOVLB  6
0DB72:  BSF    x22.7
....................          }  
....................                    
....................          if(LEFT)//Si oprime boton de Toma. 
0DB74:  BSF    F96.2
0DB76:  BTFSC  F84.2
0DB78:  BRA    DCAA
....................          { 
....................             Buzz_on;delay_ms(10);Buzz_off; 
0DB7A:  BSF    F8B.5
0DB7C:  BCF    F94.5
0DB7E:  MOVLW  0A
0DB80:  MOVLB  9
0DB82:  MOVWF  x1D
0DB84:  MOVLB  0
0DB86:  CALL   13A4
0DB8A:  BCF    F8B.5
0DB8C:  BCF    F94.5
....................             delay_ms(700);Menu=100;glcd_fillscreen(OFF);Opcion=1;visual=1; 
0DB8E:  MOVLW  04
0DB90:  MOVLB  9
0DB92:  MOVWF  x07
0DB94:  MOVLW  AF
0DB96:  MOVWF  x1D
0DB98:  MOVLB  0
0DB9A:  CALL   13A4
0DB9E:  MOVLB  9
0DBA0:  DECFSZ x07,F
0DBA2:  BRA    DB94
0DBA4:  MOVLW  64
0DBA6:  MOVLB  6
0DBA8:  MOVWF  x38
0DBAA:  MOVLB  9
0DBAC:  CLRF   x0E
0DBAE:  MOVLB  0
0DBB0:  CALL   1424
0DBB4:  MOVLW  01
0DBB6:  MOVLB  6
0DBB8:  MOVWF  x3F
0DBBA:  BSF    x22.7
....................             b16=(int16)b; 
0DBBC:  MOVFF  6EA,916
0DBC0:  MOVFF  6E9,915
0DBC4:  MOVFF  6E8,914
0DBC8:  MOVFF  6E7,913
0DBCC:  MOVLB  0
0DBCE:  CALL   37CA
0DBD2:  MOVFF  02,65A
0DBD6:  MOVFF  01,659
....................             write_eeprom(492,make8(b16,0)); 
0DBDA:  MOVFF  659,907
0DBDE:  MOVLW  01
0DBE0:  MOVWF  FAA
0DBE2:  MOVLW  EC
0DBE4:  MOVWF  FA9
0DBE6:  MOVFF  907,FA8
0DBEA:  BCF    FA6.6
0DBEC:  BCF    FA6.7
0DBEE:  BSF    FA6.2
0DBF0:  MOVF   FF2,W
0DBF2:  MOVWF  00
0DBF4:  BCF    FF2.7
0DBF6:  MOVLB  F
0DBF8:  MOVLW  55
0DBFA:  MOVWF  FA7
0DBFC:  MOVLW  AA
0DBFE:  MOVWF  FA7
0DC00:  BSF    FA6.1
0DC02:  BTFSC  FA6.1
0DC04:  BRA    DC02
0DC06:  BCF    FA6.2
0DC08:  MOVF   00,W
0DC0A:  IORWF  FF2,F
....................             delay_ms(10); 
0DC0C:  MOVLW  0A
0DC0E:  MOVLB  9
0DC10:  MOVWF  x1D
0DC12:  MOVLB  0
0DC14:  CALL   13A4
....................             write_eeprom(493,make8(b16,1)); 
0DC18:  MOVFF  65A,907
0DC1C:  MOVLW  01
0DC1E:  MOVWF  FAA
0DC20:  MOVLW  ED
0DC22:  MOVWF  FA9
0DC24:  MOVFF  907,FA8
0DC28:  BCF    FA6.6
0DC2A:  BCF    FA6.7
0DC2C:  BSF    FA6.2
0DC2E:  MOVF   FF2,W
0DC30:  MOVWF  00
0DC32:  BCF    FF2.7
0DC34:  MOVLB  F
0DC36:  MOVLW  55
0DC38:  MOVWF  FA7
0DC3A:  MOVLW  AA
0DC3C:  MOVWF  FA7
0DC3E:  BSF    FA6.1
0DC40:  BTFSC  FA6.1
0DC42:  BRA    DC40
0DC44:  BCF    FA6.2
0DC46:  MOVF   00,W
0DC48:  IORWF  FF2,F
....................             delay_ms(10); 
0DC4A:  MOVLW  0A
0DC4C:  MOVLB  9
0DC4E:  MOVWF  x1D
0DC50:  MOVLB  0
0DC52:  CALL   13A4
....................             write_eeprom(494,extraeDecimal(b)); 
0DC56:  MOVFF  6EA,90A
0DC5A:  MOVFF  6E9,909
0DC5E:  MOVFF  6E8,908
0DC62:  MOVFF  6E7,907
0DC66:  CALL   6F32
0DC6A:  MOVFF  01,907
0DC6E:  MOVLW  01
0DC70:  MOVWF  FAA
0DC72:  MOVLW  EE
0DC74:  MOVWF  FA9
0DC76:  MOVFF  907,FA8
0DC7A:  BCF    FA6.6
0DC7C:  BCF    FA6.7
0DC7E:  BSF    FA6.2
0DC80:  MOVF   FF2,W
0DC82:  MOVWF  00
0DC84:  BCF    FF2.7
0DC86:  MOVLB  F
0DC88:  MOVLW  55
0DC8A:  MOVWF  FA7
0DC8C:  MOVLW  AA
0DC8E:  MOVWF  FA7
0DC90:  BSF    FA6.1
0DC92:  BTFSC  FA6.1
0DC94:  BRA    DC92
0DC96:  BCF    FA6.2
0DC98:  MOVF   00,W
0DC9A:  IORWF  FF2,F
....................             delay_ms(10); 
0DC9C:  MOVLW  0A
0DC9E:  MOVLB  9
0DCA0:  MOVWF  x1D
0DCA2:  MOVLB  0
0DCA4:  CALL   13A4
0DCA8:  MOVLB  6
....................          } 
....................      } 
.................... //_-------------------------------------------------------------------------------------------------------------------------------------------------------- 
....................  
....................       if(Lectura2==1) 
0DCAA:  DECFSZ x2A,W
0DCAC:  BRA    DCCC
....................       { 
....................          Temperatura=Leer_Sensor(MediaMovil); 
0DCAE:  MOVFF  627,907
0DCB2:  MOVLB  0
0DCB4:  CALL   33CA
0DCB8:  MOVFF  03,6CE
0DCBC:  MOVFF  02,6CD
0DCC0:  MOVFF  01,6CC
0DCC4:  MOVFF  00,6CB
....................          Lectura2=0; 
0DCC8:  MOVLB  6
0DCCA:  CLRF   x2A
....................       }  
....................  
....................       if(tiemporeset>=60) 
0DCCC:  MOVF   x32,W
0DCCE:  SUBLW  3B
0DCD0:  BC    DCEC
....................       { 
....................          if(Menu!=0 && Menu<100){ 
0DCD2:  MOVF   x38,F
0DCD4:  BZ    DCEC
0DCD6:  MOVF   x38,W
0DCD8:  SUBLW  63
0DCDA:  BNC   DCEC
....................             glcd_init(ON); 
0DCDC:  MOVLW  01
0DCDE:  MOVLB  9
0DCE0:  MOVWF  x07
0DCE2:  MOVLB  0
0DCE4:  CALL   1536
....................             tiemporeset=0; 
0DCE8:  MOVLB  6
0DCEA:  CLRF   x32
....................          } 
....................       }  
....................  
....................  
....................    } 
0DCEC:  GOTO   7766
.................... } 
0DCF0:  SLEEP 

Configuration Fuses:
   Word  1: 0200   HS NOIESO NOFCMEN
   Word  2: 1E1F   BROWNOUT NOWDT BORV20 NOPUT WDT32768
   Word  3: 0000   NOPBADEN NOLPT1OSC NOMCLR
   Word  4: 00B0   NOSTVREN NODEBUG NOLVP NOXINST BBSIZ4K
   Word  5: C03F   NOPROTECT NOCPD NOCPB
   Word  6: E03F   NOWRT NOWRTD NOWRTC NOWRTB
   Word  7: 403F   NOEBTR NOEBTRB
