CCS PCH C Compiler, Version 4.104, 5967               26-jul.-19 14:06

               Filename: H:\JP\JP\Laboratorio\Mufla\2019\Mufla 1.7L Avantika #004587973 OP201978\Firmware Ajustado\Mufla.lst

               ROM used: 54188 bytes (55%)
                         Largest free fragment is 32768
               RAM used: 1965 (59%) at main() level
                         2023 (61%) worst case
               Stack:    6 worst case (5 in main + 1 for interrupts)

*
00000:  GOTO   62A8
*
00008:  MOVWF  04
0000A:  MOVFF  FD8,05
0000E:  MOVFF  FE0,06
00012:  MOVLB  0
00014:  MOVFF  FE9,0C
00018:  MOVFF  FEA,07
0001C:  MOVFF  FE1,08
00020:  MOVFF  FE2,09
00024:  MOVFF  FD9,0A
00028:  MOVFF  FDA,0B
0002C:  MOVFF  FF3,12
00030:  MOVFF  FF4,13
00034:  MOVFF  FFA,14
00038:  MOVFF  FFB,15
0003C:  MOVFF  00,0E
00040:  MOVFF  01,0F
00044:  MOVFF  02,10
00048:  MOVFF  03,11
0004C:  BTFSS  F9D.0
0004E:  GOTO   0058
00052:  BTFSC  F9E.0
00054:  GOTO   144E
00058:  MOVFF  0E,00
0005C:  MOVFF  0F,01
00060:  MOVFF  10,02
00064:  MOVFF  11,03
00068:  MOVFF  0C,FE9
0006C:  MOVFF  07,FEA
00070:  BSF    07.7
00072:  MOVFF  08,FE1
00076:  MOVFF  09,FE2
0007A:  MOVFF  0A,FD9
0007E:  MOVFF  0B,FDA
00082:  MOVFF  12,FF3
00086:  MOVFF  13,FF4
0008A:  MOVFF  14,FFA
0008E:  MOVFF  15,FFB
00092:  MOVF   04,W
00094:  MOVFF  06,FE0
00098:  MOVFF  05,FD8
0009C:  RETFIE 0
.................... // Control para mufla con rampas  
.................... // Se pueden programar 5 Programas de 10 Segmentos cada Uno. 
.................... // En un segmento se puede programar una rampa o una meseta. 
....................  
....................  
.................... #include <18F4685.h> 
.................... //////// Standard Header file for the PIC18F4685 device //////////////// 
.................... #device PIC18F4685 
.................... #list 
....................  
.................... #device adc=10 
.................... #fuses HS,NOWDT,NOPROTECT,NOLVP,NODEBUG,NOSTVREN,NOPUT,NOCPD,NOWRT,NOIESO,NOFCMEN,NOPBADEN,NOWRTC,NOWRTB,NOEBTR,NOEBTRB,NOCPB,NOXINST,NOLPT1OSC,NOMCLR 
.................... #use delay(clock=20000000) 
*
01500:  MOVLW  07
01502:  MOVWF  FEA
01504:  MOVLW  AF
01506:  MOVWF  FE9
01508:  MOVF   FEF,W
0150A:  BZ    1526
0150C:  MOVLW  06
0150E:  MOVWF  01
01510:  CLRF   00
01512:  DECFSZ 00,F
01514:  BRA    1512
01516:  DECFSZ 01,F
01518:  BRA    1510
0151A:  MOVLW  7B
0151C:  MOVWF  00
0151E:  DECFSZ 00,F
01520:  BRA    151E
01522:  DECFSZ FEF,F
01524:  BRA    150C
01526:  RETLW  00
.................... #include "HDM64GS12.c" 
.................... ///////////////////////////////////////////////////////////////////////// 
.................... ////                           HDM64GS12.c                           //// 
.................... ////                                                                 //// 
.................... //// This file contains drivers for using a Hantronix HDM64GS12 with //// 
.................... //// a KS0108 display controller. The HDM64GS12 is 128 by 64 pixels. //// 
.................... //// The driver treats the upper left pixel as (0,0).                //// 
.................... ////                                                                 //// 
.................... //// Use #define FAST_GLCD if the target chip has at least 1k of RAM //// 
.................... //// to decrease the time it takes to update the display.            //// 
.................... //// glcd_update() must then be called to update the display after   //// 
.................... //// changing the pixel information.                                 //// 
.................... //// See ex_glcd.c for suggested usage.                              //// 
.................... //// See KS0108.c for controlling a single 64 by 64 display          //// 
.................... ///////////////////////////////////////////////////////////////////////// 
.................... ////                                                                 //// 
.................... //// LCD Pin connections:                                            //// 
.................... //// (These can be changed as needed in the following defines).      //// 
.................... ////  * 1: VSS is connected to GND                                   //// 
.................... ////  * 2: VDD is connected to +5V                                   //// 
.................... ////  * 3: V0  - LCD operating voltage (Constrast adjustment)        //// 
.................... ////  * 4: D/I - Data or Instruction is connected to B2              //// 
.................... ////  * 5: R/W - Read or Write is connected to B4                    //// 
.................... ////  * 6: Enable is connected to B5                                 //// 
.................... ////  *7-14: Data Bus 0 to 7 is connected to port d                  //// 
.................... ////  *15: Chip Select 1 is connected to B0                          //// 
.................... ////  *16: Chip Select 2 is connected to B1                          //// 
.................... ////  *17: Reset is connected to C0                                  //// 
.................... ////  *18: Negative voltage is also connected to the 20k Ohm POT     //// 
.................... ////  *19: Positive voltage for LED backlight is connected to +5V    //// 
.................... ////  *20: Negavtive voltage for LED backlight is connected to GND   //// 
.................... ////                                                                 //// 
.................... ///////////////////////////////////////////////////////////////////////// 
.................... ////                                                                 //// 
.................... ////  glcd_init(mode)                                                //// 
.................... ////     * Must be called before any other function.                 //// 
.................... ////       - mode can be ON or OFF to turn the LCD on or off         //// 
.................... ////                                                                 //// 
.................... ////  glcd_pixel(x,y,color)                                          //// 
.................... ////     * Sets the pixel to the given color.                        //// 
.................... ////       - color can be ON or OFF                                  //// 
.................... ////                                                                 //// 
.................... ////  glcd_fillScreen(color)                                         //// 
.................... ////     * Fills the entire LCD with the given color.                //// 
.................... ////       - color can be ON or OFF                                  //// 
.................... ////                                                                 //// 
.................... ////  glcd_update()                                                  //// 
.................... ////     * Write the display data stored in RAM to the LCD           //// 
.................... ////     * Only available if FAST_GLCD is defined                    //// 
.................... ////                                                                 //// 
.................... ///////////////////////////////////////////////////////////////////////// 
.................... ////        (C) Copyright 1996, 2004 Custom Computer Services        //// 
.................... //// This source code may only be used by licensed users of the CCS  //// 
.................... //// C compiler.  This source code may only be distributed to other  //// 
.................... //// licensed users of the CCS C compiler.  No other use,            //// 
.................... //// reproduction or distribution is permitted without written       //// 
.................... //// permission.  Derivative programs created using this software    //// 
.................... //// in object code form are not restricted in any way.              //// 
.................... ///////////////////////////////////////////////////////////////////////// 
....................  
....................  
....................  
.................... #ifndef HDM64GS12 
.................... #define HDM64GS12 
....................  
.................... #ifndef FAST_GLCD 
.................... #define FAST_GLCD 
....................  
.................... #ifndef GLCD_WIDTH 
.................... #define GLCD_WIDTH   128 
.................... #endif 
....................  
.................... #ifndef GLCD_CS1 
.................... #define GLCD_CS1     PIN_B2   // Chip Selection 1 
.................... #endif 
....................  
.................... #ifndef GLCD_CS2 
.................... #define GLCD_CS2     PIN_B3   // Chip Selection 2 
.................... #endif 
....................  
.................... #ifndef GLCD_DI 
.................... #define GLCD_DI      PIN_B5   // Data or Instruction input 
.................... #endif 
....................  
.................... #ifndef GLCD_RW 
.................... #define GLCD_RW      PIN_B6   // Read/Write 
.................... #endif 
....................  
.................... #ifndef GLCD_E 
.................... #define GLCD_E       PIN_B7   // Enable 
.................... #endif 
....................  
.................... #ifndef GLCD_RST 
.................... #define GLCD_RST     PIN_B4   // Reset 
.................... #endif 
....................  
.................... #define GLCD_LEFT    0 
.................... #define GLCD_RIGHT   1 
....................  
.................... #ifndef ON 
.................... #define ON           1 
.................... #endif 
....................  
.................... #ifndef OFF 
.................... #define OFF          0 
.................... #endif 
....................  
.................... ///////////////////////////////////////////////////////////////////////// 
.................... // Function Prototypes 
.................... ///////////////////////////////////////////////////////////////////////// 
.................... void glcd_init(int1 mode); 
.................... void glcd_pixel(int8 x, int8 y, int1 color); 
.................... void glcd_fillScreen(int1 color); 
.................... void glcd_writeByte(int1 side, BYTE data); 
.................... BYTE glcd_readByte(int1 side); 
.................... void glcd_update(); 
.................... ///////////////////////////////////////////////////////////////////////// 
....................  
.................... #ifdef FAST_GLCD 
.................... struct 
.................... { 
....................    int8 left[512]; 
....................    int8 right[512]; 
.................... } displayData; 
.................... #endif 
....................  
....................  
.................... // Purpose:       Initialize the LCD. 
.................... //                Call before using any other LCD function. 
.................... // Inputs:        OFF - Turns the LCD off 
.................... //                ON  - Turns the LCD on 
.................... void glcd_init(int1 mode) 
.................... { 
....................    // Initialze some pins 
....................    output_high(GLCD_RST); 
*
01692:  BCF    F93.4
01694:  BSF    F8A.4
....................    output_low(GLCD_E); 
01696:  BCF    F93.7
01698:  BCF    F8A.7
....................    output_low(GLCD_CS1); 
0169A:  BCF    F93.2
0169C:  BCF    F8A.2
....................    output_low(GLCD_CS2); 
0169E:  BCF    F93.3
016A0:  BCF    F8A.3
....................  
....................    output_low(GLCD_DI);                 // Set for instruction 
016A2:  BCF    F93.5
016A4:  BCF    F8A.5
....................    glcd_writeByte(GLCD_LEFT,  0xC0);    // Specify first RAM line at the top 
016A6:  MOVLB  7
016A8:  CLRF   xC6
016AA:  MOVLW  C0
016AC:  MOVWF  xC7
016AE:  MOVLB  0
016B0:  RCALL  154A
....................    glcd_writeByte(GLCD_RIGHT, 0xC0);    //   of the screen 
016B2:  MOVLW  01
016B4:  MOVLB  7
016B6:  MOVWF  xC6
016B8:  MOVLW  C0
016BA:  MOVWF  xC7
016BC:  MOVLB  0
016BE:  RCALL  154A
....................    glcd_writeByte(GLCD_LEFT,  0x40);    // Set the column address to 0 
016C0:  MOVLB  7
016C2:  CLRF   xC6
016C4:  MOVLW  40
016C6:  MOVWF  xC7
016C8:  MOVLB  0
016CA:  RCALL  154A
....................    glcd_writeByte(GLCD_RIGHT, 0x40); 
016CC:  MOVLW  01
016CE:  MOVLB  7
016D0:  MOVWF  xC6
016D2:  MOVLW  40
016D4:  MOVWF  xC7
016D6:  MOVLB  0
016D8:  RCALL  154A
....................    glcd_writeByte(GLCD_LEFT,  0xB8);    // Set the page address to 0 
016DA:  MOVLB  7
016DC:  CLRF   xC6
016DE:  MOVLW  B8
016E0:  MOVWF  xC7
016E2:  MOVLB  0
016E4:  RCALL  154A
....................    glcd_writeByte(GLCD_RIGHT, 0xB8); 
016E6:  MOVLW  01
016E8:  MOVLB  7
016EA:  MOVWF  xC6
016EC:  MOVLW  B8
016EE:  MOVWF  xC7
016F0:  MOVLB  0
016F2:  RCALL  154A
....................  
....................    if(mode == ON) 
016F4:  MOVLB  7
016F6:  DECFSZ xA9,W
016F8:  BRA    1716
....................    { 
....................       glcd_writeByte(GLCD_LEFT,  0x3F); // Turn the display on 
016FA:  CLRF   xC6
016FC:  MOVLW  3F
016FE:  MOVWF  xC7
01700:  MOVLB  0
01702:  RCALL  154A
....................       glcd_writeByte(GLCD_RIGHT, 0x3F); 
01704:  MOVLW  01
01706:  MOVLB  7
01708:  MOVWF  xC6
0170A:  MOVLW  3F
0170C:  MOVWF  xC7
0170E:  MOVLB  0
01710:  RCALL  154A
....................    } 
....................    else 
01712:  BRA    172E
01714:  MOVLB  7
....................    { 
....................       glcd_writeByte(GLCD_LEFT,  0x3E); // Turn the display off 
01716:  CLRF   xC6
01718:  MOVLW  3E
0171A:  MOVWF  xC7
0171C:  MOVLB  0
0171E:  RCALL  154A
....................       glcd_writeByte(GLCD_RIGHT, 0x3E); 
01720:  MOVLW  01
01722:  MOVLB  7
01724:  MOVWF  xC6
01726:  MOVLW  3E
01728:  MOVWF  xC7
0172A:  MOVLB  0
0172C:  RCALL  154A
....................    } 
....................  
....................    glcd_fillScreen(OFF);                // Clear the display 
0172E:  MOVLB  7
01730:  CLRF   xAA
01732:  MOVLB  0
01734:  RCALL  1580
....................  
....................    #ifdef FAST_GLCD 
....................    glcd_update(); 
01736:  RCALL  15DA
....................    #endif 
.................... } 
01738:  RETLW  00
....................  
....................  
.................... // Purpose:    Update the LCD with data from the display arrays 
.................... #ifdef FAST_GLCD 
.................... void glcd_update() 
.................... { 
....................    int8 i, j; 
....................    int8 *p1, *p2; 
....................  
....................    p1 = displayData.left; 
*
015DA:  MOVLB  7
015DC:  CLRF   xC2
015DE:  MOVLW  17
015E0:  MOVWF  xC1
....................    p2 = displayData.right; 
015E2:  MOVLW  02
015E4:  MOVWF  xC4
015E6:  MOVLW  17
015E8:  MOVWF  xC3
....................  
....................    // Loop through the vertical pages 
....................    for(i = 0; i < 8; ++i) 
015EA:  CLRF   xBF
015EC:  MOVF   xBF,W
015EE:  SUBLW  07
015F0:  BNC   168E
....................    { 
....................       output_low(GLCD_DI);                      // Set for instruction 
015F2:  BCF    F93.5
015F4:  BCF    F8A.5
....................       glcd_writeByte(GLCD_LEFT, 0x40);          // Set horizontal address to 0 
015F6:  CLRF   xC6
015F8:  MOVLW  40
015FA:  MOVWF  xC7
015FC:  MOVLB  0
015FE:  RCALL  154A
....................       glcd_writeByte(GLCD_RIGHT, 0x40); 
01600:  MOVLW  01
01602:  MOVLB  7
01604:  MOVWF  xC6
01606:  MOVLW  40
01608:  MOVWF  xC7
0160A:  MOVLB  0
0160C:  RCALL  154A
....................       glcd_writeByte(GLCD_LEFT, i | 0xB8);      // Set page address 
0160E:  MOVLB  7
01610:  MOVF   xBF,W
01612:  IORLW  B8
01614:  MOVWF  xC5
01616:  CLRF   xC6
01618:  MOVWF  xC7
0161A:  MOVLB  0
0161C:  RCALL  154A
....................       glcd_writeByte(GLCD_RIGHT, i | 0xB8); 
0161E:  MOVLB  7
01620:  MOVF   xBF,W
01622:  IORLW  B8
01624:  MOVWF  xC5
01626:  MOVLW  01
01628:  MOVWF  xC6
0162A:  MOVFF  7C5,7C7
0162E:  MOVLB  0
01630:  RCALL  154A
....................       output_high(GLCD_DI);                     // Set for data 
01632:  BCF    F93.5
01634:  BSF    F8A.5
....................  
....................       // Loop through the horizontal sections 
....................       for(j = 0; j < 64; ++j) 
01636:  MOVLB  7
01638:  CLRF   xC0
0163A:  MOVF   xC0,W
0163C:  SUBLW  3F
0163E:  BNC   168A
....................       { 
....................          glcd_writeByte(GLCD_LEFT, *p1++);      // Turn pixels on or off 
01640:  MOVFF  7C2,03
01644:  MOVF   xC1,W
01646:  INCF   xC1,F
01648:  BTFSC  FD8.2
0164A:  INCF   xC2,F
0164C:  MOVWF  FE9
0164E:  MOVFF  03,FEA
01652:  MOVFF  FEF,7C5
01656:  CLRF   xC6
01658:  MOVFF  7C5,7C7
0165C:  MOVLB  0
0165E:  RCALL  154A
....................          glcd_writeByte(GLCD_RIGHT, *p2++);     // Turn pixels on or off 
01660:  MOVLB  7
01662:  MOVFF  7C4,03
01666:  MOVF   xC3,W
01668:  INCF   xC3,F
0166A:  BTFSC  FD8.2
0166C:  INCF   xC4,F
0166E:  MOVWF  FE9
01670:  MOVFF  03,FEA
01674:  MOVFF  FEF,7C5
01678:  MOVLW  01
0167A:  MOVWF  xC6
0167C:  MOVFF  7C5,7C7
01680:  MOVLB  0
01682:  RCALL  154A
....................       } 
01684:  MOVLB  7
01686:  INCF   xC0,F
01688:  BRA    163A
....................    } 
0168A:  INCF   xBF,F
0168C:  BRA    15EC
.................... } 
0168E:  MOVLB  0
01690:  RETLW  00
.................... #endif 
....................  
....................  
.................... // Purpose:    Turn a pixel on a graphic LCD on or off 
.................... // Inputs:     1) x - the x coordinate of the pixel 
.................... //             2) y - the y coordinate of the pixel 
.................... //             3) color - ON or OFF 
.................... void glcd_pixel(int8 x, int8 y, int1 color) 
.................... #ifdef FAST_GLCD 
.................... { 
....................    int8* p; 
....................    int16 temp; 
....................    temp =  y/8; 
*
0173A:  MOVLB  7
0173C:  CLRF   xE3
0173E:  RRCF   xDE,W
01740:  MOVWF  xE2
01742:  RRCF   xE2,F
01744:  RRCF   xE2,F
01746:  MOVLW  1F
01748:  ANDWF  xE2,F
....................    temp *= 64; 
0174A:  RLCF   xE2,F
0174C:  RLCF   xE3,F
0174E:  RLCF   xE2,F
01750:  RLCF   xE3,F
01752:  RLCF   xE2,F
01754:  RLCF   xE3,F
01756:  RLCF   xE2,F
01758:  RLCF   xE3,F
0175A:  RLCF   xE2,F
0175C:  RLCF   xE3,F
0175E:  RLCF   xE2,F
01760:  RLCF   xE3,F
01762:  MOVLW  C0
01764:  ANDWF  xE2,F
....................    temp += x; 
01766:  MOVF   xDD,W
01768:  ADDWF  xE2,F
0176A:  MOVLW  00
0176C:  ADDWFC xE3,F
....................  
....................    if(x > 63) 
0176E:  MOVF   xDD,W
01770:  SUBLW  3F
01772:  BC    178E
....................    { 
....................       p = displayData.right + temp - 64; 
01774:  MOVLW  17
01776:  ADDWF  xE2,W
01778:  MOVWF  xE4
0177A:  MOVLW  02
0177C:  ADDWFC xE3,W
0177E:  MOVWF  xE5
01780:  MOVLW  40
01782:  SUBWF  xE4,W
01784:  MOVWF  xE0
01786:  MOVLW  00
01788:  SUBWFB xE5,W
0178A:  MOVWF  xE1
....................    } 
....................    else 
0178C:  BRA    179A
....................    { 
....................       p = displayData.left + temp; 
0178E:  MOVLW  17
01790:  ADDWF  xE2,W
01792:  MOVWF  xE0
01794:  MOVLW  00
01796:  ADDWFC xE3,W
01798:  MOVWF  xE1
....................    } 
....................  
....................    if(color) 
0179A:  MOVF   xDF,F
0179C:  BZ    17C8
....................    { 
....................       bit_set(*p, y%8); 
0179E:  MOVFF  7E1,03
017A2:  MOVFF  7E0,FE9
017A6:  MOVFF  7E1,FEA
017AA:  MOVF   xDE,W
017AC:  ANDLW  07
017AE:  MOVWF  xE4
017B0:  MOVLW  01
017B2:  MOVWF  00
017B4:  MOVF   xE4,W
017B6:  MOVWF  01
017B8:  BZ    17C2
017BA:  BCF    FD8.0
017BC:  RLCF   00,F
017BE:  DECFSZ 01,F
017C0:  BRA    17BA
017C2:  MOVF   00,W
017C4:  IORWF  FEF,F
....................    } 
....................    else 
017C6:  BRA    17F2
....................    { 
....................       bit_clear(*p, y%8); 
017C8:  MOVFF  7E1,03
017CC:  MOVFF  7E0,FE9
017D0:  MOVFF  7E1,FEA
017D4:  MOVF   xDE,W
017D6:  ANDLW  07
017D8:  MOVWF  xE4
017DA:  MOVLW  01
017DC:  MOVWF  00
017DE:  MOVF   xE4,W
017E0:  MOVWF  01
017E2:  BZ    17EC
017E4:  BCF    FD8.0
017E6:  RLCF   00,F
017E8:  DECFSZ 01,F
017EA:  BRA    17E4
017EC:  MOVF   00,W
017EE:  XORLW  FF
017F0:  ANDWF  FEF,F
....................    } 
.................... } 
017F2:  MOVLB  0
017F4:  RETLW  00
.................... #else 
.................... { 
....................    BYTE data; 
....................    int1 side = GLCD_LEFT;  // Stores which chip to use on the LCD 
....................  
....................    if(x > 63)              // Check for first or second display area 
....................    { 
....................       x -= 64; 
....................       side = GLCD_RIGHT; 
....................    } 
....................  
....................    output_low(GLCD_DI);                         // Set for instruction 
....................    bit_clear(x,7);                              // Clear the MSB. Part of an instruction code 
....................    bit_set(x,6);                                // Set bit 6. Also part of an instruction code 
....................    glcd_writeByte(side, x);                     // Set the horizontal address 
....................    glcd_writeByte(side, (y/8 & 0xBF) | 0xB8);   // Set the vertical page address 
....................    output_high(GLCD_DI);                        // Set for data 
....................    glcd_readByte(side);                         // Need two reads to get data 
....................    data = glcd_readByte(side);                  //  at new address 
....................  
....................    if(color == ON) 
....................       bit_set(data, y%8);        // Turn the pixel on 
....................    else                          // or 
....................       bit_clear(data, y%8);      // turn the pixel off 
....................  
....................    output_low(GLCD_DI);          // Set for instruction 
....................    glcd_writeByte(side, x);      // Set the horizontal address 
....................    output_high(GLCD_DI);         // Set for data 
....................    glcd_writeByte(side, data);   // Write the pixel data 
.................... } 
.................... #endif 
....................  
....................  
.................... // Purpose:    Fill the LCD screen with the passed in color 
.................... // Inputs:     ON  - turn all the pixels on 
.................... //             OFF - turn all the pixels off 
.................... void glcd_fillScreen(int1 color) 
.................... #ifdef FAST_GLCD 
.................... { 
....................    int8  data; 
....................    int8  *p1, *p2; 
....................    int16 i; 
....................  
....................    p1 = displayData.left; 
*
01580:  MOVLB  7
01582:  CLRF   xAD
01584:  MOVLW  17
01586:  MOVWF  xAC
....................    p2 = displayData.right; 
01588:  MOVLW  02
0158A:  MOVWF  xAF
0158C:  MOVLW  17
0158E:  MOVWF  xAE
....................    data = 0xFF * color; 
01590:  MOVF   xAA,W
01592:  MULLW  FF
01594:  MOVFF  FF3,7AB
....................  
....................    for(i=0; i<512; ++i) 
01598:  CLRF   xB1
0159A:  CLRF   xB0
0159C:  MOVF   xB1,W
0159E:  SUBLW  01
015A0:  BNC   15D6
....................    { 
....................       *p1++ = data; 
015A2:  MOVFF  7AD,03
015A6:  MOVF   xAC,W
015A8:  INCF   xAC,F
015AA:  BTFSC  FD8.2
015AC:  INCF   xAD,F
015AE:  MOVWF  FE9
015B0:  MOVFF  03,FEA
015B4:  MOVFF  7AB,FEF
....................       *p2++ = data; 
015B8:  MOVFF  7AF,03
015BC:  MOVF   xAE,W
015BE:  INCF   xAE,F
015C0:  BTFSC  FD8.2
015C2:  INCF   xAF,F
015C4:  MOVWF  FE9
015C6:  MOVFF  03,FEA
015CA:  MOVFF  7AB,FEF
....................    } 
015CE:  INCF   xB0,F
015D0:  BTFSC  FD8.2
015D2:  INCF   xB1,F
015D4:  BRA    159C
.................... } 
015D6:  MOVLB  0
015D8:  RETLW  00
.................... #else 
.................... { 
....................    int8 i, j; 
....................  
....................    // Loop through the vertical pages 
....................    for(i = 0; i < 8; ++i) 
....................    { 
....................       output_low(GLCD_DI);                      // Set for instruction 
....................       glcd_writeByte(GLCD_LEFT, 0b01000000);    // Set horizontal address to 0 
....................       glcd_writeByte(GLCD_RIGHT, 0b01000000); 
....................       glcd_writeByte(GLCD_LEFT, i | 0b10111000);// Set page address 
....................       glcd_writeByte(GLCD_RIGHT, i | 0b10111000); 
....................       output_high(GLCD_DI);                     // Set for data 
....................  
....................       // Loop through the horizontal sections 
....................       for(j = 0; j < 64; ++j) 
....................       { 
....................          glcd_writeByte(GLCD_LEFT, 0xFF*color);  // Turn pixels on or off 
....................          glcd_writeByte(GLCD_RIGHT, 0xFF*color); // Turn pixels on or off 
....................       } 
....................    } 
.................... } 
.................... #endif 
....................  
....................  
.................... // Purpose:    Write a byte of data to the specified chip 
.................... // Inputs:     1) chipSelect - which chip to write the data to 
.................... //             2) data - the byte of data to write 
.................... void glcd_writeByte(int1 side, BYTE data) 
.................... { 
....................    if(side)                   // Choose which side to write to 
*
0154A:  MOVLB  7
0154C:  MOVF   xC6,F
0154E:  BZ    1556
....................       output_high(GLCD_CS2); 
01550:  BCF    F93.3
01552:  BSF    F8A.3
....................    else 
01554:  BRA    155A
....................       output_high(GLCD_CS1); 
01556:  BCF    F93.2
01558:  BSF    F8A.2
....................  
....................    output_low(GLCD_RW);       // Set for writing 
0155A:  BCF    F93.6
0155C:  BCF    F8A.6
....................    output_d(data);            // Put the data on the port 
0155E:  CLRF   F95
01560:  MOVFF  7C7,F8C
....................    delay_cycles(1); 
01564:  NOP   
....................    output_high(GLCD_E);       // Pulse the enable pin 
01566:  BCF    F93.7
01568:  BSF    F8A.7
....................    delay_cycles(5); 
0156A:  BRA    156C
0156C:  BRA    156E
0156E:  NOP   
....................    output_low(GLCD_E); 
01570:  BCF    F93.7
01572:  BCF    F8A.7
....................  
....................    output_low(GLCD_CS1);      // Reset the chip select lines 
01574:  BCF    F93.2
01576:  BCF    F8A.2
....................    output_low(GLCD_CS2); 
01578:  BCF    F93.3
0157A:  BCF    F8A.3
.................... } 
0157C:  MOVLB  0
0157E:  RETLW  00
....................  
....................  
.................... // Purpose:    Reads a byte of data from the specified chip 
.................... // Ouputs:     A byte of data read from the chip 
.................... BYTE glcd_readByte(int1 side) 
.................... { 
....................    BYTE data;                 // Stores the data read from the LCD 
....................  
....................    set_tris_d(0xFF);          // Set port d to input 
....................    output_high(GLCD_RW);      // Set for reading 
....................  
....................    if(side)                   // Choose which side to write to 
....................       output_high(GLCD_CS2); 
....................    else 
....................       output_high(GLCD_CS1); 
....................  
....................    delay_cycles(1); 
....................    output_high(GLCD_E);       // Pulse the enable pin 
....................    delay_cycles(4); 
....................    data = input_d();          // Get the data from the display's output register 
....................    output_low(GLCD_E); 
....................  
....................    output_low(GLCD_CS1);      // Reset the chip select lines 
....................    output_low(GLCD_CS2); 
....................    return data;               // Return the read data 
.................... } 
....................  
.................... #endif 
....................  
.................... #include "GRAPHICS.c" 
.................... ///////////////////////////////////////////////////////////////////////// 
.................... ////                          graphics.c                             //// 
.................... ////                                                                 //// 
.................... ////   This file contains functions to draw lines, rectangles, bars, //// 
.................... ////   circles and text to a display. A function which draws a       //// 
.................... ////   single pixel must be defined before calling the functions in  //// 
.................... ////   this file. Call it glcd_pixel(x, y, color) where x is the     //// 
.................... ////   horizontal coordinate, y is the vertical coordinate, and      //// 
.................... ////   color is 1 bit to turn the pixel on or off.                   //// 
.................... ////                                                                 //// 
.................... ////   * Note: (0, 0) is treated as the upper left corner            //// 
.................... ////                                                                 //// 
.................... ///////////////////////////////////////////////////////////////////////// 
.................... ////                                                                 //// 
.................... ////  glcd_line(x1, y1, x2, y2, color)                               //// 
.................... ////     * Draws a line from the first point to the second point     //// 
.................... ////       with the given color                                      //// 
.................... ////       - color can be ON or OFF                                  //// 
.................... ////                                                                 //// 
.................... ////  glcd_rect(x1, y1, x2, y2, fill, color)                         //// 
.................... ////     * Draws a rectangle with one corner at point (x1,y1) and    //// 
.................... ////       the other corner at point (x2,y2)                         //// 
.................... ////       - fill can be YES or NO                                   //// 
.................... ////       - color can be ON or OFF                                  //// 
.................... ////                                                                 //// 
.................... ////  glcd_bar(x1, y1, x2, y2, width, color)                         //// 
.................... ////     * Draws a bar (wide line) from the first point to the       //// 
.................... ////       second point                                              //// 
.................... ////       - width is the number of pixels wide                      //// 
.................... ////       - color is ON or OFF                                      //// 
.................... ////                                                                 //// 
.................... ////  glcd_circle(x, y, radius, fill, color)                         //// 
.................... ////     * Draws a circle with center at (x,y)                       //// 
.................... ////       - fill can be YES or NO                                   //// 
.................... ////       - color can be ON or OFF                                  //// 
.................... ////                                                                 //// 
.................... ////  glcd_text57(x, y, textptr, size, color)                        //// 
.................... ////     * Write the null terminated text pointed to by textptr with //// 
.................... ////       the upper left coordinate of the first character at (x,y) //// 
.................... ////       Characters are 5 pixels wide and 7 pixels tall            //// 
.................... ////       - size is an integer that scales the size of the text     //// 
.................... ////       - color is ON or OFF                                      //// 
.................... ////     * Note - This function wraps characters to the next line    //// 
.................... ////              use #define GLCD_WIDTH to specify a display width  //// 
.................... ////                                                                 //// 
.................... ///////////////////////////////////////////////////////////////////////// 
.................... ////        (C) Copyright 1996, 2004 Custom Computer Services        //// 
.................... //// This source code may only be used by licensed users of the CCS  //// 
.................... //// C compiler.  This source code may only be distributed to other  //// 
.................... //// licensed users of the CCS C compiler.  No other use,            //// 
.................... //// reproduction or distribution is permitted without written       //// 
.................... //// permission.  Derivative programs created using this software    //// 
.................... //// in object code form are not restricted in any way.              //// 
.................... ///////////////////////////////////////////////////////////////////////// 
....................  
....................  
.................... ///////////////////////////////////////////////////////////////////////// 
.................... #ifndef GRAPHICS_DRAWING_FUNCTIONS 
.................... #define GRAPHICS_DRAWING_FUNCTIONS 
.................... ///////////////////////////////////////////////////////////////////////// 
....................  
....................  
.................... ///////////////////////////////////////////////////////////////////////// 
.................... #ifndef ON 
.................... #define ON  1 
.................... #endif 
....................  
.................... #ifndef OFF 
.................... #define OFF 0 
.................... #endif 
....................  
.................... #ifndef YES 
.................... #define YES 1 
.................... #endif 
....................  
.................... #ifndef NO 
.................... #define NO  0 
.................... #endif 
.................... ///////////////////////////////////////////////////////////////////////// 
....................  
....................  
.................... ///////////////////////////////////////////////////////////////////////// 
.................... //// Defines a 5x7 font 
.................... ///////////////////////////////////////////////////////////////////////// 
.................... const int8 FONT[51][5] ={0x00, 0x00, 0x00, 0x00, 0x00, // SPACE 
....................                          0x00, 0x00, 0x5F, 0x00, 0x00, // ! 
....................                          0x00, 0x03, 0x00, 0x03, 0x00, // " 
....................                          0x14, 0x3E, 0x14, 0x3E, 0x14, // # 
....................                          0x24, 0x2A, 0x7F, 0x2A, 0x12, // $ 
....................                          0x43, 0x33, 0x08, 0x66, 0x61, // % 
....................                          0x36, 0x49, 0x55, 0x22, 0x50, // & 
....................                          0x00, 0x05, 0x03, 0x00, 0x00, // ' 
....................                          0x00, 0x1C, 0x22, 0x41, 0x00, // ( 
....................                          0x00, 0x41, 0x22, 0x1C, 0x00, // ) 
....................                          0x14, 0x08, 0x3E, 0x08, 0x14, // * 
....................                          0x08, 0x08, 0x3E, 0x08, 0x08, // + 
....................                          0x00, 0x50, 0x30, 0x00, 0x00, // , 
....................                          0x08, 0x08, 0x08, 0x08, 0x08, // - 
....................                          0x00, 0x60, 0x60, 0x00, 0x00, // . 
....................                          0x20, 0x10, 0x08, 0x04, 0x02, // / 
....................                          0x3E, 0x51, 0x49, 0x45, 0x3E, // 0 
....................                          0x00, 0x04, 0x02, 0x7F, 0x00, // 1 
....................                          0x42, 0x61, 0x51, 0x49, 0x46, // 2 
....................                          0x22, 0x41, 0x49, 0x49, 0x36, // 3 
....................                          0x18, 0x14, 0x12, 0x7F, 0x10, // 4 
....................                          0x27, 0x45, 0x45, 0x45, 0x39, // 5 
....................                          0x3E, 0x49, 0x49, 0x49, 0x32, // 6 
....................                          0x01, 0x01, 0x71, 0x09, 0x07, // 7 
....................                          0x36, 0x49, 0x49, 0x49, 0x36, // 8 
....................                          0x26, 0x49, 0x49, 0x49, 0x3E, // 9 
....................                          0x00, 0x36, 0x36, 0x00, 0x00, // : 
....................                          0x00, 0x56, 0x36, 0x00, 0x00, // ; 
....................                          0x08, 0x14, 0x22, 0x41, 0x00, // < 
....................                          0x14, 0x14, 0x14, 0x14, 0x14, // = 
....................                          0x00, 0x41, 0x22, 0x14, 0x08, // > 
....................                          0x02, 0x01, 0x51, 0x09, 0x06, // ? 
....................                          0x3E, 0x41, 0x59, 0x55, 0x5E, // @ 
....................                          0x7E, 0x09, 0x09, 0x09, 0x7E, // A 
....................                          0x7F, 0x49, 0x49, 0x49, 0x36, // B 
....................                          0x3E, 0x41, 0x41, 0x41, 0x22, // C 
....................                          0x7F, 0x41, 0x41, 0x41, 0x3E, // D 
....................                          0x7F, 0x49, 0x49, 0x49, 0x41, // E 
....................                          0x7F, 0x09, 0x09, 0x09, 0x01, // F 
....................                          0x3E, 0x41, 0x41, 0x49, 0x3A, // G 
....................                          0x7F, 0x08, 0x08, 0x08, 0x7F, // H 
....................                          0x00, 0x41, 0x7F, 0x41, 0x00, // I 
....................                          0x30, 0x40, 0x40, 0x40, 0x3F, // J 
....................                          0x7F, 0x08, 0x14, 0x22, 0x41, // K 
....................                          0x7F, 0x40, 0x40, 0x40, 0x40, // L 
....................                          0x7F, 0x02, 0x0C, 0x02, 0x7F, // M 
....................                          0x7F, 0x02, 0x04, 0x08, 0x7F, // N 
....................                          0x3E, 0x41, 0x41, 0x41, 0x3E, // O 
....................                          0x7F, 0x09, 0x09, 0x09, 0x06, // P 
....................                          0x1E, 0x21, 0x21, 0x21, 0x5E, // Q 
....................                          0x7F, 0x09, 0x09, 0x09, 0x76};// R 
....................  
.................... const int8 FONT2[44][5]={0x26, 0x49, 0x49, 0x49, 0x32, // S 
....................                          0x01, 0x01, 0x7F, 0x01, 0x01, // T 
....................                          0x3F, 0x40, 0x40, 0x40, 0x3F, // U 
....................                          0x1F, 0x20, 0x40, 0x20, 0x1F, // V 
....................                          0x7F, 0x20, 0x10, 0x20, 0x7F, // W 
....................                          0x41, 0x22, 0x1C, 0x22, 0x41, // X 
....................                          0x07, 0x08, 0x70, 0x08, 0x07, // Y 
....................                          0x61, 0x51, 0x49, 0x45, 0x43, // Z 
....................                          0x00, 0x7F, 0x41, 0x00, 0x00, // [ 
....................                          0x02, 0x04, 0x08, 0x10, 0x20, // \ 
....................                          0x00, 0x00, 0x41, 0x7F, 0x00, // ] 
....................                          0x04, 0x02, 0x01, 0x02, 0x04, // ^ 
....................                          0x40, 0x40, 0x40, 0x40, 0x40, // _ 
....................                          0x00, 0x01, 0x02, 0x04, 0x00, // ` 
....................                          0x20, 0x54, 0x54, 0x54, 0x78, // a 
....................                          0x7F, 0x44, 0x44, 0x44, 0x38, // b 
....................                          0x38, 0x44, 0x44, 0x44, 0x44, // c 
....................                          0x38, 0x44, 0x44, 0x44, 0x7F, // d 
....................                          0x38, 0x54, 0x54, 0x54, 0x18, // e 
....................                          0x04, 0x04, 0x7E, 0x05, 0x05, // f 
....................                          0x08, 0x54, 0x54, 0x54, 0x3C, // g 
....................                          0x7F, 0x08, 0x04, 0x04, 0x78, // h 
....................                          0x00, 0x44, 0x7D, 0x40, 0x00, // i 
....................                          0x20, 0x40, 0x44, 0x3D, 0x00, // j 
....................                          0x7F, 0x10, 0x28, 0x44, 0x00, // k 
....................                          0x00, 0x41, 0x7F, 0x40, 0x00, // l 
....................                          0x7C, 0x04, 0x78, 0x04, 0x78, // m 
....................                          0x7C, 0x08, 0x04, 0x04, 0x78, // n 
....................                          0x38, 0x44, 0x44, 0x44, 0x38, // o 
....................                          0x7C, 0x14, 0x14, 0x14, 0x08, // p 
....................                          0x08, 0x14, 0x14, 0x14, 0x7C, // q 
....................                          0x00, 0x7C, 0x08, 0x04, 0x04, // r 
....................                          0x48, 0x54, 0x54, 0x54, 0x20, // s 
....................                          0x04, 0x04, 0x3F, 0x44, 0x44, // t 
....................                          0x3C, 0x40, 0x40, 0x20, 0x7C, // u 
....................                          0x1C, 0x20, 0x40, 0x20, 0x1C, // v 
....................                          0x3C, 0x40, 0x30, 0x40, 0x3C, // w 
....................                          0x44, 0x28, 0x10, 0x28, 0x44, // x 
....................                          0x0C, 0x50, 0x50, 0x50, 0x3C, // y 
....................                          0x44, 0x64, 0x54, 0x4C, 0x44, // z 
....................                          0x00, 0x08, 0x36, 0x41, 0x41, // { 
....................                          0x00, 0x00, 0x7F, 0x00, 0x00, // | 
....................                          0x41, 0x41, 0x36, 0x08, 0x00, // } 
....................                          0x02, 0x01, 0x02, 0x04, 0x02};// ~ 
.................... ///////////////////////////////////////////////////////////////////////// 
....................  
....................  
.................... ///////////////////////////////////////////////////////////////////////// 
.................... // Purpose:       Draw a line on a graphic LCD using Bresenham's 
.................... //                line drawing algorithm 
.................... // Inputs:        (x1, y1) - the start coordinate 
.................... //                (x2, y2) - the end coordinate 
.................... //                color - ON or OFF 
.................... // Dependencies:  glcd_pixel() 
.................... ///////////////////////////////////////////////////////////////////////// 
.................... #ifdef LARGE_LCD 
.................... void glcd_line(int16 x1, int16 y1, int16 x2, int16 y2, int1 color) 
.................... #else 
.................... void glcd_line(int8 x1, int8 y1, int8 x2, int8 y2, int1 color) 
.................... #endif 
.................... { 
*
019AE:  MOVLW  01
019B0:  MOVLB  7
019B2:  MOVWF  xD6
019B4:  MOVWF  xD7
019B6:  CLRF   xDC
....................    int16        dy, dx; 
....................    signed int8  addx=1, addy=1; 
....................    signed int16 P, diff; 
....................  
....................    #ifdef LARGE_LCD 
....................    int16 i=0; 
....................    dx = abs((signed int16)(x2 - x1)); 
....................    dy = abs((signed int16)(y2 - y1)); 
....................    #else 
....................    int8 i=0; 
....................    dx = abs((signed int8)(x2 - x1)); 
019B8:  MOVF   xCD,W
019BA:  SUBWF  xCF,W
019BC:  MOVWF  xDD
019BE:  MOVF   xDD,W
019C0:  BTFSS  xDD.7
019C2:  BRA    19CA
019C4:  MOVLW  00
019C6:  BSF    FD8.0
019C8:  SUBFWB xDD,W
019CA:  CLRF   03
019CC:  MOVWF  xD4
019CE:  MOVFF  03,7D5
....................    dy = abs((signed int8)(y2 - y1)); 
019D2:  MOVF   xCE,W
019D4:  SUBWF  xD0,W
019D6:  MOVWF  xDD
019D8:  MOVF   xDD,W
019DA:  BTFSS  xDD.7
019DC:  BRA    19E4
019DE:  MOVLW  00
019E0:  BSF    FD8.0
019E2:  SUBFWB xDD,W
019E4:  CLRF   03
019E6:  MOVWF  xD2
019E8:  MOVFF  03,7D3
....................    #endif 
....................  
....................    if(x1 > x2) 
019EC:  MOVF   xCD,W
019EE:  SUBWF  xCF,W
019F0:  BC    19F6
....................       addx = -1; 
019F2:  MOVLW  FF
019F4:  MOVWF  xD6
....................    if(y1 > y2) 
019F6:  MOVF   xCE,W
019F8:  SUBWF  xD0,W
019FA:  BC    1A00
....................       addy = -1; 
019FC:  MOVLW  FF
019FE:  MOVWF  xD7
....................  
....................    if(dx >= dy) 
01A00:  MOVF   xD3,W
01A02:  SUBWF  xD5,W
01A04:  BNC   1A7C
01A06:  BNZ   1A0E
01A08:  MOVF   xD2,W
01A0A:  SUBWF  xD4,W
01A0C:  BNC   1A7C
....................    { 
....................       dy *= 2; 
01A0E:  BCF    FD8.0
01A10:  RLCF   xD2,F
01A12:  RLCF   xD3,F
....................       P = dy - dx; 
01A14:  MOVF   xD4,W
01A16:  SUBWF  xD2,W
01A18:  MOVWF  00
01A1A:  MOVF   xD5,W
01A1C:  SUBWFB xD3,W
01A1E:  MOVFF  00,7D8
01A22:  MOVWF  xD9
....................       diff = P - dx; 
01A24:  MOVF   xD4,W
01A26:  SUBWF  xD8,W
01A28:  MOVWF  xDA
01A2A:  MOVF   xD5,W
01A2C:  SUBWFB xD9,W
01A2E:  MOVWF  xDB
....................  
....................       for(; i<=dx; ++i) 
01A30:  MOVF   xD5,F
01A32:  BNZ   1A3A
01A34:  MOVF   xDC,W
01A36:  SUBWF  xD4,W
01A38:  BNC   1A7A
....................       { 
....................          glcd_pixel(x1, y1, color); 
01A3A:  MOVFF  7CD,7DD
01A3E:  MOVFF  7CE,7DE
01A42:  MOVFF  7D1,7DF
01A46:  MOVLB  0
01A48:  RCALL  173A
....................  
....................          if(P < 0) 
01A4A:  MOVLB  7
01A4C:  BTFSC  xD9.7
01A4E:  BRA    1A52
01A50:  BRA    1A62
....................          { 
....................             P  += dy; 
01A52:  MOVF   xD2,W
01A54:  ADDWF  xD8,F
01A56:  MOVF   xD3,W
01A58:  ADDWFC xD9,F
....................             x1 += addx; 
01A5A:  MOVF   xD6,W
01A5C:  ADDWF  xCD,W
01A5E:  MOVWF  xCD
....................          } 
....................          else 
01A60:  BRA    1A76
....................          { 
....................             P  += diff; 
01A62:  MOVF   xDA,W
01A64:  ADDWF  xD8,F
01A66:  MOVF   xDB,W
01A68:  ADDWFC xD9,F
....................             x1 += addx; 
01A6A:  MOVF   xD6,W
01A6C:  ADDWF  xCD,W
01A6E:  MOVWF  xCD
....................             y1 += addy; 
01A70:  MOVF   xD7,W
01A72:  ADDWF  xCE,W
01A74:  MOVWF  xCE
....................          } 
....................       } 
01A76:  INCF   xDC,F
01A78:  BRA    1A30
....................    } 
....................    else 
01A7A:  BRA    1AE8
....................    { 
....................       dx *= 2; 
01A7C:  BCF    FD8.0
01A7E:  RLCF   xD4,F
01A80:  RLCF   xD5,F
....................       P = dx - dy; 
01A82:  MOVF   xD2,W
01A84:  SUBWF  xD4,W
01A86:  MOVWF  00
01A88:  MOVF   xD3,W
01A8A:  SUBWFB xD5,W
01A8C:  MOVFF  00,7D8
01A90:  MOVWF  xD9
....................       diff = P - dy; 
01A92:  MOVF   xD2,W
01A94:  SUBWF  xD8,W
01A96:  MOVWF  xDA
01A98:  MOVF   xD3,W
01A9A:  SUBWFB xD9,W
01A9C:  MOVWF  xDB
....................  
....................       for(; i<=dy; ++i) 
01A9E:  MOVF   xD3,F
01AA0:  BNZ   1AA8
01AA2:  MOVF   xDC,W
01AA4:  SUBWF  xD2,W
01AA6:  BNC   1AE8
....................       { 
....................          glcd_pixel(x1, y1, color); 
01AA8:  MOVFF  7CD,7DD
01AAC:  MOVFF  7CE,7DE
01AB0:  MOVFF  7D1,7DF
01AB4:  MOVLB  0
01AB6:  RCALL  173A
....................  
....................          if(P < 0) 
01AB8:  MOVLB  7
01ABA:  BTFSC  xD9.7
01ABC:  BRA    1AC0
01ABE:  BRA    1AD0
....................          { 
....................             P  += dx; 
01AC0:  MOVF   xD4,W
01AC2:  ADDWF  xD8,F
01AC4:  MOVF   xD5,W
01AC6:  ADDWFC xD9,F
....................             y1 += addy; 
01AC8:  MOVF   xD7,W
01ACA:  ADDWF  xCE,W
01ACC:  MOVWF  xCE
....................          } 
....................          else 
01ACE:  BRA    1AE4
....................          { 
....................             P  += diff; 
01AD0:  MOVF   xDA,W
01AD2:  ADDWF  xD8,F
01AD4:  MOVF   xDB,W
01AD6:  ADDWFC xD9,F
....................             x1 += addx; 
01AD8:  MOVF   xD6,W
01ADA:  ADDWF  xCD,W
01ADC:  MOVWF  xCD
....................             y1 += addy; 
01ADE:  MOVF   xD7,W
01AE0:  ADDWF  xCE,W
01AE2:  MOVWF  xCE
....................          } 
....................       } 
01AE4:  INCF   xDC,F
01AE6:  BRA    1A9E
....................    } 
.................... } 
01AE8:  MOVLB  0
01AEA:  RETLW  00
....................  
....................  
.................... ///////////////////////////////////////////////////////////////////////// 
.................... // Purpose:       Draw a rectangle on a graphic LCD 
.................... // Inputs:        (x1, y1) - the start coordinate 
.................... //                (x2, y2) - the end coordinate 
.................... //                fill  - YES or NO 
.................... //                color - ON or OFF 
.................... // Dependencies:  glcd_pixel(), glcd_line() 
.................... ///////////////////////////////////////////////////////////////////////// 
.................... #ifdef LARGE_LCD 
.................... void glcd_rect(int16 x1, int16 y1, int16 x2, int16 y2, int1 fill, int1 color) 
.................... #else 
.................... void glcd_rect(int8 x1, int8 y1, int8 x2, int8 y2, int1 fill, int1 color) 
.................... #endif 
.................... { 
....................    if(fill) 
01AEC:  MOVLB  7
01AEE:  MOVF   xC5,F
01AF0:  BZ    1B4E
....................    { 
....................       #ifdef LARGE_LCD 
....................       int16 i, xmin, xmax, ymin, ymax; 
....................       #else 
....................       int8  i, xmin, xmax, ymin, ymax; 
....................       #endif 
....................  
....................       if(x1 < x2)                            //  Find x min and max 
01AF2:  MOVF   xC3,W
01AF4:  SUBWF  xC1,W
01AF6:  BC    1B02
....................       { 
....................          xmin = x1; 
01AF8:  MOVFF  7C1,7C8
....................          xmax = x2; 
01AFC:  MOVFF  7C3,7C9
....................       } 
....................       else 
01B00:  BRA    1B0A
....................       { 
....................          xmin = x2; 
01B02:  MOVFF  7C3,7C8
....................          xmax = x1; 
01B06:  MOVFF  7C1,7C9
....................       } 
....................  
....................       if(y1 < y2)                            // Find the y min and max 
01B0A:  MOVF   xC4,W
01B0C:  SUBWF  xC2,W
01B0E:  BC    1B1A
....................       { 
....................          ymin = y1; 
01B10:  MOVFF  7C2,7CA
....................          ymax = y2; 
01B14:  MOVFF  7C4,7CB
....................       } 
....................       else 
01B18:  BRA    1B22
....................       { 
....................          ymin = y2; 
01B1A:  MOVFF  7C4,7CA
....................          ymax = y1; 
01B1E:  MOVFF  7C2,7CB
....................       } 
....................  
....................       for(; xmin <= xmax; ++xmin) 
01B22:  MOVF   xC8,W
01B24:  SUBWF  xC9,W
01B26:  BNC   1B4C
....................       { 
....................          for(i=ymin; i<=ymax; ++i) 
01B28:  MOVFF  7CA,7C7
01B2C:  MOVF   xC7,W
01B2E:  SUBWF  xCB,W
01B30:  BNC   1B48
....................          { 
....................             glcd_pixel(xmin, i, color); 
01B32:  MOVFF  7C8,7DD
01B36:  MOVFF  7C7,7DE
01B3A:  MOVFF  7C6,7DF
01B3E:  MOVLB  0
01B40:  RCALL  173A
....................          } 
01B42:  MOVLB  7
01B44:  INCF   xC7,F
01B46:  BRA    1B2C
....................       } 
01B48:  INCF   xC8,F
01B4A:  BRA    1B22
....................    } 
....................    else 
01B4C:  BRA    1BAA
....................    { 
....................       glcd_line(x1, y1, x2, y1, color);      // Draw the 4 sides 
01B4E:  MOVFF  7C1,7CD
01B52:  MOVFF  7C2,7CE
01B56:  MOVFF  7C3,7CF
01B5A:  MOVFF  7C2,7D0
01B5E:  MOVFF  7C6,7D1
01B62:  MOVLB  0
01B64:  RCALL  19AE
....................       glcd_line(x1, y2, x2, y2, color); 
01B66:  MOVFF  7C1,7CD
01B6A:  MOVFF  7C4,7CE
01B6E:  MOVFF  7C3,7CF
01B72:  MOVFF  7C4,7D0
01B76:  MOVFF  7C6,7D1
01B7A:  RCALL  19AE
....................       glcd_line(x1, y1, x1, y2, color); 
01B7C:  MOVFF  7C1,7CD
01B80:  MOVFF  7C2,7CE
01B84:  MOVFF  7C1,7CF
01B88:  MOVFF  7C4,7D0
01B8C:  MOVFF  7C6,7D1
01B90:  RCALL  19AE
....................       glcd_line(x2, y1, x2, y2, color); 
01B92:  MOVFF  7C3,7CD
01B96:  MOVFF  7C2,7CE
01B9A:  MOVFF  7C3,7CF
01B9E:  MOVFF  7C4,7D0
01BA2:  MOVFF  7C6,7D1
01BA6:  RCALL  19AE
01BA8:  MOVLB  7
....................    } 
.................... } 
01BAA:  MOVLB  0
01BAC:  RETLW  00
....................  
.................... ///////////////////////////////////////////////////////////////////////// 
.................... // Purpose:       Draw a bar (wide line) on a graphic LCD 
.................... // Inputs:        (x1, y1) - the start coordinate 
.................... //                (x2, y2) - the end coordinate 
.................... //                width  - The number of pixels wide 
.................... //                color - ON or OFF 
.................... ///////////////////////////////////////////////////////////////////////// 
.................... #ifdef LARGE_LCD 
.................... void glcd_bar(int16 x1, int16 y1, int16 x2, int16 y2, int8 width, int1 color) 
.................... #else 
.................... void glcd_bar(int8 x1, int8 y1, int8 x2, int8 y2, int8 width, int1 color) 
.................... #endif 
.................... { 
....................    int8         half_width; 
....................    signed int16 dy, dx; 
....................    signed int8  addx=1, addy=1, j; 
....................    signed int16 P, diff, c1, c2; 
....................  
....................    #ifdef LARGE_LCD 
....................    int16 i=0; 
....................    dx = abs((signed int16)(x2 - x1)); 
....................    dy = abs((signed int16)(y2 - y1)); 
....................    #else 
....................    int8 i=0; 
....................    dx = abs((signed int8)(x2 - x1)); 
....................    dy = abs((signed int8)(y2 - y1)); 
....................    #endif 
....................  
....................    half_width = width/2; 
....................    c1 = -(dx*x1 + dy*y1); 
....................    c2 = -(dx*x2 + dy*y2); 
....................  
....................    if(x1 > x2) 
....................    { 
....................       signed int16 temp; 
....................       temp = c1; 
....................       c1 = c2; 
....................       c2 = temp; 
....................       addx = -1; 
....................    } 
....................    if(y1 > y2) 
....................    { 
....................       signed int16 temp; 
....................       temp = c1; 
....................       c1 = c2; 
....................       c2 = temp; 
....................       addy = -1; 
....................    } 
....................  
....................    if(dx >= dy) 
....................    { 
....................       P = 2*dy - dx; 
....................       diff = P - dx; 
....................  
....................       for(i=0; i<=dx; ++i) 
....................       { 
....................          for(j=-half_width; j<half_width+width%2; ++j) 
....................          { 
....................             #ifdef LARGE_LCD 
....................             int16 temp; 
....................             #else 
....................             int8 temp; 
....................             #endif 
....................  
....................             temp = dx*x1+dy*(y1+j);    // Use more RAM to increase speed 
....................             if(temp+c1 >= 0 && temp+c2 <=0) 
....................                glcd_pixel(x1, y1+j, color); 
....................          } 
....................          if(P < 0) 
....................          { 
....................             P  += 2*dy; 
....................             x1 += addx; 
....................          } 
....................          else 
....................          { 
....................             P  += diff; 
....................             x1 += addx; 
....................             y1 += addy; 
....................          } 
....................       } 
....................    } 
....................    else 
....................    { 
....................       P = 2*dx - dy; 
....................       diff = P - dy; 
....................  
....................       for(i=0; i<=dy; ++i) 
....................       { 
....................          if(P < 0) 
....................          { 
....................             P  += 2*dx; 
....................             y1 += addy; 
....................          } 
....................          else 
....................          { 
....................             P  += diff; 
....................             x1 += addx; 
....................             y1 += addy; 
....................          } 
....................          for(j=-half_width; j<half_width+width%2; ++j) 
....................          { 
....................             #ifdef LARGE_LCD 
....................             int16 temp; 
....................             #else 
....................             int8 temp; 
....................             #endif 
....................  
....................             temp = dx*x1+dy*(y1+j);    // Use more RAM to increase speed 
....................             if(temp+c1 >= 0 && temp+c2 <=0) 
....................                glcd_pixel(x1+j, y1, color); 
....................          } 
....................       } 
....................    } 
.................... } 
....................  
....................  
.................... ///////////////////////////////////////////////////////////////////////// 
.................... // Purpose:       Draw a circle on a graphic LCD 
.................... // Inputs:        (x,y) - the center of the circle 
.................... //                radius - the radius of the circle 
.................... //                fill - YES or NO 
.................... //                color - ON or OFF 
.................... ///////////////////////////////////////////////////////////////////////// 
.................... #ifdef LARGE_LCD 
.................... void glcd_circle(int16 x, int16 y, int16 radius, int1 fill, int1 color) 
.................... #else 
.................... void glcd_circle(int8 x, int8 y, int8 radius, int1 fill, int1 color) 
.................... #endif 
.................... { 
....................    #ifdef LARGE_LCD 
....................    signed int16 a, b, P; 
....................    #else 
....................    signed int8  a, b, P; 
....................    #endif 
....................  
....................    a = 0; 
*
038E4:  MOVLB  7
038E6:  CLRF   xC6
....................    b = radius; 
038E8:  MOVFF  7C3,7C7
....................    P = 1 - radius; 
038EC:  MOVLW  01
038EE:  BSF    FD8.0
038F0:  SUBFWB xC3,W
038F2:  MOVWF  xC8
....................  
....................    do 
....................    { 
....................       if(fill) 
038F4:  MOVF   xC4,F
038F6:  BZ    39C2
....................       { 
....................          glcd_line(x-a, y+b, x+a, y+b, color); 
038F8:  MOVF   xC6,W
038FA:  SUBWF  xC1,W
038FC:  MOVWF  xC9
038FE:  MOVF   xC7,W
03900:  ADDWF  xC2,W
03902:  MOVWF  xCA
03904:  MOVF   xC6,W
03906:  ADDWF  xC1,W
03908:  MOVWF  xCB
0390A:  MOVF   xC7,W
0390C:  ADDWF  xC2,W
0390E:  MOVWF  xCC
03910:  MOVFF  7C9,7CD
03914:  MOVFF  7CA,7CE
03918:  MOVFF  7CB,7CF
0391C:  MOVWF  xD0
0391E:  MOVFF  7C5,7D1
03922:  MOVLB  0
03924:  CALL   19AE
....................          glcd_line(x-a, y-b, x+a, y-b, color); 
03928:  MOVLB  7
0392A:  MOVF   xC6,W
0392C:  SUBWF  xC1,W
0392E:  MOVWF  xC9
03930:  MOVF   xC7,W
03932:  SUBWF  xC2,W
03934:  MOVWF  xCA
03936:  MOVF   xC6,W
03938:  ADDWF  xC1,W
0393A:  MOVWF  xCB
0393C:  MOVF   xC7,W
0393E:  SUBWF  xC2,W
03940:  MOVWF  xCC
03942:  MOVFF  7C9,7CD
03946:  MOVFF  7CA,7CE
0394A:  MOVFF  7CB,7CF
0394E:  MOVWF  xD0
03950:  MOVFF  7C5,7D1
03954:  MOVLB  0
03956:  CALL   19AE
....................          glcd_line(x-b, y+a, x+b, y+a, color); 
0395A:  MOVLB  7
0395C:  MOVF   xC7,W
0395E:  SUBWF  xC1,W
03960:  MOVWF  xC9
03962:  MOVF   xC6,W
03964:  ADDWF  xC2,W
03966:  MOVWF  xCA
03968:  MOVF   xC7,W
0396A:  ADDWF  xC1,W
0396C:  MOVWF  xCB
0396E:  MOVF   xC6,W
03970:  ADDWF  xC2,W
03972:  MOVWF  xCC
03974:  MOVFF  7C9,7CD
03978:  MOVFF  7CA,7CE
0397C:  MOVFF  7CB,7CF
03980:  MOVWF  xD0
03982:  MOVFF  7C5,7D1
03986:  MOVLB  0
03988:  CALL   19AE
....................          glcd_line(x-b, y-a, x+b, y-a, color); 
0398C:  MOVLB  7
0398E:  MOVF   xC7,W
03990:  SUBWF  xC1,W
03992:  MOVWF  xC9
03994:  MOVF   xC6,W
03996:  SUBWF  xC2,W
03998:  MOVWF  xCA
0399A:  MOVF   xC7,W
0399C:  ADDWF  xC1,W
0399E:  MOVWF  xCB
039A0:  MOVF   xC6,W
039A2:  SUBWF  xC2,W
039A4:  MOVWF  xCC
039A6:  MOVFF  7C9,7CD
039AA:  MOVFF  7CA,7CE
039AE:  MOVFF  7CB,7CF
039B2:  MOVWF  xD0
039B4:  MOVFF  7C5,7D1
039B8:  MOVLB  0
039BA:  CALL   19AE
....................       } 
....................       else 
039BE:  BRA    3AB0
039C0:  MOVLB  7
....................       { 
....................          glcd_pixel(a+x, b+y, color); 
039C2:  MOVF   xC1,W
039C4:  ADDWF  xC6,W
039C6:  MOVWF  xC9
039C8:  MOVF   xC2,W
039CA:  ADDWF  xC7,W
039CC:  MOVWF  xCA
039CE:  MOVFF  7C9,7DD
039D2:  MOVWF  xDE
039D4:  MOVFF  7C5,7DF
039D8:  MOVLB  0
039DA:  CALL   173A
....................          glcd_pixel(b+x, a+y, color); 
039DE:  MOVLB  7
039E0:  MOVF   xC1,W
039E2:  ADDWF  xC7,W
039E4:  MOVWF  xC9
039E6:  MOVF   xC2,W
039E8:  ADDWF  xC6,W
039EA:  MOVWF  xCA
039EC:  MOVFF  7C9,7DD
039F0:  MOVWF  xDE
039F2:  MOVFF  7C5,7DF
039F6:  MOVLB  0
039F8:  CALL   173A
....................          glcd_pixel(x-a, b+y, color); 
039FC:  MOVLB  7
039FE:  MOVF   xC6,W
03A00:  SUBWF  xC1,W
03A02:  MOVWF  xC9
03A04:  MOVF   xC2,W
03A06:  ADDWF  xC7,W
03A08:  MOVWF  xCA
03A0A:  MOVFF  7C9,7DD
03A0E:  MOVWF  xDE
03A10:  MOVFF  7C5,7DF
03A14:  MOVLB  0
03A16:  CALL   173A
....................          glcd_pixel(x-b, a+y, color); 
03A1A:  MOVLB  7
03A1C:  MOVF   xC7,W
03A1E:  SUBWF  xC1,W
03A20:  MOVWF  xC9
03A22:  MOVF   xC2,W
03A24:  ADDWF  xC6,W
03A26:  MOVWF  xCA
03A28:  MOVFF  7C9,7DD
03A2C:  MOVWF  xDE
03A2E:  MOVFF  7C5,7DF
03A32:  MOVLB  0
03A34:  CALL   173A
....................          glcd_pixel(b+x, y-a, color); 
03A38:  MOVLB  7
03A3A:  MOVF   xC1,W
03A3C:  ADDWF  xC7,W
03A3E:  MOVWF  xC9
03A40:  MOVF   xC6,W
03A42:  SUBWF  xC2,W
03A44:  MOVWF  xCA
03A46:  MOVFF  7C9,7DD
03A4A:  MOVWF  xDE
03A4C:  MOVFF  7C5,7DF
03A50:  MOVLB  0
03A52:  CALL   173A
....................          glcd_pixel(a+x, y-b, color); 
03A56:  MOVLB  7
03A58:  MOVF   xC1,W
03A5A:  ADDWF  xC6,W
03A5C:  MOVWF  xC9
03A5E:  MOVF   xC7,W
03A60:  SUBWF  xC2,W
03A62:  MOVWF  xCA
03A64:  MOVFF  7C9,7DD
03A68:  MOVWF  xDE
03A6A:  MOVFF  7C5,7DF
03A6E:  MOVLB  0
03A70:  CALL   173A
....................          glcd_pixel(x-a, y-b, color); 
03A74:  MOVLB  7
03A76:  MOVF   xC6,W
03A78:  SUBWF  xC1,W
03A7A:  MOVWF  xC9
03A7C:  MOVF   xC7,W
03A7E:  SUBWF  xC2,W
03A80:  MOVWF  xCA
03A82:  MOVFF  7C9,7DD
03A86:  MOVWF  xDE
03A88:  MOVFF  7C5,7DF
03A8C:  MOVLB  0
03A8E:  CALL   173A
....................          glcd_pixel(x-b, y-a, color); 
03A92:  MOVLB  7
03A94:  MOVF   xC7,W
03A96:  SUBWF  xC1,W
03A98:  MOVWF  xC9
03A9A:  MOVF   xC6,W
03A9C:  SUBWF  xC2,W
03A9E:  MOVWF  xCA
03AA0:  MOVFF  7C9,7DD
03AA4:  MOVWF  xDE
03AA6:  MOVFF  7C5,7DF
03AAA:  MOVLB  0
03AAC:  CALL   173A
....................       } 
....................  
....................       if(P < 0) 
03AB0:  MOVLB  7
03AB2:  BTFSC  xC8.7
03AB4:  BRA    3AB8
03AB6:  BRA    3AD4
....................          P += 3 + 2 * a++; 
03AB8:  MOVF   xC6,W
03ABA:  INCF   xC6,F
03ABC:  MOVWF  xC9
03ABE:  MOVLW  02
03AC0:  MOVWF  xCA
03AC2:  MOVFF  7C9,7CB
03AC6:  MOVLB  0
03AC8:  RCALL  35A8
03ACA:  MOVF   01,W
03ACC:  ADDLW  03
03ACE:  MOVLB  7
03AD0:  ADDWF  xC8,F
....................       else 
03AD2:  BRA    3AF6
....................          P += 5 + 2 * (a++ - b--); 
03AD4:  MOVF   xC6,W
03AD6:  INCF   xC6,F
03AD8:  MOVWF  xC9
03ADA:  MOVF   xC7,W
03ADC:  DECF   xC7,F
03ADE:  SUBWF  xC9,W
03AE0:  MOVWF  xC9
03AE2:  MOVLW  02
03AE4:  MOVWF  xCA
03AE6:  MOVFF  7C9,7CB
03AEA:  MOVLB  0
03AEC:  RCALL  35A8
03AEE:  MOVF   01,W
03AF0:  ADDLW  05
03AF2:  MOVLB  7
03AF4:  ADDWF  xC8,F
....................     } while(a <= b); 
03AF6:  MOVF   xC6,W
03AF8:  XORLW  80
03AFA:  MOVWF  00
03AFC:  MOVF   xC7,W
03AFE:  XORLW  80
03B00:  SUBWF  00,W
03B02:  BTFSC  FD8.2
03B04:  BRA    38F4
03B06:  BTFSS  FD8.0
03B08:  BRA    38F4
.................... } 
03B0A:  MOVLB  0
03B0C:  RETLW  00
....................  
....................  
.................... ///////////////////////////////////////////////////////////////////////// 
.................... // Purpose:       Write text on a graphic LCD 
.................... // Inputs:        (x,y) - The upper left coordinate of the first letter 
.................... //                textptr - A pointer to an array of text to display 
.................... //                size - The size of the text: 1 = 5x7, 2 = 10x14, ... 
.................... //                color - ON or OFF 
.................... ///////////////////////////////////////////////////////////////////////// 
.................... #ifdef LARGE_LCD 
.................... void glcd_text57(int16 x, int16 y, char* textptr, int8 size, int1 color) 
.................... #else 
.................... void glcd_text57(int8 x, int8 y, char* textptr, int8 size, int1 color) 
.................... #endif 
.................... { 
....................    int8 j, k, l, m;                       // Loop counters 
....................    int8 pixelData[5];                     // Stores character data 
....................  
....................    for(; *textptr != '\0'; ++textptr, ++x)// Loop through the passed string 
*
017F6:  MOVFF  7C4,03
017FA:  MOVLB  7
017FC:  MOVFF  7C3,FE9
01800:  MOVFF  7C4,FEA
01804:  MOVF   FEF,F
01806:  BTFSC  FD8.2
01808:  BRA    19AA
....................    { 
....................       if(*textptr < 'S') // Checks if the letter is in the first font array 
0180A:  MOVFF  7C4,03
0180E:  MOVFF  7C3,FE9
01812:  MOVFF  7C4,FEA
01816:  MOVF   FEF,W
01818:  SUBLW  52
0181A:  BNC   186A
....................          memcpy(pixelData, FONT[*textptr - ' '], 5); 
0181C:  MOVFF  7C4,03
01820:  MOVFF  7C3,FE9
01824:  MOVFF  7C4,FEA
01828:  MOVLW  20
0182A:  SUBWF  FEF,W
0182C:  MULLW  05
0182E:  MOVF   FF3,W
01830:  CLRF   03
01832:  MOVWF  xD0
01834:  MOVLW  07
01836:  MOVWF  FEA
01838:  MOVLW  CB
0183A:  MOVWF  FE9
0183C:  CLRF   xD4
0183E:  MOVFF  7D0,7D3
01842:  MOVFF  FF2,7D1
01846:  BCF    FF2.7
01848:  MOVLW  05
0184A:  MOVWF  01
0184C:  CLRF   FF7
0184E:  MOVF   xD0,W
01850:  MOVLB  0
01852:  CALL   009E
01856:  TBLRD*-
01858:  TBLRD*+
0185A:  MOVFF  FF5,FEE
0185E:  DECFSZ 01,F
01860:  BRA    1858
01862:  MOVLB  7
01864:  BTFSC  xD1.7
01866:  BSF    FF2.7
....................       else if(*textptr <= '~') // Check if the letter is in the second font array 
01868:  BRA    18D4
0186A:  MOVFF  7C4,03
0186E:  MOVFF  7C3,FE9
01872:  MOVFF  7C4,FEA
01876:  MOVF   FEF,W
01878:  SUBLW  7E
0187A:  BNC   18CA
....................          memcpy(pixelData, FONT2[*textptr - 'S'], 5); 
0187C:  MOVFF  7C4,03
01880:  MOVFF  7C3,FE9
01884:  MOVFF  7C4,FEA
01888:  MOVLW  53
0188A:  SUBWF  FEF,W
0188C:  MULLW  05
0188E:  MOVF   FF3,W
01890:  CLRF   03
01892:  MOVWF  xD0
01894:  MOVLW  07
01896:  MOVWF  FEA
01898:  MOVLW  CB
0189A:  MOVWF  FE9
0189C:  CLRF   xD4
0189E:  MOVFF  7D0,7D3
018A2:  MOVFF  FF2,7D1
018A6:  BCF    FF2.7
018A8:  MOVLW  05
018AA:  MOVWF  01
018AC:  CLRF   FF7
018AE:  MOVF   xD0,W
018B0:  MOVLB  0
018B2:  CALL   01BC
018B6:  TBLRD*-
018B8:  TBLRD*+
018BA:  MOVFF  FF5,FEE
018BE:  DECFSZ 01,F
018C0:  BRA    18B8
018C2:  MOVLB  7
018C4:  BTFSC  xD1.7
018C6:  BSF    FF2.7
....................       else 
018C8:  BRA    18D4
....................          memcpy(pixelData, FONT[0], 5);   // Default to space 
018CA:  CLRF   xCB
018CC:  CLRF   xCC
018CE:  CLRF   xCD
018D0:  CLRF   xCE
018D2:  CLRF   xCF
....................  
....................       // Handles newline and carriage returns 
....................       switch(*textptr) 
....................       { 
018D4:  MOVFF  7C4,03
018D8:  MOVF   xC3,W
018DA:  MOVWF  FE9
018DC:  MOVFF  03,FEA
018E0:  MOVF   FEF,W
018E2:  XORLW  0A
018E4:  MOVLB  0
018E6:  BZ    18EE
018E8:  XORLW  07
018EA:  BZ    18FE
018EC:  BRA    1904
....................          case '\n': 
....................             y += 7*size + 1; 
018EE:  MOVLB  7
018F0:  MOVF   xC5,W
018F2:  MULLW  07
018F4:  MOVF   FF3,W
018F6:  ADDLW  01
018F8:  ADDWF  xC2,F
....................             continue; 
018FA:  BRA    199C
018FC:  MOVLB  0
....................          case '\r': 
....................             x = 0; 
018FE:  MOVLB  7
01900:  CLRF   xC1
....................             continue; 
01902:  BRA    199C
....................       } 
....................  
....................       if(x+5*size >= GLCD_WIDTH)          // Performs character wrapping 
01904:  MOVLB  7
01906:  MOVF   xC5,W
01908:  MULLW  05
0190A:  MOVF   FF3,W
0190C:  ADDWF  xC1,W
0190E:  SUBLW  7F
01910:  BC    191E
....................       { 
....................          x = 0;                           // Set x at far left position 
01912:  CLRF   xC1
....................          y += 7*size + 1;                 // Set y at next position down 
01914:  MOVF   xC5,W
01916:  MULLW  07
01918:  MOVF   FF3,W
0191A:  ADDLW  01
0191C:  ADDWF  xC2,F
....................       } 
....................       for(j=0; j<5; ++j, x+=size)         // Loop through character byte data 
0191E:  CLRF   xC7
01920:  MOVF   xC7,W
01922:  SUBLW  04
01924:  BNC   199C
....................       { 
....................          for(k=0; k < 7; ++k)             // Loop through the vertical pixels 
01926:  CLRF   xC8
01928:  MOVF   xC8,W
0192A:  SUBLW  06
0192C:  BNC   1994
....................          { 
....................             if(bit_test(pixelData[j], k)) // Check if the pixel should be set 
0192E:  CLRF   03
01930:  MOVF   xC7,W
01932:  ADDLW  CB
01934:  MOVWF  FE9
01936:  MOVLW  07
01938:  ADDWFC 03,W
0193A:  MOVWF  FEA
0193C:  MOVFF  FEF,7D0
01940:  MOVFF  7D0,00
01944:  MOVF   xC8,W
01946:  MOVWF  01
01948:  BZ    1952
0194A:  BCF    FD8.0
0194C:  RRCF   00,F
0194E:  DECFSZ 01,F
01950:  BRA    194A
01952:  BTFSS  00.0
01954:  BRA    1990
....................             { 
....................                for(l=0; l < size; ++l)    // These two loops change the 
01956:  CLRF   xC9
01958:  MOVF   xC5,W
0195A:  SUBWF  xC9,W
0195C:  BC    1990
....................                {                          // character's size 
....................                   for(m=0; m < size; ++m) 
0195E:  CLRF   xCA
01960:  MOVF   xC5,W
01962:  SUBWF  xCA,W
01964:  BC    198C
....................                   { 
....................                      glcd_pixel(x+m, y+k*size+l, color); // Draws the pixel 
01966:  MOVF   xCA,W
01968:  ADDWF  xC1,W
0196A:  MOVWF  xD0
0196C:  MOVF   xC8,W
0196E:  MULWF  xC5
01970:  MOVF   FF3,W
01972:  ADDWF  xC2,W
01974:  ADDWF  xC9,W
01976:  MOVWF  xD1
01978:  MOVFF  7D0,7DD
0197C:  MOVWF  xDE
0197E:  MOVFF  7C6,7DF
01982:  MOVLB  0
01984:  RCALL  173A
....................                   } 
01986:  MOVLB  7
01988:  INCF   xCA,F
0198A:  BRA    1960
....................                } 
0198C:  INCF   xC9,F
0198E:  BRA    1958
....................             } 
....................          } 
01990:  INCF   xC8,F
01992:  BRA    1928
....................       } 
01994:  INCF   xC7,F
01996:  MOVF   xC5,W
01998:  ADDWF  xC1,F
0199A:  BRA    1920
....................    } 
0199C:  INCF   xC3,F
0199E:  BTFSC  FD8.2
019A0:  INCF   xC4,F
019A2:  INCF   xC1,F
019A4:  MOVLB  0
019A6:  BRA    17F6
019A8:  MOVLB  7
.................... } 
019AA:  MOVLB  0
019AC:  RETLW  00
....................  
.................... #endif 
....................  
.................... #include "imagen.h" 
.................... const int8 Horno [64][16] = { 
.................... 0x00, 0x00, 0x00, 0x00, 0x00, 0x00, 0x00, 0x00, 0x00, 0x00, 0x00, 0x00, 0x00, 0x00, 0x00, 0x00, 
.................... 0x01, 0xC0, 0x00, 0x00, 0x00, 0x00, 0x00, 0x00, 0x00, 0x00, 0x00, 0x00, 0x00, 0x00, 0x00, 0x00, 
.................... 0x07, 0xF0, 0x00, 0x00, 0x00, 0x00, 0x00, 0x00, 0x00, 0x00, 0x00, 0x00, 0x00, 0x00, 0x00, 0x00, 
.................... 0x1C, 0x9C, 0x00, 0x00, 0x00, 0x00, 0x00, 0x00, 0x00, 0x00, 0x00, 0x00, 0x00, 0x00, 0x00, 0x00, 
.................... 0x18, 0x0C, 0x00, 0x00, 0x00, 0x00, 0x00, 0x00, 0x00, 0x00, 0x00, 0x00, 0x00, 0x00, 0x00, 0x00, 
.................... 0x30, 0x86, 0x00, 0x00, 0x00, 0x00, 0x00, 0x00, 0x00, 0x00, 0x00, 0x00, 0x00, 0x00, 0x00, 0x00, 
.................... 0x20, 0x82, 0x00, 0x00, 0x00, 0x00, 0x00, 0x00, 0x00, 0x00, 0x00, 0x00, 0x00, 0x00, 0x00, 0x00, 
.................... 0x60, 0x83, 0x00, 0x00, 0x00, 0x00, 0x00, 0x00, 0x00, 0x00, 0x00, 0x00, 0x00, 0x00, 0x00, 0x00, 
.................... 0x70, 0x87, 0x00, 0x00, 0x00, 0x00, 0x00, 0x00, 0x00, 0x00, 0x00, 0x00, 0x00, 0x00, 0x00, 0x00, 
.................... 0x60, 0xC3, 0x00, 0x00, 0x00, 0x00, 0x00, 0x00, 0x00, 0x00, 0x00, 0x00, 0x00, 0x00, 0x00, 0x00, 
.................... 0x20, 0x62, 0x00, 0x00, 0x00, 0x00, 0x00, 0x00, 0x00, 0x00, 0x00, 0x00, 0x00, 0x00, 0x00, 0x00, 
.................... 0x30, 0x26, 0x00, 0x00, 0x00, 0x00, 0x00, 0x00, 0x00, 0x00, 0x00, 0x00, 0x00, 0x00, 0x00, 0x00, 
.................... 0x18, 0x0C, 0x00, 0x00, 0x00, 0x00, 0x00, 0x00, 0x00, 0x00, 0x00, 0x00, 0x00, 0x00, 0x00, 0x00, 
.................... 0x1C, 0x9C, 0x00, 0x00, 0x00, 0x00, 0x00, 0x00, 0x00, 0x00, 0x00, 0x00, 0x00, 0x00, 0x00, 0x00, 
.................... 0x07, 0xF0, 0x00, 0x00, 0x00, 0x00, 0x00, 0x00, 0x00, 0x00, 0x00, 0x00, 0x00, 0x00, 0x00, 0x00, 
.................... 0x01, 0xC0, 0x00, 0x00, 0x00, 0x00, 0x00, 0x00, 0x00, 0x00, 0x00, 0x00, 0x00, 0x00, 0x00, 0x00, 
.................... 0x00, 0x00, 0x00, 0x00, 0x00, 0x00, 0x00, 0x00, 0x00, 0x00, 0x00, 0x00, 0x00, 0x00, 0x00, 0x00, 
.................... 0x00, 0x00, 0x00, 0x00, 0x00, 0x00, 0x00, 0x00, 0x00, 0x00, 0x00, 0x00, 0x00, 0x00, 0x00, 0x00, 
.................... 0x00, 0x00, 0x00, 0x00, 0x00, 0x00, 0x00, 0x00, 0x00, 0x00, 0x00, 0x00, 0x00, 0x00, 0x00, 0x00, 
.................... 0x00, 0x00, 0x00, 0x00, 0x00, 0x00, 0x00, 0x00, 0x00, 0x00, 0x00, 0x00, 0x00, 0x00, 0x00, 0x00, 
.................... 0x00, 0x00, 0x00, 0x00, 0x00, 0x00, 0x00, 0x00, 0x00, 0x00, 0x00, 0x00, 0x00, 0x00, 0x00, 0x00, 
.................... 0x00, 0x00, 0x00, 0x00, 0x00, 0x00, 0x00, 0x00, 0x00, 0x00, 0x00, 0x00, 0x00, 0x00, 0x00, 0x00, 
.................... 0x00, 0x00, 0x00, 0x00, 0x00, 0x00, 0x00, 0x00, 0x00, 0x00, 0x00, 0x00, 0x00, 0x00, 0x00, 0x00, 
.................... 0x00, 0x00, 0x00, 0x00, 0x00, 0x00, 0x00, 0x00, 0x00, 0x00, 0x00, 0x00, 0x00, 0x00, 0x00, 0x00, 
.................... 0x00, 0x00, 0x00, 0x00, 0x00, 0x00, 0x00, 0x00, 0x00, 0x00, 0x00, 0x00, 0x00, 0x00, 0x00, 0x00, 
.................... 0x00, 0x00, 0x00, 0x00, 0x00, 0x00, 0x00, 0x00, 0x00, 0x00, 0x00, 0x00, 0x00, 0x00, 0x00, 0x00, 
.................... 0x00, 0x00, 0x00, 0x00, 0x00, 0x00, 0x00, 0x00, 0x00, 0x00, 0x00, 0x00, 0x00, 0x00, 0x00, 0x00, 
.................... 0x00, 0x00, 0x00, 0x00, 0x00, 0x00, 0x00, 0x00, 0x00, 0x00, 0x00, 0x00, 0x00, 0x00, 0x00, 0x00, 
.................... 0x01, 0x80, 0x00, 0x00, 0x00, 0x00, 0x00, 0x00, 0x00, 0x00, 0x00, 0x00, 0x00, 0x00, 0x00, 0x00, 
.................... 0x02, 0x40, 0x00, 0x00, 0x00, 0x00, 0x00, 0x00, 0x00, 0x00, 0x00, 0x00, 0x00, 0x00, 0x00, 0x00, 
.................... 0x02, 0x70, 0x00, 0x00, 0x00, 0x00, 0x00, 0x00, 0x00, 0x00, 0x00, 0x00, 0x00, 0x00, 0x00, 0x00, 
.................... 0x02, 0x40, 0x00, 0x00, 0x00, 0x00, 0x00, 0x00, 0x00, 0x00, 0x00, 0x00, 0x00, 0x00, 0x00, 0x00, 
.................... 0x03, 0xC0, 0x00, 0x00, 0x00, 0x00, 0x00, 0x00, 0x00, 0x00, 0x00, 0x00, 0x00, 0x00, 0x00, 0x00, 
.................... 0x03, 0xF0, 0x00, 0x00, 0x00, 0x00, 0x00, 0x00, 0x00, 0x00, 0x00, 0x00, 0x00, 0x00, 0x00, 0x00, 
.................... 0x03, 0xC0, 0x00, 0x00, 0x00, 0x00, 0x00, 0x00, 0x00, 0x00, 0x00, 0x00, 0x00, 0x00, 0x00, 0x00, 
.................... 0x03, 0xC0, 0x00, 0x00, 0x00, 0x00, 0x00, 0x00, 0x00, 0x00, 0x00, 0x00, 0x00, 0x00, 0x00, 0x00, 
.................... 0x07, 0xE0, 0x00, 0x00, 0x00, 0x00, 0x00, 0x00, 0x00, 0x00, 0x00, 0x00, 0x00, 0x00, 0x00, 0x00, 
.................... 0x0F, 0xF0, 0x00, 0x00, 0x00, 0x00, 0x00, 0x00, 0x00, 0x00, 0x00, 0x00, 0x00, 0x00, 0x00, 0x00, 
.................... 0x0B, 0xF0, 0x00, 0x00, 0x00, 0x00, 0x00, 0x00, 0x00, 0x00, 0x00, 0x00, 0x00, 0x00, 0x00, 0x00, 
.................... 0x0B, 0xF0, 0x00, 0x00, 0x00, 0x00, 0x00, 0x00, 0x00, 0x00, 0x00, 0x00, 0x00, 0x00, 0x00, 0x00, 
.................... 0x0F, 0xF0, 0x00, 0x00, 0x00, 0x00, 0x00, 0x00, 0x00, 0x00, 0x00, 0x00, 0x00, 0x00, 0x00, 0x00, 
.................... 0x0F, 0xF0, 0x00, 0x00, 0x00, 0x00, 0x00, 0x00, 0x00, 0x00, 0x00, 0x00, 0x00, 0x00, 0x00, 0x00, 
.................... 0x07, 0xE0, 0x00, 0x00, 0x00, 0x00, 0x00, 0x00, 0x00, 0x00, 0x00, 0x00, 0x00, 0x00, 0x00, 0x00, 
.................... 0x03, 0xC0, 0x00, 0x00, 0x00, 0x00, 0x00, 0x00, 0x00, 0x00, 0x00, 0x00, 0x00, 0x00, 0x00, 0x00, 
.................... 0x00, 0x00, 0x00, 0x00, 0x00, 0x00, 0x00, 0x00, 0x00, 0x00, 0x00, 0x00, 0x00, 0x00, 0x00, 0x00, 
.................... 0x00, 0x00, 0x00, 0x00, 0x00, 0x00, 0x00, 0x00, 0x00, 0x00, 0x00, 0x00, 0x00, 0x00, 0x00, 0x00, 
.................... 0x00, 0x00, 0x00, 0x00, 0x00, 0x00, 0x00, 0x00, 0x00, 0x00, 0x00, 0x00, 0x00, 0x00, 0x00, 0x00, 
.................... 0x00, 0x00, 0x00, 0x00, 0x00, 0x00, 0x00, 0x00, 0x00, 0x00, 0x00, 0x00, 0x00, 0x00, 0x00, 0x00, 
.................... 0x00, 0x00, 0x00, 0x00, 0x00, 0x00, 0x00, 0x00, 0x00, 0x00, 0x00, 0x00, 0x00, 0x00, 0x00, 0x00, 
.................... 0x00, 0x00, 0x00, 0x00, 0x00, 0x00, 0x00, 0x00, 0x00, 0x00, 0x00, 0x00, 0x00, 0x00, 0x00, 0x00, 
.................... 0x00, 0x00, 0x00, 0x00, 0x00, 0x00, 0x00, 0x00, 0x00, 0x00, 0x00, 0x00, 0x00, 0x00, 0x00, 0x00, 
.................... 0x00, 0x00, 0x00, 0x00, 0x00, 0x00, 0x00, 0x00, 0x00, 0x00, 0x00, 0x00, 0x00, 0x00, 0x00, 0x00, 
.................... 0x00, 0x00, 0x00, 0x00, 0x00, 0x00, 0x00, 0x00, 0x00, 0x00, 0x00, 0x00, 0x00, 0x00, 0x00, 0x00, 
.................... 0x00, 0x00, 0x00, 0x00, 0x00, 0x00, 0x00, 0x00, 0x00, 0x00, 0x00, 0x00, 0x00, 0x00, 0x00, 0x00, 
.................... 0x00, 0x00, 0x00, 0x00, 0x00, 0x00, 0x00, 0x00, 0x00, 0x00, 0x00, 0x00, 0x00, 0x00, 0x00, 0x00, 
.................... 0x00, 0x00, 0x00, 0x00, 0x00, 0x00, 0x00, 0x00, 0x00, 0x00, 0x00, 0x00, 0x00, 0x00, 0x00, 0x00, 
.................... 0x00, 0x00, 0x00, 0x00, 0x00, 0x00, 0x00, 0x00, 0x00, 0x00, 0x00, 0x00, 0x00, 0x00, 0x00, 0x00, 
.................... 0x00, 0x00, 0x00, 0x00, 0x00, 0x00, 0x00, 0x00, 0x00, 0x00, 0x00, 0x00, 0x00, 0x00, 0x00, 0x00, 
.................... 0x00, 0x00, 0x00, 0x00, 0x00, 0x00, 0x00, 0x00, 0x00, 0x00, 0x00, 0x00, 0x00, 0x00, 0x00, 0x00, 
.................... 0x00, 0x00, 0x00, 0x00, 0x00, 0x00, 0x00, 0x00, 0x00, 0x00, 0x00, 0x00, 0x00, 0x00, 0x00, 0x00, 
.................... 0x00, 0x00, 0x00, 0x00, 0x00, 0x00, 0x00, 0x00, 0x00, 0x00, 0x00, 0x00, 0x00, 0x00, 0x00, 0x00, 
.................... 0x00, 0x00, 0x00, 0x00, 0x00, 0x00, 0x00, 0x00, 0x00, 0x00, 0x00, 0x00, 0x00, 0x00, 0x00, 0x00, 
.................... 0x00, 0x00, 0x00, 0x00, 0x00, 0x00, 0x00, 0x00, 0x00, 0x00, 0x00, 0x00, 0x00, 0x00, 0x00, 0x00, 
.................... 0x00, 0x00, 0x00, 0x00, 0x00, 0x00, 0x00, 0x00, 0x00, 0x00, 0x00, 0x00, 0x00, 0x00, 0x00, 0x00 
.................... }; 
....................  
....................  
.................... #include <MATH.h> 
.................... //////////////////////////////////////////////////////////////////////////// 
.................... ////        (C) Copyright 1996,2008 Custom Computer Services            //// 
.................... //// This source code may only be used by licensed users of the CCS C   //// 
.................... //// compiler.  This source code may only be distributed to other       //// 
.................... //// licensed users of the CCS C compiler.  No other use, reproduction  //// 
.................... //// or distribution is permitted without written permission.           //// 
.................... //// Derivative programs created using this software in object code     //// 
.................... //// form are not restricted in any way.                                //// 
.................... //////////////////////////////////////////////////////////////////////////// 
.................... ////                                                                    //// 
.................... //// History:                                                           //// 
.................... ////  * 9/20/2001 :  Improvments are made to sin/cos code.              //// 
.................... ////                 The code now is small, much faster,                //// 
.................... ////                 and more accurate.                                 //// 
.................... ////  * 2/21/2007 :  Compiler handles & operator differently and does 
.................... ////                 not return generic (int8 *) so type cast is done   //// 
.................... ////                                                                    //// 
.................... //////////////////////////////////////////////////////////////////////////// 
....................  
.................... #ifndef MATH_H 
.................... #define MATH_H 
....................  
.................... #ifdef PI 
.................... #undef  PI 
.................... #endif 
.................... #define PI     3.1415926535897932 
....................  
....................  
.................... #define SQRT2  1.4142135623730950 
....................  
.................... //float const ps[4] = {5.9304945, 21.125224, 8.9403076, 0.29730279}; 
.................... //float const qs[4] = {1.0000000, 15.035723, 17.764134, 2.4934718}; 
....................  
.................... ///////////////////////////// Round Functions ////////////////////////////// 
....................  
.................... float32 CEIL_FLOOR(float32 x, unsigned int8 n) 
.................... { 
....................    float32 y, res; 
....................    unsigned int16 l; 
....................    int1 s; 
....................  
....................    s = 0; 
....................    y = x; 
....................  
....................    if (x < 0) 
....................    { 
....................       s = 1; 
....................       y = -y; 
....................    } 
....................  
....................    if (y <= 32768.0) 
....................   res = (float32)(unsigned int16)y; 
....................  
....................  else if (y < 10000000.0) 
....................    { 
....................   l = (unsigned int16)(y/32768.0); 
....................       y = 32768.0*(y/32768.0 - (float32)l); 
....................   res = 32768.0*(float32)l; 
....................   res += (float32)(unsigned int16)y; 
....................  } 
....................  
....................  else 
....................   res = y; 
....................  
....................  y = y - (float32)(unsigned int16)y; 
....................  
....................  if (s) 
....................   res = -res; 
....................  
....................  if (y != 0) 
....................  { 
....................   if (s == 1 && n == 0) 
....................    res -= 1.0; 
....................  
....................   if (s == 0 && n == 1) 
....................    res += 1.0; 
....................  } 
....................  if (x == 0) 
....................     res = 0; 
....................  
....................  return (res); 
.................... } 
....................  
.................... // Overloaded Functions to take care for new Data types in PCD 
.................... // Overloaded function CEIL_FLOOR() for data type - Float48 
.................... #if defined(__PCD__) 
.................... float48 CEIL_FLOOR(float48 x, unsigned int8 n) 
.................... { 
....................    float48 y, res; 
....................    unsigned int16 l; 
....................    int1 s; 
....................  
....................    s = 0; 
....................    y = x; 
....................  
....................    if (x < 0) 
....................    { 
....................       s = 1; 
....................       y = -y; 
....................    } 
....................  
....................    if (y <= 32768.0) 
....................   res = (float48)(unsigned int16)y; 
....................  
....................  else if (y < 10000000.0) 
....................    { 
....................   l = (unsigned int16)(y/32768.0); 
....................       y = 32768.0*(y/32768.0 - (float48)l); 
....................   res = 32768.0*(float32)l; 
....................   res += (float48)(unsigned int16)y; 
....................  } 
....................  
....................  else 
....................   res = y; 
....................  
....................  y = y - (float48)(unsigned int16)y; 
....................  
....................  if (s) 
....................   res = -res; 
....................  
....................  if (y != 0) 
....................  { 
....................   if (s == 1 && n == 0) 
....................    res -= 1.0; 
....................  
....................   if (s == 0 && n == 1) 
....................    res += 1.0; 
....................  } 
....................  if (x == 0) 
....................     res = 0; 
....................  
....................  return (res); 
.................... } 
....................  
....................  
.................... // Overloaded function CEIL_FLOOR() for data type - Float64 
.................... float64 CEIL_FLOOR(float64 x, unsigned int8 n) 
.................... { 
....................    float64 y, res; 
....................    unsigned int16 l; 
....................    int1 s; 
....................  
....................    s = 0; 
....................    y = x; 
....................  
....................    if (x < 0) 
....................    { 
....................       s = 1; 
....................       y = -y; 
....................    } 
....................  
....................    if (y <= 32768.0) 
....................   res = (float64)(unsigned int16)y; 
....................  
....................  else if (y < 10000000.0) 
....................    { 
....................   l = (unsigned int16)(y/32768.0); 
....................       y = 32768.0*(y/32768.0 - (float64)l); 
....................   res = 32768.0*(float64)l; 
....................   res += (float64)(unsigned int16)y; 
....................  } 
....................  
....................  else 
....................   res = y; 
....................  
....................  y = y - (float64)(unsigned int16)y; 
....................  
....................  if (s) 
....................   res = -res; 
....................  
....................  if (y != 0) 
....................  { 
....................   if (s == 1 && n == 0) 
....................    res -= 1.0; 
....................  
....................   if (s == 0 && n == 1) 
....................    res += 1.0; 
....................  } 
....................  if (x == 0) 
....................     res = 0; 
....................  
....................  return (res); 
.................... } 
.................... #endif 
....................  
.................... //////////////////////////////////////////////////////////////////////////// 
.................... //   float floor(float x) 
.................... //////////////////////////////////////////////////////////////////////////// 
.................... // Description : rounds down the number x. 
.................... // Date : N/A 
.................... // 
.................... float32 floor(float32 x) 
.................... { 
....................    return CEIL_FLOOR(x, 0); 
.................... } 
.................... // Following 2 functions are overloaded functions of floor() for PCD 
.................... // Overloaded function floor() for data type - Float48 
.................... #if defined(__PCD__) 
.................... float48 floor(float48 x) 
.................... { 
....................    return CEIL_FLOOR(x, 0); 
.................... } 
....................  
.................... // Overloaded function floor() for data type - Float64 
.................... float64 floor(float64 x) 
.................... { 
....................    return CEIL_FLOOR(x, 0); 
.................... } 
.................... #endif 
....................  
....................  
.................... //////////////////////////////////////////////////////////////////////////// 
.................... //   float ceil(float x) 
.................... //////////////////////////////////////////////////////////////////////////// 
.................... // Description : rounds up the number x. 
.................... // Date : N/A 
.................... // 
.................... float32 ceil(float32 x) 
.................... { 
....................    return CEIL_FLOOR(x, 1); 
.................... } 
.................... // Following 2 functions are overloaded functions of ceil() for PCD 
.................... // Overloaded function ceil() for data type - Float48 
.................... #if defined(__PCD__) 
.................... float48 ceil(float48 x) 
.................... { 
....................    return CEIL_FLOOR(x, 1); 
.................... } 
....................  
.................... // Overloaded function ceil() for data type - Float64 
.................... float64 ceil(float64 x) 
.................... { 
....................    return CEIL_FLOOR(x, 1); 
.................... } 
.................... #endif 
....................  
....................  //////////////////////////////////////////////////////////////////////////// 
.................... //   float fabs(float x) 
.................... //////////////////////////////////////////////////////////////////////////// 
.................... // Description : Computes the absolute value of floating point number x 
.................... // Returns : returns the absolute value of x 
.................... // Date : N/A 
.................... // 
.................... #define fabs abs 
....................  
.................... //////////////////////////////////////////////////////////////////////////// 
.................... //   float fmod(float x) 
.................... //////////////////////////////////////////////////////////////////////////// 
.................... // Description : Computes the floating point remainder of x/y 
.................... // Returns : returns the value of x= i*y, for some integer i such that, if y 
.................... // is non zero, the result has the same isgn of x na dmagnitude less than the 
.................... // magnitude of y. If y is zero then a domain error occurs. 
.................... // Date : N/A 
.................... // 
....................  
.................... float fmod(float32 x,float32 y) 
.................... { 
....................    float32 i; 
....................    if (y!=0.0) 
....................    { 
....................       i=(x/y < 0.0)? ceil(x/y): floor(x/y); 
....................       return(x-(i*y)); 
....................    } 
....................    else 
....................    { 
....................    #ifdef _ERRNO 
....................    { 
....................       errno=EDOM; 
....................    } 
....................    #endif 
....................    } 
.................... } 
.................... //Overloaded function for fmod() for PCD 
.................... // Overloaded function fmod() for data type - Float48 
.................... #if defined(__PCD__) 
.................... float48 fmod(float48 x,float48 y) 
.................... { 
....................    float48 i; 
....................    if (y!=0.0) 
....................    { 
....................       i=(x/y < 0.0)? ceil(x/y): floor(x/y); 
....................       return(x-(i*y)); 
....................    } 
....................    else 
....................    { 
....................    #ifdef _ERRNO 
....................    { 
....................       errno=EDOM; 
....................    } 
....................    #endif 
....................    } 
.................... } 
.................... // Overloaded function fmod() for data type - Float64 
.................... float64 fmod(float64 x,float64 y) 
.................... { 
....................    float64 i; 
....................    if (y!=0.0) 
....................    { 
....................       i=(x/y < 0.0)? ceil(x/y): floor(x/y); 
....................       return(x-(i*y)); 
....................    } 
....................    else 
....................    { 
....................    #ifdef _ERRNO 
....................    { 
....................       errno=EDOM; 
....................    } 
....................    #endif 
....................    } 
.................... } 
.................... #endif 
.................... //////////////////// Exponential and logarithmic functions //////////////////// 
.................... //////////////////////////////////////////////////////////////////////////// 
.................... //   float exp(float x) 
.................... //////////////////////////////////////////////////////////////////////////// 
.................... // Description : returns the value (e^x) 
.................... // Date : N/A 
.................... // 
.................... #define LN2 0.6931471805599453 
....................  
.................... float const pe[6] = {0.000207455774, 0.00127100575, 0.00965065093, 
....................                      0.0554965651,  0.240227138,  0.693147172}; 
....................  
....................  
.................... float32 exp(float32 x) 
.................... { 
....................    float32 y, res, r; 
....................    #if defined(__PCD__) 
....................    int8 data1; 
....................    #endif 
....................    signed int8 n; 
....................    int1 s; 
....................    #ifdef _ERRNO 
....................    if(x > 88.722838) 
....................    { 
....................       errno=ERANGE; 
....................       return(0); 
....................    } 
....................    #endif 
....................    n = (signed int16)(x/LN2); 
....................    s = 0; 
....................    y = x; 
....................  
....................    if (x < 0) 
....................    { 
....................       s = 1; 
....................       n = -n; 
....................       y = -y; 
....................    } 
....................  
....................    res = 0.0; 
.................... #if !defined(__PCD__) 
....................    *((unsigned int8 *)(&res)) = n + 0x7F; 
.................... #endif 
....................  
.................... #if defined(__PCD__)  // Takes care of IEEE format for PCD 
....................    data1 = n+0x7F; 
....................    if(bit_test(data1,0)) 
....................    bit_set(*(((unsigned int8 *)(&res)+2)),7); 
....................    rotate_right(&data1,1); 
....................    bit_clear(data1,7); 
....................    *(((unsigned int8 *)(&res)+3)) = data1; 
.................... #endif 
....................  
....................    y = y/LN2 - (float32)n; 
....................  
....................    r = pe[0]*y + pe[1]; 
....................    r = r*y + pe[2]; 
....................    r = r*y + pe[3]; 
....................    r = r*y + pe[4]; 
....................    r = r*y + pe[5]; 
....................  
....................    res = res*(1.0 + y*r); 
....................  
....................    if (s) 
....................       res = 1.0/res; 
....................    return(res); 
.................... } 
....................  
....................  
.................... //Overloaded function for exp() for PCD 
.................... // Overloaded function exp() for data type - Float48 
.................... #if defined(__PCD__) 
.................... float48 exp(float48 x) 
.................... { 
....................    float48 y, res, r; 
....................    int8 data1; 
....................    signed int8 n; 
....................    int1 s; 
....................    #ifdef _ERRNO 
....................    if(x > 88.722838) 
....................    { 
....................       errno=ERANGE; 
....................       return(0); 
....................    } 
....................    #endif 
....................    n = (signed int16)(x/LN2); 
....................    s = 0; 
....................    y = x; 
....................  
....................    if (x < 0) 
....................    { 
....................       s = 1; 
....................       n = -n; 
....................       y = -y; 
....................    } 
....................  
....................    res = 0.0; 
....................  
....................    data1 = n+0x7F; 
....................    if(bit_test(data1,0)) 
....................    bit_set(*(((unsigned int8 *)(&res)+4)),7); 
....................    rotate_right(&data1,1); 
....................    bit_clear(data1,7); 
....................    *(((unsigned int8 *)(&res)+5)) = data1; 
....................  
....................    y = y/LN2 - (float48)n; 
....................  
....................    r = pe[0]*y + pe[1]; 
....................    r = r*y + pe[2]; 
....................    r = r*y + pe[3]; 
....................    r = r*y + pe[4]; 
....................    r = r*y + pe[5]; 
....................  
....................    res = res*(1.0 + y*r); 
....................  
....................    if (s) 
....................       res = 1.0/res; 
....................    return(res); 
.................... } 
....................  
.................... // Overloaded function exp() for data type - Float64 
.................... float64 exp(float64 x) 
.................... { 
....................    float64 y, res, r; 
....................    unsigned int16 data1, data2; 
....................    unsigned int16 *p; 
....................    signed int16 n; 
....................    int1 s; 
....................    #ifdef _ERRNO 
....................    if(x > 709.7827128) 
....................    { 
....................       errno=ERANGE; 
....................       return(0); 
....................    } 
....................    #endif 
....................    n = (signed int16)(x/LN2); 
....................    s = 0; 
....................    y = x; 
....................  
....................    if (x < 0) 
....................    { 
....................       s = 1; 
....................       n = -n; 
....................       y = -y; 
....................    } 
....................  
....................    res = 0.0; 
....................  
.................... #if !defined(__PCD__) 
....................    *((unsigned int16 *)(&res)) = n + 0x7F; 
.................... #endif 
....................    p= (((unsigned int16 *)(&res))+3); 
....................    data1 = *p; 
....................    data2 = *p;    
....................    data1 = n + 0x3FF; 
....................    data1 = data1 <<4; 
....................    if(bit_test(data2,15)) 
....................    bit_set(data1,15); 
....................    data2 = data2 & 0x000F; 
....................    data1 ^= data2; 
....................  
....................    *(((unsigned int16 *)(&res)+3)) = data1; 
....................  
....................  
....................    y = y/LN2 - (float64)n; 
....................  
....................    r = pe[0]*y + pe[1]; 
....................    r = r*y + pe[2]; 
....................    r = r*y + pe[3]; 
....................    r = r*y + pe[4]; 
....................    r = r*y + pe[5]; 
....................  
....................    res = res*(1.0 + y*r); 
....................  
....................    if (s) 
....................       res = 1.0/res; 
....................    return(res); 
.................... } 
....................  
.................... #ENDIF 
....................  
....................  
.................... /************************************************************/ 
....................  
.................... float32 const pl[4] = {0.45145214, -9.0558803, 26.940971, -19.860189}; 
.................... float32 const ql[4] = {1.0000000,  -8.1354259, 16.780517, -9.9300943}; 
....................  
.................... //////////////////////////////////////////////////////////////////////////// 
.................... //   float log(float x) 
.................... //////////////////////////////////////////////////////////////////////////// 
.................... // Description : returns the the natural log of x 
.................... // Date : N/A 
.................... // 
.................... float32 log(float32 x) 
.................... { 
....................    float32 y, res, r, y2; 
....................    #if defined(__PCD__) 
....................    unsigned int8  data1,data2; 
....................    #endif 
....................    signed int8 n; 
....................    #ifdef _ERRNO 
....................    if(x <0) 
....................    { 
....................       errno=EDOM; 
....................    } 
....................    if(x ==0) 
....................    { 
....................       errno=ERANGE; 
....................       return(0); 
....................    } 
....................    #endif 
....................    y = x; 
....................  
....................    if (y != 1.0) 
....................    { 
.................... #if !defined(__PCD__) 
....................     *((unsigned int8 *)(&y)) = 0x7E;  
.................... #endif 
....................  
.................... #if defined(__PCD__) // Takes care of IEEE format 
....................    data2 = *(((unsigned int8 *)(&y))+3); 
....................    *(((unsigned int8 *)(&y))+3) = 0x3F; 
....................    data1 = *(((unsigned int8 *)(&y))+2); 
....................    bit_clear(data1,7); 
....................    *(((unsigned int8 *)(&y))+2) = data1; 
....................    if(bit_test(data2,7)) 
....................    bit_set(*(((unsigned int8 *)(&y))+3),7); 
.................... #endif 
....................  
....................       y = (y - 1.0)/(y + 1.0); 
....................  
....................       y2=y*y; 
....................  
....................       res = pl[0]*y2 + pl[1]; 
....................       res = res*y2 + pl[2]; 
....................       res = res*y2 + pl[3]; 
....................  
....................       r = ql[0]*y2 + ql[1]; 
....................       r = r*y2 + ql[2]; 
....................       r = r*y2 + ql[3]; 
....................  
....................       res = y*res/r; 
.................... #if !defined(__PCD__) 
....................       n = *((unsigned int8 *)(&x)) - 0x7E; 
.................... #endif 
.................... #if defined(__PCD__)  
....................     data1 = *(((unsigned int8 *)(&x)+3)); 
....................     rotate_left(&data1,1); 
....................     data2 = *(((unsigned int8 *)(&x)+2)); 
....................     if(bit_test (data2,7)) 
....................       bit_set(data1,0); 
....................     n = data1 - 0x7E; 
.................... #endif 
....................  
....................       if (n<0)  
....................          r = -(float32)-n; 
....................       else 
....................          r = (float32)n; 
....................  
....................       res += r*LN2; 
....................    } 
....................  
....................    else 
....................       res = 0.0; 
....................  
....................    return(res); 
.................... } 
....................  
.................... //Overloaded function for log() for PCD 
.................... // Overloaded function log() for data type - Float48 
.................... #if defined(__PCD__) 
.................... float48 log(float48 x) 
.................... { 
....................    float48 y, res, r, y2; 
....................    unsigned int8  data1,data2; 
....................    signed int8 n; 
....................    #ifdef _ERRNO 
....................    if(x <0) 
....................    { 
....................       errno=EDOM; 
....................    } 
....................    if(x ==0) 
....................    { 
....................       errno=ERANGE; 
....................       return(0); 
....................    } 
....................    #endif 
....................    y = x; 
....................  
....................    if (y != 1.0) 
....................    { 
....................     
....................    #if !defined(__PCD__) 
....................        *((unsigned int8 *)(&y)) = 0x7E;  
....................    #endif 
....................       data2 = *(((unsigned int8 *)(&y))+5); 
....................       *(((unsigned int8 *)(&y))+5) = 0x3F; 
....................       data1 = *(((unsigned int8 *)(&y))+4); 
....................       bit_clear(data1,7); 
....................       *(((unsigned int8 *)(&y))+4) = data1; 
....................    
....................       if(bit_test(data2,7)) 
....................          bit_set(*(((unsigned int8 *)(&y))+4),7); 
....................       y = (y - 1.0)/(y + 1.0); 
....................  
....................       y2=y*y; 
....................  
....................       res = pl[0]*y2 + pl[1]; 
....................       res = res*y2 + pl[2]; 
....................       res = res*y2 + pl[3]; 
....................  
....................       r = ql[0]*y2 + ql[1]; 
....................       r = r*y2 + ql[2]; 
....................       r = r*y2 + ql[3]; 
....................  
....................       res = y*res/r; 
....................  
....................     data1 = *(((unsigned int8 *)(&x)+5)); 
....................     rotate_left(&data1,1); 
....................     data2 = *(((unsigned int8 *)(&x)+4)); 
....................     if(bit_test (data2,7)) 
....................        bit_set(data1,0); 
....................       
....................     n = data1 - 0x7E; 
....................  
....................       if (n<0) 
....................          r = -(float48)-n; 
....................       else 
....................          r = (float48)n; 
....................  
....................       res += r*LN2; 
....................    } 
....................  
....................    else 
....................       res = 0.0; 
....................  
....................    return(res); 
.................... } 
....................  
.................... // Overloaded function log() for data type - Float48 
.................... #if defined(__PCD__) 
.................... float32 const pl_64[4] = {0.45145214, -9.0558803, 26.940971, -19.860189}; 
.................... float32 const ql_64[4] = {1.0000000,  -8.1354259, 16.780517, -9.9300943}; 
.................... #endif 
.................... float64 log(float64 x) 
.................... { 
....................    float64 y, res, r, y2; 
....................    unsigned int16  data1,data2; 
....................    unsigned int16 *p; 
....................    signed int16 n; 
....................    #ifdef _ERRNO 
....................    if(x <0) 
....................    { 
....................       errno=EDOM; 
....................    } 
....................    if(x ==0) 
....................    { 
....................       errno=ERANGE; 
....................       return(0); 
....................    } 
....................    #endif 
....................    y = x; 
....................  
....................    if (y != 1.0) 
....................    { 
....................    #if !defined(__PCD__) 
....................        *((unsigned int8 *)(&y)) = 0x7E;  
....................    #endif 
....................       p= (((unsigned int16 *)(&y))+3); 
....................       data1 = *p; 
....................       data2 = *p; 
....................       data1 = 0x3FE; 
....................       data1 = data1 <<4; 
....................       if(bit_test (data2,15)) 
....................       bit_set(data1,15); 
....................       data2 = data2 & 0x000F; 
....................       data1 ^=data2; 
....................  
....................       *p = data1; 
....................  
....................       y = (y - 1.0)/(y + 1.0); 
....................  
....................       y2=y*y; 
....................  
....................       res = pl_64[0]*y2 + pl_64[1]; 
....................       res = res*y2 + pl_64[2]; 
....................       res = res*y2 + pl_64[3]; 
....................  
....................       r = ql_64[0]*y2 + ql_64[1]; 
....................       r = r*y2 + ql_64[2]; 
....................       r = r*y2 + ql_64[3]; 
....................  
....................       res = y*res/r; 
....................   
....................       p= (((unsigned int16 *)(&x))+3); 
....................       data1 = *p; 
....................       bit_clear(data1,15); 
....................       data1 = data1 >>4;     
....................       n = data1 - 0x3FE; 
....................  
....................  
....................       if (n<0) 
....................          r = -(float64)-n; 
....................       else 
....................          r = (float64)n; 
....................  
....................       res += r*LN2; 
....................    } 
....................  
....................    else 
....................       res = 0.0; 
....................  
....................    return(res); 
.................... } 
.................... #endif 
....................  
....................  
.................... #define LN10 2.3025850929940456 
....................  
.................... //////////////////////////////////////////////////////////////////////////// 
.................... //   float log10(float x) 
.................... //////////////////////////////////////////////////////////////////////////// 
.................... // Description : returns the the log base 10 of x 
.................... // Date : N/A 
.................... // 
.................... float32 log10(float32 x) 
.................... { 
....................    float32 r; 
....................  
....................    r = log(x); 
....................    r = r/LN10; 
....................    return(r); 
.................... } 
....................  
.................... //Overloaded functions for log10() for PCD 
.................... // Overloaded function log10() for data type - Float48 
.................... #if defined(__PCD__) 
.................... float48 log10(float48 x) 
.................... { 
....................    float48 r; 
....................  
....................    r = log(x); 
....................    r = r/LN10; 
....................    return(r); 
.................... } 
....................  
.................... // Overloaded function log10() for data type - Float64 
.................... float64 log10(float64 x) 
.................... { 
....................    float64 r; 
....................  
....................    r = log(x); 
....................    r = r/LN10; 
....................    return(r); 
.................... } 
.................... #endif 
.................... //////////////////////////////////////////////////////////////////////////// 
.................... //   float modf(float x) 
.................... //////////////////////////////////////////////////////////////////////////// 
.................... // Description :breaks the argument value int integral and fractional parts, 
.................... // ach of which have the same sign as the argument.  It stores the integral part 
.................... // as a float in the object pointed to by the iptr 
.................... // Returns : returns the signed fractional part of value. 
.................... // Date : N/A 
.................... // 
....................  
.................... float32 modf(float32 value,float32 *iptr) 
.................... { 
....................    *iptr=(value < 0.0)? ceil(value): floor(value); 
....................    return(value - *iptr); 
.................... } 
.................... //Overloaded functions for modf() for PCD 
.................... // Overloaded function modf() for data type - Float48 
.................... #if defined(__PCD__) 
.................... float48 modf(float48 value,float48 *iptr) 
.................... { 
....................    *iptr=(value < 0.0)? ceil(value): floor(value); 
....................    return(value - *iptr); 
.................... } 
.................... // Overloaded function modf() for data type - Float64 
.................... float64 modf(float64 value,float64 *iptr) 
.................... { 
....................    *iptr=(value < 0.0)? ceil(value): floor(value); 
....................    return(value - *iptr); 
.................... } 
.................... #endif 
....................  
.................... //////////////////////////////////////////////////////////////////////////// 
.................... //   float pwr(float x,float y) 
.................... //////////////////////////////////////////////////////////////////////////// 
.................... // Description : returns the value (x^y) 
.................... // Date : N/A 
.................... // Note : 0 is returned when the function will generate an imaginary number 
.................... // 
.................... float32 pwr(float32 x,float32 y) 
.................... { 
....................    if(0 > x && fmod(y, 1) == 0) { 
....................       if(fmod(y, 2) == 0) { 
....................          return (exp(log(-x) * y)); 
....................       } else { 
....................          return (-exp(log(-x) * y)); 
....................       } 
....................    } else if(0 > x && fmod(y, 1) != 0) { 
....................       return 0; 
....................    } else { 
....................       if(x != 0 || 0 >= y) { 
....................          return (exp(log(x) * y)); 
....................       } 
....................    } 
.................... } 
.................... //Overloaded functions for pwr() for PCD 
.................... // Overloaded function pwr() for data type - Float48 
.................... #if defined(__PCD__) 
.................... float48 pwr(float48 x,float48 y) 
.................... { 
....................    if(0 > x && fmod(y, 1) == 0) { 
....................       if(fmod(y, 2) == 0) { 
....................          return (exp(log(-x) * y)); 
....................       } else { 
....................          return (-exp(log(-x) * y)); 
....................       } 
....................    } else if(0 > x && fmod(y, 1) != 0) { 
....................       return 0; 
....................    } else { 
....................       if(x != 0 || 0 >= y) { 
....................          return (exp(log(x) * y)); 
....................       } 
....................    } 
.................... } 
.................... // Overloaded function pwr() for data type - Float64 
.................... float64 pwr(float64 x,float64 y) 
.................... { 
....................    if(0 > x && fmod(y, 1) == 0) { 
....................       if(fmod(y, 2) == 0) { 
....................          return (exp(log(-x) * y)); 
....................       } else { 
....................          return (-exp(log(-x) * y)); 
....................       } 
....................    } else if(0 > x && fmod(y, 1) != 0) { 
....................       return 0; 
....................    } else { 
....................       if(x != 0 || 0 >= y) { 
....................          return (exp(log(x) * y)); 
....................       } 
....................    } 
.................... } 
.................... #endif 
....................  
.................... //////////////////// Power functions //////////////////// 
....................  
.................... //////////////////////////////////////////////////////////////////////////// 
.................... //   float pow(float x,float y) 
.................... //////////////////////////////////////////////////////////////////////////// 
.................... // Description : returns the value (x^y) 
.................... // Date : N/A 
.................... // Note : 0 is returned when the function will generate an imaginary number 
.................... // 
.................... float32 pow(float32 x,float32 y) 
.................... { 
....................    if(0 > x && fmod(y, 1) == 0) { 
....................       if(fmod(y, 2) == 0) { 
....................          return (exp(log(-x) * y)); 
....................       } else { 
....................          return (-exp(log(-x) * y)); 
....................       } 
....................    } else if(0 > x && fmod(y, 1) != 0) { 
....................       return 0; 
....................    } else { 
....................       if(x != 0 || 0 >= y) { 
....................          return (exp(log(x) * y)); 
....................       } 
....................    } 
.................... } 
.................... //Overloaded functions for pow() for PCD 
.................... // Overloaded function for pow() data type - Float48 
.................... #if defined(__PCD__) 
.................... float48 pow(float48 x,float48 y) 
.................... { 
....................    if(0 > x && fmod(y, 1) == 0) { 
....................       if(fmod(y, 2) == 0) { 
....................          return (exp(log(-x) * y)); 
....................       } else { 
....................          return (-exp(log(-x) * y)); 
....................       } 
....................    } else if(0 > x && fmod(y, 1) != 0) { 
....................       return 0; 
....................    } else { 
....................       if(x != 0 || 0 >= y) { 
....................          return (exp(log(x) * y)); 
....................       } 
....................    } 
.................... } 
....................  
.................... // Overloaded function pow() for data type - Float64 
.................... float64 pow(float64 x,float64 y) 
.................... { 
....................    if(0 > x && fmod(y, 1) == 0) { 
....................       if(fmod(y, 2) == 0) { 
....................          return (exp(log(-x) * y)); 
....................       } else { 
....................          return (-exp(log(-x) * y)); 
....................       } 
....................    } else if(0 > x && fmod(y, 1) != 0) { 
....................       return 0; 
....................    } else { 
....................       if(x != 0 || 0 >= y) { 
....................          return (exp(log(x) * y)); 
....................       } 
....................    } 
.................... } 
.................... #endif 
....................  
.................... //////////////////////////////////////////////////////////////////////////// 
.................... //   float sqrt(float x) 
.................... //////////////////////////////////////////////////////////////////////////// 
.................... // Description : returns the square root of x 
.................... // Date : N/A 
.................... // 
.................... float32 sqrt(float32 x) 
.................... { 
....................    float32 y, res; 
....................    #if defined(__PCD__) 
....................    unsigned int16 data1,data2; 
....................    #endif 
....................    BYTE *p; 
....................  
....................    #ifdef _ERRNO 
....................    if(x < 0) 
....................    { 
....................       errno=EDOM; 
....................    } 
....................    #endif 
....................  
....................    if( x<=0.0) 
....................       return(0.0); 
....................  
....................    y=x; 
....................     
....................    #if !defined(__PCD__) 
....................     p=&y; 
....................    (*p)=(BYTE)((((unsigned int16)(*p)) + 127) >> 1); 
....................    #endif 
....................     
....................    #if defined(__PCD__) 
....................     p = (((unsigned int8 *)(&y))+3); 
....................     data1 = *(((unsigned int8 *)(&y))+3); 
....................     data2 = *(((unsigned int8 *)(&y))+2); 
....................     rotate_left(&data1,1);     
....................     if(bit_test(data2,7))     
....................     bit_set(data1,0);     
....................     data1 = ((data1+127) >>1); 
....................     bit_clear(data2,7); 
....................     if(bit_test(data1,0)) 
....................     bit_set(data2,7); 
....................     data1 = data1 >>1; 
....................     *(((unsigned int8 *)(&y))+3) = data1; 
....................     *(((unsigned int8 *)(&y))+2) = data2; 
....................      
....................   #endif 
....................  
....................    do { 
....................       res=y; 
....................       y+=(x/y); 
....................  
....................       #if !defined(__PCD__) 
....................      (*p)--; 
....................    #endif 
....................     
....................    #if defined(__PCD__) 
....................     data1 = *(((unsigned int8 *)(&y))+3); 
....................     data2 = *(((unsigned int8 *)(&y))+2); 
....................     rotate_left(&data1,1); 
....................     if(bit_test(data2,7)) 
....................     bit_set(data1,0);     
....................     data1--; 
....................     bit_clear(data2,7); 
....................     if(bit_test(data1,0)) 
....................     bit_set(data2,7); 
....................     data1 = data1 >>1; 
....................     *(((unsigned int8 *)(&y))+3) = data1; 
....................     *(((unsigned int8 *)(&y))+2) = data2; 
....................      
....................   #endif 
....................    } while(res != y); 
....................  
....................    return(res); 
.................... } 
.................... //Overloaded functions for sqrt() for PCD 
.................... // Overloaded function sqrt() for data type - Float48 
.................... #if defined(__PCD__) 
.................... float48 sqrt(float48 x) 
.................... { 
....................    float48 y, res; 
....................    unsigned int16 data1,data2; 
....................    BYTE *p; 
....................  
....................    #ifdef _ERRNO 
....................    if(x < 0) 
....................    { 
....................       errno=EDOM; 
....................    } 
....................    #endif 
....................  
....................    if( x<=0.0) 
....................       return(0.0); 
....................  
....................    y=x; 
....................     
....................    #if !defined(__PCD__) 
....................     p=&y; 
....................    (*p)=(BYTE)((((unsigned int16)(*p)) + 127) >> 1); 
....................    #endif 
....................     
....................    #if defined(__PCD__) 
....................     p = (((unsigned int8 *)(&y))+5); 
....................     data1 = *(((unsigned int8 *)(&y))+5); 
....................     data2 = *(((unsigned int8 *)(&y))+4); 
....................     rotate_left(&data1,1); 
....................     if(bit_test(data2,7)) 
....................     bit_set(data1,0);     
....................     data1 = ((data1+127) >>1); 
....................     bit_clear(data2,7); 
....................     if(bit_test(data1,0)) 
....................     bit_set(data2,7); 
....................     data1 = data1 >>1; 
....................     *(((unsigned int8 *)(&y))+5) = data1; 
....................     *(((unsigned int8 *)(&y))+4) = data2; 
....................      
....................   #endif 
....................  
....................    do { 
....................       res=y; 
....................       y+=(x/y); 
....................  
....................       #if !defined(__PCD__) 
....................      (*p)--; 
....................    #endif 
....................     
....................     data1 = *(((unsigned int8 *)(&y))+5); 
....................     data2 = *(((unsigned int8 *)(&y))+4); 
....................     rotate_left(&data1,1); 
....................     if(bit_test(data2,7)) 
....................     bit_set(data1,0);     
....................     data1--; 
....................     bit_clear(data2,7); 
....................     if(bit_test(data1,0)) 
....................     bit_set(data2,7); 
....................     data1 = data1 >>1; 
....................     *(((unsigned int8 *)(&y))+5) = data1; 
....................     *(((unsigned int8 *)(&y))+4) = data2; 
....................      
....................    } while(res != y); 
....................  
....................    return(res); 
.................... } 
....................  
.................... // Overloaded function sqrt() for data type - Float64 
.................... float64 sqrt(float64 x) 
.................... { 
....................    float64 y, res; 
....................    unsigned int16 *p; 
....................    unsigned int16 temp1,temp2; 
....................  
....................    #ifdef _ERRNO 
....................    if(x < 0) 
....................    { 
....................       errno=EDOM; 
....................    } 
....................    #endif 
....................  
....................    if( x<=0.0) 
....................       return(0.0); 
....................  
....................    y=x; 
....................    p= (((unsigned int16 *)(&y))+3); 
....................    temp1 = *p; 
....................    temp2 = *p; 
....................    bit_clear(temp1,15); 
....................    temp1 = (temp1>>4)+1023; 
....................    temp1 = temp1 >> 1; 
....................    temp1 = (temp1<<4) & 0xFFF0; 
....................    if(bit_test(temp2,15)) 
....................    bit_set(temp1,15); 
....................    temp2 = temp2 & 0x000F; 
....................    temp1 ^= temp2; 
....................     
....................    (*p) = temp1; 
....................     
....................    do { 
....................       res=y; 
....................       y+=(x/y); 
....................      temp1 = *p; 
....................      temp2 = *p; 
....................      bit_clear(temp1,15); 
....................      temp1 = (temp1>>4); 
....................      temp1--; 
....................      temp1 = (temp1<<4) & 0xFFF0; 
....................      if(bit_test(temp2,15)) 
....................      bit_set(temp1,15); 
....................      temp2 = temp2 & 0x000F; 
....................      temp1 ^= temp2; 
....................      (*p) = temp1; 
....................  
....................    } while(res != y); 
....................  
....................    return(res); 
.................... } 
.................... #endif 
....................  
.................... ////////////////////////////// Trig Functions ////////////////////////////// 
.................... #ifdef PI_DIV_BY_TWO 
.................... #undef PI_DIV_BY_TWO 
.................... #endif 
.................... #define PI_DIV_BY_TWO   1.5707963267948966 
.................... #ifdef TWOBYPI 
.................... #undef TWOBYPI 
.................... #define TWOBYPI          0.6366197723675813 
.................... #endif 
.................... //////////////////////////////////////////////////////////////////////////// 
.................... //   float cos(float x) 
.................... //////////////////////////////////////////////////////////////////////////// 
.................... // Description : returns the cosine value of the angle x, which is in radian 
.................... // Date : 9/20/2001 
.................... // 
.................... float32 cos(float32 x) 
.................... { 
....................    float32 y, t, t2 = 1.0; 
....................    unsigned int8 quad, i; 
....................    float32 frac; 
....................    float32 p[6] = {                    //by the series definition for cosine 
....................       -0.5,                            // sum ( ( (-1)^n * x^2n )/(2n)! ) 
....................        0.04166666666667, 
....................       -0.00138888888889, 
....................        0.00002480158730, 
....................       -0.00000027557319, 
....................        0.00000000208767, 
....................       //-0.00000000001147, 
....................       // 0.00000000000005 
....................    }; 
....................  
....................    if (x < 0) x = -x;                  // absolute value of input 
....................  
....................    quad = (unsigned int8)(x / PI_DIV_BY_TWO);    // quadrant 
....................    frac = (x / PI_DIV_BY_TWO) - quad;  // fractional part of input 
....................    quad = quad % 4;                    // quadrant (0 to 3) 
....................  
....................    if (quad == 0 || quad == 2) 
....................       t = frac * PI_DIV_BY_TWO; 
....................    else if (quad == 1) 
....................       t = (1-frac) * PI_DIV_BY_TWO; 
....................    else // should be 3 
....................       t = (frac-1) * PI_DIV_BY_TWO; 
....................  
....................    y = 1.0; 
....................    t = t * t; 
....................    for (i = 0; i <= 5; i++) 
....................    { 
....................       t2 = t2 * t; 
....................       y = y + p[i] * t2; 
....................    } 
....................  
....................    if (quad == 2 || quad == 1) 
....................       y = -y;  // correct sign 
....................  
....................    return (y); 
.................... } 
....................  
....................  
.................... //Overloaded functions for cos() for PCD 
.................... // Overloaded function cos() for data type - Float48 
.................... #if defined(__PCD__) 
.................... float48 cos(float48 x) 
.................... { 
....................    float48 y, t, t2 = 1.0; 
....................    unsigned int8 quad, i; 
....................    float48 frac; 
....................    float48 p[6] = {                    //by the series definition for cosine 
....................       -0.5,                            // sum ( ( (-1)^n * x^2n )/(2n)! ) 
....................        0.04166666666667, 
....................       -0.00138888888889, 
....................        0.00002480158730, 
....................       -0.00000027557319, 
....................        0.00000000208767, 
....................       //-0.00000000001147, 
....................       // 0.00000000000005 
....................    }; 
....................  
....................    if (x < 0) x = -x;                  // absolute value of input 
....................  
....................    quad = (unsigned int8)(x / PI_DIV_BY_TWO);    // quadrant 
....................    frac = (x / PI_DIV_BY_TWO) - quad;  // fractional part of input 
....................    quad = quad % 4;                    // quadrant (0 to 3) 
....................  
....................    if (quad == 0 || quad == 2) 
....................       t = frac * PI_DIV_BY_TWO; 
....................    else if (quad == 1) 
....................       t = (1-frac) * PI_DIV_BY_TWO; 
....................    else // should be 3 
....................       t = (frac-1) * PI_DIV_BY_TWO; 
....................  
....................    y = 0.999999999781; 
....................    t = t * t; 
....................    for (i = 0; i <= 5; i++) 
....................    { 
....................       t2 = t2 * t; 
....................       y = y + p[i] * t2; 
....................    } 
....................  
....................    if (quad == 2 || quad == 1) 
....................       y = -y;  // correct sign 
....................  
....................    return (y); 
.................... } 
....................  
.................... // Overloaded function cos() for data type - Float48 
.................... float64 cos(float64 x) 
.................... { 
....................    float64 y, t, t2 = 1.0; 
....................    unsigned int8 quad, i; 
....................    float64 frac; 
....................    float64 p[6] = {                    //by the series definition for cosine 
....................       -0.5,                            // sum ( ( (-1)^n * x^2n )/(2n)! ) 
....................        0.04166666666667, 
....................       -0.00138888888889, 
....................        0.00002480158730, 
....................       -0.00000027557319, 
....................        0.00000000208767, 
....................       //-0.00000000001147, 
....................       // 0.00000000000005 
....................    }; 
....................  
....................    if (x < 0) x = -x;                  // absolute value of input 
....................  
....................    quad = (unsigned int8)(x / PI_DIV_BY_TWO);    // quadrant 
....................    frac = (x / PI_DIV_BY_TWO) - quad;  // fractional part of input 
....................    quad = quad % 4;                    // quadrant (0 to 3) 
....................  
....................    if (quad == 0 || quad == 2) 
....................       t = frac * PI_DIV_BY_TWO; 
....................    else if (quad == 1) 
....................       t = (1-frac) * PI_DIV_BY_TWO; 
....................    else // should be 3 
....................       t = (frac-1) * PI_DIV_BY_TWO; 
....................  
....................    y = 0.999999999781; 
....................    t = t * t; 
....................    for (i = 0; i <= 5; i++) 
....................    { 
....................       t2 = t2 * t; 
....................       y = y + p[i] * t2; 
....................    } 
....................  
....................    if (quad == 2 || quad == 1) 
....................       y = -y;  // correct sign 
....................  
....................    return (y); 
.................... } 
....................  
.................... #endif 
....................  
.................... //////////////////////////////////////////////////////////////////////////// 
.................... //   float sin(float x) 
.................... //////////////////////////////////////////////////////////////////////////// 
.................... // Description : returns the sine value of the angle x, which is in radian 
.................... // Date : 9/20/2001 
.................... // 
.................... float32 sin(float32 x) 
.................... { 
....................    return cos(x - PI_DIV_BY_TWO); 
.................... } 
....................  
.................... //Overloaded functions for sin() for PCD 
.................... // Overloaded function sin() for data type - Float48 
.................... #if defined(__PCD__) 
.................... float48 sin(float48 x) 
.................... { 
....................    return cos(x - PI_DIV_BY_TWO); 
.................... } 
....................  
.................... // Overloaded function sin() for data type - Float48 
.................... float64 sin(float64 x) 
.................... { 
....................    return cos(x - PI_DIV_BY_TWO); 
.................... } 
.................... #endif 
....................  
.................... //////////////////////////////////////////////////////////////////////////// 
.................... //   float tan(float x) 
.................... //////////////////////////////////////////////////////////////////////////// 
.................... // Description : returns the tangent value of the angle x, which is in radian 
.................... // Date : 9/20/2001 
.................... // 
.................... float32 tan(float32 x) 
.................... { 
....................    float32 c, s; 
....................  
....................    c = cos(x); 
....................    if (c == 0.0) 
....................       return (1.0e+36); 
....................  
....................    s = sin(x); 
....................    return(s/c); 
.................... } 
.................... //Overloaded functions for tan() for PCD 
.................... // Overloaded function tan() for data type - Float48 
.................... #if defined(__PCD__) 
.................... float48 tan(float48 x) 
.................... { 
....................    float48 c, s; 
....................  
....................    c = cos(x); 
....................    if (c == 0.0) 
....................       return (1.0e+36); 
....................  
....................    s = sin(x); 
....................    return(s/c); 
.................... } 
....................  
.................... // Overloaded function tan() for data type - Float48 
.................... float64 tan(float64 x) 
.................... { 
....................    float64 c, s; 
....................  
....................    c = cos(x); 
....................    if (c == 0.0) 
....................       return (1.0e+36); 
....................  
....................    s = sin(x); 
....................    return(s/c); 
.................... } 
.................... #endif 
....................  
.................... float32 const pas[3] = {0.49559947, -4.6145309, 5.6036290}; 
.................... float32 const qas[3] = {1.0000000,  -5.5484666, 5.6036290}; 
....................  
.................... float32 ASIN_COS(float32 x, unsigned int8 n) 
.................... { 
....................    float32 y, res, r, y2; 
....................    int1 s; 
....................    #ifdef _ERRNO 
....................    if(x <-1 || x > 1) 
....................    { 
....................       errno=EDOM; 
....................    } 
....................    #endif 
....................    s = 0; 
....................    y = x; 
....................  
....................    if (x < 0) 
....................    { 
....................       s = 1; 
....................       y = -y; 
....................    } 
....................  
....................    if (y > 0.5) 
....................    { 
....................       y = sqrt((1.0 - y)/2.0); 
....................       n += 2; 
....................    } 
....................  
....................    y2=y*y; 
....................  
....................    res = pas[0]*y2 + pas[1]; 
....................    res = res*y2 + pas[2]; 
....................  
....................    r = qas[0]*y2 + qas[1]; 
....................    r = r*y2 + qas[2]; 
....................  
....................    res = y*res/r; 
....................  
....................    if (n & 2)     // |x| > 0.5 
....................       res = PI_DIV_BY_TWO - 2.0*res; 
....................    if (s) 
....................       res = -res; 
....................    if (n & 1)           // take arccos 
....................       res = PI_DIV_BY_TWO - res; 
....................  
....................    return(res); 
.................... } 
....................  
.................... //Overloaded functions for ASIN_COS() for PCD 
.................... // Overloaded function ASIN_COS() for data type - Float48 
.................... #if defined(__PCD__) 
.................... float48 ASIN_COS(float48 x, unsigned int8 n) 
.................... { 
....................    float48 y, res, r, y2; 
....................    int1 s; 
....................    #ifdef _ERRNO 
....................    if(x <-1 || x > 1) 
....................    { 
....................       errno=EDOM; 
....................    } 
....................    #endif 
....................    s = 0; 
....................    y = x; 
....................  
....................    if (x < 0) 
....................    { 
....................       s = 1; 
....................       y = -y; 
....................    } 
....................  
....................    if (y > 0.5) 
....................    { 
....................       y = sqrt((1.0 - y)/2.0); 
....................       n += 2; 
....................    } 
....................  
....................    y2=y*y; 
....................  
....................    res = pas[0]*y2 + pas[1]; 
....................    res = res*y2 + pas[2]; 
....................  
....................    r = qas[0]*y2 + qas[1]; 
....................    r = r*y2 + qas[2]; 
....................  
....................    res = y*res/r; 
....................  
....................    if (n & 2)     // |x| > 0.5 
....................       res = PI_DIV_BY_TWO - 2.0*res; 
....................    if (s) 
....................       res = -res; 
....................    if (n & 1)           // take arccos 
....................       res = PI_DIV_BY_TWO - res; 
....................  
....................    return(res); 
.................... } 
....................  
.................... // Overloaded function ASIN_COS() for data type - Float64 
.................... float64 ASIN_COS(float64 x, unsigned int8 n) 
.................... { 
....................    float64 y, res, r, y2; 
....................    int1 s; 
....................    #ifdef _ERRNO 
....................    if(x <-1 || x > 1) 
....................    { 
....................       errno=EDOM; 
....................    } 
....................    #endif 
....................    s = 0; 
....................    y = x; 
....................  
....................    if (x < 0) 
....................    { 
....................       s = 1; 
....................       y = -y; 
....................    } 
....................  
....................    if (y > 0.5) 
....................    { 
....................       y = sqrt((1.0 - y)/2.0); 
....................       n += 2; 
....................    } 
....................  
....................    y2=y*y; 
....................  
....................    res = pas[0]*y2 + pas[1]; 
....................    res = res*y2 + pas[2]; 
....................  
....................    r = qas[0]*y2 + qas[1]; 
....................    r = r*y2 + qas[2]; 
....................  
....................    res = y*res/r; 
....................  
....................    if (n & 2)     // |x| > 0.5 
....................       res = PI_DIV_BY_TWO - 2.0*res; 
....................    if (s) 
....................       res = -res; 
....................    if (n & 1)           // take arccos 
....................       res = PI_DIV_BY_TWO - res; 
....................  
....................    return(res); 
.................... } 
.................... #endif 
....................  
.................... //////////////////////////////////////////////////////////////////////////// 
.................... //   float asin(float x) 
.................... //////////////////////////////////////////////////////////////////////////// 
.................... // Description : returns the arcsine value of the value x. 
.................... // Date : N/A 
.................... // 
.................... float32 asin(float32 x) 
.................... { 
....................    float32 r; 
....................  
....................    r = ASIN_COS(x, 0); 
....................    return(r); 
.................... } 
.................... //Overloaded functions for asin() for PCD 
.................... // Overloaded function asin() for data type - Float48 
.................... #if defined(__PCD__) 
.................... float48 asin(float48 x) 
.................... { 
....................    float48 r; 
....................  
....................    r = ASIN_COS(x, 0); 
....................    return(r); 
.................... } 
....................  
.................... // Overloaded function asin() for data type - Float64 
.................... float64 asin(float64 x) 
.................... { 
....................    float64 r; 
....................  
....................    r = ASIN_COS(x, 0); 
....................    return(r); 
.................... } 
.................... #endif 
....................  
.................... //////////////////////////////////////////////////////////////////////////// 
.................... //   float acos(float x) 
.................... //////////////////////////////////////////////////////////////////////////// 
.................... // Description : returns the arccosine value of the value x. 
.................... // Date : N/A 
.................... // 
.................... float32 acos(float32 x) 
.................... { 
....................    float32 r; 
....................  
....................    r = ASIN_COS(x, 1); 
....................    return(r); 
.................... } 
.................... //Overloaded functions for acos() for PCD 
.................... // Overloaded function acos() for data type - Float48 
.................... #if defined(__PCD__) 
.................... float48 acos(float48 x) 
.................... { 
....................    float48 r; 
....................  
....................    r = ASIN_COS(x, 1); 
....................    return(r); 
.................... } 
....................  
.................... // Overloaded function acos() for data type - Float64 
.................... float64 acos(float64 x) 
.................... { 
....................    float64 r; 
....................  
....................    r = ASIN_COS(x, 1); 
....................    return(r); 
.................... } 
.................... #endif 
....................  
.................... float32 const pat[4] = {0.17630401, 5.6710795, 22.376096, 19.818457}; 
.................... float32 const qat[4] = {1.0000000,  11.368190, 28.982246, 19.818457}; 
....................  
.................... //////////////////////////////////////////////////////////////////////////// 
.................... //   float atan(float x) 
.................... //////////////////////////////////////////////////////////////////////////// 
.................... // Description : returns the arctangent value of the value x. 
.................... // Date : N/A 
.................... // 
.................... float32 atan(float32 x) 
.................... { 
....................    float32 y, res, r; 
....................    int1 s, flag; 
....................  
....................    s = 0; 
....................    flag = 0; 
....................    y = x; 
....................  
....................    if (x < 0) 
....................    { 
....................       s = 1; 
....................       y = -y; 
....................    } 
....................  
....................    if (y > 1.0) 
....................    { 
....................       y = 1.0/y; 
....................       flag = 1; 
....................    } 
....................  
....................    res = pat[0]*y*y + pat[1]; 
....................    res = res*y*y + pat[2]; 
....................    res = res*y*y + pat[3]; 
....................  
....................    r = qat[0]*y*y + qat[1]; 
....................    r = r*y*y + qat[2]; 
....................    r = r*y*y + qat[3]; 
....................  
....................    res = y*res/r; 
....................  
....................  
....................    if (flag)                              // for |x| > 1 
....................       res = PI_DIV_BY_TWO - res; 
....................    if (s) 
....................       res = -res; 
....................  
....................    return(res); 
.................... } 
.................... //Overloaded functions for atan() for PCD 
.................... // Overloaded function atan() for data type - Float48 
.................... #if defined(__PCD__) 
.................... float48 atan(float48 x) 
.................... { 
....................    float48 y, res, r; 
....................    int1 s, flag; 
....................  
....................    s = 0; 
....................    flag = 0; 
....................    y = x; 
....................  
....................    if (x < 0) 
....................    { 
....................       s = 1; 
....................       y = -y; 
....................    } 
....................  
....................    if (y > 1.0) 
....................    { 
....................       y = 1.0/y; 
....................       flag = 1; 
....................    } 
....................  
....................    res = pat[0]*y*y + pat[1]; 
....................    res = res*y*y + pat[2]; 
....................    res = res*y*y + pat[3]; 
....................  
....................    r = qat[0]*y*y + qat[1]; 
....................    r = r*y*y + qat[2]; 
....................    r = r*y*y + qat[3]; 
....................  
....................    res = y*res/r; 
....................  
....................  
....................    if (flag)                              // for |x| > 1 
....................       res = PI_DIV_BY_TWO - res; 
....................    if (s) 
....................       res = -res; 
....................  
....................    return(res); 
.................... } 
....................  
.................... // Overloaded function atan() for data type - Float64 
.................... float64 atan(float64 x) 
.................... { 
....................    float64 y, res, r; 
....................    int1 s, flag; 
....................  
....................    s = 0; 
....................    flag = 0; 
....................    y = x; 
....................  
....................    if (x < 0) 
....................    { 
....................       s = 1; 
....................       y = -y; 
....................    } 
....................  
....................    if (y > 1.0) 
....................    { 
....................       y = 1.0/y; 
....................       flag = 1; 
....................    } 
....................  
....................    res = pat[0]*y*y + pat[1]; 
....................    res = res*y*y + pat[2]; 
....................    res = res*y*y + pat[3]; 
....................  
....................    r = qat[0]*y*y + qat[1]; 
....................    r = r*y*y + qat[2]; 
....................    r = r*y*y + qat[3]; 
....................  
....................    res = y*res/r; 
....................  
....................  
....................    if (flag)                              // for |x| > 1 
....................       res = PI_DIV_BY_TWO - res; 
....................    if (s) 
....................       res = -res; 
....................  
....................    return(res); 
.................... } 
.................... #endif 
....................  
.................... ///////////////////////////////////////////////////////////////////////////// 
.................... //   float atan2(float y, float x) 
.................... ///////////////////////////////////////////////////////////////////////////// 
.................... // Description :computes the principal value of arc tangent of y/x, using the 
.................... // signs of both the arguments to determine the quadrant of the return value 
.................... // Returns : returns the arc tangent of y/x. 
.................... // Date : N/A 
.................... // 
....................  
.................... float32 atan2(float32 y,float32 x) 
.................... { 
....................    float32 z; 
....................    int1 sign; 
....................    unsigned int8 quad; 
....................    sign=0; 
....................    quad=0; //quadrant 
....................    quad=((y<=0.0)?((x<=0.0)?3:4):((x<0.0)?2:1)); 
....................    if(y<0.0) 
....................    { 
....................       sign=1; 
....................       y=-y; 
....................    } 
....................    if(x<0.0) 
....................    { 
....................       x=-x; 
....................    } 
....................    if (x==0.0) 
....................    { 
....................       if(y==0.0) 
....................       { 
....................       #ifdef _ERRNO 
....................       { 
....................          errno=EDOM; 
....................       } 
....................       #endif 
....................       } 
....................       else 
....................       { 
....................          if(sign) 
....................          { 
....................          return (-(PI_DIV_BY_TWO)); 
....................          } 
....................          else 
....................          { 
....................          return (PI_DIV_BY_TWO); 
....................          } 
....................       } 
....................    } 
....................    else 
....................    { 
....................       z=y/x; 
....................       switch(quad) 
....................       { 
....................          case 1: 
....................          { 
....................             return atan(z); 
....................             break; 
....................          } 
....................          case 2: 
....................          { 
.................... //            return (atan(z)+PI_DIV_BY_TWO);  //2L3122 
....................             return (PI-atan(z)); 
....................             break; 
....................          } 
....................          case 3: 
....................          { 
....................             return (atan(z)-PI); 
....................             break; 
....................          } 
....................          case 4: 
....................          { 
....................             return (-atan(z)); 
....................             break; 
....................          } 
....................       } 
....................    } 
.................... } 
....................  
.................... //Overloaded functions for atan2() for PCD 
.................... // Overloaded function atan2() for data type - Float48 
.................... #if defined(__PCD__) 
.................... float48 atan2(float48 y,float48 x) 
.................... { 
....................    float48 z; 
....................    int1 sign; 
....................    unsigned int8 quad; 
....................    sign=0; 
....................    quad=0; //quadrant 
....................    quad=((y<=0.0)?((x<=0.0)?3:4):((x<0.0)?2:1)); 
....................    if(y<0.0) 
....................    { 
....................       sign=1; 
....................       y=-y; 
....................    } 
....................    if(x<0.0) 
....................    { 
....................       x=-x; 
....................    } 
....................    if (x==0.0) 
....................    { 
....................       if(y==0.0) 
....................       { 
....................       #ifdef _ERRNO 
....................       { 
....................          errno=EDOM; 
....................       } 
....................       #endif 
....................       } 
....................       else 
....................       { 
....................          if(sign) 
....................          { 
....................          return (-(PI_DIV_BY_TWO)); 
....................          } 
....................          else 
....................          { 
....................          return (PI_DIV_BY_TWO); 
....................          } 
....................       } 
....................    } 
....................    else 
....................    { 
....................       z=y/x; 
....................       switch(quad) 
....................       { 
....................          case 1: 
....................          { 
....................             return atan(z); 
....................             break; 
....................          } 
....................          case 2: 
....................          { 
.................... //            return (atan(z)+PI_DIV_BY_TWO);  //2L3122 
....................             return (PI-atan(z)); 
....................             break; 
....................          } 
....................          case 3: 
....................          { 
....................             return (atan(z)-PI); 
....................             break; 
....................          } 
....................          case 4: 
....................          { 
....................             return (-atan(z)); 
....................             break; 
....................          } 
....................       } 
....................    } 
.................... } 
....................  
.................... // Overloaded function atan2() for data type - Float64 
.................... float64 atan2(float64 y,float64 x) 
.................... { 
....................    float64 z; 
....................    int1 sign; 
....................    unsigned int8 quad; 
....................    sign=0; 
....................    quad=0; //quadrant 
....................    quad=((y<=0.0)?((x<=0.0)?3:4):((x<0.0)?2:1)); 
....................    if(y<0.0) 
....................    { 
....................       sign=1; 
....................       y=-y; 
....................    } 
....................    if(x<0.0) 
....................    { 
....................       x=-x; 
....................    } 
....................    if (x==0.0) 
....................    { 
....................       if(y==0.0) 
....................       { 
....................       #ifdef _ERRNO 
....................       { 
....................          errno=EDOM; 
....................       } 
....................       #endif 
....................       } 
....................       else 
....................       { 
....................          if(sign) 
....................          { 
....................          return (-(PI_DIV_BY_TWO)); 
....................          } 
....................          else 
....................          { 
....................          return (PI_DIV_BY_TWO); 
....................          } 
....................       } 
....................    } 
....................    else 
....................    { 
....................       z=y/x; 
....................       switch(quad) 
....................       { 
....................          case 1: 
....................          { 
....................             return atan(z); 
....................             break; 
....................          } 
....................          case 2: 
....................          { 
.................... //            return (atan(z)+PI_DIV_BY_TWO);  //2L3122 
....................             return (PI-atan(z)); 
....................             break; 
....................          } 
....................          case 3: 
....................          { 
....................             return (atan(z)-PI); 
....................             break; 
....................          } 
....................          case 4: 
....................          { 
....................             return (-atan(z)); 
....................             break; 
....................          } 
....................       } 
....................    } 
.................... } 
.................... #endif 
....................  
.................... //////////////////// Hyperbolic functions //////////////////// 
....................  
.................... //////////////////////////////////////////////////////////////////////////// 
.................... //   float cosh(float x) 
.................... //////////////////////////////////////////////////////////////////////////// 
.................... // Description : Computes the hyperbolic cosine value of x 
.................... // Returns : returns the hyperbolic cosine value of x 
.................... // Date : N/A 
.................... // 
....................  
.................... float32 cosh(float32 x) 
.................... { 
....................    return ((exp(x)+exp(-x))/2); 
.................... } 
.................... //Overloaded functions for cosh() for PCD 
.................... // Overloaded function cosh() for data type - Float48 
.................... #if defined(__PCD__) 
.................... float48 cosh(float48 x) 
.................... { 
....................    return ((exp(x)+exp(-x))/2); 
.................... } 
....................  
.................... // Overloaded function cosh() for data type - Float64 
.................... float64 cosh(float64 x) 
.................... { 
....................    return ((exp(x)+exp(-x))/2); 
.................... } 
.................... #endif 
....................  
.................... //////////////////////////////////////////////////////////////////////////// 
.................... //   float sinh(float x) 
.................... //////////////////////////////////////////////////////////////////////////// 
.................... // Description : Computes the hyperbolic sine value of x 
.................... // Returns : returns the hyperbolic sine value of x 
.................... // Date : N/A 
.................... // 
....................  
.................... float32 sinh(float32 x) 
.................... { 
....................  
....................    return ((exp(x) - exp(-x))/2); 
.................... } 
.................... //Overloaded functions for sinh() for PCD 
.................... // Overloaded function sinh() for data type - Float48 
.................... #if defined(__PCD__) 
.................... float48 sinh(float48 x) 
.................... { 
....................  
....................    return ((exp(x) - exp(-x))/2); 
.................... } 
....................  
.................... // Overloaded function sinh() for data type - Float48 
.................... float64 sinh(float64 x) 
.................... { 
....................  
....................    return ((exp(x) - exp(-x))/2); 
.................... } 
.................... #endif 
....................  
.................... //////////////////////////////////////////////////////////////////////////// 
.................... //   float tanh(float x) 
.................... //////////////////////////////////////////////////////////////////////////// 
.................... // Description : Computes the hyperbolic tangent value of x 
.................... // Returns : returns the hyperbolic tangent value of x 
.................... // Date : N/A 
.................... // 
....................  
.................... float32 tanh(float32 x) 
.................... { 
....................    return(sinh(x)/cosh(x)); 
.................... } 
.................... //Overloaded functions for tanh() for PCD 
.................... // Overloaded function tanh() for data type - Float48 
.................... #if defined(__PCD__) 
.................... float48 tanh(float48 x) 
.................... { 
....................    return(sinh(x)/cosh(x)); 
.................... } 
....................  
.................... // Overloaded function tanh() for data type - Float64 
.................... float64 tanh(float64 x) 
.................... { 
....................    return(sinh(x)/cosh(x)); 
.................... } 
.................... #endif 
....................  
.................... //////////////////////////////////////////////////////////////////////////// 
.................... //   float frexp(float x, signed int *exp) 
.................... //////////////////////////////////////////////////////////////////////////// 
.................... // Description : breaks a floating point number into a normalized fraction and an integral 
.................... // power of 2. It stores the integer in the signed int object pointed to by exp. 
.................... // Returns : returns the value x, such that x is a double with magnitude in the interval 
.................... // [1/2,1) or zero, and value equals x times 2 raised to the power *exp.If value is zero, 
.................... // both parts of the result are zero. 
.................... // Date : N/A 
.................... // 
....................  
.................... #define LOG2 .30102999566398119521 
.................... float32 frexp(float32 x, signed int8 *exp) 
.................... { 
....................    float32 res; 
....................    int1 sign = 0; 
....................    if(x == 0.0) 
....................    { 
....................       *exp=0; 
....................       return (0.0); 
....................    } 
....................    if(x < 0.0) 
....................    { 
....................      x=-x; 
....................      sign=1; 
....................    } 
....................    if (x > 1.0) 
....................    { 
....................       *exp=(ceil(log10(x)/LOG2)); 
....................       res=x/(pow(2, *exp)); 
....................       if (res == 1) 
....................       { 
....................          *exp=*exp+1; 
....................           res=.5; 
....................       } 
....................    } 
....................    else 
....................    { 
....................       if(x < 0.5) 
....................       { 
....................          *exp=-1; 
....................          res=x*2; 
....................       } 
....................       else 
....................       { 
....................          *exp=0; 
....................           res=x; 
....................       } 
....................    } 
....................    if(sign) 
....................    { 
....................       res=-res; 
....................    } 
....................    return res; 
.................... } 
....................  
.................... //Overloaded functions for frexp() for PCD 
.................... // Overloaded function frexp() for data type - Float48 
.................... #if defined(__PCD__) 
.................... float48 frexp(float48 x, signed int8 *exp) 
.................... { 
....................    float48 res; 
....................    int1 sign = 0; 
....................    if(x == 0.0) 
....................    { 
....................       *exp=0; 
....................       return (0.0); 
....................    } 
....................    if(x < 0.0) 
....................    { 
....................      x=-x; 
....................      sign=1; 
....................    } 
....................    if (x > 1.0) 
....................    { 
....................       *exp=(ceil(log10(x)/LOG2)); 
....................       res=x/(pow(2, *exp)); 
....................       if (res == 1) 
....................       { 
....................          *exp=*exp+1; 
....................           res=.5; 
....................       } 
....................    } 
....................    else 
....................    { 
....................       if(x < 0.5) 
....................       { 
....................          *exp=-1; 
....................          res=x*2; 
....................       } 
....................       else 
....................       { 
....................          *exp=0; 
....................           res=x; 
....................       } 
....................    } 
....................    if(sign) 
....................    { 
....................       res=-res; 
....................    } 
....................    return res; 
.................... } 
....................  
.................... // Overloaded function frexp() for data type - Float64 
.................... float64 frexp(float64 x, signed int8 *exp) 
.................... { 
....................    float64 res; 
....................    int1 sign = 0; 
....................    if(x == 0.0) 
....................    { 
....................       *exp=0; 
....................       return (0.0); 
....................    } 
....................    if(x < 0.0) 
....................    { 
....................      x=-x; 
....................      sign=1; 
....................    } 
....................    if (x > 1.0) 
....................    { 
....................       *exp=(ceil(log10(x)/LOG2)); 
....................       res=x/(pow(2, *exp)); 
....................       if (res == 1) 
....................       { 
....................          *exp=*exp+1; 
....................           res=.5; 
....................       } 
....................    } 
....................    else 
....................    { 
....................       if(x < 0.5) 
....................       { 
....................          *exp=-1; 
....................          res=x*2; 
....................       } 
....................       else 
....................       { 
....................          *exp=0; 
....................           res=x; 
....................       } 
....................    } 
....................    if(sign) 
....................    { 
....................       res=-res; 
....................    } 
....................    return res; 
.................... } 
.................... #endif 
....................  
.................... ////////////////////////////////////////////////////////////////////////////// 
.................... //   float ldexp(float x, signed int *exp) 
.................... ////////////////////////////////////////////////////////////////////////////// 
.................... // Description : multiplies a floating point number by an integral power of 2. 
.................... // Returns : returns the value of x times 2 raised to the power exp. 
.................... // Date : N/A 
.................... // 
....................  
.................... float32 ldexp(float32 value, signed int8 exp) 
.................... { 
....................    return (value * pow(2,exp)); 
.................... } 
.................... //Overloaded functions for ldexp() for PCD 
.................... // Overloaded function ldexp() for data type - Float48 
....................  
.................... #if defined(__PCD__) 
.................... float48 ldexp(float48 value, signed int8 exp) 
.................... { 
....................    return (value * pow(2,exp)); 
.................... } 
.................... // Overloaded function ldexp() for data type - Float64 
.................... float64 ldexp(float64 value, signed int8 exp) 
.................... { 
....................    return (value * pow(2,exp)); 
.................... } 
.................... #endif 
....................  
.................... #endif 
....................  
....................  
.................... #define SPI_MODE_0  (SPI_L_TO_H | SPI_XMIT_L_TO_H)  
.................... #define SPI_MODE_1  (SPI_L_TO_H)  
.................... #define SPI_MODE_2  (SPI_H_TO_L)  
.................... #define SPI_MODE_3  (SPI_H_TO_L | SPI_XMIT_L_TO_H)  
.................... #define SS PIN_C0  
....................  
.................... // Definicin de teclado - NO 
.................... #define   UP               !input(PIN_A5) 
.................... #define   DOWN             !input(PIN_E0) 
.................... #define   RIGHT            !input(PIN_E1) 
.................... #define   LEFT             !input(PIN_E2) 
....................  
.................... #define   DOOR             input(PIN_A4) 
.................... #define   TERM             input(PIN_A3) 
....................  
.................... #define   Resistencia_on   output_bit(PIN_C0,1) 
.................... #define   Resistencia_off  output_bit(PIN_C0,0) 
.................... #define   Buzz_on          output_bit(PIN_C7,1) 
.................... #define   Buzz_off         output_bit(PIN_C7,0) 
....................  
.................... float promedio[90]={0.0,0.0,0.0,0.0,0.0,0.0,0.0,0.0,0.0,0.0,0.0,0.0,0.0,0.0,0.0,0.0,0.0,0.0,0.0,0.0,0.0,0.0,0.0,0.0,0.0,0.0,0.0,0.0,0.0,0.0,0.0,0.0,0.0,0.0,0.0,0.0,0.0,0.0,0.0,0.0,0.0,0.0,0.0,0.0,0.0,0.0,0.0,0.0,0.0,0.0,0.0,0.0,0.0,0.0,0.0,0.0,0.0,0.0,0.0,0.0,0.0,0.0,0.0,0.0,0.0,0.0,0.0,0.0,0.0,0.0,0.0,0.0,0.0,0.0}; 
.................... float X[2]={0.0,0.0}; 
.................... short flagup=0,flagdn=0,Desconectado=0; 
.................... int8 h=0,l=0,Ajuste=0,Ajusten=0,MediaMovil=10,tiemporecta=0,flag_ganancia=0,Lectura2=0,tiempoup=0,tiempodn=0,Segmentos=0,Segmento=0,Modo=5; 
.................... short Flanco=0,Flanco1=0,Flanco2=0,visual=1,Lectura=0,flag_calcula=0; 
.................... short flag_clear2=0,flag_tiempocalentamiento=0,flag_display=0,flag_setpoint=0,Dibuja=0; 
.................... int8 y=0,tiemporeset=0,Programa=1,Control=0; 
.................... int8 Menu=0, unidad=1,i=0,j=1,Pausa=0,Pausa_ant=0,TiempoControl=0; 
.................... int8 Opcion=1,tiempo_esterilizacion=0,ProgramaSeleccionado=0,Alarma=10; 
.................... int16 tiempos=0,tiempos3=0,tiempoctrl=0,tinicio=0,tiempocalentamiento=0,tiemposetpoint=0,Tp=0,Tc=0; 
.................... float PendienteMinutos=0,TempeInicial=20,Tiempo=0,TiempoActual=0,PendienteActual=0,HorasActual=0,MinutosActual=0,TiempoRampa=0; 
.................... float Potencia=0.0,PotenciaEntregada=0.0; 
.................... signed int  Testerilizacion[4]={0,0,0,0};   // Tiempo transcurrido 
.................... signed int  Testerilizacionp[4]={0,0,0,0};   // Tiempo transcurrido 
.................... signed int  Contrasena[4]={0,0,0,0};      // Contrasena de 4 digitos 
.................... signed int  Password[4]={0,0,0,0};        // Contrasena Almacenada de 4 digitos 
.................... float V0=0.0,Tciclo=10.0,Tpulso=0.0,error=0.0,Prom=0.0,Temperature=0.0,tmp=0.0,Ganancia=3.0,desvio=3.0,Coeficiente=150.0,AlTem=20.0,resistencia=240.0; 
.................... float Aumento=0.0,Temperatura=0.0,Pendiente=0.0,DifPendiente=0.0,Setpoint=0,Integral=0,Derivativo=0,m=0,b=0,adcSup=0,adcInf=0,Tsup=1250,Tinf=0,penMufla=50; 
.................... float TemperaturaIdeal=0,penInicial=0; 
.................... signed int16 Temperatura1[50]; 
.................... signed int16 Horas1[50]; 
.................... signed int16 Minutos1[50]; 
....................  
.................... #include <Funciones.h> 
.................... //Funciones utilizadas en la Mufla 
....................  
.................... typedef struct{ 
....................    char Letra[30]; 
.................... }MENUU; 
....................  
.................... MENUU Menus; 
....................  
.................... void ActualizaRecta(){ 
....................    X[y]=Temperatura; 
*
04BBC:  MOVLB  5
04BBE:  MOVF   x96,W
04BC0:  MULLW  04
04BC2:  MOVF   FF3,W
04BC4:  CLRF   03
04BC6:  ADDLW  7F
04BC8:  MOVWF  FE9
04BCA:  MOVLW  05
04BCC:  ADDWFC 03,W
04BCE:  MOVWF  FEA
04BD0:  MOVFF  621,FEF
04BD4:  MOVFF  622,FEC
04BD8:  MOVFF  623,FEC
04BDC:  MOVFF  624,FEC
....................    y++; 
04BE0:  INCF   x96,F
....................    if(y>=2) 
04BE2:  MOVF   x96,W
04BE4:  SUBLW  01
04BE6:  BTFSC  FD8.0
04BE8:  BRA    4E90
....................    { 
....................       y=0; 
04BEA:  CLRF   x96
....................       Aumento=X[1]-X[0]; 
04BEC:  BSF    FD8.1
04BEE:  MOVFF  586,7B2
04BF2:  MOVFF  585,7B1
04BF6:  MOVFF  584,7B0
04BFA:  MOVFF  583,7AF
04BFE:  MOVFF  582,7B6
04C02:  MOVFF  581,7B5
04C06:  MOVFF  580,7B4
04C0A:  MOVFF  57F,7B3
04C0E:  MOVLB  0
04C10:  CALL   2BC2
04C14:  MOVFF  03,620
04C18:  MOVFF  02,61F
04C1C:  MOVFF  01,61E
04C20:  MOVFF  00,61D
....................       HorasActual=(Testerilizacion[3]*10)+Testerilizacion[2]; 
04C24:  MOVFF  5E0,7CA
04C28:  MOVLW  0A
04C2A:  MOVLB  7
04C2C:  MOVWF  xCB
04C2E:  MOVLB  0
04C30:  CALL   35A8
04C34:  MOVLB  5
04C36:  MOVF   xDF,W
04C38:  ADDWF  01,W
04C3A:  MOVLB  7
04C3C:  CLRF   xAE
04C3E:  MOVWF  xAD
04C40:  BTFSC  xAD.7
04C42:  DECF   xAE,F
04C44:  MOVLB  0
04C46:  CALL   3558
04C4A:  MOVFF  03,5CC
04C4E:  MOVFF  02,5CB
04C52:  MOVFF  01,5CA
04C56:  MOVFF  00,5C9
....................       MinutosActual=(Testerilizacion[1]*10)+Testerilizacion[0]; 
04C5A:  MOVFF  5DE,7CA
04C5E:  MOVLW  0A
04C60:  MOVLB  7
04C62:  MOVWF  xCB
04C64:  MOVLB  0
04C66:  CALL   35A8
04C6A:  MOVLB  5
04C6C:  MOVF   xDD,W
04C6E:  ADDWF  01,W
04C70:  MOVLB  7
04C72:  CLRF   xAE
04C74:  MOVWF  xAD
04C76:  BTFSC  xAD.7
04C78:  DECF   xAE,F
04C7A:  MOVLB  0
04C7C:  CALL   3558
04C80:  MOVFF  03,5D0
04C84:  MOVFF  02,5CF
04C88:  MOVFF  01,5CE
04C8C:  MOVFF  00,5CD
....................       TiempoActual=Tiempo-((HorasActual*3600)+(MinutosActual*60)+tinicio); 
04C90:  MOVFF  5CC,7C9
04C94:  MOVFF  5CB,7C8
04C98:  MOVFF  5CA,7C7
04C9C:  MOVFF  5C9,7C6
04CA0:  MOVLB  7
04CA2:  CLRF   xCD
04CA4:  CLRF   xCC
04CA6:  MOVLW  61
04CA8:  MOVWF  xCB
04CAA:  MOVLW  8A
04CAC:  MOVWF  xCA
04CAE:  MOVLB  0
04CB0:  CALL   2F98
04CB4:  MOVFF  00,7A9
04CB8:  MOVFF  01,7AA
04CBC:  MOVFF  02,7AB
04CC0:  MOVFF  03,7AC
04CC4:  MOVFF  5D0,7C9
04CC8:  MOVFF  5CF,7C8
04CCC:  MOVFF  5CE,7C7
04CD0:  MOVFF  5CD,7C6
04CD4:  MOVLB  7
04CD6:  CLRF   xCD
04CD8:  CLRF   xCC
04CDA:  MOVLW  70
04CDC:  MOVWF  xCB
04CDE:  MOVLW  84
04CE0:  MOVWF  xCA
04CE2:  MOVLB  0
04CE4:  CALL   2F98
04CE8:  BCF    FD8.1
04CEA:  MOVFF  7AC,7B2
04CEE:  MOVFF  7AB,7B1
04CF2:  MOVFF  7AA,7B0
04CF6:  MOVFF  7A9,7AF
04CFA:  MOVFF  03,7B6
04CFE:  MOVFF  02,7B5
04D02:  MOVFF  01,7B4
04D06:  MOVFF  00,7B3
04D0A:  CALL   2BC2
04D0E:  MOVFF  00,7A9
04D12:  MOVFF  01,7AA
04D16:  MOVFF  02,7AB
04D1A:  MOVFF  03,7AC
04D1E:  MOVFF  5AC,7B0
04D22:  MOVFF  5AB,7AF
04D26:  CALL   1EB6
04D2A:  BCF    FD8.1
04D2C:  MOVFF  7AC,7B2
04D30:  MOVFF  7AB,7B1
04D34:  MOVFF  7AA,7B0
04D38:  MOVFF  7A9,7AF
04D3C:  MOVFF  03,7B6
04D40:  MOVFF  02,7B5
04D44:  MOVFF  01,7B4
04D48:  MOVFF  00,7B3
04D4C:  CALL   2BC2
04D50:  BSF    FD8.1
04D52:  MOVFF  5C0,7B2
04D56:  MOVFF  5BF,7B1
04D5A:  MOVFF  5BE,7B0
04D5E:  MOVFF  5BD,7AF
04D62:  MOVFF  03,7B6
04D66:  MOVFF  02,7B5
04D6A:  MOVFF  01,7B4
04D6E:  MOVFF  00,7B3
04D72:  CALL   2BC2
04D76:  MOVFF  03,5C4
04D7A:  MOVFF  02,5C3
04D7E:  MOVFF  01,5C2
04D82:  MOVFF  00,5C1
....................       PendienteActual=((Setpoint-Temperatura)/TiempoActual); 
04D86:  BSF    FD8.1
04D88:  MOVFF  630,7B2
04D8C:  MOVFF  62F,7B1
04D90:  MOVFF  62E,7B0
04D94:  MOVFF  62D,7AF
04D98:  MOVFF  624,7B6
04D9C:  MOVFF  623,7B5
04DA0:  MOVFF  622,7B4
04DA4:  MOVFF  621,7B3
04DA8:  CALL   2BC2
04DAC:  MOVFF  00,7A9
04DB0:  MOVFF  01,7AA
04DB4:  MOVFF  02,7AB
04DB8:  MOVFF  03,7AC
04DBC:  MOVFF  03,7B0
04DC0:  MOVFF  02,7AF
04DC4:  MOVFF  01,7AE
04DC8:  MOVFF  00,7AD
04DCC:  MOVFF  5C4,7B4
04DD0:  MOVFF  5C3,7B3
04DD4:  MOVFF  5C2,7B2
04DD8:  MOVFF  5C1,7B1
04DDC:  CALL   2E3A
04DE0:  MOVFF  03,5C8
04DE4:  MOVFF  02,5C7
04DE8:  MOVFF  01,5C6
04DEC:  MOVFF  00,5C5
....................       DifPendiente=(PendienteActual*20)-Aumento; 
04DF0:  MOVFF  5C8,7C9
04DF4:  MOVFF  5C7,7C8
04DF8:  MOVFF  5C6,7C7
04DFC:  MOVFF  5C5,7C6
04E00:  MOVLB  7
04E02:  CLRF   xCD
04E04:  CLRF   xCC
04E06:  MOVLW  20
04E08:  MOVWF  xCB
04E0A:  MOVLW  83
04E0C:  MOVWF  xCA
04E0E:  MOVLB  0
04E10:  CALL   2F98
04E14:  MOVFF  00,7A9
04E18:  MOVFF  01,7AA
04E1C:  MOVFF  02,7AB
04E20:  MOVFF  03,7AC
04E24:  BSF    FD8.1
04E26:  MOVFF  03,7B2
04E2A:  MOVFF  02,7B1
04E2E:  MOVFF  01,7B0
04E32:  MOVFF  00,7AF
04E36:  MOVFF  620,7B6
04E3A:  MOVFF  61F,7B5
04E3E:  MOVFF  61E,7B4
04E42:  MOVFF  61D,7B3
04E46:  CALL   2BC2
04E4A:  MOVFF  03,62C
04E4E:  MOVFF  02,62B
04E52:  MOVFF  01,62A
04E56:  MOVFF  00,629
....................       DifPendiente=DifPendiente*5; 
04E5A:  MOVFF  62C,7C9
04E5E:  MOVFF  62B,7C8
04E62:  MOVFF  62A,7C7
04E66:  MOVFF  629,7C6
04E6A:  MOVLB  7
04E6C:  CLRF   xCD
04E6E:  CLRF   xCC
04E70:  MOVLW  20
04E72:  MOVWF  xCB
04E74:  MOVLW  81
04E76:  MOVWF  xCA
04E78:  MOVLB  0
04E7A:  CALL   2F98
04E7E:  MOVFF  03,62C
04E82:  MOVFF  02,62B
04E86:  MOVFF  01,62A
04E8A:  MOVFF  00,629
04E8E:  MOVLB  5
....................       //penMufla=(6000*(Aumento/20))/PotenciaEntregada; 
....................    } 
.................... } 
04E90:  MOVLB  0
04E92:  GOTO   4EDE (RETURN)
....................  
.................... // Funcion para conversor analogo-digital 
.................... float sensores(int x){ 
.................... float y;set_adc_channel(x);delay_ms(1);y=read_adc();return (y); 
*
02B46:  MOVLB  7
02B48:  RLCF   xAA,W
02B4A:  MOVWF  00
02B4C:  RLCF   00,F
02B4E:  MOVLW  FC
02B50:  ANDWF  00,F
02B52:  MOVFF  00,01
02B56:  MOVF   FC2,W
02B58:  ANDLW  C3
02B5A:  IORWF  00,W
02B5C:  MOVWF  FC2
02B5E:  MOVLW  01
02B60:  MOVWF  xAF
02B62:  MOVLB  0
02B64:  CALL   1500
02B68:  BSF    FC2.1
02B6A:  BTFSC  FC2.1
02B6C:  BRA    2B6A
02B6E:  MOVFF  FC4,7B0
02B72:  MOVFF  FC3,7AF
02B76:  MOVLB  0
02B78:  CALL   1EB6
02B7C:  MOVFF  03,7AE
02B80:  MOVFF  02,7AD
02B84:  MOVFF  01,7AC
02B88:  MOVFF  00,7AB
02B8C:  MOVFF  7AB,00
02B90:  MOVFF  7AC,01
02B94:  MOVFF  7AD,02
02B98:  MOVFF  7AE,03
.................... } 
02B9C:  GOTO   30A2 (RETURN)
.................... float Leer_Sensor(int media) 
.................... { 
....................    Prom=0.0; 
*
0308E:  MOVLB  6
03090:  CLRF   x00
03092:  MOVLB  5
03094:  CLRF   xFF
03096:  CLRF   xFE
03098:  CLRF   xFD
....................    V0 = sensores(0);   //Lectura de Divisor de Voltaje de PT100 con resistencia de 6.18k (+-2%)    
0309A:  MOVLB  7
0309C:  CLRF   xAA
0309E:  MOVLB  0
030A0:  BRA    2B46
030A2:  MOVFF  03,5F0
030A6:  MOVFF  02,5EF
030AA:  MOVFF  01,5EE
030AE:  MOVFF  00,5ED
....................              
....................    if(l>(media-1)) 
030B2:  MOVLW  01
030B4:  MOVLB  7
030B6:  SUBWF  xA9,W
030B8:  MOVLB  5
030BA:  SUBWF  x89,W
030BC:  BZ    30C2
030BE:  BNC   30C2
....................    {l=0;} 
030C0:  CLRF   x89
....................    //promedio[l]=Temperature;l++; 
....................    promedio[l]=V0;l++; 
030C2:  MOVLB  7
030C4:  CLRF   xAE
030C6:  MOVFF  589,7AD
030CA:  CLRF   xB0
030CC:  MOVLW  04
030CE:  MOVWF  xAF
030D0:  MOVLB  0
030D2:  RCALL  2BA0
030D4:  MOVF   01,W
030D6:  ADDLW  17
030D8:  MOVWF  FE9
030DA:  MOVLW  04
030DC:  ADDWFC 02,W
030DE:  MOVWF  FEA
030E0:  MOVFF  5ED,FEF
030E4:  MOVFF  5EE,FEC
030E8:  MOVFF  5EF,FEC
030EC:  MOVFF  5F0,FEC
030F0:  MOVLB  5
030F2:  INCF   x89,F
....................           
....................    for(h=0;h<media;h++) 
030F4:  CLRF   x88
030F6:  MOVLB  7
030F8:  MOVF   xA9,W
030FA:  MOVLB  5
030FC:  SUBWF  x88,W
030FE:  BC    317C
....................    { 
....................       Prom+=promedio[h]; 
03100:  MOVLB  7
03102:  CLRF   xAE
03104:  MOVFF  588,7AD
03108:  CLRF   xB0
0310A:  MOVLW  04
0310C:  MOVWF  xAF
0310E:  MOVLB  0
03110:  RCALL  2BA0
03112:  MOVFF  02,03
03116:  MOVF   01,W
03118:  ADDLW  17
0311A:  MOVWF  FE9
0311C:  MOVLW  04
0311E:  ADDWFC 02,W
03120:  MOVWF  FEA
03122:  MOVFF  FEF,00
03126:  MOVFF  FEC,01
0312A:  MOVFF  FEC,02
0312E:  MOVFF  FEC,03
03132:  MOVFF  FEA,7AB
03136:  MOVFF  FE9,7AA
0313A:  BCF    FD8.1
0313C:  MOVFF  600,7B2
03140:  MOVFF  5FF,7B1
03144:  MOVFF  5FE,7B0
03148:  MOVFF  5FD,7AF
0314C:  MOVFF  03,7B6
03150:  MOVFF  02,7B5
03154:  MOVFF  01,7B4
03158:  MOVFF  00,7B3
0315C:  RCALL  2BC2
0315E:  MOVFF  7AB,FEA
03162:  MOVFF  7AA,FE9
03166:  MOVFF  03,600
0316A:  MOVFF  02,5FF
0316E:  MOVFF  01,5FE
03172:  MOVFF  00,5FD
....................    }  
03176:  MOVLB  5
03178:  INCF   x88,F
0317A:  BRA    30F6
....................    Prom=Prom/media;    
0317C:  MOVLB  7
0317E:  CLRF   xB0
03180:  MOVFF  7A9,7AF
03184:  MOVLB  0
03186:  CALL   1EB6
0318A:  MOVFF  600,7B0
0318E:  MOVFF  5FF,7AF
03192:  MOVFF  5FE,7AE
03196:  MOVFF  5FD,7AD
0319A:  MOVFF  03,7B4
0319E:  MOVFF  02,7B3
031A2:  MOVFF  01,7B2
031A6:  MOVFF  00,7B1
031AA:  RCALL  2E3A
031AC:  MOVFF  03,600
031B0:  MOVFF  02,5FF
031B4:  MOVFF  01,5FE
031B8:  MOVFF  00,5FD
....................    //Temperature=(Prom-100.0)/(0.385);  // Ecuacin determinada por linealizacin en Matlab. Revisar este polinomio.   
....................    //Temperature=(1.5275*Prom)-299.23; // Recta dada por T 0C-1200C y ADC Modo Real    
....................    Temperature=(m*Prom)+b; // Recta dada por T 0C-1200C y ADC Modo Real 
031BC:  MOVFF  63C,7C9
031C0:  MOVFF  63B,7C8
031C4:  MOVFF  63A,7C7
031C8:  MOVFF  639,7C6
031CC:  MOVFF  600,7CD
031D0:  MOVFF  5FF,7CC
031D4:  MOVFF  5FE,7CB
031D8:  MOVFF  5FD,7CA
031DC:  RCALL  2F98
031DE:  MOVFF  00,7AA
031E2:  MOVFF  01,7AB
031E6:  MOVFF  02,7AC
031EA:  MOVFF  03,7AD
031EE:  BCF    FD8.1
031F0:  MOVFF  03,7B2
031F4:  MOVFF  02,7B1
031F8:  MOVFF  01,7B0
031FC:  MOVFF  00,7AF
03200:  MOVFF  640,7B6
03204:  MOVFF  63F,7B5
03208:  MOVFF  63E,7B4
0320C:  MOVFF  63D,7B3
03210:  RCALL  2BC2
03212:  MOVFF  03,604
03216:  MOVFF  02,603
0321A:  MOVFF  01,602
0321E:  MOVFF  00,601
....................     
....................    Temperature+=((float)Ajuste-(float)Ajusten); 
03222:  MOVLB  7
03224:  CLRF   xB0
03226:  MOVFF  58A,7AF
0322A:  MOVLB  0
0322C:  CALL   1EB6
03230:  MOVFF  00,7AA
03234:  MOVFF  01,7AB
03238:  MOVFF  02,7AC
0323C:  MOVFF  03,7AD
03240:  MOVLB  7
03242:  CLRF   xB0
03244:  MOVFF  58B,7AF
03248:  MOVLB  0
0324A:  CALL   1EB6
0324E:  BSF    FD8.1
03250:  MOVFF  7AD,7B2
03254:  MOVFF  7AC,7B1
03258:  MOVFF  7AB,7B0
0325C:  MOVFF  7AA,7AF
03260:  MOVFF  03,7B6
03264:  MOVFF  02,7B5
03268:  MOVFF  01,7B4
0326C:  MOVFF  00,7B3
03270:  RCALL  2BC2
03272:  BCF    FD8.1
03274:  MOVFF  604,7B2
03278:  MOVFF  603,7B1
0327C:  MOVFF  602,7B0
03280:  MOVFF  601,7AF
03284:  MOVFF  03,7B6
03288:  MOVFF  02,7B5
0328C:  MOVFF  01,7B4
03290:  MOVFF  00,7B3
03294:  RCALL  2BC2
03296:  MOVFF  03,604
0329A:  MOVFF  02,603
0329E:  MOVFF  01,602
032A2:  MOVFF  00,601
....................     
....................    //return Prom; 
....................    return Temperature; 
032A6:  MOVFF  601,00
032AA:  MOVFF  602,01
032AE:  MOVFF  603,02
032B2:  MOVFF  604,03
.................... } 
032B6:  RETLW  00
....................  
.................... void Controla(){ 
.................... //-------------------------------Control de Calentamiento------------------------------------------------------------//          
....................    if(tiemporecta>=10) 
*
04ED2:  MOVLB  5
04ED4:  MOVF   x8D,W
04ED6:  SUBLW  09
04ED8:  BC    4EE2
....................    { 
....................       ActualizaRecta(); 
04EDA:  MOVLB  0
04EDC:  BRA    4BBC
....................       tiemporecta=0; 
04EDE:  MOVLB  5
04EE0:  CLRF   x8D
....................    } 
....................    
....................    if(Segmento==0){ 
04EE2:  MOVF   x93,F
04EE4:  BTFSS  FD8.2
04EE6:  BRA    51FA
....................       if(flag_calcula==0){ 
04EE8:  BTFSC  x95.0
04EEA:  BRA    51F8
....................          Tiempo=(Horas1[ProgramaSeleccionado*10]*3600)+(Minutos1[ProgramaSeleccionado*10]*60);          
04EEC:  MOVF   xA3,W
04EEE:  MULLW  0A
04EF0:  MOVFF  FF3,00
04EF4:  BCF    FD8.0
04EF6:  RLCF   00,F
04EF8:  MOVF   00,W
04EFA:  CLRF   03
04EFC:  ADDLW  C1
04EFE:  MOVWF  FE9
04F00:  MOVLW  06
04F02:  ADDWFC 03,W
04F04:  MOVWF  FEA
04F06:  MOVFF  FEC,7AA
04F0A:  MOVF   FED,F
04F0C:  MOVFF  FEF,7A9
04F10:  MOVFF  7AA,7AE
04F14:  MOVFF  7A9,7AD
04F18:  MOVLW  0E
04F1A:  MOVLB  7
04F1C:  MOVWF  xB0
04F1E:  MOVLW  10
04F20:  MOVWF  xAF
04F22:  MOVLB  0
04F24:  CALL   3504
04F28:  MOVFF  02,7AA
04F2C:  MOVFF  01,7A9
04F30:  MOVLB  5
04F32:  MOVF   xA3,W
04F34:  MULLW  0A
04F36:  MOVFF  FF3,00
04F3A:  BCF    FD8.0
04F3C:  RLCF   00,F
04F3E:  MOVF   00,W
04F40:  CLRF   03
04F42:  ADDLW  25
04F44:  MOVWF  FE9
04F46:  MOVLW  07
04F48:  ADDWFC 03,W
04F4A:  MOVWF  FEA
04F4C:  MOVFF  FEC,7AC
04F50:  MOVF   FED,F
04F52:  MOVFF  FEF,7AB
04F56:  MOVFF  7AC,7AE
04F5A:  MOVFF  7AB,7AD
04F5E:  MOVLB  7
04F60:  CLRF   xB0
04F62:  MOVLW  3C
04F64:  MOVWF  xAF
04F66:  MOVLB  0
04F68:  CALL   3504
04F6C:  MOVFF  02,03
04F70:  MOVF   01,W
04F72:  MOVLB  7
04F74:  ADDWF  xA9,W
04F76:  MOVWF  01
04F78:  MOVF   xAA,W
04F7A:  ADDWFC 03,F
04F7C:  MOVFF  01,7AD
04F80:  MOVFF  03,7AE
04F84:  MOVLB  0
04F86:  CALL   3558
04F8A:  MOVFF  03,5C0
04F8E:  MOVFF  02,5BF
04F92:  MOVFF  01,5BE
04F96:  MOVFF  00,5BD
....................          Setpoint=Temperatura1[(ProgramaSeleccionado*10)+Segmento]; 
04F9A:  MOVLB  5
04F9C:  MOVF   xA3,W
04F9E:  MULLW  0A
04FA0:  MOVF   FF3,W
04FA2:  ADDWF  x93,W
04FA4:  MOVWF  00
04FA6:  BCF    FD8.0
04FA8:  RLCF   00,F
04FAA:  MOVF   00,W
04FAC:  CLRF   03
04FAE:  ADDLW  5D
04FB0:  MOVWF  FE9
04FB2:  MOVLW  06
04FB4:  ADDWFC 03,W
04FB6:  MOVWF  FEA
04FB8:  MOVFF  FEC,03
04FBC:  MOVF   FED,F
04FBE:  MOVFF  FEF,7AD
04FC2:  MOVFF  03,7AE
04FC6:  MOVLB  0
04FC8:  CALL   3558
04FCC:  MOVFF  03,630
04FD0:  MOVFF  02,62F
04FD4:  MOVFF  01,62E
04FD8:  MOVFF  00,62D
....................          Pendiente=((Setpoint-TempeInicial)/Tiempo); 
04FDC:  BSF    FD8.1
04FDE:  MOVFF  630,7B2
04FE2:  MOVFF  62F,7B1
04FE6:  MOVFF  62E,7B0
04FEA:  MOVFF  62D,7AF
04FEE:  MOVFF  5BC,7B6
04FF2:  MOVFF  5BB,7B5
04FF6:  MOVFF  5BA,7B4
04FFA:  MOVFF  5B9,7B3
04FFE:  CALL   2BC2
05002:  MOVFF  00,7A9
05006:  MOVFF  01,7AA
0500A:  MOVFF  02,7AB
0500E:  MOVFF  03,7AC
05012:  MOVFF  03,7B0
05016:  MOVFF  02,7AF
0501A:  MOVFF  01,7AE
0501E:  MOVFF  00,7AD
05022:  MOVFF  5C0,7B4
05026:  MOVFF  5BF,7B3
0502A:  MOVFF  5BE,7B2
0502E:  MOVFF  5BD,7B1
05032:  CALL   2E3A
05036:  MOVFF  03,628
0503A:  MOVFF  02,627
0503E:  MOVFF  01,626
05042:  MOVFF  00,625
....................          Testerilizacionp[3]=(int8)Horas1[(ProgramaSeleccionado*10)+Segmento]/10; 
05046:  MOVLB  5
05048:  MOVF   xA3,W
0504A:  MULLW  0A
0504C:  MOVF   FF3,W
0504E:  ADDWF  x93,W
05050:  MOVWF  00
05052:  BCF    FD8.0
05054:  RLCF   00,F
05056:  MOVF   00,W
05058:  CLRF   03
0505A:  ADDLW  C1
0505C:  MOVWF  FE9
0505E:  MOVLW  06
05060:  ADDWFC 03,W
05062:  MOVWF  FEA
05064:  MOVFF  FEF,7BE
05068:  MOVLW  0A
0506A:  MOVLB  7
0506C:  MOVWF  xBF
0506E:  MOVLB  0
05070:  CALL   1CD4
05074:  MOVFF  01,5E4
05078:  MOVLB  5
....................          Testerilizacionp[2]=Horas1[(ProgramaSeleccionado*10)+Segmento]-(Testerilizacionp[3]*10); 
0507A:  MOVF   xA3,W
0507C:  MULLW  0A
0507E:  MOVF   FF3,W
05080:  ADDWF  x93,W
05082:  MOVWF  00
05084:  BCF    FD8.0
05086:  RLCF   00,F
05088:  MOVF   00,W
0508A:  CLRF   03
0508C:  ADDLW  C1
0508E:  MOVWF  FE9
05090:  MOVLW  06
05092:  ADDWFC 03,W
05094:  MOVWF  FEA
05096:  MOVFF  FEC,7AA
0509A:  MOVF   FED,F
0509C:  MOVFF  FEF,7A9
050A0:  MOVFF  5E4,7CA
050A4:  MOVLW  0A
050A6:  MOVLB  7
050A8:  MOVWF  xCB
050AA:  MOVLB  0
050AC:  CALL   35A8
050B0:  MOVF   01,W
050B2:  CLRF   03
050B4:  MOVWF  00
050B6:  BTFSC  FE8.7
050B8:  DECF   03,F
050BA:  MOVLB  7
050BC:  SUBWF  xA9,W
050BE:  MOVWF  00
050C0:  MOVF   03,W
050C2:  SUBWFB xAA,W
050C4:  MOVFF  00,5E3
050C8:  MOVLB  5
....................          Testerilizacionp[1]=Minutos1[(ProgramaSeleccionado*10)+Segmento]/10; 
050CA:  MOVF   xA3,W
050CC:  MULLW  0A
050CE:  MOVF   FF3,W
050D0:  ADDWF  x93,W
050D2:  MOVWF  00
050D4:  BCF    FD8.0
050D6:  RLCF   00,F
050D8:  MOVF   00,W
050DA:  CLRF   03
050DC:  ADDLW  25
050DE:  MOVWF  FE9
050E0:  MOVLW  07
050E2:  ADDWFC 03,W
050E4:  MOVWF  FEA
050E6:  MOVFF  FEC,7AA
050EA:  MOVF   FED,F
050EC:  MOVFF  FEF,7A9
050F0:  MOVFF  7AA,7AE
050F4:  MOVFF  7A9,7AD
050F8:  MOVLB  7
050FA:  CLRF   xB0
050FC:  MOVLW  0A
050FE:  MOVWF  xAF
05100:  MOVLB  0
05102:  CALL   35F6
05106:  MOVFF  01,5E2
0510A:  MOVLB  5
....................          Testerilizacionp[0]=Minutos1[(ProgramaSeleccionado*10)+Segmento]-(Testerilizacionp[1]*10); 
0510C:  MOVF   xA3,W
0510E:  MULLW  0A
05110:  MOVF   FF3,W
05112:  ADDWF  x93,W
05114:  MOVWF  00
05116:  BCF    FD8.0
05118:  RLCF   00,F
0511A:  MOVF   00,W
0511C:  CLRF   03
0511E:  ADDLW  25
05120:  MOVWF  FE9
05122:  MOVLW  07
05124:  ADDWFC 03,W
05126:  MOVWF  FEA
05128:  MOVFF  FEC,7AA
0512C:  MOVF   FED,F
0512E:  MOVFF  FEF,7A9
05132:  MOVFF  5E2,7CA
05136:  MOVLW  0A
05138:  MOVLB  7
0513A:  MOVWF  xCB
0513C:  MOVLB  0
0513E:  CALL   35A8
05142:  MOVF   01,W
05144:  CLRF   03
05146:  MOVWF  00
05148:  BTFSC  FE8.7
0514A:  DECF   03,F
0514C:  MOVLB  7
0514E:  SUBWF  xA9,W
05150:  MOVWF  00
05152:  MOVF   03,W
05154:  SUBWFB xAA,W
05156:  MOVFF  00,5E1
0515A:  MOVLB  5
....................          flag_calcula=1; 
0515C:  BSF    x95.0
....................          Ganancia=read_eeprom(250); 
0515E:  MOVFF  FF2,7A9
05162:  BCF    FF2.7
05164:  CLRF   FAA
05166:  MOVLW  FA
05168:  MOVWF  FA9
0516A:  BCF    FA6.6
0516C:  BCF    FA6.7
0516E:  BSF    FA6.0
05170:  MOVF   FA8,W
05172:  MOVLB  7
05174:  BTFSC  xA9.7
05176:  BSF    FF2.7
05178:  CLRF   xB0
0517A:  MOVWF  xAF
0517C:  MOVLB  0
0517E:  CALL   1EB6
05182:  MOVFF  03,60C
05186:  MOVFF  02,60B
0518A:  MOVFF  01,60A
0518E:  MOVFF  00,609
....................          delay_ms(10); 
05192:  MOVLW  0A
05194:  MOVLB  7
05196:  MOVWF  xAF
05198:  MOVLB  0
0519A:  CALL   1500
....................          Ganancia=Ganancia*(Setpoint/Coeficiente); 
0519E:  MOVFF  630,7B0
051A2:  MOVFF  62F,7AF
051A6:  MOVFF  62E,7AE
051AA:  MOVFF  62D,7AD
051AE:  MOVFF  614,7B4
051B2:  MOVFF  613,7B3
051B6:  MOVFF  612,7B2
051BA:  MOVFF  611,7B1
051BE:  CALL   2E3A
051C2:  MOVFF  60C,7C9
051C6:  MOVFF  60B,7C8
051CA:  MOVFF  60A,7C7
051CE:  MOVFF  609,7C6
051D2:  MOVFF  03,7CD
051D6:  MOVFF  02,7CC
051DA:  MOVFF  01,7CB
051DE:  MOVFF  00,7CA
051E2:  CALL   2F98
051E6:  MOVFF  03,60C
051EA:  MOVFF  02,60B
051EE:  MOVFF  01,60A
051F2:  MOVFF  00,609
051F6:  MOVLB  5
....................       } 
....................    } 
....................    else{ 
051F8:  BRA    553C
....................       if(flag_calcula==0){ 
051FA:  BTFSC  x95.0
051FC:  BRA    553C
....................          Tiempo=(Horas1[(ProgramaSeleccionado*10)+Segmento]*3600)+(Minutos1[(ProgramaSeleccionado*10)+Segmento]*60); 
051FE:  MOVF   xA3,W
05200:  MULLW  0A
05202:  MOVF   FF3,W
05204:  ADDWF  x93,W
05206:  MOVWF  00
05208:  BCF    FD8.0
0520A:  RLCF   00,F
0520C:  MOVF   00,W
0520E:  CLRF   03
05210:  ADDLW  C1
05212:  MOVWF  FE9
05214:  MOVLW  06
05216:  ADDWFC 03,W
05218:  MOVWF  FEA
0521A:  MOVFF  FEC,7AA
0521E:  MOVF   FED,F
05220:  MOVFF  FEF,7A9
05224:  MOVFF  7AA,7AE
05228:  MOVFF  7A9,7AD
0522C:  MOVLW  0E
0522E:  MOVLB  7
05230:  MOVWF  xB0
05232:  MOVLW  10
05234:  MOVWF  xAF
05236:  MOVLB  0
05238:  CALL   3504
0523C:  MOVFF  02,7AA
05240:  MOVFF  01,7A9
05244:  MOVLB  5
05246:  MOVF   xA3,W
05248:  MULLW  0A
0524A:  MOVF   FF3,W
0524C:  ADDWF  x93,W
0524E:  MOVWF  00
05250:  BCF    FD8.0
05252:  RLCF   00,F
05254:  MOVF   00,W
05256:  CLRF   03
05258:  ADDLW  25
0525A:  MOVWF  FE9
0525C:  MOVLW  07
0525E:  ADDWFC 03,W
05260:  MOVWF  FEA
05262:  MOVFF  FEC,7AC
05266:  MOVF   FED,F
05268:  MOVFF  FEF,7AB
0526C:  MOVFF  7AC,7AE
05270:  MOVFF  7AB,7AD
05274:  MOVLB  7
05276:  CLRF   xB0
05278:  MOVLW  3C
0527A:  MOVWF  xAF
0527C:  MOVLB  0
0527E:  CALL   3504
05282:  MOVFF  02,03
05286:  MOVF   01,W
05288:  MOVLB  7
0528A:  ADDWF  xA9,W
0528C:  MOVWF  01
0528E:  MOVF   xAA,W
05290:  ADDWFC 03,F
05292:  MOVFF  01,7AD
05296:  MOVFF  03,7AE
0529A:  MOVLB  0
0529C:  CALL   3558
052A0:  MOVFF  03,5C0
052A4:  MOVFF  02,5BF
052A8:  MOVFF  01,5BE
052AC:  MOVFF  00,5BD
....................          Pendiente=((Temperatura1[(ProgramaSeleccionado*10)+Segmento]-Temperatura1[(ProgramaSeleccionado*10)+Segmento-1])/Tiempo); 
052B0:  MOVLB  5
052B2:  MOVF   xA3,W
052B4:  MULLW  0A
052B6:  MOVF   FF3,W
052B8:  ADDWF  x93,W
052BA:  MOVWF  00
052BC:  BCF    FD8.0
052BE:  RLCF   00,F
052C0:  MOVF   00,W
052C2:  CLRF   03
052C4:  ADDLW  5D
052C6:  MOVWF  FE9
052C8:  MOVLW  06
052CA:  ADDWFC 03,W
052CC:  MOVWF  FEA
052CE:  MOVFF  FEC,7AA
052D2:  MOVF   FED,F
052D4:  MOVFF  FEF,7A9
052D8:  MOVF   xA3,W
052DA:  MULLW  0A
052DC:  MOVF   FF3,W
052DE:  ADDWF  x93,W
052E0:  ADDLW  FF
052E2:  MOVWF  00
052E4:  BCF    FD8.0
052E6:  RLCF   00,F
052E8:  MOVF   00,W
052EA:  CLRF   03
052EC:  ADDLW  5D
052EE:  MOVWF  FE9
052F0:  MOVLW  06
052F2:  ADDWFC 03,W
052F4:  MOVWF  FEA
052F6:  MOVFF  FEC,03
052FA:  MOVF   FED,F
052FC:  MOVF   FEF,W
052FE:  MOVLB  7
05300:  SUBWF  xA9,F
05302:  MOVF   03,W
05304:  SUBWFB xAA,F
05306:  MOVFF  7AA,7AE
0530A:  MOVFF  7A9,7AD
0530E:  MOVLB  0
05310:  CALL   3558
05314:  MOVFF  03,7B0
05318:  MOVFF  02,7AF
0531C:  MOVFF  01,7AE
05320:  MOVFF  00,7AD
05324:  MOVFF  5C0,7B4
05328:  MOVFF  5BF,7B3
0532C:  MOVFF  5BE,7B2
05330:  MOVFF  5BD,7B1
05334:  CALL   2E3A
05338:  MOVFF  03,628
0533C:  MOVFF  02,627
05340:  MOVFF  01,626
05344:  MOVFF  00,625
....................          Setpoint=Temperatura1[(ProgramaSeleccionado*10)+Segmento]; 
05348:  MOVLB  5
0534A:  MOVF   xA3,W
0534C:  MULLW  0A
0534E:  MOVF   FF3,W
05350:  ADDWF  x93,W
05352:  MOVWF  00
05354:  BCF    FD8.0
05356:  RLCF   00,F
05358:  MOVF   00,W
0535A:  CLRF   03
0535C:  ADDLW  5D
0535E:  MOVWF  FE9
05360:  MOVLW  06
05362:  ADDWFC 03,W
05364:  MOVWF  FEA
05366:  MOVFF  FEC,03
0536A:  MOVF   FED,F
0536C:  MOVFF  FEF,7AD
05370:  MOVFF  03,7AE
05374:  MOVLB  0
05376:  CALL   3558
0537A:  MOVFF  03,630
0537E:  MOVFF  02,62F
05382:  MOVFF  01,62E
05386:  MOVFF  00,62D
....................          Testerilizacionp[3]=(int8)Horas1[(ProgramaSeleccionado*10)+Segmento]/10; 
0538A:  MOVLB  5
0538C:  MOVF   xA3,W
0538E:  MULLW  0A
05390:  MOVF   FF3,W
05392:  ADDWF  x93,W
05394:  MOVWF  00
05396:  BCF    FD8.0
05398:  RLCF   00,F
0539A:  MOVF   00,W
0539C:  CLRF   03
0539E:  ADDLW  C1
053A0:  MOVWF  FE9
053A2:  MOVLW  06
053A4:  ADDWFC 03,W
053A6:  MOVWF  FEA
053A8:  MOVFF  FEF,7BE
053AC:  MOVLW  0A
053AE:  MOVLB  7
053B0:  MOVWF  xBF
053B2:  MOVLB  0
053B4:  CALL   1CD4
053B8:  MOVFF  01,5E4
053BC:  MOVLB  5
....................          Testerilizacionp[2]=Horas1[(ProgramaSeleccionado*10)+Segmento]-(Testerilizacionp[3]*10); 
053BE:  MOVF   xA3,W
053C0:  MULLW  0A
053C2:  MOVF   FF3,W
053C4:  ADDWF  x93,W
053C6:  MOVWF  00
053C8:  BCF    FD8.0
053CA:  RLCF   00,F
053CC:  MOVF   00,W
053CE:  CLRF   03
053D0:  ADDLW  C1
053D2:  MOVWF  FE9
053D4:  MOVLW  06
053D6:  ADDWFC 03,W
053D8:  MOVWF  FEA
053DA:  MOVFF  FEC,7AA
053DE:  MOVF   FED,F
053E0:  MOVFF  FEF,7A9
053E4:  MOVFF  5E4,7CA
053E8:  MOVLW  0A
053EA:  MOVLB  7
053EC:  MOVWF  xCB
053EE:  MOVLB  0
053F0:  CALL   35A8
053F4:  MOVF   01,W
053F6:  CLRF   03
053F8:  MOVWF  00
053FA:  BTFSC  FE8.7
053FC:  DECF   03,F
053FE:  MOVLB  7
05400:  SUBWF  xA9,W
05402:  MOVWF  00
05404:  MOVF   03,W
05406:  SUBWFB xAA,W
05408:  MOVFF  00,5E3
0540C:  MOVLB  5
....................          Testerilizacionp[1]=Minutos1[(ProgramaSeleccionado*10)+Segmento]/10; 
0540E:  MOVF   xA3,W
05410:  MULLW  0A
05412:  MOVF   FF3,W
05414:  ADDWF  x93,W
05416:  MOVWF  00
05418:  BCF    FD8.0
0541A:  RLCF   00,F
0541C:  MOVF   00,W
0541E:  CLRF   03
05420:  ADDLW  25
05422:  MOVWF  FE9
05424:  MOVLW  07
05426:  ADDWFC 03,W
05428:  MOVWF  FEA
0542A:  MOVFF  FEC,7AA
0542E:  MOVF   FED,F
05430:  MOVFF  FEF,7A9
05434:  MOVFF  7AA,7AE
05438:  MOVFF  7A9,7AD
0543C:  MOVLB  7
0543E:  CLRF   xB0
05440:  MOVLW  0A
05442:  MOVWF  xAF
05444:  MOVLB  0
05446:  CALL   35F6
0544A:  MOVFF  01,5E2
0544E:  MOVLB  5
....................          Testerilizacionp[0]=Minutos1[(ProgramaSeleccionado*10)+Segmento]-(Testerilizacionp[1]*10); 
05450:  MOVF   xA3,W
05452:  MULLW  0A
05454:  MOVF   FF3,W
05456:  ADDWF  x93,W
05458:  MOVWF  00
0545A:  BCF    FD8.0
0545C:  RLCF   00,F
0545E:  MOVF   00,W
05460:  CLRF   03
05462:  ADDLW  25
05464:  MOVWF  FE9
05466:  MOVLW  07
05468:  ADDWFC 03,W
0546A:  MOVWF  FEA
0546C:  MOVFF  FEC,7AA
05470:  MOVF   FED,F
05472:  MOVFF  FEF,7A9
05476:  MOVFF  5E2,7CA
0547A:  MOVLW  0A
0547C:  MOVLB  7
0547E:  MOVWF  xCB
05480:  MOVLB  0
05482:  CALL   35A8
05486:  MOVF   01,W
05488:  CLRF   03
0548A:  MOVWF  00
0548C:  BTFSC  FE8.7
0548E:  DECF   03,F
05490:  MOVLB  7
05492:  SUBWF  xA9,W
05494:  MOVWF  00
05496:  MOVF   03,W
05498:  SUBWFB xAA,W
0549A:  MOVFF  00,5E1
0549E:  MOVLB  5
....................          flag_calcula=1; 
054A0:  BSF    x95.0
....................          Ganancia=read_eeprom(250); 
054A2:  MOVFF  FF2,7A9
054A6:  BCF    FF2.7
054A8:  CLRF   FAA
054AA:  MOVLW  FA
054AC:  MOVWF  FA9
054AE:  BCF    FA6.6
054B0:  BCF    FA6.7
054B2:  BSF    FA6.0
054B4:  MOVF   FA8,W
054B6:  MOVLB  7
054B8:  BTFSC  xA9.7
054BA:  BSF    FF2.7
054BC:  CLRF   xB0
054BE:  MOVWF  xAF
054C0:  MOVLB  0
054C2:  CALL   1EB6
054C6:  MOVFF  03,60C
054CA:  MOVFF  02,60B
054CE:  MOVFF  01,60A
054D2:  MOVFF  00,609
....................          delay_ms(10); 
054D6:  MOVLW  0A
054D8:  MOVLB  7
054DA:  MOVWF  xAF
054DC:  MOVLB  0
054DE:  CALL   1500
....................          Ganancia=Ganancia*(Setpoint/Coeficiente); 
054E2:  MOVFF  630,7B0
054E6:  MOVFF  62F,7AF
054EA:  MOVFF  62E,7AE
054EE:  MOVFF  62D,7AD
054F2:  MOVFF  614,7B4
054F6:  MOVFF  613,7B3
054FA:  MOVFF  612,7B2
054FE:  MOVFF  611,7B1
05502:  CALL   2E3A
05506:  MOVFF  60C,7C9
0550A:  MOVFF  60B,7C8
0550E:  MOVFF  60A,7C7
05512:  MOVFF  609,7C6
05516:  MOVFF  03,7CD
0551A:  MOVFF  02,7CC
0551E:  MOVFF  01,7CB
05522:  MOVFF  00,7CA
05526:  CALL   2F98
0552A:  MOVFF  03,60C
0552E:  MOVFF  02,60B
05532:  MOVFF  01,60A
05536:  MOVFF  00,609
0553A:  MOVLB  5
....................       } 
....................    } 
....................     
....................    if(Pendiente==0){// Si Esta realizando una Meseta debe realizar el control JuDifuso 
0553C:  MOVFF  628,7AC
05540:  MOVFF  627,7AB
05544:  MOVFF  626,7AA
05548:  MOVFF  625,7A9
0554C:  MOVLB  7
0554E:  CLRF   xB0
05550:  CLRF   xAF
05552:  CLRF   xAE
05554:  CLRF   xAD
05556:  MOVLB  0
05558:  CALL   1EEC
0555C:  BTFSS  FD8.2
0555E:  BRA    5916
....................       error=desvio+Setpoint-Temperatura;      // Clculo del error ****** 
05560:  BCF    FD8.1
05562:  MOVFF  610,7B2
05566:  MOVFF  60F,7B1
0556A:  MOVFF  60E,7B0
0556E:  MOVFF  60D,7AF
05572:  MOVFF  630,7B6
05576:  MOVFF  62F,7B5
0557A:  MOVFF  62E,7B4
0557E:  MOVFF  62D,7B3
05582:  CALL   2BC2
05586:  MOVFF  00,7A9
0558A:  MOVFF  01,7AA
0558E:  MOVFF  02,7AB
05592:  MOVFF  03,7AC
05596:  BSF    FD8.1
05598:  MOVFF  03,7B2
0559C:  MOVFF  02,7B1
055A0:  MOVFF  01,7B0
055A4:  MOVFF  00,7AF
055A8:  MOVFF  624,7B6
055AC:  MOVFF  623,7B5
055B0:  MOVFF  622,7B4
055B4:  MOVFF  621,7B3
055B8:  CALL   2BC2
055BC:  MOVFF  03,5FC
055C0:  MOVFF  02,5FB
055C4:  MOVFF  01,5FA
055C8:  MOVFF  00,5F9
....................        
....................       if(error>3.0 && Aumento<1) 
055CC:  MOVLB  7
055CE:  CLRF   xAC
055D0:  CLRF   xAB
055D2:  MOVLW  40
055D4:  MOVWF  xAA
055D6:  MOVLW  80
055D8:  MOVWF  xA9
055DA:  MOVFF  5FC,7B0
055DE:  MOVFF  5FB,7AF
055E2:  MOVFF  5FA,7AE
055E6:  MOVFF  5F9,7AD
055EA:  MOVLB  0
055EC:  CALL   1EEC
055F0:  BTFSS  FD8.0
055F2:  BRA    57B6
055F4:  MOVFF  620,7AC
055F8:  MOVFF  61F,7AB
055FC:  MOVFF  61E,7AA
05600:  MOVFF  61D,7A9
05604:  MOVLB  7
05606:  CLRF   xB0
05608:  CLRF   xAF
0560A:  CLRF   xAE
0560C:  MOVLW  7F
0560E:  MOVWF  xAD
05610:  MOVLB  0
05612:  CALL   1EEC
05616:  BTFSS  FD8.0
05618:  BRA    57B6
....................       { 
....................          if(Potencia<90.0) 
0561A:  MOVFF  5D8,7AC
0561E:  MOVFF  5D7,7AB
05622:  MOVFF  5D6,7AA
05626:  MOVFF  5D5,7A9
0562A:  MOVLB  7
0562C:  CLRF   xB0
0562E:  CLRF   xAF
05630:  MOVLW  34
05632:  MOVWF  xAE
05634:  MOVLW  85
05636:  MOVWF  xAD
05638:  MOVLB  0
0563A:  CALL   1EEC
0563E:  BTFSS  FD8.0
05640:  BRA    57B6
....................          { 
....................             if(TiempoControl>=Derivativo) 
05642:  MOVLB  7
05644:  CLRF   xB0
05646:  MOVFF  5A0,7AF
0564A:  MOVLB  0
0564C:  CALL   1EB6
05650:  MOVFF  638,7AC
05654:  MOVFF  637,7AB
05658:  MOVFF  636,7AA
0565C:  MOVFF  635,7A9
05660:  MOVFF  03,7B0
05664:  MOVFF  02,7AF
05668:  MOVFF  01,7AE
0566C:  MOVFF  00,7AD
05670:  CALL   1EEC
05674:  BC    567A
05676:  BTFSS  FD8.2
05678:  BRA    57B6
....................             { 
....................                TiempoControl=0; 
0567A:  MOVLB  5
0567C:  CLRF   xA0
....................                if(Aumento<-2) 
0567E:  MOVFF  620,7AC
05682:  MOVFF  61F,7AB
05686:  MOVFF  61E,7AA
0568A:  MOVFF  61D,7A9
0568E:  MOVLB  7
05690:  CLRF   xB0
05692:  CLRF   xAF
05694:  MOVLW  80
05696:  MOVWF  xAE
05698:  MOVWF  xAD
0569A:  MOVLB  0
0569C:  CALL   1EEC
056A0:  BNC   56FE
....................                { 
....................                   Ganancia+=Integral+1; 
056A2:  BCF    FD8.1
056A4:  MOVFF  634,7B2
056A8:  MOVFF  633,7B1
056AC:  MOVFF  632,7B0
056B0:  MOVFF  631,7AF
056B4:  MOVLB  7
056B6:  CLRF   xB6
056B8:  CLRF   xB5
056BA:  CLRF   xB4
056BC:  MOVLW  7F
056BE:  MOVWF  xB3
056C0:  MOVLB  0
056C2:  CALL   2BC2
056C6:  BCF    FD8.1
056C8:  MOVFF  60C,7B2
056CC:  MOVFF  60B,7B1
056D0:  MOVFF  60A,7B0
056D4:  MOVFF  609,7AF
056D8:  MOVFF  03,7B6
056DC:  MOVFF  02,7B5
056E0:  MOVFF  01,7B4
056E4:  MOVFF  00,7B3
056E8:  CALL   2BC2
056EC:  MOVFF  03,60C
056F0:  MOVFF  02,60B
056F4:  MOVFF  01,60A
056F8:  MOVFF  00,609
....................                } 
....................                else 
056FC:  BRA    57B6
....................                { 
....................                   if(Aumento<-1) 
056FE:  MOVFF  620,7AC
05702:  MOVFF  61F,7AB
05706:  MOVFF  61E,7AA
0570A:  MOVFF  61D,7A9
0570E:  MOVLB  7
05710:  CLRF   xB0
05712:  CLRF   xAF
05714:  MOVLW  80
05716:  MOVWF  xAE
05718:  MOVLW  7F
0571A:  MOVWF  xAD
0571C:  MOVLB  0
0571E:  CALL   1EEC
05722:  BNC   575C
....................                   { 
....................                      Ganancia+=Integral; 
05724:  BCF    FD8.1
05726:  MOVFF  60C,7B2
0572A:  MOVFF  60B,7B1
0572E:  MOVFF  60A,7B0
05732:  MOVFF  609,7AF
05736:  MOVFF  634,7B6
0573A:  MOVFF  633,7B5
0573E:  MOVFF  632,7B4
05742:  MOVFF  631,7B3
05746:  CALL   2BC2
0574A:  MOVFF  03,60C
0574E:  MOVFF  02,60B
05752:  MOVFF  01,60A
05756:  MOVFF  00,609
....................                   }    
....................                   else 
0575A:  BRA    57B6
....................                   { 
....................                      Ganancia+=Integral-0.5; 
0575C:  BSF    FD8.1
0575E:  MOVFF  634,7B2
05762:  MOVFF  633,7B1
05766:  MOVFF  632,7B0
0576A:  MOVFF  631,7AF
0576E:  MOVLB  7
05770:  CLRF   xB6
05772:  CLRF   xB5
05774:  CLRF   xB4
05776:  MOVLW  7E
05778:  MOVWF  xB3
0577A:  MOVLB  0
0577C:  CALL   2BC2
05780:  BCF    FD8.1
05782:  MOVFF  60C,7B2
05786:  MOVFF  60B,7B1
0578A:  MOVFF  60A,7B0
0578E:  MOVFF  609,7AF
05792:  MOVFF  03,7B6
05796:  MOVFF  02,7B5
0579A:  MOVFF  01,7B4
0579E:  MOVFF  00,7B3
057A2:  CALL   2BC2
057A6:  MOVFF  03,60C
057AA:  MOVFF  02,60B
057AE:  MOVFF  01,60A
057B2:  MOVFF  00,609
....................                   } 
....................                } 
....................             } 
....................          } 
....................       } 
....................        
....................       //if(error<-5) 
....................       //{ 
....................       //   Ganancia=6*(Setpoint/100); 
....................       //} 
....................        
....................       if(Ganancia<0.5) 
057B6:  MOVFF  60C,7AC
057BA:  MOVFF  60B,7AB
057BE:  MOVFF  60A,7AA
057C2:  MOVFF  609,7A9
057C6:  MOVLB  7
057C8:  CLRF   xB0
057CA:  CLRF   xAF
057CC:  CLRF   xAE
057CE:  MOVLW  7E
057D0:  MOVWF  xAD
057D2:  MOVLB  0
057D4:  CALL   1EEC
057D8:  BNC   57E6
....................       { 
....................          Ganancia=0.5; 
057DA:  MOVLB  6
057DC:  CLRF   x0C
057DE:  CLRF   x0B
057E0:  CLRF   x0A
057E2:  MOVLW  7E
057E4:  MOVWF  x09
....................       } 
....................        
....................        
....................       if(error<0.0)     // Anti Wind_DOWN     
057E6:  MOVFF  5FC,7AC
057EA:  MOVFF  5FB,7AB
057EE:  MOVFF  5FA,7AA
057F2:  MOVFF  5F9,7A9
057F6:  MOVLB  7
057F8:  CLRF   xB0
057FA:  CLRF   xAF
057FC:  CLRF   xAE
057FE:  CLRF   xAD
05800:  MOVLB  0
05802:  CALL   1EEC
05806:  BNC   5814
....................       { 
....................          error=0.0; 
05808:  MOVLB  5
0580A:  CLRF   xFC
0580C:  CLRF   xFB
0580E:  CLRF   xFA
05810:  CLRF   xF9
05812:  MOVLB  0
....................       } 
....................     
....................       tmp=error*Ganancia;  // Control Proporcional. 
05814:  MOVFF  5FC,7C9
05818:  MOVFF  5FB,7C8
0581C:  MOVFF  5FA,7C7
05820:  MOVFF  5F9,7C6
05824:  MOVFF  60C,7CD
05828:  MOVFF  60B,7CC
0582C:  MOVFF  60A,7CB
05830:  MOVFF  609,7CA
05834:  CALL   2F98
05838:  MOVFF  03,608
0583C:  MOVFF  02,607
05840:  MOVFF  01,606
05844:  MOVFF  00,605
....................              
....................       if(tmp>Setpoint)   // Anti Wind-UP       
05848:  MOVFF  630,7AC
0584C:  MOVFF  62F,7AB
05850:  MOVFF  62E,7AA
05854:  MOVFF  62D,7A9
05858:  MOVFF  608,7B0
0585C:  MOVFF  607,7AF
05860:  MOVFF  606,7AE
05864:  MOVFF  605,7AD
05868:  CALL   1EEC
0586C:  BNC   587E
....................       { 
....................          tmp=Setpoint; 
0586E:  MOVFF  630,608
05872:  MOVFF  62F,607
05876:  MOVFF  62E,606
0587A:  MOVFF  62D,605
....................       } 
....................                    
....................       if(tmp<0.0)     // Anti Wind_DOWN     
0587E:  MOVFF  608,7AC
05882:  MOVFF  607,7AB
05886:  MOVFF  606,7AA
0588A:  MOVFF  605,7A9
0588E:  MOVLB  7
05890:  CLRF   xB0
05892:  CLRF   xAF
05894:  CLRF   xAE
05896:  CLRF   xAD
05898:  MOVLB  0
0589A:  CALL   1EEC
0589E:  BNC   58AC
....................       { 
....................          tmp=0.0; 
058A0:  MOVLB  6
058A2:  CLRF   x08
058A4:  CLRF   x07
058A6:  CLRF   x06
058A8:  CLRF   x05
058AA:  MOVLB  0
....................       } 
....................        
....................       // Tpulso(t)= Tciclo*(y(t)-ymin)/(ymax - ymin); calculo de ciclo util para control de resistencia.ymax=140.ymin=0; 
....................       // Tpulso es float, hay que pasar ese ciclo a una salida de un puerto usando el TMR1. 
....................       Tpulso=(tmp/Setpoint)*Tciclo;  
058AC:  MOVFF  608,7B0
058B0:  MOVFF  607,7AF
058B4:  MOVFF  606,7AE
058B8:  MOVFF  605,7AD
058BC:  MOVFF  630,7B4
058C0:  MOVFF  62F,7B3
058C4:  MOVFF  62E,7B2
058C8:  MOVFF  62D,7B1
058CC:  CALL   2E3A
058D0:  MOVFF  00,7A9
058D4:  MOVFF  01,7AA
058D8:  MOVFF  02,7AB
058DC:  MOVFF  03,7AC
058E0:  MOVFF  03,7C9
058E4:  MOVFF  02,7C8
058E8:  MOVFF  01,7C7
058EC:  MOVFF  00,7C6
058F0:  MOVFF  5F4,7CD
058F4:  MOVFF  5F3,7CC
058F8:  MOVFF  5F2,7CB
058FC:  MOVFF  5F1,7CA
05900:  CALL   2F98
05904:  MOVFF  03,5F8
05908:  MOVFF  02,5F7
0590C:  MOVFF  01,5F6
05910:  MOVFF  00,5F5
....................    } 
....................    else{// Si Esta realizando una Rampa debe realizar el control de acuerdo a la pendiente de Temperatura. Aprox 10C * min Maximo Valor de Pendiente. 
05914:  BRA    5EBA
....................       PendienteMinutos=PendienteActual*60; 
05916:  MOVFF  5C8,7C9
0591A:  MOVFF  5C7,7C8
0591E:  MOVFF  5C6,7C7
05922:  MOVFF  5C5,7C6
05926:  MOVLB  7
05928:  CLRF   xCD
0592A:  CLRF   xCC
0592C:  MOVLW  70
0592E:  MOVWF  xCB
05930:  MOVLW  84
05932:  MOVWF  xCA
05934:  MOVLB  0
05936:  CALL   2F98
0593A:  MOVFF  03,5B8
0593E:  MOVFF  02,5B7
05942:  MOVFF  01,5B6
05946:  MOVFF  00,5B5
....................       //PotenciaEntregada=((PendienteMinutos+DifPendiente)*100)/penMufla; 
....................       TiempoRampa=((HorasActual*3600)+(MinutosActual*60)+tinicio); 
0594A:  MOVFF  5CC,7C9
0594E:  MOVFF  5CB,7C8
05952:  MOVFF  5CA,7C7
05956:  MOVFF  5C9,7C6
0595A:  MOVLB  7
0595C:  CLRF   xCD
0595E:  CLRF   xCC
05960:  MOVLW  61
05962:  MOVWF  xCB
05964:  MOVLW  8A
05966:  MOVWF  xCA
05968:  MOVLB  0
0596A:  CALL   2F98
0596E:  MOVFF  00,7A9
05972:  MOVFF  01,7AA
05976:  MOVFF  02,7AB
0597A:  MOVFF  03,7AC
0597E:  MOVFF  5D0,7C9
05982:  MOVFF  5CF,7C8
05986:  MOVFF  5CE,7C7
0598A:  MOVFF  5CD,7C6
0598E:  MOVLB  7
05990:  CLRF   xCD
05992:  CLRF   xCC
05994:  MOVLW  70
05996:  MOVWF  xCB
05998:  MOVLW  84
0599A:  MOVWF  xCA
0599C:  MOVLB  0
0599E:  CALL   2F98
059A2:  BCF    FD8.1
059A4:  MOVFF  7AC,7B2
059A8:  MOVFF  7AB,7B1
059AC:  MOVFF  7AA,7B0
059B0:  MOVFF  7A9,7AF
059B4:  MOVFF  03,7B6
059B8:  MOVFF  02,7B5
059BC:  MOVFF  01,7B4
059C0:  MOVFF  00,7B3
059C4:  CALL   2BC2
059C8:  MOVFF  00,7A9
059CC:  MOVFF  01,7AA
059D0:  MOVFF  02,7AB
059D4:  MOVFF  03,7AC
059D8:  MOVFF  5AC,7B0
059DC:  MOVFF  5AB,7AF
059E0:  CALL   1EB6
059E4:  BCF    FD8.1
059E6:  MOVFF  7AC,7B2
059EA:  MOVFF  7AB,7B1
059EE:  MOVFF  7AA,7B0
059F2:  MOVFF  7A9,7AF
059F6:  MOVFF  03,7B6
059FA:  MOVFF  02,7B5
059FE:  MOVFF  01,7B4
05A02:  MOVFF  00,7B3
05A06:  CALL   2BC2
05A0A:  MOVFF  03,5D4
05A0E:  MOVFF  02,5D3
05A12:  MOVFF  01,5D2
05A16:  MOVFF  00,5D1
....................       if(Segmento==0){ 
05A1A:  MOVLB  5
05A1C:  MOVF   x93,F
05A1E:  BNZ   5A90
....................          TemperaturaIdeal=(Pendiente*TiempoRampa)+TempeInicial; 
05A20:  MOVFF  628,7C9
05A24:  MOVFF  627,7C8
05A28:  MOVFF  626,7C7
05A2C:  MOVFF  625,7C6
05A30:  MOVFF  5D4,7CD
05A34:  MOVFF  5D3,7CC
05A38:  MOVFF  5D2,7CB
05A3C:  MOVFF  5D1,7CA
05A40:  MOVLB  0
05A42:  CALL   2F98
05A46:  MOVFF  00,7A9
05A4A:  MOVFF  01,7AA
05A4E:  MOVFF  02,7AB
05A52:  MOVFF  03,7AC
05A56:  BCF    FD8.1
05A58:  MOVFF  03,7B2
05A5C:  MOVFF  02,7B1
05A60:  MOVFF  01,7B0
05A64:  MOVFF  00,7AF
05A68:  MOVFF  5BC,7B6
05A6C:  MOVFF  5BB,7B5
05A70:  MOVFF  5BA,7B4
05A74:  MOVFF  5B9,7B3
05A78:  CALL   2BC2
05A7C:  MOVFF  03,658
05A80:  MOVFF  02,657
05A84:  MOVFF  01,656
05A88:  MOVFF  00,655
....................       }else{ 
05A8C:  BRA    5B40
05A8E:  MOVLB  5
....................          TemperaturaIdeal=(Pendiente*TiempoRampa)+Temperatura1[(ProgramaSeleccionado*10)+Segmento-1]; 
05A90:  MOVFF  628,7C9
05A94:  MOVFF  627,7C8
05A98:  MOVFF  626,7C7
05A9C:  MOVFF  625,7C6
05AA0:  MOVFF  5D4,7CD
05AA4:  MOVFF  5D3,7CC
05AA8:  MOVFF  5D2,7CB
05AAC:  MOVFF  5D1,7CA
05AB0:  MOVLB  0
05AB2:  CALL   2F98
05AB6:  MOVFF  00,7A9
05ABA:  MOVFF  01,7AA
05ABE:  MOVFF  02,7AB
05AC2:  MOVFF  03,7AC
05AC6:  MOVLB  5
05AC8:  MOVF   xA3,W
05ACA:  MULLW  0A
05ACC:  MOVF   FF3,W
05ACE:  ADDWF  x93,W
05AD0:  ADDLW  FF
05AD2:  MOVWF  00
05AD4:  BCF    FD8.0
05AD6:  RLCF   00,F
05AD8:  MOVF   00,W
05ADA:  CLRF   03
05ADC:  ADDLW  5D
05ADE:  MOVWF  FE9
05AE0:  MOVLW  06
05AE2:  ADDWFC 03,W
05AE4:  MOVWF  FEA
05AE6:  MOVFF  FEC,03
05AEA:  MOVF   FED,F
05AEC:  MOVFF  FEF,7AD
05AF0:  MOVFF  03,7AE
05AF4:  MOVLB  0
05AF6:  CALL   3558
05AFA:  MOVFF  FEA,7AE
05AFE:  MOVFF  FE9,7AD
05B02:  BCF    FD8.1
05B04:  MOVFF  7AC,7B2
05B08:  MOVFF  7AB,7B1
05B0C:  MOVFF  7AA,7B0
05B10:  MOVFF  7A9,7AF
05B14:  MOVFF  03,7B6
05B18:  MOVFF  02,7B5
05B1C:  MOVFF  01,7B4
05B20:  MOVFF  00,7B3
05B24:  CALL   2BC2
05B28:  MOVFF  7AE,FEA
05B2C:  MOVFF  7AD,FE9
05B30:  MOVFF  03,658
05B34:  MOVFF  02,657
05B38:  MOVFF  01,656
05B3C:  MOVFF  00,655
....................       } 
....................       PotenciaEntregada=((TemperaturaIdeal-Temperatura)*100)/penMufla; 
05B40:  BSF    FD8.1
05B42:  MOVFF  658,7B2
05B46:  MOVFF  657,7B1
05B4A:  MOVFF  656,7B0
05B4E:  MOVFF  655,7AF
05B52:  MOVFF  624,7B6
05B56:  MOVFF  623,7B5
05B5A:  MOVFF  622,7B4
05B5E:  MOVFF  621,7B3
05B62:  CALL   2BC2
05B66:  MOVFF  00,7A9
05B6A:  MOVFF  01,7AA
05B6E:  MOVFF  02,7AB
05B72:  MOVFF  03,7AC
05B76:  MOVFF  03,7C9
05B7A:  MOVFF  02,7C8
05B7E:  MOVFF  01,7C7
05B82:  MOVFF  00,7C6
05B86:  MOVLB  7
05B88:  CLRF   xCD
05B8A:  CLRF   xCC
05B8C:  MOVLW  48
05B8E:  MOVWF  xCB
05B90:  MOVLW  85
05B92:  MOVWF  xCA
05B94:  MOVLB  0
05B96:  CALL   2F98
05B9A:  MOVFF  00,7A9
05B9E:  MOVFF  01,7AA
05BA2:  MOVFF  02,7AB
05BA6:  MOVFF  03,7AC
05BAA:  MOVFF  03,7B0
05BAE:  MOVFF  02,7AF
05BB2:  MOVFF  01,7AE
05BB6:  MOVFF  00,7AD
05BBA:  MOVFF  654,7B4
05BBE:  MOVFF  653,7B3
05BC2:  MOVFF  652,7B2
05BC6:  MOVFF  651,7B1
05BCA:  CALL   2E3A
05BCE:  MOVFF  03,5DC
05BD2:  MOVFF  02,5DB
05BD6:  MOVFF  01,5DA
05BDA:  MOVFF  00,5D9
.................... // Pendiente determinar si el comportamiento de la mufla es lineal 10C/min o si tiene un comportamiento diferente. 
....................           
....................       if(Temperatura<450 && Temperatura>=200) 
05BDE:  MOVFF  624,7AC
05BE2:  MOVFF  623,7AB
05BE6:  MOVFF  622,7AA
05BEA:  MOVFF  621,7A9
05BEE:  MOVLB  7
05BF0:  CLRF   xB0
05BF2:  CLRF   xAF
05BF4:  MOVLW  61
05BF6:  MOVWF  xAE
05BF8:  MOVLW  87
05BFA:  MOVWF  xAD
05BFC:  MOVLB  0
05BFE:  CALL   1EEC
05C02:  BNC   5C60
05C04:  MOVLB  7
05C06:  CLRF   xAC
05C08:  CLRF   xAB
05C0A:  MOVLW  48
05C0C:  MOVWF  xAA
05C0E:  MOVLW  86
05C10:  MOVWF  xA9
05C12:  MOVFF  624,7B0
05C16:  MOVFF  623,7AF
05C1A:  MOVFF  622,7AE
05C1E:  MOVFF  621,7AD
05C22:  MOVLB  0
05C24:  CALL   1EEC
05C28:  BC    5C2C
05C2A:  BNZ   5C60
....................          penMufla=penInicial*0.9; 
05C2C:  MOVFF  65C,7C9
05C30:  MOVFF  65B,7C8
05C34:  MOVFF  65A,7C7
05C38:  MOVFF  659,7C6
05C3C:  MOVLW  66
05C3E:  MOVLB  7
05C40:  MOVWF  xCD
05C42:  MOVWF  xCC
05C44:  MOVWF  xCB
05C46:  MOVLW  7E
05C48:  MOVWF  xCA
05C4A:  MOVLB  0
05C4C:  CALL   2F98
05C50:  MOVFF  03,654
05C54:  MOVFF  02,653
05C58:  MOVFF  01,652
05C5C:  MOVFF  00,651
....................           
....................       if(Temperatura<600 && Temperatura>=450) 
05C60:  MOVFF  624,7AC
05C64:  MOVFF  623,7AB
05C68:  MOVFF  622,7AA
05C6C:  MOVFF  621,7A9
05C70:  MOVLB  7
05C72:  CLRF   xB0
05C74:  CLRF   xAF
05C76:  MOVLW  16
05C78:  MOVWF  xAE
05C7A:  MOVLW  88
05C7C:  MOVWF  xAD
05C7E:  MOVLB  0
05C80:  CALL   1EEC
05C84:  BNC   5CE6
05C86:  MOVLB  7
05C88:  CLRF   xAC
05C8A:  CLRF   xAB
05C8C:  MOVLW  61
05C8E:  MOVWF  xAA
05C90:  MOVLW  87
05C92:  MOVWF  xA9
05C94:  MOVFF  624,7B0
05C98:  MOVFF  623,7AF
05C9C:  MOVFF  622,7AE
05CA0:  MOVFF  621,7AD
05CA4:  MOVLB  0
05CA6:  CALL   1EEC
05CAA:  BC    5CAE
05CAC:  BNZ   5CE6
....................          penMufla=penInicial*0.8; 
05CAE:  MOVFF  65C,7C9
05CB2:  MOVFF  65B,7C8
05CB6:  MOVFF  65A,7C7
05CBA:  MOVFF  659,7C6
05CBE:  MOVLW  CD
05CC0:  MOVLB  7
05CC2:  MOVWF  xCD
05CC4:  MOVLW  CC
05CC6:  MOVWF  xCC
05CC8:  MOVLW  4C
05CCA:  MOVWF  xCB
05CCC:  MOVLW  7E
05CCE:  MOVWF  xCA
05CD0:  MOVLB  0
05CD2:  CALL   2F98
05CD6:  MOVFF  03,654
05CDA:  MOVFF  02,653
05CDE:  MOVFF  01,652
05CE2:  MOVFF  00,651
....................           
....................       if(Temperatura<900 && Temperatura>=600) 
05CE6:  MOVFF  624,7AC
05CEA:  MOVFF  623,7AB
05CEE:  MOVFF  622,7AA
05CF2:  MOVFF  621,7A9
05CF6:  MOVLB  7
05CF8:  CLRF   xB0
05CFA:  CLRF   xAF
05CFC:  MOVLW  61
05CFE:  MOVWF  xAE
05D00:  MOVLW  88
05D02:  MOVWF  xAD
05D04:  MOVLB  0
05D06:  CALL   1EEC
05D0A:  BNC   5D68
05D0C:  MOVLB  7
05D0E:  CLRF   xAC
05D10:  CLRF   xAB
05D12:  MOVLW  16
05D14:  MOVWF  xAA
05D16:  MOVLW  88
05D18:  MOVWF  xA9
05D1A:  MOVFF  624,7B0
05D1E:  MOVFF  623,7AF
05D22:  MOVFF  622,7AE
05D26:  MOVFF  621,7AD
05D2A:  MOVLB  0
05D2C:  CALL   1EEC
05D30:  BC    5D34
05D32:  BNZ   5D68
....................          penMufla=penInicial*0.7;   
05D34:  MOVFF  65C,7C9
05D38:  MOVFF  65B,7C8
05D3C:  MOVFF  65A,7C7
05D40:  MOVFF  659,7C6
05D44:  MOVLW  33
05D46:  MOVLB  7
05D48:  MOVWF  xCD
05D4A:  MOVWF  xCC
05D4C:  MOVWF  xCB
05D4E:  MOVLW  7E
05D50:  MOVWF  xCA
05D52:  MOVLB  0
05D54:  CALL   2F98
05D58:  MOVFF  03,654
05D5C:  MOVFF  02,653
05D60:  MOVFF  01,652
05D64:  MOVFF  00,651
....................           
....................       if(Temperatura<=1200 && Temperatura>=900) 
05D68:  MOVFF  624,7AC
05D6C:  MOVFF  623,7AB
05D70:  MOVFF  622,7AA
05D74:  MOVFF  621,7A9
05D78:  MOVLB  7
05D7A:  CLRF   xB0
05D7C:  CLRF   xAF
05D7E:  MOVLW  16
05D80:  MOVWF  xAE
05D82:  MOVLW  89
05D84:  MOVWF  xAD
05D86:  MOVLB  0
05D88:  CALL   1EEC
05D8C:  BC    5D90
05D8E:  BNZ   5DF0
05D90:  MOVLB  7
05D92:  CLRF   xAC
05D94:  CLRF   xAB
05D96:  MOVLW  61
05D98:  MOVWF  xAA
05D9A:  MOVLW  88
05D9C:  MOVWF  xA9
05D9E:  MOVFF  624,7B0
05DA2:  MOVFF  623,7AF
05DA6:  MOVFF  622,7AE
05DAA:  MOVFF  621,7AD
05DAE:  MOVLB  0
05DB0:  CALL   1EEC
05DB4:  BC    5DB8
05DB6:  BNZ   5DF0
....................          penMufla=penInicial*0.6;    
05DB8:  MOVFF  65C,7C9
05DBC:  MOVFF  65B,7C8
05DC0:  MOVFF  65A,7C7
05DC4:  MOVFF  659,7C6
05DC8:  MOVLW  9A
05DCA:  MOVLB  7
05DCC:  MOVWF  xCD
05DCE:  MOVLW  99
05DD0:  MOVWF  xCC
05DD2:  MOVLW  19
05DD4:  MOVWF  xCB
05DD6:  MOVLW  7E
05DD8:  MOVWF  xCA
05DDA:  MOVLB  0
05DDC:  CALL   2F98
05DE0:  MOVFF  03,654
05DE4:  MOVFF  02,653
05DE8:  MOVFF  01,652
05DEC:  MOVFF  00,651
....................        
....................       if(PotenciaEntregada>100.0){ 
05DF0:  MOVLB  7
05DF2:  CLRF   xAC
05DF4:  CLRF   xAB
05DF6:  MOVLW  48
05DF8:  MOVWF  xAA
05DFA:  MOVLW  85
05DFC:  MOVWF  xA9
05DFE:  MOVFF  5DC,7B0
05E02:  MOVFF  5DB,7AF
05E06:  MOVFF  5DA,7AE
05E0A:  MOVFF  5D9,7AD
05E0E:  MOVLB  0
05E10:  CALL   1EEC
05E14:  BNC   5E24
....................          PotenciaEntregada=100.0; 
05E16:  MOVLB  5
05E18:  CLRF   xDC
05E1A:  CLRF   xDB
05E1C:  MOVLW  48
05E1E:  MOVWF  xDA
05E20:  MOVLW  85
05E22:  MOVWF  xD9
....................       } 
....................        
....................       if(PotenciaEntregada<0){ 
05E24:  MOVFF  5DC,7AC
05E28:  MOVFF  5DB,7AB
05E2C:  MOVFF  5DA,7AA
05E30:  MOVFF  5D9,7A9
05E34:  MOVLB  7
05E36:  CLRF   xB0
05E38:  CLRF   xAF
05E3A:  CLRF   xAE
05E3C:  CLRF   xAD
05E3E:  MOVLB  0
05E40:  CALL   1EEC
05E44:  BNC   5E52
....................          PotenciaEntregada=0; 
05E46:  MOVLB  5
05E48:  CLRF   xDC
05E4A:  CLRF   xDB
05E4C:  CLRF   xDA
05E4E:  CLRF   xD9
05E50:  MOVLB  0
....................       } 
....................        
....................       Tpulso=(PotenciaEntregada*Tciclo)/100; 
05E52:  MOVFF  5DC,7C9
05E56:  MOVFF  5DB,7C8
05E5A:  MOVFF  5DA,7C7
05E5E:  MOVFF  5D9,7C6
05E62:  MOVFF  5F4,7CD
05E66:  MOVFF  5F3,7CC
05E6A:  MOVFF  5F2,7CB
05E6E:  MOVFF  5F1,7CA
05E72:  CALL   2F98
05E76:  MOVFF  00,7A9
05E7A:  MOVFF  01,7AA
05E7E:  MOVFF  02,7AB
05E82:  MOVFF  03,7AC
05E86:  MOVFF  03,7B0
05E8A:  MOVFF  02,7AF
05E8E:  MOVFF  01,7AE
05E92:  MOVFF  00,7AD
05E96:  MOVLB  7
05E98:  CLRF   xB4
05E9A:  CLRF   xB3
05E9C:  MOVLW  48
05E9E:  MOVWF  xB2
05EA0:  MOVLW  85
05EA2:  MOVWF  xB1
05EA4:  MOVLB  0
05EA6:  CALL   2E3A
05EAA:  MOVFF  03,5F8
05EAE:  MOVFF  02,5F7
05EB2:  MOVFF  01,5F6
05EB6:  MOVFF  00,5F5
....................    } 
....................    Tp=(int16)(Tpulso/0.005); 
05EBA:  MOVFF  5F8,7B0
05EBE:  MOVFF  5F7,7AF
05EC2:  MOVFF  5F6,7AE
05EC6:  MOVFF  5F5,7AD
05ECA:  MOVLW  0A
05ECC:  MOVLB  7
05ECE:  MOVWF  xB4
05ED0:  MOVLW  D7
05ED2:  MOVWF  xB3
05ED4:  MOVLW  23
05ED6:  MOVWF  xB2
05ED8:  MOVLW  77
05EDA:  MOVWF  xB1
05EDC:  MOVLB  0
05EDE:  CALL   2E3A
05EE2:  MOVFF  03,7AC
05EE6:  MOVFF  02,7AB
05EEA:  MOVFF  01,7AA
05EEE:  MOVFF  00,7A9
05EF2:  CALL   4E96
05EF6:  MOVFF  02,5B2
05EFA:  MOVFF  01,5B1
....................    Tc=(int16)(Tciclo/0.005); 
05EFE:  MOVFF  5F4,7B0
05F02:  MOVFF  5F3,7AF
05F06:  MOVFF  5F2,7AE
05F0A:  MOVFF  5F1,7AD
05F0E:  MOVLW  0A
05F10:  MOVLB  7
05F12:  MOVWF  xB4
05F14:  MOVLW  D7
05F16:  MOVWF  xB3
05F18:  MOVLW  23
05F1A:  MOVWF  xB2
05F1C:  MOVLW  77
05F1E:  MOVWF  xB1
05F20:  MOVLB  0
05F22:  CALL   2E3A
05F26:  MOVFF  03,7AC
05F2A:  MOVFF  02,7AB
05F2E:  MOVFF  01,7AA
05F32:  MOVFF  00,7A9
05F36:  CALL   4E96
05F3A:  MOVFF  02,5B4
05F3E:  MOVFF  01,5B3
....................           
.................... //--------------------------------------------------------------------------------------------------------------------//    
.................... } 
05F42:  RETLW  00
....................  
.................... void displayMenu(char palabra[30], int x, int y, int sombreado, int tamano) 
.................... { 
....................    strcpy(Menus.Letra,palabra); 
*
01BAE:  MOVLB  7
01BB0:  MOVFF  7AC,01
01BB4:  MOVFF  7AD,03
01BB8:  MOVFF  7AC,7B2
01BBC:  MOVFF  7AD,7B3
01BC0:  MOVLW  07
01BC2:  MOVWF  FEA
01BC4:  MOVLW  89
01BC6:  MOVWF  FE9
01BC8:  MOVFF  7AD,FE2
01BCC:  MOVFF  7AC,FE1
01BD0:  MOVF   FE7,F
01BD2:  MOVFF  FE6,FEE
01BD6:  BNZ   1BD0
....................     
....................    if(sombreado==3) 
01BD8:  MOVF   xB0,W
01BDA:  SUBLW  03
01BDC:  BNZ   1C04
....................       {glcd_text57(x+1, y+1, Menus.Letra, tamano, OFF);} 
01BDE:  MOVLW  01
01BE0:  ADDWF  xAE,W
01BE2:  MOVWF  xB2
01BE4:  MOVLW  01
01BE6:  ADDWF  xAF,W
01BE8:  MOVWF  xB3
01BEA:  MOVFF  7B2,7C1
01BEE:  MOVWF  xC2
01BF0:  MOVLW  07
01BF2:  MOVWF  xC4
01BF4:  MOVLW  89
01BF6:  MOVWF  xC3
01BF8:  MOVFF  7B1,7C5
01BFC:  CLRF   xC6
01BFE:  MOVLB  0
01C00:  RCALL  17F6
01C02:  MOVLB  7
....................    if(sombreado==2) 
01C04:  MOVF   xB0,W
01C06:  SUBLW  02
01C08:  BNZ   1C32
....................       {glcd_text57(x+1, y+1, Menus.Letra, tamano, ON);} 
01C0A:  MOVLW  01
01C0C:  ADDWF  xAE,W
01C0E:  MOVWF  xB2
01C10:  MOVLW  01
01C12:  ADDWF  xAF,W
01C14:  MOVWF  xB3
01C16:  MOVFF  7B2,7C1
01C1A:  MOVWF  xC2
01C1C:  MOVLW  07
01C1E:  MOVWF  xC4
01C20:  MOVLW  89
01C22:  MOVWF  xC3
01C24:  MOVFF  7B1,7C5
01C28:  MOVLW  01
01C2A:  MOVWF  xC6
01C2C:  MOVLB  0
01C2E:  RCALL  17F6
01C30:  MOVLB  7
....................    if(sombreado==1) 
01C32:  DECFSZ xB0,W
01C34:  BRA    1C80
....................       {glcd_rect(0, y, 127, y+(tamano*8), YES, ON);glcd_text57(x+1, y+1, Menus.Letra, tamano, OFF);} 
01C36:  MOVF   xB1,W
01C38:  MULLW  08
01C3A:  MOVF   FF3,W
01C3C:  ADDWF  xAF,W
01C3E:  MOVWF  xB2
01C40:  CLRF   xC1
01C42:  MOVFF  7AF,7C2
01C46:  MOVLW  7F
01C48:  MOVWF  xC3
01C4A:  MOVFF  7B2,7C4
01C4E:  MOVLW  01
01C50:  MOVWF  xC5
01C52:  MOVWF  xC6
01C54:  MOVLB  0
01C56:  RCALL  1AEC
01C58:  MOVLW  01
01C5A:  MOVLB  7
01C5C:  ADDWF  xAE,W
01C5E:  MOVWF  xB2
01C60:  MOVLW  01
01C62:  ADDWF  xAF,W
01C64:  MOVWF  xB3
01C66:  MOVFF  7B2,7C1
01C6A:  MOVWF  xC2
01C6C:  MOVLW  07
01C6E:  MOVWF  xC4
01C70:  MOVLW  89
01C72:  MOVWF  xC3
01C74:  MOVFF  7B1,7C5
01C78:  CLRF   xC6
01C7A:  MOVLB  0
01C7C:  RCALL  17F6
01C7E:  MOVLB  7
....................    if(sombreado==0) 
01C80:  MOVF   xB0,F
01C82:  BNZ   1CCE
....................       {glcd_rect(0, y, 127, y+(tamano*8), YES, OFF);glcd_text57(x+1, y+1, Menus.Letra, tamano, ON);} 
01C84:  MOVF   xB1,W
01C86:  MULLW  08
01C88:  MOVF   FF3,W
01C8A:  ADDWF  xAF,W
01C8C:  MOVWF  xB2
01C8E:  CLRF   xC1
01C90:  MOVFF  7AF,7C2
01C94:  MOVLW  7F
01C96:  MOVWF  xC3
01C98:  MOVFF  7B2,7C4
01C9C:  MOVLW  01
01C9E:  MOVWF  xC5
01CA0:  CLRF   xC6
01CA2:  MOVLB  0
01CA4:  RCALL  1AEC
01CA6:  MOVLW  01
01CA8:  MOVLB  7
01CAA:  ADDWF  xAE,W
01CAC:  MOVWF  xB2
01CAE:  MOVLW  01
01CB0:  ADDWF  xAF,W
01CB2:  MOVWF  xB3
01CB4:  MOVFF  7B2,7C1
01CB8:  MOVWF  xC2
01CBA:  MOVLW  07
01CBC:  MOVWF  xC4
01CBE:  MOVLW  89
01CC0:  MOVWF  xC3
01CC2:  MOVFF  7B1,7C5
01CC6:  MOVLW  01
01CC8:  MOVWF  xC6
01CCA:  MOVLB  0
01CCC:  RCALL  17F6
....................    glcd_update(); 
01CCE:  MOVLB  0
01CD0:  RCALL  15DA
.................... } 
01CD2:  RETLW  00
....................  
.................... void displayTemps(char palabra[30], int16 digito, int x, int y, int sombreado, int tamano) 
.................... { 
....................    char voltage[9]; 
....................     
....................    if(sombreado==11) 
*
03B0E:  MOVLB  7
03B10:  MOVF   xB4,W
03B12:  SUBLW  0B
03B14:  BNZ   3BD4
....................    { 
....................       sprintf(voltage, "%02Lu", digito); 
03B16:  MOVLW  07
03B18:  MOVWF  xA8
03B1A:  MOVLW  B6
03B1C:  MOVWF  xA7
03B1E:  MOVLW  0B
03B20:  MOVWF  FE9
03B22:  MOVFF  7B1,7C0
03B26:  MOVFF  7B0,7BF
03B2A:  MOVLB  0
03B2C:  RCALL  366E
....................       glcd_rect(0, y-2, 127, y+(tamano*8), YES, ON); 
03B2E:  MOVLW  02
03B30:  MOVLB  7
03B32:  SUBWF  xB3,W
03B34:  MOVWF  xBF
03B36:  MOVF   xB5,W
03B38:  MULLW  08
03B3A:  MOVF   FF3,W
03B3C:  ADDWF  xB3,W
03B3E:  MOVWF  xC0
03B40:  CLRF   xC1
03B42:  MOVFF  7BF,7C2
03B46:  MOVLW  7F
03B48:  MOVWF  xC3
03B4A:  MOVFF  7C0,7C4
03B4E:  MOVLW  01
03B50:  MOVWF  xC5
03B52:  MOVWF  xC6
03B54:  MOVLB  0
03B56:  CALL   1AEC
....................       strcpy(Menus.Letra,palabra); 
03B5A:  MOVLB  7
03B5C:  MOVFF  7AE,01
03B60:  MOVFF  7AF,03
03B64:  MOVFF  7AE,7BF
03B68:  MOVFF  7AF,7C0
03B6C:  MOVLW  07
03B6E:  MOVWF  FEA
03B70:  MOVLW  89
03B72:  MOVWF  FE9
03B74:  MOVFF  7AF,FE2
03B78:  MOVFF  7AE,FE1
03B7C:  MOVF   FE7,F
03B7E:  MOVFF  FE6,FEE
03B82:  BNZ   3B7C
....................       glcd_text57(x+90, y+1, voltage, tamano, OFF); 
03B84:  MOVLW  5A
03B86:  ADDWF  xB2,W
03B88:  MOVWF  xBF
03B8A:  MOVLW  01
03B8C:  ADDWF  xB3,W
03B8E:  MOVWF  xC0
03B90:  MOVFF  7BF,7C1
03B94:  MOVWF  xC2
03B96:  MOVLW  07
03B98:  MOVWF  xC4
03B9A:  MOVLW  B6
03B9C:  MOVWF  xC3
03B9E:  MOVFF  7B5,7C5
03BA2:  CLRF   xC6
03BA4:  MOVLB  0
03BA6:  CALL   17F6
....................       glcd_text57(x+1, y+1, Menus.Letra, tamano, OFF); 
03BAA:  MOVLW  01
03BAC:  MOVLB  7
03BAE:  ADDWF  xB2,W
03BB0:  MOVWF  xBF
03BB2:  MOVLW  01
03BB4:  ADDWF  xB3,W
03BB6:  MOVWF  xC0
03BB8:  MOVFF  7BF,7C1
03BBC:  MOVWF  xC2
03BBE:  MOVLW  07
03BC0:  MOVWF  xC4
03BC2:  MOVLW  89
03BC4:  MOVWF  xC3
03BC6:  MOVFF  7B5,7C5
03BCA:  CLRF   xC6
03BCC:  MOVLB  0
03BCE:  CALL   17F6
03BD2:  MOVLB  7
....................    } 
....................    if(sombreado==10) 
03BD4:  MOVF   xB4,W
03BD6:  SUBLW  0A
03BD8:  BNZ   3C9C
....................    { 
....................       sprintf(voltage, "%02Lu", digito); 
03BDA:  MOVLW  07
03BDC:  MOVWF  xA8
03BDE:  MOVLW  B6
03BE0:  MOVWF  xA7
03BE2:  MOVLW  0B
03BE4:  MOVWF  FE9
03BE6:  MOVFF  7B1,7C0
03BEA:  MOVFF  7B0,7BF
03BEE:  MOVLB  0
03BF0:  RCALL  366E
....................       glcd_rect(0, y-2, 127, y+(tamano*8), YES, OFF); 
03BF2:  MOVLW  02
03BF4:  MOVLB  7
03BF6:  SUBWF  xB3,W
03BF8:  MOVWF  xBF
03BFA:  MOVF   xB5,W
03BFC:  MULLW  08
03BFE:  MOVF   FF3,W
03C00:  ADDWF  xB3,W
03C02:  MOVWF  xC0
03C04:  CLRF   xC1
03C06:  MOVFF  7BF,7C2
03C0A:  MOVLW  7F
03C0C:  MOVWF  xC3
03C0E:  MOVFF  7C0,7C4
03C12:  MOVLW  01
03C14:  MOVWF  xC5
03C16:  CLRF   xC6
03C18:  MOVLB  0
03C1A:  CALL   1AEC
....................       strcpy(Menus.Letra,palabra); 
03C1E:  MOVLB  7
03C20:  MOVFF  7AE,01
03C24:  MOVFF  7AF,03
03C28:  MOVFF  7AE,7BF
03C2C:  MOVFF  7AF,7C0
03C30:  MOVLW  07
03C32:  MOVWF  FEA
03C34:  MOVLW  89
03C36:  MOVWF  FE9
03C38:  MOVFF  7AF,FE2
03C3C:  MOVFF  7AE,FE1
03C40:  MOVF   FE7,F
03C42:  MOVFF  FE6,FEE
03C46:  BNZ   3C40
....................       glcd_text57(x+90, y+1, voltage, tamano, ON); 
03C48:  MOVLW  5A
03C4A:  ADDWF  xB2,W
03C4C:  MOVWF  xBF
03C4E:  MOVLW  01
03C50:  ADDWF  xB3,W
03C52:  MOVWF  xC0
03C54:  MOVFF  7BF,7C1
03C58:  MOVWF  xC2
03C5A:  MOVLW  07
03C5C:  MOVWF  xC4
03C5E:  MOVLW  B6
03C60:  MOVWF  xC3
03C62:  MOVFF  7B5,7C5
03C66:  MOVLW  01
03C68:  MOVWF  xC6
03C6A:  MOVLB  0
03C6C:  CALL   17F6
....................       glcd_text57(x+1, y+1, Menus.Letra, tamano, ON); 
03C70:  MOVLW  01
03C72:  MOVLB  7
03C74:  ADDWF  xB2,W
03C76:  MOVWF  xBF
03C78:  MOVLW  01
03C7A:  ADDWF  xB3,W
03C7C:  MOVWF  xC0
03C7E:  MOVFF  7BF,7C1
03C82:  MOVWF  xC2
03C84:  MOVLW  07
03C86:  MOVWF  xC4
03C88:  MOVLW  89
03C8A:  MOVWF  xC3
03C8C:  MOVFF  7B5,7C5
03C90:  MOVLW  01
03C92:  MOVWF  xC6
03C94:  MOVLB  0
03C96:  CALL   17F6
03C9A:  MOVLB  7
....................    } 
....................     
....................    if(sombreado==1) 
03C9C:  DECFSZ xB4,W
03C9E:  BRA    3DCA
....................    { 
....................       sprintf(voltage, "%04Lu", digito); 
03CA0:  MOVLW  07
03CA2:  MOVWF  xA8
03CA4:  MOVLW  B6
03CA6:  MOVWF  xA7
03CA8:  MOVLW  09
03CAA:  MOVWF  FE9
03CAC:  MOVFF  7B1,7C0
03CB0:  MOVFF  7B0,7BF
03CB4:  MOVLB  0
03CB6:  RCALL  366E
....................       glcd_rect(0, y-2, 127, y+(tamano*8), YES, ON); 
03CB8:  MOVLW  02
03CBA:  MOVLB  7
03CBC:  SUBWF  xB3,W
03CBE:  MOVWF  xBF
03CC0:  MOVF   xB5,W
03CC2:  MULLW  08
03CC4:  MOVF   FF3,W
03CC6:  ADDWF  xB3,W
03CC8:  MOVWF  xC0
03CCA:  CLRF   xC1
03CCC:  MOVFF  7BF,7C2
03CD0:  MOVLW  7F
03CD2:  MOVWF  xC3
03CD4:  MOVFF  7C0,7C4
03CD8:  MOVLW  01
03CDA:  MOVWF  xC5
03CDC:  MOVWF  xC6
03CDE:  MOVLB  0
03CE0:  CALL   1AEC
....................       strcpy(Menus.Letra,palabra); 
03CE4:  MOVLB  7
03CE6:  MOVFF  7AE,01
03CEA:  MOVFF  7AF,03
03CEE:  MOVFF  7AE,7BF
03CF2:  MOVFF  7AF,7C0
03CF6:  MOVLW  07
03CF8:  MOVWF  FEA
03CFA:  MOVLW  89
03CFC:  MOVWF  FE9
03CFE:  MOVFF  7AF,FE2
03D02:  MOVFF  7AE,FE1
03D06:  MOVF   FE7,F
03D08:  MOVFF  FE6,FEE
03D0C:  BNZ   3D06
....................       glcd_text57(x+90, y+1, voltage, tamano, OFF); 
03D0E:  MOVLW  5A
03D10:  ADDWF  xB2,W
03D12:  MOVWF  xBF
03D14:  MOVLW  01
03D16:  ADDWF  xB3,W
03D18:  MOVWF  xC0
03D1A:  MOVFF  7BF,7C1
03D1E:  MOVWF  xC2
03D20:  MOVLW  07
03D22:  MOVWF  xC4
03D24:  MOVLW  B6
03D26:  MOVWF  xC3
03D28:  MOVFF  7B5,7C5
03D2C:  CLRF   xC6
03D2E:  MOVLB  0
03D30:  CALL   17F6
....................       glcd_text57(x+1, y+1, Menus.Letra, tamano, OFF); 
03D34:  MOVLW  01
03D36:  MOVLB  7
03D38:  ADDWF  xB2,W
03D3A:  MOVWF  xBF
03D3C:  MOVLW  01
03D3E:  ADDWF  xB3,W
03D40:  MOVWF  xC0
03D42:  MOVFF  7BF,7C1
03D46:  MOVWF  xC2
03D48:  MOVLW  07
03D4A:  MOVWF  xC4
03D4C:  MOVLW  89
03D4E:  MOVWF  xC3
03D50:  MOVFF  7B5,7C5
03D54:  CLRF   xC6
03D56:  MOVLB  0
03D58:  CALL   17F6
....................       strcpy(Menus.Letra,"C"); 
03D5C:  MOVLW  07
03D5E:  MOVWF  FEA
03D60:  MOVLW  89
03D62:  MOVWF  FE9
03D64:  MOVFF  FF2,7BF
03D68:  BCF    FF2.7
03D6A:  MOVLW  00
03D6C:  CALL   06D2
03D70:  TBLRD*-
03D72:  TBLRD*+
03D74:  MOVF   FF5,W
03D76:  MOVWF  FEE
03D78:  IORLW  00
03D7A:  BNZ   3D72
03D7C:  MOVLB  7
03D7E:  BTFSC  xBF.7
03D80:  BSF    FF2.7
....................       glcd_text57(x+120, y+1, Menus.Letra, tamano, OFF); 
03D82:  MOVLW  78
03D84:  ADDWF  xB2,W
03D86:  MOVWF  xBF
03D88:  MOVLW  01
03D8A:  ADDWF  xB3,W
03D8C:  MOVWF  xC0
03D8E:  MOVFF  7BF,7C1
03D92:  MOVWF  xC2
03D94:  MOVLW  07
03D96:  MOVWF  xC4
03D98:  MOVLW  89
03D9A:  MOVWF  xC3
03D9C:  MOVFF  7B5,7C5
03DA0:  CLRF   xC6
03DA2:  MOVLB  0
03DA4:  CALL   17F6
....................       glcd_circle(x+115,y-1,1,NO,OFF); 
03DA8:  MOVLW  73
03DAA:  MOVLB  7
03DAC:  ADDWF  xB2,W
03DAE:  MOVWF  xBF
03DB0:  MOVLW  01
03DB2:  SUBWF  xB3,W
03DB4:  MOVWF  xC0
03DB6:  MOVFF  7BF,7C1
03DBA:  MOVWF  xC2
03DBC:  MOVLW  01
03DBE:  MOVWF  xC3
03DC0:  CLRF   xC4
03DC2:  CLRF   xC5
03DC4:  MOVLB  0
03DC6:  RCALL  38E4
03DC8:  MOVLB  7
....................    } 
....................    if(sombreado==0) 
03DCA:  MOVF   xB4,F
03DCC:  BTFSS  FD8.2
03DCE:  BRA    3EFE
....................    { 
....................       sprintf(voltage, "%04Lu", digito); 
03DD0:  MOVLW  07
03DD2:  MOVWF  xA8
03DD4:  MOVLW  B6
03DD6:  MOVWF  xA7
03DD8:  MOVLW  09
03DDA:  MOVWF  FE9
03DDC:  MOVFF  7B1,7C0
03DE0:  MOVFF  7B0,7BF
03DE4:  MOVLB  0
03DE6:  RCALL  366E
....................       glcd_rect(0, y-2, 127, y+(tamano*8), YES, OFF); 
03DE8:  MOVLW  02
03DEA:  MOVLB  7
03DEC:  SUBWF  xB3,W
03DEE:  MOVWF  xBF
03DF0:  MOVF   xB5,W
03DF2:  MULLW  08
03DF4:  MOVF   FF3,W
03DF6:  ADDWF  xB3,W
03DF8:  MOVWF  xC0
03DFA:  CLRF   xC1
03DFC:  MOVFF  7BF,7C2
03E00:  MOVLW  7F
03E02:  MOVWF  xC3
03E04:  MOVFF  7C0,7C4
03E08:  MOVLW  01
03E0A:  MOVWF  xC5
03E0C:  CLRF   xC6
03E0E:  MOVLB  0
03E10:  CALL   1AEC
....................       strcpy(Menus.Letra,palabra); 
03E14:  MOVLB  7
03E16:  MOVFF  7AE,01
03E1A:  MOVFF  7AF,03
03E1E:  MOVFF  7AE,7BF
03E22:  MOVFF  7AF,7C0
03E26:  MOVLW  07
03E28:  MOVWF  FEA
03E2A:  MOVLW  89
03E2C:  MOVWF  FE9
03E2E:  MOVFF  7AF,FE2
03E32:  MOVFF  7AE,FE1
03E36:  MOVF   FE7,F
03E38:  MOVFF  FE6,FEE
03E3C:  BNZ   3E36
....................       glcd_text57(x+90, y+1, voltage, tamano, ON); 
03E3E:  MOVLW  5A
03E40:  ADDWF  xB2,W
03E42:  MOVWF  xBF
03E44:  MOVLW  01
03E46:  ADDWF  xB3,W
03E48:  MOVWF  xC0
03E4A:  MOVFF  7BF,7C1
03E4E:  MOVWF  xC2
03E50:  MOVLW  07
03E52:  MOVWF  xC4
03E54:  MOVLW  B6
03E56:  MOVWF  xC3
03E58:  MOVFF  7B5,7C5
03E5C:  MOVLW  01
03E5E:  MOVWF  xC6
03E60:  MOVLB  0
03E62:  CALL   17F6
....................       glcd_text57(x+1, y+1, Menus.Letra, tamano, ON); 
03E66:  MOVLW  01
03E68:  MOVLB  7
03E6A:  ADDWF  xB2,W
03E6C:  MOVWF  xBF
03E6E:  MOVLW  01
03E70:  ADDWF  xB3,W
03E72:  MOVWF  xC0
03E74:  MOVFF  7BF,7C1
03E78:  MOVWF  xC2
03E7A:  MOVLW  07
03E7C:  MOVWF  xC4
03E7E:  MOVLW  89
03E80:  MOVWF  xC3
03E82:  MOVFF  7B5,7C5
03E86:  MOVLW  01
03E88:  MOVWF  xC6
03E8A:  MOVLB  0
03E8C:  CALL   17F6
....................       strcpy(Menus.Letra,"C"); 
03E90:  MOVLW  07
03E92:  MOVWF  FEA
03E94:  MOVLW  89
03E96:  MOVWF  FE9
03E98:  MOVFF  FF2,7BF
03E9C:  BCF    FF2.7
03E9E:  MOVLW  00
03EA0:  CALL   06D2
03EA4:  TBLRD*-
03EA6:  TBLRD*+
03EA8:  MOVF   FF5,W
03EAA:  MOVWF  FEE
03EAC:  IORLW  00
03EAE:  BNZ   3EA6
03EB0:  MOVLB  7
03EB2:  BTFSC  xBF.7
03EB4:  BSF    FF2.7
....................       glcd_text57(x+120, y+1, Menus.Letra, tamano, ON); 
03EB6:  MOVLW  78
03EB8:  ADDWF  xB2,W
03EBA:  MOVWF  xBF
03EBC:  MOVLW  01
03EBE:  ADDWF  xB3,W
03EC0:  MOVWF  xC0
03EC2:  MOVFF  7BF,7C1
03EC6:  MOVWF  xC2
03EC8:  MOVLW  07
03ECA:  MOVWF  xC4
03ECC:  MOVLW  89
03ECE:  MOVWF  xC3
03ED0:  MOVFF  7B5,7C5
03ED4:  MOVLW  01
03ED6:  MOVWF  xC6
03ED8:  MOVLB  0
03EDA:  CALL   17F6
....................       glcd_circle(x+115,y-1,1,NO,ON); 
03EDE:  MOVLW  73
03EE0:  MOVLB  7
03EE2:  ADDWF  xB2,W
03EE4:  MOVWF  xBF
03EE6:  MOVLW  01
03EE8:  SUBWF  xB3,W
03EEA:  MOVWF  xC0
03EEC:  MOVFF  7BF,7C1
03EF0:  MOVWF  xC2
03EF2:  MOVLW  01
03EF4:  MOVWF  xC3
03EF6:  CLRF   xC4
03EF8:  MOVWF  xC5
03EFA:  MOVLB  0
03EFC:  RCALL  38E4
....................    } 
....................    glcd_update(); 
03EFE:  MOVLB  0
03F00:  CALL   15DA
.................... } 
03F04:  RETLW  00
....................  
.................... void displayTiempo(int digito, int x, int y, int sombreado, int tamano) 
.................... { 
....................    char voltage[9]; 
....................     
....................    if(sombreado==2) 
*
0333E:  MOVLB  7
03340:  MOVF   xAF,W
03342:  SUBLW  02
03344:  BNZ   33B6
....................    { 
....................       sprintf(voltage, "%03u", digito); 
03346:  MOVLW  07
03348:  MOVWF  xA8
0334A:  MOVLW  B1
0334C:  MOVWF  xA7
0334E:  MOVFF  7AC,7BA
03352:  MOVLW  03
03354:  MOVWF  xBB
03356:  MOVLB  0
03358:  RCALL  32B8
....................       glcd_rect(x, y, x+(tamano*18), y+(tamano*8), YES, ON); 
0335A:  MOVLB  7
0335C:  MOVF   xB0,W
0335E:  MULLW  12
03360:  MOVF   FF3,W
03362:  ADDWF  xAD,W
03364:  MOVWF  xBA
03366:  MOVF   xB0,W
03368:  MULLW  08
0336A:  MOVF   FF3,W
0336C:  ADDWF  xAE,W
0336E:  MOVWF  xBB
03370:  MOVFF  7AD,7C1
03374:  MOVFF  7AE,7C2
03378:  MOVFF  7BA,7C3
0337C:  MOVWF  xC4
0337E:  MOVLW  01
03380:  MOVWF  xC5
03382:  MOVWF  xC6
03384:  MOVLB  0
03386:  CALL   1AEC
....................       glcd_text57(x+1, y+1, voltage, tamano, OFF); 
0338A:  MOVLW  01
0338C:  MOVLB  7
0338E:  ADDWF  xAD,W
03390:  MOVWF  xBA
03392:  MOVLW  01
03394:  ADDWF  xAE,W
03396:  MOVWF  xBB
03398:  MOVFF  7BA,7C1
0339C:  MOVWF  xC2
0339E:  MOVLW  07
033A0:  MOVWF  xC4
033A2:  MOVLW  B1
033A4:  MOVWF  xC3
033A6:  MOVFF  7B0,7C5
033AA:  CLRF   xC6
033AC:  MOVLB  0
033AE:  CALL   17F6
....................    } 
....................    else 
033B2:  BRA    34FA
033B4:  MOVLB  7
....................    { 
....................       if(sombreado==3) 
033B6:  MOVF   xAF,W
033B8:  SUBLW  03
033BA:  BNZ   342C
....................       { 
....................          sprintf(voltage, "%03u", digito); 
033BC:  MOVLW  07
033BE:  MOVWF  xA8
033C0:  MOVLW  B1
033C2:  MOVWF  xA7
033C4:  MOVFF  7AC,7BA
033C8:  MOVLW  03
033CA:  MOVWF  xBB
033CC:  MOVLB  0
033CE:  RCALL  32B8
....................          glcd_rect(x, y, x+(tamano*18), y+(tamano*8), YES, OFF); 
033D0:  MOVLB  7
033D2:  MOVF   xB0,W
033D4:  MULLW  12
033D6:  MOVF   FF3,W
033D8:  ADDWF  xAD,W
033DA:  MOVWF  xBA
033DC:  MOVF   xB0,W
033DE:  MULLW  08
033E0:  MOVF   FF3,W
033E2:  ADDWF  xAE,W
033E4:  MOVWF  xBB
033E6:  MOVFF  7AD,7C1
033EA:  MOVFF  7AE,7C2
033EE:  MOVFF  7BA,7C3
033F2:  MOVWF  xC4
033F4:  MOVLW  01
033F6:  MOVWF  xC5
033F8:  CLRF   xC6
033FA:  MOVLB  0
033FC:  CALL   1AEC
....................          glcd_text57(x+1, y+1, voltage, tamano, ON); 
03400:  MOVLW  01
03402:  MOVLB  7
03404:  ADDWF  xAD,W
03406:  MOVWF  xBA
03408:  MOVLW  01
0340A:  ADDWF  xAE,W
0340C:  MOVWF  xBB
0340E:  MOVFF  7BA,7C1
03412:  MOVWF  xC2
03414:  MOVLW  07
03416:  MOVWF  xC4
03418:  MOVLW  B1
0341A:  MOVWF  xC3
0341C:  MOVFF  7B0,7C5
03420:  MOVLW  01
03422:  MOVWF  xC6
03424:  MOVLB  0
03426:  CALL   17F6
0342A:  MOVLB  7
....................       } 
....................       sprintf(voltage, "%u", digito); 
0342C:  MOVLW  07
0342E:  MOVWF  xA8
03430:  MOVLW  B1
03432:  MOVWF  xA7
03434:  MOVFF  7AC,7BA
03438:  MOVLW  1B
0343A:  MOVWF  xBB
0343C:  MOVLB  0
0343E:  RCALL  32B8
....................       if(sombreado==1) 
03440:  MOVLB  7
03442:  DECFSZ xAF,W
03444:  BRA    349E
....................          {glcd_rect(x, y, x+(tamano*5), y+(tamano*8), YES, ON);glcd_text57(x+1, y+1, voltage, tamano, OFF);} 
03446:  MOVF   xB0,W
03448:  MULLW  05
0344A:  MOVF   FF3,W
0344C:  ADDWF  xAD,W
0344E:  MOVWF  xBA
03450:  MOVF   xB0,W
03452:  MULLW  08
03454:  MOVF   FF3,W
03456:  ADDWF  xAE,W
03458:  MOVWF  xBB
0345A:  MOVFF  7AD,7C1
0345E:  MOVFF  7AE,7C2
03462:  MOVFF  7BA,7C3
03466:  MOVWF  xC4
03468:  MOVLW  01
0346A:  MOVWF  xC5
0346C:  MOVWF  xC6
0346E:  MOVLB  0
03470:  CALL   1AEC
03474:  MOVLW  01
03476:  MOVLB  7
03478:  ADDWF  xAD,W
0347A:  MOVWF  xBA
0347C:  MOVLW  01
0347E:  ADDWF  xAE,W
03480:  MOVWF  xBB
03482:  MOVFF  7BA,7C1
03486:  MOVWF  xC2
03488:  MOVLW  07
0348A:  MOVWF  xC4
0348C:  MOVLW  B1
0348E:  MOVWF  xC3
03490:  MOVFF  7B0,7C5
03494:  CLRF   xC6
03496:  MOVLB  0
03498:  CALL   17F6
0349C:  MOVLB  7
....................       if(sombreado==0) 
0349E:  MOVF   xAF,F
034A0:  BNZ   34FC
....................          {glcd_rect(x, y, x+(tamano*5), y+(tamano*8), YES, OFF);glcd_text57(x+1, y+1, voltage, tamano, ON);} 
034A2:  MOVF   xB0,W
034A4:  MULLW  05
034A6:  MOVF   FF3,W
034A8:  ADDWF  xAD,W
034AA:  MOVWF  xBA
034AC:  MOVF   xB0,W
034AE:  MULLW  08
034B0:  MOVF   FF3,W
034B2:  ADDWF  xAE,W
034B4:  MOVWF  xBB
034B6:  MOVFF  7AD,7C1
034BA:  MOVFF  7AE,7C2
034BE:  MOVFF  7BA,7C3
034C2:  MOVWF  xC4
034C4:  MOVLW  01
034C6:  MOVWF  xC5
034C8:  CLRF   xC6
034CA:  MOVLB  0
034CC:  CALL   1AEC
034D0:  MOVLW  01
034D2:  MOVLB  7
034D4:  ADDWF  xAD,W
034D6:  MOVWF  xBA
034D8:  MOVLW  01
034DA:  ADDWF  xAE,W
034DC:  MOVWF  xBB
034DE:  MOVFF  7BA,7C1
034E2:  MOVWF  xC2
034E4:  MOVLW  07
034E6:  MOVWF  xC4
034E8:  MOVLW  B1
034EA:  MOVWF  xC3
034EC:  MOVFF  7B0,7C5
034F0:  MOVLW  01
034F2:  MOVWF  xC6
034F4:  MOVLB  0
034F6:  CALL   17F6
034FA:  MOVLB  7
....................    } 
....................    glcd_update(); 
034FC:  MOVLB  0
034FE:  CALL   15DA
.................... } 
03502:  RETLW  00
....................  
.................... void displayTemperatura(int16 digito, int x, int y, int sombreado, int tamano) 
.................... { 
....................    char voltage[9]; 
....................     
....................    if(sombreado==2) 
*
0372C:  MOVLB  7
0372E:  MOVF   xB2,W
03730:  SUBLW  02
03732:  BNZ   37A8
....................    { 
....................       sprintf(voltage, "%04Lu", digito); 
03734:  MOVLW  07
03736:  MOVWF  xA8
03738:  MOVLW  B4
0373A:  MOVWF  xA7
0373C:  MOVLW  09
0373E:  MOVWF  FE9
03740:  MOVFF  7AF,7C0
03744:  MOVFF  7AE,7BF
03748:  MOVLB  0
0374A:  RCALL  366E
....................       glcd_rect(x, y, x+(tamano*18), y+(tamano*8), YES, ON); 
0374C:  MOVLB  7
0374E:  MOVF   xB3,W
03750:  MULLW  12
03752:  MOVF   FF3,W
03754:  ADDWF  xB0,W
03756:  MOVWF  xBD
03758:  MOVF   xB3,W
0375A:  MULLW  08
0375C:  MOVF   FF3,W
0375E:  ADDWF  xB1,W
03760:  MOVWF  xBE
03762:  MOVFF  7B0,7C1
03766:  MOVFF  7B1,7C2
0376A:  MOVFF  7BD,7C3
0376E:  MOVWF  xC4
03770:  MOVLW  01
03772:  MOVWF  xC5
03774:  MOVWF  xC6
03776:  MOVLB  0
03778:  CALL   1AEC
....................       glcd_text57(x+1, y+1, voltage, tamano, OFF); 
0377C:  MOVLW  01
0377E:  MOVLB  7
03780:  ADDWF  xB0,W
03782:  MOVWF  xBD
03784:  MOVLW  01
03786:  ADDWF  xB1,W
03788:  MOVWF  xBE
0378A:  MOVFF  7BD,7C1
0378E:  MOVWF  xC2
03790:  MOVLW  07
03792:  MOVWF  xC4
03794:  MOVLW  B4
03796:  MOVWF  xC3
03798:  MOVFF  7B3,7C5
0379C:  CLRF   xC6
0379E:  MOVLB  0
037A0:  CALL   17F6
....................    } 
....................    else 
037A4:  BRA    38DA
037A6:  MOVLB  7
....................    { 
....................       sprintf(voltage, "%04Lu", digito); 
037A8:  MOVLW  07
037AA:  MOVWF  xA8
037AC:  MOVLW  B4
037AE:  MOVWF  xA7
037B0:  MOVLW  09
037B2:  MOVWF  FE9
037B4:  MOVFF  7AF,7C0
037B8:  MOVFF  7AE,7BF
037BC:  MOVLB  0
037BE:  RCALL  366E
....................     
....................       if(sombreado==4) 
037C0:  MOVLB  7
037C2:  MOVF   xB2,W
037C4:  SUBLW  04
037C6:  BNZ   3822
....................       { 
....................          glcd_rect(x, y, x+(tamano*16), y+(tamano*8), YES, OFF); 
037C8:  MOVF   xB3,W
037CA:  MULLW  10
037CC:  MOVF   FF3,W
037CE:  ADDWF  xB0,W
037D0:  MOVWF  xBD
037D2:  MOVF   xB3,W
037D4:  MULLW  08
037D6:  MOVF   FF3,W
037D8:  ADDWF  xB1,W
037DA:  MOVWF  xBE
037DC:  MOVFF  7B0,7C1
037E0:  MOVFF  7B1,7C2
037E4:  MOVFF  7BD,7C3
037E8:  MOVWF  xC4
037EA:  MOVLW  01
037EC:  MOVWF  xC5
037EE:  CLRF   xC6
037F0:  MOVLB  0
037F2:  CALL   1AEC
....................          glcd_text57(x+1, y+1, voltage, tamano, ON); 
037F6:  MOVLW  01
037F8:  MOVLB  7
037FA:  ADDWF  xB0,W
037FC:  MOVWF  xBD
037FE:  MOVLW  01
03800:  ADDWF  xB1,W
03802:  MOVWF  xBE
03804:  MOVFF  7BD,7C1
03808:  MOVWF  xC2
0380A:  MOVLW  07
0380C:  MOVWF  xC4
0380E:  MOVLW  B4
03810:  MOVWF  xC3
03812:  MOVFF  7B3,7C5
03816:  MOVLW  01
03818:  MOVWF  xC6
0381A:  MOVLB  0
0381C:  CALL   17F6
03820:  MOVLB  7
....................       } 
....................       if(sombreado==1) 
03822:  DECFSZ xB2,W
03824:  BRA    387E
....................          {glcd_rect(x, y, x+(tamano*5), y+(tamano*8), YES, ON);glcd_text57(x+1, y+1, voltage, tamano, OFF);} 
03826:  MOVF   xB3,W
03828:  MULLW  05
0382A:  MOVF   FF3,W
0382C:  ADDWF  xB0,W
0382E:  MOVWF  xBD
03830:  MOVF   xB3,W
03832:  MULLW  08
03834:  MOVF   FF3,W
03836:  ADDWF  xB1,W
03838:  MOVWF  xBE
0383A:  MOVFF  7B0,7C1
0383E:  MOVFF  7B1,7C2
03842:  MOVFF  7BD,7C3
03846:  MOVWF  xC4
03848:  MOVLW  01
0384A:  MOVWF  xC5
0384C:  MOVWF  xC6
0384E:  MOVLB  0
03850:  CALL   1AEC
03854:  MOVLW  01
03856:  MOVLB  7
03858:  ADDWF  xB0,W
0385A:  MOVWF  xBD
0385C:  MOVLW  01
0385E:  ADDWF  xB1,W
03860:  MOVWF  xBE
03862:  MOVFF  7BD,7C1
03866:  MOVWF  xC2
03868:  MOVLW  07
0386A:  MOVWF  xC4
0386C:  MOVLW  B4
0386E:  MOVWF  xC3
03870:  MOVFF  7B3,7C5
03874:  CLRF   xC6
03876:  MOVLB  0
03878:  CALL   17F6
0387C:  MOVLB  7
....................       if(sombreado==0) 
0387E:  MOVF   xB2,F
03880:  BNZ   38DC
....................          {glcd_rect(x, y, x+(tamano*5), y+(tamano*8), YES, OFF);glcd_text57(x+1, y+1, voltage, tamano, ON);} 
03882:  MOVF   xB3,W
03884:  MULLW  05
03886:  MOVF   FF3,W
03888:  ADDWF  xB0,W
0388A:  MOVWF  xBD
0388C:  MOVF   xB3,W
0388E:  MULLW  08
03890:  MOVF   FF3,W
03892:  ADDWF  xB1,W
03894:  MOVWF  xBE
03896:  MOVFF  7B0,7C1
0389A:  MOVFF  7B1,7C2
0389E:  MOVFF  7BD,7C3
038A2:  MOVWF  xC4
038A4:  MOVLW  01
038A6:  MOVWF  xC5
038A8:  CLRF   xC6
038AA:  MOVLB  0
038AC:  CALL   1AEC
038B0:  MOVLW  01
038B2:  MOVLB  7
038B4:  ADDWF  xB0,W
038B6:  MOVWF  xBD
038B8:  MOVLW  01
038BA:  ADDWF  xB1,W
038BC:  MOVWF  xBE
038BE:  MOVFF  7BD,7C1
038C2:  MOVWF  xC2
038C4:  MOVLW  07
038C6:  MOVWF  xC4
038C8:  MOVLW  B4
038CA:  MOVWF  xC3
038CC:  MOVFF  7B3,7C5
038D0:  MOVLW  01
038D2:  MOVWF  xC6
038D4:  MOVLB  0
038D6:  CALL   17F6
038DA:  MOVLB  7
....................    } 
....................    glcd_update(); 
038DC:  MOVLB  0
038DE:  CALL   15DA
.................... } 
038E2:  RETLW  00
....................  
.................... void glcd_imagen(int8 x) 
.................... { 
....................    char i,j; 
....................    signed char k;  
....................     
....................    if(x==5){ 
*
04B0A:  MOVLB  7
04B0C:  MOVF   xA9,W
04B0E:  SUBLW  05
04B10:  BNZ   4BB6
....................    for( i = 0 ; i < 64 ; i ++ ) 
04B12:  CLRF   xAA
04B14:  MOVF   xAA,W
04B16:  SUBLW  3F
04B18:  BNC   4BB6
....................    {   
....................       for( j = 0 ; j < 16 ; j ++) 
04B1A:  CLRF   xAB
04B1C:  MOVF   xAB,W
04B1E:  SUBLW  0F
04B20:  BNC   4BB2
....................       {     
....................          for(k=7;k>-1;k--) 
04B22:  MOVLW  07
04B24:  MOVWF  xAC
04B26:  MOVF   xAC,W
04B28:  XORLW  80
04B2A:  SUBLW  7F
04B2C:  BC    4BAE
....................          {       
....................             if( bit_test(Horno[i][j] ,7-k ))  
04B2E:  CLRF   xAE
04B30:  MOVFF  7AA,7AD
04B34:  CLRF   xB0
04B36:  MOVLW  10
04B38:  MOVWF  xAF
04B3A:  MOVLB  0
04B3C:  CALL   2BA0
04B40:  MOVFF  02,7AE
04B44:  MOVFF  01,7AD
04B48:  MOVLB  7
04B4A:  MOVF   xAB,W
04B4C:  ADDWF  01,W
04B4E:  MOVWF  01
04B50:  MOVLW  00
04B52:  ADDWFC 02,W
04B54:  MOVWF  03
04B56:  MOVF   01,W
04B58:  MOVFF  FF2,7AD
04B5C:  BCF    FF2.7
04B5E:  MOVFF  03,FF7
04B62:  MOVLB  0
04B64:  CALL   02B6
04B68:  MOVLB  7
04B6A:  BTFSC  xAD.7
04B6C:  BSF    FF2.7
04B6E:  MOVWF  xAD
04B70:  MOVLW  07
04B72:  BSF    FD8.0
04B74:  SUBFWB xAC,W
04B76:  MOVWF  xAE
04B78:  MOVFF  7AD,00
04B7C:  MOVF   xAE,W
04B7E:  MOVWF  01
04B80:  BZ    4B8A
04B82:  BCF    FD8.0
04B84:  RRCF   00,F
04B86:  DECFSZ 01,F
04B88:  BRA    4B82
04B8A:  BTFSS  00.0
04B8C:  BRA    4BAA
....................                glcd_pixel( j*8+k,i, ON ); 
04B8E:  MOVF   xAB,W
04B90:  MULLW  08
04B92:  MOVF   FF3,W
04B94:  ADDWF  xAC,W
04B96:  MOVWF  xAD
04B98:  MOVWF  xDD
04B9A:  MOVFF  7AA,7DE
04B9E:  MOVLW  01
04BA0:  MOVWF  xDF
04BA2:  MOVLB  0
04BA4:  CALL   173A
04BA8:  MOVLB  7
....................          }   
04BAA:  DECF   xAC,F
04BAC:  BRA    4B26
....................       } 
04BAE:  INCF   xAB,F
04BB0:  BRA    4B1C
....................    } 
04BB2:  INCF   xAA,F
04BB4:  BRA    4B14
....................    } 
....................     
.................... } 
04BB6:  MOVLB  0
04BB8:  GOTO   91C2 (RETURN)
....................     
.................... void Limpia(int x1,int x2,int y){ 
....................    glcd_rect(x1, y, x2, y+7, YES, OFF); 
.................... } 
....................  
.................... void displayT(int16 adc,int x,int y,int w) { 
....................    char voltage[9];     
....................    sprintf(voltage, "%04Lu",adc); // Converts adc to text 
*
05F44:  MOVLW  07
05F46:  MOVLB  7
05F48:  MOVWF  xA8
05F4A:  MOVLW  B0
05F4C:  MOVWF  xA7
05F4E:  MOVLW  09
05F50:  MOVWF  FE9
05F52:  MOVFF  7AC,7C0
05F56:  MOVFF  7AB,7BF
05F5A:  MOVLB  0
05F5C:  CALL   366E
....................    glcd_rect(x, y, x+(w*27), y+(w*8), YES, OFF); 
05F60:  MOVLB  7
05F62:  MOVF   xAF,W
05F64:  MULLW  1B
05F66:  MOVF   FF3,W
05F68:  ADDWF  xAD,W
05F6A:  MOVWF  xB9
05F6C:  MOVF   xAF,W
05F6E:  MULLW  08
05F70:  MOVF   FF3,W
05F72:  ADDWF  xAE,W
05F74:  MOVWF  xBA
05F76:  MOVFF  7AD,7C1
05F7A:  MOVFF  7AE,7C2
05F7E:  MOVFF  7B9,7C3
05F82:  MOVWF  xC4
05F84:  MOVLW  01
05F86:  MOVWF  xC5
05F88:  CLRF   xC6
05F8A:  MOVLB  0
05F8C:  CALL   1AEC
....................    glcd_text57(x, y, voltage, w, ON); 
05F90:  MOVFF  7AD,7C1
05F94:  MOVFF  7AE,7C2
05F98:  MOVLW  07
05F9A:  MOVLB  7
05F9C:  MOVWF  xC4
05F9E:  MOVLW  B0
05FA0:  MOVWF  xC3
05FA2:  MOVFF  7AF,7C5
05FA6:  MOVLW  01
05FA8:  MOVWF  xC6
05FAA:  MOVLB  0
05FAC:  CALL   17F6
.................... } 
05FB0:  GOTO   A72E (RETURN)
....................  
.................... void displayFloat(float adc,int x,int y,int w) { 
....................    char voltage[9];     
....................    sprintf(voltage, "%03.1f",adc); // Converts adc to text 
*
0622E:  MOVLW  07
06230:  MOVLB  7
06232:  MOVWF  xA8
06234:  MOVLW  B0
06236:  MOVWF  xA7
06238:  MOVLW  42
0623A:  MOVWF  FE9
0623C:  MOVFF  7AC,7BC
06240:  MOVFF  7AB,7BB
06244:  MOVFF  7AA,7BA
06248:  MOVFF  7A9,7B9
0624C:  MOVLW  01
0624E:  MOVWF  xBD
06250:  MOVLB  0
06252:  BRA    6078
....................    glcd_rect(x, y, x+(w*27), y+(w*8), YES, OFF); 
06254:  MOVLB  7
06256:  MOVF   xAF,W
06258:  MULLW  1B
0625A:  MOVF   FF3,W
0625C:  ADDWF  xAD,W
0625E:  MOVWF  xB9
06260:  MOVF   xAF,W
06262:  MULLW  08
06264:  MOVF   FF3,W
06266:  ADDWF  xAE,W
06268:  MOVWF  xBA
0626A:  MOVFF  7AD,7C1
0626E:  MOVFF  7AE,7C2
06272:  MOVFF  7B9,7C3
06276:  MOVWF  xC4
06278:  MOVLW  01
0627A:  MOVWF  xC5
0627C:  CLRF   xC6
0627E:  MOVLB  0
06280:  CALL   1AEC
....................    glcd_text57(x, y, voltage, w, ON); 
06284:  MOVFF  7AD,7C1
06288:  MOVFF  7AE,7C2
0628C:  MOVLW  07
0628E:  MOVLB  7
06290:  MOVWF  xC4
06292:  MOVLW  B0
06294:  MOVWF  xC3
06296:  MOVFF  7AF,7C5
0629A:  MOVLW  01
0629C:  MOVWF  xC6
0629E:  MOVLB  0
062A0:  CALL   17F6
.................... } 
062A4:  GOTO   A9FE (RETURN)
....................  
.................... void displayContrasena(int digito, int x, int y, int sombreado) 
.................... { 
....................    char voltage[9]; 
....................    sprintf(voltage, "%i", digito); 
*
01E00:  MOVLW  07
01E02:  MOVLB  7
01E04:  MOVWF  xA8
01E06:  MOVLW  AF
01E08:  MOVWF  xA7
01E0A:  MOVFF  7AB,7B8
01E0E:  MOVLW  1F
01E10:  MOVWF  xB9
01E12:  MOVLB  0
01E14:  BRA    1D20
....................     
....................    if(sombreado==1) 
01E16:  MOVLB  7
01E18:  DECFSZ xAE,W
01E1A:  BRA    1E6A
....................       {glcd_rect(x, y, x+18, y+24, YES, ON);glcd_text57(x+2, y+1, voltage, 2, OFF);} 
01E1C:  MOVLW  12
01E1E:  ADDWF  xAC,W
01E20:  MOVWF  xB8
01E22:  MOVLW  18
01E24:  ADDWF  xAD,W
01E26:  MOVWF  xB9
01E28:  MOVFF  7AC,7C1
01E2C:  MOVFF  7AD,7C2
01E30:  MOVFF  7B8,7C3
01E34:  MOVWF  xC4
01E36:  MOVLW  01
01E38:  MOVWF  xC5
01E3A:  MOVWF  xC6
01E3C:  MOVLB  0
01E3E:  RCALL  1AEC
01E40:  MOVLW  02
01E42:  MOVLB  7
01E44:  ADDWF  xAC,W
01E46:  MOVWF  xB8
01E48:  MOVLW  01
01E4A:  ADDWF  xAD,W
01E4C:  MOVWF  xB9
01E4E:  MOVFF  7B8,7C1
01E52:  MOVWF  xC2
01E54:  MOVLW  07
01E56:  MOVWF  xC4
01E58:  MOVLW  AF
01E5A:  MOVWF  xC3
01E5C:  MOVLW  02
01E5E:  MOVWF  xC5
01E60:  CLRF   xC6
01E62:  MOVLB  0
01E64:  RCALL  17F6
....................    else    
01E66:  BRA    1EB4
01E68:  MOVLB  7
....................       {glcd_rect(x, y, x+18, y+24, NO, OFF);glcd_text57(x+2, y+1, voltage, 2, ON);} 
01E6A:  MOVLW  12
01E6C:  ADDWF  xAC,W
01E6E:  MOVWF  xB8
01E70:  MOVLW  18
01E72:  ADDWF  xAD,W
01E74:  MOVWF  xB9
01E76:  MOVFF  7AC,7C1
01E7A:  MOVFF  7AD,7C2
01E7E:  MOVFF  7B8,7C3
01E82:  MOVWF  xC4
01E84:  CLRF   xC5
01E86:  CLRF   xC6
01E88:  MOVLB  0
01E8A:  RCALL  1AEC
01E8C:  MOVLW  02
01E8E:  MOVLB  7
01E90:  ADDWF  xAC,W
01E92:  MOVWF  xB8
01E94:  MOVLW  01
01E96:  ADDWF  xAD,W
01E98:  MOVWF  xB9
01E9A:  MOVFF  7B8,7C1
01E9E:  MOVWF  xC2
01EA0:  MOVLW  07
01EA2:  MOVWF  xC4
01EA4:  MOVLW  AF
01EA6:  MOVWF  xC3
01EA8:  MOVLW  02
01EAA:  MOVWF  xC5
01EAC:  MOVLW  01
01EAE:  MOVWF  xC6
01EB0:  MOVLB  0
01EB2:  RCALL  17F6
....................  
.................... } 
01EB4:  RETLW  00
....................  
.................... void MuestraSegmento(int8 Opcio,int8 l,int8 Prog ){ 
....................          if(Temperatura1[l+((Prog-1)*10)]>1200) 
*
03F06:  MOVLW  01
03F08:  MOVLB  7
03F0A:  SUBWF  xAB,W
03F0C:  MULLW  0A
03F0E:  MOVF   FF3,W
03F10:  ADDWF  xAA,W
03F12:  MOVWF  00
03F14:  BCF    FD8.0
03F16:  RLCF   00,F
03F18:  MOVF   00,W
03F1A:  CLRF   03
03F1C:  ADDLW  5D
03F1E:  MOVWF  FE9
03F20:  MOVLW  06
03F22:  ADDWFC 03,W
03F24:  MOVWF  FEA
03F26:  MOVFF  FEC,7AD
03F2A:  MOVF   FED,F
03F2C:  MOVFF  FEF,7AC
03F30:  BTFSC  xAD.7
03F32:  BRA    3F68
03F34:  MOVF   xAD,W
03F36:  SUBLW  03
03F38:  BC    3F68
03F3A:  XORLW  FF
03F3C:  BNZ   3F44
03F3E:  MOVF   xAC,W
03F40:  SUBLW  B0
03F42:  BC    3F68
....................             Temperatura1[l+((Prog-1)*10)]=0; 
03F44:  MOVLW  01
03F46:  SUBWF  xAB,W
03F48:  MULLW  0A
03F4A:  MOVF   FF3,W
03F4C:  ADDWF  xAA,W
03F4E:  MOVWF  00
03F50:  BCF    FD8.0
03F52:  RLCF   00,F
03F54:  MOVF   00,W
03F56:  CLRF   03
03F58:  ADDLW  5D
03F5A:  MOVWF  FE9
03F5C:  MOVLW  06
03F5E:  ADDWFC 03,W
03F60:  MOVWF  FEA
03F62:  CLRF   FEC
03F64:  MOVF   FED,F
03F66:  CLRF   FEF
....................                     
....................          strcpy(Menus.Letra,"P 0"); 
03F68:  MOVLW  07
03F6A:  MOVWF  FEA
03F6C:  MOVLW  89
03F6E:  MOVWF  FE9
03F70:  MOVFF  FF2,7AC
03F74:  BCF    FF2.7
03F76:  MOVLW  00
03F78:  MOVLB  0
03F7A:  CALL   06F2
03F7E:  TBLRD*-
03F80:  TBLRD*+
03F82:  MOVF   FF5,W
03F84:  MOVWF  FEE
03F86:  IORLW  00
03F88:  BNZ   3F80
03F8A:  MOVLB  7
03F8C:  BTFSC  xAC.7
03F8E:  BSF    FF2.7
....................          displayMenu(Menus.Letra,30,0,1,2); 
03F90:  MOVLW  07
03F92:  MOVWF  xAD
03F94:  MOVLW  89
03F96:  MOVWF  xAC
03F98:  MOVLW  1E
03F9A:  MOVWF  xAE
03F9C:  CLRF   xAF
03F9E:  MOVLW  01
03FA0:  MOVWF  xB0
03FA2:  MOVLW  02
03FA4:  MOVWF  xB1
03FA6:  MOVLB  0
03FA8:  CALL   1BAE
....................          displayTiempo(Prog,68,0,1,2); 
03FAC:  MOVFF  7AB,7AC
03FB0:  MOVLW  44
03FB2:  MOVLB  7
03FB4:  MOVWF  xAD
03FB6:  CLRF   xAE
03FB8:  MOVLW  01
03FBA:  MOVWF  xAF
03FBC:  MOVLW  02
03FBE:  MOVWF  xB0
03FC0:  MOVLB  0
03FC2:  CALL   333E
....................           
....................          strcpy(Menus.Letra,"Segmento 0"); 
03FC6:  MOVLW  07
03FC8:  MOVWF  FEA
03FCA:  MOVLW  89
03FCC:  MOVWF  FE9
03FCE:  MOVFF  FF2,7AC
03FD2:  BCF    FF2.7
03FD4:  MOVLW  00
03FD6:  CALL   0714
03FDA:  TBLRD*-
03FDC:  TBLRD*+
03FDE:  MOVF   FF5,W
03FE0:  MOVWF  FEE
03FE2:  IORLW  00
03FE4:  BNZ   3FDC
03FE6:  MOVLB  7
03FE8:  BTFSC  xAC.7
03FEA:  BSF    FF2.7
....................          displayMenu(Menus.Letra,0,20,1,1); 
03FEC:  MOVLW  07
03FEE:  MOVWF  xAD
03FF0:  MOVLW  89
03FF2:  MOVWF  xAC
03FF4:  CLRF   xAE
03FF6:  MOVLW  14
03FF8:  MOVWF  xAF
03FFA:  MOVLW  01
03FFC:  MOVWF  xB0
03FFE:  MOVWF  xB1
04000:  MOVLB  0
04002:  CALL   1BAE
....................          displayTiempo(l,63,20,1,1); 
04006:  MOVFF  7AA,7AC
0400A:  MOVLW  3F
0400C:  MOVLB  7
0400E:  MOVWF  xAD
04010:  MOVLW  14
04012:  MOVWF  xAE
04014:  MOVLW  01
04016:  MOVWF  xAF
04018:  MOVWF  xB0
0401A:  MOVLB  0
0401C:  CALL   333E
....................           
....................          strcpy(Menus.Letra,"TA:"); 
04020:  MOVLW  07
04022:  MOVWF  FEA
04024:  MOVLW  89
04026:  MOVWF  FE9
04028:  MOVFF  FF2,7AC
0402C:  BCF    FF2.7
0402E:  MOVLW  00
04030:  CALL   073E
04034:  TBLRD*-
04036:  TBLRD*+
04038:  MOVF   FF5,W
0403A:  MOVWF  FEE
0403C:  IORLW  00
0403E:  BNZ   4036
04040:  MOVLB  7
04042:  BTFSC  xAC.7
04044:  BSF    FF2.7
....................          displayMenu(Menus.Letra,80,20,3,1); 
04046:  MOVLW  07
04048:  MOVWF  xAD
0404A:  MOVLW  89
0404C:  MOVWF  xAC
0404E:  MOVLW  50
04050:  MOVWF  xAE
04052:  MOVLW  14
04054:  MOVWF  xAF
04056:  MOVLW  03
04058:  MOVWF  xB0
0405A:  MOVLW  01
0405C:  MOVWF  xB1
0405E:  MOVLB  0
04060:  CALL   1BAE
....................           
....................          if(l>0) 
04064:  MOVLB  7
04066:  MOVF   xAA,F
04068:  BZ    40B6
....................             displayTemperatura(Temperatura1[l-1+((Prog-1)*10)],100,20,1,1); 
0406A:  MOVLW  01
0406C:  SUBWF  xAA,W
0406E:  MOVWF  xAC
04070:  MOVLW  01
04072:  SUBWF  xAB,W
04074:  MULLW  0A
04076:  MOVF   FF3,W
04078:  ADDWF  xAC,W
0407A:  MOVWF  00
0407C:  BCF    FD8.0
0407E:  RLCF   00,F
04080:  MOVF   00,W
04082:  CLRF   03
04084:  ADDLW  5D
04086:  MOVWF  FE9
04088:  MOVLW  06
0408A:  ADDWFC 03,W
0408C:  MOVWF  FEA
0408E:  MOVFF  FEC,7AD
04092:  MOVF   FED,F
04094:  MOVFF  FEF,7AC
04098:  MOVFF  7AD,7AF
0409C:  MOVFF  7AC,7AE
040A0:  MOVLW  64
040A2:  MOVWF  xB0
040A4:  MOVLW  14
040A6:  MOVWF  xB1
040A8:  MOVLW  01
040AA:  MOVWF  xB2
040AC:  MOVWF  xB3
040AE:  MOVLB  0
040B0:  CALL   372C
040B4:  MOVLB  7
....................           
....................          if(Opcio==1){ 
040B6:  DECFSZ xA9,W
040B8:  BRA    44A8
....................             strcpy(Menus.Letra,"Temperatura:"); 
040BA:  MOVLW  07
040BC:  MOVWF  FEA
040BE:  MOVLW  89
040C0:  MOVWF  FE9
040C2:  MOVFF  FF2,7AC
040C6:  BCF    FF2.7
040C8:  MOVLW  00
040CA:  MOVLB  0
040CC:  CALL   0760
040D0:  TBLRD*-
040D2:  TBLRD*+
040D4:  MOVF   FF5,W
040D6:  MOVWF  FEE
040D8:  IORLW  00
040DA:  BNZ   40D2
040DC:  MOVLB  7
040DE:  BTFSC  xAC.7
040E0:  BSF    FF2.7
....................             displayTemps(Menus.Letra,Temperatura1[l+((Prog-1)*10)],0,32,1,1); 
040E2:  MOVLW  01
040E4:  SUBWF  xAB,W
040E6:  MULLW  0A
040E8:  MOVF   FF3,W
040EA:  ADDWF  xAA,W
040EC:  MOVWF  00
040EE:  BCF    FD8.0
040F0:  RLCF   00,F
040F2:  MOVF   00,W
040F4:  CLRF   03
040F6:  ADDLW  5D
040F8:  MOVWF  FE9
040FA:  MOVLW  06
040FC:  ADDWFC 03,W
040FE:  MOVWF  FEA
04100:  MOVFF  FEC,7AD
04104:  MOVF   FED,F
04106:  MOVFF  FEF,7AC
0410A:  MOVLW  07
0410C:  MOVWF  xAF
0410E:  MOVLW  89
04110:  MOVWF  xAE
04112:  MOVFF  7AD,7B1
04116:  MOVFF  7AC,7B0
0411A:  CLRF   xB2
0411C:  MOVLW  20
0411E:  MOVWF  xB3
04120:  MOVLW  01
04122:  MOVWF  xB4
04124:  MOVWF  xB5
04126:  MOVLB  0
04128:  RCALL  3B0E
....................             strcpy(Menus.Letra,"Horas:"); 
0412A:  MOVLW  07
0412C:  MOVWF  FEA
0412E:  MOVLW  89
04130:  MOVWF  FE9
04132:  MOVFF  FF2,7AC
04136:  BCF    FF2.7
04138:  MOVLW  00
0413A:  CALL   078C
0413E:  TBLRD*-
04140:  TBLRD*+
04142:  MOVF   FF5,W
04144:  MOVWF  FEE
04146:  IORLW  00
04148:  BNZ   4140
0414A:  MOVLB  7
0414C:  BTFSC  xAC.7
0414E:  BSF    FF2.7
....................             displayTemps(Menus.Letra,Horas1[l+((Prog-1)*10)],0,44,10,1); 
04150:  MOVLW  01
04152:  SUBWF  xAB,W
04154:  MULLW  0A
04156:  MOVF   FF3,W
04158:  ADDWF  xAA,W
0415A:  MOVWF  00
0415C:  BCF    FD8.0
0415E:  RLCF   00,F
04160:  MOVF   00,W
04162:  CLRF   03
04164:  ADDLW  C1
04166:  MOVWF  FE9
04168:  MOVLW  06
0416A:  ADDWFC 03,W
0416C:  MOVWF  FEA
0416E:  MOVFF  FEC,7AD
04172:  MOVF   FED,F
04174:  MOVFF  FEF,7AC
04178:  MOVLW  07
0417A:  MOVWF  xAF
0417C:  MOVLW  89
0417E:  MOVWF  xAE
04180:  MOVFF  7AD,7B1
04184:  MOVFF  7AC,7B0
04188:  CLRF   xB2
0418A:  MOVLW  2C
0418C:  MOVWF  xB3
0418E:  MOVLW  0A
04190:  MOVWF  xB4
04192:  MOVLW  01
04194:  MOVWF  xB5
04196:  MOVLB  0
04198:  RCALL  3B0E
....................             strcpy(Menus.Letra,"Minutos:"); 
0419A:  MOVLW  07
0419C:  MOVWF  FEA
0419E:  MOVLW  89
041A0:  MOVWF  FE9
041A2:  MOVFF  FF2,7AC
041A6:  BCF    FF2.7
041A8:  MOVLW  00
041AA:  CALL   07B2
041AE:  TBLRD*-
041B0:  TBLRD*+
041B2:  MOVF   FF5,W
041B4:  MOVWF  FEE
041B6:  IORLW  00
041B8:  BNZ   41B0
041BA:  MOVLB  7
041BC:  BTFSC  xAC.7
041BE:  BSF    FF2.7
....................             displayTemps(Menus.Letra,Minutos1[l+((Prog-1)*10)],0,55,10,1); 
041C0:  MOVLW  01
041C2:  SUBWF  xAB,W
041C4:  MULLW  0A
041C6:  MOVF   FF3,W
041C8:  ADDWF  xAA,W
041CA:  MOVWF  00
041CC:  BCF    FD8.0
041CE:  RLCF   00,F
041D0:  MOVF   00,W
041D2:  CLRF   03
041D4:  ADDLW  25
041D6:  MOVWF  FE9
041D8:  MOVLW  07
041DA:  ADDWFC 03,W
041DC:  MOVWF  FEA
041DE:  MOVFF  FEC,7AD
041E2:  MOVF   FED,F
041E4:  MOVFF  FEF,7AC
041E8:  MOVLW  07
041EA:  MOVWF  xAF
041EC:  MOVLW  89
041EE:  MOVWF  xAE
041F0:  MOVFF  7AD,7B1
041F4:  MOVFF  7AC,7B0
041F8:  CLRF   xB2
041FA:  MOVLW  37
041FC:  MOVWF  xB3
041FE:  MOVLW  0A
04200:  MOVWF  xB4
04202:  MOVLW  01
04204:  MOVWF  xB5
04206:  MOVLB  0
04208:  RCALL  3B0E
....................             if(UP)//Si oprime hacia arriba 
0420A:  BSF    F92.5
0420C:  BTFSC  F80.5
0420E:  BRA    4358
....................             { 
....................                Buzz_on;delay_ms(10);Buzz_off; 
04210:  BSF    F8B.7
04212:  BCF    F94.7
04214:  MOVLW  0A
04216:  MOVLB  7
04218:  MOVWF  xAF
0421A:  MOVLB  0
0421C:  CALL   1500
04220:  BCF    F8B.7
04222:  BCF    F94.7
....................                if(tiempoup<4){ 
04224:  MOVLB  5
04226:  MOVF   x90,W
04228:  SUBLW  03
0422A:  BNC   425A
....................                   flagup=1; 
0422C:  BSF    x87.0
....................                   Temperatura1[l+((Prog-1)*10)]++; 
0422E:  MOVLW  01
04230:  MOVLB  7
04232:  SUBWF  xAB,W
04234:  MULLW  0A
04236:  MOVF   FF3,W
04238:  ADDWF  xAA,W
0423A:  MOVWF  00
0423C:  BCF    FD8.0
0423E:  RLCF   00,F
04240:  MOVF   00,W
04242:  CLRF   03
04244:  ADDLW  5D
04246:  MOVWF  FE9
04248:  MOVLW  06
0424A:  ADDWFC 03,W
0424C:  MOVWF  FEA
0424E:  MOVLW  01
04250:  ADDWF  FEE,F
04252:  BNC   4256
04254:  INCF   FEF,F
....................                } 
....................                else{ 
04256:  BRA    428E
04258:  MOVLB  5
....................                   flagup=0; 
0425A:  BCF    x87.0
....................                   Temperatura1[l+((Prog-1)*10)]+=10; 
0425C:  MOVLW  01
0425E:  MOVLB  7
04260:  SUBWF  xAB,W
04262:  MULLW  0A
04264:  MOVF   FF3,W
04266:  ADDWF  xAA,W
04268:  MOVWF  00
0426A:  BCF    FD8.0
0426C:  RLCF   00,F
0426E:  MOVF   00,W
04270:  CLRF   03
04272:  ADDLW  5D
04274:  MOVWF  FE9
04276:  MOVLW  06
04278:  ADDWFC 03,W
0427A:  MOVWF  FEA
0427C:  MOVLW  0A
0427E:  ADDWF  FEF,W
04280:  MOVWF  01
04282:  MOVLW  00
04284:  ADDWFC FEC,W
04286:  MOVF   FED,F
04288:  MOVFF  01,FEF
0428C:  MOVWF  FEC
....................                }  
....................                if(l<9) 
0428E:  MOVF   xAA,W
04290:  SUBLW  08
04292:  BNC   42F4
....................                   Temperatura1[l+1+((Prog-1)*10)]=Temperatura1[l+((Prog-1)*10)];  
04294:  MOVLW  01
04296:  ADDWF  xAA,W
04298:  MOVWF  xAC
0429A:  MOVLW  01
0429C:  SUBWF  xAB,W
0429E:  MULLW  0A
042A0:  MOVF   FF3,W
042A2:  ADDWF  xAC,W
042A4:  MOVWF  00
042A6:  BCF    FD8.0
042A8:  RLCF   00,F
042AA:  MOVF   00,W
042AC:  CLRF   03
042AE:  ADDLW  5D
042B0:  MOVWF  01
042B2:  MOVLW  06
042B4:  ADDWFC 03,F
042B6:  MOVFF  03,7AD
042BA:  MOVLW  01
042BC:  SUBWF  xAB,W
042BE:  MULLW  0A
042C0:  MOVF   FF3,W
042C2:  ADDWF  xAA,W
042C4:  MOVWF  00
042C6:  BCF    FD8.0
042C8:  RLCF   00,F
042CA:  MOVF   00,W
042CC:  CLRF   03
042CE:  ADDLW  5D
042D0:  MOVWF  FE9
042D2:  MOVLW  06
042D4:  ADDWFC 03,W
042D6:  MOVWF  FEA
042D8:  MOVFF  FEC,03
042DC:  MOVF   FED,F
042DE:  MOVFF  FEF,7AE
042E2:  MOVFF  7AD,FEA
042E6:  MOVFF  01,FE9
042EA:  MOVFF  03,FEC
042EE:  MOVF   FED,F
042F0:  MOVFF  7AE,FEF
....................                    
....................                if(Temperatura1[l+((Prog-1)*10)]>1200) 
042F4:  MOVLW  01
042F6:  SUBWF  xAB,W
042F8:  MULLW  0A
042FA:  MOVF   FF3,W
042FC:  ADDWF  xAA,W
042FE:  MOVWF  00
04300:  BCF    FD8.0
04302:  RLCF   00,F
04304:  MOVF   00,W
04306:  CLRF   03
04308:  ADDLW  5D
0430A:  MOVWF  FE9
0430C:  MOVLW  06
0430E:  ADDWFC 03,W
04310:  MOVWF  FEA
04312:  MOVFF  FEC,7AD
04316:  MOVF   FED,F
04318:  MOVFF  FEF,7AC
0431C:  BTFSC  xAD.7
0431E:  BRA    4354
04320:  MOVF   xAD,W
04322:  SUBLW  03
04324:  BC    4354
04326:  XORLW  FF
04328:  BNZ   4330
0432A:  MOVF   xAC,W
0432C:  SUBLW  B0
0432E:  BC    4354
....................                   Temperatura1[l+((Prog-1)*10)]=0; 
04330:  MOVLW  01
04332:  SUBWF  xAB,W
04334:  MULLW  0A
04336:  MOVF   FF3,W
04338:  ADDWF  xAA,W
0433A:  MOVWF  00
0433C:  BCF    FD8.0
0433E:  RLCF   00,F
04340:  MOVF   00,W
04342:  CLRF   03
04344:  ADDLW  5D
04346:  MOVWF  FE9
04348:  MOVLW  06
0434A:  ADDWFC 03,W
0434C:  MOVWF  FEA
0434E:  CLRF   FEC
04350:  MOVF   FED,F
04352:  CLRF   FEF
....................             } 
....................             else 
04354:  BRA    4360
04356:  MOVLB  0
....................             { 
....................                flagup=0;tiempoup=0; 
04358:  MOVLB  5
0435A:  BCF    x87.0
0435C:  CLRF   x90
0435E:  MOVLB  7
....................             } 
....................                       
....................             if(DOWN)//Si oprime hacia abajo 
04360:  BSF    F96.0
04362:  BTFSC  F84.0
04364:  BRA    44A0
....................             { 
....................                Buzz_on;delay_ms(10);Buzz_off; 
04366:  BSF    F8B.7
04368:  BCF    F94.7
0436A:  MOVLW  0A
0436C:  MOVWF  xAF
0436E:  MOVLB  0
04370:  CALL   1500
04374:  BCF    F8B.7
04376:  BCF    F94.7
....................                if(tiempodn<4){ 
04378:  MOVLB  5
0437A:  MOVF   x91,W
0437C:  SUBLW  03
0437E:  BNC   43B0
....................                   flagdn=1; 
04380:  BSF    x87.1
....................                   Temperatura1[l+((Prog-1)*10)]--; 
04382:  MOVLW  01
04384:  MOVLB  7
04386:  SUBWF  xAB,W
04388:  MULLW  0A
0438A:  MOVF   FF3,W
0438C:  ADDWF  xAA,W
0438E:  MOVWF  00
04390:  BCF    FD8.0
04392:  RLCF   00,F
04394:  MOVF   00,W
04396:  CLRF   03
04398:  ADDLW  5D
0439A:  MOVWF  FE9
0439C:  MOVLW  06
0439E:  ADDWFC 03,W
043A0:  MOVWF  FEA
043A2:  MOVLW  FF
043A4:  ADDWF  FEF,F
043A6:  BC    43AC
043A8:  MOVF   FEE,F
043AA:  DECF   FED,F
....................                } 
....................                else{ 
043AC:  BRA    43E8
043AE:  MOVLB  5
....................                   flagdn=0; 
043B0:  BCF    x87.1
....................                   Temperatura1[l+((Prog-1)*10)]-=10; 
043B2:  MOVLW  01
043B4:  MOVLB  7
043B6:  SUBWF  xAB,W
043B8:  MULLW  0A
043BA:  MOVF   FF3,W
043BC:  ADDWF  xAA,W
043BE:  MOVWF  00
043C0:  BCF    FD8.0
043C2:  RLCF   00,F
043C4:  MOVF   00,W
043C6:  CLRF   03
043C8:  ADDLW  5D
043CA:  MOVWF  FE9
043CC:  MOVLW  06
043CE:  ADDWFC 03,W
043D0:  MOVWF  FEA
043D2:  MOVLW  0A
043D4:  SUBWF  FEF,W
043D6:  MOVWF  00
043D8:  MOVLW  00
043DA:  SUBWFB FEC,W
043DC:  MOVWF  03
043DE:  MOVF   00,W
043E0:  MOVF   FED,F
043E2:  MOVWF  FEF
043E4:  MOVFF  03,FEC
....................                } 
....................                Temperatura1[l+1+((Prog-1)*10)]=Temperatura1[l+((Prog-1)*10)];  
043E8:  MOVLW  01
043EA:  ADDWF  xAA,W
043EC:  MOVWF  xAC
043EE:  MOVLW  01
043F0:  SUBWF  xAB,W
043F2:  MULLW  0A
043F4:  MOVF   FF3,W
043F6:  ADDWF  xAC,W
043F8:  MOVWF  00
043FA:  BCF    FD8.0
043FC:  RLCF   00,F
043FE:  MOVF   00,W
04400:  CLRF   03
04402:  ADDLW  5D
04404:  MOVWF  01
04406:  MOVLW  06
04408:  ADDWFC 03,F
0440A:  MOVFF  03,7AD
0440E:  MOVLW  01
04410:  SUBWF  xAB,W
04412:  MULLW  0A
04414:  MOVF   FF3,W
04416:  ADDWF  xAA,W
04418:  MOVWF  00
0441A:  BCF    FD8.0
0441C:  RLCF   00,F
0441E:  MOVF   00,W
04420:  CLRF   03
04422:  ADDLW  5D
04424:  MOVWF  FE9
04426:  MOVLW  06
04428:  ADDWFC 03,W
0442A:  MOVWF  FEA
0442C:  MOVFF  FEC,03
04430:  MOVF   FED,F
04432:  MOVFF  FEF,7AE
04436:  MOVFF  7AD,FEA
0443A:  MOVFF  01,FE9
0443E:  MOVFF  03,FEC
04442:  MOVF   FED,F
04444:  MOVFF  7AE,FEF
....................                 
....................                if(Temperatura1[l+((Prog-1)*10)]<0) 
04448:  MOVLW  01
0444A:  SUBWF  xAB,W
0444C:  MULLW  0A
0444E:  MOVF   FF3,W
04450:  ADDWF  xAA,W
04452:  MOVWF  00
04454:  BCF    FD8.0
04456:  RLCF   00,F
04458:  MOVF   00,W
0445A:  CLRF   03
0445C:  ADDLW  5D
0445E:  MOVWF  FE9
04460:  MOVLW  06
04462:  ADDWFC 03,W
04464:  MOVWF  FEA
04466:  MOVFF  FEC,7AD
0446A:  MOVF   FED,F
0446C:  MOVFF  FEF,7AC
04470:  BTFSC  xAD.7
04472:  BRA    4476
04474:  BRA    449E
....................                   Temperatura1[l+((Prog-1)*10)]=1200; 
04476:  MOVLW  01
04478:  SUBWF  xAB,W
0447A:  MULLW  0A
0447C:  MOVF   FF3,W
0447E:  ADDWF  xAA,W
04480:  MOVWF  00
04482:  BCF    FD8.0
04484:  RLCF   00,F
04486:  MOVF   00,W
04488:  CLRF   03
0448A:  ADDLW  5D
0448C:  MOVWF  FE9
0448E:  MOVLW  06
04490:  ADDWFC 03,W
04492:  MOVWF  FEA
04494:  MOVLW  04
04496:  MOVWF  FEC
04498:  MOVF   FED,F
0449A:  MOVLW  B0
0449C:  MOVWF  FEF
....................             } 
....................             else{ 
0449E:  BRA    44A8
....................                flagdn=0;tiempodn=0; 
044A0:  MOVLB  5
044A2:  BCF    x87.1
044A4:  CLRF   x91
044A6:  MOVLB  7
....................             } 
....................          } 
....................           
....................          if(Opcio==2){ 
044A8:  MOVF   xA9,W
044AA:  SUBLW  02
044AC:  BTFSS  FD8.2
044AE:  BRA    47D6
....................             strcpy(Menus.Letra,"Temperatura:"); 
044B0:  MOVLW  07
044B2:  MOVWF  FEA
044B4:  MOVLW  89
044B6:  MOVWF  FE9
044B8:  MOVFF  FF2,7AC
044BC:  BCF    FF2.7
044BE:  MOVLW  00
044C0:  MOVLB  0
044C2:  CALL   0760
044C6:  TBLRD*-
044C8:  TBLRD*+
044CA:  MOVF   FF5,W
044CC:  MOVWF  FEE
044CE:  IORLW  00
044D0:  BNZ   44C8
044D2:  MOVLB  7
044D4:  BTFSC  xAC.7
044D6:  BSF    FF2.7
....................             displayTemps(Menus.Letra,Temperatura1[l+((Prog-1)*10)],0,32,0,1); 
044D8:  MOVLW  01
044DA:  SUBWF  xAB,W
044DC:  MULLW  0A
044DE:  MOVF   FF3,W
044E0:  ADDWF  xAA,W
044E2:  MOVWF  00
044E4:  BCF    FD8.0
044E6:  RLCF   00,F
044E8:  MOVF   00,W
044EA:  CLRF   03
044EC:  ADDLW  5D
044EE:  MOVWF  FE9
044F0:  MOVLW  06
044F2:  ADDWFC 03,W
044F4:  MOVWF  FEA
044F6:  MOVFF  FEC,7AD
044FA:  MOVF   FED,F
044FC:  MOVFF  FEF,7AC
04500:  MOVLW  07
04502:  MOVWF  xAF
04504:  MOVLW  89
04506:  MOVWF  xAE
04508:  MOVFF  7AD,7B1
0450C:  MOVFF  7AC,7B0
04510:  CLRF   xB2
04512:  MOVLW  20
04514:  MOVWF  xB3
04516:  CLRF   xB4
04518:  MOVLW  01
0451A:  MOVWF  xB5
0451C:  MOVLB  0
0451E:  CALL   3B0E
....................             strcpy(Menus.Letra,"Horas:"); 
04522:  MOVLW  07
04524:  MOVWF  FEA
04526:  MOVLW  89
04528:  MOVWF  FE9
0452A:  MOVFF  FF2,7AC
0452E:  BCF    FF2.7
04530:  MOVLW  00
04532:  CALL   078C
04536:  TBLRD*-
04538:  TBLRD*+
0453A:  MOVF   FF5,W
0453C:  MOVWF  FEE
0453E:  IORLW  00
04540:  BNZ   4538
04542:  MOVLB  7
04544:  BTFSC  xAC.7
04546:  BSF    FF2.7
....................             displayTemps(Menus.Letra,Horas1[l+((Prog-1)*10)],0,44,11,1); 
04548:  MOVLW  01
0454A:  SUBWF  xAB,W
0454C:  MULLW  0A
0454E:  MOVF   FF3,W
04550:  ADDWF  xAA,W
04552:  MOVWF  00
04554:  BCF    FD8.0
04556:  RLCF   00,F
04558:  MOVF   00,W
0455A:  CLRF   03
0455C:  ADDLW  C1
0455E:  MOVWF  FE9
04560:  MOVLW  06
04562:  ADDWFC 03,W
04564:  MOVWF  FEA
04566:  MOVFF  FEC,7AD
0456A:  MOVF   FED,F
0456C:  MOVFF  FEF,7AC
04570:  MOVLW  07
04572:  MOVWF  xAF
04574:  MOVLW  89
04576:  MOVWF  xAE
04578:  MOVFF  7AD,7B1
0457C:  MOVFF  7AC,7B0
04580:  CLRF   xB2
04582:  MOVLW  2C
04584:  MOVWF  xB3
04586:  MOVLW  0B
04588:  MOVWF  xB4
0458A:  MOVLW  01
0458C:  MOVWF  xB5
0458E:  MOVLB  0
04590:  CALL   3B0E
....................             strcpy(Menus.Letra,"Minutos:"); 
04594:  MOVLW  07
04596:  MOVWF  FEA
04598:  MOVLW  89
0459A:  MOVWF  FE9
0459C:  MOVFF  FF2,7AC
045A0:  BCF    FF2.7
045A2:  MOVLW  00
045A4:  CALL   07B2
045A8:  TBLRD*-
045AA:  TBLRD*+
045AC:  MOVF   FF5,W
045AE:  MOVWF  FEE
045B0:  IORLW  00
045B2:  BNZ   45AA
045B4:  MOVLB  7
045B6:  BTFSC  xAC.7
045B8:  BSF    FF2.7
....................             displayTemps(Menus.Letra,Minutos1[l+((Prog-1)*10)],0,55,10,1); 
045BA:  MOVLW  01
045BC:  SUBWF  xAB,W
045BE:  MULLW  0A
045C0:  MOVF   FF3,W
045C2:  ADDWF  xAA,W
045C4:  MOVWF  00
045C6:  BCF    FD8.0
045C8:  RLCF   00,F
045CA:  MOVF   00,W
045CC:  CLRF   03
045CE:  ADDLW  25
045D0:  MOVWF  FE9
045D2:  MOVLW  07
045D4:  ADDWFC 03,W
045D6:  MOVWF  FEA
045D8:  MOVFF  FEC,7AD
045DC:  MOVF   FED,F
045DE:  MOVFF  FEF,7AC
045E2:  MOVLW  07
045E4:  MOVWF  xAF
045E6:  MOVLW  89
045E8:  MOVWF  xAE
045EA:  MOVFF  7AD,7B1
045EE:  MOVFF  7AC,7B0
045F2:  CLRF   xB2
045F4:  MOVLW  37
045F6:  MOVWF  xB3
045F8:  MOVLW  0A
045FA:  MOVWF  xB4
045FC:  MOVLW  01
045FE:  MOVWF  xB5
04600:  MOVLB  0
04602:  CALL   3B0E
....................             if(UP)//Si oprime hacia arriba 
04606:  BSF    F92.5
04608:  BTFSC  F80.5
0460A:  BRA    46E8
....................             { 
....................                Buzz_on;delay_ms(10);Buzz_off; 
0460C:  BSF    F8B.7
0460E:  BCF    F94.7
04610:  MOVLW  0A
04612:  MOVLB  7
04614:  MOVWF  xAF
04616:  MOVLB  0
04618:  CALL   1500
0461C:  BCF    F8B.7
0461E:  BCF    F94.7
....................                if(tiempoup<4){ 
04620:  MOVLB  5
04622:  MOVF   x90,W
04624:  SUBLW  03
04626:  BNC   4656
....................                   flagup=1; 
04628:  BSF    x87.0
....................                   Horas1[l+((Prog-1)*10)]++; 
0462A:  MOVLW  01
0462C:  MOVLB  7
0462E:  SUBWF  xAB,W
04630:  MULLW  0A
04632:  MOVF   FF3,W
04634:  ADDWF  xAA,W
04636:  MOVWF  00
04638:  BCF    FD8.0
0463A:  RLCF   00,F
0463C:  MOVF   00,W
0463E:  CLRF   03
04640:  ADDLW  C1
04642:  MOVWF  FE9
04644:  MOVLW  06
04646:  ADDWFC 03,W
04648:  MOVWF  FEA
0464A:  MOVLW  01
0464C:  ADDWF  FEE,F
0464E:  BNC   4652
04650:  INCF   FEF,F
....................                } 
....................                else{ 
04652:  BRA    468A
04654:  MOVLB  5
....................                   flagup=0; 
04656:  BCF    x87.0
....................                   Horas1[l+((Prog-1)*10)]+=10; 
04658:  MOVLW  01
0465A:  MOVLB  7
0465C:  SUBWF  xAB,W
0465E:  MULLW  0A
04660:  MOVF   FF3,W
04662:  ADDWF  xAA,W
04664:  MOVWF  00
04666:  BCF    FD8.0
04668:  RLCF   00,F
0466A:  MOVF   00,W
0466C:  CLRF   03
0466E:  ADDLW  C1
04670:  MOVWF  FE9
04672:  MOVLW  06
04674:  ADDWFC 03,W
04676:  MOVWF  FEA
04678:  MOVLW  0A
0467A:  ADDWF  FEF,W
0467C:  MOVWF  01
0467E:  MOVLW  00
04680:  ADDWFC FEC,W
04682:  MOVF   FED,F
04684:  MOVFF  01,FEF
04688:  MOVWF  FEC
....................                } 
....................                if(Horas1[l+((Prog-1)*10)]>99) 
0468A:  MOVLW  01
0468C:  SUBWF  xAB,W
0468E:  MULLW  0A
04690:  MOVF   FF3,W
04692:  ADDWF  xAA,W
04694:  MOVWF  00
04696:  BCF    FD8.0
04698:  RLCF   00,F
0469A:  MOVF   00,W
0469C:  CLRF   03
0469E:  ADDLW  C1
046A0:  MOVWF  FE9
046A2:  MOVLW  06
046A4:  ADDWFC 03,W
046A6:  MOVWF  FEA
046A8:  MOVFF  FEC,7AD
046AC:  MOVF   FED,F
046AE:  MOVFF  FEF,7AC
046B2:  BTFSC  xAD.7
046B4:  BRA    46E4
046B6:  MOVF   xAD,F
046B8:  BNZ   46C0
046BA:  MOVF   xAC,W
046BC:  SUBLW  63
046BE:  BC    46E4
....................                   Horas1[l+((Prog-1)*10)]=0; 
046C0:  MOVLW  01
046C2:  SUBWF  xAB,W
046C4:  MULLW  0A
046C6:  MOVF   FF3,W
046C8:  ADDWF  xAA,W
046CA:  MOVWF  00
046CC:  BCF    FD8.0
046CE:  RLCF   00,F
046D0:  MOVF   00,W
046D2:  CLRF   03
046D4:  ADDLW  C1
046D6:  MOVWF  FE9
046D8:  MOVLW  06
046DA:  ADDWFC 03,W
046DC:  MOVWF  FEA
046DE:  CLRF   FEC
046E0:  MOVF   FED,F
046E2:  CLRF   FEF
....................             } 
....................             else{ 
046E4:  BRA    46F0
046E6:  MOVLB  0
....................                flagup=0;tiempoup=0; 
046E8:  MOVLB  5
046EA:  BCF    x87.0
046EC:  CLRF   x90
046EE:  MOVLB  7
....................             } 
....................                       
....................             if(DOWN)//Si oprime hacia abajo 
046F0:  BSF    F96.0
046F2:  BTFSC  F84.0
046F4:  BRA    47CE
....................             { 
....................                Buzz_on;delay_ms(10);Buzz_off; 
046F6:  BSF    F8B.7
046F8:  BCF    F94.7
046FA:  MOVLW  0A
046FC:  MOVWF  xAF
046FE:  MOVLB  0
04700:  CALL   1500
04704:  BCF    F8B.7
04706:  BCF    F94.7
....................                if(tiempodn<4){ 
04708:  MOVLB  5
0470A:  MOVF   x91,W
0470C:  SUBLW  03
0470E:  BNC   4740
....................                   flagdn=1; 
04710:  BSF    x87.1
....................                   Horas1[l+((Prog-1)*10)]--; 
04712:  MOVLW  01
04714:  MOVLB  7
04716:  SUBWF  xAB,W
04718:  MULLW  0A
0471A:  MOVF   FF3,W
0471C:  ADDWF  xAA,W
0471E:  MOVWF  00
04720:  BCF    FD8.0
04722:  RLCF   00,F
04724:  MOVF   00,W
04726:  CLRF   03
04728:  ADDLW  C1
0472A:  MOVWF  FE9
0472C:  MOVLW  06
0472E:  ADDWFC 03,W
04730:  MOVWF  FEA
04732:  MOVLW  FF
04734:  ADDWF  FEF,F
04736:  BC    473C
04738:  MOVF   FEE,F
0473A:  DECF   FED,F
....................                } 
....................                else{ 
0473C:  BRA    4778
0473E:  MOVLB  5
....................                   flagdn=0; 
04740:  BCF    x87.1
....................                   Horas1[l+((Prog-1)*10)]-=10; 
04742:  MOVLW  01
04744:  MOVLB  7
04746:  SUBWF  xAB,W
04748:  MULLW  0A
0474A:  MOVF   FF3,W
0474C:  ADDWF  xAA,W
0474E:  MOVWF  00
04750:  BCF    FD8.0
04752:  RLCF   00,F
04754:  MOVF   00,W
04756:  CLRF   03
04758:  ADDLW  C1
0475A:  MOVWF  FE9
0475C:  MOVLW  06
0475E:  ADDWFC 03,W
04760:  MOVWF  FEA
04762:  MOVLW  0A
04764:  SUBWF  FEF,W
04766:  MOVWF  00
04768:  MOVLW  00
0476A:  SUBWFB FEC,W
0476C:  MOVWF  03
0476E:  MOVF   00,W
04770:  MOVF   FED,F
04772:  MOVWF  FEF
04774:  MOVFF  03,FEC
....................                } 
....................                if(Horas1[l+((Prog-1)*10)]<0) 
04778:  MOVLW  01
0477A:  SUBWF  xAB,W
0477C:  MULLW  0A
0477E:  MOVF   FF3,W
04780:  ADDWF  xAA,W
04782:  MOVWF  00
04784:  BCF    FD8.0
04786:  RLCF   00,F
04788:  MOVF   00,W
0478A:  CLRF   03
0478C:  ADDLW  C1
0478E:  MOVWF  FE9
04790:  MOVLW  06
04792:  ADDWFC 03,W
04794:  MOVWF  FEA
04796:  MOVFF  FEC,7AD
0479A:  MOVF   FED,F
0479C:  MOVFF  FEF,7AC
047A0:  BTFSC  xAD.7
047A2:  BRA    47A6
047A4:  BRA    47CC
....................                   Horas1[l+((Prog-1)*10)]=99; 
047A6:  MOVLW  01
047A8:  SUBWF  xAB,W
047AA:  MULLW  0A
047AC:  MOVF   FF3,W
047AE:  ADDWF  xAA,W
047B0:  MOVWF  00
047B2:  BCF    FD8.0
047B4:  RLCF   00,F
047B6:  MOVF   00,W
047B8:  CLRF   03
047BA:  ADDLW  C1
047BC:  MOVWF  FE9
047BE:  MOVLW  06
047C0:  ADDWFC 03,W
047C2:  MOVWF  FEA
047C4:  CLRF   FEC
047C6:  MOVF   FED,F
047C8:  MOVLW  63
047CA:  MOVWF  FEF
....................             } 
....................             else{ 
047CC:  BRA    47D6
....................                flagdn=0;tiempodn=0; 
047CE:  MOVLB  5
047D0:  BCF    x87.1
047D2:  CLRF   x91
047D4:  MOVLB  7
....................             } 
....................          } 
....................           
....................          if(Opcio==3){ 
047D6:  MOVF   xA9,W
047D8:  SUBLW  03
047DA:  BTFSS  FD8.2
047DC:  BRA    4B04
....................             strcpy(Menus.Letra,"Temperatura:"); 
047DE:  MOVLW  07
047E0:  MOVWF  FEA
047E2:  MOVLW  89
047E4:  MOVWF  FE9
047E6:  MOVFF  FF2,7AC
047EA:  BCF    FF2.7
047EC:  MOVLW  00
047EE:  MOVLB  0
047F0:  CALL   0760
047F4:  TBLRD*-
047F6:  TBLRD*+
047F8:  MOVF   FF5,W
047FA:  MOVWF  FEE
047FC:  IORLW  00
047FE:  BNZ   47F6
04800:  MOVLB  7
04802:  BTFSC  xAC.7
04804:  BSF    FF2.7
....................             displayTemps(Menus.Letra,Temperatura1[l+((Prog-1)*10)],0,32,0,1); 
04806:  MOVLW  01
04808:  SUBWF  xAB,W
0480A:  MULLW  0A
0480C:  MOVF   FF3,W
0480E:  ADDWF  xAA,W
04810:  MOVWF  00
04812:  BCF    FD8.0
04814:  RLCF   00,F
04816:  MOVF   00,W
04818:  CLRF   03
0481A:  ADDLW  5D
0481C:  MOVWF  FE9
0481E:  MOVLW  06
04820:  ADDWFC 03,W
04822:  MOVWF  FEA
04824:  MOVFF  FEC,7AD
04828:  MOVF   FED,F
0482A:  MOVFF  FEF,7AC
0482E:  MOVLW  07
04830:  MOVWF  xAF
04832:  MOVLW  89
04834:  MOVWF  xAE
04836:  MOVFF  7AD,7B1
0483A:  MOVFF  7AC,7B0
0483E:  CLRF   xB2
04840:  MOVLW  20
04842:  MOVWF  xB3
04844:  CLRF   xB4
04846:  MOVLW  01
04848:  MOVWF  xB5
0484A:  MOVLB  0
0484C:  CALL   3B0E
....................             strcpy(Menus.Letra,"Horas:"); 
04850:  MOVLW  07
04852:  MOVWF  FEA
04854:  MOVLW  89
04856:  MOVWF  FE9
04858:  MOVFF  FF2,7AC
0485C:  BCF    FF2.7
0485E:  MOVLW  00
04860:  CALL   078C
04864:  TBLRD*-
04866:  TBLRD*+
04868:  MOVF   FF5,W
0486A:  MOVWF  FEE
0486C:  IORLW  00
0486E:  BNZ   4866
04870:  MOVLB  7
04872:  BTFSC  xAC.7
04874:  BSF    FF2.7
....................             displayTemps(Menus.Letra,Horas1[l+((Prog-1)*10)],0,44,10,1); 
04876:  MOVLW  01
04878:  SUBWF  xAB,W
0487A:  MULLW  0A
0487C:  MOVF   FF3,W
0487E:  ADDWF  xAA,W
04880:  MOVWF  00
04882:  BCF    FD8.0
04884:  RLCF   00,F
04886:  MOVF   00,W
04888:  CLRF   03
0488A:  ADDLW  C1
0488C:  MOVWF  FE9
0488E:  MOVLW  06
04890:  ADDWFC 03,W
04892:  MOVWF  FEA
04894:  MOVFF  FEC,7AD
04898:  MOVF   FED,F
0489A:  MOVFF  FEF,7AC
0489E:  MOVLW  07
048A0:  MOVWF  xAF
048A2:  MOVLW  89
048A4:  MOVWF  xAE
048A6:  MOVFF  7AD,7B1
048AA:  MOVFF  7AC,7B0
048AE:  CLRF   xB2
048B0:  MOVLW  2C
048B2:  MOVWF  xB3
048B4:  MOVLW  0A
048B6:  MOVWF  xB4
048B8:  MOVLW  01
048BA:  MOVWF  xB5
048BC:  MOVLB  0
048BE:  CALL   3B0E
....................             strcpy(Menus.Letra,"Minutos:"); 
048C2:  MOVLW  07
048C4:  MOVWF  FEA
048C6:  MOVLW  89
048C8:  MOVWF  FE9
048CA:  MOVFF  FF2,7AC
048CE:  BCF    FF2.7
048D0:  MOVLW  00
048D2:  CALL   07B2
048D6:  TBLRD*-
048D8:  TBLRD*+
048DA:  MOVF   FF5,W
048DC:  MOVWF  FEE
048DE:  IORLW  00
048E0:  BNZ   48D8
048E2:  MOVLB  7
048E4:  BTFSC  xAC.7
048E6:  BSF    FF2.7
....................             displayTemps(Menus.Letra,Minutos1[l+((Prog-1)*10)],0,55,11,1); 
048E8:  MOVLW  01
048EA:  SUBWF  xAB,W
048EC:  MULLW  0A
048EE:  MOVF   FF3,W
048F0:  ADDWF  xAA,W
048F2:  MOVWF  00
048F4:  BCF    FD8.0
048F6:  RLCF   00,F
048F8:  MOVF   00,W
048FA:  CLRF   03
048FC:  ADDLW  25
048FE:  MOVWF  FE9
04900:  MOVLW  07
04902:  ADDWFC 03,W
04904:  MOVWF  FEA
04906:  MOVFF  FEC,7AD
0490A:  MOVF   FED,F
0490C:  MOVFF  FEF,7AC
04910:  MOVLW  07
04912:  MOVWF  xAF
04914:  MOVLW  89
04916:  MOVWF  xAE
04918:  MOVFF  7AD,7B1
0491C:  MOVFF  7AC,7B0
04920:  CLRF   xB2
04922:  MOVLW  37
04924:  MOVWF  xB3
04926:  MOVLW  0B
04928:  MOVWF  xB4
0492A:  MOVLW  01
0492C:  MOVWF  xB5
0492E:  MOVLB  0
04930:  CALL   3B0E
....................             if(UP)//Si oprime hacia arriba 
04934:  BSF    F92.5
04936:  BTFSC  F80.5
04938:  BRA    4A16
....................             { 
....................                Buzz_on;delay_ms(10);Buzz_off; 
0493A:  BSF    F8B.7
0493C:  BCF    F94.7
0493E:  MOVLW  0A
04940:  MOVLB  7
04942:  MOVWF  xAF
04944:  MOVLB  0
04946:  CALL   1500
0494A:  BCF    F8B.7
0494C:  BCF    F94.7
....................                if(tiempoup<4){ 
0494E:  MOVLB  5
04950:  MOVF   x90,W
04952:  SUBLW  03
04954:  BNC   4984
....................                   flagup=1; 
04956:  BSF    x87.0
....................                   Minutos1[l+((Prog-1)*10)]++; 
04958:  MOVLW  01
0495A:  MOVLB  7
0495C:  SUBWF  xAB,W
0495E:  MULLW  0A
04960:  MOVF   FF3,W
04962:  ADDWF  xAA,W
04964:  MOVWF  00
04966:  BCF    FD8.0
04968:  RLCF   00,F
0496A:  MOVF   00,W
0496C:  CLRF   03
0496E:  ADDLW  25
04970:  MOVWF  FE9
04972:  MOVLW  07
04974:  ADDWFC 03,W
04976:  MOVWF  FEA
04978:  MOVLW  01
0497A:  ADDWF  FEE,F
0497C:  BNC   4980
0497E:  INCF   FEF,F
....................                }   
....................                else{ 
04980:  BRA    49B8
04982:  MOVLB  5
....................                   flagup=0; 
04984:  BCF    x87.0
....................                   Minutos1[l+((Prog-1)*10)]+=10; 
04986:  MOVLW  01
04988:  MOVLB  7
0498A:  SUBWF  xAB,W
0498C:  MULLW  0A
0498E:  MOVF   FF3,W
04990:  ADDWF  xAA,W
04992:  MOVWF  00
04994:  BCF    FD8.0
04996:  RLCF   00,F
04998:  MOVF   00,W
0499A:  CLRF   03
0499C:  ADDLW  25
0499E:  MOVWF  FE9
049A0:  MOVLW  07
049A2:  ADDWFC 03,W
049A4:  MOVWF  FEA
049A6:  MOVLW  0A
049A8:  ADDWF  FEF,W
049AA:  MOVWF  01
049AC:  MOVLW  00
049AE:  ADDWFC FEC,W
049B0:  MOVF   FED,F
049B2:  MOVFF  01,FEF
049B6:  MOVWF  FEC
....................                } 
....................                if(Minutos1[l+((Prog-1)*10)]>59) 
049B8:  MOVLW  01
049BA:  SUBWF  xAB,W
049BC:  MULLW  0A
049BE:  MOVF   FF3,W
049C0:  ADDWF  xAA,W
049C2:  MOVWF  00
049C4:  BCF    FD8.0
049C6:  RLCF   00,F
049C8:  MOVF   00,W
049CA:  CLRF   03
049CC:  ADDLW  25
049CE:  MOVWF  FE9
049D0:  MOVLW  07
049D2:  ADDWFC 03,W
049D4:  MOVWF  FEA
049D6:  MOVFF  FEC,7AD
049DA:  MOVF   FED,F
049DC:  MOVFF  FEF,7AC
049E0:  BTFSC  xAD.7
049E2:  BRA    4A12
049E4:  MOVF   xAD,F
049E6:  BNZ   49EE
049E8:  MOVF   xAC,W
049EA:  SUBLW  3B
049EC:  BC    4A12
....................                   Minutos1[l+((Prog-1)*10)]=0; 
049EE:  MOVLW  01
049F0:  SUBWF  xAB,W
049F2:  MULLW  0A
049F4:  MOVF   FF3,W
049F6:  ADDWF  xAA,W
049F8:  MOVWF  00
049FA:  BCF    FD8.0
049FC:  RLCF   00,F
049FE:  MOVF   00,W
04A00:  CLRF   03
04A02:  ADDLW  25
04A04:  MOVWF  FE9
04A06:  MOVLW  07
04A08:  ADDWFC 03,W
04A0A:  MOVWF  FEA
04A0C:  CLRF   FEC
04A0E:  MOVF   FED,F
04A10:  CLRF   FEF
....................             } 
....................             else{ 
04A12:  BRA    4A1E
04A14:  MOVLB  0
....................                flagup=0;tiempoup=0; 
04A16:  MOVLB  5
04A18:  BCF    x87.0
04A1A:  CLRF   x90
04A1C:  MOVLB  7
....................             } 
....................                       
....................             if(DOWN)//Si oprime hacia abajo 
04A1E:  BSF    F96.0
04A20:  BTFSC  F84.0
04A22:  BRA    4AFC
....................             { 
....................                Buzz_on;delay_ms(10);Buzz_off; 
04A24:  BSF    F8B.7
04A26:  BCF    F94.7
04A28:  MOVLW  0A
04A2A:  MOVWF  xAF
04A2C:  MOVLB  0
04A2E:  CALL   1500
04A32:  BCF    F8B.7
04A34:  BCF    F94.7
....................                if(tiempodn<4){ 
04A36:  MOVLB  5
04A38:  MOVF   x91,W
04A3A:  SUBLW  03
04A3C:  BNC   4A6E
....................                   flagdn=1; 
04A3E:  BSF    x87.1
....................                   Minutos1[l+((Prog-1)*10)]--; 
04A40:  MOVLW  01
04A42:  MOVLB  7
04A44:  SUBWF  xAB,W
04A46:  MULLW  0A
04A48:  MOVF   FF3,W
04A4A:  ADDWF  xAA,W
04A4C:  MOVWF  00
04A4E:  BCF    FD8.0
04A50:  RLCF   00,F
04A52:  MOVF   00,W
04A54:  CLRF   03
04A56:  ADDLW  25
04A58:  MOVWF  FE9
04A5A:  MOVLW  07
04A5C:  ADDWFC 03,W
04A5E:  MOVWF  FEA
04A60:  MOVLW  FF
04A62:  ADDWF  FEF,F
04A64:  BC    4A6A
04A66:  MOVF   FEE,F
04A68:  DECF   FED,F
....................                } 
....................                else{ 
04A6A:  BRA    4AA6
04A6C:  MOVLB  5
....................                   flagdn=0; 
04A6E:  BCF    x87.1
....................                   Minutos1[l+((Prog-1)*10)]-=10; 
04A70:  MOVLW  01
04A72:  MOVLB  7
04A74:  SUBWF  xAB,W
04A76:  MULLW  0A
04A78:  MOVF   FF3,W
04A7A:  ADDWF  xAA,W
04A7C:  MOVWF  00
04A7E:  BCF    FD8.0
04A80:  RLCF   00,F
04A82:  MOVF   00,W
04A84:  CLRF   03
04A86:  ADDLW  25
04A88:  MOVWF  FE9
04A8A:  MOVLW  07
04A8C:  ADDWFC 03,W
04A8E:  MOVWF  FEA
04A90:  MOVLW  0A
04A92:  SUBWF  FEF,W
04A94:  MOVWF  00
04A96:  MOVLW  00
04A98:  SUBWFB FEC,W
04A9A:  MOVWF  03
04A9C:  MOVF   00,W
04A9E:  MOVF   FED,F
04AA0:  MOVWF  FEF
04AA2:  MOVFF  03,FEC
....................                } 
....................                if(Minutos1[l+((Prog-1)*10)]<0) 
04AA6:  MOVLW  01
04AA8:  SUBWF  xAB,W
04AAA:  MULLW  0A
04AAC:  MOVF   FF3,W
04AAE:  ADDWF  xAA,W
04AB0:  MOVWF  00
04AB2:  BCF    FD8.0
04AB4:  RLCF   00,F
04AB6:  MOVF   00,W
04AB8:  CLRF   03
04ABA:  ADDLW  25
04ABC:  MOVWF  FE9
04ABE:  MOVLW  07
04AC0:  ADDWFC 03,W
04AC2:  MOVWF  FEA
04AC4:  MOVFF  FEC,7AD
04AC8:  MOVF   FED,F
04ACA:  MOVFF  FEF,7AC
04ACE:  BTFSC  xAD.7
04AD0:  BRA    4AD4
04AD2:  BRA    4AFA
....................                   Minutos1[l+((Prog-1)*10)]=59; 
04AD4:  MOVLW  01
04AD6:  SUBWF  xAB,W
04AD8:  MULLW  0A
04ADA:  MOVF   FF3,W
04ADC:  ADDWF  xAA,W
04ADE:  MOVWF  00
04AE0:  BCF    FD8.0
04AE2:  RLCF   00,F
04AE4:  MOVF   00,W
04AE6:  CLRF   03
04AE8:  ADDLW  25
04AEA:  MOVWF  FE9
04AEC:  MOVLW  07
04AEE:  ADDWFC 03,W
04AF0:  MOVWF  FEA
04AF2:  CLRF   FEC
04AF4:  MOVF   FED,F
04AF6:  MOVLW  3B
04AF8:  MOVWF  FEF
....................             } 
....................             else{ 
04AFA:  BRA    4B04
....................                flagdn=0;tiempodn=0; 
04AFC:  MOVLB  5
04AFE:  BCF    x87.1
04B00:  CLRF   x91
04B02:  MOVLB  7
....................             } 
....................          } 
.................... } 
04B04:  MOVLB  0
04B06:  GOTO   8F26 (RETURN)
....................  
.................... void ConfigInicial(){ 
....................    setup_timer_1(T1_INTERNAL|T1_DIV_BY_1); 
*
01528:  MOVLW  85
0152A:  MOVWF  FCD
....................    enable_interrupts(INT_TIMER1); 
0152C:  BSF    F9D.0
....................    setup_adc_ports(AN0_TO_AN2); 
0152E:  MOVF   FC1,W
01530:  ANDLW  C0
01532:  IORLW  0C
01534:  MOVWF  FC1
....................    setup_adc(ADC_CLOCK_DIV_64); 
01536:  MOVF   FC0,W
01538:  ANDLW  C0
0153A:  IORLW  06
0153C:  MOVWF  FC0
0153E:  BSF    FC0.7
01540:  BSF    FC2.0
....................    enable_interrupts(global); 
01542:  MOVLW  C0
01544:  IORWF  FF2,F
.................... } 
01546:  GOTO   67BC (RETURN)
....................  
.................... void LeeEEPROM(){  
....................    for(j=1;j<6;j++){ 
*
01F66:  MOVLW  01
01F68:  MOVLB  5
01F6A:  MOVWF  x9D
01F6C:  MOVF   x9D,W
01F6E:  SUBLW  05
01F70:  BTFSS  FD8.0
01F72:  BRA    2356
....................       for(i=0;i<10;i++){ 
01F74:  CLRF   x9C
01F76:  MOVF   x9C,W
01F78:  SUBLW  09
01F7A:  BTFSS  FD8.0
01F7C:  BRA    2352
....................          delay_ms(10);  
01F7E:  MOVLW  0A
01F80:  MOVLB  7
01F82:  MOVWF  xAF
01F84:  MOVLB  0
01F86:  CALL   1500
....................          Temperatura1[i+((j-1)*10)]=make16(read_eeprom((i*2)+1+((j-1)*40)),read_eeprom((i*2)+((j-1)*40))); 
01F8A:  MOVLW  01
01F8C:  MOVLB  5
01F8E:  SUBWF  x9D,W
01F90:  MULLW  0A
01F92:  MOVF   FF3,W
01F94:  ADDWF  x9C,W
01F96:  MOVWF  00
01F98:  BCF    FD8.0
01F9A:  RLCF   00,F
01F9C:  MOVF   00,W
01F9E:  CLRF   03
01FA0:  ADDLW  5D
01FA2:  MOVWF  FE9
01FA4:  MOVLW  06
01FA6:  ADDWFC 03,W
01FA8:  MOVWF  FEA
01FAA:  BCF    FD8.0
01FAC:  RLCF   x9C,W
01FAE:  ADDLW  01
01FB0:  MOVLB  7
01FB2:  MOVWF  xAB
01FB4:  MOVLW  01
01FB6:  MOVLB  5
01FB8:  SUBWF  x9D,W
01FBA:  MULLW  28
01FBC:  MOVF   FF3,W
01FBE:  MOVLB  7
01FC0:  ADDWF  xAB,F
01FC2:  MOVFF  FF2,7AC
01FC6:  BCF    FF2.7
01FC8:  CLRF   FAA
01FCA:  MOVFF  7AB,FA9
01FCE:  BCF    FA6.6
01FD0:  BCF    FA6.7
01FD2:  BSF    FA6.0
01FD4:  MOVF   FA8,W
01FD6:  BTFSC  xAC.7
01FD8:  BSF    FF2.7
01FDA:  MOVWF  xAB
01FDC:  BCF    FD8.0
01FDE:  MOVLB  5
01FE0:  RLCF   x9C,W
01FE2:  MOVLB  7
01FE4:  MOVWF  xAD
01FE6:  MOVLW  01
01FE8:  MOVLB  5
01FEA:  SUBWF  x9D,W
01FEC:  MULLW  28
01FEE:  MOVF   FF3,W
01FF0:  MOVLB  7
01FF2:  ADDWF  xAD,F
01FF4:  MOVFF  FF2,7AE
01FF8:  BCF    FF2.7
01FFA:  CLRF   FAA
01FFC:  MOVFF  7AD,FA9
02000:  BCF    FA6.6
02002:  BCF    FA6.7
02004:  BSF    FA6.0
02006:  MOVF   FA8,W
02008:  BTFSC  xAE.7
0200A:  BSF    FF2.7
0200C:  MOVWF  xAD
0200E:  MOVFF  7AB,FEC
02012:  MOVF   FED,F
02014:  MOVFF  7AD,FEF
....................          if(Temperatura1[i+((j-1)*10)]>1200 || Temperatura1[i+((j-1)*10)]<0){ 
02018:  MOVLW  01
0201A:  MOVLB  5
0201C:  SUBWF  x9D,W
0201E:  MULLW  0A
02020:  MOVF   FF3,W
02022:  ADDWF  x9C,W
02024:  MOVWF  00
02026:  BCF    FD8.0
02028:  RLCF   00,F
0202A:  MOVF   00,W
0202C:  CLRF   03
0202E:  ADDLW  5D
02030:  MOVWF  FE9
02032:  MOVLW  06
02034:  ADDWFC 03,W
02036:  MOVWF  FEA
02038:  MOVFF  FEC,7AA
0203C:  MOVF   FED,F
0203E:  MOVFF  FEF,7A9
02042:  MOVLB  7
02044:  BTFSC  xAA.7
02046:  BRA    2058
02048:  MOVF   xAA,W
0204A:  SUBLW  03
0204C:  BC    2058
0204E:  XORLW  FF
02050:  BNZ   2088
02052:  MOVF   xA9,W
02054:  SUBLW  B0
02056:  BNC   2088
02058:  MOVLW  01
0205A:  MOVLB  5
0205C:  SUBWF  x9D,W
0205E:  MULLW  0A
02060:  MOVF   FF3,W
02062:  ADDWF  x9C,W
02064:  MOVWF  00
02066:  BCF    FD8.0
02068:  RLCF   00,F
0206A:  MOVF   00,W
0206C:  CLRF   03
0206E:  ADDLW  5D
02070:  MOVWF  FE9
02072:  MOVLW  06
02074:  ADDWFC 03,W
02076:  MOVWF  FEA
02078:  MOVFF  FEC,7AA
0207C:  MOVF   FED,F
0207E:  MOVFF  FEF,7A9
02082:  MOVLB  7
02084:  BTFSS  xAA.7
02086:  BRA    214C
....................             Temperatura1[i+((j-1)*10)]=0; 
02088:  MOVLW  01
0208A:  MOVLB  5
0208C:  SUBWF  x9D,W
0208E:  MULLW  0A
02090:  MOVF   FF3,W
02092:  ADDWF  x9C,W
02094:  MOVWF  00
02096:  BCF    FD8.0
02098:  RLCF   00,F
0209A:  MOVF   00,W
0209C:  CLRF   03
0209E:  ADDLW  5D
020A0:  MOVWF  FE9
020A2:  MOVLW  06
020A4:  ADDWFC 03,W
020A6:  MOVWF  FEA
020A8:  CLRF   FEC
020AA:  MOVF   FED,F
020AC:  CLRF   FEF
....................             write_eeprom((i*2)+1+((j-1)*40),0); 
020AE:  BCF    FD8.0
020B0:  RLCF   x9C,W
020B2:  ADDLW  01
020B4:  MOVLB  7
020B6:  MOVWF  xA9
020B8:  MOVLW  01
020BA:  MOVLB  5
020BC:  SUBWF  x9D,W
020BE:  MULLW  28
020C0:  MOVF   FF3,W
020C2:  MOVLB  7
020C4:  ADDWF  xA9,F
020C6:  CLRF   FAA
020C8:  MOVFF  7A9,FA9
020CC:  CLRF   FA8
020CE:  BCF    FA6.6
020D0:  BCF    FA6.7
020D2:  BSF    FA6.2
020D4:  MOVF   FF2,W
020D6:  MOVWF  00
020D8:  BCF    FF2.7
020DA:  MOVLB  F
020DC:  MOVLW  55
020DE:  MOVWF  FA7
020E0:  MOVLW  AA
020E2:  MOVWF  FA7
020E4:  BSF    FA6.1
020E6:  BTFSC  FA6.1
020E8:  BRA    20E6
020EA:  BCF    FA6.2
020EC:  MOVF   00,W
020EE:  IORWF  FF2,F
....................             delay_ms(20); 
020F0:  MOVLW  14
020F2:  MOVLB  7
020F4:  MOVWF  xAF
020F6:  MOVLB  0
020F8:  CALL   1500
....................             write_eeprom((i*2)+((j-1)*40),0); 
020FC:  BCF    FD8.0
020FE:  MOVLB  5
02100:  RLCF   x9C,W
02102:  MOVLB  7
02104:  MOVWF  xA9
02106:  MOVLW  01
02108:  MOVLB  5
0210A:  SUBWF  x9D,W
0210C:  MULLW  28
0210E:  MOVF   FF3,W
02110:  MOVLB  7
02112:  ADDWF  xA9,F
02114:  CLRF   FAA
02116:  MOVFF  7A9,FA9
0211A:  CLRF   FA8
0211C:  BCF    FA6.6
0211E:  BCF    FA6.7
02120:  BSF    FA6.2
02122:  MOVF   FF2,W
02124:  MOVWF  00
02126:  BCF    FF2.7
02128:  MOVLB  F
0212A:  MOVLW  55
0212C:  MOVWF  FA7
0212E:  MOVLW  AA
02130:  MOVWF  FA7
02132:  BSF    FA6.1
02134:  BTFSC  FA6.1
02136:  BRA    2134
02138:  BCF    FA6.2
0213A:  MOVF   00,W
0213C:  IORWF  FF2,F
....................             delay_ms(20); 
0213E:  MOVLW  14
02140:  MOVLB  7
02142:  MOVWF  xAF
02144:  MOVLB  0
02146:  CALL   1500
0214A:  MOVLB  7
....................          } 
....................          delay_ms(10); 
0214C:  MOVLW  0A
0214E:  MOVWF  xAF
02150:  MOVLB  0
02152:  CALL   1500
....................          Horas1[i+((j-1)*10)]=read_eeprom(i+((40*j)-20));      
02156:  MOVLW  01
02158:  MOVLB  5
0215A:  SUBWF  x9D,W
0215C:  MULLW  0A
0215E:  MOVF   FF3,W
02160:  ADDWF  x9C,W
02162:  MOVWF  00
02164:  BCF    FD8.0
02166:  RLCF   00,F
02168:  MOVF   00,W
0216A:  CLRF   03
0216C:  ADDLW  C1
0216E:  MOVWF  FE9
02170:  MOVLW  06
02172:  ADDWFC 03,W
02174:  MOVWF  FEA
02176:  MOVF   x9D,W
02178:  MULLW  28
0217A:  MOVF   FF3,W
0217C:  ADDLW  EC
0217E:  ADDWF  x9C,W
02180:  MOVLB  7
02182:  MOVWF  xAB
02184:  MOVFF  FF2,7AC
02188:  BCF    FF2.7
0218A:  CLRF   FAA
0218C:  MOVFF  7AB,FA9
02190:  BCF    FA6.6
02192:  BCF    FA6.7
02194:  BSF    FA6.0
02196:  MOVF   FA8,W
02198:  BTFSC  xAC.7
0219A:  BSF    FF2.7
0219C:  CLRF   03
0219E:  MOVWF  FEF
021A0:  MOVFF  03,FEC
021A4:  MOVF   FED,F
....................          if(Horas1[i+((j-1)*10)]>99){ 
021A6:  MOVLW  01
021A8:  MOVLB  5
021AA:  SUBWF  x9D,W
021AC:  MULLW  0A
021AE:  MOVF   FF3,W
021B0:  ADDWF  x9C,W
021B2:  MOVWF  00
021B4:  BCF    FD8.0
021B6:  RLCF   00,F
021B8:  MOVF   00,W
021BA:  CLRF   03
021BC:  ADDLW  C1
021BE:  MOVWF  FE9
021C0:  MOVLW  06
021C2:  ADDWFC 03,W
021C4:  MOVWF  FEA
021C6:  MOVFF  FEC,7AA
021CA:  MOVF   FED,F
021CC:  MOVFF  FEF,7A9
021D0:  MOVLB  7
021D2:  BTFSC  xAA.7
021D4:  BRA    224C
021D6:  MOVF   xAA,F
021D8:  BNZ   21E0
021DA:  MOVF   xA9,W
021DC:  SUBLW  63
021DE:  BC    224C
....................             Horas1[i+((j-1)*10)]=0; 
021E0:  MOVLW  01
021E2:  MOVLB  5
021E4:  SUBWF  x9D,W
021E6:  MULLW  0A
021E8:  MOVF   FF3,W
021EA:  ADDWF  x9C,W
021EC:  MOVWF  00
021EE:  BCF    FD8.0
021F0:  RLCF   00,F
021F2:  MOVF   00,W
021F4:  CLRF   03
021F6:  ADDLW  C1
021F8:  MOVWF  FE9
021FA:  MOVLW  06
021FC:  ADDWFC 03,W
021FE:  MOVWF  FEA
02200:  CLRF   FEC
02202:  MOVF   FED,F
02204:  CLRF   FEF
....................             write_eeprom(i+((40*j)-20),0); 
02206:  MOVF   x9D,W
02208:  MULLW  28
0220A:  MOVF   FF3,W
0220C:  ADDLW  EC
0220E:  ADDWF  x9C,W
02210:  MOVLB  7
02212:  MOVWF  xA9
02214:  CLRF   FAA
02216:  MOVFF  7A9,FA9
0221A:  CLRF   FA8
0221C:  BCF    FA6.6
0221E:  BCF    FA6.7
02220:  BSF    FA6.2
02222:  MOVF   FF2,W
02224:  MOVWF  00
02226:  BCF    FF2.7
02228:  MOVLB  F
0222A:  MOVLW  55
0222C:  MOVWF  FA7
0222E:  MOVLW  AA
02230:  MOVWF  FA7
02232:  BSF    FA6.1
02234:  BTFSC  FA6.1
02236:  BRA    2234
02238:  BCF    FA6.2
0223A:  MOVF   00,W
0223C:  IORWF  FF2,F
....................             delay_ms(20); 
0223E:  MOVLW  14
02240:  MOVLB  7
02242:  MOVWF  xAF
02244:  MOVLB  0
02246:  CALL   1500
0224A:  MOVLB  7
....................          } 
....................          delay_ms(10);     
0224C:  MOVLW  0A
0224E:  MOVWF  xAF
02250:  MOVLB  0
02252:  CALL   1500
....................          Minutos1[i+((j-1)*10)]=read_eeprom(i+((40*j)-10)); 
02256:  MOVLW  01
02258:  MOVLB  5
0225A:  SUBWF  x9D,W
0225C:  MULLW  0A
0225E:  MOVF   FF3,W
02260:  ADDWF  x9C,W
02262:  MOVWF  00
02264:  BCF    FD8.0
02266:  RLCF   00,F
02268:  MOVF   00,W
0226A:  CLRF   03
0226C:  ADDLW  25
0226E:  MOVWF  FE9
02270:  MOVLW  07
02272:  ADDWFC 03,W
02274:  MOVWF  FEA
02276:  MOVF   x9D,W
02278:  MULLW  28
0227A:  MOVF   FF3,W
0227C:  ADDLW  F6
0227E:  ADDWF  x9C,W
02280:  MOVLB  7
02282:  MOVWF  xAB
02284:  MOVFF  FF2,7AC
02288:  BCF    FF2.7
0228A:  CLRF   FAA
0228C:  MOVFF  7AB,FA9
02290:  BCF    FA6.6
02292:  BCF    FA6.7
02294:  BSF    FA6.0
02296:  MOVF   FA8,W
02298:  BTFSC  xAC.7
0229A:  BSF    FF2.7
0229C:  CLRF   03
0229E:  MOVWF  FEF
022A0:  MOVFF  03,FEC
022A4:  MOVF   FED,F
....................          if(Minutos1[i+((j-1)*10)]>59){ 
022A6:  MOVLW  01
022A8:  MOVLB  5
022AA:  SUBWF  x9D,W
022AC:  MULLW  0A
022AE:  MOVF   FF3,W
022B0:  ADDWF  x9C,W
022B2:  MOVWF  00
022B4:  BCF    FD8.0
022B6:  RLCF   00,F
022B8:  MOVF   00,W
022BA:  CLRF   03
022BC:  ADDLW  25
022BE:  MOVWF  FE9
022C0:  MOVLW  07
022C2:  ADDWFC 03,W
022C4:  MOVWF  FEA
022C6:  MOVFF  FEC,7AA
022CA:  MOVF   FED,F
022CC:  MOVFF  FEF,7A9
022D0:  MOVLB  7
022D2:  BTFSC  xAA.7
022D4:  BRA    234C
022D6:  MOVF   xAA,F
022D8:  BNZ   22E0
022DA:  MOVF   xA9,W
022DC:  SUBLW  3B
022DE:  BC    234C
....................             Minutos1[i+((j-1)*10)]=0; 
022E0:  MOVLW  01
022E2:  MOVLB  5
022E4:  SUBWF  x9D,W
022E6:  MULLW  0A
022E8:  MOVF   FF3,W
022EA:  ADDWF  x9C,W
022EC:  MOVWF  00
022EE:  BCF    FD8.0
022F0:  RLCF   00,F
022F2:  MOVF   00,W
022F4:  CLRF   03
022F6:  ADDLW  25
022F8:  MOVWF  FE9
022FA:  MOVLW  07
022FC:  ADDWFC 03,W
022FE:  MOVWF  FEA
02300:  CLRF   FEC
02302:  MOVF   FED,F
02304:  CLRF   FEF
....................             write_eeprom(i+((40*j)-10),0); 
02306:  MOVF   x9D,W
02308:  MULLW  28
0230A:  MOVF   FF3,W
0230C:  ADDLW  F6
0230E:  ADDWF  x9C,W
02310:  MOVLB  7
02312:  MOVWF  xA9
02314:  CLRF   FAA
02316:  MOVFF  7A9,FA9
0231A:  CLRF   FA8
0231C:  BCF    FA6.6
0231E:  BCF    FA6.7
02320:  BSF    FA6.2
02322:  MOVF   FF2,W
02324:  MOVWF  00
02326:  BCF    FF2.7
02328:  MOVLB  F
0232A:  MOVLW  55
0232C:  MOVWF  FA7
0232E:  MOVLW  AA
02330:  MOVWF  FA7
02332:  BSF    FA6.1
02334:  BTFSC  FA6.1
02336:  BRA    2334
02338:  BCF    FA6.2
0233A:  MOVF   00,W
0233C:  IORWF  FF2,F
....................             delay_ms(20); 
0233E:  MOVLW  14
02340:  MOVLB  7
02342:  MOVWF  xAF
02344:  MOVLB  0
02346:  CALL   1500
0234A:  MOVLB  7
....................          } 
....................           
....................       } 
0234C:  MOVLB  5
0234E:  INCF   x9C,F
02350:  BRA    1F76
....................    } 
02352:  INCF   x9D,F
02354:  BRA    1F6C
....................     
....................    delay_ms(50);    
02356:  MOVLW  32
02358:  MOVLB  7
0235A:  MOVWF  xAF
0235C:  MOVLB  0
0235E:  CALL   1500
....................    Ganancia=read_eeprom(250); 
02362:  MOVFF  FF2,7A9
02366:  BCF    FF2.7
02368:  CLRF   FAA
0236A:  MOVLW  FA
0236C:  MOVWF  FA9
0236E:  BCF    FA6.6
02370:  BCF    FA6.7
02372:  BSF    FA6.0
02374:  MOVF   FA8,W
02376:  MOVLB  7
02378:  BTFSC  xA9.7
0237A:  BSF    FF2.7
0237C:  CLRF   xB0
0237E:  MOVWF  xAF
02380:  MOVLB  0
02382:  RCALL  1EB6
02384:  MOVFF  03,60C
02388:  MOVFF  02,60B
0238C:  MOVFF  01,60A
02390:  MOVFF  00,609
....................    delay_ms(50);    
02394:  MOVLW  32
02396:  MOVLB  7
02398:  MOVWF  xAF
0239A:  MOVLB  0
0239C:  CALL   1500
....................    if(Ganancia>10){ 
023A0:  MOVLB  7
023A2:  CLRF   xAC
023A4:  CLRF   xAB
023A6:  MOVLW  20
023A8:  MOVWF  xAA
023AA:  MOVLW  82
023AC:  MOVWF  xA9
023AE:  MOVFF  60C,7B0
023B2:  MOVFF  60B,7AF
023B6:  MOVFF  60A,7AE
023BA:  MOVFF  609,7AD
023BE:  MOVLB  0
023C0:  RCALL  1EEC
023C2:  BNC   240A
....................       Ganancia=3; 
023C4:  MOVLB  6
023C6:  CLRF   x0C
023C8:  CLRF   x0B
023CA:  MOVLW  40
023CC:  MOVWF  x0A
023CE:  MOVLW  80
023D0:  MOVWF  x09
....................       write_eeprom(250,3); 
023D2:  CLRF   FAA
023D4:  MOVLW  FA
023D6:  MOVWF  FA9
023D8:  MOVLW  03
023DA:  MOVWF  FA8
023DC:  BCF    FA6.6
023DE:  BCF    FA6.7
023E0:  BSF    FA6.2
023E2:  MOVF   FF2,W
023E4:  MOVWF  00
023E6:  BCF    FF2.7
023E8:  MOVLB  F
023EA:  MOVLW  55
023EC:  MOVWF  FA7
023EE:  MOVLW  AA
023F0:  MOVWF  FA7
023F2:  BSF    FA6.1
023F4:  BTFSC  FA6.1
023F6:  BRA    23F4
023F8:  BCF    FA6.2
023FA:  MOVF   00,W
023FC:  IORWF  FF2,F
....................       delay_ms(20); 
023FE:  MOVLW  14
02400:  MOVLB  7
02402:  MOVWF  xAF
02404:  MOVLB  0
02406:  CALL   1500
....................    } 
....................    Tciclo=read_eeprom(251); 
0240A:  MOVFF  FF2,7A9
0240E:  BCF    FF2.7
02410:  CLRF   FAA
02412:  MOVLW  FB
02414:  MOVWF  FA9
02416:  BCF    FA6.6
02418:  BCF    FA6.7
0241A:  BSF    FA6.0
0241C:  MOVF   FA8,W
0241E:  MOVLB  7
02420:  BTFSC  xA9.7
02422:  BSF    FF2.7
02424:  CLRF   xB0
02426:  MOVWF  xAF
02428:  MOVLB  0
0242A:  RCALL  1EB6
0242C:  MOVFF  03,5F4
02430:  MOVFF  02,5F3
02434:  MOVFF  01,5F2
02438:  MOVFF  00,5F1
....................    delay_ms(50);    
0243C:  MOVLW  32
0243E:  MOVLB  7
02440:  MOVWF  xAF
02442:  MOVLB  0
02444:  CALL   1500
....................    if(Tciclo>10){ 
02448:  MOVLB  7
0244A:  CLRF   xAC
0244C:  CLRF   xAB
0244E:  MOVLW  20
02450:  MOVWF  xAA
02452:  MOVLW  82
02454:  MOVWF  xA9
02456:  MOVFF  5F4,7B0
0245A:  MOVFF  5F3,7AF
0245E:  MOVFF  5F2,7AE
02462:  MOVFF  5F1,7AD
02466:  MOVLB  0
02468:  RCALL  1EEC
0246A:  BNC   24B2
....................       Tciclo=10; 
0246C:  MOVLB  5
0246E:  CLRF   xF4
02470:  CLRF   xF3
02472:  MOVLW  20
02474:  MOVWF  xF2
02476:  MOVLW  82
02478:  MOVWF  xF1
....................       write_eeprom(251,10); 
0247A:  CLRF   FAA
0247C:  MOVLW  FB
0247E:  MOVWF  FA9
02480:  MOVLW  0A
02482:  MOVWF  FA8
02484:  BCF    FA6.6
02486:  BCF    FA6.7
02488:  BSF    FA6.2
0248A:  MOVF   FF2,W
0248C:  MOVWF  00
0248E:  BCF    FF2.7
02490:  MOVLB  F
02492:  MOVLW  55
02494:  MOVWF  FA7
02496:  MOVLW  AA
02498:  MOVWF  FA7
0249A:  BSF    FA6.1
0249C:  BTFSC  FA6.1
0249E:  BRA    249C
024A0:  BCF    FA6.2
024A2:  MOVF   00,W
024A4:  IORWF  FF2,F
....................       delay_ms(20); 
024A6:  MOVLW  14
024A8:  MOVLB  7
024AA:  MOVWF  xAF
024AC:  MOVLB  0
024AE:  CALL   1500
....................    } 
....................    Ajuste=read_eeprom(252); 
024B2:  MOVFF  FF2,7A9
024B6:  BCF    FF2.7
024B8:  CLRF   FAA
024BA:  MOVLW  FC
024BC:  MOVWF  FA9
024BE:  BCF    FA6.6
024C0:  BCF    FA6.7
024C2:  BSF    FA6.0
024C4:  MOVF   FA8,W
024C6:  MOVLB  7
024C8:  BTFSC  xA9.7
024CA:  BSF    FF2.7
024CC:  MOVLB  5
024CE:  MOVWF  x8A
....................    delay_ms(50); 
024D0:  MOVLW  32
024D2:  MOVLB  7
024D4:  MOVWF  xAF
024D6:  MOVLB  0
024D8:  CALL   1500
....................    if(Ajuste>10){ 
024DC:  MOVLB  5
024DE:  MOVF   x8A,W
024E0:  SUBLW  0A
024E2:  BC    251E
....................       Ajuste=0; 
024E4:  CLRF   x8A
....................       write_eeprom(252,0); 
024E6:  CLRF   FAA
024E8:  MOVLW  FC
024EA:  MOVWF  FA9
024EC:  CLRF   FA8
024EE:  BCF    FA6.6
024F0:  BCF    FA6.7
024F2:  BSF    FA6.2
024F4:  MOVF   FF2,W
024F6:  MOVWF  00
024F8:  BCF    FF2.7
024FA:  MOVLB  F
024FC:  MOVLW  55
024FE:  MOVWF  FA7
02500:  MOVLW  AA
02502:  MOVWF  FA7
02504:  BSF    FA6.1
02506:  BTFSC  FA6.1
02508:  BRA    2506
0250A:  BCF    FA6.2
0250C:  MOVF   00,W
0250E:  IORWF  FF2,F
....................       delay_ms(20); 
02510:  MOVLW  14
02512:  MOVLB  7
02514:  MOVWF  xAF
02516:  MOVLB  0
02518:  CALL   1500
0251C:  MOVLB  5
....................    } 
....................    Ajusten=read_eeprom(253); 
0251E:  MOVFF  FF2,7A9
02522:  BCF    FF2.7
02524:  CLRF   FAA
02526:  MOVLW  FD
02528:  MOVWF  FA9
0252A:  BCF    FA6.6
0252C:  BCF    FA6.7
0252E:  BSF    FA6.0
02530:  MOVF   FA8,W
02532:  MOVLB  7
02534:  BTFSC  xA9.7
02536:  BSF    FF2.7
02538:  MOVLB  5
0253A:  MOVWF  x8B
....................    delay_ms(50); 
0253C:  MOVLW  32
0253E:  MOVLB  7
02540:  MOVWF  xAF
02542:  MOVLB  0
02544:  CALL   1500
....................    if(Ajusten>10){ 
02548:  MOVLB  5
0254A:  MOVF   x8B,W
0254C:  SUBLW  0A
0254E:  BC    258A
....................       Ajusten=0; 
02550:  CLRF   x8B
....................       write_eeprom(253,0); 
02552:  CLRF   FAA
02554:  MOVLW  FD
02556:  MOVWF  FA9
02558:  CLRF   FA8
0255A:  BCF    FA6.6
0255C:  BCF    FA6.7
0255E:  BSF    FA6.2
02560:  MOVF   FF2,W
02562:  MOVWF  00
02564:  BCF    FF2.7
02566:  MOVLB  F
02568:  MOVLW  55
0256A:  MOVWF  FA7
0256C:  MOVLW  AA
0256E:  MOVWF  FA7
02570:  BSF    FA6.1
02572:  BTFSC  FA6.1
02574:  BRA    2572
02576:  BCF    FA6.2
02578:  MOVF   00,W
0257A:  IORWF  FF2,F
....................       delay_ms(20); 
0257C:  MOVLW  14
0257E:  MOVLB  7
02580:  MOVWF  xAF
02582:  MOVLB  0
02584:  CALL   1500
02588:  MOVLB  5
....................    } 
....................    MediaMovil=read_eeprom(254); 
0258A:  MOVFF  FF2,7A9
0258E:  BCF    FF2.7
02590:  CLRF   FAA
02592:  MOVLW  FE
02594:  MOVWF  FA9
02596:  BCF    FA6.6
02598:  BCF    FA6.7
0259A:  BSF    FA6.0
0259C:  MOVF   FA8,W
0259E:  MOVLB  7
025A0:  BTFSC  xA9.7
025A2:  BSF    FF2.7
025A4:  MOVLB  5
025A6:  MOVWF  x8C
....................    delay_ms(50);    
025A8:  MOVLW  32
025AA:  MOVLB  7
025AC:  MOVWF  xAF
025AE:  MOVLB  0
025B0:  CALL   1500
....................    if(MediaMovil>40){ 
025B4:  MOVLB  5
025B6:  MOVF   x8C,W
025B8:  SUBLW  28
025BA:  BC    25FA
....................       MediaMovil=20; 
025BC:  MOVLW  14
025BE:  MOVWF  x8C
....................       write_eeprom(254,20); 
025C0:  CLRF   FAA
025C2:  MOVLW  FE
025C4:  MOVWF  FA9
025C6:  MOVLW  14
025C8:  MOVWF  FA8
025CA:  BCF    FA6.6
025CC:  BCF    FA6.7
025CE:  BSF    FA6.2
025D0:  MOVF   FF2,W
025D2:  MOVWF  00
025D4:  BCF    FF2.7
025D6:  MOVLB  F
025D8:  MOVLW  55
025DA:  MOVWF  FA7
025DC:  MOVLW  AA
025DE:  MOVWF  FA7
025E0:  BSF    FA6.1
025E2:  BTFSC  FA6.1
025E4:  BRA    25E2
025E6:  BCF    FA6.2
025E8:  MOVF   00,W
025EA:  IORWF  FF2,F
....................       delay_ms(20); 
025EC:  MOVLW  14
025EE:  MOVLB  7
025F0:  MOVWF  xAF
025F2:  MOVLB  0
025F4:  CALL   1500
025F8:  MOVLB  5
....................    } 
....................    Coeficiente=read_eeprom(255); 
025FA:  MOVFF  FF2,7A9
025FE:  BCF    FF2.7
02600:  CLRF   FAA
02602:  MOVLW  FF
02604:  MOVWF  FA9
02606:  BCF    FA6.6
02608:  BCF    FA6.7
0260A:  BSF    FA6.0
0260C:  MOVF   FA8,W
0260E:  MOVLB  7
02610:  BTFSC  xA9.7
02612:  BSF    FF2.7
02614:  CLRF   xB0
02616:  MOVWF  xAF
02618:  MOVLB  0
0261A:  RCALL  1EB6
0261C:  MOVFF  03,614
02620:  MOVFF  02,613
02624:  MOVFF  01,612
02628:  MOVFF  00,611
....................    delay_ms(50);    
0262C:  MOVLW  32
0262E:  MOVLB  7
02630:  MOVWF  xAF
02632:  MOVLB  0
02634:  CALL   1500
....................    AlTem=read_eeprom(256); 
02638:  MOVFF  FF2,7A9
0263C:  BCF    FF2.7
0263E:  MOVLW  01
02640:  MOVWF  FAA
02642:  CLRF   FA9
02644:  BCF    FA6.6
02646:  BCF    FA6.7
02648:  BSF    FA6.0
0264A:  MOVF   FA8,W
0264C:  MOVLB  7
0264E:  BTFSC  xA9.7
02650:  BSF    FF2.7
02652:  CLRF   xB0
02654:  MOVWF  xAF
02656:  MOVLB  0
02658:  RCALL  1EB6
0265A:  MOVFF  03,618
0265E:  MOVFF  02,617
02662:  MOVFF  01,616
02666:  MOVFF  00,615
....................    delay_ms(50);  
0266A:  MOVLW  32
0266C:  MOVLB  7
0266E:  MOVWF  xAF
02670:  MOVLB  0
02672:  CALL   1500
....................    resistencia=read_eeprom(257); 
02676:  MOVFF  FF2,7A9
0267A:  BCF    FF2.7
0267C:  MOVLW  01
0267E:  MOVWF  FAA
02680:  MOVLW  01
02682:  MOVWF  FA9
02684:  BCF    FA6.6
02686:  BCF    FA6.7
02688:  BSF    FA6.0
0268A:  MOVF   FA8,W
0268C:  MOVLB  7
0268E:  BTFSC  xA9.7
02690:  BSF    FF2.7
02692:  CLRF   xB0
02694:  MOVWF  xAF
02696:  MOVLB  0
02698:  RCALL  1EB6
0269A:  MOVFF  03,61C
0269E:  MOVFF  02,61B
026A2:  MOVFF  01,61A
026A6:  MOVFF  00,619
....................    delay_ms(50);  
026AA:  MOVLW  32
026AC:  MOVLB  7
026AE:  MOVWF  xAF
026B0:  MOVLB  0
026B2:  CALL   1500
....................    if(resistencia>250){ 
026B6:  MOVLB  7
026B8:  CLRF   xAC
026BA:  CLRF   xAB
026BC:  MOVLW  7A
026BE:  MOVWF  xAA
026C0:  MOVLW  86
026C2:  MOVWF  xA9
026C4:  MOVFF  61C,7B0
026C8:  MOVFF  61B,7AF
026CC:  MOVFF  61A,7AE
026D0:  MOVFF  619,7AD
026D4:  MOVLB  0
026D6:  RCALL  1EEC
026D8:  BNC   2720
....................       resistencia=240; 
026DA:  MOVLB  6
026DC:  CLRF   x1C
026DE:  CLRF   x1B
026E0:  MOVLW  70
026E2:  MOVWF  x1A
026E4:  MOVLW  86
026E6:  MOVWF  x19
....................       write_eeprom(257,240); 
026E8:  MOVLW  01
026EA:  MOVWF  FAA
026EC:  MOVWF  FA9
026EE:  MOVLW  F0
026F0:  MOVWF  FA8
026F2:  BCF    FA6.6
026F4:  BCF    FA6.7
026F6:  BSF    FA6.2
026F8:  MOVF   FF2,W
026FA:  MOVWF  00
026FC:  BCF    FF2.7
026FE:  MOVLB  F
02700:  MOVLW  55
02702:  MOVWF  FA7
02704:  MOVLW  AA
02706:  MOVWF  FA7
02708:  BSF    FA6.1
0270A:  BTFSC  FA6.1
0270C:  BRA    270A
0270E:  BCF    FA6.2
02710:  MOVF   00,W
02712:  IORWF  FF2,F
....................       delay_ms(20); 
02714:  MOVLW  14
02716:  MOVLB  7
02718:  MOVWF  xAF
0271A:  MOVLB  0
0271C:  CALL   1500
....................    } 
....................    penMufla=read_eeprom(258); 
02720:  MOVFF  FF2,7A9
02724:  BCF    FF2.7
02726:  MOVLW  01
02728:  MOVWF  FAA
0272A:  MOVLW  02
0272C:  MOVWF  FA9
0272E:  BCF    FA6.6
02730:  BCF    FA6.7
02732:  BSF    FA6.0
02734:  MOVF   FA8,W
02736:  MOVLB  7
02738:  BTFSC  xA9.7
0273A:  BSF    FF2.7
0273C:  CLRF   xB0
0273E:  MOVWF  xAF
02740:  MOVLB  0
02742:  CALL   1EB6
02746:  MOVFF  03,654
0274A:  MOVFF  02,653
0274E:  MOVFF  01,652
02752:  MOVFF  00,651
....................    delay_ms(50);  
02756:  MOVLW  32
02758:  MOVLB  7
0275A:  MOVWF  xAF
0275C:  MOVLB  0
0275E:  CALL   1500
....................    if(penMufla>150){ 
02762:  MOVLB  7
02764:  CLRF   xAC
02766:  CLRF   xAB
02768:  MOVLW  16
0276A:  MOVWF  xAA
0276C:  MOVLW  86
0276E:  MOVWF  xA9
02770:  MOVFF  654,7B0
02774:  MOVFF  653,7AF
02778:  MOVFF  652,7AE
0277C:  MOVFF  651,7AD
02780:  MOVLB  0
02782:  CALL   1EEC
02786:  BNC   27D0
....................       penMufla=100; 
02788:  MOVLB  6
0278A:  CLRF   x54
0278C:  CLRF   x53
0278E:  MOVLW  48
02790:  MOVWF  x52
02792:  MOVLW  85
02794:  MOVWF  x51
....................       write_eeprom(258,100); 
02796:  MOVLW  01
02798:  MOVWF  FAA
0279A:  MOVLW  02
0279C:  MOVWF  FA9
0279E:  MOVLW  64
027A0:  MOVWF  FA8
027A2:  BCF    FA6.6
027A4:  BCF    FA6.7
027A6:  BSF    FA6.2
027A8:  MOVF   FF2,W
027AA:  MOVWF  00
027AC:  BCF    FF2.7
027AE:  MOVLB  F
027B0:  MOVLW  55
027B2:  MOVWF  FA7
027B4:  MOVLW  AA
027B6:  MOVWF  FA7
027B8:  BSF    FA6.1
027BA:  BTFSC  FA6.1
027BC:  BRA    27BA
027BE:  BCF    FA6.2
027C0:  MOVF   00,W
027C2:  IORWF  FF2,F
....................       delay_ms(20); 
027C4:  MOVLW  14
027C6:  MOVLB  7
027C8:  MOVWF  xAF
027CA:  MOVLB  0
027CC:  CALL   1500
....................    } 
....................     
....................    Password[0]=read_eeprom(260); 
027D0:  MOVFF  FF2,7A9
027D4:  BCF    FF2.7
027D6:  MOVLW  01
027D8:  MOVWF  FAA
027DA:  MOVLW  04
027DC:  MOVWF  FA9
027DE:  BCF    FA6.6
027E0:  BCF    FA6.7
027E2:  BSF    FA6.0
027E4:  MOVF   FA8,W
027E6:  MOVLB  7
027E8:  BTFSC  xA9.7
027EA:  BSF    FF2.7
027EC:  MOVLB  5
027EE:  MOVWF  xE9
....................    delay_ms(50);    
027F0:  MOVLW  32
027F2:  MOVLB  7
027F4:  MOVWF  xAF
027F6:  MOVLB  0
027F8:  CALL   1500
....................    if(Password[0]>9 || Password[0]<0){ 
027FC:  MOVLB  5
027FE:  BTFSC  xE9.7
02800:  BRA    2808
02802:  MOVF   xE9,W
02804:  SUBLW  09
02806:  BNC   280E
02808:  BTFSC  xE9.7
0280A:  BRA    280E
0280C:  BRA    284A
....................       Password[0]=0; 
0280E:  CLRF   xE9
....................       write_eeprom(260,0); 
02810:  MOVLW  01
02812:  MOVWF  FAA
02814:  MOVLW  04
02816:  MOVWF  FA9
02818:  CLRF   FA8
0281A:  BCF    FA6.6
0281C:  BCF    FA6.7
0281E:  BSF    FA6.2
02820:  MOVF   FF2,W
02822:  MOVWF  00
02824:  BCF    FF2.7
02826:  MOVLB  F
02828:  MOVLW  55
0282A:  MOVWF  FA7
0282C:  MOVLW  AA
0282E:  MOVWF  FA7
02830:  BSF    FA6.1
02832:  BTFSC  FA6.1
02834:  BRA    2832
02836:  BCF    FA6.2
02838:  MOVF   00,W
0283A:  IORWF  FF2,F
....................       delay_ms(20); 
0283C:  MOVLW  14
0283E:  MOVLB  7
02840:  MOVWF  xAF
02842:  MOVLB  0
02844:  CALL   1500
02848:  MOVLB  5
....................    } 
....................    Password[1]=read_eeprom(261); 
0284A:  MOVFF  FF2,7A9
0284E:  BCF    FF2.7
02850:  MOVLW  01
02852:  MOVWF  FAA
02854:  MOVLW  05
02856:  MOVWF  FA9
02858:  BCF    FA6.6
0285A:  BCF    FA6.7
0285C:  BSF    FA6.0
0285E:  MOVF   FA8,W
02860:  MOVLB  7
02862:  BTFSC  xA9.7
02864:  BSF    FF2.7
02866:  MOVLB  5
02868:  MOVWF  xEA
....................    delay_ms(50);    
0286A:  MOVLW  32
0286C:  MOVLB  7
0286E:  MOVWF  xAF
02870:  MOVLB  0
02872:  CALL   1500
....................    if(Password[1]>9 || Password[1]<0){ 
02876:  MOVLB  5
02878:  BTFSC  xEA.7
0287A:  BRA    2882
0287C:  MOVF   xEA,W
0287E:  SUBLW  09
02880:  BNC   2888
02882:  BTFSC  xEA.7
02884:  BRA    2888
02886:  BRA    28C4
....................       Password[1]=0; 
02888:  CLRF   xEA
....................       write_eeprom(261,0); 
0288A:  MOVLW  01
0288C:  MOVWF  FAA
0288E:  MOVLW  05
02890:  MOVWF  FA9
02892:  CLRF   FA8
02894:  BCF    FA6.6
02896:  BCF    FA6.7
02898:  BSF    FA6.2
0289A:  MOVF   FF2,W
0289C:  MOVWF  00
0289E:  BCF    FF2.7
028A0:  MOVLB  F
028A2:  MOVLW  55
028A4:  MOVWF  FA7
028A6:  MOVLW  AA
028A8:  MOVWF  FA7
028AA:  BSF    FA6.1
028AC:  BTFSC  FA6.1
028AE:  BRA    28AC
028B0:  BCF    FA6.2
028B2:  MOVF   00,W
028B4:  IORWF  FF2,F
....................       delay_ms(20); 
028B6:  MOVLW  14
028B8:  MOVLB  7
028BA:  MOVWF  xAF
028BC:  MOVLB  0
028BE:  CALL   1500
028C2:  MOVLB  5
....................    } 
....................    Password[2]=read_eeprom(262); 
028C4:  MOVFF  FF2,7A9
028C8:  BCF    FF2.7
028CA:  MOVLW  01
028CC:  MOVWF  FAA
028CE:  MOVLW  06
028D0:  MOVWF  FA9
028D2:  BCF    FA6.6
028D4:  BCF    FA6.7
028D6:  BSF    FA6.0
028D8:  MOVF   FA8,W
028DA:  MOVLB  7
028DC:  BTFSC  xA9.7
028DE:  BSF    FF2.7
028E0:  MOVLB  5
028E2:  MOVWF  xEB
....................    delay_ms(50);    
028E4:  MOVLW  32
028E6:  MOVLB  7
028E8:  MOVWF  xAF
028EA:  MOVLB  0
028EC:  CALL   1500
....................    if(Password[2]>9 || Password[2]<0){ 
028F0:  MOVLB  5
028F2:  BTFSC  xEB.7
028F4:  BRA    28FC
028F6:  MOVF   xEB,W
028F8:  SUBLW  09
028FA:  BNC   2902
028FC:  BTFSC  xEB.7
028FE:  BRA    2902
02900:  BRA    293E
....................       Password[2]=0; 
02902:  CLRF   xEB
....................       write_eeprom(262,0); 
02904:  MOVLW  01
02906:  MOVWF  FAA
02908:  MOVLW  06
0290A:  MOVWF  FA9
0290C:  CLRF   FA8
0290E:  BCF    FA6.6
02910:  BCF    FA6.7
02912:  BSF    FA6.2
02914:  MOVF   FF2,W
02916:  MOVWF  00
02918:  BCF    FF2.7
0291A:  MOVLB  F
0291C:  MOVLW  55
0291E:  MOVWF  FA7
02920:  MOVLW  AA
02922:  MOVWF  FA7
02924:  BSF    FA6.1
02926:  BTFSC  FA6.1
02928:  BRA    2926
0292A:  BCF    FA6.2
0292C:  MOVF   00,W
0292E:  IORWF  FF2,F
....................       delay_ms(20); 
02930:  MOVLW  14
02932:  MOVLB  7
02934:  MOVWF  xAF
02936:  MOVLB  0
02938:  CALL   1500
0293C:  MOVLB  5
....................    } 
....................    Password[3]=read_eeprom(263); 
0293E:  MOVFF  FF2,7A9
02942:  BCF    FF2.7
02944:  MOVLW  01
02946:  MOVWF  FAA
02948:  MOVLW  07
0294A:  MOVWF  FA9
0294C:  BCF    FA6.6
0294E:  BCF    FA6.7
02950:  BSF    FA6.0
02952:  MOVF   FA8,W
02954:  MOVLB  7
02956:  BTFSC  xA9.7
02958:  BSF    FF2.7
0295A:  MOVLB  5
0295C:  MOVWF  xEC
....................    delay_ms(50); 
0295E:  MOVLW  32
02960:  MOVLB  7
02962:  MOVWF  xAF
02964:  MOVLB  0
02966:  CALL   1500
....................    if(Password[3]>9 || Password[3]<0){ 
0296A:  MOVLB  5
0296C:  BTFSC  xEC.7
0296E:  BRA    2976
02970:  MOVF   xEC,W
02972:  SUBLW  09
02974:  BNC   297C
02976:  BTFSC  xEC.7
02978:  BRA    297C
0297A:  BRA    29B8
....................       Password[3]=0; 
0297C:  CLRF   xEC
....................       write_eeprom(263,0); 
0297E:  MOVLW  01
02980:  MOVWF  FAA
02982:  MOVLW  07
02984:  MOVWF  FA9
02986:  CLRF   FA8
02988:  BCF    FA6.6
0298A:  BCF    FA6.7
0298C:  BSF    FA6.2
0298E:  MOVF   FF2,W
02990:  MOVWF  00
02992:  BCF    FF2.7
02994:  MOVLB  F
02996:  MOVLW  55
02998:  MOVWF  FA7
0299A:  MOVLW  AA
0299C:  MOVWF  FA7
0299E:  BSF    FA6.1
029A0:  BTFSC  FA6.1
029A2:  BRA    29A0
029A4:  BCF    FA6.2
029A6:  MOVF   00,W
029A8:  IORWF  FF2,F
....................       delay_ms(20); 
029AA:  MOVLW  14
029AC:  MOVLB  7
029AE:  MOVWF  xAF
029B0:  MOVLB  0
029B2:  CALL   1500
029B6:  MOVLB  5
....................    } 
....................     
....................    Integral=read_eeprom(270); 
029B8:  MOVFF  FF2,7A9
029BC:  BCF    FF2.7
029BE:  MOVLW  01
029C0:  MOVWF  FAA
029C2:  MOVLW  0E
029C4:  MOVWF  FA9
029C6:  BCF    FA6.6
029C8:  BCF    FA6.7
029CA:  BSF    FA6.0
029CC:  MOVF   FA8,W
029CE:  MOVLB  7
029D0:  BTFSC  xA9.7
029D2:  BSF    FF2.7
029D4:  CLRF   xB0
029D6:  MOVWF  xAF
029D8:  MOVLB  0
029DA:  CALL   1EB6
029DE:  MOVFF  03,634
029E2:  MOVFF  02,633
029E6:  MOVFF  01,632
029EA:  MOVFF  00,631
....................    delay_ms(50);  
029EE:  MOVLW  32
029F0:  MOVLB  7
029F2:  MOVWF  xAF
029F4:  MOVLB  0
029F6:  CALL   1500
....................    if(Integral>5){ 
029FA:  MOVLB  7
029FC:  CLRF   xAC
029FE:  CLRF   xAB
02A00:  MOVLW  20
02A02:  MOVWF  xAA
02A04:  MOVLW  81
02A06:  MOVWF  xA9
02A08:  MOVFF  634,7B0
02A0C:  MOVFF  633,7AF
02A10:  MOVFF  632,7AE
02A14:  MOVFF  631,7AD
02A18:  MOVLB  0
02A1A:  CALL   1EEC
02A1E:  BNC   2A66
....................       Integral=1; 
02A20:  MOVLB  6
02A22:  CLRF   x34
02A24:  CLRF   x33
02A26:  CLRF   x32
02A28:  MOVLW  7F
02A2A:  MOVWF  x31
....................       write_eeprom(270,1); 
02A2C:  MOVLW  01
02A2E:  MOVWF  FAA
02A30:  MOVLW  0E
02A32:  MOVWF  FA9
02A34:  MOVLW  01
02A36:  MOVWF  FA8
02A38:  BCF    FA6.6
02A3A:  BCF    FA6.7
02A3C:  BSF    FA6.2
02A3E:  MOVF   FF2,W
02A40:  MOVWF  00
02A42:  BCF    FF2.7
02A44:  MOVLB  F
02A46:  MOVLW  55
02A48:  MOVWF  FA7
02A4A:  MOVLW  AA
02A4C:  MOVWF  FA7
02A4E:  BSF    FA6.1
02A50:  BTFSC  FA6.1
02A52:  BRA    2A50
02A54:  BCF    FA6.2
02A56:  MOVF   00,W
02A58:  IORWF  FF2,F
....................       delay_ms(20); 
02A5A:  MOVLW  14
02A5C:  MOVLB  7
02A5E:  MOVWF  xAF
02A60:  MOVLB  0
02A62:  CALL   1500
....................    } 
....................    Derivativo=read_eeprom(271); 
02A66:  MOVFF  FF2,7A9
02A6A:  BCF    FF2.7
02A6C:  MOVLW  01
02A6E:  MOVWF  FAA
02A70:  MOVLW  0F
02A72:  MOVWF  FA9
02A74:  BCF    FA6.6
02A76:  BCF    FA6.7
02A78:  BSF    FA6.0
02A7A:  MOVF   FA8,W
02A7C:  MOVLB  7
02A7E:  BTFSC  xA9.7
02A80:  BSF    FF2.7
02A82:  CLRF   xB0
02A84:  MOVWF  xAF
02A86:  MOVLB  0
02A88:  CALL   1EB6
02A8C:  MOVFF  03,638
02A90:  MOVFF  02,637
02A94:  MOVFF  01,636
02A98:  MOVFF  00,635
....................    delay_ms(50);  
02A9C:  MOVLW  32
02A9E:  MOVLB  7
02AA0:  MOVWF  xAF
02AA2:  MOVLB  0
02AA4:  CALL   1500
....................    if(Derivativo>20){ 
02AA8:  MOVLB  7
02AAA:  CLRF   xAC
02AAC:  CLRF   xAB
02AAE:  MOVLW  20
02AB0:  MOVWF  xAA
02AB2:  MOVLW  83
02AB4:  MOVWF  xA9
02AB6:  MOVFF  638,7B0
02ABA:  MOVFF  637,7AF
02ABE:  MOVFF  636,7AE
02AC2:  MOVFF  635,7AD
02AC6:  MOVLB  0
02AC8:  CALL   1EEC
02ACC:  BNC   2B16
....................       Derivativo=20; 
02ACE:  MOVLB  6
02AD0:  CLRF   x38
02AD2:  CLRF   x37
02AD4:  MOVLW  20
02AD6:  MOVWF  x36
02AD8:  MOVLW  83
02ADA:  MOVWF  x35
....................       write_eeprom(271,20); 
02ADC:  MOVLW  01
02ADE:  MOVWF  FAA
02AE0:  MOVLW  0F
02AE2:  MOVWF  FA9
02AE4:  MOVLW  14
02AE6:  MOVWF  FA8
02AE8:  BCF    FA6.6
02AEA:  BCF    FA6.7
02AEC:  BSF    FA6.2
02AEE:  MOVF   FF2,W
02AF0:  MOVWF  00
02AF2:  BCF    FF2.7
02AF4:  MOVLB  F
02AF6:  MOVLW  55
02AF8:  MOVWF  FA7
02AFA:  MOVLW  AA
02AFC:  MOVWF  FA7
02AFE:  BSF    FA6.1
02B00:  BTFSC  FA6.1
02B02:  BRA    2B00
02B04:  BCF    FA6.2
02B06:  MOVF   00,W
02B08:  IORWF  FF2,F
....................       delay_ms(20); 
02B0A:  MOVLW  14
02B0C:  MOVLB  7
02B0E:  MOVWF  xAF
02B10:  MOVLB  0
02B12:  CALL   1500
....................    } 
....................    Modo=read_eeprom(280); 
02B16:  MOVFF  FF2,7A9
02B1A:  BCF    FF2.7
02B1C:  MOVLW  01
02B1E:  MOVWF  FAA
02B20:  MOVLW  18
02B22:  MOVWF  FA9
02B24:  BCF    FA6.6
02B26:  BCF    FA6.7
02B28:  BSF    FA6.0
02B2A:  MOVF   FA8,W
02B2C:  MOVLB  7
02B2E:  BTFSC  xA9.7
02B30:  BSF    FF2.7
02B32:  MOVLB  5
02B34:  MOVWF  x94
....................    delay_ms(50);  
02B36:  MOVLW  32
02B38:  MOVLB  7
02B3A:  MOVWF  xAF
02B3C:  MOVLB  0
02B3E:  CALL   1500
.................... } 
02B42:  GOTO   6916 (RETURN)
....................  
....................  
.................... #int_TIMER1 
.................... void temp1s(void){ 
....................    //set_timer1(45612);  // 5 ms 5536 , Posiblemente cargar con 22144 debido a F=12MHz 
....................    set_timer1(40536); 
*
0144E:  MOVLW  9E
01450:  MOVWF  FCF
01452:  MOVLW  58
01454:  MOVWF  FCE
....................    tiempos++; 
01456:  MOVLB  5
01458:  INCF   xA5,F
0145A:  BTFSC  FD8.2
0145C:  INCF   xA6,F
....................    tiempos3++; 
0145E:  INCF   xA7,F
01460:  BTFSC  FD8.2
01462:  INCF   xA8,F
....................    tiempoctrl++; 
01464:  INCF   xA9,F
01466:  BTFSC  FD8.2
01468:  INCF   xAA,F
....................     
....................    if(Control==1){ 
0146A:  DECFSZ x99,W
0146C:  BRA    149A
....................       if(tiempoctrl>=Tc) // Si el tiempo de control es mayor al tiempo de ciclo se reinicia tiempo de control 
0146E:  MOVF   xB4,W
01470:  SUBWF  xAA,W
01472:  BNC   1480
01474:  BNZ   147C
01476:  MOVF   xB3,W
01478:  SUBWF  xA9,W
0147A:  BNC   1480
....................       { 
....................          tiempoctrl=0; 
0147C:  CLRF   xAA
0147E:  CLRF   xA9
....................       } // tiempoctrl incrementa una unidad cada 5ms, por eso se dividen los tiempos por 0.005. 
....................        
....................       if(tiempoctrl<=Tp) // Si el tiempo es menor o igual al tiempo de control se enciende la resistencia de lo contrario se apaga. 
01480:  MOVF   xAA,W
01482:  SUBWF  xB2,W
01484:  BNC   1494
01486:  BNZ   148E
01488:  MOVF   xA9,W
0148A:  SUBWF  xB1,W
0148C:  BNC   1494
....................       { 
....................          Resistencia_on; 
0148E:  BSF    F8B.0
01490:  BCF    F94.0
....................       } 
....................       else          
01492:  BRA    1498
....................       { 
....................          Resistencia_off; 
01494:  BCF    F8B.0
01496:  BCF    F94.0
....................       } 
....................    } 
....................    else{ 
01498:  BRA    149E
....................       Resistencia_off; 
0149A:  BCF    F8B.0
0149C:  BCF    F94.0
....................    } 
....................     
....................    if(tiempos3>=200) 
0149E:  MOVF   xA8,F
014A0:  BNZ   14A8
014A2:  MOVF   xA7,W
014A4:  SUBLW  C7
014A6:  BC    14BC
....................    { 
....................       Lectura2=1; 
014A8:  MOVLW  01
014AA:  MOVWF  x8F
....................       if(flagup) 
014AC:  BTFSS  x87.0
014AE:  BRA    14B2
....................          tiempoup++; 
014B0:  INCF   x90,F
....................       if(flagdn) 
014B2:  BTFSS  x87.1
014B4:  BRA    14B8
....................          tiempodn++;    
014B6:  INCF   x91,F
....................       tiempos3=0; 
014B8:  CLRF   xA8
014BA:  CLRF   xA7
....................    } 
....................      
....................    if(tiempos>=200)  // 12000 para que incremente cada minuto, 200para que incremente cada segundo. 
014BC:  MOVF   xA6,F
014BE:  BNZ   14C6
014C0:  MOVF   xA5,W
014C2:  SUBLW  C7
014C4:  BC    14F8
....................    {tiempos=0;Lectura=1;tiemporeset++;TiempoControl++;tiemporecta++; 
014C6:  CLRF   xA6
014C8:  CLRF   xA5
014CA:  BSF    x87.7
014CC:  INCF   x97,F
014CE:  INCF   xA0,F
014D0:  INCF   x8D,F
....................     
....................       if(flag_setpoint==1) 
014D2:  BTFSS  x95.4
014D4:  BRA    14DC
....................          tiemposetpoint++; 
014D6:  INCF   xAF,F
014D8:  BTFSC  FD8.2
014DA:  INCF   xB0,F
....................        
....................       if(tiempo_esterilizacion==1 || tiempo_esterilizacion==2){                
014DC:  DECFSZ xA2,W
014DE:  BRA    14E2
014E0:  BRA    14E8
014E2:  MOVF   xA2,W
014E4:  SUBLW  02
014E6:  BNZ   14EE
....................          tinicio++; 
014E8:  INCF   xAB,F
014EA:  BTFSC  FD8.2
014EC:  INCF   xAC,F
....................       } 
....................           
....................       if(flag_tiempocalentamiento==1) 
014EE:  BTFSS  x95.2
014F0:  BRA    14F8
....................       { 
....................          tiempocalentamiento++; 
014F2:  INCF   xAD,F
014F4:  BTFSC  FD8.2
014F6:  INCF   xAE,F
....................       } 
....................    }         
.................... } 
....................  
014F8:  BCF    F9E.0
014FA:  MOVLB  0
014FC:  GOTO   0058
.................... void main()  
.................... {  
*
062A8:  CLRF   FF8
062AA:  BCF    FD0.7
062AC:  BSF    07.7
062AE:  CLRF   FEA
062B0:  CLRF   FE9
062B2:  MOVLB  5
062B4:  BCF    x87.0
062B6:  BCF    x87.1
062B8:  BCF    x87.2
062BA:  CLRF   x88
062BC:  CLRF   x89
062BE:  CLRF   x8A
062C0:  CLRF   x8B
062C2:  MOVLW  0A
062C4:  MOVWF  x8C
062C6:  CLRF   x8D
062C8:  CLRF   x8E
062CA:  CLRF   x8F
062CC:  CLRF   x90
062CE:  CLRF   x91
062D0:  CLRF   x92
062D2:  CLRF   x93
062D4:  MOVLW  05
062D6:  MOVWF  x94
062D8:  BCF    x87.3
062DA:  BCF    x87.4
062DC:  BCF    x87.5
062DE:  BSF    x87.6
062E0:  BCF    x87.7
062E2:  BCF    x95.0
062E4:  BCF    x95.1
062E6:  BCF    x95.2
062E8:  BCF    x95.3
062EA:  BCF    x95.4
062EC:  BCF    x95.5
062EE:  CLRF   x96
062F0:  CLRF   x97
062F2:  MOVLW  01
062F4:  MOVWF  x98
062F6:  CLRF   x99
062F8:  CLRF   x9A
062FA:  MOVWF  x9B
062FC:  CLRF   x9C
062FE:  MOVWF  x9D
06300:  CLRF   x9E
06302:  CLRF   x9F
06304:  CLRF   xA0
06306:  MOVWF  xA1
06308:  CLRF   xA2
0630A:  CLRF   xA3
0630C:  MOVLW  0A
0630E:  MOVWF  xA4
06310:  CLRF   xA6
06312:  CLRF   xA5
06314:  CLRF   xA8
06316:  CLRF   xA7
06318:  CLRF   xAA
0631A:  CLRF   xA9
0631C:  CLRF   xAC
0631E:  CLRF   xAB
06320:  CLRF   xAE
06322:  CLRF   xAD
06324:  CLRF   xB0
06326:  CLRF   xAF
06328:  CLRF   xB2
0632A:  CLRF   xB1
0632C:  CLRF   xB4
0632E:  CLRF   xB3
06330:  CLRF   xB8
06332:  CLRF   xB7
06334:  CLRF   xB6
06336:  CLRF   xB5
06338:  CLRF   xBC
0633A:  CLRF   xBB
0633C:  MOVLW  20
0633E:  MOVWF  xBA
06340:  MOVLW  83
06342:  MOVWF  xB9
06344:  CLRF   xC0
06346:  CLRF   xBF
06348:  CLRF   xBE
0634A:  CLRF   xBD
0634C:  CLRF   xC4
0634E:  CLRF   xC3
06350:  CLRF   xC2
06352:  CLRF   xC1
06354:  CLRF   xC8
06356:  CLRF   xC7
06358:  CLRF   xC6
0635A:  CLRF   xC5
0635C:  CLRF   xCC
0635E:  CLRF   xCB
06360:  CLRF   xCA
06362:  CLRF   xC9
06364:  CLRF   xD0
06366:  CLRF   xCF
06368:  CLRF   xCE
0636A:  CLRF   xCD
0636C:  CLRF   xD4
0636E:  CLRF   xD3
06370:  CLRF   xD2
06372:  CLRF   xD1
06374:  CLRF   xD8
06376:  CLRF   xD7
06378:  CLRF   xD6
0637A:  CLRF   xD5
0637C:  CLRF   xDC
0637E:  CLRF   xDB
06380:  CLRF   xDA
06382:  CLRF   xD9
06384:  CLRF   xF0
06386:  CLRF   xEF
06388:  CLRF   xEE
0638A:  CLRF   xED
0638C:  CLRF   xF4
0638E:  CLRF   xF3
06390:  MOVLW  20
06392:  MOVWF  xF2
06394:  MOVLW  82
06396:  MOVWF  xF1
06398:  CLRF   xF8
0639A:  CLRF   xF7
0639C:  CLRF   xF6
0639E:  CLRF   xF5
063A0:  CLRF   xFC
063A2:  CLRF   xFB
063A4:  CLRF   xFA
063A6:  CLRF   xF9
063A8:  MOVLB  6
063AA:  CLRF   x00
063AC:  MOVLB  5
063AE:  CLRF   xFF
063B0:  CLRF   xFE
063B2:  CLRF   xFD
063B4:  MOVLB  6
063B6:  CLRF   x04
063B8:  CLRF   x03
063BA:  CLRF   x02
063BC:  CLRF   x01
063BE:  CLRF   x08
063C0:  CLRF   x07
063C2:  CLRF   x06
063C4:  CLRF   x05
063C6:  CLRF   x0C
063C8:  CLRF   x0B
063CA:  MOVLW  40
063CC:  MOVWF  x0A
063CE:  MOVLW  80
063D0:  MOVWF  x09
063D2:  CLRF   x10
063D4:  CLRF   x0F
063D6:  MOVLW  40
063D8:  MOVWF  x0E
063DA:  MOVLW  80
063DC:  MOVWF  x0D
063DE:  CLRF   x14
063E0:  CLRF   x13
063E2:  MOVLW  16
063E4:  MOVWF  x12
063E6:  MOVLW  86
063E8:  MOVWF  x11
063EA:  CLRF   x18
063EC:  CLRF   x17
063EE:  MOVLW  20
063F0:  MOVWF  x16
063F2:  MOVLW  83
063F4:  MOVWF  x15
063F6:  CLRF   x1C
063F8:  CLRF   x1B
063FA:  MOVLW  70
063FC:  MOVWF  x1A
063FE:  MOVLW  86
06400:  MOVWF  x19
06402:  CLRF   x20
06404:  CLRF   x1F
06406:  CLRF   x1E
06408:  CLRF   x1D
0640A:  CLRF   x24
0640C:  CLRF   x23
0640E:  CLRF   x22
06410:  CLRF   x21
06412:  CLRF   x28
06414:  CLRF   x27
06416:  CLRF   x26
06418:  CLRF   x25
0641A:  CLRF   x2C
0641C:  CLRF   x2B
0641E:  CLRF   x2A
06420:  CLRF   x29
06422:  CLRF   x30
06424:  CLRF   x2F
06426:  CLRF   x2E
06428:  CLRF   x2D
0642A:  CLRF   x34
0642C:  CLRF   x33
0642E:  CLRF   x32
06430:  CLRF   x31
06432:  CLRF   x38
06434:  CLRF   x37
06436:  CLRF   x36
06438:  CLRF   x35
0643A:  CLRF   x3C
0643C:  CLRF   x3B
0643E:  CLRF   x3A
06440:  CLRF   x39
06442:  CLRF   x40
06444:  CLRF   x3F
06446:  CLRF   x3E
06448:  CLRF   x3D
0644A:  CLRF   x44
0644C:  CLRF   x43
0644E:  CLRF   x42
06450:  CLRF   x41
06452:  CLRF   x48
06454:  CLRF   x47
06456:  CLRF   x46
06458:  CLRF   x45
0645A:  CLRF   x4C
0645C:  MOVLW  40
0645E:  MOVWF  x4B
06460:  MOVLW  1C
06462:  MOVWF  x4A
06464:  MOVLW  89
06466:  MOVWF  x49
06468:  CLRF   x50
0646A:  CLRF   x4F
0646C:  CLRF   x4E
0646E:  CLRF   x4D
06470:  CLRF   x54
06472:  CLRF   x53
06474:  MOVLW  48
06476:  MOVWF  x52
06478:  MOVLW  84
0647A:  MOVWF  x51
0647C:  CLRF   x58
0647E:  CLRF   x57
06480:  CLRF   x56
06482:  CLRF   x55
06484:  CLRF   x5C
06486:  CLRF   x5B
06488:  CLRF   x5A
0648A:  CLRF   x59
0648C:  MOVF   FC1,W
0648E:  ANDLW  C0
06490:  IORLW  0F
06492:  MOVWF  FC1
06494:  MOVLW  07
06496:  MOVWF  FB4
06498:  MOVLB  4
0649A:  CLRF   x17
0649C:  CLRF   x18
0649E:  CLRF   x19
064A0:  CLRF   x1A
064A2:  CLRF   x1B
064A4:  CLRF   x1C
064A6:  CLRF   x1D
064A8:  CLRF   x1E
064AA:  CLRF   x1F
064AC:  CLRF   x20
064AE:  CLRF   x21
064B0:  CLRF   x22
064B2:  CLRF   x23
064B4:  CLRF   x24
064B6:  CLRF   x25
064B8:  CLRF   x26
064BA:  CLRF   x27
064BC:  CLRF   x28
064BE:  CLRF   x29
064C0:  CLRF   x2A
064C2:  CLRF   x2B
064C4:  CLRF   x2C
064C6:  CLRF   x2D
064C8:  CLRF   x2E
064CA:  CLRF   x2F
064CC:  CLRF   x30
064CE:  CLRF   x31
064D0:  CLRF   x32
064D2:  CLRF   x33
064D4:  CLRF   x34
064D6:  CLRF   x35
064D8:  CLRF   x36
064DA:  CLRF   x37
064DC:  CLRF   x38
064DE:  CLRF   x39
064E0:  CLRF   x3A
064E2:  CLRF   x3B
064E4:  CLRF   x3C
064E6:  CLRF   x3D
064E8:  CLRF   x3E
064EA:  CLRF   x3F
064EC:  CLRF   x40
064EE:  CLRF   x41
064F0:  CLRF   x42
064F2:  CLRF   x43
064F4:  CLRF   x44
064F6:  CLRF   x45
064F8:  CLRF   x46
064FA:  CLRF   x47
064FC:  CLRF   x48
064FE:  CLRF   x49
06500:  CLRF   x4A
06502:  CLRF   x4B
06504:  CLRF   x4C
06506:  CLRF   x4D
06508:  CLRF   x4E
0650A:  CLRF   x4F
0650C:  CLRF   x50
0650E:  CLRF   x51
06510:  CLRF   x52
06512:  CLRF   x53
06514:  CLRF   x54
06516:  CLRF   x55
06518:  CLRF   x56
0651A:  CLRF   x57
0651C:  CLRF   x58
0651E:  CLRF   x59
06520:  CLRF   x5A
06522:  CLRF   x5B
06524:  CLRF   x5C
06526:  CLRF   x5D
06528:  CLRF   x5E
0652A:  CLRF   x5F
0652C:  CLRF   x60
0652E:  CLRF   x61
06530:  CLRF   x62
06532:  CLRF   x63
06534:  CLRF   x64
06536:  CLRF   x65
06538:  CLRF   x66
0653A:  CLRF   x67
0653C:  CLRF   x68
0653E:  CLRF   x69
06540:  CLRF   x6A
06542:  CLRF   x6B
06544:  CLRF   x6C
06546:  CLRF   x6D
06548:  CLRF   x6E
0654A:  CLRF   x6F
0654C:  CLRF   x70
0654E:  CLRF   x71
06550:  CLRF   x72
06552:  CLRF   x73
06554:  CLRF   x74
06556:  CLRF   x75
06558:  CLRF   x76
0655A:  CLRF   x77
0655C:  CLRF   x78
0655E:  CLRF   x79
06560:  CLRF   x7A
06562:  CLRF   x7B
06564:  CLRF   x7C
06566:  CLRF   x7D
06568:  CLRF   x7E
0656A:  CLRF   x7F
0656C:  CLRF   x80
0656E:  CLRF   x81
06570:  CLRF   x82
06572:  CLRF   x83
06574:  CLRF   x84
06576:  CLRF   x85
06578:  CLRF   x86
0657A:  CLRF   x87
0657C:  CLRF   x88
0657E:  CLRF   x89
06580:  CLRF   x8A
06582:  CLRF   x8B
06584:  CLRF   x8C
06586:  CLRF   x8D
06588:  CLRF   x8E
0658A:  CLRF   x8F
0658C:  CLRF   x90
0658E:  CLRF   x91
06590:  CLRF   x92
06592:  CLRF   x93
06594:  CLRF   x94
06596:  CLRF   x95
06598:  CLRF   x96
0659A:  CLRF   x97
0659C:  CLRF   x98
0659E:  CLRF   x99
065A0:  CLRF   x9A
065A2:  CLRF   x9B
065A4:  CLRF   x9C
065A6:  CLRF   x9D
065A8:  CLRF   x9E
065AA:  CLRF   x9F
065AC:  CLRF   xA0
065AE:  CLRF   xA1
065B0:  CLRF   xA2
065B2:  CLRF   xA3
065B4:  CLRF   xA4
065B6:  CLRF   xA5
065B8:  CLRF   xA6
065BA:  CLRF   xA7
065BC:  CLRF   xA8
065BE:  CLRF   xA9
065C0:  CLRF   xAA
065C2:  CLRF   xAB
065C4:  CLRF   xAC
065C6:  CLRF   xAD
065C8:  CLRF   xAE
065CA:  CLRF   xAF
065CC:  CLRF   xB0
065CE:  CLRF   xB1
065D0:  CLRF   xB2
065D2:  CLRF   xB3
065D4:  CLRF   xB4
065D6:  CLRF   xB5
065D8:  CLRF   xB6
065DA:  CLRF   xB7
065DC:  CLRF   xB8
065DE:  CLRF   xB9
065E0:  CLRF   xBA
065E2:  CLRF   xBB
065E4:  CLRF   xBC
065E6:  CLRF   xBD
065E8:  CLRF   xBE
065EA:  CLRF   xBF
065EC:  CLRF   xC0
065EE:  CLRF   xC1
065F0:  CLRF   xC2
065F2:  CLRF   xC3
065F4:  CLRF   xC4
065F6:  CLRF   xC5
065F8:  CLRF   xC6
065FA:  CLRF   xC7
065FC:  CLRF   xC8
065FE:  CLRF   xC9
06600:  CLRF   xCA
06602:  CLRF   xCB
06604:  CLRF   xCC
06606:  CLRF   xCD
06608:  CLRF   xCE
0660A:  CLRF   xCF
0660C:  CLRF   xD0
0660E:  CLRF   xD1
06610:  CLRF   xD2
06612:  CLRF   xD3
06614:  CLRF   xD4
06616:  CLRF   xD5
06618:  CLRF   xD6
0661A:  CLRF   xD7
0661C:  CLRF   xD8
0661E:  CLRF   xD9
06620:  CLRF   xDA
06622:  CLRF   xDB
06624:  CLRF   xDC
06626:  CLRF   xDD
06628:  CLRF   xDE
0662A:  CLRF   xDF
0662C:  CLRF   xE0
0662E:  CLRF   xE1
06630:  CLRF   xE2
06632:  CLRF   xE3
06634:  CLRF   xE4
06636:  CLRF   xE5
06638:  CLRF   xE6
0663A:  CLRF   xE7
0663C:  CLRF   xE8
0663E:  CLRF   xE9
06640:  CLRF   xEA
06642:  CLRF   xEB
06644:  CLRF   xEC
06646:  CLRF   xED
06648:  CLRF   xEE
0664A:  CLRF   xEF
0664C:  CLRF   xF0
0664E:  CLRF   xF1
06650:  CLRF   xF2
06652:  CLRF   xF3
06654:  CLRF   xF4
06656:  CLRF   xF5
06658:  CLRF   xF6
0665A:  CLRF   xF7
0665C:  CLRF   xF8
0665E:  CLRF   xF9
06660:  CLRF   xFA
06662:  CLRF   xFB
06664:  CLRF   xFC
06666:  CLRF   xFD
06668:  CLRF   xFE
0666A:  CLRF   xFF
0666C:  MOVLB  5
0666E:  CLRF   x00
06670:  CLRF   x01
06672:  CLRF   x02
06674:  CLRF   x03
06676:  CLRF   x04
06678:  CLRF   x05
0667A:  CLRF   x06
0667C:  CLRF   x07
0667E:  CLRF   x08
06680:  CLRF   x09
06682:  CLRF   x0A
06684:  CLRF   x0B
06686:  CLRF   x0C
06688:  CLRF   x0D
0668A:  CLRF   x0E
0668C:  CLRF   x0F
0668E:  CLRF   x10
06690:  CLRF   x11
06692:  CLRF   x12
06694:  CLRF   x13
06696:  CLRF   x14
06698:  CLRF   x15
0669A:  CLRF   x16
0669C:  CLRF   x17
0669E:  CLRF   x18
066A0:  CLRF   x19
066A2:  CLRF   x1A
066A4:  CLRF   x1B
066A6:  CLRF   x1C
066A8:  CLRF   x1D
066AA:  CLRF   x1E
066AC:  CLRF   x1F
066AE:  CLRF   x20
066B0:  CLRF   x21
066B2:  CLRF   x22
066B4:  CLRF   x23
066B6:  CLRF   x24
066B8:  CLRF   x25
066BA:  CLRF   x26
066BC:  CLRF   x27
066BE:  CLRF   x28
066C0:  CLRF   x29
066C2:  CLRF   x2A
066C4:  CLRF   x2B
066C6:  CLRF   x2C
066C8:  CLRF   x2D
066CA:  CLRF   x2E
066CC:  CLRF   x2F
066CE:  CLRF   x30
066D0:  CLRF   x31
066D2:  CLRF   x32
066D4:  CLRF   x33
066D6:  CLRF   x34
066D8:  CLRF   x35
066DA:  CLRF   x36
066DC:  CLRF   x37
066DE:  CLRF   x38
066E0:  CLRF   x39
066E2:  CLRF   x3A
066E4:  CLRF   x3B
066E6:  CLRF   x3C
066E8:  CLRF   x3D
066EA:  CLRF   x3E
066EC:  CLRF   x3F
066EE:  CLRF   x40
066F0:  CLRF   x41
066F2:  CLRF   x42
066F4:  CLRF   x43
066F6:  CLRF   x44
066F8:  CLRF   x45
066FA:  CLRF   x46
066FC:  CLRF   x47
066FE:  CLRF   x48
06700:  CLRF   x49
06702:  CLRF   x4A
06704:  CLRF   x4B
06706:  CLRF   x4C
06708:  CLRF   x4D
0670A:  CLRF   x4E
0670C:  CLRF   x4F
0670E:  CLRF   x50
06710:  CLRF   x51
06712:  CLRF   x52
06714:  CLRF   x53
06716:  CLRF   x54
06718:  CLRF   x55
0671A:  CLRF   x56
0671C:  CLRF   x57
0671E:  CLRF   x58
06720:  CLRF   x59
06722:  CLRF   x5A
06724:  CLRF   x5B
06726:  CLRF   x5C
06728:  CLRF   x5D
0672A:  CLRF   x5E
0672C:  CLRF   x5F
0672E:  CLRF   x60
06730:  CLRF   x61
06732:  CLRF   x62
06734:  CLRF   x63
06736:  CLRF   x64
06738:  CLRF   x65
0673A:  CLRF   x66
0673C:  CLRF   x67
0673E:  CLRF   x68
06740:  CLRF   x69
06742:  CLRF   x6A
06744:  CLRF   x6B
06746:  CLRF   x6C
06748:  CLRF   x6D
0674A:  CLRF   x6E
0674C:  CLRF   x6F
0674E:  CLRF   x70
06750:  CLRF   x71
06752:  CLRF   x72
06754:  CLRF   x73
06756:  CLRF   x74
06758:  CLRF   x75
0675A:  CLRF   x76
0675C:  CLRF   x77
0675E:  CLRF   x78
06760:  CLRF   x79
06762:  CLRF   x7A
06764:  CLRF   x7B
06766:  CLRF   x7C
06768:  CLRF   x7D
0676A:  CLRF   x7E
0676C:  CLRF   x7F
0676E:  CLRF   x80
06770:  CLRF   x81
06772:  CLRF   x82
06774:  CLRF   x83
06776:  CLRF   x84
06778:  CLRF   x85
0677A:  CLRF   x86
0677C:  CLRF   xDD
0677E:  CLRF   xDE
06780:  CLRF   xDF
06782:  CLRF   xE0
06784:  CLRF   xE1
06786:  CLRF   xE2
06788:  CLRF   xE3
0678A:  CLRF   xE4
0678C:  CLRF   xE5
0678E:  CLRF   xE6
06790:  CLRF   xE7
06792:  CLRF   xE8
06794:  CLRF   xE9
06796:  CLRF   xEA
06798:  CLRF   xEB
0679A:  CLRF   xEC
0679C:  MOVLB  7
0679E:  CLRF   xA7
067A0:  CLRF   xA8
....................    delay_ms(1000); 
067A2:  MOVLW  04
067A4:  MOVWF  xA9
067A6:  MOVLW  FA
067A8:  MOVWF  xAF
067AA:  MOVLB  0
067AC:  CALL   1500
067B0:  MOVLB  7
067B2:  DECFSZ xA9,F
067B4:  BRA    67A6
....................    ConfigInicial(); 
067B6:  MOVLB  0
067B8:  GOTO   1528
....................     
....................    glcd_init(ON);             //Inicializa la glcd 
067BC:  MOVLW  01
067BE:  MOVLB  7
067C0:  MOVWF  xA9
067C2:  MOVLB  0
067C4:  CALL   1692
....................    glcd_fillScreen(OFF);      //Limpia la pantalla 
067C8:  MOVLB  7
067CA:  CLRF   xAA
067CC:  MOVLB  0
067CE:  CALL   1580
....................    strcpy(Menus.Letra,"JP Inglobal"); 
067D2:  MOVLW  07
067D4:  MOVWF  FEA
067D6:  MOVLW  89
067D8:  MOVWF  FE9
067DA:  MOVFF  FF2,7A9
067DE:  BCF    FF2.7
067E0:  MOVLW  00
067E2:  CALL   07DA
067E6:  TBLRD*-
067E8:  TBLRD*+
067EA:  MOVF   FF5,W
067EC:  MOVWF  FEE
067EE:  IORLW  00
067F0:  BNZ   67E8
067F2:  MOVLB  7
067F4:  BTFSC  xA9.7
067F6:  BSF    FF2.7
....................    displayMenu(Menus.Letra,0,0,0,2);      
067F8:  MOVLW  07
067FA:  MOVWF  xAD
067FC:  MOVLW  89
067FE:  MOVWF  xAC
06800:  CLRF   xAE
06802:  CLRF   xAF
06804:  CLRF   xB0
06806:  MOVLW  02
06808:  MOVWF  xB1
0680A:  MOVLB  0
0680C:  CALL   1BAE
....................    strcpy(Menus.Letra,"   Mufla"); 
06810:  MOVLW  07
06812:  MOVWF  FEA
06814:  MOVLW  89
06816:  MOVWF  FE9
06818:  MOVFF  FF2,7A9
0681C:  BCF    FF2.7
0681E:  MOVLW  00
06820:  CALL   0804
06824:  TBLRD*-
06826:  TBLRD*+
06828:  MOVF   FF5,W
0682A:  MOVWF  FEE
0682C:  IORLW  00
0682E:  BNZ   6826
06830:  MOVLB  7
06832:  BTFSC  xA9.7
06834:  BSF    FF2.7
....................    displayMenu(Menus.Letra,0,20,0,2);        
06836:  MOVLW  07
06838:  MOVWF  xAD
0683A:  MOVLW  89
0683C:  MOVWF  xAC
0683E:  CLRF   xAE
06840:  MOVLW  14
06842:  MOVWF  xAF
06844:  CLRF   xB0
06846:  MOVLW  02
06848:  MOVWF  xB1
0684A:  MOVLB  0
0684C:  CALL   1BAE
....................    strcpy(Menus.Letra,"    1.7L"); 
06850:  MOVLW  07
06852:  MOVWF  FEA
06854:  MOVLW  89
06856:  MOVWF  FE9
06858:  MOVFF  FF2,7A9
0685C:  BCF    FF2.7
0685E:  MOVLW  00
06860:  CALL   082C
06864:  TBLRD*-
06866:  TBLRD*+
06868:  MOVF   FF5,W
0686A:  MOVWF  FEE
0686C:  IORLW  00
0686E:  BNZ   6866
06870:  MOVLB  7
06872:  BTFSC  xA9.7
06874:  BSF    FF2.7
....................    displayMenu(Menus.Letra,0,45,0,2); 
06876:  MOVLW  07
06878:  MOVWF  xAD
0687A:  MOVLW  89
0687C:  MOVWF  xAC
0687E:  CLRF   xAE
06880:  MOVLW  2D
06882:  MOVWF  xAF
06884:  CLRF   xB0
06886:  MOVLW  02
06888:  MOVWF  xB1
0688A:  MOVLB  0
0688C:  CALL   1BAE
....................    delay_ms(1000); 
06890:  MOVLW  04
06892:  MOVLB  7
06894:  MOVWF  xA9
06896:  MOVLW  FA
06898:  MOVWF  xAF
0689A:  MOVLB  0
0689C:  CALL   1500
068A0:  MOVLB  7
068A2:  DECFSZ xA9,F
068A4:  BRA    6896
....................     
....................    Resistencia_off; 
068A6:  BCF    F8B.0
068A8:  BCF    F94.0
....................    glcd_fillScreen(OFF);      //Limpia la pantalla 
068AA:  CLRF   xAA
068AC:  MOVLB  0
068AE:  CALL   1580
....................    displayContrasena(Contrasena[0],20,30,1); 
068B2:  MOVFF  5E5,7AB
068B6:  MOVLW  14
068B8:  MOVLB  7
068BA:  MOVWF  xAC
068BC:  MOVLW  1E
068BE:  MOVWF  xAD
068C0:  MOVLW  01
068C2:  MOVWF  xAE
068C4:  MOVLB  0
068C6:  CALL   1E00
....................    displayContrasena(Contrasena[1],40,30,0); 
068CA:  MOVFF  5E6,7AB
068CE:  MOVLW  28
068D0:  MOVLB  7
068D2:  MOVWF  xAC
068D4:  MOVLW  1E
068D6:  MOVWF  xAD
068D8:  CLRF   xAE
068DA:  MOVLB  0
068DC:  CALL   1E00
....................    displayContrasena(Contrasena[2],60,30,0); 
068E0:  MOVFF  5E7,7AB
068E4:  MOVLW  3C
068E6:  MOVLB  7
068E8:  MOVWF  xAC
068EA:  MOVLW  1E
068EC:  MOVWF  xAD
068EE:  CLRF   xAE
068F0:  MOVLB  0
068F2:  CALL   1E00
....................    displayContrasena(Contrasena[3],80,30,0);  
068F6:  MOVFF  5E8,7AB
068FA:  MOVLW  50
068FC:  MOVLB  7
068FE:  MOVWF  xAC
06900:  MOVLW  1E
06902:  MOVWF  xAD
06904:  CLRF   xAE
06906:  MOVLB  0
06908:  CALL   1E00
....................    Menu=0; 
0690C:  MOVLB  5
0690E:  CLRF   x9A
....................    LeeEEPROM(); 
06910:  MOVLB  0
06912:  GOTO   1F66
....................    for(i=0;i<80;i++) 
06916:  MOVLB  5
06918:  CLRF   x9C
0691A:  MOVF   x9C,W
0691C:  SUBLW  4F
0691E:  BNC   6940
....................    { 
....................       Temperatura=Leer_Sensor(MediaMovil); 
06920:  MOVFF  58C,7A9
06924:  MOVLB  0
06926:  CALL   308E
0692A:  MOVFF  03,624
0692E:  MOVFF  02,623
06932:  MOVFF  01,622
06936:  MOVFF  00,621
....................    } 
0693A:  MOVLB  5
0693C:  INCF   x9C,F
0693E:  BRA    691A
....................    adcInf=(0.004*resistencia*1023)/5.0; 
06940:  MOVLW  6F
06942:  MOVLB  7
06944:  MOVWF  xC9
06946:  MOVLW  12
06948:  MOVWF  xC8
0694A:  MOVLW  03
0694C:  MOVWF  xC7
0694E:  MOVLW  77
06950:  MOVWF  xC6
06952:  MOVFF  61C,7CD
06956:  MOVFF  61B,7CC
0695A:  MOVFF  61A,7CB
0695E:  MOVFF  619,7CA
06962:  MOVLB  0
06964:  CALL   2F98
06968:  MOVFF  00,7A9
0696C:  MOVFF  01,7AA
06970:  MOVFF  02,7AB
06974:  MOVFF  03,7AC
06978:  MOVFF  03,7C9
0697C:  MOVFF  02,7C8
06980:  MOVFF  01,7C7
06984:  MOVFF  00,7C6
06988:  MOVLB  7
0698A:  CLRF   xCD
0698C:  MOVLW  C0
0698E:  MOVWF  xCC
06990:  MOVLW  7F
06992:  MOVWF  xCB
06994:  MOVLW  88
06996:  MOVWF  xCA
06998:  MOVLB  0
0699A:  CALL   2F98
0699E:  MOVFF  00,7A9
069A2:  MOVFF  01,7AA
069A6:  MOVFF  02,7AB
069AA:  MOVFF  03,7AC
069AE:  MOVFF  03,7B0
069B2:  MOVFF  02,7AF
069B6:  MOVFF  01,7AE
069BA:  MOVFF  00,7AD
069BE:  MOVLB  7
069C0:  CLRF   xB4
069C2:  CLRF   xB3
069C4:  MOVLW  20
069C6:  MOVWF  xB2
069C8:  MOVLW  81
069CA:  MOVWF  xB1
069CC:  MOVLB  0
069CE:  CALL   2E3A
069D2:  MOVFF  03,648
069D6:  MOVFF  02,647
069DA:  MOVFF  01,646
069DE:  MOVFF  00,645
....................    adcSup=(0.02*resistencia*1023)/5.0; 
069E2:  MOVLW  0A
069E4:  MOVLB  7
069E6:  MOVWF  xC9
069E8:  MOVLW  D7
069EA:  MOVWF  xC8
069EC:  MOVLW  23
069EE:  MOVWF  xC7
069F0:  MOVLW  79
069F2:  MOVWF  xC6
069F4:  MOVFF  61C,7CD
069F8:  MOVFF  61B,7CC
069FC:  MOVFF  61A,7CB
06A00:  MOVFF  619,7CA
06A04:  MOVLB  0
06A06:  CALL   2F98
06A0A:  MOVFF  00,7A9
06A0E:  MOVFF  01,7AA
06A12:  MOVFF  02,7AB
06A16:  MOVFF  03,7AC
06A1A:  MOVFF  03,7C9
06A1E:  MOVFF  02,7C8
06A22:  MOVFF  01,7C7
06A26:  MOVFF  00,7C6
06A2A:  MOVLB  7
06A2C:  CLRF   xCD
06A2E:  MOVLW  C0
06A30:  MOVWF  xCC
06A32:  MOVLW  7F
06A34:  MOVWF  xCB
06A36:  MOVLW  88
06A38:  MOVWF  xCA
06A3A:  MOVLB  0
06A3C:  CALL   2F98
06A40:  MOVFF  00,7A9
06A44:  MOVFF  01,7AA
06A48:  MOVFF  02,7AB
06A4C:  MOVFF  03,7AC
06A50:  MOVFF  03,7B0
06A54:  MOVFF  02,7AF
06A58:  MOVFF  01,7AE
06A5C:  MOVFF  00,7AD
06A60:  MOVLB  7
06A62:  CLRF   xB4
06A64:  CLRF   xB3
06A66:  MOVLW  20
06A68:  MOVWF  xB2
06A6A:  MOVLW  81
06A6C:  MOVWF  xB1
06A6E:  MOVLB  0
06A70:  CALL   2E3A
06A74:  MOVFF  03,644
06A78:  MOVFF  02,643
06A7C:  MOVFF  01,642
06A80:  MOVFF  00,641
....................    m=(Tsup-Tinf)/(adcSup-adcInf); 
06A84:  BSF    FD8.1
06A86:  MOVFF  64C,7B2
06A8A:  MOVFF  64B,7B1
06A8E:  MOVFF  64A,7B0
06A92:  MOVFF  649,7AF
06A96:  MOVFF  650,7B6
06A9A:  MOVFF  64F,7B5
06A9E:  MOVFF  64E,7B4
06AA2:  MOVFF  64D,7B3
06AA6:  CALL   2BC2
06AAA:  MOVFF  00,7A9
06AAE:  MOVFF  01,7AA
06AB2:  MOVFF  02,7AB
06AB6:  MOVFF  03,7AC
06ABA:  BSF    FD8.1
06ABC:  MOVFF  644,7B2
06AC0:  MOVFF  643,7B1
06AC4:  MOVFF  642,7B0
06AC8:  MOVFF  641,7AF
06ACC:  MOVFF  648,7B6
06AD0:  MOVFF  647,7B5
06AD4:  MOVFF  646,7B4
06AD8:  MOVFF  645,7B3
06ADC:  CALL   2BC2
06AE0:  MOVFF  7AC,7B0
06AE4:  MOVFF  7AB,7AF
06AE8:  MOVFF  7AA,7AE
06AEC:  MOVFF  7A9,7AD
06AF0:  MOVFF  03,7B4
06AF4:  MOVFF  02,7B3
06AF8:  MOVFF  01,7B2
06AFC:  MOVFF  00,7B1
06B00:  CALL   2E3A
06B04:  MOVFF  03,63C
06B08:  MOVFF  02,63B
06B0C:  MOVFF  01,63A
06B10:  MOVFF  00,639
....................    b=Tsup-(m*adcSup); 
06B14:  MOVFF  63C,7C9
06B18:  MOVFF  63B,7C8
06B1C:  MOVFF  63A,7C7
06B20:  MOVFF  639,7C6
06B24:  MOVFF  644,7CD
06B28:  MOVFF  643,7CC
06B2C:  MOVFF  642,7CB
06B30:  MOVFF  641,7CA
06B34:  CALL   2F98
06B38:  BSF    FD8.1
06B3A:  MOVFF  64C,7B2
06B3E:  MOVFF  64B,7B1
06B42:  MOVFF  64A,7B0
06B46:  MOVFF  649,7AF
06B4A:  MOVFF  03,7B6
06B4E:  MOVFF  02,7B5
06B52:  MOVFF  01,7B4
06B56:  MOVFF  00,7B3
06B5A:  CALL   2BC2
06B5E:  MOVFF  03,640
06B62:  MOVFF  02,63F
06B66:  MOVFF  01,63E
06B6A:  MOVFF  00,63D
....................    penInicial=penMufla; 
06B6E:  MOVFF  654,65C
06B72:  MOVFF  653,65B
06B76:  MOVFF  652,65A
06B7A:  MOVFF  651,659
....................    while(TRUE)  
....................    {  
....................       glcd_update();             
06B7E:  CALL   15DA
....................        
.................... //_-------------------------------------------------------------------------------------------------------------------------------------------------------- 
....................       if(Menu==0){ //Menu de Contrasea. 
06B82:  MOVLB  5
06B84:  MOVF   x9A,F
06B86:  BTFSS  FD8.2
06B88:  BRA    7152
....................        
....................       strcpy(Menus.Letra,"Clave"); 
06B8A:  MOVLW  07
06B8C:  MOVWF  FEA
06B8E:  MOVLW  89
06B90:  MOVWF  FE9
06B92:  MOVFF  FF2,7A9
06B96:  BCF    FF2.7
06B98:  MOVLW  00
06B9A:  MOVLB  0
06B9C:  CALL   0854
06BA0:  TBLRD*-
06BA2:  TBLRD*+
06BA4:  MOVF   FF5,W
06BA6:  MOVWF  FEE
06BA8:  IORLW  00
06BAA:  BNZ   6BA2
06BAC:  MOVLB  7
06BAE:  BTFSC  xA9.7
06BB0:  BSF    FF2.7
....................       displayMenu(Menus.Letra,30,0,1,2);      
06BB2:  MOVLW  07
06BB4:  MOVWF  xAD
06BB6:  MOVLW  89
06BB8:  MOVWF  xAC
06BBA:  MOVLW  1E
06BBC:  MOVWF  xAE
06BBE:  CLRF   xAF
06BC0:  MOVLW  01
06BC2:  MOVWF  xB0
06BC4:  MOVLW  02
06BC6:  MOVWF  xB1
06BC8:  MOVLB  0
06BCA:  CALL   1BAE
....................        
....................       if(UP)//Si oprime hacia arriba 
06BCE:  BSF    F92.5
06BD0:  BTFSC  F80.5
06BD2:  BRA    6CB6
....................       { 
....................          Buzz_on;delay_ms(10);Buzz_off; 
06BD4:  BSF    F8B.7
06BD6:  BCF    F94.7
06BD8:  MOVLW  0A
06BDA:  MOVLB  7
06BDC:  MOVWF  xAF
06BDE:  MOVLB  0
06BE0:  CALL   1500
06BE4:  BCF    F8B.7
06BE6:  BCF    F94.7
....................          delay_ms(200); 
06BE8:  MOVLW  C8
06BEA:  MOVLB  7
06BEC:  MOVWF  xAF
06BEE:  MOVLB  0
06BF0:  CALL   1500
....................          for(i=1;i<=4;i++) 
06BF4:  MOVLW  01
06BF6:  MOVLB  5
06BF8:  MOVWF  x9C
06BFA:  MOVF   x9C,W
06BFC:  SUBLW  04
06BFE:  BNC   6CB4
....................          { 
....................             if(unidad==i) 
06C00:  MOVF   x9C,W
06C02:  SUBWF  x9B,W
06C04:  BNZ   6C7C
....................             { 
....................                Contrasena[i-1]++; 
06C06:  MOVLW  01
06C08:  SUBWF  x9C,W
06C0A:  CLRF   03
06C0C:  ADDLW  E5
06C0E:  MOVWF  FE9
06C10:  MOVLW  05
06C12:  ADDWFC 03,W
06C14:  MOVWF  FEA
06C16:  INCF   FEF,F
....................                if(Contrasena[i-1]>9)    
06C18:  MOVLW  01
06C1A:  SUBWF  x9C,W
06C1C:  CLRF   03
06C1E:  ADDLW  E5
06C20:  MOVWF  FE9
06C22:  MOVLW  05
06C24:  ADDWFC 03,W
06C26:  MOVWF  FEA
06C28:  BTFSC  FEF.7
06C2A:  BRA    6C44
06C2C:  MOVF   FEF,W
06C2E:  SUBLW  09
06C30:  BC    6C44
....................                { 
....................                   Contrasena[i-1]=0; 
06C32:  MOVLW  01
06C34:  SUBWF  x9C,W
06C36:  CLRF   03
06C38:  ADDLW  E5
06C3A:  MOVWF  FE9
06C3C:  MOVLW  05
06C3E:  ADDWFC 03,W
06C40:  MOVWF  FEA
06C42:  CLRF   FEF
....................                } 
....................                displayContrasena(Contrasena[i-1],i*20,30,1); 
06C44:  MOVLW  01
06C46:  SUBWF  x9C,W
06C48:  CLRF   03
06C4A:  ADDLW  E5
06C4C:  MOVWF  FE9
06C4E:  MOVLW  05
06C50:  ADDWFC 03,W
06C52:  MOVWF  FEA
06C54:  MOVFF  FEF,7A9
06C58:  MOVF   x9C,W
06C5A:  MULLW  14
06C5C:  MOVFF  FF3,7AA
06C60:  MOVLB  7
06C62:  MOVFF  7A9,7AB
06C66:  MOVFF  7AA,7AC
06C6A:  MOVLW  1E
06C6C:  MOVWF  xAD
06C6E:  MOVLW  01
06C70:  MOVWF  xAE
06C72:  MOVLB  0
06C74:  CALL   1E00
....................             } 
....................             else 
06C78:  BRA    6CAE
06C7A:  MOVLB  5
....................             { 
....................                displayContrasena(Contrasena[i-1],i*20,30,0); 
06C7C:  MOVLW  01
06C7E:  SUBWF  x9C,W
06C80:  CLRF   03
06C82:  ADDLW  E5
06C84:  MOVWF  FE9
06C86:  MOVLW  05
06C88:  ADDWFC 03,W
06C8A:  MOVWF  FEA
06C8C:  MOVFF  FEF,7A9
06C90:  MOVF   x9C,W
06C92:  MULLW  14
06C94:  MOVFF  FF3,7AA
06C98:  MOVLB  7
06C9A:  MOVFF  7A9,7AB
06C9E:  MOVFF  7AA,7AC
06CA2:  MOVLW  1E
06CA4:  MOVWF  xAD
06CA6:  CLRF   xAE
06CA8:  MOVLB  0
06CAA:  CALL   1E00
....................             } 
....................          } 
06CAE:  MOVLB  5
06CB0:  INCF   x9C,F
06CB2:  BRA    6BFA
06CB4:  MOVLB  0
....................       } 
....................              
....................       if(DOWN)//Si oprime hacia abajo 
06CB6:  BSF    F96.0
06CB8:  BTFSC  F84.0
06CBA:  BRA    6D9C
....................       { 
....................          Buzz_on;delay_ms(10);Buzz_off; 
06CBC:  BSF    F8B.7
06CBE:  BCF    F94.7
06CC0:  MOVLW  0A
06CC2:  MOVLB  7
06CC4:  MOVWF  xAF
06CC6:  MOVLB  0
06CC8:  CALL   1500
06CCC:  BCF    F8B.7
06CCE:  BCF    F94.7
....................          delay_ms(200); 
06CD0:  MOVLW  C8
06CD2:  MOVLB  7
06CD4:  MOVWF  xAF
06CD6:  MOVLB  0
06CD8:  CALL   1500
....................          for(i=1;i<=4;i++) 
06CDC:  MOVLW  01
06CDE:  MOVLB  5
06CE0:  MOVWF  x9C
06CE2:  MOVF   x9C,W
06CE4:  SUBLW  04
06CE6:  BNC   6D9A
....................          { 
....................             if(unidad==i) 
06CE8:  MOVF   x9C,W
06CEA:  SUBWF  x9B,W
06CEC:  BNZ   6D62
....................             { 
....................                Contrasena[i-1]--; 
06CEE:  MOVLW  01
06CF0:  SUBWF  x9C,W
06CF2:  CLRF   03
06CF4:  ADDLW  E5
06CF6:  MOVWF  FE9
06CF8:  MOVLW  05
06CFA:  ADDWFC 03,W
06CFC:  MOVWF  FEA
06CFE:  DECF   FEF,F
....................                if(Contrasena[i-1]<0) 
06D00:  MOVLW  01
06D02:  SUBWF  x9C,W
06D04:  CLRF   03
06D06:  ADDLW  E5
06D08:  MOVWF  FE9
06D0A:  MOVLW  05
06D0C:  ADDWFC 03,W
06D0E:  MOVWF  FEA
06D10:  BTFSC  FEF.7
06D12:  BRA    6D16
06D14:  BRA    6D2A
....................                   {Contrasena[i-1]=9;} 
06D16:  MOVLW  01
06D18:  SUBWF  x9C,W
06D1A:  CLRF   03
06D1C:  ADDLW  E5
06D1E:  MOVWF  FE9
06D20:  MOVLW  05
06D22:  ADDWFC 03,W
06D24:  MOVWF  FEA
06D26:  MOVLW  09
06D28:  MOVWF  FEF
....................                displayContrasena(Contrasena[i-1],i*20,30,1);} 
06D2A:  MOVLW  01
06D2C:  SUBWF  x9C,W
06D2E:  CLRF   03
06D30:  ADDLW  E5
06D32:  MOVWF  FE9
06D34:  MOVLW  05
06D36:  ADDWFC 03,W
06D38:  MOVWF  FEA
06D3A:  MOVFF  FEF,7A9
06D3E:  MOVF   x9C,W
06D40:  MULLW  14
06D42:  MOVFF  FF3,7AA
06D46:  MOVLB  7
06D48:  MOVFF  7A9,7AB
06D4C:  MOVFF  7AA,7AC
06D50:  MOVLW  1E
06D52:  MOVWF  xAD
06D54:  MOVLW  01
06D56:  MOVWF  xAE
06D58:  MOVLB  0
06D5A:  CALL   1E00
....................             else 
06D5E:  BRA    6D94
06D60:  MOVLB  5
....................             {displayContrasena(Contrasena[i-1],i*20,30,0);} 
06D62:  MOVLW  01
06D64:  SUBWF  x9C,W
06D66:  CLRF   03
06D68:  ADDLW  E5
06D6A:  MOVWF  FE9
06D6C:  MOVLW  05
06D6E:  ADDWFC 03,W
06D70:  MOVWF  FEA
06D72:  MOVFF  FEF,7A9
06D76:  MOVF   x9C,W
06D78:  MULLW  14
06D7A:  MOVFF  FF3,7AA
06D7E:  MOVLB  7
06D80:  MOVFF  7A9,7AB
06D84:  MOVFF  7AA,7AC
06D88:  MOVLW  1E
06D8A:  MOVWF  xAD
06D8C:  CLRF   xAE
06D8E:  MOVLB  0
06D90:  CALL   1E00
....................          }         
06D94:  MOVLB  5
06D96:  INCF   x9C,F
06D98:  BRA    6CE2
06D9A:  MOVLB  0
....................       } 
....................              
....................       if(RIGHT)//Si oprime RIGHT 
06D9C:  BSF    F96.1
06D9E:  BTFSC  F84.1
06DA0:  BRA    6E46
....................       { 
....................          Buzz_on;delay_ms(10);Buzz_off; 
06DA2:  BSF    F8B.7
06DA4:  BCF    F94.7
06DA6:  MOVLW  0A
06DA8:  MOVLB  7
06DAA:  MOVWF  xAF
06DAC:  MOVLB  0
06DAE:  CALL   1500
06DB2:  BCF    F8B.7
06DB4:  BCF    F94.7
....................          delay_ms(200);unidad++; 
06DB6:  MOVLW  C8
06DB8:  MOVLB  7
06DBA:  MOVWF  xAF
06DBC:  MOVLB  0
06DBE:  CALL   1500
06DC2:  MOVLB  5
06DC4:  INCF   x9B,F
....................          for(i=1;i<=4;i++) 
06DC6:  MOVLW  01
06DC8:  MOVWF  x9C
06DCA:  MOVF   x9C,W
06DCC:  SUBLW  04
06DCE:  BNC   6E46
....................          { 
....................             if(unidad==i) 
06DD0:  MOVF   x9C,W
06DD2:  SUBWF  x9B,W
06DD4:  BNZ   6E0E
....................             {displayContrasena(Contrasena[i-1],i*20,30,1);} 
06DD6:  MOVLW  01
06DD8:  SUBWF  x9C,W
06DDA:  CLRF   03
06DDC:  ADDLW  E5
06DDE:  MOVWF  FE9
06DE0:  MOVLW  05
06DE2:  ADDWFC 03,W
06DE4:  MOVWF  FEA
06DE6:  MOVFF  FEF,7A9
06DEA:  MOVF   x9C,W
06DEC:  MULLW  14
06DEE:  MOVFF  FF3,7AA
06DF2:  MOVLB  7
06DF4:  MOVFF  7A9,7AB
06DF8:  MOVFF  7AA,7AC
06DFC:  MOVLW  1E
06DFE:  MOVWF  xAD
06E00:  MOVLW  01
06E02:  MOVWF  xAE
06E04:  MOVLB  0
06E06:  CALL   1E00
....................             else 
06E0A:  BRA    6E40
06E0C:  MOVLB  5
....................             {displayContrasena(Contrasena[i-1],i*20,30,0);} 
06E0E:  MOVLW  01
06E10:  SUBWF  x9C,W
06E12:  CLRF   03
06E14:  ADDLW  E5
06E16:  MOVWF  FE9
06E18:  MOVLW  05
06E1A:  ADDWFC 03,W
06E1C:  MOVWF  FEA
06E1E:  MOVFF  FEF,7A9
06E22:  MOVF   x9C,W
06E24:  MULLW  14
06E26:  MOVFF  FF3,7AA
06E2A:  MOVLB  7
06E2C:  MOVFF  7A9,7AB
06E30:  MOVFF  7AA,7AC
06E34:  MOVLW  1E
06E36:  MOVWF  xAD
06E38:  CLRF   xAE
06E3A:  MOVLB  0
06E3C:  CALL   1E00
....................          } 
06E40:  MOVLB  5
06E42:  INCF   x9C,F
06E44:  BRA    6DCA
....................       } 
....................      
....................       if(unidad>4) 
06E46:  MOVLB  5
06E48:  MOVF   x9B,W
06E4A:  SUBLW  04
06E4C:  BTFSC  FD8.0
06E4E:  BRA    7152
....................       {glcd_fillScreen(OFF);unidad=4; 
06E50:  MOVLB  7
06E52:  CLRF   xAA
06E54:  MOVLB  0
06E56:  CALL   1580
06E5A:  MOVLW  04
06E5C:  MOVLB  5
06E5E:  MOVWF  x9B
....................          if(Contrasena[0]==3&&Contrasena[1]==8&&Contrasena[2]==9&&Contrasena[3]==2) // Si Ingresa clave para reset general del sistema. 
06E60:  MOVF   xE5,W
06E62:  SUBLW  03
06E64:  BTFSS  FD8.2
06E66:  BRA    6F60
06E68:  MOVF   xE6,W
06E6A:  SUBLW  08
06E6C:  BTFSS  FD8.2
06E6E:  BRA    6F60
06E70:  MOVF   xE7,W
06E72:  SUBLW  09
06E74:  BNZ   6F60
06E76:  MOVF   xE8,W
06E78:  SUBLW  02
06E7A:  BNZ   6F60
....................             {write_eeprom(260,0);delay_ms(20);write_eeprom(261,0);delay_ms(20);// Reestablece a contrasea de Fabrica y reinicia Programa. 
06E7C:  MOVLW  01
06E7E:  MOVWF  FAA
06E80:  MOVLW  04
06E82:  MOVWF  FA9
06E84:  CLRF   FA8
06E86:  BCF    FA6.6
06E88:  BCF    FA6.7
06E8A:  BSF    FA6.2
06E8C:  MOVF   FF2,W
06E8E:  MOVWF  00
06E90:  BCF    FF2.7
06E92:  MOVLB  F
06E94:  MOVLW  55
06E96:  MOVWF  FA7
06E98:  MOVLW  AA
06E9A:  MOVWF  FA7
06E9C:  BSF    FA6.1
06E9E:  BTFSC  FA6.1
06EA0:  BRA    6E9E
06EA2:  BCF    FA6.2
06EA4:  MOVF   00,W
06EA6:  IORWF  FF2,F
06EA8:  MOVLW  14
06EAA:  MOVLB  7
06EAC:  MOVWF  xAF
06EAE:  MOVLB  0
06EB0:  CALL   1500
06EB4:  MOVLW  01
06EB6:  MOVWF  FAA
06EB8:  MOVLW  05
06EBA:  MOVWF  FA9
06EBC:  CLRF   FA8
06EBE:  BCF    FA6.6
06EC0:  BCF    FA6.7
06EC2:  BSF    FA6.2
06EC4:  MOVF   FF2,W
06EC6:  MOVWF  00
06EC8:  BCF    FF2.7
06ECA:  MOVLB  F
06ECC:  MOVLW  55
06ECE:  MOVWF  FA7
06ED0:  MOVLW  AA
06ED2:  MOVWF  FA7
06ED4:  BSF    FA6.1
06ED6:  BTFSC  FA6.1
06ED8:  BRA    6ED6
06EDA:  BCF    FA6.2
06EDC:  MOVF   00,W
06EDE:  IORWF  FF2,F
06EE0:  MOVLW  14
06EE2:  MOVLB  7
06EE4:  MOVWF  xAF
06EE6:  MOVLB  0
06EE8:  CALL   1500
....................              write_eeprom(262,0);delay_ms(20);write_eeprom(263,0);delay_ms(20); 
06EEC:  MOVLW  01
06EEE:  MOVWF  FAA
06EF0:  MOVLW  06
06EF2:  MOVWF  FA9
06EF4:  CLRF   FA8
06EF6:  BCF    FA6.6
06EF8:  BCF    FA6.7
06EFA:  BSF    FA6.2
06EFC:  MOVF   FF2,W
06EFE:  MOVWF  00
06F00:  BCF    FF2.7
06F02:  MOVLB  F
06F04:  MOVLW  55
06F06:  MOVWF  FA7
06F08:  MOVLW  AA
06F0A:  MOVWF  FA7
06F0C:  BSF    FA6.1
06F0E:  BTFSC  FA6.1
06F10:  BRA    6F0E
06F12:  BCF    FA6.2
06F14:  MOVF   00,W
06F16:  IORWF  FF2,F
06F18:  MOVLW  14
06F1A:  MOVLB  7
06F1C:  MOVWF  xAF
06F1E:  MOVLB  0
06F20:  CALL   1500
06F24:  MOVLW  01
06F26:  MOVWF  FAA
06F28:  MOVLW  07
06F2A:  MOVWF  FA9
06F2C:  CLRF   FA8
06F2E:  BCF    FA6.6
06F30:  BCF    FA6.7
06F32:  BSF    FA6.2
06F34:  MOVF   FF2,W
06F36:  MOVWF  00
06F38:  BCF    FF2.7
06F3A:  MOVLB  F
06F3C:  MOVLW  55
06F3E:  MOVWF  FA7
06F40:  MOVLW  AA
06F42:  MOVWF  FA7
06F44:  BSF    FA6.1
06F46:  BTFSC  FA6.1
06F48:  BRA    6F46
06F4A:  BCF    FA6.2
06F4C:  MOVF   00,W
06F4E:  IORWF  FF2,F
06F50:  MOVLW  14
06F52:  MOVLB  7
06F54:  MOVWF  xAF
06F56:  MOVLB  0
06F58:  CALL   1500
....................              reset_cpu();}         
06F5C:  RESET
06F5E:  MOVLB  5
....................           
....................          if((Contrasena[0]==Password[0])&&(Contrasena[1]==Password[1])&&(Contrasena[2]==Password[2])&&(Contrasena[3]==Password[3])) 
06F60:  MOVF   xE9,W
06F62:  SUBWF  xE5,W
06F64:  BNZ   7036
06F66:  MOVF   xEA,W
06F68:  SUBWF  xE6,W
06F6A:  BNZ   7036
06F6C:  MOVF   xEB,W
06F6E:  SUBWF  xE7,W
06F70:  BNZ   7036
06F72:  MOVF   xEC,W
06F74:  SUBWF  xE8,W
06F76:  BNZ   7036
....................          { 
....................             glcd_fillScreen(OFF); 
06F78:  MOVLB  7
06F7A:  CLRF   xAA
06F7C:  MOVLB  0
06F7E:  CALL   1580
....................             strcpy(Menus.Letra,"Clave"); 
06F82:  MOVLW  07
06F84:  MOVWF  FEA
06F86:  MOVLW  89
06F88:  MOVWF  FE9
06F8A:  MOVFF  FF2,7A9
06F8E:  BCF    FF2.7
06F90:  MOVLW  00
06F92:  CALL   0854
06F96:  TBLRD*-
06F98:  TBLRD*+
06F9A:  MOVF   FF5,W
06F9C:  MOVWF  FEE
06F9E:  IORLW  00
06FA0:  BNZ   6F98
06FA2:  MOVLB  7
06FA4:  BTFSC  xA9.7
06FA6:  BSF    FF2.7
....................             displayMenu(Menus.Letra,30,0,0,2); 
06FA8:  MOVLW  07
06FAA:  MOVWF  xAD
06FAC:  MOVLW  89
06FAE:  MOVWF  xAC
06FB0:  MOVLW  1E
06FB2:  MOVWF  xAE
06FB4:  CLRF   xAF
06FB6:  CLRF   xB0
06FB8:  MOVLW  02
06FBA:  MOVWF  xB1
06FBC:  MOVLB  0
06FBE:  CALL   1BAE
....................             strcpy(Menus.Letra,"Correcta"); 
06FC2:  MOVLW  07
06FC4:  MOVWF  FEA
06FC6:  MOVLW  89
06FC8:  MOVWF  FE9
06FCA:  MOVFF  FF2,7A9
06FCE:  BCF    FF2.7
06FD0:  MOVLW  00
06FD2:  CALL   0878
06FD6:  TBLRD*-
06FD8:  TBLRD*+
06FDA:  MOVF   FF5,W
06FDC:  MOVWF  FEE
06FDE:  IORLW  00
06FE0:  BNZ   6FD8
06FE2:  MOVLB  7
06FE4:  BTFSC  xA9.7
06FE6:  BSF    FF2.7
....................             displayMenu(Menus.Letra,15,30,0,2); 
06FE8:  MOVLW  07
06FEA:  MOVWF  xAD
06FEC:  MOVLW  89
06FEE:  MOVWF  xAC
06FF0:  MOVLW  0F
06FF2:  MOVWF  xAE
06FF4:  MOVLW  1E
06FF6:  MOVWF  xAF
06FF8:  CLRF   xB0
06FFA:  MOVLW  02
06FFC:  MOVWF  xB1
06FFE:  MOVLB  0
07000:  CALL   1BAE
....................             Menu=1;glcd_update();delay_ms(1000); 
07004:  MOVLW  01
07006:  MOVLB  5
07008:  MOVWF  x9A
0700A:  MOVLB  0
0700C:  CALL   15DA
07010:  MOVLW  04
07012:  MOVLB  7
07014:  MOVWF  xA9
07016:  MOVLW  FA
07018:  MOVWF  xAF
0701A:  MOVLB  0
0701C:  CALL   1500
07020:  MOVLB  7
07022:  DECFSZ xA9,F
07024:  BRA    7016
....................             glcd_fillScreen(OFF);unidad=1; 
07026:  CLRF   xAA
07028:  MOVLB  0
0702A:  CALL   1580
0702E:  MOVLW  01
07030:  MOVLB  5
07032:  MOVWF  x9B
....................          }// Esta parte se puede agregar en el Menu 1 dependiendo de la ubicacin del vidrio. 
....................          else 
07034:  BRA    7152
....................          { 
....................             glcd_fillScreen(OFF); 
07036:  MOVLB  7
07038:  CLRF   xAA
0703A:  MOVLB  0
0703C:  CALL   1580
....................             strcpy(Menus.Letra,"Clave"); 
07040:  MOVLW  07
07042:  MOVWF  FEA
07044:  MOVLW  89
07046:  MOVWF  FE9
07048:  MOVFF  FF2,7A9
0704C:  BCF    FF2.7
0704E:  MOVLW  00
07050:  CALL   0854
07054:  TBLRD*-
07056:  TBLRD*+
07058:  MOVF   FF5,W
0705A:  MOVWF  FEE
0705C:  IORLW  00
0705E:  BNZ   7056
07060:  MOVLB  7
07062:  BTFSC  xA9.7
07064:  BSF    FF2.7
....................             displayMenu(Menus.Letra,30,0,0,2); 
07066:  MOVLW  07
07068:  MOVWF  xAD
0706A:  MOVLW  89
0706C:  MOVWF  xAC
0706E:  MOVLW  1E
07070:  MOVWF  xAE
07072:  CLRF   xAF
07074:  CLRF   xB0
07076:  MOVLW  02
07078:  MOVWF  xB1
0707A:  MOVLB  0
0707C:  CALL   1BAE
....................             strcpy(Menus.Letra,"Incorrecta"); 
07080:  MOVLW  07
07082:  MOVWF  FEA
07084:  MOVLW  89
07086:  MOVWF  FE9
07088:  MOVFF  FF2,7A9
0708C:  BCF    FF2.7
0708E:  MOVLW  00
07090:  CALL   08A0
07094:  TBLRD*-
07096:  TBLRD*+
07098:  MOVF   FF5,W
0709A:  MOVWF  FEE
0709C:  IORLW  00
0709E:  BNZ   7096
070A0:  MOVLB  7
070A2:  BTFSC  xA9.7
070A4:  BSF    FF2.7
....................             displayMenu(Menus.Letra,0,30,0,2); 
070A6:  MOVLW  07
070A8:  MOVWF  xAD
070AA:  MOVLW  89
070AC:  MOVWF  xAC
070AE:  CLRF   xAE
070B0:  MOVLW  1E
070B2:  MOVWF  xAF
070B4:  CLRF   xB0
070B6:  MOVLW  02
070B8:  MOVWF  xB1
070BA:  MOVLB  0
070BC:  CALL   1BAE
....................             Menu=0;glcd_update();delay_ms(1000); 
070C0:  MOVLB  5
070C2:  CLRF   x9A
070C4:  MOVLB  0
070C6:  CALL   15DA
070CA:  MOVLW  04
070CC:  MOVLB  7
070CE:  MOVWF  xA9
070D0:  MOVLW  FA
070D2:  MOVWF  xAF
070D4:  MOVLB  0
070D6:  CALL   1500
070DA:  MOVLB  7
070DC:  DECFSZ xA9,F
070DE:  BRA    70D0
....................             glcd_fillScreen(OFF);unidad=1; 
070E0:  CLRF   xAA
070E2:  MOVLB  0
070E4:  CALL   1580
070E8:  MOVLW  01
070EA:  MOVLB  5
070EC:  MOVWF  x9B
....................             Contrasena[0]=0;Contrasena[1]=0;Contrasena[2]=0;Contrasena[3]=0; 
070EE:  CLRF   xE5
070F0:  CLRF   xE6
070F2:  CLRF   xE7
070F4:  CLRF   xE8
....................             displayContrasena(Contrasena[0],20,30,1); 
070F6:  MOVFF  5E5,7AB
070FA:  MOVLW  14
070FC:  MOVLB  7
070FE:  MOVWF  xAC
07100:  MOVLW  1E
07102:  MOVWF  xAD
07104:  MOVLW  01
07106:  MOVWF  xAE
07108:  MOVLB  0
0710A:  CALL   1E00
....................             displayContrasena(Contrasena[1],40,30,0); 
0710E:  MOVFF  5E6,7AB
07112:  MOVLW  28
07114:  MOVLB  7
07116:  MOVWF  xAC
07118:  MOVLW  1E
0711A:  MOVWF  xAD
0711C:  CLRF   xAE
0711E:  MOVLB  0
07120:  CALL   1E00
....................             displayContrasena(Contrasena[2],60,30,0); 
07124:  MOVFF  5E7,7AB
07128:  MOVLW  3C
0712A:  MOVLB  7
0712C:  MOVWF  xAC
0712E:  MOVLW  1E
07130:  MOVWF  xAD
07132:  CLRF   xAE
07134:  MOVLB  0
07136:  CALL   1E00
....................             displayContrasena(Contrasena[3],80,30,0); 
0713A:  MOVFF  5E8,7AB
0713E:  MOVLW  50
07140:  MOVLB  7
07142:  MOVWF  xAC
07144:  MOVLW  1E
07146:  MOVWF  xAD
07148:  CLRF   xAE
0714A:  MOVLB  0
0714C:  CALL   1E00
07150:  MOVLB  5
....................          } 
....................       } 
....................     } 
.................... //_--------------------------------------------------------------------------------------------------------------------------------------------------------        
....................  
....................  
.................... //_-------------------------------------------------------------------------------------------------------------------------------------------------------- 
....................       if(Menu==1){ //Menu Principal.       
07152:  DECFSZ x9A,W
07154:  BRA    74F6
....................        
....................          if(Opcion>5) 
07156:  MOVF   xA1,W
07158:  SUBLW  05
0715A:  BC    7160
....................          {Opcion=1;} 
0715C:  MOVLW  01
0715E:  MOVWF  xA1
....................          if(Opcion<1) 
07160:  MOVF   xA1,F
07162:  BNZ   7168
....................          {Opcion=5;} 
07164:  MOVLW  05
07166:  MOVWF  xA1
....................           
....................          strcpy(Menus.Letra,"Menu"); 
07168:  MOVLW  07
0716A:  MOVWF  FEA
0716C:  MOVLW  89
0716E:  MOVWF  FE9
07170:  MOVFF  FF2,7A9
07174:  BCF    FF2.7
07176:  MOVLW  00
07178:  MOVLB  0
0717A:  CALL   08CA
0717E:  TBLRD*-
07180:  TBLRD*+
07182:  MOVF   FF5,W
07184:  MOVWF  FEE
07186:  IORLW  00
07188:  BNZ   7180
0718A:  MOVLB  7
0718C:  BTFSC  xA9.7
0718E:  BSF    FF2.7
....................          displayMenu(Menus.Letra,30,0,1,2); 
07190:  MOVLW  07
07192:  MOVWF  xAD
07194:  MOVLW  89
07196:  MOVWF  xAC
07198:  MOVLW  1E
0719A:  MOVWF  xAE
0719C:  CLRF   xAF
0719E:  MOVLW  01
071A0:  MOVWF  xB0
071A2:  MOVLW  02
071A4:  MOVWF  xB1
071A6:  MOVLB  0
071A8:  CALL   1BAE
....................        
....................          if(Opcion==1)    
071AC:  MOVLB  5
071AE:  DECFSZ xA1,W
071B0:  BRA    71F8
....................             {strcpy(Menus.Letra,"Iniciar Programa"); 
071B2:  MOVLW  07
071B4:  MOVWF  FEA
071B6:  MOVLW  89
071B8:  MOVWF  FE9
071BA:  MOVFF  FF2,7A9
071BE:  BCF    FF2.7
071C0:  MOVLW  00
071C2:  MOVLB  0
071C4:  CALL   08EE
071C8:  TBLRD*-
071CA:  TBLRD*+
071CC:  MOVF   FF5,W
071CE:  MOVWF  FEE
071D0:  IORLW  00
071D2:  BNZ   71CA
071D4:  MOVLB  7
071D6:  BTFSC  xA9.7
071D8:  BSF    FF2.7
....................             displayMenu(Menus.Letra,0,18,1,1);} 
071DA:  MOVLW  07
071DC:  MOVWF  xAD
071DE:  MOVLW  89
071E0:  MOVWF  xAC
071E2:  CLRF   xAE
071E4:  MOVLW  12
071E6:  MOVWF  xAF
071E8:  MOVLW  01
071EA:  MOVWF  xB0
071EC:  MOVWF  xB1
071EE:  MOVLB  0
071F0:  CALL   1BAE
....................          else 
071F4:  BRA    723A
071F6:  MOVLB  5
....................             {strcpy(Menus.Letra,"Iniciar Programa"); 
071F8:  MOVLW  07
071FA:  MOVWF  FEA
071FC:  MOVLW  89
071FE:  MOVWF  FE9
07200:  MOVFF  FF2,7A9
07204:  BCF    FF2.7
07206:  MOVLW  00
07208:  MOVLB  0
0720A:  CALL   08EE
0720E:  TBLRD*-
07210:  TBLRD*+
07212:  MOVF   FF5,W
07214:  MOVWF  FEE
07216:  IORLW  00
07218:  BNZ   7210
0721A:  MOVLB  7
0721C:  BTFSC  xA9.7
0721E:  BSF    FF2.7
....................             displayMenu(Menus.Letra,0,18,0,1);} 
07220:  MOVLW  07
07222:  MOVWF  xAD
07224:  MOVLW  89
07226:  MOVWF  xAC
07228:  CLRF   xAE
0722A:  MOVLW  12
0722C:  MOVWF  xAF
0722E:  CLRF   xB0
07230:  MOVLW  01
07232:  MOVWF  xB1
07234:  MOVLB  0
07236:  CALL   1BAE
....................           
....................          if(Opcion==2)    
0723A:  MOVLB  5
0723C:  MOVF   xA1,W
0723E:  SUBLW  02
07240:  BNZ   7288
....................             {strcpy(Menus.Letra,"Editar Programa"); 
07242:  MOVLW  07
07244:  MOVWF  FEA
07246:  MOVLW  89
07248:  MOVWF  FE9
0724A:  MOVFF  FF2,7A9
0724E:  BCF    FF2.7
07250:  MOVLW  00
07252:  MOVLB  0
07254:  CALL   091E
07258:  TBLRD*-
0725A:  TBLRD*+
0725C:  MOVF   FF5,W
0725E:  MOVWF  FEE
07260:  IORLW  00
07262:  BNZ   725A
07264:  MOVLB  7
07266:  BTFSC  xA9.7
07268:  BSF    FF2.7
....................             displayMenu(Menus.Letra,0,27,1,1);} 
0726A:  MOVLW  07
0726C:  MOVWF  xAD
0726E:  MOVLW  89
07270:  MOVWF  xAC
07272:  CLRF   xAE
07274:  MOVLW  1B
07276:  MOVWF  xAF
07278:  MOVLW  01
0727A:  MOVWF  xB0
0727C:  MOVWF  xB1
0727E:  MOVLB  0
07280:  CALL   1BAE
....................          else 
07284:  BRA    72CA
07286:  MOVLB  5
....................             {strcpy(Menus.Letra,"Editar Programa"); 
07288:  MOVLW  07
0728A:  MOVWF  FEA
0728C:  MOVLW  89
0728E:  MOVWF  FE9
07290:  MOVFF  FF2,7A9
07294:  BCF    FF2.7
07296:  MOVLW  00
07298:  MOVLB  0
0729A:  CALL   091E
0729E:  TBLRD*-
072A0:  TBLRD*+
072A2:  MOVF   FF5,W
072A4:  MOVWF  FEE
072A6:  IORLW  00
072A8:  BNZ   72A0
072AA:  MOVLB  7
072AC:  BTFSC  xA9.7
072AE:  BSF    FF2.7
....................             displayMenu(Menus.Letra,0,27,0,1);} 
072B0:  MOVLW  07
072B2:  MOVWF  xAD
072B4:  MOVLW  89
072B6:  MOVWF  xAC
072B8:  CLRF   xAE
072BA:  MOVLW  1B
072BC:  MOVWF  xAF
072BE:  CLRF   xB0
072C0:  MOVLW  01
072C2:  MOVWF  xB1
072C4:  MOVLB  0
072C6:  CALL   1BAE
....................              
....................          if(Opcion==3)    
072CA:  MOVLB  5
072CC:  MOVF   xA1,W
072CE:  SUBLW  03
072D0:  BNZ   7318
....................             {strcpy(Menus.Letra,"Borrar Programa"); 
072D2:  MOVLW  07
072D4:  MOVWF  FEA
072D6:  MOVLW  89
072D8:  MOVWF  FE9
072DA:  MOVFF  FF2,7A9
072DE:  BCF    FF2.7
072E0:  MOVLW  00
072E2:  MOVLB  0
072E4:  CALL   094C
072E8:  TBLRD*-
072EA:  TBLRD*+
072EC:  MOVF   FF5,W
072EE:  MOVWF  FEE
072F0:  IORLW  00
072F2:  BNZ   72EA
072F4:  MOVLB  7
072F6:  BTFSC  xA9.7
072F8:  BSF    FF2.7
....................             displayMenu(Menus.Letra,0,36,1,1);} 
072FA:  MOVLW  07
072FC:  MOVWF  xAD
072FE:  MOVLW  89
07300:  MOVWF  xAC
07302:  CLRF   xAE
07304:  MOVLW  24
07306:  MOVWF  xAF
07308:  MOVLW  01
0730A:  MOVWF  xB0
0730C:  MOVWF  xB1
0730E:  MOVLB  0
07310:  CALL   1BAE
....................          else 
07314:  BRA    735A
07316:  MOVLB  5
....................             {strcpy(Menus.Letra,"Borrar Programa"); 
07318:  MOVLW  07
0731A:  MOVWF  FEA
0731C:  MOVLW  89
0731E:  MOVWF  FE9
07320:  MOVFF  FF2,7A9
07324:  BCF    FF2.7
07326:  MOVLW  00
07328:  MOVLB  0
0732A:  CALL   094C
0732E:  TBLRD*-
07330:  TBLRD*+
07332:  MOVF   FF5,W
07334:  MOVWF  FEE
07336:  IORLW  00
07338:  BNZ   7330
0733A:  MOVLB  7
0733C:  BTFSC  xA9.7
0733E:  BSF    FF2.7
....................             displayMenu(Menus.Letra,0,36,0,1);}    
07340:  MOVLW  07
07342:  MOVWF  xAD
07344:  MOVLW  89
07346:  MOVWF  xAC
07348:  CLRF   xAE
0734A:  MOVLW  24
0734C:  MOVWF  xAF
0734E:  CLRF   xB0
07350:  MOVLW  01
07352:  MOVWF  xB1
07354:  MOVLB  0
07356:  CALL   1BAE
....................                          
....................          if(Opcion==4)    
0735A:  MOVLB  5
0735C:  MOVF   xA1,W
0735E:  SUBLW  04
07360:  BNZ   73A8
....................             {strcpy(Menus.Letra,"Ajustes"); 
07362:  MOVLW  07
07364:  MOVWF  FEA
07366:  MOVLW  89
07368:  MOVWF  FE9
0736A:  MOVFF  FF2,7A9
0736E:  BCF    FF2.7
07370:  MOVLW  00
07372:  MOVLB  0
07374:  CALL   097A
07378:  TBLRD*-
0737A:  TBLRD*+
0737C:  MOVF   FF5,W
0737E:  MOVWF  FEE
07380:  IORLW  00
07382:  BNZ   737A
07384:  MOVLB  7
07386:  BTFSC  xA9.7
07388:  BSF    FF2.7
....................             displayMenu(Menus.Letra,0,45,1,1);} 
0738A:  MOVLW  07
0738C:  MOVWF  xAD
0738E:  MOVLW  89
07390:  MOVWF  xAC
07392:  CLRF   xAE
07394:  MOVLW  2D
07396:  MOVWF  xAF
07398:  MOVLW  01
0739A:  MOVWF  xB0
0739C:  MOVWF  xB1
0739E:  MOVLB  0
073A0:  CALL   1BAE
....................          else 
073A4:  BRA    73EA
073A6:  MOVLB  5
....................             {strcpy(Menus.Letra,"Ajustes"); 
073A8:  MOVLW  07
073AA:  MOVWF  FEA
073AC:  MOVLW  89
073AE:  MOVWF  FE9
073B0:  MOVFF  FF2,7A9
073B4:  BCF    FF2.7
073B6:  MOVLW  00
073B8:  MOVLB  0
073BA:  CALL   097A
073BE:  TBLRD*-
073C0:  TBLRD*+
073C2:  MOVF   FF5,W
073C4:  MOVWF  FEE
073C6:  IORLW  00
073C8:  BNZ   73C0
073CA:  MOVLB  7
073CC:  BTFSC  xA9.7
073CE:  BSF    FF2.7
....................             displayMenu(Menus.Letra,0,45,0,1);}      
073D0:  MOVLW  07
073D2:  MOVWF  xAD
073D4:  MOVLW  89
073D6:  MOVWF  xAC
073D8:  CLRF   xAE
073DA:  MOVLW  2D
073DC:  MOVWF  xAF
073DE:  CLRF   xB0
073E0:  MOVLW  01
073E2:  MOVWF  xB1
073E4:  MOVLB  0
073E6:  CALL   1BAE
....................           
....................          if(Opcion==5)    
073EA:  MOVLB  5
073EC:  MOVF   xA1,W
073EE:  SUBLW  05
073F0:  BNZ   7438
....................             {strcpy(Menus.Letra,"Cambio Clave"); 
073F2:  MOVLW  07
073F4:  MOVWF  FEA
073F6:  MOVLW  89
073F8:  MOVWF  FE9
073FA:  MOVFF  FF2,7A9
073FE:  BCF    FF2.7
07400:  MOVLW  00
07402:  MOVLB  0
07404:  CALL   09A0
07408:  TBLRD*-
0740A:  TBLRD*+
0740C:  MOVF   FF5,W
0740E:  MOVWF  FEE
07410:  IORLW  00
07412:  BNZ   740A
07414:  MOVLB  7
07416:  BTFSC  xA9.7
07418:  BSF    FF2.7
....................             displayMenu(Menus.Letra,0,54,1,1);} 
0741A:  MOVLW  07
0741C:  MOVWF  xAD
0741E:  MOVLW  89
07420:  MOVWF  xAC
07422:  CLRF   xAE
07424:  MOVLW  36
07426:  MOVWF  xAF
07428:  MOVLW  01
0742A:  MOVWF  xB0
0742C:  MOVWF  xB1
0742E:  MOVLB  0
07430:  CALL   1BAE
....................          else 
07434:  BRA    747A
07436:  MOVLB  5
....................             {strcpy(Menus.Letra,"Cambio Clave"); 
07438:  MOVLW  07
0743A:  MOVWF  FEA
0743C:  MOVLW  89
0743E:  MOVWF  FE9
07440:  MOVFF  FF2,7A9
07444:  BCF    FF2.7
07446:  MOVLW  00
07448:  MOVLB  0
0744A:  CALL   09A0
0744E:  TBLRD*-
07450:  TBLRD*+
07452:  MOVF   FF5,W
07454:  MOVWF  FEE
07456:  IORLW  00
07458:  BNZ   7450
0745A:  MOVLB  7
0745C:  BTFSC  xA9.7
0745E:  BSF    FF2.7
....................             displayMenu(Menus.Letra,0,54,0,1);}      
07460:  MOVLW  07
07462:  MOVWF  xAD
07464:  MOVLW  89
07466:  MOVWF  xAC
07468:  CLRF   xAE
0746A:  MOVLW  36
0746C:  MOVWF  xAF
0746E:  CLRF   xB0
07470:  MOVLW  01
07472:  MOVWF  xB1
07474:  MOVLB  0
07476:  CALL   1BAE
....................           
....................          if(UP)//Si oprime hacia arriba 
0747A:  BSF    F92.5
0747C:  BTFSC  F80.5
0747E:  BRA    749A
....................          { 
....................             Buzz_on;delay_ms(30);Opcion--;Buzz_off; 
07480:  BSF    F8B.7
07482:  BCF    F94.7
07484:  MOVLW  1E
07486:  MOVLB  7
07488:  MOVWF  xAF
0748A:  MOVLB  0
0748C:  CALL   1500
07490:  MOVLB  5
07492:  DECF   xA1,F
07494:  BCF    F8B.7
07496:  BCF    F94.7
07498:  MOVLB  0
....................          } 
....................                    
....................          if(DOWN)//Si oprime hacia abajo 
0749A:  BSF    F96.0
0749C:  BTFSC  F84.0
0749E:  BRA    74BA
....................          { 
....................             Buzz_on;delay_ms(30);Opcion++; Buzz_off; 
074A0:  BSF    F8B.7
074A2:  BCF    F94.7
074A4:  MOVLW  1E
074A6:  MOVLB  7
074A8:  MOVWF  xAF
074AA:  MOVLB  0
074AC:  CALL   1500
074B0:  MOVLB  5
074B2:  INCF   xA1,F
074B4:  BCF    F8B.7
074B6:  BCF    F94.7
074B8:  MOVLB  0
....................          } 
....................                 
....................          if(RIGHT)//Si oprime SET 
074BA:  BSF    F96.1
074BC:  BTFSC  F84.1
074BE:  BRA    74F8
....................          {  
....................             Buzz_on;delay_ms(50);Menu=Opcion+3;Opcion=1;glcd_fillscreen(OFF);Buzz_off; 
074C0:  BSF    F8B.7
074C2:  BCF    F94.7
074C4:  MOVLW  32
074C6:  MOVLB  7
074C8:  MOVWF  xAF
074CA:  MOVLB  0
074CC:  CALL   1500
074D0:  MOVLW  03
074D2:  MOVLB  5
074D4:  ADDWF  xA1,W
074D6:  MOVWF  x9A
074D8:  MOVLW  01
074DA:  MOVWF  xA1
074DC:  MOVLB  7
074DE:  CLRF   xAA
074E0:  MOVLB  0
074E2:  CALL   1580
074E6:  BCF    F8B.7
074E8:  BCF    F94.7
....................             if(Menu==7) 
074EA:  MOVLB  5
074EC:  MOVF   x9A,W
074EE:  SUBLW  07
074F0:  BNZ   74F6
....................                Menu=100; 
074F2:  MOVLW  64
074F4:  MOVWF  x9A
074F6:  MOVLB  0
....................          } 
....................        
....................  
....................    } 
.................... //_--------------------------------------------------------------------------------------------------------------------------------------------------------        
....................  
.................... //_-------------------------------------------------------------------------------------------------------------------------------------------------------- 
....................       if(Menu==4){ //Menu de Continuar 
074F8:  MOVLB  5
074FA:  MOVF   x9A,W
074FC:  SUBLW  04
074FE:  BTFSS  FD8.2
07500:  BRA    7C56
....................        
....................       if(Opcion>5) 
07502:  MOVF   xA1,W
07504:  SUBLW  05
07506:  BC    750C
....................          Opcion=1; 
07508:  MOVLW  01
0750A:  MOVWF  xA1
....................           
....................       if(Opcion<1) 
0750C:  MOVF   xA1,F
0750E:  BNZ   7514
....................          Opcion=5; 
07510:  MOVLW  05
07512:  MOVWF  xA1
....................        
....................          strcpy(Menus.Letra,"Seleccione"); 
07514:  MOVLW  07
07516:  MOVWF  FEA
07518:  MOVLW  89
0751A:  MOVWF  FE9
0751C:  MOVFF  FF2,7A9
07520:  BCF    FF2.7
07522:  MOVLW  00
07524:  MOVLB  0
07526:  CALL   09CC
0752A:  TBLRD*-
0752C:  TBLRD*+
0752E:  MOVF   FF5,W
07530:  MOVWF  FEE
07532:  IORLW  00
07534:  BNZ   752C
07536:  MOVLB  7
07538:  BTFSC  xA9.7
0753A:  BSF    FF2.7
....................          displayMenu(Menus.Letra,0,0,1,2); 
0753C:  MOVLW  07
0753E:  MOVWF  xAD
07540:  MOVLW  89
07542:  MOVWF  xAC
07544:  CLRF   xAE
07546:  CLRF   xAF
07548:  MOVLW  01
0754A:  MOVWF  xB0
0754C:  MOVLW  02
0754E:  MOVWF  xB1
07550:  MOVLB  0
07552:  CALL   1BAE
....................           
....................          strcpy(Menus.Letra," Programa"); 
07556:  MOVLW  07
07558:  MOVWF  FEA
0755A:  MOVLW  89
0755C:  MOVWF  FE9
0755E:  MOVFF  FF2,7A9
07562:  BCF    FF2.7
07564:  MOVLW  00
07566:  CALL   09F6
0756A:  TBLRD*-
0756C:  TBLRD*+
0756E:  MOVF   FF5,W
07570:  MOVWF  FEE
07572:  IORLW  00
07574:  BNZ   756C
07576:  MOVLB  7
07578:  BTFSC  xA9.7
0757A:  BSF    FF2.7
....................          displayMenu(Menus.Letra,0,16,1,2); 
0757C:  MOVLW  07
0757E:  MOVWF  xAD
07580:  MOVLW  89
07582:  MOVWF  xAC
07584:  CLRF   xAE
07586:  MOVLW  10
07588:  MOVWF  xAF
0758A:  MOVLW  01
0758C:  MOVWF  xB0
0758E:  MOVLW  02
07590:  MOVWF  xB1
07592:  MOVLB  0
07594:  CALL   1BAE
....................            
....................           
....................          if(Opcion==1) 
07598:  MOVLB  5
0759A:  DECFSZ xA1,W
0759C:  BRA    75E2
....................          { 
....................             strcpy(Menus.Letra,"Programa 01"); 
0759E:  MOVLW  07
075A0:  MOVWF  FEA
075A2:  MOVLW  89
075A4:  MOVWF  FE9
075A6:  MOVFF  FF2,7A9
075AA:  BCF    FF2.7
075AC:  MOVLW  00
075AE:  MOVLB  0
075B0:  CALL   0A1E
075B4:  TBLRD*-
075B6:  TBLRD*+
075B8:  MOVF   FF5,W
075BA:  MOVWF  FEE
075BC:  IORLW  00
075BE:  BNZ   75B6
075C0:  MOVLB  7
075C2:  BTFSC  xA9.7
075C4:  BSF    FF2.7
....................             displayMenu(Menus.Letra,0,38,0,2); 
075C6:  MOVLW  07
075C8:  MOVWF  xAD
075CA:  MOVLW  89
075CC:  MOVWF  xAC
075CE:  CLRF   xAE
075D0:  MOVLW  26
075D2:  MOVWF  xAF
075D4:  CLRF   xB0
075D6:  MOVLW  02
075D8:  MOVWF  xB1
075DA:  MOVLB  0
075DC:  CALL   1BAE
075E0:  MOVLB  5
....................          } 
....................           
....................          if(Opcion==2) 
075E2:  MOVF   xA1,W
075E4:  SUBLW  02
075E6:  BNZ   762C
....................          { 
....................             strcpy(Menus.Letra,"Programa 02"); 
075E8:  MOVLW  07
075EA:  MOVWF  FEA
075EC:  MOVLW  89
075EE:  MOVWF  FE9
075F0:  MOVFF  FF2,7A9
075F4:  BCF    FF2.7
075F6:  MOVLW  00
075F8:  MOVLB  0
075FA:  CALL   0A48
075FE:  TBLRD*-
07600:  TBLRD*+
07602:  MOVF   FF5,W
07604:  MOVWF  FEE
07606:  IORLW  00
07608:  BNZ   7600
0760A:  MOVLB  7
0760C:  BTFSC  xA9.7
0760E:  BSF    FF2.7
....................             displayMenu(Menus.Letra,0,38,0,2); 
07610:  MOVLW  07
07612:  MOVWF  xAD
07614:  MOVLW  89
07616:  MOVWF  xAC
07618:  CLRF   xAE
0761A:  MOVLW  26
0761C:  MOVWF  xAF
0761E:  CLRF   xB0
07620:  MOVLW  02
07622:  MOVWF  xB1
07624:  MOVLB  0
07626:  CALL   1BAE
0762A:  MOVLB  5
....................          } 
....................           
....................          if(Opcion==3) 
0762C:  MOVF   xA1,W
0762E:  SUBLW  03
07630:  BNZ   7676
....................          { 
....................             strcpy(Menus.Letra,"Programa 03"); 
07632:  MOVLW  07
07634:  MOVWF  FEA
07636:  MOVLW  89
07638:  MOVWF  FE9
0763A:  MOVFF  FF2,7A9
0763E:  BCF    FF2.7
07640:  MOVLW  00
07642:  MOVLB  0
07644:  CALL   0A72
07648:  TBLRD*-
0764A:  TBLRD*+
0764C:  MOVF   FF5,W
0764E:  MOVWF  FEE
07650:  IORLW  00
07652:  BNZ   764A
07654:  MOVLB  7
07656:  BTFSC  xA9.7
07658:  BSF    FF2.7
....................             displayMenu(Menus.Letra,0,38,0,2); 
0765A:  MOVLW  07
0765C:  MOVWF  xAD
0765E:  MOVLW  89
07660:  MOVWF  xAC
07662:  CLRF   xAE
07664:  MOVLW  26
07666:  MOVWF  xAF
07668:  CLRF   xB0
0766A:  MOVLW  02
0766C:  MOVWF  xB1
0766E:  MOVLB  0
07670:  CALL   1BAE
07674:  MOVLB  5
....................          } 
....................           
....................          if(Opcion==4) 
07676:  MOVF   xA1,W
07678:  SUBLW  04
0767A:  BNZ   76C0
....................          { 
....................             strcpy(Menus.Letra,"Programa 04"); 
0767C:  MOVLW  07
0767E:  MOVWF  FEA
07680:  MOVLW  89
07682:  MOVWF  FE9
07684:  MOVFF  FF2,7A9
07688:  BCF    FF2.7
0768A:  MOVLW  00
0768C:  MOVLB  0
0768E:  CALL   0A9C
07692:  TBLRD*-
07694:  TBLRD*+
07696:  MOVF   FF5,W
07698:  MOVWF  FEE
0769A:  IORLW  00
0769C:  BNZ   7694
0769E:  MOVLB  7
076A0:  BTFSC  xA9.7
076A2:  BSF    FF2.7
....................             displayMenu(Menus.Letra,0,38,0,2); 
076A4:  MOVLW  07
076A6:  MOVWF  xAD
076A8:  MOVLW  89
076AA:  MOVWF  xAC
076AC:  CLRF   xAE
076AE:  MOVLW  26
076B0:  MOVWF  xAF
076B2:  CLRF   xB0
076B4:  MOVLW  02
076B6:  MOVWF  xB1
076B8:  MOVLB  0
076BA:  CALL   1BAE
076BE:  MOVLB  5
....................          } 
....................           
....................          if(Opcion==5) 
076C0:  MOVF   xA1,W
076C2:  SUBLW  05
076C4:  BNZ   770A
....................          { 
....................             strcpy(Menus.Letra,"Programa 05"); 
076C6:  MOVLW  07
076C8:  MOVWF  FEA
076CA:  MOVLW  89
076CC:  MOVWF  FE9
076CE:  MOVFF  FF2,7A9
076D2:  BCF    FF2.7
076D4:  MOVLW  00
076D6:  MOVLB  0
076D8:  CALL   0AC6
076DC:  TBLRD*-
076DE:  TBLRD*+
076E0:  MOVF   FF5,W
076E2:  MOVWF  FEE
076E4:  IORLW  00
076E6:  BNZ   76DE
076E8:  MOVLB  7
076EA:  BTFSC  xA9.7
076EC:  BSF    FF2.7
....................             displayMenu(Menus.Letra,0,38,0,2); 
076EE:  MOVLW  07
076F0:  MOVWF  xAD
076F2:  MOVLW  89
076F4:  MOVWF  xAC
076F6:  CLRF   xAE
076F8:  MOVLW  26
076FA:  MOVWF  xAF
076FC:  CLRF   xB0
076FE:  MOVLW  02
07700:  MOVWF  xB1
07702:  MOVLB  0
07704:  CALL   1BAE
07708:  MOVLB  5
....................          } 
....................           
....................          
....................       if(UP)//Si oprime hacia arriba 
0770A:  BSF    F92.5
0770C:  BTFSC  F80.5
0770E:  BRA    7748
....................       { 
....................          Buzz_on;delay_ms(30);Opcion++;Buzz_off; 
07710:  BSF    F8B.7
07712:  BCF    F94.7
07714:  MOVLW  1E
07716:  MOVLB  7
07718:  MOVWF  xAF
0771A:  MOVLB  0
0771C:  CALL   1500
07720:  MOVLB  5
07722:  INCF   xA1,F
07724:  BCF    F8B.7
07726:  BCF    F94.7
....................          glcd_rect(40, 35, 85, 60, YES, OFF); 
07728:  MOVLW  28
0772A:  MOVLB  7
0772C:  MOVWF  xC1
0772E:  MOVLW  23
07730:  MOVWF  xC2
07732:  MOVLW  55
07734:  MOVWF  xC3
07736:  MOVLW  3C
07738:  MOVWF  xC4
0773A:  MOVLW  01
0773C:  MOVWF  xC5
0773E:  CLRF   xC6
07740:  MOVLB  0
07742:  CALL   1AEC
07746:  MOVLB  5
....................       } 
....................              
....................       if(DOWN)//Si oprime hacia abajo 
07748:  BSF    F96.0
0774A:  BTFSC  F84.0
0774C:  BRA    7786
....................       {   
....................          Buzz_on;delay_ms(30);Opcion--;Buzz_off; 
0774E:  BSF    F8B.7
07750:  BCF    F94.7
07752:  MOVLW  1E
07754:  MOVLB  7
07756:  MOVWF  xAF
07758:  MOVLB  0
0775A:  CALL   1500
0775E:  MOVLB  5
07760:  DECF   xA1,F
07762:  BCF    F8B.7
07764:  BCF    F94.7
....................          glcd_rect(40, 35, 85, 60, YES, OFF); 
07766:  MOVLW  28
07768:  MOVLB  7
0776A:  MOVWF  xC1
0776C:  MOVLW  23
0776E:  MOVWF  xC2
07770:  MOVLW  55
07772:  MOVWF  xC3
07774:  MOVLW  3C
07776:  MOVWF  xC4
07778:  MOVLW  01
0777A:  MOVWF  xC5
0777C:  CLRF   xC6
0777E:  MOVLB  0
07780:  CALL   1AEC
07784:  MOVLB  5
....................       } 
....................              
....................       if(RIGHT)//Si oprime SET 
07786:  BSF    F96.1
07788:  BTFSC  F84.1
0778A:  BRA    7C20
....................       {   
....................          Menu=20;glcd_fillscreen(OFF); 
0778C:  MOVLW  14
0778E:  MOVWF  x9A
07790:  MOVLB  7
07792:  CLRF   xAA
07794:  MOVLB  0
07796:  CALL   1580
....................          for(i=0;i<10;i++){ 
0779A:  MOVLB  5
0779C:  CLRF   x9C
0779E:  MOVF   x9C,W
077A0:  SUBLW  09
077A2:  BNC   77EC
....................             if(Temperatura1[i+((Opcion-1)*10)]==0){ 
077A4:  MOVLW  01
077A6:  SUBWF  xA1,W
077A8:  MULLW  0A
077AA:  MOVF   FF3,W
077AC:  ADDWF  x9C,W
077AE:  MOVWF  00
077B0:  BCF    FD8.0
077B2:  RLCF   00,F
077B4:  MOVF   00,W
077B6:  CLRF   03
077B8:  ADDLW  5D
077BA:  MOVWF  FE9
077BC:  MOVLW  06
077BE:  ADDWFC 03,W
077C0:  MOVWF  FEA
077C2:  MOVFF  FEC,7AA
077C6:  MOVF   FED,F
077C8:  MOVFF  FEF,7A9
077CC:  MOVLB  7
077CE:  MOVF   xA9,F
077D0:  BNZ   77E2
077D2:  MOVF   xAA,F
077D4:  BNZ   77E2
....................                Segmentos=i; 
077D6:  MOVFF  59C,592
....................                break; 
077DA:  MOVLB  5
077DC:  BRA    77EC
....................             } 
....................             else{ 
077DE:  BRA    77E8
077E0:  MOVLB  7
....................                Segmentos=9; 
077E2:  MOVLW  09
077E4:  MOVLB  5
077E6:  MOVWF  x92
....................             } 
....................             //Horas1[i+((Opcion-1)*10)]=0; 
....................             //Minutos1[i+((Opcion-1)*10)]=0; 
....................          } 
077E8:  INCF   x9C,F
077EA:  BRA    779E
....................          if(Segmentos>0){ 
077EC:  MOVF   x92,F
077EE:  BTFSC  FD8.2
077F0:  BRA    7B60
....................             ProgramaSeleccionado=Opcion-1; 
077F2:  MOVLW  01
077F4:  SUBWF  xA1,W
077F6:  MOVWF  xA3
....................             glcd_fillscreen(OFF); 
077F8:  MOVLB  7
077FA:  CLRF   xAA
077FC:  MOVLB  0
077FE:  CALL   1580
....................              
....................             strcpy(Menus.Letra," Segmentos"); 
07802:  MOVLW  07
07804:  MOVWF  FEA
07806:  MOVLW  89
07808:  MOVWF  FE9
0780A:  MOVFF  FF2,7A9
0780E:  BCF    FF2.7
07810:  MOVLW  00
07812:  CALL   0AF0
07816:  TBLRD*-
07818:  TBLRD*+
0781A:  MOVF   FF5,W
0781C:  MOVWF  FEE
0781E:  IORLW  00
07820:  BNZ   7818
07822:  MOVLB  7
07824:  BTFSC  xA9.7
07826:  BSF    FF2.7
....................             displayMenu(Menus.Letra,0,0,0,2); 
07828:  MOVLW  07
0782A:  MOVWF  xAD
0782C:  MOVLW  89
0782E:  MOVWF  xAC
07830:  CLRF   xAE
07832:  CLRF   xAF
07834:  CLRF   xB0
07836:  MOVLW  02
07838:  MOVWF  xB1
0783A:  MOVLB  0
0783C:  CALL   1BAE
....................              
....................             displayTiempo(Segmentos,63,30,3,2); 
07840:  MOVFF  592,7AC
07844:  MOVLW  3F
07846:  MOVLB  7
07848:  MOVWF  xAD
0784A:  MOVLW  1E
0784C:  MOVWF  xAE
0784E:  MOVLW  03
07850:  MOVWF  xAF
07852:  MOVLW  02
07854:  MOVWF  xB0
07856:  MOVLB  0
07858:  CALL   333E
....................             delay_ms(2000); 
0785C:  MOVLW  08
0785E:  MOVLB  7
07860:  MOVWF  xA9
07862:  MOVLW  FA
07864:  MOVWF  xAF
07866:  MOVLB  0
07868:  CALL   1500
0786C:  MOVLB  7
0786E:  DECFSZ xA9,F
07870:  BRA    7862
....................             glcd_fillscreen(OFF); 
07872:  CLRF   xAA
07874:  MOVLB  0
07876:  CALL   1580
....................             Opcion=1;visual=1;//Faltaa cuadrar esta parte 
0787A:  MOVLW  01
0787C:  MOVLB  5
0787E:  MOVWF  xA1
07880:  BSF    x87.6
....................             TempeInicial=Temperatura; 
07882:  MOVFF  624,5BC
07886:  MOVFF  623,5BB
0788A:  MOVFF  622,5BA
0788E:  MOVFF  621,5B9
....................             Ganancia=Ganancia*(Setpoint/Coeficiente); 
07892:  MOVFF  630,7B0
07896:  MOVFF  62F,7AF
0789A:  MOVFF  62E,7AE
0789E:  MOVFF  62D,7AD
078A2:  MOVFF  614,7B4
078A6:  MOVFF  613,7B3
078AA:  MOVFF  612,7B2
078AE:  MOVFF  611,7B1
078B2:  MOVLB  0
078B4:  CALL   2E3A
078B8:  MOVFF  60C,7C9
078BC:  MOVFF  60B,7C8
078C0:  MOVFF  60A,7C7
078C4:  MOVFF  609,7C6
078C8:  MOVFF  03,7CD
078CC:  MOVFF  02,7CC
078D0:  MOVFF  01,7CB
078D4:  MOVFF  00,7CA
078D8:  CALL   2F98
078DC:  MOVFF  03,60C
078E0:  MOVFF  02,60B
078E4:  MOVFF  01,60A
078E8:  MOVFF  00,609
....................              
....................             Tiempo=(Horas1[ProgramaSeleccionado*10]*3600)+(Minutos1[ProgramaSeleccionado*10]*60);          
078EC:  MOVLB  5
078EE:  MOVF   xA3,W
078F0:  MULLW  0A
078F2:  MOVFF  FF3,00
078F6:  BCF    FD8.0
078F8:  RLCF   00,F
078FA:  MOVF   00,W
078FC:  CLRF   03
078FE:  ADDLW  C1
07900:  MOVWF  FE9
07902:  MOVLW  06
07904:  ADDWFC 03,W
07906:  MOVWF  FEA
07908:  MOVFF  FEC,7AA
0790C:  MOVF   FED,F
0790E:  MOVFF  FEF,7A9
07912:  MOVFF  7AA,7AE
07916:  MOVFF  7A9,7AD
0791A:  MOVLW  0E
0791C:  MOVLB  7
0791E:  MOVWF  xB0
07920:  MOVLW  10
07922:  MOVWF  xAF
07924:  MOVLB  0
07926:  CALL   3504
0792A:  MOVFF  02,7AA
0792E:  MOVFF  01,7A9
07932:  MOVLB  5
07934:  MOVF   xA3,W
07936:  MULLW  0A
07938:  MOVFF  FF3,00
0793C:  BCF    FD8.0
0793E:  RLCF   00,F
07940:  MOVF   00,W
07942:  CLRF   03
07944:  ADDLW  25
07946:  MOVWF  FE9
07948:  MOVLW  07
0794A:  ADDWFC 03,W
0794C:  MOVWF  FEA
0794E:  MOVFF  FEC,7AC
07952:  MOVF   FED,F
07954:  MOVFF  FEF,7AB
07958:  MOVFF  7AC,7AE
0795C:  MOVFF  7AB,7AD
07960:  MOVLB  7
07962:  CLRF   xB0
07964:  MOVLW  3C
07966:  MOVWF  xAF
07968:  MOVLB  0
0796A:  CALL   3504
0796E:  MOVFF  02,03
07972:  MOVF   01,W
07974:  MOVLB  7
07976:  ADDWF  xA9,W
07978:  MOVWF  01
0797A:  MOVF   xAA,W
0797C:  ADDWFC 03,F
0797E:  MOVFF  01,7AD
07982:  MOVFF  03,7AE
07986:  MOVLB  0
07988:  CALL   3558
0798C:  MOVFF  03,5C0
07990:  MOVFF  02,5BF
07994:  MOVFF  01,5BE
07998:  MOVFF  00,5BD
....................             Setpoint=Temperatura1[(ProgramaSeleccionado*10)+Segmento]; 
0799C:  MOVLB  5
0799E:  MOVF   xA3,W
079A0:  MULLW  0A
079A2:  MOVF   FF3,W
079A4:  ADDWF  x93,W
079A6:  MOVWF  00
079A8:  BCF    FD8.0
079AA:  RLCF   00,F
079AC:  MOVF   00,W
079AE:  CLRF   03
079B0:  ADDLW  5D
079B2:  MOVWF  FE9
079B4:  MOVLW  06
079B6:  ADDWFC 03,W
079B8:  MOVWF  FEA
079BA:  MOVFF  FEC,03
079BE:  MOVF   FED,F
079C0:  MOVFF  FEF,7AD
079C4:  MOVFF  03,7AE
079C8:  MOVLB  0
079CA:  CALL   3558
079CE:  MOVFF  03,630
079D2:  MOVFF  02,62F
079D6:  MOVFF  01,62E
079DA:  MOVFF  00,62D
....................             Pendiente=((Setpoint-TempeInicial)/Tiempo); 
079DE:  BSF    FD8.1
079E0:  MOVFF  630,7B2
079E4:  MOVFF  62F,7B1
079E8:  MOVFF  62E,7B0
079EC:  MOVFF  62D,7AF
079F0:  MOVFF  5BC,7B6
079F4:  MOVFF  5BB,7B5
079F8:  MOVFF  5BA,7B4
079FC:  MOVFF  5B9,7B3
07A00:  CALL   2BC2
07A04:  MOVFF  00,7A9
07A08:  MOVFF  01,7AA
07A0C:  MOVFF  02,7AB
07A10:  MOVFF  03,7AC
07A14:  MOVFF  03,7B0
07A18:  MOVFF  02,7AF
07A1C:  MOVFF  01,7AE
07A20:  MOVFF  00,7AD
07A24:  MOVFF  5C0,7B4
07A28:  MOVFF  5BF,7B3
07A2C:  MOVFF  5BE,7B2
07A30:  MOVFF  5BD,7B1
07A34:  CALL   2E3A
07A38:  MOVFF  03,628
07A3C:  MOVFF  02,627
07A40:  MOVFF  01,626
07A44:  MOVFF  00,625
....................             Testerilizacionp[3]=(int8)Horas1[(ProgramaSeleccionado*10)+Segmento]/10; 
07A48:  MOVLB  5
07A4A:  MOVF   xA3,W
07A4C:  MULLW  0A
07A4E:  MOVF   FF3,W
07A50:  ADDWF  x93,W
07A52:  MOVWF  00
07A54:  BCF    FD8.0
07A56:  RLCF   00,F
07A58:  MOVF   00,W
07A5A:  CLRF   03
07A5C:  ADDLW  C1
07A5E:  MOVWF  FE9
07A60:  MOVLW  06
07A62:  ADDWFC 03,W
07A64:  MOVWF  FEA
07A66:  MOVFF  FEF,7BE
07A6A:  MOVLW  0A
07A6C:  MOVLB  7
07A6E:  MOVWF  xBF
07A70:  MOVLB  0
07A72:  CALL   1CD4
07A76:  MOVFF  01,5E4
07A7A:  MOVLB  5
....................             Testerilizacionp[2]=Horas1[(ProgramaSeleccionado*10)+Segmento]-(Testerilizacionp[3]*10); 
07A7C:  MOVF   xA3,W
07A7E:  MULLW  0A
07A80:  MOVF   FF3,W
07A82:  ADDWF  x93,W
07A84:  MOVWF  00
07A86:  BCF    FD8.0
07A88:  RLCF   00,F
07A8A:  MOVF   00,W
07A8C:  CLRF   03
07A8E:  ADDLW  C1
07A90:  MOVWF  FE9
07A92:  MOVLW  06
07A94:  ADDWFC 03,W
07A96:  MOVWF  FEA
07A98:  MOVFF  FEC,7AA
07A9C:  MOVF   FED,F
07A9E:  MOVFF  FEF,7A9
07AA2:  MOVFF  5E4,7CA
07AA6:  MOVLW  0A
07AA8:  MOVLB  7
07AAA:  MOVWF  xCB
07AAC:  MOVLB  0
07AAE:  CALL   35A8
07AB2:  MOVF   01,W
07AB4:  CLRF   03
07AB6:  MOVWF  00
07AB8:  BTFSC  FE8.7
07ABA:  DECF   03,F
07ABC:  MOVLB  7
07ABE:  SUBWF  xA9,W
07AC0:  MOVWF  00
07AC2:  MOVF   03,W
07AC4:  SUBWFB xAA,W
07AC6:  MOVFF  00,5E3
07ACA:  MOVLB  5
....................             Testerilizacionp[1]=Minutos1[(ProgramaSeleccionado*10)+Segmento]/10; 
07ACC:  MOVF   xA3,W
07ACE:  MULLW  0A
07AD0:  MOVF   FF3,W
07AD2:  ADDWF  x93,W
07AD4:  MOVWF  00
07AD6:  BCF    FD8.0
07AD8:  RLCF   00,F
07ADA:  MOVF   00,W
07ADC:  CLRF   03
07ADE:  ADDLW  25
07AE0:  MOVWF  FE9
07AE2:  MOVLW  07
07AE4:  ADDWFC 03,W
07AE6:  MOVWF  FEA
07AE8:  MOVFF  FEC,7AA
07AEC:  MOVF   FED,F
07AEE:  MOVFF  FEF,7A9
07AF2:  MOVFF  7AA,7AE
07AF6:  MOVFF  7A9,7AD
07AFA:  MOVLB  7
07AFC:  CLRF   xB0
07AFE:  MOVLW  0A
07B00:  MOVWF  xAF
07B02:  MOVLB  0
07B04:  CALL   35F6
07B08:  MOVFF  01,5E2
07B0C:  MOVLB  5
....................             Testerilizacionp[0]=Minutos1[(ProgramaSeleccionado*10)+Segmento]-(Testerilizacionp[1]*10); 
07B0E:  MOVF   xA3,W
07B10:  MULLW  0A
07B12:  MOVF   FF3,W
07B14:  ADDWF  x93,W
07B16:  MOVWF  00
07B18:  BCF    FD8.0
07B1A:  RLCF   00,F
07B1C:  MOVF   00,W
07B1E:  CLRF   03
07B20:  ADDLW  25
07B22:  MOVWF  FE9
07B24:  MOVLW  07
07B26:  ADDWFC 03,W
07B28:  MOVWF  FEA
07B2A:  MOVFF  FEC,7AA
07B2E:  MOVF   FED,F
07B30:  MOVFF  FEF,7A9
07B34:  MOVFF  5E2,7CA
07B38:  MOVLW  0A
07B3A:  MOVLB  7
07B3C:  MOVWF  xCB
07B3E:  MOVLB  0
07B40:  CALL   35A8
07B44:  MOVF   01,W
07B46:  CLRF   03
07B48:  MOVWF  00
07B4A:  BTFSC  FE8.7
07B4C:  DECF   03,F
07B4E:  MOVLB  7
07B50:  SUBWF  xA9,W
07B52:  MOVWF  00
07B54:  MOVF   03,W
07B56:  SUBWFB xAA,W
07B58:  MOVFF  00,5E1
07B5C:  MOVLB  5
....................          } 
....................          else{ 
07B5E:  BRA    7C20
....................             glcd_fillscreen(OFF); 
07B60:  MOVLB  7
07B62:  CLRF   xAA
07B64:  MOVLB  0
07B66:  CALL   1580
....................             strcpy(Menus.Letra," !Programa"); 
07B6A:  MOVLW  07
07B6C:  MOVWF  FEA
07B6E:  MOVLW  89
07B70:  MOVWF  FE9
07B72:  MOVFF  FF2,7A9
07B76:  BCF    FF2.7
07B78:  MOVLW  00
07B7A:  CALL   0B1A
07B7E:  TBLRD*-
07B80:  TBLRD*+
07B82:  MOVF   FF5,W
07B84:  MOVWF  FEE
07B86:  IORLW  00
07B88:  BNZ   7B80
07B8A:  MOVLB  7
07B8C:  BTFSC  xA9.7
07B8E:  BSF    FF2.7
....................             displayMenu(Menus.Letra,0,0,0,2); 
07B90:  MOVLW  07
07B92:  MOVWF  xAD
07B94:  MOVLW  89
07B96:  MOVWF  xAC
07B98:  CLRF   xAE
07B9A:  CLRF   xAF
07B9C:  CLRF   xB0
07B9E:  MOVLW  02
07BA0:  MOVWF  xB1
07BA2:  MOVLB  0
07BA4:  CALL   1BAE
....................             strcpy(Menus.Letra,"    Vacio!"); 
07BA8:  MOVLW  07
07BAA:  MOVWF  FEA
07BAC:  MOVLW  89
07BAE:  MOVWF  FE9
07BB0:  MOVFF  FF2,7A9
07BB4:  BCF    FF2.7
07BB6:  MOVLW  00
07BB8:  CALL   0B44
07BBC:  TBLRD*-
07BBE:  TBLRD*+
07BC0:  MOVF   FF5,W
07BC2:  MOVWF  FEE
07BC4:  IORLW  00
07BC6:  BNZ   7BBE
07BC8:  MOVLB  7
07BCA:  BTFSC  xA9.7
07BCC:  BSF    FF2.7
....................             displayMenu(Menus.Letra,0,20,0,2); 
07BCE:  MOVLW  07
07BD0:  MOVWF  xAD
07BD2:  MOVLW  89
07BD4:  MOVWF  xAC
07BD6:  CLRF   xAE
07BD8:  MOVLW  14
07BDA:  MOVWF  xAF
07BDC:  CLRF   xB0
07BDE:  MOVLW  02
07BE0:  MOVWF  xB1
07BE2:  MOVLB  0
07BE4:  CALL   1BAE
....................             Opcion=1;Buzz_off;delay_ms(2000);Menu=1;glcd_fillscreen(OFF);Opcion=1;visual=1; 
07BE8:  MOVLW  01
07BEA:  MOVLB  5
07BEC:  MOVWF  xA1
07BEE:  BCF    F8B.7
07BF0:  BCF    F94.7
07BF2:  MOVLW  08
07BF4:  MOVLB  7
07BF6:  MOVWF  xA9
07BF8:  MOVLW  FA
07BFA:  MOVWF  xAF
07BFC:  MOVLB  0
07BFE:  CALL   1500
07C02:  MOVLB  7
07C04:  DECFSZ xA9,F
07C06:  BRA    7BF8
07C08:  MOVLW  01
07C0A:  MOVLB  5
07C0C:  MOVWF  x9A
07C0E:  MOVLB  7
07C10:  CLRF   xAA
07C12:  MOVLB  0
07C14:  CALL   1580
07C18:  MOVLW  01
07C1A:  MOVLB  5
07C1C:  MOVWF  xA1
07C1E:  BSF    x87.6
....................          } 
....................       }  
....................                    
....................       if(LEFT)//Si oprime boton de Toma. 
07C20:  BSF    F96.2
07C22:  BTFSC  F84.2
07C24:  BRA    7C56
....................       { 
....................          Buzz_on;Opcion=1;Buzz_off;delay_ms(50);Menu=1;glcd_fillscreen(OFF);Opcion=1;visual=1; 
07C26:  BSF    F8B.7
07C28:  BCF    F94.7
07C2A:  MOVLW  01
07C2C:  MOVWF  xA1
07C2E:  BCF    F8B.7
07C30:  BCF    F94.7
07C32:  MOVLW  32
07C34:  MOVLB  7
07C36:  MOVWF  xAF
07C38:  MOVLB  0
07C3A:  CALL   1500
07C3E:  MOVLW  01
07C40:  MOVLB  5
07C42:  MOVWF  x9A
07C44:  MOVLB  7
07C46:  CLRF   xAA
07C48:  MOVLB  0
07C4A:  CALL   1580
07C4E:  MOVLW  01
07C50:  MOVLB  5
07C52:  MOVWF  xA1
07C54:  BSF    x87.6
....................       }  
....................     } 
.................... //_--------------------------------------------------------------------------------------------------------------------------------------------------------        
....................  
.................... //_-------------------------------------------------------------------------------------------------------------------------------------------------------- 
....................       if(Menu==5){ //Menu Editar Programa 
07C56:  MOVF   x9A,W
07C58:  SUBLW  05
07C5A:  BTFSS  FD8.2
07C5C:  BRA    8026
....................        
....................          if(Opcion>5) 
07C5E:  MOVF   xA1,W
07C60:  SUBLW  05
07C62:  BC    7C68
....................          {Opcion=1;} 
07C64:  MOVLW  01
07C66:  MOVWF  xA1
....................          if(Opcion<1) 
07C68:  MOVF   xA1,F
07C6A:  BNZ   7C70
....................          {Opcion=5;} 
07C6C:  MOVLW  05
07C6E:  MOVWF  xA1
....................           
....................          strcpy(Menus.Letra,"Editar"); 
07C70:  MOVLW  07
07C72:  MOVWF  FEA
07C74:  MOVLW  89
07C76:  MOVWF  FE9
07C78:  MOVFF  FF2,7A9
07C7C:  BCF    FF2.7
07C7E:  MOVLW  00
07C80:  MOVLB  0
07C82:  CALL   0B6E
07C86:  TBLRD*-
07C88:  TBLRD*+
07C8A:  MOVF   FF5,W
07C8C:  MOVWF  FEE
07C8E:  IORLW  00
07C90:  BNZ   7C88
07C92:  MOVLB  7
07C94:  BTFSC  xA9.7
07C96:  BSF    FF2.7
....................          displayMenu(Menus.Letra,30,0,1,2); 
07C98:  MOVLW  07
07C9A:  MOVWF  xAD
07C9C:  MOVLW  89
07C9E:  MOVWF  xAC
07CA0:  MOVLW  1E
07CA2:  MOVWF  xAE
07CA4:  CLRF   xAF
07CA6:  MOVLW  01
07CA8:  MOVWF  xB0
07CAA:  MOVLW  02
07CAC:  MOVWF  xB1
07CAE:  MOVLB  0
07CB0:  CALL   1BAE
....................        
....................          if(Opcion==1)    
07CB4:  MOVLB  5
07CB6:  DECFSZ xA1,W
07CB8:  BRA    7D00
....................             {strcpy(Menus.Letra,"Programa 01"); 
07CBA:  MOVLW  07
07CBC:  MOVWF  FEA
07CBE:  MOVLW  89
07CC0:  MOVWF  FE9
07CC2:  MOVFF  FF2,7A9
07CC6:  BCF    FF2.7
07CC8:  MOVLW  00
07CCA:  MOVLB  0
07CCC:  CALL   0A1E
07CD0:  TBLRD*-
07CD2:  TBLRD*+
07CD4:  MOVF   FF5,W
07CD6:  MOVWF  FEE
07CD8:  IORLW  00
07CDA:  BNZ   7CD2
07CDC:  MOVLB  7
07CDE:  BTFSC  xA9.7
07CE0:  BSF    FF2.7
....................             displayMenu(Menus.Letra,0,18,1,1);} 
07CE2:  MOVLW  07
07CE4:  MOVWF  xAD
07CE6:  MOVLW  89
07CE8:  MOVWF  xAC
07CEA:  CLRF   xAE
07CEC:  MOVLW  12
07CEE:  MOVWF  xAF
07CF0:  MOVLW  01
07CF2:  MOVWF  xB0
07CF4:  MOVWF  xB1
07CF6:  MOVLB  0
07CF8:  CALL   1BAE
....................          else 
07CFC:  BRA    7D42
07CFE:  MOVLB  5
....................             {strcpy(Menus.Letra,"Programa 01"); 
07D00:  MOVLW  07
07D02:  MOVWF  FEA
07D04:  MOVLW  89
07D06:  MOVWF  FE9
07D08:  MOVFF  FF2,7A9
07D0C:  BCF    FF2.7
07D0E:  MOVLW  00
07D10:  MOVLB  0
07D12:  CALL   0A1E
07D16:  TBLRD*-
07D18:  TBLRD*+
07D1A:  MOVF   FF5,W
07D1C:  MOVWF  FEE
07D1E:  IORLW  00
07D20:  BNZ   7D18
07D22:  MOVLB  7
07D24:  BTFSC  xA9.7
07D26:  BSF    FF2.7
....................             displayMenu(Menus.Letra,0,18,0,1);} 
07D28:  MOVLW  07
07D2A:  MOVWF  xAD
07D2C:  MOVLW  89
07D2E:  MOVWF  xAC
07D30:  CLRF   xAE
07D32:  MOVLW  12
07D34:  MOVWF  xAF
07D36:  CLRF   xB0
07D38:  MOVLW  01
07D3A:  MOVWF  xB1
07D3C:  MOVLB  0
07D3E:  CALL   1BAE
....................           
....................          if(Opcion==2)    
07D42:  MOVLB  5
07D44:  MOVF   xA1,W
07D46:  SUBLW  02
07D48:  BNZ   7D90
....................             {strcpy(Menus.Letra,"Programa 02"); 
07D4A:  MOVLW  07
07D4C:  MOVWF  FEA
07D4E:  MOVLW  89
07D50:  MOVWF  FE9
07D52:  MOVFF  FF2,7A9
07D56:  BCF    FF2.7
07D58:  MOVLW  00
07D5A:  MOVLB  0
07D5C:  CALL   0A48
07D60:  TBLRD*-
07D62:  TBLRD*+
07D64:  MOVF   FF5,W
07D66:  MOVWF  FEE
07D68:  IORLW  00
07D6A:  BNZ   7D62
07D6C:  MOVLB  7
07D6E:  BTFSC  xA9.7
07D70:  BSF    FF2.7
....................             displayMenu(Menus.Letra,0,27,1,1);} 
07D72:  MOVLW  07
07D74:  MOVWF  xAD
07D76:  MOVLW  89
07D78:  MOVWF  xAC
07D7A:  CLRF   xAE
07D7C:  MOVLW  1B
07D7E:  MOVWF  xAF
07D80:  MOVLW  01
07D82:  MOVWF  xB0
07D84:  MOVWF  xB1
07D86:  MOVLB  0
07D88:  CALL   1BAE
....................          else 
07D8C:  BRA    7DD2
07D8E:  MOVLB  5
....................             {strcpy(Menus.Letra,"Programa 02"); 
07D90:  MOVLW  07
07D92:  MOVWF  FEA
07D94:  MOVLW  89
07D96:  MOVWF  FE9
07D98:  MOVFF  FF2,7A9
07D9C:  BCF    FF2.7
07D9E:  MOVLW  00
07DA0:  MOVLB  0
07DA2:  CALL   0A48
07DA6:  TBLRD*-
07DA8:  TBLRD*+
07DAA:  MOVF   FF5,W
07DAC:  MOVWF  FEE
07DAE:  IORLW  00
07DB0:  BNZ   7DA8
07DB2:  MOVLB  7
07DB4:  BTFSC  xA9.7
07DB6:  BSF    FF2.7
....................             displayMenu(Menus.Letra,0,27,0,1);} 
07DB8:  MOVLW  07
07DBA:  MOVWF  xAD
07DBC:  MOVLW  89
07DBE:  MOVWF  xAC
07DC0:  CLRF   xAE
07DC2:  MOVLW  1B
07DC4:  MOVWF  xAF
07DC6:  CLRF   xB0
07DC8:  MOVLW  01
07DCA:  MOVWF  xB1
07DCC:  MOVLB  0
07DCE:  CALL   1BAE
....................              
....................          if(Opcion==3)    
07DD2:  MOVLB  5
07DD4:  MOVF   xA1,W
07DD6:  SUBLW  03
07DD8:  BNZ   7E20
....................             {strcpy(Menus.Letra,"Programa 03"); 
07DDA:  MOVLW  07
07DDC:  MOVWF  FEA
07DDE:  MOVLW  89
07DE0:  MOVWF  FE9
07DE2:  MOVFF  FF2,7A9
07DE6:  BCF    FF2.7
07DE8:  MOVLW  00
07DEA:  MOVLB  0
07DEC:  CALL   0A72
07DF0:  TBLRD*-
07DF2:  TBLRD*+
07DF4:  MOVF   FF5,W
07DF6:  MOVWF  FEE
07DF8:  IORLW  00
07DFA:  BNZ   7DF2
07DFC:  MOVLB  7
07DFE:  BTFSC  xA9.7
07E00:  BSF    FF2.7
....................             displayMenu(Menus.Letra,0,36,1,1);} 
07E02:  MOVLW  07
07E04:  MOVWF  xAD
07E06:  MOVLW  89
07E08:  MOVWF  xAC
07E0A:  CLRF   xAE
07E0C:  MOVLW  24
07E0E:  MOVWF  xAF
07E10:  MOVLW  01
07E12:  MOVWF  xB0
07E14:  MOVWF  xB1
07E16:  MOVLB  0
07E18:  CALL   1BAE
....................          else 
07E1C:  BRA    7E62
07E1E:  MOVLB  5
....................             {strcpy(Menus.Letra,"Programa 03"); 
07E20:  MOVLW  07
07E22:  MOVWF  FEA
07E24:  MOVLW  89
07E26:  MOVWF  FE9
07E28:  MOVFF  FF2,7A9
07E2C:  BCF    FF2.7
07E2E:  MOVLW  00
07E30:  MOVLB  0
07E32:  CALL   0A72
07E36:  TBLRD*-
07E38:  TBLRD*+
07E3A:  MOVF   FF5,W
07E3C:  MOVWF  FEE
07E3E:  IORLW  00
07E40:  BNZ   7E38
07E42:  MOVLB  7
07E44:  BTFSC  xA9.7
07E46:  BSF    FF2.7
....................             displayMenu(Menus.Letra,0,36,0,1);}    
07E48:  MOVLW  07
07E4A:  MOVWF  xAD
07E4C:  MOVLW  89
07E4E:  MOVWF  xAC
07E50:  CLRF   xAE
07E52:  MOVLW  24
07E54:  MOVWF  xAF
07E56:  CLRF   xB0
07E58:  MOVLW  01
07E5A:  MOVWF  xB1
07E5C:  MOVLB  0
07E5E:  CALL   1BAE
....................                          
....................          if(Opcion==4)    
07E62:  MOVLB  5
07E64:  MOVF   xA1,W
07E66:  SUBLW  04
07E68:  BNZ   7EB0
....................             {strcpy(Menus.Letra,"Programa 04"); 
07E6A:  MOVLW  07
07E6C:  MOVWF  FEA
07E6E:  MOVLW  89
07E70:  MOVWF  FE9
07E72:  MOVFF  FF2,7A9
07E76:  BCF    FF2.7
07E78:  MOVLW  00
07E7A:  MOVLB  0
07E7C:  CALL   0A9C
07E80:  TBLRD*-
07E82:  TBLRD*+
07E84:  MOVF   FF5,W
07E86:  MOVWF  FEE
07E88:  IORLW  00
07E8A:  BNZ   7E82
07E8C:  MOVLB  7
07E8E:  BTFSC  xA9.7
07E90:  BSF    FF2.7
....................             displayMenu(Menus.Letra,0,45,1,1);} 
07E92:  MOVLW  07
07E94:  MOVWF  xAD
07E96:  MOVLW  89
07E98:  MOVWF  xAC
07E9A:  CLRF   xAE
07E9C:  MOVLW  2D
07E9E:  MOVWF  xAF
07EA0:  MOVLW  01
07EA2:  MOVWF  xB0
07EA4:  MOVWF  xB1
07EA6:  MOVLB  0
07EA8:  CALL   1BAE
....................          else 
07EAC:  BRA    7EF2
07EAE:  MOVLB  5
....................             {strcpy(Menus.Letra,"Programa 04"); 
07EB0:  MOVLW  07
07EB2:  MOVWF  FEA
07EB4:  MOVLW  89
07EB6:  MOVWF  FE9
07EB8:  MOVFF  FF2,7A9
07EBC:  BCF    FF2.7
07EBE:  MOVLW  00
07EC0:  MOVLB  0
07EC2:  CALL   0A9C
07EC6:  TBLRD*-
07EC8:  TBLRD*+
07ECA:  MOVF   FF5,W
07ECC:  MOVWF  FEE
07ECE:  IORLW  00
07ED0:  BNZ   7EC8
07ED2:  MOVLB  7
07ED4:  BTFSC  xA9.7
07ED6:  BSF    FF2.7
....................             displayMenu(Menus.Letra,0,45,0,1);}      
07ED8:  MOVLW  07
07EDA:  MOVWF  xAD
07EDC:  MOVLW  89
07EDE:  MOVWF  xAC
07EE0:  CLRF   xAE
07EE2:  MOVLW  2D
07EE4:  MOVWF  xAF
07EE6:  CLRF   xB0
07EE8:  MOVLW  01
07EEA:  MOVWF  xB1
07EEC:  MOVLB  0
07EEE:  CALL   1BAE
....................           
....................          if(Opcion==5)    
07EF2:  MOVLB  5
07EF4:  MOVF   xA1,W
07EF6:  SUBLW  05
07EF8:  BNZ   7F40
....................             {strcpy(Menus.Letra,"Programa 05"); 
07EFA:  MOVLW  07
07EFC:  MOVWF  FEA
07EFE:  MOVLW  89
07F00:  MOVWF  FE9
07F02:  MOVFF  FF2,7A9
07F06:  BCF    FF2.7
07F08:  MOVLW  00
07F0A:  MOVLB  0
07F0C:  CALL   0AC6
07F10:  TBLRD*-
07F12:  TBLRD*+
07F14:  MOVF   FF5,W
07F16:  MOVWF  FEE
07F18:  IORLW  00
07F1A:  BNZ   7F12
07F1C:  MOVLB  7
07F1E:  BTFSC  xA9.7
07F20:  BSF    FF2.7
....................             displayMenu(Menus.Letra,0,54,1,1);} 
07F22:  MOVLW  07
07F24:  MOVWF  xAD
07F26:  MOVLW  89
07F28:  MOVWF  xAC
07F2A:  CLRF   xAE
07F2C:  MOVLW  36
07F2E:  MOVWF  xAF
07F30:  MOVLW  01
07F32:  MOVWF  xB0
07F34:  MOVWF  xB1
07F36:  MOVLB  0
07F38:  CALL   1BAE
....................          else 
07F3C:  BRA    7F82
07F3E:  MOVLB  5
....................             {strcpy(Menus.Letra,"Programa 05"); 
07F40:  MOVLW  07
07F42:  MOVWF  FEA
07F44:  MOVLW  89
07F46:  MOVWF  FE9
07F48:  MOVFF  FF2,7A9
07F4C:  BCF    FF2.7
07F4E:  MOVLW  00
07F50:  MOVLB  0
07F52:  CALL   0AC6
07F56:  TBLRD*-
07F58:  TBLRD*+
07F5A:  MOVF   FF5,W
07F5C:  MOVWF  FEE
07F5E:  IORLW  00
07F60:  BNZ   7F58
07F62:  MOVLB  7
07F64:  BTFSC  xA9.7
07F66:  BSF    FF2.7
....................             displayMenu(Menus.Letra,0,54,0,1);}      
07F68:  MOVLW  07
07F6A:  MOVWF  xAD
07F6C:  MOVLW  89
07F6E:  MOVWF  xAC
07F70:  CLRF   xAE
07F72:  MOVLW  36
07F74:  MOVWF  xAF
07F76:  CLRF   xB0
07F78:  MOVLW  01
07F7A:  MOVWF  xB1
07F7C:  MOVLB  0
07F7E:  CALL   1BAE
....................           
....................          if(UP)//Si oprime hacia arriba 
07F82:  BSF    F92.5
07F84:  BTFSC  F80.5
07F86:  BRA    7FA2
....................          { 
....................             Buzz_on;delay_ms(30);Opcion--;Buzz_off; 
07F88:  BSF    F8B.7
07F8A:  BCF    F94.7
07F8C:  MOVLW  1E
07F8E:  MOVLB  7
07F90:  MOVWF  xAF
07F92:  MOVLB  0
07F94:  CALL   1500
07F98:  MOVLB  5
07F9A:  DECF   xA1,F
07F9C:  BCF    F8B.7
07F9E:  BCF    F94.7
07FA0:  MOVLB  0
....................          } 
....................                    
....................          if(DOWN)//Si oprime hacia abajo 
07FA2:  BSF    F96.0
07FA4:  BTFSC  F84.0
07FA6:  BRA    7FC2
....................          { 
....................             Buzz_on;delay_ms(30);Opcion++; Buzz_off; 
07FA8:  BSF    F8B.7
07FAA:  BCF    F94.7
07FAC:  MOVLW  1E
07FAE:  MOVLB  7
07FB0:  MOVWF  xAF
07FB2:  MOVLB  0
07FB4:  CALL   1500
07FB8:  MOVLB  5
07FBA:  INCF   xA1,F
07FBC:  BCF    F8B.7
07FBE:  BCF    F94.7
07FC0:  MOVLB  0
....................          } 
....................                 
....................          if(RIGHT)//Si oprime SET 
07FC2:  BSF    F96.1
07FC4:  BTFSC  F84.1
07FC6:  BRA    7FF8
....................          {  
....................             Buzz_on;delay_ms(50);Menu=Opcion+10;Opcion=1;glcd_fillscreen(OFF);Buzz_off;i=0; 
07FC8:  BSF    F8B.7
07FCA:  BCF    F94.7
07FCC:  MOVLW  32
07FCE:  MOVLB  7
07FD0:  MOVWF  xAF
07FD2:  MOVLB  0
07FD4:  CALL   1500
07FD8:  MOVLW  0A
07FDA:  MOVLB  5
07FDC:  ADDWF  xA1,W
07FDE:  MOVWF  x9A
07FE0:  MOVLW  01
07FE2:  MOVWF  xA1
07FE4:  MOVLB  7
07FE6:  CLRF   xAA
07FE8:  MOVLB  0
07FEA:  CALL   1580
07FEE:  BCF    F8B.7
07FF0:  BCF    F94.7
07FF2:  MOVLB  5
07FF4:  CLRF   x9C
07FF6:  MOVLB  0
....................          } 
....................           
....................          if(LEFT){ 
07FF8:  BSF    F96.2
07FFA:  BTFSC  F84.2
07FFC:  BRA    8024
....................             Buzz_on;delay_ms(50);Menu=1;Opcion=1;glcd_fillscreen(OFF);Buzz_off; 
07FFE:  BSF    F8B.7
08000:  BCF    F94.7
08002:  MOVLW  32
08004:  MOVLB  7
08006:  MOVWF  xAF
08008:  MOVLB  0
0800A:  CALL   1500
0800E:  MOVLW  01
08010:  MOVLB  5
08012:  MOVWF  x9A
08014:  MOVWF  xA1
08016:  MOVLB  7
08018:  CLRF   xAA
0801A:  MOVLB  0
0801C:  CALL   1580
08020:  BCF    F8B.7
08022:  BCF    F94.7
08024:  MOVLB  5
....................          } 
....................    } 
.................... //_--------------------------------------------------------------------------------------------------------------------------------------------------------        
....................  
.................... //_-------------------------------------------------------------------------------------------------------------------------------------------------------- 
....................       if(Menu==6){ //Menu de Borrar Programa 
08026:  MOVF   x9A,W
08028:  SUBLW  06
0802A:  BTFSS  FD8.2
0802C:  BRA    8592
....................        
....................       if(Opcion>5) 
0802E:  MOVF   xA1,W
08030:  SUBLW  05
08032:  BC    8038
....................          Opcion=1; 
08034:  MOVLW  01
08036:  MOVWF  xA1
....................           
....................       if(Opcion<1) 
08038:  MOVF   xA1,F
0803A:  BNZ   8040
....................          Opcion=5; 
0803C:  MOVLW  05
0803E:  MOVWF  xA1
....................        
....................          strcpy(Menus.Letra,"  Elimine"); 
08040:  MOVLW  07
08042:  MOVWF  FEA
08044:  MOVLW  89
08046:  MOVWF  FE9
08048:  MOVFF  FF2,7A9
0804C:  BCF    FF2.7
0804E:  MOVLW  00
08050:  MOVLB  0
08052:  CALL   0B94
08056:  TBLRD*-
08058:  TBLRD*+
0805A:  MOVF   FF5,W
0805C:  MOVWF  FEE
0805E:  IORLW  00
08060:  BNZ   8058
08062:  MOVLB  7
08064:  BTFSC  xA9.7
08066:  BSF    FF2.7
....................          displayMenu(Menus.Letra,0,0,1,2); 
08068:  MOVLW  07
0806A:  MOVWF  xAD
0806C:  MOVLW  89
0806E:  MOVWF  xAC
08070:  CLRF   xAE
08072:  CLRF   xAF
08074:  MOVLW  01
08076:  MOVWF  xB0
08078:  MOVLW  02
0807A:  MOVWF  xB1
0807C:  MOVLB  0
0807E:  CALL   1BAE
....................           
....................          strcpy(Menus.Letra," Programa"); 
08082:  MOVLW  07
08084:  MOVWF  FEA
08086:  MOVLW  89
08088:  MOVWF  FE9
0808A:  MOVFF  FF2,7A9
0808E:  BCF    FF2.7
08090:  MOVLW  00
08092:  CALL   09F6
08096:  TBLRD*-
08098:  TBLRD*+
0809A:  MOVF   FF5,W
0809C:  MOVWF  FEE
0809E:  IORLW  00
080A0:  BNZ   8098
080A2:  MOVLB  7
080A4:  BTFSC  xA9.7
080A6:  BSF    FF2.7
....................          displayMenu(Menus.Letra,0,16,1,2); 
080A8:  MOVLW  07
080AA:  MOVWF  xAD
080AC:  MOVLW  89
080AE:  MOVWF  xAC
080B0:  CLRF   xAE
080B2:  MOVLW  10
080B4:  MOVWF  xAF
080B6:  MOVLW  01
080B8:  MOVWF  xB0
080BA:  MOVLW  02
080BC:  MOVWF  xB1
080BE:  MOVLB  0
080C0:  CALL   1BAE
....................            
....................           
....................          if(Opcion==1) 
080C4:  MOVLB  5
080C6:  DECFSZ xA1,W
080C8:  BRA    810E
....................          { 
....................             strcpy(Menus.Letra,"Programa 01"); 
080CA:  MOVLW  07
080CC:  MOVWF  FEA
080CE:  MOVLW  89
080D0:  MOVWF  FE9
080D2:  MOVFF  FF2,7A9
080D6:  BCF    FF2.7
080D8:  MOVLW  00
080DA:  MOVLB  0
080DC:  CALL   0A1E
080E0:  TBLRD*-
080E2:  TBLRD*+
080E4:  MOVF   FF5,W
080E6:  MOVWF  FEE
080E8:  IORLW  00
080EA:  BNZ   80E2
080EC:  MOVLB  7
080EE:  BTFSC  xA9.7
080F0:  BSF    FF2.7
....................             displayMenu(Menus.Letra,0,38,0,2); 
080F2:  MOVLW  07
080F4:  MOVWF  xAD
080F6:  MOVLW  89
080F8:  MOVWF  xAC
080FA:  CLRF   xAE
080FC:  MOVLW  26
080FE:  MOVWF  xAF
08100:  CLRF   xB0
08102:  MOVLW  02
08104:  MOVWF  xB1
08106:  MOVLB  0
08108:  CALL   1BAE
0810C:  MOVLB  5
....................          } 
....................           
....................          if(Opcion==2) 
0810E:  MOVF   xA1,W
08110:  SUBLW  02
08112:  BNZ   8158
....................          { 
....................             strcpy(Menus.Letra,"Programa 02"); 
08114:  MOVLW  07
08116:  MOVWF  FEA
08118:  MOVLW  89
0811A:  MOVWF  FE9
0811C:  MOVFF  FF2,7A9
08120:  BCF    FF2.7
08122:  MOVLW  00
08124:  MOVLB  0
08126:  CALL   0A48
0812A:  TBLRD*-
0812C:  TBLRD*+
0812E:  MOVF   FF5,W
08130:  MOVWF  FEE
08132:  IORLW  00
08134:  BNZ   812C
08136:  MOVLB  7
08138:  BTFSC  xA9.7
0813A:  BSF    FF2.7
....................             displayMenu(Menus.Letra,0,38,0,2); 
0813C:  MOVLW  07
0813E:  MOVWF  xAD
08140:  MOVLW  89
08142:  MOVWF  xAC
08144:  CLRF   xAE
08146:  MOVLW  26
08148:  MOVWF  xAF
0814A:  CLRF   xB0
0814C:  MOVLW  02
0814E:  MOVWF  xB1
08150:  MOVLB  0
08152:  CALL   1BAE
08156:  MOVLB  5
....................          } 
....................           
....................          if(Opcion==3) 
08158:  MOVF   xA1,W
0815A:  SUBLW  03
0815C:  BNZ   81A2
....................          { 
....................             strcpy(Menus.Letra,"Programa 03"); 
0815E:  MOVLW  07
08160:  MOVWF  FEA
08162:  MOVLW  89
08164:  MOVWF  FE9
08166:  MOVFF  FF2,7A9
0816A:  BCF    FF2.7
0816C:  MOVLW  00
0816E:  MOVLB  0
08170:  CALL   0A72
08174:  TBLRD*-
08176:  TBLRD*+
08178:  MOVF   FF5,W
0817A:  MOVWF  FEE
0817C:  IORLW  00
0817E:  BNZ   8176
08180:  MOVLB  7
08182:  BTFSC  xA9.7
08184:  BSF    FF2.7
....................             displayMenu(Menus.Letra,0,38,0,2); 
08186:  MOVLW  07
08188:  MOVWF  xAD
0818A:  MOVLW  89
0818C:  MOVWF  xAC
0818E:  CLRF   xAE
08190:  MOVLW  26
08192:  MOVWF  xAF
08194:  CLRF   xB0
08196:  MOVLW  02
08198:  MOVWF  xB1
0819A:  MOVLB  0
0819C:  CALL   1BAE
081A0:  MOVLB  5
....................          } 
....................           
....................          if(Opcion==4) 
081A2:  MOVF   xA1,W
081A4:  SUBLW  04
081A6:  BNZ   81EC
....................          { 
....................             strcpy(Menus.Letra,"Programa 04"); 
081A8:  MOVLW  07
081AA:  MOVWF  FEA
081AC:  MOVLW  89
081AE:  MOVWF  FE9
081B0:  MOVFF  FF2,7A9
081B4:  BCF    FF2.7
081B6:  MOVLW  00
081B8:  MOVLB  0
081BA:  CALL   0A9C
081BE:  TBLRD*-
081C0:  TBLRD*+
081C2:  MOVF   FF5,W
081C4:  MOVWF  FEE
081C6:  IORLW  00
081C8:  BNZ   81C0
081CA:  MOVLB  7
081CC:  BTFSC  xA9.7
081CE:  BSF    FF2.7
....................             displayMenu(Menus.Letra,0,38,0,2); 
081D0:  MOVLW  07
081D2:  MOVWF  xAD
081D4:  MOVLW  89
081D6:  MOVWF  xAC
081D8:  CLRF   xAE
081DA:  MOVLW  26
081DC:  MOVWF  xAF
081DE:  CLRF   xB0
081E0:  MOVLW  02
081E2:  MOVWF  xB1
081E4:  MOVLB  0
081E6:  CALL   1BAE
081EA:  MOVLB  5
....................          } 
....................           
....................          if(Opcion==5) 
081EC:  MOVF   xA1,W
081EE:  SUBLW  05
081F0:  BNZ   8236
....................          { 
....................             strcpy(Menus.Letra,"Programa 05"); 
081F2:  MOVLW  07
081F4:  MOVWF  FEA
081F6:  MOVLW  89
081F8:  MOVWF  FE9
081FA:  MOVFF  FF2,7A9
081FE:  BCF    FF2.7
08200:  MOVLW  00
08202:  MOVLB  0
08204:  CALL   0AC6
08208:  TBLRD*-
0820A:  TBLRD*+
0820C:  MOVF   FF5,W
0820E:  MOVWF  FEE
08210:  IORLW  00
08212:  BNZ   820A
08214:  MOVLB  7
08216:  BTFSC  xA9.7
08218:  BSF    FF2.7
....................             displayMenu(Menus.Letra,0,38,0,2); 
0821A:  MOVLW  07
0821C:  MOVWF  xAD
0821E:  MOVLW  89
08220:  MOVWF  xAC
08222:  CLRF   xAE
08224:  MOVLW  26
08226:  MOVWF  xAF
08228:  CLRF   xB0
0822A:  MOVLW  02
0822C:  MOVWF  xB1
0822E:  MOVLB  0
08230:  CALL   1BAE
08234:  MOVLB  5
....................          } 
....................           
....................          
....................       if(UP)//Si oprime hacia arriba 
08236:  BSF    F92.5
08238:  BTFSC  F80.5
0823A:  BRA    8274
....................       { 
....................          Buzz_on;delay_ms(30);Opcion++;Buzz_off; 
0823C:  BSF    F8B.7
0823E:  BCF    F94.7
08240:  MOVLW  1E
08242:  MOVLB  7
08244:  MOVWF  xAF
08246:  MOVLB  0
08248:  CALL   1500
0824C:  MOVLB  5
0824E:  INCF   xA1,F
08250:  BCF    F8B.7
08252:  BCF    F94.7
....................          glcd_rect(40, 35, 85, 60, YES, OFF); 
08254:  MOVLW  28
08256:  MOVLB  7
08258:  MOVWF  xC1
0825A:  MOVLW  23
0825C:  MOVWF  xC2
0825E:  MOVLW  55
08260:  MOVWF  xC3
08262:  MOVLW  3C
08264:  MOVWF  xC4
08266:  MOVLW  01
08268:  MOVWF  xC5
0826A:  CLRF   xC6
0826C:  MOVLB  0
0826E:  CALL   1AEC
08272:  MOVLB  5
....................       } 
....................              
....................       if(DOWN)//Si oprime hacia abajo 
08274:  BSF    F96.0
08276:  BTFSC  F84.0
08278:  BRA    82B2
....................       {   
....................          Buzz_on;delay_ms(30);Opcion--;Buzz_off; 
0827A:  BSF    F8B.7
0827C:  BCF    F94.7
0827E:  MOVLW  1E
08280:  MOVLB  7
08282:  MOVWF  xAF
08284:  MOVLB  0
08286:  CALL   1500
0828A:  MOVLB  5
0828C:  DECF   xA1,F
0828E:  BCF    F8B.7
08290:  BCF    F94.7
....................          glcd_rect(40, 35, 85, 60, YES, OFF); 
08292:  MOVLW  28
08294:  MOVLB  7
08296:  MOVWF  xC1
08298:  MOVLW  23
0829A:  MOVWF  xC2
0829C:  MOVLW  55
0829E:  MOVWF  xC3
082A0:  MOVLW  3C
082A2:  MOVWF  xC4
082A4:  MOVLW  01
082A6:  MOVWF  xC5
082A8:  CLRF   xC6
082AA:  MOVLB  0
082AC:  CALL   1AEC
082B0:  MOVLB  5
....................       } 
....................              
....................       if(RIGHT)//Si oprime SET 
082B2:  BSF    F96.1
082B4:  BTFSC  F84.1
082B6:  BRA    8552
....................       {   
....................          Buzz_on; 
082B8:  BSF    F8B.7
082BA:  BCF    F94.7
....................          for(i=0;i<10;i++){ 
082BC:  CLRF   x9C
082BE:  MOVF   x9C,W
082C0:  SUBLW  09
082C2:  BNC   8334
....................             Temperatura1[i+((Opcion-1)*10)]=0; 
082C4:  MOVLW  01
082C6:  SUBWF  xA1,W
082C8:  MULLW  0A
082CA:  MOVF   FF3,W
082CC:  ADDWF  x9C,W
082CE:  MOVWF  00
082D0:  BCF    FD8.0
082D2:  RLCF   00,F
082D4:  MOVF   00,W
082D6:  CLRF   03
082D8:  ADDLW  5D
082DA:  MOVWF  FE9
082DC:  MOVLW  06
082DE:  ADDWFC 03,W
082E0:  MOVWF  FEA
082E2:  CLRF   FEC
082E4:  MOVF   FED,F
082E6:  CLRF   FEF
....................             Horas1[i+((Opcion-1)*10)]=0; 
082E8:  MOVLW  01
082EA:  SUBWF  xA1,W
082EC:  MULLW  0A
082EE:  MOVF   FF3,W
082F0:  ADDWF  x9C,W
082F2:  MOVWF  00
082F4:  BCF    FD8.0
082F6:  RLCF   00,F
082F8:  MOVF   00,W
082FA:  CLRF   03
082FC:  ADDLW  C1
082FE:  MOVWF  FE9
08300:  MOVLW  06
08302:  ADDWFC 03,W
08304:  MOVWF  FEA
08306:  CLRF   FEC
08308:  MOVF   FED,F
0830A:  CLRF   FEF
....................             Minutos1[i+((Opcion-1)*10)]=0; 
0830C:  MOVLW  01
0830E:  SUBWF  xA1,W
08310:  MULLW  0A
08312:  MOVF   FF3,W
08314:  ADDWF  x9C,W
08316:  MOVWF  00
08318:  BCF    FD8.0
0831A:  RLCF   00,F
0831C:  MOVF   00,W
0831E:  CLRF   03
08320:  ADDLW  25
08322:  MOVWF  FE9
08324:  MOVLW  07
08326:  ADDWFC 03,W
08328:  MOVWF  FEA
0832A:  CLRF   FEC
0832C:  MOVF   FED,F
0832E:  CLRF   FEF
....................          } 
08330:  INCF   x9C,F
08332:  BRA    82BE
....................           
....................          for(i=0;i<10;i++){ 
08334:  CLRF   x9C
08336:  MOVF   x9C,W
08338:  SUBLW  09
0833A:  BTFSS  FD8.0
0833C:  BRA    846E
....................             delay_ms(10);     
0833E:  MOVLW  0A
08340:  MOVLB  7
08342:  MOVWF  xAF
08344:  MOVLB  0
08346:  CALL   1500
....................             write_eeprom((i*2)+(40*(Opcion-1)),0); 
0834A:  BCF    FD8.0
0834C:  MOVLB  5
0834E:  RLCF   x9C,W
08350:  MOVLB  7
08352:  MOVWF  xA9
08354:  MOVLW  01
08356:  MOVLB  5
08358:  SUBWF  xA1,W
0835A:  MULLW  28
0835C:  MOVF   FF3,W
0835E:  MOVLB  7
08360:  ADDWF  xA9,F
08362:  CLRF   FAA
08364:  MOVFF  7A9,FA9
08368:  CLRF   FA8
0836A:  BCF    FA6.6
0836C:  BCF    FA6.7
0836E:  BSF    FA6.2
08370:  MOVF   FF2,W
08372:  MOVWF  00
08374:  BCF    FF2.7
08376:  MOVLB  F
08378:  MOVLW  55
0837A:  MOVWF  FA7
0837C:  MOVLW  AA
0837E:  MOVWF  FA7
08380:  BSF    FA6.1
08382:  BTFSC  FA6.1
08384:  BRA    8382
08386:  BCF    FA6.2
08388:  MOVF   00,W
0838A:  IORWF  FF2,F
....................             delay_ms(10);     
0838C:  MOVLW  0A
0838E:  MOVLB  7
08390:  MOVWF  xAF
08392:  MOVLB  0
08394:  CALL   1500
....................             write_eeprom((i*2)+1+(40*(Opcion-1)),0); 
08398:  BCF    FD8.0
0839A:  MOVLB  5
0839C:  RLCF   x9C,W
0839E:  ADDLW  01
083A0:  MOVLB  7
083A2:  MOVWF  xA9
083A4:  MOVLW  01
083A6:  MOVLB  5
083A8:  SUBWF  xA1,W
083AA:  MULLW  28
083AC:  MOVF   FF3,W
083AE:  MOVLB  7
083B0:  ADDWF  xA9,F
083B2:  CLRF   FAA
083B4:  MOVFF  7A9,FA9
083B8:  CLRF   FA8
083BA:  BCF    FA6.6
083BC:  BCF    FA6.7
083BE:  BSF    FA6.2
083C0:  MOVF   FF2,W
083C2:  MOVWF  00
083C4:  BCF    FF2.7
083C6:  MOVLB  F
083C8:  MOVLW  55
083CA:  MOVWF  FA7
083CC:  MOVLW  AA
083CE:  MOVWF  FA7
083D0:  BSF    FA6.1
083D2:  BTFSC  FA6.1
083D4:  BRA    83D2
083D6:  BCF    FA6.2
083D8:  MOVF   00,W
083DA:  IORWF  FF2,F
....................             delay_ms(10);     
083DC:  MOVLW  0A
083DE:  MOVLB  7
083E0:  MOVWF  xAF
083E2:  MOVLB  0
083E4:  CALL   1500
....................             write_eeprom(i+((40*Opcion)-20),0); 
083E8:  MOVLB  5
083EA:  MOVF   xA1,W
083EC:  MULLW  28
083EE:  MOVF   FF3,W
083F0:  ADDLW  EC
083F2:  ADDWF  x9C,W
083F4:  MOVLB  7
083F6:  MOVWF  xA9
083F8:  CLRF   FAA
083FA:  MOVFF  7A9,FA9
083FE:  CLRF   FA8
08400:  BCF    FA6.6
08402:  BCF    FA6.7
08404:  BSF    FA6.2
08406:  MOVF   FF2,W
08408:  MOVWF  00
0840A:  BCF    FF2.7
0840C:  MOVLB  F
0840E:  MOVLW  55
08410:  MOVWF  FA7
08412:  MOVLW  AA
08414:  MOVWF  FA7
08416:  BSF    FA6.1
08418:  BTFSC  FA6.1
0841A:  BRA    8418
0841C:  BCF    FA6.2
0841E:  MOVF   00,W
08420:  IORWF  FF2,F
....................             delay_ms(10);     
08422:  MOVLW  0A
08424:  MOVLB  7
08426:  MOVWF  xAF
08428:  MOVLB  0
0842A:  CALL   1500
....................             write_eeprom(i+((40*Opcion)-10),0); 
0842E:  MOVLB  5
08430:  MOVF   xA1,W
08432:  MULLW  28
08434:  MOVF   FF3,W
08436:  ADDLW  F6
08438:  ADDWF  x9C,W
0843A:  MOVLB  7
0843C:  MOVWF  xA9
0843E:  CLRF   FAA
08440:  MOVFF  7A9,FA9
08444:  CLRF   FA8
08446:  BCF    FA6.6
08448:  BCF    FA6.7
0844A:  BSF    FA6.2
0844C:  MOVF   FF2,W
0844E:  MOVWF  00
08450:  BCF    FF2.7
08452:  MOVLB  F
08454:  MOVLW  55
08456:  MOVWF  FA7
08458:  MOVLW  AA
0845A:  MOVWF  FA7
0845C:  BSF    FA6.1
0845E:  BTFSC  FA6.1
08460:  BRA    845E
08462:  BCF    FA6.2
08464:  MOVF   00,W
08466:  IORWF  FF2,F
....................          }  
08468:  MOVLB  5
0846A:  INCF   x9C,F
0846C:  BRA    8336
....................           
....................          delay_ms(200);Buzz_off;Menu=1;glcd_fillscreen(OFF);Opcion=1;visual=1; 
0846E:  MOVLW  C8
08470:  MOVLB  7
08472:  MOVWF  xAF
08474:  MOVLB  0
08476:  CALL   1500
0847A:  BCF    F8B.7
0847C:  BCF    F94.7
0847E:  MOVLW  01
08480:  MOVLB  5
08482:  MOVWF  x9A
08484:  MOVLB  7
08486:  CLRF   xAA
08488:  MOVLB  0
0848A:  CALL   1580
0848E:  MOVLW  01
08490:  MOVLB  5
08492:  MOVWF  xA1
08494:  BSF    x87.6
....................          glcd_fillScreen(OFF); 
08496:  MOVLB  7
08498:  CLRF   xAA
0849A:  MOVLB  0
0849C:  CALL   1580
....................          strcpy(Menus.Letra,"Programa"); 
084A0:  MOVLW  07
084A2:  MOVWF  FEA
084A4:  MOVLW  89
084A6:  MOVWF  FE9
084A8:  MOVFF  FF2,7A9
084AC:  BCF    FF2.7
084AE:  MOVLW  00
084B0:  CALL   0BBC
084B4:  TBLRD*-
084B6:  TBLRD*+
084B8:  MOVF   FF5,W
084BA:  MOVWF  FEE
084BC:  IORLW  00
084BE:  BNZ   84B6
084C0:  MOVLB  7
084C2:  BTFSC  xA9.7
084C4:  BSF    FF2.7
....................          displayMenu(Menus.Letra,30,0,0,2); 
084C6:  MOVLW  07
084C8:  MOVWF  xAD
084CA:  MOVLW  89
084CC:  MOVWF  xAC
084CE:  MOVLW  1E
084D0:  MOVWF  xAE
084D2:  CLRF   xAF
084D4:  CLRF   xB0
084D6:  MOVLW  02
084D8:  MOVWF  xB1
084DA:  MOVLB  0
084DC:  CALL   1BAE
....................          strcpy(Menus.Letra,"Eliminado"); 
084E0:  MOVLW  07
084E2:  MOVWF  FEA
084E4:  MOVLW  89
084E6:  MOVWF  FE9
084E8:  MOVFF  FF2,7A9
084EC:  BCF    FF2.7
084EE:  MOVLW  00
084F0:  CALL   0BE4
084F4:  TBLRD*-
084F6:  TBLRD*+
084F8:  MOVF   FF5,W
084FA:  MOVWF  FEE
084FC:  IORLW  00
084FE:  BNZ   84F6
08500:  MOVLB  7
08502:  BTFSC  xA9.7
08504:  BSF    FF2.7
....................          displayMenu(Menus.Letra,15,30,0,2); 
08506:  MOVLW  07
08508:  MOVWF  xAD
0850A:  MOVLW  89
0850C:  MOVWF  xAC
0850E:  MOVLW  0F
08510:  MOVWF  xAE
08512:  MOVLW  1E
08514:  MOVWF  xAF
08516:  CLRF   xB0
08518:  MOVLW  02
0851A:  MOVWF  xB1
0851C:  MOVLB  0
0851E:  CALL   1BAE
....................          Menu=1;glcd_update();delay_ms(1000); 
08522:  MOVLW  01
08524:  MOVLB  5
08526:  MOVWF  x9A
08528:  MOVLB  0
0852A:  CALL   15DA
0852E:  MOVLW  04
08530:  MOVLB  7
08532:  MOVWF  xA9
08534:  MOVLW  FA
08536:  MOVWF  xAF
08538:  MOVLB  0
0853A:  CALL   1500
0853E:  MOVLB  7
08540:  DECFSZ xA9,F
08542:  BRA    8534
....................          glcd_fillScreen(OFF);unidad=1; 
08544:  CLRF   xAA
08546:  MOVLB  0
08548:  CALL   1580
0854C:  MOVLW  01
0854E:  MOVLB  5
08550:  MOVWF  x9B
....................       }  
....................                    
....................       if(LEFT)//Si oprime boton de Toma. 
08552:  BSF    F96.2
08554:  BTFSC  F84.2
08556:  BRA    8592
....................       { 
....................          Buzz_on;Opcion=1;Buzz_off;delay_ms(500);Menu=1;glcd_fillscreen(OFF);Opcion=1;visual=1; 
08558:  BSF    F8B.7
0855A:  BCF    F94.7
0855C:  MOVLW  01
0855E:  MOVWF  xA1
08560:  BCF    F8B.7
08562:  BCF    F94.7
08564:  MOVLW  02
08566:  MOVLB  7
08568:  MOVWF  xA9
0856A:  MOVLW  FA
0856C:  MOVWF  xAF
0856E:  MOVLB  0
08570:  CALL   1500
08574:  MOVLB  7
08576:  DECFSZ xA9,F
08578:  BRA    856A
0857A:  MOVLW  01
0857C:  MOVLB  5
0857E:  MOVWF  x9A
08580:  MOVLB  7
08582:  CLRF   xAA
08584:  MOVLB  0
08586:  CALL   1580
0858A:  MOVLW  01
0858C:  MOVLB  5
0858E:  MOVWF  xA1
08590:  BSF    x87.6
....................       }  
....................     } 
.................... //_--------------------------------------------------------------------------------------------------------------------------------------------------------        
....................  
.................... //_--------------------------------------------------------------------------------------------------------------------------------------------------------       
....................       if(Menu==8){ // Menu de Cambio de Contrasea 
08592:  MOVF   x9A,W
08594:  SUBLW  08
08596:  BTFSS  FD8.2
08598:  BRA    8A76
....................          
....................       strcpy(Menus.Letra,"Clave"); 
0859A:  MOVLW  07
0859C:  MOVWF  FEA
0859E:  MOVLW  89
085A0:  MOVWF  FE9
085A2:  MOVFF  FF2,7A9
085A6:  BCF    FF2.7
085A8:  MOVLW  00
085AA:  MOVLB  0
085AC:  CALL   0854
085B0:  TBLRD*-
085B2:  TBLRD*+
085B4:  MOVF   FF5,W
085B6:  MOVWF  FEE
085B8:  IORLW  00
085BA:  BNZ   85B2
085BC:  MOVLB  7
085BE:  BTFSC  xA9.7
085C0:  BSF    FF2.7
....................       displayMenu(Menus.Letra,30,0,1,2);      
085C2:  MOVLW  07
085C4:  MOVWF  xAD
085C6:  MOVLW  89
085C8:  MOVWF  xAC
085CA:  MOVLW  1E
085CC:  MOVWF  xAE
085CE:  CLRF   xAF
085D0:  MOVLW  01
085D2:  MOVWF  xB0
085D4:  MOVLW  02
085D6:  MOVWF  xB1
085D8:  MOVLB  0
085DA:  CALL   1BAE
....................        
....................       if(unidad==1) 
085DE:  MOVLB  5
085E0:  DECFSZ x9B,W
085E2:  BRA    8642
....................       { 
....................          displayContrasena(Contrasena[0],20,30,1); 
085E4:  MOVFF  5E5,7AB
085E8:  MOVLW  14
085EA:  MOVLB  7
085EC:  MOVWF  xAC
085EE:  MOVLW  1E
085F0:  MOVWF  xAD
085F2:  MOVLW  01
085F4:  MOVWF  xAE
085F6:  MOVLB  0
085F8:  CALL   1E00
....................          displayContrasena(Contrasena[1],40,30,0); 
085FC:  MOVFF  5E6,7AB
08600:  MOVLW  28
08602:  MOVLB  7
08604:  MOVWF  xAC
08606:  MOVLW  1E
08608:  MOVWF  xAD
0860A:  CLRF   xAE
0860C:  MOVLB  0
0860E:  CALL   1E00
....................          displayContrasena(Contrasena[2],60,30,0); 
08612:  MOVFF  5E7,7AB
08616:  MOVLW  3C
08618:  MOVLB  7
0861A:  MOVWF  xAC
0861C:  MOVLW  1E
0861E:  MOVWF  xAD
08620:  CLRF   xAE
08622:  MOVLB  0
08624:  CALL   1E00
....................          displayContrasena(Contrasena[3],80,30,0); 
08628:  MOVFF  5E8,7AB
0862C:  MOVLW  50
0862E:  MOVLB  7
08630:  MOVWF  xAC
08632:  MOVLW  1E
08634:  MOVWF  xAD
08636:  CLRF   xAE
08638:  MOVLB  0
0863A:  CALL   1E00
....................       } 
....................       else 
0863E:  BRA    876A
08640:  MOVLB  5
....................       { 
....................          if(unidad==2) 
08642:  MOVF   x9B,W
08644:  SUBLW  02
08646:  BNZ   86A6
....................          { 
....................             displayContrasena(Contrasena[0],20,30,0); 
08648:  MOVFF  5E5,7AB
0864C:  MOVLW  14
0864E:  MOVLB  7
08650:  MOVWF  xAC
08652:  MOVLW  1E
08654:  MOVWF  xAD
08656:  CLRF   xAE
08658:  MOVLB  0
0865A:  CALL   1E00
....................             displayContrasena(Contrasena[1],40,30,1); 
0865E:  MOVFF  5E6,7AB
08662:  MOVLW  28
08664:  MOVLB  7
08666:  MOVWF  xAC
08668:  MOVLW  1E
0866A:  MOVWF  xAD
0866C:  MOVLW  01
0866E:  MOVWF  xAE
08670:  MOVLB  0
08672:  CALL   1E00
....................             displayContrasena(Contrasena[2],60,30,0); 
08676:  MOVFF  5E7,7AB
0867A:  MOVLW  3C
0867C:  MOVLB  7
0867E:  MOVWF  xAC
08680:  MOVLW  1E
08682:  MOVWF  xAD
08684:  CLRF   xAE
08686:  MOVLB  0
08688:  CALL   1E00
....................             displayContrasena(Contrasena[3],80,30,0); 
0868C:  MOVFF  5E8,7AB
08690:  MOVLW  50
08692:  MOVLB  7
08694:  MOVWF  xAC
08696:  MOVLW  1E
08698:  MOVWF  xAD
0869A:  CLRF   xAE
0869C:  MOVLB  0
0869E:  CALL   1E00
....................          } 
....................          else 
086A2:  BRA    876A
086A4:  MOVLB  5
....................          { 
....................             if(unidad==3) 
086A6:  MOVF   x9B,W
086A8:  SUBLW  03
086AA:  BNZ   870A
....................             { 
....................                displayContrasena(Contrasena[0],20,30,0); 
086AC:  MOVFF  5E5,7AB
086B0:  MOVLW  14
086B2:  MOVLB  7
086B4:  MOVWF  xAC
086B6:  MOVLW  1E
086B8:  MOVWF  xAD
086BA:  CLRF   xAE
086BC:  MOVLB  0
086BE:  CALL   1E00
....................                displayContrasena(Contrasena[1],40,30,0); 
086C2:  MOVFF  5E6,7AB
086C6:  MOVLW  28
086C8:  MOVLB  7
086CA:  MOVWF  xAC
086CC:  MOVLW  1E
086CE:  MOVWF  xAD
086D0:  CLRF   xAE
086D2:  MOVLB  0
086D4:  CALL   1E00
....................                displayContrasena(Contrasena[2],60,30,1); 
086D8:  MOVFF  5E7,7AB
086DC:  MOVLW  3C
086DE:  MOVLB  7
086E0:  MOVWF  xAC
086E2:  MOVLW  1E
086E4:  MOVWF  xAD
086E6:  MOVLW  01
086E8:  MOVWF  xAE
086EA:  MOVLB  0
086EC:  CALL   1E00
....................                displayContrasena(Contrasena[3],80,30,0); 
086F0:  MOVFF  5E8,7AB
086F4:  MOVLW  50
086F6:  MOVLB  7
086F8:  MOVWF  xAC
086FA:  MOVLW  1E
086FC:  MOVWF  xAD
086FE:  CLRF   xAE
08700:  MOVLB  0
08702:  CALL   1E00
....................             } 
....................             else 
08706:  BRA    876A
08708:  MOVLB  5
....................             { 
....................                if(unidad==4) 
0870A:  MOVF   x9B,W
0870C:  SUBLW  04
0870E:  BNZ   876C
....................                { 
....................                   displayContrasena(Contrasena[0],20,30,0); 
08710:  MOVFF  5E5,7AB
08714:  MOVLW  14
08716:  MOVLB  7
08718:  MOVWF  xAC
0871A:  MOVLW  1E
0871C:  MOVWF  xAD
0871E:  CLRF   xAE
08720:  MOVLB  0
08722:  CALL   1E00
....................                   displayContrasena(Contrasena[1],40,30,0); 
08726:  MOVFF  5E6,7AB
0872A:  MOVLW  28
0872C:  MOVLB  7
0872E:  MOVWF  xAC
08730:  MOVLW  1E
08732:  MOVWF  xAD
08734:  CLRF   xAE
08736:  MOVLB  0
08738:  CALL   1E00
....................                   displayContrasena(Contrasena[2],60,30,0); 
0873C:  MOVFF  5E7,7AB
08740:  MOVLW  3C
08742:  MOVLB  7
08744:  MOVWF  xAC
08746:  MOVLW  1E
08748:  MOVWF  xAD
0874A:  CLRF   xAE
0874C:  MOVLB  0
0874E:  CALL   1E00
....................                   displayContrasena(Contrasena[3],80,30,1); 
08752:  MOVFF  5E8,7AB
08756:  MOVLW  50
08758:  MOVLB  7
0875A:  MOVWF  xAC
0875C:  MOVLW  1E
0875E:  MOVWF  xAD
08760:  MOVLW  01
08762:  MOVWF  xAE
08764:  MOVLB  0
08766:  CALL   1E00
0876A:  MOVLB  5
....................                } 
....................             } 
....................          } 
....................       } 
....................        
....................       if(UP)//Si oprime hacia arriba 
0876C:  BSF    F92.5
0876E:  BTFSC  F80.5
08770:  BRA    87E6
....................       { 
....................          Buzz_on;delay_ms(10);Buzz_off; 
08772:  BSF    F8B.7
08774:  BCF    F94.7
08776:  MOVLW  0A
08778:  MOVLB  7
0877A:  MOVWF  xAF
0877C:  MOVLB  0
0877E:  CALL   1500
08782:  BCF    F8B.7
08784:  BCF    F94.7
....................          delay_ms(30); 
08786:  MOVLW  1E
08788:  MOVLB  7
0878A:  MOVWF  xAF
0878C:  MOVLB  0
0878E:  CALL   1500
....................          for(i=1;i<=4;i++) 
08792:  MOVLW  01
08794:  MOVLB  5
08796:  MOVWF  x9C
08798:  MOVF   x9C,W
0879A:  SUBLW  04
0879C:  BNC   87E6
....................          { 
....................             if(unidad==i) 
0879E:  MOVF   x9C,W
087A0:  SUBWF  x9B,W
087A2:  BNZ   87E2
....................             { 
....................                Contrasena[i-1]++; 
087A4:  MOVLW  01
087A6:  SUBWF  x9C,W
087A8:  CLRF   03
087AA:  ADDLW  E5
087AC:  MOVWF  FE9
087AE:  MOVLW  05
087B0:  ADDWFC 03,W
087B2:  MOVWF  FEA
087B4:  INCF   FEF,F
....................                if(Contrasena[i-1]>9)    
087B6:  MOVLW  01
087B8:  SUBWF  x9C,W
087BA:  CLRF   03
087BC:  ADDLW  E5
087BE:  MOVWF  FE9
087C0:  MOVLW  05
087C2:  ADDWFC 03,W
087C4:  MOVWF  FEA
087C6:  BTFSC  FEF.7
087C8:  BRA    87E2
087CA:  MOVF   FEF,W
087CC:  SUBLW  09
087CE:  BC    87E2
....................                { 
....................                   Contrasena[i-1]=0; 
087D0:  MOVLW  01
087D2:  SUBWF  x9C,W
087D4:  CLRF   03
087D6:  ADDLW  E5
087D8:  MOVWF  FE9
087DA:  MOVLW  05
087DC:  ADDWFC 03,W
087DE:  MOVWF  FEA
087E0:  CLRF   FEF
....................                } 
....................             } 
....................          } 
087E2:  INCF   x9C,F
087E4:  BRA    8798
....................       } 
....................              
....................       if(DOWN)//Si oprime hacia abajo 
087E6:  BSF    F96.0
087E8:  BTFSC  F84.0
087EA:  BRA    885E
....................       { 
....................          Buzz_on;delay_ms(10);Buzz_off; 
087EC:  BSF    F8B.7
087EE:  BCF    F94.7
087F0:  MOVLW  0A
087F2:  MOVLB  7
087F4:  MOVWF  xAF
087F6:  MOVLB  0
087F8:  CALL   1500
087FC:  BCF    F8B.7
087FE:  BCF    F94.7
....................          delay_ms(30); 
08800:  MOVLW  1E
08802:  MOVLB  7
08804:  MOVWF  xAF
08806:  MOVLB  0
08808:  CALL   1500
....................          for(i=1;i<=4;i++) 
0880C:  MOVLW  01
0880E:  MOVLB  5
08810:  MOVWF  x9C
08812:  MOVF   x9C,W
08814:  SUBLW  04
08816:  BNC   885E
....................          { 
....................             if(unidad==i) 
08818:  MOVF   x9C,W
0881A:  SUBWF  x9B,W
0881C:  BNZ   885A
....................             {Contrasena[i-1]--;  
0881E:  MOVLW  01
08820:  SUBWF  x9C,W
08822:  CLRF   03
08824:  ADDLW  E5
08826:  MOVWF  FE9
08828:  MOVLW  05
0882A:  ADDWFC 03,W
0882C:  MOVWF  FEA
0882E:  DECF   FEF,F
....................             if(Contrasena[i-1]<0) 
08830:  MOVLW  01
08832:  SUBWF  x9C,W
08834:  CLRF   03
08836:  ADDLW  E5
08838:  MOVWF  FE9
0883A:  MOVLW  05
0883C:  ADDWFC 03,W
0883E:  MOVWF  FEA
08840:  BTFSC  FEF.7
08842:  BRA    8846
08844:  BRA    885A
....................             {Contrasena[i-1]=9;} 
08846:  MOVLW  01
08848:  SUBWF  x9C,W
0884A:  CLRF   03
0884C:  ADDLW  E5
0884E:  MOVWF  FE9
08850:  MOVLW  05
08852:  ADDWFC 03,W
08854:  MOVWF  FEA
08856:  MOVLW  09
08858:  MOVWF  FEF
....................             } 
....................          }   
0885A:  INCF   x9C,F
0885C:  BRA    8812
....................       } 
....................              
....................       if(RIGHT)//Si oprime RIGHT 
0885E:  BSF    F96.1
08860:  BTFSC  F84.1
08862:  BRA    8888
....................       { 
....................          Buzz_on;delay_ms(10);Buzz_off;delay_ms(30);unidad++; 
08864:  BSF    F8B.7
08866:  BCF    F94.7
08868:  MOVLW  0A
0886A:  MOVLB  7
0886C:  MOVWF  xAF
0886E:  MOVLB  0
08870:  CALL   1500
08874:  BCF    F8B.7
08876:  BCF    F94.7
08878:  MOVLW  1E
0887A:  MOVLB  7
0887C:  MOVWF  xAF
0887E:  MOVLB  0
08880:  CALL   1500
08884:  MOVLB  5
08886:  INCF   x9B,F
....................       } 
....................        
....................       if(LEFT)//Si oprime Izquierda 
08888:  BSF    F96.2
0888A:  BTFSC  F84.2
0888C:  BRA    88CA
....................       { 
....................          Buzz_on;delay_ms(10);Buzz_off;delay_ms(700);Menu=1;glcd_fillscreen(OFF); 
0888E:  BSF    F8B.7
08890:  BCF    F94.7
08892:  MOVLW  0A
08894:  MOVLB  7
08896:  MOVWF  xAF
08898:  MOVLB  0
0889A:  CALL   1500
0889E:  BCF    F8B.7
088A0:  BCF    F94.7
088A2:  MOVLW  04
088A4:  MOVLB  7
088A6:  MOVWF  xA9
088A8:  MOVLW  AF
088AA:  MOVWF  xAF
088AC:  MOVLB  0
088AE:  CALL   1500
088B2:  MOVLB  7
088B4:  DECFSZ xA9,F
088B6:  BRA    88A8
088B8:  MOVLW  01
088BA:  MOVLB  5
088BC:  MOVWF  x9A
088BE:  MOVLB  7
088C0:  CLRF   xAA
088C2:  MOVLB  0
088C4:  CALL   1580
088C8:  MOVLB  5
....................       } 
....................        
....................       if(unidad>4) 
088CA:  MOVF   x9B,W
088CC:  SUBLW  04
088CE:  BTFSC  FD8.0
088D0:  BRA    8A76
....................       {glcd_fillScreen(OFF); 
088D2:  MOVLB  7
088D4:  CLRF   xAA
088D6:  MOVLB  0
088D8:  CALL   1580
....................           
....................          if((Contrasena[0]==Password[0])&&(Contrasena[1]==Password[1])&&(Contrasena[2]==Password[2])&&(Contrasena[3]==Password[3])) 
088DC:  MOVLB  5
088DE:  MOVF   xE9,W
088E0:  SUBWF  xE5,W
088E2:  BNZ   89B4
088E4:  MOVF   xEA,W
088E6:  SUBWF  xE6,W
088E8:  BNZ   89B4
088EA:  MOVF   xEB,W
088EC:  SUBWF  xE7,W
088EE:  BNZ   89B4
088F0:  MOVF   xEC,W
088F2:  SUBWF  xE8,W
088F4:  BNZ   89B4
....................          { 
....................             glcd_fillScreen(OFF); 
088F6:  MOVLB  7
088F8:  CLRF   xAA
088FA:  MOVLB  0
088FC:  CALL   1580
....................             strcpy(Menus.Letra,"Clave"); 
08900:  MOVLW  07
08902:  MOVWF  FEA
08904:  MOVLW  89
08906:  MOVWF  FE9
08908:  MOVFF  FF2,7A9
0890C:  BCF    FF2.7
0890E:  MOVLW  00
08910:  CALL   0854
08914:  TBLRD*-
08916:  TBLRD*+
08918:  MOVF   FF5,W
0891A:  MOVWF  FEE
0891C:  IORLW  00
0891E:  BNZ   8916
08920:  MOVLB  7
08922:  BTFSC  xA9.7
08924:  BSF    FF2.7
....................             displayMenu(Menus.Letra,30,0,0,2); 
08926:  MOVLW  07
08928:  MOVWF  xAD
0892A:  MOVLW  89
0892C:  MOVWF  xAC
0892E:  MOVLW  1E
08930:  MOVWF  xAE
08932:  CLRF   xAF
08934:  CLRF   xB0
08936:  MOVLW  02
08938:  MOVWF  xB1
0893A:  MOVLB  0
0893C:  CALL   1BAE
....................             strcpy(Menus.Letra,"Correcta"); 
08940:  MOVLW  07
08942:  MOVWF  FEA
08944:  MOVLW  89
08946:  MOVWF  FE9
08948:  MOVFF  FF2,7A9
0894C:  BCF    FF2.7
0894E:  MOVLW  00
08950:  CALL   0878
08954:  TBLRD*-
08956:  TBLRD*+
08958:  MOVF   FF5,W
0895A:  MOVWF  FEE
0895C:  IORLW  00
0895E:  BNZ   8956
08960:  MOVLB  7
08962:  BTFSC  xA9.7
08964:  BSF    FF2.7
....................             displayMenu(Menus.Letra,15,30,0,2); 
08966:  MOVLW  07
08968:  MOVWF  xAD
0896A:  MOVLW  89
0896C:  MOVWF  xAC
0896E:  MOVLW  0F
08970:  MOVWF  xAE
08972:  MOVLW  1E
08974:  MOVWF  xAF
08976:  CLRF   xB0
08978:  MOVLW  02
0897A:  MOVWF  xB1
0897C:  MOVLB  0
0897E:  CALL   1BAE
....................             Menu=91;glcd_update();delay_ms(1000); 
08982:  MOVLW  5B
08984:  MOVLB  5
08986:  MOVWF  x9A
08988:  MOVLB  0
0898A:  CALL   15DA
0898E:  MOVLW  04
08990:  MOVLB  7
08992:  MOVWF  xA9
08994:  MOVLW  FA
08996:  MOVWF  xAF
08998:  MOVLB  0
0899A:  CALL   1500
0899E:  MOVLB  7
089A0:  DECFSZ xA9,F
089A2:  BRA    8994
....................             glcd_fillScreen(OFF);unidad=1; 
089A4:  CLRF   xAA
089A6:  MOVLB  0
089A8:  CALL   1580
089AC:  MOVLW  01
089AE:  MOVLB  5
089B0:  MOVWF  x9B
....................          }// Esta parte se puede agregar en el Menu 1 dependiendo de la ubicacin del vidrio. 
....................          else 
089B2:  BRA    8A76
....................          { 
....................             glcd_fillScreen(OFF); 
089B4:  MOVLB  7
089B6:  CLRF   xAA
089B8:  MOVLB  0
089BA:  CALL   1580
....................             strcpy(Menus.Letra,"Clave"); 
089BE:  MOVLW  07
089C0:  MOVWF  FEA
089C2:  MOVLW  89
089C4:  MOVWF  FE9
089C6:  MOVFF  FF2,7A9
089CA:  BCF    FF2.7
089CC:  MOVLW  00
089CE:  CALL   0854
089D2:  TBLRD*-
089D4:  TBLRD*+
089D6:  MOVF   FF5,W
089D8:  MOVWF  FEE
089DA:  IORLW  00
089DC:  BNZ   89D4
089DE:  MOVLB  7
089E0:  BTFSC  xA9.7
089E2:  BSF    FF2.7
....................             displayMenu(Menus.Letra,30,0,0,2); 
089E4:  MOVLW  07
089E6:  MOVWF  xAD
089E8:  MOVLW  89
089EA:  MOVWF  xAC
089EC:  MOVLW  1E
089EE:  MOVWF  xAE
089F0:  CLRF   xAF
089F2:  CLRF   xB0
089F4:  MOVLW  02
089F6:  MOVWF  xB1
089F8:  MOVLB  0
089FA:  CALL   1BAE
....................             strcpy(Menus.Letra,"Incorrecta"); 
089FE:  MOVLW  07
08A00:  MOVWF  FEA
08A02:  MOVLW  89
08A04:  MOVWF  FE9
08A06:  MOVFF  FF2,7A9
08A0A:  BCF    FF2.7
08A0C:  MOVLW  00
08A0E:  CALL   08A0
08A12:  TBLRD*-
08A14:  TBLRD*+
08A16:  MOVF   FF5,W
08A18:  MOVWF  FEE
08A1A:  IORLW  00
08A1C:  BNZ   8A14
08A1E:  MOVLB  7
08A20:  BTFSC  xA9.7
08A22:  BSF    FF2.7
....................             displayMenu(Menus.Letra,0,30,0,2); 
08A24:  MOVLW  07
08A26:  MOVWF  xAD
08A28:  MOVLW  89
08A2A:  MOVWF  xAC
08A2C:  CLRF   xAE
08A2E:  MOVLW  1E
08A30:  MOVWF  xAF
08A32:  CLRF   xB0
08A34:  MOVLW  02
08A36:  MOVWF  xB1
08A38:  MOVLB  0
08A3A:  CALL   1BAE
....................             Menu=1;glcd_update();delay_ms(1000); 
08A3E:  MOVLW  01
08A40:  MOVLB  5
08A42:  MOVWF  x9A
08A44:  MOVLB  0
08A46:  CALL   15DA
08A4A:  MOVLW  04
08A4C:  MOVLB  7
08A4E:  MOVWF  xA9
08A50:  MOVLW  FA
08A52:  MOVWF  xAF
08A54:  MOVLB  0
08A56:  CALL   1500
08A5A:  MOVLB  7
08A5C:  DECFSZ xA9,F
08A5E:  BRA    8A50
....................             glcd_fillScreen(OFF);unidad=1; 
08A60:  CLRF   xAA
08A62:  MOVLB  0
08A64:  CALL   1580
08A68:  MOVLW  01
08A6A:  MOVLB  5
08A6C:  MOVWF  x9B
....................             Contrasena[0]=0;Contrasena[1]=0;Contrasena[2]=0;Contrasena[3]=0; 
08A6E:  CLRF   xE5
08A70:  CLRF   xE6
08A72:  CLRF   xE7
08A74:  CLRF   xE8
....................          } 
....................       } 
....................     }     
.................... //_--------------------------------------------------------------------------------------------------------------------------------------------------------     
....................  
.................... //_--------------------------------------------------------------------------------------------------------------------------------------------------------       
....................       if(Menu==91){ // Menu de Cambio de Contrasea 
08A76:  MOVF   x9A,W
08A78:  SUBLW  5B
08A7A:  BTFSS  FD8.2
08A7C:  BRA    8EB2
....................          
....................       strcpy(Menus.Letra,"Clave Nueva"); 
08A7E:  MOVLW  07
08A80:  MOVWF  FEA
08A82:  MOVLW  89
08A84:  MOVWF  FE9
08A86:  MOVFF  FF2,7A9
08A8A:  BCF    FF2.7
08A8C:  MOVLW  00
08A8E:  MOVLB  0
08A90:  CALL   0C0C
08A94:  TBLRD*-
08A96:  TBLRD*+
08A98:  MOVF   FF5,W
08A9A:  MOVWF  FEE
08A9C:  IORLW  00
08A9E:  BNZ   8A96
08AA0:  MOVLB  7
08AA2:  BTFSC  xA9.7
08AA4:  BSF    FF2.7
....................       displayMenu(Menus.Letra,0,0,1,2);      
08AA6:  MOVLW  07
08AA8:  MOVWF  xAD
08AAA:  MOVLW  89
08AAC:  MOVWF  xAC
08AAE:  CLRF   xAE
08AB0:  CLRF   xAF
08AB2:  MOVLW  01
08AB4:  MOVWF  xB0
08AB6:  MOVLW  02
08AB8:  MOVWF  xB1
08ABA:  MOVLB  0
08ABC:  CALL   1BAE
....................        
....................       if(unidad==1) 
08AC0:  MOVLB  5
08AC2:  DECFSZ x9B,W
08AC4:  BRA    8B24
....................       { 
....................          displayContrasena(Password[0],20,30,1); 
08AC6:  MOVFF  5E9,7AB
08ACA:  MOVLW  14
08ACC:  MOVLB  7
08ACE:  MOVWF  xAC
08AD0:  MOVLW  1E
08AD2:  MOVWF  xAD
08AD4:  MOVLW  01
08AD6:  MOVWF  xAE
08AD8:  MOVLB  0
08ADA:  CALL   1E00
....................          displayContrasena(Password[1],40,30,0); 
08ADE:  MOVFF  5EA,7AB
08AE2:  MOVLW  28
08AE4:  MOVLB  7
08AE6:  MOVWF  xAC
08AE8:  MOVLW  1E
08AEA:  MOVWF  xAD
08AEC:  CLRF   xAE
08AEE:  MOVLB  0
08AF0:  CALL   1E00
....................          displayContrasena(Password[2],60,30,0); 
08AF4:  MOVFF  5EB,7AB
08AF8:  MOVLW  3C
08AFA:  MOVLB  7
08AFC:  MOVWF  xAC
08AFE:  MOVLW  1E
08B00:  MOVWF  xAD
08B02:  CLRF   xAE
08B04:  MOVLB  0
08B06:  CALL   1E00
....................          displayContrasena(Password[3],80,30,0); 
08B0A:  MOVFF  5EC,7AB
08B0E:  MOVLW  50
08B10:  MOVLB  7
08B12:  MOVWF  xAC
08B14:  MOVLW  1E
08B16:  MOVWF  xAD
08B18:  CLRF   xAE
08B1A:  MOVLB  0
08B1C:  CALL   1E00
....................       } 
....................       else 
08B20:  BRA    8C4C
08B22:  MOVLB  5
....................       { 
....................          if(unidad==2) 
08B24:  MOVF   x9B,W
08B26:  SUBLW  02
08B28:  BNZ   8B88
....................          { 
....................             displayContrasena(Password[0],20,30,0); 
08B2A:  MOVFF  5E9,7AB
08B2E:  MOVLW  14
08B30:  MOVLB  7
08B32:  MOVWF  xAC
08B34:  MOVLW  1E
08B36:  MOVWF  xAD
08B38:  CLRF   xAE
08B3A:  MOVLB  0
08B3C:  CALL   1E00
....................             displayContrasena(Password[1],40,30,1); 
08B40:  MOVFF  5EA,7AB
08B44:  MOVLW  28
08B46:  MOVLB  7
08B48:  MOVWF  xAC
08B4A:  MOVLW  1E
08B4C:  MOVWF  xAD
08B4E:  MOVLW  01
08B50:  MOVWF  xAE
08B52:  MOVLB  0
08B54:  CALL   1E00
....................             displayContrasena(Password[2],60,30,0); 
08B58:  MOVFF  5EB,7AB
08B5C:  MOVLW  3C
08B5E:  MOVLB  7
08B60:  MOVWF  xAC
08B62:  MOVLW  1E
08B64:  MOVWF  xAD
08B66:  CLRF   xAE
08B68:  MOVLB  0
08B6A:  CALL   1E00
....................             displayContrasena(Password[3],80,30,0); 
08B6E:  MOVFF  5EC,7AB
08B72:  MOVLW  50
08B74:  MOVLB  7
08B76:  MOVWF  xAC
08B78:  MOVLW  1E
08B7A:  MOVWF  xAD
08B7C:  CLRF   xAE
08B7E:  MOVLB  0
08B80:  CALL   1E00
....................          } 
....................          else 
08B84:  BRA    8C4C
08B86:  MOVLB  5
....................          { 
....................             if(unidad==3) 
08B88:  MOVF   x9B,W
08B8A:  SUBLW  03
08B8C:  BNZ   8BEC
....................             { 
....................                displayContrasena(Password[0],20,30,0); 
08B8E:  MOVFF  5E9,7AB
08B92:  MOVLW  14
08B94:  MOVLB  7
08B96:  MOVWF  xAC
08B98:  MOVLW  1E
08B9A:  MOVWF  xAD
08B9C:  CLRF   xAE
08B9E:  MOVLB  0
08BA0:  CALL   1E00
....................                displayContrasena(Password[1],40,30,0); 
08BA4:  MOVFF  5EA,7AB
08BA8:  MOVLW  28
08BAA:  MOVLB  7
08BAC:  MOVWF  xAC
08BAE:  MOVLW  1E
08BB0:  MOVWF  xAD
08BB2:  CLRF   xAE
08BB4:  MOVLB  0
08BB6:  CALL   1E00
....................                displayContrasena(Password[2],60,30,1); 
08BBA:  MOVFF  5EB,7AB
08BBE:  MOVLW  3C
08BC0:  MOVLB  7
08BC2:  MOVWF  xAC
08BC4:  MOVLW  1E
08BC6:  MOVWF  xAD
08BC8:  MOVLW  01
08BCA:  MOVWF  xAE
08BCC:  MOVLB  0
08BCE:  CALL   1E00
....................                displayContrasena(Password[3],80,30,0); 
08BD2:  MOVFF  5EC,7AB
08BD6:  MOVLW  50
08BD8:  MOVLB  7
08BDA:  MOVWF  xAC
08BDC:  MOVLW  1E
08BDE:  MOVWF  xAD
08BE0:  CLRF   xAE
08BE2:  MOVLB  0
08BE4:  CALL   1E00
....................             } 
....................             else 
08BE8:  BRA    8C4C
08BEA:  MOVLB  5
....................             { 
....................                if(unidad==4) 
08BEC:  MOVF   x9B,W
08BEE:  SUBLW  04
08BF0:  BNZ   8C4E
....................                { 
....................                   displayContrasena(Password[0],20,30,0); 
08BF2:  MOVFF  5E9,7AB
08BF6:  MOVLW  14
08BF8:  MOVLB  7
08BFA:  MOVWF  xAC
08BFC:  MOVLW  1E
08BFE:  MOVWF  xAD
08C00:  CLRF   xAE
08C02:  MOVLB  0
08C04:  CALL   1E00
....................                   displayContrasena(Password[1],40,30,0); 
08C08:  MOVFF  5EA,7AB
08C0C:  MOVLW  28
08C0E:  MOVLB  7
08C10:  MOVWF  xAC
08C12:  MOVLW  1E
08C14:  MOVWF  xAD
08C16:  CLRF   xAE
08C18:  MOVLB  0
08C1A:  CALL   1E00
....................                   displayContrasena(Password[2],60,30,0); 
08C1E:  MOVFF  5EB,7AB
08C22:  MOVLW  3C
08C24:  MOVLB  7
08C26:  MOVWF  xAC
08C28:  MOVLW  1E
08C2A:  MOVWF  xAD
08C2C:  CLRF   xAE
08C2E:  MOVLB  0
08C30:  CALL   1E00
....................                   displayContrasena(Password[3],80,30,1); 
08C34:  MOVFF  5EC,7AB
08C38:  MOVLW  50
08C3A:  MOVLB  7
08C3C:  MOVWF  xAC
08C3E:  MOVLW  1E
08C40:  MOVWF  xAD
08C42:  MOVLW  01
08C44:  MOVWF  xAE
08C46:  MOVLB  0
08C48:  CALL   1E00
08C4C:  MOVLB  5
....................                } 
....................             } 
....................          } 
....................       } 
....................        
....................       if(UP)//Si oprime hacia arriba 
08C4E:  BSF    F92.5
08C50:  BTFSC  F80.5
08C52:  BRA    8CC8
....................       { 
....................          Buzz_on;delay_ms(10);Buzz_off; 
08C54:  BSF    F8B.7
08C56:  BCF    F94.7
08C58:  MOVLW  0A
08C5A:  MOVLB  7
08C5C:  MOVWF  xAF
08C5E:  MOVLB  0
08C60:  CALL   1500
08C64:  BCF    F8B.7
08C66:  BCF    F94.7
....................          delay_ms(30); 
08C68:  MOVLW  1E
08C6A:  MOVLB  7
08C6C:  MOVWF  xAF
08C6E:  MOVLB  0
08C70:  CALL   1500
....................          for(i=1;i<=4;i++) 
08C74:  MOVLW  01
08C76:  MOVLB  5
08C78:  MOVWF  x9C
08C7A:  MOVF   x9C,W
08C7C:  SUBLW  04
08C7E:  BNC   8CC8
....................          { 
....................             if(unidad==i) 
08C80:  MOVF   x9C,W
08C82:  SUBWF  x9B,W
08C84:  BNZ   8CC4
....................             { 
....................                Password[i-1]++; 
08C86:  MOVLW  01
08C88:  SUBWF  x9C,W
08C8A:  CLRF   03
08C8C:  ADDLW  E9
08C8E:  MOVWF  FE9
08C90:  MOVLW  05
08C92:  ADDWFC 03,W
08C94:  MOVWF  FEA
08C96:  INCF   FEF,F
....................                if(Password[i-1]>9)    
08C98:  MOVLW  01
08C9A:  SUBWF  x9C,W
08C9C:  CLRF   03
08C9E:  ADDLW  E9
08CA0:  MOVWF  FE9
08CA2:  MOVLW  05
08CA4:  ADDWFC 03,W
08CA6:  MOVWF  FEA
08CA8:  BTFSC  FEF.7
08CAA:  BRA    8CC4
08CAC:  MOVF   FEF,W
08CAE:  SUBLW  09
08CB0:  BC    8CC4
....................                { 
....................                   Password[i-1]=0; 
08CB2:  MOVLW  01
08CB4:  SUBWF  x9C,W
08CB6:  CLRF   03
08CB8:  ADDLW  E9
08CBA:  MOVWF  FE9
08CBC:  MOVLW  05
08CBE:  ADDWFC 03,W
08CC0:  MOVWF  FEA
08CC2:  CLRF   FEF
....................                } 
....................             } 
....................          } 
08CC4:  INCF   x9C,F
08CC6:  BRA    8C7A
....................       } 
....................              
....................       if(DOWN)//Si oprime hacia abajo 
08CC8:  BSF    F96.0
08CCA:  BTFSC  F84.0
08CCC:  BRA    8D40
....................       { 
....................          Buzz_on;delay_ms(10);Buzz_off; 
08CCE:  BSF    F8B.7
08CD0:  BCF    F94.7
08CD2:  MOVLW  0A
08CD4:  MOVLB  7
08CD6:  MOVWF  xAF
08CD8:  MOVLB  0
08CDA:  CALL   1500
08CDE:  BCF    F8B.7
08CE0:  BCF    F94.7
....................          delay_ms(30); 
08CE2:  MOVLW  1E
08CE4:  MOVLB  7
08CE6:  MOVWF  xAF
08CE8:  MOVLB  0
08CEA:  CALL   1500
....................          for(i=1;i<=4;i++) 
08CEE:  MOVLW  01
08CF0:  MOVLB  5
08CF2:  MOVWF  x9C
08CF4:  MOVF   x9C,W
08CF6:  SUBLW  04
08CF8:  BNC   8D40
....................             { 
....................                if(unidad==i) 
08CFA:  MOVF   x9C,W
08CFC:  SUBWF  x9B,W
08CFE:  BNZ   8D3C
....................                { 
....................                   Password[i-1]--; 
08D00:  MOVLW  01
08D02:  SUBWF  x9C,W
08D04:  CLRF   03
08D06:  ADDLW  E9
08D08:  MOVWF  FE9
08D0A:  MOVLW  05
08D0C:  ADDWFC 03,W
08D0E:  MOVWF  FEA
08D10:  DECF   FEF,F
....................                   if(Password[i-1]<0) 
08D12:  MOVLW  01
08D14:  SUBWF  x9C,W
08D16:  CLRF   03
08D18:  ADDLW  E9
08D1A:  MOVWF  FE9
08D1C:  MOVLW  05
08D1E:  ADDWFC 03,W
08D20:  MOVWF  FEA
08D22:  BTFSC  FEF.7
08D24:  BRA    8D28
08D26:  BRA    8D3C
....................                   { 
....................                      Password[i-1]=9; 
08D28:  MOVLW  01
08D2A:  SUBWF  x9C,W
08D2C:  CLRF   03
08D2E:  ADDLW  E9
08D30:  MOVWF  FE9
08D32:  MOVLW  05
08D34:  ADDWFC 03,W
08D36:  MOVWF  FEA
08D38:  MOVLW  09
08D3A:  MOVWF  FEF
....................                   } 
....................                } 
....................             }        
08D3C:  INCF   x9C,F
08D3E:  BRA    8CF4
....................       } 
....................              
....................       if(RIGHT)//Si oprime RIGHT 
08D40:  BSF    F96.1
08D42:  BTFSC  F84.1
08D44:  BRA    8D6A
....................       { 
....................          Buzz_on;delay_ms(10);Buzz_off;delay_ms(30);unidad++; 
08D46:  BSF    F8B.7
08D48:  BCF    F94.7
08D4A:  MOVLW  0A
08D4C:  MOVLB  7
08D4E:  MOVWF  xAF
08D50:  MOVLB  0
08D52:  CALL   1500
08D56:  BCF    F8B.7
08D58:  BCF    F94.7
08D5A:  MOVLW  1E
08D5C:  MOVLB  7
08D5E:  MOVWF  xAF
08D60:  MOVLB  0
08D62:  CALL   1500
08D66:  MOVLB  5
08D68:  INCF   x9B,F
....................       } 
....................        
....................       if(LEFT)//Si oprime Izquierda 
08D6A:  BSF    F96.2
08D6C:  BTFSC  F84.2
08D6E:  BRA    8DAC
....................       { 
....................          Buzz_on;delay_ms(10);Buzz_off;delay_ms(700);Menu=1;glcd_fillscreen(OFF); 
08D70:  BSF    F8B.7
08D72:  BCF    F94.7
08D74:  MOVLW  0A
08D76:  MOVLB  7
08D78:  MOVWF  xAF
08D7A:  MOVLB  0
08D7C:  CALL   1500
08D80:  BCF    F8B.7
08D82:  BCF    F94.7
08D84:  MOVLW  04
08D86:  MOVLB  7
08D88:  MOVWF  xA9
08D8A:  MOVLW  AF
08D8C:  MOVWF  xAF
08D8E:  MOVLB  0
08D90:  CALL   1500
08D94:  MOVLB  7
08D96:  DECFSZ xA9,F
08D98:  BRA    8D8A
08D9A:  MOVLW  01
08D9C:  MOVLB  5
08D9E:  MOVWF  x9A
08DA0:  MOVLB  7
08DA2:  CLRF   xAA
08DA4:  MOVLB  0
08DA6:  CALL   1580
08DAA:  MOVLB  5
....................       } 
....................        
....................       if(unidad>4) 
08DAC:  MOVF   x9B,W
08DAE:  SUBLW  04
08DB0:  BTFSC  FD8.0
08DB2:  BRA    8EB2
....................       { 
....................          Opcion=1;unidad=1; 
08DB4:  MOVLW  01
08DB6:  MOVWF  xA1
08DB8:  MOVWF  x9B
....................          write_eeprom(10,Password[0]); 
08DBA:  CLRF   FAA
08DBC:  MOVLW  0A
08DBE:  MOVWF  FA9
08DC0:  MOVFF  5E9,FA8
08DC4:  BCF    FA6.6
08DC6:  BCF    FA6.7
08DC8:  BSF    FA6.2
08DCA:  MOVF   FF2,W
08DCC:  MOVWF  00
08DCE:  BCF    FF2.7
08DD0:  MOVLB  F
08DD2:  MOVLW  55
08DD4:  MOVWF  FA7
08DD6:  MOVLW  AA
08DD8:  MOVWF  FA7
08DDA:  BSF    FA6.1
08DDC:  BTFSC  FA6.1
08DDE:  BRA    8DDC
08DE0:  BCF    FA6.2
08DE2:  MOVF   00,W
08DE4:  IORWF  FF2,F
....................          delay_ms(50);    
08DE6:  MOVLW  32
08DE8:  MOVLB  7
08DEA:  MOVWF  xAF
08DEC:  MOVLB  0
08DEE:  CALL   1500
....................          write_eeprom(11,Password[1]); 
08DF2:  CLRF   FAA
08DF4:  MOVLW  0B
08DF6:  MOVWF  FA9
08DF8:  MOVFF  5EA,FA8
08DFC:  BCF    FA6.6
08DFE:  BCF    FA6.7
08E00:  BSF    FA6.2
08E02:  MOVF   FF2,W
08E04:  MOVWF  00
08E06:  BCF    FF2.7
08E08:  MOVLB  F
08E0A:  MOVLW  55
08E0C:  MOVWF  FA7
08E0E:  MOVLW  AA
08E10:  MOVWF  FA7
08E12:  BSF    FA6.1
08E14:  BTFSC  FA6.1
08E16:  BRA    8E14
08E18:  BCF    FA6.2
08E1A:  MOVF   00,W
08E1C:  IORWF  FF2,F
....................          delay_ms(50);    
08E1E:  MOVLW  32
08E20:  MOVLB  7
08E22:  MOVWF  xAF
08E24:  MOVLB  0
08E26:  CALL   1500
....................          write_eeprom(12,Password[2]); 
08E2A:  CLRF   FAA
08E2C:  MOVLW  0C
08E2E:  MOVWF  FA9
08E30:  MOVFF  5EB,FA8
08E34:  BCF    FA6.6
08E36:  BCF    FA6.7
08E38:  BSF    FA6.2
08E3A:  MOVF   FF2,W
08E3C:  MOVWF  00
08E3E:  BCF    FF2.7
08E40:  MOVLB  F
08E42:  MOVLW  55
08E44:  MOVWF  FA7
08E46:  MOVLW  AA
08E48:  MOVWF  FA7
08E4A:  BSF    FA6.1
08E4C:  BTFSC  FA6.1
08E4E:  BRA    8E4C
08E50:  BCF    FA6.2
08E52:  MOVF   00,W
08E54:  IORWF  FF2,F
....................          delay_ms(50);    
08E56:  MOVLW  32
08E58:  MOVLB  7
08E5A:  MOVWF  xAF
08E5C:  MOVLB  0
08E5E:  CALL   1500
....................          write_eeprom(13,Password[3]); 
08E62:  CLRF   FAA
08E64:  MOVLW  0D
08E66:  MOVWF  FA9
08E68:  MOVFF  5EC,FA8
08E6C:  BCF    FA6.6
08E6E:  BCF    FA6.7
08E70:  BSF    FA6.2
08E72:  MOVF   FF2,W
08E74:  MOVWF  00
08E76:  BCF    FF2.7
08E78:  MOVLB  F
08E7A:  MOVLW  55
08E7C:  MOVWF  FA7
08E7E:  MOVLW  AA
08E80:  MOVWF  FA7
08E82:  BSF    FA6.1
08E84:  BTFSC  FA6.1
08E86:  BRA    8E84
08E88:  BCF    FA6.2
08E8A:  MOVF   00,W
08E8C:  IORWF  FF2,F
....................          delay_ms(1000);glcd_fillScreen(OFF);Menu=1; 
08E8E:  MOVLW  04
08E90:  MOVLB  7
08E92:  MOVWF  xA9
08E94:  MOVLW  FA
08E96:  MOVWF  xAF
08E98:  MOVLB  0
08E9A:  CALL   1500
08E9E:  MOVLB  7
08EA0:  DECFSZ xA9,F
08EA2:  BRA    8E94
08EA4:  CLRF   xAA
08EA6:  MOVLB  0
08EA8:  CALL   1580
08EAC:  MOVLW  01
08EAE:  MOVLB  5
08EB0:  MOVWF  x9A
....................       } 
....................     }     
.................... //_--------------------------------------------------------------------------------------------------------------------------------------------------------     
....................  
.................... //_-------------------------------------------------------------------------------------------------------------------------------------------------------- 
....................       if(Menu>10 && Menu<16){ //Menu Editar Programa 01, Programa 02, Programa 03, Programa 04 y Programa 05 
08EB2:  MOVF   x9A,W
08EB4:  SUBLW  0A
08EB6:  BTFSC  FD8.0
08EB8:  BRA    91AC
08EBA:  MOVF   x9A,W
08EBC:  SUBLW  0F
08EBE:  BTFSS  FD8.0
08EC0:  BRA    91AC
....................        
....................          if(Opcion>3) 
08EC2:  MOVF   xA1,W
08EC4:  SUBLW  03
08EC6:  BC    8ED4
....................          { 
....................             Opcion=1; 
08EC8:  MOVLW  01
08ECA:  MOVWF  xA1
....................             if(i<9){ 
08ECC:  MOVF   x9C,W
08ECE:  SUBLW  08
08ED0:  BNC   8ED4
....................                i++;   
08ED2:  INCF   x9C,F
....................             } 
....................          } 
....................           
....................          if(Opcion<1) 
08ED4:  MOVF   xA1,F
08ED6:  BNZ   8EE2
....................          { 
....................             if(i>0) 
08ED8:  MOVF   x9C,F
08EDA:  BZ    8EDE
....................                i--; 
08EDC:  DECF   x9C,F
....................                 
....................             Opcion=3; 
08EDE:  MOVLW  03
08EE0:  MOVWF  xA1
....................          } 
....................           
....................          if(Menu==11) 
08EE2:  MOVF   x9A,W
08EE4:  SUBLW  0B
08EE6:  BNZ   8EEC
....................             Programa=1; 
08EE8:  MOVLW  01
08EEA:  MOVWF  x98
....................           
....................          if(Menu==12) 
08EEC:  MOVF   x9A,W
08EEE:  SUBLW  0C
08EF0:  BNZ   8EF6
....................             Programa=2; 
08EF2:  MOVLW  02
08EF4:  MOVWF  x98
....................              
....................          if(Menu==13) 
08EF6:  MOVF   x9A,W
08EF8:  SUBLW  0D
08EFA:  BNZ   8F00
....................             Programa=3; 
08EFC:  MOVLW  03
08EFE:  MOVWF  x98
....................              
....................          if(Menu==14) 
08F00:  MOVF   x9A,W
08F02:  SUBLW  0E
08F04:  BNZ   8F0A
....................             Programa=4; 
08F06:  MOVLW  04
08F08:  MOVWF  x98
....................              
....................          if(Menu==15) 
08F0A:  MOVF   x9A,W
08F0C:  SUBLW  0F
08F0E:  BNZ   8F14
....................             Programa=5;    
08F10:  MOVLW  05
08F12:  MOVWF  x98
....................           
....................          MuestraSegmento(Opcion,i,Programa); 
08F14:  MOVFF  5A1,7A9
08F18:  MOVFF  59C,7AA
08F1C:  MOVFF  598,7AB
08F20:  MOVLB  0
08F22:  GOTO   3F06
....................           
....................          if(RIGHT && LEFT){ 
08F26:  BSF    F96.1
08F28:  BTFSC  F84.1
08F2A:  BRA    915A
08F2C:  BSF    F96.2
08F2E:  BTFSC  F84.2
08F30:  BRA    915A
....................             Buzz_on;Menu=5;Opcion=1;glcd_fillscreen(OFF);delay_ms(500);Buzz_off; 
08F32:  BSF    F8B.7
08F34:  BCF    F94.7
08F36:  MOVLW  05
08F38:  MOVLB  5
08F3A:  MOVWF  x9A
08F3C:  MOVLW  01
08F3E:  MOVWF  xA1
08F40:  MOVLB  7
08F42:  CLRF   xAA
08F44:  MOVLB  0
08F46:  CALL   1580
08F4A:  MOVLW  02
08F4C:  MOVLB  7
08F4E:  MOVWF  xA9
08F50:  MOVLW  FA
08F52:  MOVWF  xAF
08F54:  MOVLB  0
08F56:  CALL   1500
08F5A:  MOVLB  7
08F5C:  DECFSZ xA9,F
08F5E:  BRA    8F50
08F60:  BCF    F8B.7
08F62:  BCF    F94.7
....................              
....................             for(i=0;i<10;i++){ 
08F64:  MOVLB  5
08F66:  CLRF   x9C
08F68:  MOVF   x9C,W
08F6A:  SUBLW  09
08F6C:  BTFSS  FD8.0
08F6E:  BRA    9158
....................                delay_ms(10);     
08F70:  MOVLW  0A
08F72:  MOVLB  7
08F74:  MOVWF  xAF
08F76:  MOVLB  0
08F78:  CALL   1500
....................                write_eeprom((i*2)+(40*(Programa-1)),make8(Temperatura1[i+((Programa-1)*10)],0)); 
08F7C:  BCF    FD8.0
08F7E:  MOVLB  5
08F80:  RLCF   x9C,W
08F82:  MOVLB  7
08F84:  MOVWF  xA9
08F86:  MOVLW  01
08F88:  MOVLB  5
08F8A:  SUBWF  x98,W
08F8C:  MULLW  28
08F8E:  MOVF   FF3,W
08F90:  MOVLB  7
08F92:  ADDWF  xA9,F
08F94:  MOVLW  01
08F96:  MOVLB  5
08F98:  SUBWF  x98,W
08F9A:  MULLW  0A
08F9C:  MOVF   FF3,W
08F9E:  ADDWF  x9C,W
08FA0:  MOVWF  00
08FA2:  BCF    FD8.0
08FA4:  RLCF   00,F
08FA6:  MOVF   00,W
08FA8:  CLRF   03
08FAA:  ADDLW  5D
08FAC:  MOVWF  FE9
08FAE:  MOVLW  06
08FB0:  ADDWFC 03,W
08FB2:  MOVWF  FEA
08FB4:  MOVFF  FEC,7AB
08FB8:  MOVF   FED,F
08FBA:  MOVFF  FEF,7AA
08FBE:  MOVFF  7AA,7AC
08FC2:  CLRF   FAA
08FC4:  MOVFF  7A9,FA9
08FC8:  MOVFF  7AC,FA8
08FCC:  BCF    FA6.6
08FCE:  BCF    FA6.7
08FD0:  BSF    FA6.2
08FD2:  MOVF   FF2,W
08FD4:  MOVWF  00
08FD6:  BCF    FF2.7
08FD8:  MOVLB  F
08FDA:  MOVLW  55
08FDC:  MOVWF  FA7
08FDE:  MOVLW  AA
08FE0:  MOVWF  FA7
08FE2:  BSF    FA6.1
08FE4:  BTFSC  FA6.1
08FE6:  BRA    8FE4
08FE8:  BCF    FA6.2
08FEA:  MOVF   00,W
08FEC:  IORWF  FF2,F
....................                delay_ms(10);     
08FEE:  MOVLW  0A
08FF0:  MOVLB  7
08FF2:  MOVWF  xAF
08FF4:  MOVLB  0
08FF6:  CALL   1500
....................                write_eeprom((i*2)+1+(40*(Programa-1)),make8(Temperatura1[i+((Programa-1)*10)],1)); 
08FFA:  BCF    FD8.0
08FFC:  MOVLB  5
08FFE:  RLCF   x9C,W
09000:  ADDLW  01
09002:  MOVLB  7
09004:  MOVWF  xA9
09006:  MOVLW  01
09008:  MOVLB  5
0900A:  SUBWF  x98,W
0900C:  MULLW  28
0900E:  MOVF   FF3,W
09010:  MOVLB  7
09012:  ADDWF  xA9,F
09014:  MOVLW  01
09016:  MOVLB  5
09018:  SUBWF  x98,W
0901A:  MULLW  0A
0901C:  MOVF   FF3,W
0901E:  ADDWF  x9C,W
09020:  MOVWF  00
09022:  BCF    FD8.0
09024:  RLCF   00,F
09026:  MOVF   00,W
09028:  CLRF   03
0902A:  ADDLW  5D
0902C:  MOVWF  FE9
0902E:  MOVLW  06
09030:  ADDWFC 03,W
09032:  MOVWF  FEA
09034:  MOVFF  FEC,7AB
09038:  MOVF   FED,F
0903A:  MOVFF  FEF,7AA
0903E:  MOVFF  7AB,7AC
09042:  CLRF   FAA
09044:  MOVFF  7A9,FA9
09048:  MOVFF  7AC,FA8
0904C:  BCF    FA6.6
0904E:  BCF    FA6.7
09050:  BSF    FA6.2
09052:  MOVF   FF2,W
09054:  MOVWF  00
09056:  BCF    FF2.7
09058:  MOVLB  F
0905A:  MOVLW  55
0905C:  MOVWF  FA7
0905E:  MOVLW  AA
09060:  MOVWF  FA7
09062:  BSF    FA6.1
09064:  BTFSC  FA6.1
09066:  BRA    9064
09068:  BCF    FA6.2
0906A:  MOVF   00,W
0906C:  IORWF  FF2,F
....................                delay_ms(10);     
0906E:  MOVLW  0A
09070:  MOVLB  7
09072:  MOVWF  xAF
09074:  MOVLB  0
09076:  CALL   1500
....................                write_eeprom(i+((40*Programa)-20),Horas1[i+((Programa-1)*10)]); 
0907A:  MOVLB  5
0907C:  MOVF   x98,W
0907E:  MULLW  28
09080:  MOVF   FF3,W
09082:  ADDLW  EC
09084:  ADDWF  x9C,W
09086:  MOVLB  7
09088:  MOVWF  xA9
0908A:  MOVLW  01
0908C:  MOVLB  5
0908E:  SUBWF  x98,W
09090:  MULLW  0A
09092:  MOVF   FF3,W
09094:  ADDWF  x9C,W
09096:  MOVWF  00
09098:  BCF    FD8.0
0909A:  RLCF   00,F
0909C:  MOVF   00,W
0909E:  CLRF   03
090A0:  ADDLW  C1
090A2:  MOVWF  FE9
090A4:  MOVLW  06
090A6:  ADDWFC 03,W
090A8:  MOVWF  FEA
090AA:  MOVFF  FEC,7AB
090AE:  MOVF   FED,F
090B0:  MOVFF  FEF,7AA
090B4:  CLRF   FAA
090B6:  MOVFF  7A9,FA9
090BA:  MOVFF  7AA,FA8
090BE:  BCF    FA6.6
090C0:  BCF    FA6.7
090C2:  BSF    FA6.2
090C4:  MOVF   FF2,W
090C6:  MOVWF  00
090C8:  BCF    FF2.7
090CA:  MOVLB  F
090CC:  MOVLW  55
090CE:  MOVWF  FA7
090D0:  MOVLW  AA
090D2:  MOVWF  FA7
090D4:  BSF    FA6.1
090D6:  BTFSC  FA6.1
090D8:  BRA    90D6
090DA:  BCF    FA6.2
090DC:  MOVF   00,W
090DE:  IORWF  FF2,F
....................                delay_ms(10);     
090E0:  MOVLW  0A
090E2:  MOVLB  7
090E4:  MOVWF  xAF
090E6:  MOVLB  0
090E8:  CALL   1500
....................                write_eeprom(i+((40*Programa)-10),Minutos1[i+((Programa-1)*10)]); 
090EC:  MOVLB  5
090EE:  MOVF   x98,W
090F0:  MULLW  28
090F2:  MOVF   FF3,W
090F4:  ADDLW  F6
090F6:  ADDWF  x9C,W
090F8:  MOVLB  7
090FA:  MOVWF  xA9
090FC:  MOVLW  01
090FE:  MOVLB  5
09100:  SUBWF  x98,W
09102:  MULLW  0A
09104:  MOVF   FF3,W
09106:  ADDWF  x9C,W
09108:  MOVWF  00
0910A:  BCF    FD8.0
0910C:  RLCF   00,F
0910E:  MOVF   00,W
09110:  CLRF   03
09112:  ADDLW  25
09114:  MOVWF  FE9
09116:  MOVLW  07
09118:  ADDWFC 03,W
0911A:  MOVWF  FEA
0911C:  MOVFF  FEC,7AB
09120:  MOVF   FED,F
09122:  MOVFF  FEF,7AA
09126:  CLRF   FAA
09128:  MOVFF  7A9,FA9
0912C:  MOVFF  7AA,FA8
09130:  BCF    FA6.6
09132:  BCF    FA6.7
09134:  BSF    FA6.2
09136:  MOVF   FF2,W
09138:  MOVWF  00
0913A:  BCF    FF2.7
0913C:  MOVLB  F
0913E:  MOVLW  55
09140:  MOVWF  FA7
09142:  MOVLW  AA
09144:  MOVWF  FA7
09146:  BSF    FA6.1
09148:  BTFSC  FA6.1
0914A:  BRA    9148
0914C:  BCF    FA6.2
0914E:  MOVF   00,W
09150:  IORWF  FF2,F
....................             }  
09152:  MOVLB  5
09154:  INCF   x9C,F
09156:  BRA    8F68
09158:  MOVLB  0
....................          } 
....................           
....................          if(RIGHT)//Si oprime SET 
0915A:  BSF    F96.1
0915C:  BTFSC  F84.1
0915E:  BRA    9182
....................          {  
....................             Buzz_on;delay_ms(50);Opcion++;glcd_fillscreen(OFF);Buzz_off; 
09160:  BSF    F8B.7
09162:  BCF    F94.7
09164:  MOVLW  32
09166:  MOVLB  7
09168:  MOVWF  xAF
0916A:  MOVLB  0
0916C:  CALL   1500
09170:  MOVLB  5
09172:  INCF   xA1,F
09174:  MOVLB  7
09176:  CLRF   xAA
09178:  MOVLB  0
0917A:  CALL   1580
0917E:  BCF    F8B.7
09180:  BCF    F94.7
....................          } 
....................           
....................          if(LEFT){ 
09182:  BSF    F96.2
09184:  BTFSC  F84.2
09186:  BRA    91AA
....................             Buzz_on;delay_ms(50);Opcion--;glcd_fillscreen(OFF);Buzz_off; 
09188:  BSF    F8B.7
0918A:  BCF    F94.7
0918C:  MOVLW  32
0918E:  MOVLB  7
09190:  MOVWF  xAF
09192:  MOVLB  0
09194:  CALL   1500
09198:  MOVLB  5
0919A:  DECF   xA1,F
0919C:  MOVLB  7
0919E:  CLRF   xAA
091A0:  MOVLB  0
091A2:  CALL   1580
091A6:  BCF    F8B.7
091A8:  BCF    F94.7
091AA:  MOVLB  5
....................          } 
....................    } 
.................... //_--------------------------------------------------------------------------------------------------------------------------------------------------------        
....................  
.................... //_-------------------------------------------------------------------------------------------------------------------------------------------------------- 
....................       if(Menu==20){ //Menu de Funcionamiento 
091AC:  MOVF   x9A,W
091AE:  SUBLW  14
091B0:  BTFSS  FD8.2
091B2:  GOTO   AE0A
....................        
....................       // Muestra imagen de fondo en Display GLCD       
....................       glcd_imagen(5); 
091B6:  MOVLW  05
091B8:  MOVLB  7
091BA:  MOVWF  xA9
091BC:  MOVLB  0
091BE:  GOTO   4B0A
....................       //flag_display=0; 
....................  
....................       if(UP && DOWN)//Si oprime hacia abajo 
091C2:  BSF    F92.5
091C4:  BTFSC  F80.5
091C6:  BRA    91EA
091C8:  BSF    F96.0
091CA:  BTFSC  F84.0
091CC:  BRA    91EA
....................       { 
....................          glcd_init(ON);delay_ms(200);flag_display=!flag_display;          
091CE:  MOVLW  01
091D0:  MOVLB  7
091D2:  MOVWF  xA9
091D4:  MOVLB  0
091D6:  CALL   1692
091DA:  MOVLW  C8
091DC:  MOVLB  7
091DE:  MOVWF  xAF
091E0:  MOVLB  0
091E2:  CALL   1500
091E6:  MOVLB  5
091E8:  BTG    x95.3
....................       } 
....................  
....................       if(Temperatura>1200 || Temperatura<0) 
091EA:  MOVLB  7
091EC:  CLRF   xAC
091EE:  CLRF   xAB
091F0:  MOVLW  16
091F2:  MOVWF  xAA
091F4:  MOVLW  89
091F6:  MOVWF  xA9
091F8:  MOVFF  624,7B0
091FC:  MOVFF  623,7AF
09200:  MOVFF  622,7AE
09204:  MOVFF  621,7AD
09208:  MOVLB  0
0920A:  CALL   1EEC
0920E:  BC    9232
09210:  MOVFF  624,7AC
09214:  MOVFF  623,7AB
09218:  MOVFF  622,7AA
0921C:  MOVFF  621,7A9
09220:  MOVLB  7
09222:  CLRF   xB0
09224:  CLRF   xAF
09226:  CLRF   xAE
09228:  CLRF   xAD
0922A:  MOVLB  0
0922C:  CALL   1EEC
09230:  BNC   92D2
....................       { 
....................          glcd_rect(0, 55, 127, 63, YES, OFF); 
09232:  MOVLB  7
09234:  CLRF   xC1
09236:  MOVLW  37
09238:  MOVWF  xC2
0923A:  MOVLW  7F
0923C:  MOVWF  xC3
0923E:  MOVLW  3F
09240:  MOVWF  xC4
09242:  MOVLW  01
09244:  MOVWF  xC5
09246:  CLRF   xC6
09248:  MOVLB  0
0924A:  CALL   1AEC
....................          strcpy(Menus.Letra,"Status:Sensor Descon."); 
0924E:  MOVLW  07
09250:  MOVWF  FEA
09252:  MOVLW  89
09254:  MOVWF  FE9
09256:  MOVFF  FF2,7A9
0925A:  BCF    FF2.7
0925C:  MOVLW  00
0925E:  CALL   0C36
09262:  TBLRD*-
09264:  TBLRD*+
09266:  MOVF   FF5,W
09268:  MOVWF  FEE
0926A:  IORLW  00
0926C:  BNZ   9264
0926E:  MOVLB  7
09270:  BTFSC  xA9.7
09272:  BSF    FF2.7
....................          displayMenu(Menus.Letra,0,55,2,1); 
09274:  MOVLW  07
09276:  MOVWF  xAD
09278:  MOVLW  89
0927A:  MOVWF  xAC
0927C:  CLRF   xAE
0927E:  MOVLW  37
09280:  MOVWF  xAF
09282:  MOVLW  02
09284:  MOVWF  xB0
09286:  MOVLW  01
09288:  MOVWF  xB1
0928A:  MOVLB  0
0928C:  CALL   1BAE
....................          tiempo_esterilizacion=0; 
09290:  MOVLB  5
09292:  CLRF   xA2
....................          Resistencia_off; 
09294:  BCF    F8B.0
09296:  BCF    F94.0
....................          Tpulso=0.0; 
09298:  CLRF   xF8
0929A:  CLRF   xF7
0929C:  CLRF   xF6
0929E:  CLRF   xF5
....................          flag_tiempocalentamiento=0; 
092A0:  BCF    x95.2
....................          Buzz_on; 
092A2:  BSF    F8B.7
092A4:  BCF    F94.7
....................          delay_ms(500); 
092A6:  MOVLW  02
092A8:  MOVLB  7
092AA:  MOVWF  xA9
092AC:  MOVLW  FA
092AE:  MOVWF  xAF
092B0:  MOVLB  0
092B2:  CALL   1500
092B6:  MOVLB  7
092B8:  DECFSZ xA9,F
092BA:  BRA    92AC
....................          Buzz_off; 
092BC:  BCF    F8B.7
092BE:  BCF    F94.7
....................          delay_ms(250); 
092C0:  MOVLW  FA
092C2:  MOVWF  xAF
092C4:  MOVLB  0
092C6:  CALL   1500
....................          Control=0; 
092CA:  MOVLB  5
092CC:  CLRF   x99
....................       } 
....................       else 
092CE:  BRA    9878
092D0:  MOVLB  0
....................       { 
....................           
....................          if(Pausa==0 && !DOOR) 
092D2:  MOVLB  5
092D4:  MOVF   x9E,F
092D6:  BTFSS  FD8.2
092D8:  BRA    9646
092DA:  BSF    F92.4
092DC:  BTFSC  F80.4
092DE:  BRA    9646
....................          { 
....................             Control=1; 
092E0:  MOVLW  01
092E2:  MOVWF  x99
....................              
....................             if(Temperatura>Setpoint+AlTem && AlTem>0){ 
092E4:  BCF    FD8.1
092E6:  MOVFF  630,7B2
092EA:  MOVFF  62F,7B1
092EE:  MOVFF  62E,7B0
092F2:  MOVFF  62D,7AF
092F6:  MOVFF  618,7B6
092FA:  MOVFF  617,7B5
092FE:  MOVFF  616,7B4
09302:  MOVFF  615,7B3
09306:  MOVLB  0
09308:  CALL   2BC2
0930C:  MOVFF  03,7AC
09310:  MOVFF  02,7AB
09314:  MOVFF  01,7AA
09318:  MOVFF  00,7A9
0931C:  MOVFF  624,7B0
09320:  MOVFF  623,7AF
09324:  MOVFF  622,7AE
09328:  MOVFF  621,7AD
0932C:  CALL   1EEC
09330:  BNC   935E
09332:  MOVLB  7
09334:  CLRF   xAC
09336:  CLRF   xAB
09338:  CLRF   xAA
0933A:  CLRF   xA9
0933C:  MOVFF  618,7B0
09340:  MOVFF  617,7AF
09344:  MOVFF  616,7AE
09348:  MOVFF  615,7AD
0934C:  MOVLB  0
0934E:  CALL   1EEC
09352:  BNC   935E
....................                Alarma=5; 
09354:  MOVLW  05
09356:  MOVLB  5
09358:  MOVWF  xA4
....................             }else{   
0935A:  BRA    9646
0935C:  MOVLB  0
....................                Alarma=10; 
0935E:  MOVLW  0A
09360:  MOVLB  5
09362:  MOVWF  xA4
....................                if((Temperatura>=Setpoint-10) && (Temperatura<Setpoint+10)) 
09364:  BSF    FD8.1
09366:  MOVFF  630,7B2
0936A:  MOVFF  62F,7B1
0936E:  MOVFF  62E,7B0
09372:  MOVFF  62D,7AF
09376:  MOVLB  7
09378:  CLRF   xB6
0937A:  CLRF   xB5
0937C:  MOVLW  20
0937E:  MOVWF  xB4
09380:  MOVLW  82
09382:  MOVWF  xB3
09384:  MOVLB  0
09386:  CALL   2BC2
0938A:  MOVFF  03,7AC
0938E:  MOVFF  02,7AB
09392:  MOVFF  01,7AA
09396:  MOVFF  00,7A9
0939A:  MOVFF  624,7B0
0939E:  MOVFF  623,7AF
093A2:  MOVFF  622,7AE
093A6:  MOVFF  621,7AD
093AA:  CALL   1EEC
093AE:  BC    93B4
093B0:  BTFSS  FD8.2
093B2:  BRA    9528
093B4:  BCF    FD8.1
093B6:  MOVFF  630,7B2
093BA:  MOVFF  62F,7B1
093BE:  MOVFF  62E,7B0
093C2:  MOVFF  62D,7AF
093C6:  MOVLB  7
093C8:  CLRF   xB6
093CA:  CLRF   xB5
093CC:  MOVLW  20
093CE:  MOVWF  xB4
093D0:  MOVLW  82
093D2:  MOVWF  xB3
093D4:  MOVLB  0
093D6:  CALL   2BC2
093DA:  MOVFF  624,7AC
093DE:  MOVFF  623,7AB
093E2:  MOVFF  622,7AA
093E6:  MOVFF  621,7A9
093EA:  MOVFF  03,7B0
093EE:  MOVFF  02,7AF
093F2:  MOVFF  01,7AE
093F6:  MOVFF  00,7AD
093FA:  CALL   1EEC
093FE:  BTFSS  FD8.0
09400:  BRA    9528
....................                { 
....................                   if(Pendiente!=0){ 
09402:  MOVFF  628,7AC
09406:  MOVFF  627,7AB
0940A:  MOVFF  626,7AA
0940E:  MOVFF  625,7A9
09412:  MOVLB  7
09414:  CLRF   xB0
09416:  CLRF   xAF
09418:  CLRF   xAE
0941A:  CLRF   xAD
0941C:  MOVLB  0
0941E:  CALL   1EEC
09422:  BZ    948C
....................                      tiempo_esterilizacion=1; 
09424:  MOVLW  01
09426:  MOVLB  5
09428:  MOVWF  xA2
....................                      if(flag_display==0){ 
0942A:  BTFSC  x95.3
0942C:  BRA    948E
....................                         glcd_rect(0, 55, 127, 63, YES, OFF); 
0942E:  MOVLB  7
09430:  CLRF   xC1
09432:  MOVLW  37
09434:  MOVWF  xC2
09436:  MOVLW  7F
09438:  MOVWF  xC3
0943A:  MOVLW  3F
0943C:  MOVWF  xC4
0943E:  MOVLW  01
09440:  MOVWF  xC5
09442:  CLRF   xC6
09444:  MOVLB  0
09446:  CALL   1AEC
....................                         strcpy(Menus.Letra,"Status:Controlando"); 
0944A:  MOVLW  07
0944C:  MOVWF  FEA
0944E:  MOVLW  89
09450:  MOVWF  FE9
09452:  MOVFF  FF2,7A9
09456:  BCF    FF2.7
09458:  MOVLW  00
0945A:  CALL   0C6A
0945E:  TBLRD*-
09460:  TBLRD*+
09462:  MOVF   FF5,W
09464:  MOVWF  FEE
09466:  IORLW  00
09468:  BNZ   9460
0946A:  MOVLB  7
0946C:  BTFSC  xA9.7
0946E:  BSF    FF2.7
....................                         displayMenu(Menus.Letra,0,55,2,1); 
09470:  MOVLW  07
09472:  MOVWF  xAD
09474:  MOVLW  89
09476:  MOVWF  xAC
09478:  CLRF   xAE
0947A:  MOVLW  37
0947C:  MOVWF  xAF
0947E:  MOVLW  02
09480:  MOVWF  xB0
09482:  MOVLW  01
09484:  MOVWF  xB1
09486:  MOVLB  0
09488:  CALL   1BAE
0948C:  MOVLB  5
....................                      } 
....................                   } 
....................                    
....................                   if(Pendiente==0){ 
0948E:  MOVFF  628,7AC
09492:  MOVFF  627,7AB
09496:  MOVFF  626,7AA
0949A:  MOVFF  625,7A9
0949E:  MOVLB  7
094A0:  CLRF   xB0
094A2:  CLRF   xAF
094A4:  CLRF   xAE
094A6:  CLRF   xAD
094A8:  MOVLB  0
094AA:  CALL   1EEC
094AE:  BNZ   951C
....................                      if(flag_display==0){ 
094B0:  MOVLB  5
094B2:  BTFSC  x95.3
094B4:  BRA    9516
....................                         glcd_rect(0, 55, 127, 63, YES, OFF); 
094B6:  MOVLB  7
094B8:  CLRF   xC1
094BA:  MOVLW  37
094BC:  MOVWF  xC2
094BE:  MOVLW  7F
094C0:  MOVWF  xC3
094C2:  MOVLW  3F
094C4:  MOVWF  xC4
094C6:  MOVLW  01
094C8:  MOVWF  xC5
094CA:  CLRF   xC6
094CC:  MOVLB  0
094CE:  CALL   1AEC
....................                         strcpy(Menus.Letra,"Status:Meseta  "); 
094D2:  MOVLW  07
094D4:  MOVWF  FEA
094D6:  MOVLW  89
094D8:  MOVWF  FE9
094DA:  MOVFF  FF2,7A9
094DE:  BCF    FF2.7
094E0:  MOVLW  00
094E2:  CALL   0C9C
094E6:  TBLRD*-
094E8:  TBLRD*+
094EA:  MOVF   FF5,W
094EC:  MOVWF  FEE
094EE:  IORLW  00
094F0:  BNZ   94E8
094F2:  MOVLB  7
094F4:  BTFSC  xA9.7
094F6:  BSF    FF2.7
....................                         displayMenu(Menus.Letra,0,55,2,1); 
094F8:  MOVLW  07
094FA:  MOVWF  xAD
094FC:  MOVLW  89
094FE:  MOVWF  xAC
09500:  CLRF   xAE
09502:  MOVLW  37
09504:  MOVWF  xAF
09506:  MOVLW  02
09508:  MOVWF  xB0
0950A:  MOVLW  01
0950C:  MOVWF  xB1
0950E:  MOVLB  0
09510:  CALL   1BAE
09514:  MOVLB  5
....................                      } 
....................                      tiempo_esterilizacion=2; 
09516:  MOVLW  02
09518:  MOVWF  xA2
0951A:  MOVLB  0
....................                   } 
....................                   Controla(); 
0951C:  CALL   4ED2
....................                   flag_tiempocalentamiento=0; 
09520:  MOVLB  5
09522:  BCF    x95.2
....................                } 
....................                else 
09524:  BRA    9646
09526:  MOVLB  0
....................                { 
....................                   if(Pendiente!=0){ 
09528:  MOVFF  628,7AC
0952C:  MOVFF  627,7AB
09530:  MOVFF  626,7AA
09534:  MOVFF  625,7A9
09538:  MOVLB  7
0953A:  CLRF   xB0
0953C:  CLRF   xAF
0953E:  CLRF   xAE
09540:  CLRF   xAD
09542:  MOVLB  0
09544:  CALL   1EEC
09548:  BZ    95B2
....................                      tiempo_esterilizacion=1; 
0954A:  MOVLW  01
0954C:  MOVLB  5
0954E:  MOVWF  xA2
....................                      if(flag_display==0){ 
09550:  BTFSC  x95.3
09552:  BRA    95B4
....................                         glcd_rect(0, 55, 127, 63, YES, OFF); 
09554:  MOVLB  7
09556:  CLRF   xC1
09558:  MOVLW  37
0955A:  MOVWF  xC2
0955C:  MOVLW  7F
0955E:  MOVWF  xC3
09560:  MOVLW  3F
09562:  MOVWF  xC4
09564:  MOVLW  01
09566:  MOVWF  xC5
09568:  CLRF   xC6
0956A:  MOVLB  0
0956C:  CALL   1AEC
....................                         strcpy(Menus.Letra,"Status:Rampa  "); 
09570:  MOVLW  07
09572:  MOVWF  FEA
09574:  MOVLW  89
09576:  MOVWF  FE9
09578:  MOVFF  FF2,7A9
0957C:  BCF    FF2.7
0957E:  MOVLW  00
09580:  CALL   0CCA
09584:  TBLRD*-
09586:  TBLRD*+
09588:  MOVF   FF5,W
0958A:  MOVWF  FEE
0958C:  IORLW  00
0958E:  BNZ   9586
09590:  MOVLB  7
09592:  BTFSC  xA9.7
09594:  BSF    FF2.7
....................                         displayMenu(Menus.Letra,0,55,2,1); 
09596:  MOVLW  07
09598:  MOVWF  xAD
0959A:  MOVLW  89
0959C:  MOVWF  xAC
0959E:  CLRF   xAE
095A0:  MOVLW  37
095A2:  MOVWF  xAF
095A4:  MOVLW  02
095A6:  MOVWF  xB0
095A8:  MOVLW  01
095AA:  MOVWF  xB1
095AC:  MOVLB  0
095AE:  CALL   1BAE
095B2:  MOVLB  5
....................                      } 
....................                   } 
....................                    
....................                   if(Pendiente==0){ 
095B4:  MOVFF  628,7AC
095B8:  MOVFF  627,7AB
095BC:  MOVFF  626,7AA
095C0:  MOVFF  625,7A9
095C4:  MOVLB  7
095C6:  CLRF   xB0
095C8:  CLRF   xAF
095CA:  CLRF   xAE
095CC:  CLRF   xAD
095CE:  MOVLB  0
095D0:  CALL   1EEC
095D4:  BNZ   9640
....................                      if(flag_display==0){ 
095D6:  MOVLB  5
095D8:  BTFSC  x95.3
095DA:  BRA    963C
....................                         glcd_rect(0, 55, 127, 63, YES, OFF); 
095DC:  MOVLB  7
095DE:  CLRF   xC1
095E0:  MOVLW  37
095E2:  MOVWF  xC2
095E4:  MOVLW  7F
095E6:  MOVWF  xC3
095E8:  MOVLW  3F
095EA:  MOVWF  xC4
095EC:  MOVLW  01
095EE:  MOVWF  xC5
095F0:  CLRF   xC6
095F2:  MOVLB  0
095F4:  CALL   1AEC
....................                         strcpy(Menus.Letra,"Status:Calentando"); 
095F8:  MOVLW  07
095FA:  MOVWF  FEA
095FC:  MOVLW  89
095FE:  MOVWF  FE9
09600:  MOVFF  FF2,7A9
09604:  BCF    FF2.7
09606:  MOVLW  00
09608:  CALL   0CF8
0960C:  TBLRD*-
0960E:  TBLRD*+
09610:  MOVF   FF5,W
09612:  MOVWF  FEE
09614:  IORLW  00
09616:  BNZ   960E
09618:  MOVLB  7
0961A:  BTFSC  xA9.7
0961C:  BSF    FF2.7
....................                         displayMenu(Menus.Letra,0,55,2,1); 
0961E:  MOVLW  07
09620:  MOVWF  xAD
09622:  MOVLW  89
09624:  MOVWF  xAC
09626:  CLRF   xAE
09628:  MOVLW  37
0962A:  MOVWF  xAF
0962C:  MOVLW  02
0962E:  MOVWF  xB0
09630:  MOVLW  01
09632:  MOVWF  xB1
09634:  MOVLB  0
09636:  CALL   1BAE
0963A:  MOVLB  5
....................                      } 
....................                      tiempo_esterilizacion=0; 
0963C:  CLRF   xA2
0963E:  MOVLB  0
....................                   } 
....................                   Controla(); 
09640:  CALL   4ED2
09644:  MOVLB  5
....................                } 
....................             } 
....................          } 
....................           
....................          if(Alarma==5){ 
09646:  MOVF   xA4,W
09648:  SUBLW  05
0964A:  BNZ   9712
....................             Control=0;             
0964C:  CLRF   x99
....................             flag_tiempocalentamiento=0; 
0964E:  BCF    x95.2
....................             tiempo_esterilizacion=0; 
09650:  CLRF   xA2
....................             Resistencia_off; 
09652:  BCF    F8B.0
09654:  BCF    F94.0
....................             if(flag_clear2==0) 
09656:  BTFSC  x95.1
09658:  BRA    969A
....................             { 
....................                //Ganancia=read_eeprom(90); 
....................                //Ganancia=Setpoint*(Ganancia/Coeficiente); 
....................                //glcd_fillScreen(OFF); 
....................                glcd_fillScreen(OFF); 
0965A:  MOVLB  7
0965C:  CLRF   xAA
0965E:  MOVLB  0
09660:  CALL   1580
....................                glcd_init(ON); 
09664:  MOVLW  01
09666:  MOVLB  7
09668:  MOVWF  xA9
0966A:  MOVLB  0
0966C:  CALL   1692
....................                glcd_rect(0, 55, 127, 63, YES, OFF); 
09670:  MOVLB  7
09672:  CLRF   xC1
09674:  MOVLW  37
09676:  MOVWF  xC2
09678:  MOVLW  7F
0967A:  MOVWF  xC3
0967C:  MOVLW  3F
0967E:  MOVWF  xC4
09680:  MOVLW  01
09682:  MOVWF  xC5
09684:  CLRF   xC6
09686:  MOVLB  0
09688:  CALL   1AEC
....................                Tpulso=0.0; 
0968C:  MOVLB  5
0968E:  CLRF   xF8
09690:  CLRF   xF7
09692:  CLRF   xF6
09694:  CLRF   xF5
....................                flag_clear2=1; 
09696:  BSF    x95.1
....................                flag_ganancia=0; 
09698:  CLRF   x8E
....................             } 
....................             strcpy(Menus.Letra,"Status:Sobre Temp"); 
0969A:  MOVLW  07
0969C:  MOVWF  FEA
0969E:  MOVLW  89
096A0:  MOVWF  FE9
096A2:  MOVFF  FF2,7A9
096A6:  BCF    FF2.7
096A8:  MOVLW  00
096AA:  MOVLB  0
096AC:  CALL   0D28
096B0:  TBLRD*-
096B2:  TBLRD*+
096B4:  MOVF   FF5,W
096B6:  MOVWF  FEE
096B8:  IORLW  00
096BA:  BNZ   96B2
096BC:  MOVLB  7
096BE:  BTFSC  xA9.7
096C0:  BSF    FF2.7
....................             displayMenu(Menus.Letra,0,55,2,1); 
096C2:  MOVLW  07
096C4:  MOVWF  xAD
096C6:  MOVLW  89
096C8:  MOVWF  xAC
096CA:  CLRF   xAE
096CC:  MOVLW  37
096CE:  MOVWF  xAF
096D0:  MOVLW  02
096D2:  MOVWF  xB0
096D4:  MOVLW  01
096D6:  MOVWF  xB1
096D8:  MOVLB  0
096DA:  CALL   1BAE
....................             Buzz_on; 
096DE:  BSF    F8B.7
096E0:  BCF    F94.7
....................             delay_ms(1000); 
096E2:  MOVLW  04
096E4:  MOVLB  7
096E6:  MOVWF  xA9
096E8:  MOVLW  FA
096EA:  MOVWF  xAF
096EC:  MOVLB  0
096EE:  CALL   1500
096F2:  MOVLB  7
096F4:  DECFSZ xA9,F
096F6:  BRA    96E8
....................             Buzz_off; 
096F8:  BCF    F8B.7
096FA:  BCF    F94.7
....................             delay_ms(1000); 
096FC:  MOVLW  04
096FE:  MOVWF  xA9
09700:  MOVLW  FA
09702:  MOVWF  xAF
09704:  MOVLB  0
09706:  CALL   1500
0970A:  MOVLB  7
0970C:  DECFSZ xA9,F
0970E:  BRA    9700
09710:  MOVLB  5
....................          } 
....................           
....................          if(Pausa==1 && !DOOR) 
09712:  DECFSZ x9E,W
09714:  BRA    9774
09716:  BSF    F92.4
09718:  BTFSC  F80.4
0971A:  BRA    9774
....................          { 
....................             flag_tiempocalentamiento=0; 
0971C:  BCF    x95.2
....................             strcpy(Menus.Letra,"Status:Pausado"); 
0971E:  MOVLW  07
09720:  MOVWF  FEA
09722:  MOVLW  89
09724:  MOVWF  FE9
09726:  MOVFF  FF2,7A9
0972A:  BCF    FF2.7
0972C:  MOVLW  00
0972E:  MOVLB  0
09730:  CALL   0D58
09734:  TBLRD*-
09736:  TBLRD*+
09738:  MOVF   FF5,W
0973A:  MOVWF  FEE
0973C:  IORLW  00
0973E:  BNZ   9736
09740:  MOVLB  7
09742:  BTFSC  xA9.7
09744:  BSF    FF2.7
....................             displayMenu(Menus.Letra,0,55,2,1); 
09746:  MOVLW  07
09748:  MOVWF  xAD
0974A:  MOVLW  89
0974C:  MOVWF  xAC
0974E:  CLRF   xAE
09750:  MOVLW  37
09752:  MOVWF  xAF
09754:  MOVLW  02
09756:  MOVWF  xB0
09758:  MOVLW  01
0975A:  MOVWF  xB1
0975C:  MOVLB  0
0975E:  CALL   1BAE
....................             tiempo_esterilizacion=0; 
09762:  MOVLB  5
09764:  CLRF   xA2
....................             Control=0; 
09766:  CLRF   x99
....................             Resistencia_off; 
09768:  BCF    F8B.0
0976A:  BCF    F94.0
....................             Tpulso=0.0; 
0976C:  CLRF   xF8
0976E:  CLRF   xF7
09770:  CLRF   xF6
09772:  CLRF   xF5
....................          } 
....................           
....................          if(DOOR) 
09774:  BSF    F92.4
09776:  BTFSS  F80.4
09778:  BRA    9842
....................          { 
....................             Control=0;             
0977A:  CLRF   x99
....................             flag_tiempocalentamiento=0; 
0977C:  BCF    x95.2
....................             tiempo_esterilizacion=0; 
0977E:  CLRF   xA2
....................             Resistencia_off; 
09780:  BCF    F8B.0
09782:  BCF    F94.0
....................             if(flag_clear2==0) 
09784:  BTFSC  x95.1
09786:  BRA    97C8
....................             { 
....................                //Ganancia=read_eeprom(90); 
....................                //Ganancia=Setpoint*(Ganancia/Coeficiente); 
....................                //glcd_fillScreen(OFF); 
....................                glcd_fillScreen(OFF); 
09788:  MOVLB  7
0978A:  CLRF   xAA
0978C:  MOVLB  0
0978E:  CALL   1580
....................                glcd_init(ON); 
09792:  MOVLW  01
09794:  MOVLB  7
09796:  MOVWF  xA9
09798:  MOVLB  0
0979A:  CALL   1692
....................                glcd_rect(0, 55, 127, 63, YES, OFF); 
0979E:  MOVLB  7
097A0:  CLRF   xC1
097A2:  MOVLW  37
097A4:  MOVWF  xC2
097A6:  MOVLW  7F
097A8:  MOVWF  xC3
097AA:  MOVLW  3F
097AC:  MOVWF  xC4
097AE:  MOVLW  01
097B0:  MOVWF  xC5
097B2:  CLRF   xC6
097B4:  MOVLB  0
097B6:  CALL   1AEC
....................                Tpulso=0.0; 
097BA:  MOVLB  5
097BC:  CLRF   xF8
097BE:  CLRF   xF7
097C0:  CLRF   xF6
097C2:  CLRF   xF5
....................                flag_clear2=1; 
097C4:  BSF    x95.1
....................                flag_ganancia=0; 
097C6:  CLRF   x8E
....................             } 
....................             strcpy(Menus.Letra,"Status:Puerta Abierta"); 
097C8:  MOVLW  07
097CA:  MOVWF  FEA
097CC:  MOVLW  89
097CE:  MOVWF  FE9
097D0:  MOVFF  FF2,7A9
097D4:  BCF    FF2.7
097D6:  MOVLW  00
097D8:  MOVLB  0
097DA:  CALL   0D86
097DE:  TBLRD*-
097E0:  TBLRD*+
097E2:  MOVF   FF5,W
097E4:  MOVWF  FEE
097E6:  IORLW  00
097E8:  BNZ   97E0
097EA:  MOVLB  7
097EC:  BTFSC  xA9.7
097EE:  BSF    FF2.7
....................             displayMenu(Menus.Letra,0,55,2,1); 
097F0:  MOVLW  07
097F2:  MOVWF  xAD
097F4:  MOVLW  89
097F6:  MOVWF  xAC
097F8:  CLRF   xAE
097FA:  MOVLW  37
097FC:  MOVWF  xAF
097FE:  MOVLW  02
09800:  MOVWF  xB0
09802:  MOVLW  01
09804:  MOVWF  xB1
09806:  MOVLB  0
09808:  CALL   1BAE
....................             Buzz_on; 
0980C:  BSF    F8B.7
0980E:  BCF    F94.7
....................             delay_ms(1000); 
09810:  MOVLW  04
09812:  MOVLB  7
09814:  MOVWF  xA9
09816:  MOVLW  FA
09818:  MOVWF  xAF
0981A:  MOVLB  0
0981C:  CALL   1500
09820:  MOVLB  7
09822:  DECFSZ xA9,F
09824:  BRA    9816
....................             Buzz_off; 
09826:  BCF    F8B.7
09828:  BCF    F94.7
....................             delay_ms(1000); 
0982A:  MOVLW  04
0982C:  MOVWF  xA9
0982E:  MOVLW  FA
09830:  MOVWF  xAF
09832:  MOVLB  0
09834:  CALL   1500
09838:  MOVLB  7
0983A:  DECFSZ xA9,F
0983C:  BRA    982E
....................          } 
....................          else 
0983E:  BRA    987A
09840:  MOVLB  5
....................          { 
....................             Buzz_off; 
09842:  BCF    F8B.7
09844:  BCF    F94.7
....................             if(flag_clear2==1) 
09846:  BTFSS  x95.1
09848:  BRA    9878
....................             { 
....................                Pausa=Pausa_ant; 
0984A:  MOVFF  59F,59E
....................                glcd_fillScreen(OFF); 
0984E:  MOVLB  7
09850:  CLRF   xAA
09852:  MOVLB  0
09854:  CALL   1580
....................                glcd_rect(0, 55, 127, 63, YES, OFF); 
09858:  MOVLB  7
0985A:  CLRF   xC1
0985C:  MOVLW  37
0985E:  MOVWF  xC2
09860:  MOVLW  7F
09862:  MOVWF  xC3
09864:  MOVLW  3F
09866:  MOVWF  xC4
09868:  MOVLW  01
0986A:  MOVWF  xC5
0986C:  CLRF   xC6
0986E:  MOVLB  0
09870:  CALL   1AEC
....................                flag_clear2=0; 
09874:  MOVLB  5
09876:  BCF    x95.1
09878:  MOVLB  7
....................             } 
....................          } 
....................       } 
....................        
....................       if(UP)//Si oprime hacia arriba 
0987A:  BSF    F92.5
0987C:  BTFSC  F80.5
0987E:  GOTO   A52E
....................       { 
....................          glcd_fillscreen(OFF); 
09882:  CLRF   xAA
09884:  MOVLB  0
09886:  CALL   1580
....................                glcd_line(27,0,27,55,ON); 
0988A:  MOVLW  1B
0988C:  MOVLB  7
0988E:  MOVWF  xCD
09890:  CLRF   xCE
09892:  MOVWF  xCF
09894:  MOVLW  37
09896:  MOVWF  xD0
09898:  MOVLW  01
0989A:  MOVWF  xD1
0989C:  MOVLB  0
0989E:  CALL   19AE
....................                glcd_line(27,55,127,55,ON); 
098A2:  MOVLW  1B
098A4:  MOVLB  7
098A6:  MOVWF  xCD
098A8:  MOVLW  37
098AA:  MOVWF  xCE
098AC:  MOVLW  7F
098AE:  MOVWF  xCF
098B0:  MOVLW  37
098B2:  MOVWF  xD0
098B4:  MOVLW  01
098B6:  MOVWF  xD1
098B8:  MOVLB  0
098BA:  CALL   19AE
....................                 
....................                strcpy(Menus.Letra,"Grafica Rampas");displayMenu(Menus.Letra,0,0,1,1);  
098BE:  MOVLW  07
098C0:  MOVWF  FEA
098C2:  MOVLW  89
098C4:  MOVWF  FE9
098C6:  MOVFF  FF2,7A9
098CA:  BCF    FF2.7
098CC:  MOVLW  00
098CE:  CALL   0DBA
098D2:  TBLRD*-
098D4:  TBLRD*+
098D6:  MOVF   FF5,W
098D8:  MOVWF  FEE
098DA:  IORLW  00
098DC:  BNZ   98D4
098DE:  MOVLB  7
098E0:  BTFSC  xA9.7
098E2:  BSF    FF2.7
098E4:  MOVLW  07
098E6:  MOVWF  xAD
098E8:  MOVLW  89
098EA:  MOVWF  xAC
098EC:  CLRF   xAE
098EE:  CLRF   xAF
098F0:  MOVLW  01
098F2:  MOVWF  xB0
098F4:  MOVWF  xB1
098F6:  MOVLB  0
098F8:  CALL   1BAE
....................                 
....................                glcd_line(24,55-10,27,55-10,ON); 
098FC:  MOVLW  18
098FE:  MOVLB  7
09900:  MOVWF  xCD
09902:  MOVLW  2D
09904:  MOVWF  xCE
09906:  MOVLW  1B
09908:  MOVWF  xCF
0990A:  MOVLW  2D
0990C:  MOVWF  xD0
0990E:  MOVLW  01
09910:  MOVWF  xD1
09912:  MOVLB  0
09914:  CALL   19AE
....................                strcpy(Menus.Letra,"300");displayMenu(Menus.Letra,0,55-15,2,1);  
09918:  MOVLW  07
0991A:  MOVWF  FEA
0991C:  MOVLW  89
0991E:  MOVWF  FE9
09920:  MOVFF  FF2,7A9
09924:  BCF    FF2.7
09926:  MOVLW  00
09928:  CALL   0DE8
0992C:  TBLRD*-
0992E:  TBLRD*+
09930:  MOVF   FF5,W
09932:  MOVWF  FEE
09934:  IORLW  00
09936:  BNZ   992E
09938:  MOVLB  7
0993A:  BTFSC  xA9.7
0993C:  BSF    FF2.7
0993E:  MOVLW  07
09940:  MOVWF  xAD
09942:  MOVLW  89
09944:  MOVWF  xAC
09946:  CLRF   xAE
09948:  MOVLW  28
0994A:  MOVWF  xAF
0994C:  MOVLW  02
0994E:  MOVWF  xB0
09950:  MOVLW  01
09952:  MOVWF  xB1
09954:  MOVLB  0
09956:  CALL   1BAE
....................                glcd_line(24,55-20,27,55-20,ON); 
0995A:  MOVLW  18
0995C:  MOVLB  7
0995E:  MOVWF  xCD
09960:  MOVLW  23
09962:  MOVWF  xCE
09964:  MOVLW  1B
09966:  MOVWF  xCF
09968:  MOVLW  23
0996A:  MOVWF  xD0
0996C:  MOVLW  01
0996E:  MOVWF  xD1
09970:  MOVLB  0
09972:  CALL   19AE
....................                strcpy(Menus.Letra,"600");displayMenu(Menus.Letra,0,55-25,2,1);  
09976:  MOVLW  07
09978:  MOVWF  FEA
0997A:  MOVLW  89
0997C:  MOVWF  FE9
0997E:  MOVFF  FF2,7A9
09982:  BCF    FF2.7
09984:  MOVLW  00
09986:  CALL   0E0A
0998A:  TBLRD*-
0998C:  TBLRD*+
0998E:  MOVF   FF5,W
09990:  MOVWF  FEE
09992:  IORLW  00
09994:  BNZ   998C
09996:  MOVLB  7
09998:  BTFSC  xA9.7
0999A:  BSF    FF2.7
0999C:  MOVLW  07
0999E:  MOVWF  xAD
099A0:  MOVLW  89
099A2:  MOVWF  xAC
099A4:  CLRF   xAE
099A6:  MOVLW  1E
099A8:  MOVWF  xAF
099AA:  MOVLW  02
099AC:  MOVWF  xB0
099AE:  MOVLW  01
099B0:  MOVWF  xB1
099B2:  MOVLB  0
099B4:  CALL   1BAE
....................                glcd_line(24,55-30,27,55-30,ON); 
099B8:  MOVLW  18
099BA:  MOVLB  7
099BC:  MOVWF  xCD
099BE:  MOVLW  19
099C0:  MOVWF  xCE
099C2:  MOVLW  1B
099C4:  MOVWF  xCF
099C6:  MOVLW  19
099C8:  MOVWF  xD0
099CA:  MOVLW  01
099CC:  MOVWF  xD1
099CE:  MOVLB  0
099D0:  CALL   19AE
....................                strcpy(Menus.Letra,"900");displayMenu(Menus.Letra,0,55-35,2,1); 
099D4:  MOVLW  07
099D6:  MOVWF  FEA
099D8:  MOVLW  89
099DA:  MOVWF  FE9
099DC:  MOVFF  FF2,7A9
099E0:  BCF    FF2.7
099E2:  MOVLW  00
099E4:  CALL   0E2C
099E8:  TBLRD*-
099EA:  TBLRD*+
099EC:  MOVF   FF5,W
099EE:  MOVWF  FEE
099F0:  IORLW  00
099F2:  BNZ   99EA
099F4:  MOVLB  7
099F6:  BTFSC  xA9.7
099F8:  BSF    FF2.7
099FA:  MOVLW  07
099FC:  MOVWF  xAD
099FE:  MOVLW  89
09A00:  MOVWF  xAC
09A02:  CLRF   xAE
09A04:  MOVLW  14
09A06:  MOVWF  xAF
09A08:  MOVLW  02
09A0A:  MOVWF  xB0
09A0C:  MOVLW  01
09A0E:  MOVWF  xB1
09A10:  MOVLB  0
09A12:  CALL   1BAE
....................                glcd_line(24,55-40,27,55-40,ON); 
09A16:  MOVLW  18
09A18:  MOVLB  7
09A1A:  MOVWF  xCD
09A1C:  MOVLW  0F
09A1E:  MOVWF  xCE
09A20:  MOVLW  1B
09A22:  MOVWF  xCF
09A24:  MOVLW  0F
09A26:  MOVWF  xD0
09A28:  MOVLW  01
09A2A:  MOVWF  xD1
09A2C:  MOVLB  0
09A2E:  CALL   19AE
....................                strcpy(Menus.Letra,"1200");displayMenu(Menus.Letra,0,55-45,2,1);  
09A32:  MOVLW  07
09A34:  MOVWF  FEA
09A36:  MOVLW  89
09A38:  MOVWF  FE9
09A3A:  MOVFF  FF2,7A9
09A3E:  BCF    FF2.7
09A40:  MOVLW  00
09A42:  CALL   0E4E
09A46:  TBLRD*-
09A48:  TBLRD*+
09A4A:  MOVF   FF5,W
09A4C:  MOVWF  FEE
09A4E:  IORLW  00
09A50:  BNZ   9A48
09A52:  MOVLB  7
09A54:  BTFSC  xA9.7
09A56:  BSF    FF2.7
09A58:  MOVLW  07
09A5A:  MOVWF  xAD
09A5C:  MOVLW  89
09A5E:  MOVWF  xAC
09A60:  CLRF   xAE
09A62:  MOVLW  0A
09A64:  MOVWF  xAF
09A66:  MOVLW  02
09A68:  MOVWF  xB0
09A6A:  MOVLW  01
09A6C:  MOVWF  xB1
09A6E:  MOVLB  0
09A70:  CALL   1BAE
....................                 
....................                if(Segmento==0){ 
09A74:  MOVLB  5
09A76:  MOVF   x93,F
09A78:  BNZ   9AC0
....................                   strcpy(Menus.Letra,"s0");displayMenu(Menus.Letra,16,56,1,1);} 
09A7A:  MOVLW  07
09A7C:  MOVWF  FEA
09A7E:  MOVLW  89
09A80:  MOVWF  FE9
09A82:  MOVFF  FF2,7A9
09A86:  BCF    FF2.7
09A88:  MOVLW  00
09A8A:  MOVLB  0
09A8C:  CALL   0E72
09A90:  TBLRD*-
09A92:  TBLRD*+
09A94:  MOVF   FF5,W
09A96:  MOVWF  FEE
09A98:  IORLW  00
09A9A:  BNZ   9A92
09A9C:  MOVLB  7
09A9E:  BTFSC  xA9.7
09AA0:  BSF    FF2.7
09AA2:  MOVLW  07
09AA4:  MOVWF  xAD
09AA6:  MOVLW  89
09AA8:  MOVWF  xAC
09AAA:  MOVLW  10
09AAC:  MOVWF  xAE
09AAE:  MOVLW  38
09AB0:  MOVWF  xAF
09AB2:  MOVLW  01
09AB4:  MOVWF  xB0
09AB6:  MOVWF  xB1
09AB8:  MOVLB  0
09ABA:  CALL   1BAE
09ABE:  MOVLB  5
....................                    
....................                if(Segmento==1){ 
09AC0:  DECFSZ x93,W
09AC2:  BRA    9B0A
....................                   strcpy(Menus.Letra,"s1");displayMenu(Menus.Letra,27,56,1,1);} 
09AC4:  MOVLW  07
09AC6:  MOVWF  FEA
09AC8:  MOVLW  89
09ACA:  MOVWF  FE9
09ACC:  MOVFF  FF2,7A9
09AD0:  BCF    FF2.7
09AD2:  MOVLW  00
09AD4:  MOVLB  0
09AD6:  CALL   0E94
09ADA:  TBLRD*-
09ADC:  TBLRD*+
09ADE:  MOVF   FF5,W
09AE0:  MOVWF  FEE
09AE2:  IORLW  00
09AE4:  BNZ   9ADC
09AE6:  MOVLB  7
09AE8:  BTFSC  xA9.7
09AEA:  BSF    FF2.7
09AEC:  MOVLW  07
09AEE:  MOVWF  xAD
09AF0:  MOVLW  89
09AF2:  MOVWF  xAC
09AF4:  MOVLW  1B
09AF6:  MOVWF  xAE
09AF8:  MOVLW  38
09AFA:  MOVWF  xAF
09AFC:  MOVLW  01
09AFE:  MOVWF  xB0
09B00:  MOVWF  xB1
09B02:  MOVLB  0
09B04:  CALL   1BAE
09B08:  MOVLB  5
....................                    
....................                if(Segmento==2){ 
09B0A:  MOVF   x93,W
09B0C:  SUBLW  02
09B0E:  BNZ   9B56
....................                   strcpy(Menus.Letra,"s2");displayMenu(Menus.Letra,38,56,1,1);} 
09B10:  MOVLW  07
09B12:  MOVWF  FEA
09B14:  MOVLW  89
09B16:  MOVWF  FE9
09B18:  MOVFF  FF2,7A9
09B1C:  BCF    FF2.7
09B1E:  MOVLW  00
09B20:  MOVLB  0
09B22:  CALL   0EB6
09B26:  TBLRD*-
09B28:  TBLRD*+
09B2A:  MOVF   FF5,W
09B2C:  MOVWF  FEE
09B2E:  IORLW  00
09B30:  BNZ   9B28
09B32:  MOVLB  7
09B34:  BTFSC  xA9.7
09B36:  BSF    FF2.7
09B38:  MOVLW  07
09B3A:  MOVWF  xAD
09B3C:  MOVLW  89
09B3E:  MOVWF  xAC
09B40:  MOVLW  26
09B42:  MOVWF  xAE
09B44:  MOVLW  38
09B46:  MOVWF  xAF
09B48:  MOVLW  01
09B4A:  MOVWF  xB0
09B4C:  MOVWF  xB1
09B4E:  MOVLB  0
09B50:  CALL   1BAE
09B54:  MOVLB  5
....................                    
....................                if(Segmento==3){ 
09B56:  MOVF   x93,W
09B58:  SUBLW  03
09B5A:  BNZ   9BA2
....................                   strcpy(Menus.Letra,"s3");displayMenu(Menus.Letra,49,56,1,1);} 
09B5C:  MOVLW  07
09B5E:  MOVWF  FEA
09B60:  MOVLW  89
09B62:  MOVWF  FE9
09B64:  MOVFF  FF2,7A9
09B68:  BCF    FF2.7
09B6A:  MOVLW  00
09B6C:  MOVLB  0
09B6E:  CALL   0ED8
09B72:  TBLRD*-
09B74:  TBLRD*+
09B76:  MOVF   FF5,W
09B78:  MOVWF  FEE
09B7A:  IORLW  00
09B7C:  BNZ   9B74
09B7E:  MOVLB  7
09B80:  BTFSC  xA9.7
09B82:  BSF    FF2.7
09B84:  MOVLW  07
09B86:  MOVWF  xAD
09B88:  MOVLW  89
09B8A:  MOVWF  xAC
09B8C:  MOVLW  31
09B8E:  MOVWF  xAE
09B90:  MOVLW  38
09B92:  MOVWF  xAF
09B94:  MOVLW  01
09B96:  MOVWF  xB0
09B98:  MOVWF  xB1
09B9A:  MOVLB  0
09B9C:  CALL   1BAE
09BA0:  MOVLB  5
....................                    
....................                if(Segmento==4){ 
09BA2:  MOVF   x93,W
09BA4:  SUBLW  04
09BA6:  BNZ   9BEE
....................                   strcpy(Menus.Letra,"s4");displayMenu(Menus.Letra,60,56,1,1);} 
09BA8:  MOVLW  07
09BAA:  MOVWF  FEA
09BAC:  MOVLW  89
09BAE:  MOVWF  FE9
09BB0:  MOVFF  FF2,7A9
09BB4:  BCF    FF2.7
09BB6:  MOVLW  00
09BB8:  MOVLB  0
09BBA:  CALL   0EFA
09BBE:  TBLRD*-
09BC0:  TBLRD*+
09BC2:  MOVF   FF5,W
09BC4:  MOVWF  FEE
09BC6:  IORLW  00
09BC8:  BNZ   9BC0
09BCA:  MOVLB  7
09BCC:  BTFSC  xA9.7
09BCE:  BSF    FF2.7
09BD0:  MOVLW  07
09BD2:  MOVWF  xAD
09BD4:  MOVLW  89
09BD6:  MOVWF  xAC
09BD8:  MOVLW  3C
09BDA:  MOVWF  xAE
09BDC:  MOVLW  38
09BDE:  MOVWF  xAF
09BE0:  MOVLW  01
09BE2:  MOVWF  xB0
09BE4:  MOVWF  xB1
09BE6:  MOVLB  0
09BE8:  CALL   1BAE
09BEC:  MOVLB  5
....................                    
....................                if(Segmento==5){ 
09BEE:  MOVF   x93,W
09BF0:  SUBLW  05
09BF2:  BNZ   9C3A
....................                   strcpy(Menus.Letra,"s5");displayMenu(Menus.Letra,71,56,1,1);} 
09BF4:  MOVLW  07
09BF6:  MOVWF  FEA
09BF8:  MOVLW  89
09BFA:  MOVWF  FE9
09BFC:  MOVFF  FF2,7A9
09C00:  BCF    FF2.7
09C02:  MOVLW  00
09C04:  MOVLB  0
09C06:  CALL   0F1C
09C0A:  TBLRD*-
09C0C:  TBLRD*+
09C0E:  MOVF   FF5,W
09C10:  MOVWF  FEE
09C12:  IORLW  00
09C14:  BNZ   9C0C
09C16:  MOVLB  7
09C18:  BTFSC  xA9.7
09C1A:  BSF    FF2.7
09C1C:  MOVLW  07
09C1E:  MOVWF  xAD
09C20:  MOVLW  89
09C22:  MOVWF  xAC
09C24:  MOVLW  47
09C26:  MOVWF  xAE
09C28:  MOVLW  38
09C2A:  MOVWF  xAF
09C2C:  MOVLW  01
09C2E:  MOVWF  xB0
09C30:  MOVWF  xB1
09C32:  MOVLB  0
09C34:  CALL   1BAE
09C38:  MOVLB  5
....................                    
....................                if(Segmento==6){ 
09C3A:  MOVF   x93,W
09C3C:  SUBLW  06
09C3E:  BNZ   9C86
....................                   strcpy(Menus.Letra,"s6");displayMenu(Menus.Letra,82,56,1,1);} 
09C40:  MOVLW  07
09C42:  MOVWF  FEA
09C44:  MOVLW  89
09C46:  MOVWF  FE9
09C48:  MOVFF  FF2,7A9
09C4C:  BCF    FF2.7
09C4E:  MOVLW  00
09C50:  MOVLB  0
09C52:  CALL   0F3E
09C56:  TBLRD*-
09C58:  TBLRD*+
09C5A:  MOVF   FF5,W
09C5C:  MOVWF  FEE
09C5E:  IORLW  00
09C60:  BNZ   9C58
09C62:  MOVLB  7
09C64:  BTFSC  xA9.7
09C66:  BSF    FF2.7
09C68:  MOVLW  07
09C6A:  MOVWF  xAD
09C6C:  MOVLW  89
09C6E:  MOVWF  xAC
09C70:  MOVLW  52
09C72:  MOVWF  xAE
09C74:  MOVLW  38
09C76:  MOVWF  xAF
09C78:  MOVLW  01
09C7A:  MOVWF  xB0
09C7C:  MOVWF  xB1
09C7E:  MOVLB  0
09C80:  CALL   1BAE
09C84:  MOVLB  5
....................                    
....................                if(Segmento==7){ 
09C86:  MOVF   x93,W
09C88:  SUBLW  07
09C8A:  BNZ   9CD2
....................                   strcpy(Menus.Letra,"s7");displayMenu(Menus.Letra,93,56,1,1);} 
09C8C:  MOVLW  07
09C8E:  MOVWF  FEA
09C90:  MOVLW  89
09C92:  MOVWF  FE9
09C94:  MOVFF  FF2,7A9
09C98:  BCF    FF2.7
09C9A:  MOVLW  00
09C9C:  MOVLB  0
09C9E:  CALL   0F60
09CA2:  TBLRD*-
09CA4:  TBLRD*+
09CA6:  MOVF   FF5,W
09CA8:  MOVWF  FEE
09CAA:  IORLW  00
09CAC:  BNZ   9CA4
09CAE:  MOVLB  7
09CB0:  BTFSC  xA9.7
09CB2:  BSF    FF2.7
09CB4:  MOVLW  07
09CB6:  MOVWF  xAD
09CB8:  MOVLW  89
09CBA:  MOVWF  xAC
09CBC:  MOVLW  5D
09CBE:  MOVWF  xAE
09CC0:  MOVLW  38
09CC2:  MOVWF  xAF
09CC4:  MOVLW  01
09CC6:  MOVWF  xB0
09CC8:  MOVWF  xB1
09CCA:  MOVLB  0
09CCC:  CALL   1BAE
09CD0:  MOVLB  5
....................                    
....................                if(Segmento==8){ 
09CD2:  MOVF   x93,W
09CD4:  SUBLW  08
09CD6:  BNZ   9D1E
....................                   strcpy(Menus.Letra,"s8");displayMenu(Menus.Letra,104,56,1,1);} 
09CD8:  MOVLW  07
09CDA:  MOVWF  FEA
09CDC:  MOVLW  89
09CDE:  MOVWF  FE9
09CE0:  MOVFF  FF2,7A9
09CE4:  BCF    FF2.7
09CE6:  MOVLW  00
09CE8:  MOVLB  0
09CEA:  CALL   0F82
09CEE:  TBLRD*-
09CF0:  TBLRD*+
09CF2:  MOVF   FF5,W
09CF4:  MOVWF  FEE
09CF6:  IORLW  00
09CF8:  BNZ   9CF0
09CFA:  MOVLB  7
09CFC:  BTFSC  xA9.7
09CFE:  BSF    FF2.7
09D00:  MOVLW  07
09D02:  MOVWF  xAD
09D04:  MOVLW  89
09D06:  MOVWF  xAC
09D08:  MOVLW  68
09D0A:  MOVWF  xAE
09D0C:  MOVLW  38
09D0E:  MOVWF  xAF
09D10:  MOVLW  01
09D12:  MOVWF  xB0
09D14:  MOVWF  xB1
09D16:  MOVLB  0
09D18:  CALL   1BAE
09D1C:  MOVLB  5
....................                 
....................                if(Segmento==9){ 
09D1E:  MOVF   x93,W
09D20:  SUBLW  09
09D22:  BNZ   9D68
....................                   strcpy(Menus.Letra,"s9");displayMenu(Menus.Letra,115,56,1,1);} 
09D24:  MOVLW  07
09D26:  MOVWF  FEA
09D28:  MOVLW  89
09D2A:  MOVWF  FE9
09D2C:  MOVFF  FF2,7A9
09D30:  BCF    FF2.7
09D32:  MOVLW  00
09D34:  MOVLB  0
09D36:  CALL   0FA4
09D3A:  TBLRD*-
09D3C:  TBLRD*+
09D3E:  MOVF   FF5,W
09D40:  MOVWF  FEE
09D42:  IORLW  00
09D44:  BNZ   9D3C
09D46:  MOVLB  7
09D48:  BTFSC  xA9.7
09D4A:  BSF    FF2.7
09D4C:  MOVLW  07
09D4E:  MOVWF  xAD
09D50:  MOVLW  89
09D52:  MOVWF  xAC
09D54:  MOVLW  73
09D56:  MOVWF  xAE
09D58:  MOVLW  38
09D5A:  MOVWF  xAF
09D5C:  MOVLW  01
09D5E:  MOVWF  xB0
09D60:  MOVWF  xB1
09D62:  MOVLB  0
09D64:  CALL   1BAE
....................                 
....................                glcd_line(27+0,55-TempeInicial/30,27+10,55-Temperatura1[ProgramaSeleccionado*10]/30,ON); 
09D68:  MOVFF  5BC,7B0
09D6C:  MOVFF  5BB,7AF
09D70:  MOVFF  5BA,7AE
09D74:  MOVFF  5B9,7AD
09D78:  MOVLB  7
09D7A:  CLRF   xB4
09D7C:  CLRF   xB3
09D7E:  MOVLW  70
09D80:  MOVWF  xB2
09D82:  MOVLW  83
09D84:  MOVWF  xB1
09D86:  MOVLB  0
09D88:  CALL   2E3A
09D8C:  BSF    FD8.1
09D8E:  MOVLB  7
09D90:  CLRF   xB2
09D92:  CLRF   xB1
09D94:  MOVLW  5C
09D96:  MOVWF  xB0
09D98:  MOVLW  84
09D9A:  MOVWF  xAF
09D9C:  MOVFF  03,7B6
09DA0:  MOVFF  02,7B5
09DA4:  MOVFF  01,7B4
09DA8:  MOVFF  00,7B3
09DAC:  MOVLB  0
09DAE:  CALL   2BC2
09DB2:  MOVFF  03,7AC
09DB6:  MOVFF  02,7AB
09DBA:  MOVFF  01,7AA
09DBE:  MOVFF  00,7A9
09DC2:  CALL   4E96
09DC6:  MOVFF  01,7A9
09DCA:  MOVLB  5
09DCC:  MOVF   xA3,W
09DCE:  MULLW  0A
09DD0:  MOVFF  FF3,00
09DD4:  BCF    FD8.0
09DD6:  RLCF   00,F
09DD8:  MOVF   00,W
09DDA:  CLRF   03
09DDC:  ADDLW  5D
09DDE:  MOVWF  FE9
09DE0:  MOVLW  06
09DE2:  ADDWFC 03,W
09DE4:  MOVWF  FEA
09DE6:  MOVFF  FEC,7AB
09DEA:  MOVF   FED,F
09DEC:  MOVFF  FEF,7AA
09DF0:  MOVFF  7AB,7AE
09DF4:  MOVFF  7AA,7AD
09DF8:  MOVLB  7
09DFA:  CLRF   xB0
09DFC:  MOVLW  1E
09DFE:  MOVWF  xAF
09E00:  MOVLB  0
09E02:  CALL   35F6
09E06:  MOVFF  02,03
09E0A:  MOVF   01,W
09E0C:  XORLW  FF
09E0E:  ADDLW  38
09E10:  MOVLB  7
09E12:  MOVWF  xAA
09E14:  MOVLW  00
09E16:  SUBFWB 02,W
09E18:  MOVWF  xAB
09E1A:  MOVLW  1B
09E1C:  MOVWF  xCD
09E1E:  MOVFF  7A9,7CE
09E22:  MOVLW  25
09E24:  MOVWF  xCF
09E26:  MOVFF  7AA,7D0
09E2A:  MOVLW  01
09E2C:  MOVWF  xD1
09E2E:  MOVLB  0
09E30:  CALL   19AE
....................                glcd_line(27+10,55-Temperatura1[ProgramaSeleccionado*10]/30,27+20,55-Temperatura1[(ProgramaSeleccionado*10)+1]/30,ON); 
09E34:  MOVLB  5
09E36:  MOVF   xA3,W
09E38:  MULLW  0A
09E3A:  MOVFF  FF3,00
09E3E:  BCF    FD8.0
09E40:  RLCF   00,F
09E42:  MOVF   00,W
09E44:  CLRF   03
09E46:  ADDLW  5D
09E48:  MOVWF  FE9
09E4A:  MOVLW  06
09E4C:  ADDWFC 03,W
09E4E:  MOVWF  FEA
09E50:  MOVFF  FEC,7AA
09E54:  MOVF   FED,F
09E56:  MOVFF  FEF,7A9
09E5A:  MOVFF  7AA,7AE
09E5E:  MOVFF  7A9,7AD
09E62:  MOVLB  7
09E64:  CLRF   xB0
09E66:  MOVLW  1E
09E68:  MOVWF  xAF
09E6A:  MOVLB  0
09E6C:  CALL   35F6
09E70:  MOVFF  02,03
09E74:  MOVF   01,W
09E76:  XORLW  FF
09E78:  ADDLW  38
09E7A:  MOVLB  7
09E7C:  MOVWF  xA9
09E7E:  MOVLW  00
09E80:  SUBFWB 02,W
09E82:  MOVWF  xAA
09E84:  MOVLB  5
09E86:  MOVF   xA3,W
09E88:  MULLW  0A
09E8A:  MOVF   FF3,W
09E8C:  ADDLW  01
09E8E:  MOVWF  00
09E90:  BCF    FD8.0
09E92:  RLCF   00,F
09E94:  MOVF   00,W
09E96:  CLRF   03
09E98:  ADDLW  5D
09E9A:  MOVWF  FE9
09E9C:  MOVLW  06
09E9E:  ADDWFC 03,W
09EA0:  MOVWF  FEA
09EA2:  MOVFF  FEC,7AC
09EA6:  MOVF   FED,F
09EA8:  MOVFF  FEF,7AB
09EAC:  MOVFF  7AC,7AE
09EB0:  MOVFF  7AB,7AD
09EB4:  MOVLB  7
09EB6:  CLRF   xB0
09EB8:  MOVLW  1E
09EBA:  MOVWF  xAF
09EBC:  MOVLB  0
09EBE:  CALL   35F6
09EC2:  MOVFF  02,03
09EC6:  MOVF   01,W
09EC8:  XORLW  FF
09ECA:  ADDLW  38
09ECC:  MOVLB  7
09ECE:  MOVWF  xAB
09ED0:  MOVLW  00
09ED2:  SUBFWB 02,W
09ED4:  MOVWF  xAC
09ED6:  MOVLW  25
09ED8:  MOVWF  xCD
09EDA:  MOVFF  7A9,7CE
09EDE:  MOVLW  2F
09EE0:  MOVWF  xCF
09EE2:  MOVFF  7AB,7D0
09EE6:  MOVLW  01
09EE8:  MOVWF  xD1
09EEA:  MOVLB  0
09EEC:  CALL   19AE
....................                glcd_line(27+20,55-Temperatura1[(ProgramaSeleccionado*10)+1]/30,27+30,55-Temperatura1[(ProgramaSeleccionado*10)+2]/30,ON); 
09EF0:  MOVLB  5
09EF2:  MOVF   xA3,W
09EF4:  MULLW  0A
09EF6:  MOVF   FF3,W
09EF8:  ADDLW  01
09EFA:  MOVWF  00
09EFC:  BCF    FD8.0
09EFE:  RLCF   00,F
09F00:  MOVF   00,W
09F02:  CLRF   03
09F04:  ADDLW  5D
09F06:  MOVWF  FE9
09F08:  MOVLW  06
09F0A:  ADDWFC 03,W
09F0C:  MOVWF  FEA
09F0E:  MOVFF  FEC,7AA
09F12:  MOVF   FED,F
09F14:  MOVFF  FEF,7A9
09F18:  MOVFF  7AA,7AE
09F1C:  MOVFF  7A9,7AD
09F20:  MOVLB  7
09F22:  CLRF   xB0
09F24:  MOVLW  1E
09F26:  MOVWF  xAF
09F28:  MOVLB  0
09F2A:  CALL   35F6
09F2E:  MOVFF  02,03
09F32:  MOVF   01,W
09F34:  XORLW  FF
09F36:  ADDLW  38
09F38:  MOVLB  7
09F3A:  MOVWF  xA9
09F3C:  MOVLW  00
09F3E:  SUBFWB 02,W
09F40:  MOVWF  xAA
09F42:  MOVLB  5
09F44:  MOVF   xA3,W
09F46:  MULLW  0A
09F48:  MOVF   FF3,W
09F4A:  ADDLW  02
09F4C:  MOVWF  00
09F4E:  BCF    FD8.0
09F50:  RLCF   00,F
09F52:  MOVF   00,W
09F54:  CLRF   03
09F56:  ADDLW  5D
09F58:  MOVWF  FE9
09F5A:  MOVLW  06
09F5C:  ADDWFC 03,W
09F5E:  MOVWF  FEA
09F60:  MOVFF  FEC,7AC
09F64:  MOVF   FED,F
09F66:  MOVFF  FEF,7AB
09F6A:  MOVFF  7AC,7AE
09F6E:  MOVFF  7AB,7AD
09F72:  MOVLB  7
09F74:  CLRF   xB0
09F76:  MOVLW  1E
09F78:  MOVWF  xAF
09F7A:  MOVLB  0
09F7C:  CALL   35F6
09F80:  MOVFF  02,03
09F84:  MOVF   01,W
09F86:  XORLW  FF
09F88:  ADDLW  38
09F8A:  MOVLB  7
09F8C:  MOVWF  xAB
09F8E:  MOVLW  00
09F90:  SUBFWB 02,W
09F92:  MOVWF  xAC
09F94:  MOVLW  2F
09F96:  MOVWF  xCD
09F98:  MOVFF  7A9,7CE
09F9C:  MOVLW  39
09F9E:  MOVWF  xCF
09FA0:  MOVFF  7AB,7D0
09FA4:  MOVLW  01
09FA6:  MOVWF  xD1
09FA8:  MOVLB  0
09FAA:  CALL   19AE
....................                glcd_line(27+30,55-Temperatura1[(ProgramaSeleccionado*10)+2]/30,27+40,55-Temperatura1[(ProgramaSeleccionado*10)+3]/30,ON); 
09FAE:  MOVLB  5
09FB0:  MOVF   xA3,W
09FB2:  MULLW  0A
09FB4:  MOVF   FF3,W
09FB6:  ADDLW  02
09FB8:  MOVWF  00
09FBA:  BCF    FD8.0
09FBC:  RLCF   00,F
09FBE:  MOVF   00,W
09FC0:  CLRF   03
09FC2:  ADDLW  5D
09FC4:  MOVWF  FE9
09FC6:  MOVLW  06
09FC8:  ADDWFC 03,W
09FCA:  MOVWF  FEA
09FCC:  MOVFF  FEC,7AA
09FD0:  MOVF   FED,F
09FD2:  MOVFF  FEF,7A9
09FD6:  MOVFF  7AA,7AE
09FDA:  MOVFF  7A9,7AD
09FDE:  MOVLB  7
09FE0:  CLRF   xB0
09FE2:  MOVLW  1E
09FE4:  MOVWF  xAF
09FE6:  MOVLB  0
09FE8:  CALL   35F6
09FEC:  MOVFF  02,03
09FF0:  MOVF   01,W
09FF2:  XORLW  FF
09FF4:  ADDLW  38
09FF6:  MOVLB  7
09FF8:  MOVWF  xA9
09FFA:  MOVLW  00
09FFC:  SUBFWB 02,W
09FFE:  MOVWF  xAA
0A000:  MOVLB  5
0A002:  MOVF   xA3,W
0A004:  MULLW  0A
0A006:  MOVF   FF3,W
0A008:  ADDLW  03
0A00A:  MOVWF  00
0A00C:  BCF    FD8.0
0A00E:  RLCF   00,F
0A010:  MOVF   00,W
0A012:  CLRF   03
0A014:  ADDLW  5D
0A016:  MOVWF  FE9
0A018:  MOVLW  06
0A01A:  ADDWFC 03,W
0A01C:  MOVWF  FEA
0A01E:  MOVFF  FEC,7AC
0A022:  MOVF   FED,F
0A024:  MOVFF  FEF,7AB
0A028:  MOVFF  7AC,7AE
0A02C:  MOVFF  7AB,7AD
0A030:  MOVLB  7
0A032:  CLRF   xB0
0A034:  MOVLW  1E
0A036:  MOVWF  xAF
0A038:  MOVLB  0
0A03A:  CALL   35F6
0A03E:  MOVFF  02,03
0A042:  MOVF   01,W
0A044:  XORLW  FF
0A046:  ADDLW  38
0A048:  MOVLB  7
0A04A:  MOVWF  xAB
0A04C:  MOVLW  00
0A04E:  SUBFWB 02,W
0A050:  MOVWF  xAC
0A052:  MOVLW  39
0A054:  MOVWF  xCD
0A056:  MOVFF  7A9,7CE
0A05A:  MOVLW  43
0A05C:  MOVWF  xCF
0A05E:  MOVFF  7AB,7D0
0A062:  MOVLW  01
0A064:  MOVWF  xD1
0A066:  MOVLB  0
0A068:  CALL   19AE
....................                glcd_line(27+40,55-Temperatura1[(ProgramaSeleccionado*10)+3]/30,27+50,55-Temperatura1[(ProgramaSeleccionado*10)+4]/30,ON); 
0A06C:  MOVLB  5
0A06E:  MOVF   xA3,W
0A070:  MULLW  0A
0A072:  MOVF   FF3,W
0A074:  ADDLW  03
0A076:  MOVWF  00
0A078:  BCF    FD8.0
0A07A:  RLCF   00,F
0A07C:  MOVF   00,W
0A07E:  CLRF   03
0A080:  ADDLW  5D
0A082:  MOVWF  FE9
0A084:  MOVLW  06
0A086:  ADDWFC 03,W
0A088:  MOVWF  FEA
0A08A:  MOVFF  FEC,7AA
0A08E:  MOVF   FED,F
0A090:  MOVFF  FEF,7A9
0A094:  MOVFF  7AA,7AE
0A098:  MOVFF  7A9,7AD
0A09C:  MOVLB  7
0A09E:  CLRF   xB0
0A0A0:  MOVLW  1E
0A0A2:  MOVWF  xAF
0A0A4:  MOVLB  0
0A0A6:  CALL   35F6
0A0AA:  MOVFF  02,03
0A0AE:  MOVF   01,W
0A0B0:  XORLW  FF
0A0B2:  ADDLW  38
0A0B4:  MOVLB  7
0A0B6:  MOVWF  xA9
0A0B8:  MOVLW  00
0A0BA:  SUBFWB 02,W
0A0BC:  MOVWF  xAA
0A0BE:  MOVLB  5
0A0C0:  MOVF   xA3,W
0A0C2:  MULLW  0A
0A0C4:  MOVF   FF3,W
0A0C6:  ADDLW  04
0A0C8:  MOVWF  00
0A0CA:  BCF    FD8.0
0A0CC:  RLCF   00,F
0A0CE:  MOVF   00,W
0A0D0:  CLRF   03
0A0D2:  ADDLW  5D
0A0D4:  MOVWF  FE9
0A0D6:  MOVLW  06
0A0D8:  ADDWFC 03,W
0A0DA:  MOVWF  FEA
0A0DC:  MOVFF  FEC,7AC
0A0E0:  MOVF   FED,F
0A0E2:  MOVFF  FEF,7AB
0A0E6:  MOVFF  7AC,7AE
0A0EA:  MOVFF  7AB,7AD
0A0EE:  MOVLB  7
0A0F0:  CLRF   xB0
0A0F2:  MOVLW  1E
0A0F4:  MOVWF  xAF
0A0F6:  MOVLB  0
0A0F8:  CALL   35F6
0A0FC:  MOVFF  02,03
0A100:  MOVF   01,W
0A102:  XORLW  FF
0A104:  ADDLW  38
0A106:  MOVLB  7
0A108:  MOVWF  xAB
0A10A:  MOVLW  00
0A10C:  SUBFWB 02,W
0A10E:  MOVWF  xAC
0A110:  MOVLW  43
0A112:  MOVWF  xCD
0A114:  MOVFF  7A9,7CE
0A118:  MOVLW  4D
0A11A:  MOVWF  xCF
0A11C:  MOVFF  7AB,7D0
0A120:  MOVLW  01
0A122:  MOVWF  xD1
0A124:  MOVLB  0
0A126:  CALL   19AE
....................                glcd_line(27+50,55-Temperatura1[(ProgramaSeleccionado*10)+4]/30,27+60,55-Temperatura1[(ProgramaSeleccionado*10)+5]/30,ON); 
0A12A:  MOVLB  5
0A12C:  MOVF   xA3,W
0A12E:  MULLW  0A
0A130:  MOVF   FF3,W
0A132:  ADDLW  04
0A134:  MOVWF  00
0A136:  BCF    FD8.0
0A138:  RLCF   00,F
0A13A:  MOVF   00,W
0A13C:  CLRF   03
0A13E:  ADDLW  5D
0A140:  MOVWF  FE9
0A142:  MOVLW  06
0A144:  ADDWFC 03,W
0A146:  MOVWF  FEA
0A148:  MOVFF  FEC,7AA
0A14C:  MOVF   FED,F
0A14E:  MOVFF  FEF,7A9
0A152:  MOVFF  7AA,7AE
0A156:  MOVFF  7A9,7AD
0A15A:  MOVLB  7
0A15C:  CLRF   xB0
0A15E:  MOVLW  1E
0A160:  MOVWF  xAF
0A162:  MOVLB  0
0A164:  CALL   35F6
0A168:  MOVFF  02,03
0A16C:  MOVF   01,W
0A16E:  XORLW  FF
0A170:  ADDLW  38
0A172:  MOVLB  7
0A174:  MOVWF  xA9
0A176:  MOVLW  00
0A178:  SUBFWB 02,W
0A17A:  MOVWF  xAA
0A17C:  MOVLB  5
0A17E:  MOVF   xA3,W
0A180:  MULLW  0A
0A182:  MOVF   FF3,W
0A184:  ADDLW  05
0A186:  MOVWF  00
0A188:  BCF    FD8.0
0A18A:  RLCF   00,F
0A18C:  MOVF   00,W
0A18E:  CLRF   03
0A190:  ADDLW  5D
0A192:  MOVWF  FE9
0A194:  MOVLW  06
0A196:  ADDWFC 03,W
0A198:  MOVWF  FEA
0A19A:  MOVFF  FEC,7AC
0A19E:  MOVF   FED,F
0A1A0:  MOVFF  FEF,7AB
0A1A4:  MOVFF  7AC,7AE
0A1A8:  MOVFF  7AB,7AD
0A1AC:  MOVLB  7
0A1AE:  CLRF   xB0
0A1B0:  MOVLW  1E
0A1B2:  MOVWF  xAF
0A1B4:  MOVLB  0
0A1B6:  CALL   35F6
0A1BA:  MOVFF  02,03
0A1BE:  MOVF   01,W
0A1C0:  XORLW  FF
0A1C2:  ADDLW  38
0A1C4:  MOVLB  7
0A1C6:  MOVWF  xAB
0A1C8:  MOVLW  00
0A1CA:  SUBFWB 02,W
0A1CC:  MOVWF  xAC
0A1CE:  MOVLW  4D
0A1D0:  MOVWF  xCD
0A1D2:  MOVFF  7A9,7CE
0A1D6:  MOVLW  57
0A1D8:  MOVWF  xCF
0A1DA:  MOVFF  7AB,7D0
0A1DE:  MOVLW  01
0A1E0:  MOVWF  xD1
0A1E2:  MOVLB  0
0A1E4:  CALL   19AE
....................                glcd_line(27+60,55-Temperatura1[(ProgramaSeleccionado*10)+5]/30,27+70,55-Temperatura1[(ProgramaSeleccionado*10)+6]/30,ON); 
0A1E8:  MOVLB  5
0A1EA:  MOVF   xA3,W
0A1EC:  MULLW  0A
0A1EE:  MOVF   FF3,W
0A1F0:  ADDLW  05
0A1F2:  MOVWF  00
0A1F4:  BCF    FD8.0
0A1F6:  RLCF   00,F
0A1F8:  MOVF   00,W
0A1FA:  CLRF   03
0A1FC:  ADDLW  5D
0A1FE:  MOVWF  FE9
0A200:  MOVLW  06
0A202:  ADDWFC 03,W
0A204:  MOVWF  FEA
0A206:  MOVFF  FEC,7AA
0A20A:  MOVF   FED,F
0A20C:  MOVFF  FEF,7A9
0A210:  MOVFF  7AA,7AE
0A214:  MOVFF  7A9,7AD
0A218:  MOVLB  7
0A21A:  CLRF   xB0
0A21C:  MOVLW  1E
0A21E:  MOVWF  xAF
0A220:  MOVLB  0
0A222:  CALL   35F6
0A226:  MOVFF  02,03
0A22A:  MOVF   01,W
0A22C:  XORLW  FF
0A22E:  ADDLW  38
0A230:  MOVLB  7
0A232:  MOVWF  xA9
0A234:  MOVLW  00
0A236:  SUBFWB 02,W
0A238:  MOVWF  xAA
0A23A:  MOVLB  5
0A23C:  MOVF   xA3,W
0A23E:  MULLW  0A
0A240:  MOVF   FF3,W
0A242:  ADDLW  06
0A244:  MOVWF  00
0A246:  BCF    FD8.0
0A248:  RLCF   00,F
0A24A:  MOVF   00,W
0A24C:  CLRF   03
0A24E:  ADDLW  5D
0A250:  MOVWF  FE9
0A252:  MOVLW  06
0A254:  ADDWFC 03,W
0A256:  MOVWF  FEA
0A258:  MOVFF  FEC,7AC
0A25C:  MOVF   FED,F
0A25E:  MOVFF  FEF,7AB
0A262:  MOVFF  7AC,7AE
0A266:  MOVFF  7AB,7AD
0A26A:  MOVLB  7
0A26C:  CLRF   xB0
0A26E:  MOVLW  1E
0A270:  MOVWF  xAF
0A272:  MOVLB  0
0A274:  CALL   35F6
0A278:  MOVFF  02,03
0A27C:  MOVF   01,W
0A27E:  XORLW  FF
0A280:  ADDLW  38
0A282:  MOVLB  7
0A284:  MOVWF  xAB
0A286:  MOVLW  00
0A288:  SUBFWB 02,W
0A28A:  MOVWF  xAC
0A28C:  MOVLW  57
0A28E:  MOVWF  xCD
0A290:  MOVFF  7A9,7CE
0A294:  MOVLW  61
0A296:  MOVWF  xCF
0A298:  MOVFF  7AB,7D0
0A29C:  MOVLW  01
0A29E:  MOVWF  xD1
0A2A0:  MOVLB  0
0A2A2:  CALL   19AE
....................                glcd_line(27+70,55-Temperatura1[(ProgramaSeleccionado*10)+6]/30,27+80,55-Temperatura1[(ProgramaSeleccionado*10)+7]/30,ON); 
0A2A6:  MOVLB  5
0A2A8:  MOVF   xA3,W
0A2AA:  MULLW  0A
0A2AC:  MOVF   FF3,W
0A2AE:  ADDLW  06
0A2B0:  MOVWF  00
0A2B2:  BCF    FD8.0
0A2B4:  RLCF   00,F
0A2B6:  MOVF   00,W
0A2B8:  CLRF   03
0A2BA:  ADDLW  5D
0A2BC:  MOVWF  FE9
0A2BE:  MOVLW  06
0A2C0:  ADDWFC 03,W
0A2C2:  MOVWF  FEA
0A2C4:  MOVFF  FEC,7AA
0A2C8:  MOVF   FED,F
0A2CA:  MOVFF  FEF,7A9
0A2CE:  MOVFF  7AA,7AE
0A2D2:  MOVFF  7A9,7AD
0A2D6:  MOVLB  7
0A2D8:  CLRF   xB0
0A2DA:  MOVLW  1E
0A2DC:  MOVWF  xAF
0A2DE:  MOVLB  0
0A2E0:  CALL   35F6
0A2E4:  MOVFF  02,03
0A2E8:  MOVF   01,W
0A2EA:  XORLW  FF
0A2EC:  ADDLW  38
0A2EE:  MOVLB  7
0A2F0:  MOVWF  xA9
0A2F2:  MOVLW  00
0A2F4:  SUBFWB 02,W
0A2F6:  MOVWF  xAA
0A2F8:  MOVLB  5
0A2FA:  MOVF   xA3,W
0A2FC:  MULLW  0A
0A2FE:  MOVF   FF3,W
0A300:  ADDLW  07
0A302:  MOVWF  00
0A304:  BCF    FD8.0
0A306:  RLCF   00,F
0A308:  MOVF   00,W
0A30A:  CLRF   03
0A30C:  ADDLW  5D
0A30E:  MOVWF  FE9
0A310:  MOVLW  06
0A312:  ADDWFC 03,W
0A314:  MOVWF  FEA
0A316:  MOVFF  FEC,7AC
0A31A:  MOVF   FED,F
0A31C:  MOVFF  FEF,7AB
0A320:  MOVFF  7AC,7AE
0A324:  MOVFF  7AB,7AD
0A328:  MOVLB  7
0A32A:  CLRF   xB0
0A32C:  MOVLW  1E
0A32E:  MOVWF  xAF
0A330:  MOVLB  0
0A332:  CALL   35F6
0A336:  MOVFF  02,03
0A33A:  MOVF   01,W
0A33C:  XORLW  FF
0A33E:  ADDLW  38
0A340:  MOVLB  7
0A342:  MOVWF  xAB
0A344:  MOVLW  00
0A346:  SUBFWB 02,W
0A348:  MOVWF  xAC
0A34A:  MOVLW  61
0A34C:  MOVWF  xCD
0A34E:  MOVFF  7A9,7CE
0A352:  MOVLW  6B
0A354:  MOVWF  xCF
0A356:  MOVFF  7AB,7D0
0A35A:  MOVLW  01
0A35C:  MOVWF  xD1
0A35E:  MOVLB  0
0A360:  CALL   19AE
....................                glcd_line(27+80,55-Temperatura1[(ProgramaSeleccionado*10)+7]/30,27+90,55-Temperatura1[(ProgramaSeleccionado*10)+8]/30,ON); 
0A364:  MOVLB  5
0A366:  MOVF   xA3,W
0A368:  MULLW  0A
0A36A:  MOVF   FF3,W
0A36C:  ADDLW  07
0A36E:  MOVWF  00
0A370:  BCF    FD8.0
0A372:  RLCF   00,F
0A374:  MOVF   00,W
0A376:  CLRF   03
0A378:  ADDLW  5D
0A37A:  MOVWF  FE9
0A37C:  MOVLW  06
0A37E:  ADDWFC 03,W
0A380:  MOVWF  FEA
0A382:  MOVFF  FEC,7AA
0A386:  MOVF   FED,F
0A388:  MOVFF  FEF,7A9
0A38C:  MOVFF  7AA,7AE
0A390:  MOVFF  7A9,7AD
0A394:  MOVLB  7
0A396:  CLRF   xB0
0A398:  MOVLW  1E
0A39A:  MOVWF  xAF
0A39C:  MOVLB  0
0A39E:  CALL   35F6
0A3A2:  MOVFF  02,03
0A3A6:  MOVF   01,W
0A3A8:  XORLW  FF
0A3AA:  ADDLW  38
0A3AC:  MOVLB  7
0A3AE:  MOVWF  xA9
0A3B0:  MOVLW  00
0A3B2:  SUBFWB 02,W
0A3B4:  MOVWF  xAA
0A3B6:  MOVLB  5
0A3B8:  MOVF   xA3,W
0A3BA:  MULLW  0A
0A3BC:  MOVF   FF3,W
0A3BE:  ADDLW  08
0A3C0:  MOVWF  00
0A3C2:  BCF    FD8.0
0A3C4:  RLCF   00,F
0A3C6:  MOVF   00,W
0A3C8:  CLRF   03
0A3CA:  ADDLW  5D
0A3CC:  MOVWF  FE9
0A3CE:  MOVLW  06
0A3D0:  ADDWFC 03,W
0A3D2:  MOVWF  FEA
0A3D4:  MOVFF  FEC,7AC
0A3D8:  MOVF   FED,F
0A3DA:  MOVFF  FEF,7AB
0A3DE:  MOVFF  7AC,7AE
0A3E2:  MOVFF  7AB,7AD
0A3E6:  MOVLB  7
0A3E8:  CLRF   xB0
0A3EA:  MOVLW  1E
0A3EC:  MOVWF  xAF
0A3EE:  MOVLB  0
0A3F0:  CALL   35F6
0A3F4:  MOVFF  02,03
0A3F8:  MOVF   01,W
0A3FA:  XORLW  FF
0A3FC:  ADDLW  38
0A3FE:  MOVLB  7
0A400:  MOVWF  xAB
0A402:  MOVLW  00
0A404:  SUBFWB 02,W
0A406:  MOVWF  xAC
0A408:  MOVLW  6B
0A40A:  MOVWF  xCD
0A40C:  MOVFF  7A9,7CE
0A410:  MOVLW  75
0A412:  MOVWF  xCF
0A414:  MOVFF  7AB,7D0
0A418:  MOVLW  01
0A41A:  MOVWF  xD1
0A41C:  MOVLB  0
0A41E:  CALL   19AE
....................                glcd_line(27+90,55-Temperatura1[(ProgramaSeleccionado*10)+8]/30,27+100,55-Temperatura1[(ProgramaSeleccionado*10)+9]/30,ON); 
0A422:  MOVLB  5
0A424:  MOVF   xA3,W
0A426:  MULLW  0A
0A428:  MOVF   FF3,W
0A42A:  ADDLW  08
0A42C:  MOVWF  00
0A42E:  BCF    FD8.0
0A430:  RLCF   00,F
0A432:  MOVF   00,W
0A434:  CLRF   03
0A436:  ADDLW  5D
0A438:  MOVWF  FE9
0A43A:  MOVLW  06
0A43C:  ADDWFC 03,W
0A43E:  MOVWF  FEA
0A440:  MOVFF  FEC,7AA
0A444:  MOVF   FED,F
0A446:  MOVFF  FEF,7A9
0A44A:  MOVFF  7AA,7AE
0A44E:  MOVFF  7A9,7AD
0A452:  MOVLB  7
0A454:  CLRF   xB0
0A456:  MOVLW  1E
0A458:  MOVWF  xAF
0A45A:  MOVLB  0
0A45C:  CALL   35F6
0A460:  MOVFF  02,03
0A464:  MOVF   01,W
0A466:  XORLW  FF
0A468:  ADDLW  38
0A46A:  MOVLB  7
0A46C:  MOVWF  xA9
0A46E:  MOVLW  00
0A470:  SUBFWB 02,W
0A472:  MOVWF  xAA
0A474:  MOVLB  5
0A476:  MOVF   xA3,W
0A478:  MULLW  0A
0A47A:  MOVF   FF3,W
0A47C:  ADDLW  09
0A47E:  MOVWF  00
0A480:  BCF    FD8.0
0A482:  RLCF   00,F
0A484:  MOVF   00,W
0A486:  CLRF   03
0A488:  ADDLW  5D
0A48A:  MOVWF  FE9
0A48C:  MOVLW  06
0A48E:  ADDWFC 03,W
0A490:  MOVWF  FEA
0A492:  MOVFF  FEC,7AC
0A496:  MOVF   FED,F
0A498:  MOVFF  FEF,7AB
0A49C:  MOVFF  7AC,7AE
0A4A0:  MOVFF  7AB,7AD
0A4A4:  MOVLB  7
0A4A6:  CLRF   xB0
0A4A8:  MOVLW  1E
0A4AA:  MOVWF  xAF
0A4AC:  MOVLB  0
0A4AE:  CALL   35F6
0A4B2:  MOVFF  02,03
0A4B6:  MOVF   01,W
0A4B8:  XORLW  FF
0A4BA:  ADDLW  38
0A4BC:  MOVLB  7
0A4BE:  MOVWF  xAB
0A4C0:  MOVLW  00
0A4C2:  SUBFWB 02,W
0A4C4:  MOVWF  xAC
0A4C6:  MOVLW  75
0A4C8:  MOVWF  xCD
0A4CA:  MOVFF  7A9,7CE
0A4CE:  MOVLW  7F
0A4D0:  MOVWF  xCF
0A4D2:  MOVFF  7AB,7D0
0A4D6:  MOVLW  01
0A4D8:  MOVWF  xD1
0A4DA:  MOVLB  0
0A4DC:  CALL   19AE
....................                glcd_update(); 
0A4E0:  CALL   15DA
....................                for(i=0;i<80;i++) 
0A4E4:  MOVLB  5
0A4E6:  CLRF   x9C
0A4E8:  MOVF   x9C,W
0A4EA:  SUBLW  4F
0A4EC:  BNC   A50E
....................                { 
....................                   Temperatura=Leer_Sensor(MediaMovil); 
0A4EE:  MOVFF  58C,7A9
0A4F2:  MOVLB  0
0A4F4:  CALL   308E
0A4F8:  MOVFF  03,624
0A4FC:  MOVFF  02,623
0A500:  MOVFF  01,622
0A504:  MOVFF  00,621
....................                } 
0A508:  MOVLB  5
0A50A:  INCF   x9C,F
0A50C:  BRA    A4E8
....................             delay_ms(3000); 
0A50E:  MOVLW  0C
0A510:  MOVLB  7
0A512:  MOVWF  xA9
0A514:  MOVLW  FA
0A516:  MOVWF  xAF
0A518:  MOVLB  0
0A51A:  CALL   1500
0A51E:  MOVLB  7
0A520:  DECFSZ xA9,F
0A522:  BRA    A514
....................             glcd_fillscreen(OFF); 
0A524:  CLRF   xAA
0A526:  MOVLB  0
0A528:  CALL   1580
0A52C:  MOVLB  7
....................       } 
....................              
....................       if(DOWN)//Si oprime hacia abajo 
0A52E:  BSF    F96.0
0A530:  BTFSC  F84.0
0A532:  BRA    A534
....................       {   
....................       } 
....................        
....................       if(RIGHT)//Si oprime SET 
0A534:  BSF    F96.1
0A536:  BTFSC  F84.1
0A538:  BRA    A588
....................       {   
....................          if(Pausa!=2) 
0A53A:  MOVLB  5
0A53C:  MOVF   x9E,W
0A53E:  SUBLW  02
0A540:  BZ    A588
....................          { 
....................             if(Pausa==0) 
0A542:  MOVF   x9E,F
0A544:  BNZ   A55A
....................             { 
....................                delay_ms(200);Pausa=1; 
0A546:  MOVLW  C8
0A548:  MOVLB  7
0A54A:  MOVWF  xAF
0A54C:  MOVLB  0
0A54E:  CALL   1500
0A552:  MOVLW  01
0A554:  MOVLB  5
0A556:  MOVWF  x9E
....................             } 
....................             else 
0A558:  BRA    A56A
....................             { 
....................                delay_ms(200);Pausa=0; 
0A55A:  MOVLW  C8
0A55C:  MOVLB  7
0A55E:  MOVWF  xAF
0A560:  MOVLB  0
0A562:  CALL   1500
0A566:  MOVLB  5
0A568:  CLRF   x9E
....................             } 
....................             glcd_rect(0, 55, 127, 63, YES, OFF); 
0A56A:  MOVLB  7
0A56C:  CLRF   xC1
0A56E:  MOVLW  37
0A570:  MOVWF  xC2
0A572:  MOVLW  7F
0A574:  MOVWF  xC3
0A576:  MOVLW  3F
0A578:  MOVWF  xC4
0A57A:  MOVLW  01
0A57C:  MOVWF  xC5
0A57E:  CLRF   xC6
0A580:  MOVLB  0
0A582:  CALL   1AEC
0A586:  MOVLB  5
....................          } 
....................       } 
....................        
....................          
....................       if(Lectura==1)// Utilizado para visualizar la lectura de la temperatura 
0A588:  MOVLB  5
0A58A:  BTFSS  x87.7
0A58C:  BRA    AC08
....................       {                  
....................           
....................          Lectura=0; 
0A58E:  BCF    x87.7
....................          Potencia=(100.0/Tciclo)*Tpulso; 
0A590:  MOVLB  7
0A592:  CLRF   xB0
0A594:  CLRF   xAF
0A596:  MOVLW  48
0A598:  MOVWF  xAE
0A59A:  MOVLW  85
0A59C:  MOVWF  xAD
0A59E:  MOVFF  5F4,7B4
0A5A2:  MOVFF  5F3,7B3
0A5A6:  MOVFF  5F2,7B2
0A5AA:  MOVFF  5F1,7B1
0A5AE:  MOVLB  0
0A5B0:  CALL   2E3A
0A5B4:  MOVFF  00,7A9
0A5B8:  MOVFF  01,7AA
0A5BC:  MOVFF  02,7AB
0A5C0:  MOVFF  03,7AC
0A5C4:  MOVFF  03,7C9
0A5C8:  MOVFF  02,7C8
0A5CC:  MOVFF  01,7C7
0A5D0:  MOVFF  00,7C6
0A5D4:  MOVFF  5F8,7CD
0A5D8:  MOVFF  5F7,7CC
0A5DC:  MOVFF  5F6,7CB
0A5E0:  MOVFF  5F5,7CA
0A5E4:  CALL   2F98
0A5E8:  MOVFF  03,5D8
0A5EC:  MOVFF  02,5D7
0A5F0:  MOVFF  01,5D6
0A5F4:  MOVFF  00,5D5
....................           
....................  //----------------Muestra Temperatura-------------------------- 
....................          if(Temperatura>1200 || Temperatura<0) 
0A5F8:  MOVLB  7
0A5FA:  CLRF   xAC
0A5FC:  CLRF   xAB
0A5FE:  MOVLW  16
0A600:  MOVWF  xAA
0A602:  MOVLW  89
0A604:  MOVWF  xA9
0A606:  MOVFF  624,7B0
0A60A:  MOVFF  623,7AF
0A60E:  MOVFF  622,7AE
0A612:  MOVFF  621,7AD
0A616:  MOVLB  0
0A618:  CALL   1EEC
0A61C:  BC    A640
0A61E:  MOVFF  624,7AC
0A622:  MOVFF  623,7AB
0A626:  MOVFF  622,7AA
0A62A:  MOVFF  621,7A9
0A62E:  MOVLB  7
0A630:  CLRF   xB0
0A632:  CLRF   xAF
0A634:  CLRF   xAE
0A636:  CLRF   xAD
0A638:  MOVLB  0
0A63A:  CALL   1EEC
0A63E:  BNC   A6AA
....................          { 
....................             glcd_rect(15, 29, 69, 45, YES, OFF); 
0A640:  MOVLW  0F
0A642:  MOVLB  7
0A644:  MOVWF  xC1
0A646:  MOVLW  1D
0A648:  MOVWF  xC2
0A64A:  MOVLW  45
0A64C:  MOVWF  xC3
0A64E:  MOVLW  2D
0A650:  MOVWF  xC4
0A652:  MOVLW  01
0A654:  MOVWF  xC5
0A656:  CLRF   xC6
0A658:  MOVLB  0
0A65A:  CALL   1AEC
....................             strcpy(Menus.Letra,"-----");displayMenu(Menus.Letra,15,29,2,2); 
0A65E:  MOVLW  07
0A660:  MOVWF  FEA
0A662:  MOVLW  89
0A664:  MOVWF  FE9
0A666:  MOVFF  FF2,7A9
0A66A:  BCF    FF2.7
0A66C:  MOVLW  00
0A66E:  CALL   0FC6
0A672:  TBLRD*-
0A674:  TBLRD*+
0A676:  MOVF   FF5,W
0A678:  MOVWF  FEE
0A67A:  IORLW  00
0A67C:  BNZ   A674
0A67E:  MOVLB  7
0A680:  BTFSC  xA9.7
0A682:  BSF    FF2.7
0A684:  MOVLW  07
0A686:  MOVWF  xAD
0A688:  MOVLW  89
0A68A:  MOVWF  xAC
0A68C:  MOVLW  0F
0A68E:  MOVWF  xAE
0A690:  MOVLW  1D
0A692:  MOVWF  xAF
0A694:  MOVLW  02
0A696:  MOVWF  xB0
0A698:  MOVWF  xB1
0A69A:  MOVLB  0
0A69C:  CALL   1BAE
....................             Desconectado=1; 
0A6A0:  MOVLB  5
0A6A2:  BSF    x87.2
....................             Control=0; 
0A6A4:  CLRF   x99
....................          } 
....................          else 
0A6A6:  BRA    A730
0A6A8:  MOVLB  0
....................          { 
....................             if(Desconectado==1) 
0A6AA:  MOVLB  5
0A6AC:  BTFSS  x87.2
0A6AE:  BRA    A6F4
....................             { 
....................                Desconectado=0; 
0A6B0:  BCF    x87.2
....................                delay_ms(2000); 
0A6B2:  MOVLW  08
0A6B4:  MOVLB  7
0A6B6:  MOVWF  xA9
0A6B8:  MOVLW  FA
0A6BA:  MOVWF  xAF
0A6BC:  MOVLB  0
0A6BE:  CALL   1500
0A6C2:  MOVLB  7
0A6C4:  DECFSZ xA9,F
0A6C6:  BRA    A6B8
....................                for(i=0;i<80;i++) 
0A6C8:  MOVLB  5
0A6CA:  CLRF   x9C
0A6CC:  MOVF   x9C,W
0A6CE:  SUBLW  4F
0A6D0:  BNC   A6F4
....................                { 
....................                   Temperatura=Leer_Sensor(80); 
0A6D2:  MOVLW  50
0A6D4:  MOVLB  7
0A6D6:  MOVWF  xA9
0A6D8:  MOVLB  0
0A6DA:  CALL   308E
0A6DE:  MOVFF  03,624
0A6E2:  MOVFF  02,623
0A6E6:  MOVFF  01,622
0A6EA:  MOVFF  00,621
....................                } 
0A6EE:  MOVLB  5
0A6F0:  INCF   x9C,F
0A6F2:  BRA    A6CC
....................             } 
....................              
....................                displayT(Temperatura,15,29,2); 
0A6F4:  MOVFF  624,7AC
0A6F8:  MOVFF  623,7AB
0A6FC:  MOVFF  622,7AA
0A700:  MOVFF  621,7A9
0A704:  MOVLB  0
0A706:  CALL   4E96
0A70A:  MOVFF  02,7AA
0A70E:  MOVFF  01,7A9
0A712:  MOVFF  02,7AC
0A716:  MOVFF  01,7AB
0A71A:  MOVLW  0F
0A71C:  MOVLB  7
0A71E:  MOVWF  xAD
0A720:  MOVLW  1D
0A722:  MOVWF  xAE
0A724:  MOVLW  02
0A726:  MOVWF  xAF
0A728:  MOVLB  0
0A72A:  GOTO   5F44
0A72E:  MOVLB  5
....................              
....................             //displayTemperatura(Temperatura,15,29,0,2); 
....................          } 
....................  
....................          //displayT(Temperatura,15,29,2); 
....................             Dibuja=0; 
0A730:  BCF    x95.5
....................             glcd_circle(74,30,2,NO,ON); 
0A732:  MOVLW  4A
0A734:  MOVLB  7
0A736:  MOVWF  xC1
0A738:  MOVLW  1E
0A73A:  MOVWF  xC2
0A73C:  MOVLW  02
0A73E:  MOVWF  xC3
0A740:  CLRF   xC4
0A742:  MOVLW  01
0A744:  MOVWF  xC5
0A746:  MOVLB  0
0A748:  CALL   38E4
....................             strcpy(Menus.Letra,"C");displayMenu(Menus.Letra,75,30,2,2); 
0A74C:  MOVLW  07
0A74E:  MOVWF  FEA
0A750:  MOVLW  89
0A752:  MOVWF  FE9
0A754:  MOVFF  FF2,7A9
0A758:  BCF    FF2.7
0A75A:  MOVLW  00
0A75C:  CALL   06D2
0A760:  TBLRD*-
0A762:  TBLRD*+
0A764:  MOVF   FF5,W
0A766:  MOVWF  FEE
0A768:  IORLW  00
0A76A:  BNZ   A762
0A76C:  MOVLB  7
0A76E:  BTFSC  xA9.7
0A770:  BSF    FF2.7
0A772:  MOVLW  07
0A774:  MOVWF  xAD
0A776:  MOVLW  89
0A778:  MOVWF  xAC
0A77A:  MOVLW  4B
0A77C:  MOVWF  xAE
0A77E:  MOVLW  1E
0A780:  MOVWF  xAF
0A782:  MOVLW  02
0A784:  MOVWF  xB0
0A786:  MOVWF  xB1
0A788:  MOVLB  0
0A78A:  CALL   1BAE
....................              
....................             displayTemperatura(Setpoint,30,45,0,1); 
0A78E:  MOVFF  630,7AC
0A792:  MOVFF  62F,7AB
0A796:  MOVFF  62E,7AA
0A79A:  MOVFF  62D,7A9
0A79E:  CALL   4E96
0A7A2:  MOVFF  02,7AA
0A7A6:  MOVFF  01,7A9
0A7AA:  MOVFF  02,7AF
0A7AE:  MOVFF  01,7AE
0A7B2:  MOVLW  1E
0A7B4:  MOVLB  7
0A7B6:  MOVWF  xB0
0A7B8:  MOVLW  2D
0A7BA:  MOVWF  xB1
0A7BC:  CLRF   xB2
0A7BE:  MOVLW  01
0A7C0:  MOVWF  xB3
0A7C2:  MOVLB  0
0A7C4:  CALL   372C
....................             glcd_circle(60,47,1,NO,ON); 
0A7C8:  MOVLW  3C
0A7CA:  MOVLB  7
0A7CC:  MOVWF  xC1
0A7CE:  MOVLW  2F
0A7D0:  MOVWF  xC2
0A7D2:  MOVLW  01
0A7D4:  MOVWF  xC3
0A7D6:  CLRF   xC4
0A7D8:  MOVWF  xC5
0A7DA:  MOVLB  0
0A7DC:  CALL   38E4
....................             strcpy(Menus.Letra,"C");displayMenu(Menus.Letra,63,45,2,1); 
0A7E0:  MOVLW  07
0A7E2:  MOVWF  FEA
0A7E4:  MOVLW  89
0A7E6:  MOVWF  FE9
0A7E8:  MOVFF  FF2,7A9
0A7EC:  BCF    FF2.7
0A7EE:  MOVLW  00
0A7F0:  CALL   06D2
0A7F4:  TBLRD*-
0A7F6:  TBLRD*+
0A7F8:  MOVF   FF5,W
0A7FA:  MOVWF  FEE
0A7FC:  IORLW  00
0A7FE:  BNZ   A7F6
0A800:  MOVLB  7
0A802:  BTFSC  xA9.7
0A804:  BSF    FF2.7
0A806:  MOVLW  07
0A808:  MOVWF  xAD
0A80A:  MOVLW  89
0A80C:  MOVWF  xAC
0A80E:  MOVLW  3F
0A810:  MOVWF  xAE
0A812:  MOVLW  2D
0A814:  MOVWF  xAF
0A816:  MOVLW  02
0A818:  MOVWF  xB0
0A81A:  MOVLW  01
0A81C:  MOVWF  xB1
0A81E:  MOVLB  0
0A820:  CALL   1BAE
....................             strcpy(Menus.Letra,"Temp:");displayMenu(Menus.Letra,0,45,2,1);  
0A824:  MOVLW  07
0A826:  MOVWF  FEA
0A828:  MOVLW  89
0A82A:  MOVWF  FE9
0A82C:  MOVFF  FF2,7A9
0A830:  BCF    FF2.7
0A832:  MOVLW  00
0A834:  CALL   0FEA
0A838:  TBLRD*-
0A83A:  TBLRD*+
0A83C:  MOVF   FF5,W
0A83E:  MOVWF  FEE
0A840:  IORLW  00
0A842:  BNZ   A83A
0A844:  MOVLB  7
0A846:  BTFSC  xA9.7
0A848:  BSF    FF2.7
0A84A:  MOVLW  07
0A84C:  MOVWF  xAD
0A84E:  MOVLW  89
0A850:  MOVWF  xAC
0A852:  CLRF   xAE
0A854:  MOVLW  2D
0A856:  MOVWF  xAF
0A858:  MOVLW  02
0A85A:  MOVWF  xB0
0A85C:  MOVLW  01
0A85E:  MOVWF  xB1
0A860:  MOVLB  0
0A862:  CALL   1BAE
....................              
....................             strcpy(Menus.Letra,"Power:");displayMenu(Menus.Letra,91,32,2,1); 
0A866:  MOVLW  07
0A868:  MOVWF  FEA
0A86A:  MOVLW  89
0A86C:  MOVWF  FE9
0A86E:  MOVFF  FF2,7A9
0A872:  BCF    FF2.7
0A874:  MOVLW  00
0A876:  CALL   100E
0A87A:  TBLRD*-
0A87C:  TBLRD*+
0A87E:  MOVF   FF5,W
0A880:  MOVWF  FEE
0A882:  IORLW  00
0A884:  BNZ   A87C
0A886:  MOVLB  7
0A888:  BTFSC  xA9.7
0A88A:  BSF    FF2.7
0A88C:  MOVLW  07
0A88E:  MOVWF  xAD
0A890:  MOVLW  89
0A892:  MOVWF  xAC
0A894:  MOVLW  5B
0A896:  MOVWF  xAE
0A898:  MOVLW  20
0A89A:  MOVWF  xAF
0A89C:  MOVLW  02
0A89E:  MOVWF  xB0
0A8A0:  MOVLW  01
0A8A2:  MOVWF  xB1
0A8A4:  MOVLB  0
0A8A6:  CALL   1BAE
....................             displayTiempo(Potencia,97,42,3,1);strcpy(Menus.Letra,"%");displayMenu(Menus.Letra,115,42,2,1); 
0A8AA:  MOVFF  5D8,7AC
0A8AE:  MOVFF  5D7,7AB
0A8B2:  MOVFF  5D6,7AA
0A8B6:  MOVFF  5D5,7A9
0A8BA:  CALL   4E96
0A8BE:  MOVFF  01,7A9
0A8C2:  MOVFF  01,7AC
0A8C6:  MOVLW  61
0A8C8:  MOVLB  7
0A8CA:  MOVWF  xAD
0A8CC:  MOVLW  2A
0A8CE:  MOVWF  xAE
0A8D0:  MOVLW  03
0A8D2:  MOVWF  xAF
0A8D4:  MOVLW  01
0A8D6:  MOVWF  xB0
0A8D8:  MOVLB  0
0A8DA:  CALL   333E
0A8DE:  MOVLW  07
0A8E0:  MOVWF  FEA
0A8E2:  MOVLW  89
0A8E4:  MOVWF  FE9
0A8E6:  MOVFF  FF2,7A9
0A8EA:  BCF    FF2.7
0A8EC:  MOVLW  00
0A8EE:  CALL   1034
0A8F2:  TBLRD*-
0A8F4:  TBLRD*+
0A8F6:  MOVF   FF5,W
0A8F8:  MOVWF  FEE
0A8FA:  IORLW  00
0A8FC:  BNZ   A8F4
0A8FE:  MOVLB  7
0A900:  BTFSC  xA9.7
0A902:  BSF    FF2.7
0A904:  MOVLW  07
0A906:  MOVWF  xAD
0A908:  MOVLW  89
0A90A:  MOVWF  xAC
0A90C:  MOVLW  73
0A90E:  MOVWF  xAE
0A910:  MOVLW  2A
0A912:  MOVWF  xAF
0A914:  MOVLW  02
0A916:  MOVWF  xB0
0A918:  MOVLW  01
0A91A:  MOVWF  xB1
0A91C:  MOVLB  0
0A91E:  CALL   1BAE
....................             strcpy(Menus.Letra,"Segm.");displayMenu(Menus.Letra,95,10,2,1); 
0A922:  MOVLW  07
0A924:  MOVWF  FEA
0A926:  MOVLW  89
0A928:  MOVWF  FE9
0A92A:  MOVFF  FF2,7A9
0A92E:  BCF    FF2.7
0A930:  MOVLW  00
0A932:  CALL   1054
0A936:  TBLRD*-
0A938:  TBLRD*+
0A93A:  MOVF   FF5,W
0A93C:  MOVWF  FEE
0A93E:  IORLW  00
0A940:  BNZ   A938
0A942:  MOVLB  7
0A944:  BTFSC  xA9.7
0A946:  BSF    FF2.7
0A948:  MOVLW  07
0A94A:  MOVWF  xAD
0A94C:  MOVLW  89
0A94E:  MOVWF  xAC
0A950:  MOVLW  5F
0A952:  MOVWF  xAE
0A954:  MOVLW  0A
0A956:  MOVWF  xAF
0A958:  MOVLW  02
0A95A:  MOVWF  xB0
0A95C:  MOVLW  01
0A95E:  MOVWF  xB1
0A960:  MOVLB  0
0A962:  CALL   1BAE
....................             displayTiempo(Segmento,96,20,3,1); 
0A966:  MOVFF  593,7AC
0A96A:  MOVLW  60
0A96C:  MOVLB  7
0A96E:  MOVWF  xAD
0A970:  MOVLW  14
0A972:  MOVWF  xAE
0A974:  MOVLW  03
0A976:  MOVWF  xAF
0A978:  MOVLW  01
0A97A:  MOVWF  xB0
0A97C:  MOVLB  0
0A97E:  CALL   333E
....................             glcd_rect(90, 0, 127, 54, NO, ON); 
0A982:  MOVLW  5A
0A984:  MOVLB  7
0A986:  MOVWF  xC1
0A988:  CLRF   xC2
0A98A:  MOVLW  7F
0A98C:  MOVWF  xC3
0A98E:  MOVLW  36
0A990:  MOVWF  xC4
0A992:  CLRF   xC5
0A994:  MOVLW  01
0A996:  MOVWF  xC6
0A998:  MOVLB  0
0A99A:  CALL   1AEC
....................              
....................          //displayTiempo(Tpulsomin*10,97,42,3,1);strcpy(Menus.Letra,"%");displayMenu(Menus.Letra,115,42,2,1); 
....................           
....................          if(flag_display==1){ 
0A99E:  MOVLB  5
0A9A0:  BTFSS  x95.3
0A9A2:  BRA    A9FE
....................             displayTiempo(penMufla,97,1,3,1); 
0A9A4:  MOVFF  654,7AC
0A9A8:  MOVFF  653,7AB
0A9AC:  MOVFF  652,7AA
0A9B0:  MOVFF  651,7A9
0A9B4:  MOVLB  0
0A9B6:  CALL   4E96
0A9BA:  MOVFF  01,7A9
0A9BE:  MOVFF  01,7AC
0A9C2:  MOVLW  61
0A9C4:  MOVLB  7
0A9C6:  MOVWF  xAD
0A9C8:  MOVLW  01
0A9CA:  MOVWF  xAE
0A9CC:  MOVLW  03
0A9CE:  MOVWF  xAF
0A9D0:  MOVLW  01
0A9D2:  MOVWF  xB0
0A9D4:  MOVLB  0
0A9D6:  CALL   333E
....................             //displayTemperatura(Prom,97,13,0,1); 
....................             //displayFloat(Setpoint-TempeInicial,97,13,1); 
....................             displayFloat(TemperaturaIdeal,97,10,1);} 
0A9DA:  MOVFF  658,7AC
0A9DE:  MOVFF  657,7AB
0A9E2:  MOVFF  656,7AA
0A9E6:  MOVFF  655,7A9
0A9EA:  MOVLW  61
0A9EC:  MOVLB  7
0A9EE:  MOVWF  xAD
0A9F0:  MOVLW  0A
0A9F2:  MOVWF  xAE
0A9F4:  MOVLW  01
0A9F6:  MOVWF  xAF
0A9F8:  MOVLB  0
0A9FA:  GOTO   622E
....................   //       else{ 
.................... //            glcd_rect(60, 46, 88, 52, YES, OFF); 
.................... //            glcd_rect(97, 13, 88, 52, YES, OFF); 
....................          //} 
....................           
....................          // Muestra Valor de esterilizacion Programado. 
....................             displayTiempo(Testerilizacion[3],20,2,0,2);displayTiempo(Testerilizacion[2],33,2,0,2); 
0A9FE:  MOVFF  5E0,7AC
0AA02:  MOVLW  14
0AA04:  MOVLB  7
0AA06:  MOVWF  xAD
0AA08:  MOVLW  02
0AA0A:  MOVWF  xAE
0AA0C:  CLRF   xAF
0AA0E:  MOVWF  xB0
0AA10:  MOVLB  0
0AA12:  CALL   333E
0AA16:  MOVFF  5DF,7AC
0AA1A:  MOVLW  21
0AA1C:  MOVLB  7
0AA1E:  MOVWF  xAD
0AA20:  MOVLW  02
0AA22:  MOVWF  xAE
0AA24:  CLRF   xAF
0AA26:  MOVWF  xB0
0AA28:  MOVLB  0
0AA2A:  CALL   333E
....................             strcpy(Menus.Letra,":");displayMenu(Menus.Letra,46,2,2,2);  
0AA2E:  MOVLW  07
0AA30:  MOVWF  FEA
0AA32:  MOVLW  89
0AA34:  MOVWF  FE9
0AA36:  MOVFF  FF2,7A9
0AA3A:  BCF    FF2.7
0AA3C:  MOVLW  00
0AA3E:  CALL   1078
0AA42:  TBLRD*-
0AA44:  TBLRD*+
0AA46:  MOVF   FF5,W
0AA48:  MOVWF  FEE
0AA4A:  IORLW  00
0AA4C:  BNZ   AA44
0AA4E:  MOVLB  7
0AA50:  BTFSC  xA9.7
0AA52:  BSF    FF2.7
0AA54:  MOVLW  07
0AA56:  MOVWF  xAD
0AA58:  MOVLW  89
0AA5A:  MOVWF  xAC
0AA5C:  MOVLW  2E
0AA5E:  MOVWF  xAE
0AA60:  MOVLW  02
0AA62:  MOVWF  xAF
0AA64:  MOVWF  xB0
0AA66:  MOVWF  xB1
0AA68:  MOVLB  0
0AA6A:  CALL   1BAE
....................             displayTiempo(Testerilizacion[1],55,2,0,2);displayTiempo(Testerilizacion[0],68,2,0,2); 
0AA6E:  MOVFF  5DE,7AC
0AA72:  MOVLW  37
0AA74:  MOVLB  7
0AA76:  MOVWF  xAD
0AA78:  MOVLW  02
0AA7A:  MOVWF  xAE
0AA7C:  CLRF   xAF
0AA7E:  MOVWF  xB0
0AA80:  MOVLB  0
0AA82:  CALL   333E
0AA86:  MOVFF  5DD,7AC
0AA8A:  MOVLW  44
0AA8C:  MOVLB  7
0AA8E:  MOVWF  xAD
0AA90:  MOVLW  02
0AA92:  MOVWF  xAE
0AA94:  CLRF   xAF
0AA96:  MOVWF  xB0
0AA98:  MOVLB  0
0AA9A:  CALL   333E
....................              
....................             // Muestra Valor de esterilizacion actual. 
....................             strcpy(Menus.Letra,"Time:");displayMenu(Menus.Letra,0,18,2,1);  
0AA9E:  MOVLW  07
0AAA0:  MOVWF  FEA
0AAA2:  MOVLW  89
0AAA4:  MOVWF  FE9
0AAA6:  MOVFF  FF2,7A9
0AAAA:  BCF    FF2.7
0AAAC:  MOVLW  00
0AAAE:  CALL   1098
0AAB2:  TBLRD*-
0AAB4:  TBLRD*+
0AAB6:  MOVF   FF5,W
0AAB8:  MOVWF  FEE
0AABA:  IORLW  00
0AABC:  BNZ   AAB4
0AABE:  MOVLB  7
0AAC0:  BTFSC  xA9.7
0AAC2:  BSF    FF2.7
0AAC4:  MOVLW  07
0AAC6:  MOVWF  xAD
0AAC8:  MOVLW  89
0AACA:  MOVWF  xAC
0AACC:  CLRF   xAE
0AACE:  MOVLW  12
0AAD0:  MOVWF  xAF
0AAD2:  MOVLW  02
0AAD4:  MOVWF  xB0
0AAD6:  MOVLW  01
0AAD8:  MOVWF  xB1
0AADA:  MOVLB  0
0AADC:  CALL   1BAE
....................             displayTiempo(Testerilizacionp[3],30,18,0,1);displayTiempo(Testerilizacionp[2],36,18,0,1); 
0AAE0:  MOVFF  5E4,7AC
0AAE4:  MOVLW  1E
0AAE6:  MOVLB  7
0AAE8:  MOVWF  xAD
0AAEA:  MOVLW  12
0AAEC:  MOVWF  xAE
0AAEE:  CLRF   xAF
0AAF0:  MOVLW  01
0AAF2:  MOVWF  xB0
0AAF4:  MOVLB  0
0AAF6:  CALL   333E
0AAFA:  MOVFF  5E3,7AC
0AAFE:  MOVLW  24
0AB00:  MOVLB  7
0AB02:  MOVWF  xAD
0AB04:  MOVLW  12
0AB06:  MOVWF  xAE
0AB08:  CLRF   xAF
0AB0A:  MOVLW  01
0AB0C:  MOVWF  xB0
0AB0E:  MOVLB  0
0AB10:  CALL   333E
....................             strcpy(Menus.Letra,":");displayMenu(Menus.Letra,42,18,2,1);  
0AB14:  MOVLW  07
0AB16:  MOVWF  FEA
0AB18:  MOVLW  89
0AB1A:  MOVWF  FE9
0AB1C:  MOVFF  FF2,7A9
0AB20:  BCF    FF2.7
0AB22:  MOVLW  00
0AB24:  CALL   1078
0AB28:  TBLRD*-
0AB2A:  TBLRD*+
0AB2C:  MOVF   FF5,W
0AB2E:  MOVWF  FEE
0AB30:  IORLW  00
0AB32:  BNZ   AB2A
0AB34:  MOVLB  7
0AB36:  BTFSC  xA9.7
0AB38:  BSF    FF2.7
0AB3A:  MOVLW  07
0AB3C:  MOVWF  xAD
0AB3E:  MOVLW  89
0AB40:  MOVWF  xAC
0AB42:  MOVLW  2A
0AB44:  MOVWF  xAE
0AB46:  MOVLW  12
0AB48:  MOVWF  xAF
0AB4A:  MOVLW  02
0AB4C:  MOVWF  xB0
0AB4E:  MOVLW  01
0AB50:  MOVWF  xB1
0AB52:  MOVLB  0
0AB54:  CALL   1BAE
....................             displayTiempo(Testerilizacionp[1],48,18,0,1);displayTiempo(Testerilizacionp[0],54,18,0,1); 
0AB58:  MOVFF  5E2,7AC
0AB5C:  MOVLW  30
0AB5E:  MOVLB  7
0AB60:  MOVWF  xAD
0AB62:  MOVLW  12
0AB64:  MOVWF  xAE
0AB66:  CLRF   xAF
0AB68:  MOVLW  01
0AB6A:  MOVWF  xB0
0AB6C:  MOVLB  0
0AB6E:  CALL   333E
0AB72:  MOVFF  5E1,7AC
0AB76:  MOVLW  36
0AB78:  MOVLB  7
0AB7A:  MOVWF  xAD
0AB7C:  MOVLW  12
0AB7E:  MOVWF  xAE
0AB80:  CLRF   xAF
0AB82:  MOVLW  01
0AB84:  MOVWF  xB0
0AB86:  MOVLB  0
0AB88:  CALL   333E
....................             strcpy(Menus.Letra,"(H:M)");displayMenu(Menus.Letra,60,18,2,1);  
0AB8C:  MOVLW  07
0AB8E:  MOVWF  FEA
0AB90:  MOVLW  89
0AB92:  MOVWF  FE9
0AB94:  MOVFF  FF2,7A9
0AB98:  BCF    FF2.7
0AB9A:  MOVLW  00
0AB9C:  CALL   10BC
0ABA0:  TBLRD*-
0ABA2:  TBLRD*+
0ABA4:  MOVF   FF5,W
0ABA6:  MOVWF  FEE
0ABA8:  IORLW  00
0ABAA:  BNZ   ABA2
0ABAC:  MOVLB  7
0ABAE:  BTFSC  xA9.7
0ABB0:  BSF    FF2.7
0ABB2:  MOVLW  07
0ABB4:  MOVWF  xAD
0ABB6:  MOVLW  89
0ABB8:  MOVWF  xAC
0ABBA:  MOVLW  3C
0ABBC:  MOVWF  xAE
0ABBE:  MOVLW  12
0ABC0:  MOVWF  xAF
0ABC2:  MOVLW  02
0ABC4:  MOVWF  xB0
0ABC6:  MOVLW  01
0ABC8:  MOVWF  xB1
0ABCA:  MOVLB  0
0ABCC:  CALL   1BAE
....................           
....................             glcd_rect(0, 0, 89, 27, NO, ON); 
0ABD0:  MOVLB  7
0ABD2:  CLRF   xC1
0ABD4:  CLRF   xC2
0ABD6:  MOVLW  59
0ABD8:  MOVWF  xC3
0ABDA:  MOVLW  1B
0ABDC:  MOVWF  xC4
0ABDE:  CLRF   xC5
0ABE0:  MOVLW  01
0ABE2:  MOVWF  xC6
0ABE4:  MOVLB  0
0ABE6:  CALL   1AEC
....................             glcd_rect(0, 27, 89, 54, NO, ON); 
0ABEA:  MOVLB  7
0ABEC:  CLRF   xC1
0ABEE:  MOVLW  1B
0ABF0:  MOVWF  xC2
0ABF2:  MOVLW  59
0ABF4:  MOVWF  xC3
0ABF6:  MOVLW  36
0ABF8:  MOVWF  xC4
0ABFA:  CLRF   xC5
0ABFC:  MOVLW  01
0ABFE:  MOVWF  xC6
0AC00:  MOVLB  0
0AC02:  CALL   1AEC
0AC06:  MOVLB  5
....................       }  
....................       
....................       // Si cumplio el tiempo de esterilizacin, Muestre ciclo finalizado y detenga control de temperatura. 
....................       if((Testerilizacion[0]>=Testerilizacionp[0])&&(Testerilizacion[1]>=Testerilizacionp[1])&&(Testerilizacion[2]>=Testerilizacionp[2])&&(Testerilizacion[3]>=Testerilizacionp[3]) && Pausa<3) 
0AC08:  MOVF   xE1,W
0AC0A:  XORLW  80
0AC0C:  MOVWF  00
0AC0E:  MOVF   xDD,W
0AC10:  XORLW  80
0AC12:  SUBWF  00,W
0AC14:  BZ    AC1A
0AC16:  BTFSC  FD8.0
0AC18:  BRA    AD1C
0AC1A:  MOVF   xE2,W
0AC1C:  XORLW  80
0AC1E:  MOVWF  00
0AC20:  MOVF   xDE,W
0AC22:  XORLW  80
0AC24:  SUBWF  00,W
0AC26:  BZ    AC2C
0AC28:  BTFSC  FD8.0
0AC2A:  BRA    AD1C
0AC2C:  MOVF   xE3,W
0AC2E:  XORLW  80
0AC30:  MOVWF  00
0AC32:  MOVF   xDF,W
0AC34:  XORLW  80
0AC36:  SUBWF  00,W
0AC38:  BZ    AC3C
0AC3A:  BC    AD1C
0AC3C:  MOVF   xE4,W
0AC3E:  XORLW  80
0AC40:  MOVWF  00
0AC42:  MOVF   xE0,W
0AC44:  XORLW  80
0AC46:  SUBWF  00,W
0AC48:  BZ    AC4C
0AC4A:  BC    AD1C
0AC4C:  MOVF   x9E,W
0AC4E:  SUBLW  02
0AC50:  BNC   AD1C
....................       { 
....................          flag_calcula=0; 
0AC52:  BCF    x95.0
....................          if(Segmento<Segmentos){ 
0AC54:  MOVF   x92,W
0AC56:  SUBWF  x93,W
0AC58:  BC    AC66
....................             Segmento++; 
0AC5A:  INCF   x93,F
....................             Testerilizacion[0]=0; 
0AC5C:  CLRF   xDD
....................             Testerilizacion[1]=0; 
0AC5E:  CLRF   xDE
....................             Testerilizacion[2]=0; 
0AC60:  CLRF   xDF
....................             Testerilizacion[3]=0; 
0AC62:  CLRF   xE0
....................          } 
....................          else{ 
0AC64:  BRA    AC6A
....................             Pausa=3; 
0AC66:  MOVLW  03
0AC68:  MOVWF  x9E
....................          } 
....................          glcd_fillScreen(OFF); 
0AC6A:  MOVLB  7
0AC6C:  CLRF   xAA
0AC6E:  MOVLB  0
0AC70:  CALL   1580
....................          Buzz_on; 
0AC74:  BSF    F8B.7
0AC76:  BCF    F94.7
....................          delay_ms(1000); 
0AC78:  MOVLW  04
0AC7A:  MOVLB  7
0AC7C:  MOVWF  xA9
0AC7E:  MOVLW  FA
0AC80:  MOVWF  xAF
0AC82:  MOVLB  0
0AC84:  CALL   1500
0AC88:  MOVLB  7
0AC8A:  DECFSZ xA9,F
0AC8C:  BRA    AC7E
....................          Buzz_off; 
0AC8E:  BCF    F8B.7
0AC90:  BCF    F94.7
....................          delay_ms(1000); 
0AC92:  MOVLW  04
0AC94:  MOVWF  xA9
0AC96:  MOVLW  FA
0AC98:  MOVWF  xAF
0AC9A:  MOVLB  0
0AC9C:  CALL   1500
0ACA0:  MOVLB  7
0ACA2:  DECFSZ xA9,F
0ACA4:  BRA    AC96
....................          glcd_init(ON); 
0ACA6:  MOVLW  01
0ACA8:  MOVWF  xA9
0ACAA:  MOVLB  0
0ACAC:  CALL   1692
....................          strcpy(Menus.Letra,"Status:Cambio Seg."); 
0ACB0:  MOVLW  07
0ACB2:  MOVWF  FEA
0ACB4:  MOVLW  89
0ACB6:  MOVWF  FE9
0ACB8:  MOVFF  FF2,7A9
0ACBC:  BCF    FF2.7
0ACBE:  MOVLW  00
0ACC0:  CALL   10E0
0ACC4:  TBLRD*-
0ACC6:  TBLRD*+
0ACC8:  MOVF   FF5,W
0ACCA:  MOVWF  FEE
0ACCC:  IORLW  00
0ACCE:  BNZ   ACC6
0ACD0:  MOVLB  7
0ACD2:  BTFSC  xA9.7
0ACD4:  BSF    FF2.7
....................          displayMenu(Menus.Letra,0,55,2,1);          
0ACD6:  MOVLW  07
0ACD8:  MOVWF  xAD
0ACDA:  MOVLW  89
0ACDC:  MOVWF  xAC
0ACDE:  CLRF   xAE
0ACE0:  MOVLW  37
0ACE2:  MOVWF  xAF
0ACE4:  MOVLW  02
0ACE6:  MOVWF  xB0
0ACE8:  MOVLW  01
0ACEA:  MOVWF  xB1
0ACEC:  MOVLB  0
0ACEE:  CALL   1BAE
....................          delay_ms(500); 
0ACF2:  MOVLW  02
0ACF4:  MOVLB  7
0ACF6:  MOVWF  xA9
0ACF8:  MOVLW  FA
0ACFA:  MOVWF  xAF
0ACFC:  MOVLB  0
0ACFE:  CALL   1500
0AD02:  MOVLB  7
0AD04:  DECFSZ xA9,F
0AD06:  BRA    ACF8
....................           
....................          if(Pausa==3){ 
0AD08:  MOVLB  5
0AD0A:  MOVF   x9E,W
0AD0C:  SUBLW  03
0AD0E:  BNZ   AD1C
....................             glcd_fillScreen(OFF); 
0AD10:  MOVLB  7
0AD12:  CLRF   xAA
0AD14:  MOVLB  0
0AD16:  CALL   1580
0AD1A:  MOVLB  5
....................          } 
....................       }  
....................        
....................       if(tinicio>=60) 
0AD1C:  MOVF   xAC,F
0AD1E:  BNZ   AD26
0AD20:  MOVF   xAB,W
0AD22:  SUBLW  3B
0AD24:  BC    AD62
....................       { 
....................          tinicio=0; 
0AD26:  CLRF   xAC
0AD28:  CLRF   xAB
....................          Testerilizacion[0]++; 
0AD2A:  INCF   xDD,F
....................          if(Testerilizacion[0]>9) 
0AD2C:  BTFSC  xDD.7
0AD2E:  BRA    AD3A
0AD30:  MOVF   xDD,W
0AD32:  SUBLW  09
0AD34:  BC    AD3A
....................          { 
....................             Testerilizacion[0]=0; 
0AD36:  CLRF   xDD
....................             Testerilizacion[1]++; 
0AD38:  INCF   xDE,F
....................          } 
....................          if(Testerilizacion[1]>5) 
0AD3A:  BTFSC  xDE.7
0AD3C:  BRA    AD48
0AD3E:  MOVF   xDE,W
0AD40:  SUBLW  05
0AD42:  BC    AD48
....................          { 
....................             Testerilizacion[1]=0; 
0AD44:  CLRF   xDE
....................             Testerilizacion[2]++; 
0AD46:  INCF   xDF,F
....................          } 
....................          if(Testerilizacion[2]>9) 
0AD48:  BTFSC  xDF.7
0AD4A:  BRA    AD56
0AD4C:  MOVF   xDF,W
0AD4E:  SUBLW  09
0AD50:  BC    AD56
....................          { 
....................             Testerilizacion[2]=0; 
0AD52:  CLRF   xDF
....................             Testerilizacion[3]++; 
0AD54:  INCF   xE0,F
....................          } 
....................          if(Testerilizacion[3]>9) 
0AD56:  BTFSC  xE0.7
0AD58:  BRA    AD62
0AD5A:  MOVF   xE0,W
0AD5C:  SUBLW  09
0AD5E:  BC    AD62
....................          { 
....................             Testerilizacion[3]=0; 
0AD60:  CLRF   xE0
....................          } 
....................       } 
....................        
....................       if(LEFT)//Si oprime boton de Toma. 
0AD62:  BSF    F96.2
0AD64:  BTFSC  F84.2
0AD66:  BRA    ADA6
....................       { 
....................          if(Pausa<3){ 
0AD68:  MOVF   x9E,W
0AD6A:  SUBLW  02
0AD6C:  BNC   ADA6
....................             if(Pausa!=2) 
0AD6E:  MOVF   x9E,W
0AD70:  SUBLW  02
0AD72:  BZ    ADA6
....................             { 
....................                delay_ms(500);Menu=30;glcd_fillscreen(OFF);Opcion=1;visual=1;Pausa=1;Menu=1; 
0AD74:  MOVLW  02
0AD76:  MOVLB  7
0AD78:  MOVWF  xA9
0AD7A:  MOVLW  FA
0AD7C:  MOVWF  xAF
0AD7E:  MOVLB  0
0AD80:  CALL   1500
0AD84:  MOVLB  7
0AD86:  DECFSZ xA9,F
0AD88:  BRA    AD7A
0AD8A:  MOVLW  1E
0AD8C:  MOVLB  5
0AD8E:  MOVWF  x9A
0AD90:  MOVLB  7
0AD92:  CLRF   xAA
0AD94:  MOVLB  0
0AD96:  CALL   1580
0AD9A:  MOVLW  01
0AD9C:  MOVLB  5
0AD9E:  MOVWF  xA1
0ADA0:  BSF    x87.6
0ADA2:  MOVWF  x9E
0ADA4:  MOVWF  x9A
....................             } 
....................          } 
....................       } 
....................        
....................       if(Pausa==3 && !DOOR){          
0ADA6:  MOVF   x9E,W
0ADA8:  SUBLW  03
0ADAA:  BNZ   AE0A
0ADAC:  BSF    F92.4
0ADAE:  BTFSC  F80.4
0ADB0:  BRA    AE0A
....................          strcpy(Menus.Letra,"Status:Finalizado"); 
0ADB2:  MOVLW  07
0ADB4:  MOVWF  FEA
0ADB6:  MOVLW  89
0ADB8:  MOVWF  FE9
0ADBA:  MOVFF  FF2,7A9
0ADBE:  BCF    FF2.7
0ADC0:  MOVLW  00
0ADC2:  MOVLB  0
0ADC4:  CALL   1112
0ADC8:  TBLRD*-
0ADCA:  TBLRD*+
0ADCC:  MOVF   FF5,W
0ADCE:  MOVWF  FEE
0ADD0:  IORLW  00
0ADD2:  BNZ   ADCA
0ADD4:  MOVLB  7
0ADD6:  BTFSC  xA9.7
0ADD8:  BSF    FF2.7
....................          displayMenu(Menus.Letra,0,55,2,1); 
0ADDA:  MOVLW  07
0ADDC:  MOVWF  xAD
0ADDE:  MOVLW  89
0ADE0:  MOVWF  xAC
0ADE2:  CLRF   xAE
0ADE4:  MOVLW  37
0ADE6:  MOVWF  xAF
0ADE8:  MOVLW  02
0ADEA:  MOVWF  xB0
0ADEC:  MOVLW  01
0ADEE:  MOVWF  xB1
0ADF0:  MOVLB  0
0ADF2:  CALL   1BAE
....................          tiempo_esterilizacion=4; 
0ADF6:  MOVLW  04
0ADF8:  MOVLB  5
0ADFA:  MOVWF  xA2
....................          Control=0; 
0ADFC:  CLRF   x99
....................          Resistencia_off; 
0ADFE:  BCF    F8B.0
0AE00:  BCF    F94.0
....................          Tpulso=0.0; 
0AE02:  CLRF   xF8
0AE04:  CLRF   xF7
0AE06:  CLRF   xF6
0AE08:  CLRF   xF5
....................       } 
....................          
....................     } 
.................... //_--------------------------------------------------------------------------------------------------------------------------------------------------------        
....................  
.................... //_-------------------------------------------------------------------------------------------------------------------------------------------------------- 
....................       if(Menu==100){ //Menu de Configuracin de Parametros de Control 
0AE0A:  MOVF   x9A,W
0AE0C:  SUBLW  64
0AE0E:  BTFSS  FD8.2
0AE10:  GOTO   B59A
....................        
....................       if(Opcion>11) 
0AE14:  MOVF   xA1,W
0AE16:  SUBLW  0B
0AE18:  BC    AE1E
....................       {Opcion=1;} 
0AE1A:  MOVLW  01
0AE1C:  MOVWF  xA1
....................       if(Opcion<1) 
0AE1E:  MOVF   xA1,F
0AE20:  BNZ   AE26
....................       {Opcion=11;} 
0AE22:  MOVLW  0B
0AE24:  MOVWF  xA1
....................        
....................       if(Opcion<=6){ 
0AE26:  MOVF   xA1,W
0AE28:  SUBLW  06
0AE2A:  BTFSS  FD8.0
0AE2C:  BRA    B18A
....................          if(Opcion==1)    
0AE2E:  DECFSZ xA1,W
0AE30:  BRA    AE76
....................             {strcpy(Menus.Letra,"Proporcional"); 
0AE32:  MOVLW  07
0AE34:  MOVWF  FEA
0AE36:  MOVLW  89
0AE38:  MOVWF  FE9
0AE3A:  MOVFF  FF2,7A9
0AE3E:  BCF    FF2.7
0AE40:  MOVLW  00
0AE42:  MOVLB  0
0AE44:  CALL   1142
0AE48:  TBLRD*-
0AE4A:  TBLRD*+
0AE4C:  MOVF   FF5,W
0AE4E:  MOVWF  FEE
0AE50:  IORLW  00
0AE52:  BNZ   AE4A
0AE54:  MOVLB  7
0AE56:  BTFSC  xA9.7
0AE58:  BSF    FF2.7
....................             displayMenu(Menus.Letra,0,0,1,1);} 
0AE5A:  MOVLW  07
0AE5C:  MOVWF  xAD
0AE5E:  MOVLW  89
0AE60:  MOVWF  xAC
0AE62:  CLRF   xAE
0AE64:  CLRF   xAF
0AE66:  MOVLW  01
0AE68:  MOVWF  xB0
0AE6A:  MOVWF  xB1
0AE6C:  MOVLB  0
0AE6E:  CALL   1BAE
....................          else 
0AE72:  BRA    AEB6
0AE74:  MOVLB  5
....................             {strcpy(Menus.Letra,"Proporcional"); 
0AE76:  MOVLW  07
0AE78:  MOVWF  FEA
0AE7A:  MOVLW  89
0AE7C:  MOVWF  FE9
0AE7E:  MOVFF  FF2,7A9
0AE82:  BCF    FF2.7
0AE84:  MOVLW  00
0AE86:  MOVLB  0
0AE88:  CALL   1142
0AE8C:  TBLRD*-
0AE8E:  TBLRD*+
0AE90:  MOVF   FF5,W
0AE92:  MOVWF  FEE
0AE94:  IORLW  00
0AE96:  BNZ   AE8E
0AE98:  MOVLB  7
0AE9A:  BTFSC  xA9.7
0AE9C:  BSF    FF2.7
....................             displayMenu(Menus.Letra,0,0,0,1);} 
0AE9E:  MOVLW  07
0AEA0:  MOVWF  xAD
0AEA2:  MOVLW  89
0AEA4:  MOVWF  xAC
0AEA6:  CLRF   xAE
0AEA8:  CLRF   xAF
0AEAA:  CLRF   xB0
0AEAC:  MOVLW  01
0AEAE:  MOVWF  xB1
0AEB0:  MOVLB  0
0AEB2:  CALL   1BAE
....................           
....................          if(Opcion==2)    
0AEB6:  MOVLB  5
0AEB8:  MOVF   xA1,W
0AEBA:  SUBLW  02
0AEBC:  BNZ   AF04
....................             {strcpy(Menus.Letra,"Integral"); 
0AEBE:  MOVLW  07
0AEC0:  MOVWF  FEA
0AEC2:  MOVLW  89
0AEC4:  MOVWF  FE9
0AEC6:  MOVFF  FF2,7A9
0AECA:  BCF    FF2.7
0AECC:  MOVLW  00
0AECE:  MOVLB  0
0AED0:  CALL   116E
0AED4:  TBLRD*-
0AED6:  TBLRD*+
0AED8:  MOVF   FF5,W
0AEDA:  MOVWF  FEE
0AEDC:  IORLW  00
0AEDE:  BNZ   AED6
0AEE0:  MOVLB  7
0AEE2:  BTFSC  xA9.7
0AEE4:  BSF    FF2.7
....................             displayMenu(Menus.Letra,0,9,1,1);} 
0AEE6:  MOVLW  07
0AEE8:  MOVWF  xAD
0AEEA:  MOVLW  89
0AEEC:  MOVWF  xAC
0AEEE:  CLRF   xAE
0AEF0:  MOVLW  09
0AEF2:  MOVWF  xAF
0AEF4:  MOVLW  01
0AEF6:  MOVWF  xB0
0AEF8:  MOVWF  xB1
0AEFA:  MOVLB  0
0AEFC:  CALL   1BAE
....................          else 
0AF00:  BRA    AF46
0AF02:  MOVLB  5
....................             {strcpy(Menus.Letra,"Integral"); 
0AF04:  MOVLW  07
0AF06:  MOVWF  FEA
0AF08:  MOVLW  89
0AF0A:  MOVWF  FE9
0AF0C:  MOVFF  FF2,7A9
0AF10:  BCF    FF2.7
0AF12:  MOVLW  00
0AF14:  MOVLB  0
0AF16:  CALL   116E
0AF1A:  TBLRD*-
0AF1C:  TBLRD*+
0AF1E:  MOVF   FF5,W
0AF20:  MOVWF  FEE
0AF22:  IORLW  00
0AF24:  BNZ   AF1C
0AF26:  MOVLB  7
0AF28:  BTFSC  xA9.7
0AF2A:  BSF    FF2.7
....................             displayMenu(Menus.Letra,0,9,0,1);} 
0AF2C:  MOVLW  07
0AF2E:  MOVWF  xAD
0AF30:  MOVLW  89
0AF32:  MOVWF  xAC
0AF34:  CLRF   xAE
0AF36:  MOVLW  09
0AF38:  MOVWF  xAF
0AF3A:  CLRF   xB0
0AF3C:  MOVLW  01
0AF3E:  MOVWF  xB1
0AF40:  MOVLB  0
0AF42:  CALL   1BAE
....................              
....................          if(Opcion==3)    
0AF46:  MOVLB  5
0AF48:  MOVF   xA1,W
0AF4A:  SUBLW  03
0AF4C:  BNZ   AF94
....................             {strcpy(Menus.Letra,"Derivativo"); 
0AF4E:  MOVLW  07
0AF50:  MOVWF  FEA
0AF52:  MOVLW  89
0AF54:  MOVWF  FE9
0AF56:  MOVFF  FF2,7A9
0AF5A:  BCF    FF2.7
0AF5C:  MOVLW  00
0AF5E:  MOVLB  0
0AF60:  CALL   1196
0AF64:  TBLRD*-
0AF66:  TBLRD*+
0AF68:  MOVF   FF5,W
0AF6A:  MOVWF  FEE
0AF6C:  IORLW  00
0AF6E:  BNZ   AF66
0AF70:  MOVLB  7
0AF72:  BTFSC  xA9.7
0AF74:  BSF    FF2.7
....................             displayMenu(Menus.Letra,0,18,1,1);} 
0AF76:  MOVLW  07
0AF78:  MOVWF  xAD
0AF7A:  MOVLW  89
0AF7C:  MOVWF  xAC
0AF7E:  CLRF   xAE
0AF80:  MOVLW  12
0AF82:  MOVWF  xAF
0AF84:  MOVLW  01
0AF86:  MOVWF  xB0
0AF88:  MOVWF  xB1
0AF8A:  MOVLB  0
0AF8C:  CALL   1BAE
....................          else 
0AF90:  BRA    AFD6
0AF92:  MOVLB  5
....................             {strcpy(Menus.Letra,"Derivativo"); 
0AF94:  MOVLW  07
0AF96:  MOVWF  FEA
0AF98:  MOVLW  89
0AF9A:  MOVWF  FE9
0AF9C:  MOVFF  FF2,7A9
0AFA0:  BCF    FF2.7
0AFA2:  MOVLW  00
0AFA4:  MOVLB  0
0AFA6:  CALL   1196
0AFAA:  TBLRD*-
0AFAC:  TBLRD*+
0AFAE:  MOVF   FF5,W
0AFB0:  MOVWF  FEE
0AFB2:  IORLW  00
0AFB4:  BNZ   AFAC
0AFB6:  MOVLB  7
0AFB8:  BTFSC  xA9.7
0AFBA:  BSF    FF2.7
....................             displayMenu(Menus.Letra,0,18,0,1);}    
0AFBC:  MOVLW  07
0AFBE:  MOVWF  xAD
0AFC0:  MOVLW  89
0AFC2:  MOVWF  xAC
0AFC4:  CLRF   xAE
0AFC6:  MOVLW  12
0AFC8:  MOVWF  xAF
0AFCA:  CLRF   xB0
0AFCC:  MOVLW  01
0AFCE:  MOVWF  xB1
0AFD0:  MOVLB  0
0AFD2:  CALL   1BAE
....................           
....................          if(Opcion==4)    
0AFD6:  MOVLB  5
0AFD8:  MOVF   xA1,W
0AFDA:  SUBLW  04
0AFDC:  BNZ   B024
....................             {strcpy(Menus.Letra,"Tciclo"); 
0AFDE:  MOVLW  07
0AFE0:  MOVWF  FEA
0AFE2:  MOVLW  89
0AFE4:  MOVWF  FE9
0AFE6:  MOVFF  FF2,7A9
0AFEA:  BCF    FF2.7
0AFEC:  MOVLW  00
0AFEE:  MOVLB  0
0AFF0:  CALL   11C0
0AFF4:  TBLRD*-
0AFF6:  TBLRD*+
0AFF8:  MOVF   FF5,W
0AFFA:  MOVWF  FEE
0AFFC:  IORLW  00
0AFFE:  BNZ   AFF6
0B000:  MOVLB  7
0B002:  BTFSC  xA9.7
0B004:  BSF    FF2.7
....................             displayMenu(Menus.Letra,0,27,1,1);} 
0B006:  MOVLW  07
0B008:  MOVWF  xAD
0B00A:  MOVLW  89
0B00C:  MOVWF  xAC
0B00E:  CLRF   xAE
0B010:  MOVLW  1B
0B012:  MOVWF  xAF
0B014:  MOVLW  01
0B016:  MOVWF  xB0
0B018:  MOVWF  xB1
0B01A:  MOVLB  0
0B01C:  CALL   1BAE
....................          else 
0B020:  BRA    B066
0B022:  MOVLB  5
....................             {strcpy(Menus.Letra,"Tciclo"); 
0B024:  MOVLW  07
0B026:  MOVWF  FEA
0B028:  MOVLW  89
0B02A:  MOVWF  FE9
0B02C:  MOVFF  FF2,7A9
0B030:  BCF    FF2.7
0B032:  MOVLW  00
0B034:  MOVLB  0
0B036:  CALL   11C0
0B03A:  TBLRD*-
0B03C:  TBLRD*+
0B03E:  MOVF   FF5,W
0B040:  MOVWF  FEE
0B042:  IORLW  00
0B044:  BNZ   B03C
0B046:  MOVLB  7
0B048:  BTFSC  xA9.7
0B04A:  BSF    FF2.7
....................             displayMenu(Menus.Letra,0,27,0,1);} 
0B04C:  MOVLW  07
0B04E:  MOVWF  xAD
0B050:  MOVLW  89
0B052:  MOVWF  xAC
0B054:  CLRF   xAE
0B056:  MOVLW  1B
0B058:  MOVWF  xAF
0B05A:  CLRF   xB0
0B05C:  MOVLW  01
0B05E:  MOVWF  xB1
0B060:  MOVLB  0
0B062:  CALL   1BAE
....................              
....................          if(Opcion==5)    
0B066:  MOVLB  5
0B068:  MOVF   xA1,W
0B06A:  SUBLW  05
0B06C:  BNZ   B0B4
....................             {strcpy(Menus.Letra,"Ajuste +"); 
0B06E:  MOVLW  07
0B070:  MOVWF  FEA
0B072:  MOVLW  89
0B074:  MOVWF  FE9
0B076:  MOVFF  FF2,7A9
0B07A:  BCF    FF2.7
0B07C:  MOVLW  00
0B07E:  MOVLB  0
0B080:  CALL   11E6
0B084:  TBLRD*-
0B086:  TBLRD*+
0B088:  MOVF   FF5,W
0B08A:  MOVWF  FEE
0B08C:  IORLW  00
0B08E:  BNZ   B086
0B090:  MOVLB  7
0B092:  BTFSC  xA9.7
0B094:  BSF    FF2.7
....................             displayMenu(Menus.Letra,0,36,1,1);} 
0B096:  MOVLW  07
0B098:  MOVWF  xAD
0B09A:  MOVLW  89
0B09C:  MOVWF  xAC
0B09E:  CLRF   xAE
0B0A0:  MOVLW  24
0B0A2:  MOVWF  xAF
0B0A4:  MOVLW  01
0B0A6:  MOVWF  xB0
0B0A8:  MOVWF  xB1
0B0AA:  MOVLB  0
0B0AC:  CALL   1BAE
....................          else 
0B0B0:  BRA    B0F6
0B0B2:  MOVLB  5
....................             {strcpy(Menus.Letra,"Ajuste +"); 
0B0B4:  MOVLW  07
0B0B6:  MOVWF  FEA
0B0B8:  MOVLW  89
0B0BA:  MOVWF  FE9
0B0BC:  MOVFF  FF2,7A9
0B0C0:  BCF    FF2.7
0B0C2:  MOVLW  00
0B0C4:  MOVLB  0
0B0C6:  CALL   11E6
0B0CA:  TBLRD*-
0B0CC:  TBLRD*+
0B0CE:  MOVF   FF5,W
0B0D0:  MOVWF  FEE
0B0D2:  IORLW  00
0B0D4:  BNZ   B0CC
0B0D6:  MOVLB  7
0B0D8:  BTFSC  xA9.7
0B0DA:  BSF    FF2.7
....................             displayMenu(Menus.Letra,0,36,0,1);}    
0B0DC:  MOVLW  07
0B0DE:  MOVWF  xAD
0B0E0:  MOVLW  89
0B0E2:  MOVWF  xAC
0B0E4:  CLRF   xAE
0B0E6:  MOVLW  24
0B0E8:  MOVWF  xAF
0B0EA:  CLRF   xB0
0B0EC:  MOVLW  01
0B0EE:  MOVWF  xB1
0B0F0:  MOVLB  0
0B0F2:  CALL   1BAE
....................                          
....................          if(Opcion==6)    
0B0F6:  MOVLB  5
0B0F8:  MOVF   xA1,W
0B0FA:  SUBLW  06
0B0FC:  BNZ   B144
....................             {strcpy(Menus.Letra,"Ajuste -"); 
0B0FE:  MOVLW  07
0B100:  MOVWF  FEA
0B102:  MOVLW  89
0B104:  MOVWF  FE9
0B106:  MOVFF  FF2,7A9
0B10A:  BCF    FF2.7
0B10C:  MOVLW  00
0B10E:  MOVLB  0
0B110:  CALL   120E
0B114:  TBLRD*-
0B116:  TBLRD*+
0B118:  MOVF   FF5,W
0B11A:  MOVWF  FEE
0B11C:  IORLW  00
0B11E:  BNZ   B116
0B120:  MOVLB  7
0B122:  BTFSC  xA9.7
0B124:  BSF    FF2.7
....................             displayMenu(Menus.Letra,0,45,1,1);} 
0B126:  MOVLW  07
0B128:  MOVWF  xAD
0B12A:  MOVLW  89
0B12C:  MOVWF  xAC
0B12E:  CLRF   xAE
0B130:  MOVLW  2D
0B132:  MOVWF  xAF
0B134:  MOVLW  01
0B136:  MOVWF  xB0
0B138:  MOVWF  xB1
0B13A:  MOVLB  0
0B13C:  CALL   1BAE
....................          else 
0B140:  BRA    B186
0B142:  MOVLB  5
....................             {strcpy(Menus.Letra,"Ajuste -"); 
0B144:  MOVLW  07
0B146:  MOVWF  FEA
0B148:  MOVLW  89
0B14A:  MOVWF  FE9
0B14C:  MOVFF  FF2,7A9
0B150:  BCF    FF2.7
0B152:  MOVLW  00
0B154:  MOVLB  0
0B156:  CALL   120E
0B15A:  TBLRD*-
0B15C:  TBLRD*+
0B15E:  MOVF   FF5,W
0B160:  MOVWF  FEE
0B162:  IORLW  00
0B164:  BNZ   B15C
0B166:  MOVLB  7
0B168:  BTFSC  xA9.7
0B16A:  BSF    FF2.7
....................             displayMenu(Menus.Letra,0,45,0,1);}      
0B16C:  MOVLW  07
0B16E:  MOVWF  xAD
0B170:  MOVLW  89
0B172:  MOVWF  xAC
0B174:  CLRF   xAE
0B176:  MOVLW  2D
0B178:  MOVWF  xAF
0B17A:  CLRF   xB0
0B17C:  MOVLW  01
0B17E:  MOVWF  xB1
0B180:  MOVLB  0
0B182:  CALL   1BAE
....................       } 
....................       else{ 
0B186:  BRA    B494
0B188:  MOVLB  5
....................          if(Opcion==7)    
0B18A:  MOVF   xA1,W
0B18C:  SUBLW  07
0B18E:  BNZ   B1D4
....................             {strcpy(Menus.Letra,"Media Movil"); 
0B190:  MOVLW  07
0B192:  MOVWF  FEA
0B194:  MOVLW  89
0B196:  MOVWF  FE9
0B198:  MOVFF  FF2,7A9
0B19C:  BCF    FF2.7
0B19E:  MOVLW  00
0B1A0:  MOVLB  0
0B1A2:  CALL   1236
0B1A6:  TBLRD*-
0B1A8:  TBLRD*+
0B1AA:  MOVF   FF5,W
0B1AC:  MOVWF  FEE
0B1AE:  IORLW  00
0B1B0:  BNZ   B1A8
0B1B2:  MOVLB  7
0B1B4:  BTFSC  xA9.7
0B1B6:  BSF    FF2.7
....................             displayMenu(Menus.Letra,0,0,1,1);} 
0B1B8:  MOVLW  07
0B1BA:  MOVWF  xAD
0B1BC:  MOVLW  89
0B1BE:  MOVWF  xAC
0B1C0:  CLRF   xAE
0B1C2:  CLRF   xAF
0B1C4:  MOVLW  01
0B1C6:  MOVWF  xB0
0B1C8:  MOVWF  xB1
0B1CA:  MOVLB  0
0B1CC:  CALL   1BAE
....................          else 
0B1D0:  BRA    B214
0B1D2:  MOVLB  5
....................             {strcpy(Menus.Letra,"Media Movil"); 
0B1D4:  MOVLW  07
0B1D6:  MOVWF  FEA
0B1D8:  MOVLW  89
0B1DA:  MOVWF  FE9
0B1DC:  MOVFF  FF2,7A9
0B1E0:  BCF    FF2.7
0B1E2:  MOVLW  00
0B1E4:  MOVLB  0
0B1E6:  CALL   1236
0B1EA:  TBLRD*-
0B1EC:  TBLRD*+
0B1EE:  MOVF   FF5,W
0B1F0:  MOVWF  FEE
0B1F2:  IORLW  00
0B1F4:  BNZ   B1EC
0B1F6:  MOVLB  7
0B1F8:  BTFSC  xA9.7
0B1FA:  BSF    FF2.7
....................             displayMenu(Menus.Letra,0,0,0,1);}      
0B1FC:  MOVLW  07
0B1FE:  MOVWF  xAD
0B200:  MOVLW  89
0B202:  MOVWF  xAC
0B204:  CLRF   xAE
0B206:  CLRF   xAF
0B208:  CLRF   xB0
0B20A:  MOVLW  01
0B20C:  MOVWF  xB1
0B20E:  MOVLB  0
0B210:  CALL   1BAE
....................              
....................          if(Opcion==8)    
0B214:  MOVLB  5
0B216:  MOVF   xA1,W
0B218:  SUBLW  08
0B21A:  BNZ   B262
....................             {strcpy(Menus.Letra,"Coeficiente"); 
0B21C:  MOVLW  07
0B21E:  MOVWF  FEA
0B220:  MOVLW  89
0B222:  MOVWF  FE9
0B224:  MOVFF  FF2,7A9
0B228:  BCF    FF2.7
0B22A:  MOVLW  00
0B22C:  MOVLB  0
0B22E:  CALL   1260
0B232:  TBLRD*-
0B234:  TBLRD*+
0B236:  MOVF   FF5,W
0B238:  MOVWF  FEE
0B23A:  IORLW  00
0B23C:  BNZ   B234
0B23E:  MOVLB  7
0B240:  BTFSC  xA9.7
0B242:  BSF    FF2.7
....................             displayMenu(Menus.Letra,0,9,1,1);} 
0B244:  MOVLW  07
0B246:  MOVWF  xAD
0B248:  MOVLW  89
0B24A:  MOVWF  xAC
0B24C:  CLRF   xAE
0B24E:  MOVLW  09
0B250:  MOVWF  xAF
0B252:  MOVLW  01
0B254:  MOVWF  xB0
0B256:  MOVWF  xB1
0B258:  MOVLB  0
0B25A:  CALL   1BAE
....................          else 
0B25E:  BRA    B2A4
0B260:  MOVLB  5
....................             {strcpy(Menus.Letra,"Coeficiente"); 
0B262:  MOVLW  07
0B264:  MOVWF  FEA
0B266:  MOVLW  89
0B268:  MOVWF  FE9
0B26A:  MOVFF  FF2,7A9
0B26E:  BCF    FF2.7
0B270:  MOVLW  00
0B272:  MOVLB  0
0B274:  CALL   1260
0B278:  TBLRD*-
0B27A:  TBLRD*+
0B27C:  MOVF   FF5,W
0B27E:  MOVWF  FEE
0B280:  IORLW  00
0B282:  BNZ   B27A
0B284:  MOVLB  7
0B286:  BTFSC  xA9.7
0B288:  BSF    FF2.7
....................             displayMenu(Menus.Letra,0,9,0,1);}   
0B28A:  MOVLW  07
0B28C:  MOVWF  xAD
0B28E:  MOVLW  89
0B290:  MOVWF  xAC
0B292:  CLRF   xAE
0B294:  MOVLW  09
0B296:  MOVWF  xAF
0B298:  CLRF   xB0
0B29A:  MOVLW  01
0B29C:  MOVWF  xB1
0B29E:  MOVLB  0
0B2A0:  CALL   1BAE
....................              
....................          if(Opcion==9)    
0B2A4:  MOVLB  5
0B2A6:  MOVF   xA1,W
0B2A8:  SUBLW  09
0B2AA:  BNZ   B2F2
....................             {strcpy(Menus.Letra,"Alarma SobreT"); 
0B2AC:  MOVLW  07
0B2AE:  MOVWF  FEA
0B2B0:  MOVLW  89
0B2B2:  MOVWF  FE9
0B2B4:  MOVFF  FF2,7A9
0B2B8:  BCF    FF2.7
0B2BA:  MOVLW  00
0B2BC:  MOVLB  0
0B2BE:  CALL   128A
0B2C2:  TBLRD*-
0B2C4:  TBLRD*+
0B2C6:  MOVF   FF5,W
0B2C8:  MOVWF  FEE
0B2CA:  IORLW  00
0B2CC:  BNZ   B2C4
0B2CE:  MOVLB  7
0B2D0:  BTFSC  xA9.7
0B2D2:  BSF    FF2.7
....................             displayMenu(Menus.Letra,0,18,1,1);} 
0B2D4:  MOVLW  07
0B2D6:  MOVWF  xAD
0B2D8:  MOVLW  89
0B2DA:  MOVWF  xAC
0B2DC:  CLRF   xAE
0B2DE:  MOVLW  12
0B2E0:  MOVWF  xAF
0B2E2:  MOVLW  01
0B2E4:  MOVWF  xB0
0B2E6:  MOVWF  xB1
0B2E8:  MOVLB  0
0B2EA:  CALL   1BAE
....................          else 
0B2EE:  BRA    B334
0B2F0:  MOVLB  5
....................             {strcpy(Menus.Letra,"Alarma SobreT"); 
0B2F2:  MOVLW  07
0B2F4:  MOVWF  FEA
0B2F6:  MOVLW  89
0B2F8:  MOVWF  FE9
0B2FA:  MOVFF  FF2,7A9
0B2FE:  BCF    FF2.7
0B300:  MOVLW  00
0B302:  MOVLB  0
0B304:  CALL   128A
0B308:  TBLRD*-
0B30A:  TBLRD*+
0B30C:  MOVF   FF5,W
0B30E:  MOVWF  FEE
0B310:  IORLW  00
0B312:  BNZ   B30A
0B314:  MOVLB  7
0B316:  BTFSC  xA9.7
0B318:  BSF    FF2.7
....................             displayMenu(Menus.Letra,0,18,0,1);}      
0B31A:  MOVLW  07
0B31C:  MOVWF  xAD
0B31E:  MOVLW  89
0B320:  MOVWF  xAC
0B322:  CLRF   xAE
0B324:  MOVLW  12
0B326:  MOVWF  xAF
0B328:  CLRF   xB0
0B32A:  MOVLW  01
0B32C:  MOVWF  xB1
0B32E:  MOVLB  0
0B330:  CALL   1BAE
....................              
....................          if(Opcion==10)    
0B334:  MOVLB  5
0B336:  MOVF   xA1,W
0B338:  SUBLW  0A
0B33A:  BNZ   B382
....................             {strcpy(Menus.Letra,"Resistencia"); 
0B33C:  MOVLW  07
0B33E:  MOVWF  FEA
0B340:  MOVLW  89
0B342:  MOVWF  FE9
0B344:  MOVFF  FF2,7A9
0B348:  BCF    FF2.7
0B34A:  MOVLW  00
0B34C:  MOVLB  0
0B34E:  CALL   12B6
0B352:  TBLRD*-
0B354:  TBLRD*+
0B356:  MOVF   FF5,W
0B358:  MOVWF  FEE
0B35A:  IORLW  00
0B35C:  BNZ   B354
0B35E:  MOVLB  7
0B360:  BTFSC  xA9.7
0B362:  BSF    FF2.7
....................             displayMenu(Menus.Letra,0,27,1,1);} 
0B364:  MOVLW  07
0B366:  MOVWF  xAD
0B368:  MOVLW  89
0B36A:  MOVWF  xAC
0B36C:  CLRF   xAE
0B36E:  MOVLW  1B
0B370:  MOVWF  xAF
0B372:  MOVLW  01
0B374:  MOVWF  xB0
0B376:  MOVWF  xB1
0B378:  MOVLB  0
0B37A:  CALL   1BAE
....................          else 
0B37E:  BRA    B3C4
0B380:  MOVLB  5
....................             {strcpy(Menus.Letra,"Resistencia"); 
0B382:  MOVLW  07
0B384:  MOVWF  FEA
0B386:  MOVLW  89
0B388:  MOVWF  FE9
0B38A:  MOVFF  FF2,7A9
0B38E:  BCF    FF2.7
0B390:  MOVLW  00
0B392:  MOVLB  0
0B394:  CALL   12B6
0B398:  TBLRD*-
0B39A:  TBLRD*+
0B39C:  MOVF   FF5,W
0B39E:  MOVWF  FEE
0B3A0:  IORLW  00
0B3A2:  BNZ   B39A
0B3A4:  MOVLB  7
0B3A6:  BTFSC  xA9.7
0B3A8:  BSF    FF2.7
....................             displayMenu(Menus.Letra,0,27,0,1);}      
0B3AA:  MOVLW  07
0B3AC:  MOVWF  xAD
0B3AE:  MOVLW  89
0B3B0:  MOVWF  xAC
0B3B2:  CLRF   xAE
0B3B4:  MOVLW  1B
0B3B6:  MOVWF  xAF
0B3B8:  CLRF   xB0
0B3BA:  MOVLW  01
0B3BC:  MOVWF  xB1
0B3BE:  MOVLB  0
0B3C0:  CALL   1BAE
....................              
....................          if(Opcion==11)    
0B3C4:  MOVLB  5
0B3C6:  MOVF   xA1,W
0B3C8:  SUBLW  0B
0B3CA:  BNZ   B412
....................             {strcpy(Menus.Letra,"m Mufla"); 
0B3CC:  MOVLW  07
0B3CE:  MOVWF  FEA
0B3D0:  MOVLW  89
0B3D2:  MOVWF  FE9
0B3D4:  MOVFF  FF2,7A9
0B3D8:  BCF    FF2.7
0B3DA:  MOVLW  00
0B3DC:  MOVLB  0
0B3DE:  CALL   12E0
0B3E2:  TBLRD*-
0B3E4:  TBLRD*+
0B3E6:  MOVF   FF5,W
0B3E8:  MOVWF  FEE
0B3EA:  IORLW  00
0B3EC:  BNZ   B3E4
0B3EE:  MOVLB  7
0B3F0:  BTFSC  xA9.7
0B3F2:  BSF    FF2.7
....................             displayMenu(Menus.Letra,0,36,1,1);} 
0B3F4:  MOVLW  07
0B3F6:  MOVWF  xAD
0B3F8:  MOVLW  89
0B3FA:  MOVWF  xAC
0B3FC:  CLRF   xAE
0B3FE:  MOVLW  24
0B400:  MOVWF  xAF
0B402:  MOVLW  01
0B404:  MOVWF  xB0
0B406:  MOVWF  xB1
0B408:  MOVLB  0
0B40A:  CALL   1BAE
....................          else 
0B40E:  BRA    B454
0B410:  MOVLB  5
....................             {strcpy(Menus.Letra,"m Mufla"); 
0B412:  MOVLW  07
0B414:  MOVWF  FEA
0B416:  MOVLW  89
0B418:  MOVWF  FE9
0B41A:  MOVFF  FF2,7A9
0B41E:  BCF    FF2.7
0B420:  MOVLW  00
0B422:  MOVLB  0
0B424:  CALL   12E0
0B428:  TBLRD*-
0B42A:  TBLRD*+
0B42C:  MOVF   FF5,W
0B42E:  MOVWF  FEE
0B430:  IORLW  00
0B432:  BNZ   B42A
0B434:  MOVLB  7
0B436:  BTFSC  xA9.7
0B438:  BSF    FF2.7
....................             displayMenu(Menus.Letra,0,36,0,1);}      
0B43A:  MOVLW  07
0B43C:  MOVWF  xAD
0B43E:  MOVLW  89
0B440:  MOVWF  xAC
0B442:  CLRF   xAE
0B444:  MOVLW  24
0B446:  MOVWF  xAF
0B448:  CLRF   xB0
0B44A:  MOVLW  01
0B44C:  MOVWF  xB1
0B44E:  MOVLB  0
0B450:  CALL   1BAE
....................              
....................             strcpy(Menus.Letra,"            "); 
0B454:  MOVLW  07
0B456:  MOVWF  FEA
0B458:  MOVLW  89
0B45A:  MOVWF  FE9
0B45C:  MOVFF  FF2,7A9
0B460:  BCF    FF2.7
0B462:  MOVLW  00
0B464:  CALL   1306
0B468:  TBLRD*-
0B46A:  TBLRD*+
0B46C:  MOVF   FF5,W
0B46E:  MOVWF  FEE
0B470:  IORLW  00
0B472:  BNZ   B46A
0B474:  MOVLB  7
0B476:  BTFSC  xA9.7
0B478:  BSF    FF2.7
....................             displayMenu(Menus.Letra,0,45,0,1); 
0B47A:  MOVLW  07
0B47C:  MOVWF  xAD
0B47E:  MOVLW  89
0B480:  MOVWF  xAC
0B482:  CLRF   xAE
0B484:  MOVLW  2D
0B486:  MOVWF  xAF
0B488:  CLRF   xB0
0B48A:  MOVLW  01
0B48C:  MOVWF  xB1
0B48E:  MOVLB  0
0B490:  CALL   1BAE
....................       }    
....................        
....................          if(UP)//Si oprime hacia arriba 
0B494:  BSF    F92.5
0B496:  BTFSC  F80.5
0B498:  BRA    B4CA
....................          { 
....................             Buzz_on;delay_ms(10);Buzz_off; 
0B49A:  BSF    F8B.7
0B49C:  BCF    F94.7
0B49E:  MOVLW  0A
0B4A0:  MOVLB  7
0B4A2:  MOVWF  xAF
0B4A4:  MOVLB  0
0B4A6:  CALL   1500
0B4AA:  BCF    F8B.7
0B4AC:  BCF    F94.7
....................             if(Flanco == 0) 
0B4AE:  MOVLB  5
0B4B0:  BTFSC  x87.3
0B4B2:  BRA    B4C8
....................                {Flanco = 1;delay_ms(30);Opcion--;visual=1; 
0B4B4:  BSF    x87.3
0B4B6:  MOVLW  1E
0B4B8:  MOVLB  7
0B4BA:  MOVWF  xAF
0B4BC:  MOVLB  0
0B4BE:  CALL   1500
0B4C2:  MOVLB  5
0B4C4:  DECF   xA1,F
0B4C6:  BSF    x87.6
....................                } 
....................          } 
....................             else 
0B4C8:  BRA    B4CE
....................                {Flanco = 0;} 
0B4CA:  MOVLB  5
0B4CC:  BCF    x87.3
....................                    
....................          if(DOWN)//Si oprime hacia abajo 
0B4CE:  BSF    F96.0
0B4D0:  BTFSC  F84.0
0B4D2:  BRA    B504
....................          { 
....................             Buzz_on;delay_ms(10);Buzz_off; 
0B4D4:  BSF    F8B.7
0B4D6:  BCF    F94.7
0B4D8:  MOVLW  0A
0B4DA:  MOVLB  7
0B4DC:  MOVWF  xAF
0B4DE:  MOVLB  0
0B4E0:  CALL   1500
0B4E4:  BCF    F8B.7
0B4E6:  BCF    F94.7
....................             if(Flanco2 == 0) 
0B4E8:  MOVLB  5
0B4EA:  BTFSC  x87.5
0B4EC:  BRA    B502
....................                {Flanco2 = 1;delay_ms(30);Opcion++;visual=1; 
0B4EE:  BSF    x87.5
0B4F0:  MOVLW  1E
0B4F2:  MOVLB  7
0B4F4:  MOVWF  xAF
0B4F6:  MOVLB  0
0B4F8:  CALL   1500
0B4FC:  MOVLB  5
0B4FE:  INCF   xA1,F
0B500:  BSF    x87.6
....................                }      
....................          } 
....................             else 
0B502:  BRA    B506
....................                {Flanco2 = 0;}   
0B504:  BCF    x87.5
....................                 
....................          if(RIGHT)//Si oprime SET 
0B506:  BSF    F96.1
0B508:  BTFSC  F84.1
0B50A:  BRA    B550
....................          {   
....................             Buzz_on;delay_ms(10);Buzz_off; 
0B50C:  BSF    F8B.7
0B50E:  BCF    F94.7
0B510:  MOVLW  0A
0B512:  MOVLB  7
0B514:  MOVWF  xAF
0B516:  MOVLB  0
0B518:  CALL   1500
0B51C:  BCF    F8B.7
0B51E:  BCF    F94.7
....................             if(Flanco1 == 0) 
0B520:  MOVLB  5
0B522:  BTFSC  x87.4
0B524:  BRA    B54E
....................                {Flanco1 = 1;delay_ms(30);Menu=Opcion+100;Opcion=1;glcd_fillscreen(OFF);visual=1; 
0B526:  BSF    x87.4
0B528:  MOVLW  1E
0B52A:  MOVLB  7
0B52C:  MOVWF  xAF
0B52E:  MOVLB  0
0B530:  CALL   1500
0B534:  MOVLW  64
0B536:  MOVLB  5
0B538:  ADDWF  xA1,W
0B53A:  MOVWF  x9A
0B53C:  MOVLW  01
0B53E:  MOVWF  xA1
0B540:  MOVLB  7
0B542:  CLRF   xAA
0B544:  MOVLB  0
0B546:  CALL   1580
0B54A:  MOVLB  5
0B54C:  BSF    x87.6
....................                } 
....................          } 
....................             else 
0B54E:  BRA    B552
....................                {Flanco1 = 0;}  
0B550:  BCF    x87.4
....................                 
....................          if(LEFT)//Si oprime boton de Toma. 
0B552:  BSF    F96.2
0B554:  BTFSC  F84.2
0B556:  BRA    B59A
....................          { 
....................             Buzz_on;delay_ms(10);Buzz_off; 
0B558:  BSF    F8B.7
0B55A:  BCF    F94.7
0B55C:  MOVLW  0A
0B55E:  MOVLB  7
0B560:  MOVWF  xAF
0B562:  MOVLB  0
0B564:  CALL   1500
0B568:  BCF    F8B.7
0B56A:  BCF    F94.7
....................             delay_ms(700);Menu=1;glcd_fillscreen(OFF);Opcion=1;visual=1;             
0B56C:  MOVLW  04
0B56E:  MOVLB  7
0B570:  MOVWF  xA9
0B572:  MOVLW  AF
0B574:  MOVWF  xAF
0B576:  MOVLB  0
0B578:  CALL   1500
0B57C:  MOVLB  7
0B57E:  DECFSZ xA9,F
0B580:  BRA    B572
0B582:  MOVLW  01
0B584:  MOVLB  5
0B586:  MOVWF  x9A
0B588:  MOVLB  7
0B58A:  CLRF   xAA
0B58C:  MOVLB  0
0B58E:  CALL   1580
0B592:  MOVLW  01
0B594:  MOVLB  5
0B596:  MOVWF  xA1
0B598:  BSF    x87.6
....................          }       
....................          
....................     } 
.................... //_--------------------------------------------------------------------------------------------------------------------------------------------------------        
....................  
.................... //_--------------------------------------------------------------------------------------------------------------------------------------------------------       
....................       if(Menu==101){ // Menu de Ajuste de Ganancia 
0B59A:  MOVF   x9A,W
0B59C:  SUBLW  65
0B59E:  BTFSS  FD8.2
0B5A0:  BRA    B848
....................        
....................       if(Ganancia>40) 
0B5A2:  MOVLB  7
0B5A4:  CLRF   xAC
0B5A6:  CLRF   xAB
0B5A8:  MOVLW  20
0B5AA:  MOVWF  xAA
0B5AC:  MOVLW  84
0B5AE:  MOVWF  xA9
0B5B0:  MOVFF  60C,7B0
0B5B4:  MOVFF  60B,7AF
0B5B8:  MOVFF  60A,7AE
0B5BC:  MOVFF  609,7AD
0B5C0:  MOVLB  0
0B5C2:  CALL   1EEC
0B5C6:  BNC   B5D4
....................       { 
....................          Ganancia=2; 
0B5C8:  MOVLB  6
0B5CA:  CLRF   x0C
0B5CC:  CLRF   x0B
0B5CE:  CLRF   x0A
0B5D0:  MOVLW  80
0B5D2:  MOVWF  x09
....................       } 
....................        
....................       if(visual==1) 
0B5D4:  MOVLB  5
0B5D6:  BTFSS  x87.6
0B5D8:  BRA    B660
....................       { 
....................          glcd_fillScreen(OFF); 
0B5DA:  MOVLB  7
0B5DC:  CLRF   xAA
0B5DE:  MOVLB  0
0B5E0:  CALL   1580
....................          strcpy(Menus.Letra,"P"); 
0B5E4:  MOVLW  07
0B5E6:  MOVWF  FEA
0B5E8:  MOVLW  89
0B5EA:  MOVWF  FE9
0B5EC:  MOVFF  FF2,7A9
0B5F0:  BCF    FF2.7
0B5F2:  MOVLW  00
0B5F4:  CALL   1332
0B5F8:  TBLRD*-
0B5FA:  TBLRD*+
0B5FC:  MOVF   FF5,W
0B5FE:  MOVWF  FEE
0B600:  IORLW  00
0B602:  BNZ   B5FA
0B604:  MOVLB  7
0B606:  BTFSC  xA9.7
0B608:  BSF    FF2.7
....................          displayMenu(Menus.Letra,0,0,1,2); 
0B60A:  MOVLW  07
0B60C:  MOVWF  xAD
0B60E:  MOVLW  89
0B610:  MOVWF  xAC
0B612:  CLRF   xAE
0B614:  CLRF   xAF
0B616:  MOVLW  01
0B618:  MOVWF  xB0
0B61A:  MOVLW  02
0B61C:  MOVWF  xB1
0B61E:  MOVLB  0
0B620:  CALL   1BAE
....................           
....................          displayTemperatura(Ganancia,30,30,0,3); 
0B624:  MOVFF  60C,7AC
0B628:  MOVFF  60B,7AB
0B62C:  MOVFF  60A,7AA
0B630:  MOVFF  609,7A9
0B634:  CALL   4E96
0B638:  MOVFF  02,7AA
0B63C:  MOVFF  01,7A9
0B640:  MOVFF  02,7AF
0B644:  MOVFF  01,7AE
0B648:  MOVLW  1E
0B64A:  MOVLB  7
0B64C:  MOVWF  xB0
0B64E:  MOVWF  xB1
0B650:  CLRF   xB2
0B652:  MOVLW  03
0B654:  MOVWF  xB3
0B656:  MOVLB  0
0B658:  CALL   372C
....................           
....................          visual=0; 
0B65C:  MOVLB  5
0B65E:  BCF    x87.6
....................       } 
....................        
....................          if(UP)//Si oprime hacia arriba 
0B660:  BSF    F92.5
0B662:  BTFSC  F80.5
0B664:  BRA    B706
....................          {   
....................             Buzz_on;delay_ms(10);Buzz_off; 
0B666:  BSF    F8B.7
0B668:  BCF    F94.7
0B66A:  MOVLW  0A
0B66C:  MOVLB  7
0B66E:  MOVWF  xAF
0B670:  MOVLB  0
0B672:  CALL   1500
0B676:  BCF    F8B.7
0B678:  BCF    F94.7
....................             if(Ganancia>40) 
0B67A:  MOVLB  7
0B67C:  CLRF   xAC
0B67E:  CLRF   xAB
0B680:  MOVLW  20
0B682:  MOVWF  xAA
0B684:  MOVLW  84
0B686:  MOVWF  xA9
0B688:  MOVFF  60C,7B0
0B68C:  MOVFF  60B,7AF
0B690:  MOVFF  60A,7AE
0B694:  MOVFF  609,7AD
0B698:  MOVLB  0
0B69A:  CALL   1EEC
0B69E:  BNC   B6C2
....................             { 
....................                Ganancia=40;delay_ms(100);visual=1; 
0B6A0:  MOVLB  6
0B6A2:  CLRF   x0C
0B6A4:  CLRF   x0B
0B6A6:  MOVLW  20
0B6A8:  MOVWF  x0A
0B6AA:  MOVLW  84
0B6AC:  MOVWF  x09
0B6AE:  MOVLW  64
0B6B0:  MOVLB  7
0B6B2:  MOVWF  xAF
0B6B4:  MOVLB  0
0B6B6:  CALL   1500
0B6BA:  MOVLB  5
0B6BC:  BSF    x87.6
....................             } 
....................             else 
0B6BE:  BRA    B706
0B6C0:  MOVLB  0
....................             { 
....................                delay_ms(30);Ganancia+=1.0;visual=1; 
0B6C2:  MOVLW  1E
0B6C4:  MOVLB  7
0B6C6:  MOVWF  xAF
0B6C8:  MOVLB  0
0B6CA:  CALL   1500
0B6CE:  BCF    FD8.1
0B6D0:  MOVFF  60C,7B2
0B6D4:  MOVFF  60B,7B1
0B6D8:  MOVFF  60A,7B0
0B6DC:  MOVFF  609,7AF
0B6E0:  MOVLB  7
0B6E2:  CLRF   xB6
0B6E4:  CLRF   xB5
0B6E6:  CLRF   xB4
0B6E8:  MOVLW  7F
0B6EA:  MOVWF  xB3
0B6EC:  MOVLB  0
0B6EE:  CALL   2BC2
0B6F2:  MOVFF  03,60C
0B6F6:  MOVFF  02,60B
0B6FA:  MOVFF  01,60A
0B6FE:  MOVFF  00,609
0B702:  MOVLB  5
0B704:  BSF    x87.6
....................             } 
....................          } 
....................                 
....................          if(DOWN)//Si oprime hacia abajo 
0B706:  BSF    F96.0
0B708:  BTFSC  F84.0
0B70A:  BRA    B788
....................          {   
....................             Buzz_on;delay_ms(10);Buzz_off; 
0B70C:  BSF    F8B.7
0B70E:  BCF    F94.7
0B710:  MOVLW  0A
0B712:  MOVLB  7
0B714:  MOVWF  xAF
0B716:  MOVLB  0
0B718:  CALL   1500
0B71C:  BCF    F8B.7
0B71E:  BCF    F94.7
....................             if(Ganancia>1) 
0B720:  MOVLB  7
0B722:  CLRF   xAC
0B724:  CLRF   xAB
0B726:  CLRF   xAA
0B728:  MOVLW  7F
0B72A:  MOVWF  xA9
0B72C:  MOVFF  60C,7B0
0B730:  MOVFF  60B,7AF
0B734:  MOVFF  60A,7AE
0B738:  MOVFF  609,7AD
0B73C:  MOVLB  0
0B73E:  CALL   1EEC
0B742:  BNC   B78A
....................             { 
....................                delay_ms(30);Ganancia-=1.0;visual=1;      
0B744:  MOVLW  1E
0B746:  MOVLB  7
0B748:  MOVWF  xAF
0B74A:  MOVLB  0
0B74C:  CALL   1500
0B750:  BSF    FD8.1
0B752:  MOVFF  60C,7B2
0B756:  MOVFF  60B,7B1
0B75A:  MOVFF  60A,7B0
0B75E:  MOVFF  609,7AF
0B762:  MOVLB  7
0B764:  CLRF   xB6
0B766:  CLRF   xB5
0B768:  CLRF   xB4
0B76A:  MOVLW  7F
0B76C:  MOVWF  xB3
0B76E:  MOVLB  0
0B770:  CALL   2BC2
0B774:  MOVFF  03,60C
0B778:  MOVFF  02,60B
0B77C:  MOVFF  01,60A
0B780:  MOVFF  00,609
0B784:  MOVLB  5
0B786:  BSF    x87.6
0B788:  MOVLB  0
....................             } 
....................          } 
....................                 
....................          if(RIGHT)//Si oprime SET 
0B78A:  BSF    F96.1
0B78C:  BTFSC  F84.1
0B78E:  BRA    B7B6
....................          {   
....................             Buzz_on;delay_ms(10);Buzz_off; 
0B790:  BSF    F8B.7
0B792:  BCF    F94.7
0B794:  MOVLW  0A
0B796:  MOVLB  7
0B798:  MOVWF  xAF
0B79A:  MOVLB  0
0B79C:  CALL   1500
0B7A0:  BCF    F8B.7
0B7A2:  BCF    F94.7
....................             delay_ms(30);visual=1; 
0B7A4:  MOVLW  1E
0B7A6:  MOVLB  7
0B7A8:  MOVWF  xAF
0B7AA:  MOVLB  0
0B7AC:  CALL   1500
0B7B0:  MOVLB  5
0B7B2:  BSF    x87.6
0B7B4:  MOVLB  0
....................          }  
....................                    
....................          if(LEFT)//Si oprime boton de Toma. 
0B7B6:  BSF    F96.2
0B7B8:  BTFSC  F84.2
0B7BA:  BRA    B846
....................          { 
....................             Buzz_on;delay_ms(10);Buzz_off; 
0B7BC:  BSF    F8B.7
0B7BE:  BCF    F94.7
0B7C0:  MOVLW  0A
0B7C2:  MOVLB  7
0B7C4:  MOVWF  xAF
0B7C6:  MOVLB  0
0B7C8:  CALL   1500
0B7CC:  BCF    F8B.7
0B7CE:  BCF    F94.7
....................             delay_ms(700);Menu=100;glcd_fillscreen(OFF);Opcion=1;visual=1; 
0B7D0:  MOVLW  04
0B7D2:  MOVLB  7
0B7D4:  MOVWF  xA9
0B7D6:  MOVLW  AF
0B7D8:  MOVWF  xAF
0B7DA:  MOVLB  0
0B7DC:  CALL   1500
0B7E0:  MOVLB  7
0B7E2:  DECFSZ xA9,F
0B7E4:  BRA    B7D6
0B7E6:  MOVLW  64
0B7E8:  MOVLB  5
0B7EA:  MOVWF  x9A
0B7EC:  MOVLB  7
0B7EE:  CLRF   xAA
0B7F0:  MOVLB  0
0B7F2:  CALL   1580
0B7F6:  MOVLW  01
0B7F8:  MOVLB  5
0B7FA:  MOVWF  xA1
0B7FC:  BSF    x87.6
....................             write_eeprom(250,(int8)Ganancia); 
0B7FE:  MOVFF  60C,7AC
0B802:  MOVFF  60B,7AB
0B806:  MOVFF  60A,7AA
0B80A:  MOVFF  609,7A9
0B80E:  MOVLB  0
0B810:  CALL   4E96
0B814:  MOVFF  01,7A9
0B818:  CLRF   FAA
0B81A:  MOVLW  FA
0B81C:  MOVWF  FA9
0B81E:  MOVFF  7A9,FA8
0B822:  BCF    FA6.6
0B824:  BCF    FA6.7
0B826:  BSF    FA6.2
0B828:  MOVF   FF2,W
0B82A:  MOVWF  00
0B82C:  BCF    FF2.7
0B82E:  MOVLB  F
0B830:  MOVLW  55
0B832:  MOVWF  FA7
0B834:  MOVLW  AA
0B836:  MOVWF  FA7
0B838:  BSF    FA6.1
0B83A:  BTFSC  FA6.1
0B83C:  BRA    B83A
0B83E:  BCF    FA6.2
0B840:  MOVF   00,W
0B842:  IORWF  FF2,F
0B844:  MOVLB  0
0B846:  MOVLB  5
....................          } 
....................      } 
.................... //_-------------------------------------------------------------------------------------------------------------------------------------------------------- 
....................  
.................... //_--------------------------------------------------------------------------------------------------------------------------------------------------------       
....................       if(Menu==102){ // Menu de Ajuste de Integral 
0B848:  MOVF   x9A,W
0B84A:  SUBLW  66
0B84C:  BTFSS  FD8.2
0B84E:  BRA    BAF8
....................        
....................       if(Integral>40) 
0B850:  MOVLB  7
0B852:  CLRF   xAC
0B854:  CLRF   xAB
0B856:  MOVLW  20
0B858:  MOVWF  xAA
0B85A:  MOVLW  84
0B85C:  MOVWF  xA9
0B85E:  MOVFF  634,7B0
0B862:  MOVFF  633,7AF
0B866:  MOVFF  632,7AE
0B86A:  MOVFF  631,7AD
0B86E:  MOVLB  0
0B870:  CALL   1EEC
0B874:  BNC   B882
....................       { 
....................          Integral=1; 
0B876:  MOVLB  6
0B878:  CLRF   x34
0B87A:  CLRF   x33
0B87C:  CLRF   x32
0B87E:  MOVLW  7F
0B880:  MOVWF  x31
....................       } 
....................        
....................       if(visual==1) 
0B882:  MOVLB  5
0B884:  BTFSS  x87.6
0B886:  BRA    B90E
....................       { 
....................          glcd_fillScreen(OFF); 
0B888:  MOVLB  7
0B88A:  CLRF   xAA
0B88C:  MOVLB  0
0B88E:  CALL   1580
....................          strcpy(Menus.Letra,"I"); 
0B892:  MOVLW  07
0B894:  MOVWF  FEA
0B896:  MOVLW  89
0B898:  MOVWF  FE9
0B89A:  MOVFF  FF2,7A9
0B89E:  BCF    FF2.7
0B8A0:  MOVLW  00
0B8A2:  CALL   1352
0B8A6:  TBLRD*-
0B8A8:  TBLRD*+
0B8AA:  MOVF   FF5,W
0B8AC:  MOVWF  FEE
0B8AE:  IORLW  00
0B8B0:  BNZ   B8A8
0B8B2:  MOVLB  7
0B8B4:  BTFSC  xA9.7
0B8B6:  BSF    FF2.7
....................          displayMenu(Menus.Letra,0,0,1,2); 
0B8B8:  MOVLW  07
0B8BA:  MOVWF  xAD
0B8BC:  MOVLW  89
0B8BE:  MOVWF  xAC
0B8C0:  CLRF   xAE
0B8C2:  CLRF   xAF
0B8C4:  MOVLW  01
0B8C6:  MOVWF  xB0
0B8C8:  MOVLW  02
0B8CA:  MOVWF  xB1
0B8CC:  MOVLB  0
0B8CE:  CALL   1BAE
....................           
....................          displayTemperatura(Integral,30,30,0,3); 
0B8D2:  MOVFF  634,7AC
0B8D6:  MOVFF  633,7AB
0B8DA:  MOVFF  632,7AA
0B8DE:  MOVFF  631,7A9
0B8E2:  CALL   4E96
0B8E6:  MOVFF  02,7AA
0B8EA:  MOVFF  01,7A9
0B8EE:  MOVFF  02,7AF
0B8F2:  MOVFF  01,7AE
0B8F6:  MOVLW  1E
0B8F8:  MOVLB  7
0B8FA:  MOVWF  xB0
0B8FC:  MOVWF  xB1
0B8FE:  CLRF   xB2
0B900:  MOVLW  03
0B902:  MOVWF  xB3
0B904:  MOVLB  0
0B906:  CALL   372C
....................           
....................          visual=0; 
0B90A:  MOVLB  5
0B90C:  BCF    x87.6
....................       } 
....................        
....................          if(UP)//Si oprime hacia arriba 
0B90E:  BSF    F92.5
0B910:  BTFSC  F80.5
0B912:  BRA    B9B4
....................          {   
....................             Buzz_on;delay_ms(10);Buzz_off; 
0B914:  BSF    F8B.7
0B916:  BCF    F94.7
0B918:  MOVLW  0A
0B91A:  MOVLB  7
0B91C:  MOVWF  xAF
0B91E:  MOVLB  0
0B920:  CALL   1500
0B924:  BCF    F8B.7
0B926:  BCF    F94.7
....................             if(Integral>40) 
0B928:  MOVLB  7
0B92A:  CLRF   xAC
0B92C:  CLRF   xAB
0B92E:  MOVLW  20
0B930:  MOVWF  xAA
0B932:  MOVLW  84
0B934:  MOVWF  xA9
0B936:  MOVFF  634,7B0
0B93A:  MOVFF  633,7AF
0B93E:  MOVFF  632,7AE
0B942:  MOVFF  631,7AD
0B946:  MOVLB  0
0B948:  CALL   1EEC
0B94C:  BNC   B970
....................             { 
....................                Integral=40;delay_ms(100);visual=1; 
0B94E:  MOVLB  6
0B950:  CLRF   x34
0B952:  CLRF   x33
0B954:  MOVLW  20
0B956:  MOVWF  x32
0B958:  MOVLW  84
0B95A:  MOVWF  x31
0B95C:  MOVLW  64
0B95E:  MOVLB  7
0B960:  MOVWF  xAF
0B962:  MOVLB  0
0B964:  CALL   1500
0B968:  MOVLB  5
0B96A:  BSF    x87.6
....................             } 
....................             else 
0B96C:  BRA    B9B4
0B96E:  MOVLB  0
....................             { 
....................                delay_ms(30);Integral+=1.0;visual=1; 
0B970:  MOVLW  1E
0B972:  MOVLB  7
0B974:  MOVWF  xAF
0B976:  MOVLB  0
0B978:  CALL   1500
0B97C:  BCF    FD8.1
0B97E:  MOVFF  634,7B2
0B982:  MOVFF  633,7B1
0B986:  MOVFF  632,7B0
0B98A:  MOVFF  631,7AF
0B98E:  MOVLB  7
0B990:  CLRF   xB6
0B992:  CLRF   xB5
0B994:  CLRF   xB4
0B996:  MOVLW  7F
0B998:  MOVWF  xB3
0B99A:  MOVLB  0
0B99C:  CALL   2BC2
0B9A0:  MOVFF  03,634
0B9A4:  MOVFF  02,633
0B9A8:  MOVFF  01,632
0B9AC:  MOVFF  00,631
0B9B0:  MOVLB  5
0B9B2:  BSF    x87.6
....................             } 
....................          } 
....................                 
....................          if(DOWN)//Si oprime hacia abajo 
0B9B4:  BSF    F96.0
0B9B6:  BTFSC  F84.0
0B9B8:  BRA    BA36
....................          {   
....................             Buzz_on;delay_ms(10);Buzz_off; 
0B9BA:  BSF    F8B.7
0B9BC:  BCF    F94.7
0B9BE:  MOVLW  0A
0B9C0:  MOVLB  7
0B9C2:  MOVWF  xAF
0B9C4:  MOVLB  0
0B9C6:  CALL   1500
0B9CA:  BCF    F8B.7
0B9CC:  BCF    F94.7
....................             if(Integral>1) 
0B9CE:  MOVLB  7
0B9D0:  CLRF   xAC
0B9D2:  CLRF   xAB
0B9D4:  CLRF   xAA
0B9D6:  MOVLW  7F
0B9D8:  MOVWF  xA9
0B9DA:  MOVFF  634,7B0
0B9DE:  MOVFF  633,7AF
0B9E2:  MOVFF  632,7AE
0B9E6:  MOVFF  631,7AD
0B9EA:  MOVLB  0
0B9EC:  CALL   1EEC
0B9F0:  BNC   BA38
....................             { 
....................                delay_ms(30);Integral-=1.0;visual=1;      
0B9F2:  MOVLW  1E
0B9F4:  MOVLB  7
0B9F6:  MOVWF  xAF
0B9F8:  MOVLB  0
0B9FA:  CALL   1500
0B9FE:  BSF    FD8.1
0BA00:  MOVFF  634,7B2
0BA04:  MOVFF  633,7B1
0BA08:  MOVFF  632,7B0
0BA0C:  MOVFF  631,7AF
0BA10:  MOVLB  7
0BA12:  CLRF   xB6
0BA14:  CLRF   xB5
0BA16:  CLRF   xB4
0BA18:  MOVLW  7F
0BA1A:  MOVWF  xB3
0BA1C:  MOVLB  0
0BA1E:  CALL   2BC2
0BA22:  MOVFF  03,634
0BA26:  MOVFF  02,633
0BA2A:  MOVFF  01,632
0BA2E:  MOVFF  00,631
0BA32:  MOVLB  5
0BA34:  BSF    x87.6
0BA36:  MOVLB  0
....................             } 
....................          } 
....................                 
....................          if(RIGHT)//Si oprime SET 
0BA38:  BSF    F96.1
0BA3A:  BTFSC  F84.1
0BA3C:  BRA    BA64
....................          {   
....................             Buzz_on;delay_ms(10);Buzz_off; 
0BA3E:  BSF    F8B.7
0BA40:  BCF    F94.7
0BA42:  MOVLW  0A
0BA44:  MOVLB  7
0BA46:  MOVWF  xAF
0BA48:  MOVLB  0
0BA4A:  CALL   1500
0BA4E:  BCF    F8B.7
0BA50:  BCF    F94.7
....................             delay_ms(30);visual=1; 
0BA52:  MOVLW  1E
0BA54:  MOVLB  7
0BA56:  MOVWF  xAF
0BA58:  MOVLB  0
0BA5A:  CALL   1500
0BA5E:  MOVLB  5
0BA60:  BSF    x87.6
0BA62:  MOVLB  0
....................          }  
....................                    
....................          if(LEFT)//Si oprime boton de Toma. 
0BA64:  BSF    F96.2
0BA66:  BTFSC  F84.2
0BA68:  BRA    BAF6
....................          { 
....................             Buzz_on;delay_ms(10);Buzz_off; 
0BA6A:  BSF    F8B.7
0BA6C:  BCF    F94.7
0BA6E:  MOVLW  0A
0BA70:  MOVLB  7
0BA72:  MOVWF  xAF
0BA74:  MOVLB  0
0BA76:  CALL   1500
0BA7A:  BCF    F8B.7
0BA7C:  BCF    F94.7
....................             delay_ms(700);Menu=100;glcd_fillscreen(OFF);Opcion=1;visual=1; 
0BA7E:  MOVLW  04
0BA80:  MOVLB  7
0BA82:  MOVWF  xA9
0BA84:  MOVLW  AF
0BA86:  MOVWF  xAF
0BA88:  MOVLB  0
0BA8A:  CALL   1500
0BA8E:  MOVLB  7
0BA90:  DECFSZ xA9,F
0BA92:  BRA    BA84
0BA94:  MOVLW  64
0BA96:  MOVLB  5
0BA98:  MOVWF  x9A
0BA9A:  MOVLB  7
0BA9C:  CLRF   xAA
0BA9E:  MOVLB  0
0BAA0:  CALL   1580
0BAA4:  MOVLW  01
0BAA6:  MOVLB  5
0BAA8:  MOVWF  xA1
0BAAA:  BSF    x87.6
....................             write_eeprom(270,(int8)Integral); 
0BAAC:  MOVFF  634,7AC
0BAB0:  MOVFF  633,7AB
0BAB4:  MOVFF  632,7AA
0BAB8:  MOVFF  631,7A9
0BABC:  MOVLB  0
0BABE:  CALL   4E96
0BAC2:  MOVFF  01,7A9
0BAC6:  MOVLW  01
0BAC8:  MOVWF  FAA
0BACA:  MOVLW  0E
0BACC:  MOVWF  FA9
0BACE:  MOVFF  7A9,FA8
0BAD2:  BCF    FA6.6
0BAD4:  BCF    FA6.7
0BAD6:  BSF    FA6.2
0BAD8:  MOVF   FF2,W
0BADA:  MOVWF  00
0BADC:  BCF    FF2.7
0BADE:  MOVLB  F
0BAE0:  MOVLW  55
0BAE2:  MOVWF  FA7
0BAE4:  MOVLW  AA
0BAE6:  MOVWF  FA7
0BAE8:  BSF    FA6.1
0BAEA:  BTFSC  FA6.1
0BAEC:  BRA    BAEA
0BAEE:  BCF    FA6.2
0BAF0:  MOVF   00,W
0BAF2:  IORWF  FF2,F
0BAF4:  MOVLB  0
0BAF6:  MOVLB  5
....................          } 
....................      } 
.................... //_-------------------------------------------------------------------------------------------------------------------------------------------------------- 
....................  
.................... //_--------------------------------------------------------------------------------------------------------------------------------------------------------       
....................       if(Menu==103){ // Menu de Ajuste de Derivativo 
0BAF8:  MOVF   x9A,W
0BAFA:  SUBLW  67
0BAFC:  BTFSS  FD8.2
0BAFE:  BRA    BDA8
....................        
....................       if(Derivativo>200) 
0BB00:  MOVLB  7
0BB02:  CLRF   xAC
0BB04:  CLRF   xAB
0BB06:  MOVLW  48
0BB08:  MOVWF  xAA
0BB0A:  MOVLW  86
0BB0C:  MOVWF  xA9
0BB0E:  MOVFF  638,7B0
0BB12:  MOVFF  637,7AF
0BB16:  MOVFF  636,7AE
0BB1A:  MOVFF  635,7AD
0BB1E:  MOVLB  0
0BB20:  CALL   1EEC
0BB24:  BNC   BB32
....................       { 
....................          Derivativo=2; 
0BB26:  MOVLB  6
0BB28:  CLRF   x38
0BB2A:  CLRF   x37
0BB2C:  CLRF   x36
0BB2E:  MOVLW  80
0BB30:  MOVWF  x35
....................       } 
....................        
....................       if(visual==1) 
0BB32:  MOVLB  5
0BB34:  BTFSS  x87.6
0BB36:  BRA    BBBE
....................       { 
....................          glcd_fillScreen(OFF); 
0BB38:  MOVLB  7
0BB3A:  CLRF   xAA
0BB3C:  MOVLB  0
0BB3E:  CALL   1580
....................          strcpy(Menus.Letra,"D"); 
0BB42:  MOVLW  07
0BB44:  MOVWF  FEA
0BB46:  MOVLW  89
0BB48:  MOVWF  FE9
0BB4A:  MOVFF  FF2,7A9
0BB4E:  BCF    FF2.7
0BB50:  MOVLW  00
0BB52:  CALL   1372
0BB56:  TBLRD*-
0BB58:  TBLRD*+
0BB5A:  MOVF   FF5,W
0BB5C:  MOVWF  FEE
0BB5E:  IORLW  00
0BB60:  BNZ   BB58
0BB62:  MOVLB  7
0BB64:  BTFSC  xA9.7
0BB66:  BSF    FF2.7
....................          displayMenu(Menus.Letra,0,0,1,2); 
0BB68:  MOVLW  07
0BB6A:  MOVWF  xAD
0BB6C:  MOVLW  89
0BB6E:  MOVWF  xAC
0BB70:  CLRF   xAE
0BB72:  CLRF   xAF
0BB74:  MOVLW  01
0BB76:  MOVWF  xB0
0BB78:  MOVLW  02
0BB7A:  MOVWF  xB1
0BB7C:  MOVLB  0
0BB7E:  CALL   1BAE
....................           
....................          displayTemperatura(Derivativo,30,30,0,3); 
0BB82:  MOVFF  638,7AC
0BB86:  MOVFF  637,7AB
0BB8A:  MOVFF  636,7AA
0BB8E:  MOVFF  635,7A9
0BB92:  CALL   4E96
0BB96:  MOVFF  02,7AA
0BB9A:  MOVFF  01,7A9
0BB9E:  MOVFF  02,7AF
0BBA2:  MOVFF  01,7AE
0BBA6:  MOVLW  1E
0BBA8:  MOVLB  7
0BBAA:  MOVWF  xB0
0BBAC:  MOVWF  xB1
0BBAE:  CLRF   xB2
0BBB0:  MOVLW  03
0BBB2:  MOVWF  xB3
0BBB4:  MOVLB  0
0BBB6:  CALL   372C
....................           
....................          visual=0; 
0BBBA:  MOVLB  5
0BBBC:  BCF    x87.6
....................       } 
....................        
....................          if(UP)//Si oprime hacia arriba 
0BBBE:  BSF    F92.5
0BBC0:  BTFSC  F80.5
0BBC2:  BRA    BC64
....................          {   
....................             Buzz_on;delay_ms(10);Buzz_off; 
0BBC4:  BSF    F8B.7
0BBC6:  BCF    F94.7
0BBC8:  MOVLW  0A
0BBCA:  MOVLB  7
0BBCC:  MOVWF  xAF
0BBCE:  MOVLB  0
0BBD0:  CALL   1500
0BBD4:  BCF    F8B.7
0BBD6:  BCF    F94.7
....................             if(Derivativo>200) 
0BBD8:  MOVLB  7
0BBDA:  CLRF   xAC
0BBDC:  CLRF   xAB
0BBDE:  MOVLW  48
0BBE0:  MOVWF  xAA
0BBE2:  MOVLW  86
0BBE4:  MOVWF  xA9
0BBE6:  MOVFF  638,7B0
0BBEA:  MOVFF  637,7AF
0BBEE:  MOVFF  636,7AE
0BBF2:  MOVFF  635,7AD
0BBF6:  MOVLB  0
0BBF8:  CALL   1EEC
0BBFC:  BNC   BC20
....................             { 
....................                Derivativo=200;delay_ms(100);visual=1; 
0BBFE:  MOVLB  6
0BC00:  CLRF   x38
0BC02:  CLRF   x37
0BC04:  MOVLW  48
0BC06:  MOVWF  x36
0BC08:  MOVLW  86
0BC0A:  MOVWF  x35
0BC0C:  MOVLW  64
0BC0E:  MOVLB  7
0BC10:  MOVWF  xAF
0BC12:  MOVLB  0
0BC14:  CALL   1500
0BC18:  MOVLB  5
0BC1A:  BSF    x87.6
....................             } 
....................             else 
0BC1C:  BRA    BC64
0BC1E:  MOVLB  0
....................             { 
....................                delay_ms(30);Derivativo+=1.0;visual=1; 
0BC20:  MOVLW  1E
0BC22:  MOVLB  7
0BC24:  MOVWF  xAF
0BC26:  MOVLB  0
0BC28:  CALL   1500
0BC2C:  BCF    FD8.1
0BC2E:  MOVFF  638,7B2
0BC32:  MOVFF  637,7B1
0BC36:  MOVFF  636,7B0
0BC3A:  MOVFF  635,7AF
0BC3E:  MOVLB  7
0BC40:  CLRF   xB6
0BC42:  CLRF   xB5
0BC44:  CLRF   xB4
0BC46:  MOVLW  7F
0BC48:  MOVWF  xB3
0BC4A:  MOVLB  0
0BC4C:  CALL   2BC2
0BC50:  MOVFF  03,638
0BC54:  MOVFF  02,637
0BC58:  MOVFF  01,636
0BC5C:  MOVFF  00,635
0BC60:  MOVLB  5
0BC62:  BSF    x87.6
....................             } 
....................          } 
....................                 
....................          if(DOWN)//Si oprime hacia abajo 
0BC64:  BSF    F96.0
0BC66:  BTFSC  F84.0
0BC68:  BRA    BCE6
....................          {   
....................             Buzz_on;delay_ms(10);Buzz_off; 
0BC6A:  BSF    F8B.7
0BC6C:  BCF    F94.7
0BC6E:  MOVLW  0A
0BC70:  MOVLB  7
0BC72:  MOVWF  xAF
0BC74:  MOVLB  0
0BC76:  CALL   1500
0BC7A:  BCF    F8B.7
0BC7C:  BCF    F94.7
....................             if(Derivativo>1) 
0BC7E:  MOVLB  7
0BC80:  CLRF   xAC
0BC82:  CLRF   xAB
0BC84:  CLRF   xAA
0BC86:  MOVLW  7F
0BC88:  MOVWF  xA9
0BC8A:  MOVFF  638,7B0
0BC8E:  MOVFF  637,7AF
0BC92:  MOVFF  636,7AE
0BC96:  MOVFF  635,7AD
0BC9A:  MOVLB  0
0BC9C:  CALL   1EEC
0BCA0:  BNC   BCE8
....................             { 
....................                delay_ms(30);Derivativo-=1.0;visual=1;      
0BCA2:  MOVLW  1E
0BCA4:  MOVLB  7
0BCA6:  MOVWF  xAF
0BCA8:  MOVLB  0
0BCAA:  CALL   1500
0BCAE:  BSF    FD8.1
0BCB0:  MOVFF  638,7B2
0BCB4:  MOVFF  637,7B1
0BCB8:  MOVFF  636,7B0
0BCBC:  MOVFF  635,7AF
0BCC0:  MOVLB  7
0BCC2:  CLRF   xB6
0BCC4:  CLRF   xB5
0BCC6:  CLRF   xB4
0BCC8:  MOVLW  7F
0BCCA:  MOVWF  xB3
0BCCC:  MOVLB  0
0BCCE:  CALL   2BC2
0BCD2:  MOVFF  03,638
0BCD6:  MOVFF  02,637
0BCDA:  MOVFF  01,636
0BCDE:  MOVFF  00,635
0BCE2:  MOVLB  5
0BCE4:  BSF    x87.6
0BCE6:  MOVLB  0
....................             } 
....................          } 
....................                 
....................          if(RIGHT)//Si oprime SET 
0BCE8:  BSF    F96.1
0BCEA:  BTFSC  F84.1
0BCEC:  BRA    BD14
....................          {   
....................             Buzz_on;delay_ms(10);Buzz_off; 
0BCEE:  BSF    F8B.7
0BCF0:  BCF    F94.7
0BCF2:  MOVLW  0A
0BCF4:  MOVLB  7
0BCF6:  MOVWF  xAF
0BCF8:  MOVLB  0
0BCFA:  CALL   1500
0BCFE:  BCF    F8B.7
0BD00:  BCF    F94.7
....................             delay_ms(30);visual=1; 
0BD02:  MOVLW  1E
0BD04:  MOVLB  7
0BD06:  MOVWF  xAF
0BD08:  MOVLB  0
0BD0A:  CALL   1500
0BD0E:  MOVLB  5
0BD10:  BSF    x87.6
0BD12:  MOVLB  0
....................          }  
....................                    
....................          if(LEFT)//Si oprime boton de Toma. 
0BD14:  BSF    F96.2
0BD16:  BTFSC  F84.2
0BD18:  BRA    BDA6
....................          { 
....................             Buzz_on;delay_ms(10);Buzz_off; 
0BD1A:  BSF    F8B.7
0BD1C:  BCF    F94.7
0BD1E:  MOVLW  0A
0BD20:  MOVLB  7
0BD22:  MOVWF  xAF
0BD24:  MOVLB  0
0BD26:  CALL   1500
0BD2A:  BCF    F8B.7
0BD2C:  BCF    F94.7
....................             delay_ms(700);Menu=100;glcd_fillscreen(OFF);Opcion=1;visual=1; 
0BD2E:  MOVLW  04
0BD30:  MOVLB  7
0BD32:  MOVWF  xA9
0BD34:  MOVLW  AF
0BD36:  MOVWF  xAF
0BD38:  MOVLB  0
0BD3A:  CALL   1500
0BD3E:  MOVLB  7
0BD40:  DECFSZ xA9,F
0BD42:  BRA    BD34
0BD44:  MOVLW  64
0BD46:  MOVLB  5
0BD48:  MOVWF  x9A
0BD4A:  MOVLB  7
0BD4C:  CLRF   xAA
0BD4E:  MOVLB  0
0BD50:  CALL   1580
0BD54:  MOVLW  01
0BD56:  MOVLB  5
0BD58:  MOVWF  xA1
0BD5A:  BSF    x87.6
....................             write_eeprom(271,(int8)Derivativo); 
0BD5C:  MOVFF  638,7AC
0BD60:  MOVFF  637,7AB
0BD64:  MOVFF  636,7AA
0BD68:  MOVFF  635,7A9
0BD6C:  MOVLB  0
0BD6E:  CALL   4E96
0BD72:  MOVFF  01,7A9
0BD76:  MOVLW  01
0BD78:  MOVWF  FAA
0BD7A:  MOVLW  0F
0BD7C:  MOVWF  FA9
0BD7E:  MOVFF  7A9,FA8
0BD82:  BCF    FA6.6
0BD84:  BCF    FA6.7
0BD86:  BSF    FA6.2
0BD88:  MOVF   FF2,W
0BD8A:  MOVWF  00
0BD8C:  BCF    FF2.7
0BD8E:  MOVLB  F
0BD90:  MOVLW  55
0BD92:  MOVWF  FA7
0BD94:  MOVLW  AA
0BD96:  MOVWF  FA7
0BD98:  BSF    FA6.1
0BD9A:  BTFSC  FA6.1
0BD9C:  BRA    BD9A
0BD9E:  BCF    FA6.2
0BDA0:  MOVF   00,W
0BDA2:  IORWF  FF2,F
0BDA4:  MOVLB  0
0BDA6:  MOVLB  5
....................          } 
....................      } 
.................... //_-------------------------------------------------------------------------------------------------------------------------------------------------------- 
....................  
....................  
.................... //_--------------------------------------------------------------------------------------------------------------------------------------------------------       
....................       if(Menu==104){ // Menu de Ajuste de Ganancia2 
0BDA8:  MOVF   x9A,W
0BDAA:  SUBLW  68
0BDAC:  BTFSS  FD8.2
0BDAE:  BRA    C058
....................        
....................       if(Tciclo>40) 
0BDB0:  MOVLB  7
0BDB2:  CLRF   xAC
0BDB4:  CLRF   xAB
0BDB6:  MOVLW  20
0BDB8:  MOVWF  xAA
0BDBA:  MOVLW  84
0BDBC:  MOVWF  xA9
0BDBE:  MOVFF  5F4,7B0
0BDC2:  MOVFF  5F3,7AF
0BDC6:  MOVFF  5F2,7AE
0BDCA:  MOVFF  5F1,7AD
0BDCE:  MOVLB  0
0BDD0:  CALL   1EEC
0BDD4:  BNC   BDE4
....................       { 
....................          Tciclo=40; 
0BDD6:  MOVLB  5
0BDD8:  CLRF   xF4
0BDDA:  CLRF   xF3
0BDDC:  MOVLW  20
0BDDE:  MOVWF  xF2
0BDE0:  MOVLW  84
0BDE2:  MOVWF  xF1
....................       } 
....................        
....................       if(visual==1) 
0BDE4:  MOVLB  5
0BDE6:  BTFSS  x87.6
0BDE8:  BRA    BE70
....................       { 
....................          glcd_fillScreen(OFF); 
0BDEA:  MOVLB  7
0BDEC:  CLRF   xAA
0BDEE:  MOVLB  0
0BDF0:  CALL   1580
....................          strcpy(Menus.Letra,"Tciclo"); 
0BDF4:  MOVLW  07
0BDF6:  MOVWF  FEA
0BDF8:  MOVLW  89
0BDFA:  MOVWF  FE9
0BDFC:  MOVFF  FF2,7A9
0BE00:  BCF    FF2.7
0BE02:  MOVLW  00
0BE04:  CALL   11C0
0BE08:  TBLRD*-
0BE0A:  TBLRD*+
0BE0C:  MOVF   FF5,W
0BE0E:  MOVWF  FEE
0BE10:  IORLW  00
0BE12:  BNZ   BE0A
0BE14:  MOVLB  7
0BE16:  BTFSC  xA9.7
0BE18:  BSF    FF2.7
....................          displayMenu(Menus.Letra,0,0,1,2); 
0BE1A:  MOVLW  07
0BE1C:  MOVWF  xAD
0BE1E:  MOVLW  89
0BE20:  MOVWF  xAC
0BE22:  CLRF   xAE
0BE24:  CLRF   xAF
0BE26:  MOVLW  01
0BE28:  MOVWF  xB0
0BE2A:  MOVLW  02
0BE2C:  MOVWF  xB1
0BE2E:  MOVLB  0
0BE30:  CALL   1BAE
....................           
....................          displayTemperatura(Tciclo,30,30,0,3); 
0BE34:  MOVFF  5F4,7AC
0BE38:  MOVFF  5F3,7AB
0BE3C:  MOVFF  5F2,7AA
0BE40:  MOVFF  5F1,7A9
0BE44:  CALL   4E96
0BE48:  MOVFF  02,7AA
0BE4C:  MOVFF  01,7A9
0BE50:  MOVFF  02,7AF
0BE54:  MOVFF  01,7AE
0BE58:  MOVLW  1E
0BE5A:  MOVLB  7
0BE5C:  MOVWF  xB0
0BE5E:  MOVWF  xB1
0BE60:  CLRF   xB2
0BE62:  MOVLW  03
0BE64:  MOVWF  xB3
0BE66:  MOVLB  0
0BE68:  CALL   372C
....................           
....................          visual=0; 
0BE6C:  MOVLB  5
0BE6E:  BCF    x87.6
....................       } 
....................        
....................          if(UP)//Si oprime hacia arriba 
0BE70:  BSF    F92.5
0BE72:  BTFSC  F80.5
0BE74:  BRA    BF16
....................          {   
....................             Buzz_on;delay_ms(10);Buzz_off; 
0BE76:  BSF    F8B.7
0BE78:  BCF    F94.7
0BE7A:  MOVLW  0A
0BE7C:  MOVLB  7
0BE7E:  MOVWF  xAF
0BE80:  MOVLB  0
0BE82:  CALL   1500
0BE86:  BCF    F8B.7
0BE88:  BCF    F94.7
....................             if(Tciclo>40) 
0BE8A:  MOVLB  7
0BE8C:  CLRF   xAC
0BE8E:  CLRF   xAB
0BE90:  MOVLW  20
0BE92:  MOVWF  xAA
0BE94:  MOVLW  84
0BE96:  MOVWF  xA9
0BE98:  MOVFF  5F4,7B0
0BE9C:  MOVFF  5F3,7AF
0BEA0:  MOVFF  5F2,7AE
0BEA4:  MOVFF  5F1,7AD
0BEA8:  MOVLB  0
0BEAA:  CALL   1EEC
0BEAE:  BNC   BED2
....................             { 
....................                Tciclo=40;delay_ms(100);visual=1; 
0BEB0:  MOVLB  5
0BEB2:  CLRF   xF4
0BEB4:  CLRF   xF3
0BEB6:  MOVLW  20
0BEB8:  MOVWF  xF2
0BEBA:  MOVLW  84
0BEBC:  MOVWF  xF1
0BEBE:  MOVLW  64
0BEC0:  MOVLB  7
0BEC2:  MOVWF  xAF
0BEC4:  MOVLB  0
0BEC6:  CALL   1500
0BECA:  MOVLB  5
0BECC:  BSF    x87.6
....................             } 
....................             else 
0BECE:  BRA    BF16
0BED0:  MOVLB  0
....................             { 
....................                delay_ms(30);Tciclo+=1.0;visual=1; 
0BED2:  MOVLW  1E
0BED4:  MOVLB  7
0BED6:  MOVWF  xAF
0BED8:  MOVLB  0
0BEDA:  CALL   1500
0BEDE:  BCF    FD8.1
0BEE0:  MOVFF  5F4,7B2
0BEE4:  MOVFF  5F3,7B1
0BEE8:  MOVFF  5F2,7B0
0BEEC:  MOVFF  5F1,7AF
0BEF0:  MOVLB  7
0BEF2:  CLRF   xB6
0BEF4:  CLRF   xB5
0BEF6:  CLRF   xB4
0BEF8:  MOVLW  7F
0BEFA:  MOVWF  xB3
0BEFC:  MOVLB  0
0BEFE:  CALL   2BC2
0BF02:  MOVFF  03,5F4
0BF06:  MOVFF  02,5F3
0BF0A:  MOVFF  01,5F2
0BF0E:  MOVFF  00,5F1
0BF12:  MOVLB  5
0BF14:  BSF    x87.6
....................             } 
....................          } 
....................                 
....................          if(DOWN)//Si oprime hacia abajo 
0BF16:  BSF    F96.0
0BF18:  BTFSC  F84.0
0BF1A:  BRA    BF98
....................          {   
....................             Buzz_on;delay_ms(10);Buzz_off; 
0BF1C:  BSF    F8B.7
0BF1E:  BCF    F94.7
0BF20:  MOVLW  0A
0BF22:  MOVLB  7
0BF24:  MOVWF  xAF
0BF26:  MOVLB  0
0BF28:  CALL   1500
0BF2C:  BCF    F8B.7
0BF2E:  BCF    F94.7
....................             if(Tciclo>1) 
0BF30:  MOVLB  7
0BF32:  CLRF   xAC
0BF34:  CLRF   xAB
0BF36:  CLRF   xAA
0BF38:  MOVLW  7F
0BF3A:  MOVWF  xA9
0BF3C:  MOVFF  5F4,7B0
0BF40:  MOVFF  5F3,7AF
0BF44:  MOVFF  5F2,7AE
0BF48:  MOVFF  5F1,7AD
0BF4C:  MOVLB  0
0BF4E:  CALL   1EEC
0BF52:  BNC   BF9A
....................             { 
....................                delay_ms(30);Tciclo-=1.0;visual=1;      
0BF54:  MOVLW  1E
0BF56:  MOVLB  7
0BF58:  MOVWF  xAF
0BF5A:  MOVLB  0
0BF5C:  CALL   1500
0BF60:  BSF    FD8.1
0BF62:  MOVFF  5F4,7B2
0BF66:  MOVFF  5F3,7B1
0BF6A:  MOVFF  5F2,7B0
0BF6E:  MOVFF  5F1,7AF
0BF72:  MOVLB  7
0BF74:  CLRF   xB6
0BF76:  CLRF   xB5
0BF78:  CLRF   xB4
0BF7A:  MOVLW  7F
0BF7C:  MOVWF  xB3
0BF7E:  MOVLB  0
0BF80:  CALL   2BC2
0BF84:  MOVFF  03,5F4
0BF88:  MOVFF  02,5F3
0BF8C:  MOVFF  01,5F2
0BF90:  MOVFF  00,5F1
0BF94:  MOVLB  5
0BF96:  BSF    x87.6
0BF98:  MOVLB  0
....................             } 
....................          } 
....................                 
....................          if(RIGHT)//Si oprime SET 
0BF9A:  BSF    F96.1
0BF9C:  BTFSC  F84.1
0BF9E:  BRA    BFC6
....................          {   
....................             Buzz_on;delay_ms(10);Buzz_off; 
0BFA0:  BSF    F8B.7
0BFA2:  BCF    F94.7
0BFA4:  MOVLW  0A
0BFA6:  MOVLB  7
0BFA8:  MOVWF  xAF
0BFAA:  MOVLB  0
0BFAC:  CALL   1500
0BFB0:  BCF    F8B.7
0BFB2:  BCF    F94.7
....................             delay_ms(30);visual=1; 
0BFB4:  MOVLW  1E
0BFB6:  MOVLB  7
0BFB8:  MOVWF  xAF
0BFBA:  MOVLB  0
0BFBC:  CALL   1500
0BFC0:  MOVLB  5
0BFC2:  BSF    x87.6
0BFC4:  MOVLB  0
....................          }  
....................                    
....................          if(LEFT)//Si oprime boton de Toma. 
0BFC6:  BSF    F96.2
0BFC8:  BTFSC  F84.2
0BFCA:  BRA    C056
....................          { 
....................             Buzz_on;delay_ms(10);Buzz_off; 
0BFCC:  BSF    F8B.7
0BFCE:  BCF    F94.7
0BFD0:  MOVLW  0A
0BFD2:  MOVLB  7
0BFD4:  MOVWF  xAF
0BFD6:  MOVLB  0
0BFD8:  CALL   1500
0BFDC:  BCF    F8B.7
0BFDE:  BCF    F94.7
....................             delay_ms(700);Menu=100;glcd_fillscreen(OFF);Opcion=1;visual=1; 
0BFE0:  MOVLW  04
0BFE2:  MOVLB  7
0BFE4:  MOVWF  xA9
0BFE6:  MOVLW  AF
0BFE8:  MOVWF  xAF
0BFEA:  MOVLB  0
0BFEC:  CALL   1500
0BFF0:  MOVLB  7
0BFF2:  DECFSZ xA9,F
0BFF4:  BRA    BFE6
0BFF6:  MOVLW  64
0BFF8:  MOVLB  5
0BFFA:  MOVWF  x9A
0BFFC:  MOVLB  7
0BFFE:  CLRF   xAA
0C000:  MOVLB  0
0C002:  CALL   1580
0C006:  MOVLW  01
0C008:  MOVLB  5
0C00A:  MOVWF  xA1
0C00C:  BSF    x87.6
....................             write_eeprom(251,(int8)Tciclo); 
0C00E:  MOVFF  5F4,7AC
0C012:  MOVFF  5F3,7AB
0C016:  MOVFF  5F2,7AA
0C01A:  MOVFF  5F1,7A9
0C01E:  MOVLB  0
0C020:  CALL   4E96
0C024:  MOVFF  01,7A9
0C028:  CLRF   FAA
0C02A:  MOVLW  FB
0C02C:  MOVWF  FA9
0C02E:  MOVFF  7A9,FA8
0C032:  BCF    FA6.6
0C034:  BCF    FA6.7
0C036:  BSF    FA6.2
0C038:  MOVF   FF2,W
0C03A:  MOVWF  00
0C03C:  BCF    FF2.7
0C03E:  MOVLB  F
0C040:  MOVLW  55
0C042:  MOVWF  FA7
0C044:  MOVLW  AA
0C046:  MOVWF  FA7
0C048:  BSF    FA6.1
0C04A:  BTFSC  FA6.1
0C04C:  BRA    C04A
0C04E:  BCF    FA6.2
0C050:  MOVF   00,W
0C052:  IORWF  FF2,F
0C054:  MOVLB  0
0C056:  MOVLB  5
....................          } 
....................      } 
.................... //_-------------------------------------------------------------------------------------------------------------------------------------------------------- 
....................  
.................... //_--------------------------------------------------------------------------------------------------------------------------------------------------------       
....................       if(Menu==105){ // Menu de Ajuste de Ajuste 
0C058:  MOVF   x9A,W
0C05A:  SUBLW  69
0C05C:  BTFSS  FD8.2
0C05E:  BRA    C27E
....................        
....................       if(Ajuste>100) 
0C060:  MOVF   x8A,W
0C062:  SUBLW  64
0C064:  BC    C068
....................       { 
....................          Ajuste=0; 
0C066:  CLRF   x8A
....................       } 
....................        
....................       if(visual==1) 
0C068:  BTFSS  x87.6
0C06A:  BRA    C0D4
....................       { 
....................          glcd_fillScreen(OFF); 
0C06C:  MOVLB  7
0C06E:  CLRF   xAA
0C070:  MOVLB  0
0C072:  CALL   1580
....................          strcpy(Menus.Letra,"Ajuste"); 
0C076:  MOVLW  07
0C078:  MOVWF  FEA
0C07A:  MOVLW  89
0C07C:  MOVWF  FE9
0C07E:  MOVFF  FF2,7A9
0C082:  BCF    FF2.7
0C084:  MOVLW  00
0C086:  CALL   1392
0C08A:  TBLRD*-
0C08C:  TBLRD*+
0C08E:  MOVF   FF5,W
0C090:  MOVWF  FEE
0C092:  IORLW  00
0C094:  BNZ   C08C
0C096:  MOVLB  7
0C098:  BTFSC  xA9.7
0C09A:  BSF    FF2.7
....................          displayMenu(Menus.Letra,0,0,1,2); 
0C09C:  MOVLW  07
0C09E:  MOVWF  xAD
0C0A0:  MOVLW  89
0C0A2:  MOVWF  xAC
0C0A4:  CLRF   xAE
0C0A6:  CLRF   xAF
0C0A8:  MOVLW  01
0C0AA:  MOVWF  xB0
0C0AC:  MOVLW  02
0C0AE:  MOVWF  xB1
0C0B0:  MOVLB  0
0C0B2:  CALL   1BAE
....................           
....................          displayTemperatura(Ajuste,30,30,0,3); 
0C0B6:  MOVLB  7
0C0B8:  CLRF   xAF
0C0BA:  MOVFF  58A,7AE
0C0BE:  MOVLW  1E
0C0C0:  MOVWF  xB0
0C0C2:  MOVWF  xB1
0C0C4:  CLRF   xB2
0C0C6:  MOVLW  03
0C0C8:  MOVWF  xB3
0C0CA:  MOVLB  0
0C0CC:  CALL   372C
....................           
....................          visual=0; 
0C0D0:  MOVLB  5
0C0D2:  BCF    x87.6
....................       } 
....................        
....................          if(UP)//Si oprime hacia arriba 
0C0D4:  BSF    F92.5
0C0D6:  BTFSC  F80.5
0C0D8:  BRA    C164
....................          {   
....................             Buzz_on;delay_ms(10);Buzz_off; 
0C0DA:  BSF    F8B.7
0C0DC:  BCF    F94.7
0C0DE:  MOVLW  0A
0C0E0:  MOVLB  7
0C0E2:  MOVWF  xAF
0C0E4:  MOVLB  0
0C0E6:  CALL   1500
0C0EA:  BCF    F8B.7
0C0EC:  BCF    F94.7
....................             if(Ajuste>100) 
0C0EE:  MOVLB  5
0C0F0:  MOVF   x8A,W
0C0F2:  SUBLW  64
0C0F4:  BC    C10A
....................             { 
....................                Ajuste=100;delay_ms(100);visual=1; 
0C0F6:  MOVLW  64
0C0F8:  MOVWF  x8A
0C0FA:  MOVLB  7
0C0FC:  MOVWF  xAF
0C0FE:  MOVLB  0
0C100:  CALL   1500
0C104:  MOVLB  5
0C106:  BSF    x87.6
....................             } 
....................             else 
0C108:  BRA    C164
....................             { 
....................                delay_ms(30);Ajuste+=1.0;visual=1; 
0C10A:  MOVLW  1E
0C10C:  MOVLB  7
0C10E:  MOVWF  xAF
0C110:  MOVLB  0
0C112:  CALL   1500
0C116:  MOVLB  7
0C118:  CLRF   xB0
0C11A:  MOVFF  58A,7AF
0C11E:  MOVLB  0
0C120:  CALL   1EB6
0C124:  BCF    FD8.1
0C126:  MOVFF  03,7B2
0C12A:  MOVFF  02,7B1
0C12E:  MOVFF  01,7B0
0C132:  MOVFF  00,7AF
0C136:  MOVLB  7
0C138:  CLRF   xB6
0C13A:  CLRF   xB5
0C13C:  CLRF   xB4
0C13E:  MOVLW  7F
0C140:  MOVWF  xB3
0C142:  MOVLB  0
0C144:  CALL   2BC2
0C148:  MOVFF  03,7AC
0C14C:  MOVFF  02,7AB
0C150:  MOVFF  01,7AA
0C154:  MOVFF  00,7A9
0C158:  CALL   4E96
0C15C:  MOVFF  01,58A
0C160:  MOVLB  5
0C162:  BSF    x87.6
....................             } 
....................          } 
....................                 
....................          if(DOWN)//Si oprime hacia abajo 
0C164:  BSF    F96.0
0C166:  BTFSC  F84.0
0C168:  BRA    C1DE
....................          {   
....................             Buzz_on;delay_ms(10);Buzz_off; 
0C16A:  BSF    F8B.7
0C16C:  BCF    F94.7
0C16E:  MOVLW  0A
0C170:  MOVLB  7
0C172:  MOVWF  xAF
0C174:  MOVLB  0
0C176:  CALL   1500
0C17A:  BCF    F8B.7
0C17C:  BCF    F94.7
....................             if(Ajuste>0) 
0C17E:  MOVLB  5
0C180:  MOVF   x8A,F
0C182:  BZ    C1DE
....................             { 
....................                delay_ms(30);Ajuste-=1.0;visual=1;      
0C184:  MOVLW  1E
0C186:  MOVLB  7
0C188:  MOVWF  xAF
0C18A:  MOVLB  0
0C18C:  CALL   1500
0C190:  MOVLB  7
0C192:  CLRF   xB0
0C194:  MOVFF  58A,7AF
0C198:  MOVLB  0
0C19A:  CALL   1EB6
0C19E:  BSF    FD8.1
0C1A0:  MOVFF  03,7B2
0C1A4:  MOVFF  02,7B1
0C1A8:  MOVFF  01,7B0
0C1AC:  MOVFF  00,7AF
0C1B0:  MOVLB  7
0C1B2:  CLRF   xB6
0C1B4:  CLRF   xB5
0C1B6:  CLRF   xB4
0C1B8:  MOVLW  7F
0C1BA:  MOVWF  xB3
0C1BC:  MOVLB  0
0C1BE:  CALL   2BC2
0C1C2:  MOVFF  03,7AC
0C1C6:  MOVFF  02,7AB
0C1CA:  MOVFF  01,7AA
0C1CE:  MOVFF  00,7A9
0C1D2:  CALL   4E96
0C1D6:  MOVFF  01,58A
0C1DA:  MOVLB  5
0C1DC:  BSF    x87.6
....................             } 
....................          } 
....................                 
....................          if(RIGHT)//Si oprime SET 
0C1DE:  BSF    F96.1
0C1E0:  BTFSC  F84.1
0C1E2:  BRA    C208
....................          {   
....................             Buzz_on;delay_ms(10);Buzz_off; 
0C1E4:  BSF    F8B.7
0C1E6:  BCF    F94.7
0C1E8:  MOVLW  0A
0C1EA:  MOVLB  7
0C1EC:  MOVWF  xAF
0C1EE:  MOVLB  0
0C1F0:  CALL   1500
0C1F4:  BCF    F8B.7
0C1F6:  BCF    F94.7
....................             delay_ms(30);visual=1; 
0C1F8:  MOVLW  1E
0C1FA:  MOVLB  7
0C1FC:  MOVWF  xAF
0C1FE:  MOVLB  0
0C200:  CALL   1500
0C204:  MOVLB  5
0C206:  BSF    x87.6
....................          }  
....................                    
....................          if(LEFT)//Si oprime boton de Toma. 
0C208:  BSF    F96.2
0C20A:  BTFSC  F84.2
0C20C:  BRA    C27E
....................          { 
....................             Buzz_on;delay_ms(10);Buzz_off; 
0C20E:  BSF    F8B.7
0C210:  BCF    F94.7
0C212:  MOVLW  0A
0C214:  MOVLB  7
0C216:  MOVWF  xAF
0C218:  MOVLB  0
0C21A:  CALL   1500
0C21E:  BCF    F8B.7
0C220:  BCF    F94.7
....................             delay_ms(700);Menu=100;glcd_fillscreen(OFF);Opcion=1;visual=1; 
0C222:  MOVLW  04
0C224:  MOVLB  7
0C226:  MOVWF  xA9
0C228:  MOVLW  AF
0C22A:  MOVWF  xAF
0C22C:  MOVLB  0
0C22E:  CALL   1500
0C232:  MOVLB  7
0C234:  DECFSZ xA9,F
0C236:  BRA    C228
0C238:  MOVLW  64
0C23A:  MOVLB  5
0C23C:  MOVWF  x9A
0C23E:  MOVLB  7
0C240:  CLRF   xAA
0C242:  MOVLB  0
0C244:  CALL   1580
0C248:  MOVLW  01
0C24A:  MOVLB  5
0C24C:  MOVWF  xA1
0C24E:  BSF    x87.6
....................             write_eeprom(252,Ajuste); 
0C250:  CLRF   FAA
0C252:  MOVLW  FC
0C254:  MOVWF  FA9
0C256:  MOVFF  58A,FA8
0C25A:  BCF    FA6.6
0C25C:  BCF    FA6.7
0C25E:  BSF    FA6.2
0C260:  MOVF   FF2,W
0C262:  MOVWF  00
0C264:  BCF    FF2.7
0C266:  MOVLB  F
0C268:  MOVLW  55
0C26A:  MOVWF  FA7
0C26C:  MOVLW  AA
0C26E:  MOVWF  FA7
0C270:  BSF    FA6.1
0C272:  BTFSC  FA6.1
0C274:  BRA    C272
0C276:  BCF    FA6.2
0C278:  MOVF   00,W
0C27A:  IORWF  FF2,F
0C27C:  MOVLB  5
....................          } 
....................      } 
.................... //_-------------------------------------------------------------------------------------------------------------------------------------------------------- 
....................  
.................... //_--------------------------------------------------------------------------------------------------------------------------------------------------------       
....................       if(Menu==106){ // Menu de Ajuste de Ajusten 
0C27E:  MOVF   x9A,W
0C280:  SUBLW  6A
0C282:  BTFSS  FD8.2
0C284:  BRA    C4A4
....................        
....................       if(Ajusten>100) 
0C286:  MOVF   x8B,W
0C288:  SUBLW  64
0C28A:  BC    C28E
....................       { 
....................          Ajusten=0; 
0C28C:  CLRF   x8B
....................       } 
....................        
....................       if(visual==1) 
0C28E:  BTFSS  x87.6
0C290:  BRA    C2FA
....................       { 
....................          glcd_fillScreen(OFF); 
0C292:  MOVLB  7
0C294:  CLRF   xAA
0C296:  MOVLB  0
0C298:  CALL   1580
....................          strcpy(Menus.Letra,"Ajusten"); 
0C29C:  MOVLW  07
0C29E:  MOVWF  FEA
0C2A0:  MOVLW  89
0C2A2:  MOVWF  FE9
0C2A4:  MOVFF  FF2,7A9
0C2A8:  BCF    FF2.7
0C2AA:  MOVLW  00
0C2AC:  CALL   13B8
0C2B0:  TBLRD*-
0C2B2:  TBLRD*+
0C2B4:  MOVF   FF5,W
0C2B6:  MOVWF  FEE
0C2B8:  IORLW  00
0C2BA:  BNZ   C2B2
0C2BC:  MOVLB  7
0C2BE:  BTFSC  xA9.7
0C2C0:  BSF    FF2.7
....................          displayMenu(Menus.Letra,0,0,1,2); 
0C2C2:  MOVLW  07
0C2C4:  MOVWF  xAD
0C2C6:  MOVLW  89
0C2C8:  MOVWF  xAC
0C2CA:  CLRF   xAE
0C2CC:  CLRF   xAF
0C2CE:  MOVLW  01
0C2D0:  MOVWF  xB0
0C2D2:  MOVLW  02
0C2D4:  MOVWF  xB1
0C2D6:  MOVLB  0
0C2D8:  CALL   1BAE
....................           
....................          displayTemperatura(Ajusten,30,30,0,3); 
0C2DC:  MOVLB  7
0C2DE:  CLRF   xAF
0C2E0:  MOVFF  58B,7AE
0C2E4:  MOVLW  1E
0C2E6:  MOVWF  xB0
0C2E8:  MOVWF  xB1
0C2EA:  CLRF   xB2
0C2EC:  MOVLW  03
0C2EE:  MOVWF  xB3
0C2F0:  MOVLB  0
0C2F2:  CALL   372C
....................           
....................          visual=0; 
0C2F6:  MOVLB  5
0C2F8:  BCF    x87.6
....................       } 
....................        
....................          if(UP)//Si oprime hacia arriba 
0C2FA:  BSF    F92.5
0C2FC:  BTFSC  F80.5
0C2FE:  BRA    C38A
....................          {   
....................             Buzz_on;delay_ms(10);Buzz_off; 
0C300:  BSF    F8B.7
0C302:  BCF    F94.7
0C304:  MOVLW  0A
0C306:  MOVLB  7
0C308:  MOVWF  xAF
0C30A:  MOVLB  0
0C30C:  CALL   1500
0C310:  BCF    F8B.7
0C312:  BCF    F94.7
....................             if(Ajusten>100) 
0C314:  MOVLB  5
0C316:  MOVF   x8B,W
0C318:  SUBLW  64
0C31A:  BC    C330
....................             { 
....................                Ajusten=100;delay_ms(100);visual=1; 
0C31C:  MOVLW  64
0C31E:  MOVWF  x8B
0C320:  MOVLB  7
0C322:  MOVWF  xAF
0C324:  MOVLB  0
0C326:  CALL   1500
0C32A:  MOVLB  5
0C32C:  BSF    x87.6
....................             } 
....................             else 
0C32E:  BRA    C38A
....................             { 
....................                delay_ms(30);Ajusten+=1.0;visual=1; 
0C330:  MOVLW  1E
0C332:  MOVLB  7
0C334:  MOVWF  xAF
0C336:  MOVLB  0
0C338:  CALL   1500
0C33C:  MOVLB  7
0C33E:  CLRF   xB0
0C340:  MOVFF  58B,7AF
0C344:  MOVLB  0
0C346:  CALL   1EB6
0C34A:  BCF    FD8.1
0C34C:  MOVFF  03,7B2
0C350:  MOVFF  02,7B1
0C354:  MOVFF  01,7B0
0C358:  MOVFF  00,7AF
0C35C:  MOVLB  7
0C35E:  CLRF   xB6
0C360:  CLRF   xB5
0C362:  CLRF   xB4
0C364:  MOVLW  7F
0C366:  MOVWF  xB3
0C368:  MOVLB  0
0C36A:  CALL   2BC2
0C36E:  MOVFF  03,7AC
0C372:  MOVFF  02,7AB
0C376:  MOVFF  01,7AA
0C37A:  MOVFF  00,7A9
0C37E:  CALL   4E96
0C382:  MOVFF  01,58B
0C386:  MOVLB  5
0C388:  BSF    x87.6
....................             } 
....................          } 
....................                 
....................          if(DOWN)//Si oprime hacia abajo 
0C38A:  BSF    F96.0
0C38C:  BTFSC  F84.0
0C38E:  BRA    C404
....................          {   
....................             Buzz_on;delay_ms(10);Buzz_off; 
0C390:  BSF    F8B.7
0C392:  BCF    F94.7
0C394:  MOVLW  0A
0C396:  MOVLB  7
0C398:  MOVWF  xAF
0C39A:  MOVLB  0
0C39C:  CALL   1500
0C3A0:  BCF    F8B.7
0C3A2:  BCF    F94.7
....................             if(Ajusten>0) 
0C3A4:  MOVLB  5
0C3A6:  MOVF   x8B,F
0C3A8:  BZ    C404
....................             { 
....................                delay_ms(30);Ajusten-=1.0;visual=1;      
0C3AA:  MOVLW  1E
0C3AC:  MOVLB  7
0C3AE:  MOVWF  xAF
0C3B0:  MOVLB  0
0C3B2:  CALL   1500
0C3B6:  MOVLB  7
0C3B8:  CLRF   xB0
0C3BA:  MOVFF  58B,7AF
0C3BE:  MOVLB  0
0C3C0:  CALL   1EB6
0C3C4:  BSF    FD8.1
0C3C6:  MOVFF  03,7B2
0C3CA:  MOVFF  02,7B1
0C3CE:  MOVFF  01,7B0
0C3D2:  MOVFF  00,7AF
0C3D6:  MOVLB  7
0C3D8:  CLRF   xB6
0C3DA:  CLRF   xB5
0C3DC:  CLRF   xB4
0C3DE:  MOVLW  7F
0C3E0:  MOVWF  xB3
0C3E2:  MOVLB  0
0C3E4:  CALL   2BC2
0C3E8:  MOVFF  03,7AC
0C3EC:  MOVFF  02,7AB
0C3F0:  MOVFF  01,7AA
0C3F4:  MOVFF  00,7A9
0C3F8:  CALL   4E96
0C3FC:  MOVFF  01,58B
0C400:  MOVLB  5
0C402:  BSF    x87.6
....................             } 
....................          } 
....................                 
....................          if(RIGHT)//Si oprime SET 
0C404:  BSF    F96.1
0C406:  BTFSC  F84.1
0C408:  BRA    C42E
....................          {   
....................             Buzz_on;delay_ms(10);Buzz_off; 
0C40A:  BSF    F8B.7
0C40C:  BCF    F94.7
0C40E:  MOVLW  0A
0C410:  MOVLB  7
0C412:  MOVWF  xAF
0C414:  MOVLB  0
0C416:  CALL   1500
0C41A:  BCF    F8B.7
0C41C:  BCF    F94.7
....................             delay_ms(30);visual=1; 
0C41E:  MOVLW  1E
0C420:  MOVLB  7
0C422:  MOVWF  xAF
0C424:  MOVLB  0
0C426:  CALL   1500
0C42A:  MOVLB  5
0C42C:  BSF    x87.6
....................          }  
....................                    
....................          if(LEFT)//Si oprime boton de Toma. 
0C42E:  BSF    F96.2
0C430:  BTFSC  F84.2
0C432:  BRA    C4A4
....................          { 
....................             Buzz_on;delay_ms(10);Buzz_off; 
0C434:  BSF    F8B.7
0C436:  BCF    F94.7
0C438:  MOVLW  0A
0C43A:  MOVLB  7
0C43C:  MOVWF  xAF
0C43E:  MOVLB  0
0C440:  CALL   1500
0C444:  BCF    F8B.7
0C446:  BCF    F94.7
....................             delay_ms(700);Menu=100;glcd_fillscreen(OFF);Opcion=1;visual=1; 
0C448:  MOVLW  04
0C44A:  MOVLB  7
0C44C:  MOVWF  xA9
0C44E:  MOVLW  AF
0C450:  MOVWF  xAF
0C452:  MOVLB  0
0C454:  CALL   1500
0C458:  MOVLB  7
0C45A:  DECFSZ xA9,F
0C45C:  BRA    C44E
0C45E:  MOVLW  64
0C460:  MOVLB  5
0C462:  MOVWF  x9A
0C464:  MOVLB  7
0C466:  CLRF   xAA
0C468:  MOVLB  0
0C46A:  CALL   1580
0C46E:  MOVLW  01
0C470:  MOVLB  5
0C472:  MOVWF  xA1
0C474:  BSF    x87.6
....................             write_eeprom(253,Ajusten); 
0C476:  CLRF   FAA
0C478:  MOVLW  FD
0C47A:  MOVWF  FA9
0C47C:  MOVFF  58B,FA8
0C480:  BCF    FA6.6
0C482:  BCF    FA6.7
0C484:  BSF    FA6.2
0C486:  MOVF   FF2,W
0C488:  MOVWF  00
0C48A:  BCF    FF2.7
0C48C:  MOVLB  F
0C48E:  MOVLW  55
0C490:  MOVWF  FA7
0C492:  MOVLW  AA
0C494:  MOVWF  FA7
0C496:  BSF    FA6.1
0C498:  BTFSC  FA6.1
0C49A:  BRA    C498
0C49C:  BCF    FA6.2
0C49E:  MOVF   00,W
0C4A0:  IORWF  FF2,F
0C4A2:  MOVLB  5
....................          } 
....................      } 
.................... //_-------------------------------------------------------------------------------------------------------------------------------------------------------- 
....................  
.................... //_--------------------------------------------------------------------------------------------------------------------------------------------------------       
....................       if(Menu==107){ // Menu de Ajuste de Media Movil 
0C4A4:  MOVF   x9A,W
0C4A6:  SUBLW  6B
0C4A8:  BTFSS  FD8.2
0C4AA:  BRA    C6D0
....................        
....................       if(MediaMovil>80) 
0C4AC:  MOVF   x8C,W
0C4AE:  SUBLW  50
0C4B0:  BC    C4B6
....................       { 
....................          MediaMovil=10; 
0C4B2:  MOVLW  0A
0C4B4:  MOVWF  x8C
....................       } 
....................        
....................       if(visual==1) 
0C4B6:  BTFSS  x87.6
0C4B8:  BRA    C522
....................       { 
....................          glcd_fillScreen(OFF); 
0C4BA:  MOVLB  7
0C4BC:  CLRF   xAA
0C4BE:  MOVLB  0
0C4C0:  CALL   1580
....................          strcpy(Menus.Letra,"Media"); 
0C4C4:  MOVLW  07
0C4C6:  MOVWF  FEA
0C4C8:  MOVLW  89
0C4CA:  MOVWF  FE9
0C4CC:  MOVFF  FF2,7A9
0C4D0:  BCF    FF2.7
0C4D2:  MOVLW  00
0C4D4:  CALL   13DE
0C4D8:  TBLRD*-
0C4DA:  TBLRD*+
0C4DC:  MOVF   FF5,W
0C4DE:  MOVWF  FEE
0C4E0:  IORLW  00
0C4E2:  BNZ   C4DA
0C4E4:  MOVLB  7
0C4E6:  BTFSC  xA9.7
0C4E8:  BSF    FF2.7
....................          displayMenu(Menus.Letra,0,0,1,2); 
0C4EA:  MOVLW  07
0C4EC:  MOVWF  xAD
0C4EE:  MOVLW  89
0C4F0:  MOVWF  xAC
0C4F2:  CLRF   xAE
0C4F4:  CLRF   xAF
0C4F6:  MOVLW  01
0C4F8:  MOVWF  xB0
0C4FA:  MOVLW  02
0C4FC:  MOVWF  xB1
0C4FE:  MOVLB  0
0C500:  CALL   1BAE
....................           
....................          displayTemperatura(MediaMovil,30,30,0,3); 
0C504:  MOVLB  7
0C506:  CLRF   xAF
0C508:  MOVFF  58C,7AE
0C50C:  MOVLW  1E
0C50E:  MOVWF  xB0
0C510:  MOVWF  xB1
0C512:  CLRF   xB2
0C514:  MOVLW  03
0C516:  MOVWF  xB3
0C518:  MOVLB  0
0C51A:  CALL   372C
....................           
....................          visual=0; 
0C51E:  MOVLB  5
0C520:  BCF    x87.6
....................       } 
....................        
....................          if(UP)//Si oprime hacia arriba 
0C522:  BSF    F92.5
0C524:  BTFSC  F80.5
0C526:  BRA    C5B4
....................          {   
....................             Buzz_on;delay_ms(10);Buzz_off; 
0C528:  BSF    F8B.7
0C52A:  BCF    F94.7
0C52C:  MOVLW  0A
0C52E:  MOVLB  7
0C530:  MOVWF  xAF
0C532:  MOVLB  0
0C534:  CALL   1500
0C538:  BCF    F8B.7
0C53A:  BCF    F94.7
....................             if(MediaMovil>79) 
0C53C:  MOVLB  5
0C53E:  MOVF   x8C,W
0C540:  SUBLW  4F
0C542:  BC    C55A
....................             { 
....................                MediaMovil=79;delay_ms(100);visual=1; 
0C544:  MOVLW  4F
0C546:  MOVWF  x8C
0C548:  MOVLW  64
0C54A:  MOVLB  7
0C54C:  MOVWF  xAF
0C54E:  MOVLB  0
0C550:  CALL   1500
0C554:  MOVLB  5
0C556:  BSF    x87.6
....................             } 
....................             else 
0C558:  BRA    C5B4
....................             { 
....................                delay_ms(30);MediaMovil+=1.0;visual=1; 
0C55A:  MOVLW  1E
0C55C:  MOVLB  7
0C55E:  MOVWF  xAF
0C560:  MOVLB  0
0C562:  CALL   1500
0C566:  MOVLB  7
0C568:  CLRF   xB0
0C56A:  MOVFF  58C,7AF
0C56E:  MOVLB  0
0C570:  CALL   1EB6
0C574:  BCF    FD8.1
0C576:  MOVFF  03,7B2
0C57A:  MOVFF  02,7B1
0C57E:  MOVFF  01,7B0
0C582:  MOVFF  00,7AF
0C586:  MOVLB  7
0C588:  CLRF   xB6
0C58A:  CLRF   xB5
0C58C:  CLRF   xB4
0C58E:  MOVLW  7F
0C590:  MOVWF  xB3
0C592:  MOVLB  0
0C594:  CALL   2BC2
0C598:  MOVFF  03,7AC
0C59C:  MOVFF  02,7AB
0C5A0:  MOVFF  01,7AA
0C5A4:  MOVFF  00,7A9
0C5A8:  CALL   4E96
0C5AC:  MOVFF  01,58C
0C5B0:  MOVLB  5
0C5B2:  BSF    x87.6
....................             } 
....................          } 
....................                 
....................          if(DOWN)//Si oprime hacia abajo 
0C5B4:  BSF    F96.0
0C5B6:  BTFSC  F84.0
0C5B8:  BRA    C630
....................          {   
....................             Buzz_on;delay_ms(10);Buzz_off; 
0C5BA:  BSF    F8B.7
0C5BC:  BCF    F94.7
0C5BE:  MOVLW  0A
0C5C0:  MOVLB  7
0C5C2:  MOVWF  xAF
0C5C4:  MOVLB  0
0C5C6:  CALL   1500
0C5CA:  BCF    F8B.7
0C5CC:  BCF    F94.7
....................             if(MediaMovil>1) 
0C5CE:  MOVLB  5
0C5D0:  MOVF   x8C,W
0C5D2:  SUBLW  01
0C5D4:  BC    C630
....................             { 
....................                delay_ms(30);MediaMovil-=1.0;visual=1;      
0C5D6:  MOVLW  1E
0C5D8:  MOVLB  7
0C5DA:  MOVWF  xAF
0C5DC:  MOVLB  0
0C5DE:  CALL   1500
0C5E2:  MOVLB  7
0C5E4:  CLRF   xB0
0C5E6:  MOVFF  58C,7AF
0C5EA:  MOVLB  0
0C5EC:  CALL   1EB6
0C5F0:  BSF    FD8.1
0C5F2:  MOVFF  03,7B2
0C5F6:  MOVFF  02,7B1
0C5FA:  MOVFF  01,7B0
0C5FE:  MOVFF  00,7AF
0C602:  MOVLB  7
0C604:  CLRF   xB6
0C606:  CLRF   xB5
0C608:  CLRF   xB4
0C60A:  MOVLW  7F
0C60C:  MOVWF  xB3
0C60E:  MOVLB  0
0C610:  CALL   2BC2
0C614:  MOVFF  03,7AC
0C618:  MOVFF  02,7AB
0C61C:  MOVFF  01,7AA
0C620:  MOVFF  00,7A9
0C624:  CALL   4E96
0C628:  MOVFF  01,58C
0C62C:  MOVLB  5
0C62E:  BSF    x87.6
....................             } 
....................          } 
....................                 
....................          if(RIGHT)//Si oprime SET 
0C630:  BSF    F96.1
0C632:  BTFSC  F84.1
0C634:  BRA    C65A
....................          {   
....................             Buzz_on;delay_ms(10);Buzz_off; 
0C636:  BSF    F8B.7
0C638:  BCF    F94.7
0C63A:  MOVLW  0A
0C63C:  MOVLB  7
0C63E:  MOVWF  xAF
0C640:  MOVLB  0
0C642:  CALL   1500
0C646:  BCF    F8B.7
0C648:  BCF    F94.7
....................             delay_ms(30);visual=1; 
0C64A:  MOVLW  1E
0C64C:  MOVLB  7
0C64E:  MOVWF  xAF
0C650:  MOVLB  0
0C652:  CALL   1500
0C656:  MOVLB  5
0C658:  BSF    x87.6
....................          }  
....................                    
....................          if(LEFT)//Si oprime boton de Toma. 
0C65A:  BSF    F96.2
0C65C:  BTFSC  F84.2
0C65E:  BRA    C6D0
....................          { 
....................             Buzz_on;delay_ms(10);Buzz_off; 
0C660:  BSF    F8B.7
0C662:  BCF    F94.7
0C664:  MOVLW  0A
0C666:  MOVLB  7
0C668:  MOVWF  xAF
0C66A:  MOVLB  0
0C66C:  CALL   1500
0C670:  BCF    F8B.7
0C672:  BCF    F94.7
....................             delay_ms(700);Menu=100;glcd_fillscreen(OFF);Opcion=1;visual=1; 
0C674:  MOVLW  04
0C676:  MOVLB  7
0C678:  MOVWF  xA9
0C67A:  MOVLW  AF
0C67C:  MOVWF  xAF
0C67E:  MOVLB  0
0C680:  CALL   1500
0C684:  MOVLB  7
0C686:  DECFSZ xA9,F
0C688:  BRA    C67A
0C68A:  MOVLW  64
0C68C:  MOVLB  5
0C68E:  MOVWF  x9A
0C690:  MOVLB  7
0C692:  CLRF   xAA
0C694:  MOVLB  0
0C696:  CALL   1580
0C69A:  MOVLW  01
0C69C:  MOVLB  5
0C69E:  MOVWF  xA1
0C6A0:  BSF    x87.6
....................             write_eeprom(254,(int8)MediaMovil); 
0C6A2:  CLRF   FAA
0C6A4:  MOVLW  FE
0C6A6:  MOVWF  FA9
0C6A8:  MOVFF  58C,FA8
0C6AC:  BCF    FA6.6
0C6AE:  BCF    FA6.7
0C6B0:  BSF    FA6.2
0C6B2:  MOVF   FF2,W
0C6B4:  MOVWF  00
0C6B6:  BCF    FF2.7
0C6B8:  MOVLB  F
0C6BA:  MOVLW  55
0C6BC:  MOVWF  FA7
0C6BE:  MOVLW  AA
0C6C0:  MOVWF  FA7
0C6C2:  BSF    FA6.1
0C6C4:  BTFSC  FA6.1
0C6C6:  BRA    C6C4
0C6C8:  BCF    FA6.2
0C6CA:  MOVF   00,W
0C6CC:  IORWF  FF2,F
0C6CE:  MOVLB  5
....................          } 
....................      } 
.................... //_-------------------------------------------------------------------------------------------------------------------------------------------------------- 
....................  
.................... //_--------------------------------------------------------------------------------------------------------------------------------------------------------       
....................       if(Menu==108){ // Menu de Ajuste de Coeficiente Regulador 
0C6D0:  MOVF   x9A,W
0C6D2:  SUBLW  6C
0C6D4:  BTFSS  FD8.2
0C6D6:  BRA    C980
....................        
....................       if(Coeficiente>250) 
0C6D8:  MOVLB  7
0C6DA:  CLRF   xAC
0C6DC:  CLRF   xAB
0C6DE:  MOVLW  7A
0C6E0:  MOVWF  xAA
0C6E2:  MOVLW  86
0C6E4:  MOVWF  xA9
0C6E6:  MOVFF  614,7B0
0C6EA:  MOVFF  613,7AF
0C6EE:  MOVFF  612,7AE
0C6F2:  MOVFF  611,7AD
0C6F6:  MOVLB  0
0C6F8:  CALL   1EEC
0C6FC:  BNC   C70C
....................       { 
....................          Coeficiente=100; 
0C6FE:  MOVLB  6
0C700:  CLRF   x14
0C702:  CLRF   x13
0C704:  MOVLW  48
0C706:  MOVWF  x12
0C708:  MOVLW  85
0C70A:  MOVWF  x11
....................       } 
....................        
....................       if(visual==1) 
0C70C:  MOVLB  5
0C70E:  BTFSS  x87.6
0C710:  BRA    C798
....................       { 
....................          glcd_fillScreen(OFF); 
0C712:  MOVLB  7
0C714:  CLRF   xAA
0C716:  MOVLB  0
0C718:  CALL   1580
....................          strcpy(Menus.Letra,"Coeficiente"); 
0C71C:  MOVLW  07
0C71E:  MOVWF  FEA
0C720:  MOVLW  89
0C722:  MOVWF  FE9
0C724:  MOVFF  FF2,7A9
0C728:  BCF    FF2.7
0C72A:  MOVLW  00
0C72C:  CALL   1260
0C730:  TBLRD*-
0C732:  TBLRD*+
0C734:  MOVF   FF5,W
0C736:  MOVWF  FEE
0C738:  IORLW  00
0C73A:  BNZ   C732
0C73C:  MOVLB  7
0C73E:  BTFSC  xA9.7
0C740:  BSF    FF2.7
....................          displayMenu(Menus.Letra,0,0,1,2); 
0C742:  MOVLW  07
0C744:  MOVWF  xAD
0C746:  MOVLW  89
0C748:  MOVWF  xAC
0C74A:  CLRF   xAE
0C74C:  CLRF   xAF
0C74E:  MOVLW  01
0C750:  MOVWF  xB0
0C752:  MOVLW  02
0C754:  MOVWF  xB1
0C756:  MOVLB  0
0C758:  CALL   1BAE
....................           
....................          displayTemperatura(Coeficiente,30,30,0,3); 
0C75C:  MOVFF  614,7AC
0C760:  MOVFF  613,7AB
0C764:  MOVFF  612,7AA
0C768:  MOVFF  611,7A9
0C76C:  CALL   4E96
0C770:  MOVFF  02,7AA
0C774:  MOVFF  01,7A9
0C778:  MOVFF  02,7AF
0C77C:  MOVFF  01,7AE
0C780:  MOVLW  1E
0C782:  MOVLB  7
0C784:  MOVWF  xB0
0C786:  MOVWF  xB1
0C788:  CLRF   xB2
0C78A:  MOVLW  03
0C78C:  MOVWF  xB3
0C78E:  MOVLB  0
0C790:  CALL   372C
....................           
....................          visual=0; 
0C794:  MOVLB  5
0C796:  BCF    x87.6
....................       } 
....................        
....................          if(UP)//Si oprime hacia arriba 
0C798:  BSF    F92.5
0C79A:  BTFSC  F80.5
0C79C:  BRA    C83E
....................          {   
....................             Buzz_on;delay_ms(10);Buzz_off; 
0C79E:  BSF    F8B.7
0C7A0:  BCF    F94.7
0C7A2:  MOVLW  0A
0C7A4:  MOVLB  7
0C7A6:  MOVWF  xAF
0C7A8:  MOVLB  0
0C7AA:  CALL   1500
0C7AE:  BCF    F8B.7
0C7B0:  BCF    F94.7
....................             if(Coeficiente>250) 
0C7B2:  MOVLB  7
0C7B4:  CLRF   xAC
0C7B6:  CLRF   xAB
0C7B8:  MOVLW  7A
0C7BA:  MOVWF  xAA
0C7BC:  MOVLW  86
0C7BE:  MOVWF  xA9
0C7C0:  MOVFF  614,7B0
0C7C4:  MOVFF  613,7AF
0C7C8:  MOVFF  612,7AE
0C7CC:  MOVFF  611,7AD
0C7D0:  MOVLB  0
0C7D2:  CALL   1EEC
0C7D6:  BNC   C7FA
....................             { 
....................                Coeficiente=250;delay_ms(100);visual=1; 
0C7D8:  MOVLB  6
0C7DA:  CLRF   x14
0C7DC:  CLRF   x13
0C7DE:  MOVLW  7A
0C7E0:  MOVWF  x12
0C7E2:  MOVLW  86
0C7E4:  MOVWF  x11
0C7E6:  MOVLW  64
0C7E8:  MOVLB  7
0C7EA:  MOVWF  xAF
0C7EC:  MOVLB  0
0C7EE:  CALL   1500
0C7F2:  MOVLB  5
0C7F4:  BSF    x87.6
....................             } 
....................             else 
0C7F6:  BRA    C83E
0C7F8:  MOVLB  0
....................             { 
....................                delay_ms(30);Coeficiente+=1.0;visual=1; 
0C7FA:  MOVLW  1E
0C7FC:  MOVLB  7
0C7FE:  MOVWF  xAF
0C800:  MOVLB  0
0C802:  CALL   1500
0C806:  BCF    FD8.1
0C808:  MOVFF  614,7B2
0C80C:  MOVFF  613,7B1
0C810:  MOVFF  612,7B0
0C814:  MOVFF  611,7AF
0C818:  MOVLB  7
0C81A:  CLRF   xB6
0C81C:  CLRF   xB5
0C81E:  CLRF   xB4
0C820:  MOVLW  7F
0C822:  MOVWF  xB3
0C824:  MOVLB  0
0C826:  CALL   2BC2
0C82A:  MOVFF  03,614
0C82E:  MOVFF  02,613
0C832:  MOVFF  01,612
0C836:  MOVFF  00,611
0C83A:  MOVLB  5
0C83C:  BSF    x87.6
....................             } 
....................          } 
....................                 
....................          if(DOWN)//Si oprime hacia abajo 
0C83E:  BSF    F96.0
0C840:  BTFSC  F84.0
0C842:  BRA    C8C0
....................          {   
....................             Buzz_on;delay_ms(10);Buzz_off; 
0C844:  BSF    F8B.7
0C846:  BCF    F94.7
0C848:  MOVLW  0A
0C84A:  MOVLB  7
0C84C:  MOVWF  xAF
0C84E:  MOVLB  0
0C850:  CALL   1500
0C854:  BCF    F8B.7
0C856:  BCF    F94.7
....................             if(Coeficiente>1) 
0C858:  MOVLB  7
0C85A:  CLRF   xAC
0C85C:  CLRF   xAB
0C85E:  CLRF   xAA
0C860:  MOVLW  7F
0C862:  MOVWF  xA9
0C864:  MOVFF  614,7B0
0C868:  MOVFF  613,7AF
0C86C:  MOVFF  612,7AE
0C870:  MOVFF  611,7AD
0C874:  MOVLB  0
0C876:  CALL   1EEC
0C87A:  BNC   C8C2
....................             { 
....................                delay_ms(30);Coeficiente-=1.0;visual=1;      
0C87C:  MOVLW  1E
0C87E:  MOVLB  7
0C880:  MOVWF  xAF
0C882:  MOVLB  0
0C884:  CALL   1500
0C888:  BSF    FD8.1
0C88A:  MOVFF  614,7B2
0C88E:  MOVFF  613,7B1
0C892:  MOVFF  612,7B0
0C896:  MOVFF  611,7AF
0C89A:  MOVLB  7
0C89C:  CLRF   xB6
0C89E:  CLRF   xB5
0C8A0:  CLRF   xB4
0C8A2:  MOVLW  7F
0C8A4:  MOVWF  xB3
0C8A6:  MOVLB  0
0C8A8:  CALL   2BC2
0C8AC:  MOVFF  03,614
0C8B0:  MOVFF  02,613
0C8B4:  MOVFF  01,612
0C8B8:  MOVFF  00,611
0C8BC:  MOVLB  5
0C8BE:  BSF    x87.6
0C8C0:  MOVLB  0
....................             } 
....................          } 
....................                 
....................          if(RIGHT)//Si oprime SET 
0C8C2:  BSF    F96.1
0C8C4:  BTFSC  F84.1
0C8C6:  BRA    C8EE
....................          {   
....................             Buzz_on;delay_ms(10);Buzz_off; 
0C8C8:  BSF    F8B.7
0C8CA:  BCF    F94.7
0C8CC:  MOVLW  0A
0C8CE:  MOVLB  7
0C8D0:  MOVWF  xAF
0C8D2:  MOVLB  0
0C8D4:  CALL   1500
0C8D8:  BCF    F8B.7
0C8DA:  BCF    F94.7
....................             delay_ms(30);visual=1; 
0C8DC:  MOVLW  1E
0C8DE:  MOVLB  7
0C8E0:  MOVWF  xAF
0C8E2:  MOVLB  0
0C8E4:  CALL   1500
0C8E8:  MOVLB  5
0C8EA:  BSF    x87.6
0C8EC:  MOVLB  0
....................          }  
....................                    
....................          if(LEFT)//Si oprime boton de Toma. 
0C8EE:  BSF    F96.2
0C8F0:  BTFSC  F84.2
0C8F2:  BRA    C97E
....................          { 
....................             Buzz_on;delay_ms(10);Buzz_off; 
0C8F4:  BSF    F8B.7
0C8F6:  BCF    F94.7
0C8F8:  MOVLW  0A
0C8FA:  MOVLB  7
0C8FC:  MOVWF  xAF
0C8FE:  MOVLB  0
0C900:  CALL   1500
0C904:  BCF    F8B.7
0C906:  BCF    F94.7
....................             delay_ms(700);Menu=100;glcd_fillscreen(OFF);Opcion=1;visual=1; 
0C908:  MOVLW  04
0C90A:  MOVLB  7
0C90C:  MOVWF  xA9
0C90E:  MOVLW  AF
0C910:  MOVWF  xAF
0C912:  MOVLB  0
0C914:  CALL   1500
0C918:  MOVLB  7
0C91A:  DECFSZ xA9,F
0C91C:  BRA    C90E
0C91E:  MOVLW  64
0C920:  MOVLB  5
0C922:  MOVWF  x9A
0C924:  MOVLB  7
0C926:  CLRF   xAA
0C928:  MOVLB  0
0C92A:  CALL   1580
0C92E:  MOVLW  01
0C930:  MOVLB  5
0C932:  MOVWF  xA1
0C934:  BSF    x87.6
....................             write_eeprom(255,(int8)Coeficiente); 
0C936:  MOVFF  614,7AC
0C93A:  MOVFF  613,7AB
0C93E:  MOVFF  612,7AA
0C942:  MOVFF  611,7A9
0C946:  MOVLB  0
0C948:  CALL   4E96
0C94C:  MOVFF  01,7A9
0C950:  CLRF   FAA
0C952:  MOVLW  FF
0C954:  MOVWF  FA9
0C956:  MOVFF  7A9,FA8
0C95A:  BCF    FA6.6
0C95C:  BCF    FA6.7
0C95E:  BSF    FA6.2
0C960:  MOVF   FF2,W
0C962:  MOVWF  00
0C964:  BCF    FF2.7
0C966:  MOVLB  F
0C968:  MOVLW  55
0C96A:  MOVWF  FA7
0C96C:  MOVLW  AA
0C96E:  MOVWF  FA7
0C970:  BSF    FA6.1
0C972:  BTFSC  FA6.1
0C974:  BRA    C972
0C976:  BCF    FA6.2
0C978:  MOVF   00,W
0C97A:  IORWF  FF2,F
0C97C:  MOVLB  0
0C97E:  MOVLB  5
....................          } 
....................      } 
.................... //_-------------------------------------------------------------------------------------------------------------------------------------------------------- 
....................  
.................... //_--------------------------------------------------------------------------------------------------------------------------------------------------------       
....................       if(Menu==109){ // Menu de Alarma Sobretemperatura 
0C980:  MOVF   x9A,W
0C982:  SUBLW  6D
0C984:  BTFSS  FD8.2
0C986:  BRA    CC38
....................        
....................       if(AlTem>250) 
0C988:  MOVLB  7
0C98A:  CLRF   xAC
0C98C:  CLRF   xAB
0C98E:  MOVLW  7A
0C990:  MOVWF  xAA
0C992:  MOVLW  86
0C994:  MOVWF  xA9
0C996:  MOVFF  618,7B0
0C99A:  MOVFF  617,7AF
0C99E:  MOVFF  616,7AE
0C9A2:  MOVFF  615,7AD
0C9A6:  MOVLB  0
0C9A8:  CALL   1EEC
0C9AC:  BNC   C9BC
....................       { 
....................          AlTem=250; 
0C9AE:  MOVLB  6
0C9B0:  CLRF   x18
0C9B2:  CLRF   x17
0C9B4:  MOVLW  7A
0C9B6:  MOVWF  x16
0C9B8:  MOVLW  86
0C9BA:  MOVWF  x15
....................       } 
....................        
....................       if(visual==1) 
0C9BC:  MOVLB  5
0C9BE:  BTFSS  x87.6
0C9C0:  BRA    CA48
....................       { 
....................          glcd_fillScreen(OFF); 
0C9C2:  MOVLB  7
0C9C4:  CLRF   xAA
0C9C6:  MOVLB  0
0C9C8:  CALL   1580
....................          strcpy(Menus.Letra,"Alarma"); 
0C9CC:  MOVLW  07
0C9CE:  MOVWF  FEA
0C9D0:  MOVLW  89
0C9D2:  MOVWF  FE9
0C9D4:  MOVFF  FF2,7A9
0C9D8:  BCF    FF2.7
0C9DA:  MOVLW  00
0C9DC:  CALL   1402
0C9E0:  TBLRD*-
0C9E2:  TBLRD*+
0C9E4:  MOVF   FF5,W
0C9E6:  MOVWF  FEE
0C9E8:  IORLW  00
0C9EA:  BNZ   C9E2
0C9EC:  MOVLB  7
0C9EE:  BTFSC  xA9.7
0C9F0:  BSF    FF2.7
....................          displayMenu(Menus.Letra,0,0,1,2); 
0C9F2:  MOVLW  07
0C9F4:  MOVWF  xAD
0C9F6:  MOVLW  89
0C9F8:  MOVWF  xAC
0C9FA:  CLRF   xAE
0C9FC:  CLRF   xAF
0C9FE:  MOVLW  01
0CA00:  MOVWF  xB0
0CA02:  MOVLW  02
0CA04:  MOVWF  xB1
0CA06:  MOVLB  0
0CA08:  CALL   1BAE
....................           
....................          displayTemperatura(AlTem,30,30,0,3); 
0CA0C:  MOVFF  618,7AC
0CA10:  MOVFF  617,7AB
0CA14:  MOVFF  616,7AA
0CA18:  MOVFF  615,7A9
0CA1C:  CALL   4E96
0CA20:  MOVFF  02,7AA
0CA24:  MOVFF  01,7A9
0CA28:  MOVFF  02,7AF
0CA2C:  MOVFF  01,7AE
0CA30:  MOVLW  1E
0CA32:  MOVLB  7
0CA34:  MOVWF  xB0
0CA36:  MOVWF  xB1
0CA38:  CLRF   xB2
0CA3A:  MOVLW  03
0CA3C:  MOVWF  xB3
0CA3E:  MOVLB  0
0CA40:  CALL   372C
....................           
....................          visual=0; 
0CA44:  MOVLB  5
0CA46:  BCF    x87.6
....................       } 
....................        
....................          if(UP)//Si oprime hacia arriba 
0CA48:  BSF    F92.5
0CA4A:  BTFSC  F80.5
0CA4C:  BRA    CAEE
....................          {   
....................             Buzz_on;delay_ms(10);Buzz_off; 
0CA4E:  BSF    F8B.7
0CA50:  BCF    F94.7
0CA52:  MOVLW  0A
0CA54:  MOVLB  7
0CA56:  MOVWF  xAF
0CA58:  MOVLB  0
0CA5A:  CALL   1500
0CA5E:  BCF    F8B.7
0CA60:  BCF    F94.7
....................             if(AlTem>250) 
0CA62:  MOVLB  7
0CA64:  CLRF   xAC
0CA66:  CLRF   xAB
0CA68:  MOVLW  7A
0CA6A:  MOVWF  xAA
0CA6C:  MOVLW  86
0CA6E:  MOVWF  xA9
0CA70:  MOVFF  618,7B0
0CA74:  MOVFF  617,7AF
0CA78:  MOVFF  616,7AE
0CA7C:  MOVFF  615,7AD
0CA80:  MOVLB  0
0CA82:  CALL   1EEC
0CA86:  BNC   CAAA
....................             { 
....................                AlTem=250;delay_ms(100);visual=1; 
0CA88:  MOVLB  6
0CA8A:  CLRF   x18
0CA8C:  CLRF   x17
0CA8E:  MOVLW  7A
0CA90:  MOVWF  x16
0CA92:  MOVLW  86
0CA94:  MOVWF  x15
0CA96:  MOVLW  64
0CA98:  MOVLB  7
0CA9A:  MOVWF  xAF
0CA9C:  MOVLB  0
0CA9E:  CALL   1500
0CAA2:  MOVLB  5
0CAA4:  BSF    x87.6
....................             } 
....................             else 
0CAA6:  BRA    CAEE
0CAA8:  MOVLB  0
....................             { 
....................                delay_ms(30);AlTem+=1.0;visual=1; 
0CAAA:  MOVLW  1E
0CAAC:  MOVLB  7
0CAAE:  MOVWF  xAF
0CAB0:  MOVLB  0
0CAB2:  CALL   1500
0CAB6:  BCF    FD8.1
0CAB8:  MOVFF  618,7B2
0CABC:  MOVFF  617,7B1
0CAC0:  MOVFF  616,7B0
0CAC4:  MOVFF  615,7AF
0CAC8:  MOVLB  7
0CACA:  CLRF   xB6
0CACC:  CLRF   xB5
0CACE:  CLRF   xB4
0CAD0:  MOVLW  7F
0CAD2:  MOVWF  xB3
0CAD4:  MOVLB  0
0CAD6:  CALL   2BC2
0CADA:  MOVFF  03,618
0CADE:  MOVFF  02,617
0CAE2:  MOVFF  01,616
0CAE6:  MOVFF  00,615
0CAEA:  MOVLB  5
0CAEC:  BSF    x87.6
....................             } 
....................          } 
....................                 
....................          if(DOWN)//Si oprime hacia abajo 
0CAEE:  BSF    F96.0
0CAF0:  BTFSC  F84.0
0CAF2:  BRA    CB6E
....................          {   
....................             Buzz_on;delay_ms(10);Buzz_off; 
0CAF4:  BSF    F8B.7
0CAF6:  BCF    F94.7
0CAF8:  MOVLW  0A
0CAFA:  MOVLB  7
0CAFC:  MOVWF  xAF
0CAFE:  MOVLB  0
0CB00:  CALL   1500
0CB04:  BCF    F8B.7
0CB06:  BCF    F94.7
....................             if(AlTem>0) 
0CB08:  MOVLB  7
0CB0A:  CLRF   xAC
0CB0C:  CLRF   xAB
0CB0E:  CLRF   xAA
0CB10:  CLRF   xA9
0CB12:  MOVFF  618,7B0
0CB16:  MOVFF  617,7AF
0CB1A:  MOVFF  616,7AE
0CB1E:  MOVFF  615,7AD
0CB22:  MOVLB  0
0CB24:  CALL   1EEC
0CB28:  BNC   CB70
....................             { 
....................                delay_ms(30);AlTem-=1.0;visual=1;      
0CB2A:  MOVLW  1E
0CB2C:  MOVLB  7
0CB2E:  MOVWF  xAF
0CB30:  MOVLB  0
0CB32:  CALL   1500
0CB36:  BSF    FD8.1
0CB38:  MOVFF  618,7B2
0CB3C:  MOVFF  617,7B1
0CB40:  MOVFF  616,7B0
0CB44:  MOVFF  615,7AF
0CB48:  MOVLB  7
0CB4A:  CLRF   xB6
0CB4C:  CLRF   xB5
0CB4E:  CLRF   xB4
0CB50:  MOVLW  7F
0CB52:  MOVWF  xB3
0CB54:  MOVLB  0
0CB56:  CALL   2BC2
0CB5A:  MOVFF  03,618
0CB5E:  MOVFF  02,617
0CB62:  MOVFF  01,616
0CB66:  MOVFF  00,615
0CB6A:  MOVLB  5
0CB6C:  BSF    x87.6
0CB6E:  MOVLB  0
....................             } 
....................          } 
....................                 
....................          if(RIGHT)//Si oprime SET 
0CB70:  BSF    F96.1
0CB72:  BTFSC  F84.1
0CB74:  BRA    CB9C
....................          {   
....................             Buzz_on;delay_ms(10);Buzz_off; 
0CB76:  BSF    F8B.7
0CB78:  BCF    F94.7
0CB7A:  MOVLW  0A
0CB7C:  MOVLB  7
0CB7E:  MOVWF  xAF
0CB80:  MOVLB  0
0CB82:  CALL   1500
0CB86:  BCF    F8B.7
0CB88:  BCF    F94.7
....................             delay_ms(30);visual=1; 
0CB8A:  MOVLW  1E
0CB8C:  MOVLB  7
0CB8E:  MOVWF  xAF
0CB90:  MOVLB  0
0CB92:  CALL   1500
0CB96:  MOVLB  5
0CB98:  BSF    x87.6
0CB9A:  MOVLB  0
....................          }  
....................                    
....................          if(LEFT)//Si oprime boton de Toma. 
0CB9C:  BSF    F96.2
0CB9E:  BTFSC  F84.2
0CBA0:  BRA    CC36
....................          { 
....................             Buzz_on;delay_ms(10);Buzz_off; 
0CBA2:  BSF    F8B.7
0CBA4:  BCF    F94.7
0CBA6:  MOVLW  0A
0CBA8:  MOVLB  7
0CBAA:  MOVWF  xAF
0CBAC:  MOVLB  0
0CBAE:  CALL   1500
0CBB2:  BCF    F8B.7
0CBB4:  BCF    F94.7
....................             delay_ms(700);Menu=100;glcd_fillscreen(OFF);Opcion=1;visual=1; 
0CBB6:  MOVLW  04
0CBB8:  MOVLB  7
0CBBA:  MOVWF  xA9
0CBBC:  MOVLW  AF
0CBBE:  MOVWF  xAF
0CBC0:  MOVLB  0
0CBC2:  CALL   1500
0CBC6:  MOVLB  7
0CBC8:  DECFSZ xA9,F
0CBCA:  BRA    CBBC
0CBCC:  MOVLW  64
0CBCE:  MOVLB  5
0CBD0:  MOVWF  x9A
0CBD2:  MOVLB  7
0CBD4:  CLRF   xAA
0CBD6:  MOVLB  0
0CBD8:  CALL   1580
0CBDC:  MOVLW  01
0CBDE:  MOVLB  5
0CBE0:  MOVWF  xA1
0CBE2:  BSF    x87.6
....................             write_eeprom(256,(int8)AlTem); 
0CBE4:  MOVFF  618,7AC
0CBE8:  MOVFF  617,7AB
0CBEC:  MOVFF  616,7AA
0CBF0:  MOVFF  615,7A9
0CBF4:  MOVLB  0
0CBF6:  CALL   4E96
0CBFA:  MOVFF  01,7A9
0CBFE:  MOVLW  01
0CC00:  MOVWF  FAA
0CC02:  CLRF   FA9
0CC04:  MOVFF  7A9,FA8
0CC08:  BCF    FA6.6
0CC0A:  BCF    FA6.7
0CC0C:  BSF    FA6.2
0CC0E:  MOVF   FF2,W
0CC10:  MOVWF  00
0CC12:  BCF    FF2.7
0CC14:  MOVLB  F
0CC16:  MOVLW  55
0CC18:  MOVWF  FA7
0CC1A:  MOVLW  AA
0CC1C:  MOVWF  FA7
0CC1E:  BSF    FA6.1
0CC20:  BTFSC  FA6.1
0CC22:  BRA    CC20
0CC24:  BCF    FA6.2
0CC26:  MOVF   00,W
0CC28:  IORWF  FF2,F
....................             delay_ms(10); 
0CC2A:  MOVLW  0A
0CC2C:  MOVLB  7
0CC2E:  MOVWF  xAF
0CC30:  MOVLB  0
0CC32:  CALL   1500
0CC36:  MOVLB  5
....................          } 
....................      } 
.................... //_-------------------------------------------------------------------------------------------------------------------------------------------------------- 
....................  
.................... //_--------------------------------------------------------------------------------------------------------------------------------------------------------       
....................       if(Menu==110){ // Menu de Resistencia conversora I/V 
0CC38:  MOVF   x9A,W
0CC3A:  SUBLW  6E
0CC3C:  BTFSS  FD8.2
0CC3E:  BRA    D0EA
....................        
....................       if(resistencia>260)       
0CC40:  MOVLB  7
0CC42:  CLRF   xAC
0CC44:  CLRF   xAB
0CC46:  MOVLW  02
0CC48:  MOVWF  xAA
0CC4A:  MOVLW  87
0CC4C:  MOVWF  xA9
0CC4E:  MOVFF  61C,7B0
0CC52:  MOVFF  61B,7AF
0CC56:  MOVFF  61A,7AE
0CC5A:  MOVFF  619,7AD
0CC5E:  MOVLB  0
0CC60:  CALL   1EEC
0CC64:  BNC   CC76
....................          resistencia=240; 
0CC66:  MOVLB  6
0CC68:  CLRF   x1C
0CC6A:  CLRF   x1B
0CC6C:  MOVLW  70
0CC6E:  MOVWF  x1A
0CC70:  MOVLW  86
0CC72:  MOVWF  x19
....................       else if(resistencia<230) 
0CC74:  BRA    CCAA
0CC76:  MOVFF  61C,7AC
0CC7A:  MOVFF  61B,7AB
0CC7E:  MOVFF  61A,7AA
0CC82:  MOVFF  619,7A9
0CC86:  MOVLB  7
0CC88:  CLRF   xB0
0CC8A:  CLRF   xAF
0CC8C:  MOVLW  66
0CC8E:  MOVWF  xAE
0CC90:  MOVLW  86
0CC92:  MOVWF  xAD
0CC94:  MOVLB  0
0CC96:  CALL   1EEC
0CC9A:  BNC   CCAA
....................          resistencia=240; 
0CC9C:  MOVLB  6
0CC9E:  CLRF   x1C
0CCA0:  CLRF   x1B
0CCA2:  MOVLW  70
0CCA4:  MOVWF  x1A
0CCA6:  MOVLW  86
0CCA8:  MOVWF  x19
....................        
....................       if(visual==1){ 
0CCAA:  MOVLB  5
0CCAC:  BTFSS  x87.6
0CCAE:  BRA    CD36
....................          glcd_fillScreen(OFF); 
0CCB0:  MOVLB  7
0CCB2:  CLRF   xAA
0CCB4:  MOVLB  0
0CCB6:  CALL   1580
....................          strcpy(Menus.Letra,"Resis."); 
0CCBA:  MOVLW  07
0CCBC:  MOVWF  FEA
0CCBE:  MOVLW  89
0CCC0:  MOVWF  FE9
0CCC2:  MOVFF  FF2,7A9
0CCC6:  BCF    FF2.7
0CCC8:  MOVLW  00
0CCCA:  CALL   1428
0CCCE:  TBLRD*-
0CCD0:  TBLRD*+
0CCD2:  MOVF   FF5,W
0CCD4:  MOVWF  FEE
0CCD6:  IORLW  00
0CCD8:  BNZ   CCD0
0CCDA:  MOVLB  7
0CCDC:  BTFSC  xA9.7
0CCDE:  BSF    FF2.7
....................          displayMenu(Menus.Letra,0,0,1,2); 
0CCE0:  MOVLW  07
0CCE2:  MOVWF  xAD
0CCE4:  MOVLW  89
0CCE6:  MOVWF  xAC
0CCE8:  CLRF   xAE
0CCEA:  CLRF   xAF
0CCEC:  MOVLW  01
0CCEE:  MOVWF  xB0
0CCF0:  MOVLW  02
0CCF2:  MOVWF  xB1
0CCF4:  MOVLB  0
0CCF6:  CALL   1BAE
....................           
....................          displayTemperatura(resistencia,30,30,0,3); 
0CCFA:  MOVFF  61C,7AC
0CCFE:  MOVFF  61B,7AB
0CD02:  MOVFF  61A,7AA
0CD06:  MOVFF  619,7A9
0CD0A:  CALL   4E96
0CD0E:  MOVFF  02,7AA
0CD12:  MOVFF  01,7A9
0CD16:  MOVFF  02,7AF
0CD1A:  MOVFF  01,7AE
0CD1E:  MOVLW  1E
0CD20:  MOVLB  7
0CD22:  MOVWF  xB0
0CD24:  MOVWF  xB1
0CD26:  CLRF   xB2
0CD28:  MOVLW  03
0CD2A:  MOVWF  xB3
0CD2C:  MOVLB  0
0CD2E:  CALL   372C
....................           
....................          visual=0; 
0CD32:  MOVLB  5
0CD34:  BCF    x87.6
....................       } 
....................        
....................          if(UP)//Si oprime hacia arriba 
0CD36:  BSF    F92.5
0CD38:  BTFSC  F80.5
0CD3A:  BRA    CD96
....................          {   
....................             Buzz_on;delay_ms(10);Buzz_off; 
0CD3C:  BSF    F8B.7
0CD3E:  BCF    F94.7
0CD40:  MOVLW  0A
0CD42:  MOVLB  7
0CD44:  MOVWF  xAF
0CD46:  MOVLB  0
0CD48:  CALL   1500
0CD4C:  BCF    F8B.7
0CD4E:  BCF    F94.7
....................             visual=1; 
0CD50:  MOVLB  5
0CD52:  BSF    x87.6
....................             resistencia+=1.0; 
0CD54:  BCF    FD8.1
0CD56:  MOVFF  61C,7B2
0CD5A:  MOVFF  61B,7B1
0CD5E:  MOVFF  61A,7B0
0CD62:  MOVFF  619,7AF
0CD66:  MOVLB  7
0CD68:  CLRF   xB6
0CD6A:  CLRF   xB5
0CD6C:  CLRF   xB4
0CD6E:  MOVLW  7F
0CD70:  MOVWF  xB3
0CD72:  MOVLB  0
0CD74:  CALL   2BC2
0CD78:  MOVFF  03,61C
0CD7C:  MOVFF  02,61B
0CD80:  MOVFF  01,61A
0CD84:  MOVFF  00,619
....................             delay_ms(30); 
0CD88:  MOVLW  1E
0CD8A:  MOVLB  7
0CD8C:  MOVWF  xAF
0CD8E:  MOVLB  0
0CD90:  CALL   1500
0CD94:  MOVLB  5
....................          } 
....................                 
....................          if(DOWN)//Si oprime hacia abajo 
0CD96:  BSF    F96.0
0CD98:  BTFSC  F84.0
0CD9A:  BRA    CDF6
....................          {   
....................             Buzz_on;delay_ms(10);Buzz_off; 
0CD9C:  BSF    F8B.7
0CD9E:  BCF    F94.7
0CDA0:  MOVLW  0A
0CDA2:  MOVLB  7
0CDA4:  MOVWF  xAF
0CDA6:  MOVLB  0
0CDA8:  CALL   1500
0CDAC:  BCF    F8B.7
0CDAE:  BCF    F94.7
....................             visual=1; 
0CDB0:  MOVLB  5
0CDB2:  BSF    x87.6
....................             resistencia-=1.0; 
0CDB4:  BSF    FD8.1
0CDB6:  MOVFF  61C,7B2
0CDBA:  MOVFF  61B,7B1
0CDBE:  MOVFF  61A,7B0
0CDC2:  MOVFF  619,7AF
0CDC6:  MOVLB  7
0CDC8:  CLRF   xB6
0CDCA:  CLRF   xB5
0CDCC:  CLRF   xB4
0CDCE:  MOVLW  7F
0CDD0:  MOVWF  xB3
0CDD2:  MOVLB  0
0CDD4:  CALL   2BC2
0CDD8:  MOVFF  03,61C
0CDDC:  MOVFF  02,61B
0CDE0:  MOVFF  01,61A
0CDE4:  MOVFF  00,619
....................             delay_ms(30); 
0CDE8:  MOVLW  1E
0CDEA:  MOVLB  7
0CDEC:  MOVWF  xAF
0CDEE:  MOVLB  0
0CDF0:  CALL   1500
0CDF4:  MOVLB  5
....................          } 
....................                 
....................          if(RIGHT)//Si oprime SET 
0CDF6:  BSF    F96.1
0CDF8:  BTFSC  F84.1
0CDFA:  BRA    CE20
....................          {   
....................             Buzz_on;delay_ms(10);Buzz_off; 
0CDFC:  BSF    F8B.7
0CDFE:  BCF    F94.7
0CE00:  MOVLW  0A
0CE02:  MOVLB  7
0CE04:  MOVWF  xAF
0CE06:  MOVLB  0
0CE08:  CALL   1500
0CE0C:  BCF    F8B.7
0CE0E:  BCF    F94.7
....................             delay_ms(30);visual=1; 
0CE10:  MOVLW  1E
0CE12:  MOVLB  7
0CE14:  MOVWF  xAF
0CE16:  MOVLB  0
0CE18:  CALL   1500
0CE1C:  MOVLB  5
0CE1E:  BSF    x87.6
....................          }  
....................                    
....................          if(LEFT)//Si oprime boton de Toma. 
0CE20:  BSF    F96.2
0CE22:  BTFSC  F84.2
0CE24:  BRA    D0EA
....................          { 
....................             Buzz_on;delay_ms(10);Buzz_off; 
0CE26:  BSF    F8B.7
0CE28:  BCF    F94.7
0CE2A:  MOVLW  0A
0CE2C:  MOVLB  7
0CE2E:  MOVWF  xAF
0CE30:  MOVLB  0
0CE32:  CALL   1500
0CE36:  BCF    F8B.7
0CE38:  BCF    F94.7
....................             delay_ms(700);Menu=100;glcd_fillscreen(OFF);Opcion=1;visual=1; 
0CE3A:  MOVLW  04
0CE3C:  MOVLB  7
0CE3E:  MOVWF  xA9
0CE40:  MOVLW  AF
0CE42:  MOVWF  xAF
0CE44:  MOVLB  0
0CE46:  CALL   1500
0CE4A:  MOVLB  7
0CE4C:  DECFSZ xA9,F
0CE4E:  BRA    CE40
0CE50:  MOVLW  64
0CE52:  MOVLB  5
0CE54:  MOVWF  x9A
0CE56:  MOVLB  7
0CE58:  CLRF   xAA
0CE5A:  MOVLB  0
0CE5C:  CALL   1580
0CE60:  MOVLW  01
0CE62:  MOVLB  5
0CE64:  MOVWF  xA1
0CE66:  BSF    x87.6
....................             write_eeprom(257,(int8)resistencia); 
0CE68:  MOVFF  61C,7AC
0CE6C:  MOVFF  61B,7AB
0CE70:  MOVFF  61A,7AA
0CE74:  MOVFF  619,7A9
0CE78:  MOVLB  0
0CE7A:  CALL   4E96
0CE7E:  MOVFF  01,7A9
0CE82:  MOVLW  01
0CE84:  MOVWF  FAA
0CE86:  MOVWF  FA9
0CE88:  MOVFF  7A9,FA8
0CE8C:  BCF    FA6.6
0CE8E:  BCF    FA6.7
0CE90:  BSF    FA6.2
0CE92:  MOVF   FF2,W
0CE94:  MOVWF  00
0CE96:  BCF    FF2.7
0CE98:  MOVLB  F
0CE9A:  MOVLW  55
0CE9C:  MOVWF  FA7
0CE9E:  MOVLW  AA
0CEA0:  MOVWF  FA7
0CEA2:  BSF    FA6.1
0CEA4:  BTFSC  FA6.1
0CEA6:  BRA    CEA4
0CEA8:  BCF    FA6.2
0CEAA:  MOVF   00,W
0CEAC:  IORWF  FF2,F
....................             delay_ms(10); 
0CEAE:  MOVLW  0A
0CEB0:  MOVLB  7
0CEB2:  MOVWF  xAF
0CEB4:  MOVLB  0
0CEB6:  CALL   1500
....................             adcInf=(0.004*resistencia*1023)/5.0; 
0CEBA:  MOVLW  6F
0CEBC:  MOVLB  7
0CEBE:  MOVWF  xC9
0CEC0:  MOVLW  12
0CEC2:  MOVWF  xC8
0CEC4:  MOVLW  03
0CEC6:  MOVWF  xC7
0CEC8:  MOVLW  77
0CECA:  MOVWF  xC6
0CECC:  MOVFF  61C,7CD
0CED0:  MOVFF  61B,7CC
0CED4:  MOVFF  61A,7CB
0CED8:  MOVFF  619,7CA
0CEDC:  MOVLB  0
0CEDE:  CALL   2F98
0CEE2:  MOVFF  00,7A9
0CEE6:  MOVFF  01,7AA
0CEEA:  MOVFF  02,7AB
0CEEE:  MOVFF  03,7AC
0CEF2:  MOVFF  03,7C9
0CEF6:  MOVFF  02,7C8
0CEFA:  MOVFF  01,7C7
0CEFE:  MOVFF  00,7C6
0CF02:  MOVLB  7
0CF04:  CLRF   xCD
0CF06:  MOVLW  C0
0CF08:  MOVWF  xCC
0CF0A:  MOVLW  7F
0CF0C:  MOVWF  xCB
0CF0E:  MOVLW  88
0CF10:  MOVWF  xCA
0CF12:  MOVLB  0
0CF14:  CALL   2F98
0CF18:  MOVFF  00,7A9
0CF1C:  MOVFF  01,7AA
0CF20:  MOVFF  02,7AB
0CF24:  MOVFF  03,7AC
0CF28:  MOVFF  03,7B0
0CF2C:  MOVFF  02,7AF
0CF30:  MOVFF  01,7AE
0CF34:  MOVFF  00,7AD
0CF38:  MOVLB  7
0CF3A:  CLRF   xB4
0CF3C:  CLRF   xB3
0CF3E:  MOVLW  20
0CF40:  MOVWF  xB2
0CF42:  MOVLW  81
0CF44:  MOVWF  xB1
0CF46:  MOVLB  0
0CF48:  CALL   2E3A
0CF4C:  MOVFF  03,648
0CF50:  MOVFF  02,647
0CF54:  MOVFF  01,646
0CF58:  MOVFF  00,645
....................             adcSup=(0.02*resistencia*1023)/5.0; 
0CF5C:  MOVLW  0A
0CF5E:  MOVLB  7
0CF60:  MOVWF  xC9
0CF62:  MOVLW  D7
0CF64:  MOVWF  xC8
0CF66:  MOVLW  23
0CF68:  MOVWF  xC7
0CF6A:  MOVLW  79
0CF6C:  MOVWF  xC6
0CF6E:  MOVFF  61C,7CD
0CF72:  MOVFF  61B,7CC
0CF76:  MOVFF  61A,7CB
0CF7A:  MOVFF  619,7CA
0CF7E:  MOVLB  0
0CF80:  CALL   2F98
0CF84:  MOVFF  00,7A9
0CF88:  MOVFF  01,7AA
0CF8C:  MOVFF  02,7AB
0CF90:  MOVFF  03,7AC
0CF94:  MOVFF  03,7C9
0CF98:  MOVFF  02,7C8
0CF9C:  MOVFF  01,7C7
0CFA0:  MOVFF  00,7C6
0CFA4:  MOVLB  7
0CFA6:  CLRF   xCD
0CFA8:  MOVLW  C0
0CFAA:  MOVWF  xCC
0CFAC:  MOVLW  7F
0CFAE:  MOVWF  xCB
0CFB0:  MOVLW  88
0CFB2:  MOVWF  xCA
0CFB4:  MOVLB  0
0CFB6:  CALL   2F98
0CFBA:  MOVFF  00,7A9
0CFBE:  MOVFF  01,7AA
0CFC2:  MOVFF  02,7AB
0CFC6:  MOVFF  03,7AC
0CFCA:  MOVFF  03,7B0
0CFCE:  MOVFF  02,7AF
0CFD2:  MOVFF  01,7AE
0CFD6:  MOVFF  00,7AD
0CFDA:  MOVLB  7
0CFDC:  CLRF   xB4
0CFDE:  CLRF   xB3
0CFE0:  MOVLW  20
0CFE2:  MOVWF  xB2
0CFE4:  MOVLW  81
0CFE6:  MOVWF  xB1
0CFE8:  MOVLB  0
0CFEA:  CALL   2E3A
0CFEE:  MOVFF  03,644
0CFF2:  MOVFF  02,643
0CFF6:  MOVFF  01,642
0CFFA:  MOVFF  00,641
....................             m=(Tsup-Tinf)/(adcSup-adcInf); 
0CFFE:  BSF    FD8.1
0D000:  MOVFF  64C,7B2
0D004:  MOVFF  64B,7B1
0D008:  MOVFF  64A,7B0
0D00C:  MOVFF  649,7AF
0D010:  MOVFF  650,7B6
0D014:  MOVFF  64F,7B5
0D018:  MOVFF  64E,7B4
0D01C:  MOVFF  64D,7B3
0D020:  CALL   2BC2
0D024:  MOVFF  00,7A9
0D028:  MOVFF  01,7AA
0D02C:  MOVFF  02,7AB
0D030:  MOVFF  03,7AC
0D034:  BSF    FD8.1
0D036:  MOVFF  644,7B2
0D03A:  MOVFF  643,7B1
0D03E:  MOVFF  642,7B0
0D042:  MOVFF  641,7AF
0D046:  MOVFF  648,7B6
0D04A:  MOVFF  647,7B5
0D04E:  MOVFF  646,7B4
0D052:  MOVFF  645,7B3
0D056:  CALL   2BC2
0D05A:  MOVFF  7AC,7B0
0D05E:  MOVFF  7AB,7AF
0D062:  MOVFF  7AA,7AE
0D066:  MOVFF  7A9,7AD
0D06A:  MOVFF  03,7B4
0D06E:  MOVFF  02,7B3
0D072:  MOVFF  01,7B2
0D076:  MOVFF  00,7B1
0D07A:  CALL   2E3A
0D07E:  MOVFF  03,63C
0D082:  MOVFF  02,63B
0D086:  MOVFF  01,63A
0D08A:  MOVFF  00,639
....................             b=Tsup-(m*adcSup); 
0D08E:  MOVFF  63C,7C9
0D092:  MOVFF  63B,7C8
0D096:  MOVFF  63A,7C7
0D09A:  MOVFF  639,7C6
0D09E:  MOVFF  644,7CD
0D0A2:  MOVFF  643,7CC
0D0A6:  MOVFF  642,7CB
0D0AA:  MOVFF  641,7CA
0D0AE:  CALL   2F98
0D0B2:  BSF    FD8.1
0D0B4:  MOVFF  64C,7B2
0D0B8:  MOVFF  64B,7B1
0D0BC:  MOVFF  64A,7B0
0D0C0:  MOVFF  649,7AF
0D0C4:  MOVFF  03,7B6
0D0C8:  MOVFF  02,7B5
0D0CC:  MOVFF  01,7B4
0D0D0:  MOVFF  00,7B3
0D0D4:  CALL   2BC2
0D0D8:  MOVFF  03,640
0D0DC:  MOVFF  02,63F
0D0E0:  MOVFF  01,63E
0D0E4:  MOVFF  00,63D
0D0E8:  MOVLB  5
....................          } 
....................      } 
.................... //_-------------------------------------------------------------------------------------------------------------------------------------------------------- 
....................  
.................... //_--------------------------------------------------------------------------------------------------------------------------------------------------------       
....................       if(Menu==111){ // Menu de Pendiente de calentamiento de mufla 
0D0EA:  MOVF   x9A,W
0D0EC:  SUBLW  6F
0D0EE:  BTFSS  FD8.2
0D0F0:  BRA    D36C
....................        
....................       if(penMufla>255)       
0D0F2:  MOVLB  7
0D0F4:  CLRF   xAC
0D0F6:  CLRF   xAB
0D0F8:  MOVLW  7F
0D0FA:  MOVWF  xAA
0D0FC:  MOVLW  86
0D0FE:  MOVWF  xA9
0D100:  MOVFF  654,7B0
0D104:  MOVFF  653,7AF
0D108:  MOVFF  652,7AE
0D10C:  MOVFF  651,7AD
0D110:  MOVLB  0
0D112:  CALL   1EEC
0D116:  BNC   D126
....................          penMufla=1; 
0D118:  MOVLB  6
0D11A:  CLRF   x54
0D11C:  CLRF   x53
0D11E:  CLRF   x52
0D120:  MOVLW  7F
0D122:  MOVWF  x51
....................       else if(penMufla<1) 
0D124:  BRA    D158
0D126:  MOVFF  654,7AC
0D12A:  MOVFF  653,7AB
0D12E:  MOVFF  652,7AA
0D132:  MOVFF  651,7A9
0D136:  MOVLB  7
0D138:  CLRF   xB0
0D13A:  CLRF   xAF
0D13C:  CLRF   xAE
0D13E:  MOVLW  7F
0D140:  MOVWF  xAD
0D142:  MOVLB  0
0D144:  CALL   1EEC
0D148:  BNC   D158
....................          penMufla=255; 
0D14A:  MOVLB  6
0D14C:  CLRF   x54
0D14E:  CLRF   x53
0D150:  MOVLW  7F
0D152:  MOVWF  x52
0D154:  MOVLW  86
0D156:  MOVWF  x51
....................        
....................       if(visual==1){ 
0D158:  MOVLB  5
0D15A:  BTFSS  x87.6
0D15C:  BRA    D1E4
....................          glcd_fillScreen(OFF); 
0D15E:  MOVLB  7
0D160:  CLRF   xAA
0D162:  MOVLB  0
0D164:  CALL   1580
....................          strcpy(Menus.Letra,"m Mufla"); 
0D168:  MOVLW  07
0D16A:  MOVWF  FEA
0D16C:  MOVLW  89
0D16E:  MOVWF  FE9
0D170:  MOVFF  FF2,7A9
0D174:  BCF    FF2.7
0D176:  MOVLW  00
0D178:  CALL   12E0
0D17C:  TBLRD*-
0D17E:  TBLRD*+
0D180:  MOVF   FF5,W
0D182:  MOVWF  FEE
0D184:  IORLW  00
0D186:  BNZ   D17E
0D188:  MOVLB  7
0D18A:  BTFSC  xA9.7
0D18C:  BSF    FF2.7
....................          displayMenu(Menus.Letra,0,0,1,2); 
0D18E:  MOVLW  07
0D190:  MOVWF  xAD
0D192:  MOVLW  89
0D194:  MOVWF  xAC
0D196:  CLRF   xAE
0D198:  CLRF   xAF
0D19A:  MOVLW  01
0D19C:  MOVWF  xB0
0D19E:  MOVLW  02
0D1A0:  MOVWF  xB1
0D1A2:  MOVLB  0
0D1A4:  CALL   1BAE
....................           
....................          displayTemperatura(penMufla,30,30,0,3); 
0D1A8:  MOVFF  654,7AC
0D1AC:  MOVFF  653,7AB
0D1B0:  MOVFF  652,7AA
0D1B4:  MOVFF  651,7A9
0D1B8:  CALL   4E96
0D1BC:  MOVFF  02,7AA
0D1C0:  MOVFF  01,7A9
0D1C4:  MOVFF  02,7AF
0D1C8:  MOVFF  01,7AE
0D1CC:  MOVLW  1E
0D1CE:  MOVLB  7
0D1D0:  MOVWF  xB0
0D1D2:  MOVWF  xB1
0D1D4:  CLRF   xB2
0D1D6:  MOVLW  03
0D1D8:  MOVWF  xB3
0D1DA:  MOVLB  0
0D1DC:  CALL   372C
....................           
....................          visual=0; 
0D1E0:  MOVLB  5
0D1E2:  BCF    x87.6
....................       } 
....................        
....................          if(UP)//Si oprime hacia arriba 
0D1E4:  BSF    F92.5
0D1E6:  BTFSC  F80.5
0D1E8:  BRA    D244
....................          {   
....................             Buzz_on;delay_ms(10);Buzz_off; 
0D1EA:  BSF    F8B.7
0D1EC:  BCF    F94.7
0D1EE:  MOVLW  0A
0D1F0:  MOVLB  7
0D1F2:  MOVWF  xAF
0D1F4:  MOVLB  0
0D1F6:  CALL   1500
0D1FA:  BCF    F8B.7
0D1FC:  BCF    F94.7
....................             visual=1; 
0D1FE:  MOVLB  5
0D200:  BSF    x87.6
....................             penMufla+=1.0; 
0D202:  BCF    FD8.1
0D204:  MOVFF  654,7B2
0D208:  MOVFF  653,7B1
0D20C:  MOVFF  652,7B0
0D210:  MOVFF  651,7AF
0D214:  MOVLB  7
0D216:  CLRF   xB6
0D218:  CLRF   xB5
0D21A:  CLRF   xB4
0D21C:  MOVLW  7F
0D21E:  MOVWF  xB3
0D220:  MOVLB  0
0D222:  CALL   2BC2
0D226:  MOVFF  03,654
0D22A:  MOVFF  02,653
0D22E:  MOVFF  01,652
0D232:  MOVFF  00,651
....................             delay_ms(30); 
0D236:  MOVLW  1E
0D238:  MOVLB  7
0D23A:  MOVWF  xAF
0D23C:  MOVLB  0
0D23E:  CALL   1500
0D242:  MOVLB  5
....................          } 
....................                 
....................          if(DOWN)//Si oprime hacia abajo 
0D244:  BSF    F96.0
0D246:  BTFSC  F84.0
0D248:  BRA    D2A4
....................          {   
....................             Buzz_on;delay_ms(10);Buzz_off; 
0D24A:  BSF    F8B.7
0D24C:  BCF    F94.7
0D24E:  MOVLW  0A
0D250:  MOVLB  7
0D252:  MOVWF  xAF
0D254:  MOVLB  0
0D256:  CALL   1500
0D25A:  BCF    F8B.7
0D25C:  BCF    F94.7
....................             visual=1; 
0D25E:  MOVLB  5
0D260:  BSF    x87.6
....................             penMufla-=1.0; 
0D262:  BSF    FD8.1
0D264:  MOVFF  654,7B2
0D268:  MOVFF  653,7B1
0D26C:  MOVFF  652,7B0
0D270:  MOVFF  651,7AF
0D274:  MOVLB  7
0D276:  CLRF   xB6
0D278:  CLRF   xB5
0D27A:  CLRF   xB4
0D27C:  MOVLW  7F
0D27E:  MOVWF  xB3
0D280:  MOVLB  0
0D282:  CALL   2BC2
0D286:  MOVFF  03,654
0D28A:  MOVFF  02,653
0D28E:  MOVFF  01,652
0D292:  MOVFF  00,651
....................             delay_ms(30); 
0D296:  MOVLW  1E
0D298:  MOVLB  7
0D29A:  MOVWF  xAF
0D29C:  MOVLB  0
0D29E:  CALL   1500
0D2A2:  MOVLB  5
....................          } 
....................                 
....................          if(RIGHT)//Si oprime SET 
0D2A4:  BSF    F96.1
0D2A6:  BTFSC  F84.1
0D2A8:  BRA    D2CE
....................          {   
....................             Buzz_on;delay_ms(10);Buzz_off; 
0D2AA:  BSF    F8B.7
0D2AC:  BCF    F94.7
0D2AE:  MOVLW  0A
0D2B0:  MOVLB  7
0D2B2:  MOVWF  xAF
0D2B4:  MOVLB  0
0D2B6:  CALL   1500
0D2BA:  BCF    F8B.7
0D2BC:  BCF    F94.7
....................             delay_ms(30);visual=1; 
0D2BE:  MOVLW  1E
0D2C0:  MOVLB  7
0D2C2:  MOVWF  xAF
0D2C4:  MOVLB  0
0D2C6:  CALL   1500
0D2CA:  MOVLB  5
0D2CC:  BSF    x87.6
....................          }  
....................                    
....................          if(LEFT)//Si oprime boton de Toma. 
0D2CE:  BSF    F96.2
0D2D0:  BTFSC  F84.2
0D2D2:  BRA    D36C
....................          { 
....................             Buzz_on;delay_ms(10);Buzz_off; 
0D2D4:  BSF    F8B.7
0D2D6:  BCF    F94.7
0D2D8:  MOVLW  0A
0D2DA:  MOVLB  7
0D2DC:  MOVWF  xAF
0D2DE:  MOVLB  0
0D2E0:  CALL   1500
0D2E4:  BCF    F8B.7
0D2E6:  BCF    F94.7
....................             delay_ms(700);Menu=100;glcd_fillscreen(OFF);Opcion=1;visual=1; 
0D2E8:  MOVLW  04
0D2EA:  MOVLB  7
0D2EC:  MOVWF  xA9
0D2EE:  MOVLW  AF
0D2F0:  MOVWF  xAF
0D2F2:  MOVLB  0
0D2F4:  CALL   1500
0D2F8:  MOVLB  7
0D2FA:  DECFSZ xA9,F
0D2FC:  BRA    D2EE
0D2FE:  MOVLW  64
0D300:  MOVLB  5
0D302:  MOVWF  x9A
0D304:  MOVLB  7
0D306:  CLRF   xAA
0D308:  MOVLB  0
0D30A:  CALL   1580
0D30E:  MOVLW  01
0D310:  MOVLB  5
0D312:  MOVWF  xA1
0D314:  BSF    x87.6
....................             write_eeprom(258,(int8)penMufla); 
0D316:  MOVFF  654,7AC
0D31A:  MOVFF  653,7AB
0D31E:  MOVFF  652,7AA
0D322:  MOVFF  651,7A9
0D326:  MOVLB  0
0D328:  CALL   4E96
0D32C:  MOVFF  01,7A9
0D330:  MOVLW  01
0D332:  MOVWF  FAA
0D334:  MOVLW  02
0D336:  MOVWF  FA9
0D338:  MOVFF  7A9,FA8
0D33C:  BCF    FA6.6
0D33E:  BCF    FA6.7
0D340:  BSF    FA6.2
0D342:  MOVF   FF2,W
0D344:  MOVWF  00
0D346:  BCF    FF2.7
0D348:  MOVLB  F
0D34A:  MOVLW  55
0D34C:  MOVWF  FA7
0D34E:  MOVLW  AA
0D350:  MOVWF  FA7
0D352:  BSF    FA6.1
0D354:  BTFSC  FA6.1
0D356:  BRA    D354
0D358:  BCF    FA6.2
0D35A:  MOVF   00,W
0D35C:  IORWF  FF2,F
....................             delay_ms(10); 
0D35E:  MOVLW  0A
0D360:  MOVLB  7
0D362:  MOVWF  xAF
0D364:  MOVLB  0
0D366:  CALL   1500
0D36A:  MOVLB  5
....................          } 
....................      } 
.................... //_-------------------------------------------------------------------------------------------------------------------------------------------------------- 
....................  
....................  
....................       if(Lectura2==1) 
0D36C:  DECFSZ x8F,W
0D36E:  BRA    D38E
....................       { 
....................          Temperatura=Leer_Sensor(MediaMovil); 
0D370:  MOVFF  58C,7A9
0D374:  MOVLB  0
0D376:  CALL   308E
0D37A:  MOVFF  03,624
0D37E:  MOVFF  02,623
0D382:  MOVFF  01,622
0D386:  MOVFF  00,621
....................          Lectura2=0; 
0D38A:  MOVLB  5
0D38C:  CLRF   x8F
....................       }  
....................  
....................       if(tiemporeset>=60) 
0D38E:  MOVF   x97,W
0D390:  SUBLW  3B
0D392:  BC    D3A8
....................       { 
....................          if(Menu!=0){ 
0D394:  MOVF   x9A,F
0D396:  BZ    D3A8
....................             glcd_init(ON); 
0D398:  MOVLW  01
0D39A:  MOVLB  7
0D39C:  MOVWF  xA9
0D39E:  MOVLB  0
0D3A0:  CALL   1692
....................             tiemporeset=0; 
0D3A4:  MOVLB  5
0D3A6:  CLRF   x97
....................          } 
....................       }  
....................  
....................  
....................    } 
0D3A8:  MOVLB  0
0D3AA:  GOTO   6B7E
.................... } 
0D3AE:  SLEEP 

Configuration Fuses:
   Word  1: 0200   HS NOIESO NOFCMEN
   Word  2: 1E1F   BROWNOUT NOWDT BORV20 NOPUT WDT32768
   Word  3: 0000   NOPBADEN NOLPT1OSC NOMCLR
   Word  4: 00B0   NOSTVREN NODEBUG NOLVP NOXINST BBSIZ4K
   Word  5: C03F   NOPROTECT NOCPD NOCPB
   Word  6: E03F   NOWRT NOWRTD NOWRTC NOWRTB
   Word  7: 403F   NOEBTR NOEBTRB
