CCS PCH C Compiler, Version 5.059, 56587               02-jun.-18 17:50

               Filename:   C:\Users\judapies\Desktop\Firmware Ajustado\Mufla.lst

               ROM used:   44360 bytes (45%)
                           Largest free fragment is 32768
               RAM used:   1931 (58%) at main() level
                           1987 (60%) worst case
               Stack used: 5 locations (4 in main + 1 for interrupts)
               Stack size: 31

*
00000:  GOTO   4A02
*
00008:  MOVWF  04
0000A:  MOVFF  FD8,05
0000E:  MOVFF  FE0,06
00012:  MOVLB  0
00014:  MOVFF  FE9,0C
00018:  MOVFF  FEA,07
0001C:  MOVFF  FE1,08
00020:  MOVFF  FE2,09
00024:  MOVFF  FD9,0A
00028:  MOVFF  FDA,0B
0002C:  MOVFF  FF3,12
00030:  MOVFF  FF4,13
00034:  MOVFF  FFA,14
00038:  MOVFF  FF5,15
0003C:  MOVFF  FF6,16
00040:  MOVFF  FF7,17
00044:  MOVFF  FF8,18
00048:  MOVFF  FFB,19
0004C:  MOVFF  00,0E
00050:  MOVFF  01,0F
00054:  MOVFF  02,10
00058:  MOVFF  03,11
0005C:  BTFSS  F9D.0
0005E:  GOTO   0068
00062:  BTFSC  F9E.0
00064:  GOTO   10B4
00068:  MOVFF  0E,00
0006C:  MOVFF  0F,01
00070:  MOVFF  10,02
00074:  MOVFF  11,03
00078:  MOVFF  0C,FE9
0007C:  MOVFF  07,FEA
00080:  BSF    07.7
00082:  MOVFF  08,FE1
00086:  MOVFF  09,FE2
0008A:  MOVFF  0A,FD9
0008E:  MOVFF  0B,FDA
00092:  MOVFF  12,FF3
00096:  MOVFF  13,FF4
0009A:  MOVFF  14,FFA
0009E:  MOVFF  15,FF5
000A2:  MOVFF  16,FF6
000A6:  MOVFF  17,FF7
000AA:  MOVFF  18,FF8
000AE:  MOVFF  19,FFB
000B2:  MOVF   04,W
000B4:  MOVFF  06,FE0
000B8:  MOVFF  05,FD8
000BC:  RETFIE 0
.................... // Control para mufla con rampas  
.................... // Se pueden programar 5 Programas de 10 Segmentos cada Uno. 
.................... // En un segmento se puede programar una rampa o una meseta. 
....................  
....................  
.................... #include <18F4685.h> 
.................... //////////// Standard Header file for the PIC18F4685 device //////////////// 
.................... /////////////////////////////////////////////////////////////////////////// 
.................... ////        (C) Copyright 1996, 2014 Custom Computer Services          //// 
.................... //// This source code may only be used by licensed users of the CCS C  //// 
.................... //// compiler.  This source code may only be distributed to other      //// 
.................... //// licensed users of the CCS C compiler.  No other use, reproduction //// 
.................... //// or distribution is permitted without written permission.          //// 
.................... //// Derivative programs created using this software in object code    //// 
.................... //// form are not restricted in any way.                               //// 
.................... /////////////////////////////////////////////////////////////////////////// 
.................... #device PIC18F4685 
000BE:  CLRF   FF7
000C0:  ADDLW  D2
000C2:  MOVWF  FF6
000C4:  MOVLW  00
000C6:  ADDWFC FF7,F
000C8:  MOVLW  00
000CA:  MOVWF  FF8
000CC:  TBLRD*+
000CE:  MOVF   FF5,W
000D0:  RETURN 0
000D2:  DATA 00,00
000D4:  DATA 00,00
000D6:  DATA 00,00
000D8:  DATA 00,5F
000DA:  DATA 00,00
000DC:  DATA 00,03
000DE:  DATA 00,03
000E0:  DATA 00,14
000E2:  DATA 3E,14
000E4:  DATA 3E,14
000E6:  DATA 24,2A
000E8:  DATA 7F,2A
000EA:  DATA 12,43
000EC:  DATA 33,08
000EE:  DATA 66,61
000F0:  DATA 36,49
000F2:  DATA 55,22
000F4:  DATA 50,00
000F6:  DATA 05,03
000F8:  DATA 00,00
000FA:  DATA 00,1C
000FC:  DATA 22,41
000FE:  DATA 00,00
00100:  DATA 41,22
00102:  DATA 1C,00
00104:  DATA 14,08
00106:  DATA 3E,08
00108:  DATA 14,08
0010A:  DATA 08,3E
0010C:  DATA 08,08
0010E:  DATA 00,50
00110:  DATA 30,00
00112:  DATA 00,08
00114:  DATA 08,08
00116:  DATA 08,08
00118:  DATA 00,60
0011A:  DATA 60,00
0011C:  DATA 00,20
0011E:  DATA 10,08
00120:  DATA 04,02
00122:  DATA 3E,51
00124:  DATA 49,45
00126:  DATA 3E,00
00128:  DATA 04,02
0012A:  DATA 7F,00
0012C:  DATA 42,61
0012E:  DATA 51,49
00130:  DATA 46,22
00132:  DATA 41,49
00134:  DATA 49,36
00136:  DATA 18,14
00138:  DATA 12,7F
0013A:  DATA 10,27
0013C:  DATA 45,45
0013E:  DATA 45,39
00140:  DATA 3E,49
00142:  DATA 49,49
00144:  DATA 32,01
00146:  DATA 01,71
00148:  DATA 09,07
0014A:  DATA 36,49
0014C:  DATA 49,49
0014E:  DATA 36,26
00150:  DATA 49,49
00152:  DATA 49,3E
00154:  DATA 00,36
00156:  DATA 36,00
00158:  DATA 00,00
0015A:  DATA 56,36
0015C:  DATA 00,00
0015E:  DATA 08,14
00160:  DATA 22,41
00162:  DATA 00,14
00164:  DATA 14,14
00166:  DATA 14,14
00168:  DATA 00,41
0016A:  DATA 22,14
0016C:  DATA 08,02
0016E:  DATA 01,51
00170:  DATA 09,06
00172:  DATA 3E,41
00174:  DATA 59,55
00176:  DATA 5E,7E
00178:  DATA 09,09
0017A:  DATA 09,7E
0017C:  DATA 7F,49
0017E:  DATA 49,49
00180:  DATA 36,3E
00182:  DATA 41,41
00184:  DATA 41,22
00186:  DATA 7F,41
00188:  DATA 41,41
0018A:  DATA 3E,7F
0018C:  DATA 49,49
0018E:  DATA 49,41
00190:  DATA 7F,09
00192:  DATA 09,09
00194:  DATA 01,3E
00196:  DATA 41,41
00198:  DATA 49,3A
0019A:  DATA 7F,08
0019C:  DATA 08,08
0019E:  DATA 7F,00
001A0:  DATA 41,7F
001A2:  DATA 41,00
001A4:  DATA 30,40
001A6:  DATA 40,40
001A8:  DATA 3F,7F
001AA:  DATA 08,14
001AC:  DATA 22,41
001AE:  DATA 7F,40
001B0:  DATA 40,40
001B2:  DATA 40,7F
001B4:  DATA 02,0C
001B6:  DATA 02,7F
001B8:  DATA 7F,02
001BA:  DATA 04,08
001BC:  DATA 7F,3E
001BE:  DATA 41,41
001C0:  DATA 41,3E
001C2:  DATA 7F,09
001C4:  DATA 09,09
001C6:  DATA 06,1E
001C8:  DATA 21,21
001CA:  DATA 21,5E
001CC:  DATA 7F,09
001CE:  DATA 09,09
001D0:  DATA 76,00
001D2:  CLRF   FF7
001D4:  ADDLW  E6
001D6:  MOVWF  FF6
001D8:  MOVLW  01
001DA:  ADDWFC FF7,F
001DC:  MOVLW  00
001DE:  MOVWF  FF8
001E0:  TBLRD*+
001E2:  MOVF   FF5,W
001E4:  RETURN 0
001E6:  DATA 26,49
001E8:  DATA 49,49
001EA:  DATA 32,01
001EC:  DATA 01,7F
001EE:  DATA 01,01
001F0:  DATA 3F,40
001F2:  DATA 40,40
001F4:  DATA 3F,1F
001F6:  DATA 20,40
001F8:  DATA 20,1F
001FA:  DATA 7F,20
001FC:  DATA 10,20
001FE:  DATA 7F,41
00200:  DATA 22,1C
00202:  DATA 22,41
00204:  DATA 07,08
00206:  DATA 70,08
00208:  DATA 07,61
0020A:  DATA 51,49
0020C:  DATA 45,43
0020E:  DATA 00,7F
00210:  DATA 41,00
00212:  DATA 00,02
00214:  DATA 04,08
00216:  DATA 10,20
00218:  DATA 00,00
0021A:  DATA 41,7F
0021C:  DATA 00,04
0021E:  DATA 02,01
00220:  DATA 02,04
00222:  DATA 40,40
00224:  DATA 40,40
00226:  DATA 40,00
00228:  DATA 01,02
0022A:  DATA 04,00
0022C:  DATA 20,54
0022E:  DATA 54,54
00230:  DATA 78,7F
00232:  DATA 44,44
00234:  DATA 44,38
00236:  DATA 38,44
00238:  DATA 44,44
0023A:  DATA 44,38
0023C:  DATA 44,44
0023E:  DATA 44,7F
00240:  DATA 38,54
00242:  DATA 54,54
00244:  DATA 18,04
00246:  DATA 04,7E
00248:  DATA 05,05
0024A:  DATA 08,54
0024C:  DATA 54,54
0024E:  DATA 3C,7F
00250:  DATA 08,04
00252:  DATA 04,78
00254:  DATA 00,44
00256:  DATA 7D,40
00258:  DATA 00,20
0025A:  DATA 40,44
0025C:  DATA 3D,00
0025E:  DATA 7F,10
00260:  DATA 28,44
00262:  DATA 00,00
00264:  DATA 41,7F
00266:  DATA 40,00
00268:  DATA 7C,04
0026A:  DATA 78,04
0026C:  DATA 78,7C
0026E:  DATA 08,04
00270:  DATA 04,78
00272:  DATA 38,44
00274:  DATA 44,44
00276:  DATA 38,7C
00278:  DATA 14,14
0027A:  DATA 14,08
0027C:  DATA 08,14
0027E:  DATA 14,14
00280:  DATA 7C,00
00282:  DATA 7C,08
00284:  DATA 04,04
00286:  DATA 48,54
00288:  DATA 54,54
0028A:  DATA 20,04
0028C:  DATA 04,3F
0028E:  DATA 44,44
00290:  DATA 3C,40
00292:  DATA 40,20
00294:  DATA 7C,1C
00296:  DATA 20,40
00298:  DATA 20,1C
0029A:  DATA 3C,40
0029C:  DATA 30,40
0029E:  DATA 3C,44
002A0:  DATA 28,10
002A2:  DATA 28,44
002A4:  DATA 0C,50
002A6:  DATA 50,50
002A8:  DATA 3C,44
002AA:  DATA 64,54
002AC:  DATA 4C,44
002AE:  DATA 00,08
002B0:  DATA 36,41
002B2:  DATA 41,00
002B4:  DATA 00,7F
002B6:  DATA 00,00
002B8:  DATA 41,41
002BA:  DATA 36,08
002BC:  DATA 00,02
002BE:  DATA 01,02
002C0:  DATA 04,02
002C2:  ADDLW  D4
002C4:  MOVWF  FF6
002C6:  MOVLW  02
002C8:  ADDWFC FF7,F
002CA:  MOVLW  00
002CC:  MOVWF  FF8
002CE:  TBLRD*+
002D0:  MOVF   FF5,W
002D2:  RETURN 0
002D4:  DATA 00,00
002D6:  DATA 00,00
002D8:  DATA 00,00
002DA:  DATA 00,00
002DC:  DATA 00,00
002DE:  DATA 00,00
002E0:  DATA 00,00
002E2:  DATA 00,00
002E4:  DATA 01,C0
002E6:  DATA 00,00
002E8:  DATA 00,00
002EA:  DATA 00,00
002EC:  DATA 00,00
002EE:  DATA 00,00
002F0:  DATA 00,00
002F2:  DATA 00,00
002F4:  DATA 07,F0
002F6:  DATA 00,00
002F8:  DATA 00,00
002FA:  DATA 00,00
002FC:  DATA 00,00
002FE:  DATA 00,00
00300:  DATA 00,00
00302:  DATA 00,00
00304:  DATA 1C,9C
00306:  DATA 00,00
00308:  DATA 00,00
0030A:  DATA 00,00
0030C:  DATA 00,00
0030E:  DATA 00,00
00310:  DATA 00,00
00312:  DATA 00,00
00314:  DATA 18,0C
00316:  DATA 00,00
00318:  DATA 00,00
0031A:  DATA 00,00
0031C:  DATA 00,00
0031E:  DATA 00,00
00320:  DATA 00,00
00322:  DATA 00,00
00324:  DATA 30,86
00326:  DATA 00,00
00328:  DATA 00,00
0032A:  DATA 00,00
0032C:  DATA 00,00
0032E:  DATA 00,00
00330:  DATA 00,00
00332:  DATA 00,00
00334:  DATA 20,82
00336:  DATA 00,00
00338:  DATA 00,00
0033A:  DATA 00,00
0033C:  DATA 00,00
0033E:  DATA 00,00
00340:  DATA 00,00
00342:  DATA 00,00
00344:  DATA 60,83
00346:  DATA 00,00
00348:  DATA 00,00
0034A:  DATA 00,00
0034C:  DATA 00,00
0034E:  DATA 00,00
00350:  DATA 00,00
00352:  DATA 00,00
00354:  DATA 70,87
00356:  DATA 00,00
00358:  DATA 00,00
0035A:  DATA 00,00
0035C:  DATA 00,00
0035E:  DATA 00,00
00360:  DATA 00,00
00362:  DATA 00,00
00364:  DATA 60,C3
00366:  DATA 00,00
00368:  DATA 00,00
0036A:  DATA 00,00
0036C:  DATA 00,00
0036E:  DATA 00,00
00370:  DATA 00,00
00372:  DATA 00,00
00374:  DATA 20,62
00376:  DATA 00,00
00378:  DATA 00,00
0037A:  DATA 00,00
0037C:  DATA 00,00
0037E:  DATA 00,00
00380:  DATA 00,00
00382:  DATA 00,00
00384:  DATA 30,26
00386:  DATA 00,00
00388:  DATA 00,00
0038A:  DATA 00,00
0038C:  DATA 00,00
0038E:  DATA 00,00
00390:  DATA 00,00
00392:  DATA 00,00
00394:  DATA 18,0C
00396:  DATA 00,00
00398:  DATA 00,00
0039A:  DATA 00,00
0039C:  DATA 00,00
0039E:  DATA 00,00
003A0:  DATA 00,00
003A2:  DATA 00,00
003A4:  DATA 1C,9C
003A6:  DATA 00,00
003A8:  DATA 00,00
003AA:  DATA 00,00
003AC:  DATA 00,00
003AE:  DATA 00,00
003B0:  DATA 00,00
003B2:  DATA 00,00
003B4:  DATA 07,F0
003B6:  DATA 00,00
003B8:  DATA 00,00
003BA:  DATA 00,00
003BC:  DATA 00,00
003BE:  DATA 00,00
003C0:  DATA 00,00
003C2:  DATA 00,00
003C4:  DATA 01,C0
003C6:  DATA 00,00
003C8:  DATA 00,00
003CA:  DATA 00,00
003CC:  DATA 00,00
003CE:  DATA 00,00
003D0:  DATA 00,00
003D2:  DATA 00,00
003D4:  DATA 00,00
003D6:  DATA 00,00
003D8:  DATA 00,00
003DA:  DATA 00,00
003DC:  DATA 00,00
003DE:  DATA 00,00
003E0:  DATA 00,00
003E2:  DATA 00,00
003E4:  DATA 00,00
003E6:  DATA 00,00
003E8:  DATA 00,00
003EA:  DATA 00,00
003EC:  DATA 00,00
003EE:  DATA 00,00
003F0:  DATA 00,00
003F2:  DATA 00,00
003F4:  DATA 00,00
003F6:  DATA 00,00
003F8:  DATA 00,00
003FA:  DATA 00,00
003FC:  DATA 00,00
003FE:  DATA 00,00
00400:  DATA 00,00
00402:  DATA 00,00
00404:  DATA 00,00
00406:  DATA 00,00
00408:  DATA 00,00
0040A:  DATA 00,00
0040C:  DATA 00,00
0040E:  DATA 00,00
00410:  DATA 00,00
00412:  DATA 00,00
00414:  DATA 00,00
00416:  DATA 00,00
00418:  DATA 00,00
0041A:  DATA 00,00
0041C:  DATA 00,00
0041E:  DATA 00,00
00420:  DATA 00,00
00422:  DATA 00,00
00424:  DATA 00,00
00426:  DATA 00,00
00428:  DATA 00,00
0042A:  DATA 00,00
0042C:  DATA 00,00
0042E:  DATA 00,00
00430:  DATA 00,00
00432:  DATA 00,00
00434:  DATA 00,00
00436:  DATA 00,00
00438:  DATA 00,00
0043A:  DATA 00,00
0043C:  DATA 00,00
0043E:  DATA 00,00
00440:  DATA 00,00
00442:  DATA 00,00
00444:  DATA 00,00
00446:  DATA 00,00
00448:  DATA 00,00
0044A:  DATA 00,00
0044C:  DATA 00,00
0044E:  DATA 00,00
00450:  DATA 00,00
00452:  DATA 00,00
00454:  DATA 00,00
00456:  DATA 00,00
00458:  DATA 00,00
0045A:  DATA 00,00
0045C:  DATA 00,00
0045E:  DATA 00,00
00460:  DATA 00,00
00462:  DATA 00,00
00464:  DATA 00,00
00466:  DATA 00,00
00468:  DATA 00,00
0046A:  DATA 00,00
0046C:  DATA 00,00
0046E:  DATA 00,00
00470:  DATA 00,00
00472:  DATA 00,00
00474:  DATA 00,00
00476:  DATA 00,00
00478:  DATA 00,00
0047A:  DATA 00,00
0047C:  DATA 00,00
0047E:  DATA 00,00
00480:  DATA 00,00
00482:  DATA 00,00
00484:  DATA 00,00
00486:  DATA 00,00
00488:  DATA 00,00
0048A:  DATA 00,00
0048C:  DATA 00,00
0048E:  DATA 00,00
00490:  DATA 00,00
00492:  DATA 00,00
00494:  DATA 01,80
00496:  DATA 00,00
00498:  DATA 00,00
0049A:  DATA 00,00
0049C:  DATA 00,00
0049E:  DATA 00,00
004A0:  DATA 00,00
004A2:  DATA 00,00
004A4:  DATA 02,40
004A6:  DATA 00,00
004A8:  DATA 00,00
004AA:  DATA 00,00
004AC:  DATA 00,00
004AE:  DATA 00,00
004B0:  DATA 00,00
004B2:  DATA 00,00
004B4:  DATA 02,70
004B6:  DATA 00,00
004B8:  DATA 00,00
004BA:  DATA 00,00
004BC:  DATA 00,00
004BE:  DATA 00,00
004C0:  DATA 00,00
004C2:  DATA 00,00
004C4:  DATA 02,40
004C6:  DATA 00,00
004C8:  DATA 00,00
004CA:  DATA 00,00
004CC:  DATA 00,00
004CE:  DATA 00,00
004D0:  DATA 00,00
004D2:  DATA 00,00
004D4:  DATA 03,C0
004D6:  DATA 00,00
004D8:  DATA 00,00
004DA:  DATA 00,00
004DC:  DATA 00,00
004DE:  DATA 00,00
004E0:  DATA 00,00
004E2:  DATA 00,00
004E4:  DATA 03,F0
004E6:  DATA 00,00
004E8:  DATA 00,00
004EA:  DATA 00,00
004EC:  DATA 00,00
004EE:  DATA 00,00
004F0:  DATA 00,00
004F2:  DATA 00,00
004F4:  DATA 03,C0
004F6:  DATA 00,00
004F8:  DATA 00,00
004FA:  DATA 00,00
004FC:  DATA 00,00
004FE:  DATA 00,00
00500:  DATA 00,00
00502:  DATA 00,00
00504:  DATA 03,C0
00506:  DATA 00,00
00508:  DATA 00,00
0050A:  DATA 00,00
0050C:  DATA 00,00
0050E:  DATA 00,00
00510:  DATA 00,00
00512:  DATA 00,00
00514:  DATA 07,E0
00516:  DATA 00,00
00518:  DATA 00,00
0051A:  DATA 00,00
0051C:  DATA 00,00
0051E:  DATA 00,00
00520:  DATA 00,00
00522:  DATA 00,00
00524:  DATA 0F,F0
00526:  DATA 00,00
00528:  DATA 00,00
0052A:  DATA 00,00
0052C:  DATA 00,00
0052E:  DATA 00,00
00530:  DATA 00,00
00532:  DATA 00,00
00534:  DATA 0B,F0
00536:  DATA 00,00
00538:  DATA 00,00
0053A:  DATA 00,00
0053C:  DATA 00,00
0053E:  DATA 00,00
00540:  DATA 00,00
00542:  DATA 00,00
00544:  DATA 0B,F0
00546:  DATA 00,00
00548:  DATA 00,00
0054A:  DATA 00,00
0054C:  DATA 00,00
0054E:  DATA 00,00
00550:  DATA 00,00
00552:  DATA 00,00
00554:  DATA 0F,F0
00556:  DATA 00,00
00558:  DATA 00,00
0055A:  DATA 00,00
0055C:  DATA 00,00
0055E:  DATA 00,00
00560:  DATA 00,00
00562:  DATA 00,00
00564:  DATA 0F,F0
00566:  DATA 00,00
00568:  DATA 00,00
0056A:  DATA 00,00
0056C:  DATA 00,00
0056E:  DATA 00,00
00570:  DATA 00,00
00572:  DATA 00,00
00574:  DATA 07,E0
00576:  DATA 00,00
00578:  DATA 00,00
0057A:  DATA 00,00
0057C:  DATA 00,00
0057E:  DATA 00,00
00580:  DATA 00,00
00582:  DATA 00,00
00584:  DATA 03,C0
00586:  DATA 00,00
00588:  DATA 00,00
0058A:  DATA 00,00
0058C:  DATA 00,00
0058E:  DATA 00,00
00590:  DATA 00,00
00592:  DATA 00,00
00594:  DATA 00,00
00596:  DATA 00,00
00598:  DATA 00,00
0059A:  DATA 00,00
0059C:  DATA 00,00
0059E:  DATA 00,00
005A0:  DATA 00,00
005A2:  DATA 00,00
005A4:  DATA 00,00
005A6:  DATA 00,00
005A8:  DATA 00,00
005AA:  DATA 00,00
005AC:  DATA 00,00
005AE:  DATA 00,00
005B0:  DATA 00,00
005B2:  DATA 00,00
005B4:  DATA 00,00
005B6:  DATA 00,00
005B8:  DATA 00,00
005BA:  DATA 00,00
005BC:  DATA 00,00
005BE:  DATA 00,00
005C0:  DATA 00,00
005C2:  DATA 00,00
005C4:  DATA 00,00
005C6:  DATA 00,00
005C8:  DATA 00,00
005CA:  DATA 00,00
005CC:  DATA 00,00
005CE:  DATA 00,00
005D0:  DATA 00,00
005D2:  DATA 00,00
005D4:  DATA 00,00
005D6:  DATA 00,00
005D8:  DATA 00,00
005DA:  DATA 00,00
005DC:  DATA 00,00
005DE:  DATA 00,00
005E0:  DATA 00,00
005E2:  DATA 00,00
005E4:  DATA 00,00
005E6:  DATA 00,00
005E8:  DATA 00,00
005EA:  DATA 00,00
005EC:  DATA 00,00
005EE:  DATA 00,00
005F0:  DATA 00,00
005F2:  DATA 00,00
005F4:  DATA 00,00
005F6:  DATA 00,00
005F8:  DATA 00,00
005FA:  DATA 00,00
005FC:  DATA 00,00
005FE:  DATA 00,00
00600:  DATA 00,00
00602:  DATA 00,00
00604:  DATA 00,00
00606:  DATA 00,00
00608:  DATA 00,00
0060A:  DATA 00,00
0060C:  DATA 00,00
0060E:  DATA 00,00
00610:  DATA 00,00
00612:  DATA 00,00
00614:  DATA 00,00
00616:  DATA 00,00
00618:  DATA 00,00
0061A:  DATA 00,00
0061C:  DATA 00,00
0061E:  DATA 00,00
00620:  DATA 00,00
00622:  DATA 00,00
00624:  DATA 00,00
00626:  DATA 00,00
00628:  DATA 00,00
0062A:  DATA 00,00
0062C:  DATA 00,00
0062E:  DATA 00,00
00630:  DATA 00,00
00632:  DATA 00,00
00634:  DATA 00,00
00636:  DATA 00,00
00638:  DATA 00,00
0063A:  DATA 00,00
0063C:  DATA 00,00
0063E:  DATA 00,00
00640:  DATA 00,00
00642:  DATA 00,00
00644:  DATA 00,00
00646:  DATA 00,00
00648:  DATA 00,00
0064A:  DATA 00,00
0064C:  DATA 00,00
0064E:  DATA 00,00
00650:  DATA 00,00
00652:  DATA 00,00
00654:  DATA 00,00
00656:  DATA 00,00
00658:  DATA 00,00
0065A:  DATA 00,00
0065C:  DATA 00,00
0065E:  DATA 00,00
00660:  DATA 00,00
00662:  DATA 00,00
00664:  DATA 00,00
00666:  DATA 00,00
00668:  DATA 00,00
0066A:  DATA 00,00
0066C:  DATA 00,00
0066E:  DATA 00,00
00670:  DATA 00,00
00672:  DATA 00,00
00674:  DATA 00,00
00676:  DATA 00,00
00678:  DATA 00,00
0067A:  DATA 00,00
0067C:  DATA 00,00
0067E:  DATA 00,00
00680:  DATA 00,00
00682:  DATA 00,00
00684:  DATA 00,00
00686:  DATA 00,00
00688:  DATA 00,00
0068A:  DATA 00,00
0068C:  DATA 00,00
0068E:  DATA 00,00
00690:  DATA 00,00
00692:  DATA 00,00
00694:  DATA 00,00
00696:  DATA 00,00
00698:  DATA 00,00
0069A:  DATA 00,00
0069C:  DATA 00,00
0069E:  DATA 00,00
006A0:  DATA 00,00
006A2:  DATA 00,00
006A4:  DATA 00,00
006A6:  DATA 00,00
006A8:  DATA 00,00
006AA:  DATA 00,00
006AC:  DATA 00,00
006AE:  DATA 00,00
006B0:  DATA 00,00
006B2:  DATA 00,00
006B4:  DATA 00,00
006B6:  DATA 00,00
006B8:  DATA 00,00
006BA:  DATA 00,00
006BC:  DATA 00,00
006BE:  DATA 00,00
006C0:  DATA 00,00
006C2:  DATA 00,00
006C4:  DATA 00,00
006C6:  DATA 00,00
006C8:  DATA 00,00
006CA:  DATA 00,00
006CC:  DATA 00,00
006CE:  DATA 00,00
006D0:  DATA 00,00
006D2:  DATA 00,00
006D4:  CLRF   FF7
006D6:  ADDLW  E8
006D8:  MOVWF  FF6
006DA:  MOVLW  06
006DC:  ADDWFC FF7,F
006DE:  MOVLW  00
006E0:  MOVWF  FF8
006E2:  TBLRD*+
006E4:  MOVF   FF5,W
006E6:  RETURN 0
006E8:  DATA 43,00
006EA:  CLRF   FF7
006EC:  ADDLW  FE
006EE:  MOVWF  FF6
006F0:  MOVLW  06
006F2:  ADDWFC FF7,F
006F4:  MOVLW  00
006F6:  MOVWF  FF8
006F8:  TBLRD*+
006FA:  MOVF   FF5,W
006FC:  RETURN 0
006FE:  DATA 50,20
00700:  DATA 30,00
00702:  CLRF   FF7
00704:  ADDLW  16
00706:  MOVWF  FF6
00708:  MOVLW  07
0070A:  ADDWFC FF7,F
0070C:  MOVLW  00
0070E:  MOVWF  FF8
00710:  TBLRD*+
00712:  MOVF   FF5,W
00714:  RETURN 0
00716:  DATA 53,65
00718:  DATA 67,6D
0071A:  DATA 65,6E
0071C:  DATA 74,6F
0071E:  DATA 20,30
00720:  DATA 00,00
00722:  CLRF   FF7
00724:  ADDLW  36
00726:  MOVWF  FF6
00728:  MOVLW  07
0072A:  ADDWFC FF7,F
0072C:  MOVLW  00
0072E:  MOVWF  FF8
00730:  TBLRD*+
00732:  MOVF   FF5,W
00734:  RETURN 0
00736:  DATA 54,41
00738:  DATA 3A,00
0073A:  CLRF   FF7
0073C:  ADDLW  4E
0073E:  MOVWF  FF6
00740:  MOVLW  07
00742:  ADDWFC FF7,F
00744:  MOVLW  00
00746:  MOVWF  FF8
00748:  TBLRD*+
0074A:  MOVF   FF5,W
0074C:  RETURN 0
0074E:  DATA 54,65
00750:  DATA 6D,70
00752:  DATA 65,72
00754:  DATA 61,74
00756:  DATA 75,72
00758:  DATA 61,3A
0075A:  DATA 00,00
0075C:  CLRF   FF7
0075E:  ADDLW  70
00760:  MOVWF  FF6
00762:  MOVLW  07
00764:  ADDWFC FF7,F
00766:  MOVLW  00
00768:  MOVWF  FF8
0076A:  TBLRD*+
0076C:  MOVF   FF5,W
0076E:  RETURN 0
00770:  DATA 48,6F
00772:  DATA 72,61
00774:  DATA 73,3A
00776:  DATA 00,00
00778:  CLRF   FF7
0077A:  ADDLW  8C
0077C:  MOVWF  FF6
0077E:  MOVLW  07
00780:  ADDWFC FF7,F
00782:  MOVLW  00
00784:  MOVWF  FF8
00786:  TBLRD*+
00788:  MOVF   FF5,W
0078A:  RETURN 0
0078C:  DATA 4D,69
0078E:  DATA 6E,75
00790:  DATA 74,6F
00792:  DATA 73,3A
00794:  DATA 00,00
00796:  CLRF   FF7
00798:  ADDLW  AA
0079A:  MOVWF  FF6
0079C:  MOVLW  07
0079E:  ADDWFC FF7,F
007A0:  MOVLW  00
007A2:  MOVWF  FF8
007A4:  TBLRD*+
007A6:  MOVF   FF5,W
007A8:  RETURN 0
007AA:  DATA 4A,50
007AC:  DATA 20,49
007AE:  DATA 6E,67
007B0:  DATA 6C,6F
007B2:  DATA 62,61
007B4:  DATA 6C,00
007B6:  CLRF   FF7
007B8:  ADDLW  CA
007BA:  MOVWF  FF6
007BC:  MOVLW  07
007BE:  ADDWFC FF7,F
007C0:  MOVLW  00
007C2:  MOVWF  FF8
007C4:  TBLRD*+
007C6:  MOVF   FF5,W
007C8:  RETURN 0
007CA:  DATA 20,20
007CC:  DATA 20,20
007CE:  DATA 20,4D
007D0:  DATA 75,66
007D2:  DATA 6C,61
007D4:  DATA 00,00
007D6:  CLRF   FF7
007D8:  ADDLW  EA
007DA:  MOVWF  FF6
007DC:  MOVLW  07
007DE:  ADDWFC FF7,F
007E0:  MOVLW  00
007E2:  MOVWF  FF8
007E4:  TBLRD*+
007E6:  MOVF   FF5,W
007E8:  RETURN 0
007EA:  DATA 20,43
007EC:  DATA 6F,6E
007EE:  DATA 20,52
007F0:  DATA 61,6D
007F2:  DATA 70,61
007F4:  DATA 73,00
007F6:  CLRF   FF7
007F8:  ADDLW  0A
007FA:  MOVWF  FF6
007FC:  MOVLW  08
007FE:  ADDWFC FF7,F
00800:  MOVLW  00
00802:  MOVWF  FF8
00804:  TBLRD*+
00806:  MOVF   FF5,W
00808:  RETURN 0
0080A:  DATA 20,20
0080C:  DATA 31,35
0080E:  DATA 20,4C
00810:  DATA 74,73
00812:  DATA 00,00
00814:  CLRF   FF7
00816:  ADDLW  28
00818:  MOVWF  FF6
0081A:  MOVLW  08
0081C:  ADDWFC FF7,F
0081E:  MOVLW  00
00820:  MOVWF  FF8
00822:  TBLRD*+
00824:  MOVF   FF5,W
00826:  RETURN 0
00828:  DATA 43,6C
0082A:  DATA 61,76
0082C:  DATA 65,00
0082E:  CLRF   FF7
00830:  ADDLW  42
00832:  MOVWF  FF6
00834:  MOVLW  08
00836:  ADDWFC FF7,F
00838:  MOVLW  00
0083A:  MOVWF  FF8
0083C:  TBLRD*+
0083E:  MOVF   FF5,W
00840:  RETURN 0
00842:  DATA 43,6F
00844:  DATA 72,72
00846:  DATA 65,63
00848:  DATA 74,61
0084A:  DATA 00,00
0084C:  CLRF   FF7
0084E:  ADDLW  60
00850:  MOVWF  FF6
00852:  MOVLW  08
00854:  ADDWFC FF7,F
00856:  MOVLW  00
00858:  MOVWF  FF8
0085A:  TBLRD*+
0085C:  MOVF   FF5,W
0085E:  RETURN 0
00860:  DATA 49,6E
00862:  DATA 63,6F
00864:  DATA 72,72
00866:  DATA 65,63
00868:  DATA 74,61
0086A:  DATA 00,00
0086C:  CLRF   FF7
0086E:  ADDLW  80
00870:  MOVWF  FF6
00872:  MOVLW  08
00874:  ADDWFC FF7,F
00876:  MOVLW  00
00878:  MOVWF  FF8
0087A:  TBLRD*+
0087C:  MOVF   FF5,W
0087E:  RETURN 0
00880:  DATA 4D,65
00882:  DATA 6E,75
00884:  DATA 00,00
00886:  CLRF   FF7
00888:  ADDLW  9A
0088A:  MOVWF  FF6
0088C:  MOVLW  08
0088E:  ADDWFC FF7,F
00890:  MOVLW  00
00892:  MOVWF  FF8
00894:  TBLRD*+
00896:  MOVF   FF5,W
00898:  RETURN 0
0089A:  DATA 49,6E
0089C:  DATA 69,63
0089E:  DATA 69,61
008A0:  DATA 72,20
008A2:  DATA 50,72
008A4:  DATA 6F,67
008A6:  DATA 72,61
008A8:  DATA 6D,61
008AA:  DATA 00,00
008AC:  CLRF   FF7
008AE:  ADDLW  C0
008B0:  MOVWF  FF6
008B2:  MOVLW  08
008B4:  ADDWFC FF7,F
008B6:  MOVLW  00
008B8:  MOVWF  FF8
008BA:  TBLRD*+
008BC:  MOVF   FF5,W
008BE:  RETURN 0
008C0:  DATA 45,64
008C2:  DATA 69,74
008C4:  DATA 61,72
008C6:  DATA 20,50
008C8:  DATA 72,6F
008CA:  DATA 67,72
008CC:  DATA 61,6D
008CE:  DATA 61,00
008D0:  CLRF   FF7
008D2:  ADDLW  E4
008D4:  MOVWF  FF6
008D6:  MOVLW  08
008D8:  ADDWFC FF7,F
008DA:  MOVLW  00
008DC:  MOVWF  FF8
008DE:  TBLRD*+
008E0:  MOVF   FF5,W
008E2:  RETURN 0
008E4:  DATA 42,6F
008E6:  DATA 72,72
008E8:  DATA 61,72
008EA:  DATA 20,50
008EC:  DATA 72,6F
008EE:  DATA 67,72
008F0:  DATA 61,6D
008F2:  DATA 61,00
008F4:  CLRF   FF7
008F6:  ADDLW  08
008F8:  MOVWF  FF6
008FA:  MOVLW  09
008FC:  ADDWFC FF7,F
008FE:  MOVLW  00
00900:  MOVWF  FF8
00902:  TBLRD*+
00904:  MOVF   FF5,W
00906:  RETURN 0
00908:  DATA 41,6A
0090A:  DATA 75,73
0090C:  DATA 74,65
0090E:  DATA 73,00
00910:  CLRF   FF7
00912:  ADDLW  24
00914:  MOVWF  FF6
00916:  MOVLW  09
00918:  ADDWFC FF7,F
0091A:  MOVLW  00
0091C:  MOVWF  FF8
0091E:  TBLRD*+
00920:  MOVF   FF5,W
00922:  RETURN 0
00924:  DATA 43,61
00926:  DATA 6D,62
00928:  DATA 69,6F
0092A:  DATA 20,43
0092C:  DATA 6C,61
0092E:  DATA 76,65
00930:  DATA 00,00
00932:  CLRF   FF7
00934:  ADDLW  46
00936:  MOVWF  FF6
00938:  MOVLW  09
0093A:  ADDWFC FF7,F
0093C:  MOVLW  00
0093E:  MOVWF  FF8
00940:  TBLRD*+
00942:  MOVF   FF5,W
00944:  RETURN 0
00946:  DATA 53,65
00948:  DATA 6C,65
0094A:  DATA 63,63
0094C:  DATA 69,6F
0094E:  DATA 6E,65
00950:  DATA 00,00
00952:  CLRF   FF7
00954:  ADDLW  66
00956:  MOVWF  FF6
00958:  MOVLW  09
0095A:  ADDWFC FF7,F
0095C:  MOVLW  00
0095E:  MOVWF  FF8
00960:  TBLRD*+
00962:  MOVF   FF5,W
00964:  RETURN 0
00966:  DATA 20,50
00968:  DATA 72,6F
0096A:  DATA 67,72
0096C:  DATA 61,6D
0096E:  DATA 61,00
00970:  CLRF   FF7
00972:  ADDLW  84
00974:  MOVWF  FF6
00976:  MOVLW  09
00978:  ADDWFC FF7,F
0097A:  MOVLW  00
0097C:  MOVWF  FF8
0097E:  TBLRD*+
00980:  MOVF   FF5,W
00982:  RETURN 0
00984:  DATA 50,72
00986:  DATA 6F,67
00988:  DATA 72,61
0098A:  DATA 6D,61
0098C:  DATA 20,30
0098E:  DATA 31,00
00990:  CLRF   FF7
00992:  ADDLW  A4
00994:  MOVWF  FF6
00996:  MOVLW  09
00998:  ADDWFC FF7,F
0099A:  MOVLW  00
0099C:  MOVWF  FF8
0099E:  TBLRD*+
009A0:  MOVF   FF5,W
009A2:  RETURN 0
009A4:  DATA 50,72
009A6:  DATA 6F,67
009A8:  DATA 72,61
009AA:  DATA 6D,61
009AC:  DATA 20,30
009AE:  DATA 32,00
009B0:  CLRF   FF7
009B2:  ADDLW  C4
009B4:  MOVWF  FF6
009B6:  MOVLW  09
009B8:  ADDWFC FF7,F
009BA:  MOVLW  00
009BC:  MOVWF  FF8
009BE:  TBLRD*+
009C0:  MOVF   FF5,W
009C2:  RETURN 0
009C4:  DATA 50,72
009C6:  DATA 6F,67
009C8:  DATA 72,61
009CA:  DATA 6D,61
009CC:  DATA 20,30
009CE:  DATA 33,00
009D0:  CLRF   FF7
009D2:  ADDLW  E4
009D4:  MOVWF  FF6
009D6:  MOVLW  09
009D8:  ADDWFC FF7,F
009DA:  MOVLW  00
009DC:  MOVWF  FF8
009DE:  TBLRD*+
009E0:  MOVF   FF5,W
009E2:  RETURN 0
009E4:  DATA 50,72
009E6:  DATA 6F,67
009E8:  DATA 72,61
009EA:  DATA 6D,61
009EC:  DATA 20,30
009EE:  DATA 34,00
009F0:  CLRF   FF7
009F2:  ADDLW  04
009F4:  MOVWF  FF6
009F6:  MOVLW  0A
009F8:  ADDWFC FF7,F
009FA:  MOVLW  00
009FC:  MOVWF  FF8
009FE:  TBLRD*+
00A00:  MOVF   FF5,W
00A02:  RETURN 0
00A04:  DATA 50,72
00A06:  DATA 6F,67
00A08:  DATA 72,61
00A0A:  DATA 6D,61
00A0C:  DATA 20,30
00A0E:  DATA 35,00
00A10:  CLRF   FF7
00A12:  ADDLW  24
00A14:  MOVWF  FF6
00A16:  MOVLW  0A
00A18:  ADDWFC FF7,F
00A1A:  MOVLW  00
00A1C:  MOVWF  FF8
00A1E:  TBLRD*+
00A20:  MOVF   FF5,W
00A22:  RETURN 0
00A24:  DATA 20,53
00A26:  DATA 65,67
00A28:  DATA 6D,65
00A2A:  DATA 6E,74
00A2C:  DATA 6F,73
00A2E:  DATA 00,00
00A30:  CLRF   FF7
00A32:  ADDLW  44
00A34:  MOVWF  FF6
00A36:  MOVLW  0A
00A38:  ADDWFC FF7,F
00A3A:  MOVLW  00
00A3C:  MOVWF  FF8
00A3E:  TBLRD*+
00A40:  MOVF   FF5,W
00A42:  RETURN 0
00A44:  DATA 20,21
00A46:  DATA 50,72
00A48:  DATA 6F,67
00A4A:  DATA 72,61
00A4C:  DATA 6D,61
00A4E:  DATA 00,00
00A50:  CLRF   FF7
00A52:  ADDLW  64
00A54:  MOVWF  FF6
00A56:  MOVLW  0A
00A58:  ADDWFC FF7,F
00A5A:  MOVLW  00
00A5C:  MOVWF  FF8
00A5E:  TBLRD*+
00A60:  MOVF   FF5,W
00A62:  RETURN 0
00A64:  DATA 20,20
00A66:  DATA 20,20
00A68:  DATA 56,61
00A6A:  DATA 63,69
00A6C:  DATA 6F,21
00A6E:  DATA 00,00
00A70:  CLRF   FF7
00A72:  ADDLW  84
00A74:  MOVWF  FF6
00A76:  MOVLW  0A
00A78:  ADDWFC FF7,F
00A7A:  MOVLW  00
00A7C:  MOVWF  FF8
00A7E:  TBLRD*+
00A80:  MOVF   FF5,W
00A82:  RETURN 0
00A84:  DATA 45,64
00A86:  DATA 69,74
00A88:  DATA 61,72
00A8A:  DATA 00,00
00A8C:  CLRF   FF7
00A8E:  ADDLW  A0
00A90:  MOVWF  FF6
00A92:  MOVLW  0A
00A94:  ADDWFC FF7,F
00A96:  MOVLW  00
00A98:  MOVWF  FF8
00A9A:  TBLRD*+
00A9C:  MOVF   FF5,W
00A9E:  RETURN 0
00AA0:  DATA 20,20
00AA2:  DATA 45,6C
00AA4:  DATA 69,6D
00AA6:  DATA 69,6E
00AA8:  DATA 65,00
00AAA:  CLRF   FF7
00AAC:  ADDLW  BE
00AAE:  MOVWF  FF6
00AB0:  MOVLW  0A
00AB2:  ADDWFC FF7,F
00AB4:  MOVLW  00
00AB6:  MOVWF  FF8
00AB8:  TBLRD*+
00ABA:  MOVF   FF5,W
00ABC:  RETURN 0
00ABE:  DATA 50,72
00AC0:  DATA 6F,67
00AC2:  DATA 72,61
00AC4:  DATA 6D,61
00AC6:  DATA 00,00
00AC8:  CLRF   FF7
00ACA:  ADDLW  DC
00ACC:  MOVWF  FF6
00ACE:  MOVLW  0A
00AD0:  ADDWFC FF7,F
00AD2:  MOVLW  00
00AD4:  MOVWF  FF8
00AD6:  TBLRD*+
00AD8:  MOVF   FF5,W
00ADA:  RETURN 0
00ADC:  DATA 45,6C
00ADE:  DATA 69,6D
00AE0:  DATA 69,6E
00AE2:  DATA 61,64
00AE4:  DATA 6F,00
00AE6:  CLRF   FF7
00AE8:  ADDLW  FA
00AEA:  MOVWF  FF6
00AEC:  MOVLW  0A
00AEE:  ADDWFC FF7,F
00AF0:  MOVLW  00
00AF2:  MOVWF  FF8
00AF4:  TBLRD*+
00AF6:  MOVF   FF5,W
00AF8:  RETURN 0
00AFA:  DATA 43,6C
00AFC:  DATA 61,76
00AFE:  DATA 65,20
00B00:  DATA 4E,75
00B02:  DATA 65,76
00B04:  DATA 61,00
00B06:  CLRF   FF7
00B08:  ADDLW  1A
00B0A:  MOVWF  FF6
00B0C:  MOVLW  0B
00B0E:  ADDWFC FF7,F
00B10:  MOVLW  00
00B12:  MOVWF  FF8
00B14:  TBLRD*+
00B16:  MOVF   FF5,W
00B18:  RETURN 0
00B1A:  DATA 53,74
00B1C:  DATA 61,74
00B1E:  DATA 75,73
00B20:  DATA 3A,53
00B22:  DATA 65,6E
00B24:  DATA 73,6F
00B26:  DATA 72,20
00B28:  DATA 44,65
00B2A:  DATA 73,63
00B2C:  DATA 6F,6E
00B2E:  DATA 2E,00
00B30:  CLRF   FF7
00B32:  ADDLW  44
00B34:  MOVWF  FF6
00B36:  MOVLW  0B
00B38:  ADDWFC FF7,F
00B3A:  MOVLW  00
00B3C:  MOVWF  FF8
00B3E:  TBLRD*+
00B40:  MOVF   FF5,W
00B42:  RETURN 0
00B44:  DATA 53,74
00B46:  DATA 61,74
00B48:  DATA 75,73
00B4A:  DATA 3A,43
00B4C:  DATA 6F,6E
00B4E:  DATA 74,72
00B50:  DATA 6F,6C
00B52:  DATA 61,6E
00B54:  DATA 64,6F
00B56:  DATA 00,00
00B58:  CLRF   FF7
00B5A:  ADDLW  6C
00B5C:  MOVWF  FF6
00B5E:  MOVLW  0B
00B60:  ADDWFC FF7,F
00B62:  MOVLW  00
00B64:  MOVWF  FF8
00B66:  TBLRD*+
00B68:  MOVF   FF5,W
00B6A:  RETURN 0
00B6C:  DATA 53,74
00B6E:  DATA 61,74
00B70:  DATA 75,73
00B72:  DATA 3A,4D
00B74:  DATA 65,73
00B76:  DATA 65,74
00B78:  DATA 61,20
00B7A:  DATA 20,00
00B7C:  CLRF   FF7
00B7E:  ADDLW  90
00B80:  MOVWF  FF6
00B82:  MOVLW  0B
00B84:  ADDWFC FF7,F
00B86:  MOVLW  00
00B88:  MOVWF  FF8
00B8A:  TBLRD*+
00B8C:  MOVF   FF5,W
00B8E:  RETURN 0
00B90:  DATA 53,74
00B92:  DATA 61,74
00B94:  DATA 75,73
00B96:  DATA 3A,52
00B98:  DATA 61,6D
00B9A:  DATA 70,61
00B9C:  DATA 20,20
00B9E:  DATA 00,00
00BA0:  CLRF   FF7
00BA2:  ADDLW  B4
00BA4:  MOVWF  FF6
00BA6:  MOVLW  0B
00BA8:  ADDWFC FF7,F
00BAA:  MOVLW  00
00BAC:  MOVWF  FF8
00BAE:  TBLRD*+
00BB0:  MOVF   FF5,W
00BB2:  RETURN 0
00BB4:  DATA 53,74
00BB6:  DATA 61,74
00BB8:  DATA 75,73
00BBA:  DATA 3A,43
00BBC:  DATA 61,6C
00BBE:  DATA 65,6E
00BC0:  DATA 74,61
00BC2:  DATA 6E,64
00BC4:  DATA 6F,00
00BC6:  CLRF   FF7
00BC8:  ADDLW  DA
00BCA:  MOVWF  FF6
00BCC:  MOVLW  0B
00BCE:  ADDWFC FF7,F
00BD0:  MOVLW  00
00BD2:  MOVWF  FF8
00BD4:  TBLRD*+
00BD6:  MOVF   FF5,W
00BD8:  RETURN 0
00BDA:  DATA 53,74
00BDC:  DATA 61,74
00BDE:  DATA 75,73
00BE0:  DATA 3A,53
00BE2:  DATA 6F,62
00BE4:  DATA 72,65
00BE6:  DATA 20,54
00BE8:  DATA 65,6D
00BEA:  DATA 70,00
00BEC:  CLRF   FF7
00BEE:  ADDLW  00
00BF0:  MOVWF  FF6
00BF2:  MOVLW  0C
00BF4:  ADDWFC FF7,F
00BF6:  MOVLW  00
00BF8:  MOVWF  FF8
00BFA:  TBLRD*+
00BFC:  MOVF   FF5,W
00BFE:  RETURN 0
00C00:  DATA 53,74
00C02:  DATA 61,74
00C04:  DATA 75,73
00C06:  DATA 3A,50
00C08:  DATA 61,75
00C0A:  DATA 73,61
00C0C:  DATA 64,6F
00C0E:  DATA 00,00
00C10:  CLRF   FF7
00C12:  ADDLW  24
00C14:  MOVWF  FF6
00C16:  MOVLW  0C
00C18:  ADDWFC FF7,F
00C1A:  MOVLW  00
00C1C:  MOVWF  FF8
00C1E:  TBLRD*+
00C20:  MOVF   FF5,W
00C22:  RETURN 0
00C24:  DATA 53,74
00C26:  DATA 61,74
00C28:  DATA 75,73
00C2A:  DATA 3A,50
00C2C:  DATA 75,65
00C2E:  DATA 72,74
00C30:  DATA 61,20
00C32:  DATA 41,62
00C34:  DATA 69,65
00C36:  DATA 72,74
00C38:  DATA 61,00
00C3A:  CLRF   FF7
00C3C:  ADDLW  4E
00C3E:  MOVWF  FF6
00C40:  MOVLW  0C
00C42:  ADDWFC FF7,F
00C44:  MOVLW  00
00C46:  MOVWF  FF8
00C48:  TBLRD*+
00C4A:  MOVF   FF5,W
00C4C:  RETURN 0
00C4E:  DATA 47,72
00C50:  DATA 61,66
00C52:  DATA 69,63
00C54:  DATA 61,20
00C56:  DATA 52,61
00C58:  DATA 6D,70
00C5A:  DATA 61,73
00C5C:  DATA 00,00
00C5E:  CLRF   FF7
00C60:  ADDLW  72
00C62:  MOVWF  FF6
00C64:  MOVLW  0C
00C66:  ADDWFC FF7,F
00C68:  MOVLW  00
00C6A:  MOVWF  FF8
00C6C:  TBLRD*+
00C6E:  MOVF   FF5,W
00C70:  RETURN 0
00C72:  DATA 33,30
00C74:  DATA 30,00
00C76:  CLRF   FF7
00C78:  ADDLW  8A
00C7A:  MOVWF  FF6
00C7C:  MOVLW  0C
00C7E:  ADDWFC FF7,F
00C80:  MOVLW  00
00C82:  MOVWF  FF8
00C84:  TBLRD*+
00C86:  MOVF   FF5,W
00C88:  RETURN 0
00C8A:  DATA 36,30
00C8C:  DATA 30,00
00C8E:  CLRF   FF7
00C90:  ADDLW  A2
00C92:  MOVWF  FF6
00C94:  MOVLW  0C
00C96:  ADDWFC FF7,F
00C98:  MOVLW  00
00C9A:  MOVWF  FF8
00C9C:  TBLRD*+
00C9E:  MOVF   FF5,W
00CA0:  RETURN 0
00CA2:  DATA 39,30
00CA4:  DATA 30,00
00CA6:  CLRF   FF7
00CA8:  ADDLW  BA
00CAA:  MOVWF  FF6
00CAC:  MOVLW  0C
00CAE:  ADDWFC FF7,F
00CB0:  MOVLW  00
00CB2:  MOVWF  FF8
00CB4:  TBLRD*+
00CB6:  MOVF   FF5,W
00CB8:  RETURN 0
00CBA:  DATA 31,32
00CBC:  DATA 30,30
00CBE:  DATA 00,00
00CC0:  CLRF   FF7
00CC2:  ADDLW  D4
00CC4:  MOVWF  FF6
00CC6:  MOVLW  0C
00CC8:  ADDWFC FF7,F
00CCA:  MOVLW  00
00CCC:  MOVWF  FF8
00CCE:  TBLRD*+
00CD0:  MOVF   FF5,W
00CD2:  RETURN 0
00CD4:  DATA 73,30
00CD6:  DATA 00,00
00CD8:  CLRF   FF7
00CDA:  ADDLW  EC
00CDC:  MOVWF  FF6
00CDE:  MOVLW  0C
00CE0:  ADDWFC FF7,F
00CE2:  MOVLW  00
00CE4:  MOVWF  FF8
00CE6:  TBLRD*+
00CE8:  MOVF   FF5,W
00CEA:  RETURN 0
00CEC:  DATA 73,31
00CEE:  DATA 00,00
00CF0:  CLRF   FF7
00CF2:  ADDLW  04
00CF4:  MOVWF  FF6
00CF6:  MOVLW  0D
00CF8:  ADDWFC FF7,F
00CFA:  MOVLW  00
00CFC:  MOVWF  FF8
00CFE:  TBLRD*+
00D00:  MOVF   FF5,W
00D02:  RETURN 0
00D04:  DATA 73,32
00D06:  DATA 00,00
00D08:  CLRF   FF7
00D0A:  ADDLW  1C
00D0C:  MOVWF  FF6
00D0E:  MOVLW  0D
00D10:  ADDWFC FF7,F
00D12:  MOVLW  00
00D14:  MOVWF  FF8
00D16:  TBLRD*+
00D18:  MOVF   FF5,W
00D1A:  RETURN 0
00D1C:  DATA 73,33
00D1E:  DATA 00,00
00D20:  CLRF   FF7
00D22:  ADDLW  34
00D24:  MOVWF  FF6
00D26:  MOVLW  0D
00D28:  ADDWFC FF7,F
00D2A:  MOVLW  00
00D2C:  MOVWF  FF8
00D2E:  TBLRD*+
00D30:  MOVF   FF5,W
00D32:  RETURN 0
00D34:  DATA 73,34
00D36:  DATA 00,00
00D38:  CLRF   FF7
00D3A:  ADDLW  4C
00D3C:  MOVWF  FF6
00D3E:  MOVLW  0D
00D40:  ADDWFC FF7,F
00D42:  MOVLW  00
00D44:  MOVWF  FF8
00D46:  TBLRD*+
00D48:  MOVF   FF5,W
00D4A:  RETURN 0
00D4C:  DATA 73,35
00D4E:  DATA 00,00
00D50:  CLRF   FF7
00D52:  ADDLW  64
00D54:  MOVWF  FF6
00D56:  MOVLW  0D
00D58:  ADDWFC FF7,F
00D5A:  MOVLW  00
00D5C:  MOVWF  FF8
00D5E:  TBLRD*+
00D60:  MOVF   FF5,W
00D62:  RETURN 0
00D64:  DATA 73,36
00D66:  DATA 00,00
00D68:  CLRF   FF7
00D6A:  ADDLW  7C
00D6C:  MOVWF  FF6
00D6E:  MOVLW  0D
00D70:  ADDWFC FF7,F
00D72:  MOVLW  00
00D74:  MOVWF  FF8
00D76:  TBLRD*+
00D78:  MOVF   FF5,W
00D7A:  RETURN 0
00D7C:  DATA 73,37
00D7E:  DATA 00,00
00D80:  CLRF   FF7
00D82:  ADDLW  94
00D84:  MOVWF  FF6
00D86:  MOVLW  0D
00D88:  ADDWFC FF7,F
00D8A:  MOVLW  00
00D8C:  MOVWF  FF8
00D8E:  TBLRD*+
00D90:  MOVF   FF5,W
00D92:  RETURN 0
00D94:  DATA 73,38
00D96:  DATA 00,00
00D98:  CLRF   FF7
00D9A:  ADDLW  AC
00D9C:  MOVWF  FF6
00D9E:  MOVLW  0D
00DA0:  ADDWFC FF7,F
00DA2:  MOVLW  00
00DA4:  MOVWF  FF8
00DA6:  TBLRD*+
00DA8:  MOVF   FF5,W
00DAA:  RETURN 0
00DAC:  DATA 73,39
00DAE:  DATA 00,00
00DB0:  CLRF   FF7
00DB2:  ADDLW  C4
00DB4:  MOVWF  FF6
00DB6:  MOVLW  0D
00DB8:  ADDWFC FF7,F
00DBA:  MOVLW  00
00DBC:  MOVWF  FF8
00DBE:  TBLRD*+
00DC0:  MOVF   FF5,W
00DC2:  RETURN 0
00DC4:  DATA 2D,2D
00DC6:  DATA 2D,2D
00DC8:  DATA 2D,00
00DCA:  CLRF   FF7
00DCC:  ADDLW  DE
00DCE:  MOVWF  FF6
00DD0:  MOVLW  0D
00DD2:  ADDWFC FF7,F
00DD4:  MOVLW  00
00DD6:  MOVWF  FF8
00DD8:  TBLRD*+
00DDA:  MOVF   FF5,W
00DDC:  RETURN 0
00DDE:  DATA 54,65
00DE0:  DATA 6D,70
00DE2:  DATA 3A,00
00DE4:  CLRF   FF7
00DE6:  ADDLW  F8
00DE8:  MOVWF  FF6
00DEA:  MOVLW  0D
00DEC:  ADDWFC FF7,F
00DEE:  MOVLW  00
00DF0:  MOVWF  FF8
00DF2:  TBLRD*+
00DF4:  MOVF   FF5,W
00DF6:  RETURN 0
00DF8:  DATA 50,6F
00DFA:  DATA 77,65
00DFC:  DATA 72,3A
00DFE:  DATA 00,00
00E00:  CLRF   FF7
00E02:  ADDLW  14
00E04:  MOVWF  FF6
00E06:  MOVLW  0E
00E08:  ADDWFC FF7,F
00E0A:  MOVLW  00
00E0C:  MOVWF  FF8
00E0E:  TBLRD*+
00E10:  MOVF   FF5,W
00E12:  RETURN 0
00E14:  DATA 25,00
00E16:  CLRF   FF7
00E18:  ADDLW  2A
00E1A:  MOVWF  FF6
00E1C:  MOVLW  0E
00E1E:  ADDWFC FF7,F
00E20:  MOVLW  00
00E22:  MOVWF  FF8
00E24:  TBLRD*+
00E26:  MOVF   FF5,W
00E28:  RETURN 0
00E2A:  DATA 53,65
00E2C:  DATA 67,6D
00E2E:  DATA 2E,00
00E30:  CLRF   FF7
00E32:  ADDLW  44
00E34:  MOVWF  FF6
00E36:  MOVLW  0E
00E38:  ADDWFC FF7,F
00E3A:  MOVLW  00
00E3C:  MOVWF  FF8
00E3E:  TBLRD*+
00E40:  MOVF   FF5,W
00E42:  RETURN 0
00E44:  DATA 3A,00
00E46:  CLRF   FF7
00E48:  ADDLW  5A
00E4A:  MOVWF  FF6
00E4C:  MOVLW  0E
00E4E:  ADDWFC FF7,F
00E50:  MOVLW  00
00E52:  MOVWF  FF8
00E54:  TBLRD*+
00E56:  MOVF   FF5,W
00E58:  RETURN 0
00E5A:  DATA 54,69
00E5C:  DATA 6D,65
00E5E:  DATA 3A,00
00E60:  CLRF   FF7
00E62:  ADDLW  74
00E64:  MOVWF  FF6
00E66:  MOVLW  0E
00E68:  ADDWFC FF7,F
00E6A:  MOVLW  00
00E6C:  MOVWF  FF8
00E6E:  TBLRD*+
00E70:  MOVF   FF5,W
00E72:  RETURN 0
00E74:  DATA 28,48
00E76:  DATA 3A,4D
00E78:  DATA 29,00
00E7A:  CLRF   FF7
00E7C:  ADDLW  8E
00E7E:  MOVWF  FF6
00E80:  MOVLW  0E
00E82:  ADDWFC FF7,F
00E84:  MOVLW  00
00E86:  MOVWF  FF8
00E88:  TBLRD*+
00E8A:  MOVF   FF5,W
00E8C:  RETURN 0
00E8E:  DATA 53,74
00E90:  DATA 61,74
00E92:  DATA 75,73
00E94:  DATA 3A,43
00E96:  DATA 61,6D
00E98:  DATA 62,69
00E9A:  DATA 6F,20
00E9C:  DATA 53,65
00E9E:  DATA 67,2E
00EA0:  DATA 00,00
00EA2:  CLRF   FF7
00EA4:  ADDLW  B6
00EA6:  MOVWF  FF6
00EA8:  MOVLW  0E
00EAA:  ADDWFC FF7,F
00EAC:  MOVLW  00
00EAE:  MOVWF  FF8
00EB0:  TBLRD*+
00EB2:  MOVF   FF5,W
00EB4:  RETURN 0
00EB6:  DATA 53,74
00EB8:  DATA 61,74
00EBA:  DATA 75,73
00EBC:  DATA 3A,46
00EBE:  DATA 69,6E
00EC0:  DATA 61,6C
00EC2:  DATA 69,7A
00EC4:  DATA 61,64
00EC6:  DATA 6F,00
00EC8:  CLRF   FF7
00ECA:  ADDLW  DC
00ECC:  MOVWF  FF6
00ECE:  MOVLW  0E
00ED0:  ADDWFC FF7,F
00ED2:  MOVLW  00
00ED4:  MOVWF  FF8
00ED6:  TBLRD*+
00ED8:  MOVF   FF5,W
00EDA:  RETURN 0
00EDC:  DATA 50,72
00EDE:  DATA 6F,70
00EE0:  DATA 6F,72
00EE2:  DATA 63,69
00EE4:  DATA 6F,6E
00EE6:  DATA 61,6C
00EE8:  DATA 00,00
00EEA:  CLRF   FF7
00EEC:  ADDLW  FE
00EEE:  MOVWF  FF6
00EF0:  MOVLW  0E
00EF2:  ADDWFC FF7,F
00EF4:  MOVLW  00
00EF6:  MOVWF  FF8
00EF8:  TBLRD*+
00EFA:  MOVF   FF5,W
00EFC:  RETURN 0
00EFE:  DATA 49,6E
00F00:  DATA 74,65
00F02:  DATA 67,72
00F04:  DATA 61,6C
00F06:  DATA 00,00
00F08:  CLRF   FF7
00F0A:  ADDLW  1C
00F0C:  MOVWF  FF6
00F0E:  MOVLW  0F
00F10:  ADDWFC FF7,F
00F12:  MOVLW  00
00F14:  MOVWF  FF8
00F16:  TBLRD*+
00F18:  MOVF   FF5,W
00F1A:  RETURN 0
00F1C:  DATA 44,65
00F1E:  DATA 72,69
00F20:  DATA 76,61
00F22:  DATA 74,69
00F24:  DATA 76,6F
00F26:  DATA 00,00
00F28:  CLRF   FF7
00F2A:  ADDLW  3C
00F2C:  MOVWF  FF6
00F2E:  MOVLW  0F
00F30:  ADDWFC FF7,F
00F32:  MOVLW  00
00F34:  MOVWF  FF8
00F36:  TBLRD*+
00F38:  MOVF   FF5,W
00F3A:  RETURN 0
00F3C:  DATA 54,63
00F3E:  DATA 69,63
00F40:  DATA 6C,6F
00F42:  DATA 00,00
00F44:  CLRF   FF7
00F46:  ADDLW  58
00F48:  MOVWF  FF6
00F4A:  MOVLW  0F
00F4C:  ADDWFC FF7,F
00F4E:  MOVLW  00
00F50:  MOVWF  FF8
00F52:  TBLRD*+
00F54:  MOVF   FF5,W
00F56:  RETURN 0
00F58:  DATA 41,6A
00F5A:  DATA 75,73
00F5C:  DATA 74,65
00F5E:  DATA 20,2B
00F60:  DATA 00,00
00F62:  CLRF   FF7
00F64:  ADDLW  76
00F66:  MOVWF  FF6
00F68:  MOVLW  0F
00F6A:  ADDWFC FF7,F
00F6C:  MOVLW  00
00F6E:  MOVWF  FF8
00F70:  TBLRD*+
00F72:  MOVF   FF5,W
00F74:  RETURN 0
00F76:  DATA 41,6A
00F78:  DATA 75,73
00F7A:  DATA 74,65
00F7C:  DATA 20,2D
00F7E:  DATA 00,00
00F80:  CLRF   FF7
00F82:  ADDLW  94
00F84:  MOVWF  FF6
00F86:  MOVLW  0F
00F88:  ADDWFC FF7,F
00F8A:  MOVLW  00
00F8C:  MOVWF  FF8
00F8E:  TBLRD*+
00F90:  MOVF   FF5,W
00F92:  RETURN 0
00F94:  DATA 4D,65
00F96:  DATA 64,69
00F98:  DATA 61,20
00F9A:  DATA 4D,6F
00F9C:  DATA 76,69
00F9E:  DATA 6C,00
00FA0:  CLRF   FF7
00FA2:  ADDLW  B4
00FA4:  MOVWF  FF6
00FA6:  MOVLW  0F
00FA8:  ADDWFC FF7,F
00FAA:  MOVLW  00
00FAC:  MOVWF  FF8
00FAE:  TBLRD*+
00FB0:  MOVF   FF5,W
00FB2:  RETURN 0
00FB4:  DATA 43,6F
00FB6:  DATA 65,66
00FB8:  DATA 69,63
00FBA:  DATA 69,65
00FBC:  DATA 6E,74
00FBE:  DATA 65,00
00FC0:  CLRF   FF7
00FC2:  ADDLW  D4
00FC4:  MOVWF  FF6
00FC6:  MOVLW  0F
00FC8:  ADDWFC FF7,F
00FCA:  MOVLW  00
00FCC:  MOVWF  FF8
00FCE:  TBLRD*+
00FD0:  MOVF   FF5,W
00FD2:  RETURN 0
00FD4:  DATA 41,6C
00FD6:  DATA 61,72
00FD8:  DATA 6D,61
00FDA:  DATA 20,53
00FDC:  DATA 6F,62
00FDE:  DATA 72,65
00FE0:  DATA 54,00
00FE2:  CLRF   FF7
00FE4:  ADDLW  F6
00FE6:  MOVWF  FF6
00FE8:  MOVLW  0F
00FEA:  ADDWFC FF7,F
00FEC:  MOVLW  00
00FEE:  MOVWF  FF8
00FF0:  TBLRD*+
00FF2:  MOVF   FF5,W
00FF4:  RETURN 0
00FF6:  DATA 20,20
00FF8:  DATA 20,20
00FFA:  DATA 20,20
00FFC:  DATA 20,20
00FFE:  DATA 20,20
01000:  DATA 20,20
01002:  DATA 00,00
01004:  CLRF   FF7
01006:  ADDLW  18
01008:  MOVWF  FF6
0100A:  MOVLW  10
0100C:  ADDWFC FF7,F
0100E:  MOVLW  00
01010:  MOVWF  FF8
01012:  TBLRD*+
01014:  MOVF   FF5,W
01016:  RETURN 0
01018:  DATA 50,00
0101A:  CLRF   FF7
0101C:  ADDLW  2E
0101E:  MOVWF  FF6
01020:  MOVLW  10
01022:  ADDWFC FF7,F
01024:  MOVLW  00
01026:  MOVWF  FF8
01028:  TBLRD*+
0102A:  MOVF   FF5,W
0102C:  RETURN 0
0102E:  DATA 49,00
01030:  CLRF   FF7
01032:  ADDLW  44
01034:  MOVWF  FF6
01036:  MOVLW  10
01038:  ADDWFC FF7,F
0103A:  MOVLW  00
0103C:  MOVWF  FF8
0103E:  TBLRD*+
01040:  MOVF   FF5,W
01042:  RETURN 0
01044:  DATA 44,00
01046:  CLRF   FF7
01048:  ADDLW  5A
0104A:  MOVWF  FF6
0104C:  MOVLW  10
0104E:  ADDWFC FF7,F
01050:  MOVLW  00
01052:  MOVWF  FF8
01054:  TBLRD*+
01056:  MOVF   FF5,W
01058:  RETURN 0
0105A:  DATA 41,6A
0105C:  DATA 75,73
0105E:  DATA 74,65
01060:  DATA 00,00
01062:  CLRF   FF7
01064:  ADDLW  76
01066:  MOVWF  FF6
01068:  MOVLW  10
0106A:  ADDWFC FF7,F
0106C:  MOVLW  00
0106E:  MOVWF  FF8
01070:  TBLRD*+
01072:  MOVF   FF5,W
01074:  RETURN 0
01076:  DATA 41,6A
01078:  DATA 75,73
0107A:  DATA 74,65
0107C:  DATA 6E,00
0107E:  CLRF   FF7
01080:  ADDLW  92
01082:  MOVWF  FF6
01084:  MOVLW  10
01086:  ADDWFC FF7,F
01088:  MOVLW  00
0108A:  MOVWF  FF8
0108C:  TBLRD*+
0108E:  MOVF   FF5,W
01090:  RETURN 0
01092:  DATA 4D,65
01094:  DATA 64,69
01096:  DATA 61,00
01098:  CLRF   FF7
0109A:  ADDLW  AC
0109C:  MOVWF  FF6
0109E:  MOVLW  10
010A0:  ADDWFC FF7,F
010A2:  MOVLW  00
010A4:  MOVWF  FF8
010A6:  TBLRD*+
010A8:  MOVF   FF5,W
010AA:  RETURN 0
010AC:  DATA 41,6C
010AE:  DATA 61,72
010B0:  DATA 6D,61
010B2:  DATA 00,00
*
0118E:  MOVFF  786,78D
01192:  MOVLB  7
01194:  MOVF   x8A,W
01196:  XORWF  x8D,F
01198:  BTFSS  x8D.7
0119A:  BRA    11A6
0119C:  BCF    FD8.2
0119E:  BCF    FD8.0
011A0:  BTFSC  x86.7
011A2:  BSF    FD8.0
011A4:  BRA    1204
011A6:  MOVFF  786,78D
011AA:  MOVFF  789,78E
011AE:  MOVF   x85,W
011B0:  SUBWF  x8E,F
011B2:  BZ    11C0
011B4:  BTFSS  x8D.7
011B6:  BRA    1204
011B8:  MOVF   FD8,W
011BA:  XORLW  01
011BC:  MOVWF  FD8
011BE:  BRA    1204
011C0:  MOVFF  78A,78E
011C4:  MOVF   x86,W
011C6:  SUBWF  x8E,F
011C8:  BZ    11D6
011CA:  BTFSS  x8D.7
011CC:  BRA    1204
011CE:  MOVF   FD8,W
011D0:  XORLW  01
011D2:  MOVWF  FD8
011D4:  BRA    1204
011D6:  MOVFF  78B,78E
011DA:  MOVF   x87,W
011DC:  SUBWF  x8E,F
011DE:  BZ    11EC
011E0:  BTFSS  x8D.7
011E2:  BRA    1204
011E4:  MOVF   FD8,W
011E6:  XORLW  01
011E8:  MOVWF  FD8
011EA:  BRA    1204
011EC:  MOVFF  78C,78E
011F0:  MOVF   x88,W
011F2:  SUBWF  x8E,F
011F4:  BZ    1202
011F6:  BTFSS  x8D.7
011F8:  BRA    1204
011FA:  MOVF   FD8,W
011FC:  XORLW  01
011FE:  MOVWF  FD8
01200:  BRA    1204
01202:  BCF    FD8.0
01204:  MOVLB  0
01206:  RETURN 0
*
0196A:  MOVLB  7
0196C:  MOVF   x9B,W
0196E:  CLRF   01
01970:  SUBWF  x9A,W
01972:  BC    197A
01974:  MOVFF  79A,00
01978:  BRA    1992
0197A:  CLRF   00
0197C:  MOVLW  08
0197E:  MOVWF  x9C
01980:  RLCF   x9A,F
01982:  RLCF   00,F
01984:  MOVF   x9B,W
01986:  SUBWF  00,W
01988:  BTFSC  FD8.0
0198A:  MOVWF  00
0198C:  RLCF   01,F
0198E:  DECFSZ x9C,F
01990:  BRA    1980
01992:  MOVLB  0
01994:  RETURN 0
01996:  MOVFF  780,FEA
0199A:  MOVFF  77F,FE9
0199E:  MOVLB  7
019A0:  MOVFF  7A4,FEF
019A4:  INCF   FE9,F
019A6:  BTFSC  FD8.2
019A8:  INCF   FEA,F
019AA:  CLRF   FEF
019AC:  INCF   x7F,F
019AE:  BTFSC  FD8.2
019B0:  INCF   x80,F
019B2:  MOVLB  0
019B4:  RETURN 0
019B6:  MOVLW  20
019B8:  MOVLB  7
019BA:  BTFSS  x95.4
019BC:  MOVLW  30
019BE:  MOVWF  x96
019C0:  MOVFF  794,00
019C4:  BTFSS  x94.7
019C6:  BRA    19D8
019C8:  COMF   00,F
019CA:  INCF   00,F
019CC:  MOVFF  00,794
019D0:  MOVLW  2D
019D2:  MOVWF  x96
019D4:  BSF    x95.7
019D6:  BSF    x95.0
019D8:  MOVF   01,W
019DA:  MOVFF  794,79A
019DE:  MOVLW  64
019E0:  MOVWF  x9B
019E2:  MOVLB  0
019E4:  RCALL  196A
019E6:  MOVFF  00,794
019EA:  MOVLW  30
019EC:  ADDWF  01,W
019EE:  MOVLB  7
019F0:  MOVWF  x97
019F2:  MOVFF  794,79A
019F6:  MOVLW  0A
019F8:  MOVWF  x9B
019FA:  MOVLB  0
019FC:  RCALL  196A
019FE:  MOVLW  30
01A00:  ADDWF  00,W
01A02:  MOVLB  7
01A04:  MOVWF  x99
01A06:  MOVLW  30
01A08:  ADDWF  01,W
01A0A:  MOVWF  x98
01A0C:  MOVFF  796,00
01A10:  MOVLW  30
01A12:  SUBWF  x97,W
01A14:  BZ    1A1E
01A16:  BSF    x95.1
01A18:  BTFSC  x95.7
01A1A:  BSF    x95.2
01A1C:  BRA    1A42
01A1E:  MOVFF  796,797
01A22:  MOVLW  20
01A24:  MOVWF  x96
01A26:  MOVLW  30
01A28:  SUBWF  x98,W
01A2A:  BZ    1A34
01A2C:  BSF    x95.0
01A2E:  BTFSC  x95.7
01A30:  BSF    x95.1
01A32:  BRA    1A42
01A34:  BTFSS  FD8.2
01A36:  BSF    x95.0
01A38:  BNZ   1A42
01A3A:  MOVFF  797,798
01A3E:  MOVLW  20
01A40:  MOVWF  x97
01A42:  BTFSC  x95.2
01A44:  BRA    1A50
01A46:  BTFSC  x95.1
01A48:  BRA    1A58
01A4A:  BTFSC  x95.0
01A4C:  BRA    1A60
01A4E:  BRA    1A68
01A50:  MOVFF  796,7A4
01A54:  MOVLB  0
01A56:  RCALL  1996
01A58:  MOVFF  797,7A4
01A5C:  MOVLB  0
01A5E:  RCALL  1996
01A60:  MOVFF  798,7A4
01A64:  MOVLB  0
01A66:  RCALL  1996
01A68:  MOVFF  799,7A4
01A6C:  MOVLB  0
01A6E:  RCALL  1996
01A70:  GOTO   1A8A (RETURN)
*
01B2A:  MOVLW  8E
01B2C:  MOVWF  00
01B2E:  MOVFF  78C,01
01B32:  MOVFF  78B,02
01B36:  CLRF   03
01B38:  MOVF   01,F
01B3A:  BNZ   1B4E
01B3C:  MOVFF  02,01
01B40:  CLRF   02
01B42:  MOVLW  08
01B44:  SUBWF  00,F
01B46:  MOVF   01,F
01B48:  BNZ   1B4E
01B4A:  CLRF   00
01B4C:  BRA    1B5E
01B4E:  BCF    FD8.0
01B50:  BTFSC  01.7
01B52:  BRA    1B5C
01B54:  RLCF   02,F
01B56:  RLCF   01,F
01B58:  DECF   00,F
01B5A:  BRA    1B4E
01B5C:  BCF    01.7
01B5E:  RETURN 0
*
01BB8:  MOVLB  7
01BBA:  MOVF   x89,W
01BBC:  MULWF  x8B
01BBE:  MOVFF  FF3,01
01BC2:  MOVFF  FF4,00
01BC6:  MULWF  x8C
01BC8:  MOVF   FF3,W
01BCA:  ADDWF  00,F
01BCC:  MOVF   x8A,W
01BCE:  MULWF  x8B
01BD0:  MOVF   FF3,W
01BD2:  ADDWFC 00,W
01BD4:  MOVWF  02
01BD6:  MOVLB  0
01BD8:  RETURN 0
01BDA:  MOVLW  80
01BDC:  BTFSS  FD8.1
01BDE:  BRA    1BE4
01BE0:  MOVLB  7
01BE2:  XORWF  x8F,F
01BE4:  MOVLB  7
01BE6:  CLRF   x94
01BE8:  CLRF   x95
01BEA:  MOVFF  78B,793
01BEE:  MOVF   x8F,W
01BF0:  XORWF  x93,F
01BF2:  MOVF   x8A,W
01BF4:  BTFSC  FD8.2
01BF6:  BRA    1DB6
01BF8:  MOVWF  x92
01BFA:  MOVWF  00
01BFC:  MOVF   x8E,W
01BFE:  BTFSC  FD8.2
01C00:  BRA    1DC8
01C02:  SUBWF  x92,F
01C04:  BTFSC  FD8.2
01C06:  BRA    1D0E
01C08:  BNC   1C86
01C0A:  MOVFF  78F,798
01C0E:  BSF    x98.7
01C10:  MOVFF  790,797
01C14:  MOVFF  791,796
01C18:  CLRF   x95
01C1A:  BCF    FD8.0
01C1C:  RRCF   x98,F
01C1E:  RRCF   x97,F
01C20:  RRCF   x96,F
01C22:  RRCF   x95,F
01C24:  DECFSZ x92,F
01C26:  BRA    1C18
01C28:  BTFSS  x93.7
01C2A:  BRA    1C32
01C2C:  BSF    x94.0
01C2E:  BRA    1DF0
01C30:  BCF    x94.0
01C32:  BCF    x92.0
01C34:  BSF    x94.4
01C36:  MOVLW  07
01C38:  MOVWF  FEA
01C3A:  MOVLW  8D
01C3C:  MOVWF  FE9
01C3E:  BRA    1E16
01C40:  BCF    x94.4
01C42:  BTFSC  x93.7
01C44:  BRA    1C5A
01C46:  BTFSS  x92.0
01C48:  BRA    1C70
01C4A:  RRCF   x98,F
01C4C:  RRCF   x97,F
01C4E:  RRCF   x96,F
01C50:  RRCF   x95,F
01C52:  INCF   00,F
01C54:  BTFSC  FD8.2
01C56:  BRA    1DE6
01C58:  BRA    1C70
01C5A:  BTFSC  x98.7
01C5C:  BRA    1C76
01C5E:  BCF    FD8.0
01C60:  RLCF   x95,F
01C62:  RLCF   x96,F
01C64:  RLCF   x97,F
01C66:  RLCF   x98,F
01C68:  DECF   00,F
01C6A:  BTFSC  FD8.2
01C6C:  BRA    1DE6
01C6E:  BRA    1C5A
01C70:  BSF    x94.6
01C72:  BRA    1D4E
01C74:  BCF    x94.6
01C76:  MOVFF  78B,793
01C7A:  BTFSS  x8B.7
01C7C:  BRA    1C82
01C7E:  BSF    x98.7
01C80:  BRA    1DD8
01C82:  BCF    x98.7
01C84:  BRA    1DD8
01C86:  MOVFF  78E,792
01C8A:  MOVFF  78E,00
01C8E:  MOVF   x8A,W
01C90:  SUBWF  x92,F
01C92:  MOVFF  78B,798
01C96:  BSF    x98.7
01C98:  MOVFF  78C,797
01C9C:  MOVFF  78D,796
01CA0:  CLRF   x95
01CA2:  BCF    FD8.0
01CA4:  RRCF   x98,F
01CA6:  RRCF   x97,F
01CA8:  RRCF   x96,F
01CAA:  RRCF   x95,F
01CAC:  DECFSZ x92,F
01CAE:  BRA    1CA0
01CB0:  BTFSS  x93.7
01CB2:  BRA    1CBA
01CB4:  BSF    x94.1
01CB6:  BRA    1DF0
01CB8:  BCF    x94.1
01CBA:  BCF    x92.0
01CBC:  BSF    x94.5
01CBE:  MOVLW  07
01CC0:  MOVWF  FEA
01CC2:  MOVLW  91
01CC4:  MOVWF  FE9
01CC6:  BRA    1E16
01CC8:  BCF    x94.5
01CCA:  BTFSC  x93.7
01CCC:  BRA    1CE2
01CCE:  BTFSS  x92.0
01CD0:  BRA    1CF8
01CD2:  RRCF   x98,F
01CD4:  RRCF   x97,F
01CD6:  RRCF   x96,F
01CD8:  RRCF   x95,F
01CDA:  INCF   00,F
01CDC:  BTFSC  FD8.2
01CDE:  BRA    1DE6
01CE0:  BRA    1CF8
01CE2:  BTFSC  x98.7
01CE4:  BRA    1CFE
01CE6:  BCF    FD8.0
01CE8:  RLCF   x95,F
01CEA:  RLCF   x96,F
01CEC:  RLCF   x97,F
01CEE:  RLCF   x98,F
01CF0:  DECF   00,F
01CF2:  BTFSC  FD8.2
01CF4:  BRA    1DE6
01CF6:  BRA    1CE2
01CF8:  BSF    x94.7
01CFA:  BRA    1D4E
01CFC:  BCF    x94.7
01CFE:  MOVFF  78F,793
01D02:  BTFSS  x8F.7
01D04:  BRA    1D0A
01D06:  BSF    x98.7
01D08:  BRA    1DD8
01D0A:  BCF    x98.7
01D0C:  BRA    1DD8
01D0E:  MOVFF  78F,798
01D12:  BSF    x98.7
01D14:  MOVFF  790,797
01D18:  MOVFF  791,796
01D1C:  BTFSS  x93.7
01D1E:  BRA    1D28
01D20:  BCF    x98.7
01D22:  BSF    x94.2
01D24:  BRA    1DF0
01D26:  BCF    x94.2
01D28:  CLRF   x95
01D2A:  BCF    x92.0
01D2C:  MOVLW  07
01D2E:  MOVWF  FEA
01D30:  MOVLW  8D
01D32:  MOVWF  FE9
01D34:  BRA    1E16
01D36:  BTFSC  x93.7
01D38:  BRA    1D72
01D3A:  MOVFF  78B,793
01D3E:  BTFSS  x92.0
01D40:  BRA    1D4E
01D42:  RRCF   x98,F
01D44:  RRCF   x97,F
01D46:  RRCF   x96,F
01D48:  RRCF   x95,F
01D4A:  INCF   00,F
01D4C:  BZ    1DE6
01D4E:  BTFSS  x95.7
01D50:  BRA    1D68
01D52:  INCF   x96,F
01D54:  BNZ   1D68
01D56:  INCF   x97,F
01D58:  BNZ   1D68
01D5A:  INCF   x98,F
01D5C:  BNZ   1D68
01D5E:  RRCF   x98,F
01D60:  RRCF   x97,F
01D62:  RRCF   x96,F
01D64:  INCF   00,F
01D66:  BZ    1DE6
01D68:  BTFSC  x94.6
01D6A:  BRA    1C74
01D6C:  BTFSC  x94.7
01D6E:  BRA    1CFC
01D70:  BRA    1DAA
01D72:  MOVLW  80
01D74:  XORWF  x98,F
01D76:  BTFSS  x98.7
01D78:  BRA    1D82
01D7A:  BRA    1DF0
01D7C:  MOVFF  78F,793
01D80:  BRA    1D96
01D82:  MOVFF  78B,793
01D86:  MOVF   x98,F
01D88:  BNZ   1D96
01D8A:  MOVF   x97,F
01D8C:  BNZ   1D96
01D8E:  MOVF   x96,F
01D90:  BNZ   1D96
01D92:  CLRF   00
01D94:  BRA    1DD8
01D96:  BTFSC  x98.7
01D98:  BRA    1DAA
01D9A:  BCF    FD8.0
01D9C:  RLCF   x95,F
01D9E:  RLCF   x96,F
01DA0:  RLCF   x97,F
01DA2:  RLCF   x98,F
01DA4:  DECFSZ 00,F
01DA6:  BRA    1D96
01DA8:  BRA    1DE6
01DAA:  BTFSS  x93.7
01DAC:  BRA    1DB2
01DAE:  BSF    x98.7
01DB0:  BRA    1DD8
01DB2:  BCF    x98.7
01DB4:  BRA    1DD8
01DB6:  MOVFF  78E,00
01DBA:  MOVFF  78F,798
01DBE:  MOVFF  790,797
01DC2:  MOVFF  791,796
01DC6:  BRA    1DD8
01DC8:  MOVFF  78A,00
01DCC:  MOVFF  78B,798
01DD0:  MOVFF  78C,797
01DD4:  MOVFF  78D,796
01DD8:  MOVFF  798,01
01DDC:  MOVFF  797,02
01DE0:  MOVFF  796,03
01DE4:  BRA    1E4E
01DE6:  CLRF   00
01DE8:  CLRF   01
01DEA:  CLRF   02
01DEC:  CLRF   03
01DEE:  BRA    1E4E
01DF0:  CLRF   x95
01DF2:  COMF   x96,F
01DF4:  COMF   x97,F
01DF6:  COMF   x98,F
01DF8:  COMF   x95,F
01DFA:  INCF   x95,F
01DFC:  BNZ   1E08
01DFE:  INCF   x96,F
01E00:  BNZ   1E08
01E02:  INCF   x97,F
01E04:  BNZ   1E08
01E06:  INCF   x98,F
01E08:  BTFSC  x94.0
01E0A:  BRA    1C30
01E0C:  BTFSC  x94.1
01E0E:  BRA    1CB8
01E10:  BTFSC  x94.2
01E12:  BRA    1D26
01E14:  BRA    1D7C
01E16:  MOVF   FEF,W
01E18:  ADDWF  x96,F
01E1A:  BNC   1E26
01E1C:  INCF   x97,F
01E1E:  BNZ   1E26
01E20:  INCF   x98,F
01E22:  BTFSC  FD8.2
01E24:  BSF    x92.0
01E26:  MOVF   FED,F
01E28:  MOVF   FEF,W
01E2A:  ADDWF  x97,F
01E2C:  BNC   1E34
01E2E:  INCF   x98,F
01E30:  BTFSC  FD8.2
01E32:  BSF    x92.0
01E34:  MOVF   FED,F
01E36:  MOVF   FEF,W
01E38:  BTFSC  FEF.7
01E3A:  BRA    1E3E
01E3C:  XORLW  80
01E3E:  ADDWF  x98,F
01E40:  BTFSC  FD8.0
01E42:  BSF    x92.0
01E44:  BTFSC  x94.4
01E46:  BRA    1C40
01E48:  BTFSC  x94.5
01E4A:  BRA    1CC8
01E4C:  BRA    1D36
01E4E:  MOVLB  0
01E50:  RETURN 0
01E52:  MOVLB  7
01E54:  MOVF   x89,W
01E56:  BTFSC  FD8.2
01E58:  BRA    1FA4
01E5A:  MOVWF  x95
01E5C:  MOVF   x8D,W
01E5E:  BTFSC  FD8.2
01E60:  BRA    1FA4
01E62:  SUBWF  x95,F
01E64:  BNC   1E70
01E66:  MOVLW  7F
01E68:  ADDWF  x95,F
01E6A:  BTFSC  FD8.0
01E6C:  BRA    1FA4
01E6E:  BRA    1E7C
01E70:  MOVLW  81
01E72:  SUBWF  x95,F
01E74:  BTFSS  FD8.0
01E76:  BRA    1FA4
01E78:  BTFSC  FD8.2
01E7A:  BRA    1FA4
01E7C:  MOVFF  795,00
01E80:  CLRF   01
01E82:  CLRF   02
01E84:  CLRF   03
01E86:  CLRF   x94
01E88:  MOVFF  78A,793
01E8C:  BSF    x93.7
01E8E:  MOVFF  78B,792
01E92:  MOVFF  78C,791
01E96:  MOVLW  19
01E98:  MOVWF  x95
01E9A:  MOVF   x90,W
01E9C:  SUBWF  x91,F
01E9E:  BC    1EBA
01EA0:  MOVLW  01
01EA2:  SUBWF  x92,F
01EA4:  BC    1EBA
01EA6:  SUBWF  x93,F
01EA8:  BC    1EBA
01EAA:  SUBWF  x94,F
01EAC:  BC    1EBA
01EAE:  INCF   x94,F
01EB0:  INCF   x93,F
01EB2:  INCF   x92,F
01EB4:  MOVF   x90,W
01EB6:  ADDWF  x91,F
01EB8:  BRA    1F0A
01EBA:  MOVF   x8F,W
01EBC:  SUBWF  x92,F
01EBE:  BC    1EE4
01EC0:  MOVLW  01
01EC2:  SUBWF  x93,F
01EC4:  BC    1EE4
01EC6:  SUBWF  x94,F
01EC8:  BC    1EE4
01ECA:  INCF   x94,F
01ECC:  INCF   x93,F
01ECE:  MOVF   x8F,W
01ED0:  ADDWF  x92,F
01ED2:  MOVF   x90,W
01ED4:  ADDWF  x91,F
01ED6:  BNC   1F0A
01ED8:  INCF   x92,F
01EDA:  BNZ   1F0A
01EDC:  INCF   x93,F
01EDE:  BNZ   1F0A
01EE0:  INCF   x94,F
01EE2:  BRA    1F0A
01EE4:  MOVF   x8E,W
01EE6:  IORLW  80
01EE8:  SUBWF  x93,F
01EEA:  BC    1F08
01EEC:  MOVLW  01
01EEE:  SUBWF  x94,F
01EF0:  BC    1F08
01EF2:  INCF   x94,F
01EF4:  MOVF   x8E,W
01EF6:  IORLW  80
01EF8:  ADDWF  x93,F
01EFA:  MOVF   x8F,W
01EFC:  ADDWF  x92,F
01EFE:  BNC   1ED2
01F00:  INCF   x93,F
01F02:  BNZ   1ED2
01F04:  INCF   x94,F
01F06:  BRA    1ED2
01F08:  BSF    03.0
01F0A:  DECFSZ x95,F
01F0C:  BRA    1F10
01F0E:  BRA    1F26
01F10:  BCF    FD8.0
01F12:  RLCF   x91,F
01F14:  RLCF   x92,F
01F16:  RLCF   x93,F
01F18:  RLCF   x94,F
01F1A:  BCF    FD8.0
01F1C:  RLCF   03,F
01F1E:  RLCF   02,F
01F20:  RLCF   01,F
01F22:  RLCF   x96,F
01F24:  BRA    1E9A
01F26:  BTFSS  x96.0
01F28:  BRA    1F36
01F2A:  BCF    FD8.0
01F2C:  RRCF   01,F
01F2E:  RRCF   02,F
01F30:  RRCF   03,F
01F32:  RRCF   x96,F
01F34:  BRA    1F3A
01F36:  DECF   00,F
01F38:  BZ    1FA4
01F3A:  BTFSC  x96.7
01F3C:  BRA    1F7A
01F3E:  BCF    FD8.0
01F40:  RLCF   x91,F
01F42:  RLCF   x92,F
01F44:  RLCF   x93,F
01F46:  RLCF   x94,F
01F48:  MOVF   x90,W
01F4A:  SUBWF  x91,F
01F4C:  BC    1F5C
01F4E:  MOVLW  01
01F50:  SUBWF  x92,F
01F52:  BC    1F5C
01F54:  SUBWF  x93,F
01F56:  BC    1F5C
01F58:  SUBWF  x94,F
01F5A:  BNC   1F90
01F5C:  MOVF   x8F,W
01F5E:  SUBWF  x92,F
01F60:  BC    1F6C
01F62:  MOVLW  01
01F64:  SUBWF  x93,F
01F66:  BC    1F6C
01F68:  SUBWF  x94,F
01F6A:  BNC   1F90
01F6C:  MOVF   x8E,W
01F6E:  IORLW  80
01F70:  SUBWF  x93,F
01F72:  BC    1F7A
01F74:  MOVLW  01
01F76:  SUBWF  x94,F
01F78:  BNC   1F90
01F7A:  INCF   03,F
01F7C:  BNZ   1F90
01F7E:  INCF   02,F
01F80:  BNZ   1F90
01F82:  INCF   01,F
01F84:  BNZ   1F90
01F86:  INCF   00,F
01F88:  BZ    1FA4
01F8A:  RRCF   01,F
01F8C:  RRCF   02,F
01F8E:  RRCF   03,F
01F90:  MOVFF  78A,795
01F94:  MOVF   x8E,W
01F96:  XORWF  x95,F
01F98:  BTFSS  x95.7
01F9A:  BRA    1FA0
01F9C:  BSF    01.7
01F9E:  BRA    1FAC
01FA0:  BCF    01.7
01FA2:  BRA    1FAC
01FA4:  CLRF   00
01FA6:  CLRF   01
01FA8:  CLRF   02
01FAA:  CLRF   03
01FAC:  MOVLB  0
01FAE:  RETURN 0
01FB0:  MOVLB  7
01FB2:  MOVF   x89,W
01FB4:  BTFSC  FD8.2
01FB6:  BRA    209A
01FB8:  MOVWF  00
01FBA:  MOVF   x8D,W
01FBC:  BTFSC  FD8.2
01FBE:  BRA    209A
01FC0:  ADDWF  00,F
01FC2:  BNC   1FCC
01FC4:  MOVLW  81
01FC6:  ADDWF  00,F
01FC8:  BC    209A
01FCA:  BRA    1FD4
01FCC:  MOVLW  7F
01FCE:  SUBWF  00,F
01FD0:  BNC   209A
01FD2:  BZ    209A
01FD4:  MOVFF  78A,791
01FD8:  MOVF   x8E,W
01FDA:  XORWF  x91,F
01FDC:  BSF    x8A.7
01FDE:  BSF    x8E.7
01FE0:  MOVF   x8C,W
01FE2:  MULWF  x90
01FE4:  MOVFF  FF4,793
01FE8:  MOVF   x8B,W
01FEA:  MULWF  x8F
01FEC:  MOVFF  FF4,03
01FF0:  MOVFF  FF3,792
01FF4:  MULWF  x90
01FF6:  MOVF   FF3,W
01FF8:  ADDWF  x93,F
01FFA:  MOVF   FF4,W
01FFC:  ADDWFC x92,F
01FFE:  MOVLW  00
02000:  ADDWFC 03,F
02002:  MOVF   x8C,W
02004:  MULWF  x8F
02006:  MOVF   FF3,W
02008:  ADDWF  x93,F
0200A:  MOVF   FF4,W
0200C:  ADDWFC x92,F
0200E:  MOVLW  00
02010:  CLRF   02
02012:  ADDWFC 03,F
02014:  ADDWFC 02,F
02016:  MOVF   x8A,W
02018:  MULWF  x90
0201A:  MOVF   FF3,W
0201C:  ADDWF  x92,F
0201E:  MOVF   FF4,W
02020:  ADDWFC 03,F
02022:  MOVLW  00
02024:  ADDWFC 02,F
02026:  MOVF   x8A,W
02028:  MULWF  x8F
0202A:  MOVF   FF3,W
0202C:  ADDWF  03,F
0202E:  MOVF   FF4,W
02030:  ADDWFC 02,F
02032:  MOVLW  00
02034:  CLRF   01
02036:  ADDWFC 01,F
02038:  MOVF   x8C,W
0203A:  MULWF  x8E
0203C:  MOVF   FF3,W
0203E:  ADDWF  x92,F
02040:  MOVF   FF4,W
02042:  ADDWFC 03,F
02044:  MOVLW  00
02046:  ADDWFC 02,F
02048:  ADDWFC 01,F
0204A:  MOVF   x8B,W
0204C:  MULWF  x8E
0204E:  MOVF   FF3,W
02050:  ADDWF  03,F
02052:  MOVF   FF4,W
02054:  ADDWFC 02,F
02056:  MOVLW  00
02058:  ADDWFC 01,F
0205A:  MOVF   x8A,W
0205C:  MULWF  x8E
0205E:  MOVF   FF3,W
02060:  ADDWF  02,F
02062:  MOVF   FF4,W
02064:  ADDWFC 01,F
02066:  INCF   00,F
02068:  BTFSC  01.7
0206A:  BRA    2076
0206C:  RLCF   x92,F
0206E:  RLCF   03,F
02070:  RLCF   02,F
02072:  RLCF   01,F
02074:  DECF   00,F
02076:  MOVLW  00
02078:  BTFSS  x92.7
0207A:  BRA    2090
0207C:  INCF   03,F
0207E:  ADDWFC 02,F
02080:  ADDWFC 01,F
02082:  MOVF   01,W
02084:  BNZ   2090
02086:  MOVF   02,W
02088:  BNZ   2090
0208A:  MOVF   03,W
0208C:  BNZ   2090
0208E:  INCF   00,F
02090:  BTFSC  x91.7
02092:  BSF    01.7
02094:  BTFSS  x91.7
02096:  BCF    01.7
02098:  BRA    20A2
0209A:  CLRF   00
0209C:  CLRF   01
0209E:  CLRF   02
020A0:  CLRF   03
020A2:  MOVLB  0
020A4:  RETURN 0
*
022CE:  MOVF   01,W
022D0:  MOVFF  796,79A
022D4:  MOVLW  64
022D6:  MOVLB  7
022D8:  MOVWF  x9B
022DA:  MOVLB  0
022DC:  CALL   196A
022E0:  MOVFF  00,796
022E4:  MOVF   01,W
022E6:  MOVLW  30
022E8:  BNZ   22FA
022EA:  MOVLB  7
022EC:  BTFSS  x97.1
022EE:  BRA    2310
022F0:  BTFSC  x97.3
022F2:  BRA    2310
022F4:  BTFSC  x97.4
022F6:  MOVLW  20
022F8:  BRA    2302
022FA:  MOVLB  7
022FC:  BCF    x97.3
022FE:  BCF    x97.4
02300:  BSF    x97.0
02302:  ADDWF  01,F
02304:  MOVFF  01,7A4
02308:  MOVLB  0
0230A:  CALL   1996
0230E:  MOVLB  7
02310:  MOVFF  796,79A
02314:  MOVLW  0A
02316:  MOVWF  x9B
02318:  MOVLB  0
0231A:  CALL   196A
0231E:  MOVFF  00,796
02322:  MOVF   01,W
02324:  MOVLW  30
02326:  BNZ   2338
02328:  MOVLB  7
0232A:  BTFSC  x97.3
0232C:  BRA    2344
0232E:  BTFSS  x97.0
02330:  BRA    2344
02332:  BTFSC  x97.4
02334:  MOVLW  20
02336:  MOVLB  0
02338:  ADDWF  01,F
0233A:  MOVFF  01,7A4
0233E:  CALL   1996
02342:  MOVLB  7
02344:  MOVLW  30
02346:  ADDWF  x96,F
02348:  MOVFF  796,7A4
0234C:  MOVLB  0
0234E:  CALL   1996
02352:  RETURN 0
*
0251C:  MOVLB  7
0251E:  MOVF   x8A,W
02520:  XORWF  x8C,W
02522:  ANDLW  80
02524:  MOVWF  x8E
02526:  BTFSS  x8A.7
02528:  BRA    2534
0252A:  COMF   x89,F
0252C:  COMF   x8A,F
0252E:  INCF   x89,F
02530:  BTFSC  FD8.2
02532:  INCF   x8A,F
02534:  BTFSS  x8C.7
02536:  BRA    2542
02538:  COMF   x8B,F
0253A:  COMF   x8C,F
0253C:  INCF   x8B,F
0253E:  BTFSC  FD8.2
02540:  INCF   x8C,F
02542:  MOVF   x89,W
02544:  MULWF  x8B
02546:  MOVFF  FF3,01
0254A:  MOVFF  FF4,00
0254E:  MULWF  x8C
02550:  MOVF   FF3,W
02552:  ADDWF  00,F
02554:  MOVF   x8A,W
02556:  MULWF  x8B
02558:  MOVF   FF3,W
0255A:  ADDWFC 00,W
0255C:  MOVWF  02
0255E:  BTFSS  x8E.7
02560:  BRA    256C
02562:  COMF   01,F
02564:  COMF   02,F
02566:  INCF   01,F
02568:  BTFSC  FD8.2
0256A:  INCF   02,F
0256C:  MOVLB  0
0256E:  RETURN 0
02570:  MOVLW  8E
02572:  MOVWF  00
02574:  MOVFF  788,01
02578:  MOVFF  787,02
0257C:  CLRF   03
0257E:  BTFSS  01.7
02580:  BRA    258C
02582:  COMF   01,F
02584:  COMF   02,F
02586:  INCF   02,F
02588:  BNZ   258C
0258A:  INCF   01,F
0258C:  MOVF   01,F
0258E:  BNZ   25A2
02590:  MOVFF  02,01
02594:  CLRF   02
02596:  MOVLW  08
02598:  SUBWF  00,F
0259A:  MOVF   01,F
0259C:  BNZ   25A2
0259E:  CLRF   00
025A0:  BRA    25BE
025A2:  BCF    FD8.0
025A4:  BTFSC  01.7
025A6:  BRA    25B0
025A8:  RLCF   02,F
025AA:  RLCF   01,F
025AC:  DECF   00,F
025AE:  BRA    25A2
025B0:  MOVLB  7
025B2:  BTFSS  x88.7
025B4:  BRA    25BA
025B6:  MOVLB  0
025B8:  BRA    25BE
025BA:  BCF    01.7
025BC:  MOVLB  0
025BE:  RETURN 0
025C0:  CLRF   00
025C2:  CLRF   01
025C4:  MOVLB  7
025C6:  MOVF   xA6,W
025C8:  BCF    FD8.0
025CA:  BTFSC  xA7.0
025CC:  ADDWF  00,F
025CE:  RRCF   00,F
025D0:  RRCF   01,F
025D2:  BTFSC  xA7.1
025D4:  ADDWF  00,F
025D6:  RRCF   00,F
025D8:  RRCF   01,F
025DA:  BTFSC  xA7.2
025DC:  ADDWF  00,F
025DE:  RRCF   00,F
025E0:  RRCF   01,F
025E2:  BTFSC  xA7.3
025E4:  ADDWF  00,F
025E6:  RRCF   00,F
025E8:  RRCF   01,F
025EA:  BTFSC  xA7.4
025EC:  ADDWF  00,F
025EE:  RRCF   00,F
025F0:  RRCF   01,F
025F2:  BTFSC  xA7.5
025F4:  ADDWF  00,F
025F6:  RRCF   00,F
025F8:  RRCF   01,F
025FA:  BTFSC  xA7.6
025FC:  ADDWF  00,F
025FE:  RRCF   00,F
02600:  RRCF   01,F
02602:  BTFSC  xA7.7
02604:  ADDWF  00,F
02606:  RRCF   00,F
02608:  RRCF   01,F
0260A:  MOVLB  0
0260C:  RETURN 0
0260E:  MOVLB  7
02610:  MOVF   x8A,W
02612:  XORWF  x8C,W
02614:  ANDLW  80
02616:  MOVWF  x8E
02618:  BTFSS  x8A.7
0261A:  BRA    2626
0261C:  COMF   x89,F
0261E:  COMF   x8A,F
02620:  INCF   x89,F
02622:  BTFSC  FD8.2
02624:  INCF   x8A,F
02626:  BTFSS  x8C.7
02628:  BRA    2634
0262A:  COMF   x8B,F
0262C:  COMF   x8C,F
0262E:  INCF   x8B,F
02630:  BTFSC  FD8.2
02632:  INCF   x8C,F
02634:  CLRF   01
02636:  CLRF   02
02638:  CLRF   00
0263A:  CLRF   03
0263C:  MOVF   x8C,W
0263E:  BNZ   2644
02640:  MOVF   x8B,W
02642:  BZ    2674
02644:  MOVLW  10
02646:  MOVWF  x8D
02648:  BCF    FD8.0
0264A:  RLCF   x89,F
0264C:  RLCF   x8A,F
0264E:  RLCF   00,F
02650:  RLCF   03,F
02652:  MOVF   x8C,W
02654:  SUBWF  03,W
02656:  BNZ   265C
02658:  MOVF   x8B,W
0265A:  SUBWF  00,W
0265C:  BNC   266C
0265E:  MOVF   x8B,W
02660:  SUBWF  00,F
02662:  BTFSS  FD8.0
02664:  DECF   03,F
02666:  MOVF   x8C,W
02668:  SUBWF  03,F
0266A:  BSF    FD8.0
0266C:  RLCF   01,F
0266E:  RLCF   02,F
02670:  DECFSZ x8D,F
02672:  BRA    2648
02674:  BTFSS  x8E.7
02676:  BRA    2682
02678:  COMF   01,F
0267A:  COMF   02,F
0267C:  INCF   01,F
0267E:  BTFSC  FD8.2
02680:  INCF   02,F
02682:  MOVLB  0
02684:  RETURN 0
02686:  MOVFF  FEA,7A3
0268A:  MOVFF  FE9,7A2
0268E:  MOVLB  7
02690:  SWAPF  x9C,W
02692:  IORLW  F0
02694:  MOVWF  x9E
02696:  ADDWF  x9E,F
02698:  ADDLW  E2
0269A:  MOVWF  x9F
0269C:  ADDLW  32
0269E:  MOVWF  xA1
026A0:  MOVF   x9C,W
026A2:  ANDLW  0F
026A4:  ADDWF  x9F,F
026A6:  ADDWF  x9F,F
026A8:  ADDWF  xA1,F
026AA:  ADDLW  E9
026AC:  MOVWF  xA0
026AE:  ADDWF  xA0,F
026B0:  ADDWF  xA0,F
026B2:  SWAPF  x9B,W
026B4:  ANDLW  0F
026B6:  ADDWF  xA0,F
026B8:  ADDWF  xA1,F
026BA:  RLCF   xA0,F
026BC:  RLCF   xA1,F
026BE:  COMF   xA1,F
026C0:  RLCF   xA1,F
026C2:  MOVF   x9B,W
026C4:  ANDLW  0F
026C6:  ADDWF  xA1,F
026C8:  RLCF   x9E,F
026CA:  MOVLW  07
026CC:  MOVWF  x9D
026CE:  MOVLW  0A
026D0:  DECF   xA0,F
026D2:  ADDWF  xA1,F
026D4:  BNC   26D0
026D6:  DECF   x9F,F
026D8:  ADDWF  xA0,F
026DA:  BNC   26D6
026DC:  DECF   x9E,F
026DE:  ADDWF  x9F,F
026E0:  BNC   26DC
026E2:  DECF   x9D,F
026E4:  ADDWF  x9E,F
026E6:  BNC   26E2
026E8:  MOVLW  07
026EA:  MOVWF  FEA
026EC:  MOVLW  9D
026EE:  MOVWF  FE9
026F0:  MOVLW  07
026F2:  ANDWF  xA2,W
026F4:  BCF    xA2.6
026F6:  ADDWF  FE9,F
026F8:  MOVLW  00
026FA:  ADDWFC FEA,F
026FC:  MOVF   FE9,W
026FE:  SUBLW  A1
02700:  BNZ   270A
02702:  MOVF   FEA,W
02704:  SUBLW  07
02706:  BNZ   270A
02708:  BSF    xA2.6
0270A:  MOVF   FEF,W
0270C:  MOVWF  00
0270E:  BNZ   2720
02710:  BTFSC  xA2.6
02712:  BRA    2720
02714:  BTFSC  xA2.4
02716:  BRA    2744
02718:  BTFSC  xA2.3
0271A:  BRA    2720
0271C:  MOVLW  20
0271E:  BRA    2726
02720:  BSF    xA2.3
02722:  BCF    xA2.4
02724:  MOVLW  30
02726:  ADDWF  00,F
02728:  MOVFF  FEA,79C
0272C:  MOVFF  FE9,79B
02730:  MOVFF  00,7A4
02734:  MOVLB  0
02736:  CALL   1996
0273A:  MOVFF  79C,FEA
0273E:  MOVFF  79B,FE9
02742:  MOVLB  7
02744:  MOVF   FEE,W
02746:  BTFSS  xA2.6
02748:  BRA    26FC
0274A:  MOVLB  0
0274C:  RETURN 0
*
03DCE:  MOVLW  8E
03DD0:  MOVWF  00
03DD2:  MOVLB  7
03DD4:  MOVF   x85,W
03DD6:  SUBWF  00,F
03DD8:  MOVFF  786,02
03DDC:  MOVFF  787,01
03DE0:  BSF    02.7
03DE2:  MOVF   00,F
03DE4:  BZ    3DF8
03DE6:  BCF    FD8.0
03DE8:  MOVF   02,F
03DEA:  BNZ   3DF0
03DEC:  MOVF   01,F
03DEE:  BZ    3DF8
03DF0:  RRCF   02,F
03DF2:  RRCF   01,F
03DF4:  DECFSZ 00,F
03DF6:  BRA    3DE6
03DF8:  BTFSS  x86.7
03DFA:  BRA    3E06
03DFC:  COMF   01,F
03DFE:  COMF   02,F
03E00:  INCF   01,F
03E02:  BTFSC  FD8.2
03E04:  INCF   02,F
03E06:  MOVLB  0
03E08:  RETURN 0
....................  
.................... #list 
....................  
.................... #device adc=10 
.................... #fuses HS,NOWDT,NOPROTECT,NOLVP,NODEBUG,NOSTVREN,NOPUT,NOCPD,NOWRT,NOIESO,NOFCMEN,NOPBADEN,NOWRTC,NOWRTB,NOEBTR,NOEBTRB,NOCPB,NOXINST,NOLPT1OSC,NOMCLR 
.................... #use delay(clock=20000000) 
*
01166:  MOVLW  07
01168:  MOVWF  FEA
0116A:  MOVLW  8B
0116C:  MOVWF  FE9
0116E:  MOVF   FEF,W
01170:  BZ    118C
01172:  MOVLW  06
01174:  MOVWF  01
01176:  CLRF   00
01178:  DECFSZ 00,F
0117A:  BRA    1178
0117C:  DECFSZ 01,F
0117E:  BRA    1176
01180:  MOVLW  7B
01182:  MOVWF  00
01184:  DECFSZ 00,F
01186:  BRA    1184
01188:  DECFSZ FEF,F
0118A:  BRA    1172
0118C:  RETURN 0
.................... #include "HDM64GS12.c" 
.................... ///////////////////////////////////////////////////////////////////////// 
.................... ////                           HDM64GS12.c                           //// 
.................... ////                                                                 //// 
.................... //// This file contains drivers for using a Hantronix HDM64GS12 with //// 
.................... //// a KS0108 display controller. The HDM64GS12 is 128 by 64 pixels. //// 
.................... //// The driver treats the upper left pixel as (0,0).                //// 
.................... ////                                                                 //// 
.................... //// Use #define FAST_GLCD if the target chip has at least 1k of RAM //// 
.................... //// to decrease the time it takes to update the display.            //// 
.................... //// glcd_update() must then be called to update the display after   //// 
.................... //// changing the pixel information.                                 //// 
.................... //// See ex_glcd.c for suggested usage.                              //// 
.................... //// See KS0108.c for controlling a single 64 by 64 display          //// 
.................... ///////////////////////////////////////////////////////////////////////// 
.................... ////                                                                 //// 
.................... //// LCD Pin connections:                                            //// 
.................... //// (These can be changed as needed in the following defines).      //// 
.................... ////  * 1: VSS is connected to GND                                   //// 
.................... ////  * 2: VDD is connected to +5V                                   //// 
.................... ////  * 3: V0  - LCD operating voltage (Constrast adjustment)        //// 
.................... ////  * 4: D/I - Data or Instruction is connected to B2              //// 
.................... ////  * 5: R/W - Read or Write is connected to B4                    //// 
.................... ////  * 6: Enable is connected to B5                                 //// 
.................... ////  *7-14: Data Bus 0 to 7 is connected to port d                  //// 
.................... ////  *15: Chip Select 1 is connected to B0                          //// 
.................... ////  *16: Chip Select 2 is connected to B1                          //// 
.................... ////  *17: Reset is connected to C0                                  //// 
.................... ////  *18: Negative voltage is also connected to the 20k Ohm POT     //// 
.................... ////  *19: Positive voltage for LED backlight is connected to +5V    //// 
.................... ////  *20: Negavtive voltage for LED backlight is connected to GND   //// 
.................... ////                                                                 //// 
.................... ///////////////////////////////////////////////////////////////////////// 
.................... ////                                                                 //// 
.................... ////  glcd_init(mode)                                                //// 
.................... ////     * Must be called before any other function.                 //// 
.................... ////       - mode can be ON or OFF to turn the LCD on or off         //// 
.................... ////                                                                 //// 
.................... ////  glcd_pixel(x,y,color)                                          //// 
.................... ////     * Sets the pixel to the given color.                        //// 
.................... ////       - color can be ON or OFF                                  //// 
.................... ////                                                                 //// 
.................... ////  glcd_fillScreen(color)                                         //// 
.................... ////     * Fills the entire LCD with the given color.                //// 
.................... ////       - color can be ON or OFF                                  //// 
.................... ////                                                                 //// 
.................... ////  glcd_update()                                                  //// 
.................... ////     * Write the display data stored in RAM to the LCD           //// 
.................... ////     * Only available if FAST_GLCD is defined                    //// 
.................... ////                                                                 //// 
.................... ///////////////////////////////////////////////////////////////////////// 
.................... ////        (C) Copyright 1996, 2004 Custom Computer Services        //// 
.................... //// This source code may only be used by licensed users of the CCS  //// 
.................... //// C compiler.  This source code may only be distributed to other  //// 
.................... //// licensed users of the CCS C compiler.  No other use,            //// 
.................... //// reproduction or distribution is permitted without written       //// 
.................... //// permission.  Derivative programs created using this software    //// 
.................... //// in object code form are not restricted in any way.              //// 
.................... ///////////////////////////////////////////////////////////////////////// 
....................  
....................  
....................  
.................... #ifndef HDM64GS12 
.................... #define HDM64GS12 
....................  
.................... #ifndef FAST_GLCD 
.................... #define FAST_GLCD 
....................  
.................... #ifndef GLCD_WIDTH 
.................... #define GLCD_WIDTH   128 
.................... #endif 
....................  
.................... #ifndef GLCD_CS1 
.................... #define GLCD_CS1     PIN_B2   // Chip Selection 1 
.................... #endif 
....................  
.................... #ifndef GLCD_CS2 
.................... #define GLCD_CS2     PIN_B3   // Chip Selection 2 
.................... #endif 
....................  
.................... #ifndef GLCD_DI 
.................... #define GLCD_DI      PIN_B5   // Data or Instruction input 
.................... #endif 
....................  
.................... #ifndef GLCD_RW 
.................... #define GLCD_RW      PIN_B6   // Read/Write 
.................... #endif 
....................  
.................... #ifndef GLCD_E 
.................... #define GLCD_E       PIN_B7   // Enable 
.................... #endif 
....................  
.................... #ifndef GLCD_RST 
.................... #define GLCD_RST     PIN_B4   // Reset 
.................... #endif 
....................  
.................... #define GLCD_LEFT    0 
.................... #define GLCD_RIGHT   1 
....................  
.................... #ifndef ON 
.................... #define ON           1 
.................... #endif 
....................  
.................... #ifndef OFF 
.................... #define OFF          0 
.................... #endif 
....................  
.................... ///////////////////////////////////////////////////////////////////////// 
.................... // Function Prototypes 
.................... ///////////////////////////////////////////////////////////////////////// 
.................... void glcd_init(int1 mode); 
.................... void glcd_pixel(int8 x, int8 y, int1 color); 
.................... void glcd_fillScreen(int1 color); 
.................... void glcd_writeByte(int1 side, BYTE data); 
.................... BYTE glcd_readByte(int1 side); 
.................... void glcd_update(); 
.................... ///////////////////////////////////////////////////////////////////////// 
....................  
.................... #ifdef FAST_GLCD 
.................... struct 
.................... { 
....................    int8 left[512]; 
....................    int8 right[512]; 
.................... } displayData; 
.................... #endif 
....................  
....................  
.................... // Purpose:       Initialize the LCD. 
.................... //                Call before using any other LCD function. 
.................... // Inputs:        OFF - Turns the LCD off 
.................... //                ON  - Turns the LCD on 
.................... void glcd_init(int1 mode) 
.................... { 
....................    // Initialze some pins 
....................    output_high(GLCD_RST); 
*
01348:  BCF    F93.4
0134A:  BSF    F8A.4
....................    output_low(GLCD_E); 
0134C:  BCF    F93.7
0134E:  BCF    F8A.7
....................    output_low(GLCD_CS1); 
01350:  BCF    F93.2
01352:  BCF    F8A.2
....................    output_low(GLCD_CS2); 
01354:  BCF    F93.3
01356:  BCF    F8A.3
....................  
....................    output_low(GLCD_DI);                 // Set for instruction 
01358:  BCF    F93.5
0135A:  BCF    F8A.5
....................    glcd_writeByte(GLCD_LEFT,  0xC0);    // Specify first RAM line at the top 
0135C:  MOVLB  7
0135E:  CLRF   xA2
01360:  MOVLW  C0
01362:  MOVWF  xA3
01364:  MOVLB  0
01366:  RCALL  1208
....................    glcd_writeByte(GLCD_RIGHT, 0xC0);    //   of the screen 
01368:  MOVLW  01
0136A:  MOVLB  7
0136C:  MOVWF  xA2
0136E:  MOVLW  C0
01370:  MOVWF  xA3
01372:  MOVLB  0
01374:  RCALL  1208
....................    glcd_writeByte(GLCD_LEFT,  0x40);    // Set the column address to 0 
01376:  MOVLB  7
01378:  CLRF   xA2
0137A:  MOVLW  40
0137C:  MOVWF  xA3
0137E:  MOVLB  0
01380:  RCALL  1208
....................    glcd_writeByte(GLCD_RIGHT, 0x40); 
01382:  MOVLW  01
01384:  MOVLB  7
01386:  MOVWF  xA2
01388:  MOVLW  40
0138A:  MOVWF  xA3
0138C:  MOVLB  0
0138E:  RCALL  1208
....................    glcd_writeByte(GLCD_LEFT,  0xB8);    // Set the page address to 0 
01390:  MOVLB  7
01392:  CLRF   xA2
01394:  MOVLW  B8
01396:  MOVWF  xA3
01398:  MOVLB  0
0139A:  RCALL  1208
....................    glcd_writeByte(GLCD_RIGHT, 0xB8); 
0139C:  MOVLW  01
0139E:  MOVLB  7
013A0:  MOVWF  xA2
013A2:  MOVLW  B8
013A4:  MOVWF  xA3
013A6:  MOVLB  0
013A8:  RCALL  1208
....................  
....................    if(mode == ON) 
013AA:  MOVLB  7
013AC:  DECFSZ x85,W
013AE:  BRA    13CC
....................    { 
....................       glcd_writeByte(GLCD_LEFT,  0x3F); // Turn the display on 
013B0:  CLRF   xA2
013B2:  MOVLW  3F
013B4:  MOVWF  xA3
013B6:  MOVLB  0
013B8:  RCALL  1208
....................       glcd_writeByte(GLCD_RIGHT, 0x3F); 
013BA:  MOVLW  01
013BC:  MOVLB  7
013BE:  MOVWF  xA2
013C0:  MOVLW  3F
013C2:  MOVWF  xA3
013C4:  MOVLB  0
013C6:  RCALL  1208
....................    } 
013C8:  BRA    13E4
013CA:  MOVLB  7
....................    else 
....................    { 
....................       glcd_writeByte(GLCD_LEFT,  0x3E); // Turn the display off 
013CC:  CLRF   xA2
013CE:  MOVLW  3E
013D0:  MOVWF  xA3
013D2:  MOVLB  0
013D4:  RCALL  1208
....................       glcd_writeByte(GLCD_RIGHT, 0x3E); 
013D6:  MOVLW  01
013D8:  MOVLB  7
013DA:  MOVWF  xA2
013DC:  MOVLW  3E
013DE:  MOVWF  xA3
013E0:  MOVLB  0
013E2:  RCALL  1208
....................    } 
....................  
....................    glcd_fillScreen(OFF);                // Clear the display 
013E4:  MOVLB  7
013E6:  CLRF   x86
013E8:  MOVLB  0
013EA:  RCALL  123E
....................  
....................    #ifdef FAST_GLCD 
....................    glcd_update(); 
013EC:  RCALL  1298
....................    #endif 
013EE:  RETURN 0
.................... } 
....................  
....................  
.................... // Purpose:    Update the LCD with data from the display arrays 
.................... #ifdef FAST_GLCD 
.................... void glcd_update() 
.................... { 
....................    int8 i, j; 
....................    int8 *p1, *p2; 
....................  
....................    p1 = displayData.left; 
*
01298:  MOVLB  7
0129A:  CLRF   x9E
0129C:  MOVLW  1B
0129E:  MOVWF  x9D
....................    p2 = displayData.right; 
012A0:  MOVLW  02
012A2:  MOVWF  xA0
012A4:  MOVLW  1B
012A6:  MOVWF  x9F
....................  
....................    // Loop through the vertical pages 
....................    for(i = 0; i < 8; ++i) 
012A8:  CLRF   x9B
012AA:  MOVF   x9B,W
012AC:  SUBLW  07
012AE:  BNC   1344
....................    { 
....................       output_low(GLCD_DI);                      // Set for instruction 
012B0:  BCF    F93.5
012B2:  BCF    F8A.5
....................       glcd_writeByte(GLCD_LEFT, 0x40);          // Set horizontal address to 0 
012B4:  CLRF   xA2
012B6:  MOVLW  40
012B8:  MOVWF  xA3
012BA:  MOVLB  0
012BC:  RCALL  1208
....................       glcd_writeByte(GLCD_RIGHT, 0x40); 
012BE:  MOVLW  01
012C0:  MOVLB  7
012C2:  MOVWF  xA2
012C4:  MOVLW  40
012C6:  MOVWF  xA3
012C8:  MOVLB  0
012CA:  RCALL  1208
....................       glcd_writeByte(GLCD_LEFT, i | 0xB8);      // Set page address 
012CC:  MOVLB  7
012CE:  MOVF   x9B,W
012D0:  IORLW  B8
012D2:  MOVWF  xA1
012D4:  CLRF   xA2
012D6:  MOVWF  xA3
012D8:  MOVLB  0
012DA:  RCALL  1208
....................       glcd_writeByte(GLCD_RIGHT, i | 0xB8); 
012DC:  MOVLB  7
012DE:  MOVF   x9B,W
012E0:  IORLW  B8
012E2:  MOVWF  xA1
012E4:  MOVLW  01
012E6:  MOVWF  xA2
012E8:  MOVFF  7A1,7A3
012EC:  MOVLB  0
012EE:  RCALL  1208
....................       output_high(GLCD_DI);                     // Set for data 
012F0:  BCF    F93.5
012F2:  BSF    F8A.5
....................  
....................       // Loop through the horizontal sections 
....................       for(j = 0; j < 64; ++j) 
012F4:  MOVLB  7
012F6:  CLRF   x9C
012F8:  MOVF   x9C,W
012FA:  SUBLW  3F
012FC:  BNC   1340
....................       { 
....................          glcd_writeByte(GLCD_LEFT, *p1++);      // Turn pixels on or off 
012FE:  MOVFF  79E,03
01302:  MOVF   x9D,W
01304:  INCF   x9D,F
01306:  BTFSC  FD8.2
01308:  INCF   x9E,F
0130A:  MOVWF  FE9
0130C:  MOVFF  03,FEA
01310:  MOVFF  FEF,7A3
01314:  CLRF   xA2
01316:  MOVLB  0
01318:  RCALL  1208
....................          glcd_writeByte(GLCD_RIGHT, *p2++);     // Turn pixels on or off 
0131A:  MOVLB  7
0131C:  MOVFF  7A0,03
01320:  MOVF   x9F,W
01322:  INCF   x9F,F
01324:  BTFSC  FD8.2
01326:  INCF   xA0,F
01328:  MOVWF  FE9
0132A:  MOVFF  03,FEA
0132E:  MOVFF  FEF,7A3
01332:  MOVLW  01
01334:  MOVWF  xA2
01336:  MOVLB  0
01338:  RCALL  1208
0133A:  MOVLB  7
0133C:  INCF   x9C,F
0133E:  BRA    12F8
....................       } 
01340:  INCF   x9B,F
01342:  BRA    12AA
....................    } 
01344:  MOVLB  0
01346:  RETURN 0
.................... } 
.................... #endif 
....................  
....................  
.................... // Purpose:    Turn a pixel on a graphic LCD on or off 
.................... // Inputs:     1) x - the x coordinate of the pixel 
.................... //             2) y - the y coordinate of the pixel 
.................... //             3) color - ON or OFF 
.................... void glcd_pixel(int8 x, int8 y, int1 color) 
.................... #ifdef FAST_GLCD 
.................... { 
....................    int8* p; 
....................    int16 temp; 
....................    temp =  y/8; 
*
013F0:  MOVLB  7
013F2:  CLRF   xBF
013F4:  RRCF   xBA,W
013F6:  MOVWF  xBE
013F8:  RRCF   xBE,F
013FA:  RRCF   xBE,F
013FC:  MOVLW  1F
013FE:  ANDWF  xBE,F
....................    temp *= 64; 
01400:  RLCF   xBE,F
01402:  RLCF   xBF,F
01404:  RLCF   xBE,F
01406:  RLCF   xBF,F
01408:  RLCF   xBE,F
0140A:  RLCF   xBF,F
0140C:  RLCF   xBE,F
0140E:  RLCF   xBF,F
01410:  RLCF   xBE,F
01412:  RLCF   xBF,F
01414:  RLCF   xBE,F
01416:  RLCF   xBF,F
01418:  MOVLW  C0
0141A:  ANDWF  xBE,F
....................    temp += x; 
0141C:  MOVF   xB9,W
0141E:  ADDWF  xBE,F
01420:  MOVLW  00
01422:  ADDWFC xBF,F
....................  
....................    if(x > 63) 
01424:  MOVF   xB9,W
01426:  SUBLW  3F
01428:  BC    1444
....................    { 
....................       p = displayData.right + temp - 64; 
0142A:  MOVLW  1B
0142C:  ADDWF  xBE,W
0142E:  MOVWF  xC0
01430:  MOVLW  02
01432:  ADDWFC xBF,W
01434:  MOVWF  xC1
01436:  MOVLW  40
01438:  SUBWF  xC0,W
0143A:  MOVWF  xBC
0143C:  MOVLW  00
0143E:  SUBWFB xC1,W
01440:  MOVWF  xBD
....................    } 
01442:  BRA    1450
....................    else 
....................    { 
....................       p = displayData.left + temp; 
01444:  MOVLW  1B
01446:  ADDWF  xBE,W
01448:  MOVWF  xBC
0144A:  MOVLW  00
0144C:  ADDWFC xBF,W
0144E:  MOVWF  xBD
....................    } 
....................  
....................    if(color) 
01450:  MOVF   xBB,F
01452:  BZ    147E
....................    { 
....................       bit_set(*p, y%8); 
01454:  MOVFF  7BD,03
01458:  MOVFF  7BC,FE9
0145C:  MOVFF  7BD,FEA
01460:  MOVF   xBA,W
01462:  ANDLW  07
01464:  MOVWF  xC0
01466:  MOVLW  01
01468:  MOVWF  00
0146A:  MOVF   xC0,W
0146C:  MOVWF  01
0146E:  BZ    1478
01470:  BCF    FD8.0
01472:  RLCF   00,F
01474:  DECFSZ 01,F
01476:  BRA    1470
01478:  MOVF   00,W
0147A:  IORWF  FEF,F
....................    } 
0147C:  BRA    14A8
....................    else 
....................    { 
....................       bit_clear(*p, y%8); 
0147E:  MOVFF  7BD,03
01482:  MOVFF  7BC,FE9
01486:  MOVFF  7BD,FEA
0148A:  MOVF   xBA,W
0148C:  ANDLW  07
0148E:  MOVWF  xC0
01490:  MOVLW  01
01492:  MOVWF  00
01494:  MOVF   xC0,W
01496:  MOVWF  01
01498:  BZ    14A2
0149A:  BCF    FD8.0
0149C:  RLCF   00,F
0149E:  DECFSZ 01,F
014A0:  BRA    149A
014A2:  MOVF   00,W
014A4:  XORLW  FF
014A6:  ANDWF  FEF,F
....................    } 
014A8:  MOVLB  0
014AA:  RETURN 0
.................... } 
.................... #else 
.................... { 
....................    BYTE data; 
....................    int1 side = GLCD_LEFT;  // Stores which chip to use on the LCD 
....................  
....................    if(x > 63)              // Check for first or second display area 
....................    { 
....................       x -= 64; 
....................       side = GLCD_RIGHT; 
....................    } 
....................  
....................    output_low(GLCD_DI);                         // Set for instruction 
....................    bit_clear(x,7);                              // Clear the MSB. Part of an instruction code 
....................    bit_set(x,6);                                // Set bit 6. Also part of an instruction code 
....................    glcd_writeByte(side, x);                     // Set the horizontal address 
....................    glcd_writeByte(side, (y/8 & 0xBF) | 0xB8);   // Set the vertical page address 
....................    output_high(GLCD_DI);                        // Set for data 
....................    glcd_readByte(side);                         // Need two reads to get data 
....................    data = glcd_readByte(side);                  //  at new address 
....................  
....................    if(color == ON) 
....................       bit_set(data, y%8);        // Turn the pixel on 
....................    else                          // or 
....................       bit_clear(data, y%8);      // turn the pixel off 
....................  
....................    output_low(GLCD_DI);          // Set for instruction 
....................    glcd_writeByte(side, x);      // Set the horizontal address 
....................    output_high(GLCD_DI);         // Set for data 
....................    glcd_writeByte(side, data);   // Write the pixel data 
.................... } 
.................... #endif 
....................  
....................  
.................... // Purpose:    Fill the LCD screen with the passed in color 
.................... // Inputs:     ON  - turn all the pixels on 
.................... //             OFF - turn all the pixels off 
.................... void glcd_fillScreen(int1 color) 
.................... #ifdef FAST_GLCD 
.................... { 
....................    int8  data; 
....................    int8  *p1, *p2; 
....................    int16 i; 
....................  
....................    p1 = displayData.left; 
*
0123E:  MOVLB  7
01240:  CLRF   x89
01242:  MOVLW  1B
01244:  MOVWF  x88
....................    p2 = displayData.right; 
01246:  MOVLW  02
01248:  MOVWF  x8B
0124A:  MOVLW  1B
0124C:  MOVWF  x8A
....................    data = 0xFF * color; 
0124E:  MOVF   x86,W
01250:  MULLW  FF
01252:  MOVFF  FF3,787
....................  
....................    for(i=0; i<512; ++i) 
01256:  CLRF   x8D
01258:  CLRF   x8C
0125A:  MOVF   x8D,W
0125C:  SUBLW  01
0125E:  BNC   1294
....................    { 
....................       *p1++ = data; 
01260:  MOVFF  789,03
01264:  MOVF   x88,W
01266:  INCF   x88,F
01268:  BTFSC  FD8.2
0126A:  INCF   x89,F
0126C:  MOVWF  FE9
0126E:  MOVFF  03,FEA
01272:  MOVFF  787,FEF
....................       *p2++ = data; 
01276:  MOVFF  78B,03
0127A:  MOVF   x8A,W
0127C:  INCF   x8A,F
0127E:  BTFSC  FD8.2
01280:  INCF   x8B,F
01282:  MOVWF  FE9
01284:  MOVFF  03,FEA
01288:  MOVFF  787,FEF
0128C:  INCF   x8C,F
0128E:  BTFSC  FD8.2
01290:  INCF   x8D,F
01292:  BRA    125A
....................    } 
01294:  MOVLB  0
01296:  RETURN 0
.................... } 
.................... #else 
.................... { 
....................    int8 i, j; 
....................  
....................    // Loop through the vertical pages 
....................    for(i = 0; i < 8; ++i) 
....................    { 
....................       output_low(GLCD_DI);                      // Set for instruction 
....................       glcd_writeByte(GLCD_LEFT, 0b01000000);    // Set horizontal address to 0 
....................       glcd_writeByte(GLCD_RIGHT, 0b01000000); 
....................       glcd_writeByte(GLCD_LEFT, i | 0b10111000);// Set page address 
....................       glcd_writeByte(GLCD_RIGHT, i | 0b10111000); 
....................       output_high(GLCD_DI);                     // Set for data 
....................  
....................       // Loop through the horizontal sections 
....................       for(j = 0; j < 64; ++j) 
....................       { 
....................          glcd_writeByte(GLCD_LEFT, 0xFF*color);  // Turn pixels on or off 
....................          glcd_writeByte(GLCD_RIGHT, 0xFF*color); // Turn pixels on or off 
....................       } 
....................    } 
.................... } 
.................... #endif 
....................  
....................  
.................... // Purpose:    Write a byte of data to the specified chip 
.................... // Inputs:     1) chipSelect - which chip to write the data to 
.................... //             2) data - the byte of data to write 
.................... void glcd_writeByte(int1 side, BYTE data) 
.................... { 
....................    if(side)                   // Choose which side to write to 
*
01208:  MOVLB  7
0120A:  MOVF   xA2,F
0120C:  BZ    1214
....................       output_high(GLCD_CS2); 
0120E:  BCF    F93.3
01210:  BSF    F8A.3
01212:  BRA    1218
....................    else 
....................       output_high(GLCD_CS1); 
01214:  BCF    F93.2
01216:  BSF    F8A.2
....................  
....................    output_low(GLCD_RW);       // Set for writing 
01218:  BCF    F93.6
0121A:  BCF    F8A.6
....................    output_d(data);            // Put the data on the port 
0121C:  CLRF   F95
0121E:  MOVFF  7A3,F8C
....................    delay_cycles(1); 
01222:  NOP   
....................    output_high(GLCD_E);       // Pulse the enable pin 
01224:  BCF    F93.7
01226:  BSF    F8A.7
....................    delay_cycles(5); 
01228:  BRA    122A
0122A:  BRA    122C
0122C:  NOP   
....................    output_low(GLCD_E); 
0122E:  BCF    F93.7
01230:  BCF    F8A.7
....................  
....................    output_low(GLCD_CS1);      // Reset the chip select lines 
01232:  BCF    F93.2
01234:  BCF    F8A.2
....................    output_low(GLCD_CS2); 
01236:  BCF    F93.3
01238:  BCF    F8A.3
0123A:  MOVLB  0
0123C:  RETURN 0
.................... } 
....................  
....................  
.................... // Purpose:    Reads a byte of data from the specified chip 
.................... // Ouputs:     A byte of data read from the chip 
.................... BYTE glcd_readByte(int1 side) 
.................... { 
....................    BYTE data;                 // Stores the data read from the LCD 
....................  
....................    set_tris_d(0xFF);          // Set port d to input 
....................    output_high(GLCD_RW);      // Set for reading 
....................  
....................    if(side)                   // Choose which side to write to 
....................       output_high(GLCD_CS2); 
....................    else 
....................       output_high(GLCD_CS1); 
....................  
....................    delay_cycles(1); 
....................    output_high(GLCD_E);       // Pulse the enable pin 
....................    delay_cycles(4); 
....................    data = input_d();          // Get the data from the display's output register 
....................    output_low(GLCD_E); 
....................  
....................    output_low(GLCD_CS1);      // Reset the chip select lines 
....................    output_low(GLCD_CS2); 
....................    return data;               // Return the read data 
.................... } 
....................  
.................... #endif 
....................  
.................... #include "GRAPHICS.c" 
.................... ///////////////////////////////////////////////////////////////////////// 
.................... ////                          graphics.c                             //// 
.................... ////                                                                 //// 
.................... ////   This file contains functions to draw lines, rectangles, bars, //// 
.................... ////   circles and text to a display. A function which draws a       //// 
.................... ////   single pixel must be defined before calling the functions in  //// 
.................... ////   this file. Call it glcd_pixel(x, y, color) where x is the     //// 
.................... ////   horizontal coordinate, y is the vertical coordinate, and      //// 
.................... ////   color is 1 bit to turn the pixel on or off.                   //// 
.................... ////                                                                 //// 
.................... ////   * Note: (0, 0) is treated as the upper left corner            //// 
.................... ////                                                                 //// 
.................... ///////////////////////////////////////////////////////////////////////// 
.................... ////                                                                 //// 
.................... ////  glcd_line(x1, y1, x2, y2, color)                               //// 
.................... ////     * Draws a line from the first point to the second point     //// 
.................... ////       with the given color                                      //// 
.................... ////       - color can be ON or OFF                                  //// 
.................... ////                                                                 //// 
.................... ////  glcd_rect(x1, y1, x2, y2, fill, color)                         //// 
.................... ////     * Draws a rectangle with one corner at point (x1,y1) and    //// 
.................... ////       the other corner at point (x2,y2)                         //// 
.................... ////       - fill can be YES or NO                                   //// 
.................... ////       - color can be ON or OFF                                  //// 
.................... ////                                                                 //// 
.................... ////  glcd_bar(x1, y1, x2, y2, width, color)                         //// 
.................... ////     * Draws a bar (wide line) from the first point to the       //// 
.................... ////       second point                                              //// 
.................... ////       - width is the number of pixels wide                      //// 
.................... ////       - color is ON or OFF                                      //// 
.................... ////                                                                 //// 
.................... ////  glcd_circle(x, y, radius, fill, color)                         //// 
.................... ////     * Draws a circle with center at (x,y)                       //// 
.................... ////       - fill can be YES or NO                                   //// 
.................... ////       - color can be ON or OFF                                  //// 
.................... ////                                                                 //// 
.................... ////  glcd_text57(x, y, textptr, size, color)                        //// 
.................... ////     * Write the null terminated text pointed to by textptr with //// 
.................... ////       the upper left coordinate of the first character at (x,y) //// 
.................... ////       Characters are 5 pixels wide and 7 pixels tall            //// 
.................... ////       - size is an integer that scales the size of the text     //// 
.................... ////       - color is ON or OFF                                      //// 
.................... ////     * Note - This function wraps characters to the next line    //// 
.................... ////              use #define GLCD_WIDTH to specify a display width  //// 
.................... ////                                                                 //// 
.................... ///////////////////////////////////////////////////////////////////////// 
.................... ////        (C) Copyright 1996, 2004 Custom Computer Services        //// 
.................... //// This source code may only be used by licensed users of the CCS  //// 
.................... //// C compiler.  This source code may only be distributed to other  //// 
.................... //// licensed users of the CCS C compiler.  No other use,            //// 
.................... //// reproduction or distribution is permitted without written       //// 
.................... //// permission.  Derivative programs created using this software    //// 
.................... //// in object code form are not restricted in any way.              //// 
.................... ///////////////////////////////////////////////////////////////////////// 
....................  
....................  
.................... ///////////////////////////////////////////////////////////////////////// 
.................... #ifndef GRAPHICS_DRAWING_FUNCTIONS 
.................... #define GRAPHICS_DRAWING_FUNCTIONS 
.................... ///////////////////////////////////////////////////////////////////////// 
....................  
....................  
.................... ///////////////////////////////////////////////////////////////////////// 
.................... #ifndef ON 
.................... #define ON  1 
.................... #endif 
....................  
.................... #ifndef OFF 
.................... #define OFF 0 
.................... #endif 
....................  
.................... #ifndef YES 
.................... #define YES 1 
.................... #endif 
....................  
.................... #ifndef NO 
.................... #define NO  0 
.................... #endif 
.................... ///////////////////////////////////////////////////////////////////////// 
....................  
....................  
.................... ///////////////////////////////////////////////////////////////////////// 
.................... //// Defines a 5x7 font 
.................... ///////////////////////////////////////////////////////////////////////// 
.................... const int8 FONT[51][5] ={0x00, 0x00, 0x00, 0x00, 0x00, // SPACE 
....................                          0x00, 0x00, 0x5F, 0x00, 0x00, // ! 
....................                          0x00, 0x03, 0x00, 0x03, 0x00, // " 
....................                          0x14, 0x3E, 0x14, 0x3E, 0x14, // # 
....................                          0x24, 0x2A, 0x7F, 0x2A, 0x12, // $ 
....................                          0x43, 0x33, 0x08, 0x66, 0x61, // % 
....................                          0x36, 0x49, 0x55, 0x22, 0x50, // & 
....................                          0x00, 0x05, 0x03, 0x00, 0x00, // ' 
....................                          0x00, 0x1C, 0x22, 0x41, 0x00, // ( 
....................                          0x00, 0x41, 0x22, 0x1C, 0x00, // ) 
....................                          0x14, 0x08, 0x3E, 0x08, 0x14, // * 
....................                          0x08, 0x08, 0x3E, 0x08, 0x08, // + 
....................                          0x00, 0x50, 0x30, 0x00, 0x00, // , 
....................                          0x08, 0x08, 0x08, 0x08, 0x08, // - 
....................                          0x00, 0x60, 0x60, 0x00, 0x00, // . 
....................                          0x20, 0x10, 0x08, 0x04, 0x02, // / 
....................                          0x3E, 0x51, 0x49, 0x45, 0x3E, // 0 
....................                          0x00, 0x04, 0x02, 0x7F, 0x00, // 1 
....................                          0x42, 0x61, 0x51, 0x49, 0x46, // 2 
....................                          0x22, 0x41, 0x49, 0x49, 0x36, // 3 
....................                          0x18, 0x14, 0x12, 0x7F, 0x10, // 4 
....................                          0x27, 0x45, 0x45, 0x45, 0x39, // 5 
....................                          0x3E, 0x49, 0x49, 0x49, 0x32, // 6 
....................                          0x01, 0x01, 0x71, 0x09, 0x07, // 7 
....................                          0x36, 0x49, 0x49, 0x49, 0x36, // 8 
....................                          0x26, 0x49, 0x49, 0x49, 0x3E, // 9 
....................                          0x00, 0x36, 0x36, 0x00, 0x00, // : 
....................                          0x00, 0x56, 0x36, 0x00, 0x00, // ; 
....................                          0x08, 0x14, 0x22, 0x41, 0x00, // < 
....................                          0x14, 0x14, 0x14, 0x14, 0x14, // = 
....................                          0x00, 0x41, 0x22, 0x14, 0x08, // > 
....................                          0x02, 0x01, 0x51, 0x09, 0x06, // ? 
....................                          0x3E, 0x41, 0x59, 0x55, 0x5E, // @ 
....................                          0x7E, 0x09, 0x09, 0x09, 0x7E, // A 
....................                          0x7F, 0x49, 0x49, 0x49, 0x36, // B 
....................                          0x3E, 0x41, 0x41, 0x41, 0x22, // C 
....................                          0x7F, 0x41, 0x41, 0x41, 0x3E, // D 
....................                          0x7F, 0x49, 0x49, 0x49, 0x41, // E 
....................                          0x7F, 0x09, 0x09, 0x09, 0x01, // F 
....................                          0x3E, 0x41, 0x41, 0x49, 0x3A, // G 
....................                          0x7F, 0x08, 0x08, 0x08, 0x7F, // H 
....................                          0x00, 0x41, 0x7F, 0x41, 0x00, // I 
....................                          0x30, 0x40, 0x40, 0x40, 0x3F, // J 
....................                          0x7F, 0x08, 0x14, 0x22, 0x41, // K 
....................                          0x7F, 0x40, 0x40, 0x40, 0x40, // L 
....................                          0x7F, 0x02, 0x0C, 0x02, 0x7F, // M 
....................                          0x7F, 0x02, 0x04, 0x08, 0x7F, // N 
....................                          0x3E, 0x41, 0x41, 0x41, 0x3E, // O 
....................                          0x7F, 0x09, 0x09, 0x09, 0x06, // P 
....................                          0x1E, 0x21, 0x21, 0x21, 0x5E, // Q 
....................                          0x7F, 0x09, 0x09, 0x09, 0x76};// R 
....................  
.................... const int8 FONT2[44][5]={0x26, 0x49, 0x49, 0x49, 0x32, // S 
....................                          0x01, 0x01, 0x7F, 0x01, 0x01, // T 
....................                          0x3F, 0x40, 0x40, 0x40, 0x3F, // U 
....................                          0x1F, 0x20, 0x40, 0x20, 0x1F, // V 
....................                          0x7F, 0x20, 0x10, 0x20, 0x7F, // W 
....................                          0x41, 0x22, 0x1C, 0x22, 0x41, // X 
....................                          0x07, 0x08, 0x70, 0x08, 0x07, // Y 
....................                          0x61, 0x51, 0x49, 0x45, 0x43, // Z 
....................                          0x00, 0x7F, 0x41, 0x00, 0x00, // [ 
....................                          0x02, 0x04, 0x08, 0x10, 0x20, // \ 
....................                          0x00, 0x00, 0x41, 0x7F, 0x00, // ] 
....................                          0x04, 0x02, 0x01, 0x02, 0x04, // ^ 
....................                          0x40, 0x40, 0x40, 0x40, 0x40, // _ 
....................                          0x00, 0x01, 0x02, 0x04, 0x00, // ` 
....................                          0x20, 0x54, 0x54, 0x54, 0x78, // a 
....................                          0x7F, 0x44, 0x44, 0x44, 0x38, // b 
....................                          0x38, 0x44, 0x44, 0x44, 0x44, // c 
....................                          0x38, 0x44, 0x44, 0x44, 0x7F, // d 
....................                          0x38, 0x54, 0x54, 0x54, 0x18, // e 
....................                          0x04, 0x04, 0x7E, 0x05, 0x05, // f 
....................                          0x08, 0x54, 0x54, 0x54, 0x3C, // g 
....................                          0x7F, 0x08, 0x04, 0x04, 0x78, // h 
....................                          0x00, 0x44, 0x7D, 0x40, 0x00, // i 
....................                          0x20, 0x40, 0x44, 0x3D, 0x00, // j 
....................                          0x7F, 0x10, 0x28, 0x44, 0x00, // k 
....................                          0x00, 0x41, 0x7F, 0x40, 0x00, // l 
....................                          0x7C, 0x04, 0x78, 0x04, 0x78, // m 
....................                          0x7C, 0x08, 0x04, 0x04, 0x78, // n 
....................                          0x38, 0x44, 0x44, 0x44, 0x38, // o 
....................                          0x7C, 0x14, 0x14, 0x14, 0x08, // p 
....................                          0x08, 0x14, 0x14, 0x14, 0x7C, // q 
....................                          0x00, 0x7C, 0x08, 0x04, 0x04, // r 
....................                          0x48, 0x54, 0x54, 0x54, 0x20, // s 
....................                          0x04, 0x04, 0x3F, 0x44, 0x44, // t 
....................                          0x3C, 0x40, 0x40, 0x20, 0x7C, // u 
....................                          0x1C, 0x20, 0x40, 0x20, 0x1C, // v 
....................                          0x3C, 0x40, 0x30, 0x40, 0x3C, // w 
....................                          0x44, 0x28, 0x10, 0x28, 0x44, // x 
....................                          0x0C, 0x50, 0x50, 0x50, 0x3C, // y 
....................                          0x44, 0x64, 0x54, 0x4C, 0x44, // z 
....................                          0x00, 0x08, 0x36, 0x41, 0x41, // { 
....................                          0x00, 0x00, 0x7F, 0x00, 0x00, // | 
....................                          0x41, 0x41, 0x36, 0x08, 0x00, // } 
....................                          0x02, 0x01, 0x02, 0x04, 0x02};// ~ 
.................... ///////////////////////////////////////////////////////////////////////// 
....................  
....................  
.................... ///////////////////////////////////////////////////////////////////////// 
.................... // Purpose:       Draw a line on a graphic LCD using Bresenham's 
.................... //                line drawing algorithm 
.................... // Inputs:        (x1, y1) - the start coordinate 
.................... //                (x2, y2) - the end coordinate 
.................... //                color - ON or OFF 
.................... // Dependencies:  glcd_pixel() 
.................... ///////////////////////////////////////////////////////////////////////// 
.................... #ifdef LARGE_LCD 
.................... void glcd_line(int16 x1, int16 y1, int16 x2, int16 y2, int1 color) 
.................... #else 
.................... void glcd_line(int8 x1, int8 y1, int8 x2, int8 y2, int1 color) 
.................... #endif 
*
0164A:  MOVLW  01
0164C:  MOVLB  7
0164E:  MOVWF  xB2
01650:  MOVWF  xB3
01652:  CLRF   xB8
.................... { 
....................    int16        dy, dx; 
....................    signed int8  addx=1, addy=1; 
....................    signed int16 P, diff; 
....................  
....................    #ifdef LARGE_LCD 
....................    int16 i=0; 
....................    dx = abs((signed int16)(x2 - x1)); 
....................    dy = abs((signed int16)(y2 - y1)); 
....................    #else 
....................    int8 i=0; 
....................    dx = abs((signed int8)(x2 - x1)); 
01654:  MOVF   xA9,W
01656:  SUBWF  xAB,W
01658:  MOVWF  xB9
0165A:  MOVF   xB9,W
0165C:  BTFSS  xB9.7
0165E:  BRA    1666
01660:  MOVLW  00
01662:  BSF    FD8.0
01664:  SUBFWB xB9,W
01666:  CLRF   03
01668:  MOVWF  xB0
0166A:  MOVFF  03,7B1
....................    dy = abs((signed int8)(y2 - y1)); 
0166E:  MOVF   xAA,W
01670:  SUBWF  xAC,W
01672:  MOVWF  xB9
01674:  MOVF   xB9,W
01676:  BTFSS  xB9.7
01678:  BRA    1680
0167A:  MOVLW  00
0167C:  BSF    FD8.0
0167E:  SUBFWB xB9,W
01680:  CLRF   03
01682:  MOVWF  xAE
01684:  MOVFF  03,7AF
....................    #endif 
....................  
....................    if(x1 > x2) 
01688:  MOVF   xA9,W
0168A:  SUBWF  xAB,W
0168C:  BC    1690
....................       addx = -1; 
0168E:  SETF   xB2
....................    if(y1 > y2) 
01690:  MOVF   xAA,W
01692:  SUBWF  xAC,W
01694:  BC    1698
....................       addy = -1; 
01696:  SETF   xB3
....................  
....................    if(dx >= dy) 
01698:  MOVF   xAF,W
0169A:  SUBWF  xB1,W
0169C:  BNC   1712
0169E:  BNZ   16A6
016A0:  MOVF   xAE,W
016A2:  SUBWF  xB0,W
016A4:  BNC   1712
....................    { 
....................       dy *= 2; 
016A6:  BCF    FD8.0
016A8:  RLCF   xAE,F
016AA:  RLCF   xAF,F
....................       P = dy - dx; 
016AC:  MOVF   xB0,W
016AE:  SUBWF  xAE,W
016B0:  MOVWF  00
016B2:  MOVF   xB1,W
016B4:  SUBWFB xAF,W
016B6:  MOVFF  00,7B4
016BA:  MOVWF  xB5
....................       diff = P - dx; 
016BC:  MOVF   xB0,W
016BE:  SUBWF  xB4,W
016C0:  MOVWF  xB6
016C2:  MOVF   xB1,W
016C4:  SUBWFB xB5,W
016C6:  MOVWF  xB7
....................  
....................       for(; i<=dx; ++i) 
016C8:  MOVF   xB1,F
016CA:  BNZ   16D2
016CC:  MOVF   xB8,W
016CE:  SUBWF  xB0,W
016D0:  BNC   1710
....................       { 
....................          glcd_pixel(x1, y1, color); 
016D2:  MOVFF  7A9,7B9
016D6:  MOVFF  7AA,7BA
016DA:  MOVFF  7AD,7BB
016DE:  MOVLB  0
016E0:  RCALL  13F0
....................  
....................          if(P < 0) 
016E2:  MOVLB  7
016E4:  BTFSS  xB5.7
016E6:  BRA    16F8
....................          { 
....................             P  += dy; 
016E8:  MOVF   xAE,W
016EA:  ADDWF  xB4,F
016EC:  MOVF   xAF,W
016EE:  ADDWFC xB5,F
....................             x1 += addx; 
016F0:  MOVF   xB2,W
016F2:  ADDWF  xA9,W
016F4:  MOVWF  xA9
....................          } 
016F6:  BRA    170C
....................          else 
....................          { 
....................             P  += diff; 
016F8:  MOVF   xB6,W
016FA:  ADDWF  xB4,F
016FC:  MOVF   xB7,W
016FE:  ADDWFC xB5,F
....................             x1 += addx; 
01700:  MOVF   xB2,W
01702:  ADDWF  xA9,W
01704:  MOVWF  xA9
....................             y1 += addy; 
01706:  MOVF   xB3,W
01708:  ADDWF  xAA,W
0170A:  MOVWF  xAA
....................          } 
0170C:  INCF   xB8,F
0170E:  BRA    16C8
....................       } 
....................    } 
01710:  BRA    177C
....................    else 
....................    { 
....................       dx *= 2; 
01712:  BCF    FD8.0
01714:  RLCF   xB0,F
01716:  RLCF   xB1,F
....................       P = dx - dy; 
01718:  MOVF   xAE,W
0171A:  SUBWF  xB0,W
0171C:  MOVWF  00
0171E:  MOVF   xAF,W
01720:  SUBWFB xB1,W
01722:  MOVFF  00,7B4
01726:  MOVWF  xB5
....................       diff = P - dy; 
01728:  MOVF   xAE,W
0172A:  SUBWF  xB4,W
0172C:  MOVWF  xB6
0172E:  MOVF   xAF,W
01730:  SUBWFB xB5,W
01732:  MOVWF  xB7
....................  
....................       for(; i<=dy; ++i) 
01734:  MOVF   xAF,F
01736:  BNZ   173E
01738:  MOVF   xB8,W
0173A:  SUBWF  xAE,W
0173C:  BNC   177C
....................       { 
....................          glcd_pixel(x1, y1, color); 
0173E:  MOVFF  7A9,7B9
01742:  MOVFF  7AA,7BA
01746:  MOVFF  7AD,7BB
0174A:  MOVLB  0
0174C:  RCALL  13F0
....................  
....................          if(P < 0) 
0174E:  MOVLB  7
01750:  BTFSS  xB5.7
01752:  BRA    1764
....................          { 
....................             P  += dx; 
01754:  MOVF   xB0,W
01756:  ADDWF  xB4,F
01758:  MOVF   xB1,W
0175A:  ADDWFC xB5,F
....................             y1 += addy; 
0175C:  MOVF   xB3,W
0175E:  ADDWF  xAA,W
01760:  MOVWF  xAA
....................          } 
01762:  BRA    1778
....................          else 
....................          { 
....................             P  += diff; 
01764:  MOVF   xB6,W
01766:  ADDWF  xB4,F
01768:  MOVF   xB7,W
0176A:  ADDWFC xB5,F
....................             x1 += addx; 
0176C:  MOVF   xB2,W
0176E:  ADDWF  xA9,W
01770:  MOVWF  xA9
....................             y1 += addy; 
01772:  MOVF   xB3,W
01774:  ADDWF  xAA,W
01776:  MOVWF  xAA
....................          } 
01778:  INCF   xB8,F
0177A:  BRA    1734
....................       } 
....................    } 
0177C:  MOVLB  0
0177E:  RETURN 0
.................... } 
....................  
....................  
.................... ///////////////////////////////////////////////////////////////////////// 
.................... // Purpose:       Draw a rectangle on a graphic LCD 
.................... // Inputs:        (x1, y1) - the start coordinate 
.................... //                (x2, y2) - the end coordinate 
.................... //                fill  - YES or NO 
.................... //                color - ON or OFF 
.................... // Dependencies:  glcd_pixel(), glcd_line() 
.................... ///////////////////////////////////////////////////////////////////////// 
.................... #ifdef LARGE_LCD 
.................... void glcd_rect(int16 x1, int16 y1, int16 x2, int16 y2, int1 fill, int1 color) 
.................... #else 
.................... void glcd_rect(int8 x1, int8 y1, int8 x2, int8 y2, int1 fill, int1 color) 
.................... #endif 
.................... { 
....................    if(fill) 
01780:  MOVLB  7
01782:  MOVF   xA1,F
01784:  BZ    17E2
....................    { 
....................       #ifdef LARGE_LCD 
....................       int16 i, xmin, xmax, ymin, ymax; 
....................       #else 
....................       int8  i, xmin, xmax, ymin, ymax; 
....................       #endif 
....................  
....................       if(x1 < x2)                            //  Find x min and max 
01786:  MOVF   x9F,W
01788:  SUBWF  x9D,W
0178A:  BC    1796
....................       { 
....................          xmin = x1; 
0178C:  MOVFF  79D,7A4
....................          xmax = x2; 
01790:  MOVFF  79F,7A5
....................       } 
01794:  BRA    179E
....................       else 
....................       { 
....................          xmin = x2; 
01796:  MOVFF  79F,7A4
....................          xmax = x1; 
0179A:  MOVFF  79D,7A5
....................       } 
....................  
....................       if(y1 < y2)                            // Find the y min and max 
0179E:  MOVF   xA0,W
017A0:  SUBWF  x9E,W
017A2:  BC    17AE
....................       { 
....................          ymin = y1; 
017A4:  MOVFF  79E,7A6
....................          ymax = y2; 
017A8:  MOVFF  7A0,7A7
....................       } 
017AC:  BRA    17B6
....................       else 
....................       { 
....................          ymin = y2; 
017AE:  MOVFF  7A0,7A6
....................          ymax = y1; 
017B2:  MOVFF  79E,7A7
....................       } 
....................  
....................       for(; xmin <= xmax; ++xmin) 
017B6:  MOVF   xA4,W
017B8:  SUBWF  xA5,W
017BA:  BNC   17E0
....................       { 
....................          for(i=ymin; i<=ymax; ++i) 
017BC:  MOVFF  7A6,7A3
017C0:  MOVF   xA3,W
017C2:  SUBWF  xA7,W
017C4:  BNC   17DC
....................          { 
....................             glcd_pixel(xmin, i, color); 
017C6:  MOVFF  7A4,7B9
017CA:  MOVFF  7A3,7BA
017CE:  MOVFF  7A2,7BB
017D2:  MOVLB  0
017D4:  RCALL  13F0
017D6:  MOVLB  7
017D8:  INCF   xA3,F
017DA:  BRA    17C0
....................          } 
017DC:  INCF   xA4,F
017DE:  BRA    17B6
....................       } 
....................    } 
017E0:  BRA    183E
....................    else 
....................    { 
....................       glcd_line(x1, y1, x2, y1, color);      // Draw the 4 sides 
017E2:  MOVFF  79D,7A9
017E6:  MOVFF  79E,7AA
017EA:  MOVFF  79F,7AB
017EE:  MOVFF  79E,7AC
017F2:  MOVFF  7A2,7AD
017F6:  MOVLB  0
017F8:  RCALL  164A
....................       glcd_line(x1, y2, x2, y2, color); 
017FA:  MOVFF  79D,7A9
017FE:  MOVFF  7A0,7AA
01802:  MOVFF  79F,7AB
01806:  MOVFF  7A0,7AC
0180A:  MOVFF  7A2,7AD
0180E:  RCALL  164A
....................       glcd_line(x1, y1, x1, y2, color); 
01810:  MOVFF  79D,7A9
01814:  MOVFF  79E,7AA
01818:  MOVFF  79D,7AB
0181C:  MOVFF  7A0,7AC
01820:  MOVFF  7A2,7AD
01824:  RCALL  164A
....................       glcd_line(x2, y1, x2, y2, color); 
01826:  MOVFF  79F,7A9
0182A:  MOVFF  79E,7AA
0182E:  MOVFF  79F,7AB
01832:  MOVFF  7A0,7AC
01836:  MOVFF  7A2,7AD
0183A:  RCALL  164A
0183C:  MOVLB  7
....................    } 
0183E:  MOVLB  0
01840:  RETURN 0
.................... } 
....................  
.................... ///////////////////////////////////////////////////////////////////////// 
.................... // Purpose:       Draw a bar (wide line) on a graphic LCD 
.................... // Inputs:        (x1, y1) - the start coordinate 
.................... //                (x2, y2) - the end coordinate 
.................... //                width  - The number of pixels wide 
.................... //                color - ON or OFF 
.................... ///////////////////////////////////////////////////////////////////////// 
.................... #ifdef LARGE_LCD 
.................... void glcd_bar(int16 x1, int16 y1, int16 x2, int16 y2, int8 width, int1 color) 
.................... #else 
.................... void glcd_bar(int8 x1, int8 y1, int8 x2, int8 y2, int8 width, int1 color) 
.................... #endif 
.................... { 
....................    int8         half_width; 
....................    signed int16 dy, dx; 
....................    signed int8  addx=1, addy=1, j; 
....................    signed int16 P, diff, c1, c2; 
....................  
....................    #ifdef LARGE_LCD 
....................    int16 i=0; 
....................    dx = abs((signed int16)(x2 - x1)); 
....................    dy = abs((signed int16)(y2 - y1)); 
....................    #else 
....................    int8 i=0; 
....................    dx = abs((signed int8)(x2 - x1)); 
....................    dy = abs((signed int8)(y2 - y1)); 
....................    #endif 
....................  
....................    half_width = width/2; 
....................    c1 = -(dx*x1 + dy*y1); 
....................    c2 = -(dx*x2 + dy*y2); 
....................  
....................    if(x1 > x2) 
....................    { 
....................       signed int16 temp; 
....................       temp = c1; 
....................       c1 = c2; 
....................       c2 = temp; 
....................       addx = -1; 
....................    } 
....................    if(y1 > y2) 
....................    { 
....................       signed int16 temp; 
....................       temp = c1; 
....................       c1 = c2; 
....................       c2 = temp; 
....................       addy = -1; 
....................    } 
....................  
....................    if(dx >= dy) 
....................    { 
....................       P = 2*dy - dx; 
....................       diff = P - dx; 
....................  
....................       for(i=0; i<=dx; ++i) 
....................       { 
....................          for(j=-half_width; j<half_width+width%2; ++j) 
....................          { 
....................             #ifdef LARGE_LCD 
....................             int16 temp; 
....................             #else 
....................             int8 temp; 
....................             #endif 
....................  
....................             temp = dx*x1+dy*(y1+j);    // Use more RAM to increase speed 
....................             if(temp+c1 >= 0 && temp+c2 <=0) 
....................                glcd_pixel(x1, y1+j, color); 
....................          } 
....................          if(P < 0) 
....................          { 
....................             P  += 2*dy; 
....................             x1 += addx; 
....................          } 
....................          else 
....................          { 
....................             P  += diff; 
....................             x1 += addx; 
....................             y1 += addy; 
....................          } 
....................       } 
....................    } 
....................    else 
....................    { 
....................       P = 2*dx - dy; 
....................       diff = P - dy; 
....................  
....................       for(i=0; i<=dy; ++i) 
....................       { 
....................          if(P < 0) 
....................          { 
....................             P  += 2*dx; 
....................             y1 += addy; 
....................          } 
....................          else 
....................          { 
....................             P  += diff; 
....................             x1 += addx; 
....................             y1 += addy; 
....................          } 
....................          for(j=-half_width; j<half_width+width%2; ++j) 
....................          { 
....................             #ifdef LARGE_LCD 
....................             int16 temp; 
....................             #else 
....................             int8 temp; 
....................             #endif 
....................  
....................             temp = dx*x1+dy*(y1+j);    // Use more RAM to increase speed 
....................             if(temp+c1 >= 0 && temp+c2 <=0) 
....................                glcd_pixel(x1+j, y1, color); 
....................          } 
....................       } 
....................    } 
.................... } 
....................  
....................  
.................... ///////////////////////////////////////////////////////////////////////// 
.................... // Purpose:       Draw a circle on a graphic LCD 
.................... // Inputs:        (x,y) - the center of the circle 
.................... //                radius - the radius of the circle 
.................... //                fill - YES or NO 
.................... //                color - ON or OFF 
.................... ///////////////////////////////////////////////////////////////////////// 
.................... #ifdef LARGE_LCD 
.................... void glcd_circle(int16 x, int16 y, int16 radius, int1 fill, int1 color) 
.................... #else 
.................... void glcd_circle(int8 x, int8 y, int8 radius, int1 fill, int1 color) 
.................... #endif 
.................... { 
....................    #ifdef LARGE_LCD 
....................    signed int16 a, b, P; 
....................    #else 
....................    signed int8  a, b, P; 
....................    #endif 
....................  
....................    a = 0; 
*
02908:  MOVLB  7
0290A:  CLRF   xA2
....................    b = radius; 
0290C:  MOVFF  79F,7A3
....................    P = 1 - radius; 
02910:  MOVLW  01
02912:  BSF    FD8.0
02914:  SUBFWB x9F,W
02916:  MOVWF  xA4
....................  
....................    do 
....................    { 
....................       if(fill) 
02918:  MOVF   xA0,F
0291A:  BZ    29E6
....................       { 
....................          glcd_line(x-a, y+b, x+a, y+b, color); 
0291C:  MOVF   xA2,W
0291E:  SUBWF  x9D,W
02920:  MOVWF  xA5
02922:  MOVF   xA3,W
02924:  ADDWF  x9E,W
02926:  MOVWF  xA6
02928:  MOVF   xA2,W
0292A:  ADDWF  x9D,W
0292C:  MOVWF  xA7
0292E:  MOVF   xA3,W
02930:  ADDWF  x9E,W
02932:  MOVWF  xA8
02934:  MOVFF  7A5,7A9
02938:  MOVFF  7A6,7AA
0293C:  MOVFF  7A7,7AB
02940:  MOVWF  xAC
02942:  MOVFF  7A1,7AD
02946:  MOVLB  0
02948:  CALL   164A
....................          glcd_line(x-a, y-b, x+a, y-b, color); 
0294C:  MOVLB  7
0294E:  MOVF   xA2,W
02950:  SUBWF  x9D,W
02952:  MOVWF  xA5
02954:  MOVF   xA3,W
02956:  SUBWF  x9E,W
02958:  MOVWF  xA6
0295A:  MOVF   xA2,W
0295C:  ADDWF  x9D,W
0295E:  MOVWF  xA7
02960:  MOVF   xA3,W
02962:  SUBWF  x9E,W
02964:  MOVWF  xA8
02966:  MOVFF  7A5,7A9
0296A:  MOVFF  7A6,7AA
0296E:  MOVFF  7A7,7AB
02972:  MOVWF  xAC
02974:  MOVFF  7A1,7AD
02978:  MOVLB  0
0297A:  CALL   164A
....................          glcd_line(x-b, y+a, x+b, y+a, color); 
0297E:  MOVLB  7
02980:  MOVF   xA3,W
02982:  SUBWF  x9D,W
02984:  MOVWF  xA5
02986:  MOVF   xA2,W
02988:  ADDWF  x9E,W
0298A:  MOVWF  xA6
0298C:  MOVF   xA3,W
0298E:  ADDWF  x9D,W
02990:  MOVWF  xA7
02992:  MOVF   xA2,W
02994:  ADDWF  x9E,W
02996:  MOVWF  xA8
02998:  MOVFF  7A5,7A9
0299C:  MOVFF  7A6,7AA
029A0:  MOVFF  7A7,7AB
029A4:  MOVWF  xAC
029A6:  MOVFF  7A1,7AD
029AA:  MOVLB  0
029AC:  CALL   164A
....................          glcd_line(x-b, y-a, x+b, y-a, color); 
029B0:  MOVLB  7
029B2:  MOVF   xA3,W
029B4:  SUBWF  x9D,W
029B6:  MOVWF  xA5
029B8:  MOVF   xA2,W
029BA:  SUBWF  x9E,W
029BC:  MOVWF  xA6
029BE:  MOVF   xA3,W
029C0:  ADDWF  x9D,W
029C2:  MOVWF  xA7
029C4:  MOVF   xA2,W
029C6:  SUBWF  x9E,W
029C8:  MOVWF  xA8
029CA:  MOVFF  7A5,7A9
029CE:  MOVFF  7A6,7AA
029D2:  MOVFF  7A7,7AB
029D6:  MOVWF  xAC
029D8:  MOVFF  7A1,7AD
029DC:  MOVLB  0
029DE:  CALL   164A
....................       } 
029E2:  BRA    2AD4
029E4:  MOVLB  7
....................       else 
....................       { 
....................          glcd_pixel(a+x, b+y, color); 
029E6:  MOVF   x9D,W
029E8:  ADDWF  xA2,W
029EA:  MOVWF  xA5
029EC:  MOVF   x9E,W
029EE:  ADDWF  xA3,W
029F0:  MOVWF  xA6
029F2:  MOVFF  7A5,7B9
029F6:  MOVWF  xBA
029F8:  MOVFF  7A1,7BB
029FC:  MOVLB  0
029FE:  CALL   13F0
....................          glcd_pixel(b+x, a+y, color); 
02A02:  MOVLB  7
02A04:  MOVF   x9D,W
02A06:  ADDWF  xA3,W
02A08:  MOVWF  xA5
02A0A:  MOVF   x9E,W
02A0C:  ADDWF  xA2,W
02A0E:  MOVWF  xA6
02A10:  MOVFF  7A5,7B9
02A14:  MOVWF  xBA
02A16:  MOVFF  7A1,7BB
02A1A:  MOVLB  0
02A1C:  CALL   13F0
....................          glcd_pixel(x-a, b+y, color); 
02A20:  MOVLB  7
02A22:  MOVF   xA2,W
02A24:  SUBWF  x9D,W
02A26:  MOVWF  xA5
02A28:  MOVF   x9E,W
02A2A:  ADDWF  xA3,W
02A2C:  MOVWF  xA6
02A2E:  MOVFF  7A5,7B9
02A32:  MOVWF  xBA
02A34:  MOVFF  7A1,7BB
02A38:  MOVLB  0
02A3A:  CALL   13F0
....................          glcd_pixel(x-b, a+y, color); 
02A3E:  MOVLB  7
02A40:  MOVF   xA3,W
02A42:  SUBWF  x9D,W
02A44:  MOVWF  xA5
02A46:  MOVF   x9E,W
02A48:  ADDWF  xA2,W
02A4A:  MOVWF  xA6
02A4C:  MOVFF  7A5,7B9
02A50:  MOVWF  xBA
02A52:  MOVFF  7A1,7BB
02A56:  MOVLB  0
02A58:  CALL   13F0
....................          glcd_pixel(b+x, y-a, color); 
02A5C:  MOVLB  7
02A5E:  MOVF   x9D,W
02A60:  ADDWF  xA3,W
02A62:  MOVWF  xA5
02A64:  MOVF   xA2,W
02A66:  SUBWF  x9E,W
02A68:  MOVWF  xA6
02A6A:  MOVFF  7A5,7B9
02A6E:  MOVWF  xBA
02A70:  MOVFF  7A1,7BB
02A74:  MOVLB  0
02A76:  CALL   13F0
....................          glcd_pixel(a+x, y-b, color); 
02A7A:  MOVLB  7
02A7C:  MOVF   x9D,W
02A7E:  ADDWF  xA2,W
02A80:  MOVWF  xA5
02A82:  MOVF   xA3,W
02A84:  SUBWF  x9E,W
02A86:  MOVWF  xA6
02A88:  MOVFF  7A5,7B9
02A8C:  MOVWF  xBA
02A8E:  MOVFF  7A1,7BB
02A92:  MOVLB  0
02A94:  CALL   13F0
....................          glcd_pixel(x-a, y-b, color); 
02A98:  MOVLB  7
02A9A:  MOVF   xA2,W
02A9C:  SUBWF  x9D,W
02A9E:  MOVWF  xA5
02AA0:  MOVF   xA3,W
02AA2:  SUBWF  x9E,W
02AA4:  MOVWF  xA6
02AA6:  MOVFF  7A5,7B9
02AAA:  MOVWF  xBA
02AAC:  MOVFF  7A1,7BB
02AB0:  MOVLB  0
02AB2:  CALL   13F0
....................          glcd_pixel(x-b, y-a, color); 
02AB6:  MOVLB  7
02AB8:  MOVF   xA3,W
02ABA:  SUBWF  x9D,W
02ABC:  MOVWF  xA5
02ABE:  MOVF   xA2,W
02AC0:  SUBWF  x9E,W
02AC2:  MOVWF  xA6
02AC4:  MOVFF  7A5,7B9
02AC8:  MOVWF  xBA
02ACA:  MOVFF  7A1,7BB
02ACE:  MOVLB  0
02AD0:  CALL   13F0
....................       } 
....................  
....................       if(P < 0) 
02AD4:  MOVLB  7
02AD6:  BTFSS  xA4.7
02AD8:  BRA    2AF6
....................          P += 3 + 2 * a++; 
02ADA:  MOVF   xA2,W
02ADC:  INCF   xA2,F
02ADE:  MOVWF  xA5
02AE0:  MOVLW  02
02AE2:  MOVWF  xA6
02AE4:  MOVFF  7A5,7A7
02AE8:  MOVLB  0
02AEA:  RCALL  25C0
02AEC:  MOVF   01,W
02AEE:  ADDLW  03
02AF0:  MOVLB  7
02AF2:  ADDWF  xA4,F
02AF4:  BRA    2B18
....................       else 
....................          P += 5 + 2 * (a++ - b--); 
02AF6:  MOVF   xA2,W
02AF8:  INCF   xA2,F
02AFA:  MOVWF  xA5
02AFC:  MOVF   xA3,W
02AFE:  DECF   xA3,F
02B00:  SUBWF  xA5,W
02B02:  MOVWF  xA5
02B04:  MOVLW  02
02B06:  MOVWF  xA6
02B08:  MOVFF  7A5,7A7
02B0C:  MOVLB  0
02B0E:  RCALL  25C0
02B10:  MOVF   01,W
02B12:  ADDLW  05
02B14:  MOVLB  7
02B16:  ADDWF  xA4,F
....................     } while(a <= b); 
02B18:  MOVF   xA2,W
02B1A:  XORLW  80
02B1C:  MOVWF  00
02B1E:  MOVF   xA3,W
02B20:  XORLW  80
02B22:  SUBWF  00,W
02B24:  BTFSC  FD8.2
02B26:  BRA    2918
02B28:  BTFSS  FD8.0
02B2A:  BRA    2918
02B2C:  MOVLB  0
02B2E:  RETURN 0
.................... } 
....................  
....................  
.................... ///////////////////////////////////////////////////////////////////////// 
.................... // Purpose:       Write text on a graphic LCD 
.................... // Inputs:        (x,y) - The upper left coordinate of the first letter 
.................... //                textptr - A pointer to an array of text to display 
.................... //                size - The size of the text: 1 = 5x7, 2 = 10x14, ... 
.................... //                color - ON or OFF 
.................... ///////////////////////////////////////////////////////////////////////// 
.................... #ifdef LARGE_LCD 
.................... void glcd_text57(int16 x, int16 y, char* textptr, int8 size, int1 color) 
.................... #else 
.................... void glcd_text57(int8 x, int8 y, char* textptr, int8 size, int1 color) 
.................... #endif 
.................... { 
....................    int8 j, k, l, m;                       // Loop counters 
....................    int8 pixelData[5];                     // Stores character data 
....................  
....................    for(; *textptr != '\0'; ++textptr, ++x)// Loop through the passed string 
*
014AC:  MOVFF  7A0,03
014B0:  MOVLB  7
014B2:  MOVFF  79F,FE9
014B6:  MOVFF  7A0,FEA
014BA:  MOVF   FEF,F
014BC:  BTFSC  FD8.2
014BE:  BRA    1646
....................    { 
....................       if(*textptr < 'S') // Checks if the letter is in the first font array 
014C0:  MOVFF  7A0,03
014C4:  MOVFF  79F,FE9
014C8:  MOVFF  7A0,FEA
014CC:  MOVF   FEF,W
014CE:  SUBLW  52
014D0:  BNC   1512
....................          memcpy(pixelData, FONT[*textptr - ' '], 5); 
014D2:  MOVFF  79F,FE9
014D6:  MOVFF  7A0,FEA
014DA:  MOVLW  20
014DC:  SUBWF  FEF,W
014DE:  MULLW  05
014E0:  MOVF   FF3,W
014E2:  CLRF   03
014E4:  MOVWF  xAC
014E6:  MOVLW  07
014E8:  MOVWF  FEA
014EA:  MOVLW  A7
014EC:  MOVWF  FE9
014EE:  CLRF   xB0
014F0:  MOVFF  7AC,7AF
014F4:  MOVLW  05
014F6:  MOVWF  01
014F8:  CLRF   FF7
014FA:  MOVF   xAC,W
014FC:  MOVLB  0
014FE:  CALL   00BE
01502:  TBLRD*-
01504:  TBLRD*+
01506:  MOVFF  FF5,FEE
0150A:  DECFSZ 01,F
0150C:  BRA    1504
0150E:  BRA    1570
01510:  MOVLB  7
....................       else if(*textptr <= '~') // Check if the letter is in the second font array 
01512:  MOVFF  7A0,03
01516:  MOVFF  79F,FE9
0151A:  MOVFF  7A0,FEA
0151E:  MOVF   FEF,W
01520:  SUBLW  7E
01522:  BNC   1564
....................          memcpy(pixelData, FONT2[*textptr - 'S'], 5); 
01524:  MOVFF  79F,FE9
01528:  MOVFF  7A0,FEA
0152C:  MOVLW  53
0152E:  SUBWF  FEF,W
01530:  MULLW  05
01532:  MOVF   FF3,W
01534:  CLRF   03
01536:  MOVWF  xAC
01538:  MOVLW  07
0153A:  MOVWF  FEA
0153C:  MOVLW  A7
0153E:  MOVWF  FE9
01540:  CLRF   xB0
01542:  MOVFF  7AC,7AF
01546:  MOVLW  05
01548:  MOVWF  01
0154A:  CLRF   FF7
0154C:  MOVF   xAC,W
0154E:  MOVLB  0
01550:  CALL   01D2
01554:  TBLRD*-
01556:  TBLRD*+
01558:  MOVFF  FF5,FEE
0155C:  DECFSZ 01,F
0155E:  BRA    1556
01560:  BRA    1570
01562:  MOVLB  7
....................       else 
....................          memcpy(pixelData, FONT[0], 5);   // Default to space 
01564:  CLRF   xA7
01566:  CLRF   xA8
01568:  CLRF   xA9
0156A:  CLRF   xAA
0156C:  CLRF   xAB
0156E:  MOVLB  0
....................  
....................       // Handles newline and carriage returns 
....................       switch(*textptr) 
01570:  MOVFF  7A0,03
01574:  MOVLB  7
01576:  MOVF   x9F,W
01578:  MOVWF  FE9
0157A:  MOVFF  03,FEA
0157E:  MOVF   FEF,W
01580:  XORLW  0A
01582:  MOVLB  0
01584:  BZ    158C
01586:  XORLW  07
01588:  BZ    159C
0158A:  BRA    15A4
....................       { 
....................          case '\n': 
....................             y += 7*size + 1; 
0158C:  MOVLB  7
0158E:  MOVF   xA1,W
01590:  MULLW  07
01592:  MOVF   FF3,W
01594:  ADDLW  01
01596:  ADDWF  x9E,F
....................             continue; 
01598:  BRA    1638
0159A:  MOVLB  0
....................          case '\r': 
....................             x = 0; 
0159C:  MOVLB  7
0159E:  CLRF   x9D
....................             continue; 
015A0:  BRA    1638
015A2:  MOVLB  0
....................       } 
....................  
....................       if(x+5*size >= GLCD_WIDTH)          // Performs character wrapping 
015A4:  MOVLB  7
015A6:  MOVF   xA1,W
015A8:  MULLW  05
015AA:  MOVF   FF3,W
015AC:  ADDWF  x9D,W
015AE:  SUBLW  7F
015B0:  BC    15BE
....................       { 
....................          x = 0;                           // Set x at far left position 
015B2:  CLRF   x9D
....................          y += 7*size + 1;                 // Set y at next position down 
015B4:  MOVF   xA1,W
015B6:  MULLW  07
015B8:  MOVF   FF3,W
015BA:  ADDLW  01
015BC:  ADDWF  x9E,F
....................       } 
....................       for(j=0; j<5; ++j, x+=size)         // Loop through character byte data 
015BE:  CLRF   xA3
015C0:  MOVF   xA3,W
015C2:  SUBLW  04
015C4:  BNC   1638
....................       { 
....................          for(k=0; k < 7; ++k)             // Loop through the vertical pixels 
015C6:  CLRF   xA4
015C8:  MOVF   xA4,W
015CA:  SUBLW  06
015CC:  BNC   1630
....................          { 
....................             if(bit_test(pixelData[j], k)) // Check if the pixel should be set 
015CE:  CLRF   03
015D0:  MOVF   xA3,W
015D2:  ADDLW  A7
015D4:  MOVWF  FE9
015D6:  MOVLW  07
015D8:  ADDWFC 03,W
015DA:  MOVWF  FEA
015DC:  MOVFF  FEF,00
015E0:  MOVF   xA4,W
015E2:  MOVWF  01
015E4:  BZ    15EE
015E6:  BCF    FD8.0
015E8:  RRCF   00,F
015EA:  DECFSZ 01,F
015EC:  BRA    15E6
015EE:  BTFSS  00.0
015F0:  BRA    162C
....................             { 
....................                for(l=0; l < size; ++l)    // These two loops change the 
015F2:  CLRF   xA5
015F4:  MOVF   xA1,W
015F6:  SUBWF  xA5,W
015F8:  BC    162C
....................                {                          // character's size 
....................                   for(m=0; m < size; ++m) 
015FA:  CLRF   xA6
015FC:  MOVF   xA1,W
015FE:  SUBWF  xA6,W
01600:  BC    1628
....................                   { 
....................                      glcd_pixel(x+m, y+k*size+l, color); // Draws the pixel 
01602:  MOVF   xA6,W
01604:  ADDWF  x9D,W
01606:  MOVWF  xAC
01608:  MOVF   xA4,W
0160A:  MULWF  xA1
0160C:  MOVF   FF3,W
0160E:  ADDWF  x9E,W
01610:  ADDWF  xA5,W
01612:  MOVWF  xAD
01614:  MOVFF  7AC,7B9
01618:  MOVWF  xBA
0161A:  MOVFF  7A2,7BB
0161E:  MOVLB  0
01620:  RCALL  13F0
01622:  MOVLB  7
01624:  INCF   xA6,F
01626:  BRA    15FC
....................                   } 
01628:  INCF   xA5,F
0162A:  BRA    15F4
....................                } 
....................             } 
0162C:  INCF   xA4,F
0162E:  BRA    15C8
....................          } 
01630:  INCF   xA3,F
01632:  MOVF   xA1,W
01634:  ADDWF  x9D,F
01636:  BRA    15C0
....................       } 
01638:  INCF   x9F,F
0163A:  BTFSC  FD8.2
0163C:  INCF   xA0,F
0163E:  INCF   x9D,F
01640:  MOVLB  0
01642:  BRA    14AC
01644:  MOVLB  7
....................    } 
01646:  MOVLB  0
01648:  RETURN 0
.................... } 
....................  
.................... #endif 
....................  
.................... #include "imagen.h" 
.................... const int8 Horno [64][16] = { 
.................... 0x00, 0x00, 0x00, 0x00, 0x00, 0x00, 0x00, 0x00, 0x00, 0x00, 0x00, 0x00, 0x00, 0x00, 0x00, 0x00, 
.................... 0x01, 0xC0, 0x00, 0x00, 0x00, 0x00, 0x00, 0x00, 0x00, 0x00, 0x00, 0x00, 0x00, 0x00, 0x00, 0x00, 
.................... 0x07, 0xF0, 0x00, 0x00, 0x00, 0x00, 0x00, 0x00, 0x00, 0x00, 0x00, 0x00, 0x00, 0x00, 0x00, 0x00, 
.................... 0x1C, 0x9C, 0x00, 0x00, 0x00, 0x00, 0x00, 0x00, 0x00, 0x00, 0x00, 0x00, 0x00, 0x00, 0x00, 0x00, 
.................... 0x18, 0x0C, 0x00, 0x00, 0x00, 0x00, 0x00, 0x00, 0x00, 0x00, 0x00, 0x00, 0x00, 0x00, 0x00, 0x00, 
.................... 0x30, 0x86, 0x00, 0x00, 0x00, 0x00, 0x00, 0x00, 0x00, 0x00, 0x00, 0x00, 0x00, 0x00, 0x00, 0x00, 
.................... 0x20, 0x82, 0x00, 0x00, 0x00, 0x00, 0x00, 0x00, 0x00, 0x00, 0x00, 0x00, 0x00, 0x00, 0x00, 0x00, 
.................... 0x60, 0x83, 0x00, 0x00, 0x00, 0x00, 0x00, 0x00, 0x00, 0x00, 0x00, 0x00, 0x00, 0x00, 0x00, 0x00, 
.................... 0x70, 0x87, 0x00, 0x00, 0x00, 0x00, 0x00, 0x00, 0x00, 0x00, 0x00, 0x00, 0x00, 0x00, 0x00, 0x00, 
.................... 0x60, 0xC3, 0x00, 0x00, 0x00, 0x00, 0x00, 0x00, 0x00, 0x00, 0x00, 0x00, 0x00, 0x00, 0x00, 0x00, 
.................... 0x20, 0x62, 0x00, 0x00, 0x00, 0x00, 0x00, 0x00, 0x00, 0x00, 0x00, 0x00, 0x00, 0x00, 0x00, 0x00, 
.................... 0x30, 0x26, 0x00, 0x00, 0x00, 0x00, 0x00, 0x00, 0x00, 0x00, 0x00, 0x00, 0x00, 0x00, 0x00, 0x00, 
.................... 0x18, 0x0C, 0x00, 0x00, 0x00, 0x00, 0x00, 0x00, 0x00, 0x00, 0x00, 0x00, 0x00, 0x00, 0x00, 0x00, 
.................... 0x1C, 0x9C, 0x00, 0x00, 0x00, 0x00, 0x00, 0x00, 0x00, 0x00, 0x00, 0x00, 0x00, 0x00, 0x00, 0x00, 
.................... 0x07, 0xF0, 0x00, 0x00, 0x00, 0x00, 0x00, 0x00, 0x00, 0x00, 0x00, 0x00, 0x00, 0x00, 0x00, 0x00, 
.................... 0x01, 0xC0, 0x00, 0x00, 0x00, 0x00, 0x00, 0x00, 0x00, 0x00, 0x00, 0x00, 0x00, 0x00, 0x00, 0x00, 
.................... 0x00, 0x00, 0x00, 0x00, 0x00, 0x00, 0x00, 0x00, 0x00, 0x00, 0x00, 0x00, 0x00, 0x00, 0x00, 0x00, 
.................... 0x00, 0x00, 0x00, 0x00, 0x00, 0x00, 0x00, 0x00, 0x00, 0x00, 0x00, 0x00, 0x00, 0x00, 0x00, 0x00, 
.................... 0x00, 0x00, 0x00, 0x00, 0x00, 0x00, 0x00, 0x00, 0x00, 0x00, 0x00, 0x00, 0x00, 0x00, 0x00, 0x00, 
.................... 0x00, 0x00, 0x00, 0x00, 0x00, 0x00, 0x00, 0x00, 0x00, 0x00, 0x00, 0x00, 0x00, 0x00, 0x00, 0x00, 
.................... 0x00, 0x00, 0x00, 0x00, 0x00, 0x00, 0x00, 0x00, 0x00, 0x00, 0x00, 0x00, 0x00, 0x00, 0x00, 0x00, 
.................... 0x00, 0x00, 0x00, 0x00, 0x00, 0x00, 0x00, 0x00, 0x00, 0x00, 0x00, 0x00, 0x00, 0x00, 0x00, 0x00, 
.................... 0x00, 0x00, 0x00, 0x00, 0x00, 0x00, 0x00, 0x00, 0x00, 0x00, 0x00, 0x00, 0x00, 0x00, 0x00, 0x00, 
.................... 0x00, 0x00, 0x00, 0x00, 0x00, 0x00, 0x00, 0x00, 0x00, 0x00, 0x00, 0x00, 0x00, 0x00, 0x00, 0x00, 
.................... 0x00, 0x00, 0x00, 0x00, 0x00, 0x00, 0x00, 0x00, 0x00, 0x00, 0x00, 0x00, 0x00, 0x00, 0x00, 0x00, 
.................... 0x00, 0x00, 0x00, 0x00, 0x00, 0x00, 0x00, 0x00, 0x00, 0x00, 0x00, 0x00, 0x00, 0x00, 0x00, 0x00, 
.................... 0x00, 0x00, 0x00, 0x00, 0x00, 0x00, 0x00, 0x00, 0x00, 0x00, 0x00, 0x00, 0x00, 0x00, 0x00, 0x00, 
.................... 0x00, 0x00, 0x00, 0x00, 0x00, 0x00, 0x00, 0x00, 0x00, 0x00, 0x00, 0x00, 0x00, 0x00, 0x00, 0x00, 
.................... 0x01, 0x80, 0x00, 0x00, 0x00, 0x00, 0x00, 0x00, 0x00, 0x00, 0x00, 0x00, 0x00, 0x00, 0x00, 0x00, 
.................... 0x02, 0x40, 0x00, 0x00, 0x00, 0x00, 0x00, 0x00, 0x00, 0x00, 0x00, 0x00, 0x00, 0x00, 0x00, 0x00, 
.................... 0x02, 0x70, 0x00, 0x00, 0x00, 0x00, 0x00, 0x00, 0x00, 0x00, 0x00, 0x00, 0x00, 0x00, 0x00, 0x00, 
.................... 0x02, 0x40, 0x00, 0x00, 0x00, 0x00, 0x00, 0x00, 0x00, 0x00, 0x00, 0x00, 0x00, 0x00, 0x00, 0x00, 
.................... 0x03, 0xC0, 0x00, 0x00, 0x00, 0x00, 0x00, 0x00, 0x00, 0x00, 0x00, 0x00, 0x00, 0x00, 0x00, 0x00, 
.................... 0x03, 0xF0, 0x00, 0x00, 0x00, 0x00, 0x00, 0x00, 0x00, 0x00, 0x00, 0x00, 0x00, 0x00, 0x00, 0x00, 
.................... 0x03, 0xC0, 0x00, 0x00, 0x00, 0x00, 0x00, 0x00, 0x00, 0x00, 0x00, 0x00, 0x00, 0x00, 0x00, 0x00, 
.................... 0x03, 0xC0, 0x00, 0x00, 0x00, 0x00, 0x00, 0x00, 0x00, 0x00, 0x00, 0x00, 0x00, 0x00, 0x00, 0x00, 
.................... 0x07, 0xE0, 0x00, 0x00, 0x00, 0x00, 0x00, 0x00, 0x00, 0x00, 0x00, 0x00, 0x00, 0x00, 0x00, 0x00, 
.................... 0x0F, 0xF0, 0x00, 0x00, 0x00, 0x00, 0x00, 0x00, 0x00, 0x00, 0x00, 0x00, 0x00, 0x00, 0x00, 0x00, 
.................... 0x0B, 0xF0, 0x00, 0x00, 0x00, 0x00, 0x00, 0x00, 0x00, 0x00, 0x00, 0x00, 0x00, 0x00, 0x00, 0x00, 
.................... 0x0B, 0xF0, 0x00, 0x00, 0x00, 0x00, 0x00, 0x00, 0x00, 0x00, 0x00, 0x00, 0x00, 0x00, 0x00, 0x00, 
.................... 0x0F, 0xF0, 0x00, 0x00, 0x00, 0x00, 0x00, 0x00, 0x00, 0x00, 0x00, 0x00, 0x00, 0x00, 0x00, 0x00, 
.................... 0x0F, 0xF0, 0x00, 0x00, 0x00, 0x00, 0x00, 0x00, 0x00, 0x00, 0x00, 0x00, 0x00, 0x00, 0x00, 0x00, 
.................... 0x07, 0xE0, 0x00, 0x00, 0x00, 0x00, 0x00, 0x00, 0x00, 0x00, 0x00, 0x00, 0x00, 0x00, 0x00, 0x00, 
.................... 0x03, 0xC0, 0x00, 0x00, 0x00, 0x00, 0x00, 0x00, 0x00, 0x00, 0x00, 0x00, 0x00, 0x00, 0x00, 0x00, 
.................... 0x00, 0x00, 0x00, 0x00, 0x00, 0x00, 0x00, 0x00, 0x00, 0x00, 0x00, 0x00, 0x00, 0x00, 0x00, 0x00, 
.................... 0x00, 0x00, 0x00, 0x00, 0x00, 0x00, 0x00, 0x00, 0x00, 0x00, 0x00, 0x00, 0x00, 0x00, 0x00, 0x00, 
.................... 0x00, 0x00, 0x00, 0x00, 0x00, 0x00, 0x00, 0x00, 0x00, 0x00, 0x00, 0x00, 0x00, 0x00, 0x00, 0x00, 
.................... 0x00, 0x00, 0x00, 0x00, 0x00, 0x00, 0x00, 0x00, 0x00, 0x00, 0x00, 0x00, 0x00, 0x00, 0x00, 0x00, 
.................... 0x00, 0x00, 0x00, 0x00, 0x00, 0x00, 0x00, 0x00, 0x00, 0x00, 0x00, 0x00, 0x00, 0x00, 0x00, 0x00, 
.................... 0x00, 0x00, 0x00, 0x00, 0x00, 0x00, 0x00, 0x00, 0x00, 0x00, 0x00, 0x00, 0x00, 0x00, 0x00, 0x00, 
.................... 0x00, 0x00, 0x00, 0x00, 0x00, 0x00, 0x00, 0x00, 0x00, 0x00, 0x00, 0x00, 0x00, 0x00, 0x00, 0x00, 
.................... 0x00, 0x00, 0x00, 0x00, 0x00, 0x00, 0x00, 0x00, 0x00, 0x00, 0x00, 0x00, 0x00, 0x00, 0x00, 0x00, 
.................... 0x00, 0x00, 0x00, 0x00, 0x00, 0x00, 0x00, 0x00, 0x00, 0x00, 0x00, 0x00, 0x00, 0x00, 0x00, 0x00, 
.................... 0x00, 0x00, 0x00, 0x00, 0x00, 0x00, 0x00, 0x00, 0x00, 0x00, 0x00, 0x00, 0x00, 0x00, 0x00, 0x00, 
.................... 0x00, 0x00, 0x00, 0x00, 0x00, 0x00, 0x00, 0x00, 0x00, 0x00, 0x00, 0x00, 0x00, 0x00, 0x00, 0x00, 
.................... 0x00, 0x00, 0x00, 0x00, 0x00, 0x00, 0x00, 0x00, 0x00, 0x00, 0x00, 0x00, 0x00, 0x00, 0x00, 0x00, 
.................... 0x00, 0x00, 0x00, 0x00, 0x00, 0x00, 0x00, 0x00, 0x00, 0x00, 0x00, 0x00, 0x00, 0x00, 0x00, 0x00, 
.................... 0x00, 0x00, 0x00, 0x00, 0x00, 0x00, 0x00, 0x00, 0x00, 0x00, 0x00, 0x00, 0x00, 0x00, 0x00, 0x00, 
.................... 0x00, 0x00, 0x00, 0x00, 0x00, 0x00, 0x00, 0x00, 0x00, 0x00, 0x00, 0x00, 0x00, 0x00, 0x00, 0x00, 
.................... 0x00, 0x00, 0x00, 0x00, 0x00, 0x00, 0x00, 0x00, 0x00, 0x00, 0x00, 0x00, 0x00, 0x00, 0x00, 0x00, 
.................... 0x00, 0x00, 0x00, 0x00, 0x00, 0x00, 0x00, 0x00, 0x00, 0x00, 0x00, 0x00, 0x00, 0x00, 0x00, 0x00, 
.................... 0x00, 0x00, 0x00, 0x00, 0x00, 0x00, 0x00, 0x00, 0x00, 0x00, 0x00, 0x00, 0x00, 0x00, 0x00, 0x00, 
.................... 0x00, 0x00, 0x00, 0x00, 0x00, 0x00, 0x00, 0x00, 0x00, 0x00, 0x00, 0x00, 0x00, 0x00, 0x00, 0x00, 
.................... 0x00, 0x00, 0x00, 0x00, 0x00, 0x00, 0x00, 0x00, 0x00, 0x00, 0x00, 0x00, 0x00, 0x00, 0x00, 0x00 
.................... }; 
....................  
....................  
.................... #include <MATH.h> 
.................... //////////////////////////////////////////////////////////////////////////// 
.................... ////        (C) Copyright 1996,2011 Custom Computer Services            //// 
.................... //// This source code may only be used by licensed users of the CCS C   //// 
.................... //// compiler.  This source code may only be distributed to other       //// 
.................... //// licensed users of the CCS C compiler.  No other use, reproduction  //// 
.................... //// or distribution is permitted without written permission.           //// 
.................... //// Derivative programs created using this software in object code     //// 
.................... //// form are not restricted in any way.                                //// 
.................... //////////////////////////////////////////////////////////////////////////// 
.................... ////                                                                    //// 
.................... //// History:                                                           //// 
.................... ////  * 9/20/2001 :  Improvments are made to sin/cos code.              //// 
.................... ////                 The code now is small, much faster,                //// 
.................... ////                 and more accurate.                                 //// 
.................... ////  * 2/21/2007 :  Compiler handles & operator differently and does   //// 
.................... ////                 not return generic (int8 *) so type cast is done   //// 
.................... ////  * 6/19/2010 :  Divisions by constants converted to multiplication //// 
.................... ////                 by its inverse to improve computation speed        //// 
.................... ////  * 1/21/2011 :  Constants used for double precision math updated   //// 
.................... ////                 Updated routines include 64 bit versions of cos,   //// 
.................... ////                 asin,atan,exp,log and dependant functions          //// 
.................... ////  * 1/31/2011 :  Optimized current 32-bit float routines for cos    //// 
.................... ////                 and log function                                   //// 
.................... ////  * 6/13/2011 :  Fixed PCD overload CEIL_FLOOR functions for values //// 
.................... ////                 greater then 10000000 and less then -10000000      //// 
.................... ////                                                                    //// 
.................... //////////////////////////////////////////////////////////////////////////// 
....................  
.................... #ifndef MATH_H 
.................... #define MATH_H 
....................  
.................... #ifdef PI 
.................... #undef  PI 
.................... #endif 
.................... #define PI     3.1415926535897932 
....................  
....................  
.................... #define SQRT2  1.4142135623730950 
....................  
.................... //float const ps[4] = {5.9304945, 21.125224, 8.9403076, 0.29730279}; 
.................... //float const qs[4] = {1.0000000, 15.035723, 17.764134, 2.4934718}; 
....................  
.................... ///////////////////////////// Round Functions ////////////////////////////// 
....................  
.................... float32 CEIL_FLOOR(float32 x, unsigned int8 n) 
.................... { 
....................    float32 y, res; 
....................    unsigned int16 l; 
....................    int1 s; 
....................  
....................    s = 0; 
....................    y = x; 
....................  
....................    if (x < 0) 
....................    { 
....................       s = 1; 
....................       y = -y; 
....................    } 
....................  
....................    if (y <= 32768.0) 
....................       res = (float32)(unsigned int16)y; 
....................  
....................  else if (y < 10000000.0) 
....................    {  
....................       l = (unsigned int16)(y*0.000030517578125); 
....................       y = 32768.0*(y*0.000030517578125 - (float32)l); 
....................       res = 32768.0*(float32)l; 
....................       res += (float32)(unsigned int16)y; 
....................    } 
....................  
....................  else 
....................   res = y; 
....................  
....................  y = y - (float32)(unsigned int16)y; 
....................  
....................  if (s) 
....................   res = -res; 
....................  
....................  if (y != 0) 
....................  { 
....................   if (s == 1 && n == 0) 
....................    res -= 1.0; 
....................  
....................   if (s == 0 && n == 1) 
....................    res += 1.0; 
....................  } 
....................  if (x == 0) 
....................     res = 0; 
....................  
....................  return (res); 
.................... } 
....................  
.................... // Overloaded Functions to take care for new Data types in PCD 
.................... // Overloaded function CEIL_FLOOR() for data type - Float48 
.................... #if defined(__PCD__) 
.................... float48 CEIL_FLOOR(float48 x, unsigned int8 n) 
.................... { 
....................    float48 y, res; 
....................    unsigned int32 l; 
....................    int1 s; 
....................  
....................    s = 0; 
....................    y = x; 
....................  
....................    if (x < 0) 
....................    { 
....................       s = 1; 
....................       y = -y; 
....................    } 
....................  
....................    if (y <= 32768.0) 
....................       res = (float48)(unsigned int16)y; 
....................  
....................    else if (y < 549755813888.0) 
....................    { 
....................       l = (unsigned int32)(y*0.000030517578125); 
....................       y = 32768.0*(y*0.000030517578125 - (float48)l); 
....................       res = 32768.0*(float48)l; 
....................       res += (float48)(unsigned int16)y; 
....................    } 
....................    else 
....................    {   
....................       res = y; 
....................       y = 0.0; 
....................    } 
....................     
....................    if(y != 0) 
....................       y = y - (float48)(unsigned int16)y; 
....................  
....................    if (s) 
....................       res = -res; 
....................  
....................    if (y != 0) 
....................    { 
....................       if (s == 1 && n == 0) 
....................          res -= 1.0; 
....................  
....................       if (s == 0 && n == 1) 
....................          res += 1.0; 
....................    } 
....................    if (x == 0) 
....................       res = 0; 
....................  
....................    return (res); 
.................... } 
....................  
....................  
.................... // Overloaded function CEIL_FLOOR() for data type - Float64 
.................... float64 CEIL_FLOOR(float64 x, unsigned int8 n) 
.................... { 
....................    float64 y, res; 
....................    int64 l; 
....................    int1 s; 
....................  
....................    s = 0; 
....................    y = x; 
....................  
....................    if (x < 0) 
....................    { 
....................       s = 1; 
....................       y = -y; 
....................    } 
....................  
....................    if (y <= 32768.0) 
....................       res = (float64)(unsigned int16)y; 
....................    else if (y < 4503599627370496.0) 
....................    { 
....................       l = (int64)(y*0.000030517578125); 
....................       y = 32768.0*(y*0.000030517578125 - (float64)l); 
....................       res = 32768.0*(float64)l; 
....................       res += (float64)(unsigned int16)y; 
....................    } 
....................    else 
....................    { 
....................       res = y; 
....................       y = 0.0; 
....................    } 
....................     
....................    if(y != 0) 
....................       y = y - (float64)(unsigned int16)y; 
....................  
....................    if (s) 
....................       res = -res; 
....................  
....................    if (y != 0) 
....................    { 
....................       if (s == 1 && n == 0) 
....................          res -= 1.0; 
....................  
....................       if (s == 0 && n == 1) 
....................          res += 1.0; 
....................    } 
....................     
....................    if (x == 0) 
....................       res = 0; 
....................  
....................    return (res); 
.................... } 
.................... #endif 
....................  
.................... //////////////////////////////////////////////////////////////////////////// 
.................... //   float floor(float x) 
.................... //////////////////////////////////////////////////////////////////////////// 
.................... // Description : rounds down the number x. 
.................... // Date : N/A 
.................... // 
.................... float32 floor(float32 x) 
.................... { 
....................    return CEIL_FLOOR(x,0); 
.................... } 
.................... // Following 2 functions are overloaded functions of floor() for PCD 
.................... // Overloaded function floor() for data type - Float48 
.................... #if defined(__PCD__) 
.................... float48 floor(float48 x) 
.................... { 
....................    return CEIL_FLOOR(x, 0); 
.................... } 
....................  
.................... // Overloaded function floor() for data type - Float64 
.................... float64 floor(float64 x) 
.................... { 
....................    return CEIL_FLOOR(x, 0); 
.................... } 
.................... #endif 
....................  
....................  
.................... //////////////////////////////////////////////////////////////////////////// 
.................... //   float ceil(float x) 
.................... //////////////////////////////////////////////////////////////////////////// 
.................... // Description : rounds up the number x. 
.................... // Date : N/A 
.................... // 
.................... float32 ceil(float32 x) 
.................... { 
....................    return CEIL_FLOOR(x, 1); 
.................... } 
.................... // Following 2 functions are overloaded functions of ceil() for PCD 
.................... // Overloaded function ceil() for data type - Float48 
.................... #if defined(__PCD__) 
.................... float48 ceil(float48 x) 
.................... { 
....................    return CEIL_FLOOR(x, 1); 
.................... } 
....................  
.................... // Overloaded function ceil() for data type - Float64 
.................... float64 ceil(float64 x) 
.................... { 
....................    return CEIL_FLOOR(x, 1); 
.................... } 
.................... #endif 
....................  
....................  //////////////////////////////////////////////////////////////////////////// 
.................... //   float fabs(float x) 
.................... //////////////////////////////////////////////////////////////////////////// 
.................... // Description : Computes the absolute value of floating point number x 
.................... // Returns : returns the absolute value of x 
.................... // Date : N/A 
.................... // 
.................... #define fabs abs 
....................  
.................... //////////////////////////////////////////////////////////////////////////// 
.................... //   float fmod(float x) 
.................... //////////////////////////////////////////////////////////////////////////// 
.................... // Description : Computes the floating point remainder of x/y 
.................... // Returns : returns the value of x= i*y, for some integer i such that, if y 
.................... // is non zero, the result has the same isgn of x na dmagnitude less than the 
.................... // magnitude of y. If y is zero then a domain error occurs. 
.................... // Date : N/A 
.................... // 
....................  
.................... float fmod(float32 x,float32 y) 
.................... { 
....................    float32 i; 
....................    if (y!=0.0) 
....................    { 
....................       i=(x/y < 0.0)? ceil(x/y): floor(x/y); 
....................       return(x-(i*y)); 
....................    } 
....................    else 
....................    { 
....................    #ifdef _ERRNO 
....................    { 
....................       errno=EDOM; 
....................    } 
....................    #endif 
....................    } 
.................... } 
.................... //Overloaded function for fmod() for PCD 
.................... // Overloaded function fmod() for data type - Float48 
.................... #if defined(__PCD__) 
.................... float48 fmod(float48 x,float48 y) 
.................... { 
....................    float48 i; 
....................    if (y!=0.0) 
....................    { 
....................       i=(x/y < 0.0)? ceil(x/y): floor(x/y); 
....................       return(x-(i*y)); 
....................    } 
....................    else 
....................    { 
....................    #ifdef _ERRNO 
....................    { 
....................       errno=EDOM; 
....................    } 
....................    #endif 
....................    } 
.................... } 
.................... // Overloaded function fmod() for data type - Float64 
.................... float64 fmod(float64 x,float64 y) 
.................... { 
....................    float64 i; 
....................    if (y!=0.0) 
....................    { 
....................       i=(x/y < 0.0)? ceil(x/y): floor(x/y); 
....................       return(x-(i*y)); 
....................    } 
....................    else 
....................    { 
....................    #ifdef _ERRNO 
....................    { 
....................       errno=EDOM; 
....................    } 
....................    #endif 
....................    } 
.................... } 
.................... #endif 
.................... //////////////////// Exponential and logarithmic functions //////////////////// 
.................... //////////////////////////////////////////////////////////////////////////// 
.................... //   float exp(float x) 
.................... //////////////////////////////////////////////////////////////////////////// 
.................... // Description : returns the value (e^x) 
.................... // Date : N/A 
.................... // 
.................... #define LN2 0.6931471805599453 
.................... #define LN2_INV 1.4426950408889634073 
....................  
.................... float const pe[6] = {0.000207455774, 0.00127100575, 0.00965065093, 
....................                      0.0554965651,  0.240227138,  0.693147172}; 
....................  
....................  
.................... float32 exp(float32 x) 
.................... { 
....................    float32 y, res, r; 
....................    #if defined(__PCD__) 
....................    int8 data1; 
....................    #endif 
....................    signed int8 n; 
....................    int1 s; 
....................    #ifdef _ERRNO 
....................    if(x > 88.722838) 
....................    { 
....................       errno=ERANGE; 
....................       return(0); 
....................    } 
....................    #endif 
....................    n = (signed int16)(x*LN2_INV); 
....................    s = 0; 
....................    y = x; 
....................  
....................    if (x < 0) 
....................    { 
....................       s = 1; 
....................       n = -n; 
....................       y = -y; 
....................    } 
....................  
....................    res = 0.0; 
.................... #if !defined(__PCD__) 
....................    *((unsigned int8 *)(&res)) = n + 0x7F; 
.................... #endif 
....................  
.................... #if defined(__PCD__)  // Takes care of IEEE format for PCD 
....................    data1 = n+0x7F; 
....................    if(bit_test(data1,0)) 
....................    bit_set(*(((unsigned int8 *)(&res)+2)),7); 
....................    rotate_right(&data1,1); 
....................    bit_clear(data1,7); 
....................    *(((unsigned int8 *)(&res)+3)) = data1; 
.................... #endif 
....................  
....................    y = y*LN2_INV - (float32)n; 
....................  
....................    r = pe[0]*y + pe[1]; 
....................    r = r*y + pe[2]; 
....................    r = r*y + pe[3]; 
....................    r = r*y + pe[4]; 
....................    r = r*y + pe[5]; 
....................  
....................    res = res*(1.0 + y*r); 
....................  
....................    if (s) 
....................       res = 1.0/res; 
....................    return(res); 
.................... } 
....................  
....................  
.................... //Overloaded function for exp() for PCD 
.................... // Overloaded function exp() for data type - Float48 
.................... #if defined(__PCD__) 
.................... float48 exp(float48 x) 
.................... { 
....................    float48 y, res, r; 
....................    int8 data1; 
....................    signed int8 n; 
....................    int1 s; 
....................    #ifdef _ERRNO 
....................    if(x > 88.722838) 
....................    { 
....................       errno=ERANGE; 
....................       return(0); 
....................    } 
....................    #endif 
....................    n = (signed int16)(x*LN2_INV); 
....................    s = 0; 
....................    y = x; 
....................  
....................    if (x < 0) 
....................    { 
....................       s = 1; 
....................       n = -n; 
....................       y = -y; 
....................    } 
....................  
....................    res = 0.0; 
....................  
....................    data1 = n+0x7F; 
....................    if(bit_test(data1,0)) 
....................    bit_set(*(((unsigned int8 *)(&res)+4)),7); 
....................    rotate_right(&data1,1); 
....................    bit_clear(data1,7); 
....................    *(((unsigned int8 *)(&res)+5)) = data1; 
....................  
....................    y = y*LN2_INV - (float48)n; 
....................  
....................    r = pe[0]*y + pe[1]; 
....................    r = r*y + pe[2]; 
....................    r = r*y + pe[3]; 
....................    r = r*y + pe[4]; 
....................    r = r*y + pe[5]; 
....................  
....................    res = res*(1.0 + y*r); 
....................  
....................    if (s) 
....................       res = 1.0/res; 
....................    return(res); 
.................... } 
....................  
.................... // Overloaded function exp() for data type - Float64 
.................... float64 const pe_64[12] ={9.30741400474913e-011,-4.28655416283316e-011, 
....................                           8.71486547014137e-009,9.84458531538385e-008, 
....................                           1.32588296983536e-006,1.52489283823016e-005, 
....................                           0.000154037598423921,0.00133335487036216, 
....................                           0.00961812936407326,0.0555041086222122, 
....................                           0.240226506962827,0.693147180559823}; 
....................  
.................... float64 exp(float64 x) 
.................... { 
....................    float64 y, res, r; 
....................    unsigned int16 data1, data2; 
....................    unsigned int16 *p; 
....................    signed int16 n; 
....................    int1 s; 
....................    #ifdef _ERRNO 
....................    if(x > 709.7827128) 
....................    { 
....................       errno=ERANGE; 
....................       return(0); 
....................    } 
....................    #endif 
....................    y = x*LN2_INV; 
....................    n = (signed int16)y; 
....................    s = 0; 
....................    y = x; 
....................  
....................    if (x < 0) 
....................    { 
....................       s = 1; 
....................       n = -n; 
....................       y = -y; 
....................    } 
....................  
....................    res = 0.0; 
....................  
.................... #if !defined(__PCD__) 
....................    *((unsigned int16 *)(&res)) = n + 0x7F; 
.................... #endif 
....................    p= (((unsigned int16 *)(&res))+3); 
....................    data1 = *p; 
....................    data2 = *p;    
....................    data1 = n + 0x3FF; 
....................    data1 = data1 <<4; 
....................    if(bit_test(data2,15)) 
....................    bit_set(data1,15); 
....................    data2 = data2 & 0x000F; 
....................    data1 ^= data2; 
....................  
....................    *(((unsigned int16 *)(&res)+3)) = data1; 
....................  
....................  
....................    y = y*LN2_INV - (float64)n; 
....................  
....................    r = pe_64[0]*y + pe_64[1]; 
....................    r = r*y + pe_64[2]; 
....................    r = r*y + pe_64[3]; 
....................    r = r*y + pe_64[4]; 
....................    r = r*y + pe_64[5]; 
....................    r = r*y + pe_64[6]; 
....................    r = r*y + pe_64[7]; 
....................    r = r*y + pe_64[8]; 
....................    r = r*y + pe_64[9]; 
....................    r = r*y + pe_64[10]; 
....................    r = r*y + pe_64[11]; 
....................     
....................    res = res*(1.0 + y*r); 
....................  
....................    if (s) 
....................       res = 1.0/res; 
....................    return(res); 
.................... } 
.................... #ENDIF 
....................  
....................  
.................... /************************************************************/ 
....................  
.................... float32 const pl[4] = {-1.080310025160955, 1.999999947089217}; 
.................... float32 const ql[4] = {0.091284365719509, -0.873491916557671}; 
....................  
.................... //////////////////////////////////////////////////////////////////////////// 
.................... //   float log(float x) 
.................... //////////////////////////////////////////////////////////////////////////// 
.................... // Description : returns the the natural log of x 
.................... // Date : N/A 
.................... // 
.................... float32 log(float32 x) 
.................... { 
....................    float32 y, res, r, y2; 
....................    #if defined(__PCD__) 
....................    unsigned int8  data1,data2; 
....................    #endif 
....................    signed int8 n; 
....................    #ifdef _ERRNO 
....................    if(x <0) 
....................    { 
....................       errno=EDOM; 
....................    } 
....................    if(x ==0) 
....................    { 
....................       errno=ERANGE; 
....................       return(0); 
....................    } 
....................    #endif 
....................    y = x; 
....................  
....................    if (y != 1.0) 
....................    { 
.................... #if !defined(__PCD__) 
....................     *((unsigned int8 *)(&y)) = 0x7E;  
.................... #endif 
....................  
.................... #if defined(__PCD__) // Takes care of IEEE format 
....................    data2 = *(((unsigned int8 *)(&y))+3); 
....................    *(((unsigned int8 *)(&y))+3) = 0x3F; 
....................    data1 = *(((unsigned int8 *)(&y))+2); 
....................    bit_clear(data1,7); 
....................    *(((unsigned int8 *)(&y))+2) = data1; 
....................    if(bit_test(data2,7)) 
....................      bit_set(*(((unsigned int8 *)(&y))+3),7); 
.................... #endif 
....................  
....................       y = (y - 1.0)/(y + 1.0); 
....................  
....................       y2=y*y; 
....................  
....................       res = pl[0]*y2 + pl[1]; 
....................  
....................       r = ql[0]*y2 + ql[1]; 
....................       r = r*y2 + 1.0; 
....................  
....................       res = y*res/r; 
.................... #if !defined(__PCD__) 
....................       n = *((unsigned int8 *)(&x)) - 0x7E; 
.................... #endif 
.................... #if defined(__PCD__)  
....................     data1 = *(((unsigned int8 *)(&x)+3)); 
....................     rotate_left(&data1,1); 
....................     data2 = *(((unsigned int8 *)(&x)+2)); 
....................     if(bit_test (data2,7)) 
....................       bit_set(data1,0); 
....................     n = data1 - 0x7E; 
.................... #endif 
....................  
....................       if (n<0)  
....................          r = -(float32)-n; 
....................       else 
....................          r = (float32)n; 
....................  
....................       res += r*LN2; 
....................    } 
....................  
....................    else 
....................       res = 0.0; 
....................  
....................    return(res); 
.................... } 
....................  
.................... //Overloaded function for log() for PCD 
.................... // Overloaded function log() for data type - Float48 
.................... #if defined(__PCD__) 
.................... // Overloaded function log() for data type - float64 
.................... float64 const pl_64[4] = {-0.145694052150681, 1.365485300000370, 
....................                           -3.120535668274329, 2.000000000000000}; 
....................  
.................... float64 const ql_64[4] = {0.006047500465908, -0.208298281937234, 
....................                           1.113943039156721, -1.893601167470470}; 
....................  
.................... float48 log(float48 x) 
.................... { 
....................    float48 y, res, r, y2; 
....................    unsigned int8  data1,data2; 
....................    signed int8 n; 
.................... #ifdef _ERRNO 
....................    if(x <0) 
....................    { 
....................       errno=EDOM; 
....................    } 
....................    if(x ==0) 
....................    { 
....................       errno=ERANGE; 
....................       return(0); 
....................    } 
.................... #endif 
....................    y = x; 
....................  
....................    if (y != 1.0) 
....................    { 
....................  
.................... #if !defined(__PCD__) 
....................       *((unsigned int8 *)(&y)) = 0x7E;  
.................... #endif 
....................       data2 = *(((unsigned int8 *)(&y))+5); 
....................       *(((unsigned int8 *)(&y))+5) = 0x3F; 
....................       data1 = *(((unsigned int8 *)(&y))+4); 
....................       bit_clear(data1,7); 
....................       *(((unsigned int8 *)(&y))+4) = data1; 
....................  
....................       if(bit_test(data2,7)) 
....................       bit_set(*(((unsigned int8 *)(&y))+4),7); 
....................       y = (y - 1.0)/(y + 1.0); 
....................  
....................       y2=y*y; 
....................  
....................       res = pl_64[0]*y2 + pl_64[1]; 
....................       res = res*y2 + pl_64[2]; 
....................       res = res*y2 + pl_64[3]; 
....................  
....................       r = ql_64[0]*y2 + ql_64[1]; 
....................       r = r*y2 + ql_64[2]; 
....................       r = r*y2 + ql_64[3]; 
....................       r = r*y2 + 1.0;  
....................       res = y*res/r; 
....................  
....................       data1 = *(((unsigned int8 *)(&x)+5)); 
....................       rotate_left(&data1,1); 
....................       data2 = *(((unsigned int8 *)(&x)+4)); 
....................       if(bit_test (data2,7)) 
....................       bit_set(data1,0); 
....................        
....................       n = data1 - 0x7E; 
....................  
....................       if (n<0) 
....................       r = -(float48)-n; 
....................       else 
....................       r = (float48)n; 
....................  
....................       res += r*LN2; 
....................    } 
....................  
....................    else 
....................    res = 0.0; 
....................  
....................    return(res); 
.................... } 
....................  
.................... float64 log(float64 x) 
.................... { 
....................    float64 y, res, r, y2; 
....................    unsigned int16  data1,data2; 
....................    unsigned int16 *p; 
....................    signed int16 n; 
....................    #ifdef _ERRNO 
....................    if(x <0) 
....................    { 
....................       errno=EDOM; 
....................    } 
....................    if(x ==0) 
....................    { 
....................       errno=ERANGE; 
....................       return(0); 
....................    } 
....................    #endif 
....................    y = x; 
....................  
....................    if (y != 1.0) 
....................    { 
....................    #if !defined(__PCD__) 
....................        *((unsigned int8 *)(&y)) = 0x7E;  
....................    #endif 
....................       p= (((unsigned int16 *)(&y))+3); 
....................       data1 = *p; 
....................       data2 = *p; 
....................       data1 = 0x3FE; 
....................       data1 = data1 <<4; 
....................       if(bit_test (data2,15)) 
....................          bit_set(data1,15); 
....................       data2 = data2 & 0x000F; 
....................       data1 ^=data2; 
....................  
....................       *p = data1; 
....................  
....................       y = (y - 1.0)/(y + 1.0); 
....................  
....................       y2=y*y; 
....................  
....................       res = pl_64[0]*y2 + pl_64[1]; 
....................       res = res*y2 + pl_64[2]; 
....................       res = res*y2 + pl_64[3]; 
....................  
....................       r = ql_64[0]*y2 + ql_64[1]; 
....................       r = r*y2 + ql_64[2]; 
....................       r = r*y2 + ql_64[3]; 
....................       r = r*y2 + 1.0; 
....................  
....................       res = y*res/r; 
....................   
....................       p= (((unsigned int16 *)(&x))+3); 
....................       data1 = *p; 
....................       bit_clear(data1,15); 
....................       data1 = data1 >>4;     
....................       n = data1 - 0x3FE; 
....................  
....................  
....................       if (n<0) 
....................          r = -(float64)-n; 
....................       else 
....................          r = (float64)n; 
....................  
....................       res += r*LN2; 
....................    } 
....................  
....................    else 
....................       res = 0.0; 
....................  
....................    return(res); 
.................... } 
.................... #endif 
....................  
....................  
.................... #define LN10 2.3025850929940456 
.................... #define LN10_INV 0.4342944819032518276 
....................  
.................... //////////////////////////////////////////////////////////////////////////// 
.................... //   float log10(float x) 
.................... //////////////////////////////////////////////////////////////////////////// 
.................... // Description : returns the the log base 10 of x 
.................... // Date : N/A 
.................... // 
.................... float32 log10(float32 x) 
.................... { 
....................    float32 r; 
....................  
....................    r = log(x); 
....................    r = r*LN10_INV; 
....................    return(r); 
.................... } 
....................  
.................... //Overloaded functions for log10() for PCD 
.................... // Overloaded function log10() for data type - Float48 
.................... #if defined(__PCD__) 
.................... float48 log10(float48 x) 
.................... { 
....................    float48 r; 
....................  
....................    r = log(x); 
....................    r = r*LN10_INV; 
....................    return(r); 
.................... } 
....................  
.................... // Overloaded function log10() for data type - Float64 
.................... float64 log10(float64 x) 
.................... { 
....................    float64 r; 
....................  
....................    r = log(x); 
....................    r = r*LN10_INV; 
....................    return(r); 
.................... } 
.................... #endif 
.................... //////////////////////////////////////////////////////////////////////////// 
.................... //   float modf(float x) 
.................... //////////////////////////////////////////////////////////////////////////// 
.................... // Description :breaks the argument value int integral and fractional parts, 
.................... // ach of which have the same sign as the argument.  It stores the integral part 
.................... // as a float in the object pointed to by the iptr 
.................... // Returns : returns the signed fractional part of value. 
.................... // Date : N/A 
.................... // 
....................  
.................... float32 modf(float32 value,float32 *iptr) 
.................... { 
....................    *iptr=(value < 0.0)? ceil(value): floor(value); 
....................    return(value - *iptr); 
.................... } 
.................... //Overloaded functions for modf() for PCD 
.................... // Overloaded function modf() for data type - Float48 
.................... #if defined(__PCD__) 
.................... float48 modf(float48 value,float48 *iptr) 
.................... { 
....................    *iptr=(value < 0.0)? ceil(value): floor(value); 
....................    return(value - *iptr); 
.................... } 
.................... // Overloaded function modf() for data type - Float64 
.................... float64 modf(float64 value,float64 *iptr) 
.................... { 
....................    *iptr=(value < 0.0)? ceil(value): floor(value); 
....................    return(value - *iptr); 
.................... } 
.................... #endif 
....................  
.................... //////////////////////////////////////////////////////////////////////////// 
.................... //   float pwr(float x,float y) 
.................... //////////////////////////////////////////////////////////////////////////// 
.................... // Description : returns the value (x^y) 
.................... // Date : N/A 
.................... // Note : 0 is returned when the function will generate an imaginary number 
.................... // 
.................... float32 pwr(float32 x,float32 y) 
.................... { 
....................    if(0 > x && fmod(y, 1) == 0) { 
....................       if(fmod(y, 2) == 0) { 
....................          return (exp(log(-x) * y)); 
....................       } else { 
....................          return (-exp(log(-x) * y)); 
....................       } 
....................    } else if(0 > x && fmod(y, 1) != 0) { 
....................       return 0; 
....................    } else { 
....................       if(x != 0 || 0 >= y) { 
....................          return (exp(log(x) * y)); 
....................       } 
....................    } 
.................... } 
.................... //Overloaded functions for pwr() for PCD 
.................... // Overloaded function pwr() for data type - Float48 
.................... #if defined(__PCD__) 
.................... float48 pwr(float48 x,float48 y) 
.................... { 
....................    if(0 > x && fmod(y, 1) == 0) { 
....................       if(fmod(y, 2) == 0) { 
....................          return (exp(log(-x) * y)); 
....................       } else { 
....................          return (-exp(log(-x) * y)); 
....................       } 
....................    } else if(0 > x && fmod(y, 1) != 0) { 
....................       return 0; 
....................    } else { 
....................       if(x != 0 || 0 >= y) { 
....................          return (exp(log(x) * y)); 
....................       } 
....................    } 
.................... } 
.................... // Overloaded function pwr() for data type - Float64 
.................... float64 pwr(float64 x,float64 y) 
.................... { 
....................    if(0 > x && fmod(y, 1) == 0) { 
....................       if(fmod(y, 2) == 0) { 
....................          return (exp(log(-x) * y)); 
....................       } else { 
....................          return (-exp(log(-x) * y)); 
....................       } 
....................    } else if(0 > x && fmod(y, 1) != 0) { 
....................       return 0; 
....................    } else { 
....................       if(x != 0 || 0 >= y) { 
....................          return (exp(log(x) * y)); 
....................       } 
....................    } 
.................... } 
.................... #endif 
....................  
.................... //////////////////// Power functions //////////////////// 
....................  
.................... //////////////////////////////////////////////////////////////////////////// 
.................... //   float pow(float x,float y) 
.................... //////////////////////////////////////////////////////////////////////////// 
.................... // Description : returns the value (x^y) 
.................... // Date : N/A 
.................... // Note : 0 is returned when the function will generate an imaginary number 
.................... // 
.................... float32 pow(float32 x,float32 y) 
.................... { 
....................    if(0 > x && fmod(y, 1) == 0) { 
....................       if(fmod(y, 2) == 0) { 
....................          return (exp(log(-x) * y)); 
....................       } else { 
....................          return (-exp(log(-x) * y)); 
....................       } 
....................    } else if(0 > x && fmod(y, 1) != 0) { 
....................       return 0; 
....................    } else { 
....................       if(x != 0 || 0 >= y) { 
....................          return (exp(log(x) * y)); 
....................       } 
....................    } 
.................... } 
.................... //Overloaded functions for pow() for PCD 
.................... // Overloaded function for pow() data type - Float48 
.................... #if defined(__PCD__) 
.................... float48 pow(float48 x,float48 y) 
.................... { 
....................    if(0 > x && fmod(y, 1) == 0) { 
....................       if(fmod(y, 2) == 0) { 
....................          return (exp(log(-x) * y)); 
....................       } else { 
....................          return (-exp(log(-x) * y)); 
....................       } 
....................    } else if(0 > x && fmod(y, 1) != 0) { 
....................       return 0; 
....................    } else { 
....................       if(x != 0 || 0 >= y) { 
....................          return (exp(log(x) * y)); 
....................       } 
....................    } 
.................... } 
....................  
.................... // Overloaded function pow() for data type - Float64 
.................... float64 pow(float64 x,float64 y) 
.................... { 
....................    if(0 > x && fmod(y, 1) == 0) { 
....................       if(fmod(y, 2) == 0) { 
....................          return (exp(log(-x) * y)); 
....................       } else { 
....................          return (-exp(log(-x) * y)); 
....................       } 
....................    } else if(0 > x && fmod(y, 1) != 0) { 
....................       return 0; 
....................    } else { 
....................       if(x != 0 || 0 >= y) { 
....................          return (exp(log(x) * y)); 
....................       } 
....................    } 
.................... } 
.................... #endif 
....................  
.................... //////////////////////////////////////////////////////////////////////////// 
.................... //   float sqrt(float x) 
.................... //////////////////////////////////////////////////////////////////////////// 
.................... // Description : returns the square root of x 
.................... // Date : N/A 
.................... // 
.................... float32 sqrt(float32 x) 
.................... { 
....................    float32 y, res; 
....................    #if defined(__PCD__) 
....................    unsigned int16 data1,data2; 
....................    #endif 
....................    unsigned int8 *p; 
....................  
....................    #ifdef _ERRNO 
....................    if(x < 0) 
....................    { 
....................       errno=EDOM; 
....................    } 
....................    #endif 
....................  
....................    if( x<=0.0) 
....................       return(0.0); 
....................  
....................    y=x; 
....................     
....................    #if !defined(__PCD__) 
....................     p=&y; 
....................    (*p)=(unsigned int8)((((unsigned int16)(*p)) + 127) >> 1); 
....................    #endif 
....................     
....................    #if defined(__PCD__) 
....................     p = (((unsigned int8 *)(&y))+3); 
....................     data1 = *(((unsigned int8 *)(&y))+3); 
....................     data2 = *(((unsigned int8 *)(&y))+2); 
....................     rotate_left(&data1,1);     
....................     if(bit_test(data2,7))     
....................        bit_set(data1,0);     
....................     data1 = ((data1+127) >>1); 
....................     bit_clear(data2,7); 
....................     if(bit_test(data1,0)) 
....................        bit_set(data2,7); 
....................     data1 = data1 >>1; 
....................     *(((unsigned int8 *)(&y))+3) = data1; 
....................     *(((unsigned int8 *)(&y))+2) = data2; 
....................      
....................   #endif 
....................  
....................    do { 
....................       res=y; 
....................       y+=(x/y); 
....................  
....................       #if !defined(__PCD__) 
....................      (*p)--; 
....................    #endif 
....................     
....................    #if defined(__PCD__) 
....................     data1 = *(((unsigned int8 *)(&y))+3); 
....................     data2 = *(((unsigned int8 *)(&y))+2); 
....................     rotate_left(&data1,1); 
....................     if(bit_test(data2,7)) 
....................        bit_set(data1,0);     
....................     data1--; 
....................     bit_clear(data2,7); 
....................     if(bit_test(data1,0)) 
....................        bit_set(data2,7); 
....................     data1 = data1 >>1; 
....................     *(((unsigned int8 *)(&y))+3) = data1; 
....................     *(((unsigned int8 *)(&y))+2) = data2; 
....................      
....................   #endif 
....................    } while(res != y); 
....................  
....................    return(res); 
.................... } 
.................... //Overloaded functions for sqrt() for PCD 
.................... // Overloaded function sqrt() for data type - Float48 
.................... #if defined(__PCD__) 
.................... float48 sqrt(float48 x) 
.................... { 
....................    float48 y, res; 
....................    unsigned int16 data1,data2; 
....................    unsigned int8 *p; 
....................  
....................    #ifdef _ERRNO 
....................    if(x < 0) 
....................    { 
....................       errno=EDOM; 
....................    } 
....................    #endif 
....................  
....................    if( x<=0.0) 
....................       return(0.0); 
....................  
....................    y=x; 
....................     
....................    #if !defined(__PCD__) 
....................     p=&y; 
....................    (*p)=(unsigned int8)((((unsigned int16)(*p)) + 127) >> 1); 
....................    #endif 
....................     
....................    #if defined(__PCD__) 
....................     p = (((unsigned int8 *)(&y))+5); 
....................     data1 = *(((unsigned int8 *)(&y))+5); 
....................     data2 = *(((unsigned int8 *)(&y))+4); 
....................     rotate_left(&data1,1); 
....................     if(bit_test(data2,7)) 
....................        bit_set(data1,0);     
....................     data1 = ((data1+127) >>1); 
....................     bit_clear(data2,7); 
....................     if(bit_test(data1,0)) 
....................        bit_set(data2,7); 
....................     data1 = data1 >>1; 
....................     *(((unsigned int8 *)(&y))+5) = data1; 
....................     *(((unsigned int8 *)(&y))+4) = data2; 
....................      
....................   #endif 
....................  
....................    do { 
....................       res=y; 
....................       y+=(x/y); 
....................  
....................       #if !defined(__PCD__) 
....................      (*p)--; 
....................    #endif 
....................     
....................     data1 = *(((unsigned int8 *)(&y))+5); 
....................     data2 = *(((unsigned int8 *)(&y))+4); 
....................     rotate_left(&data1,1); 
....................     if(bit_test(data2,7)) 
....................        bit_set(data1,0);     
....................     data1--; 
....................     bit_clear(data2,7); 
....................     if(bit_test(data1,0)) 
....................        bit_set(data2,7); 
....................     data1 = data1 >>1; 
....................     *(((unsigned int8 *)(&y))+5) = data1; 
....................     *(((unsigned int8 *)(&y))+4) = data2; 
....................      
....................    } while(res != y); 
....................  
....................    return(res); 
.................... } 
....................  
.................... // Overloaded function sqrt() for data type - Float64 
.................... float64 sqrt(float64 x) 
.................... { 
....................    float64 y, res; 
....................    unsigned int16 *p; 
....................    unsigned int16 temp1,temp2; 
....................  
....................    #ifdef _ERRNO 
....................    if(x < 0) 
....................    { 
....................       errno=EDOM; 
....................    } 
....................    #endif 
....................  
....................    if( x<=0.0) 
....................       return(0.0); 
....................  
....................    y=x; 
....................    p= (((unsigned int16 *)(&y))+3); 
....................    temp1 = *p; 
....................    temp2 = *p; 
....................    bit_clear(temp1,15); 
....................    temp1 = (temp1>>4)+1023; 
....................    temp1 = temp1 >> 1; 
....................    temp1 = (temp1<<4) & 0xFFF0; 
....................    if(bit_test(temp2,15)) 
....................       bit_set(temp1,15); 
....................    temp2 = temp2 & 0x000F; 
....................    temp1 ^= temp2; 
....................     
....................    (*p) = temp1; 
....................     
....................    do { 
....................       res=y; 
....................       y+=(x/y); 
....................      temp1 = *p; 
....................      temp2 = *p; 
....................      bit_clear(temp1,15); 
....................      temp1 = (temp1>>4); 
....................      temp1--; 
....................      temp1 = (temp1<<4) & 0xFFF0; 
....................      if(bit_test(temp2,15)) 
....................         bit_set(temp1,15); 
....................      temp2 = temp2 & 0x000F; 
....................      temp1 ^= temp2; 
....................      (*p) = temp1; 
....................  
....................    } while(res != y); 
....................  
....................    return(res); 
.................... } 
.................... #endif 
....................  
.................... ////////////////////////////// Trig Functions ////////////////////////////// 
.................... #ifdef PI_DIV_BY_TWO_INV 
.................... #undef PI_DIV_BY_TWO_INV 
.................... #endif 
.................... #define PI_DIV_BY_TWO_INV 0.63661977236758134 
.................... #ifdef PI_DIV_BY_TWO 
.................... #undef PI_DIV_BY_TWO 
.................... #endif 
.................... #define PI_DIV_BY_TWO   1.5707963267948966 
.................... #ifdef TWOBYPI 
.................... #undef TWOBYPI 
.................... #endif 
.................... #define TWOBYPI          0.6366197723675813 
....................  
.................... //////////////////////////////////////////////////////////////////////////// 
.................... //   float cos(float x) 
.................... //////////////////////////////////////////////////////////////////////////// 
.................... // Description : returns the cosine value of the angle x, which is in radian 
.................... // Date : 9/20/2001 
.................... // 
.................... float32 cos(float32 x) 
.................... { 
....................    float32 y, t, t2 = 1.0; 
....................    unsigned int8 quad, i; 
....................    float32 frac; 
....................    float32 p[5] = {                    //by the series definition for cosine 
....................       -0.49999999456337096,            // sum ( ( (-1)^n * x^2n )/(2n)! ) 
....................        0.04166663896921267, 
....................       -0.00138883894522527, 
....................        0.00002476138231734, 
....................       -0.00000026070414770 
....................       //-0.00000000001147, 
....................       // 0.00000000000005 
....................    }; 
....................  
....................    if (x < 0) x = -x;                  // absolute value of input 
....................  
....................    quad = (unsigned int8)(x * PI_DIV_BY_TWO_INV);    // quadrant 
....................    frac = (x * PI_DIV_BY_TWO_INV) - quad;  // fractional part of input 
....................    quad = quad % 4;                    // quadrant (0 to 3) 
....................  
....................    if (quad == 0 || quad == 2) 
....................       t = frac * PI_DIV_BY_TWO; 
....................    else if (quad == 1) 
....................       t = (1-frac) * PI_DIV_BY_TWO; 
....................    else // should be 3 
....................       t = (frac-1) * PI_DIV_BY_TWO; 
....................  
....................    y = 1.0; 
....................    t = t * t; 
....................    for (i = 0; i <= 4; i++) 
....................    { 
....................       t2 = t2 * t; 
....................       y = y + p[i] * t2; 
....................    } 
....................  
....................    if (quad == 2 || quad == 1) 
....................       y = -y;  // correct sign 
....................  
....................    return (y); 
.................... } 
....................  
....................  
.................... //Overloaded functions for cos() for PCD 
.................... // Overloaded function cos() for data type - Float48 
.................... #if defined(__PCD__) 
.................... float48 cos(float48 x) 
.................... { 
....................    float48 y, t, t2 = 1.0; 
....................    unsigned int8 quad, i; 
....................    float48 frac; 
....................    float48 p[6] = {                    //by the series definition for cosine 
....................       -0.5,                            // sum ( ( (-1)^n * x^2n )/(2n)! ) 
....................        0.04166666666667, 
....................       -0.00138888888889, 
....................        0.00002480158730, 
....................       -0.00000027557319, 
....................        0.00000000208767 
....................    }; 
....................  
....................    if (x < 0) x = -x;                  // absolute value of input 
....................  
....................    quad = (unsigned int8)(x * PI_DIV_BY_TWO_INV);    // quadrant 
....................    frac = (x * PI_DIV_BY_TWO_INV) - quad;  // fractional part of input 
....................    quad = quad % 4;                    // quadrant (0 to 3) 
....................  
....................    if (quad == 0 || quad == 2) 
....................       t = frac * PI_DIV_BY_TWO; 
....................    else if (quad == 1) 
....................       t = (1-frac) * PI_DIV_BY_TWO; 
....................    else // should be 3 
....................       t = (frac-1) * PI_DIV_BY_TWO; 
....................  
....................    y = 0.999999999781; 
....................    t = t * t; 
....................    for (i = 0; i <= 5; i++) 
....................    { 
....................       t2 = t2 * t; 
....................       y = y + p[i] * t2; 
....................    } 
....................  
....................    if (quad == 2 || quad == 1) 
....................       y = -y;  // correct sign 
....................  
....................    return (y); 
.................... } 
....................  
.................... // Overloaded function cos() for data type - Float64 
.................... float64 cos(float64 x) 
.................... { 
....................    float64 y, t, t2 = 1.0; 
....................    unsigned int8 quad, i; 
....................    float64 frac; 
....................    float64 p_64[9] = {               //by the series definition for cosine 
....................      -0.49999999999998740,           // sum ( ( (-1)^n * x^2n )/(2n)! )              
....................       0.04166666666656518, 
....................      -0.00138888888851691, 
....................       0.00002480158658490, 
....................      -0.00000027557239796, 
....................       0.00000000208715031, 
....................      -0.00000000001126577, 
....................       0.00000000000000427, 
....................       0.00000000000000372}; 
....................  
....................    if (x < 0) x = -x;                  // absolute value of input 
....................  
....................    quad = (unsigned int8)(x * PI_DIV_BY_TWO_INV);    // quadrant 
....................    frac = (x * PI_DIV_BY_TWO_INV) - quad;  // fractional part of input 
....................    quad = quad % 4;                    // quadrant (0 to 3) 
....................  
....................    if (quad == 0 || quad == 2) 
....................       t = frac * PI_DIV_BY_TWO; 
....................    else if (quad == 1) 
....................       t = (1-frac) * PI_DIV_BY_TWO; 
....................    else // should be 3 
....................       t = (frac-1) * PI_DIV_BY_TWO; 
....................  
....................    y = 1.0; 
....................    t = t * t; 
....................    for (i = 0; i <= 8; i++) 
....................    { 
....................       t2 = t2 * t; 
....................       y = y + p_64[i] * t2; 
....................    } 
....................  
....................    if (quad == 2 || quad == 1) 
....................       y = -y;  // correct sign 
....................  
....................    return (y); 
.................... } 
....................  
.................... #endif 
....................  
.................... //////////////////////////////////////////////////////////////////////////// 
.................... //   float sin(float x) 
.................... //////////////////////////////////////////////////////////////////////////// 
.................... // Description : returns the sine value of the angle x, which is in radian 
.................... // Date : 9/20/2001 
.................... // 
.................... float32 sin(float32 x) 
.................... { 
....................    return cos(x - PI_DIV_BY_TWO); 
.................... } 
....................  
.................... //Overloaded functions for sin() for PCD 
.................... // Overloaded function sin() for data type - Float48 
.................... #if defined(__PCD__) 
.................... float48 sin(float48 x) 
.................... { 
....................    return cos(x - PI_DIV_BY_TWO); 
.................... } 
....................  
.................... // Overloaded function sin() for data type - Float48 
.................... float64 sin(float64 x) 
.................... { 
....................    return cos(x - PI_DIV_BY_TWO); 
.................... } 
.................... #endif 
....................  
.................... //////////////////////////////////////////////////////////////////////////// 
.................... //   float tan(float x) 
.................... //////////////////////////////////////////////////////////////////////////// 
.................... // Description : returns the tangent value of the angle x, which is in radian 
.................... // Date : 9/20/2001 
.................... // 
.................... float32 tan(float32 x) 
.................... { 
....................    float32 c, s; 
....................  
....................    c = cos(x); 
....................    if (c == 0.0) 
....................       return (1.0e+36); 
....................  
....................    s = sin(x); 
....................    return(s/c); 
.................... } 
.................... //Overloaded functions for tan() for PCD 
.................... // Overloaded function tan() for data type - Float48 
.................... #if defined(__PCD__) 
.................... float48 tan(float48 x) 
.................... { 
....................    float48 c, s; 
....................  
....................    c = cos(x); 
....................    if (c == 0.0) 
....................       return (1.0e+36); 
....................  
....................    s = sin(x); 
....................    return(s/c); 
.................... } 
....................  
.................... // Overloaded function tan() for data type - Float48 
.................... float64 tan(float64 x) 
.................... { 
....................    float64 c, s; 
....................  
....................    c = cos(x); 
....................    if (c == 0.0) 
....................       return (1.0e+36); 
....................  
....................    s = sin(x); 
....................    return(s/c); 
.................... } 
.................... #endif 
....................  
.................... float32 const pas[3] = {0.49559947, -4.6145309, 5.6036290}; 
.................... float32 const qas[3] = {1.0000000,  -5.5484666, 5.6036290}; 
....................  
.................... float32 ASIN_COS(float32 x, unsigned int8 n) 
.................... { 
....................    float32 y, res, r, y2; 
....................    int1 s; 
....................    #ifdef _ERRNO 
....................    if(x <-1 || x > 1) 
....................    { 
....................       errno=EDOM; 
....................    } 
....................    #endif 
....................    s = 0; 
....................    y = x; 
....................  
....................    if (x < 0) 
....................    { 
....................       s = 1; 
....................       y = -y; 
....................    } 
....................  
....................    if (y > 0.5) 
....................    { 
....................       y = sqrt((1.0 - y)*0.5); 
....................       n += 2; 
....................    } 
....................  
....................    y2=y*y; 
....................  
....................    res = pas[0]*y2 + pas[1]; 
....................    res = res*y2 + pas[2]; 
....................  
....................    r = qas[0]*y2 + qas[1]; 
....................    r = r*y2 + qas[2]; 
....................  
....................    res = y*res/r; 
....................  
....................    if (n & 2)     // |x| > 0.5 
....................       res = PI_DIV_BY_TWO - 2.0*res; 
....................    if (s) 
....................       res = -res; 
....................    if (n & 1)           // take arccos 
....................       res = PI_DIV_BY_TWO - res; 
....................  
....................    return(res); 
.................... } 
....................  
....................  
.................... //Overloaded functions for ASIN_COS() for PCD 
.................... // Overloaded function ASIN_COS() for data type - Float48 
.................... #if defined(__PCD__) 
.................... float48 ASIN_COS(float48 x, unsigned int8 n) 
.................... { 
....................    float48 y, res, r, y2; 
....................    int1 s; 
....................    #ifdef _ERRNO 
....................    if(x <-1 || x > 1) 
....................    { 
....................       errno=EDOM; 
....................    } 
....................    #endif 
....................    s = 0; 
....................    y = x; 
....................  
....................    if (x < 0) 
....................    { 
....................       s = 1; 
....................       y = -y; 
....................    } 
....................  
....................    if (y > 0.5) 
....................    { 
....................       y = sqrt((1.0 - y)*0.5); 
....................       n += 2; 
....................    } 
....................  
....................    y2=y*y; 
....................  
....................    res = pas[0]*y2 + pas[1]; 
....................    res = res*y2 + pas[2]; 
....................  
....................    r = qas[0]*y2 + qas[1]; 
....................    r = r*y2 + qas[2]; 
....................  
....................    res = y*res/r; 
....................  
....................    if (n & 2)     // |x| > 0.5 
....................       res = PI_DIV_BY_TWO - 2.0*res; 
....................    if (s) 
....................       res = -res; 
....................    if (n & 1)           // take arccos 
....................       res = PI_DIV_BY_TWO - res; 
....................  
....................    return(res); 
.................... } 
....................  
.................... // Overloaded function ASIN_COS() for data type - Float64 
.................... double pas_64[5]={1.000000000000000,-2.069938587724477,1.421444580548907, 
....................                  -0.360690137621842,0.024929451660228}; 
....................  
.................... double qas_64[5]={-2.236605254391134,1.719212122946451,-0.524122954476133, 
....................                    0.052808872045749,-0.000662536036570}; 
....................                     
.................... float64 ASIN_COS(float64 x, unsigned int8 n) 
.................... { 
....................    float64 y, res, r, y2; 
....................    int1 s; 
....................    #ifdef _ERRNO 
....................    if(x <-1 || x > 1) 
....................    { 
....................       errno=EDOM; 
....................    } 
....................    #endif 
....................    s = 0; 
....................    y = x; 
....................  
....................    if (x < 0) 
....................    { 
....................       s = 1; 
....................       y = -y; 
....................    } 
....................  
....................    if (y > 0.5) 
....................    { 
....................       y = sqrt((1.0 - y)*0.5); 
....................       n += 2; 
....................    } 
....................  
....................    y2=y*y; 
....................  
....................    res = pas_64[4]*y2 + pas_64[3]; 
....................    res = res*y2 + pas_64[2]; 
....................    res = res*y2 + pas_64[1]; 
....................    res = res*y2 + pas_64[0]; 
....................  
....................    r = qas_64[4]*y2 + qas_64[3]; 
....................    r = r*y2 + qas_64[2]; 
....................    r = r*y2 + qas_64[1]; 
....................    r = r*y2 + qas_64[0]; 
....................    r = r*y2 + 1.0; 
....................  
....................    res = y*res/r; 
....................  
....................    if (n & 2)     // |x| > 0.5 
....................       res = PI_DIV_BY_TWO - 2.0*res; 
....................    if (s) 
....................       res = -res; 
....................    if (n & 1)           // take arccos 
....................       res = PI_DIV_BY_TWO - res; 
....................  
....................    return(res); 
.................... } 
.................... #endif 
....................  
.................... //////////////////////////////////////////////////////////////////////////// 
.................... //   float asin(float x) 
.................... //////////////////////////////////////////////////////////////////////////// 
.................... // Description : returns the arcsine value of the value x. 
.................... // Date : N/A 
.................... // 
.................... float32 asin(float32 x) 
.................... { 
....................    float32 r; 
....................  
....................    r = ASIN_COS(x, 0); 
....................    return(r); 
.................... } 
.................... //Overloaded functions for asin() for PCD 
.................... // Overloaded function asin() for data type - Float48 
.................... #if defined(__PCD__) 
.................... float48 asin(float48 x) 
.................... { 
....................    float48 r; 
....................  
....................    r = ASIN_COS(x, 0); 
....................    return(r); 
.................... } 
....................  
.................... // Overloaded function asin() for data type - Float64 
.................... float64 asin(float64 x) 
.................... { 
....................    float64 r; 
....................  
....................    r = ASIN_COS(x, 0); 
....................    return(r); 
.................... } 
.................... #endif 
....................  
.................... //////////////////////////////////////////////////////////////////////////// 
.................... //   float acos(float x) 
.................... //////////////////////////////////////////////////////////////////////////// 
.................... // Description : returns the arccosine value of the value x. 
.................... // Date : N/A 
.................... // 
.................... float32 acos(float32 x) 
.................... { 
....................    float32 r; 
....................  
....................    r = ASIN_COS(x, 1); 
....................    return(r); 
.................... } 
.................... //Overloaded functions for acos() for PCD 
.................... // Overloaded function acos() for data type - Float48 
.................... #if defined(__PCD__) 
.................... float48 acos(float48 x) 
.................... { 
....................    float48 r; 
....................  
....................    r = ASIN_COS(x, 1); 
....................    return(r); 
.................... } 
....................  
.................... // Overloaded function acos() for data type - Float64 
.................... float64 acos(float64 x) 
.................... { 
....................    float64 r; 
....................  
....................    r = ASIN_COS(x, 1); 
....................    return(r); 
.................... } 
.................... #endif 
....................  
.................... float32 const pat[4] = {0.17630401, 5.6710795, 22.376096, 19.818457}; 
.................... float32 const qat[4] = {1.0000000,  11.368190, 28.982246, 19.818457}; 
....................  
.................... //////////////////////////////////////////////////////////////////////////// 
.................... //   float atan(float x) 
.................... //////////////////////////////////////////////////////////////////////////// 
.................... // Description : returns the arctangent value of the value x. 
.................... // Date : N/A 
.................... // 
.................... float32 atan(float32 x) 
.................... { 
....................    float32 y, res, r; 
....................    int1 s, flag; 
....................  
....................    s = 0; 
....................    flag = 0; 
....................    y = x; 
....................  
....................    if (x < 0) 
....................    { 
....................       s = 1; 
....................       y = -y; 
....................    } 
....................  
....................    if (y > 1.0) 
....................    { 
....................       y = 1.0/y; 
....................       flag = 1; 
....................    } 
....................  
....................    res = pat[0]*y*y + pat[1]; 
....................    res = res*y*y + pat[2]; 
....................    res = res*y*y + pat[3]; 
....................  
....................    r = qat[0]*y*y + qat[1]; 
....................    r = r*y*y + qat[2]; 
....................    r = r*y*y + qat[3]; 
....................  
....................    res = y*res/r; 
....................  
....................  
....................    if (flag)                              // for |x| > 1 
....................       res = PI_DIV_BY_TWO - res; 
....................    if (s) 
....................       res = -res; 
....................  
....................    return(res); 
.................... } 
.................... //Overloaded functions for atan() for PCD 
.................... // Overloaded function atan() for data type - Float48 
.................... #if defined(__PCD__) 
.................... float48 atan(float48 x) 
.................... { 
....................    float48 y, res, r; 
....................    int1 s, flag; 
....................  
....................    s = 0; 
....................    flag = 0; 
....................    y = x; 
....................  
....................    if (x < 0) 
....................    { 
....................       s = 1; 
....................       y = -y; 
....................    } 
....................  
....................    if (y > 1.0) 
....................    { 
....................       y = 1.0/y; 
....................       flag = 1; 
....................    } 
....................  
....................    res = pat[0]*y*y + pat[1]; 
....................    res = res*y*y + pat[2]; 
....................    res = res*y*y + pat[3]; 
....................  
....................    r = qat[0]*y*y + qat[1]; 
....................    r = r*y*y + qat[2]; 
....................    r = r*y*y + qat[3]; 
....................  
....................    res = y*res/r; 
....................  
....................  
....................    if (flag)                              // for |x| > 1 
....................       res = PI_DIV_BY_TWO - res; 
....................    if (s) 
....................       res = -res; 
....................  
....................    return(res); 
.................... } 
....................  
.................... float64 pat_64[6]={0.999999999999999,2.249923645595566,1.771541617806449, 
....................                    0.579678874003185,0.072162702162882,0.002281100141660}; 
....................  
.................... float64 qat_64[6]={2.583256978928510,2.432627277466967,1.016760379885393, 
....................                    0.182482977188688,0.011155377971690,0.000100013019160}; 
.................... // Overloaded function atan() for data type - Float64 
.................... float64 atan(float64 x) 
.................... { 
....................    float64 y,y2, res, r; 
....................    int1 s, flag; 
....................  
....................    s = 0; 
....................    flag = 0; 
....................    y = x; 
....................  
....................    if (x < 0) 
....................    { 
....................       s = 1; 
....................       y = -y; 
....................    } 
....................  
....................    if (y > 1.0) 
....................    { 
....................       y = 1.0/y; 
....................       flag = 1; 
....................    } 
....................    y2 = y*y; 
....................    res = pat_64[5]*y2 + pat_64[4]; 
....................    res = res*y2 + pat_64[3]; 
....................    res = res*y2 + pat_64[2]; 
....................    res = res*y2 + pat_64[1]; 
....................    res = res*y2 + pat_64[0]; 
....................  
....................    r = qat_64[5]*y2 + qat_64[4]; 
....................    r = r*y2 + qat_64[3]; 
....................    r = r*y2 + qat_64[2]; 
....................    r = r*y2 + qat_64[1]; 
....................    r = r*y2 + qat_64[0]; 
....................    r = r*y2 + 1.0; 
....................  
....................    res = y*res/r; 
....................  
....................  
....................    if (flag)                              // for |x| > 1 
....................       res = PI_DIV_BY_TWO - res; 
....................    if (s) 
....................       res = -res; 
....................  
....................    return(res); 
.................... } 
.................... #endif 
....................  
.................... ///////////////////////////////////////////////////////////////////////////// 
.................... //   float atan2(float y, float x) 
.................... ///////////////////////////////////////////////////////////////////////////// 
.................... // Description :computes the principal value of arc tangent of y/x, using the 
.................... // signs of both the arguments to determine the quadrant of the return value 
.................... // Returns : returns the arc tangent of y/x. 
.................... // Date : N/A 
.................... // 
....................  
.................... float32 atan2(float32 y,float32 x) 
.................... { 
....................    float32 z; 
....................    int1 sign; 
....................    unsigned int8 quad; 
....................    sign=0; 
....................    quad=0; //quadrant 
....................    quad=((y<=0.0)?((x<=0.0)?3:4):((x<0.0)?2:1)); 
....................    if(y<0.0) 
....................    { 
....................       sign=1; 
....................       y=-y; 
....................    } 
....................    if(x<0.0) 
....................    { 
....................       x=-x; 
....................    } 
....................    if (x==0.0) 
....................    { 
....................       if(y==0.0) 
....................       { 
....................       #ifdef _ERRNO 
....................       { 
....................          errno=EDOM; 
....................       } 
....................       #endif 
....................       } 
....................       else 
....................       { 
....................          if(sign) 
....................          { 
....................          return (-(PI_DIV_BY_TWO)); 
....................          } 
....................          else 
....................          { 
....................          return (PI_DIV_BY_TWO); 
....................          } 
....................       } 
....................    } 
....................    else 
....................    { 
....................       z=y/x; 
....................       switch(quad) 
....................       { 
....................          case 1: 
....................          { 
....................             return atan(z); 
....................             break; 
....................          } 
....................          case 2: 
....................          { 
.................... //            return (atan(z)+PI_DIV_BY_TWO);  //2L3122 
....................             return (PI-atan(z)); 
....................             break; 
....................          } 
....................          case 3: 
....................          { 
....................             return (atan(z)-PI); 
....................             break; 
....................          } 
....................          case 4: 
....................          { 
....................             return (-atan(z)); 
....................             break; 
....................          } 
....................       } 
....................    } 
.................... } 
....................  
.................... //Overloaded functions for atan2() for PCD 
.................... // Overloaded function atan2() for data type - Float48 
.................... #if defined(__PCD__) 
.................... float48 atan2(float48 y,float48 x) 
.................... { 
....................    float48 z; 
....................    int1 sign; 
....................    unsigned int8 quad; 
....................    sign=0; 
....................    quad=0; //quadrant 
....................    quad=((y<=0.0)?((x<=0.0)?3:4):((x<0.0)?2:1)); 
....................    if(y<0.0) 
....................    { 
....................       sign=1; 
....................       y=-y; 
....................    } 
....................    if(x<0.0) 
....................    { 
....................       x=-x; 
....................    } 
....................    if (x==0.0) 
....................    { 
....................       if(y==0.0) 
....................       { 
....................       #ifdef _ERRNO 
....................       { 
....................          errno=EDOM; 
....................       } 
....................       #endif 
....................       } 
....................       else 
....................       { 
....................          if(sign) 
....................          { 
....................          return (-(PI_DIV_BY_TWO)); 
....................          } 
....................          else 
....................          { 
....................          return (PI_DIV_BY_TWO); 
....................          } 
....................       } 
....................    } 
....................    else 
....................    { 
....................       z=y/x; 
....................       switch(quad) 
....................       { 
....................          case 1: 
....................          { 
....................             return atan(z); 
....................             break; 
....................          } 
....................          case 2: 
....................          { 
.................... //            return (atan(z)+PI_DIV_BY_TWO);  //2L3122 
....................             return (PI-atan(z)); 
....................             break; 
....................          } 
....................          case 3: 
....................          { 
....................             return (atan(z)-PI); 
....................             break; 
....................          } 
....................          case 4: 
....................          { 
....................             return (-atan(z)); 
....................             break; 
....................          } 
....................       } 
....................    } 
.................... } 
....................  
.................... // Overloaded function atan2() for data type - Float64 
.................... float64 atan2(float64 y,float64 x) 
.................... { 
....................    float64 z; 
....................    int1 sign; 
....................    unsigned int8 quad; 
....................    sign=0; 
....................    quad=0; //quadrant 
....................    quad=((y<=0.0)?((x<=0.0)?3:4):((x<0.0)?2:1)); 
....................    if(y<0.0) 
....................    { 
....................       sign=1; 
....................       y=-y; 
....................    } 
....................    if(x<0.0) 
....................    { 
....................       x=-x; 
....................    } 
....................    if (x==0.0) 
....................    { 
....................       if(y==0.0) 
....................       { 
....................       #ifdef _ERRNO 
....................       { 
....................          errno=EDOM; 
....................       } 
....................       #endif 
....................       } 
....................       else 
....................       { 
....................          if(sign) 
....................          { 
....................          return (-(PI_DIV_BY_TWO)); 
....................          } 
....................          else 
....................          { 
....................          return (PI_DIV_BY_TWO); 
....................          } 
....................       } 
....................    } 
....................    else 
....................    { 
....................       z=y/x; 
....................       switch(quad) 
....................       { 
....................          case 1: 
....................          { 
....................             return atan(z); 
....................             break; 
....................          } 
....................          case 2: 
....................          { 
.................... //            return (atan(z)+PI_DIV_BY_TWO);  //2L3122 
....................             return (PI-atan(z)); 
....................             break; 
....................          } 
....................          case 3: 
....................          { 
....................             return (atan(z)-PI); 
....................             break; 
....................          } 
....................          case 4: 
....................          { 
....................             return (-atan(z)); 
....................             break; 
....................          } 
....................       } 
....................    } 
.................... } 
.................... #endif 
....................  
.................... //////////////////// Hyperbolic functions //////////////////// 
....................  
.................... //////////////////////////////////////////////////////////////////////////// 
.................... //   float cosh(float x) 
.................... //////////////////////////////////////////////////////////////////////////// 
.................... // Description : Computes the hyperbolic cosine value of x 
.................... // Returns : returns the hyperbolic cosine value of x 
.................... // Date : N/A 
.................... // 
....................  
.................... float32 cosh(float32 x) 
.................... { 
....................    return ((exp(x)+exp(-x))*0.5); 
.................... } 
.................... //Overloaded functions for cosh() for PCD 
.................... // Overloaded function cosh() for data type - Float48 
.................... #if defined(__PCD__) 
.................... float48 cosh(float48 x) 
.................... { 
....................    return ((exp(x)+exp(-x))*0.5); 
.................... } 
....................  
.................... // Overloaded function cosh() for data type - Float64 
.................... float64 cosh(float64 x) 
.................... { 
....................    return ((exp(x)+exp(-x))*0.5); 
.................... } 
.................... #endif 
....................  
.................... //////////////////////////////////////////////////////////////////////////// 
.................... //   float sinh(float x) 
.................... //////////////////////////////////////////////////////////////////////////// 
.................... // Description : Computes the hyperbolic sine value of x 
.................... // Returns : returns the hyperbolic sine value of x 
.................... // Date : N/A 
.................... // 
....................  
.................... float32 sinh(float32 x) 
.................... { 
....................  
....................    return ((exp(x) - exp(-x))*0.5); 
.................... } 
.................... //Overloaded functions for sinh() for PCD 
.................... // Overloaded function sinh() for data type - Float48 
.................... #if defined(__PCD__) 
.................... float48 sinh(float48 x) 
.................... { 
....................  
....................    return ((exp(x) - exp(-x))*0.5); 
.................... } 
....................  
.................... // Overloaded function sinh() for data type - Float48 
.................... float64 sinh(float64 x) 
.................... { 
....................  
....................    return ((exp(x) - exp(-x))*0.5); 
.................... } 
.................... #endif 
....................  
.................... //////////////////////////////////////////////////////////////////////////// 
.................... //   float tanh(float x) 
.................... //////////////////////////////////////////////////////////////////////////// 
.................... // Description : Computes the hyperbolic tangent value of x 
.................... // Returns : returns the hyperbolic tangent value of x 
.................... // Date : N/A 
.................... // 
....................  
.................... float32 tanh(float32 x) 
.................... { 
....................    return(sinh(x)/cosh(x)); 
.................... } 
.................... //Overloaded functions for tanh() for PCD 
.................... // Overloaded function tanh() for data type - Float48 
.................... #if defined(__PCD__) 
.................... float48 tanh(float48 x) 
.................... { 
....................    return(sinh(x)/cosh(x)); 
.................... } 
....................  
.................... // Overloaded function tanh() for data type - Float64 
.................... float64 tanh(float64 x) 
.................... { 
....................    return(sinh(x)/cosh(x)); 
.................... } 
.................... #endif 
....................  
.................... //////////////////////////////////////////////////////////////////////////// 
.................... //   float frexp(float x, signed int *exp) 
.................... //////////////////////////////////////////////////////////////////////////// 
.................... // Description : breaks a floating point number into a normalized fraction and an integral 
.................... // power of 2. It stores the integer in the signed int object pointed to by exp. 
.................... // Returns : returns the value x, such that x is a double with magnitude in the interval 
.................... // [1/2,1) or zero, and value equals x times 2 raised to the power *exp.If value is zero, 
.................... // both parts of the result are zero. 
.................... // Date : N/A 
.................... // 
....................  
.................... #define LOG2 .30102999566398119521 
.................... #define LOG2_INV 3.32192809488736234787 
.................... float32 frexp(float32 x, signed int8 *exp) 
.................... { 
....................    float32 res; 
....................    int1 sign = 0; 
....................    if(x == 0.0) 
....................    { 
....................       *exp=0; 
....................       return (0.0); 
....................    } 
....................    if(x < 0.0) 
....................    { 
....................      x=-x; 
....................      sign=1; 
....................    } 
....................    if (x > 1.0) 
....................    { 
....................       *exp=(ceil(log10(x)*LOG2_INV)); 
....................       res=x/(pow(2, *exp)); 
....................       if (res == 1) 
....................       { 
....................          *exp=*exp+1; 
....................           res=.5; 
....................       } 
....................    } 
....................    else 
....................    { 
....................       if(x < 0.5) 
....................       { 
....................          *exp=-1; 
....................          res=x*2; 
....................       } 
....................       else 
....................       { 
....................          *exp=0; 
....................           res=x; 
....................       } 
....................    } 
....................    if(sign) 
....................    { 
....................       res=-res; 
....................    } 
....................    return res; 
.................... } 
....................  
.................... //Overloaded functions for frexp() for PCD 
.................... // Overloaded function frexp() for data type - Float48 
.................... #if defined(__PCD__) 
.................... float48 frexp(float48 x, signed int8 *exp) 
.................... { 
....................    float48 res; 
....................    int1 sign = 0; 
....................    if(x == 0.0) 
....................    { 
....................       *exp=0; 
....................       return (0.0); 
....................    } 
....................    if(x < 0.0) 
....................    { 
....................      x=-x; 
....................      sign=1; 
....................    } 
....................    if (x > 1.0) 
....................    { 
....................       *exp=(ceil(log10(x)*LOG2_INV)); 
....................       res=x/(pow(2, *exp)); 
....................       if (res == 1) 
....................       { 
....................          *exp=*exp+1; 
....................           res=.5; 
....................       } 
....................    } 
....................    else 
....................    { 
....................       if(x < 0.5) 
....................       { 
....................          *exp=-1; 
....................          res=x*2; 
....................       } 
....................       else 
....................       { 
....................          *exp=0; 
....................           res=x; 
....................       } 
....................    } 
....................    if(sign) 
....................    { 
....................       res=-res; 
....................    } 
....................    return res; 
.................... } 
....................  
.................... // Overloaded function frexp() for data type - Float64 
.................... float64 frexp(float64 x, signed int8 *exp) 
.................... { 
....................    float64 res; 
....................    int1 sign = 0; 
....................    if(x == 0.0) 
....................    { 
....................       *exp=0; 
....................       return (0.0); 
....................    } 
....................    if(x < 0.0) 
....................    { 
....................      x=-x; 
....................      sign=1; 
....................    } 
....................    if (x > 1.0) 
....................    { 
....................       *exp=(ceil(log10(x)*LOG2_INV)); 
....................       res=x/(pow(2, *exp)); 
....................       if (res == 1) 
....................       { 
....................          *exp=*exp+1; 
....................           res=.5; 
....................       } 
....................    } 
....................    else 
....................    { 
....................       if(x < 0.5) 
....................       { 
....................          *exp=-1; 
....................          res=x*2; 
....................       } 
....................       else 
....................       { 
....................          *exp=0; 
....................           res=x; 
....................       } 
....................    } 
....................    if(sign) 
....................    { 
....................       res=-res; 
....................    } 
....................    return res; 
.................... } 
.................... #endif 
....................  
.................... ////////////////////////////////////////////////////////////////////////////// 
.................... //   float ldexp(float x, signed int *exp) 
.................... ////////////////////////////////////////////////////////////////////////////// 
.................... // Description : multiplies a floating point number by an integral power of 2. 
.................... // Returns : returns the value of x times 2 raised to the power exp. 
.................... // Date : N/A 
.................... // 
....................  
.................... float32 ldexp(float32 value, signed int8 exp) 
.................... { 
....................    return (value * pow(2,exp)); 
.................... } 
.................... //Overloaded functions for ldexp() for PCD 
.................... // Overloaded function ldexp() for data type - Float48 
....................  
.................... #if defined(__PCD__) 
.................... float48 ldexp(float48 value, signed int8 exp) 
.................... { 
....................    return (value * pow(2,exp)); 
.................... } 
.................... // Overloaded function ldexp() for data type - Float64 
.................... float64 ldexp(float64 value, signed int8 exp) 
.................... { 
....................    return (value * pow(2,exp)); 
.................... } 
.................... #endif 
....................  
.................... #endif 
....................  
....................  
.................... #define SPI_MODE_0  (SPI_L_TO_H | SPI_XMIT_L_TO_H)  
.................... #define SPI_MODE_1  (SPI_L_TO_H)  
.................... #define SPI_MODE_2  (SPI_H_TO_L)  
.................... #define SPI_MODE_3  (SPI_H_TO_L | SPI_XMIT_L_TO_H)  
.................... #define SS PIN_C0  
....................  
.................... // Definicin de teclado - NO 
.................... #define   UP               input(PIN_A5) 
.................... #define   DOWN             input(PIN_E0) 
.................... #define   RIGHT            input(PIN_E1) 
.................... #define   LEFT             input(PIN_E2) 
....................  
.................... #define   DOOR             input(PIN_A3) 
.................... #define   TERM             input(PIN_A4) 
....................  
.................... #define   Resistencia_on   output_bit(PIN_C0,1) 
.................... #define   Resistencia_off  output_bit(PIN_C0,0) 
.................... #define   Buzz_on          output_bit(PIN_C7,1) 
.................... #define   Buzz_off         output_bit(PIN_C7,0) 
....................  
.................... float promedio[90]={0.0,0.0,0.0,0.0,0.0,0.0,0.0,0.0,0.0,0.0,0.0,0.0,0.0,0.0,0.0,0.0,0.0,0.0,0.0,0.0,0.0,0.0,0.0,0.0,0.0,0.0,0.0,0.0,0.0,0.0,0.0,0.0,0.0,0.0,0.0,0.0,0.0,0.0,0.0,0.0,0.0,0.0,0.0,0.0,0.0,0.0,0.0,0.0,0.0,0.0,0.0,0.0,0.0,0.0,0.0,0.0,0.0,0.0,0.0,0.0,0.0,0.0,0.0,0.0,0.0,0.0,0.0,0.0,0.0,0.0,0.0,0.0,0.0,0.0}; 
.................... float X[2]={0.0,0.0}; 
.................... short flagup=0,flagdn=0,Desconectado=0; 
.................... int8 h=0,l=0,Ajuste=0,Ajusten=0,MediaMovil=10,tiemporecta=0,flag_ganancia=0,Lectura2=0,tiempoup=0,tiempodn=0,Segmentos=0,Segmento=0,Modo=5; 
.................... short Flanco=0,Flanco1=0,Flanco2=0,visual=1,Lectura=0,flag_calcula=0; 
.................... short flag_clear2=0,flag_tiempocalentamiento=0,flag_display=0,flag_setpoint=0,Dibuja=0; 
.................... int8 y=0,tiemporeset=0,Programa=1,Control=0; 
.................... int8 Menu=0, unidad=1,i=0,j=1,Pausa=0,Pausa_ant=0,TiempoControl=0; 
.................... int8 Opcion=1,tiempo_esterilizacion=0,ProgramaSeleccionado=0,Alarma=10; 
.................... int16 tiempos=0,tiempos3=0,tiempoctrl=0,tinicio=0,tiempocalentamiento=0,tiemposetpoint=0,Tp=0,Tc=0; 
.................... float PendienteMinutos=0,TempeInicial=20,Tiempo=0,TiempoActual=0,PendienteActual=0,HorasActual=0,MinutosActual=0; 
.................... float Potencia=0.0,PotenciaEntregada=0.0; 
.................... signed int  Testerilizacion[4]={0,0,0,0};   // Tiempo transcurrido 
.................... signed int  Testerilizacionp[4]={0,0,0,0};   // Tiempo transcurrido 
.................... signed int  Contrasena[4]={0,0,0,0};      // Contrasena de 4 digitos 
.................... signed int  Password[4]={0,0,0,0};        // Contrasena Almacenada de 4 digitos 
.................... float V0=0.0,Tciclo=10.0,Tpulso=0.0,error=0.0,Prom=0.0,Temperature=0.0,tmp=0.0,Ganancia=3.0,desvio=3.0,Coeficiente=150.0,AlTem=20.0; 
.................... float Aumento=0.0,Temperatura=0.0,Pendiente=0.0,DifPendiente=0.0,Setpoint=0,Integral=0,Derivativo=0; 
.................... signed int16 Temperatura1[50]; 
.................... signed int16 Horas1[50]; 
.................... signed int16 Minutos1[50]; 
....................  
.................... typedef struct{ 
....................    char Letra[30]; 
.................... }MENUU; 
....................  
.................... MENUU Menus; 
....................  
.................... void ActualizaRecta(){ 
....................    X[y]=Temperatura; 
*
03AF4:  MOVLB  5
03AF6:  MOVF   x9A,W
03AF8:  MULLW  04
03AFA:  MOVF   FF3,W
03AFC:  CLRF   03
03AFE:  ADDLW  83
03B00:  MOVWF  FE9
03B02:  MOVLW  05
03B04:  ADDWFC 03,W
03B06:  MOVWF  FEA
03B08:  MOVFF  61D,FEF
03B0C:  MOVFF  61E,FEC
03B10:  MOVFF  61F,FEC
03B14:  MOVFF  620,FEC
....................    y++; 
03B18:  INCF   x9A,F
....................    if(y>=2) 
03B1A:  MOVF   x9A,W
03B1C:  SUBLW  01
03B1E:  BTFSC  FD8.0
03B20:  BRA    3DC8
....................    { 
....................       y=0; 
03B22:  CLRF   x9A
....................       Aumento=X[1]-X[0]; 
03B24:  BSF    FD8.1
03B26:  MOVFF  58A,78D
03B2A:  MOVFF  589,78C
03B2E:  MOVFF  588,78B
03B32:  MOVFF  587,78A
03B36:  MOVFF  586,791
03B3A:  MOVFF  585,790
03B3E:  MOVFF  584,78F
03B42:  MOVFF  583,78E
03B46:  MOVLB  0
03B48:  CALL   1BDA
03B4C:  MOVFF  03,61C
03B50:  MOVFF  02,61B
03B54:  MOVFF  01,61A
03B58:  MOVFF  00,619
....................       HorasActual=(Testerilizacion[3]*10)+Testerilizacion[2]; 
03B5C:  MOVFF  5E0,7A6
03B60:  MOVLW  0A
03B62:  MOVLB  7
03B64:  MOVWF  xA7
03B66:  MOVLB  0
03B68:  CALL   25C0
03B6C:  MOVLB  5
03B6E:  MOVF   xDF,W
03B70:  ADDWF  01,W
03B72:  MOVLB  7
03B74:  CLRF   x88
03B76:  MOVWF  x87
03B78:  BTFSC  x87.7
03B7A:  DECF   x88,F
03B7C:  MOVLB  0
03B7E:  CALL   2570
03B82:  MOVFF  03,5D0
03B86:  MOVFF  02,5CF
03B8A:  MOVFF  01,5CE
03B8E:  MOVFF  00,5CD
....................       MinutosActual=(Testerilizacion[1]*10)+Testerilizacion[0]; 
03B92:  MOVFF  5DE,7A6
03B96:  MOVLW  0A
03B98:  MOVLB  7
03B9A:  MOVWF  xA7
03B9C:  MOVLB  0
03B9E:  CALL   25C0
03BA2:  MOVLB  5
03BA4:  MOVF   xDD,W
03BA6:  ADDWF  01,W
03BA8:  MOVLB  7
03BAA:  CLRF   x88
03BAC:  MOVWF  x87
03BAE:  BTFSC  x87.7
03BB0:  DECF   x88,F
03BB2:  MOVLB  0
03BB4:  CALL   2570
03BB8:  MOVFF  03,5D4
03BBC:  MOVFF  02,5D3
03BC0:  MOVFF  01,5D2
03BC4:  MOVFF  00,5D1
....................       TiempoActual=Tiempo-((HorasActual*3600)+(MinutosActual*60)+tinicio); 
03BC8:  MOVFF  5D0,78C
03BCC:  MOVFF  5CF,78B
03BD0:  MOVFF  5CE,78A
03BD4:  MOVFF  5CD,789
03BD8:  MOVLB  7
03BDA:  CLRF   x90
03BDC:  CLRF   x8F
03BDE:  MOVLW  61
03BE0:  MOVWF  x8E
03BE2:  MOVLW  8A
03BE4:  MOVWF  x8D
03BE6:  MOVLB  0
03BE8:  CALL   1FB0
03BEC:  MOVFF  03,788
03BF0:  MOVFF  02,787
03BF4:  MOVFF  01,786
03BF8:  MOVFF  00,785
03BFC:  MOVFF  5D4,78C
03C00:  MOVFF  5D3,78B
03C04:  MOVFF  5D2,78A
03C08:  MOVFF  5D1,789
03C0C:  MOVLB  7
03C0E:  CLRF   x90
03C10:  CLRF   x8F
03C12:  MOVLW  70
03C14:  MOVWF  x8E
03C16:  MOVLW  84
03C18:  MOVWF  x8D
03C1A:  MOVLB  0
03C1C:  CALL   1FB0
03C20:  BCF    FD8.1
03C22:  MOVFF  788,78D
03C26:  MOVFF  787,78C
03C2A:  MOVFF  786,78B
03C2E:  MOVFF  785,78A
03C32:  MOVFF  03,791
03C36:  MOVFF  02,790
03C3A:  MOVFF  01,78F
03C3E:  MOVFF  00,78E
03C42:  CALL   1BDA
03C46:  MOVFF  03,788
03C4A:  MOVFF  02,787
03C4E:  MOVFF  01,786
03C52:  MOVFF  00,785
03C56:  MOVFF  5B0,78C
03C5A:  MOVFF  5AF,78B
03C5E:  CALL   1B2A
03C62:  BCF    FD8.1
03C64:  MOVFF  788,78D
03C68:  MOVFF  787,78C
03C6C:  MOVFF  786,78B
03C70:  MOVFF  785,78A
03C74:  MOVFF  03,791
03C78:  MOVFF  02,790
03C7C:  MOVFF  01,78F
03C80:  MOVFF  00,78E
03C84:  CALL   1BDA
03C88:  BSF    FD8.1
03C8A:  MOVFF  5C4,78D
03C8E:  MOVFF  5C3,78C
03C92:  MOVFF  5C2,78B
03C96:  MOVFF  5C1,78A
03C9A:  MOVFF  03,791
03C9E:  MOVFF  02,790
03CA2:  MOVFF  01,78F
03CA6:  MOVFF  00,78E
03CAA:  CALL   1BDA
03CAE:  MOVFF  03,5C8
03CB2:  MOVFF  02,5C7
03CB6:  MOVFF  01,5C6
03CBA:  MOVFF  00,5C5
....................       PendienteActual=((Setpoint-Temperatura)/TiempoActual); 
03CBE:  BSF    FD8.1
03CC0:  MOVFF  62C,78D
03CC4:  MOVFF  62B,78C
03CC8:  MOVFF  62A,78B
03CCC:  MOVFF  629,78A
03CD0:  MOVFF  620,791
03CD4:  MOVFF  61F,790
03CD8:  MOVFF  61E,78F
03CDC:  MOVFF  61D,78E
03CE0:  CALL   1BDA
03CE4:  MOVFF  03,788
03CE8:  MOVFF  02,787
03CEC:  MOVFF  01,786
03CF0:  MOVFF  00,785
03CF4:  MOVFF  03,78C
03CF8:  MOVFF  02,78B
03CFC:  MOVFF  01,78A
03D00:  MOVFF  00,789
03D04:  MOVFF  5C8,790
03D08:  MOVFF  5C7,78F
03D0C:  MOVFF  5C6,78E
03D10:  MOVFF  5C5,78D
03D14:  CALL   1E52
03D18:  MOVFF  03,5CC
03D1C:  MOVFF  02,5CB
03D20:  MOVFF  01,5CA
03D24:  MOVFF  00,5C9
....................       DifPendiente=(PendienteActual*20)-Aumento; 
03D28:  MOVFF  5CC,78C
03D2C:  MOVFF  5CB,78B
03D30:  MOVFF  5CA,78A
03D34:  MOVFF  5C9,789
03D38:  MOVLB  7
03D3A:  CLRF   x90
03D3C:  CLRF   x8F
03D3E:  MOVLW  20
03D40:  MOVWF  x8E
03D42:  MOVLW  83
03D44:  MOVWF  x8D
03D46:  MOVLB  0
03D48:  CALL   1FB0
03D4C:  MOVFF  03,788
03D50:  MOVFF  02,787
03D54:  MOVFF  01,786
03D58:  MOVFF  00,785
03D5C:  BSF    FD8.1
03D5E:  MOVFF  03,78D
03D62:  MOVFF  02,78C
03D66:  MOVFF  01,78B
03D6A:  MOVFF  00,78A
03D6E:  MOVFF  61C,791
03D72:  MOVFF  61B,790
03D76:  MOVFF  61A,78F
03D7A:  MOVFF  619,78E
03D7E:  CALL   1BDA
03D82:  MOVFF  03,628
03D86:  MOVFF  02,627
03D8A:  MOVFF  01,626
03D8E:  MOVFF  00,625
....................       DifPendiente=DifPendiente*5; 
03D92:  MOVFF  628,78C
03D96:  MOVFF  627,78B
03D9A:  MOVFF  626,78A
03D9E:  MOVFF  625,789
03DA2:  MOVLB  7
03DA4:  CLRF   x90
03DA6:  CLRF   x8F
03DA8:  MOVLW  20
03DAA:  MOVWF  x8E
03DAC:  MOVLW  81
03DAE:  MOVWF  x8D
03DB0:  MOVLB  0
03DB2:  CALL   1FB0
03DB6:  MOVFF  03,628
03DBA:  MOVFF  02,627
03DBE:  MOVFF  01,626
03DC2:  MOVFF  00,625
03DC6:  MOVLB  5
....................    } 
03DC8:  MOVLB  0
03DCA:  GOTO   3E16 (RETURN)
.................... } 
....................  
.................... // Funcion para conversor analogo-digital 
.................... float sensores(int x){ 
.................... float y;set_adc_channel(x);delay_ms(1);y=read_adc();return (y); 
*
01B60:  MOVLB  7
01B62:  RLCF   x86,W
01B64:  MOVWF  00
01B66:  RLCF   00,F
01B68:  MOVLW  FC
01B6A:  ANDWF  00,F
01B6C:  MOVFF  00,01
01B70:  MOVF   FC2,W
01B72:  ANDLW  C3
01B74:  IORWF  00,W
01B76:  MOVWF  FC2
01B78:  MOVLW  01
01B7A:  MOVWF  x8B
01B7C:  MOVLB  0
01B7E:  CALL   1166
01B82:  BSF    FC2.1
01B84:  BTFSC  FC2.1
01B86:  BRA    1B84
01B88:  MOVFF  FC4,78C
01B8C:  MOVFF  FC3,78B
01B90:  MOVLB  0
01B92:  RCALL  1B2A
01B94:  MOVFF  03,78A
01B98:  MOVFF  02,789
01B9C:  MOVFF  01,788
01BA0:  MOVFF  00,787
01BA4:  MOVFF  787,00
01BA8:  MOVFF  788,01
01BAC:  MOVFF  789,02
01BB0:  MOVFF  78A,03
01BB4:  GOTO   20BA (RETURN)
.................... } 
.................... float Leer_Sensor(int media) 
.................... { 
....................    Prom=0.0; 
*
020A6:  MOVLB  6
020A8:  CLRF   x00
020AA:  MOVLB  5
020AC:  CLRF   xFF
020AE:  CLRF   xFE
020B0:  CLRF   xFD
....................    V0 = sensores(0);   //Lectura de Divisor de Voltaje de PT100 con resistencia de 6.18k (+-2%)    
020B2:  MOVLB  7
020B4:  CLRF   x86
020B6:  MOVLB  0
020B8:  BRA    1B60
020BA:  MOVFF  03,5F0
020BE:  MOVFF  02,5EF
020C2:  MOVFF  01,5EE
020C6:  MOVFF  00,5ED
....................              
....................    if(l>(media-1)) 
020CA:  MOVLW  01
020CC:  MOVLB  7
020CE:  SUBWF  x85,W
020D0:  MOVLB  5
020D2:  SUBWF  x8D,W
020D4:  BZ    20DA
020D6:  BNC   20DA
....................    {l=0;} 
020D8:  CLRF   x8D
....................    //promedio[l]=Temperature;l++; 
....................    promedio[l]=V0;l++; 
020DA:  MOVLB  7
020DC:  CLRF   x8A
020DE:  MOVFF  58D,789
020E2:  CLRF   x8C
020E4:  MOVLW  04
020E6:  MOVWF  x8B
020E8:  MOVLB  0
020EA:  RCALL  1BB8
020EC:  MOVF   01,W
020EE:  ADDLW  1B
020F0:  MOVWF  FE9
020F2:  MOVLW  04
020F4:  ADDWFC 02,W
020F6:  MOVWF  FEA
020F8:  MOVFF  5ED,FEF
020FC:  MOVFF  5EE,FEC
02100:  MOVFF  5EF,FEC
02104:  MOVFF  5F0,FEC
02108:  MOVLB  5
0210A:  INCF   x8D,F
....................           
....................    for(h=0;h<media;h++) 
0210C:  CLRF   x8C
0210E:  MOVLB  7
02110:  MOVF   x85,W
02112:  MOVLB  5
02114:  SUBWF  x8C,W
02116:  BC    2190
....................    { 
....................       Prom+=promedio[h]; 
02118:  MOVLB  7
0211A:  CLRF   x8A
0211C:  MOVFF  58C,789
02120:  CLRF   x8C
02122:  MOVLW  04
02124:  MOVWF  x8B
02126:  MOVLB  0
02128:  RCALL  1BB8
0212A:  MOVFF  02,03
0212E:  MOVF   01,W
02130:  ADDLW  1B
02132:  MOVWF  FE9
02134:  MOVLW  04
02136:  ADDWFC 02,W
02138:  MOVWF  FEA
0213A:  MOVFF  FEF,78E
0213E:  MOVFF  FEC,01
02142:  MOVFF  FEC,02
02146:  MOVFF  FEC,03
0214A:  MOVFF  FEA,787
0214E:  MOVFF  FE9,786
02152:  BCF    FD8.1
02154:  MOVFF  600,78D
02158:  MOVFF  5FF,78C
0215C:  MOVFF  5FE,78B
02160:  MOVFF  5FD,78A
02164:  MOVFF  03,791
02168:  MOVFF  02,790
0216C:  MOVFF  01,78F
02170:  RCALL  1BDA
02172:  MOVFF  787,FEA
02176:  MOVFF  786,FE9
0217A:  MOVFF  03,600
0217E:  MOVFF  02,5FF
02182:  MOVFF  01,5FE
02186:  MOVFF  00,5FD
0218A:  MOVLB  5
0218C:  INCF   x8C,F
0218E:  BRA    210E
....................    }  
....................    Prom=Prom/media;    
02190:  MOVLB  7
02192:  CLRF   x8C
02194:  MOVFF  785,78B
02198:  MOVLB  0
0219A:  RCALL  1B2A
0219C:  MOVFF  600,78C
021A0:  MOVFF  5FF,78B
021A4:  MOVFF  5FE,78A
021A8:  MOVFF  5FD,789
021AC:  MOVFF  03,790
021B0:  MOVFF  02,78F
021B4:  MOVFF  01,78E
021B8:  MOVFF  00,78D
021BC:  RCALL  1E52
021BE:  MOVFF  03,600
021C2:  MOVFF  02,5FF
021C6:  MOVFF  01,5FE
021CA:  MOVFF  00,5FD
....................    //Temperature=(Prom-100.0)/(0.385);  // Ecuacin determinada por linealizacin en Matlab. Revisar este polinomio.   
....................    Temperature=(1.5275*Prom)-299.23; // Recta dada por T 0C-1200C y ADC Modo Real 
021CE:  MOVLW  1F
021D0:  MOVLB  7
021D2:  MOVWF  x8C
021D4:  MOVLW  85
021D6:  MOVWF  x8B
021D8:  MOVLW  43
021DA:  MOVWF  x8A
021DC:  MOVLW  7F
021DE:  MOVWF  x89
021E0:  MOVFF  600,790
021E4:  MOVFF  5FF,78F
021E8:  MOVFF  5FE,78E
021EC:  MOVFF  5FD,78D
021F0:  MOVLB  0
021F2:  RCALL  1FB0
021F4:  MOVFF  03,789
021F8:  MOVFF  02,788
021FC:  MOVFF  01,787
02200:  MOVFF  00,786
02204:  BSF    FD8.1
02206:  MOVFF  03,78D
0220A:  MOVFF  02,78C
0220E:  MOVFF  01,78B
02212:  MOVFF  00,78A
02216:  MOVLW  71
02218:  MOVLB  7
0221A:  MOVWF  x91
0221C:  MOVLW  9D
0221E:  MOVWF  x90
02220:  MOVLW  15
02222:  MOVWF  x8F
02224:  MOVLW  87
02226:  MOVWF  x8E
02228:  MOVLB  0
0222A:  RCALL  1BDA
0222C:  MOVFF  03,604
02230:  MOVFF  02,603
02234:  MOVFF  01,602
02238:  MOVFF  00,601
....................     
....................    Temperature+=((float)Ajuste-(float)Ajusten); 
0223C:  MOVLB  7
0223E:  CLRF   x8C
02240:  MOVFF  58E,78B
02244:  MOVLB  0
02246:  RCALL  1B2A
02248:  MOVFF  03,789
0224C:  MOVFF  02,788
02250:  MOVFF  01,787
02254:  MOVFF  00,786
02258:  MOVLB  7
0225A:  CLRF   x8C
0225C:  MOVFF  58F,78B
02260:  MOVLB  0
02262:  RCALL  1B2A
02264:  BSF    FD8.1
02266:  MOVFF  789,78D
0226A:  MOVFF  788,78C
0226E:  MOVFF  787,78B
02272:  MOVFF  786,78A
02276:  MOVFF  03,791
0227A:  MOVFF  02,790
0227E:  MOVFF  01,78F
02282:  MOVFF  00,78E
02286:  RCALL  1BDA
02288:  BCF    FD8.1
0228A:  MOVFF  604,78D
0228E:  MOVFF  603,78C
02292:  MOVFF  602,78B
02296:  MOVFF  601,78A
0229A:  MOVFF  03,791
0229E:  MOVFF  02,790
022A2:  MOVFF  01,78F
022A6:  MOVFF  00,78E
022AA:  RCALL  1BDA
022AC:  MOVFF  03,604
022B0:  MOVFF  02,603
022B4:  MOVFF  01,602
022B8:  MOVFF  00,601
....................     
....................    //return Prom; 
....................    return Temperature; 
022BC:  MOVFF  601,00
022C0:  MOVFF  602,01
022C4:  MOVFF  603,02
022C8:  MOVFF  604,03
022CC:  RETURN 0
.................... } 
....................  
.................... void Controla(){ 
.................... //-------------------------------Control de Calentamiento------------------------------------------------------------//          
....................    if(tiemporecta>=10) 
*
03E0A:  MOVLB  5
03E0C:  MOVF   x91,W
03E0E:  SUBLW  09
03E10:  BC    3E1A
....................    { 
....................       ActualizaRecta(); 
03E12:  MOVLB  0
03E14:  BRA    3AF4
....................       tiemporecta=0; 
03E16:  MOVLB  5
03E18:  CLRF   x91
....................    } 
....................    
....................    if(Segmento==0){ 
03E1A:  MOVF   x97,F
03E1C:  BTFSS  FD8.2
03E1E:  BRA    4080
....................       if(flag_calcula==0){ 
03E20:  BTFSC  x99.0
03E22:  BRA    407E
....................          Tiempo=(Horas1[ProgramaSeleccionado*10]*3600)+(Minutos1[ProgramaSeleccionado*10]*60);          
03E24:  MOVF   xA7,W
03E26:  MULLW  0A
03E28:  MOVFF  FF3,00
03E2C:  BCF    FD8.0
03E2E:  RLCF   00,F
03E30:  MOVF   00,W
03E32:  CLRF   03
03E34:  ADDLW  99
03E36:  MOVWF  FE9
03E38:  MOVLW  06
03E3A:  ADDWFC 03,W
03E3C:  MOVWF  FEA
03E3E:  MOVFF  FEC,78A
03E42:  MOVF   FED,F
03E44:  MOVFF  FEF,789
03E48:  MOVLW  0E
03E4A:  MOVLB  7
03E4C:  MOVWF  x8C
03E4E:  MOVLW  10
03E50:  MOVWF  x8B
03E52:  MOVLB  0
03E54:  CALL   251C
03E58:  MOVFF  02,786
03E5C:  MOVFF  01,785
03E60:  MOVLB  5
03E62:  MOVF   xA7,W
03E64:  MULLW  0A
03E66:  MOVFF  FF3,00
03E6A:  BCF    FD8.0
03E6C:  RLCF   00,F
03E6E:  MOVF   00,W
03E70:  CLRF   03
03E72:  ADDLW  FD
03E74:  MOVWF  FE9
03E76:  MOVLW  06
03E78:  ADDWFC 03,W
03E7A:  MOVWF  FEA
03E7C:  MOVFF  FEC,78A
03E80:  MOVF   FED,F
03E82:  MOVFF  FEF,789
03E86:  MOVLB  7
03E88:  CLRF   x8C
03E8A:  MOVLW  3C
03E8C:  MOVWF  x8B
03E8E:  MOVLB  0
03E90:  CALL   251C
03E94:  MOVFF  02,03
03E98:  MOVF   01,W
03E9A:  MOVLB  7
03E9C:  ADDWF  x85,W
03E9E:  MOVWF  01
03EA0:  MOVF   x86,W
03EA2:  ADDWFC 03,F
03EA4:  MOVFF  01,787
03EA8:  MOVFF  03,788
03EAC:  MOVLB  0
03EAE:  CALL   2570
03EB2:  MOVFF  03,5C4
03EB6:  MOVFF  02,5C3
03EBA:  MOVFF  01,5C2
03EBE:  MOVFF  00,5C1
....................          Setpoint=Temperatura1[(ProgramaSeleccionado*10)+Segmento]; 
03EC2:  MOVLB  5
03EC4:  MOVF   xA7,W
03EC6:  MULLW  0A
03EC8:  MOVF   FF3,W
03ECA:  ADDWF  x97,W
03ECC:  MOVWF  00
03ECE:  BCF    FD8.0
03ED0:  RLCF   00,F
03ED2:  MOVF   00,W
03ED4:  CLRF   03
03ED6:  ADDLW  35
03ED8:  MOVWF  FE9
03EDA:  MOVLW  06
03EDC:  ADDWFC 03,W
03EDE:  MOVWF  FEA
03EE0:  MOVFF  FEC,03
03EE4:  MOVF   FED,F
03EE6:  MOVFF  FEF,787
03EEA:  MOVFF  03,788
03EEE:  MOVLB  0
03EF0:  CALL   2570
03EF4:  MOVFF  03,62C
03EF8:  MOVFF  02,62B
03EFC:  MOVFF  01,62A
03F00:  MOVFF  00,629
....................          Pendiente=((Setpoint-TempeInicial)/Tiempo); 
03F04:  BSF    FD8.1
03F06:  MOVFF  62C,78D
03F0A:  MOVFF  62B,78C
03F0E:  MOVFF  62A,78B
03F12:  MOVFF  629,78A
03F16:  MOVFF  5C0,791
03F1A:  MOVFF  5BF,790
03F1E:  MOVFF  5BE,78F
03F22:  MOVFF  5BD,78E
03F26:  CALL   1BDA
03F2A:  MOVFF  03,788
03F2E:  MOVFF  02,787
03F32:  MOVFF  01,786
03F36:  MOVFF  00,785
03F3A:  MOVFF  03,78C
03F3E:  MOVFF  02,78B
03F42:  MOVFF  01,78A
03F46:  MOVFF  00,789
03F4A:  MOVFF  5C4,790
03F4E:  MOVFF  5C3,78F
03F52:  MOVFF  5C2,78E
03F56:  MOVFF  5C1,78D
03F5A:  CALL   1E52
03F5E:  MOVFF  03,624
03F62:  MOVFF  02,623
03F66:  MOVFF  01,622
03F6A:  MOVFF  00,621
....................          Testerilizacionp[3]=(int8)Horas1[(ProgramaSeleccionado*10)+Segmento]/10; 
03F6E:  MOVLB  5
03F70:  MOVF   xA7,W
03F72:  MULLW  0A
03F74:  MOVF   FF3,W
03F76:  ADDWF  x97,W
03F78:  MOVWF  00
03F7A:  BCF    FD8.0
03F7C:  RLCF   00,F
03F7E:  MOVF   00,W
03F80:  CLRF   03
03F82:  ADDLW  99
03F84:  MOVWF  FE9
03F86:  MOVLW  06
03F88:  ADDWFC 03,W
03F8A:  MOVWF  FEA
03F8C:  MOVFF  FEF,79A
03F90:  MOVLW  0A
03F92:  MOVLB  7
03F94:  MOVWF  x9B
03F96:  MOVLB  0
03F98:  CALL   196A
03F9C:  MOVFF  01,5E4
03FA0:  MOVLB  5
....................          Testerilizacionp[2]=Horas1[(ProgramaSeleccionado*10)+Segmento]-(Testerilizacionp[3]*10); 
03FA2:  MOVF   xA7,W
03FA4:  MULLW  0A
03FA6:  MOVF   FF3,W
03FA8:  ADDWF  x97,W
03FAA:  MOVWF  00
03FAC:  BCF    FD8.0
03FAE:  RLCF   00,F
03FB0:  MOVF   00,W
03FB2:  CLRF   03
03FB4:  ADDLW  99
03FB6:  MOVWF  FE9
03FB8:  MOVLW  06
03FBA:  ADDWFC 03,W
03FBC:  MOVWF  FEA
03FBE:  MOVFF  FEC,786
03FC2:  MOVF   FED,F
03FC4:  MOVFF  FEF,785
03FC8:  MOVFF  5E4,7A6
03FCC:  MOVLW  0A
03FCE:  MOVLB  7
03FD0:  MOVWF  xA7
03FD2:  MOVLB  0
03FD4:  CALL   25C0
03FD8:  MOVF   01,W
03FDA:  CLRF   03
03FDC:  MOVWF  00
03FDE:  BTFSC  FE8.7
03FE0:  DECF   03,F
03FE2:  MOVLB  7
03FE4:  SUBWF  x85,W
03FE6:  MOVWF  00
03FE8:  MOVF   03,W
03FEA:  SUBWFB x86,W
03FEC:  MOVFF  00,5E3
03FF0:  MOVLB  5
....................          Testerilizacionp[1]=Minutos1[(ProgramaSeleccionado*10)+Segmento]/10; 
03FF2:  MOVF   xA7,W
03FF4:  MULLW  0A
03FF6:  MOVF   FF3,W
03FF8:  ADDWF  x97,W
03FFA:  MOVWF  00
03FFC:  BCF    FD8.0
03FFE:  RLCF   00,F
04000:  MOVF   00,W
04002:  CLRF   03
04004:  ADDLW  FD
04006:  MOVWF  FE9
04008:  MOVLW  06
0400A:  ADDWFC 03,W
0400C:  MOVWF  FEA
0400E:  MOVFF  FEC,78A
04012:  MOVF   FED,F
04014:  MOVFF  FEF,789
04018:  MOVLB  7
0401A:  CLRF   x8C
0401C:  MOVLW  0A
0401E:  MOVWF  x8B
04020:  MOVLB  0
04022:  CALL   260E
04026:  MOVFF  01,5E2
0402A:  MOVLB  5
....................          Testerilizacionp[0]=Minutos1[(ProgramaSeleccionado*10)+Segmento]-(Testerilizacionp[1]*10); 
0402C:  MOVF   xA7,W
0402E:  MULLW  0A
04030:  MOVF   FF3,W
04032:  ADDWF  x97,W
04034:  MOVWF  00
04036:  BCF    FD8.0
04038:  RLCF   00,F
0403A:  MOVF   00,W
0403C:  CLRF   03
0403E:  ADDLW  FD
04040:  MOVWF  FE9
04042:  MOVLW  06
04044:  ADDWFC 03,W
04046:  MOVWF  FEA
04048:  MOVFF  FEC,786
0404C:  MOVF   FED,F
0404E:  MOVFF  FEF,785
04052:  MOVFF  5E2,7A6
04056:  MOVLW  0A
04058:  MOVLB  7
0405A:  MOVWF  xA7
0405C:  MOVLB  0
0405E:  CALL   25C0
04062:  MOVF   01,W
04064:  CLRF   03
04066:  MOVWF  00
04068:  BTFSC  FE8.7
0406A:  DECF   03,F
0406C:  MOVLB  7
0406E:  SUBWF  x85,W
04070:  MOVWF  00
04072:  MOVF   03,W
04074:  SUBWFB x86,W
04076:  MOVFF  00,5E1
0407A:  MOVLB  5
....................          flag_calcula=1; 
0407C:  BSF    x99.0
....................       } 
....................    } 
0407E:  BRA    4310
....................    else{ 
....................       if(flag_calcula==0){ 
04080:  BTFSC  x99.0
04082:  BRA    4310
....................          Tiempo=(Horas1[(ProgramaSeleccionado*10)+Segmento]*3600)+(Minutos1[(ProgramaSeleccionado*10)+Segmento]*60); 
04084:  MOVF   xA7,W
04086:  MULLW  0A
04088:  MOVF   FF3,W
0408A:  ADDWF  x97,W
0408C:  MOVWF  00
0408E:  BCF    FD8.0
04090:  RLCF   00,F
04092:  MOVF   00,W
04094:  CLRF   03
04096:  ADDLW  99
04098:  MOVWF  FE9
0409A:  MOVLW  06
0409C:  ADDWFC 03,W
0409E:  MOVWF  FEA
040A0:  MOVFF  FEC,78A
040A4:  MOVF   FED,F
040A6:  MOVFF  FEF,789
040AA:  MOVLW  0E
040AC:  MOVLB  7
040AE:  MOVWF  x8C
040B0:  MOVLW  10
040B2:  MOVWF  x8B
040B4:  MOVLB  0
040B6:  CALL   251C
040BA:  MOVFF  02,786
040BE:  MOVFF  01,785
040C2:  MOVLB  5
040C4:  MOVF   xA7,W
040C6:  MULLW  0A
040C8:  MOVF   FF3,W
040CA:  ADDWF  x97,W
040CC:  MOVWF  00
040CE:  BCF    FD8.0
040D0:  RLCF   00,F
040D2:  MOVF   00,W
040D4:  CLRF   03
040D6:  ADDLW  FD
040D8:  MOVWF  FE9
040DA:  MOVLW  06
040DC:  ADDWFC 03,W
040DE:  MOVWF  FEA
040E0:  MOVFF  FEC,78A
040E4:  MOVF   FED,F
040E6:  MOVFF  FEF,789
040EA:  MOVLB  7
040EC:  CLRF   x8C
040EE:  MOVLW  3C
040F0:  MOVWF  x8B
040F2:  MOVLB  0
040F4:  CALL   251C
040F8:  MOVFF  02,03
040FC:  MOVF   01,W
040FE:  MOVLB  7
04100:  ADDWF  x85,W
04102:  MOVWF  01
04104:  MOVF   x86,W
04106:  ADDWFC 03,F
04108:  MOVFF  01,787
0410C:  MOVFF  03,788
04110:  MOVLB  0
04112:  CALL   2570
04116:  MOVFF  03,5C4
0411A:  MOVFF  02,5C3
0411E:  MOVFF  01,5C2
04122:  MOVFF  00,5C1
....................          Pendiente=((Temperatura1[(ProgramaSeleccionado*10)+Segmento]-Temperatura1[(ProgramaSeleccionado*10)+Segmento-1])/Tiempo); 
04126:  MOVLB  5
04128:  MOVF   xA7,W
0412A:  MULLW  0A
0412C:  MOVF   FF3,W
0412E:  ADDWF  x97,W
04130:  MOVWF  00
04132:  BCF    FD8.0
04134:  RLCF   00,F
04136:  MOVF   00,W
04138:  CLRF   03
0413A:  ADDLW  35
0413C:  MOVWF  FE9
0413E:  MOVLW  06
04140:  ADDWFC 03,W
04142:  MOVWF  FEA
04144:  MOVFF  FEC,786
04148:  MOVF   FED,F
0414A:  MOVFF  FEF,785
0414E:  MOVF   xA7,W
04150:  MULLW  0A
04152:  MOVF   FF3,W
04154:  ADDWF  x97,W
04156:  ADDLW  FF
04158:  MOVWF  00
0415A:  BCF    FD8.0
0415C:  RLCF   00,F
0415E:  MOVF   00,W
04160:  CLRF   03
04162:  ADDLW  35
04164:  MOVWF  FE9
04166:  MOVLW  06
04168:  ADDWFC 03,W
0416A:  MOVWF  FEA
0416C:  MOVFF  FEC,03
04170:  MOVF   FED,F
04172:  MOVF   FEF,W
04174:  MOVLB  7
04176:  SUBWF  x85,F
04178:  MOVF   03,W
0417A:  SUBWFB x86,F
0417C:  MOVFF  786,788
04180:  MOVFF  785,787
04184:  MOVLB  0
04186:  CALL   2570
0418A:  MOVFF  03,78C
0418E:  MOVFF  02,78B
04192:  MOVFF  01,78A
04196:  MOVFF  00,789
0419A:  MOVFF  5C4,790
0419E:  MOVFF  5C3,78F
041A2:  MOVFF  5C2,78E
041A6:  MOVFF  5C1,78D
041AA:  CALL   1E52
041AE:  MOVFF  03,624
041B2:  MOVFF  02,623
041B6:  MOVFF  01,622
041BA:  MOVFF  00,621
....................          Setpoint=Temperatura1[(ProgramaSeleccionado*10)+Segmento]; 
041BE:  MOVLB  5
041C0:  MOVF   xA7,W
041C2:  MULLW  0A
041C4:  MOVF   FF3,W
041C6:  ADDWF  x97,W
041C8:  MOVWF  00
041CA:  BCF    FD8.0
041CC:  RLCF   00,F
041CE:  MOVF   00,W
041D0:  CLRF   03
041D2:  ADDLW  35
041D4:  MOVWF  FE9
041D6:  MOVLW  06
041D8:  ADDWFC 03,W
041DA:  MOVWF  FEA
041DC:  MOVFF  FEC,03
041E0:  MOVF   FED,F
041E2:  MOVFF  FEF,787
041E6:  MOVFF  03,788
041EA:  MOVLB  0
041EC:  CALL   2570
041F0:  MOVFF  03,62C
041F4:  MOVFF  02,62B
041F8:  MOVFF  01,62A
041FC:  MOVFF  00,629
....................          Testerilizacionp[3]=(int8)Horas1[(ProgramaSeleccionado*10)+Segmento]/10; 
04200:  MOVLB  5
04202:  MOVF   xA7,W
04204:  MULLW  0A
04206:  MOVF   FF3,W
04208:  ADDWF  x97,W
0420A:  MOVWF  00
0420C:  BCF    FD8.0
0420E:  RLCF   00,F
04210:  MOVF   00,W
04212:  CLRF   03
04214:  ADDLW  99
04216:  MOVWF  FE9
04218:  MOVLW  06
0421A:  ADDWFC 03,W
0421C:  MOVWF  FEA
0421E:  MOVFF  FEF,79A
04222:  MOVLW  0A
04224:  MOVLB  7
04226:  MOVWF  x9B
04228:  MOVLB  0
0422A:  CALL   196A
0422E:  MOVFF  01,5E4
04232:  MOVLB  5
....................          Testerilizacionp[2]=Horas1[(ProgramaSeleccionado*10)+Segmento]-(Testerilizacionp[3]*10); 
04234:  MOVF   xA7,W
04236:  MULLW  0A
04238:  MOVF   FF3,W
0423A:  ADDWF  x97,W
0423C:  MOVWF  00
0423E:  BCF    FD8.0
04240:  RLCF   00,F
04242:  MOVF   00,W
04244:  CLRF   03
04246:  ADDLW  99
04248:  MOVWF  FE9
0424A:  MOVLW  06
0424C:  ADDWFC 03,W
0424E:  MOVWF  FEA
04250:  MOVFF  FEC,786
04254:  MOVF   FED,F
04256:  MOVFF  FEF,785
0425A:  MOVFF  5E4,7A6
0425E:  MOVLW  0A
04260:  MOVLB  7
04262:  MOVWF  xA7
04264:  MOVLB  0
04266:  CALL   25C0
0426A:  MOVF   01,W
0426C:  CLRF   03
0426E:  MOVWF  00
04270:  BTFSC  FE8.7
04272:  DECF   03,F
04274:  MOVLB  7
04276:  SUBWF  x85,W
04278:  MOVWF  00
0427A:  MOVF   03,W
0427C:  SUBWFB x86,W
0427E:  MOVFF  00,5E3
04282:  MOVLB  5
....................          Testerilizacionp[1]=Minutos1[(ProgramaSeleccionado*10)+Segmento]/10; 
04284:  MOVF   xA7,W
04286:  MULLW  0A
04288:  MOVF   FF3,W
0428A:  ADDWF  x97,W
0428C:  MOVWF  00
0428E:  BCF    FD8.0
04290:  RLCF   00,F
04292:  MOVF   00,W
04294:  CLRF   03
04296:  ADDLW  FD
04298:  MOVWF  FE9
0429A:  MOVLW  06
0429C:  ADDWFC 03,W
0429E:  MOVWF  FEA
042A0:  MOVFF  FEC,78A
042A4:  MOVF   FED,F
042A6:  MOVFF  FEF,789
042AA:  MOVLB  7
042AC:  CLRF   x8C
042AE:  MOVLW  0A
042B0:  MOVWF  x8B
042B2:  MOVLB  0
042B4:  CALL   260E
042B8:  MOVFF  01,5E2
042BC:  MOVLB  5
....................          Testerilizacionp[0]=Minutos1[(ProgramaSeleccionado*10)+Segmento]-(Testerilizacionp[1]*10); 
042BE:  MOVF   xA7,W
042C0:  MULLW  0A
042C2:  MOVF   FF3,W
042C4:  ADDWF  x97,W
042C6:  MOVWF  00
042C8:  BCF    FD8.0
042CA:  RLCF   00,F
042CC:  MOVF   00,W
042CE:  CLRF   03
042D0:  ADDLW  FD
042D2:  MOVWF  FE9
042D4:  MOVLW  06
042D6:  ADDWFC 03,W
042D8:  MOVWF  FEA
042DA:  MOVFF  FEC,786
042DE:  MOVF   FED,F
042E0:  MOVFF  FEF,785
042E4:  MOVFF  5E2,7A6
042E8:  MOVLW  0A
042EA:  MOVLB  7
042EC:  MOVWF  xA7
042EE:  MOVLB  0
042F0:  CALL   25C0
042F4:  MOVF   01,W
042F6:  CLRF   03
042F8:  MOVWF  00
042FA:  BTFSC  FE8.7
042FC:  DECF   03,F
042FE:  MOVLB  7
04300:  SUBWF  x85,W
04302:  MOVWF  00
04304:  MOVF   03,W
04306:  SUBWFB x86,W
04308:  MOVFF  00,5E1
0430C:  MOVLB  5
....................          flag_calcula=1; 
0430E:  BSF    x99.0
....................       } 
....................    } 
....................     
....................    if(Pendiente==0){// Si Esta realizando una Meseta debe realizar el control JuDifuso 
04310:  MOVFF  624,788
04314:  MOVFF  623,787
04318:  MOVFF  622,786
0431C:  MOVFF  621,785
04320:  MOVLB  7
04322:  CLRF   x8C
04324:  CLRF   x8B
04326:  CLRF   x8A
04328:  CLRF   x89
0432A:  MOVLB  0
0432C:  CALL   118E
04330:  BTFSS  FD8.2
04332:  BRA    476A
....................       error=desvio+Setpoint-Temperatura;      // Clculo del error ****** 
04334:  BCF    FD8.1
04336:  MOVFF  610,78D
0433A:  MOVFF  60F,78C
0433E:  MOVFF  60E,78B
04342:  MOVFF  60D,78A
04346:  MOVFF  62C,791
0434A:  MOVFF  62B,790
0434E:  MOVFF  62A,78F
04352:  MOVFF  629,78E
04356:  CALL   1BDA
0435A:  MOVFF  03,788
0435E:  MOVFF  02,787
04362:  MOVFF  01,786
04366:  MOVFF  00,785
0436A:  BSF    FD8.1
0436C:  MOVFF  03,78D
04370:  MOVFF  02,78C
04374:  MOVFF  01,78B
04378:  MOVFF  00,78A
0437C:  MOVFF  620,791
04380:  MOVFF  61F,790
04384:  MOVFF  61E,78F
04388:  MOVFF  61D,78E
0438C:  CALL   1BDA
04390:  MOVFF  03,5FC
04394:  MOVFF  02,5FB
04398:  MOVFF  01,5FA
0439C:  MOVFF  00,5F9
....................        
....................       if(error>3.0 && Aumento<1) 
043A0:  MOVLB  7
043A2:  CLRF   x88
043A4:  CLRF   x87
043A6:  MOVLW  40
043A8:  MOVWF  x86
043AA:  MOVLW  80
043AC:  MOVWF  x85
043AE:  MOVFF  5FC,78C
043B2:  MOVFF  5FB,78B
043B6:  MOVFF  5FA,78A
043BA:  MOVFF  5F9,789
043BE:  MOVLB  0
043C0:  CALL   118E
043C4:  BTFSS  FD8.0
043C6:  BRA    458A
043C8:  MOVFF  61C,788
043CC:  MOVFF  61B,787
043D0:  MOVFF  61A,786
043D4:  MOVFF  619,785
043D8:  MOVLB  7
043DA:  CLRF   x8C
043DC:  CLRF   x8B
043DE:  CLRF   x8A
043E0:  MOVLW  7F
043E2:  MOVWF  x89
043E4:  MOVLB  0
043E6:  CALL   118E
043EA:  BTFSS  FD8.0
043EC:  BRA    458A
....................       { 
....................          if(Potencia<90.0) 
043EE:  MOVFF  5D8,788
043F2:  MOVFF  5D7,787
043F6:  MOVFF  5D6,786
043FA:  MOVFF  5D5,785
043FE:  MOVLB  7
04400:  CLRF   x8C
04402:  CLRF   x8B
04404:  MOVLW  34
04406:  MOVWF  x8A
04408:  MOVLW  85
0440A:  MOVWF  x89
0440C:  MOVLB  0
0440E:  CALL   118E
04412:  BTFSS  FD8.0
04414:  BRA    458A
....................          { 
....................             if(TiempoControl>=Derivativo) 
04416:  MOVLB  7
04418:  CLRF   x8C
0441A:  MOVFF  5A4,78B
0441E:  MOVLB  0
04420:  CALL   1B2A
04424:  MOVFF  634,788
04428:  MOVFF  633,787
0442C:  MOVFF  632,786
04430:  MOVFF  631,785
04434:  MOVFF  03,78C
04438:  MOVFF  02,78B
0443C:  MOVFF  01,78A
04440:  MOVFF  00,789
04444:  CALL   118E
04448:  BC    444E
0444A:  BTFSS  FD8.2
0444C:  BRA    458A
....................             { 
....................                TiempoControl=0; 
0444E:  MOVLB  5
04450:  CLRF   xA4
....................                if(Aumento<-2) 
04452:  MOVFF  61C,788
04456:  MOVFF  61B,787
0445A:  MOVFF  61A,786
0445E:  MOVFF  619,785
04462:  MOVLB  7
04464:  CLRF   x8C
04466:  CLRF   x8B
04468:  MOVLW  80
0446A:  MOVWF  x8A
0446C:  MOVWF  x89
0446E:  MOVLB  0
04470:  CALL   118E
04474:  BNC   44D2
....................                { 
....................                   Ganancia+=Integral+1; 
04476:  BCF    FD8.1
04478:  MOVFF  630,78D
0447C:  MOVFF  62F,78C
04480:  MOVFF  62E,78B
04484:  MOVFF  62D,78A
04488:  MOVLB  7
0448A:  CLRF   x91
0448C:  CLRF   x90
0448E:  CLRF   x8F
04490:  MOVLW  7F
04492:  MOVWF  x8E
04494:  MOVLB  0
04496:  CALL   1BDA
0449A:  BCF    FD8.1
0449C:  MOVFF  60C,78D
044A0:  MOVFF  60B,78C
044A4:  MOVFF  60A,78B
044A8:  MOVFF  609,78A
044AC:  MOVFF  03,791
044B0:  MOVFF  02,790
044B4:  MOVFF  01,78F
044B8:  MOVFF  00,78E
044BC:  CALL   1BDA
044C0:  MOVFF  03,60C
044C4:  MOVFF  02,60B
044C8:  MOVFF  01,60A
044CC:  MOVFF  00,609
....................                } 
044D0:  BRA    458A
....................                else 
....................                { 
....................                   if(Aumento<-1) 
044D2:  MOVFF  61C,788
044D6:  MOVFF  61B,787
044DA:  MOVFF  61A,786
044DE:  MOVFF  619,785
044E2:  MOVLB  7
044E4:  CLRF   x8C
044E6:  CLRF   x8B
044E8:  MOVLW  80
044EA:  MOVWF  x8A
044EC:  MOVLW  7F
044EE:  MOVWF  x89
044F0:  MOVLB  0
044F2:  CALL   118E
044F6:  BNC   4530
....................                   { 
....................                      Ganancia+=Integral; 
044F8:  BCF    FD8.1
044FA:  MOVFF  60C,78D
044FE:  MOVFF  60B,78C
04502:  MOVFF  60A,78B
04506:  MOVFF  609,78A
0450A:  MOVFF  630,791
0450E:  MOVFF  62F,790
04512:  MOVFF  62E,78F
04516:  MOVFF  62D,78E
0451A:  CALL   1BDA
0451E:  MOVFF  03,60C
04522:  MOVFF  02,60B
04526:  MOVFF  01,60A
0452A:  MOVFF  00,609
....................                   }    
0452E:  BRA    458A
....................                   else 
....................                   { 
....................                      Ganancia+=Integral-0.5; 
04530:  BSF    FD8.1
04532:  MOVFF  630,78D
04536:  MOVFF  62F,78C
0453A:  MOVFF  62E,78B
0453E:  MOVFF  62D,78A
04542:  MOVLB  7
04544:  CLRF   x91
04546:  CLRF   x90
04548:  CLRF   x8F
0454A:  MOVLW  7E
0454C:  MOVWF  x8E
0454E:  MOVLB  0
04550:  CALL   1BDA
04554:  BCF    FD8.1
04556:  MOVFF  60C,78D
0455A:  MOVFF  60B,78C
0455E:  MOVFF  60A,78B
04562:  MOVFF  609,78A
04566:  MOVFF  03,791
0456A:  MOVFF  02,790
0456E:  MOVFF  01,78F
04572:  MOVFF  00,78E
04576:  CALL   1BDA
0457A:  MOVFF  03,60C
0457E:  MOVFF  02,60B
04582:  MOVFF  01,60A
04586:  MOVFF  00,609
....................                   } 
....................                } 
....................             } 
....................          } 
....................       } 
....................        
....................       if(error<-5) 
0458A:  MOVFF  5FC,788
0458E:  MOVFF  5FB,787
04592:  MOVFF  5FA,786
04596:  MOVFF  5F9,785
0459A:  MOVLB  7
0459C:  CLRF   x8C
0459E:  CLRF   x8B
045A0:  MOVLW  A0
045A2:  MOVWF  x8A
045A4:  MOVLW  81
045A6:  MOVWF  x89
045A8:  MOVLB  0
045AA:  CALL   118E
045AE:  BNC   4608
....................       { 
....................          Ganancia=6*(Setpoint/100); 
045B0:  MOVFF  62C,78C
045B4:  MOVFF  62B,78B
045B8:  MOVFF  62A,78A
045BC:  MOVFF  629,789
045C0:  MOVLB  7
045C2:  CLRF   x90
045C4:  CLRF   x8F
045C6:  MOVLW  48
045C8:  MOVWF  x8E
045CA:  MOVLW  85
045CC:  MOVWF  x8D
045CE:  MOVLB  0
045D0:  CALL   1E52
045D4:  MOVLB  7
045D6:  CLRF   x8C
045D8:  CLRF   x8B
045DA:  MOVLW  40
045DC:  MOVWF  x8A
045DE:  MOVLW  81
045E0:  MOVWF  x89
045E2:  MOVFF  03,790
045E6:  MOVFF  02,78F
045EA:  MOVFF  01,78E
045EE:  MOVFF  00,78D
045F2:  MOVLB  0
045F4:  CALL   1FB0
045F8:  MOVFF  03,60C
045FC:  MOVFF  02,60B
04600:  MOVFF  01,60A
04604:  MOVFF  00,609
....................       } 
....................        
....................       if(Ganancia<0.5) 
04608:  MOVFF  60C,788
0460C:  MOVFF  60B,787
04610:  MOVFF  60A,786
04614:  MOVFF  609,785
04618:  MOVLB  7
0461A:  CLRF   x8C
0461C:  CLRF   x8B
0461E:  CLRF   x8A
04620:  MOVLW  7E
04622:  MOVWF  x89
04624:  MOVLB  0
04626:  CALL   118E
0462A:  BNC   463A
....................       { 
....................          Ganancia=0.5; 
0462C:  MOVLB  6
0462E:  CLRF   x0C
04630:  CLRF   x0B
04632:  CLRF   x0A
04634:  MOVLW  7E
04636:  MOVWF  x09
04638:  MOVLB  0
....................       } 
....................        
....................        
....................       if(error<0.0)     // Anti Wind_DOWN     
0463A:  MOVFF  5FC,788
0463E:  MOVFF  5FB,787
04642:  MOVFF  5FA,786
04646:  MOVFF  5F9,785
0464A:  MOVLB  7
0464C:  CLRF   x8C
0464E:  CLRF   x8B
04650:  CLRF   x8A
04652:  CLRF   x89
04654:  MOVLB  0
04656:  CALL   118E
0465A:  BNC   4668
....................       { 
....................          error=0.0; 
0465C:  MOVLB  5
0465E:  CLRF   xFC
04660:  CLRF   xFB
04662:  CLRF   xFA
04664:  CLRF   xF9
04666:  MOVLB  0
....................       } 
....................     
....................       tmp=error*Ganancia;  // Control Proporcional. 
04668:  MOVFF  5FC,78C
0466C:  MOVFF  5FB,78B
04670:  MOVFF  5FA,78A
04674:  MOVFF  5F9,789
04678:  MOVFF  60C,790
0467C:  MOVFF  60B,78F
04680:  MOVFF  60A,78E
04684:  MOVFF  609,78D
04688:  CALL   1FB0
0468C:  MOVFF  03,608
04690:  MOVFF  02,607
04694:  MOVFF  01,606
04698:  MOVFF  00,605
....................              
....................       if(tmp>Setpoint)   // Anti Wind-UP       
0469C:  MOVFF  62C,788
046A0:  MOVFF  62B,787
046A4:  MOVFF  62A,786
046A8:  MOVFF  629,785
046AC:  MOVFF  608,78C
046B0:  MOVFF  607,78B
046B4:  MOVFF  606,78A
046B8:  MOVFF  605,789
046BC:  CALL   118E
046C0:  BNC   46D2
....................       { 
....................          tmp=Setpoint; 
046C2:  MOVFF  62C,608
046C6:  MOVFF  62B,607
046CA:  MOVFF  62A,606
046CE:  MOVFF  629,605
....................       } 
....................                    
....................       if(tmp<0.0)     // Anti Wind_DOWN     
046D2:  MOVFF  608,788
046D6:  MOVFF  607,787
046DA:  MOVFF  606,786
046DE:  MOVFF  605,785
046E2:  MOVLB  7
046E4:  CLRF   x8C
046E6:  CLRF   x8B
046E8:  CLRF   x8A
046EA:  CLRF   x89
046EC:  MOVLB  0
046EE:  CALL   118E
046F2:  BNC   4700
....................       { 
....................          tmp=0.0; 
046F4:  MOVLB  6
046F6:  CLRF   x08
046F8:  CLRF   x07
046FA:  CLRF   x06
046FC:  CLRF   x05
046FE:  MOVLB  0
....................       } 
....................        
....................       // Tpulso(t)= Tciclo*(y(t)-ymin)/(ymax - ymin); calculo de ciclo util para control de resistencia.ymax=140.ymin=0; 
....................       // Tpulso es float, hay que pasar ese ciclo a una salida de un puerto usando el TMR1. 
....................       Tpulso=(tmp/Setpoint)*Tciclo;  
04700:  MOVFF  608,78C
04704:  MOVFF  607,78B
04708:  MOVFF  606,78A
0470C:  MOVFF  605,789
04710:  MOVFF  62C,790
04714:  MOVFF  62B,78F
04718:  MOVFF  62A,78E
0471C:  MOVFF  629,78D
04720:  CALL   1E52
04724:  MOVFF  03,788
04728:  MOVFF  02,787
0472C:  MOVFF  01,786
04730:  MOVFF  00,785
04734:  MOVFF  03,78C
04738:  MOVFF  02,78B
0473C:  MOVFF  01,78A
04740:  MOVFF  00,789
04744:  MOVFF  5F4,790
04748:  MOVFF  5F3,78F
0474C:  MOVFF  5F2,78E
04750:  MOVFF  5F1,78D
04754:  CALL   1FB0
04758:  MOVFF  03,5F8
0475C:  MOVFF  02,5F7
04760:  MOVFF  01,5F6
04764:  MOVFF  00,5F5
....................    } 
04768:  BRA    4908
....................    else{// Si Esta realizando una Rampa debe realizar el control de acuerdo a la pendiente de Temperatura. Aprox 10C * min Maximo Valor de Pendiente. 
....................       PendienteMinutos=PendienteActual*60; 
0476A:  MOVFF  5CC,78C
0476E:  MOVFF  5CB,78B
04772:  MOVFF  5CA,78A
04776:  MOVFF  5C9,789
0477A:  MOVLB  7
0477C:  CLRF   x90
0477E:  CLRF   x8F
04780:  MOVLW  70
04782:  MOVWF  x8E
04784:  MOVLW  84
04786:  MOVWF  x8D
04788:  MOVLB  0
0478A:  CALL   1FB0
0478E:  MOVFF  03,5BC
04792:  MOVFF  02,5BB
04796:  MOVFF  01,5BA
0479A:  MOVFF  00,5B9
....................       PotenciaEntregada=((PendienteMinutos+DifPendiente)*100)/90; 
0479E:  BCF    FD8.1
047A0:  MOVFF  5BC,78D
047A4:  MOVFF  5BB,78C
047A8:  MOVFF  5BA,78B
047AC:  MOVFF  5B9,78A
047B0:  MOVFF  628,791
047B4:  MOVFF  627,790
047B8:  MOVFF  626,78F
047BC:  MOVFF  625,78E
047C0:  CALL   1BDA
047C4:  MOVFF  03,788
047C8:  MOVFF  02,787
047CC:  MOVFF  01,786
047D0:  MOVFF  00,785
047D4:  MOVFF  03,78C
047D8:  MOVFF  02,78B
047DC:  MOVFF  01,78A
047E0:  MOVFF  00,789
047E4:  MOVLB  7
047E6:  CLRF   x90
047E8:  CLRF   x8F
047EA:  MOVLW  48
047EC:  MOVWF  x8E
047EE:  MOVLW  85
047F0:  MOVWF  x8D
047F2:  MOVLB  0
047F4:  CALL   1FB0
047F8:  MOVFF  03,788
047FC:  MOVFF  02,787
04800:  MOVFF  01,786
04804:  MOVFF  00,785
04808:  MOVFF  03,78C
0480C:  MOVFF  02,78B
04810:  MOVFF  01,78A
04814:  MOVFF  00,789
04818:  MOVLB  7
0481A:  CLRF   x90
0481C:  CLRF   x8F
0481E:  MOVLW  34
04820:  MOVWF  x8E
04822:  MOVLW  85
04824:  MOVWF  x8D
04826:  MOVLB  0
04828:  CALL   1E52
0482C:  MOVFF  03,5DC
04830:  MOVFF  02,5DB
04834:  MOVFF  01,5DA
04838:  MOVFF  00,5D9
....................  
.................... // Pendiente determinar si el comportamiento de la mufla es lineal 10C/min o si tiene un comportamiento diferente. 
....................       /*if(Temperatura<200) 
....................          PotenciaEntregada=((PendienteMinutos+DifPendiente)*100)/10; 
....................           
....................       if(Temperatura<450 && Temperatura>=200) 
....................          PotenciaEntregada=((PendienteMinutos+DifPendiente)*100)/8;    
....................           
....................       if(Temperatura<=1200 && Temperatura>=450) 
....................          PotenciaEntregada=((PendienteMinutos+DifPendiente)*100)/5;      */ 
....................        
....................       if(PotenciaEntregada>100.0){ 
0483C:  MOVLB  7
0483E:  CLRF   x88
04840:  CLRF   x87
04842:  MOVLW  48
04844:  MOVWF  x86
04846:  MOVLW  85
04848:  MOVWF  x85
0484A:  MOVFF  5DC,78C
0484E:  MOVFF  5DB,78B
04852:  MOVFF  5DA,78A
04856:  MOVFF  5D9,789
0485A:  MOVLB  0
0485C:  CALL   118E
04860:  BNC   4872
....................          PotenciaEntregada=100.0; 
04862:  MOVLB  5
04864:  CLRF   xDC
04866:  CLRF   xDB
04868:  MOVLW  48
0486A:  MOVWF  xDA
0486C:  MOVLW  85
0486E:  MOVWF  xD9
04870:  MOVLB  0
....................       } 
....................        
....................       if(PotenciaEntregada<0){ 
04872:  MOVFF  5DC,788
04876:  MOVFF  5DB,787
0487A:  MOVFF  5DA,786
0487E:  MOVFF  5D9,785
04882:  MOVLB  7
04884:  CLRF   x8C
04886:  CLRF   x8B
04888:  CLRF   x8A
0488A:  CLRF   x89
0488C:  MOVLB  0
0488E:  CALL   118E
04892:  BNC   48A0
....................          PotenciaEntregada=0; 
04894:  MOVLB  5
04896:  CLRF   xDC
04898:  CLRF   xDB
0489A:  CLRF   xDA
0489C:  CLRF   xD9
0489E:  MOVLB  0
....................       } 
....................        
....................       Tpulso=(PotenciaEntregada*Tciclo)/100; 
048A0:  MOVFF  5DC,78C
048A4:  MOVFF  5DB,78B
048A8:  MOVFF  5DA,78A
048AC:  MOVFF  5D9,789
048B0:  MOVFF  5F4,790
048B4:  MOVFF  5F3,78F
048B8:  MOVFF  5F2,78E
048BC:  MOVFF  5F1,78D
048C0:  CALL   1FB0
048C4:  MOVFF  03,788
048C8:  MOVFF  02,787
048CC:  MOVFF  01,786
048D0:  MOVFF  00,785
048D4:  MOVFF  03,78C
048D8:  MOVFF  02,78B
048DC:  MOVFF  01,78A
048E0:  MOVFF  00,789
048E4:  MOVLB  7
048E6:  CLRF   x90
048E8:  CLRF   x8F
048EA:  MOVLW  48
048EC:  MOVWF  x8E
048EE:  MOVLW  85
048F0:  MOVWF  x8D
048F2:  MOVLB  0
048F4:  CALL   1E52
048F8:  MOVFF  03,5F8
048FC:  MOVFF  02,5F7
04900:  MOVFF  01,5F6
04904:  MOVFF  00,5F5
....................    } 
....................    Tp=(int16)(Tpulso/0.005); 
04908:  MOVFF  5F8,78C
0490C:  MOVFF  5F7,78B
04910:  MOVFF  5F6,78A
04914:  MOVFF  5F5,789
04918:  MOVLW  0A
0491A:  MOVLB  7
0491C:  MOVWF  x90
0491E:  MOVLW  D7
04920:  MOVWF  x8F
04922:  MOVLW  23
04924:  MOVWF  x8E
04926:  MOVLW  77
04928:  MOVWF  x8D
0492A:  MOVLB  0
0492C:  CALL   1E52
04930:  MOVFF  03,788
04934:  MOVFF  02,787
04938:  MOVFF  01,786
0493C:  MOVFF  00,785
04940:  CALL   3DCE
04944:  MOVFF  02,5B6
04948:  MOVFF  01,5B5
....................    Tc=(int16)(Tciclo/0.005); 
0494C:  MOVFF  5F4,78C
04950:  MOVFF  5F3,78B
04954:  MOVFF  5F2,78A
04958:  MOVFF  5F1,789
0495C:  MOVLW  0A
0495E:  MOVLB  7
04960:  MOVWF  x90
04962:  MOVLW  D7
04964:  MOVWF  x8F
04966:  MOVLW  23
04968:  MOVWF  x8E
0496A:  MOVLW  77
0496C:  MOVWF  x8D
0496E:  MOVLB  0
04970:  CALL   1E52
04974:  MOVFF  03,788
04978:  MOVFF  02,787
0497C:  MOVFF  01,786
04980:  MOVFF  00,785
04984:  CALL   3DCE
04988:  MOVFF  02,5B8
0498C:  MOVFF  01,5B7
04990:  RETURN 0
....................           
.................... //--------------------------------------------------------------------------------------------------------------------//    
.................... } 
....................  
.................... void displayMenu(char palabra[30], int x, int y, int sombreado, int tamano) 
.................... { 
....................    strcpy(Menus.Letra,palabra); 
*
01842:  MOVLB  7
01844:  MOVFF  788,01
01848:  MOVFF  789,03
0184C:  MOVFF  788,78E
01850:  MOVFF  789,78F
01854:  MOVLW  07
01856:  MOVWF  FEA
01858:  MOVLW  61
0185A:  MOVWF  FE9
0185C:  MOVFF  789,FE2
01860:  MOVFF  788,FE1
01864:  MOVF   FE7,F
01866:  MOVFF  FE6,FEE
0186A:  BNZ   1864
....................     
....................    if(sombreado==3) 
0186C:  MOVF   x8C,W
0186E:  SUBLW  03
01870:  BNZ   1898
....................       {glcd_text57(x+1, y+1, Menus.Letra, tamano, OFF);} 
01872:  MOVLW  01
01874:  ADDWF  x8A,W
01876:  MOVWF  x8E
01878:  MOVLW  01
0187A:  ADDWF  x8B,W
0187C:  MOVWF  x8F
0187E:  MOVFF  78E,79D
01882:  MOVWF  x9E
01884:  MOVLW  07
01886:  MOVWF  xA0
01888:  MOVLW  61
0188A:  MOVWF  x9F
0188C:  MOVFF  78D,7A1
01890:  CLRF   xA2
01892:  MOVLB  0
01894:  RCALL  14AC
01896:  MOVLB  7
....................    if(sombreado==2) 
01898:  MOVF   x8C,W
0189A:  SUBLW  02
0189C:  BNZ   18C6
....................       {glcd_text57(x+1, y+1, Menus.Letra, tamano, ON);} 
0189E:  MOVLW  01
018A0:  ADDWF  x8A,W
018A2:  MOVWF  x8E
018A4:  MOVLW  01
018A6:  ADDWF  x8B,W
018A8:  MOVWF  x8F
018AA:  MOVFF  78E,79D
018AE:  MOVWF  x9E
018B0:  MOVLW  07
018B2:  MOVWF  xA0
018B4:  MOVLW  61
018B6:  MOVWF  x9F
018B8:  MOVFF  78D,7A1
018BC:  MOVLW  01
018BE:  MOVWF  xA2
018C0:  MOVLB  0
018C2:  RCALL  14AC
018C4:  MOVLB  7
....................    if(sombreado==1) 
018C6:  DECFSZ x8C,W
018C8:  BRA    1914
....................       {glcd_rect(0, y, 127, y+(tamano*8), YES, ON);glcd_text57(x+1, y+1, Menus.Letra, tamano, OFF);} 
018CA:  MOVF   x8D,W
018CC:  MULLW  08
018CE:  MOVF   FF3,W
018D0:  ADDWF  x8B,W
018D2:  MOVWF  x8E
018D4:  CLRF   x9D
018D6:  MOVFF  78B,79E
018DA:  MOVLW  7F
018DC:  MOVWF  x9F
018DE:  MOVFF  78E,7A0
018E2:  MOVLW  01
018E4:  MOVWF  xA1
018E6:  MOVWF  xA2
018E8:  MOVLB  0
018EA:  RCALL  1780
018EC:  MOVLW  01
018EE:  MOVLB  7
018F0:  ADDWF  x8A,W
018F2:  MOVWF  x8E
018F4:  MOVLW  01
018F6:  ADDWF  x8B,W
018F8:  MOVWF  x8F
018FA:  MOVFF  78E,79D
018FE:  MOVWF  x9E
01900:  MOVLW  07
01902:  MOVWF  xA0
01904:  MOVLW  61
01906:  MOVWF  x9F
01908:  MOVFF  78D,7A1
0190C:  CLRF   xA2
0190E:  MOVLB  0
01910:  RCALL  14AC
01912:  MOVLB  7
....................    if(sombreado==0) 
01914:  MOVF   x8C,F
01916:  BNZ   1964
....................       {glcd_rect(0, y, 127, y+(tamano*8), YES, OFF);glcd_text57(x+1, y+1, Menus.Letra, tamano, ON);} 
01918:  MOVF   x8D,W
0191A:  MULLW  08
0191C:  MOVF   FF3,W
0191E:  ADDWF  x8B,W
01920:  MOVWF  x8E
01922:  CLRF   x9D
01924:  MOVFF  78B,79E
01928:  MOVLW  7F
0192A:  MOVWF  x9F
0192C:  MOVFF  78E,7A0
01930:  MOVLW  01
01932:  MOVWF  xA1
01934:  CLRF   xA2
01936:  MOVLB  0
01938:  RCALL  1780
0193A:  MOVLW  01
0193C:  MOVLB  7
0193E:  ADDWF  x8A,W
01940:  MOVWF  x8E
01942:  MOVLW  01
01944:  ADDWF  x8B,W
01946:  MOVWF  x8F
01948:  MOVFF  78E,79D
0194C:  MOVWF  x9E
0194E:  MOVLW  07
01950:  MOVWF  xA0
01952:  MOVLW  61
01954:  MOVWF  x9F
01956:  MOVFF  78D,7A1
0195A:  MOVLW  01
0195C:  MOVWF  xA2
0195E:  MOVLB  0
01960:  RCALL  14AC
01962:  MOVLB  7
....................    glcd_update(); 
01964:  MOVLB  0
01966:  RCALL  1298
01968:  RETURN 0
.................... } 
....................  
.................... void displayTemps(char palabra[30], int16 digito, int x, int y, int sombreado, int tamano) 
.................... { 
....................    char voltage[9]; 
....................     
....................    if(sombreado==11) 
*
02B30:  MOVLB  7
02B32:  MOVF   x90,W
02B34:  SUBLW  0B
02B36:  BNZ   2BF6
....................    { 
....................       sprintf(voltage, "%02Lu", digito); 
02B38:  MOVLW  07
02B3A:  MOVWF  x80
02B3C:  MOVLW  92
02B3E:  MOVWF  x7F
02B40:  MOVLW  0B
02B42:  MOVWF  FE9
02B44:  MOVFF  78D,79C
02B48:  MOVFF  78C,79B
02B4C:  MOVLB  0
02B4E:  RCALL  2686
....................       glcd_rect(0, y-2, 127, y+(tamano*8), YES, ON); 
02B50:  MOVLW  02
02B52:  MOVLB  7
02B54:  SUBWF  x8F,W
02B56:  MOVWF  x9B
02B58:  MOVF   x91,W
02B5A:  MULLW  08
02B5C:  MOVF   FF3,W
02B5E:  ADDWF  x8F,W
02B60:  MOVWF  x9C
02B62:  CLRF   x9D
02B64:  MOVFF  79B,79E
02B68:  MOVLW  7F
02B6A:  MOVWF  x9F
02B6C:  MOVFF  79C,7A0
02B70:  MOVLW  01
02B72:  MOVWF  xA1
02B74:  MOVWF  xA2
02B76:  MOVLB  0
02B78:  CALL   1780
....................       strcpy(Menus.Letra,palabra); 
02B7C:  MOVLB  7
02B7E:  MOVFF  78A,01
02B82:  MOVFF  78B,03
02B86:  MOVFF  78A,79B
02B8A:  MOVFF  78B,79C
02B8E:  MOVLW  07
02B90:  MOVWF  FEA
02B92:  MOVLW  61
02B94:  MOVWF  FE9
02B96:  MOVFF  78B,FE2
02B9A:  MOVFF  78A,FE1
02B9E:  MOVF   FE7,F
02BA0:  MOVFF  FE6,FEE
02BA4:  BNZ   2B9E
....................       glcd_text57(x+90, y+1, voltage, tamano, OFF); 
02BA6:  MOVLW  5A
02BA8:  ADDWF  x8E,W
02BAA:  MOVWF  x9B
02BAC:  MOVLW  01
02BAE:  ADDWF  x8F,W
02BB0:  MOVWF  x9C
02BB2:  MOVFF  79B,79D
02BB6:  MOVWF  x9E
02BB8:  MOVLW  07
02BBA:  MOVWF  xA0
02BBC:  MOVLW  92
02BBE:  MOVWF  x9F
02BC0:  MOVFF  791,7A1
02BC4:  CLRF   xA2
02BC6:  MOVLB  0
02BC8:  CALL   14AC
....................       glcd_text57(x+1, y+1, Menus.Letra, tamano, OFF); 
02BCC:  MOVLW  01
02BCE:  MOVLB  7
02BD0:  ADDWF  x8E,W
02BD2:  MOVWF  x9B
02BD4:  MOVLW  01
02BD6:  ADDWF  x8F,W
02BD8:  MOVWF  x9C
02BDA:  MOVFF  79B,79D
02BDE:  MOVWF  x9E
02BE0:  MOVLW  07
02BE2:  MOVWF  xA0
02BE4:  MOVLW  61
02BE6:  MOVWF  x9F
02BE8:  MOVFF  791,7A1
02BEC:  CLRF   xA2
02BEE:  MOVLB  0
02BF0:  CALL   14AC
02BF4:  MOVLB  7
....................    } 
....................    if(sombreado==10) 
02BF6:  MOVF   x90,W
02BF8:  SUBLW  0A
02BFA:  BNZ   2CBE
....................    { 
....................       sprintf(voltage, "%02Lu", digito); 
02BFC:  MOVLW  07
02BFE:  MOVWF  x80
02C00:  MOVLW  92
02C02:  MOVWF  x7F
02C04:  MOVLW  0B
02C06:  MOVWF  FE9
02C08:  MOVFF  78D,79C
02C0C:  MOVFF  78C,79B
02C10:  MOVLB  0
02C12:  RCALL  2686
....................       glcd_rect(0, y-2, 127, y+(tamano*8), YES, OFF); 
02C14:  MOVLW  02
02C16:  MOVLB  7
02C18:  SUBWF  x8F,W
02C1A:  MOVWF  x9B
02C1C:  MOVF   x91,W
02C1E:  MULLW  08
02C20:  MOVF   FF3,W
02C22:  ADDWF  x8F,W
02C24:  MOVWF  x9C
02C26:  CLRF   x9D
02C28:  MOVFF  79B,79E
02C2C:  MOVLW  7F
02C2E:  MOVWF  x9F
02C30:  MOVFF  79C,7A0
02C34:  MOVLW  01
02C36:  MOVWF  xA1
02C38:  CLRF   xA2
02C3A:  MOVLB  0
02C3C:  CALL   1780
....................       strcpy(Menus.Letra,palabra); 
02C40:  MOVLB  7
02C42:  MOVFF  78A,01
02C46:  MOVFF  78B,03
02C4A:  MOVFF  78A,79B
02C4E:  MOVFF  78B,79C
02C52:  MOVLW  07
02C54:  MOVWF  FEA
02C56:  MOVLW  61
02C58:  MOVWF  FE9
02C5A:  MOVFF  78B,FE2
02C5E:  MOVFF  78A,FE1
02C62:  MOVF   FE7,F
02C64:  MOVFF  FE6,FEE
02C68:  BNZ   2C62
....................       glcd_text57(x+90, y+1, voltage, tamano, ON); 
02C6A:  MOVLW  5A
02C6C:  ADDWF  x8E,W
02C6E:  MOVWF  x9B
02C70:  MOVLW  01
02C72:  ADDWF  x8F,W
02C74:  MOVWF  x9C
02C76:  MOVFF  79B,79D
02C7A:  MOVWF  x9E
02C7C:  MOVLW  07
02C7E:  MOVWF  xA0
02C80:  MOVLW  92
02C82:  MOVWF  x9F
02C84:  MOVFF  791,7A1
02C88:  MOVLW  01
02C8A:  MOVWF  xA2
02C8C:  MOVLB  0
02C8E:  CALL   14AC
....................       glcd_text57(x+1, y+1, Menus.Letra, tamano, ON); 
02C92:  MOVLW  01
02C94:  MOVLB  7
02C96:  ADDWF  x8E,W
02C98:  MOVWF  x9B
02C9A:  MOVLW  01
02C9C:  ADDWF  x8F,W
02C9E:  MOVWF  x9C
02CA0:  MOVFF  79B,79D
02CA4:  MOVWF  x9E
02CA6:  MOVLW  07
02CA8:  MOVWF  xA0
02CAA:  MOVLW  61
02CAC:  MOVWF  x9F
02CAE:  MOVFF  791,7A1
02CB2:  MOVLW  01
02CB4:  MOVWF  xA2
02CB6:  MOVLB  0
02CB8:  CALL   14AC
02CBC:  MOVLB  7
....................    } 
....................     
....................    if(sombreado==1) 
02CBE:  DECFSZ x90,W
02CC0:  BRA    2DE2
....................    { 
....................       sprintf(voltage, "%04Lu", digito); 
02CC2:  MOVLW  07
02CC4:  MOVWF  x80
02CC6:  MOVLW  92
02CC8:  MOVWF  x7F
02CCA:  MOVLW  09
02CCC:  MOVWF  FE9
02CCE:  MOVFF  78D,79C
02CD2:  MOVFF  78C,79B
02CD6:  MOVLB  0
02CD8:  RCALL  2686
....................       glcd_rect(0, y-2, 127, y+(tamano*8), YES, ON); 
02CDA:  MOVLW  02
02CDC:  MOVLB  7
02CDE:  SUBWF  x8F,W
02CE0:  MOVWF  x9B
02CE2:  MOVF   x91,W
02CE4:  MULLW  08
02CE6:  MOVF   FF3,W
02CE8:  ADDWF  x8F,W
02CEA:  MOVWF  x9C
02CEC:  CLRF   x9D
02CEE:  MOVFF  79B,79E
02CF2:  MOVLW  7F
02CF4:  MOVWF  x9F
02CF6:  MOVFF  79C,7A0
02CFA:  MOVLW  01
02CFC:  MOVWF  xA1
02CFE:  MOVWF  xA2
02D00:  MOVLB  0
02D02:  CALL   1780
....................       strcpy(Menus.Letra,palabra); 
02D06:  MOVLB  7
02D08:  MOVFF  78A,01
02D0C:  MOVFF  78B,03
02D10:  MOVFF  78A,79B
02D14:  MOVFF  78B,79C
02D18:  MOVLW  07
02D1A:  MOVWF  FEA
02D1C:  MOVLW  61
02D1E:  MOVWF  FE9
02D20:  MOVFF  78B,FE2
02D24:  MOVFF  78A,FE1
02D28:  MOVF   FE7,F
02D2A:  MOVFF  FE6,FEE
02D2E:  BNZ   2D28
....................       glcd_text57(x+90, y+1, voltage, tamano, OFF); 
02D30:  MOVLW  5A
02D32:  ADDWF  x8E,W
02D34:  MOVWF  x9B
02D36:  MOVLW  01
02D38:  ADDWF  x8F,W
02D3A:  MOVWF  x9C
02D3C:  MOVFF  79B,79D
02D40:  MOVWF  x9E
02D42:  MOVLW  07
02D44:  MOVWF  xA0
02D46:  MOVLW  92
02D48:  MOVWF  x9F
02D4A:  MOVFF  791,7A1
02D4E:  CLRF   xA2
02D50:  MOVLB  0
02D52:  CALL   14AC
....................       glcd_text57(x+1, y+1, Menus.Letra, tamano, OFF); 
02D56:  MOVLW  01
02D58:  MOVLB  7
02D5A:  ADDWF  x8E,W
02D5C:  MOVWF  x9B
02D5E:  MOVLW  01
02D60:  ADDWF  x8F,W
02D62:  MOVWF  x9C
02D64:  MOVFF  79B,79D
02D68:  MOVWF  x9E
02D6A:  MOVLW  07
02D6C:  MOVWF  xA0
02D6E:  MOVLW  61
02D70:  MOVWF  x9F
02D72:  MOVFF  791,7A1
02D76:  CLRF   xA2
02D78:  MOVLB  0
02D7A:  CALL   14AC
....................       strcpy(Menus.Letra,"C"); 
02D7E:  MOVLW  07
02D80:  MOVWF  FEA
02D82:  MOVLW  61
02D84:  MOVWF  FE9
02D86:  MOVLW  00
02D88:  CALL   06D4
02D8C:  TBLRD*-
02D8E:  TBLRD*+
02D90:  MOVF   FF5,W
02D92:  MOVWF  FEE
02D94:  IORLW  00
02D96:  BNZ   2D8E
....................       glcd_text57(x+120, y+1, Menus.Letra, tamano, OFF); 
02D98:  MOVLW  78
02D9A:  MOVLB  7
02D9C:  ADDWF  x8E,W
02D9E:  MOVWF  x9B
02DA0:  MOVLW  01
02DA2:  ADDWF  x8F,W
02DA4:  MOVWF  x9C
02DA6:  MOVFF  79B,79D
02DAA:  MOVWF  x9E
02DAC:  MOVLW  07
02DAE:  MOVWF  xA0
02DB0:  MOVLW  61
02DB2:  MOVWF  x9F
02DB4:  MOVFF  791,7A1
02DB8:  CLRF   xA2
02DBA:  MOVLB  0
02DBC:  CALL   14AC
....................       glcd_circle(x+115,y-1,1,NO,OFF); 
02DC0:  MOVLW  73
02DC2:  MOVLB  7
02DC4:  ADDWF  x8E,W
02DC6:  MOVWF  x9B
02DC8:  MOVLW  01
02DCA:  SUBWF  x8F,W
02DCC:  MOVWF  x9C
02DCE:  MOVFF  79B,79D
02DD2:  MOVWF  x9E
02DD4:  MOVLW  01
02DD6:  MOVWF  x9F
02DD8:  CLRF   xA0
02DDA:  CLRF   xA1
02DDC:  MOVLB  0
02DDE:  RCALL  2908
02DE0:  MOVLB  7
....................    } 
....................    if(sombreado==0) 
02DE2:  MOVF   x90,F
02DE4:  BTFSS  FD8.2
02DE6:  BRA    2F0E
....................    { 
....................       sprintf(voltage, "%04Lu", digito); 
02DE8:  MOVLW  07
02DEA:  MOVWF  x80
02DEC:  MOVLW  92
02DEE:  MOVWF  x7F
02DF0:  MOVLW  09
02DF2:  MOVWF  FE9
02DF4:  MOVFF  78D,79C
02DF8:  MOVFF  78C,79B
02DFC:  MOVLB  0
02DFE:  RCALL  2686
....................       glcd_rect(0, y-2, 127, y+(tamano*8), YES, OFF); 
02E00:  MOVLW  02
02E02:  MOVLB  7
02E04:  SUBWF  x8F,W
02E06:  MOVWF  x9B
02E08:  MOVF   x91,W
02E0A:  MULLW  08
02E0C:  MOVF   FF3,W
02E0E:  ADDWF  x8F,W
02E10:  MOVWF  x9C
02E12:  CLRF   x9D
02E14:  MOVFF  79B,79E
02E18:  MOVLW  7F
02E1A:  MOVWF  x9F
02E1C:  MOVFF  79C,7A0
02E20:  MOVLW  01
02E22:  MOVWF  xA1
02E24:  CLRF   xA2
02E26:  MOVLB  0
02E28:  CALL   1780
....................       strcpy(Menus.Letra,palabra); 
02E2C:  MOVLB  7
02E2E:  MOVFF  78A,01
02E32:  MOVFF  78B,03
02E36:  MOVFF  78A,79B
02E3A:  MOVFF  78B,79C
02E3E:  MOVLW  07
02E40:  MOVWF  FEA
02E42:  MOVLW  61
02E44:  MOVWF  FE9
02E46:  MOVFF  78B,FE2
02E4A:  MOVFF  78A,FE1
02E4E:  MOVF   FE7,F
02E50:  MOVFF  FE6,FEE
02E54:  BNZ   2E4E
....................       glcd_text57(x+90, y+1, voltage, tamano, ON); 
02E56:  MOVLW  5A
02E58:  ADDWF  x8E,W
02E5A:  MOVWF  x9B
02E5C:  MOVLW  01
02E5E:  ADDWF  x8F,W
02E60:  MOVWF  x9C
02E62:  MOVFF  79B,79D
02E66:  MOVWF  x9E
02E68:  MOVLW  07
02E6A:  MOVWF  xA0
02E6C:  MOVLW  92
02E6E:  MOVWF  x9F
02E70:  MOVFF  791,7A1
02E74:  MOVLW  01
02E76:  MOVWF  xA2
02E78:  MOVLB  0
02E7A:  CALL   14AC
....................       glcd_text57(x+1, y+1, Menus.Letra, tamano, ON); 
02E7E:  MOVLW  01
02E80:  MOVLB  7
02E82:  ADDWF  x8E,W
02E84:  MOVWF  x9B
02E86:  MOVLW  01
02E88:  ADDWF  x8F,W
02E8A:  MOVWF  x9C
02E8C:  MOVFF  79B,79D
02E90:  MOVWF  x9E
02E92:  MOVLW  07
02E94:  MOVWF  xA0
02E96:  MOVLW  61
02E98:  MOVWF  x9F
02E9A:  MOVFF  791,7A1
02E9E:  MOVLW  01
02EA0:  MOVWF  xA2
02EA2:  MOVLB  0
02EA4:  CALL   14AC
....................       strcpy(Menus.Letra,"C"); 
02EA8:  MOVLW  07
02EAA:  MOVWF  FEA
02EAC:  MOVLW  61
02EAE:  MOVWF  FE9
02EB0:  MOVLW  00
02EB2:  CALL   06D4
02EB6:  TBLRD*-
02EB8:  TBLRD*+
02EBA:  MOVF   FF5,W
02EBC:  MOVWF  FEE
02EBE:  IORLW  00
02EC0:  BNZ   2EB8
....................       glcd_text57(x+120, y+1, Menus.Letra, tamano, ON); 
02EC2:  MOVLW  78
02EC4:  MOVLB  7
02EC6:  ADDWF  x8E,W
02EC8:  MOVWF  x9B
02ECA:  MOVLW  01
02ECC:  ADDWF  x8F,W
02ECE:  MOVWF  x9C
02ED0:  MOVFF  79B,79D
02ED4:  MOVWF  x9E
02ED6:  MOVLW  07
02ED8:  MOVWF  xA0
02EDA:  MOVLW  61
02EDC:  MOVWF  x9F
02EDE:  MOVFF  791,7A1
02EE2:  MOVLW  01
02EE4:  MOVWF  xA2
02EE6:  MOVLB  0
02EE8:  CALL   14AC
....................       glcd_circle(x+115,y-1,1,NO,ON); 
02EEC:  MOVLW  73
02EEE:  MOVLB  7
02EF0:  ADDWF  x8E,W
02EF2:  MOVWF  x9B
02EF4:  MOVLW  01
02EF6:  SUBWF  x8F,W
02EF8:  MOVWF  x9C
02EFA:  MOVFF  79B,79D
02EFE:  MOVWF  x9E
02F00:  MOVLW  01
02F02:  MOVWF  x9F
02F04:  CLRF   xA0
02F06:  MOVWF  xA1
02F08:  MOVLB  0
02F0A:  RCALL  2908
02F0C:  MOVLB  7
....................    } 
....................    glcd_update(); 
02F0E:  MOVLB  0
02F10:  CALL   1298
02F14:  RETURN 0
.................... } 
....................  
.................... void displayTiempo(int digito, int x, int y, int sombreado, int tamano) 
.................... { 
....................    char voltage[9]; 
....................     
....................    if(sombreado==2) 
*
02354:  MOVLB  7
02356:  MOVF   x8B,W
02358:  SUBLW  02
0235A:  BNZ   23CC
....................    { 
....................       sprintf(voltage, "%03u", digito); 
0235C:  MOVLW  07
0235E:  MOVWF  x80
02360:  MOVLW  8D
02362:  MOVWF  x7F
02364:  MOVFF  788,796
02368:  MOVLW  03
0236A:  MOVWF  x97
0236C:  MOVLB  0
0236E:  RCALL  22CE
....................       glcd_rect(x, y, x+(tamano*18), y+(tamano*8), YES, ON); 
02370:  MOVLB  7
02372:  MOVF   x8C,W
02374:  MULLW  12
02376:  MOVF   FF3,W
02378:  ADDWF  x89,W
0237A:  MOVWF  x96
0237C:  MOVF   x8C,W
0237E:  MULLW  08
02380:  MOVF   FF3,W
02382:  ADDWF  x8A,W
02384:  MOVWF  x97
02386:  MOVFF  789,79D
0238A:  MOVFF  78A,79E
0238E:  MOVFF  796,79F
02392:  MOVWF  xA0
02394:  MOVLW  01
02396:  MOVWF  xA1
02398:  MOVWF  xA2
0239A:  MOVLB  0
0239C:  CALL   1780
....................       glcd_text57(x+1, y+1, voltage, tamano, OFF); 
023A0:  MOVLW  01
023A2:  MOVLB  7
023A4:  ADDWF  x89,W
023A6:  MOVWF  x96
023A8:  MOVLW  01
023AA:  ADDWF  x8A,W
023AC:  MOVWF  x97
023AE:  MOVFF  796,79D
023B2:  MOVWF  x9E
023B4:  MOVLW  07
023B6:  MOVWF  xA0
023B8:  MOVLW  8D
023BA:  MOVWF  x9F
023BC:  MOVFF  78C,7A1
023C0:  CLRF   xA2
023C2:  MOVLB  0
023C4:  CALL   14AC
....................    } 
023C8:  BRA    2516
023CA:  MOVLB  7
....................    else 
....................    { 
....................       if(sombreado==3) 
023CC:  MOVF   x8B,W
023CE:  SUBLW  03
023D0:  BNZ   2442
....................       { 
....................          sprintf(voltage, "%03u", digito); 
023D2:  MOVLW  07
023D4:  MOVWF  x80
023D6:  MOVLW  8D
023D8:  MOVWF  x7F
023DA:  MOVFF  788,796
023DE:  MOVLW  03
023E0:  MOVWF  x97
023E2:  MOVLB  0
023E4:  RCALL  22CE
....................          glcd_rect(x, y, x+(tamano*18), y+(tamano*8), YES, OFF); 
023E6:  MOVLB  7
023E8:  MOVF   x8C,W
023EA:  MULLW  12
023EC:  MOVF   FF3,W
023EE:  ADDWF  x89,W
023F0:  MOVWF  x96
023F2:  MOVF   x8C,W
023F4:  MULLW  08
023F6:  MOVF   FF3,W
023F8:  ADDWF  x8A,W
023FA:  MOVWF  x97
023FC:  MOVFF  789,79D
02400:  MOVFF  78A,79E
02404:  MOVFF  796,79F
02408:  MOVWF  xA0
0240A:  MOVLW  01
0240C:  MOVWF  xA1
0240E:  CLRF   xA2
02410:  MOVLB  0
02412:  CALL   1780
....................          glcd_text57(x+1, y+1, voltage, tamano, ON); 
02416:  MOVLW  01
02418:  MOVLB  7
0241A:  ADDWF  x89,W
0241C:  MOVWF  x96
0241E:  MOVLW  01
02420:  ADDWF  x8A,W
02422:  MOVWF  x97
02424:  MOVFF  796,79D
02428:  MOVWF  x9E
0242A:  MOVLW  07
0242C:  MOVWF  xA0
0242E:  MOVLW  8D
02430:  MOVWF  x9F
02432:  MOVFF  78C,7A1
02436:  MOVLW  01
02438:  MOVWF  xA2
0243A:  MOVLB  0
0243C:  CALL   14AC
02440:  MOVLB  7
....................       } 
....................       sprintf(voltage, "%u", digito); 
02442:  MOVLW  07
02444:  MOVWF  x80
02446:  MOVLW  8D
02448:  MOVWF  x7F
0244A:  MOVFF  788,796
0244E:  MOVLW  1B
02450:  MOVWF  x97
02452:  MOVLB  0
02454:  RCALL  22CE
....................       if(sombreado==1) 
02456:  MOVLB  7
02458:  DECFSZ x8B,W
0245A:  BRA    24B4
....................          {glcd_rect(x, y, x+(tamano*5), y+(tamano*8), YES, ON);glcd_text57(x+1, y+1, voltage, tamano, OFF);} 
0245C:  MOVF   x8C,W
0245E:  MULLW  05
02460:  MOVF   FF3,W
02462:  ADDWF  x89,W
02464:  MOVWF  x96
02466:  MOVF   x8C,W
02468:  MULLW  08
0246A:  MOVF   FF3,W
0246C:  ADDWF  x8A,W
0246E:  MOVWF  x97
02470:  MOVFF  789,79D
02474:  MOVFF  78A,79E
02478:  MOVFF  796,79F
0247C:  MOVWF  xA0
0247E:  MOVLW  01
02480:  MOVWF  xA1
02482:  MOVWF  xA2
02484:  MOVLB  0
02486:  CALL   1780
0248A:  MOVLW  01
0248C:  MOVLB  7
0248E:  ADDWF  x89,W
02490:  MOVWF  x96
02492:  MOVLW  01
02494:  ADDWF  x8A,W
02496:  MOVWF  x97
02498:  MOVFF  796,79D
0249C:  MOVWF  x9E
0249E:  MOVLW  07
024A0:  MOVWF  xA0
024A2:  MOVLW  8D
024A4:  MOVWF  x9F
024A6:  MOVFF  78C,7A1
024AA:  CLRF   xA2
024AC:  MOVLB  0
024AE:  CALL   14AC
024B2:  MOVLB  7
....................       if(sombreado==0) 
024B4:  MOVF   x8B,F
024B6:  BTFSS  FD8.2
024B8:  BRA    2514
....................          {glcd_rect(x, y, x+(tamano*5), y+(tamano*8), YES, OFF);glcd_text57(x+1, y+1, voltage, tamano, ON);} 
024BA:  MOVF   x8C,W
024BC:  MULLW  05
024BE:  MOVF   FF3,W
024C0:  ADDWF  x89,W
024C2:  MOVWF  x96
024C4:  MOVF   x8C,W
024C6:  MULLW  08
024C8:  MOVF   FF3,W
024CA:  ADDWF  x8A,W
024CC:  MOVWF  x97
024CE:  MOVFF  789,79D
024D2:  MOVFF  78A,79E
024D6:  MOVFF  796,79F
024DA:  MOVWF  xA0
024DC:  MOVLW  01
024DE:  MOVWF  xA1
024E0:  CLRF   xA2
024E2:  MOVLB  0
024E4:  CALL   1780
024E8:  MOVLW  01
024EA:  MOVLB  7
024EC:  ADDWF  x89,W
024EE:  MOVWF  x96
024F0:  MOVLW  01
024F2:  ADDWF  x8A,W
024F4:  MOVWF  x97
024F6:  MOVFF  796,79D
024FA:  MOVWF  x9E
024FC:  MOVLW  07
024FE:  MOVWF  xA0
02500:  MOVLW  8D
02502:  MOVWF  x9F
02504:  MOVFF  78C,7A1
02508:  MOVLW  01
0250A:  MOVWF  xA2
0250C:  MOVLB  0
0250E:  CALL   14AC
02512:  MOVLB  7
02514:  MOVLB  0
....................    } 
....................    glcd_update(); 
02516:  CALL   1298
0251A:  RETURN 0
.................... } 
....................  
.................... void displayTemperatura(int16 digito, int x, int y, int sombreado, int tamano) 
.................... { 
....................    char voltage[9]; 
....................     
....................    if(sombreado==2) 
*
0274E:  MOVLB  7
02750:  MOVF   x8E,W
02752:  SUBLW  02
02754:  BNZ   27CA
....................    { 
....................       sprintf(voltage, "%04Lu", digito); 
02756:  MOVLW  07
02758:  MOVWF  x80
0275A:  MOVLW  90
0275C:  MOVWF  x7F
0275E:  MOVLW  09
02760:  MOVWF  FE9
02762:  MOVFF  78B,79C
02766:  MOVFF  78A,79B
0276A:  MOVLB  0
0276C:  RCALL  2686
....................       glcd_rect(x, y, x+(tamano*18), y+(tamano*8), YES, ON); 
0276E:  MOVLB  7
02770:  MOVF   x8F,W
02772:  MULLW  12
02774:  MOVF   FF3,W
02776:  ADDWF  x8C,W
02778:  MOVWF  x99
0277A:  MOVF   x8F,W
0277C:  MULLW  08
0277E:  MOVF   FF3,W
02780:  ADDWF  x8D,W
02782:  MOVWF  x9A
02784:  MOVFF  78C,79D
02788:  MOVFF  78D,79E
0278C:  MOVFF  799,79F
02790:  MOVWF  xA0
02792:  MOVLW  01
02794:  MOVWF  xA1
02796:  MOVWF  xA2
02798:  MOVLB  0
0279A:  CALL   1780
....................       glcd_text57(x+1, y+1, voltage, tamano, OFF); 
0279E:  MOVLW  01
027A0:  MOVLB  7
027A2:  ADDWF  x8C,W
027A4:  MOVWF  x99
027A6:  MOVLW  01
027A8:  ADDWF  x8D,W
027AA:  MOVWF  x9A
027AC:  MOVFF  799,79D
027B0:  MOVWF  x9E
027B2:  MOVLW  07
027B4:  MOVWF  xA0
027B6:  MOVLW  90
027B8:  MOVWF  x9F
027BA:  MOVFF  78F,7A1
027BE:  CLRF   xA2
027C0:  MOVLB  0
027C2:  CALL   14AC
....................    } 
027C6:  BRA    2902
027C8:  MOVLB  7
....................    else 
....................    { 
....................       sprintf(voltage, "%04Lu", digito); 
027CA:  MOVLW  07
027CC:  MOVWF  x80
027CE:  MOVLW  90
027D0:  MOVWF  x7F
027D2:  MOVLW  09
027D4:  MOVWF  FE9
027D6:  MOVFF  78B,79C
027DA:  MOVFF  78A,79B
027DE:  MOVLB  0
027E0:  RCALL  2686
....................     
....................       if(sombreado==4) 
027E2:  MOVLB  7
027E4:  MOVF   x8E,W
027E6:  SUBLW  04
027E8:  BNZ   2844
....................       { 
....................          glcd_rect(x, y, x+(tamano*16), y+(tamano*8), YES, OFF); 
027EA:  MOVF   x8F,W
027EC:  MULLW  10
027EE:  MOVF   FF3,W
027F0:  ADDWF  x8C,W
027F2:  MOVWF  x99
027F4:  MOVF   x8F,W
027F6:  MULLW  08
027F8:  MOVF   FF3,W
027FA:  ADDWF  x8D,W
027FC:  MOVWF  x9A
027FE:  MOVFF  78C,79D
02802:  MOVFF  78D,79E
02806:  MOVFF  799,79F
0280A:  MOVWF  xA0
0280C:  MOVLW  01
0280E:  MOVWF  xA1
02810:  CLRF   xA2
02812:  MOVLB  0
02814:  CALL   1780
....................          glcd_text57(x+1, y+1, voltage, tamano, ON); 
02818:  MOVLW  01
0281A:  MOVLB  7
0281C:  ADDWF  x8C,W
0281E:  MOVWF  x99
02820:  MOVLW  01
02822:  ADDWF  x8D,W
02824:  MOVWF  x9A
02826:  MOVFF  799,79D
0282A:  MOVWF  x9E
0282C:  MOVLW  07
0282E:  MOVWF  xA0
02830:  MOVLW  90
02832:  MOVWF  x9F
02834:  MOVFF  78F,7A1
02838:  MOVLW  01
0283A:  MOVWF  xA2
0283C:  MOVLB  0
0283E:  CALL   14AC
02842:  MOVLB  7
....................       } 
....................       if(sombreado==1) 
02844:  DECFSZ x8E,W
02846:  BRA    28A0
....................          {glcd_rect(x, y, x+(tamano*5), y+(tamano*8), YES, ON);glcd_text57(x+1, y+1, voltage, tamano, OFF);} 
02848:  MOVF   x8F,W
0284A:  MULLW  05
0284C:  MOVF   FF3,W
0284E:  ADDWF  x8C,W
02850:  MOVWF  x99
02852:  MOVF   x8F,W
02854:  MULLW  08
02856:  MOVF   FF3,W
02858:  ADDWF  x8D,W
0285A:  MOVWF  x9A
0285C:  MOVFF  78C,79D
02860:  MOVFF  78D,79E
02864:  MOVFF  799,79F
02868:  MOVWF  xA0
0286A:  MOVLW  01
0286C:  MOVWF  xA1
0286E:  MOVWF  xA2
02870:  MOVLB  0
02872:  CALL   1780
02876:  MOVLW  01
02878:  MOVLB  7
0287A:  ADDWF  x8C,W
0287C:  MOVWF  x99
0287E:  MOVLW  01
02880:  ADDWF  x8D,W
02882:  MOVWF  x9A
02884:  MOVFF  799,79D
02888:  MOVWF  x9E
0288A:  MOVLW  07
0288C:  MOVWF  xA0
0288E:  MOVLW  90
02890:  MOVWF  x9F
02892:  MOVFF  78F,7A1
02896:  CLRF   xA2
02898:  MOVLB  0
0289A:  CALL   14AC
0289E:  MOVLB  7
....................       if(sombreado==0) 
028A0:  MOVF   x8E,F
028A2:  BTFSS  FD8.2
028A4:  BRA    2900
....................          {glcd_rect(x, y, x+(tamano*5), y+(tamano*8), YES, OFF);glcd_text57(x+1, y+1, voltage, tamano, ON);} 
028A6:  MOVF   x8F,W
028A8:  MULLW  05
028AA:  MOVF   FF3,W
028AC:  ADDWF  x8C,W
028AE:  MOVWF  x99
028B0:  MOVF   x8F,W
028B2:  MULLW  08
028B4:  MOVF   FF3,W
028B6:  ADDWF  x8D,W
028B8:  MOVWF  x9A
028BA:  MOVFF  78C,79D
028BE:  MOVFF  78D,79E
028C2:  MOVFF  799,79F
028C6:  MOVWF  xA0
028C8:  MOVLW  01
028CA:  MOVWF  xA1
028CC:  CLRF   xA2
028CE:  MOVLB  0
028D0:  CALL   1780
028D4:  MOVLW  01
028D6:  MOVLB  7
028D8:  ADDWF  x8C,W
028DA:  MOVWF  x99
028DC:  MOVLW  01
028DE:  ADDWF  x8D,W
028E0:  MOVWF  x9A
028E2:  MOVFF  799,79D
028E6:  MOVWF  x9E
028E8:  MOVLW  07
028EA:  MOVWF  xA0
028EC:  MOVLW  90
028EE:  MOVWF  x9F
028F0:  MOVFF  78F,7A1
028F4:  MOVLW  01
028F6:  MOVWF  xA2
028F8:  MOVLB  0
028FA:  CALL   14AC
028FE:  MOVLB  7
02900:  MOVLB  0
....................    } 
....................    glcd_update(); 
02902:  CALL   1298
02906:  RETURN 0
.................... } 
....................  
.................... void glcd_imagen(int8 x) 
.................... { 
....................    char i,j; 
....................    signed char k;  
....................     
....................    if(x==5){ 
*
03A4C:  MOVLB  7
03A4E:  MOVF   x85,W
03A50:  SUBLW  05
03A52:  BNZ   3AEE
....................    for( i = 0 ; i < 64 ; i ++ ) 
03A54:  CLRF   x86
03A56:  MOVF   x86,W
03A58:  SUBLW  3F
03A5A:  BNC   3AEE
....................    {   
....................       for( j = 0 ; j < 16 ; j ++) 
03A5C:  CLRF   x87
03A5E:  MOVF   x87,W
03A60:  SUBLW  0F
03A62:  BNC   3AEA
....................       {     
....................          for(k=7;k>-1;k--) 
03A64:  MOVLW  07
03A66:  MOVWF  x88
03A68:  MOVF   x88,W
03A6A:  XORLW  80
03A6C:  SUBLW  7F
03A6E:  BC    3AE6
....................          {       
....................             if( bit_test(Horno[i][j] ,7-k ))  
03A70:  CLRF   x8A
03A72:  MOVFF  786,789
03A76:  CLRF   x8C
03A78:  MOVLW  10
03A7A:  MOVWF  x8B
03A7C:  MOVLB  0
03A7E:  CALL   1BB8
03A82:  MOVFF  02,78A
03A86:  MOVFF  01,789
03A8A:  MOVLB  7
03A8C:  MOVF   x87,W
03A8E:  ADDWF  01,W
03A90:  MOVWF  01
03A92:  MOVLW  00
03A94:  ADDWFC 02,W
03A96:  MOVWF  03
03A98:  MOVF   01,W
03A9A:  MOVFF  03,FF7
03A9E:  MOVLB  0
03AA0:  CALL   02C2
03AA4:  MOVLB  7
03AA6:  MOVWF  x89
03AA8:  MOVLW  07
03AAA:  BSF    FD8.0
03AAC:  SUBFWB x88,W
03AAE:  MOVWF  x8A
03AB0:  MOVFF  789,00
03AB4:  MOVF   x8A,W
03AB6:  MOVWF  01
03AB8:  BZ    3AC2
03ABA:  BCF    FD8.0
03ABC:  RRCF   00,F
03ABE:  DECFSZ 01,F
03AC0:  BRA    3ABA
03AC2:  BTFSS  00.0
03AC4:  BRA    3AE2
....................                glcd_pixel( j*8+k,i, ON ); 
03AC6:  MOVF   x87,W
03AC8:  MULLW  08
03ACA:  MOVF   FF3,W
03ACC:  ADDWF  x88,W
03ACE:  MOVWF  x89
03AD0:  MOVWF  xB9
03AD2:  MOVFF  786,7BA
03AD6:  MOVLW  01
03AD8:  MOVWF  xBB
03ADA:  MOVLB  0
03ADC:  CALL   13F0
03AE0:  MOVLB  7
03AE2:  DECF   x88,F
03AE4:  BRA    3A68
....................          }   
03AE6:  INCF   x87,F
03AE8:  BRA    3A5E
....................       } 
03AEA:  INCF   x86,F
03AEC:  BRA    3A56
....................    } 
....................    } 
03AEE:  MOVLB  0
03AF0:  GOTO   7768 (RETURN)
....................     
.................... } 
....................  
.................... #int_TIMER1 
.................... void temp1s(void){ 
....................    //set_timer1(45612);  // 5 ms 5536 , Posiblemente cargar con 22144 debido a F=12MHz 
....................    set_timer1(40536); 
*
010B4:  MOVLW  9E
010B6:  MOVWF  FCF
010B8:  MOVLW  58
010BA:  MOVWF  FCE
....................    tiempos++; 
010BC:  MOVLB  5
010BE:  INCF   xA9,F
010C0:  BTFSC  FD8.2
010C2:  INCF   xAA,F
....................    tiempos3++; 
010C4:  INCF   xAB,F
010C6:  BTFSC  FD8.2
010C8:  INCF   xAC,F
....................    tiempoctrl++; 
010CA:  INCF   xAD,F
010CC:  BTFSC  FD8.2
010CE:  INCF   xAE,F
....................     
....................    if(Control==1){ 
010D0:  DECFSZ x9D,W
010D2:  BRA    1100
....................       if(tiempoctrl>=Tc) // Si el tiempo de control es mayor al tiempo de ciclo se reinicia tiempo de control 
010D4:  MOVF   xB8,W
010D6:  SUBWF  xAE,W
010D8:  BNC   10E6
010DA:  BNZ   10E2
010DC:  MOVF   xB7,W
010DE:  SUBWF  xAD,W
010E0:  BNC   10E6
....................       { 
....................          tiempoctrl=0; 
010E2:  CLRF   xAE
010E4:  CLRF   xAD
....................       } // tiempoctrl incrementa una unidad cada 5ms, por eso se dividen los tiempos por 0.005. 
....................        
....................       if(tiempoctrl<=Tp) // Si el tiempo es menor o igual al tiempo de control se enciende la resistencia de lo contrario se apaga. 
010E6:  MOVF   xAE,W
010E8:  SUBWF  xB6,W
010EA:  BNC   10FA
010EC:  BNZ   10F4
010EE:  MOVF   xAD,W
010F0:  SUBWF  xB5,W
010F2:  BNC   10FA
....................       { 
....................          Resistencia_on; 
010F4:  BSF    F8B.0
010F6:  BCF    F94.0
....................       } 
010F8:  BRA    10FE
....................       else          
....................       { 
....................          Resistencia_off; 
010FA:  BCF    F8B.0
010FC:  BCF    F94.0
....................       } 
....................    } 
010FE:  BRA    1104
....................    else{ 
....................       Resistencia_off; 
01100:  BCF    F8B.0
01102:  BCF    F94.0
....................    } 
....................     
....................    if(tiempos3>=200) 
01104:  MOVF   xAC,F
01106:  BNZ   110E
01108:  MOVF   xAB,W
0110A:  SUBLW  C7
0110C:  BC    1122
....................    { 
....................       Lectura2=1; 
0110E:  MOVLW  01
01110:  MOVWF  x93
....................       if(flagup) 
01112:  BTFSS  x8B.0
01114:  BRA    1118
....................          tiempoup++; 
01116:  INCF   x94,F
....................       if(flagdn) 
01118:  BTFSS  x8B.1
0111A:  BRA    111E
....................          tiempodn++;    
0111C:  INCF   x95,F
....................       tiempos3=0; 
0111E:  CLRF   xAC
01120:  CLRF   xAB
....................    } 
....................      
....................    if(tiempos>=200)  // 12000 para que incremente cada minuto, 200para que incremente cada segundo. 
01122:  MOVF   xAA,F
01124:  BNZ   112C
01126:  MOVF   xA9,W
01128:  SUBLW  C7
0112A:  BC    115E
....................    {tiempos=0;Lectura=1;tiemporeset++;TiempoControl++;tiemporecta++; 
0112C:  CLRF   xAA
0112E:  CLRF   xA9
01130:  BSF    x8B.7
01132:  INCF   x9B,F
01134:  INCF   xA4,F
01136:  INCF   x91,F
....................     
....................       if(flag_setpoint==1) 
01138:  BTFSS  x99.4
0113A:  BRA    1142
....................          tiemposetpoint++; 
0113C:  INCF   xB3,F
0113E:  BTFSC  FD8.2
01140:  INCF   xB4,F
....................        
....................       if(tiempo_esterilizacion==1 || tiempo_esterilizacion==2){                
01142:  DECFSZ xA6,W
01144:  BRA    1148
01146:  BRA    114E
01148:  MOVF   xA6,W
0114A:  SUBLW  02
0114C:  BNZ   1154
....................          tinicio++; 
0114E:  INCF   xAF,F
01150:  BTFSC  FD8.2
01152:  INCF   xB0,F
....................       } 
....................           
....................       if(flag_tiempocalentamiento==1) 
01154:  BTFSS  x99.2
01156:  BRA    115E
....................       { 
....................          tiempocalentamiento++; 
01158:  INCF   xB1,F
0115A:  BTFSC  FD8.2
0115C:  INCF   xB2,F
....................       } 
....................    }         
0115E:  BCF    F9E.0
01160:  MOVLB  0
01162:  GOTO   0068
.................... } 
....................     
.................... void Limpia(int x1,int x2,int y){ 
....................    glcd_rect(x1, y, x2, y+7, YES, OFF); 
.................... } 
....................  
.................... void displayT(int16 adc,int x,int y,int w) { 
....................    char voltage[9];     
....................    sprintf(voltage, "%04Lu",adc); // Converts adc to text 
*
04992:  MOVLW  07
04994:  MOVLB  7
04996:  MOVWF  x80
04998:  MOVLW  8C
0499A:  MOVWF  x7F
0499C:  MOVLW  09
0499E:  MOVWF  FE9
049A0:  MOVFF  788,79C
049A4:  MOVFF  787,79B
049A8:  MOVLB  0
049AA:  CALL   2686
....................    glcd_rect(x, y, x+(w*27), y+(w*8), YES, OFF); 
049AE:  MOVLB  7
049B0:  MOVF   x8B,W
049B2:  MULLW  1B
049B4:  MOVF   FF3,W
049B6:  ADDWF  x89,W
049B8:  MOVWF  x95
049BA:  MOVF   x8B,W
049BC:  MULLW  08
049BE:  MOVF   FF3,W
049C0:  ADDWF  x8A,W
049C2:  MOVWF  x96
049C4:  MOVFF  789,79D
049C8:  MOVFF  78A,79E
049CC:  MOVFF  795,79F
049D0:  MOVWF  xA0
049D2:  MOVLW  01
049D4:  MOVWF  xA1
049D6:  CLRF   xA2
049D8:  MOVLB  0
049DA:  CALL   1780
....................    glcd_text57(x, y, voltage, w, ON); 
049DE:  MOVFF  789,79D
049E2:  MOVFF  78A,79E
049E6:  MOVLW  07
049E8:  MOVLB  7
049EA:  MOVWF  xA0
049EC:  MOVLW  8C
049EE:  MOVWF  x9F
049F0:  MOVFF  78B,7A1
049F4:  MOVLW  01
049F6:  MOVWF  xA2
049F8:  MOVLB  0
049FA:  CALL   14AC
049FE:  GOTO   8A9E (RETURN)
.................... } 
....................  
.................... void displayFloat(float adc,int x,int y,int w) { 
....................    char voltage[9];     
....................    sprintf(voltage, "%03.1f",adc); // Converts adc to text 
....................    glcd_rect(x, y, x+(w*27), y+(w*8), YES, OFF); 
....................    glcd_text57(x, y, voltage, w, ON); 
.................... } 
....................  
.................... void displayContrasena(int digito, int x, int y, int sombreado) 
.................... { 
....................    char voltage[9]; 
....................    sprintf(voltage, "%i", digito); 
*
01A74:  MOVLW  07
01A76:  MOVLB  7
01A78:  MOVWF  x80
01A7A:  MOVLW  8B
01A7C:  MOVWF  x7F
01A7E:  MOVFF  787,794
01A82:  MOVLW  18
01A84:  MOVWF  x95
01A86:  MOVLB  0
01A88:  BRA    19B6
....................     
....................    if(sombreado==1) 
01A8A:  MOVLB  7
01A8C:  DECFSZ x8A,W
01A8E:  BRA    1ADE
....................       {glcd_rect(x, y, x+18, y+24, YES, ON);glcd_text57(x+2, y+1, voltage, 2, OFF);} 
01A90:  MOVLW  12
01A92:  ADDWF  x88,W
01A94:  MOVWF  x94
01A96:  MOVLW  18
01A98:  ADDWF  x89,W
01A9A:  MOVWF  x95
01A9C:  MOVFF  788,79D
01AA0:  MOVFF  789,79E
01AA4:  MOVFF  794,79F
01AA8:  MOVWF  xA0
01AAA:  MOVLW  01
01AAC:  MOVWF  xA1
01AAE:  MOVWF  xA2
01AB0:  MOVLB  0
01AB2:  RCALL  1780
01AB4:  MOVLW  02
01AB6:  MOVLB  7
01AB8:  ADDWF  x88,W
01ABA:  MOVWF  x94
01ABC:  MOVLW  01
01ABE:  ADDWF  x89,W
01AC0:  MOVWF  x95
01AC2:  MOVFF  794,79D
01AC6:  MOVWF  x9E
01AC8:  MOVLW  07
01ACA:  MOVWF  xA0
01ACC:  MOVLW  8B
01ACE:  MOVWF  x9F
01AD0:  MOVLW  02
01AD2:  MOVWF  xA1
01AD4:  CLRF   xA2
01AD6:  MOVLB  0
01AD8:  RCALL  14AC
01ADA:  BRA    1B28
01ADC:  MOVLB  7
....................    else    
....................       {glcd_rect(x, y, x+18, y+24, NO, OFF);glcd_text57(x+2, y+1, voltage, 2, ON);} 
01ADE:  MOVLW  12
01AE0:  ADDWF  x88,W
01AE2:  MOVWF  x94
01AE4:  MOVLW  18
01AE6:  ADDWF  x89,W
01AE8:  MOVWF  x95
01AEA:  MOVFF  788,79D
01AEE:  MOVFF  789,79E
01AF2:  MOVFF  794,79F
01AF6:  MOVWF  xA0
01AF8:  CLRF   xA1
01AFA:  CLRF   xA2
01AFC:  MOVLB  0
01AFE:  RCALL  1780
01B00:  MOVLW  02
01B02:  MOVLB  7
01B04:  ADDWF  x88,W
01B06:  MOVWF  x94
01B08:  MOVLW  01
01B0A:  ADDWF  x89,W
01B0C:  MOVWF  x95
01B0E:  MOVFF  794,79D
01B12:  MOVWF  x9E
01B14:  MOVLW  07
01B16:  MOVWF  xA0
01B18:  MOVLW  8B
01B1A:  MOVWF  x9F
01B1C:  MOVLW  02
01B1E:  MOVWF  xA1
01B20:  MOVLW  01
01B22:  MOVWF  xA2
01B24:  MOVLB  0
01B26:  RCALL  14AC
01B28:  RETURN 0
....................  
.................... } 
....................  
.................... void MuestraSegmento(int8 Opcio,int8 l,int8 Prog ){ 
....................          if(Temperatura1[l+((Prog-1)*10)]>1200) 
*
02F16:  MOVLW  01
02F18:  MOVLB  7
02F1A:  SUBWF  x87,W
02F1C:  MULLW  0A
02F1E:  MOVF   FF3,W
02F20:  ADDWF  x86,W
02F22:  MOVWF  00
02F24:  BCF    FD8.0
02F26:  RLCF   00,F
02F28:  MOVF   00,W
02F2A:  CLRF   03
02F2C:  ADDLW  35
02F2E:  MOVWF  FE9
02F30:  MOVLW  06
02F32:  ADDWFC 03,W
02F34:  MOVWF  FEA
02F36:  MOVFF  FEC,789
02F3A:  MOVF   FED,F
02F3C:  MOVFF  FEF,788
02F40:  BTFSC  x89.7
02F42:  BRA    2F78
02F44:  MOVF   x89,W
02F46:  SUBLW  03
02F48:  BC    2F78
02F4A:  XORLW  FF
02F4C:  BNZ   2F54
02F4E:  MOVF   x88,W
02F50:  SUBLW  B0
02F52:  BC    2F78
....................             Temperatura1[l+((Prog-1)*10)]=0; 
02F54:  MOVLW  01
02F56:  SUBWF  x87,W
02F58:  MULLW  0A
02F5A:  MOVF   FF3,W
02F5C:  ADDWF  x86,W
02F5E:  MOVWF  00
02F60:  BCF    FD8.0
02F62:  RLCF   00,F
02F64:  MOVF   00,W
02F66:  CLRF   03
02F68:  ADDLW  35
02F6A:  MOVWF  FE9
02F6C:  MOVLW  06
02F6E:  ADDWFC 03,W
02F70:  MOVWF  FEA
02F72:  CLRF   FEC
02F74:  MOVF   FED,F
02F76:  CLRF   FEF
....................           
....................          strcpy(Menus.Letra,"P 0"); 
02F78:  MOVLW  07
02F7A:  MOVWF  FEA
02F7C:  MOVLW  61
02F7E:  MOVWF  FE9
02F80:  MOVLW  00
02F82:  MOVLB  0
02F84:  CALL   06EA
02F88:  TBLRD*-
02F8A:  TBLRD*+
02F8C:  MOVF   FF5,W
02F8E:  MOVWF  FEE
02F90:  IORLW  00
02F92:  BNZ   2F8A
....................          displayMenu(Menus.Letra,30,0,1,2); 
02F94:  MOVLW  07
02F96:  MOVLB  7
02F98:  MOVWF  x89
02F9A:  MOVLW  61
02F9C:  MOVWF  x88
02F9E:  MOVLW  1E
02FA0:  MOVWF  x8A
02FA2:  CLRF   x8B
02FA4:  MOVLW  01
02FA6:  MOVWF  x8C
02FA8:  MOVLW  02
02FAA:  MOVWF  x8D
02FAC:  MOVLB  0
02FAE:  CALL   1842
....................          displayTiempo(Prog,68,0,1,2); 
02FB2:  MOVFF  787,788
02FB6:  MOVLW  44
02FB8:  MOVLB  7
02FBA:  MOVWF  x89
02FBC:  CLRF   x8A
02FBE:  MOVLW  01
02FC0:  MOVWF  x8B
02FC2:  MOVLW  02
02FC4:  MOVWF  x8C
02FC6:  MOVLB  0
02FC8:  CALL   2354
....................           
....................          strcpy(Menus.Letra,"Segmento 0"); 
02FCC:  MOVLW  07
02FCE:  MOVWF  FEA
02FD0:  MOVLW  61
02FD2:  MOVWF  FE9
02FD4:  MOVLW  00
02FD6:  CALL   0702
02FDA:  TBLRD*-
02FDC:  TBLRD*+
02FDE:  MOVF   FF5,W
02FE0:  MOVWF  FEE
02FE2:  IORLW  00
02FE4:  BNZ   2FDC
....................          displayMenu(Menus.Letra,0,20,1,1); 
02FE6:  MOVLW  07
02FE8:  MOVLB  7
02FEA:  MOVWF  x89
02FEC:  MOVLW  61
02FEE:  MOVWF  x88
02FF0:  CLRF   x8A
02FF2:  MOVLW  14
02FF4:  MOVWF  x8B
02FF6:  MOVLW  01
02FF8:  MOVWF  x8C
02FFA:  MOVWF  x8D
02FFC:  MOVLB  0
02FFE:  CALL   1842
....................          displayTiempo(l,63,20,1,1); 
03002:  MOVFF  786,788
03006:  MOVLW  3F
03008:  MOVLB  7
0300A:  MOVWF  x89
0300C:  MOVLW  14
0300E:  MOVWF  x8A
03010:  MOVLW  01
03012:  MOVWF  x8B
03014:  MOVWF  x8C
03016:  MOVLB  0
03018:  CALL   2354
....................           
....................          strcpy(Menus.Letra,"TA:"); 
0301C:  MOVLW  07
0301E:  MOVWF  FEA
03020:  MOVLW  61
03022:  MOVWF  FE9
03024:  MOVLW  00
03026:  CALL   0722
0302A:  TBLRD*-
0302C:  TBLRD*+
0302E:  MOVF   FF5,W
03030:  MOVWF  FEE
03032:  IORLW  00
03034:  BNZ   302C
....................          displayMenu(Menus.Letra,80,20,3,1); 
03036:  MOVLW  07
03038:  MOVLB  7
0303A:  MOVWF  x89
0303C:  MOVLW  61
0303E:  MOVWF  x88
03040:  MOVLW  50
03042:  MOVWF  x8A
03044:  MOVLW  14
03046:  MOVWF  x8B
03048:  MOVLW  03
0304A:  MOVWF  x8C
0304C:  MOVLW  01
0304E:  MOVWF  x8D
03050:  MOVLB  0
03052:  CALL   1842
....................           
....................          if(l>0) 
03056:  MOVLB  7
03058:  MOVF   x86,F
0305A:  BZ    30A0
....................             displayTemperatura(Temperatura1[l-1+((Prog-1)*10)],100,20,1,1); 
0305C:  MOVLW  01
0305E:  SUBWF  x86,W
03060:  MOVWF  x88
03062:  MOVLW  01
03064:  SUBWF  x87,W
03066:  MULLW  0A
03068:  MOVF   FF3,W
0306A:  ADDWF  x88,W
0306C:  MOVWF  00
0306E:  BCF    FD8.0
03070:  RLCF   00,F
03072:  MOVF   00,W
03074:  CLRF   03
03076:  ADDLW  35
03078:  MOVWF  FE9
0307A:  MOVLW  06
0307C:  ADDWFC 03,W
0307E:  MOVWF  FEA
03080:  MOVFF  FEC,78B
03084:  MOVF   FED,F
03086:  MOVFF  FEF,78A
0308A:  MOVLW  64
0308C:  MOVWF  x8C
0308E:  MOVLW  14
03090:  MOVWF  x8D
03092:  MOVLW  01
03094:  MOVWF  x8E
03096:  MOVWF  x8F
03098:  MOVLB  0
0309A:  CALL   274E
0309E:  MOVLB  7
....................           
....................          if(Opcio==1){ 
030A0:  DECFSZ x85,W
030A2:  BRA    345A
....................             strcpy(Menus.Letra,"Temperatura:"); 
030A4:  MOVLW  07
030A6:  MOVWF  FEA
030A8:  MOVLW  61
030AA:  MOVWF  FE9
030AC:  MOVLW  00
030AE:  MOVLB  0
030B0:  CALL   073A
030B4:  TBLRD*-
030B6:  TBLRD*+
030B8:  MOVF   FF5,W
030BA:  MOVWF  FEE
030BC:  IORLW  00
030BE:  BNZ   30B6
....................             displayTemps(Menus.Letra,Temperatura1[l+((Prog-1)*10)],0,32,1,1); 
030C0:  MOVLW  01
030C2:  MOVLB  7
030C4:  SUBWF  x87,W
030C6:  MULLW  0A
030C8:  MOVF   FF3,W
030CA:  ADDWF  x86,W
030CC:  MOVWF  00
030CE:  BCF    FD8.0
030D0:  RLCF   00,F
030D2:  MOVF   00,W
030D4:  CLRF   03
030D6:  ADDLW  35
030D8:  MOVWF  FE9
030DA:  MOVLW  06
030DC:  ADDWFC 03,W
030DE:  MOVWF  FEA
030E0:  MOVFF  FEC,78D
030E4:  MOVF   FED,F
030E6:  MOVFF  FEF,78C
030EA:  MOVLW  07
030EC:  MOVWF  x8B
030EE:  MOVLW  61
030F0:  MOVWF  x8A
030F2:  CLRF   x8E
030F4:  MOVLW  20
030F6:  MOVWF  x8F
030F8:  MOVLW  01
030FA:  MOVWF  x90
030FC:  MOVWF  x91
030FE:  MOVLB  0
03100:  RCALL  2B30
....................             strcpy(Menus.Letra,"Horas:"); 
03102:  MOVLW  07
03104:  MOVWF  FEA
03106:  MOVLW  61
03108:  MOVWF  FE9
0310A:  MOVLW  00
0310C:  CALL   075C
03110:  TBLRD*-
03112:  TBLRD*+
03114:  MOVF   FF5,W
03116:  MOVWF  FEE
03118:  IORLW  00
0311A:  BNZ   3112
....................             displayTemps(Menus.Letra,Horas1[l+((Prog-1)*10)],0,44,10,1); 
0311C:  MOVLW  01
0311E:  MOVLB  7
03120:  SUBWF  x87,W
03122:  MULLW  0A
03124:  MOVF   FF3,W
03126:  ADDWF  x86,W
03128:  MOVWF  00
0312A:  BCF    FD8.0
0312C:  RLCF   00,F
0312E:  MOVF   00,W
03130:  CLRF   03
03132:  ADDLW  99
03134:  MOVWF  FE9
03136:  MOVLW  06
03138:  ADDWFC 03,W
0313A:  MOVWF  FEA
0313C:  MOVFF  FEC,78D
03140:  MOVF   FED,F
03142:  MOVFF  FEF,78C
03146:  MOVLW  07
03148:  MOVWF  x8B
0314A:  MOVLW  61
0314C:  MOVWF  x8A
0314E:  CLRF   x8E
03150:  MOVLW  2C
03152:  MOVWF  x8F
03154:  MOVLW  0A
03156:  MOVWF  x90
03158:  MOVLW  01
0315A:  MOVWF  x91
0315C:  MOVLB  0
0315E:  RCALL  2B30
....................             strcpy(Menus.Letra,"Minutos:"); 
03160:  MOVLW  07
03162:  MOVWF  FEA
03164:  MOVLW  61
03166:  MOVWF  FE9
03168:  MOVLW  00
0316A:  CALL   0778
0316E:  TBLRD*-
03170:  TBLRD*+
03172:  MOVF   FF5,W
03174:  MOVWF  FEE
03176:  IORLW  00
03178:  BNZ   3170
....................             displayTemps(Menus.Letra,Minutos1[l+((Prog-1)*10)],0,55,10,1); 
0317A:  MOVLW  01
0317C:  MOVLB  7
0317E:  SUBWF  x87,W
03180:  MULLW  0A
03182:  MOVF   FF3,W
03184:  ADDWF  x86,W
03186:  MOVWF  00
03188:  BCF    FD8.0
0318A:  RLCF   00,F
0318C:  MOVF   00,W
0318E:  CLRF   03
03190:  ADDLW  FD
03192:  MOVWF  FE9
03194:  MOVLW  06
03196:  ADDWFC 03,W
03198:  MOVWF  FEA
0319A:  MOVFF  FEC,78D
0319E:  MOVF   FED,F
031A0:  MOVFF  FEF,78C
031A4:  MOVLW  07
031A6:  MOVWF  x8B
031A8:  MOVLW  61
031AA:  MOVWF  x8A
031AC:  CLRF   x8E
031AE:  MOVLW  37
031B0:  MOVWF  x8F
031B2:  MOVLW  0A
031B4:  MOVWF  x90
031B6:  MOVLW  01
031B8:  MOVWF  x91
031BA:  MOVLB  0
031BC:  RCALL  2B30
....................             if(UP)//Si oprime hacia arriba 
031BE:  BSF    F92.5
031C0:  BTFSS  F80.5
031C2:  BRA    330C
....................             { 
....................                Buzz_on;delay_ms(10);Buzz_off; 
031C4:  BSF    F8B.7
031C6:  BCF    F94.7
031C8:  MOVLW  0A
031CA:  MOVLB  7
031CC:  MOVWF  x8B
031CE:  MOVLB  0
031D0:  CALL   1166
031D4:  BCF    F8B.7
031D6:  BCF    F94.7
....................                if(tiempoup<4){ 
031D8:  MOVLB  5
031DA:  MOVF   x94,W
031DC:  SUBLW  03
031DE:  BNC   320E
....................                   flagup=1; 
031E0:  BSF    x8B.0
....................                   Temperatura1[l+((Prog-1)*10)]++; 
031E2:  MOVLW  01
031E4:  MOVLB  7
031E6:  SUBWF  x87,W
031E8:  MULLW  0A
031EA:  MOVF   FF3,W
031EC:  ADDWF  x86,W
031EE:  MOVWF  00
031F0:  BCF    FD8.0
031F2:  RLCF   00,F
031F4:  MOVF   00,W
031F6:  CLRF   03
031F8:  ADDLW  35
031FA:  MOVWF  FE9
031FC:  MOVLW  06
031FE:  ADDWFC 03,W
03200:  MOVWF  FEA
03202:  MOVLW  01
03204:  ADDWF  FEE,F
03206:  BNC   320A
03208:  INCF   FEF,F
....................                } 
0320A:  BRA    3242
0320C:  MOVLB  5
....................                else{ 
....................                   flagup=0; 
0320E:  BCF    x8B.0
....................                   Temperatura1[l+((Prog-1)*10)]+=10; 
03210:  MOVLW  01
03212:  MOVLB  7
03214:  SUBWF  x87,W
03216:  MULLW  0A
03218:  MOVF   FF3,W
0321A:  ADDWF  x86,W
0321C:  MOVWF  00
0321E:  BCF    FD8.0
03220:  RLCF   00,F
03222:  MOVF   00,W
03224:  CLRF   03
03226:  ADDLW  35
03228:  MOVWF  FE9
0322A:  MOVLW  06
0322C:  ADDWFC 03,W
0322E:  MOVWF  FEA
03230:  MOVLW  0A
03232:  ADDWF  FEF,W
03234:  MOVWF  01
03236:  MOVLW  00
03238:  ADDWFC FEC,W
0323A:  MOVF   FED,F
0323C:  MOVFF  01,FEF
03240:  MOVWF  FEC
....................                }  
....................                if(l<9) 
03242:  MOVF   x86,W
03244:  SUBLW  08
03246:  BNC   32A8
....................                   Temperatura1[l+1+((Prog-1)*10)]=Temperatura1[l+((Prog-1)*10)];  
03248:  MOVLW  01
0324A:  ADDWF  x86,W
0324C:  MOVWF  x88
0324E:  MOVLW  01
03250:  SUBWF  x87,W
03252:  MULLW  0A
03254:  MOVF   FF3,W
03256:  ADDWF  x88,W
03258:  MOVWF  00
0325A:  BCF    FD8.0
0325C:  RLCF   00,F
0325E:  MOVF   00,W
03260:  CLRF   03
03262:  ADDLW  35
03264:  MOVWF  01
03266:  MOVLW  06
03268:  ADDWFC 03,F
0326A:  MOVFF  03,789
0326E:  MOVLW  01
03270:  SUBWF  x87,W
03272:  MULLW  0A
03274:  MOVF   FF3,W
03276:  ADDWF  x86,W
03278:  MOVWF  00
0327A:  BCF    FD8.0
0327C:  RLCF   00,F
0327E:  MOVF   00,W
03280:  CLRF   03
03282:  ADDLW  35
03284:  MOVWF  FE9
03286:  MOVLW  06
03288:  ADDWFC 03,W
0328A:  MOVWF  FEA
0328C:  MOVFF  FEC,03
03290:  MOVF   FED,F
03292:  MOVFF  FEF,78A
03296:  MOVFF  789,FEA
0329A:  MOVFF  01,FE9
0329E:  MOVFF  03,FEC
032A2:  MOVF   FED,F
032A4:  MOVFF  78A,FEF
....................                    
....................                if(Temperatura1[l+((Prog-1)*10)]>1200) 
032A8:  MOVLW  01
032AA:  SUBWF  x87,W
032AC:  MULLW  0A
032AE:  MOVF   FF3,W
032B0:  ADDWF  x86,W
032B2:  MOVWF  00
032B4:  BCF    FD8.0
032B6:  RLCF   00,F
032B8:  MOVF   00,W
032BA:  CLRF   03
032BC:  ADDLW  35
032BE:  MOVWF  FE9
032C0:  MOVLW  06
032C2:  ADDWFC 03,W
032C4:  MOVWF  FEA
032C6:  MOVFF  FEC,789
032CA:  MOVF   FED,F
032CC:  MOVFF  FEF,788
032D0:  BTFSC  x89.7
032D2:  BRA    3308
032D4:  MOVF   x89,W
032D6:  SUBLW  03
032D8:  BC    3308
032DA:  XORLW  FF
032DC:  BNZ   32E4
032DE:  MOVF   x88,W
032E0:  SUBLW  B0
032E2:  BC    3308
....................                   Temperatura1[l+((Prog-1)*10)]=0; 
032E4:  MOVLW  01
032E6:  SUBWF  x87,W
032E8:  MULLW  0A
032EA:  MOVF   FF3,W
032EC:  ADDWF  x86,W
032EE:  MOVWF  00
032F0:  BCF    FD8.0
032F2:  RLCF   00,F
032F4:  MOVF   00,W
032F6:  CLRF   03
032F8:  ADDLW  35
032FA:  MOVWF  FE9
032FC:  MOVLW  06
032FE:  ADDWFC 03,W
03300:  MOVWF  FEA
03302:  CLRF   FEC
03304:  MOVF   FED,F
03306:  CLRF   FEF
....................             } 
03308:  BRA    3314
0330A:  MOVLB  0
....................             else 
....................             { 
....................                flagup=0;tiempoup=0; 
0330C:  MOVLB  5
0330E:  BCF    x8B.0
03310:  CLRF   x94
03312:  MOVLB  7
....................             } 
....................                       
....................             if(DOWN)//Si oprime hacia abajo 
03314:  BSF    F96.0
03316:  BTFSS  F84.0
03318:  BRA    3452
....................             { 
....................                Buzz_on;delay_ms(10);Buzz_off; 
0331A:  BSF    F8B.7
0331C:  BCF    F94.7
0331E:  MOVLW  0A
03320:  MOVWF  x8B
03322:  MOVLB  0
03324:  CALL   1166
03328:  BCF    F8B.7
0332A:  BCF    F94.7
....................                if(tiempodn<4){ 
0332C:  MOVLB  5
0332E:  MOVF   x95,W
03330:  SUBLW  03
03332:  BNC   3364
....................                   flagdn=1; 
03334:  BSF    x8B.1
....................                   Temperatura1[l+((Prog-1)*10)]--; 
03336:  MOVLW  01
03338:  MOVLB  7
0333A:  SUBWF  x87,W
0333C:  MULLW  0A
0333E:  MOVF   FF3,W
03340:  ADDWF  x86,W
03342:  MOVWF  00
03344:  BCF    FD8.0
03346:  RLCF   00,F
03348:  MOVF   00,W
0334A:  CLRF   03
0334C:  ADDLW  35
0334E:  MOVWF  FE9
03350:  MOVLW  06
03352:  ADDWFC 03,W
03354:  MOVWF  FEA
03356:  MOVLW  FF
03358:  ADDWF  FEF,F
0335A:  BC    3360
0335C:  MOVF   FEE,F
0335E:  DECF   FED,F
....................                } 
03360:  BRA    339C
03362:  MOVLB  5
....................                else{ 
....................                   flagdn=0; 
03364:  BCF    x8B.1
....................                   Temperatura1[l+((Prog-1)*10)]-=10; 
03366:  MOVLW  01
03368:  MOVLB  7
0336A:  SUBWF  x87,W
0336C:  MULLW  0A
0336E:  MOVF   FF3,W
03370:  ADDWF  x86,W
03372:  MOVWF  00
03374:  BCF    FD8.0
03376:  RLCF   00,F
03378:  MOVF   00,W
0337A:  CLRF   03
0337C:  ADDLW  35
0337E:  MOVWF  FE9
03380:  MOVLW  06
03382:  ADDWFC 03,W
03384:  MOVWF  FEA
03386:  MOVLW  0A
03388:  SUBWF  FEF,W
0338A:  MOVWF  00
0338C:  MOVLW  00
0338E:  SUBWFB FEC,W
03390:  MOVWF  03
03392:  MOVF   00,W
03394:  MOVF   FED,F
03396:  MOVWF  FEF
03398:  MOVFF  03,FEC
....................                } 
....................                Temperatura1[l+1+((Prog-1)*10)]=Temperatura1[l+((Prog-1)*10)];  
0339C:  MOVLW  01
0339E:  ADDWF  x86,W
033A0:  MOVWF  x88
033A2:  MOVLW  01
033A4:  SUBWF  x87,W
033A6:  MULLW  0A
033A8:  MOVF   FF3,W
033AA:  ADDWF  x88,W
033AC:  MOVWF  00
033AE:  BCF    FD8.0
033B0:  RLCF   00,F
033B2:  MOVF   00,W
033B4:  CLRF   03
033B6:  ADDLW  35
033B8:  MOVWF  01
033BA:  MOVLW  06
033BC:  ADDWFC 03,F
033BE:  MOVFF  03,789
033C2:  MOVLW  01
033C4:  SUBWF  x87,W
033C6:  MULLW  0A
033C8:  MOVF   FF3,W
033CA:  ADDWF  x86,W
033CC:  MOVWF  00
033CE:  BCF    FD8.0
033D0:  RLCF   00,F
033D2:  MOVF   00,W
033D4:  CLRF   03
033D6:  ADDLW  35
033D8:  MOVWF  FE9
033DA:  MOVLW  06
033DC:  ADDWFC 03,W
033DE:  MOVWF  FEA
033E0:  MOVFF  FEC,03
033E4:  MOVF   FED,F
033E6:  MOVFF  FEF,78A
033EA:  MOVFF  789,FEA
033EE:  MOVFF  01,FE9
033F2:  MOVFF  03,FEC
033F6:  MOVF   FED,F
033F8:  MOVFF  78A,FEF
....................                 
....................                if(Temperatura1[l+((Prog-1)*10)]<0) 
033FC:  MOVLW  01
033FE:  SUBWF  x87,W
03400:  MULLW  0A
03402:  MOVF   FF3,W
03404:  ADDWF  x86,W
03406:  MOVWF  00
03408:  BCF    FD8.0
0340A:  RLCF   00,F
0340C:  MOVF   00,W
0340E:  CLRF   03
03410:  ADDLW  35
03412:  MOVWF  FE9
03414:  MOVLW  06
03416:  ADDWFC 03,W
03418:  MOVWF  FEA
0341A:  MOVFF  FEC,789
0341E:  MOVF   FED,F
03420:  MOVFF  FEF,788
03424:  BTFSS  x89.7
03426:  BRA    3450
....................                   Temperatura1[l+((Prog-1)*10)]=1200; 
03428:  MOVLW  01
0342A:  SUBWF  x87,W
0342C:  MULLW  0A
0342E:  MOVF   FF3,W
03430:  ADDWF  x86,W
03432:  MOVWF  00
03434:  BCF    FD8.0
03436:  RLCF   00,F
03438:  MOVF   00,W
0343A:  CLRF   03
0343C:  ADDLW  35
0343E:  MOVWF  FE9
03440:  MOVLW  06
03442:  ADDWFC 03,W
03444:  MOVWF  FEA
03446:  MOVLW  04
03448:  MOVWF  FEC
0344A:  MOVF   FED,F
0344C:  MOVLW  B0
0344E:  MOVWF  FEF
....................             } 
03450:  BRA    345A
....................             else{ 
....................                flagdn=0;tiempodn=0; 
03452:  MOVLB  5
03454:  BCF    x8B.1
03456:  CLRF   x95
03458:  MOVLB  7
....................             } 
....................          } 
....................           
....................          if(Opcio==2){ 
0345A:  MOVF   x85,W
0345C:  SUBLW  02
0345E:  BTFSS  FD8.2
03460:  BRA    3750
....................             strcpy(Menus.Letra,"Temperatura:"); 
03462:  MOVLW  07
03464:  MOVWF  FEA
03466:  MOVLW  61
03468:  MOVWF  FE9
0346A:  MOVLW  00
0346C:  MOVLB  0
0346E:  CALL   073A
03472:  TBLRD*-
03474:  TBLRD*+
03476:  MOVF   FF5,W
03478:  MOVWF  FEE
0347A:  IORLW  00
0347C:  BNZ   3474
....................             displayTemps(Menus.Letra,Temperatura1[l+((Prog-1)*10)],0,32,0,1); 
0347E:  MOVLW  01
03480:  MOVLB  7
03482:  SUBWF  x87,W
03484:  MULLW  0A
03486:  MOVF   FF3,W
03488:  ADDWF  x86,W
0348A:  MOVWF  00
0348C:  BCF    FD8.0
0348E:  RLCF   00,F
03490:  MOVF   00,W
03492:  CLRF   03
03494:  ADDLW  35
03496:  MOVWF  FE9
03498:  MOVLW  06
0349A:  ADDWFC 03,W
0349C:  MOVWF  FEA
0349E:  MOVFF  FEC,78D
034A2:  MOVF   FED,F
034A4:  MOVFF  FEF,78C
034A8:  MOVLW  07
034AA:  MOVWF  x8B
034AC:  MOVLW  61
034AE:  MOVWF  x8A
034B0:  CLRF   x8E
034B2:  MOVLW  20
034B4:  MOVWF  x8F
034B6:  CLRF   x90
034B8:  MOVLW  01
034BA:  MOVWF  x91
034BC:  MOVLB  0
034BE:  CALL   2B30
....................             strcpy(Menus.Letra,"Horas:"); 
034C2:  MOVLW  07
034C4:  MOVWF  FEA
034C6:  MOVLW  61
034C8:  MOVWF  FE9
034CA:  MOVLW  00
034CC:  CALL   075C
034D0:  TBLRD*-
034D2:  TBLRD*+
034D4:  MOVF   FF5,W
034D6:  MOVWF  FEE
034D8:  IORLW  00
034DA:  BNZ   34D2
....................             displayTemps(Menus.Letra,Horas1[l+((Prog-1)*10)],0,44,11,1); 
034DC:  MOVLW  01
034DE:  MOVLB  7
034E0:  SUBWF  x87,W
034E2:  MULLW  0A
034E4:  MOVF   FF3,W
034E6:  ADDWF  x86,W
034E8:  MOVWF  00
034EA:  BCF    FD8.0
034EC:  RLCF   00,F
034EE:  MOVF   00,W
034F0:  CLRF   03
034F2:  ADDLW  99
034F4:  MOVWF  FE9
034F6:  MOVLW  06
034F8:  ADDWFC 03,W
034FA:  MOVWF  FEA
034FC:  MOVFF  FEC,78D
03500:  MOVF   FED,F
03502:  MOVFF  FEF,78C
03506:  MOVLW  07
03508:  MOVWF  x8B
0350A:  MOVLW  61
0350C:  MOVWF  x8A
0350E:  CLRF   x8E
03510:  MOVLW  2C
03512:  MOVWF  x8F
03514:  MOVLW  0B
03516:  MOVWF  x90
03518:  MOVLW  01
0351A:  MOVWF  x91
0351C:  MOVLB  0
0351E:  CALL   2B30
....................             strcpy(Menus.Letra,"Minutos:"); 
03522:  MOVLW  07
03524:  MOVWF  FEA
03526:  MOVLW  61
03528:  MOVWF  FE9
0352A:  MOVLW  00
0352C:  CALL   0778
03530:  TBLRD*-
03532:  TBLRD*+
03534:  MOVF   FF5,W
03536:  MOVWF  FEE
03538:  IORLW  00
0353A:  BNZ   3532
....................             displayTemps(Menus.Letra,Minutos1[l+((Prog-1)*10)],0,55,10,1); 
0353C:  MOVLW  01
0353E:  MOVLB  7
03540:  SUBWF  x87,W
03542:  MULLW  0A
03544:  MOVF   FF3,W
03546:  ADDWF  x86,W
03548:  MOVWF  00
0354A:  BCF    FD8.0
0354C:  RLCF   00,F
0354E:  MOVF   00,W
03550:  CLRF   03
03552:  ADDLW  FD
03554:  MOVWF  FE9
03556:  MOVLW  06
03558:  ADDWFC 03,W
0355A:  MOVWF  FEA
0355C:  MOVFF  FEC,78D
03560:  MOVF   FED,F
03562:  MOVFF  FEF,78C
03566:  MOVLW  07
03568:  MOVWF  x8B
0356A:  MOVLW  61
0356C:  MOVWF  x8A
0356E:  CLRF   x8E
03570:  MOVLW  37
03572:  MOVWF  x8F
03574:  MOVLW  0A
03576:  MOVWF  x90
03578:  MOVLW  01
0357A:  MOVWF  x91
0357C:  MOVLB  0
0357E:  CALL   2B30
....................             if(UP)//Si oprime hacia arriba 
03582:  BSF    F92.5
03584:  BTFSS  F80.5
03586:  BRA    3664
....................             { 
....................                Buzz_on;delay_ms(10);Buzz_off; 
03588:  BSF    F8B.7
0358A:  BCF    F94.7
0358C:  MOVLW  0A
0358E:  MOVLB  7
03590:  MOVWF  x8B
03592:  MOVLB  0
03594:  CALL   1166
03598:  BCF    F8B.7
0359A:  BCF    F94.7
....................                if(tiempoup<4){ 
0359C:  MOVLB  5
0359E:  MOVF   x94,W
035A0:  SUBLW  03
035A2:  BNC   35D2
....................                   flagup=1; 
035A4:  BSF    x8B.0
....................                   Horas1[l+((Prog-1)*10)]++; 
035A6:  MOVLW  01
035A8:  MOVLB  7
035AA:  SUBWF  x87,W
035AC:  MULLW  0A
035AE:  MOVF   FF3,W
035B0:  ADDWF  x86,W
035B2:  MOVWF  00
035B4:  BCF    FD8.0
035B6:  RLCF   00,F
035B8:  MOVF   00,W
035BA:  CLRF   03
035BC:  ADDLW  99
035BE:  MOVWF  FE9
035C0:  MOVLW  06
035C2:  ADDWFC 03,W
035C4:  MOVWF  FEA
035C6:  MOVLW  01
035C8:  ADDWF  FEE,F
035CA:  BNC   35CE
035CC:  INCF   FEF,F
....................                } 
035CE:  BRA    3606
035D0:  MOVLB  5
....................                else{ 
....................                   flagup=0; 
035D2:  BCF    x8B.0
....................                   Horas1[l+((Prog-1)*10)]+=10; 
035D4:  MOVLW  01
035D6:  MOVLB  7
035D8:  SUBWF  x87,W
035DA:  MULLW  0A
035DC:  MOVF   FF3,W
035DE:  ADDWF  x86,W
035E0:  MOVWF  00
035E2:  BCF    FD8.0
035E4:  RLCF   00,F
035E6:  MOVF   00,W
035E8:  CLRF   03
035EA:  ADDLW  99
035EC:  MOVWF  FE9
035EE:  MOVLW  06
035F0:  ADDWFC 03,W
035F2:  MOVWF  FEA
035F4:  MOVLW  0A
035F6:  ADDWF  FEF,W
035F8:  MOVWF  01
035FA:  MOVLW  00
035FC:  ADDWFC FEC,W
035FE:  MOVF   FED,F
03600:  MOVFF  01,FEF
03604:  MOVWF  FEC
....................                } 
....................                if(Horas1[l+((Prog-1)*10)]>99) 
03606:  MOVLW  01
03608:  SUBWF  x87,W
0360A:  MULLW  0A
0360C:  MOVF   FF3,W
0360E:  ADDWF  x86,W
03610:  MOVWF  00
03612:  BCF    FD8.0
03614:  RLCF   00,F
03616:  MOVF   00,W
03618:  CLRF   03
0361A:  ADDLW  99
0361C:  MOVWF  FE9
0361E:  MOVLW  06
03620:  ADDWFC 03,W
03622:  MOVWF  FEA
03624:  MOVFF  FEC,789
03628:  MOVF   FED,F
0362A:  MOVFF  FEF,788
0362E:  BTFSC  x89.7
03630:  BRA    3660
03632:  MOVF   x89,F
03634:  BNZ   363C
03636:  MOVF   x88,W
03638:  SUBLW  63
0363A:  BC    3660
....................                   Horas1[l+((Prog-1)*10)]=0; 
0363C:  MOVLW  01
0363E:  SUBWF  x87,W
03640:  MULLW  0A
03642:  MOVF   FF3,W
03644:  ADDWF  x86,W
03646:  MOVWF  00
03648:  BCF    FD8.0
0364A:  RLCF   00,F
0364C:  MOVF   00,W
0364E:  CLRF   03
03650:  ADDLW  99
03652:  MOVWF  FE9
03654:  MOVLW  06
03656:  ADDWFC 03,W
03658:  MOVWF  FEA
0365A:  CLRF   FEC
0365C:  MOVF   FED,F
0365E:  CLRF   FEF
....................             } 
03660:  BRA    366C
03662:  MOVLB  0
....................             else{ 
....................                flagup=0;tiempoup=0; 
03664:  MOVLB  5
03666:  BCF    x8B.0
03668:  CLRF   x94
0366A:  MOVLB  7
....................             } 
....................                       
....................             if(DOWN)//Si oprime hacia abajo 
0366C:  BSF    F96.0
0366E:  BTFSS  F84.0
03670:  BRA    3748
....................             { 
....................                Buzz_on;delay_ms(10);Buzz_off; 
03672:  BSF    F8B.7
03674:  BCF    F94.7
03676:  MOVLW  0A
03678:  MOVWF  x8B
0367A:  MOVLB  0
0367C:  CALL   1166
03680:  BCF    F8B.7
03682:  BCF    F94.7
....................                if(tiempodn<4){ 
03684:  MOVLB  5
03686:  MOVF   x95,W
03688:  SUBLW  03
0368A:  BNC   36BC
....................                   flagdn=1; 
0368C:  BSF    x8B.1
....................                   Horas1[l+((Prog-1)*10)]--; 
0368E:  MOVLW  01
03690:  MOVLB  7
03692:  SUBWF  x87,W
03694:  MULLW  0A
03696:  MOVF   FF3,W
03698:  ADDWF  x86,W
0369A:  MOVWF  00
0369C:  BCF    FD8.0
0369E:  RLCF   00,F
036A0:  MOVF   00,W
036A2:  CLRF   03
036A4:  ADDLW  99
036A6:  MOVWF  FE9
036A8:  MOVLW  06
036AA:  ADDWFC 03,W
036AC:  MOVWF  FEA
036AE:  MOVLW  FF
036B0:  ADDWF  FEF,F
036B2:  BC    36B8
036B4:  MOVF   FEE,F
036B6:  DECF   FED,F
....................                } 
036B8:  BRA    36F4
036BA:  MOVLB  5
....................                else{ 
....................                   flagdn=0; 
036BC:  BCF    x8B.1
....................                   Horas1[l+((Prog-1)*10)]-=10; 
036BE:  MOVLW  01
036C0:  MOVLB  7
036C2:  SUBWF  x87,W
036C4:  MULLW  0A
036C6:  MOVF   FF3,W
036C8:  ADDWF  x86,W
036CA:  MOVWF  00
036CC:  BCF    FD8.0
036CE:  RLCF   00,F
036D0:  MOVF   00,W
036D2:  CLRF   03
036D4:  ADDLW  99
036D6:  MOVWF  FE9
036D8:  MOVLW  06
036DA:  ADDWFC 03,W
036DC:  MOVWF  FEA
036DE:  MOVLW  0A
036E0:  SUBWF  FEF,W
036E2:  MOVWF  00
036E4:  MOVLW  00
036E6:  SUBWFB FEC,W
036E8:  MOVWF  03
036EA:  MOVF   00,W
036EC:  MOVF   FED,F
036EE:  MOVWF  FEF
036F0:  MOVFF  03,FEC
....................                } 
....................                if(Horas1[l+((Prog-1)*10)]<0) 
036F4:  MOVLW  01
036F6:  SUBWF  x87,W
036F8:  MULLW  0A
036FA:  MOVF   FF3,W
036FC:  ADDWF  x86,W
036FE:  MOVWF  00
03700:  BCF    FD8.0
03702:  RLCF   00,F
03704:  MOVF   00,W
03706:  CLRF   03
03708:  ADDLW  99
0370A:  MOVWF  FE9
0370C:  MOVLW  06
0370E:  ADDWFC 03,W
03710:  MOVWF  FEA
03712:  MOVFF  FEC,789
03716:  MOVF   FED,F
03718:  MOVFF  FEF,788
0371C:  BTFSS  x89.7
0371E:  BRA    3746
....................                   Horas1[l+((Prog-1)*10)]=99; 
03720:  MOVLW  01
03722:  SUBWF  x87,W
03724:  MULLW  0A
03726:  MOVF   FF3,W
03728:  ADDWF  x86,W
0372A:  MOVWF  00
0372C:  BCF    FD8.0
0372E:  RLCF   00,F
03730:  MOVF   00,W
03732:  CLRF   03
03734:  ADDLW  99
03736:  MOVWF  FE9
03738:  MOVLW  06
0373A:  ADDWFC 03,W
0373C:  MOVWF  FEA
0373E:  CLRF   FEC
03740:  MOVF   FED,F
03742:  MOVLW  63
03744:  MOVWF  FEF
....................             } 
03746:  BRA    3750
....................             else{ 
....................                flagdn=0;tiempodn=0; 
03748:  MOVLB  5
0374A:  BCF    x8B.1
0374C:  CLRF   x95
0374E:  MOVLB  7
....................             } 
....................          } 
....................           
....................          if(Opcio==3){ 
03750:  MOVF   x85,W
03752:  SUBLW  03
03754:  BTFSS  FD8.2
03756:  BRA    3A46
....................             strcpy(Menus.Letra,"Temperatura:"); 
03758:  MOVLW  07
0375A:  MOVWF  FEA
0375C:  MOVLW  61
0375E:  MOVWF  FE9
03760:  MOVLW  00
03762:  MOVLB  0
03764:  CALL   073A
03768:  TBLRD*-
0376A:  TBLRD*+
0376C:  MOVF   FF5,W
0376E:  MOVWF  FEE
03770:  IORLW  00
03772:  BNZ   376A
....................             displayTemps(Menus.Letra,Temperatura1[l+((Prog-1)*10)],0,32,0,1); 
03774:  MOVLW  01
03776:  MOVLB  7
03778:  SUBWF  x87,W
0377A:  MULLW  0A
0377C:  MOVF   FF3,W
0377E:  ADDWF  x86,W
03780:  MOVWF  00
03782:  BCF    FD8.0
03784:  RLCF   00,F
03786:  MOVF   00,W
03788:  CLRF   03
0378A:  ADDLW  35
0378C:  MOVWF  FE9
0378E:  MOVLW  06
03790:  ADDWFC 03,W
03792:  MOVWF  FEA
03794:  MOVFF  FEC,78D
03798:  MOVF   FED,F
0379A:  MOVFF  FEF,78C
0379E:  MOVLW  07
037A0:  MOVWF  x8B
037A2:  MOVLW  61
037A4:  MOVWF  x8A
037A6:  CLRF   x8E
037A8:  MOVLW  20
037AA:  MOVWF  x8F
037AC:  CLRF   x90
037AE:  MOVLW  01
037B0:  MOVWF  x91
037B2:  MOVLB  0
037B4:  CALL   2B30
....................             strcpy(Menus.Letra,"Horas:"); 
037B8:  MOVLW  07
037BA:  MOVWF  FEA
037BC:  MOVLW  61
037BE:  MOVWF  FE9
037C0:  MOVLW  00
037C2:  CALL   075C
037C6:  TBLRD*-
037C8:  TBLRD*+
037CA:  MOVF   FF5,W
037CC:  MOVWF  FEE
037CE:  IORLW  00
037D0:  BNZ   37C8
....................             displayTemps(Menus.Letra,Horas1[l+((Prog-1)*10)],0,44,10,1); 
037D2:  MOVLW  01
037D4:  MOVLB  7
037D6:  SUBWF  x87,W
037D8:  MULLW  0A
037DA:  MOVF   FF3,W
037DC:  ADDWF  x86,W
037DE:  MOVWF  00
037E0:  BCF    FD8.0
037E2:  RLCF   00,F
037E4:  MOVF   00,W
037E6:  CLRF   03
037E8:  ADDLW  99
037EA:  MOVWF  FE9
037EC:  MOVLW  06
037EE:  ADDWFC 03,W
037F0:  MOVWF  FEA
037F2:  MOVFF  FEC,78D
037F6:  MOVF   FED,F
037F8:  MOVFF  FEF,78C
037FC:  MOVLW  07
037FE:  MOVWF  x8B
03800:  MOVLW  61
03802:  MOVWF  x8A
03804:  CLRF   x8E
03806:  MOVLW  2C
03808:  MOVWF  x8F
0380A:  MOVLW  0A
0380C:  MOVWF  x90
0380E:  MOVLW  01
03810:  MOVWF  x91
03812:  MOVLB  0
03814:  CALL   2B30
....................             strcpy(Menus.Letra,"Minutos:"); 
03818:  MOVLW  07
0381A:  MOVWF  FEA
0381C:  MOVLW  61
0381E:  MOVWF  FE9
03820:  MOVLW  00
03822:  CALL   0778
03826:  TBLRD*-
03828:  TBLRD*+
0382A:  MOVF   FF5,W
0382C:  MOVWF  FEE
0382E:  IORLW  00
03830:  BNZ   3828
....................             displayTemps(Menus.Letra,Minutos1[l+((Prog-1)*10)],0,55,11,1); 
03832:  MOVLW  01
03834:  MOVLB  7
03836:  SUBWF  x87,W
03838:  MULLW  0A
0383A:  MOVF   FF3,W
0383C:  ADDWF  x86,W
0383E:  MOVWF  00
03840:  BCF    FD8.0
03842:  RLCF   00,F
03844:  MOVF   00,W
03846:  CLRF   03
03848:  ADDLW  FD
0384A:  MOVWF  FE9
0384C:  MOVLW  06
0384E:  ADDWFC 03,W
03850:  MOVWF  FEA
03852:  MOVFF  FEC,78D
03856:  MOVF   FED,F
03858:  MOVFF  FEF,78C
0385C:  MOVLW  07
0385E:  MOVWF  x8B
03860:  MOVLW  61
03862:  MOVWF  x8A
03864:  CLRF   x8E
03866:  MOVLW  37
03868:  MOVWF  x8F
0386A:  MOVLW  0B
0386C:  MOVWF  x90
0386E:  MOVLW  01
03870:  MOVWF  x91
03872:  MOVLB  0
03874:  CALL   2B30
....................             if(UP)//Si oprime hacia arriba 
03878:  BSF    F92.5
0387A:  BTFSS  F80.5
0387C:  BRA    395A
....................             { 
....................                Buzz_on;delay_ms(10);Buzz_off; 
0387E:  BSF    F8B.7
03880:  BCF    F94.7
03882:  MOVLW  0A
03884:  MOVLB  7
03886:  MOVWF  x8B
03888:  MOVLB  0
0388A:  CALL   1166
0388E:  BCF    F8B.7
03890:  BCF    F94.7
....................                if(tiempoup<4){ 
03892:  MOVLB  5
03894:  MOVF   x94,W
03896:  SUBLW  03
03898:  BNC   38C8
....................                   flagup=1; 
0389A:  BSF    x8B.0
....................                   Minutos1[l+((Prog-1)*10)]++; 
0389C:  MOVLW  01
0389E:  MOVLB  7
038A0:  SUBWF  x87,W
038A2:  MULLW  0A
038A4:  MOVF   FF3,W
038A6:  ADDWF  x86,W
038A8:  MOVWF  00
038AA:  BCF    FD8.0
038AC:  RLCF   00,F
038AE:  MOVF   00,W
038B0:  CLRF   03
038B2:  ADDLW  FD
038B4:  MOVWF  FE9
038B6:  MOVLW  06
038B8:  ADDWFC 03,W
038BA:  MOVWF  FEA
038BC:  MOVLW  01
038BE:  ADDWF  FEE,F
038C0:  BNC   38C4
038C2:  INCF   FEF,F
....................                }   
038C4:  BRA    38FC
038C6:  MOVLB  5
....................                else{ 
....................                   flagup=0; 
038C8:  BCF    x8B.0
....................                   Minutos1[l+((Prog-1)*10)]+=10; 
038CA:  MOVLW  01
038CC:  MOVLB  7
038CE:  SUBWF  x87,W
038D0:  MULLW  0A
038D2:  MOVF   FF3,W
038D4:  ADDWF  x86,W
038D6:  MOVWF  00
038D8:  BCF    FD8.0
038DA:  RLCF   00,F
038DC:  MOVF   00,W
038DE:  CLRF   03
038E0:  ADDLW  FD
038E2:  MOVWF  FE9
038E4:  MOVLW  06
038E6:  ADDWFC 03,W
038E8:  MOVWF  FEA
038EA:  MOVLW  0A
038EC:  ADDWF  FEF,W
038EE:  MOVWF  01
038F0:  MOVLW  00
038F2:  ADDWFC FEC,W
038F4:  MOVF   FED,F
038F6:  MOVFF  01,FEF
038FA:  MOVWF  FEC
....................                } 
....................                if(Minutos1[l+((Prog-1)*10)]>59) 
038FC:  MOVLW  01
038FE:  SUBWF  x87,W
03900:  MULLW  0A
03902:  MOVF   FF3,W
03904:  ADDWF  x86,W
03906:  MOVWF  00
03908:  BCF    FD8.0
0390A:  RLCF   00,F
0390C:  MOVF   00,W
0390E:  CLRF   03
03910:  ADDLW  FD
03912:  MOVWF  FE9
03914:  MOVLW  06
03916:  ADDWFC 03,W
03918:  MOVWF  FEA
0391A:  MOVFF  FEC,789
0391E:  MOVF   FED,F
03920:  MOVFF  FEF,788
03924:  BTFSC  x89.7
03926:  BRA    3956
03928:  MOVF   x89,F
0392A:  BNZ   3932
0392C:  MOVF   x88,W
0392E:  SUBLW  3B
03930:  BC    3956
....................                   Minutos1[l+((Prog-1)*10)]=0; 
03932:  MOVLW  01
03934:  SUBWF  x87,W
03936:  MULLW  0A
03938:  MOVF   FF3,W
0393A:  ADDWF  x86,W
0393C:  MOVWF  00
0393E:  BCF    FD8.0
03940:  RLCF   00,F
03942:  MOVF   00,W
03944:  CLRF   03
03946:  ADDLW  FD
03948:  MOVWF  FE9
0394A:  MOVLW  06
0394C:  ADDWFC 03,W
0394E:  MOVWF  FEA
03950:  CLRF   FEC
03952:  MOVF   FED,F
03954:  CLRF   FEF
....................             } 
03956:  BRA    3962
03958:  MOVLB  0
....................             else{ 
....................                flagup=0;tiempoup=0; 
0395A:  MOVLB  5
0395C:  BCF    x8B.0
0395E:  CLRF   x94
03960:  MOVLB  7
....................             } 
....................                       
....................             if(DOWN)//Si oprime hacia abajo 
03962:  BSF    F96.0
03964:  BTFSS  F84.0
03966:  BRA    3A3E
....................             { 
....................                Buzz_on;delay_ms(10);Buzz_off; 
03968:  BSF    F8B.7
0396A:  BCF    F94.7
0396C:  MOVLW  0A
0396E:  MOVWF  x8B
03970:  MOVLB  0
03972:  CALL   1166
03976:  BCF    F8B.7
03978:  BCF    F94.7
....................                if(tiempodn<4){ 
0397A:  MOVLB  5
0397C:  MOVF   x95,W
0397E:  SUBLW  03
03980:  BNC   39B2
....................                   flagdn=1; 
03982:  BSF    x8B.1
....................                   Minutos1[l+((Prog-1)*10)]--; 
03984:  MOVLW  01
03986:  MOVLB  7
03988:  SUBWF  x87,W
0398A:  MULLW  0A
0398C:  MOVF   FF3,W
0398E:  ADDWF  x86,W
03990:  MOVWF  00
03992:  BCF    FD8.0
03994:  RLCF   00,F
03996:  MOVF   00,W
03998:  CLRF   03
0399A:  ADDLW  FD
0399C:  MOVWF  FE9
0399E:  MOVLW  06
039A0:  ADDWFC 03,W
039A2:  MOVWF  FEA
039A4:  MOVLW  FF
039A6:  ADDWF  FEF,F
039A8:  BC    39AE
039AA:  MOVF   FEE,F
039AC:  DECF   FED,F
....................                } 
039AE:  BRA    39EA
039B0:  MOVLB  5
....................                else{ 
....................                   flagdn=0; 
039B2:  BCF    x8B.1
....................                   Minutos1[l+((Prog-1)*10)]-=10; 
039B4:  MOVLW  01
039B6:  MOVLB  7
039B8:  SUBWF  x87,W
039BA:  MULLW  0A
039BC:  MOVF   FF3,W
039BE:  ADDWF  x86,W
039C0:  MOVWF  00
039C2:  BCF    FD8.0
039C4:  RLCF   00,F
039C6:  MOVF   00,W
039C8:  CLRF   03
039CA:  ADDLW  FD
039CC:  MOVWF  FE9
039CE:  MOVLW  06
039D0:  ADDWFC 03,W
039D2:  MOVWF  FEA
039D4:  MOVLW  0A
039D6:  SUBWF  FEF,W
039D8:  MOVWF  00
039DA:  MOVLW  00
039DC:  SUBWFB FEC,W
039DE:  MOVWF  03
039E0:  MOVF   00,W
039E2:  MOVF   FED,F
039E4:  MOVWF  FEF
039E6:  MOVFF  03,FEC
....................                } 
....................                if(Minutos1[l+((Prog-1)*10)]<0) 
039EA:  MOVLW  01
039EC:  SUBWF  x87,W
039EE:  MULLW  0A
039F0:  MOVF   FF3,W
039F2:  ADDWF  x86,W
039F4:  MOVWF  00
039F6:  BCF    FD8.0
039F8:  RLCF   00,F
039FA:  MOVF   00,W
039FC:  CLRF   03
039FE:  ADDLW  FD
03A00:  MOVWF  FE9
03A02:  MOVLW  06
03A04:  ADDWFC 03,W
03A06:  MOVWF  FEA
03A08:  MOVFF  FEC,789
03A0C:  MOVF   FED,F
03A0E:  MOVFF  FEF,788
03A12:  BTFSS  x89.7
03A14:  BRA    3A3C
....................                   Minutos1[l+((Prog-1)*10)]=59; 
03A16:  MOVLW  01
03A18:  SUBWF  x87,W
03A1A:  MULLW  0A
03A1C:  MOVF   FF3,W
03A1E:  ADDWF  x86,W
03A20:  MOVWF  00
03A22:  BCF    FD8.0
03A24:  RLCF   00,F
03A26:  MOVF   00,W
03A28:  CLRF   03
03A2A:  ADDLW  FD
03A2C:  MOVWF  FE9
03A2E:  MOVLW  06
03A30:  ADDWFC 03,W
03A32:  MOVWF  FEA
03A34:  CLRF   FEC
03A36:  MOVF   FED,F
03A38:  MOVLW  3B
03A3A:  MOVWF  FEF
....................             } 
03A3C:  BRA    3A46
....................             else{ 
....................                flagdn=0;tiempodn=0; 
03A3E:  MOVLB  5
03A40:  BCF    x8B.1
03A42:  CLRF   x95
03A44:  MOVLB  7
....................             } 
....................          } 
03A46:  MOVLB  0
03A48:  GOTO   74CC (RETURN)
.................... } 
....................  
.................... int8 spival[4];  
....................  
.................... /*******************************************************************************  
.................... //Read SPI data  
....................  
.................... *******************************************************************************/   
.................... void readMAX()  
.................... {  
....................       output_low(SS);  
....................       delay_us(10);  
....................       spival[3]=spi_read(0);  
....................       delay_us(10);  
....................       spival[2]=spi_read(0);  
....................       delay_us(10);  
....................       spival[1]=spi_read(0);  
....................       delay_us(10);  
....................       spival[0]=spi_read(0);  
....................       delay_us(10);  
....................       output_high(SS);  
.................... }  
....................  
.................... /*******************************************************************************  
.................... //Fault detection.  
.................... //Returns >0 if FAULT. If necessary do a bitwise analisys to check fault source  
.................... *******************************************************************************/  
.................... int tempFault()  
.................... {  
....................       int1 Fvdd=0,Fgnd=0,Fopen=0,fault=0;  
....................    
....................       fault=spival[2]&0x01; // pelos menos uma falha  
....................       Fvdd=(spival[0]>>2)&0x01;  
....................       Fgnd=(spival[0]>>1)&0x01;  
....................       Fopen=spival[0]&0x01;  
....................        
....................       return (fault*1+Fvdd*2,Fgnd*4,Fopen*8);  
.................... }  
....................  
.................... /*******************************************************************************  
.................... //Read thermocouple temperature  
.................... //Returns returns signed temperature in C approximately  
.................... *******************************************************************************/  
.................... float readExtTemp()  
.................... {  
....................       int8 aux;  
....................       int16 temp1,temp2;  
....................       float entero,decimal,temperatura; 
....................        
....................       aux=spival[2]>>2;  
....................       temp1=spival[3];  
....................       temp1<<=6;  
....................       temp1+=aux;  
....................       temp2=temp1&0x03; 
....................       if(temp2==1) 
....................          decimal=0.25; 
....................       if(temp2==2) 
....................          decimal=0.5; 
....................       if(temp2==3) 
....................          decimal=0.75; 
....................       if(temp2==0) 
....................          decimal=0; 
....................       entero=temp1>>2; 
....................       temperatura=entero+decimal; 
....................       //return temp1/=4;  
....................       //return temp1*=0.25;  
....................       return temperatura;  
.................... }  
....................  
.................... /*******************************************************************************  
.................... //Read internal temperature  
.................... //Returns returns signed temperature in C approximately  
.................... *******************************************************************************/  
.................... int16 readIntTemp()  
.................... {  
....................       int8 aux;  
....................       int16 temp2;  
....................        
....................       temp2=spival[1];  
....................       temp2<<=4;  
....................       aux=spival[0]>>4;  
....................       temp2=spival[1]<<4;  
....................       temp2+=aux;  
....................        
....................       return temp2/=16;  
.................... }  
....................  
.................... void main()  
*
04A02:  CLRF   FF8
04A04:  BCF    FD0.7
04A06:  BSF    07.7
04A08:  MOVLB  5
04A0A:  BCF    x8B.0
04A0C:  BCF    x8B.1
04A0E:  BCF    x8B.2
04A10:  CLRF   x8C
04A12:  CLRF   x8D
04A14:  CLRF   x8E
04A16:  CLRF   x8F
04A18:  MOVLW  0A
04A1A:  MOVWF  x90
04A1C:  CLRF   x91
04A1E:  CLRF   x92
04A20:  CLRF   x93
04A22:  CLRF   x94
04A24:  CLRF   x95
04A26:  CLRF   x96
04A28:  CLRF   x97
04A2A:  MOVLW  05
04A2C:  MOVWF  x98
04A2E:  BCF    x8B.3
04A30:  BCF    x8B.4
04A32:  BCF    x8B.5
04A34:  BSF    x8B.6
04A36:  BCF    x8B.7
04A38:  BCF    x99.0
04A3A:  BCF    x99.1
04A3C:  BCF    x99.2
04A3E:  BCF    x99.3
04A40:  BCF    x99.4
04A42:  BCF    x99.5
04A44:  CLRF   x9A
04A46:  CLRF   x9B
04A48:  MOVLW  01
04A4A:  MOVWF  x9C
04A4C:  CLRF   x9D
04A4E:  CLRF   x9E
04A50:  MOVWF  x9F
04A52:  CLRF   xA0
04A54:  MOVWF  xA1
04A56:  CLRF   xA2
04A58:  CLRF   xA3
04A5A:  CLRF   xA4
04A5C:  MOVWF  xA5
04A5E:  CLRF   xA6
04A60:  CLRF   xA7
04A62:  MOVLW  0A
04A64:  MOVWF  xA8
04A66:  CLRF   xAA
04A68:  CLRF   xA9
04A6A:  CLRF   xAC
04A6C:  CLRF   xAB
04A6E:  CLRF   xAE
04A70:  CLRF   xAD
04A72:  CLRF   xB0
04A74:  CLRF   xAF
04A76:  CLRF   xB2
04A78:  CLRF   xB1
04A7A:  CLRF   xB4
04A7C:  CLRF   xB3
04A7E:  CLRF   xB6
04A80:  CLRF   xB5
04A82:  CLRF   xB8
04A84:  CLRF   xB7
04A86:  CLRF   xBC
04A88:  CLRF   xBB
04A8A:  CLRF   xBA
04A8C:  CLRF   xB9
04A8E:  CLRF   xC0
04A90:  CLRF   xBF
04A92:  MOVLW  20
04A94:  MOVWF  xBE
04A96:  MOVLW  83
04A98:  MOVWF  xBD
04A9A:  CLRF   xC4
04A9C:  CLRF   xC3
04A9E:  CLRF   xC2
04AA0:  CLRF   xC1
04AA2:  CLRF   xC8
04AA4:  CLRF   xC7
04AA6:  CLRF   xC6
04AA8:  CLRF   xC5
04AAA:  CLRF   xCC
04AAC:  CLRF   xCB
04AAE:  CLRF   xCA
04AB0:  CLRF   xC9
04AB2:  CLRF   xD0
04AB4:  CLRF   xCF
04AB6:  CLRF   xCE
04AB8:  CLRF   xCD
04ABA:  CLRF   xD4
04ABC:  CLRF   xD3
04ABE:  CLRF   xD2
04AC0:  CLRF   xD1
04AC2:  CLRF   xD8
04AC4:  CLRF   xD7
04AC6:  CLRF   xD6
04AC8:  CLRF   xD5
04ACA:  CLRF   xDC
04ACC:  CLRF   xDB
04ACE:  CLRF   xDA
04AD0:  CLRF   xD9
04AD2:  CLRF   xF0
04AD4:  CLRF   xEF
04AD6:  CLRF   xEE
04AD8:  CLRF   xED
04ADA:  CLRF   xF4
04ADC:  CLRF   xF3
04ADE:  MOVLW  20
04AE0:  MOVWF  xF2
04AE2:  MOVLW  82
04AE4:  MOVWF  xF1
04AE6:  CLRF   xF8
04AE8:  CLRF   xF7
04AEA:  CLRF   xF6
04AEC:  CLRF   xF5
04AEE:  CLRF   xFC
04AF0:  CLRF   xFB
04AF2:  CLRF   xFA
04AF4:  CLRF   xF9
04AF6:  MOVLB  6
04AF8:  CLRF   x00
04AFA:  MOVLB  5
04AFC:  CLRF   xFF
04AFE:  CLRF   xFE
04B00:  CLRF   xFD
04B02:  MOVLB  6
04B04:  CLRF   x04
04B06:  CLRF   x03
04B08:  CLRF   x02
04B0A:  CLRF   x01
04B0C:  CLRF   x08
04B0E:  CLRF   x07
04B10:  CLRF   x06
04B12:  CLRF   x05
04B14:  CLRF   x0C
04B16:  CLRF   x0B
04B18:  MOVLW  40
04B1A:  MOVWF  x0A
04B1C:  MOVLW  80
04B1E:  MOVWF  x09
04B20:  CLRF   x10
04B22:  CLRF   x0F
04B24:  MOVLW  40
04B26:  MOVWF  x0E
04B28:  MOVLW  80
04B2A:  MOVWF  x0D
04B2C:  CLRF   x14
04B2E:  CLRF   x13
04B30:  MOVLW  16
04B32:  MOVWF  x12
04B34:  MOVLW  86
04B36:  MOVWF  x11
04B38:  CLRF   x18
04B3A:  CLRF   x17
04B3C:  MOVLW  20
04B3E:  MOVWF  x16
04B40:  MOVLW  83
04B42:  MOVWF  x15
04B44:  CLRF   x1C
04B46:  CLRF   x1B
04B48:  CLRF   x1A
04B4A:  CLRF   x19
04B4C:  CLRF   x20
04B4E:  CLRF   x1F
04B50:  CLRF   x1E
04B52:  CLRF   x1D
04B54:  CLRF   x24
04B56:  CLRF   x23
04B58:  CLRF   x22
04B5A:  CLRF   x21
04B5C:  CLRF   x28
04B5E:  CLRF   x27
04B60:  CLRF   x26
04B62:  CLRF   x25
04B64:  CLRF   x2C
04B66:  CLRF   x2B
04B68:  CLRF   x2A
04B6A:  CLRF   x29
04B6C:  CLRF   x30
04B6E:  CLRF   x2F
04B70:  CLRF   x2E
04B72:  CLRF   x2D
04B74:  CLRF   x34
04B76:  CLRF   x33
04B78:  CLRF   x32
04B7A:  CLRF   x31
04B7C:  MOVLB  7
04B7E:  CLRF   x80
04B80:  CLRF   x7F
04B82:  MOVF   FC1,W
04B84:  ANDLW  C0
04B86:  IORLW  0F
04B88:  MOVWF  FC1
04B8A:  MOVLW  07
04B8C:  MOVWF  FB4
04B8E:  BRA    4B9C
04B90:  DATA FF,44
04B92:  DATA 1B,00
04B94:  DATA 71,C0
04B96:  DATA 00,10
04B98:  DATA 45,DD
04B9A:  DATA 00,00
04B9C:  MOVLW  00
04B9E:  MOVWF  FF8
04BA0:  MOVLW  4B
04BA2:  MOVWF  FF7
04BA4:  MOVLW  90
04BA6:  MOVWF  FF6
04BA8:  TBLRD*+
04BAA:  MOVF   FF5,W
04BAC:  MOVWF  00
04BAE:  XORLW  00
04BB0:  BZ    4BD8
04BB2:  TBLRD*+
04BB4:  MOVF   FF5,W
04BB6:  MOVWF  01
04BB8:  BTFSC  FE8.7
04BBA:  BRA    4BC6
04BBC:  ANDLW  0F
04BBE:  MOVWF  FEA
04BC0:  TBLRD*+
04BC2:  MOVFF  FF5,FE9
04BC6:  BTFSC  01.6
04BC8:  TBLRD*+
04BCA:  BTFSS  01.6
04BCC:  TBLRD*+
04BCE:  MOVFF  FF5,FEE
04BD2:  DCFSNZ 00,F
04BD4:  BRA    4BA8
04BD6:  BRA    4BCA
04BD8:  CLRF   FF8
.................... {  
....................    delay_ms(1000); 
04BDA:  MOVLW  04
04BDC:  MOVWF  x85
04BDE:  MOVLW  FA
04BE0:  MOVWF  x8B
04BE2:  MOVLB  0
04BE4:  CALL   1166
04BE8:  MOVLB  7
04BEA:  DECFSZ x85,F
04BEC:  BRA    4BDE
....................    setup_timer_1(T1_INTERNAL|T1_DIV_BY_1); 
04BEE:  MOVLW  85
04BF0:  MOVWF  FCD
....................    enable_interrupts(INT_TIMER1); 
04BF2:  BSF    F9D.0
....................    setup_adc_ports(AN0_TO_AN2); 
04BF4:  MOVF   FC1,W
04BF6:  ANDLW  C0
04BF8:  IORLW  0C
04BFA:  MOVWF  FC1
....................    setup_adc(ADC_CLOCK_DIV_64); 
04BFC:  MOVF   FC0,W
04BFE:  ANDLW  C0
04C00:  IORLW  06
04C02:  MOVWF  FC0
04C04:  BSF    FC0.7
04C06:  BSF    FC2.0
....................    /*setup_ccp1 (CCP_PWM); 
....................    setup_timer_2(T2_DIV_BY_4, 255, 1);    
....................    set_pwm1_duty(0);*/ 
....................    enable_interrupts(global); 
04C08:  MOVLW  C0
04C0A:  IORWF  FF2,F
....................     
....................    if(Ganancia>10.0) 
04C0C:  CLRF   x88
04C0E:  CLRF   x87
04C10:  MOVLW  20
04C12:  MOVWF  x86
04C14:  MOVLW  82
04C16:  MOVWF  x85
04C18:  MOVFF  60C,78C
04C1C:  MOVFF  60B,78B
04C20:  MOVFF  60A,78A
04C24:  MOVFF  609,789
04C28:  MOVLB  0
04C2A:  CALL   118E
04C2E:  BNC   4C3E
....................    { 
....................       Ganancia=2.0; 
04C30:  MOVLB  6
04C32:  CLRF   x0C
04C34:  CLRF   x0B
04C36:  CLRF   x0A
04C38:  MOVLW  80
04C3A:  MOVWF  x09
04C3C:  MOVLB  0
....................    } 
....................     
....................    glcd_init(ON);             //Inicializa la glcd 
04C3E:  MOVLW  01
04C40:  MOVLB  7
04C42:  MOVWF  x85
04C44:  MOVLB  0
04C46:  CALL   1348
....................    glcd_fillScreen(OFF);      //Limpia la pantalla 
04C4A:  MOVLB  7
04C4C:  CLRF   x86
04C4E:  MOVLB  0
04C50:  CALL   123E
....................    strcpy(Menus.Letra,"JP Inglobal"); 
04C54:  MOVLW  07
04C56:  MOVWF  FEA
04C58:  MOVLW  61
04C5A:  MOVWF  FE9
04C5C:  MOVLW  00
04C5E:  CALL   0796
04C62:  TBLRD*-
04C64:  TBLRD*+
04C66:  MOVF   FF5,W
04C68:  MOVWF  FEE
04C6A:  IORLW  00
04C6C:  BNZ   4C64
....................    displayMenu(Menus.Letra,0,0,0,2);      
04C6E:  MOVLW  07
04C70:  MOVLB  7
04C72:  MOVWF  x89
04C74:  MOVLW  61
04C76:  MOVWF  x88
04C78:  CLRF   x8A
04C7A:  CLRF   x8B
04C7C:  CLRF   x8C
04C7E:  MOVLW  02
04C80:  MOVWF  x8D
04C82:  MOVLB  0
04C84:  CALL   1842
....................    strcpy(Menus.Letra,"     Mufla"); 
04C88:  MOVLW  07
04C8A:  MOVWF  FEA
04C8C:  MOVLW  61
04C8E:  MOVWF  FE9
04C90:  MOVLW  00
04C92:  CALL   07B6
04C96:  TBLRD*-
04C98:  TBLRD*+
04C9A:  MOVF   FF5,W
04C9C:  MOVWF  FEE
04C9E:  IORLW  00
04CA0:  BNZ   4C98
....................    displayMenu(Menus.Letra,0,20,0,1);        
04CA2:  MOVLW  07
04CA4:  MOVLB  7
04CA6:  MOVWF  x89
04CA8:  MOVLW  61
04CAA:  MOVWF  x88
04CAC:  CLRF   x8A
04CAE:  MOVLW  14
04CB0:  MOVWF  x8B
04CB2:  CLRF   x8C
04CB4:  MOVLW  01
04CB6:  MOVWF  x8D
04CB8:  MOVLB  0
04CBA:  CALL   1842
....................    strcpy(Menus.Letra," Con Rampas"); 
04CBE:  MOVLW  07
04CC0:  MOVWF  FEA
04CC2:  MOVLW  61
04CC4:  MOVWF  FE9
04CC6:  MOVLW  00
04CC8:  CALL   07D6
04CCC:  TBLRD*-
04CCE:  TBLRD*+
04CD0:  MOVF   FF5,W
04CD2:  MOVWF  FEE
04CD4:  IORLW  00
04CD6:  BNZ   4CCE
....................    displayMenu(Menus.Letra,0,30,0,1); 
04CD8:  MOVLW  07
04CDA:  MOVLB  7
04CDC:  MOVWF  x89
04CDE:  MOVLW  61
04CE0:  MOVWF  x88
04CE2:  CLRF   x8A
04CE4:  MOVLW  1E
04CE6:  MOVWF  x8B
04CE8:  CLRF   x8C
04CEA:  MOVLW  01
04CEC:  MOVWF  x8D
04CEE:  MOVLB  0
04CF0:  CALL   1842
....................    strcpy(Menus.Letra,"  15 Lts"); 
04CF4:  MOVLW  07
04CF6:  MOVWF  FEA
04CF8:  MOVLW  61
04CFA:  MOVWF  FE9
04CFC:  MOVLW  00
04CFE:  CALL   07F6
04D02:  TBLRD*-
04D04:  TBLRD*+
04D06:  MOVF   FF5,W
04D08:  MOVWF  FEE
04D0A:  IORLW  00
04D0C:  BNZ   4D04
....................    displayMenu(Menus.Letra,0,45,0,2); 
04D0E:  MOVLW  07
04D10:  MOVLB  7
04D12:  MOVWF  x89
04D14:  MOVLW  61
04D16:  MOVWF  x88
04D18:  CLRF   x8A
04D1A:  MOVLW  2D
04D1C:  MOVWF  x8B
04D1E:  CLRF   x8C
04D20:  MOVLW  02
04D22:  MOVWF  x8D
04D24:  MOVLB  0
04D26:  CALL   1842
....................    delay_ms(1000); 
04D2A:  MOVLW  04
04D2C:  MOVLB  7
04D2E:  MOVWF  x85
04D30:  MOVLW  FA
04D32:  MOVWF  x8B
04D34:  MOVLB  0
04D36:  CALL   1166
04D3A:  MOVLB  7
04D3C:  DECFSZ x85,F
04D3E:  BRA    4D30
....................     
....................    Resistencia_off; 
04D40:  BCF    F8B.0
04D42:  BCF    F94.0
....................    glcd_fillScreen(OFF);      //Limpia la pantalla 
04D44:  CLRF   x86
04D46:  MOVLB  0
04D48:  CALL   123E
....................    displayContrasena(Contrasena[0],20,30,1); 
04D4C:  MOVFF  5E5,787
04D50:  MOVLW  14
04D52:  MOVLB  7
04D54:  MOVWF  x88
04D56:  MOVLW  1E
04D58:  MOVWF  x89
04D5A:  MOVLW  01
04D5C:  MOVWF  x8A
04D5E:  MOVLB  0
04D60:  CALL   1A74
....................    displayContrasena(Contrasena[1],40,30,0); 
04D64:  MOVFF  5E6,787
04D68:  MOVLW  28
04D6A:  MOVLB  7
04D6C:  MOVWF  x88
04D6E:  MOVLW  1E
04D70:  MOVWF  x89
04D72:  CLRF   x8A
04D74:  MOVLB  0
04D76:  CALL   1A74
....................    displayContrasena(Contrasena[2],60,30,0); 
04D7A:  MOVFF  5E7,787
04D7E:  MOVLW  3C
04D80:  MOVLB  7
04D82:  MOVWF  x88
04D84:  MOVLW  1E
04D86:  MOVWF  x89
04D88:  CLRF   x8A
04D8A:  MOVLB  0
04D8C:  CALL   1A74
....................    displayContrasena(Contrasena[3],80,30,0); 
04D90:  MOVFF  5E8,787
04D94:  MOVLW  50
04D96:  MOVLB  7
04D98:  MOVWF  x88
04D9A:  MOVLW  1E
04D9C:  MOVWF  x89
04D9E:  CLRF   x8A
04DA0:  MOVLB  0
04DA2:  CALL   1A74
....................     
....................    for(j=1;j<6;j++){ 
04DA6:  MOVLW  01
04DA8:  MOVLB  5
04DAA:  MOVWF  xA1
04DAC:  MOVF   xA1,W
04DAE:  SUBLW  05
04DB0:  BTFSS  FD8.0
04DB2:  BRA    4F16
....................       for(i=0;i<10;i++){ 
04DB4:  CLRF   xA0
04DB6:  MOVF   xA0,W
04DB8:  SUBLW  09
04DBA:  BTFSS  FD8.0
04DBC:  BRA    4F12
....................          delay_ms(10);  
04DBE:  MOVLW  0A
04DC0:  MOVLB  7
04DC2:  MOVWF  x8B
04DC4:  MOVLB  0
04DC6:  CALL   1166
....................          Temperatura1[i+((j-1)*10)]=make16(read_eeprom((i*2)+1+((j-1)*40)),read_eeprom((i*2)+((j-1)*40))); 
04DCA:  MOVLW  01
04DCC:  MOVLB  5
04DCE:  SUBWF  xA1,W
04DD0:  MULLW  0A
04DD2:  MOVF   FF3,W
04DD4:  ADDWF  xA0,W
04DD6:  MOVWF  00
04DD8:  BCF    FD8.0
04DDA:  RLCF   00,F
04DDC:  MOVF   00,W
04DDE:  CLRF   03
04DE0:  ADDLW  35
04DE2:  MOVWF  FE9
04DE4:  MOVLW  06
04DE6:  ADDWFC 03,W
04DE8:  MOVWF  FEA
04DEA:  BCF    FD8.0
04DEC:  RLCF   xA0,W
04DEE:  ADDLW  01
04DF0:  MOVLB  7
04DF2:  MOVWF  x87
04DF4:  MOVLW  01
04DF6:  MOVLB  5
04DF8:  SUBWF  xA1,W
04DFA:  MULLW  28
04DFC:  MOVF   FF3,W
04DFE:  MOVLB  7
04E00:  ADDWF  x87,F
04E02:  MOVFF  FF2,788
04E06:  BCF    FF2.7
04E08:  CLRF   FAA
04E0A:  MOVFF  787,FA9
04E0E:  BCF    FA6.6
04E10:  BCF    FA6.7
04E12:  BSF    FA6.0
04E14:  MOVF   FA8,W
04E16:  BTFSC  x88.7
04E18:  BSF    FF2.7
04E1A:  MOVWF  x87
04E1C:  BCF    FD8.0
04E1E:  MOVLB  5
04E20:  RLCF   xA0,W
04E22:  MOVLB  7
04E24:  MOVWF  x89
04E26:  MOVLW  01
04E28:  MOVLB  5
04E2A:  SUBWF  xA1,W
04E2C:  MULLW  28
04E2E:  MOVF   FF3,W
04E30:  MOVLB  7
04E32:  ADDWF  x89,F
04E34:  MOVFF  FF2,78A
04E38:  BCF    FF2.7
04E3A:  CLRF   FAA
04E3C:  MOVFF  789,FA9
04E40:  BCF    FA6.6
04E42:  BCF    FA6.7
04E44:  BSF    FA6.0
04E46:  MOVF   FA8,W
04E48:  BTFSC  x8A.7
04E4A:  BSF    FF2.7
04E4C:  MOVWF  x89
04E4E:  MOVFF  787,FEC
04E52:  MOVF   FED,F
04E54:  MOVFF  789,FEF
....................          delay_ms(10); 
04E58:  MOVLW  0A
04E5A:  MOVWF  x8B
04E5C:  MOVLB  0
04E5E:  CALL   1166
....................          Horas1[i+((j-1)*10)]=read_eeprom(i+((40*j)-20)); 
04E62:  MOVLW  01
04E64:  MOVLB  5
04E66:  SUBWF  xA1,W
04E68:  MULLW  0A
04E6A:  MOVF   FF3,W
04E6C:  ADDWF  xA0,W
04E6E:  MOVWF  00
04E70:  BCF    FD8.0
04E72:  RLCF   00,F
04E74:  MOVF   00,W
04E76:  CLRF   03
04E78:  ADDLW  99
04E7A:  MOVWF  FE9
04E7C:  MOVLW  06
04E7E:  ADDWFC 03,W
04E80:  MOVWF  FEA
04E82:  MOVF   xA1,W
04E84:  MULLW  28
04E86:  MOVF   FF3,W
04E88:  ADDLW  EC
04E8A:  ADDWF  xA0,W
04E8C:  MOVLB  7
04E8E:  MOVWF  x87
04E90:  MOVFF  FF2,788
04E94:  BCF    FF2.7
04E96:  CLRF   FAA
04E98:  MOVFF  787,FA9
04E9C:  BCF    FA6.6
04E9E:  BCF    FA6.7
04EA0:  BSF    FA6.0
04EA2:  MOVF   FA8,W
04EA4:  BTFSC  x88.7
04EA6:  BSF    FF2.7
04EA8:  CLRF   03
04EAA:  MOVWF  FEF
04EAC:  MOVFF  03,FEC
04EB0:  MOVF   FED,F
....................          delay_ms(10);     
04EB2:  MOVLW  0A
04EB4:  MOVWF  x8B
04EB6:  MOVLB  0
04EB8:  CALL   1166
....................          Minutos1[i+((j-1)*10)]=read_eeprom(i+((40*j)-10)); 
04EBC:  MOVLW  01
04EBE:  MOVLB  5
04EC0:  SUBWF  xA1,W
04EC2:  MULLW  0A
04EC4:  MOVF   FF3,W
04EC6:  ADDWF  xA0,W
04EC8:  MOVWF  00
04ECA:  BCF    FD8.0
04ECC:  RLCF   00,F
04ECE:  MOVF   00,W
04ED0:  CLRF   03
04ED2:  ADDLW  FD
04ED4:  MOVWF  FE9
04ED6:  MOVLW  06
04ED8:  ADDWFC 03,W
04EDA:  MOVWF  FEA
04EDC:  MOVF   xA1,W
04EDE:  MULLW  28
04EE0:  MOVF   FF3,W
04EE2:  ADDLW  F6
04EE4:  ADDWF  xA0,W
04EE6:  MOVLB  7
04EE8:  MOVWF  x87
04EEA:  MOVFF  FF2,788
04EEE:  BCF    FF2.7
04EF0:  CLRF   FAA
04EF2:  MOVFF  787,FA9
04EF6:  BCF    FA6.6
04EF8:  BCF    FA6.7
04EFA:  BSF    FA6.0
04EFC:  MOVF   FA8,W
04EFE:  BTFSC  x88.7
04F00:  BSF    FF2.7
04F02:  CLRF   03
04F04:  MOVWF  FEF
04F06:  MOVFF  03,FEC
04F0A:  MOVF   FED,F
04F0C:  MOVLB  5
04F0E:  INCF   xA0,F
04F10:  BRA    4DB6
....................       } 
04F12:  INCF   xA1,F
04F14:  BRA    4DAC
....................    } 
....................     
....................    for(i=0;i<50;i++){ 
04F16:  CLRF   xA0
04F18:  MOVF   xA0,W
04F1A:  SUBLW  31
04F1C:  BTFSS  FD8.0
04F1E:  BRA    4FFC
....................       if(Temperatura1[i]>1200) 
04F20:  BCF    FD8.0
04F22:  RLCF   xA0,W
04F24:  CLRF   03
04F26:  ADDLW  35
04F28:  MOVWF  FE9
04F2A:  MOVLW  06
04F2C:  ADDWFC 03,W
04F2E:  MOVWF  FEA
04F30:  MOVFF  FEC,786
04F34:  MOVF   FED,F
04F36:  MOVFF  FEF,785
04F3A:  MOVLB  7
04F3C:  BTFSC  x86.7
04F3E:  BRA    4F6A
04F40:  MOVF   x86,W
04F42:  SUBLW  03
04F44:  BC    4F6A
04F46:  XORLW  FF
04F48:  BNZ   4F50
04F4A:  MOVF   x85,W
04F4C:  SUBLW  B0
04F4E:  BC    4F6A
....................          Temperatura1[i]=0; 
04F50:  BCF    FD8.0
04F52:  MOVLB  5
04F54:  RLCF   xA0,W
04F56:  CLRF   03
04F58:  ADDLW  35
04F5A:  MOVWF  FE9
04F5C:  MOVLW  06
04F5E:  ADDWFC 03,W
04F60:  MOVWF  FEA
04F62:  CLRF   FEC
04F64:  MOVF   FED,F
04F66:  CLRF   FEF
04F68:  MOVLB  7
....................       if(Horas1[i]>99) 
04F6A:  BCF    FD8.0
04F6C:  MOVLB  5
04F6E:  RLCF   xA0,W
04F70:  CLRF   03
04F72:  ADDLW  99
04F74:  MOVWF  FE9
04F76:  MOVLW  06
04F78:  ADDWFC 03,W
04F7A:  MOVWF  FEA
04F7C:  MOVFF  FEC,786
04F80:  MOVF   FED,F
04F82:  MOVFF  FEF,785
04F86:  MOVLB  7
04F88:  BTFSC  x86.7
04F8A:  BRA    4FB0
04F8C:  MOVF   x86,F
04F8E:  BNZ   4F96
04F90:  MOVF   x85,W
04F92:  SUBLW  63
04F94:  BC    4FB0
....................          Horas1[i]=0; 
04F96:  BCF    FD8.0
04F98:  MOVLB  5
04F9A:  RLCF   xA0,W
04F9C:  CLRF   03
04F9E:  ADDLW  99
04FA0:  MOVWF  FE9
04FA2:  MOVLW  06
04FA4:  ADDWFC 03,W
04FA6:  MOVWF  FEA
04FA8:  CLRF   FEC
04FAA:  MOVF   FED,F
04FAC:  CLRF   FEF
04FAE:  MOVLB  7
....................       if(Minutos1[i]>59) 
04FB0:  BCF    FD8.0
04FB2:  MOVLB  5
04FB4:  RLCF   xA0,W
04FB6:  CLRF   03
04FB8:  ADDLW  FD
04FBA:  MOVWF  FE9
04FBC:  MOVLW  06
04FBE:  ADDWFC 03,W
04FC0:  MOVWF  FEA
04FC2:  MOVFF  FEC,786
04FC6:  MOVF   FED,F
04FC8:  MOVFF  FEF,785
04FCC:  MOVLB  7
04FCE:  BTFSC  x86.7
04FD0:  BRA    4FF6
04FD2:  MOVF   x86,F
04FD4:  BNZ   4FDC
04FD6:  MOVF   x85,W
04FD8:  SUBLW  3B
04FDA:  BC    4FF6
....................          Minutos1[i]=0; 
04FDC:  BCF    FD8.0
04FDE:  MOVLB  5
04FE0:  RLCF   xA0,W
04FE2:  CLRF   03
04FE4:  ADDLW  FD
04FE6:  MOVWF  FE9
04FE8:  MOVLW  06
04FEA:  ADDWFC 03,W
04FEC:  MOVWF  FEA
04FEE:  CLRF   FEC
04FF0:  MOVF   FED,F
04FF2:  CLRF   FEF
04FF4:  MOVLB  7
04FF6:  MOVLB  5
04FF8:  INCF   xA0,F
04FFA:  BRA    4F18
....................    } 
....................     
....................    delay_ms(50);    
04FFC:  MOVLW  32
04FFE:  MOVLB  7
05000:  MOVWF  x8B
05002:  MOVLB  0
05004:  CALL   1166
....................    Ganancia=read_eeprom(250); 
05008:  MOVFF  FF2,785
0500C:  BCF    FF2.7
0500E:  CLRF   FAA
05010:  MOVLW  FA
05012:  MOVWF  FA9
05014:  BCF    FA6.6
05016:  BCF    FA6.7
05018:  BSF    FA6.0
0501A:  MOVF   FA8,W
0501C:  MOVLB  7
0501E:  BTFSC  x85.7
05020:  BSF    FF2.7
05022:  CLRF   x8C
05024:  MOVWF  x8B
05026:  MOVLB  0
05028:  CALL   1B2A
0502C:  MOVFF  03,60C
05030:  MOVFF  02,60B
05034:  MOVFF  01,60A
05038:  MOVFF  00,609
....................    delay_ms(50);    
0503C:  MOVLW  32
0503E:  MOVLB  7
05040:  MOVWF  x8B
05042:  MOVLB  0
05044:  CALL   1166
....................    Tciclo=read_eeprom(251); 
05048:  MOVFF  FF2,785
0504C:  BCF    FF2.7
0504E:  CLRF   FAA
05050:  MOVLW  FB
05052:  MOVWF  FA9
05054:  BCF    FA6.6
05056:  BCF    FA6.7
05058:  BSF    FA6.0
0505A:  MOVF   FA8,W
0505C:  MOVLB  7
0505E:  BTFSC  x85.7
05060:  BSF    FF2.7
05062:  CLRF   x8C
05064:  MOVWF  x8B
05066:  MOVLB  0
05068:  CALL   1B2A
0506C:  MOVFF  03,5F4
05070:  MOVFF  02,5F3
05074:  MOVFF  01,5F2
05078:  MOVFF  00,5F1
....................    delay_ms(50);    
0507C:  MOVLW  32
0507E:  MOVLB  7
05080:  MOVWF  x8B
05082:  MOVLB  0
05084:  CALL   1166
....................    Ajuste=read_eeprom(252); 
05088:  MOVFF  FF2,785
0508C:  BCF    FF2.7
0508E:  CLRF   FAA
05090:  MOVLW  FC
05092:  MOVWF  FA9
05094:  BCF    FA6.6
05096:  BCF    FA6.7
05098:  BSF    FA6.0
0509A:  MOVF   FA8,W
0509C:  MOVLB  7
0509E:  BTFSC  x85.7
050A0:  BSF    FF2.7
050A2:  MOVLB  5
050A4:  MOVWF  x8E
....................    delay_ms(50);    
050A6:  MOVLW  32
050A8:  MOVLB  7
050AA:  MOVWF  x8B
050AC:  MOVLB  0
050AE:  CALL   1166
....................    Ajusten=read_eeprom(253); 
050B2:  MOVFF  FF2,785
050B6:  BCF    FF2.7
050B8:  CLRF   FAA
050BA:  MOVLW  FD
050BC:  MOVWF  FA9
050BE:  BCF    FA6.6
050C0:  BCF    FA6.7
050C2:  BSF    FA6.0
050C4:  MOVF   FA8,W
050C6:  MOVLB  7
050C8:  BTFSC  x85.7
050CA:  BSF    FF2.7
050CC:  MOVLB  5
050CE:  MOVWF  x8F
....................    delay_ms(50);    
050D0:  MOVLW  32
050D2:  MOVLB  7
050D4:  MOVWF  x8B
050D6:  MOVLB  0
050D8:  CALL   1166
....................    MediaMovil=read_eeprom(254); 
050DC:  MOVFF  FF2,785
050E0:  BCF    FF2.7
050E2:  CLRF   FAA
050E4:  MOVLW  FE
050E6:  MOVWF  FA9
050E8:  BCF    FA6.6
050EA:  BCF    FA6.7
050EC:  BSF    FA6.0
050EE:  MOVF   FA8,W
050F0:  MOVLB  7
050F2:  BTFSC  x85.7
050F4:  BSF    FF2.7
050F6:  MOVLB  5
050F8:  MOVWF  x90
....................    delay_ms(50);    
050FA:  MOVLW  32
050FC:  MOVLB  7
050FE:  MOVWF  x8B
05100:  MOVLB  0
05102:  CALL   1166
....................    Coeficiente=read_eeprom(255); 
05106:  MOVFF  FF2,785
0510A:  BCF    FF2.7
0510C:  CLRF   FAA
0510E:  SETF   FA9
05110:  BCF    FA6.6
05112:  BCF    FA6.7
05114:  BSF    FA6.0
05116:  MOVF   FA8,W
05118:  MOVLB  7
0511A:  BTFSC  x85.7
0511C:  BSF    FF2.7
0511E:  CLRF   x8C
05120:  MOVWF  x8B
05122:  MOVLB  0
05124:  CALL   1B2A
05128:  MOVFF  03,614
0512C:  MOVFF  02,613
05130:  MOVFF  01,612
05134:  MOVFF  00,611
....................    delay_ms(50);    
05138:  MOVLW  32
0513A:  MOVLB  7
0513C:  MOVWF  x8B
0513E:  MOVLB  0
05140:  CALL   1166
....................    AlTem=read_eeprom(256); 
05144:  MOVFF  FF2,785
05148:  BCF    FF2.7
0514A:  MOVLW  01
0514C:  MOVWF  FAA
0514E:  CLRF   FA9
05150:  BCF    FA6.6
05152:  BCF    FA6.7
05154:  BSF    FA6.0
05156:  MOVF   FA8,W
05158:  MOVLB  7
0515A:  BTFSC  x85.7
0515C:  BSF    FF2.7
0515E:  CLRF   x8C
05160:  MOVWF  x8B
05162:  MOVLB  0
05164:  CALL   1B2A
05168:  MOVFF  03,618
0516C:  MOVFF  02,617
05170:  MOVFF  01,616
05174:  MOVFF  00,615
....................    delay_ms(50);  
05178:  MOVLW  32
0517A:  MOVLB  7
0517C:  MOVWF  x8B
0517E:  MOVLB  0
05180:  CALL   1166
....................     
....................    Password[0]=read_eeprom(260); 
05184:  MOVFF  FF2,785
05188:  BCF    FF2.7
0518A:  MOVLW  01
0518C:  MOVWF  FAA
0518E:  MOVLW  04
05190:  MOVWF  FA9
05192:  BCF    FA6.6
05194:  BCF    FA6.7
05196:  BSF    FA6.0
05198:  MOVF   FA8,W
0519A:  MOVLB  7
0519C:  BTFSC  x85.7
0519E:  BSF    FF2.7
051A0:  MOVLB  5
051A2:  MOVWF  xE9
....................    delay_ms(50);    
051A4:  MOVLW  32
051A6:  MOVLB  7
051A8:  MOVWF  x8B
051AA:  MOVLB  0
051AC:  CALL   1166
....................    Password[1]=read_eeprom(261); 
051B0:  MOVFF  FF2,785
051B4:  BCF    FF2.7
051B6:  MOVLW  01
051B8:  MOVWF  FAA
051BA:  MOVLW  05
051BC:  MOVWF  FA9
051BE:  BCF    FA6.6
051C0:  BCF    FA6.7
051C2:  BSF    FA6.0
051C4:  MOVF   FA8,W
051C6:  MOVLB  7
051C8:  BTFSC  x85.7
051CA:  BSF    FF2.7
051CC:  MOVLB  5
051CE:  MOVWF  xEA
....................    delay_ms(50);    
051D0:  MOVLW  32
051D2:  MOVLB  7
051D4:  MOVWF  x8B
051D6:  MOVLB  0
051D8:  CALL   1166
....................    Password[2]=read_eeprom(262); 
051DC:  MOVFF  FF2,785
051E0:  BCF    FF2.7
051E2:  MOVLW  01
051E4:  MOVWF  FAA
051E6:  MOVLW  06
051E8:  MOVWF  FA9
051EA:  BCF    FA6.6
051EC:  BCF    FA6.7
051EE:  BSF    FA6.0
051F0:  MOVF   FA8,W
051F2:  MOVLB  7
051F4:  BTFSC  x85.7
051F6:  BSF    FF2.7
051F8:  MOVLB  5
051FA:  MOVWF  xEB
....................    delay_ms(50);    
051FC:  MOVLW  32
051FE:  MOVLB  7
05200:  MOVWF  x8B
05202:  MOVLB  0
05204:  CALL   1166
....................    Password[3]=read_eeprom(263); 
05208:  MOVFF  FF2,785
0520C:  BCF    FF2.7
0520E:  MOVLW  01
05210:  MOVWF  FAA
05212:  MOVLW  07
05214:  MOVWF  FA9
05216:  BCF    FA6.6
05218:  BCF    FA6.7
0521A:  BSF    FA6.0
0521C:  MOVF   FA8,W
0521E:  MOVLB  7
05220:  BTFSC  x85.7
05222:  BSF    FF2.7
05224:  MOVLB  5
05226:  MOVWF  xEC
....................    delay_ms(50);    
05228:  MOVLW  32
0522A:  MOVLB  7
0522C:  MOVWF  x8B
0522E:  MOVLB  0
05230:  CALL   1166
....................     
....................    Integral=read_eeprom(270); 
05234:  MOVFF  FF2,785
05238:  BCF    FF2.7
0523A:  MOVLW  01
0523C:  MOVWF  FAA
0523E:  MOVLW  0E
05240:  MOVWF  FA9
05242:  BCF    FA6.6
05244:  BCF    FA6.7
05246:  BSF    FA6.0
05248:  MOVF   FA8,W
0524A:  MOVLB  7
0524C:  BTFSC  x85.7
0524E:  BSF    FF2.7
05250:  CLRF   x8C
05252:  MOVWF  x8B
05254:  MOVLB  0
05256:  CALL   1B2A
0525A:  MOVFF  03,630
0525E:  MOVFF  02,62F
05262:  MOVFF  01,62E
05266:  MOVFF  00,62D
....................    delay_ms(50);    
0526A:  MOVLW  32
0526C:  MOVLB  7
0526E:  MOVWF  x8B
05270:  MOVLB  0
05272:  CALL   1166
....................    Derivativo=read_eeprom(271); 
05276:  MOVFF  FF2,785
0527A:  BCF    FF2.7
0527C:  MOVLW  01
0527E:  MOVWF  FAA
05280:  MOVLW  0F
05282:  MOVWF  FA9
05284:  BCF    FA6.6
05286:  BCF    FA6.7
05288:  BSF    FA6.0
0528A:  MOVF   FA8,W
0528C:  MOVLB  7
0528E:  BTFSC  x85.7
05290:  BSF    FF2.7
05292:  CLRF   x8C
05294:  MOVWF  x8B
05296:  MOVLB  0
05298:  CALL   1B2A
0529C:  MOVFF  03,634
052A0:  MOVFF  02,633
052A4:  MOVFF  01,632
052A8:  MOVFF  00,631
....................    delay_ms(50);  
052AC:  MOVLW  32
052AE:  MOVLB  7
052B0:  MOVWF  x8B
052B2:  MOVLB  0
052B4:  CALL   1166
....................    Modo=read_eeprom(280); 
052B8:  MOVFF  FF2,785
052BC:  BCF    FF2.7
052BE:  MOVLW  01
052C0:  MOVWF  FAA
052C2:  MOVLW  18
052C4:  MOVWF  FA9
052C6:  BCF    FA6.6
052C8:  BCF    FA6.7
052CA:  BSF    FA6.0
052CC:  MOVF   FA8,W
052CE:  MOVLB  7
052D0:  BTFSC  x85.7
052D2:  BSF    FF2.7
052D4:  MOVLB  5
052D6:  MOVWF  x98
....................    delay_ms(50);  
052D8:  MOVLW  32
052DA:  MOVLB  7
052DC:  MOVWF  x8B
052DE:  MOVLB  0
052E0:  CALL   1166
....................     
....................    Menu=0; 
052E4:  MOVLB  5
052E6:  CLRF   x9E
....................     
....................    glcd_fillScreen(OFF);      //Limpia la pantalla 
052E8:  MOVLB  7
052EA:  CLRF   x86
052EC:  MOVLB  0
052EE:  CALL   123E
....................    displayContrasena(Contrasena[0],20,30,1); 
052F2:  MOVFF  5E5,787
052F6:  MOVLW  14
052F8:  MOVLB  7
052FA:  MOVWF  x88
052FC:  MOVLW  1E
052FE:  MOVWF  x89
05300:  MOVLW  01
05302:  MOVWF  x8A
05304:  MOVLB  0
05306:  CALL   1A74
....................    displayContrasena(Contrasena[1],40,30,0); 
0530A:  MOVFF  5E6,787
0530E:  MOVLW  28
05310:  MOVLB  7
05312:  MOVWF  x88
05314:  MOVLW  1E
05316:  MOVWF  x89
05318:  CLRF   x8A
0531A:  MOVLB  0
0531C:  CALL   1A74
....................    displayContrasena(Contrasena[2],60,30,0); 
05320:  MOVFF  5E7,787
05324:  MOVLW  3C
05326:  MOVLB  7
05328:  MOVWF  x88
0532A:  MOVLW  1E
0532C:  MOVWF  x89
0532E:  CLRF   x8A
05330:  MOVLB  0
05332:  CALL   1A74
....................    displayContrasena(Contrasena[3],80,30,0); 
05336:  MOVFF  5E8,787
0533A:  MOVLW  50
0533C:  MOVLB  7
0533E:  MOVWF  x88
05340:  MOVLW  1E
05342:  MOVWF  x89
05344:  CLRF   x8A
05346:  MOVLB  0
05348:  CALL   1A74
....................    for(i=0;i<80;i++) 
0534C:  MOVLB  5
0534E:  CLRF   xA0
05350:  MOVF   xA0,W
05352:  SUBLW  4F
05354:  BNC   5376
....................    { 
....................       Temperatura=Leer_Sensor(MediaMovil); 
05356:  MOVFF  590,785
0535A:  MOVLB  0
0535C:  CALL   20A6
05360:  MOVFF  03,620
05364:  MOVFF  02,61F
05368:  MOVFF  01,61E
0536C:  MOVFF  00,61D
05370:  MOVLB  5
05372:  INCF   xA0,F
05374:  BRA    5350
....................    } 
....................  
....................    while(TRUE)  
....................    {  
.................... //*****************Lectura con MAX31855********************************************************************************************************//    
....................       /*//do{  
....................       readMAX();  
....................       //}while(tempFault()!=0);  
....................       if(tempFault()==0) 
....................       { 
....................          lcd_gotoxy(1,1); 
....................          printf(lcd_putc,"Tem:%4.2f ",readExtTemp()); 
....................           
....................          lcd_gotoxy(1,2); 
....................          printf(lcd_putc,"0:%03u 1:%03u ",spival[0],spival[1]); 
....................          lcd_gotoxy(1,3); 
....................          printf(lcd_putc,"2:%03u 3:%03u ",spival[2],spival[3]); 
....................       //printf("\n\n Thermocouple: %2.2f, Ambient: %Ld\n\r,%u %u %u %u",readExtTemp(),readIntTemp(),spival[0],spival[1],spival[2],spival[3]);  
....................       } 
....................       else 
....................       { 
....................          lcd_gotoxy(1,1); 
....................          printf(lcd_putc," ERROR "); 
....................        
....................       } 
....................      delay_ms(500); */ 
.................... //*****************Fin de Lectura con MAX31855********************************************************************************************************//     
....................       glcd_update();             
05376:  MOVLB  0
05378:  CALL   1298
....................        
.................... //_-------------------------------------------------------------------------------------------------------------------------------------------------------- 
....................       if(Menu==0){ //Menu de Contrasea. 
0537C:  MOVLB  5
0537E:  MOVF   x9E,F
05380:  BTFSS  FD8.2
05382:  BRA    58EA
....................        
....................       strcpy(Menus.Letra,"Clave"); 
05384:  MOVLW  07
05386:  MOVWF  FEA
05388:  MOVLW  61
0538A:  MOVWF  FE9
0538C:  MOVLW  00
0538E:  MOVLB  0
05390:  CALL   0814
05394:  TBLRD*-
05396:  TBLRD*+
05398:  MOVF   FF5,W
0539A:  MOVWF  FEE
0539C:  IORLW  00
0539E:  BNZ   5396
....................       displayMenu(Menus.Letra,30,0,1,2);      
053A0:  MOVLW  07
053A2:  MOVLB  7
053A4:  MOVWF  x89
053A6:  MOVLW  61
053A8:  MOVWF  x88
053AA:  MOVLW  1E
053AC:  MOVWF  x8A
053AE:  CLRF   x8B
053B0:  MOVLW  01
053B2:  MOVWF  x8C
053B4:  MOVLW  02
053B6:  MOVWF  x8D
053B8:  MOVLB  0
053BA:  CALL   1842
....................        
....................       if(UP)//Si oprime hacia arriba 
053BE:  BSF    F92.5
053C0:  BTFSS  F80.5
053C2:  BRA    5496
....................       { 
....................          Buzz_on;delay_ms(10);Buzz_off; 
053C4:  BSF    F8B.7
053C6:  BCF    F94.7
053C8:  MOVLW  0A
053CA:  MOVLB  7
053CC:  MOVWF  x8B
053CE:  MOVLB  0
053D0:  CALL   1166
053D4:  BCF    F8B.7
053D6:  BCF    F94.7
....................          delay_ms(200); 
053D8:  MOVLW  C8
053DA:  MOVLB  7
053DC:  MOVWF  x8B
053DE:  MOVLB  0
053E0:  CALL   1166
....................          for(i=1;i<=4;i++) 
053E4:  MOVLW  01
053E6:  MOVLB  5
053E8:  MOVWF  xA0
053EA:  MOVF   xA0,W
053EC:  SUBLW  04
053EE:  BNC   5494
....................          { 
....................             if(unidad==i) 
053F0:  MOVF   xA0,W
053F2:  SUBWF  x9F,W
053F4:  BNZ   5464
....................             { 
....................                Contrasena[i-1]++; 
053F6:  MOVLW  01
053F8:  SUBWF  xA0,W
053FA:  CLRF   03
053FC:  ADDLW  E5
053FE:  MOVWF  FE9
05400:  MOVLW  05
05402:  ADDWFC 03,W
05404:  MOVWF  FEA
05406:  INCF   FEF,F
....................                if(Contrasena[i-1]>9)    
05408:  MOVLW  01
0540A:  SUBWF  xA0,W
0540C:  CLRF   03
0540E:  ADDLW  E5
05410:  MOVWF  FE9
05412:  MOVLW  05
05414:  ADDWFC 03,W
05416:  MOVWF  FEA
05418:  BTFSC  FEF.7
0541A:  BRA    5434
0541C:  MOVF   FEF,W
0541E:  SUBLW  09
05420:  BC    5434
....................                { 
....................                   Contrasena[i-1]=0; 
05422:  MOVLW  01
05424:  SUBWF  xA0,W
05426:  CLRF   03
05428:  ADDLW  E5
0542A:  MOVWF  FE9
0542C:  MOVLW  05
0542E:  ADDWFC 03,W
05430:  MOVWF  FEA
05432:  CLRF   FEF
....................                } 
....................                displayContrasena(Contrasena[i-1],i*20,30,1); 
05434:  MOVLW  01
05436:  SUBWF  xA0,W
05438:  CLRF   03
0543A:  ADDLW  E5
0543C:  MOVWF  FE9
0543E:  MOVLW  05
05440:  ADDWFC 03,W
05442:  MOVWF  FEA
05444:  MOVFF  FEF,787
05448:  MOVF   xA0,W
0544A:  MULLW  14
0544C:  MOVFF  FF3,788
05450:  MOVLB  7
05452:  MOVLW  1E
05454:  MOVWF  x89
05456:  MOVLW  01
05458:  MOVWF  x8A
0545A:  MOVLB  0
0545C:  CALL   1A74
....................             } 
05460:  BRA    548E
05462:  MOVLB  5
....................             else 
....................             { 
....................                displayContrasena(Contrasena[i-1],i*20,30,0); 
05464:  MOVLW  01
05466:  SUBWF  xA0,W
05468:  CLRF   03
0546A:  ADDLW  E5
0546C:  MOVWF  FE9
0546E:  MOVLW  05
05470:  ADDWFC 03,W
05472:  MOVWF  FEA
05474:  MOVFF  FEF,787
05478:  MOVF   xA0,W
0547A:  MULLW  14
0547C:  MOVFF  FF3,788
05480:  MOVLB  7
05482:  MOVLW  1E
05484:  MOVWF  x89
05486:  CLRF   x8A
05488:  MOVLB  0
0548A:  CALL   1A74
....................             } 
0548E:  MOVLB  5
05490:  INCF   xA0,F
05492:  BRA    53EA
05494:  MOVLB  0
....................          } 
....................       } 
....................              
....................       if(DOWN)//Si oprime hacia abajo 
05496:  BSF    F96.0
05498:  BTFSS  F84.0
0549A:  BRA    556A
....................       { 
....................          Buzz_on;delay_ms(10);Buzz_off; 
0549C:  BSF    F8B.7
0549E:  BCF    F94.7
054A0:  MOVLW  0A
054A2:  MOVLB  7
054A4:  MOVWF  x8B
054A6:  MOVLB  0
054A8:  CALL   1166
054AC:  BCF    F8B.7
054AE:  BCF    F94.7
....................          delay_ms(200); 
054B0:  MOVLW  C8
054B2:  MOVLB  7
054B4:  MOVWF  x8B
054B6:  MOVLB  0
054B8:  CALL   1166
....................          for(i=1;i<=4;i++) 
054BC:  MOVLW  01
054BE:  MOVLB  5
054C0:  MOVWF  xA0
054C2:  MOVF   xA0,W
054C4:  SUBLW  04
054C6:  BNC   5568
....................          { 
....................             if(unidad==i) 
054C8:  MOVF   xA0,W
054CA:  SUBWF  x9F,W
054CC:  BNZ   5538
....................             { 
....................                Contrasena[i-1]--; 
054CE:  MOVLW  01
054D0:  SUBWF  xA0,W
054D2:  CLRF   03
054D4:  ADDLW  E5
054D6:  MOVWF  FE9
054D8:  MOVLW  05
054DA:  ADDWFC 03,W
054DC:  MOVWF  FEA
054DE:  DECF   FEF,F
....................                if(Contrasena[i-1]<0) 
054E0:  MOVLW  01
054E2:  SUBWF  xA0,W
054E4:  CLRF   03
054E6:  ADDLW  E5
054E8:  MOVWF  FE9
054EA:  MOVLW  05
054EC:  ADDWFC 03,W
054EE:  MOVWF  FEA
054F0:  BTFSS  FEF.7
054F2:  BRA    5508
....................                   {Contrasena[i-1]=9;} 
054F4:  MOVLW  01
054F6:  SUBWF  xA0,W
054F8:  CLRF   03
054FA:  ADDLW  E5
054FC:  MOVWF  FE9
054FE:  MOVLW  05
05500:  ADDWFC 03,W
05502:  MOVWF  FEA
05504:  MOVLW  09
05506:  MOVWF  FEF
....................                displayContrasena(Contrasena[i-1],i*20,30,1);} 
05508:  MOVLW  01
0550A:  SUBWF  xA0,W
0550C:  CLRF   03
0550E:  ADDLW  E5
05510:  MOVWF  FE9
05512:  MOVLW  05
05514:  ADDWFC 03,W
05516:  MOVWF  FEA
05518:  MOVFF  FEF,787
0551C:  MOVF   xA0,W
0551E:  MULLW  14
05520:  MOVFF  FF3,788
05524:  MOVLB  7
05526:  MOVLW  1E
05528:  MOVWF  x89
0552A:  MOVLW  01
0552C:  MOVWF  x8A
0552E:  MOVLB  0
05530:  CALL   1A74
05534:  BRA    5562
05536:  MOVLB  5
....................             else 
....................             {displayContrasena(Contrasena[i-1],i*20,30,0);} 
05538:  MOVLW  01
0553A:  SUBWF  xA0,W
0553C:  CLRF   03
0553E:  ADDLW  E5
05540:  MOVWF  FE9
05542:  MOVLW  05
05544:  ADDWFC 03,W
05546:  MOVWF  FEA
05548:  MOVFF  FEF,787
0554C:  MOVF   xA0,W
0554E:  MULLW  14
05550:  MOVFF  FF3,788
05554:  MOVLB  7
05556:  MOVLW  1E
05558:  MOVWF  x89
0555A:  CLRF   x8A
0555C:  MOVLB  0
0555E:  CALL   1A74
05562:  MOVLB  5
05564:  INCF   xA0,F
05566:  BRA    54C2
05568:  MOVLB  0
....................          }         
....................       } 
....................              
....................       if(RIGHT)//Si oprime RIGHT 
0556A:  BSF    F96.1
0556C:  BTFSS  F84.1
0556E:  BRA    5606
....................       { 
....................          Buzz_on;delay_ms(10);Buzz_off; 
05570:  BSF    F8B.7
05572:  BCF    F94.7
05574:  MOVLW  0A
05576:  MOVLB  7
05578:  MOVWF  x8B
0557A:  MOVLB  0
0557C:  CALL   1166
05580:  BCF    F8B.7
05582:  BCF    F94.7
....................          delay_ms(200);unidad++; 
05584:  MOVLW  C8
05586:  MOVLB  7
05588:  MOVWF  x8B
0558A:  MOVLB  0
0558C:  CALL   1166
05590:  MOVLB  5
05592:  INCF   x9F,F
....................          for(i=1;i<=4;i++) 
05594:  MOVLW  01
05596:  MOVWF  xA0
05598:  MOVF   xA0,W
0559A:  SUBLW  04
0559C:  BNC   5604
....................          { 
....................             if(unidad==i) 
0559E:  MOVF   xA0,W
055A0:  SUBWF  x9F,W
055A2:  BNZ   55D4
....................             {displayContrasena(Contrasena[i-1],i*20,30,1);} 
055A4:  MOVLW  01
055A6:  SUBWF  xA0,W
055A8:  CLRF   03
055AA:  ADDLW  E5
055AC:  MOVWF  FE9
055AE:  MOVLW  05
055B0:  ADDWFC 03,W
055B2:  MOVWF  FEA
055B4:  MOVFF  FEF,787
055B8:  MOVF   xA0,W
055BA:  MULLW  14
055BC:  MOVFF  FF3,788
055C0:  MOVLB  7
055C2:  MOVLW  1E
055C4:  MOVWF  x89
055C6:  MOVLW  01
055C8:  MOVWF  x8A
055CA:  MOVLB  0
055CC:  CALL   1A74
055D0:  BRA    55FE
055D2:  MOVLB  5
....................             else 
....................             {displayContrasena(Contrasena[i-1],i*20,30,0);} 
055D4:  MOVLW  01
055D6:  SUBWF  xA0,W
055D8:  CLRF   03
055DA:  ADDLW  E5
055DC:  MOVWF  FE9
055DE:  MOVLW  05
055E0:  ADDWFC 03,W
055E2:  MOVWF  FEA
055E4:  MOVFF  FEF,787
055E8:  MOVF   xA0,W
055EA:  MULLW  14
055EC:  MOVFF  FF3,788
055F0:  MOVLB  7
055F2:  MOVLW  1E
055F4:  MOVWF  x89
055F6:  CLRF   x8A
055F8:  MOVLB  0
055FA:  CALL   1A74
055FE:  MOVLB  5
05600:  INCF   xA0,F
05602:  BRA    5598
05604:  MOVLB  0
....................          } 
....................       } 
....................      
....................       if(unidad>4) 
05606:  MOVLB  5
05608:  MOVF   x9F,W
0560A:  SUBLW  04
0560C:  BTFSC  FD8.0
0560E:  BRA    58EA
....................       {glcd_fillScreen(OFF);unidad=4; 
05610:  MOVLB  7
05612:  CLRF   x86
05614:  MOVLB  0
05616:  CALL   123E
0561A:  MOVLW  04
0561C:  MOVLB  5
0561E:  MOVWF  x9F
....................          if(Contrasena[0]==3&&Contrasena[1]==8&&Contrasena[2]==9&&Contrasena[3]==2) // Si Ingresa clave para reset general del sistema. 
05620:  MOVF   xE5,W
05622:  SUBLW  03
05624:  BTFSS  FD8.2
05626:  BRA    5720
05628:  MOVF   xE6,W
0562A:  SUBLW  08
0562C:  BTFSS  FD8.2
0562E:  BRA    5720
05630:  MOVF   xE7,W
05632:  SUBLW  09
05634:  BNZ   5720
05636:  MOVF   xE8,W
05638:  SUBLW  02
0563A:  BNZ   5720
....................             {write_eeprom(260,0);delay_ms(20);write_eeprom(261,0);delay_ms(20);// Reestablece a contrasea de Fabrica y reinicia Programa. 
0563C:  MOVF   FF2,W
0563E:  MOVWF  00
05640:  BCF    FF2.7
05642:  MOVLW  01
05644:  MOVWF  FAA
05646:  MOVLW  04
05648:  MOVWF  FA9
0564A:  CLRF   FA8
0564C:  BCF    FA6.6
0564E:  BCF    FA6.7
05650:  BSF    FA6.2
05652:  MOVLB  F
05654:  MOVLW  55
05656:  MOVWF  FA7
05658:  MOVLW  AA
0565A:  MOVWF  FA7
0565C:  BSF    FA6.1
0565E:  BTFSC  FA6.1
05660:  BRA    565E
05662:  BCF    FA6.2
05664:  MOVF   00,W
05666:  IORWF  FF2,F
05668:  MOVLW  14
0566A:  MOVLB  7
0566C:  MOVWF  x8B
0566E:  MOVLB  0
05670:  CALL   1166
05674:  MOVF   FF2,W
05676:  MOVWF  00
05678:  BCF    FF2.7
0567A:  MOVLW  01
0567C:  MOVWF  FAA
0567E:  MOVLW  05
05680:  MOVWF  FA9
05682:  CLRF   FA8
05684:  BCF    FA6.6
05686:  BCF    FA6.7
05688:  BSF    FA6.2
0568A:  MOVLB  F
0568C:  MOVLW  55
0568E:  MOVWF  FA7
05690:  MOVLW  AA
05692:  MOVWF  FA7
05694:  BSF    FA6.1
05696:  BTFSC  FA6.1
05698:  BRA    5696
0569A:  BCF    FA6.2
0569C:  MOVF   00,W
0569E:  IORWF  FF2,F
056A0:  MOVLW  14
056A2:  MOVLB  7
056A4:  MOVWF  x8B
056A6:  MOVLB  0
056A8:  CALL   1166
....................              write_eeprom(262,0);delay_ms(20);write_eeprom(263,0);delay_ms(20); 
056AC:  MOVF   FF2,W
056AE:  MOVWF  00
056B0:  BCF    FF2.7
056B2:  MOVLW  01
056B4:  MOVWF  FAA
056B6:  MOVLW  06
056B8:  MOVWF  FA9
056BA:  CLRF   FA8
056BC:  BCF    FA6.6
056BE:  BCF    FA6.7
056C0:  BSF    FA6.2
056C2:  MOVLB  F
056C4:  MOVLW  55
056C6:  MOVWF  FA7
056C8:  MOVLW  AA
056CA:  MOVWF  FA7
056CC:  BSF    FA6.1
056CE:  BTFSC  FA6.1
056D0:  BRA    56CE
056D2:  BCF    FA6.2
056D4:  MOVF   00,W
056D6:  IORWF  FF2,F
056D8:  MOVLW  14
056DA:  MOVLB  7
056DC:  MOVWF  x8B
056DE:  MOVLB  0
056E0:  CALL   1166
056E4:  MOVF   FF2,W
056E6:  MOVWF  00
056E8:  BCF    FF2.7
056EA:  MOVLW  01
056EC:  MOVWF  FAA
056EE:  MOVLW  07
056F0:  MOVWF  FA9
056F2:  CLRF   FA8
056F4:  BCF    FA6.6
056F6:  BCF    FA6.7
056F8:  BSF    FA6.2
056FA:  MOVLB  F
056FC:  MOVLW  55
056FE:  MOVWF  FA7
05700:  MOVLW  AA
05702:  MOVWF  FA7
05704:  BSF    FA6.1
05706:  BTFSC  FA6.1
05708:  BRA    5706
0570A:  BCF    FA6.2
0570C:  MOVF   00,W
0570E:  IORWF  FF2,F
05710:  MOVLW  14
05712:  MOVLB  7
05714:  MOVWF  x8B
05716:  MOVLB  0
05718:  CALL   1166
....................              reset_cpu();}         
0571C:  RESET
0571E:  MOVLB  5
....................           
....................          if((Contrasena[0]==Password[0])&&(Contrasena[1]==Password[1])&&(Contrasena[2]==Password[2])&&(Contrasena[3]==Password[3])) 
05720:  MOVF   xE9,W
05722:  SUBWF  xE5,W
05724:  BNZ   57E2
05726:  MOVF   xEA,W
05728:  SUBWF  xE6,W
0572A:  BNZ   57E2
0572C:  MOVF   xEB,W
0572E:  SUBWF  xE7,W
05730:  BNZ   57E2
05732:  MOVF   xEC,W
05734:  SUBWF  xE8,W
05736:  BNZ   57E2
....................          { 
....................             glcd_fillScreen(OFF); 
05738:  MOVLB  7
0573A:  CLRF   x86
0573C:  MOVLB  0
0573E:  CALL   123E
....................             strcpy(Menus.Letra,"Clave"); 
05742:  MOVLW  07
05744:  MOVWF  FEA
05746:  MOVLW  61
05748:  MOVWF  FE9
0574A:  MOVLW  00
0574C:  CALL   0814
05750:  TBLRD*-
05752:  TBLRD*+
05754:  MOVF   FF5,W
05756:  MOVWF  FEE
05758:  IORLW  00
0575A:  BNZ   5752
....................             displayMenu(Menus.Letra,30,0,0,2); 
0575C:  MOVLW  07
0575E:  MOVLB  7
05760:  MOVWF  x89
05762:  MOVLW  61
05764:  MOVWF  x88
05766:  MOVLW  1E
05768:  MOVWF  x8A
0576A:  CLRF   x8B
0576C:  CLRF   x8C
0576E:  MOVLW  02
05770:  MOVWF  x8D
05772:  MOVLB  0
05774:  CALL   1842
....................             strcpy(Menus.Letra,"Correcta"); 
05778:  MOVLW  07
0577A:  MOVWF  FEA
0577C:  MOVLW  61
0577E:  MOVWF  FE9
05780:  MOVLW  00
05782:  CALL   082E
05786:  TBLRD*-
05788:  TBLRD*+
0578A:  MOVF   FF5,W
0578C:  MOVWF  FEE
0578E:  IORLW  00
05790:  BNZ   5788
....................             displayMenu(Menus.Letra,15,30,0,2); 
05792:  MOVLW  07
05794:  MOVLB  7
05796:  MOVWF  x89
05798:  MOVLW  61
0579A:  MOVWF  x88
0579C:  MOVLW  0F
0579E:  MOVWF  x8A
057A0:  MOVLW  1E
057A2:  MOVWF  x8B
057A4:  CLRF   x8C
057A6:  MOVLW  02
057A8:  MOVWF  x8D
057AA:  MOVLB  0
057AC:  CALL   1842
....................             Menu=1;glcd_update();delay_ms(1000); 
057B0:  MOVLW  01
057B2:  MOVLB  5
057B4:  MOVWF  x9E
057B6:  MOVLB  0
057B8:  CALL   1298
057BC:  MOVLW  04
057BE:  MOVLB  7
057C0:  MOVWF  x85
057C2:  MOVLW  FA
057C4:  MOVWF  x8B
057C6:  MOVLB  0
057C8:  CALL   1166
057CC:  MOVLB  7
057CE:  DECFSZ x85,F
057D0:  BRA    57C2
....................             glcd_fillScreen(OFF);unidad=1; 
057D2:  CLRF   x86
057D4:  MOVLB  0
057D6:  CALL   123E
057DA:  MOVLW  01
057DC:  MOVLB  5
057DE:  MOVWF  x9F
....................          }// Esta parte se puede agregar en el Menu 1 dependiendo de la ubicacin del vidrio. 
057E0:  BRA    58EA
....................          else 
....................          { 
....................             glcd_fillScreen(OFF); 
057E2:  MOVLB  7
057E4:  CLRF   x86
057E6:  MOVLB  0
057E8:  CALL   123E
....................             strcpy(Menus.Letra,"Clave"); 
057EC:  MOVLW  07
057EE:  MOVWF  FEA
057F0:  MOVLW  61
057F2:  MOVWF  FE9
057F4:  MOVLW  00
057F6:  CALL   0814
057FA:  TBLRD*-
057FC:  TBLRD*+
057FE:  MOVF   FF5,W
05800:  MOVWF  FEE
05802:  IORLW  00
05804:  BNZ   57FC
....................             displayMenu(Menus.Letra,30,0,0,2); 
05806:  MOVLW  07
05808:  MOVLB  7
0580A:  MOVWF  x89
0580C:  MOVLW  61
0580E:  MOVWF  x88
05810:  MOVLW  1E
05812:  MOVWF  x8A
05814:  CLRF   x8B
05816:  CLRF   x8C
05818:  MOVLW  02
0581A:  MOVWF  x8D
0581C:  MOVLB  0
0581E:  CALL   1842
....................             strcpy(Menus.Letra,"Incorrecta"); 
05822:  MOVLW  07
05824:  MOVWF  FEA
05826:  MOVLW  61
05828:  MOVWF  FE9
0582A:  MOVLW  00
0582C:  CALL   084C
05830:  TBLRD*-
05832:  TBLRD*+
05834:  MOVF   FF5,W
05836:  MOVWF  FEE
05838:  IORLW  00
0583A:  BNZ   5832
....................             displayMenu(Menus.Letra,0,30,0,2); 
0583C:  MOVLW  07
0583E:  MOVLB  7
05840:  MOVWF  x89
05842:  MOVLW  61
05844:  MOVWF  x88
05846:  CLRF   x8A
05848:  MOVLW  1E
0584A:  MOVWF  x8B
0584C:  CLRF   x8C
0584E:  MOVLW  02
05850:  MOVWF  x8D
05852:  MOVLB  0
05854:  CALL   1842
....................             Menu=0;glcd_update();delay_ms(1000); 
05858:  MOVLB  5
0585A:  CLRF   x9E
0585C:  MOVLB  0
0585E:  CALL   1298
05862:  MOVLW  04
05864:  MOVLB  7
05866:  MOVWF  x85
05868:  MOVLW  FA
0586A:  MOVWF  x8B
0586C:  MOVLB  0
0586E:  CALL   1166
05872:  MOVLB  7
05874:  DECFSZ x85,F
05876:  BRA    5868
....................             glcd_fillScreen(OFF);unidad=1; 
05878:  CLRF   x86
0587A:  MOVLB  0
0587C:  CALL   123E
05880:  MOVLW  01
05882:  MOVLB  5
05884:  MOVWF  x9F
....................             Contrasena[0]=0;Contrasena[1]=0;Contrasena[2]=0;Contrasena[3]=0; 
05886:  CLRF   xE5
05888:  CLRF   xE6
0588A:  CLRF   xE7
0588C:  CLRF   xE8
....................             displayContrasena(Contrasena[0],20,30,1); 
0588E:  MOVFF  5E5,787
05892:  MOVLW  14
05894:  MOVLB  7
05896:  MOVWF  x88
05898:  MOVLW  1E
0589A:  MOVWF  x89
0589C:  MOVLW  01
0589E:  MOVWF  x8A
058A0:  MOVLB  0
058A2:  CALL   1A74
....................             displayContrasena(Contrasena[1],40,30,0); 
058A6:  MOVFF  5E6,787
058AA:  MOVLW  28
058AC:  MOVLB  7
058AE:  MOVWF  x88
058B0:  MOVLW  1E
058B2:  MOVWF  x89
058B4:  CLRF   x8A
058B6:  MOVLB  0
058B8:  CALL   1A74
....................             displayContrasena(Contrasena[2],60,30,0); 
058BC:  MOVFF  5E7,787
058C0:  MOVLW  3C
058C2:  MOVLB  7
058C4:  MOVWF  x88
058C6:  MOVLW  1E
058C8:  MOVWF  x89
058CA:  CLRF   x8A
058CC:  MOVLB  0
058CE:  CALL   1A74
....................             displayContrasena(Contrasena[3],80,30,0); 
058D2:  MOVFF  5E8,787
058D6:  MOVLW  50
058D8:  MOVLB  7
058DA:  MOVWF  x88
058DC:  MOVLW  1E
058DE:  MOVWF  x89
058E0:  CLRF   x8A
058E2:  MOVLB  0
058E4:  CALL   1A74
058E8:  MOVLB  5
....................          } 
....................       } 
....................     } 
.................... //_--------------------------------------------------------------------------------------------------------------------------------------------------------        
....................  
....................  
.................... //_-------------------------------------------------------------------------------------------------------------------------------------------------------- 
....................       if(Menu==1){ //Menu Principal.       
058EA:  DECFSZ x9E,W
058EC:  BRA    5C20
....................        
....................          if(Opcion>5) 
058EE:  MOVF   xA5,W
058F0:  SUBLW  05
058F2:  BC    58F8
....................          {Opcion=1;} 
058F4:  MOVLW  01
058F6:  MOVWF  xA5
....................          if(Opcion<1) 
058F8:  MOVF   xA5,F
058FA:  BNZ   5900
....................          {Opcion=5;} 
058FC:  MOVLW  05
058FE:  MOVWF  xA5
....................           
....................          strcpy(Menus.Letra,"Menu"); 
05900:  MOVLW  07
05902:  MOVWF  FEA
05904:  MOVLW  61
05906:  MOVWF  FE9
05908:  MOVLW  00
0590A:  MOVLB  0
0590C:  CALL   086C
05910:  TBLRD*-
05912:  TBLRD*+
05914:  MOVF   FF5,W
05916:  MOVWF  FEE
05918:  IORLW  00
0591A:  BNZ   5912
....................          displayMenu(Menus.Letra,30,0,1,2); 
0591C:  MOVLW  07
0591E:  MOVLB  7
05920:  MOVWF  x89
05922:  MOVLW  61
05924:  MOVWF  x88
05926:  MOVLW  1E
05928:  MOVWF  x8A
0592A:  CLRF   x8B
0592C:  MOVLW  01
0592E:  MOVWF  x8C
05930:  MOVLW  02
05932:  MOVWF  x8D
05934:  MOVLB  0
05936:  CALL   1842
....................        
....................          if(Opcion==1)    
0593A:  MOVLB  5
0593C:  DECFSZ xA5,W
0593E:  BRA    597C
....................             {strcpy(Menus.Letra,"Iniciar Programa"); 
05940:  MOVLW  07
05942:  MOVWF  FEA
05944:  MOVLW  61
05946:  MOVWF  FE9
05948:  MOVLW  00
0594A:  MOVLB  0
0594C:  CALL   0886
05950:  TBLRD*-
05952:  TBLRD*+
05954:  MOVF   FF5,W
05956:  MOVWF  FEE
05958:  IORLW  00
0595A:  BNZ   5952
....................             displayMenu(Menus.Letra,0,18,1,1);} 
0595C:  MOVLW  07
0595E:  MOVLB  7
05960:  MOVWF  x89
05962:  MOVLW  61
05964:  MOVWF  x88
05966:  CLRF   x8A
05968:  MOVLW  12
0596A:  MOVWF  x8B
0596C:  MOVLW  01
0596E:  MOVWF  x8C
05970:  MOVWF  x8D
05972:  MOVLB  0
05974:  CALL   1842
05978:  BRA    59B4
0597A:  MOVLB  5
....................          else 
....................             {strcpy(Menus.Letra,"Iniciar Programa"); 
0597C:  MOVLW  07
0597E:  MOVWF  FEA
05980:  MOVLW  61
05982:  MOVWF  FE9
05984:  MOVLW  00
05986:  MOVLB  0
05988:  CALL   0886
0598C:  TBLRD*-
0598E:  TBLRD*+
05990:  MOVF   FF5,W
05992:  MOVWF  FEE
05994:  IORLW  00
05996:  BNZ   598E
....................             displayMenu(Menus.Letra,0,18,0,1);} 
05998:  MOVLW  07
0599A:  MOVLB  7
0599C:  MOVWF  x89
0599E:  MOVLW  61
059A0:  MOVWF  x88
059A2:  CLRF   x8A
059A4:  MOVLW  12
059A6:  MOVWF  x8B
059A8:  CLRF   x8C
059AA:  MOVLW  01
059AC:  MOVWF  x8D
059AE:  MOVLB  0
059B0:  CALL   1842
....................           
....................          if(Opcion==2)    
059B4:  MOVLB  5
059B6:  MOVF   xA5,W
059B8:  SUBLW  02
059BA:  BNZ   59F8
....................             {strcpy(Menus.Letra,"Editar Programa"); 
059BC:  MOVLW  07
059BE:  MOVWF  FEA
059C0:  MOVLW  61
059C2:  MOVWF  FE9
059C4:  MOVLW  00
059C6:  MOVLB  0
059C8:  CALL   08AC
059CC:  TBLRD*-
059CE:  TBLRD*+
059D0:  MOVF   FF5,W
059D2:  MOVWF  FEE
059D4:  IORLW  00
059D6:  BNZ   59CE
....................             displayMenu(Menus.Letra,0,27,1,1);} 
059D8:  MOVLW  07
059DA:  MOVLB  7
059DC:  MOVWF  x89
059DE:  MOVLW  61
059E0:  MOVWF  x88
059E2:  CLRF   x8A
059E4:  MOVLW  1B
059E6:  MOVWF  x8B
059E8:  MOVLW  01
059EA:  MOVWF  x8C
059EC:  MOVWF  x8D
059EE:  MOVLB  0
059F0:  CALL   1842
059F4:  BRA    5A30
059F6:  MOVLB  5
....................          else 
....................             {strcpy(Menus.Letra,"Editar Programa"); 
059F8:  MOVLW  07
059FA:  MOVWF  FEA
059FC:  MOVLW  61
059FE:  MOVWF  FE9
05A00:  MOVLW  00
05A02:  MOVLB  0
05A04:  CALL   08AC
05A08:  TBLRD*-
05A0A:  TBLRD*+
05A0C:  MOVF   FF5,W
05A0E:  MOVWF  FEE
05A10:  IORLW  00
05A12:  BNZ   5A0A
....................             displayMenu(Menus.Letra,0,27,0,1);} 
05A14:  MOVLW  07
05A16:  MOVLB  7
05A18:  MOVWF  x89
05A1A:  MOVLW  61
05A1C:  MOVWF  x88
05A1E:  CLRF   x8A
05A20:  MOVLW  1B
05A22:  MOVWF  x8B
05A24:  CLRF   x8C
05A26:  MOVLW  01
05A28:  MOVWF  x8D
05A2A:  MOVLB  0
05A2C:  CALL   1842
....................              
....................          if(Opcion==3)    
05A30:  MOVLB  5
05A32:  MOVF   xA5,W
05A34:  SUBLW  03
05A36:  BNZ   5A74
....................             {strcpy(Menus.Letra,"Borrar Programa"); 
05A38:  MOVLW  07
05A3A:  MOVWF  FEA
05A3C:  MOVLW  61
05A3E:  MOVWF  FE9
05A40:  MOVLW  00
05A42:  MOVLB  0
05A44:  CALL   08D0
05A48:  TBLRD*-
05A4A:  TBLRD*+
05A4C:  MOVF   FF5,W
05A4E:  MOVWF  FEE
05A50:  IORLW  00
05A52:  BNZ   5A4A
....................             displayMenu(Menus.Letra,0,36,1,1);} 
05A54:  MOVLW  07
05A56:  MOVLB  7
05A58:  MOVWF  x89
05A5A:  MOVLW  61
05A5C:  MOVWF  x88
05A5E:  CLRF   x8A
05A60:  MOVLW  24
05A62:  MOVWF  x8B
05A64:  MOVLW  01
05A66:  MOVWF  x8C
05A68:  MOVWF  x8D
05A6A:  MOVLB  0
05A6C:  CALL   1842
05A70:  BRA    5AAC
05A72:  MOVLB  5
....................          else 
....................             {strcpy(Menus.Letra,"Borrar Programa"); 
05A74:  MOVLW  07
05A76:  MOVWF  FEA
05A78:  MOVLW  61
05A7A:  MOVWF  FE9
05A7C:  MOVLW  00
05A7E:  MOVLB  0
05A80:  CALL   08D0
05A84:  TBLRD*-
05A86:  TBLRD*+
05A88:  MOVF   FF5,W
05A8A:  MOVWF  FEE
05A8C:  IORLW  00
05A8E:  BNZ   5A86
....................             displayMenu(Menus.Letra,0,36,0,1);}    
05A90:  MOVLW  07
05A92:  MOVLB  7
05A94:  MOVWF  x89
05A96:  MOVLW  61
05A98:  MOVWF  x88
05A9A:  CLRF   x8A
05A9C:  MOVLW  24
05A9E:  MOVWF  x8B
05AA0:  CLRF   x8C
05AA2:  MOVLW  01
05AA4:  MOVWF  x8D
05AA6:  MOVLB  0
05AA8:  CALL   1842
....................                          
....................          if(Opcion==4)    
05AAC:  MOVLB  5
05AAE:  MOVF   xA5,W
05AB0:  SUBLW  04
05AB2:  BNZ   5AF0
....................             {strcpy(Menus.Letra,"Ajustes"); 
05AB4:  MOVLW  07
05AB6:  MOVWF  FEA
05AB8:  MOVLW  61
05ABA:  MOVWF  FE9
05ABC:  MOVLW  00
05ABE:  MOVLB  0
05AC0:  CALL   08F4
05AC4:  TBLRD*-
05AC6:  TBLRD*+
05AC8:  MOVF   FF5,W
05ACA:  MOVWF  FEE
05ACC:  IORLW  00
05ACE:  BNZ   5AC6
....................             displayMenu(Menus.Letra,0,45,1,1);} 
05AD0:  MOVLW  07
05AD2:  MOVLB  7
05AD4:  MOVWF  x89
05AD6:  MOVLW  61
05AD8:  MOVWF  x88
05ADA:  CLRF   x8A
05ADC:  MOVLW  2D
05ADE:  MOVWF  x8B
05AE0:  MOVLW  01
05AE2:  MOVWF  x8C
05AE4:  MOVWF  x8D
05AE6:  MOVLB  0
05AE8:  CALL   1842
05AEC:  BRA    5B28
05AEE:  MOVLB  5
....................          else 
....................             {strcpy(Menus.Letra,"Ajustes"); 
05AF0:  MOVLW  07
05AF2:  MOVWF  FEA
05AF4:  MOVLW  61
05AF6:  MOVWF  FE9
05AF8:  MOVLW  00
05AFA:  MOVLB  0
05AFC:  CALL   08F4
05B00:  TBLRD*-
05B02:  TBLRD*+
05B04:  MOVF   FF5,W
05B06:  MOVWF  FEE
05B08:  IORLW  00
05B0A:  BNZ   5B02
....................             displayMenu(Menus.Letra,0,45,0,1);}      
05B0C:  MOVLW  07
05B0E:  MOVLB  7
05B10:  MOVWF  x89
05B12:  MOVLW  61
05B14:  MOVWF  x88
05B16:  CLRF   x8A
05B18:  MOVLW  2D
05B1A:  MOVWF  x8B
05B1C:  CLRF   x8C
05B1E:  MOVLW  01
05B20:  MOVWF  x8D
05B22:  MOVLB  0
05B24:  CALL   1842
....................           
....................          if(Opcion==5)    
05B28:  MOVLB  5
05B2A:  MOVF   xA5,W
05B2C:  SUBLW  05
05B2E:  BNZ   5B6C
....................             {strcpy(Menus.Letra,"Cambio Clave"); 
05B30:  MOVLW  07
05B32:  MOVWF  FEA
05B34:  MOVLW  61
05B36:  MOVWF  FE9
05B38:  MOVLW  00
05B3A:  MOVLB  0
05B3C:  CALL   0910
05B40:  TBLRD*-
05B42:  TBLRD*+
05B44:  MOVF   FF5,W
05B46:  MOVWF  FEE
05B48:  IORLW  00
05B4A:  BNZ   5B42
....................             displayMenu(Menus.Letra,0,54,1,1);} 
05B4C:  MOVLW  07
05B4E:  MOVLB  7
05B50:  MOVWF  x89
05B52:  MOVLW  61
05B54:  MOVWF  x88
05B56:  CLRF   x8A
05B58:  MOVLW  36
05B5A:  MOVWF  x8B
05B5C:  MOVLW  01
05B5E:  MOVWF  x8C
05B60:  MOVWF  x8D
05B62:  MOVLB  0
05B64:  CALL   1842
05B68:  BRA    5BA4
05B6A:  MOVLB  5
....................          else 
....................             {strcpy(Menus.Letra,"Cambio Clave"); 
05B6C:  MOVLW  07
05B6E:  MOVWF  FEA
05B70:  MOVLW  61
05B72:  MOVWF  FE9
05B74:  MOVLW  00
05B76:  MOVLB  0
05B78:  CALL   0910
05B7C:  TBLRD*-
05B7E:  TBLRD*+
05B80:  MOVF   FF5,W
05B82:  MOVWF  FEE
05B84:  IORLW  00
05B86:  BNZ   5B7E
....................             displayMenu(Menus.Letra,0,54,0,1);}      
05B88:  MOVLW  07
05B8A:  MOVLB  7
05B8C:  MOVWF  x89
05B8E:  MOVLW  61
05B90:  MOVWF  x88
05B92:  CLRF   x8A
05B94:  MOVLW  36
05B96:  MOVWF  x8B
05B98:  CLRF   x8C
05B9A:  MOVLW  01
05B9C:  MOVWF  x8D
05B9E:  MOVLB  0
05BA0:  CALL   1842
....................           
....................          if(UP)//Si oprime hacia arriba 
05BA4:  BSF    F92.5
05BA6:  BTFSS  F80.5
05BA8:  BRA    5BC4
....................          { 
....................             Buzz_on;delay_ms(30);Opcion--;Buzz_off; 
05BAA:  BSF    F8B.7
05BAC:  BCF    F94.7
05BAE:  MOVLW  1E
05BB0:  MOVLB  7
05BB2:  MOVWF  x8B
05BB4:  MOVLB  0
05BB6:  CALL   1166
05BBA:  MOVLB  5
05BBC:  DECF   xA5,F
05BBE:  BCF    F8B.7
05BC0:  BCF    F94.7
05BC2:  MOVLB  0
....................          } 
....................                    
....................          if(DOWN)//Si oprime hacia abajo 
05BC4:  BSF    F96.0
05BC6:  BTFSS  F84.0
05BC8:  BRA    5BE4
....................          { 
....................             Buzz_on;delay_ms(30);Opcion++; Buzz_off; 
05BCA:  BSF    F8B.7
05BCC:  BCF    F94.7
05BCE:  MOVLW  1E
05BD0:  MOVLB  7
05BD2:  MOVWF  x8B
05BD4:  MOVLB  0
05BD6:  CALL   1166
05BDA:  MOVLB  5
05BDC:  INCF   xA5,F
05BDE:  BCF    F8B.7
05BE0:  BCF    F94.7
05BE2:  MOVLB  0
....................          } 
....................                 
....................          if(RIGHT)//Si oprime SET 
05BE4:  BSF    F96.1
05BE6:  BTFSS  F84.1
05BE8:  BRA    5C22
....................          {  
....................             Buzz_on;delay_ms(50);Menu=Opcion+3;Opcion=1;glcd_fillscreen(OFF);Buzz_off; 
05BEA:  BSF    F8B.7
05BEC:  BCF    F94.7
05BEE:  MOVLW  32
05BF0:  MOVLB  7
05BF2:  MOVWF  x8B
05BF4:  MOVLB  0
05BF6:  CALL   1166
05BFA:  MOVLW  03
05BFC:  MOVLB  5
05BFE:  ADDWF  xA5,W
05C00:  MOVWF  x9E
05C02:  MOVLW  01
05C04:  MOVWF  xA5
05C06:  MOVLB  7
05C08:  CLRF   x86
05C0A:  MOVLB  0
05C0C:  CALL   123E
05C10:  BCF    F8B.7
05C12:  BCF    F94.7
....................             if(Menu==7) 
05C14:  MOVLB  5
05C16:  MOVF   x9E,W
05C18:  SUBLW  07
05C1A:  BNZ   5C20
....................                Menu=100; 
05C1C:  MOVLW  64
05C1E:  MOVWF  x9E
05C20:  MOVLB  0
....................          } 
....................        
....................  
....................    } 
.................... //_--------------------------------------------------------------------------------------------------------------------------------------------------------        
....................  
.................... //_-------------------------------------------------------------------------------------------------------------------------------------------------------- 
....................       if(Menu==4){ //Menu de Continuar 
05C22:  MOVLB  5
05C24:  MOVF   x9E,W
05C26:  SUBLW  04
05C28:  BTFSS  FD8.2
05C2A:  BRA    6304
....................        
....................       if(Opcion>5) 
05C2C:  MOVF   xA5,W
05C2E:  SUBLW  05
05C30:  BC    5C36
....................          Opcion=1; 
05C32:  MOVLW  01
05C34:  MOVWF  xA5
....................           
....................       if(Opcion<1) 
05C36:  MOVF   xA5,F
05C38:  BNZ   5C3E
....................          Opcion=5; 
05C3A:  MOVLW  05
05C3C:  MOVWF  xA5
....................        
....................          strcpy(Menus.Letra,"Seleccione"); 
05C3E:  MOVLW  07
05C40:  MOVWF  FEA
05C42:  MOVLW  61
05C44:  MOVWF  FE9
05C46:  MOVLW  00
05C48:  MOVLB  0
05C4A:  CALL   0932
05C4E:  TBLRD*-
05C50:  TBLRD*+
05C52:  MOVF   FF5,W
05C54:  MOVWF  FEE
05C56:  IORLW  00
05C58:  BNZ   5C50
....................          displayMenu(Menus.Letra,0,0,1,2); 
05C5A:  MOVLW  07
05C5C:  MOVLB  7
05C5E:  MOVWF  x89
05C60:  MOVLW  61
05C62:  MOVWF  x88
05C64:  CLRF   x8A
05C66:  CLRF   x8B
05C68:  MOVLW  01
05C6A:  MOVWF  x8C
05C6C:  MOVLW  02
05C6E:  MOVWF  x8D
05C70:  MOVLB  0
05C72:  CALL   1842
....................           
....................          strcpy(Menus.Letra," Programa"); 
05C76:  MOVLW  07
05C78:  MOVWF  FEA
05C7A:  MOVLW  61
05C7C:  MOVWF  FE9
05C7E:  MOVLW  00
05C80:  CALL   0952
05C84:  TBLRD*-
05C86:  TBLRD*+
05C88:  MOVF   FF5,W
05C8A:  MOVWF  FEE
05C8C:  IORLW  00
05C8E:  BNZ   5C86
....................          displayMenu(Menus.Letra,0,16,1,2); 
05C90:  MOVLW  07
05C92:  MOVLB  7
05C94:  MOVWF  x89
05C96:  MOVLW  61
05C98:  MOVWF  x88
05C9A:  CLRF   x8A
05C9C:  MOVLW  10
05C9E:  MOVWF  x8B
05CA0:  MOVLW  01
05CA2:  MOVWF  x8C
05CA4:  MOVLW  02
05CA6:  MOVWF  x8D
05CA8:  MOVLB  0
05CAA:  CALL   1842
....................            
....................           
....................          if(Opcion==1) 
05CAE:  MOVLB  5
05CB0:  DECFSZ xA5,W
05CB2:  BRA    5CEE
....................          { 
....................             strcpy(Menus.Letra,"Programa 01"); 
05CB4:  MOVLW  07
05CB6:  MOVWF  FEA
05CB8:  MOVLW  61
05CBA:  MOVWF  FE9
05CBC:  MOVLW  00
05CBE:  MOVLB  0
05CC0:  CALL   0970
05CC4:  TBLRD*-
05CC6:  TBLRD*+
05CC8:  MOVF   FF5,W
05CCA:  MOVWF  FEE
05CCC:  IORLW  00
05CCE:  BNZ   5CC6
....................             displayMenu(Menus.Letra,0,38,0,2); 
05CD0:  MOVLW  07
05CD2:  MOVLB  7
05CD4:  MOVWF  x89
05CD6:  MOVLW  61
05CD8:  MOVWF  x88
05CDA:  CLRF   x8A
05CDC:  MOVLW  26
05CDE:  MOVWF  x8B
05CE0:  CLRF   x8C
05CE2:  MOVLW  02
05CE4:  MOVWF  x8D
05CE6:  MOVLB  0
05CE8:  CALL   1842
05CEC:  MOVLB  5
....................          } 
....................           
....................          if(Opcion==2) 
05CEE:  MOVF   xA5,W
05CF0:  SUBLW  02
05CF2:  BNZ   5D2E
....................          { 
....................             strcpy(Menus.Letra,"Programa 02"); 
05CF4:  MOVLW  07
05CF6:  MOVWF  FEA
05CF8:  MOVLW  61
05CFA:  MOVWF  FE9
05CFC:  MOVLW  00
05CFE:  MOVLB  0
05D00:  CALL   0990
05D04:  TBLRD*-
05D06:  TBLRD*+
05D08:  MOVF   FF5,W
05D0A:  MOVWF  FEE
05D0C:  IORLW  00
05D0E:  BNZ   5D06
....................             displayMenu(Menus.Letra,0,38,0,2); 
05D10:  MOVLW  07
05D12:  MOVLB  7
05D14:  MOVWF  x89
05D16:  MOVLW  61
05D18:  MOVWF  x88
05D1A:  CLRF   x8A
05D1C:  MOVLW  26
05D1E:  MOVWF  x8B
05D20:  CLRF   x8C
05D22:  MOVLW  02
05D24:  MOVWF  x8D
05D26:  MOVLB  0
05D28:  CALL   1842
05D2C:  MOVLB  5
....................          } 
....................           
....................          if(Opcion==3) 
05D2E:  MOVF   xA5,W
05D30:  SUBLW  03
05D32:  BNZ   5D6E
....................          { 
....................             strcpy(Menus.Letra,"Programa 03"); 
05D34:  MOVLW  07
05D36:  MOVWF  FEA
05D38:  MOVLW  61
05D3A:  MOVWF  FE9
05D3C:  MOVLW  00
05D3E:  MOVLB  0
05D40:  CALL   09B0
05D44:  TBLRD*-
05D46:  TBLRD*+
05D48:  MOVF   FF5,W
05D4A:  MOVWF  FEE
05D4C:  IORLW  00
05D4E:  BNZ   5D46
....................             displayMenu(Menus.Letra,0,38,0,2); 
05D50:  MOVLW  07
05D52:  MOVLB  7
05D54:  MOVWF  x89
05D56:  MOVLW  61
05D58:  MOVWF  x88
05D5A:  CLRF   x8A
05D5C:  MOVLW  26
05D5E:  MOVWF  x8B
05D60:  CLRF   x8C
05D62:  MOVLW  02
05D64:  MOVWF  x8D
05D66:  MOVLB  0
05D68:  CALL   1842
05D6C:  MOVLB  5
....................          } 
....................           
....................          if(Opcion==4) 
05D6E:  MOVF   xA5,W
05D70:  SUBLW  04
05D72:  BNZ   5DAE
....................          { 
....................             strcpy(Menus.Letra,"Programa 04"); 
05D74:  MOVLW  07
05D76:  MOVWF  FEA
05D78:  MOVLW  61
05D7A:  MOVWF  FE9
05D7C:  MOVLW  00
05D7E:  MOVLB  0
05D80:  CALL   09D0
05D84:  TBLRD*-
05D86:  TBLRD*+
05D88:  MOVF   FF5,W
05D8A:  MOVWF  FEE
05D8C:  IORLW  00
05D8E:  BNZ   5D86
....................             displayMenu(Menus.Letra,0,38,0,2); 
05D90:  MOVLW  07
05D92:  MOVLB  7
05D94:  MOVWF  x89
05D96:  MOVLW  61
05D98:  MOVWF  x88
05D9A:  CLRF   x8A
05D9C:  MOVLW  26
05D9E:  MOVWF  x8B
05DA0:  CLRF   x8C
05DA2:  MOVLW  02
05DA4:  MOVWF  x8D
05DA6:  MOVLB  0
05DA8:  CALL   1842
05DAC:  MOVLB  5
....................          } 
....................           
....................          if(Opcion==5) 
05DAE:  MOVF   xA5,W
05DB0:  SUBLW  05
05DB2:  BNZ   5DEE
....................          { 
....................             strcpy(Menus.Letra,"Programa 05"); 
05DB4:  MOVLW  07
05DB6:  MOVWF  FEA
05DB8:  MOVLW  61
05DBA:  MOVWF  FE9
05DBC:  MOVLW  00
05DBE:  MOVLB  0
05DC0:  CALL   09F0
05DC4:  TBLRD*-
05DC6:  TBLRD*+
05DC8:  MOVF   FF5,W
05DCA:  MOVWF  FEE
05DCC:  IORLW  00
05DCE:  BNZ   5DC6
....................             displayMenu(Menus.Letra,0,38,0,2); 
05DD0:  MOVLW  07
05DD2:  MOVLB  7
05DD4:  MOVWF  x89
05DD6:  MOVLW  61
05DD8:  MOVWF  x88
05DDA:  CLRF   x8A
05DDC:  MOVLW  26
05DDE:  MOVWF  x8B
05DE0:  CLRF   x8C
05DE2:  MOVLW  02
05DE4:  MOVWF  x8D
05DE6:  MOVLB  0
05DE8:  CALL   1842
05DEC:  MOVLB  5
....................          } 
....................           
....................          
....................       if(UP)//Si oprime hacia arriba 
05DEE:  BSF    F92.5
05DF0:  BTFSS  F80.5
05DF2:  BRA    5E2C
....................       { 
....................          Buzz_on;delay_ms(30);Opcion++;Buzz_off; 
05DF4:  BSF    F8B.7
05DF6:  BCF    F94.7
05DF8:  MOVLW  1E
05DFA:  MOVLB  7
05DFC:  MOVWF  x8B
05DFE:  MOVLB  0
05E00:  CALL   1166
05E04:  MOVLB  5
05E06:  INCF   xA5,F
05E08:  BCF    F8B.7
05E0A:  BCF    F94.7
....................          glcd_rect(40, 35, 85, 60, YES, OFF); 
05E0C:  MOVLW  28
05E0E:  MOVLB  7
05E10:  MOVWF  x9D
05E12:  MOVLW  23
05E14:  MOVWF  x9E
05E16:  MOVLW  55
05E18:  MOVWF  x9F
05E1A:  MOVLW  3C
05E1C:  MOVWF  xA0
05E1E:  MOVLW  01
05E20:  MOVWF  xA1
05E22:  CLRF   xA2
05E24:  MOVLB  0
05E26:  CALL   1780
05E2A:  MOVLB  5
....................       } 
....................              
....................       if(DOWN)//Si oprime hacia abajo 
05E2C:  BSF    F96.0
05E2E:  BTFSS  F84.0
05E30:  BRA    5E6A
....................       {   
....................          Buzz_on;delay_ms(30);Opcion--;Buzz_off; 
05E32:  BSF    F8B.7
05E34:  BCF    F94.7
05E36:  MOVLW  1E
05E38:  MOVLB  7
05E3A:  MOVWF  x8B
05E3C:  MOVLB  0
05E3E:  CALL   1166
05E42:  MOVLB  5
05E44:  DECF   xA5,F
05E46:  BCF    F8B.7
05E48:  BCF    F94.7
....................          glcd_rect(40, 35, 85, 60, YES, OFF); 
05E4A:  MOVLW  28
05E4C:  MOVLB  7
05E4E:  MOVWF  x9D
05E50:  MOVLW  23
05E52:  MOVWF  x9E
05E54:  MOVLW  55
05E56:  MOVWF  x9F
05E58:  MOVLW  3C
05E5A:  MOVWF  xA0
05E5C:  MOVLW  01
05E5E:  MOVWF  xA1
05E60:  CLRF   xA2
05E62:  MOVLB  0
05E64:  CALL   1780
05E68:  MOVLB  5
....................       } 
....................              
....................       if(RIGHT)//Si oprime SET 
05E6A:  BSF    F96.1
05E6C:  BTFSS  F84.1
05E6E:  BRA    62CE
....................       {   
....................          Menu=20;glcd_fillscreen(OFF); 
05E70:  MOVLW  14
05E72:  MOVWF  x9E
05E74:  MOVLB  7
05E76:  CLRF   x86
05E78:  MOVLB  0
05E7A:  CALL   123E
....................          for(i=0;i<10;i++){ 
05E7E:  MOVLB  5
05E80:  CLRF   xA0
05E82:  MOVF   xA0,W
05E84:  SUBLW  09
05E86:  BNC   5ED0
....................             if(Temperatura1[i+((Opcion-1)*10)]==0){ 
05E88:  MOVLW  01
05E8A:  SUBWF  xA5,W
05E8C:  MULLW  0A
05E8E:  MOVF   FF3,W
05E90:  ADDWF  xA0,W
05E92:  MOVWF  00
05E94:  BCF    FD8.0
05E96:  RLCF   00,F
05E98:  MOVF   00,W
05E9A:  CLRF   03
05E9C:  ADDLW  35
05E9E:  MOVWF  FE9
05EA0:  MOVLW  06
05EA2:  ADDWFC 03,W
05EA4:  MOVWF  FEA
05EA6:  MOVFF  FEC,786
05EAA:  MOVF   FED,F
05EAC:  MOVFF  FEF,785
05EB0:  MOVLB  7
05EB2:  MOVF   x85,F
05EB4:  BNZ   5EC6
05EB6:  MOVF   x86,F
05EB8:  BNZ   5EC6
....................                Segmentos=i; 
05EBA:  MOVFF  5A0,596
....................                break; 
05EBE:  MOVLB  5
05EC0:  BRA    5ED0
....................             } 
05EC2:  BRA    5ECC
05EC4:  MOVLB  7
....................             else{ 
....................                Segmentos=9; 
05EC6:  MOVLW  09
05EC8:  MOVLB  5
05ECA:  MOVWF  x96
....................             } 
05ECC:  INCF   xA0,F
05ECE:  BRA    5E82
....................             //Horas1[i+((Opcion-1)*10)]=0; 
....................             //Minutos1[i+((Opcion-1)*10)]=0; 
....................          } 
....................          if(Segmentos>0){ 
05ED0:  MOVF   x96,F
05ED2:  BTFSC  FD8.2
05ED4:  BRA    6222
....................             ProgramaSeleccionado=Opcion-1; 
05ED6:  MOVLW  01
05ED8:  SUBWF  xA5,W
05EDA:  MOVWF  xA7
....................             glcd_fillscreen(OFF); 
05EDC:  MOVLB  7
05EDE:  CLRF   x86
05EE0:  MOVLB  0
05EE2:  CALL   123E
....................              
....................             strcpy(Menus.Letra," Segmentos"); 
05EE6:  MOVLW  07
05EE8:  MOVWF  FEA
05EEA:  MOVLW  61
05EEC:  MOVWF  FE9
05EEE:  MOVLW  00
05EF0:  CALL   0A10
05EF4:  TBLRD*-
05EF6:  TBLRD*+
05EF8:  MOVF   FF5,W
05EFA:  MOVWF  FEE
05EFC:  IORLW  00
05EFE:  BNZ   5EF6
....................             displayMenu(Menus.Letra,0,0,0,2); 
05F00:  MOVLW  07
05F02:  MOVLB  7
05F04:  MOVWF  x89
05F06:  MOVLW  61
05F08:  MOVWF  x88
05F0A:  CLRF   x8A
05F0C:  CLRF   x8B
05F0E:  CLRF   x8C
05F10:  MOVLW  02
05F12:  MOVWF  x8D
05F14:  MOVLB  0
05F16:  CALL   1842
....................              
....................             displayTiempo(Segmentos,63,30,3,2); 
05F1A:  MOVFF  596,788
05F1E:  MOVLW  3F
05F20:  MOVLB  7
05F22:  MOVWF  x89
05F24:  MOVLW  1E
05F26:  MOVWF  x8A
05F28:  MOVLW  03
05F2A:  MOVWF  x8B
05F2C:  MOVLW  02
05F2E:  MOVWF  x8C
05F30:  MOVLB  0
05F32:  CALL   2354
....................             delay_ms(2000); 
05F36:  MOVLW  08
05F38:  MOVLB  7
05F3A:  MOVWF  x85
05F3C:  MOVLW  FA
05F3E:  MOVWF  x8B
05F40:  MOVLB  0
05F42:  CALL   1166
05F46:  MOVLB  7
05F48:  DECFSZ x85,F
05F4A:  BRA    5F3C
....................             glcd_fillscreen(OFF); 
05F4C:  CLRF   x86
05F4E:  MOVLB  0
05F50:  CALL   123E
....................             Opcion=1;visual=1;//Faltaa cuadrar esta parte 
05F54:  MOVLW  01
05F56:  MOVLB  5
05F58:  MOVWF  xA5
05F5A:  BSF    x8B.6
....................             TempeInicial=Temperatura; 
05F5C:  MOVFF  620,5C0
05F60:  MOVFF  61F,5BF
05F64:  MOVFF  61E,5BE
05F68:  MOVFF  61D,5BD
....................             Ganancia=Ganancia*(Setpoint/Coeficiente); 
05F6C:  MOVFF  62C,78C
05F70:  MOVFF  62B,78B
05F74:  MOVFF  62A,78A
05F78:  MOVFF  629,789
05F7C:  MOVFF  614,790
05F80:  MOVFF  613,78F
05F84:  MOVFF  612,78E
05F88:  MOVFF  611,78D
05F8C:  MOVLB  0
05F8E:  CALL   1E52
05F92:  MOVFF  60C,78C
05F96:  MOVFF  60B,78B
05F9A:  MOVFF  60A,78A
05F9E:  MOVFF  609,789
05FA2:  MOVFF  03,790
05FA6:  MOVFF  02,78F
05FAA:  MOVFF  01,78E
05FAE:  MOVFF  00,78D
05FB2:  CALL   1FB0
05FB6:  MOVFF  03,60C
05FBA:  MOVFF  02,60B
05FBE:  MOVFF  01,60A
05FC2:  MOVFF  00,609
....................              
....................             Tiempo=(Horas1[ProgramaSeleccionado*10]*3600)+(Minutos1[ProgramaSeleccionado*10]*60);          
05FC6:  MOVLB  5
05FC8:  MOVF   xA7,W
05FCA:  MULLW  0A
05FCC:  MOVFF  FF3,00
05FD0:  BCF    FD8.0
05FD2:  RLCF   00,F
05FD4:  MOVF   00,W
05FD6:  CLRF   03
05FD8:  ADDLW  99
05FDA:  MOVWF  FE9
05FDC:  MOVLW  06
05FDE:  ADDWFC 03,W
05FE0:  MOVWF  FEA
05FE2:  MOVFF  FEC,78A
05FE6:  MOVF   FED,F
05FE8:  MOVFF  FEF,789
05FEC:  MOVLW  0E
05FEE:  MOVLB  7
05FF0:  MOVWF  x8C
05FF2:  MOVLW  10
05FF4:  MOVWF  x8B
05FF6:  MOVLB  0
05FF8:  CALL   251C
05FFC:  MOVFF  02,786
06000:  MOVFF  01,785
06004:  MOVLB  5
06006:  MOVF   xA7,W
06008:  MULLW  0A
0600A:  MOVFF  FF3,00
0600E:  BCF    FD8.0
06010:  RLCF   00,F
06012:  MOVF   00,W
06014:  CLRF   03
06016:  ADDLW  FD
06018:  MOVWF  FE9
0601A:  MOVLW  06
0601C:  ADDWFC 03,W
0601E:  MOVWF  FEA
06020:  MOVFF  FEC,78A
06024:  MOVF   FED,F
06026:  MOVFF  FEF,789
0602A:  MOVLB  7
0602C:  CLRF   x8C
0602E:  MOVLW  3C
06030:  MOVWF  x8B
06032:  MOVLB  0
06034:  CALL   251C
06038:  MOVFF  02,03
0603C:  MOVF   01,W
0603E:  MOVLB  7
06040:  ADDWF  x85,W
06042:  MOVWF  01
06044:  MOVF   x86,W
06046:  ADDWFC 03,F
06048:  MOVFF  01,787
0604C:  MOVFF  03,788
06050:  MOVLB  0
06052:  CALL   2570
06056:  MOVFF  03,5C4
0605A:  MOVFF  02,5C3
0605E:  MOVFF  01,5C2
06062:  MOVFF  00,5C1
....................             Setpoint=Temperatura1[(ProgramaSeleccionado*10)+Segmento]; 
06066:  MOVLB  5
06068:  MOVF   xA7,W
0606A:  MULLW  0A
0606C:  MOVF   FF3,W
0606E:  ADDWF  x97,W
06070:  MOVWF  00
06072:  BCF    FD8.0
06074:  RLCF   00,F
06076:  MOVF   00,W
06078:  CLRF   03
0607A:  ADDLW  35
0607C:  MOVWF  FE9
0607E:  MOVLW  06
06080:  ADDWFC 03,W
06082:  MOVWF  FEA
06084:  MOVFF  FEC,03
06088:  MOVF   FED,F
0608A:  MOVFF  FEF,787
0608E:  MOVFF  03,788
06092:  MOVLB  0
06094:  CALL   2570
06098:  MOVFF  03,62C
0609C:  MOVFF  02,62B
060A0:  MOVFF  01,62A
060A4:  MOVFF  00,629
....................             Pendiente=((Setpoint-TempeInicial)/Tiempo); 
060A8:  BSF    FD8.1
060AA:  MOVFF  62C,78D
060AE:  MOVFF  62B,78C
060B2:  MOVFF  62A,78B
060B6:  MOVFF  629,78A
060BA:  MOVFF  5C0,791
060BE:  MOVFF  5BF,790
060C2:  MOVFF  5BE,78F
060C6:  MOVFF  5BD,78E
060CA:  CALL   1BDA
060CE:  MOVFF  03,788
060D2:  MOVFF  02,787
060D6:  MOVFF  01,786
060DA:  MOVFF  00,785
060DE:  MOVFF  03,78C
060E2:  MOVFF  02,78B
060E6:  MOVFF  01,78A
060EA:  MOVFF  00,789
060EE:  MOVFF  5C4,790
060F2:  MOVFF  5C3,78F
060F6:  MOVFF  5C2,78E
060FA:  MOVFF  5C1,78D
060FE:  CALL   1E52
06102:  MOVFF  03,624
06106:  MOVFF  02,623
0610A:  MOVFF  01,622
0610E:  MOVFF  00,621
....................             Testerilizacionp[3]=(int8)Horas1[(ProgramaSeleccionado*10)+Segmento]/10; 
06112:  MOVLB  5
06114:  MOVF   xA7,W
06116:  MULLW  0A
06118:  MOVF   FF3,W
0611A:  ADDWF  x97,W
0611C:  MOVWF  00
0611E:  BCF    FD8.0
06120:  RLCF   00,F
06122:  MOVF   00,W
06124:  CLRF   03
06126:  ADDLW  99
06128:  MOVWF  FE9
0612A:  MOVLW  06
0612C:  ADDWFC 03,W
0612E:  MOVWF  FEA
06130:  MOVFF  FEF,79A
06134:  MOVLW  0A
06136:  MOVLB  7
06138:  MOVWF  x9B
0613A:  MOVLB  0
0613C:  CALL   196A
06140:  MOVFF  01,5E4
06144:  MOVLB  5
....................             Testerilizacionp[2]=Horas1[(ProgramaSeleccionado*10)+Segmento]-(Testerilizacionp[3]*10); 
06146:  MOVF   xA7,W
06148:  MULLW  0A
0614A:  MOVF   FF3,W
0614C:  ADDWF  x97,W
0614E:  MOVWF  00
06150:  BCF    FD8.0
06152:  RLCF   00,F
06154:  MOVF   00,W
06156:  CLRF   03
06158:  ADDLW  99
0615A:  MOVWF  FE9
0615C:  MOVLW  06
0615E:  ADDWFC 03,W
06160:  MOVWF  FEA
06162:  MOVFF  FEC,786
06166:  MOVF   FED,F
06168:  MOVFF  FEF,785
0616C:  MOVFF  5E4,7A6
06170:  MOVLW  0A
06172:  MOVLB  7
06174:  MOVWF  xA7
06176:  MOVLB  0
06178:  CALL   25C0
0617C:  MOVF   01,W
0617E:  CLRF   03
06180:  MOVWF  00
06182:  BTFSC  FE8.7
06184:  DECF   03,F
06186:  MOVLB  7
06188:  SUBWF  x85,W
0618A:  MOVWF  00
0618C:  MOVF   03,W
0618E:  SUBWFB x86,W
06190:  MOVFF  00,5E3
06194:  MOVLB  5
....................             Testerilizacionp[1]=Minutos1[(ProgramaSeleccionado*10)+Segmento]/10; 
06196:  MOVF   xA7,W
06198:  MULLW  0A
0619A:  MOVF   FF3,W
0619C:  ADDWF  x97,W
0619E:  MOVWF  00
061A0:  BCF    FD8.0
061A2:  RLCF   00,F
061A4:  MOVF   00,W
061A6:  CLRF   03
061A8:  ADDLW  FD
061AA:  MOVWF  FE9
061AC:  MOVLW  06
061AE:  ADDWFC 03,W
061B0:  MOVWF  FEA
061B2:  MOVFF  FEC,78A
061B6:  MOVF   FED,F
061B8:  MOVFF  FEF,789
061BC:  MOVLB  7
061BE:  CLRF   x8C
061C0:  MOVLW  0A
061C2:  MOVWF  x8B
061C4:  MOVLB  0
061C6:  CALL   260E
061CA:  MOVFF  01,5E2
061CE:  MOVLB  5
....................             Testerilizacionp[0]=Minutos1[(ProgramaSeleccionado*10)+Segmento]-(Testerilizacionp[1]*10); 
061D0:  MOVF   xA7,W
061D2:  MULLW  0A
061D4:  MOVF   FF3,W
061D6:  ADDWF  x97,W
061D8:  MOVWF  00
061DA:  BCF    FD8.0
061DC:  RLCF   00,F
061DE:  MOVF   00,W
061E0:  CLRF   03
061E2:  ADDLW  FD
061E4:  MOVWF  FE9
061E6:  MOVLW  06
061E8:  ADDWFC 03,W
061EA:  MOVWF  FEA
061EC:  MOVFF  FEC,786
061F0:  MOVF   FED,F
061F2:  MOVFF  FEF,785
061F6:  MOVFF  5E2,7A6
061FA:  MOVLW  0A
061FC:  MOVLB  7
061FE:  MOVWF  xA7
06200:  MOVLB  0
06202:  CALL   25C0
06206:  MOVF   01,W
06208:  CLRF   03
0620A:  MOVWF  00
0620C:  BTFSC  FE8.7
0620E:  DECF   03,F
06210:  MOVLB  7
06212:  SUBWF  x85,W
06214:  MOVWF  00
06216:  MOVF   03,W
06218:  SUBWFB x86,W
0621A:  MOVFF  00,5E1
0621E:  MOVLB  5
....................          } 
06220:  BRA    62CE
....................          else{ 
....................             glcd_fillscreen(OFF); 
06222:  MOVLB  7
06224:  CLRF   x86
06226:  MOVLB  0
06228:  CALL   123E
....................             strcpy(Menus.Letra," !Programa"); 
0622C:  MOVLW  07
0622E:  MOVWF  FEA
06230:  MOVLW  61
06232:  MOVWF  FE9
06234:  MOVLW  00
06236:  CALL   0A30
0623A:  TBLRD*-
0623C:  TBLRD*+
0623E:  MOVF   FF5,W
06240:  MOVWF  FEE
06242:  IORLW  00
06244:  BNZ   623C
....................             displayMenu(Menus.Letra,0,0,0,2); 
06246:  MOVLW  07
06248:  MOVLB  7
0624A:  MOVWF  x89
0624C:  MOVLW  61
0624E:  MOVWF  x88
06250:  CLRF   x8A
06252:  CLRF   x8B
06254:  CLRF   x8C
06256:  MOVLW  02
06258:  MOVWF  x8D
0625A:  MOVLB  0
0625C:  CALL   1842
....................             strcpy(Menus.Letra,"    Vacio!"); 
06260:  MOVLW  07
06262:  MOVWF  FEA
06264:  MOVLW  61
06266:  MOVWF  FE9
06268:  MOVLW  00
0626A:  CALL   0A50
0626E:  TBLRD*-
06270:  TBLRD*+
06272:  MOVF   FF5,W
06274:  MOVWF  FEE
06276:  IORLW  00
06278:  BNZ   6270
....................             displayMenu(Menus.Letra,0,20,0,2); 
0627A:  MOVLW  07
0627C:  MOVLB  7
0627E:  MOVWF  x89
06280:  MOVLW  61
06282:  MOVWF  x88
06284:  CLRF   x8A
06286:  MOVLW  14
06288:  MOVWF  x8B
0628A:  CLRF   x8C
0628C:  MOVLW  02
0628E:  MOVWF  x8D
06290:  MOVLB  0
06292:  CALL   1842
....................             Opcion=1;Buzz_off;delay_ms(2000);Menu=1;glcd_fillscreen(OFF);Opcion=1;visual=1; 
06296:  MOVLW  01
06298:  MOVLB  5
0629A:  MOVWF  xA5
0629C:  BCF    F8B.7
0629E:  BCF    F94.7
062A0:  MOVLW  08
062A2:  MOVLB  7
062A4:  MOVWF  x85
062A6:  MOVLW  FA
062A8:  MOVWF  x8B
062AA:  MOVLB  0
062AC:  CALL   1166
062B0:  MOVLB  7
062B2:  DECFSZ x85,F
062B4:  BRA    62A6
062B6:  MOVLW  01
062B8:  MOVLB  5
062BA:  MOVWF  x9E
062BC:  MOVLB  7
062BE:  CLRF   x86
062C0:  MOVLB  0
062C2:  CALL   123E
062C6:  MOVLW  01
062C8:  MOVLB  5
062CA:  MOVWF  xA5
062CC:  BSF    x8B.6
....................          } 
....................       }  
....................                    
....................       if(LEFT)//Si oprime boton de Toma. 
062CE:  BSF    F96.2
062D0:  BTFSS  F84.2
062D2:  BRA    6304
....................       { 
....................          Buzz_on;Opcion=1;Buzz_off;delay_ms(50);Menu=1;glcd_fillscreen(OFF);Opcion=1;visual=1; 
062D4:  BSF    F8B.7
062D6:  BCF    F94.7
062D8:  MOVLW  01
062DA:  MOVWF  xA5
062DC:  BCF    F8B.7
062DE:  BCF    F94.7
062E0:  MOVLW  32
062E2:  MOVLB  7
062E4:  MOVWF  x8B
062E6:  MOVLB  0
062E8:  CALL   1166
062EC:  MOVLW  01
062EE:  MOVLB  5
062F0:  MOVWF  x9E
062F2:  MOVLB  7
062F4:  CLRF   x86
062F6:  MOVLB  0
062F8:  CALL   123E
062FC:  MOVLW  01
062FE:  MOVLB  5
06300:  MOVWF  xA5
06302:  BSF    x8B.6
....................       }  
....................     } 
.................... //_--------------------------------------------------------------------------------------------------------------------------------------------------------        
....................  
.................... //_-------------------------------------------------------------------------------------------------------------------------------------------------------- 
....................       if(Menu==5){ //Menu Editar Programa 
06304:  MOVF   x9E,W
06306:  SUBLW  05
06308:  BTFSS  FD8.2
0630A:  BRA    6666
....................        
....................          if(Opcion>5) 
0630C:  MOVF   xA5,W
0630E:  SUBLW  05
06310:  BC    6316
....................          {Opcion=1;} 
06312:  MOVLW  01
06314:  MOVWF  xA5
....................          if(Opcion<1) 
06316:  MOVF   xA5,F
06318:  BNZ   631E
....................          {Opcion=5;} 
0631A:  MOVLW  05
0631C:  MOVWF  xA5
....................           
....................          strcpy(Menus.Letra,"Editar"); 
0631E:  MOVLW  07
06320:  MOVWF  FEA
06322:  MOVLW  61
06324:  MOVWF  FE9
06326:  MOVLW  00
06328:  MOVLB  0
0632A:  CALL   0A70
0632E:  TBLRD*-
06330:  TBLRD*+
06332:  MOVF   FF5,W
06334:  MOVWF  FEE
06336:  IORLW  00
06338:  BNZ   6330
....................          displayMenu(Menus.Letra,30,0,1,2); 
0633A:  MOVLW  07
0633C:  MOVLB  7
0633E:  MOVWF  x89
06340:  MOVLW  61
06342:  MOVWF  x88
06344:  MOVLW  1E
06346:  MOVWF  x8A
06348:  CLRF   x8B
0634A:  MOVLW  01
0634C:  MOVWF  x8C
0634E:  MOVLW  02
06350:  MOVWF  x8D
06352:  MOVLB  0
06354:  CALL   1842
....................        
....................          if(Opcion==1)    
06358:  MOVLB  5
0635A:  DECFSZ xA5,W
0635C:  BRA    639A
....................             {strcpy(Menus.Letra,"Programa 01"); 
0635E:  MOVLW  07
06360:  MOVWF  FEA
06362:  MOVLW  61
06364:  MOVWF  FE9
06366:  MOVLW  00
06368:  MOVLB  0
0636A:  CALL   0970
0636E:  TBLRD*-
06370:  TBLRD*+
06372:  MOVF   FF5,W
06374:  MOVWF  FEE
06376:  IORLW  00
06378:  BNZ   6370
....................             displayMenu(Menus.Letra,0,18,1,1);} 
0637A:  MOVLW  07
0637C:  MOVLB  7
0637E:  MOVWF  x89
06380:  MOVLW  61
06382:  MOVWF  x88
06384:  CLRF   x8A
06386:  MOVLW  12
06388:  MOVWF  x8B
0638A:  MOVLW  01
0638C:  MOVWF  x8C
0638E:  MOVWF  x8D
06390:  MOVLB  0
06392:  CALL   1842
06396:  BRA    63D2
06398:  MOVLB  5
....................          else 
....................             {strcpy(Menus.Letra,"Programa 01"); 
0639A:  MOVLW  07
0639C:  MOVWF  FEA
0639E:  MOVLW  61
063A0:  MOVWF  FE9
063A2:  MOVLW  00
063A4:  MOVLB  0
063A6:  CALL   0970
063AA:  TBLRD*-
063AC:  TBLRD*+
063AE:  MOVF   FF5,W
063B0:  MOVWF  FEE
063B2:  IORLW  00
063B4:  BNZ   63AC
....................             displayMenu(Menus.Letra,0,18,0,1);} 
063B6:  MOVLW  07
063B8:  MOVLB  7
063BA:  MOVWF  x89
063BC:  MOVLW  61
063BE:  MOVWF  x88
063C0:  CLRF   x8A
063C2:  MOVLW  12
063C4:  MOVWF  x8B
063C6:  CLRF   x8C
063C8:  MOVLW  01
063CA:  MOVWF  x8D
063CC:  MOVLB  0
063CE:  CALL   1842
....................           
....................          if(Opcion==2)    
063D2:  MOVLB  5
063D4:  MOVF   xA5,W
063D6:  SUBLW  02
063D8:  BNZ   6416
....................             {strcpy(Menus.Letra,"Programa 02"); 
063DA:  MOVLW  07
063DC:  MOVWF  FEA
063DE:  MOVLW  61
063E0:  MOVWF  FE9
063E2:  MOVLW  00
063E4:  MOVLB  0
063E6:  CALL   0990
063EA:  TBLRD*-
063EC:  TBLRD*+
063EE:  MOVF   FF5,W
063F0:  MOVWF  FEE
063F2:  IORLW  00
063F4:  BNZ   63EC
....................             displayMenu(Menus.Letra,0,27,1,1);} 
063F6:  MOVLW  07
063F8:  MOVLB  7
063FA:  MOVWF  x89
063FC:  MOVLW  61
063FE:  MOVWF  x88
06400:  CLRF   x8A
06402:  MOVLW  1B
06404:  MOVWF  x8B
06406:  MOVLW  01
06408:  MOVWF  x8C
0640A:  MOVWF  x8D
0640C:  MOVLB  0
0640E:  CALL   1842
06412:  BRA    644E
06414:  MOVLB  5
....................          else 
....................             {strcpy(Menus.Letra,"Programa 02"); 
06416:  MOVLW  07
06418:  MOVWF  FEA
0641A:  MOVLW  61
0641C:  MOVWF  FE9
0641E:  MOVLW  00
06420:  MOVLB  0
06422:  CALL   0990
06426:  TBLRD*-
06428:  TBLRD*+
0642A:  MOVF   FF5,W
0642C:  MOVWF  FEE
0642E:  IORLW  00
06430:  BNZ   6428
....................             displayMenu(Menus.Letra,0,27,0,1);} 
06432:  MOVLW  07
06434:  MOVLB  7
06436:  MOVWF  x89
06438:  MOVLW  61
0643A:  MOVWF  x88
0643C:  CLRF   x8A
0643E:  MOVLW  1B
06440:  MOVWF  x8B
06442:  CLRF   x8C
06444:  MOVLW  01
06446:  MOVWF  x8D
06448:  MOVLB  0
0644A:  CALL   1842
....................              
....................          if(Opcion==3)    
0644E:  MOVLB  5
06450:  MOVF   xA5,W
06452:  SUBLW  03
06454:  BNZ   6492
....................             {strcpy(Menus.Letra,"Programa 03"); 
06456:  MOVLW  07
06458:  MOVWF  FEA
0645A:  MOVLW  61
0645C:  MOVWF  FE9
0645E:  MOVLW  00
06460:  MOVLB  0
06462:  CALL   09B0
06466:  TBLRD*-
06468:  TBLRD*+
0646A:  MOVF   FF5,W
0646C:  MOVWF  FEE
0646E:  IORLW  00
06470:  BNZ   6468
....................             displayMenu(Menus.Letra,0,36,1,1);} 
06472:  MOVLW  07
06474:  MOVLB  7
06476:  MOVWF  x89
06478:  MOVLW  61
0647A:  MOVWF  x88
0647C:  CLRF   x8A
0647E:  MOVLW  24
06480:  MOVWF  x8B
06482:  MOVLW  01
06484:  MOVWF  x8C
06486:  MOVWF  x8D
06488:  MOVLB  0
0648A:  CALL   1842
0648E:  BRA    64CA
06490:  MOVLB  5
....................          else 
....................             {strcpy(Menus.Letra,"Programa 03"); 
06492:  MOVLW  07
06494:  MOVWF  FEA
06496:  MOVLW  61
06498:  MOVWF  FE9
0649A:  MOVLW  00
0649C:  MOVLB  0
0649E:  CALL   09B0
064A2:  TBLRD*-
064A4:  TBLRD*+
064A6:  MOVF   FF5,W
064A8:  MOVWF  FEE
064AA:  IORLW  00
064AC:  BNZ   64A4
....................             displayMenu(Menus.Letra,0,36,0,1);}    
064AE:  MOVLW  07
064B0:  MOVLB  7
064B2:  MOVWF  x89
064B4:  MOVLW  61
064B6:  MOVWF  x88
064B8:  CLRF   x8A
064BA:  MOVLW  24
064BC:  MOVWF  x8B
064BE:  CLRF   x8C
064C0:  MOVLW  01
064C2:  MOVWF  x8D
064C4:  MOVLB  0
064C6:  CALL   1842
....................                          
....................          if(Opcion==4)    
064CA:  MOVLB  5
064CC:  MOVF   xA5,W
064CE:  SUBLW  04
064D0:  BNZ   650E
....................             {strcpy(Menus.Letra,"Programa 04"); 
064D2:  MOVLW  07
064D4:  MOVWF  FEA
064D6:  MOVLW  61
064D8:  MOVWF  FE9
064DA:  MOVLW  00
064DC:  MOVLB  0
064DE:  CALL   09D0
064E2:  TBLRD*-
064E4:  TBLRD*+
064E6:  MOVF   FF5,W
064E8:  MOVWF  FEE
064EA:  IORLW  00
064EC:  BNZ   64E4
....................             displayMenu(Menus.Letra,0,45,1,1);} 
064EE:  MOVLW  07
064F0:  MOVLB  7
064F2:  MOVWF  x89
064F4:  MOVLW  61
064F6:  MOVWF  x88
064F8:  CLRF   x8A
064FA:  MOVLW  2D
064FC:  MOVWF  x8B
064FE:  MOVLW  01
06500:  MOVWF  x8C
06502:  MOVWF  x8D
06504:  MOVLB  0
06506:  CALL   1842
0650A:  BRA    6546
0650C:  MOVLB  5
....................          else 
....................             {strcpy(Menus.Letra,"Programa 04"); 
0650E:  MOVLW  07
06510:  MOVWF  FEA
06512:  MOVLW  61
06514:  MOVWF  FE9
06516:  MOVLW  00
06518:  MOVLB  0
0651A:  CALL   09D0
0651E:  TBLRD*-
06520:  TBLRD*+
06522:  MOVF   FF5,W
06524:  MOVWF  FEE
06526:  IORLW  00
06528:  BNZ   6520
....................             displayMenu(Menus.Letra,0,45,0,1);}      
0652A:  MOVLW  07
0652C:  MOVLB  7
0652E:  MOVWF  x89
06530:  MOVLW  61
06532:  MOVWF  x88
06534:  CLRF   x8A
06536:  MOVLW  2D
06538:  MOVWF  x8B
0653A:  CLRF   x8C
0653C:  MOVLW  01
0653E:  MOVWF  x8D
06540:  MOVLB  0
06542:  CALL   1842
....................           
....................          if(Opcion==5)    
06546:  MOVLB  5
06548:  MOVF   xA5,W
0654A:  SUBLW  05
0654C:  BNZ   658A
....................             {strcpy(Menus.Letra,"Programa 05"); 
0654E:  MOVLW  07
06550:  MOVWF  FEA
06552:  MOVLW  61
06554:  MOVWF  FE9
06556:  MOVLW  00
06558:  MOVLB  0
0655A:  CALL   09F0
0655E:  TBLRD*-
06560:  TBLRD*+
06562:  MOVF   FF5,W
06564:  MOVWF  FEE
06566:  IORLW  00
06568:  BNZ   6560
....................             displayMenu(Menus.Letra,0,54,1,1);} 
0656A:  MOVLW  07
0656C:  MOVLB  7
0656E:  MOVWF  x89
06570:  MOVLW  61
06572:  MOVWF  x88
06574:  CLRF   x8A
06576:  MOVLW  36
06578:  MOVWF  x8B
0657A:  MOVLW  01
0657C:  MOVWF  x8C
0657E:  MOVWF  x8D
06580:  MOVLB  0
06582:  CALL   1842
06586:  BRA    65C2
06588:  MOVLB  5
....................          else 
....................             {strcpy(Menus.Letra,"Programa 05"); 
0658A:  MOVLW  07
0658C:  MOVWF  FEA
0658E:  MOVLW  61
06590:  MOVWF  FE9
06592:  MOVLW  00
06594:  MOVLB  0
06596:  CALL   09F0
0659A:  TBLRD*-
0659C:  TBLRD*+
0659E:  MOVF   FF5,W
065A0:  MOVWF  FEE
065A2:  IORLW  00
065A4:  BNZ   659C
....................             displayMenu(Menus.Letra,0,54,0,1);}      
065A6:  MOVLW  07
065A8:  MOVLB  7
065AA:  MOVWF  x89
065AC:  MOVLW  61
065AE:  MOVWF  x88
065B0:  CLRF   x8A
065B2:  MOVLW  36
065B4:  MOVWF  x8B
065B6:  CLRF   x8C
065B8:  MOVLW  01
065BA:  MOVWF  x8D
065BC:  MOVLB  0
065BE:  CALL   1842
....................           
....................          if(UP)//Si oprime hacia arriba 
065C2:  BSF    F92.5
065C4:  BTFSS  F80.5
065C6:  BRA    65E2
....................          { 
....................             Buzz_on;delay_ms(30);Opcion--;Buzz_off; 
065C8:  BSF    F8B.7
065CA:  BCF    F94.7
065CC:  MOVLW  1E
065CE:  MOVLB  7
065D0:  MOVWF  x8B
065D2:  MOVLB  0
065D4:  CALL   1166
065D8:  MOVLB  5
065DA:  DECF   xA5,F
065DC:  BCF    F8B.7
065DE:  BCF    F94.7
065E0:  MOVLB  0
....................          } 
....................                    
....................          if(DOWN)//Si oprime hacia abajo 
065E2:  BSF    F96.0
065E4:  BTFSS  F84.0
065E6:  BRA    6602
....................          { 
....................             Buzz_on;delay_ms(30);Opcion++; Buzz_off; 
065E8:  BSF    F8B.7
065EA:  BCF    F94.7
065EC:  MOVLW  1E
065EE:  MOVLB  7
065F0:  MOVWF  x8B
065F2:  MOVLB  0
065F4:  CALL   1166
065F8:  MOVLB  5
065FA:  INCF   xA5,F
065FC:  BCF    F8B.7
065FE:  BCF    F94.7
06600:  MOVLB  0
....................          } 
....................                 
....................          if(RIGHT)//Si oprime SET 
06602:  BSF    F96.1
06604:  BTFSS  F84.1
06606:  BRA    6638
....................          {  
....................             Buzz_on;delay_ms(50);Menu=Opcion+10;Opcion=1;glcd_fillscreen(OFF);Buzz_off;i=0; 
06608:  BSF    F8B.7
0660A:  BCF    F94.7
0660C:  MOVLW  32
0660E:  MOVLB  7
06610:  MOVWF  x8B
06612:  MOVLB  0
06614:  CALL   1166
06618:  MOVLW  0A
0661A:  MOVLB  5
0661C:  ADDWF  xA5,W
0661E:  MOVWF  x9E
06620:  MOVLW  01
06622:  MOVWF  xA5
06624:  MOVLB  7
06626:  CLRF   x86
06628:  MOVLB  0
0662A:  CALL   123E
0662E:  BCF    F8B.7
06630:  BCF    F94.7
06632:  MOVLB  5
06634:  CLRF   xA0
06636:  MOVLB  0
....................          } 
....................           
....................          if(LEFT){ 
06638:  BSF    F96.2
0663A:  BTFSS  F84.2
0663C:  BRA    6664
....................             Buzz_on;delay_ms(50);Menu=1;Opcion=1;glcd_fillscreen(OFF);Buzz_off; 
0663E:  BSF    F8B.7
06640:  BCF    F94.7
06642:  MOVLW  32
06644:  MOVLB  7
06646:  MOVWF  x8B
06648:  MOVLB  0
0664A:  CALL   1166
0664E:  MOVLW  01
06650:  MOVLB  5
06652:  MOVWF  x9E
06654:  MOVWF  xA5
06656:  MOVLB  7
06658:  CLRF   x86
0665A:  MOVLB  0
0665C:  CALL   123E
06660:  BCF    F8B.7
06662:  BCF    F94.7
06664:  MOVLB  5
....................          } 
....................    } 
.................... //_--------------------------------------------------------------------------------------------------------------------------------------------------------        
....................  
.................... //_-------------------------------------------------------------------------------------------------------------------------------------------------------- 
....................       if(Menu==6){ //Menu de Borrar Programa 
06666:  MOVF   x9E,W
06668:  SUBLW  06
0666A:  BTFSS  FD8.2
0666C:  BRA    6B78
....................        
....................       if(Opcion>5) 
0666E:  MOVF   xA5,W
06670:  SUBLW  05
06672:  BC    6678
....................          Opcion=1; 
06674:  MOVLW  01
06676:  MOVWF  xA5
....................           
....................       if(Opcion<1) 
06678:  MOVF   xA5,F
0667A:  BNZ   6680
....................          Opcion=5; 
0667C:  MOVLW  05
0667E:  MOVWF  xA5
....................        
....................          strcpy(Menus.Letra,"  Elimine"); 
06680:  MOVLW  07
06682:  MOVWF  FEA
06684:  MOVLW  61
06686:  MOVWF  FE9
06688:  MOVLW  00
0668A:  MOVLB  0
0668C:  CALL   0A8C
06690:  TBLRD*-
06692:  TBLRD*+
06694:  MOVF   FF5,W
06696:  MOVWF  FEE
06698:  IORLW  00
0669A:  BNZ   6692
....................          displayMenu(Menus.Letra,0,0,1,2); 
0669C:  MOVLW  07
0669E:  MOVLB  7
066A0:  MOVWF  x89
066A2:  MOVLW  61
066A4:  MOVWF  x88
066A6:  CLRF   x8A
066A8:  CLRF   x8B
066AA:  MOVLW  01
066AC:  MOVWF  x8C
066AE:  MOVLW  02
066B0:  MOVWF  x8D
066B2:  MOVLB  0
066B4:  CALL   1842
....................           
....................          strcpy(Menus.Letra," Programa"); 
066B8:  MOVLW  07
066BA:  MOVWF  FEA
066BC:  MOVLW  61
066BE:  MOVWF  FE9
066C0:  MOVLW  00
066C2:  CALL   0952
066C6:  TBLRD*-
066C8:  TBLRD*+
066CA:  MOVF   FF5,W
066CC:  MOVWF  FEE
066CE:  IORLW  00
066D0:  BNZ   66C8
....................          displayMenu(Menus.Letra,0,16,1,2); 
066D2:  MOVLW  07
066D4:  MOVLB  7
066D6:  MOVWF  x89
066D8:  MOVLW  61
066DA:  MOVWF  x88
066DC:  CLRF   x8A
066DE:  MOVLW  10
066E0:  MOVWF  x8B
066E2:  MOVLW  01
066E4:  MOVWF  x8C
066E6:  MOVLW  02
066E8:  MOVWF  x8D
066EA:  MOVLB  0
066EC:  CALL   1842
....................            
....................           
....................          if(Opcion==1) 
066F0:  MOVLB  5
066F2:  DECFSZ xA5,W
066F4:  BRA    6730
....................          { 
....................             strcpy(Menus.Letra,"Programa 01"); 
066F6:  MOVLW  07
066F8:  MOVWF  FEA
066FA:  MOVLW  61
066FC:  MOVWF  FE9
066FE:  MOVLW  00
06700:  MOVLB  0
06702:  CALL   0970
06706:  TBLRD*-
06708:  TBLRD*+
0670A:  MOVF   FF5,W
0670C:  MOVWF  FEE
0670E:  IORLW  00
06710:  BNZ   6708
....................             displayMenu(Menus.Letra,0,38,0,2); 
06712:  MOVLW  07
06714:  MOVLB  7
06716:  MOVWF  x89
06718:  MOVLW  61
0671A:  MOVWF  x88
0671C:  CLRF   x8A
0671E:  MOVLW  26
06720:  MOVWF  x8B
06722:  CLRF   x8C
06724:  MOVLW  02
06726:  MOVWF  x8D
06728:  MOVLB  0
0672A:  CALL   1842
0672E:  MOVLB  5
....................          } 
....................           
....................          if(Opcion==2) 
06730:  MOVF   xA5,W
06732:  SUBLW  02
06734:  BNZ   6770
....................          { 
....................             strcpy(Menus.Letra,"Programa 02"); 
06736:  MOVLW  07
06738:  MOVWF  FEA
0673A:  MOVLW  61
0673C:  MOVWF  FE9
0673E:  MOVLW  00
06740:  MOVLB  0
06742:  CALL   0990
06746:  TBLRD*-
06748:  TBLRD*+
0674A:  MOVF   FF5,W
0674C:  MOVWF  FEE
0674E:  IORLW  00
06750:  BNZ   6748
....................             displayMenu(Menus.Letra,0,38,0,2); 
06752:  MOVLW  07
06754:  MOVLB  7
06756:  MOVWF  x89
06758:  MOVLW  61
0675A:  MOVWF  x88
0675C:  CLRF   x8A
0675E:  MOVLW  26
06760:  MOVWF  x8B
06762:  CLRF   x8C
06764:  MOVLW  02
06766:  MOVWF  x8D
06768:  MOVLB  0
0676A:  CALL   1842
0676E:  MOVLB  5
....................          } 
....................           
....................          if(Opcion==3) 
06770:  MOVF   xA5,W
06772:  SUBLW  03
06774:  BNZ   67B0
....................          { 
....................             strcpy(Menus.Letra,"Programa 03"); 
06776:  MOVLW  07
06778:  MOVWF  FEA
0677A:  MOVLW  61
0677C:  MOVWF  FE9
0677E:  MOVLW  00
06780:  MOVLB  0
06782:  CALL   09B0
06786:  TBLRD*-
06788:  TBLRD*+
0678A:  MOVF   FF5,W
0678C:  MOVWF  FEE
0678E:  IORLW  00
06790:  BNZ   6788
....................             displayMenu(Menus.Letra,0,38,0,2); 
06792:  MOVLW  07
06794:  MOVLB  7
06796:  MOVWF  x89
06798:  MOVLW  61
0679A:  MOVWF  x88
0679C:  CLRF   x8A
0679E:  MOVLW  26
067A0:  MOVWF  x8B
067A2:  CLRF   x8C
067A4:  MOVLW  02
067A6:  MOVWF  x8D
067A8:  MOVLB  0
067AA:  CALL   1842
067AE:  MOVLB  5
....................          } 
....................           
....................          if(Opcion==4) 
067B0:  MOVF   xA5,W
067B2:  SUBLW  04
067B4:  BNZ   67F0
....................          { 
....................             strcpy(Menus.Letra,"Programa 04"); 
067B6:  MOVLW  07
067B8:  MOVWF  FEA
067BA:  MOVLW  61
067BC:  MOVWF  FE9
067BE:  MOVLW  00
067C0:  MOVLB  0
067C2:  CALL   09D0
067C6:  TBLRD*-
067C8:  TBLRD*+
067CA:  MOVF   FF5,W
067CC:  MOVWF  FEE
067CE:  IORLW  00
067D0:  BNZ   67C8
....................             displayMenu(Menus.Letra,0,38,0,2); 
067D2:  MOVLW  07
067D4:  MOVLB  7
067D6:  MOVWF  x89
067D8:  MOVLW  61
067DA:  MOVWF  x88
067DC:  CLRF   x8A
067DE:  MOVLW  26
067E0:  MOVWF  x8B
067E2:  CLRF   x8C
067E4:  MOVLW  02
067E6:  MOVWF  x8D
067E8:  MOVLB  0
067EA:  CALL   1842
067EE:  MOVLB  5
....................          } 
....................           
....................          if(Opcion==5) 
067F0:  MOVF   xA5,W
067F2:  SUBLW  05
067F4:  BNZ   6830
....................          { 
....................             strcpy(Menus.Letra,"Programa 05"); 
067F6:  MOVLW  07
067F8:  MOVWF  FEA
067FA:  MOVLW  61
067FC:  MOVWF  FE9
067FE:  MOVLW  00
06800:  MOVLB  0
06802:  CALL   09F0
06806:  TBLRD*-
06808:  TBLRD*+
0680A:  MOVF   FF5,W
0680C:  MOVWF  FEE
0680E:  IORLW  00
06810:  BNZ   6808
....................             displayMenu(Menus.Letra,0,38,0,2); 
06812:  MOVLW  07
06814:  MOVLB  7
06816:  MOVWF  x89
06818:  MOVLW  61
0681A:  MOVWF  x88
0681C:  CLRF   x8A
0681E:  MOVLW  26
06820:  MOVWF  x8B
06822:  CLRF   x8C
06824:  MOVLW  02
06826:  MOVWF  x8D
06828:  MOVLB  0
0682A:  CALL   1842
0682E:  MOVLB  5
....................          } 
....................           
....................          
....................       if(UP)//Si oprime hacia arriba 
06830:  BSF    F92.5
06832:  BTFSS  F80.5
06834:  BRA    686E
....................       { 
....................          Buzz_on;delay_ms(30);Opcion++;Buzz_off; 
06836:  BSF    F8B.7
06838:  BCF    F94.7
0683A:  MOVLW  1E
0683C:  MOVLB  7
0683E:  MOVWF  x8B
06840:  MOVLB  0
06842:  CALL   1166
06846:  MOVLB  5
06848:  INCF   xA5,F
0684A:  BCF    F8B.7
0684C:  BCF    F94.7
....................          glcd_rect(40, 35, 85, 60, YES, OFF); 
0684E:  MOVLW  28
06850:  MOVLB  7
06852:  MOVWF  x9D
06854:  MOVLW  23
06856:  MOVWF  x9E
06858:  MOVLW  55
0685A:  MOVWF  x9F
0685C:  MOVLW  3C
0685E:  MOVWF  xA0
06860:  MOVLW  01
06862:  MOVWF  xA1
06864:  CLRF   xA2
06866:  MOVLB  0
06868:  CALL   1780
0686C:  MOVLB  5
....................       } 
....................              
....................       if(DOWN)//Si oprime hacia abajo 
0686E:  BSF    F96.0
06870:  BTFSS  F84.0
06872:  BRA    68AC
....................       {   
....................          Buzz_on;delay_ms(30);Opcion--;Buzz_off; 
06874:  BSF    F8B.7
06876:  BCF    F94.7
06878:  MOVLW  1E
0687A:  MOVLB  7
0687C:  MOVWF  x8B
0687E:  MOVLB  0
06880:  CALL   1166
06884:  MOVLB  5
06886:  DECF   xA5,F
06888:  BCF    F8B.7
0688A:  BCF    F94.7
....................          glcd_rect(40, 35, 85, 60, YES, OFF); 
0688C:  MOVLW  28
0688E:  MOVLB  7
06890:  MOVWF  x9D
06892:  MOVLW  23
06894:  MOVWF  x9E
06896:  MOVLW  55
06898:  MOVWF  x9F
0689A:  MOVLW  3C
0689C:  MOVWF  xA0
0689E:  MOVLW  01
068A0:  MOVWF  xA1
068A2:  CLRF   xA2
068A4:  MOVLB  0
068A6:  CALL   1780
068AA:  MOVLB  5
....................       } 
....................              
....................       if(RIGHT)//Si oprime SET 
068AC:  BSF    F96.1
068AE:  BTFSS  F84.1
068B0:  BRA    6B38
....................       {   
....................          Buzz_on; 
068B2:  BSF    F8B.7
068B4:  BCF    F94.7
....................          for(i=0;i<10;i++){ 
068B6:  CLRF   xA0
068B8:  MOVF   xA0,W
068BA:  SUBLW  09
068BC:  BNC   692E
....................             Temperatura1[i+((Opcion-1)*10)]=0; 
068BE:  MOVLW  01
068C0:  SUBWF  xA5,W
068C2:  MULLW  0A
068C4:  MOVF   FF3,W
068C6:  ADDWF  xA0,W
068C8:  MOVWF  00
068CA:  BCF    FD8.0
068CC:  RLCF   00,F
068CE:  MOVF   00,W
068D0:  CLRF   03
068D2:  ADDLW  35
068D4:  MOVWF  FE9
068D6:  MOVLW  06
068D8:  ADDWFC 03,W
068DA:  MOVWF  FEA
068DC:  CLRF   FEC
068DE:  MOVF   FED,F
068E0:  CLRF   FEF
....................             Horas1[i+((Opcion-1)*10)]=0; 
068E2:  MOVLW  01
068E4:  SUBWF  xA5,W
068E6:  MULLW  0A
068E8:  MOVF   FF3,W
068EA:  ADDWF  xA0,W
068EC:  MOVWF  00
068EE:  BCF    FD8.0
068F0:  RLCF   00,F
068F2:  MOVF   00,W
068F4:  CLRF   03
068F6:  ADDLW  99
068F8:  MOVWF  FE9
068FA:  MOVLW  06
068FC:  ADDWFC 03,W
068FE:  MOVWF  FEA
06900:  CLRF   FEC
06902:  MOVF   FED,F
06904:  CLRF   FEF
....................             Minutos1[i+((Opcion-1)*10)]=0; 
06906:  MOVLW  01
06908:  SUBWF  xA5,W
0690A:  MULLW  0A
0690C:  MOVF   FF3,W
0690E:  ADDWF  xA0,W
06910:  MOVWF  00
06912:  BCF    FD8.0
06914:  RLCF   00,F
06916:  MOVF   00,W
06918:  CLRF   03
0691A:  ADDLW  FD
0691C:  MOVWF  FE9
0691E:  MOVLW  06
06920:  ADDWFC 03,W
06922:  MOVWF  FEA
06924:  CLRF   FEC
06926:  MOVF   FED,F
06928:  CLRF   FEF
0692A:  INCF   xA0,F
0692C:  BRA    68B8
....................          } 
....................           
....................          for(i=0;i<10;i++){ 
0692E:  CLRF   xA0
06930:  MOVF   xA0,W
06932:  SUBLW  09
06934:  BTFSS  FD8.0
06936:  BRA    6A68
....................             delay_ms(10);     
06938:  MOVLW  0A
0693A:  MOVLB  7
0693C:  MOVWF  x8B
0693E:  MOVLB  0
06940:  CALL   1166
....................             write_eeprom((i*2)+(40*(Opcion-1)),0); 
06944:  BCF    FD8.0
06946:  MOVLB  5
06948:  RLCF   xA0,W
0694A:  MOVLB  7
0694C:  MOVWF  x85
0694E:  MOVLW  01
06950:  MOVLB  5
06952:  SUBWF  xA5,W
06954:  MULLW  28
06956:  MOVF   FF3,W
06958:  MOVLB  7
0695A:  ADDWF  x85,F
0695C:  MOVF   FF2,W
0695E:  MOVWF  00
06960:  BCF    FF2.7
06962:  CLRF   FAA
06964:  MOVFF  785,FA9
06968:  CLRF   FA8
0696A:  BCF    FA6.6
0696C:  BCF    FA6.7
0696E:  BSF    FA6.2
06970:  MOVLB  F
06972:  MOVLW  55
06974:  MOVWF  FA7
06976:  MOVLW  AA
06978:  MOVWF  FA7
0697A:  BSF    FA6.1
0697C:  BTFSC  FA6.1
0697E:  BRA    697C
06980:  BCF    FA6.2
06982:  MOVF   00,W
06984:  IORWF  FF2,F
....................             delay_ms(10);     
06986:  MOVLW  0A
06988:  MOVLB  7
0698A:  MOVWF  x8B
0698C:  MOVLB  0
0698E:  CALL   1166
....................             write_eeprom((i*2)+1+(40*(Opcion-1)),0); 
06992:  BCF    FD8.0
06994:  MOVLB  5
06996:  RLCF   xA0,W
06998:  ADDLW  01
0699A:  MOVLB  7
0699C:  MOVWF  x85
0699E:  MOVLW  01
069A0:  MOVLB  5
069A2:  SUBWF  xA5,W
069A4:  MULLW  28
069A6:  MOVF   FF3,W
069A8:  MOVLB  7
069AA:  ADDWF  x85,F
069AC:  MOVF   FF2,W
069AE:  MOVWF  00
069B0:  BCF    FF2.7
069B2:  CLRF   FAA
069B4:  MOVFF  785,FA9
069B8:  CLRF   FA8
069BA:  BCF    FA6.6
069BC:  BCF    FA6.7
069BE:  BSF    FA6.2
069C0:  MOVLB  F
069C2:  MOVLW  55
069C4:  MOVWF  FA7
069C6:  MOVLW  AA
069C8:  MOVWF  FA7
069CA:  BSF    FA6.1
069CC:  BTFSC  FA6.1
069CE:  BRA    69CC
069D0:  BCF    FA6.2
069D2:  MOVF   00,W
069D4:  IORWF  FF2,F
....................             delay_ms(10);     
069D6:  MOVLW  0A
069D8:  MOVLB  7
069DA:  MOVWF  x8B
069DC:  MOVLB  0
069DE:  CALL   1166
....................             write_eeprom(i+((40*Opcion)-20),0); 
069E2:  MOVLB  5
069E4:  MOVF   xA5,W
069E6:  MULLW  28
069E8:  MOVF   FF3,W
069EA:  ADDLW  EC
069EC:  ADDWF  xA0,W
069EE:  MOVLB  7
069F0:  MOVWF  x85
069F2:  MOVF   FF2,W
069F4:  MOVWF  00
069F6:  BCF    FF2.7
069F8:  CLRF   FAA
069FA:  MOVFF  785,FA9
069FE:  CLRF   FA8
06A00:  BCF    FA6.6
06A02:  BCF    FA6.7
06A04:  BSF    FA6.2
06A06:  MOVLB  F
06A08:  MOVLW  55
06A0A:  MOVWF  FA7
06A0C:  MOVLW  AA
06A0E:  MOVWF  FA7
06A10:  BSF    FA6.1
06A12:  BTFSC  FA6.1
06A14:  BRA    6A12
06A16:  BCF    FA6.2
06A18:  MOVF   00,W
06A1A:  IORWF  FF2,F
....................             delay_ms(10);     
06A1C:  MOVLW  0A
06A1E:  MOVLB  7
06A20:  MOVWF  x8B
06A22:  MOVLB  0
06A24:  CALL   1166
....................             write_eeprom(i+((40*Opcion)-10),0); 
06A28:  MOVLB  5
06A2A:  MOVF   xA5,W
06A2C:  MULLW  28
06A2E:  MOVF   FF3,W
06A30:  ADDLW  F6
06A32:  ADDWF  xA0,W
06A34:  MOVLB  7
06A36:  MOVWF  x85
06A38:  MOVF   FF2,W
06A3A:  MOVWF  00
06A3C:  BCF    FF2.7
06A3E:  CLRF   FAA
06A40:  MOVFF  785,FA9
06A44:  CLRF   FA8
06A46:  BCF    FA6.6
06A48:  BCF    FA6.7
06A4A:  BSF    FA6.2
06A4C:  MOVLB  F
06A4E:  MOVLW  55
06A50:  MOVWF  FA7
06A52:  MOVLW  AA
06A54:  MOVWF  FA7
06A56:  BSF    FA6.1
06A58:  BTFSC  FA6.1
06A5A:  BRA    6A58
06A5C:  BCF    FA6.2
06A5E:  MOVF   00,W
06A60:  IORWF  FF2,F
06A62:  MOVLB  5
06A64:  INCF   xA0,F
06A66:  BRA    6930
....................          }  
....................           
....................          delay_ms(200);Buzz_off;Menu=1;glcd_fillscreen(OFF);Opcion=1;visual=1; 
06A68:  MOVLW  C8
06A6A:  MOVLB  7
06A6C:  MOVWF  x8B
06A6E:  MOVLB  0
06A70:  CALL   1166
06A74:  BCF    F8B.7
06A76:  BCF    F94.7
06A78:  MOVLW  01
06A7A:  MOVLB  5
06A7C:  MOVWF  x9E
06A7E:  MOVLB  7
06A80:  CLRF   x86
06A82:  MOVLB  0
06A84:  CALL   123E
06A88:  MOVLW  01
06A8A:  MOVLB  5
06A8C:  MOVWF  xA5
06A8E:  BSF    x8B.6
....................          glcd_fillScreen(OFF); 
06A90:  MOVLB  7
06A92:  CLRF   x86
06A94:  MOVLB  0
06A96:  CALL   123E
....................          strcpy(Menus.Letra,"Programa"); 
06A9A:  MOVLW  07
06A9C:  MOVWF  FEA
06A9E:  MOVLW  61
06AA0:  MOVWF  FE9
06AA2:  MOVLW  00
06AA4:  CALL   0AAA
06AA8:  TBLRD*-
06AAA:  TBLRD*+
06AAC:  MOVF   FF5,W
06AAE:  MOVWF  FEE
06AB0:  IORLW  00
06AB2:  BNZ   6AAA
....................          displayMenu(Menus.Letra,30,0,0,2); 
06AB4:  MOVLW  07
06AB6:  MOVLB  7
06AB8:  MOVWF  x89
06ABA:  MOVLW  61
06ABC:  MOVWF  x88
06ABE:  MOVLW  1E
06AC0:  MOVWF  x8A
06AC2:  CLRF   x8B
06AC4:  CLRF   x8C
06AC6:  MOVLW  02
06AC8:  MOVWF  x8D
06ACA:  MOVLB  0
06ACC:  CALL   1842
....................          strcpy(Menus.Letra,"Eliminado"); 
06AD0:  MOVLW  07
06AD2:  MOVWF  FEA
06AD4:  MOVLW  61
06AD6:  MOVWF  FE9
06AD8:  MOVLW  00
06ADA:  CALL   0AC8
06ADE:  TBLRD*-
06AE0:  TBLRD*+
06AE2:  MOVF   FF5,W
06AE4:  MOVWF  FEE
06AE6:  IORLW  00
06AE8:  BNZ   6AE0
....................          displayMenu(Menus.Letra,15,30,0,2); 
06AEA:  MOVLW  07
06AEC:  MOVLB  7
06AEE:  MOVWF  x89
06AF0:  MOVLW  61
06AF2:  MOVWF  x88
06AF4:  MOVLW  0F
06AF6:  MOVWF  x8A
06AF8:  MOVLW  1E
06AFA:  MOVWF  x8B
06AFC:  CLRF   x8C
06AFE:  MOVLW  02
06B00:  MOVWF  x8D
06B02:  MOVLB  0
06B04:  CALL   1842
....................          Menu=1;glcd_update();delay_ms(1000); 
06B08:  MOVLW  01
06B0A:  MOVLB  5
06B0C:  MOVWF  x9E
06B0E:  MOVLB  0
06B10:  CALL   1298
06B14:  MOVLW  04
06B16:  MOVLB  7
06B18:  MOVWF  x85
06B1A:  MOVLW  FA
06B1C:  MOVWF  x8B
06B1E:  MOVLB  0
06B20:  CALL   1166
06B24:  MOVLB  7
06B26:  DECFSZ x85,F
06B28:  BRA    6B1A
....................          glcd_fillScreen(OFF);unidad=1; 
06B2A:  CLRF   x86
06B2C:  MOVLB  0
06B2E:  CALL   123E
06B32:  MOVLW  01
06B34:  MOVLB  5
06B36:  MOVWF  x9F
....................       }  
....................                    
....................       if(LEFT)//Si oprime boton de Toma. 
06B38:  BSF    F96.2
06B3A:  BTFSS  F84.2
06B3C:  BRA    6B78
....................       { 
....................          Buzz_on;Opcion=1;Buzz_off;delay_ms(500);Menu=1;glcd_fillscreen(OFF);Opcion=1;visual=1; 
06B3E:  BSF    F8B.7
06B40:  BCF    F94.7
06B42:  MOVLW  01
06B44:  MOVWF  xA5
06B46:  BCF    F8B.7
06B48:  BCF    F94.7
06B4A:  MOVLW  02
06B4C:  MOVLB  7
06B4E:  MOVWF  x85
06B50:  MOVLW  FA
06B52:  MOVWF  x8B
06B54:  MOVLB  0
06B56:  CALL   1166
06B5A:  MOVLB  7
06B5C:  DECFSZ x85,F
06B5E:  BRA    6B50
06B60:  MOVLW  01
06B62:  MOVLB  5
06B64:  MOVWF  x9E
06B66:  MOVLB  7
06B68:  CLRF   x86
06B6A:  MOVLB  0
06B6C:  CALL   123E
06B70:  MOVLW  01
06B72:  MOVLB  5
06B74:  MOVWF  xA5
06B76:  BSF    x8B.6
....................       }  
....................     } 
.................... //_--------------------------------------------------------------------------------------------------------------------------------------------------------        
....................  
.................... //_--------------------------------------------------------------------------------------------------------------------------------------------------------       
....................       if(Menu==8){ // Menu de Cambio de Contrasea 
06B78:  MOVF   x9E,W
06B7A:  SUBLW  08
06B7C:  BTFSS  FD8.2
06B7E:  BRA    7028
....................          
....................       strcpy(Menus.Letra,"Clave"); 
06B80:  MOVLW  07
06B82:  MOVWF  FEA
06B84:  MOVLW  61
06B86:  MOVWF  FE9
06B88:  MOVLW  00
06B8A:  MOVLB  0
06B8C:  CALL   0814
06B90:  TBLRD*-
06B92:  TBLRD*+
06B94:  MOVF   FF5,W
06B96:  MOVWF  FEE
06B98:  IORLW  00
06B9A:  BNZ   6B92
....................       displayMenu(Menus.Letra,30,0,1,2);      
06B9C:  MOVLW  07
06B9E:  MOVLB  7
06BA0:  MOVWF  x89
06BA2:  MOVLW  61
06BA4:  MOVWF  x88
06BA6:  MOVLW  1E
06BA8:  MOVWF  x8A
06BAA:  CLRF   x8B
06BAC:  MOVLW  01
06BAE:  MOVWF  x8C
06BB0:  MOVLW  02
06BB2:  MOVWF  x8D
06BB4:  MOVLB  0
06BB6:  CALL   1842
....................        
....................       if(unidad==1) 
06BBA:  MOVLB  5
06BBC:  DECFSZ x9F,W
06BBE:  BRA    6C1E
....................       { 
....................          displayContrasena(Contrasena[0],20,30,1); 
06BC0:  MOVFF  5E5,787
06BC4:  MOVLW  14
06BC6:  MOVLB  7
06BC8:  MOVWF  x88
06BCA:  MOVLW  1E
06BCC:  MOVWF  x89
06BCE:  MOVLW  01
06BD0:  MOVWF  x8A
06BD2:  MOVLB  0
06BD4:  CALL   1A74
....................          displayContrasena(Contrasena[1],40,30,0); 
06BD8:  MOVFF  5E6,787
06BDC:  MOVLW  28
06BDE:  MOVLB  7
06BE0:  MOVWF  x88
06BE2:  MOVLW  1E
06BE4:  MOVWF  x89
06BE6:  CLRF   x8A
06BE8:  MOVLB  0
06BEA:  CALL   1A74
....................          displayContrasena(Contrasena[2],60,30,0); 
06BEE:  MOVFF  5E7,787
06BF2:  MOVLW  3C
06BF4:  MOVLB  7
06BF6:  MOVWF  x88
06BF8:  MOVLW  1E
06BFA:  MOVWF  x89
06BFC:  CLRF   x8A
06BFE:  MOVLB  0
06C00:  CALL   1A74
....................          displayContrasena(Contrasena[3],80,30,0); 
06C04:  MOVFF  5E8,787
06C08:  MOVLW  50
06C0A:  MOVLB  7
06C0C:  MOVWF  x88
06C0E:  MOVLW  1E
06C10:  MOVWF  x89
06C12:  CLRF   x8A
06C14:  MOVLB  0
06C16:  CALL   1A74
....................       } 
06C1A:  BRA    6D46
06C1C:  MOVLB  5
....................       else 
....................       { 
....................          if(unidad==2) 
06C1E:  MOVF   x9F,W
06C20:  SUBLW  02
06C22:  BNZ   6C82
....................          { 
....................             displayContrasena(Contrasena[0],20,30,0); 
06C24:  MOVFF  5E5,787
06C28:  MOVLW  14
06C2A:  MOVLB  7
06C2C:  MOVWF  x88
06C2E:  MOVLW  1E
06C30:  MOVWF  x89
06C32:  CLRF   x8A
06C34:  MOVLB  0
06C36:  CALL   1A74
....................             displayContrasena(Contrasena[1],40,30,1); 
06C3A:  MOVFF  5E6,787
06C3E:  MOVLW  28
06C40:  MOVLB  7
06C42:  MOVWF  x88
06C44:  MOVLW  1E
06C46:  MOVWF  x89
06C48:  MOVLW  01
06C4A:  MOVWF  x8A
06C4C:  MOVLB  0
06C4E:  CALL   1A74
....................             displayContrasena(Contrasena[2],60,30,0); 
06C52:  MOVFF  5E7,787
06C56:  MOVLW  3C
06C58:  MOVLB  7
06C5A:  MOVWF  x88
06C5C:  MOVLW  1E
06C5E:  MOVWF  x89
06C60:  CLRF   x8A
06C62:  MOVLB  0
06C64:  CALL   1A74
....................             displayContrasena(Contrasena[3],80,30,0); 
06C68:  MOVFF  5E8,787
06C6C:  MOVLW  50
06C6E:  MOVLB  7
06C70:  MOVWF  x88
06C72:  MOVLW  1E
06C74:  MOVWF  x89
06C76:  CLRF   x8A
06C78:  MOVLB  0
06C7A:  CALL   1A74
....................          } 
06C7E:  BRA    6D46
06C80:  MOVLB  5
....................          else 
....................          { 
....................             if(unidad==3) 
06C82:  MOVF   x9F,W
06C84:  SUBLW  03
06C86:  BNZ   6CE6
....................             { 
....................                displayContrasena(Contrasena[0],20,30,0); 
06C88:  MOVFF  5E5,787
06C8C:  MOVLW  14
06C8E:  MOVLB  7
06C90:  MOVWF  x88
06C92:  MOVLW  1E
06C94:  MOVWF  x89
06C96:  CLRF   x8A
06C98:  MOVLB  0
06C9A:  CALL   1A74
....................                displayContrasena(Contrasena[1],40,30,0); 
06C9E:  MOVFF  5E6,787
06CA2:  MOVLW  28
06CA4:  MOVLB  7
06CA6:  MOVWF  x88
06CA8:  MOVLW  1E
06CAA:  MOVWF  x89
06CAC:  CLRF   x8A
06CAE:  MOVLB  0
06CB0:  CALL   1A74
....................                displayContrasena(Contrasena[2],60,30,1); 
06CB4:  MOVFF  5E7,787
06CB8:  MOVLW  3C
06CBA:  MOVLB  7
06CBC:  MOVWF  x88
06CBE:  MOVLW  1E
06CC0:  MOVWF  x89
06CC2:  MOVLW  01
06CC4:  MOVWF  x8A
06CC6:  MOVLB  0
06CC8:  CALL   1A74
....................                displayContrasena(Contrasena[3],80,30,0); 
06CCC:  MOVFF  5E8,787
06CD0:  MOVLW  50
06CD2:  MOVLB  7
06CD4:  MOVWF  x88
06CD6:  MOVLW  1E
06CD8:  MOVWF  x89
06CDA:  CLRF   x8A
06CDC:  MOVLB  0
06CDE:  CALL   1A74
....................             } 
06CE2:  BRA    6D46
06CE4:  MOVLB  5
....................             else 
....................             { 
....................                if(unidad==4) 
06CE6:  MOVF   x9F,W
06CE8:  SUBLW  04
06CEA:  BNZ   6D48
....................                { 
....................                   displayContrasena(Contrasena[0],20,30,0); 
06CEC:  MOVFF  5E5,787
06CF0:  MOVLW  14
06CF2:  MOVLB  7
06CF4:  MOVWF  x88
06CF6:  MOVLW  1E
06CF8:  MOVWF  x89
06CFA:  CLRF   x8A
06CFC:  MOVLB  0
06CFE:  CALL   1A74
....................                   displayContrasena(Contrasena[1],40,30,0); 
06D02:  MOVFF  5E6,787
06D06:  MOVLW  28
06D08:  MOVLB  7
06D0A:  MOVWF  x88
06D0C:  MOVLW  1E
06D0E:  MOVWF  x89
06D10:  CLRF   x8A
06D12:  MOVLB  0
06D14:  CALL   1A74
....................                   displayContrasena(Contrasena[2],60,30,0); 
06D18:  MOVFF  5E7,787
06D1C:  MOVLW  3C
06D1E:  MOVLB  7
06D20:  MOVWF  x88
06D22:  MOVLW  1E
06D24:  MOVWF  x89
06D26:  CLRF   x8A
06D28:  MOVLB  0
06D2A:  CALL   1A74
....................                   displayContrasena(Contrasena[3],80,30,1); 
06D2E:  MOVFF  5E8,787
06D32:  MOVLW  50
06D34:  MOVLB  7
06D36:  MOVWF  x88
06D38:  MOVLW  1E
06D3A:  MOVWF  x89
06D3C:  MOVLW  01
06D3E:  MOVWF  x8A
06D40:  MOVLB  0
06D42:  CALL   1A74
06D46:  MOVLB  5
....................                } 
....................             } 
....................          } 
....................       } 
....................        
....................       if(UP)//Si oprime hacia arriba 
06D48:  BSF    F92.5
06D4A:  BTFSS  F80.5
06D4C:  BRA    6DC2
....................       { 
....................          Buzz_on;delay_ms(10);Buzz_off; 
06D4E:  BSF    F8B.7
06D50:  BCF    F94.7
06D52:  MOVLW  0A
06D54:  MOVLB  7
06D56:  MOVWF  x8B
06D58:  MOVLB  0
06D5A:  CALL   1166
06D5E:  BCF    F8B.7
06D60:  BCF    F94.7
....................          delay_ms(30); 
06D62:  MOVLW  1E
06D64:  MOVLB  7
06D66:  MOVWF  x8B
06D68:  MOVLB  0
06D6A:  CALL   1166
....................          for(i=1;i<=4;i++) 
06D6E:  MOVLW  01
06D70:  MOVLB  5
06D72:  MOVWF  xA0
06D74:  MOVF   xA0,W
06D76:  SUBLW  04
06D78:  BNC   6DC2
....................          { 
....................             if(unidad==i) 
06D7A:  MOVF   xA0,W
06D7C:  SUBWF  x9F,W
06D7E:  BNZ   6DBE
....................             { 
....................                Contrasena[i-1]++; 
06D80:  MOVLW  01
06D82:  SUBWF  xA0,W
06D84:  CLRF   03
06D86:  ADDLW  E5
06D88:  MOVWF  FE9
06D8A:  MOVLW  05
06D8C:  ADDWFC 03,W
06D8E:  MOVWF  FEA
06D90:  INCF   FEF,F
....................                if(Contrasena[i-1]>9)    
06D92:  MOVLW  01
06D94:  SUBWF  xA0,W
06D96:  CLRF   03
06D98:  ADDLW  E5
06D9A:  MOVWF  FE9
06D9C:  MOVLW  05
06D9E:  ADDWFC 03,W
06DA0:  MOVWF  FEA
06DA2:  BTFSC  FEF.7
06DA4:  BRA    6DBE
06DA6:  MOVF   FEF,W
06DA8:  SUBLW  09
06DAA:  BC    6DBE
....................                { 
....................                   Contrasena[i-1]=0; 
06DAC:  MOVLW  01
06DAE:  SUBWF  xA0,W
06DB0:  CLRF   03
06DB2:  ADDLW  E5
06DB4:  MOVWF  FE9
06DB6:  MOVLW  05
06DB8:  ADDWFC 03,W
06DBA:  MOVWF  FEA
06DBC:  CLRF   FEF
....................                } 
....................             } 
06DBE:  INCF   xA0,F
06DC0:  BRA    6D74
....................          } 
....................       } 
....................              
....................       if(DOWN)//Si oprime hacia abajo 
06DC2:  BSF    F96.0
06DC4:  BTFSS  F84.0
06DC6:  BRA    6E38
....................       { 
....................          Buzz_on;delay_ms(10);Buzz_off; 
06DC8:  BSF    F8B.7
06DCA:  BCF    F94.7
06DCC:  MOVLW  0A
06DCE:  MOVLB  7
06DD0:  MOVWF  x8B
06DD2:  MOVLB  0
06DD4:  CALL   1166
06DD8:  BCF    F8B.7
06DDA:  BCF    F94.7
....................          delay_ms(30); 
06DDC:  MOVLW  1E
06DDE:  MOVLB  7
06DE0:  MOVWF  x8B
06DE2:  MOVLB  0
06DE4:  CALL   1166
....................          for(i=1;i<=4;i++) 
06DE8:  MOVLW  01
06DEA:  MOVLB  5
06DEC:  MOVWF  xA0
06DEE:  MOVF   xA0,W
06DF0:  SUBLW  04
06DF2:  BNC   6E38
....................          { 
....................             if(unidad==i) 
06DF4:  MOVF   xA0,W
06DF6:  SUBWF  x9F,W
06DF8:  BNZ   6E34
....................             {Contrasena[i-1]--;  
06DFA:  MOVLW  01
06DFC:  SUBWF  xA0,W
06DFE:  CLRF   03
06E00:  ADDLW  E5
06E02:  MOVWF  FE9
06E04:  MOVLW  05
06E06:  ADDWFC 03,W
06E08:  MOVWF  FEA
06E0A:  DECF   FEF,F
....................             if(Contrasena[i-1]<0) 
06E0C:  MOVLW  01
06E0E:  SUBWF  xA0,W
06E10:  CLRF   03
06E12:  ADDLW  E5
06E14:  MOVWF  FE9
06E16:  MOVLW  05
06E18:  ADDWFC 03,W
06E1A:  MOVWF  FEA
06E1C:  BTFSS  FEF.7
06E1E:  BRA    6E34
....................             {Contrasena[i-1]=9;} 
06E20:  MOVLW  01
06E22:  SUBWF  xA0,W
06E24:  CLRF   03
06E26:  ADDLW  E5
06E28:  MOVWF  FE9
06E2A:  MOVLW  05
06E2C:  ADDWFC 03,W
06E2E:  MOVWF  FEA
06E30:  MOVLW  09
06E32:  MOVWF  FEF
....................             } 
06E34:  INCF   xA0,F
06E36:  BRA    6DEE
....................          }   
....................       } 
....................              
....................       if(RIGHT)//Si oprime RIGHT 
06E38:  BSF    F96.1
06E3A:  BTFSS  F84.1
06E3C:  BRA    6E62
....................       { 
....................          Buzz_on;delay_ms(10);Buzz_off;delay_ms(30);unidad++; 
06E3E:  BSF    F8B.7
06E40:  BCF    F94.7
06E42:  MOVLW  0A
06E44:  MOVLB  7
06E46:  MOVWF  x8B
06E48:  MOVLB  0
06E4A:  CALL   1166
06E4E:  BCF    F8B.7
06E50:  BCF    F94.7
06E52:  MOVLW  1E
06E54:  MOVLB  7
06E56:  MOVWF  x8B
06E58:  MOVLB  0
06E5A:  CALL   1166
06E5E:  MOVLB  5
06E60:  INCF   x9F,F
....................       } 
....................        
....................       if(LEFT)//Si oprime Izquierda 
06E62:  BSF    F96.2
06E64:  BTFSS  F84.2
06E66:  BRA    6EA4
....................       { 
....................          Buzz_on;delay_ms(10);Buzz_off;delay_ms(700);Menu=1;glcd_fillscreen(OFF); 
06E68:  BSF    F8B.7
06E6A:  BCF    F94.7
06E6C:  MOVLW  0A
06E6E:  MOVLB  7
06E70:  MOVWF  x8B
06E72:  MOVLB  0
06E74:  CALL   1166
06E78:  BCF    F8B.7
06E7A:  BCF    F94.7
06E7C:  MOVLW  04
06E7E:  MOVLB  7
06E80:  MOVWF  x85
06E82:  MOVLW  AF
06E84:  MOVWF  x8B
06E86:  MOVLB  0
06E88:  CALL   1166
06E8C:  MOVLB  7
06E8E:  DECFSZ x85,F
06E90:  BRA    6E82
06E92:  MOVLW  01
06E94:  MOVLB  5
06E96:  MOVWF  x9E
06E98:  MOVLB  7
06E9A:  CLRF   x86
06E9C:  MOVLB  0
06E9E:  CALL   123E
06EA2:  MOVLB  5
....................       } 
....................        
....................       if(unidad>4) 
06EA4:  MOVF   x9F,W
06EA6:  SUBLW  04
06EA8:  BTFSC  FD8.0
06EAA:  BRA    7028
....................       {glcd_fillScreen(OFF); 
06EAC:  MOVLB  7
06EAE:  CLRF   x86
06EB0:  MOVLB  0
06EB2:  CALL   123E
....................           
....................          if((Contrasena[0]==Password[0])&&(Contrasena[1]==Password[1])&&(Contrasena[2]==Password[2])&&(Contrasena[3]==Password[3])) 
06EB6:  MOVLB  5
06EB8:  MOVF   xE9,W
06EBA:  SUBWF  xE5,W
06EBC:  BNZ   6F7A
06EBE:  MOVF   xEA,W
06EC0:  SUBWF  xE6,W
06EC2:  BNZ   6F7A
06EC4:  MOVF   xEB,W
06EC6:  SUBWF  xE7,W
06EC8:  BNZ   6F7A
06ECA:  MOVF   xEC,W
06ECC:  SUBWF  xE8,W
06ECE:  BNZ   6F7A
....................          { 
....................             glcd_fillScreen(OFF); 
06ED0:  MOVLB  7
06ED2:  CLRF   x86
06ED4:  MOVLB  0
06ED6:  CALL   123E
....................             strcpy(Menus.Letra,"Clave"); 
06EDA:  MOVLW  07
06EDC:  MOVWF  FEA
06EDE:  MOVLW  61
06EE0:  MOVWF  FE9
06EE2:  MOVLW  00
06EE4:  CALL   0814
06EE8:  TBLRD*-
06EEA:  TBLRD*+
06EEC:  MOVF   FF5,W
06EEE:  MOVWF  FEE
06EF0:  IORLW  00
06EF2:  BNZ   6EEA
....................             displayMenu(Menus.Letra,30,0,0,2); 
06EF4:  MOVLW  07
06EF6:  MOVLB  7
06EF8:  MOVWF  x89
06EFA:  MOVLW  61
06EFC:  MOVWF  x88
06EFE:  MOVLW  1E
06F00:  MOVWF  x8A
06F02:  CLRF   x8B
06F04:  CLRF   x8C
06F06:  MOVLW  02
06F08:  MOVWF  x8D
06F0A:  MOVLB  0
06F0C:  CALL   1842
....................             strcpy(Menus.Letra,"Correcta"); 
06F10:  MOVLW  07
06F12:  MOVWF  FEA
06F14:  MOVLW  61
06F16:  MOVWF  FE9
06F18:  MOVLW  00
06F1A:  CALL   082E
06F1E:  TBLRD*-
06F20:  TBLRD*+
06F22:  MOVF   FF5,W
06F24:  MOVWF  FEE
06F26:  IORLW  00
06F28:  BNZ   6F20
....................             displayMenu(Menus.Letra,15,30,0,2); 
06F2A:  MOVLW  07
06F2C:  MOVLB  7
06F2E:  MOVWF  x89
06F30:  MOVLW  61
06F32:  MOVWF  x88
06F34:  MOVLW  0F
06F36:  MOVWF  x8A
06F38:  MOVLW  1E
06F3A:  MOVWF  x8B
06F3C:  CLRF   x8C
06F3E:  MOVLW  02
06F40:  MOVWF  x8D
06F42:  MOVLB  0
06F44:  CALL   1842
....................             Menu=91;glcd_update();delay_ms(1000); 
06F48:  MOVLW  5B
06F4A:  MOVLB  5
06F4C:  MOVWF  x9E
06F4E:  MOVLB  0
06F50:  CALL   1298
06F54:  MOVLW  04
06F56:  MOVLB  7
06F58:  MOVWF  x85
06F5A:  MOVLW  FA
06F5C:  MOVWF  x8B
06F5E:  MOVLB  0
06F60:  CALL   1166
06F64:  MOVLB  7
06F66:  DECFSZ x85,F
06F68:  BRA    6F5A
....................             glcd_fillScreen(OFF);unidad=1; 
06F6A:  CLRF   x86
06F6C:  MOVLB  0
06F6E:  CALL   123E
06F72:  MOVLW  01
06F74:  MOVLB  5
06F76:  MOVWF  x9F
....................          }// Esta parte se puede agregar en el Menu 1 dependiendo de la ubicacin del vidrio. 
06F78:  BRA    7028
....................          else 
....................          { 
....................             glcd_fillScreen(OFF); 
06F7A:  MOVLB  7
06F7C:  CLRF   x86
06F7E:  MOVLB  0
06F80:  CALL   123E
....................             strcpy(Menus.Letra,"Clave"); 
06F84:  MOVLW  07
06F86:  MOVWF  FEA
06F88:  MOVLW  61
06F8A:  MOVWF  FE9
06F8C:  MOVLW  00
06F8E:  CALL   0814
06F92:  TBLRD*-
06F94:  TBLRD*+
06F96:  MOVF   FF5,W
06F98:  MOVWF  FEE
06F9A:  IORLW  00
06F9C:  BNZ   6F94
....................             displayMenu(Menus.Letra,30,0,0,2); 
06F9E:  MOVLW  07
06FA0:  MOVLB  7
06FA2:  MOVWF  x89
06FA4:  MOVLW  61
06FA6:  MOVWF  x88
06FA8:  MOVLW  1E
06FAA:  MOVWF  x8A
06FAC:  CLRF   x8B
06FAE:  CLRF   x8C
06FB0:  MOVLW  02
06FB2:  MOVWF  x8D
06FB4:  MOVLB  0
06FB6:  CALL   1842
....................             strcpy(Menus.Letra,"Incorrecta"); 
06FBA:  MOVLW  07
06FBC:  MOVWF  FEA
06FBE:  MOVLW  61
06FC0:  MOVWF  FE9
06FC2:  MOVLW  00
06FC4:  CALL   084C
06FC8:  TBLRD*-
06FCA:  TBLRD*+
06FCC:  MOVF   FF5,W
06FCE:  MOVWF  FEE
06FD0:  IORLW  00
06FD2:  BNZ   6FCA
....................             displayMenu(Menus.Letra,0,30,0,2); 
06FD4:  MOVLW  07
06FD6:  MOVLB  7
06FD8:  MOVWF  x89
06FDA:  MOVLW  61
06FDC:  MOVWF  x88
06FDE:  CLRF   x8A
06FE0:  MOVLW  1E
06FE2:  MOVWF  x8B
06FE4:  CLRF   x8C
06FE6:  MOVLW  02
06FE8:  MOVWF  x8D
06FEA:  MOVLB  0
06FEC:  CALL   1842
....................             Menu=1;glcd_update();delay_ms(1000); 
06FF0:  MOVLW  01
06FF2:  MOVLB  5
06FF4:  MOVWF  x9E
06FF6:  MOVLB  0
06FF8:  CALL   1298
06FFC:  MOVLW  04
06FFE:  MOVLB  7
07000:  MOVWF  x85
07002:  MOVLW  FA
07004:  MOVWF  x8B
07006:  MOVLB  0
07008:  CALL   1166
0700C:  MOVLB  7
0700E:  DECFSZ x85,F
07010:  BRA    7002
....................             glcd_fillScreen(OFF);unidad=1; 
07012:  CLRF   x86
07014:  MOVLB  0
07016:  CALL   123E
0701A:  MOVLW  01
0701C:  MOVLB  5
0701E:  MOVWF  x9F
....................             Contrasena[0]=0;Contrasena[1]=0;Contrasena[2]=0;Contrasena[3]=0; 
07020:  CLRF   xE5
07022:  CLRF   xE6
07024:  CLRF   xE7
07026:  CLRF   xE8
....................          } 
....................       } 
....................     }     
.................... //_--------------------------------------------------------------------------------------------------------------------------------------------------------     
....................  
.................... //_--------------------------------------------------------------------------------------------------------------------------------------------------------       
....................       if(Menu==91){ // Menu de Cambio de Contrasea 
07028:  MOVF   x9E,W
0702A:  SUBLW  5B
0702C:  BTFSS  FD8.2
0702E:  BRA    7458
....................          
....................       strcpy(Menus.Letra,"Clave Nueva"); 
07030:  MOVLW  07
07032:  MOVWF  FEA
07034:  MOVLW  61
07036:  MOVWF  FE9
07038:  MOVLW  00
0703A:  MOVLB  0
0703C:  CALL   0AE6
07040:  TBLRD*-
07042:  TBLRD*+
07044:  MOVF   FF5,W
07046:  MOVWF  FEE
07048:  IORLW  00
0704A:  BNZ   7042
....................       displayMenu(Menus.Letra,0,0,1,2);      
0704C:  MOVLW  07
0704E:  MOVLB  7
07050:  MOVWF  x89
07052:  MOVLW  61
07054:  MOVWF  x88
07056:  CLRF   x8A
07058:  CLRF   x8B
0705A:  MOVLW  01
0705C:  MOVWF  x8C
0705E:  MOVLW  02
07060:  MOVWF  x8D
07062:  MOVLB  0
07064:  CALL   1842
....................        
....................       if(unidad==1) 
07068:  MOVLB  5
0706A:  DECFSZ x9F,W
0706C:  BRA    70CC
....................       { 
....................          displayContrasena(Password[0],20,30,1); 
0706E:  MOVFF  5E9,787
07072:  MOVLW  14
07074:  MOVLB  7
07076:  MOVWF  x88
07078:  MOVLW  1E
0707A:  MOVWF  x89
0707C:  MOVLW  01
0707E:  MOVWF  x8A
07080:  MOVLB  0
07082:  CALL   1A74
....................          displayContrasena(Password[1],40,30,0); 
07086:  MOVFF  5EA,787
0708A:  MOVLW  28
0708C:  MOVLB  7
0708E:  MOVWF  x88
07090:  MOVLW  1E
07092:  MOVWF  x89
07094:  CLRF   x8A
07096:  MOVLB  0
07098:  CALL   1A74
....................          displayContrasena(Password[2],60,30,0); 
0709C:  MOVFF  5EB,787
070A0:  MOVLW  3C
070A2:  MOVLB  7
070A4:  MOVWF  x88
070A6:  MOVLW  1E
070A8:  MOVWF  x89
070AA:  CLRF   x8A
070AC:  MOVLB  0
070AE:  CALL   1A74
....................          displayContrasena(Password[3],80,30,0); 
070B2:  MOVFF  5EC,787
070B6:  MOVLW  50
070B8:  MOVLB  7
070BA:  MOVWF  x88
070BC:  MOVLW  1E
070BE:  MOVWF  x89
070C0:  CLRF   x8A
070C2:  MOVLB  0
070C4:  CALL   1A74
....................       } 
070C8:  BRA    71F4
070CA:  MOVLB  5
....................       else 
....................       { 
....................          if(unidad==2) 
070CC:  MOVF   x9F,W
070CE:  SUBLW  02
070D0:  BNZ   7130
....................          { 
....................             displayContrasena(Password[0],20,30,0); 
070D2:  MOVFF  5E9,787
070D6:  MOVLW  14
070D8:  MOVLB  7
070DA:  MOVWF  x88
070DC:  MOVLW  1E
070DE:  MOVWF  x89
070E0:  CLRF   x8A
070E2:  MOVLB  0
070E4:  CALL   1A74
....................             displayContrasena(Password[1],40,30,1); 
070E8:  MOVFF  5EA,787
070EC:  MOVLW  28
070EE:  MOVLB  7
070F0:  MOVWF  x88
070F2:  MOVLW  1E
070F4:  MOVWF  x89
070F6:  MOVLW  01
070F8:  MOVWF  x8A
070FA:  MOVLB  0
070FC:  CALL   1A74
....................             displayContrasena(Password[2],60,30,0); 
07100:  MOVFF  5EB,787
07104:  MOVLW  3C
07106:  MOVLB  7
07108:  MOVWF  x88
0710A:  MOVLW  1E
0710C:  MOVWF  x89
0710E:  CLRF   x8A
07110:  MOVLB  0
07112:  CALL   1A74
....................             displayContrasena(Password[3],80,30,0); 
07116:  MOVFF  5EC,787
0711A:  MOVLW  50
0711C:  MOVLB  7
0711E:  MOVWF  x88
07120:  MOVLW  1E
07122:  MOVWF  x89
07124:  CLRF   x8A
07126:  MOVLB  0
07128:  CALL   1A74
....................          } 
0712C:  BRA    71F4
0712E:  MOVLB  5
....................          else 
....................          { 
....................             if(unidad==3) 
07130:  MOVF   x9F,W
07132:  SUBLW  03
07134:  BNZ   7194
....................             { 
....................                displayContrasena(Password[0],20,30,0); 
07136:  MOVFF  5E9,787
0713A:  MOVLW  14
0713C:  MOVLB  7
0713E:  MOVWF  x88
07140:  MOVLW  1E
07142:  MOVWF  x89
07144:  CLRF   x8A
07146:  MOVLB  0
07148:  CALL   1A74
....................                displayContrasena(Password[1],40,30,0); 
0714C:  MOVFF  5EA,787
07150:  MOVLW  28
07152:  MOVLB  7
07154:  MOVWF  x88
07156:  MOVLW  1E
07158:  MOVWF  x89
0715A:  CLRF   x8A
0715C:  MOVLB  0
0715E:  CALL   1A74
....................                displayContrasena(Password[2],60,30,1); 
07162:  MOVFF  5EB,787
07166:  MOVLW  3C
07168:  MOVLB  7
0716A:  MOVWF  x88
0716C:  MOVLW  1E
0716E:  MOVWF  x89
07170:  MOVLW  01
07172:  MOVWF  x8A
07174:  MOVLB  0
07176:  CALL   1A74
....................                displayContrasena(Password[3],80,30,0); 
0717A:  MOVFF  5EC,787
0717E:  MOVLW  50
07180:  MOVLB  7
07182:  MOVWF  x88
07184:  MOVLW  1E
07186:  MOVWF  x89
07188:  CLRF   x8A
0718A:  MOVLB  0
0718C:  CALL   1A74
....................             } 
07190:  BRA    71F4
07192:  MOVLB  5
....................             else 
....................             { 
....................                if(unidad==4) 
07194:  MOVF   x9F,W
07196:  SUBLW  04
07198:  BNZ   71F6
....................                { 
....................                   displayContrasena(Password[0],20,30,0); 
0719A:  MOVFF  5E9,787
0719E:  MOVLW  14
071A0:  MOVLB  7
071A2:  MOVWF  x88
071A4:  MOVLW  1E
071A6:  MOVWF  x89
071A8:  CLRF   x8A
071AA:  MOVLB  0
071AC:  CALL   1A74
....................                   displayContrasena(Password[1],40,30,0); 
071B0:  MOVFF  5EA,787
071B4:  MOVLW  28
071B6:  MOVLB  7
071B8:  MOVWF  x88
071BA:  MOVLW  1E
071BC:  MOVWF  x89
071BE:  CLRF   x8A
071C0:  MOVLB  0
071C2:  CALL   1A74
....................                   displayContrasena(Password[2],60,30,0); 
071C6:  MOVFF  5EB,787
071CA:  MOVLW  3C
071CC:  MOVLB  7
071CE:  MOVWF  x88
071D0:  MOVLW  1E
071D2:  MOVWF  x89
071D4:  CLRF   x8A
071D6:  MOVLB  0
071D8:  CALL   1A74
....................                   displayContrasena(Password[3],80,30,1); 
071DC:  MOVFF  5EC,787
071E0:  MOVLW  50
071E2:  MOVLB  7
071E4:  MOVWF  x88
071E6:  MOVLW  1E
071E8:  MOVWF  x89
071EA:  MOVLW  01
071EC:  MOVWF  x8A
071EE:  MOVLB  0
071F0:  CALL   1A74
071F4:  MOVLB  5
....................                } 
....................             } 
....................          } 
....................       } 
....................        
....................       if(UP)//Si oprime hacia arriba 
071F6:  BSF    F92.5
071F8:  BTFSS  F80.5
071FA:  BRA    7270
....................       { 
....................          Buzz_on;delay_ms(10);Buzz_off; 
071FC:  BSF    F8B.7
071FE:  BCF    F94.7
07200:  MOVLW  0A
07202:  MOVLB  7
07204:  MOVWF  x8B
07206:  MOVLB  0
07208:  CALL   1166
0720C:  BCF    F8B.7
0720E:  BCF    F94.7
....................          delay_ms(30); 
07210:  MOVLW  1E
07212:  MOVLB  7
07214:  MOVWF  x8B
07216:  MOVLB  0
07218:  CALL   1166
....................          for(i=1;i<=4;i++) 
0721C:  MOVLW  01
0721E:  MOVLB  5
07220:  MOVWF  xA0
07222:  MOVF   xA0,W
07224:  SUBLW  04
07226:  BNC   7270
....................          { 
....................             if(unidad==i) 
07228:  MOVF   xA0,W
0722A:  SUBWF  x9F,W
0722C:  BNZ   726C
....................             { 
....................                Password[i-1]++; 
0722E:  MOVLW  01
07230:  SUBWF  xA0,W
07232:  CLRF   03
07234:  ADDLW  E9
07236:  MOVWF  FE9
07238:  MOVLW  05
0723A:  ADDWFC 03,W
0723C:  MOVWF  FEA
0723E:  INCF   FEF,F
....................                if(Password[i-1]>9)    
07240:  MOVLW  01
07242:  SUBWF  xA0,W
07244:  CLRF   03
07246:  ADDLW  E9
07248:  MOVWF  FE9
0724A:  MOVLW  05
0724C:  ADDWFC 03,W
0724E:  MOVWF  FEA
07250:  BTFSC  FEF.7
07252:  BRA    726C
07254:  MOVF   FEF,W
07256:  SUBLW  09
07258:  BC    726C
....................                { 
....................                   Password[i-1]=0; 
0725A:  MOVLW  01
0725C:  SUBWF  xA0,W
0725E:  CLRF   03
07260:  ADDLW  E9
07262:  MOVWF  FE9
07264:  MOVLW  05
07266:  ADDWFC 03,W
07268:  MOVWF  FEA
0726A:  CLRF   FEF
....................                } 
....................             } 
0726C:  INCF   xA0,F
0726E:  BRA    7222
....................          } 
....................       } 
....................              
....................       if(DOWN)//Si oprime hacia abajo 
07270:  BSF    F96.0
07272:  BTFSS  F84.0
07274:  BRA    72E6
....................       { 
....................          Buzz_on;delay_ms(10);Buzz_off; 
07276:  BSF    F8B.7
07278:  BCF    F94.7
0727A:  MOVLW  0A
0727C:  MOVLB  7
0727E:  MOVWF  x8B
07280:  MOVLB  0
07282:  CALL   1166
07286:  BCF    F8B.7
07288:  BCF    F94.7
....................          delay_ms(30); 
0728A:  MOVLW  1E
0728C:  MOVLB  7
0728E:  MOVWF  x8B
07290:  MOVLB  0
07292:  CALL   1166
....................          for(i=1;i<=4;i++) 
07296:  MOVLW  01
07298:  MOVLB  5
0729A:  MOVWF  xA0
0729C:  MOVF   xA0,W
0729E:  SUBLW  04
072A0:  BNC   72E6
....................             { 
....................                if(unidad==i) 
072A2:  MOVF   xA0,W
072A4:  SUBWF  x9F,W
072A6:  BNZ   72E2
....................                { 
....................                   Password[i-1]--; 
072A8:  MOVLW  01
072AA:  SUBWF  xA0,W
072AC:  CLRF   03
072AE:  ADDLW  E9
072B0:  MOVWF  FE9
072B2:  MOVLW  05
072B4:  ADDWFC 03,W
072B6:  MOVWF  FEA
072B8:  DECF   FEF,F
....................                   if(Password[i-1]<0) 
072BA:  MOVLW  01
072BC:  SUBWF  xA0,W
072BE:  CLRF   03
072C0:  ADDLW  E9
072C2:  MOVWF  FE9
072C4:  MOVLW  05
072C6:  ADDWFC 03,W
072C8:  MOVWF  FEA
072CA:  BTFSS  FEF.7
072CC:  BRA    72E2
....................                   { 
....................                      Password[i-1]=9; 
072CE:  MOVLW  01
072D0:  SUBWF  xA0,W
072D2:  CLRF   03
072D4:  ADDLW  E9
072D6:  MOVWF  FE9
072D8:  MOVLW  05
072DA:  ADDWFC 03,W
072DC:  MOVWF  FEA
072DE:  MOVLW  09
072E0:  MOVWF  FEF
....................                   } 
....................                } 
072E2:  INCF   xA0,F
072E4:  BRA    729C
....................             }        
....................       } 
....................              
....................       if(RIGHT)//Si oprime RIGHT 
072E6:  BSF    F96.1
072E8:  BTFSS  F84.1
072EA:  BRA    7310
....................       { 
....................          Buzz_on;delay_ms(10);Buzz_off;delay_ms(30);unidad++; 
072EC:  BSF    F8B.7
072EE:  BCF    F94.7
072F0:  MOVLW  0A
072F2:  MOVLB  7
072F4:  MOVWF  x8B
072F6:  MOVLB  0
072F8:  CALL   1166
072FC:  BCF    F8B.7
072FE:  BCF    F94.7
07300:  MOVLW  1E
07302:  MOVLB  7
07304:  MOVWF  x8B
07306:  MOVLB  0
07308:  CALL   1166
0730C:  MOVLB  5
0730E:  INCF   x9F,F
....................       } 
....................        
....................       if(LEFT)//Si oprime Izquierda 
07310:  BSF    F96.2
07312:  BTFSS  F84.2
07314:  BRA    7352
....................       { 
....................          Buzz_on;delay_ms(10);Buzz_off;delay_ms(700);Menu=1;glcd_fillscreen(OFF); 
07316:  BSF    F8B.7
07318:  BCF    F94.7
0731A:  MOVLW  0A
0731C:  MOVLB  7
0731E:  MOVWF  x8B
07320:  MOVLB  0
07322:  CALL   1166
07326:  BCF    F8B.7
07328:  BCF    F94.7
0732A:  MOVLW  04
0732C:  MOVLB  7
0732E:  MOVWF  x85
07330:  MOVLW  AF
07332:  MOVWF  x8B
07334:  MOVLB  0
07336:  CALL   1166
0733A:  MOVLB  7
0733C:  DECFSZ x85,F
0733E:  BRA    7330
07340:  MOVLW  01
07342:  MOVLB  5
07344:  MOVWF  x9E
07346:  MOVLB  7
07348:  CLRF   x86
0734A:  MOVLB  0
0734C:  CALL   123E
07350:  MOVLB  5
....................       } 
....................        
....................       if(unidad>4) 
07352:  MOVF   x9F,W
07354:  SUBLW  04
07356:  BTFSC  FD8.0
07358:  BRA    7458
....................       { 
....................          Opcion=1;unidad=1; 
0735A:  MOVLW  01
0735C:  MOVWF  xA5
0735E:  MOVWF  x9F
....................          write_eeprom(10,Password[0]); 
07360:  MOVF   FF2,W
07362:  MOVWF  00
07364:  BCF    FF2.7
07366:  CLRF   FAA
07368:  MOVLW  0A
0736A:  MOVWF  FA9
0736C:  MOVFF  5E9,FA8
07370:  BCF    FA6.6
07372:  BCF    FA6.7
07374:  BSF    FA6.2
07376:  MOVLB  F
07378:  MOVLW  55
0737A:  MOVWF  FA7
0737C:  MOVLW  AA
0737E:  MOVWF  FA7
07380:  BSF    FA6.1
07382:  BTFSC  FA6.1
07384:  BRA    7382
07386:  BCF    FA6.2
07388:  MOVF   00,W
0738A:  IORWF  FF2,F
....................          delay_ms(50);    
0738C:  MOVLW  32
0738E:  MOVLB  7
07390:  MOVWF  x8B
07392:  MOVLB  0
07394:  CALL   1166
....................          write_eeprom(11,Password[1]); 
07398:  MOVF   FF2,W
0739A:  MOVWF  00
0739C:  BCF    FF2.7
0739E:  CLRF   FAA
073A0:  MOVLW  0B
073A2:  MOVWF  FA9
073A4:  MOVFF  5EA,FA8
073A8:  BCF    FA6.6
073AA:  BCF    FA6.7
073AC:  BSF    FA6.2
073AE:  MOVLB  F
073B0:  MOVLW  55
073B2:  MOVWF  FA7
073B4:  MOVLW  AA
073B6:  MOVWF  FA7
073B8:  BSF    FA6.1
073BA:  BTFSC  FA6.1
073BC:  BRA    73BA
073BE:  BCF    FA6.2
073C0:  MOVF   00,W
073C2:  IORWF  FF2,F
....................          delay_ms(50);    
073C4:  MOVLW  32
073C6:  MOVLB  7
073C8:  MOVWF  x8B
073CA:  MOVLB  0
073CC:  CALL   1166
....................          write_eeprom(12,Password[2]); 
073D0:  MOVF   FF2,W
073D2:  MOVWF  00
073D4:  BCF    FF2.7
073D6:  CLRF   FAA
073D8:  MOVLW  0C
073DA:  MOVWF  FA9
073DC:  MOVFF  5EB,FA8
073E0:  BCF    FA6.6
073E2:  BCF    FA6.7
073E4:  BSF    FA6.2
073E6:  MOVLB  F
073E8:  MOVLW  55
073EA:  MOVWF  FA7
073EC:  MOVLW  AA
073EE:  MOVWF  FA7
073F0:  BSF    FA6.1
073F2:  BTFSC  FA6.1
073F4:  BRA    73F2
073F6:  BCF    FA6.2
073F8:  MOVF   00,W
073FA:  IORWF  FF2,F
....................          delay_ms(50);    
073FC:  MOVLW  32
073FE:  MOVLB  7
07400:  MOVWF  x8B
07402:  MOVLB  0
07404:  CALL   1166
....................          write_eeprom(13,Password[3]); 
07408:  MOVF   FF2,W
0740A:  MOVWF  00
0740C:  BCF    FF2.7
0740E:  CLRF   FAA
07410:  MOVLW  0D
07412:  MOVWF  FA9
07414:  MOVFF  5EC,FA8
07418:  BCF    FA6.6
0741A:  BCF    FA6.7
0741C:  BSF    FA6.2
0741E:  MOVLB  F
07420:  MOVLW  55
07422:  MOVWF  FA7
07424:  MOVLW  AA
07426:  MOVWF  FA7
07428:  BSF    FA6.1
0742A:  BTFSC  FA6.1
0742C:  BRA    742A
0742E:  BCF    FA6.2
07430:  MOVF   00,W
07432:  IORWF  FF2,F
....................          delay_ms(1000);glcd_fillScreen(OFF);Menu=1; 
07434:  MOVLW  04
07436:  MOVLB  7
07438:  MOVWF  x85
0743A:  MOVLW  FA
0743C:  MOVWF  x8B
0743E:  MOVLB  0
07440:  CALL   1166
07444:  MOVLB  7
07446:  DECFSZ x85,F
07448:  BRA    743A
0744A:  CLRF   x86
0744C:  MOVLB  0
0744E:  CALL   123E
07452:  MOVLW  01
07454:  MOVLB  5
07456:  MOVWF  x9E
....................       } 
....................     }     
.................... //_--------------------------------------------------------------------------------------------------------------------------------------------------------     
....................  
.................... //_-------------------------------------------------------------------------------------------------------------------------------------------------------- 
....................       if(Menu>10 && Menu<16){ //Menu Editar Programa 01, Programa 02, Programa 03, Programa 04 y Programa 05 
07458:  MOVF   x9E,W
0745A:  SUBLW  0A
0745C:  BTFSC  FD8.0
0745E:  BRA    7752
07460:  MOVF   x9E,W
07462:  SUBLW  0F
07464:  BTFSS  FD8.0
07466:  BRA    7752
....................        
....................          if(Opcion>3) 
07468:  MOVF   xA5,W
0746A:  SUBLW  03
0746C:  BC    747A
....................          { 
....................             Opcion=1; 
0746E:  MOVLW  01
07470:  MOVWF  xA5
....................             if(i<9){ 
07472:  MOVF   xA0,W
07474:  SUBLW  08
07476:  BNC   747A
....................                i++;   
07478:  INCF   xA0,F
....................             } 
....................          } 
....................           
....................          if(Opcion<1) 
0747A:  MOVF   xA5,F
0747C:  BNZ   7488
....................          { 
....................             if(i>0) 
0747E:  MOVF   xA0,F
07480:  BZ    7484
....................                i--; 
07482:  DECF   xA0,F
....................                 
....................             Opcion=3; 
07484:  MOVLW  03
07486:  MOVWF  xA5
....................          } 
....................           
....................          if(Menu==11) 
07488:  MOVF   x9E,W
0748A:  SUBLW  0B
0748C:  BNZ   7492
....................             Programa=1; 
0748E:  MOVLW  01
07490:  MOVWF  x9C
....................           
....................          if(Menu==12) 
07492:  MOVF   x9E,W
07494:  SUBLW  0C
07496:  BNZ   749C
....................             Programa=2; 
07498:  MOVLW  02
0749A:  MOVWF  x9C
....................              
....................          if(Menu==13) 
0749C:  MOVF   x9E,W
0749E:  SUBLW  0D
074A0:  BNZ   74A6
....................             Programa=3; 
074A2:  MOVLW  03
074A4:  MOVWF  x9C
....................              
....................          if(Menu==14) 
074A6:  MOVF   x9E,W
074A8:  SUBLW  0E
074AA:  BNZ   74B0
....................             Programa=4; 
074AC:  MOVLW  04
074AE:  MOVWF  x9C
....................              
....................          if(Menu==15) 
074B0:  MOVF   x9E,W
074B2:  SUBLW  0F
074B4:  BNZ   74BA
....................             Programa=5;    
074B6:  MOVLW  05
074B8:  MOVWF  x9C
....................           
....................          MuestraSegmento(Opcion,i,Programa); 
074BA:  MOVFF  5A5,785
074BE:  MOVFF  5A0,786
074C2:  MOVFF  59C,787
074C6:  MOVLB  0
074C8:  GOTO   2F16
....................           
....................          if(RIGHT && LEFT){ 
074CC:  BSF    F96.1
074CE:  BTFSS  F84.1
074D0:  BRA    7700
074D2:  BSF    F96.2
074D4:  BTFSS  F84.2
074D6:  BRA    7700
....................             Buzz_on;Menu=5;Opcion=1;glcd_fillscreen(OFF);delay_ms(500);Buzz_off; 
074D8:  BSF    F8B.7
074DA:  BCF    F94.7
074DC:  MOVLW  05
074DE:  MOVLB  5
074E0:  MOVWF  x9E
074E2:  MOVLW  01
074E4:  MOVWF  xA5
074E6:  MOVLB  7
074E8:  CLRF   x86
074EA:  MOVLB  0
074EC:  CALL   123E
074F0:  MOVLW  02
074F2:  MOVLB  7
074F4:  MOVWF  x85
074F6:  MOVLW  FA
074F8:  MOVWF  x8B
074FA:  MOVLB  0
074FC:  CALL   1166
07500:  MOVLB  7
07502:  DECFSZ x85,F
07504:  BRA    74F6
07506:  BCF    F8B.7
07508:  BCF    F94.7
....................              
....................             for(i=0;i<10;i++){ 
0750A:  MOVLB  5
0750C:  CLRF   xA0
0750E:  MOVF   xA0,W
07510:  SUBLW  09
07512:  BTFSS  FD8.0
07514:  BRA    76FE
....................                delay_ms(10);     
07516:  MOVLW  0A
07518:  MOVLB  7
0751A:  MOVWF  x8B
0751C:  MOVLB  0
0751E:  CALL   1166
....................                write_eeprom((i*2)+(40*(Programa-1)),make8(Temperatura1[i+((Programa-1)*10)],0)); 
07522:  BCF    FD8.0
07524:  MOVLB  5
07526:  RLCF   xA0,W
07528:  MOVLB  7
0752A:  MOVWF  x85
0752C:  MOVLW  01
0752E:  MOVLB  5
07530:  SUBWF  x9C,W
07532:  MULLW  28
07534:  MOVF   FF3,W
07536:  MOVLB  7
07538:  ADDWF  x85,F
0753A:  MOVLW  01
0753C:  MOVLB  5
0753E:  SUBWF  x9C,W
07540:  MULLW  0A
07542:  MOVF   FF3,W
07544:  ADDWF  xA0,W
07546:  MOVWF  00
07548:  BCF    FD8.0
0754A:  RLCF   00,F
0754C:  MOVF   00,W
0754E:  CLRF   03
07550:  ADDLW  35
07552:  MOVWF  FE9
07554:  MOVLW  06
07556:  ADDWFC 03,W
07558:  MOVWF  FEA
0755A:  MOVFF  FEC,787
0755E:  MOVF   FED,F
07560:  MOVFF  FEF,786
07564:  MOVFF  786,788
07568:  MOVF   FF2,W
0756A:  MOVWF  00
0756C:  BCF    FF2.7
0756E:  CLRF   FAA
07570:  MOVFF  785,FA9
07574:  MOVFF  788,FA8
07578:  BCF    FA6.6
0757A:  BCF    FA6.7
0757C:  BSF    FA6.2
0757E:  MOVLB  F
07580:  MOVLW  55
07582:  MOVWF  FA7
07584:  MOVLW  AA
07586:  MOVWF  FA7
07588:  BSF    FA6.1
0758A:  BTFSC  FA6.1
0758C:  BRA    758A
0758E:  BCF    FA6.2
07590:  MOVF   00,W
07592:  IORWF  FF2,F
....................                delay_ms(10);     
07594:  MOVLW  0A
07596:  MOVLB  7
07598:  MOVWF  x8B
0759A:  MOVLB  0
0759C:  CALL   1166
....................                write_eeprom((i*2)+1+(40*(Programa-1)),make8(Temperatura1[i+((Programa-1)*10)],1)); 
075A0:  BCF    FD8.0
075A2:  MOVLB  5
075A4:  RLCF   xA0,W
075A6:  ADDLW  01
075A8:  MOVLB  7
075AA:  MOVWF  x85
075AC:  MOVLW  01
075AE:  MOVLB  5
075B0:  SUBWF  x9C,W
075B2:  MULLW  28
075B4:  MOVF   FF3,W
075B6:  MOVLB  7
075B8:  ADDWF  x85,F
075BA:  MOVLW  01
075BC:  MOVLB  5
075BE:  SUBWF  x9C,W
075C0:  MULLW  0A
075C2:  MOVF   FF3,W
075C4:  ADDWF  xA0,W
075C6:  MOVWF  00
075C8:  BCF    FD8.0
075CA:  RLCF   00,F
075CC:  MOVF   00,W
075CE:  CLRF   03
075D0:  ADDLW  35
075D2:  MOVWF  FE9
075D4:  MOVLW  06
075D6:  ADDWFC 03,W
075D8:  MOVWF  FEA
075DA:  MOVFF  FEC,787
075DE:  MOVF   FED,F
075E0:  MOVFF  FEF,786
075E4:  MOVFF  787,788
075E8:  MOVF   FF2,W
075EA:  MOVWF  00
075EC:  BCF    FF2.7
075EE:  CLRF   FAA
075F0:  MOVFF  785,FA9
075F4:  MOVFF  788,FA8
075F8:  BCF    FA6.6
075FA:  BCF    FA6.7
075FC:  BSF    FA6.2
075FE:  MOVLB  F
07600:  MOVLW  55
07602:  MOVWF  FA7
07604:  MOVLW  AA
07606:  MOVWF  FA7
07608:  BSF    FA6.1
0760A:  BTFSC  FA6.1
0760C:  BRA    760A
0760E:  BCF    FA6.2
07610:  MOVF   00,W
07612:  IORWF  FF2,F
....................                delay_ms(10);     
07614:  MOVLW  0A
07616:  MOVLB  7
07618:  MOVWF  x8B
0761A:  MOVLB  0
0761C:  CALL   1166
....................                write_eeprom(i+((40*Programa)-20),Horas1[i+((Programa-1)*10)]); 
07620:  MOVLB  5
07622:  MOVF   x9C,W
07624:  MULLW  28
07626:  MOVF   FF3,W
07628:  ADDLW  EC
0762A:  ADDWF  xA0,W
0762C:  MOVLB  7
0762E:  MOVWF  x85
07630:  MOVLW  01
07632:  MOVLB  5
07634:  SUBWF  x9C,W
07636:  MULLW  0A
07638:  MOVF   FF3,W
0763A:  ADDWF  xA0,W
0763C:  MOVWF  00
0763E:  BCF    FD8.0
07640:  RLCF   00,F
07642:  MOVF   00,W
07644:  CLRF   03
07646:  ADDLW  99
07648:  MOVWF  FE9
0764A:  MOVLW  06
0764C:  ADDWFC 03,W
0764E:  MOVWF  FEA
07650:  MOVFF  FEC,787
07654:  MOVF   FED,F
07656:  MOVFF  FEF,786
0765A:  MOVF   FF2,W
0765C:  MOVWF  00
0765E:  BCF    FF2.7
07660:  CLRF   FAA
07662:  MOVFF  785,FA9
07666:  MOVFF  786,FA8
0766A:  BCF    FA6.6
0766C:  BCF    FA6.7
0766E:  BSF    FA6.2
07670:  MOVLB  F
07672:  MOVLW  55
07674:  MOVWF  FA7
07676:  MOVLW  AA
07678:  MOVWF  FA7
0767A:  BSF    FA6.1
0767C:  BTFSC  FA6.1
0767E:  BRA    767C
07680:  BCF    FA6.2
07682:  MOVF   00,W
07684:  IORWF  FF2,F
....................                delay_ms(10);     
07686:  MOVLW  0A
07688:  MOVLB  7
0768A:  MOVWF  x8B
0768C:  MOVLB  0
0768E:  CALL   1166
....................                write_eeprom(i+((40*Programa)-10),Minutos1[i+((Programa-1)*10)]); 
07692:  MOVLB  5
07694:  MOVF   x9C,W
07696:  MULLW  28
07698:  MOVF   FF3,W
0769A:  ADDLW  F6
0769C:  ADDWF  xA0,W
0769E:  MOVLB  7
076A0:  MOVWF  x85
076A2:  MOVLW  01
076A4:  MOVLB  5
076A6:  SUBWF  x9C,W
076A8:  MULLW  0A
076AA:  MOVF   FF3,W
076AC:  ADDWF  xA0,W
076AE:  MOVWF  00
076B0:  BCF    FD8.0
076B2:  RLCF   00,F
076B4:  MOVF   00,W
076B6:  CLRF   03
076B8:  ADDLW  FD
076BA:  MOVWF  FE9
076BC:  MOVLW  06
076BE:  ADDWFC 03,W
076C0:  MOVWF  FEA
076C2:  MOVFF  FEC,787
076C6:  MOVF   FED,F
076C8:  MOVFF  FEF,786
076CC:  MOVF   FF2,W
076CE:  MOVWF  00
076D0:  BCF    FF2.7
076D2:  CLRF   FAA
076D4:  MOVFF  785,FA9
076D8:  MOVFF  786,FA8
076DC:  BCF    FA6.6
076DE:  BCF    FA6.7
076E0:  BSF    FA6.2
076E2:  MOVLB  F
076E4:  MOVLW  55
076E6:  MOVWF  FA7
076E8:  MOVLW  AA
076EA:  MOVWF  FA7
076EC:  BSF    FA6.1
076EE:  BTFSC  FA6.1
076F0:  BRA    76EE
076F2:  BCF    FA6.2
076F4:  MOVF   00,W
076F6:  IORWF  FF2,F
076F8:  MOVLB  5
076FA:  INCF   xA0,F
076FC:  BRA    750E
076FE:  MOVLB  0
....................             }  
....................          } 
....................           
....................          if(RIGHT)//Si oprime SET 
07700:  BSF    F96.1
07702:  BTFSS  F84.1
07704:  BRA    7728
....................          {  
....................             Buzz_on;delay_ms(50);Opcion++;glcd_fillscreen(OFF);Buzz_off; 
07706:  BSF    F8B.7
07708:  BCF    F94.7
0770A:  MOVLW  32
0770C:  MOVLB  7
0770E:  MOVWF  x8B
07710:  MOVLB  0
07712:  CALL   1166
07716:  MOVLB  5
07718:  INCF   xA5,F
0771A:  MOVLB  7
0771C:  CLRF   x86
0771E:  MOVLB  0
07720:  CALL   123E
07724:  BCF    F8B.7
07726:  BCF    F94.7
....................          } 
....................           
....................          if(LEFT){ 
07728:  BSF    F96.2
0772A:  BTFSS  F84.2
0772C:  BRA    7750
....................             Buzz_on;delay_ms(50);Opcion--;glcd_fillscreen(OFF);Buzz_off; 
0772E:  BSF    F8B.7
07730:  BCF    F94.7
07732:  MOVLW  32
07734:  MOVLB  7
07736:  MOVWF  x8B
07738:  MOVLB  0
0773A:  CALL   1166
0773E:  MOVLB  5
07740:  DECF   xA5,F
07742:  MOVLB  7
07744:  CLRF   x86
07746:  MOVLB  0
07748:  CALL   123E
0774C:  BCF    F8B.7
0774E:  BCF    F94.7
07750:  MOVLB  5
....................          } 
....................    } 
.................... //_--------------------------------------------------------------------------------------------------------------------------------------------------------        
....................  
.................... //_-------------------------------------------------------------------------------------------------------------------------------------------------------- 
....................       if(Menu==20){ //Menu de Funcionamiento 
07752:  MOVF   x9E,W
07754:  SUBLW  14
07756:  BTFSS  FD8.2
07758:  GOTO   909C
....................        
....................       // Muestra imagen de fondo en Display GLCD       
....................       glcd_imagen(5); 
0775C:  MOVLW  05
0775E:  MOVLB  7
07760:  MOVWF  x85
07762:  MOVLB  0
07764:  GOTO   3A4C
....................       flag_display=0; 
07768:  MOVLB  5
0776A:  BCF    x99.3
....................  
....................       if(UP && DOWN)//Si oprime hacia abajo 
0776C:  BSF    F92.5
0776E:  BTFSS  F80.5
07770:  BRA    7792
07772:  BSF    F96.0
07774:  BTFSS  F84.0
07776:  BRA    7792
....................       { 
....................          glcd_init(ON);delay_ms(200);//flag_display=!flag_display;          
07778:  MOVLW  01
0777A:  MOVLB  7
0777C:  MOVWF  x85
0777E:  MOVLB  0
07780:  CALL   1348
07784:  MOVLW  C8
07786:  MOVLB  7
07788:  MOVWF  x8B
0778A:  MOVLB  0
0778C:  CALL   1166
07790:  MOVLB  5
....................       } 
....................  
....................       if(Temperatura>1200 || Temperatura<0) 
07792:  MOVLB  7
07794:  CLRF   x88
07796:  CLRF   x87
07798:  MOVLW  16
0779A:  MOVWF  x86
0779C:  MOVLW  89
0779E:  MOVWF  x85
077A0:  MOVFF  620,78C
077A4:  MOVFF  61F,78B
077A8:  MOVFF  61E,78A
077AC:  MOVFF  61D,789
077B0:  MOVLB  0
077B2:  CALL   118E
077B6:  BC    77DA
077B8:  MOVFF  620,788
077BC:  MOVFF  61F,787
077C0:  MOVFF  61E,786
077C4:  MOVFF  61D,785
077C8:  MOVLB  7
077CA:  CLRF   x8C
077CC:  CLRF   x8B
077CE:  CLRF   x8A
077D0:  CLRF   x89
077D2:  MOVLB  0
077D4:  CALL   118E
077D8:  BNC   7870
....................       { 
....................          glcd_rect(0, 55, 127, 63, YES, OFF); 
077DA:  MOVLB  7
077DC:  CLRF   x9D
077DE:  MOVLW  37
077E0:  MOVWF  x9E
077E2:  MOVLW  7F
077E4:  MOVWF  x9F
077E6:  MOVLW  3F
077E8:  MOVWF  xA0
077EA:  MOVLW  01
077EC:  MOVWF  xA1
077EE:  CLRF   xA2
077F0:  MOVLB  0
077F2:  CALL   1780
....................          strcpy(Menus.Letra,"Status:Sensor Descon."); 
077F6:  MOVLW  07
077F8:  MOVWF  FEA
077FA:  MOVLW  61
077FC:  MOVWF  FE9
077FE:  MOVLW  00
07800:  CALL   0B06
07804:  TBLRD*-
07806:  TBLRD*+
07808:  MOVF   FF5,W
0780A:  MOVWF  FEE
0780C:  IORLW  00
0780E:  BNZ   7806
....................          displayMenu(Menus.Letra,0,55,2,1); 
07810:  MOVLW  07
07812:  MOVLB  7
07814:  MOVWF  x89
07816:  MOVLW  61
07818:  MOVWF  x88
0781A:  CLRF   x8A
0781C:  MOVLW  37
0781E:  MOVWF  x8B
07820:  MOVLW  02
07822:  MOVWF  x8C
07824:  MOVLW  01
07826:  MOVWF  x8D
07828:  MOVLB  0
0782A:  CALL   1842
....................          tiempo_esterilizacion=0; 
0782E:  MOVLB  5
07830:  CLRF   xA6
....................          Resistencia_off; 
07832:  BCF    F8B.0
07834:  BCF    F94.0
....................          Tpulso=0.0; 
07836:  CLRF   xF8
07838:  CLRF   xF7
0783A:  CLRF   xF6
0783C:  CLRF   xF5
....................          flag_tiempocalentamiento=0; 
0783E:  BCF    x99.2
....................          Buzz_on; 
07840:  BSF    F8B.7
07842:  BCF    F94.7
....................          delay_ms(500); 
07844:  MOVLW  02
07846:  MOVLB  7
07848:  MOVWF  x85
0784A:  MOVLW  FA
0784C:  MOVWF  x8B
0784E:  MOVLB  0
07850:  CALL   1166
07854:  MOVLB  7
07856:  DECFSZ x85,F
07858:  BRA    784A
....................          Buzz_off; 
0785A:  BCF    F8B.7
0785C:  BCF    F94.7
....................          delay_ms(250); 
0785E:  MOVLW  FA
07860:  MOVWF  x8B
07862:  MOVLB  0
07864:  CALL   1166
....................          Control=0; 
07868:  MOVLB  5
0786A:  CLRF   x9D
....................       } 
0786C:  BRA    7DA4
0786E:  MOVLB  0
....................       else 
....................       { 
....................           
....................          if(Pausa==0 && !DOOR) 
07870:  MOVLB  5
07872:  MOVF   xA2,F
07874:  BTFSS  FD8.2
07876:  BRA    7B9A
07878:  BSF    F92.3
0787A:  BTFSC  F80.3
0787C:  BRA    7B9A
....................          { 
....................             Control=1; 
0787E:  MOVLW  01
07880:  MOVWF  x9D
....................              
....................             if(Temperatura>Setpoint+AlTem){ 
07882:  BCF    FD8.1
07884:  MOVFF  62C,78D
07888:  MOVFF  62B,78C
0788C:  MOVFF  62A,78B
07890:  MOVFF  629,78A
07894:  MOVFF  618,791
07898:  MOVFF  617,790
0789C:  MOVFF  616,78F
078A0:  MOVFF  615,78E
078A4:  MOVLB  0
078A6:  CALL   1BDA
078AA:  MOVFF  03,788
078AE:  MOVFF  02,787
078B2:  MOVFF  01,786
078B6:  MOVFF  00,785
078BA:  MOVFF  620,78C
078BE:  MOVFF  61F,78B
078C2:  MOVFF  61E,78A
078C6:  MOVFF  61D,789
078CA:  CALL   118E
078CE:  BNC   78DA
....................                Alarma=5; 
078D0:  MOVLW  05
078D2:  MOVLB  5
078D4:  MOVWF  xA8
....................             }else{   
078D6:  BRA    7B9A
078D8:  MOVLB  0
....................                Alarma=10; 
078DA:  MOVLW  0A
078DC:  MOVLB  5
078DE:  MOVWF  xA8
....................                if((Temperatura>=Setpoint-10) && (Temperatura<Setpoint+10)) 
078E0:  BSF    FD8.1
078E2:  MOVFF  62C,78D
078E6:  MOVFF  62B,78C
078EA:  MOVFF  62A,78B
078EE:  MOVFF  629,78A
078F2:  MOVLB  7
078F4:  CLRF   x91
078F6:  CLRF   x90
078F8:  MOVLW  20
078FA:  MOVWF  x8F
078FC:  MOVLW  82
078FE:  MOVWF  x8E
07900:  MOVLB  0
07902:  CALL   1BDA
07906:  MOVFF  03,788
0790A:  MOVFF  02,787
0790E:  MOVFF  01,786
07912:  MOVFF  00,785
07916:  MOVFF  620,78C
0791A:  MOVFF  61F,78B
0791E:  MOVFF  61E,78A
07922:  MOVFF  61D,789
07926:  CALL   118E
0792A:  BC    7930
0792C:  BTFSS  FD8.2
0792E:  BRA    7A90
07930:  BCF    FD8.1
07932:  MOVFF  62C,78D
07936:  MOVFF  62B,78C
0793A:  MOVFF  62A,78B
0793E:  MOVFF  629,78A
07942:  MOVLB  7
07944:  CLRF   x91
07946:  CLRF   x90
07948:  MOVLW  20
0794A:  MOVWF  x8F
0794C:  MOVLW  82
0794E:  MOVWF  x8E
07950:  MOVLB  0
07952:  CALL   1BDA
07956:  MOVFF  620,788
0795A:  MOVFF  61F,787
0795E:  MOVFF  61E,786
07962:  MOVFF  61D,785
07966:  MOVFF  03,78C
0796A:  MOVFF  02,78B
0796E:  MOVFF  01,78A
07972:  MOVFF  00,789
07976:  CALL   118E
0797A:  BTFSS  FD8.0
0797C:  BRA    7A90
....................                { 
....................                   if(Pendiente!=0){ 
0797E:  MOVFF  624,788
07982:  MOVFF  623,787
07986:  MOVFF  622,786
0798A:  MOVFF  621,785
0798E:  MOVLB  7
07990:  CLRF   x8C
07992:  CLRF   x8B
07994:  CLRF   x8A
07996:  CLRF   x89
07998:  MOVLB  0
0799A:  CALL   118E
0799E:  BZ    79FE
....................                      tiempo_esterilizacion=1; 
079A0:  MOVLW  01
079A2:  MOVLB  5
079A4:  MOVWF  xA6
....................                      if(flag_display==0){ 
079A6:  BTFSC  x99.3
079A8:  BRA    7A00
....................                         glcd_rect(0, 55, 127, 63, YES, OFF); 
079AA:  MOVLB  7
079AC:  CLRF   x9D
079AE:  MOVLW  37
079B0:  MOVWF  x9E
079B2:  MOVLW  7F
079B4:  MOVWF  x9F
079B6:  MOVLW  3F
079B8:  MOVWF  xA0
079BA:  MOVLW  01
079BC:  MOVWF  xA1
079BE:  CLRF   xA2
079C0:  MOVLB  0
079C2:  CALL   1780
....................                         strcpy(Menus.Letra,"Status:Controlando"); 
079C6:  MOVLW  07
079C8:  MOVWF  FEA
079CA:  MOVLW  61
079CC:  MOVWF  FE9
079CE:  MOVLW  00
079D0:  CALL   0B30
079D4:  TBLRD*-
079D6:  TBLRD*+
079D8:  MOVF   FF5,W
079DA:  MOVWF  FEE
079DC:  IORLW  00
079DE:  BNZ   79D6
....................                         displayMenu(Menus.Letra,0,55,2,1); 
079E0:  MOVLW  07
079E2:  MOVLB  7
079E4:  MOVWF  x89
079E6:  MOVLW  61
079E8:  MOVWF  x88
079EA:  CLRF   x8A
079EC:  MOVLW  37
079EE:  MOVWF  x8B
079F0:  MOVLW  02
079F2:  MOVWF  x8C
079F4:  MOVLW  01
079F6:  MOVWF  x8D
079F8:  MOVLB  0
079FA:  CALL   1842
079FE:  MOVLB  5
....................                      } 
....................                   } 
....................                    
....................                   if(Pendiente==0){ 
07A00:  MOVFF  624,788
07A04:  MOVFF  623,787
07A08:  MOVFF  622,786
07A0C:  MOVFF  621,785
07A10:  MOVLB  7
07A12:  CLRF   x8C
07A14:  CLRF   x8B
07A16:  CLRF   x8A
07A18:  CLRF   x89
07A1A:  MOVLB  0
07A1C:  CALL   118E
07A20:  BNZ   7A84
....................                      if(flag_display==0){ 
07A22:  MOVLB  5
07A24:  BTFSC  x99.3
07A26:  BRA    7A7E
....................                         glcd_rect(0, 55, 127, 63, YES, OFF); 
07A28:  MOVLB  7
07A2A:  CLRF   x9D
07A2C:  MOVLW  37
07A2E:  MOVWF  x9E
07A30:  MOVLW  7F
07A32:  MOVWF  x9F
07A34:  MOVLW  3F
07A36:  MOVWF  xA0
07A38:  MOVLW  01
07A3A:  MOVWF  xA1
07A3C:  CLRF   xA2
07A3E:  MOVLB  0
07A40:  CALL   1780
....................                         strcpy(Menus.Letra,"Status:Meseta  "); 
07A44:  MOVLW  07
07A46:  MOVWF  FEA
07A48:  MOVLW  61
07A4A:  MOVWF  FE9
07A4C:  MOVLW  00
07A4E:  CALL   0B58
07A52:  TBLRD*-
07A54:  TBLRD*+
07A56:  MOVF   FF5,W
07A58:  MOVWF  FEE
07A5A:  IORLW  00
07A5C:  BNZ   7A54
....................                         displayMenu(Menus.Letra,0,55,2,1); 
07A5E:  MOVLW  07
07A60:  MOVLB  7
07A62:  MOVWF  x89
07A64:  MOVLW  61
07A66:  MOVWF  x88
07A68:  CLRF   x8A
07A6A:  MOVLW  37
07A6C:  MOVWF  x8B
07A6E:  MOVLW  02
07A70:  MOVWF  x8C
07A72:  MOVLW  01
07A74:  MOVWF  x8D
07A76:  MOVLB  0
07A78:  CALL   1842
07A7C:  MOVLB  5
....................                      } 
....................                      tiempo_esterilizacion=2; 
07A7E:  MOVLW  02
07A80:  MOVWF  xA6
07A82:  MOVLB  0
....................                   } 
....................                   Controla(); 
07A84:  CALL   3E0A
....................                   flag_tiempocalentamiento=0; 
07A88:  MOVLB  5
07A8A:  BCF    x99.2
....................                } 
07A8C:  BRA    7B9A
07A8E:  MOVLB  0
....................                else 
....................                { 
....................                   if(Pendiente!=0){ 
07A90:  MOVFF  624,788
07A94:  MOVFF  623,787
07A98:  MOVFF  622,786
07A9C:  MOVFF  621,785
07AA0:  MOVLB  7
07AA2:  CLRF   x8C
07AA4:  CLRF   x8B
07AA6:  CLRF   x8A
07AA8:  CLRF   x89
07AAA:  MOVLB  0
07AAC:  CALL   118E
07AB0:  BZ    7B10
....................                      tiempo_esterilizacion=1; 
07AB2:  MOVLW  01
07AB4:  MOVLB  5
07AB6:  MOVWF  xA6
....................                      if(flag_display==0){ 
07AB8:  BTFSC  x99.3
07ABA:  BRA    7B12
....................                         glcd_rect(0, 55, 127, 63, YES, OFF); 
07ABC:  MOVLB  7
07ABE:  CLRF   x9D
07AC0:  MOVLW  37
07AC2:  MOVWF  x9E
07AC4:  MOVLW  7F
07AC6:  MOVWF  x9F
07AC8:  MOVLW  3F
07ACA:  MOVWF  xA0
07ACC:  MOVLW  01
07ACE:  MOVWF  xA1
07AD0:  CLRF   xA2
07AD2:  MOVLB  0
07AD4:  CALL   1780
....................                         strcpy(Menus.Letra,"Status:Rampa  "); 
07AD8:  MOVLW  07
07ADA:  MOVWF  FEA
07ADC:  MOVLW  61
07ADE:  MOVWF  FE9
07AE0:  MOVLW  00
07AE2:  CALL   0B7C
07AE6:  TBLRD*-
07AE8:  TBLRD*+
07AEA:  MOVF   FF5,W
07AEC:  MOVWF  FEE
07AEE:  IORLW  00
07AF0:  BNZ   7AE8
....................                         displayMenu(Menus.Letra,0,55,2,1); 
07AF2:  MOVLW  07
07AF4:  MOVLB  7
07AF6:  MOVWF  x89
07AF8:  MOVLW  61
07AFA:  MOVWF  x88
07AFC:  CLRF   x8A
07AFE:  MOVLW  37
07B00:  MOVWF  x8B
07B02:  MOVLW  02
07B04:  MOVWF  x8C
07B06:  MOVLW  01
07B08:  MOVWF  x8D
07B0A:  MOVLB  0
07B0C:  CALL   1842
07B10:  MOVLB  5
....................                      } 
....................                   } 
....................                    
....................                   if(Pendiente==0){ 
07B12:  MOVFF  624,788
07B16:  MOVFF  623,787
07B1A:  MOVFF  622,786
07B1E:  MOVFF  621,785
07B22:  MOVLB  7
07B24:  CLRF   x8C
07B26:  CLRF   x8B
07B28:  CLRF   x8A
07B2A:  CLRF   x89
07B2C:  MOVLB  0
07B2E:  CALL   118E
07B32:  BNZ   7B94
....................                      if(flag_display==0){ 
07B34:  MOVLB  5
07B36:  BTFSC  x99.3
07B38:  BRA    7B90
....................                         glcd_rect(0, 55, 127, 63, YES, OFF); 
07B3A:  MOVLB  7
07B3C:  CLRF   x9D
07B3E:  MOVLW  37
07B40:  MOVWF  x9E
07B42:  MOVLW  7F
07B44:  MOVWF  x9F
07B46:  MOVLW  3F
07B48:  MOVWF  xA0
07B4A:  MOVLW  01
07B4C:  MOVWF  xA1
07B4E:  CLRF   xA2
07B50:  MOVLB  0
07B52:  CALL   1780
....................                         strcpy(Menus.Letra,"Status:Calentando"); 
07B56:  MOVLW  07
07B58:  MOVWF  FEA
07B5A:  MOVLW  61
07B5C:  MOVWF  FE9
07B5E:  MOVLW  00
07B60:  CALL   0BA0
07B64:  TBLRD*-
07B66:  TBLRD*+
07B68:  MOVF   FF5,W
07B6A:  MOVWF  FEE
07B6C:  IORLW  00
07B6E:  BNZ   7B66
....................                         displayMenu(Menus.Letra,0,55,2,1); 
07B70:  MOVLW  07
07B72:  MOVLB  7
07B74:  MOVWF  x89
07B76:  MOVLW  61
07B78:  MOVWF  x88
07B7A:  CLRF   x8A
07B7C:  MOVLW  37
07B7E:  MOVWF  x8B
07B80:  MOVLW  02
07B82:  MOVWF  x8C
07B84:  MOVLW  01
07B86:  MOVWF  x8D
07B88:  MOVLB  0
07B8A:  CALL   1842
07B8E:  MOVLB  5
....................                      } 
....................                      tiempo_esterilizacion=0; 
07B90:  CLRF   xA6
07B92:  MOVLB  0
....................                   } 
....................                   Controla(); 
07B94:  CALL   3E0A
07B98:  MOVLB  5
....................                } 
....................             } 
....................          } 
....................           
....................          if(Alarma==5){ 
07B9A:  MOVF   xA8,W
07B9C:  SUBLW  05
07B9E:  BNZ   7C5C
....................             Control=0;             
07BA0:  CLRF   x9D
....................             flag_tiempocalentamiento=0; 
07BA2:  BCF    x99.2
....................             tiempo_esterilizacion=0; 
07BA4:  CLRF   xA6
....................             Resistencia_off; 
07BA6:  BCF    F8B.0
07BA8:  BCF    F94.0
....................             if(flag_clear2==0) 
07BAA:  BTFSC  x99.1
07BAC:  BRA    7BEE
....................             { 
....................                //Ganancia=read_eeprom(90); 
....................                //Ganancia=Setpoint*(Ganancia/Coeficiente); 
....................                //glcd_fillScreen(OFF); 
....................                glcd_fillScreen(OFF); 
07BAE:  MOVLB  7
07BB0:  CLRF   x86
07BB2:  MOVLB  0
07BB4:  CALL   123E
....................                glcd_init(ON); 
07BB8:  MOVLW  01
07BBA:  MOVLB  7
07BBC:  MOVWF  x85
07BBE:  MOVLB  0
07BC0:  CALL   1348
....................                glcd_rect(0, 55, 127, 63, YES, OFF); 
07BC4:  MOVLB  7
07BC6:  CLRF   x9D
07BC8:  MOVLW  37
07BCA:  MOVWF  x9E
07BCC:  MOVLW  7F
07BCE:  MOVWF  x9F
07BD0:  MOVLW  3F
07BD2:  MOVWF  xA0
07BD4:  MOVLW  01
07BD6:  MOVWF  xA1
07BD8:  CLRF   xA2
07BDA:  MOVLB  0
07BDC:  CALL   1780
....................                Tpulso=0.0; 
07BE0:  MOVLB  5
07BE2:  CLRF   xF8
07BE4:  CLRF   xF7
07BE6:  CLRF   xF6
07BE8:  CLRF   xF5
....................                flag_clear2=1; 
07BEA:  BSF    x99.1
....................                flag_ganancia=0; 
07BEC:  CLRF   x92
....................             } 
....................             strcpy(Menus.Letra,"Status:Sobre Temp"); 
07BEE:  MOVLW  07
07BF0:  MOVWF  FEA
07BF2:  MOVLW  61
07BF4:  MOVWF  FE9
07BF6:  MOVLW  00
07BF8:  MOVLB  0
07BFA:  CALL   0BC6
07BFE:  TBLRD*-
07C00:  TBLRD*+
07C02:  MOVF   FF5,W
07C04:  MOVWF  FEE
07C06:  IORLW  00
07C08:  BNZ   7C00
....................             displayMenu(Menus.Letra,0,55,2,1); 
07C0A:  MOVLW  07
07C0C:  MOVLB  7
07C0E:  MOVWF  x89
07C10:  MOVLW  61
07C12:  MOVWF  x88
07C14:  CLRF   x8A
07C16:  MOVLW  37
07C18:  MOVWF  x8B
07C1A:  MOVLW  02
07C1C:  MOVWF  x8C
07C1E:  MOVLW  01
07C20:  MOVWF  x8D
07C22:  MOVLB  0
07C24:  CALL   1842
....................             Buzz_on; 
07C28:  BSF    F8B.7
07C2A:  BCF    F94.7
....................             delay_ms(1000); 
07C2C:  MOVLW  04
07C2E:  MOVLB  7
07C30:  MOVWF  x85
07C32:  MOVLW  FA
07C34:  MOVWF  x8B
07C36:  MOVLB  0
07C38:  CALL   1166
07C3C:  MOVLB  7
07C3E:  DECFSZ x85,F
07C40:  BRA    7C32
....................             Buzz_off; 
07C42:  BCF    F8B.7
07C44:  BCF    F94.7
....................             delay_ms(1000); 
07C46:  MOVLW  04
07C48:  MOVWF  x85
07C4A:  MOVLW  FA
07C4C:  MOVWF  x8B
07C4E:  MOVLB  0
07C50:  CALL   1166
07C54:  MOVLB  7
07C56:  DECFSZ x85,F
07C58:  BRA    7C4A
07C5A:  MOVLB  5
....................          } 
....................           
....................          if(Pausa==1 && !DOOR) 
07C5C:  DECFSZ xA2,W
07C5E:  BRA    7CB4
07C60:  BSF    F92.3
07C62:  BTFSC  F80.3
07C64:  BRA    7CB4
....................          { 
....................             flag_tiempocalentamiento=0; 
07C66:  BCF    x99.2
....................             strcpy(Menus.Letra,"Status:Pausado"); 
07C68:  MOVLW  07
07C6A:  MOVWF  FEA
07C6C:  MOVLW  61
07C6E:  MOVWF  FE9
07C70:  MOVLW  00
07C72:  MOVLB  0
07C74:  CALL   0BEC
07C78:  TBLRD*-
07C7A:  TBLRD*+
07C7C:  MOVF   FF5,W
07C7E:  MOVWF  FEE
07C80:  IORLW  00
07C82:  BNZ   7C7A
....................             displayMenu(Menus.Letra,0,55,2,1); 
07C84:  MOVLW  07
07C86:  MOVLB  7
07C88:  MOVWF  x89
07C8A:  MOVLW  61
07C8C:  MOVWF  x88
07C8E:  CLRF   x8A
07C90:  MOVLW  37
07C92:  MOVWF  x8B
07C94:  MOVLW  02
07C96:  MOVWF  x8C
07C98:  MOVLW  01
07C9A:  MOVWF  x8D
07C9C:  MOVLB  0
07C9E:  CALL   1842
....................             tiempo_esterilizacion=0; 
07CA2:  MOVLB  5
07CA4:  CLRF   xA6
....................             Control=0; 
07CA6:  CLRF   x9D
....................             Resistencia_off; 
07CA8:  BCF    F8B.0
07CAA:  BCF    F94.0
....................             Tpulso=0.0; 
07CAC:  CLRF   xF8
07CAE:  CLRF   xF7
07CB0:  CLRF   xF6
07CB2:  CLRF   xF5
....................          } 
....................           
....................          if(DOOR) 
07CB4:  BSF    F92.3
07CB6:  BTFSS  F80.3
07CB8:  BRA    7D78
....................          { 
....................             Control=0;             
07CBA:  CLRF   x9D
....................             flag_tiempocalentamiento=0; 
07CBC:  BCF    x99.2
....................             tiempo_esterilizacion=0; 
07CBE:  CLRF   xA6
....................             Resistencia_off; 
07CC0:  BCF    F8B.0
07CC2:  BCF    F94.0
....................             if(flag_clear2==0) 
07CC4:  BTFSC  x99.1
07CC6:  BRA    7D08
....................             { 
....................                //Ganancia=read_eeprom(90); 
....................                //Ganancia=Setpoint*(Ganancia/Coeficiente); 
....................                //glcd_fillScreen(OFF); 
....................                glcd_fillScreen(OFF); 
07CC8:  MOVLB  7
07CCA:  CLRF   x86
07CCC:  MOVLB  0
07CCE:  CALL   123E
....................                glcd_init(ON); 
07CD2:  MOVLW  01
07CD4:  MOVLB  7
07CD6:  MOVWF  x85
07CD8:  MOVLB  0
07CDA:  CALL   1348
....................                glcd_rect(0, 55, 127, 63, YES, OFF); 
07CDE:  MOVLB  7
07CE0:  CLRF   x9D
07CE2:  MOVLW  37
07CE4:  MOVWF  x9E
07CE6:  MOVLW  7F
07CE8:  MOVWF  x9F
07CEA:  MOVLW  3F
07CEC:  MOVWF  xA0
07CEE:  MOVLW  01
07CF0:  MOVWF  xA1
07CF2:  CLRF   xA2
07CF4:  MOVLB  0
07CF6:  CALL   1780
....................                Tpulso=0.0; 
07CFA:  MOVLB  5
07CFC:  CLRF   xF8
07CFE:  CLRF   xF7
07D00:  CLRF   xF6
07D02:  CLRF   xF5
....................                flag_clear2=1; 
07D04:  BSF    x99.1
....................                flag_ganancia=0; 
07D06:  CLRF   x92
....................             } 
....................             strcpy(Menus.Letra,"Status:Puerta Abierta"); 
07D08:  MOVLW  07
07D0A:  MOVWF  FEA
07D0C:  MOVLW  61
07D0E:  MOVWF  FE9
07D10:  MOVLW  00
07D12:  MOVLB  0
07D14:  CALL   0C10
07D18:  TBLRD*-
07D1A:  TBLRD*+
07D1C:  MOVF   FF5,W
07D1E:  MOVWF  FEE
07D20:  IORLW  00
07D22:  BNZ   7D1A
....................             displayMenu(Menus.Letra,0,55,2,1); 
07D24:  MOVLW  07
07D26:  MOVLB  7
07D28:  MOVWF  x89
07D2A:  MOVLW  61
07D2C:  MOVWF  x88
07D2E:  CLRF   x8A
07D30:  MOVLW  37
07D32:  MOVWF  x8B
07D34:  MOVLW  02
07D36:  MOVWF  x8C
07D38:  MOVLW  01
07D3A:  MOVWF  x8D
07D3C:  MOVLB  0
07D3E:  CALL   1842
....................             Buzz_on; 
07D42:  BSF    F8B.7
07D44:  BCF    F94.7
....................             delay_ms(1000); 
07D46:  MOVLW  04
07D48:  MOVLB  7
07D4A:  MOVWF  x85
07D4C:  MOVLW  FA
07D4E:  MOVWF  x8B
07D50:  MOVLB  0
07D52:  CALL   1166
07D56:  MOVLB  7
07D58:  DECFSZ x85,F
07D5A:  BRA    7D4C
....................             Buzz_off; 
07D5C:  BCF    F8B.7
07D5E:  BCF    F94.7
....................             delay_ms(1000); 
07D60:  MOVLW  04
07D62:  MOVWF  x85
07D64:  MOVLW  FA
07D66:  MOVWF  x8B
07D68:  MOVLB  0
07D6A:  CALL   1166
07D6E:  MOVLB  7
07D70:  DECFSZ x85,F
07D72:  BRA    7D64
....................          } 
07D74:  BRA    7DA6
07D76:  MOVLB  5
....................          else 
....................          { 
....................             Buzz_off; 
07D78:  BCF    F8B.7
07D7A:  BCF    F94.7
....................             if(flag_clear2==1) 
07D7C:  BTFSS  x99.1
07D7E:  BRA    7DA4
....................             { 
....................                Pausa=Pausa_ant; 
07D80:  MOVFF  5A3,5A2
....................                //glcd_fillScreen(OFF); 
....................                glcd_rect(0, 55, 127, 63, YES, OFF); 
07D84:  MOVLB  7
07D86:  CLRF   x9D
07D88:  MOVLW  37
07D8A:  MOVWF  x9E
07D8C:  MOVLW  7F
07D8E:  MOVWF  x9F
07D90:  MOVLW  3F
07D92:  MOVWF  xA0
07D94:  MOVLW  01
07D96:  MOVWF  xA1
07D98:  CLRF   xA2
07D9A:  MOVLB  0
07D9C:  CALL   1780
....................                flag_clear2=0; 
07DA0:  MOVLB  5
07DA2:  BCF    x99.1
07DA4:  MOVLB  7
....................             } 
....................          } 
....................       } 
....................        
....................       if(UP)//Si oprime hacia arriba 
07DA6:  BSF    F92.5
07DA8:  BTFSS  F80.5
07DAA:  GOTO   88A6
....................       { 
....................          glcd_fillscreen(OFF); 
07DAE:  CLRF   x86
07DB0:  MOVLB  0
07DB2:  CALL   123E
....................                glcd_line(27,0,27,55,ON); 
07DB6:  MOVLW  1B
07DB8:  MOVLB  7
07DBA:  MOVWF  xA9
07DBC:  CLRF   xAA
07DBE:  MOVWF  xAB
07DC0:  MOVLW  37
07DC2:  MOVWF  xAC
07DC4:  MOVLW  01
07DC6:  MOVWF  xAD
07DC8:  MOVLB  0
07DCA:  CALL   164A
....................                glcd_line(27,55,127,55,ON); 
07DCE:  MOVLW  1B
07DD0:  MOVLB  7
07DD2:  MOVWF  xA9
07DD4:  MOVLW  37
07DD6:  MOVWF  xAA
07DD8:  MOVLW  7F
07DDA:  MOVWF  xAB
07DDC:  MOVLW  37
07DDE:  MOVWF  xAC
07DE0:  MOVLW  01
07DE2:  MOVWF  xAD
07DE4:  MOVLB  0
07DE6:  CALL   164A
....................                 
....................                strcpy(Menus.Letra,"Grafica Rampas");displayMenu(Menus.Letra,0,0,1,1);  
07DEA:  MOVLW  07
07DEC:  MOVWF  FEA
07DEE:  MOVLW  61
07DF0:  MOVWF  FE9
07DF2:  MOVLW  00
07DF4:  CALL   0C3A
07DF8:  TBLRD*-
07DFA:  TBLRD*+
07DFC:  MOVF   FF5,W
07DFE:  MOVWF  FEE
07E00:  IORLW  00
07E02:  BNZ   7DFA
07E04:  MOVLW  07
07E06:  MOVLB  7
07E08:  MOVWF  x89
07E0A:  MOVLW  61
07E0C:  MOVWF  x88
07E0E:  CLRF   x8A
07E10:  CLRF   x8B
07E12:  MOVLW  01
07E14:  MOVWF  x8C
07E16:  MOVWF  x8D
07E18:  MOVLB  0
07E1A:  CALL   1842
....................                 
....................                glcd_line(24,55-10,27,55-10,ON); 
07E1E:  MOVLW  18
07E20:  MOVLB  7
07E22:  MOVWF  xA9
07E24:  MOVLW  2D
07E26:  MOVWF  xAA
07E28:  MOVLW  1B
07E2A:  MOVWF  xAB
07E2C:  MOVLW  2D
07E2E:  MOVWF  xAC
07E30:  MOVLW  01
07E32:  MOVWF  xAD
07E34:  MOVLB  0
07E36:  CALL   164A
....................                strcpy(Menus.Letra,"300");displayMenu(Menus.Letra,0,55-15,2,1);  
07E3A:  MOVLW  07
07E3C:  MOVWF  FEA
07E3E:  MOVLW  61
07E40:  MOVWF  FE9
07E42:  MOVLW  00
07E44:  CALL   0C5E
07E48:  TBLRD*-
07E4A:  TBLRD*+
07E4C:  MOVF   FF5,W
07E4E:  MOVWF  FEE
07E50:  IORLW  00
07E52:  BNZ   7E4A
07E54:  MOVLW  07
07E56:  MOVLB  7
07E58:  MOVWF  x89
07E5A:  MOVLW  61
07E5C:  MOVWF  x88
07E5E:  CLRF   x8A
07E60:  MOVLW  28
07E62:  MOVWF  x8B
07E64:  MOVLW  02
07E66:  MOVWF  x8C
07E68:  MOVLW  01
07E6A:  MOVWF  x8D
07E6C:  MOVLB  0
07E6E:  CALL   1842
....................                glcd_line(24,55-20,27,55-20,ON); 
07E72:  MOVLW  18
07E74:  MOVLB  7
07E76:  MOVWF  xA9
07E78:  MOVLW  23
07E7A:  MOVWF  xAA
07E7C:  MOVLW  1B
07E7E:  MOVWF  xAB
07E80:  MOVLW  23
07E82:  MOVWF  xAC
07E84:  MOVLW  01
07E86:  MOVWF  xAD
07E88:  MOVLB  0
07E8A:  CALL   164A
....................                strcpy(Menus.Letra,"600");displayMenu(Menus.Letra,0,55-25,2,1);  
07E8E:  MOVLW  07
07E90:  MOVWF  FEA
07E92:  MOVLW  61
07E94:  MOVWF  FE9
07E96:  MOVLW  00
07E98:  CALL   0C76
07E9C:  TBLRD*-
07E9E:  TBLRD*+
07EA0:  MOVF   FF5,W
07EA2:  MOVWF  FEE
07EA4:  IORLW  00
07EA6:  BNZ   7E9E
07EA8:  MOVLW  07
07EAA:  MOVLB  7
07EAC:  MOVWF  x89
07EAE:  MOVLW  61
07EB0:  MOVWF  x88
07EB2:  CLRF   x8A
07EB4:  MOVLW  1E
07EB6:  MOVWF  x8B
07EB8:  MOVLW  02
07EBA:  MOVWF  x8C
07EBC:  MOVLW  01
07EBE:  MOVWF  x8D
07EC0:  MOVLB  0
07EC2:  CALL   1842
....................                glcd_line(24,55-30,27,55-30,ON); 
07EC6:  MOVLW  18
07EC8:  MOVLB  7
07ECA:  MOVWF  xA9
07ECC:  MOVLW  19
07ECE:  MOVWF  xAA
07ED0:  MOVLW  1B
07ED2:  MOVWF  xAB
07ED4:  MOVLW  19
07ED6:  MOVWF  xAC
07ED8:  MOVLW  01
07EDA:  MOVWF  xAD
07EDC:  MOVLB  0
07EDE:  CALL   164A
....................                strcpy(Menus.Letra,"900");displayMenu(Menus.Letra,0,55-35,2,1); 
07EE2:  MOVLW  07
07EE4:  MOVWF  FEA
07EE6:  MOVLW  61
07EE8:  MOVWF  FE9
07EEA:  MOVLW  00
07EEC:  CALL   0C8E
07EF0:  TBLRD*-
07EF2:  TBLRD*+
07EF4:  MOVF   FF5,W
07EF6:  MOVWF  FEE
07EF8:  IORLW  00
07EFA:  BNZ   7EF2
07EFC:  MOVLW  07
07EFE:  MOVLB  7
07F00:  MOVWF  x89
07F02:  MOVLW  61
07F04:  MOVWF  x88
07F06:  CLRF   x8A
07F08:  MOVLW  14
07F0A:  MOVWF  x8B
07F0C:  MOVLW  02
07F0E:  MOVWF  x8C
07F10:  MOVLW  01
07F12:  MOVWF  x8D
07F14:  MOVLB  0
07F16:  CALL   1842
....................                glcd_line(24,55-40,27,55-40,ON); 
07F1A:  MOVLW  18
07F1C:  MOVLB  7
07F1E:  MOVWF  xA9
07F20:  MOVLW  0F
07F22:  MOVWF  xAA
07F24:  MOVLW  1B
07F26:  MOVWF  xAB
07F28:  MOVLW  0F
07F2A:  MOVWF  xAC
07F2C:  MOVLW  01
07F2E:  MOVWF  xAD
07F30:  MOVLB  0
07F32:  CALL   164A
....................                strcpy(Menus.Letra,"1200");displayMenu(Menus.Letra,0,55-45,2,1);  
07F36:  MOVLW  07
07F38:  MOVWF  FEA
07F3A:  MOVLW  61
07F3C:  MOVWF  FE9
07F3E:  MOVLW  00
07F40:  CALL   0CA6
07F44:  TBLRD*-
07F46:  TBLRD*+
07F48:  MOVF   FF5,W
07F4A:  MOVWF  FEE
07F4C:  IORLW  00
07F4E:  BNZ   7F46
07F50:  MOVLW  07
07F52:  MOVLB  7
07F54:  MOVWF  x89
07F56:  MOVLW  61
07F58:  MOVWF  x88
07F5A:  CLRF   x8A
07F5C:  MOVLW  0A
07F5E:  MOVWF  x8B
07F60:  MOVLW  02
07F62:  MOVWF  x8C
07F64:  MOVLW  01
07F66:  MOVWF  x8D
07F68:  MOVLB  0
07F6A:  CALL   1842
....................                 
....................                if(Segmento==0){ 
07F6E:  MOVLB  5
07F70:  MOVF   x97,F
07F72:  BNZ   7FB0
....................                   strcpy(Menus.Letra,"s0");displayMenu(Menus.Letra,16,56,1,1);} 
07F74:  MOVLW  07
07F76:  MOVWF  FEA
07F78:  MOVLW  61
07F7A:  MOVWF  FE9
07F7C:  MOVLW  00
07F7E:  MOVLB  0
07F80:  CALL   0CC0
07F84:  TBLRD*-
07F86:  TBLRD*+
07F88:  MOVF   FF5,W
07F8A:  MOVWF  FEE
07F8C:  IORLW  00
07F8E:  BNZ   7F86
07F90:  MOVLW  07
07F92:  MOVLB  7
07F94:  MOVWF  x89
07F96:  MOVLW  61
07F98:  MOVWF  x88
07F9A:  MOVLW  10
07F9C:  MOVWF  x8A
07F9E:  MOVLW  38
07FA0:  MOVWF  x8B
07FA2:  MOVLW  01
07FA4:  MOVWF  x8C
07FA6:  MOVWF  x8D
07FA8:  MOVLB  0
07FAA:  CALL   1842
07FAE:  MOVLB  5
....................                    
....................                if(Segmento==1){ 
07FB0:  DECFSZ x97,W
07FB2:  BRA    7FF0
....................                   strcpy(Menus.Letra,"s1");displayMenu(Menus.Letra,27,56,1,1);} 
07FB4:  MOVLW  07
07FB6:  MOVWF  FEA
07FB8:  MOVLW  61
07FBA:  MOVWF  FE9
07FBC:  MOVLW  00
07FBE:  MOVLB  0
07FC0:  CALL   0CD8
07FC4:  TBLRD*-
07FC6:  TBLRD*+
07FC8:  MOVF   FF5,W
07FCA:  MOVWF  FEE
07FCC:  IORLW  00
07FCE:  BNZ   7FC6
07FD0:  MOVLW  07
07FD2:  MOVLB  7
07FD4:  MOVWF  x89
07FD6:  MOVLW  61
07FD8:  MOVWF  x88
07FDA:  MOVLW  1B
07FDC:  MOVWF  x8A
07FDE:  MOVLW  38
07FE0:  MOVWF  x8B
07FE2:  MOVLW  01
07FE4:  MOVWF  x8C
07FE6:  MOVWF  x8D
07FE8:  MOVLB  0
07FEA:  CALL   1842
07FEE:  MOVLB  5
....................                    
....................                if(Segmento==2){ 
07FF0:  MOVF   x97,W
07FF2:  SUBLW  02
07FF4:  BNZ   8032
....................                   strcpy(Menus.Letra,"s2");displayMenu(Menus.Letra,38,56,1,1);} 
07FF6:  MOVLW  07
07FF8:  MOVWF  FEA
07FFA:  MOVLW  61
07FFC:  MOVWF  FE9
07FFE:  MOVLW  00
08000:  MOVLB  0
08002:  CALL   0CF0
08006:  TBLRD*-
08008:  TBLRD*+
0800A:  MOVF   FF5,W
0800C:  MOVWF  FEE
0800E:  IORLW  00
08010:  BNZ   8008
08012:  MOVLW  07
08014:  MOVLB  7
08016:  MOVWF  x89
08018:  MOVLW  61
0801A:  MOVWF  x88
0801C:  MOVLW  26
0801E:  MOVWF  x8A
08020:  MOVLW  38
08022:  MOVWF  x8B
08024:  MOVLW  01
08026:  MOVWF  x8C
08028:  MOVWF  x8D
0802A:  MOVLB  0
0802C:  CALL   1842
08030:  MOVLB  5
....................                    
....................                if(Segmento==3){ 
08032:  MOVF   x97,W
08034:  SUBLW  03
08036:  BNZ   8074
....................                   strcpy(Menus.Letra,"s3");displayMenu(Menus.Letra,49,56,1,1);} 
08038:  MOVLW  07
0803A:  MOVWF  FEA
0803C:  MOVLW  61
0803E:  MOVWF  FE9
08040:  MOVLW  00
08042:  MOVLB  0
08044:  CALL   0D08
08048:  TBLRD*-
0804A:  TBLRD*+
0804C:  MOVF   FF5,W
0804E:  MOVWF  FEE
08050:  IORLW  00
08052:  BNZ   804A
08054:  MOVLW  07
08056:  MOVLB  7
08058:  MOVWF  x89
0805A:  MOVLW  61
0805C:  MOVWF  x88
0805E:  MOVLW  31
08060:  MOVWF  x8A
08062:  MOVLW  38
08064:  MOVWF  x8B
08066:  MOVLW  01
08068:  MOVWF  x8C
0806A:  MOVWF  x8D
0806C:  MOVLB  0
0806E:  CALL   1842
08072:  MOVLB  5
....................                    
....................                if(Segmento==4){ 
08074:  MOVF   x97,W
08076:  SUBLW  04
08078:  BNZ   80B6
....................                   strcpy(Menus.Letra,"s4");displayMenu(Menus.Letra,60,56,1,1);} 
0807A:  MOVLW  07
0807C:  MOVWF  FEA
0807E:  MOVLW  61
08080:  MOVWF  FE9
08082:  MOVLW  00
08084:  MOVLB  0
08086:  CALL   0D20
0808A:  TBLRD*-
0808C:  TBLRD*+
0808E:  MOVF   FF5,W
08090:  MOVWF  FEE
08092:  IORLW  00
08094:  BNZ   808C
08096:  MOVLW  07
08098:  MOVLB  7
0809A:  MOVWF  x89
0809C:  MOVLW  61
0809E:  MOVWF  x88
080A0:  MOVLW  3C
080A2:  MOVWF  x8A
080A4:  MOVLW  38
080A6:  MOVWF  x8B
080A8:  MOVLW  01
080AA:  MOVWF  x8C
080AC:  MOVWF  x8D
080AE:  MOVLB  0
080B0:  CALL   1842
080B4:  MOVLB  5
....................                    
....................                if(Segmento==5){ 
080B6:  MOVF   x97,W
080B8:  SUBLW  05
080BA:  BNZ   80F8
....................                   strcpy(Menus.Letra,"s5");displayMenu(Menus.Letra,71,56,1,1);} 
080BC:  MOVLW  07
080BE:  MOVWF  FEA
080C0:  MOVLW  61
080C2:  MOVWF  FE9
080C4:  MOVLW  00
080C6:  MOVLB  0
080C8:  CALL   0D38
080CC:  TBLRD*-
080CE:  TBLRD*+
080D0:  MOVF   FF5,W
080D2:  MOVWF  FEE
080D4:  IORLW  00
080D6:  BNZ   80CE
080D8:  MOVLW  07
080DA:  MOVLB  7
080DC:  MOVWF  x89
080DE:  MOVLW  61
080E0:  MOVWF  x88
080E2:  MOVLW  47
080E4:  MOVWF  x8A
080E6:  MOVLW  38
080E8:  MOVWF  x8B
080EA:  MOVLW  01
080EC:  MOVWF  x8C
080EE:  MOVWF  x8D
080F0:  MOVLB  0
080F2:  CALL   1842
080F6:  MOVLB  5
....................                    
....................                if(Segmento==6){ 
080F8:  MOVF   x97,W
080FA:  SUBLW  06
080FC:  BNZ   813A
....................                   strcpy(Menus.Letra,"s6");displayMenu(Menus.Letra,82,56,1,1);} 
080FE:  MOVLW  07
08100:  MOVWF  FEA
08102:  MOVLW  61
08104:  MOVWF  FE9
08106:  MOVLW  00
08108:  MOVLB  0
0810A:  CALL   0D50
0810E:  TBLRD*-
08110:  TBLRD*+
08112:  MOVF   FF5,W
08114:  MOVWF  FEE
08116:  IORLW  00
08118:  BNZ   8110
0811A:  MOVLW  07
0811C:  MOVLB  7
0811E:  MOVWF  x89
08120:  MOVLW  61
08122:  MOVWF  x88
08124:  MOVLW  52
08126:  MOVWF  x8A
08128:  MOVLW  38
0812A:  MOVWF  x8B
0812C:  MOVLW  01
0812E:  MOVWF  x8C
08130:  MOVWF  x8D
08132:  MOVLB  0
08134:  CALL   1842
08138:  MOVLB  5
....................                    
....................                if(Segmento==7){ 
0813A:  MOVF   x97,W
0813C:  SUBLW  07
0813E:  BNZ   817C
....................                   strcpy(Menus.Letra,"s7");displayMenu(Menus.Letra,93,56,1,1);} 
08140:  MOVLW  07
08142:  MOVWF  FEA
08144:  MOVLW  61
08146:  MOVWF  FE9
08148:  MOVLW  00
0814A:  MOVLB  0
0814C:  CALL   0D68
08150:  TBLRD*-
08152:  TBLRD*+
08154:  MOVF   FF5,W
08156:  MOVWF  FEE
08158:  IORLW  00
0815A:  BNZ   8152
0815C:  MOVLW  07
0815E:  MOVLB  7
08160:  MOVWF  x89
08162:  MOVLW  61
08164:  MOVWF  x88
08166:  MOVLW  5D
08168:  MOVWF  x8A
0816A:  MOVLW  38
0816C:  MOVWF  x8B
0816E:  MOVLW  01
08170:  MOVWF  x8C
08172:  MOVWF  x8D
08174:  MOVLB  0
08176:  CALL   1842
0817A:  MOVLB  5
....................                    
....................                if(Segmento==8){ 
0817C:  MOVF   x97,W
0817E:  SUBLW  08
08180:  BNZ   81BE
....................                   strcpy(Menus.Letra,"s8");displayMenu(Menus.Letra,104,56,1,1);} 
08182:  MOVLW  07
08184:  MOVWF  FEA
08186:  MOVLW  61
08188:  MOVWF  FE9
0818A:  MOVLW  00
0818C:  MOVLB  0
0818E:  CALL   0D80
08192:  TBLRD*-
08194:  TBLRD*+
08196:  MOVF   FF5,W
08198:  MOVWF  FEE
0819A:  IORLW  00
0819C:  BNZ   8194
0819E:  MOVLW  07
081A0:  MOVLB  7
081A2:  MOVWF  x89
081A4:  MOVLW  61
081A6:  MOVWF  x88
081A8:  MOVLW  68
081AA:  MOVWF  x8A
081AC:  MOVLW  38
081AE:  MOVWF  x8B
081B0:  MOVLW  01
081B2:  MOVWF  x8C
081B4:  MOVWF  x8D
081B6:  MOVLB  0
081B8:  CALL   1842
081BC:  MOVLB  5
....................                 
....................                if(Segmento==9){ 
081BE:  MOVF   x97,W
081C0:  SUBLW  09
081C2:  BNZ   8200
....................                   strcpy(Menus.Letra,"s9");displayMenu(Menus.Letra,115,56,1,1);} 
081C4:  MOVLW  07
081C6:  MOVWF  FEA
081C8:  MOVLW  61
081CA:  MOVWF  FE9
081CC:  MOVLW  00
081CE:  MOVLB  0
081D0:  CALL   0D98
081D4:  TBLRD*-
081D6:  TBLRD*+
081D8:  MOVF   FF5,W
081DA:  MOVWF  FEE
081DC:  IORLW  00
081DE:  BNZ   81D6
081E0:  MOVLW  07
081E2:  MOVLB  7
081E4:  MOVWF  x89
081E6:  MOVLW  61
081E8:  MOVWF  x88
081EA:  MOVLW  73
081EC:  MOVWF  x8A
081EE:  MOVLW  38
081F0:  MOVWF  x8B
081F2:  MOVLW  01
081F4:  MOVWF  x8C
081F6:  MOVWF  x8D
081F8:  MOVLB  0
081FA:  CALL   1842
081FE:  MOVLB  5
....................                 
....................                glcd_line(27+0,55,27+10,55-Temperatura1[ProgramaSeleccionado*10]/30,ON); 
08200:  MOVF   xA7,W
08202:  MULLW  0A
08204:  MOVFF  FF3,00
08208:  BCF    FD8.0
0820A:  RLCF   00,F
0820C:  MOVF   00,W
0820E:  CLRF   03
08210:  ADDLW  35
08212:  MOVWF  FE9
08214:  MOVLW  06
08216:  ADDWFC 03,W
08218:  MOVWF  FEA
0821A:  MOVFF  FEC,78A
0821E:  MOVF   FED,F
08220:  MOVFF  FEF,789
08224:  MOVLB  7
08226:  CLRF   x8C
08228:  MOVLW  1E
0822A:  MOVWF  x8B
0822C:  MOVLB  0
0822E:  CALL   260E
08232:  MOVFF  02,03
08236:  MOVF   01,W
08238:  XORLW  FF
0823A:  ADDLW  38
0823C:  MOVLB  7
0823E:  MOVWF  x85
08240:  MOVLW  00
08242:  SUBFWB 02,W
08244:  MOVWF  x86
08246:  MOVLW  1B
08248:  MOVWF  xA9
0824A:  MOVLW  37
0824C:  MOVWF  xAA
0824E:  MOVLW  25
08250:  MOVWF  xAB
08252:  MOVFF  785,7AC
08256:  MOVLW  01
08258:  MOVWF  xAD
0825A:  MOVLB  0
0825C:  CALL   164A
....................                glcd_line(27+10,55-Temperatura1[ProgramaSeleccionado*10]/30,27+20,55-Temperatura1[(ProgramaSeleccionado*10)+1]/30,ON); 
08260:  MOVLB  5
08262:  MOVF   xA7,W
08264:  MULLW  0A
08266:  MOVFF  FF3,00
0826A:  BCF    FD8.0
0826C:  RLCF   00,F
0826E:  MOVF   00,W
08270:  CLRF   03
08272:  ADDLW  35
08274:  MOVWF  FE9
08276:  MOVLW  06
08278:  ADDWFC 03,W
0827A:  MOVWF  FEA
0827C:  MOVFF  FEC,78A
08280:  MOVF   FED,F
08282:  MOVFF  FEF,789
08286:  MOVLB  7
08288:  CLRF   x8C
0828A:  MOVLW  1E
0828C:  MOVWF  x8B
0828E:  MOVLB  0
08290:  CALL   260E
08294:  MOVF   01,W
08296:  XORLW  FF
08298:  ADDLW  38
0829A:  MOVLB  7
0829C:  MOVWF  x85
0829E:  MOVLW  00
082A0:  SUBFWB 02,W
082A2:  MOVWF  x86
082A4:  MOVLB  5
082A6:  MOVF   xA7,W
082A8:  MULLW  0A
082AA:  MOVF   FF3,W
082AC:  ADDLW  01
082AE:  MOVWF  00
082B0:  BCF    FD8.0
082B2:  RLCF   00,F
082B4:  MOVF   00,W
082B6:  CLRF   03
082B8:  ADDLW  35
082BA:  MOVWF  FE9
082BC:  MOVLW  06
082BE:  ADDWFC 03,W
082C0:  MOVWF  FEA
082C2:  MOVFF  FEC,78A
082C6:  MOVF   FED,F
082C8:  MOVFF  FEF,789
082CC:  MOVLB  7
082CE:  CLRF   x8C
082D0:  MOVLW  1E
082D2:  MOVWF  x8B
082D4:  MOVLB  0
082D6:  CALL   260E
082DA:  MOVFF  02,03
082DE:  MOVF   01,W
082E0:  XORLW  FF
082E2:  ADDLW  38
082E4:  MOVLB  7
082E6:  MOVWF  x87
082E8:  MOVLW  00
082EA:  SUBFWB 02,W
082EC:  MOVWF  x88
082EE:  MOVLW  25
082F0:  MOVWF  xA9
082F2:  MOVFF  785,7AA
082F6:  MOVLW  2F
082F8:  MOVWF  xAB
082FA:  MOVFF  787,7AC
082FE:  MOVLW  01
08300:  MOVWF  xAD
08302:  MOVLB  0
08304:  CALL   164A
....................                glcd_line(27+20,55-Temperatura1[(ProgramaSeleccionado*10)+1]/30,27+30,55-Temperatura1[(ProgramaSeleccionado*10)+2]/30,ON); 
08308:  MOVLB  5
0830A:  MOVF   xA7,W
0830C:  MULLW  0A
0830E:  MOVF   FF3,W
08310:  ADDLW  01
08312:  MOVWF  00
08314:  BCF    FD8.0
08316:  RLCF   00,F
08318:  MOVF   00,W
0831A:  CLRF   03
0831C:  ADDLW  35
0831E:  MOVWF  FE9
08320:  MOVLW  06
08322:  ADDWFC 03,W
08324:  MOVWF  FEA
08326:  MOVFF  FEC,78A
0832A:  MOVF   FED,F
0832C:  MOVFF  FEF,789
08330:  MOVLB  7
08332:  CLRF   x8C
08334:  MOVLW  1E
08336:  MOVWF  x8B
08338:  MOVLB  0
0833A:  CALL   260E
0833E:  MOVF   01,W
08340:  XORLW  FF
08342:  ADDLW  38
08344:  MOVLB  7
08346:  MOVWF  x85
08348:  MOVLW  00
0834A:  SUBFWB 02,W
0834C:  MOVWF  x86
0834E:  MOVLB  5
08350:  MOVF   xA7,W
08352:  MULLW  0A
08354:  MOVF   FF3,W
08356:  ADDLW  02
08358:  MOVWF  00
0835A:  BCF    FD8.0
0835C:  RLCF   00,F
0835E:  MOVF   00,W
08360:  CLRF   03
08362:  ADDLW  35
08364:  MOVWF  FE9
08366:  MOVLW  06
08368:  ADDWFC 03,W
0836A:  MOVWF  FEA
0836C:  MOVFF  FEC,78A
08370:  MOVF   FED,F
08372:  MOVFF  FEF,789
08376:  MOVLB  7
08378:  CLRF   x8C
0837A:  MOVLW  1E
0837C:  MOVWF  x8B
0837E:  MOVLB  0
08380:  CALL   260E
08384:  MOVFF  02,03
08388:  MOVF   01,W
0838A:  XORLW  FF
0838C:  ADDLW  38
0838E:  MOVLB  7
08390:  MOVWF  x87
08392:  MOVLW  00
08394:  SUBFWB 02,W
08396:  MOVWF  x88
08398:  MOVLW  2F
0839A:  MOVWF  xA9
0839C:  MOVFF  785,7AA
083A0:  MOVLW  39
083A2:  MOVWF  xAB
083A4:  MOVFF  787,7AC
083A8:  MOVLW  01
083AA:  MOVWF  xAD
083AC:  MOVLB  0
083AE:  CALL   164A
....................                glcd_line(27+30,55-Temperatura1[(ProgramaSeleccionado*10)+2]/30,27+40,55-Temperatura1[(ProgramaSeleccionado*10)+3]/30,ON); 
083B2:  MOVLB  5
083B4:  MOVF   xA7,W
083B6:  MULLW  0A
083B8:  MOVF   FF3,W
083BA:  ADDLW  02
083BC:  MOVWF  00
083BE:  BCF    FD8.0
083C0:  RLCF   00,F
083C2:  MOVF   00,W
083C4:  CLRF   03
083C6:  ADDLW  35
083C8:  MOVWF  FE9
083CA:  MOVLW  06
083CC:  ADDWFC 03,W
083CE:  MOVWF  FEA
083D0:  MOVFF  FEC,78A
083D4:  MOVF   FED,F
083D6:  MOVFF  FEF,789
083DA:  MOVLB  7
083DC:  CLRF   x8C
083DE:  MOVLW  1E
083E0:  MOVWF  x8B
083E2:  MOVLB  0
083E4:  CALL   260E
083E8:  MOVF   01,W
083EA:  XORLW  FF
083EC:  ADDLW  38
083EE:  MOVLB  7
083F0:  MOVWF  x85
083F2:  MOVLW  00
083F4:  SUBFWB 02,W
083F6:  MOVWF  x86
083F8:  MOVLB  5
083FA:  MOVF   xA7,W
083FC:  MULLW  0A
083FE:  MOVF   FF3,W
08400:  ADDLW  03
08402:  MOVWF  00
08404:  BCF    FD8.0
08406:  RLCF   00,F
08408:  MOVF   00,W
0840A:  CLRF   03
0840C:  ADDLW  35
0840E:  MOVWF  FE9
08410:  MOVLW  06
08412:  ADDWFC 03,W
08414:  MOVWF  FEA
08416:  MOVFF  FEC,78A
0841A:  MOVF   FED,F
0841C:  MOVFF  FEF,789
08420:  MOVLB  7
08422:  CLRF   x8C
08424:  MOVLW  1E
08426:  MOVWF  x8B
08428:  MOVLB  0
0842A:  CALL   260E
0842E:  MOVFF  02,03
08432:  MOVF   01,W
08434:  XORLW  FF
08436:  ADDLW  38
08438:  MOVLB  7
0843A:  MOVWF  x87
0843C:  MOVLW  00
0843E:  SUBFWB 02,W
08440:  MOVWF  x88
08442:  MOVLW  39
08444:  MOVWF  xA9
08446:  MOVFF  785,7AA
0844A:  MOVLW  43
0844C:  MOVWF  xAB
0844E:  MOVFF  787,7AC
08452:  MOVLW  01
08454:  MOVWF  xAD
08456:  MOVLB  0
08458:  CALL   164A
....................                glcd_line(27+40,55-Temperatura1[(ProgramaSeleccionado*10)+3]/30,27+50,55-Temperatura1[(ProgramaSeleccionado*10)+4]/30,ON); 
0845C:  MOVLB  5
0845E:  MOVF   xA7,W
08460:  MULLW  0A
08462:  MOVF   FF3,W
08464:  ADDLW  03
08466:  MOVWF  00
08468:  BCF    FD8.0
0846A:  RLCF   00,F
0846C:  MOVF   00,W
0846E:  CLRF   03
08470:  ADDLW  35
08472:  MOVWF  FE9
08474:  MOVLW  06
08476:  ADDWFC 03,W
08478:  MOVWF  FEA
0847A:  MOVFF  FEC,78A
0847E:  MOVF   FED,F
08480:  MOVFF  FEF,789
08484:  MOVLB  7
08486:  CLRF   x8C
08488:  MOVLW  1E
0848A:  MOVWF  x8B
0848C:  MOVLB  0
0848E:  CALL   260E
08492:  MOVF   01,W
08494:  XORLW  FF
08496:  ADDLW  38
08498:  MOVLB  7
0849A:  MOVWF  x85
0849C:  MOVLW  00
0849E:  SUBFWB 02,W
084A0:  MOVWF  x86
084A2:  MOVLB  5
084A4:  MOVF   xA7,W
084A6:  MULLW  0A
084A8:  MOVF   FF3,W
084AA:  ADDLW  04
084AC:  MOVWF  00
084AE:  BCF    FD8.0
084B0:  RLCF   00,F
084B2:  MOVF   00,W
084B4:  CLRF   03
084B6:  ADDLW  35
084B8:  MOVWF  FE9
084BA:  MOVLW  06
084BC:  ADDWFC 03,W
084BE:  MOVWF  FEA
084C0:  MOVFF  FEC,78A
084C4:  MOVF   FED,F
084C6:  MOVFF  FEF,789
084CA:  MOVLB  7
084CC:  CLRF   x8C
084CE:  MOVLW  1E
084D0:  MOVWF  x8B
084D2:  MOVLB  0
084D4:  CALL   260E
084D8:  MOVFF  02,03
084DC:  MOVF   01,W
084DE:  XORLW  FF
084E0:  ADDLW  38
084E2:  MOVLB  7
084E4:  MOVWF  x87
084E6:  MOVLW  00
084E8:  SUBFWB 02,W
084EA:  MOVWF  x88
084EC:  MOVLW  43
084EE:  MOVWF  xA9
084F0:  MOVFF  785,7AA
084F4:  MOVLW  4D
084F6:  MOVWF  xAB
084F8:  MOVFF  787,7AC
084FC:  MOVLW  01
084FE:  MOVWF  xAD
08500:  MOVLB  0
08502:  CALL   164A
....................                glcd_line(27+50,55-Temperatura1[(ProgramaSeleccionado*10)+4]/30,27+60,55-Temperatura1[(ProgramaSeleccionado*10)+5]/30,ON); 
08506:  MOVLB  5
08508:  MOVF   xA7,W
0850A:  MULLW  0A
0850C:  MOVF   FF3,W
0850E:  ADDLW  04
08510:  MOVWF  00
08512:  BCF    FD8.0
08514:  RLCF   00,F
08516:  MOVF   00,W
08518:  CLRF   03
0851A:  ADDLW  35
0851C:  MOVWF  FE9
0851E:  MOVLW  06
08520:  ADDWFC 03,W
08522:  MOVWF  FEA
08524:  MOVFF  FEC,78A
08528:  MOVF   FED,F
0852A:  MOVFF  FEF,789
0852E:  MOVLB  7
08530:  CLRF   x8C
08532:  MOVLW  1E
08534:  MOVWF  x8B
08536:  MOVLB  0
08538:  CALL   260E
0853C:  MOVF   01,W
0853E:  XORLW  FF
08540:  ADDLW  38
08542:  MOVLB  7
08544:  MOVWF  x85
08546:  MOVLW  00
08548:  SUBFWB 02,W
0854A:  MOVWF  x86
0854C:  MOVLB  5
0854E:  MOVF   xA7,W
08550:  MULLW  0A
08552:  MOVF   FF3,W
08554:  ADDLW  05
08556:  MOVWF  00
08558:  BCF    FD8.0
0855A:  RLCF   00,F
0855C:  MOVF   00,W
0855E:  CLRF   03
08560:  ADDLW  35
08562:  MOVWF  FE9
08564:  MOVLW  06
08566:  ADDWFC 03,W
08568:  MOVWF  FEA
0856A:  MOVFF  FEC,78A
0856E:  MOVF   FED,F
08570:  MOVFF  FEF,789
08574:  MOVLB  7
08576:  CLRF   x8C
08578:  MOVLW  1E
0857A:  MOVWF  x8B
0857C:  MOVLB  0
0857E:  CALL   260E
08582:  MOVFF  02,03
08586:  MOVF   01,W
08588:  XORLW  FF
0858A:  ADDLW  38
0858C:  MOVLB  7
0858E:  MOVWF  x87
08590:  MOVLW  00
08592:  SUBFWB 02,W
08594:  MOVWF  x88
08596:  MOVLW  4D
08598:  MOVWF  xA9
0859A:  MOVFF  785,7AA
0859E:  MOVLW  57
085A0:  MOVWF  xAB
085A2:  MOVFF  787,7AC
085A6:  MOVLW  01
085A8:  MOVWF  xAD
085AA:  MOVLB  0
085AC:  CALL   164A
....................                glcd_line(27+60,55-Temperatura1[(ProgramaSeleccionado*10)+5]/30,27+70,55-Temperatura1[(ProgramaSeleccionado*10)+6]/30,ON); 
085B0:  MOVLB  5
085B2:  MOVF   xA7,W
085B4:  MULLW  0A
085B6:  MOVF   FF3,W
085B8:  ADDLW  05
085BA:  MOVWF  00
085BC:  BCF    FD8.0
085BE:  RLCF   00,F
085C0:  MOVF   00,W
085C2:  CLRF   03
085C4:  ADDLW  35
085C6:  MOVWF  FE9
085C8:  MOVLW  06
085CA:  ADDWFC 03,W
085CC:  MOVWF  FEA
085CE:  MOVFF  FEC,78A
085D2:  MOVF   FED,F
085D4:  MOVFF  FEF,789
085D8:  MOVLB  7
085DA:  CLRF   x8C
085DC:  MOVLW  1E
085DE:  MOVWF  x8B
085E0:  MOVLB  0
085E2:  CALL   260E
085E6:  MOVF   01,W
085E8:  XORLW  FF
085EA:  ADDLW  38
085EC:  MOVLB  7
085EE:  MOVWF  x85
085F0:  MOVLW  00
085F2:  SUBFWB 02,W
085F4:  MOVWF  x86
085F6:  MOVLB  5
085F8:  MOVF   xA7,W
085FA:  MULLW  0A
085FC:  MOVF   FF3,W
085FE:  ADDLW  06
08600:  MOVWF  00
08602:  BCF    FD8.0
08604:  RLCF   00,F
08606:  MOVF   00,W
08608:  CLRF   03
0860A:  ADDLW  35
0860C:  MOVWF  FE9
0860E:  MOVLW  06
08610:  ADDWFC 03,W
08612:  MOVWF  FEA
08614:  MOVFF  FEC,78A
08618:  MOVF   FED,F
0861A:  MOVFF  FEF,789
0861E:  MOVLB  7
08620:  CLRF   x8C
08622:  MOVLW  1E
08624:  MOVWF  x8B
08626:  MOVLB  0
08628:  CALL   260E
0862C:  MOVFF  02,03
08630:  MOVF   01,W
08632:  XORLW  FF
08634:  ADDLW  38
08636:  MOVLB  7
08638:  MOVWF  x87
0863A:  MOVLW  00
0863C:  SUBFWB 02,W
0863E:  MOVWF  x88
08640:  MOVLW  57
08642:  MOVWF  xA9
08644:  MOVFF  785,7AA
08648:  MOVLW  61
0864A:  MOVWF  xAB
0864C:  MOVFF  787,7AC
08650:  MOVLW  01
08652:  MOVWF  xAD
08654:  MOVLB  0
08656:  CALL   164A
....................                glcd_line(27+70,55-Temperatura1[(ProgramaSeleccionado*10)+6]/30,27+80,55-Temperatura1[(ProgramaSeleccionado*10)+7]/30,ON); 
0865A:  MOVLB  5
0865C:  MOVF   xA7,W
0865E:  MULLW  0A
08660:  MOVF   FF3,W
08662:  ADDLW  06
08664:  MOVWF  00
08666:  BCF    FD8.0
08668:  RLCF   00,F
0866A:  MOVF   00,W
0866C:  CLRF   03
0866E:  ADDLW  35
08670:  MOVWF  FE9
08672:  MOVLW  06
08674:  ADDWFC 03,W
08676:  MOVWF  FEA
08678:  MOVFF  FEC,78A
0867C:  MOVF   FED,F
0867E:  MOVFF  FEF,789
08682:  MOVLB  7
08684:  CLRF   x8C
08686:  MOVLW  1E
08688:  MOVWF  x8B
0868A:  MOVLB  0
0868C:  CALL   260E
08690:  MOVF   01,W
08692:  XORLW  FF
08694:  ADDLW  38
08696:  MOVLB  7
08698:  MOVWF  x85
0869A:  MOVLW  00
0869C:  SUBFWB 02,W
0869E:  MOVWF  x86
086A0:  MOVLB  5
086A2:  MOVF   xA7,W
086A4:  MULLW  0A
086A6:  MOVF   FF3,W
086A8:  ADDLW  07
086AA:  MOVWF  00
086AC:  BCF    FD8.0
086AE:  RLCF   00,F
086B0:  MOVF   00,W
086B2:  CLRF   03
086B4:  ADDLW  35
086B6:  MOVWF  FE9
086B8:  MOVLW  06
086BA:  ADDWFC 03,W
086BC:  MOVWF  FEA
086BE:  MOVFF  FEC,78A
086C2:  MOVF   FED,F
086C4:  MOVFF  FEF,789
086C8:  MOVLB  7
086CA:  CLRF   x8C
086CC:  MOVLW  1E
086CE:  MOVWF  x8B
086D0:  MOVLB  0
086D2:  CALL   260E
086D6:  MOVFF  02,03
086DA:  MOVF   01,W
086DC:  XORLW  FF
086DE:  ADDLW  38
086E0:  MOVLB  7
086E2:  MOVWF  x87
086E4:  MOVLW  00
086E6:  SUBFWB 02,W
086E8:  MOVWF  x88
086EA:  MOVLW  61
086EC:  MOVWF  xA9
086EE:  MOVFF  785,7AA
086F2:  MOVLW  6B
086F4:  MOVWF  xAB
086F6:  MOVFF  787,7AC
086FA:  MOVLW  01
086FC:  MOVWF  xAD
086FE:  MOVLB  0
08700:  CALL   164A
....................                glcd_line(27+80,55-Temperatura1[(ProgramaSeleccionado*10)+7]/30,27+90,55-Temperatura1[(ProgramaSeleccionado*10)+8]/30,ON); 
08704:  MOVLB  5
08706:  MOVF   xA7,W
08708:  MULLW  0A
0870A:  MOVF   FF3,W
0870C:  ADDLW  07
0870E:  MOVWF  00
08710:  BCF    FD8.0
08712:  RLCF   00,F
08714:  MOVF   00,W
08716:  CLRF   03
08718:  ADDLW  35
0871A:  MOVWF  FE9
0871C:  MOVLW  06
0871E:  ADDWFC 03,W
08720:  MOVWF  FEA
08722:  MOVFF  FEC,78A
08726:  MOVF   FED,F
08728:  MOVFF  FEF,789
0872C:  MOVLB  7
0872E:  CLRF   x8C
08730:  MOVLW  1E
08732:  MOVWF  x8B
08734:  MOVLB  0
08736:  CALL   260E
0873A:  MOVF   01,W
0873C:  XORLW  FF
0873E:  ADDLW  38
08740:  MOVLB  7
08742:  MOVWF  x85
08744:  MOVLW  00
08746:  SUBFWB 02,W
08748:  MOVWF  x86
0874A:  MOVLB  5
0874C:  MOVF   xA7,W
0874E:  MULLW  0A
08750:  MOVF   FF3,W
08752:  ADDLW  08
08754:  MOVWF  00
08756:  BCF    FD8.0
08758:  RLCF   00,F
0875A:  MOVF   00,W
0875C:  CLRF   03
0875E:  ADDLW  35
08760:  MOVWF  FE9
08762:  MOVLW  06
08764:  ADDWFC 03,W
08766:  MOVWF  FEA
08768:  MOVFF  FEC,78A
0876C:  MOVF   FED,F
0876E:  MOVFF  FEF,789
08772:  MOVLB  7
08774:  CLRF   x8C
08776:  MOVLW  1E
08778:  MOVWF  x8B
0877A:  MOVLB  0
0877C:  CALL   260E
08780:  MOVFF  02,03
08784:  MOVF   01,W
08786:  XORLW  FF
08788:  ADDLW  38
0878A:  MOVLB  7
0878C:  MOVWF  x87
0878E:  MOVLW  00
08790:  SUBFWB 02,W
08792:  MOVWF  x88
08794:  MOVLW  6B
08796:  MOVWF  xA9
08798:  MOVFF  785,7AA
0879C:  MOVLW  75
0879E:  MOVWF  xAB
087A0:  MOVFF  787,7AC
087A4:  MOVLW  01
087A6:  MOVWF  xAD
087A8:  MOVLB  0
087AA:  CALL   164A
....................                glcd_line(27+90,55-Temperatura1[(ProgramaSeleccionado*10)+8]/30,27+100,55-Temperatura1[(ProgramaSeleccionado*10)+9]/30,ON); 
087AE:  MOVLB  5
087B0:  MOVF   xA7,W
087B2:  MULLW  0A
087B4:  MOVF   FF3,W
087B6:  ADDLW  08
087B8:  MOVWF  00
087BA:  BCF    FD8.0
087BC:  RLCF   00,F
087BE:  MOVF   00,W
087C0:  CLRF   03
087C2:  ADDLW  35
087C4:  MOVWF  FE9
087C6:  MOVLW  06
087C8:  ADDWFC 03,W
087CA:  MOVWF  FEA
087CC:  MOVFF  FEC,78A
087D0:  MOVF   FED,F
087D2:  MOVFF  FEF,789
087D6:  MOVLB  7
087D8:  CLRF   x8C
087DA:  MOVLW  1E
087DC:  MOVWF  x8B
087DE:  MOVLB  0
087E0:  CALL   260E
087E4:  MOVF   01,W
087E6:  XORLW  FF
087E8:  ADDLW  38
087EA:  MOVLB  7
087EC:  MOVWF  x85
087EE:  MOVLW  00
087F0:  SUBFWB 02,W
087F2:  MOVWF  x86
087F4:  MOVLB  5
087F6:  MOVF   xA7,W
087F8:  MULLW  0A
087FA:  MOVF   FF3,W
087FC:  ADDLW  09
087FE:  MOVWF  00
08800:  BCF    FD8.0
08802:  RLCF   00,F
08804:  MOVF   00,W
08806:  CLRF   03
08808:  ADDLW  35
0880A:  MOVWF  FE9
0880C:  MOVLW  06
0880E:  ADDWFC 03,W
08810:  MOVWF  FEA
08812:  MOVFF  FEC,78A
08816:  MOVF   FED,F
08818:  MOVFF  FEF,789
0881C:  MOVLB  7
0881E:  CLRF   x8C
08820:  MOVLW  1E
08822:  MOVWF  x8B
08824:  MOVLB  0
08826:  CALL   260E
0882A:  MOVFF  02,03
0882E:  MOVF   01,W
08830:  XORLW  FF
08832:  ADDLW  38
08834:  MOVLB  7
08836:  MOVWF  x87
08838:  MOVLW  00
0883A:  SUBFWB 02,W
0883C:  MOVWF  x88
0883E:  MOVLW  75
08840:  MOVWF  xA9
08842:  MOVFF  785,7AA
08846:  MOVLW  7F
08848:  MOVWF  xAB
0884A:  MOVFF  787,7AC
0884E:  MOVLW  01
08850:  MOVWF  xAD
08852:  MOVLB  0
08854:  CALL   164A
....................                glcd_update(); 
08858:  CALL   1298
....................                for(i=0;i<80;i++) 
0885C:  MOVLB  5
0885E:  CLRF   xA0
08860:  MOVF   xA0,W
08862:  SUBLW  4F
08864:  BNC   8886
....................                { 
....................                   Temperatura=Leer_Sensor(MediaMovil); 
08866:  MOVFF  590,785
0886A:  MOVLB  0
0886C:  CALL   20A6
08870:  MOVFF  03,620
08874:  MOVFF  02,61F
08878:  MOVFF  01,61E
0887C:  MOVFF  00,61D
08880:  MOVLB  5
08882:  INCF   xA0,F
08884:  BRA    8860
....................                } 
....................             delay_ms(3000); 
08886:  MOVLW  0C
08888:  MOVLB  7
0888A:  MOVWF  x85
0888C:  MOVLW  FA
0888E:  MOVWF  x8B
08890:  MOVLB  0
08892:  CALL   1166
08896:  MOVLB  7
08898:  DECFSZ x85,F
0889A:  BRA    888C
....................             glcd_fillscreen(OFF); 
0889C:  CLRF   x86
0889E:  MOVLB  0
088A0:  CALL   123E
088A4:  MOVLB  7
....................       } 
....................              
....................       if(DOWN)//Si oprime hacia abajo 
088A6:  BSF    F96.0
088A8:  BTFSS  F84.0
088AA:  BRA    88AC
....................       {   
....................       } 
....................        
....................       if(RIGHT)//Si oprime SET 
088AC:  BSF    F96.1
088AE:  BTFSS  F84.1
088B0:  BRA    8902
....................       {   
....................          if(Pausa!=2) 
088B2:  MOVLB  5
088B4:  MOVF   xA2,W
088B6:  SUBLW  02
088B8:  BZ    8900
....................          { 
....................             if(Pausa==0) 
088BA:  MOVF   xA2,F
088BC:  BNZ   88D2
....................             { 
....................                delay_ms(200);Pausa=1; 
088BE:  MOVLW  C8
088C0:  MOVLB  7
088C2:  MOVWF  x8B
088C4:  MOVLB  0
088C6:  CALL   1166
088CA:  MOVLW  01
088CC:  MOVLB  5
088CE:  MOVWF  xA2
....................             } 
088D0:  BRA    88E2
....................             else 
....................             { 
....................                delay_ms(200);Pausa=0; 
088D2:  MOVLW  C8
088D4:  MOVLB  7
088D6:  MOVWF  x8B
088D8:  MOVLB  0
088DA:  CALL   1166
088DE:  MOVLB  5
088E0:  CLRF   xA2
....................             } 
....................             glcd_rect(0, 55, 127, 63, YES, OFF); 
088E2:  MOVLB  7
088E4:  CLRF   x9D
088E6:  MOVLW  37
088E8:  MOVWF  x9E
088EA:  MOVLW  7F
088EC:  MOVWF  x9F
088EE:  MOVLW  3F
088F0:  MOVWF  xA0
088F2:  MOVLW  01
088F4:  MOVWF  xA1
088F6:  CLRF   xA2
088F8:  MOVLB  0
088FA:  CALL   1780
088FE:  MOVLB  5
08900:  MOVLB  7
....................          } 
....................       } 
....................        
....................          
....................       if(Lectura==1)// Utilizado para visualizar la lectura de la temperatura 
08902:  MOVLB  5
08904:  BTFSS  x8B.7
08906:  BRA    8EB4
....................       {                  
....................           
....................          Lectura=0; 
08908:  BCF    x8B.7
....................          Potencia=(100.0/Tciclo)*Tpulso; 
0890A:  MOVLB  7
0890C:  CLRF   x8C
0890E:  CLRF   x8B
08910:  MOVLW  48
08912:  MOVWF  x8A
08914:  MOVLW  85
08916:  MOVWF  x89
08918:  MOVFF  5F4,790
0891C:  MOVFF  5F3,78F
08920:  MOVFF  5F2,78E
08924:  MOVFF  5F1,78D
08928:  MOVLB  0
0892A:  CALL   1E52
0892E:  MOVFF  03,788
08932:  MOVFF  02,787
08936:  MOVFF  01,786
0893A:  MOVFF  00,785
0893E:  MOVFF  03,78C
08942:  MOVFF  02,78B
08946:  MOVFF  01,78A
0894A:  MOVFF  00,789
0894E:  MOVFF  5F8,790
08952:  MOVFF  5F7,78F
08956:  MOVFF  5F6,78E
0895A:  MOVFF  5F5,78D
0895E:  CALL   1FB0
08962:  MOVFF  03,5D8
08966:  MOVFF  02,5D7
0896A:  MOVFF  01,5D6
0896E:  MOVFF  00,5D5
....................           
....................  //----------------Muestra Temperatura-------------------------- 
....................          if(Temperatura>1200 || Temperatura<0) 
08972:  MOVLB  7
08974:  CLRF   x88
08976:  CLRF   x87
08978:  MOVLW  16
0897A:  MOVWF  x86
0897C:  MOVLW  89
0897E:  MOVWF  x85
08980:  MOVFF  620,78C
08984:  MOVFF  61F,78B
08988:  MOVFF  61E,78A
0898C:  MOVFF  61D,789
08990:  MOVLB  0
08992:  CALL   118E
08996:  BC    89BA
08998:  MOVFF  620,788
0899C:  MOVFF  61F,787
089A0:  MOVFF  61E,786
089A4:  MOVFF  61D,785
089A8:  MOVLB  7
089AA:  CLRF   x8C
089AC:  CLRF   x8B
089AE:  CLRF   x8A
089B0:  CLRF   x89
089B2:  MOVLB  0
089B4:  CALL   118E
089B8:  BNC   8A1A
....................          { 
....................             glcd_rect(15, 29, 69, 45, YES, OFF); 
089BA:  MOVLW  0F
089BC:  MOVLB  7
089BE:  MOVWF  x9D
089C0:  MOVLW  1D
089C2:  MOVWF  x9E
089C4:  MOVLW  45
089C6:  MOVWF  x9F
089C8:  MOVLW  2D
089CA:  MOVWF  xA0
089CC:  MOVLW  01
089CE:  MOVWF  xA1
089D0:  CLRF   xA2
089D2:  MOVLB  0
089D4:  CALL   1780
....................             strcpy(Menus.Letra,"-----");displayMenu(Menus.Letra,15,29,2,2); 
089D8:  MOVLW  07
089DA:  MOVWF  FEA
089DC:  MOVLW  61
089DE:  MOVWF  FE9
089E0:  MOVLW  00
089E2:  CALL   0DB0
089E6:  TBLRD*-
089E8:  TBLRD*+
089EA:  MOVF   FF5,W
089EC:  MOVWF  FEE
089EE:  IORLW  00
089F0:  BNZ   89E8
089F2:  MOVLW  07
089F4:  MOVLB  7
089F6:  MOVWF  x89
089F8:  MOVLW  61
089FA:  MOVWF  x88
089FC:  MOVLW  0F
089FE:  MOVWF  x8A
08A00:  MOVLW  1D
08A02:  MOVWF  x8B
08A04:  MOVLW  02
08A06:  MOVWF  x8C
08A08:  MOVWF  x8D
08A0A:  MOVLB  0
08A0C:  CALL   1842
....................             Desconectado=1; 
08A10:  MOVLB  5
08A12:  BSF    x8B.2
....................             Control=0; 
08A14:  CLRF   x9D
....................          } 
08A16:  BRA    8AA0
08A18:  MOVLB  0
....................          else 
....................          { 
....................             if(Desconectado==1) 
08A1A:  MOVLB  5
08A1C:  BTFSS  x8B.2
08A1E:  BRA    8A64
....................             { 
....................                Desconectado=0; 
08A20:  BCF    x8B.2
....................                delay_ms(2000); 
08A22:  MOVLW  08
08A24:  MOVLB  7
08A26:  MOVWF  x85
08A28:  MOVLW  FA
08A2A:  MOVWF  x8B
08A2C:  MOVLB  0
08A2E:  CALL   1166
08A32:  MOVLB  7
08A34:  DECFSZ x85,F
08A36:  BRA    8A28
....................                for(i=0;i<80;i++) 
08A38:  MOVLB  5
08A3A:  CLRF   xA0
08A3C:  MOVF   xA0,W
08A3E:  SUBLW  4F
08A40:  BNC   8A64
....................                { 
....................                   Temperatura=Leer_Sensor(80); 
08A42:  MOVLW  50
08A44:  MOVLB  7
08A46:  MOVWF  x85
08A48:  MOVLB  0
08A4A:  CALL   20A6
08A4E:  MOVFF  03,620
08A52:  MOVFF  02,61F
08A56:  MOVFF  01,61E
08A5A:  MOVFF  00,61D
08A5E:  MOVLB  5
08A60:  INCF   xA0,F
08A62:  BRA    8A3C
....................                } 
....................             } 
....................              
....................                displayT(Temperatura,15,29,2); 
08A64:  MOVFF  620,788
08A68:  MOVFF  61F,787
08A6C:  MOVFF  61E,786
08A70:  MOVFF  61D,785
08A74:  MOVLB  0
08A76:  CALL   3DCE
08A7A:  MOVFF  02,786
08A7E:  MOVFF  01,785
08A82:  MOVFF  02,788
08A86:  MOVFF  01,787
08A8A:  MOVLW  0F
08A8C:  MOVLB  7
08A8E:  MOVWF  x89
08A90:  MOVLW  1D
08A92:  MOVWF  x8A
08A94:  MOVLW  02
08A96:  MOVWF  x8B
08A98:  MOVLB  0
08A9A:  GOTO   4992
08A9E:  MOVLB  5
....................              
....................             //displayTemperatura(Temperatura,15,29,0,2); 
....................          } 
....................  
....................          //displayT(Temperatura,15,29,2); 
....................             Dibuja=0; 
08AA0:  BCF    x99.5
....................             glcd_circle(74,30,2,NO,ON); 
08AA2:  MOVLW  4A
08AA4:  MOVLB  7
08AA6:  MOVWF  x9D
08AA8:  MOVLW  1E
08AAA:  MOVWF  x9E
08AAC:  MOVLW  02
08AAE:  MOVWF  x9F
08AB0:  CLRF   xA0
08AB2:  MOVLW  01
08AB4:  MOVWF  xA1
08AB6:  MOVLB  0
08AB8:  CALL   2908
....................             strcpy(Menus.Letra,"C");displayMenu(Menus.Letra,75,30,2,2); 
08ABC:  MOVLW  07
08ABE:  MOVWF  FEA
08AC0:  MOVLW  61
08AC2:  MOVWF  FE9
08AC4:  MOVLW  00
08AC6:  CALL   06D4
08ACA:  TBLRD*-
08ACC:  TBLRD*+
08ACE:  MOVF   FF5,W
08AD0:  MOVWF  FEE
08AD2:  IORLW  00
08AD4:  BNZ   8ACC
08AD6:  MOVLW  07
08AD8:  MOVLB  7
08ADA:  MOVWF  x89
08ADC:  MOVLW  61
08ADE:  MOVWF  x88
08AE0:  MOVLW  4B
08AE2:  MOVWF  x8A
08AE4:  MOVLW  1E
08AE6:  MOVWF  x8B
08AE8:  MOVLW  02
08AEA:  MOVWF  x8C
08AEC:  MOVWF  x8D
08AEE:  MOVLB  0
08AF0:  CALL   1842
....................              
....................             displayTemperatura(Setpoint,30,45,0,1); 
08AF4:  MOVFF  62C,788
08AF8:  MOVFF  62B,787
08AFC:  MOVFF  62A,786
08B00:  MOVFF  629,785
08B04:  CALL   3DCE
08B08:  MOVFF  02,786
08B0C:  MOVFF  01,785
08B10:  MOVFF  02,78B
08B14:  MOVFF  01,78A
08B18:  MOVLW  1E
08B1A:  MOVLB  7
08B1C:  MOVWF  x8C
08B1E:  MOVLW  2D
08B20:  MOVWF  x8D
08B22:  CLRF   x8E
08B24:  MOVLW  01
08B26:  MOVWF  x8F
08B28:  MOVLB  0
08B2A:  CALL   274E
....................             glcd_circle(60,47,1,NO,ON); 
08B2E:  MOVLW  3C
08B30:  MOVLB  7
08B32:  MOVWF  x9D
08B34:  MOVLW  2F
08B36:  MOVWF  x9E
08B38:  MOVLW  01
08B3A:  MOVWF  x9F
08B3C:  CLRF   xA0
08B3E:  MOVWF  xA1
08B40:  MOVLB  0
08B42:  CALL   2908
....................             strcpy(Menus.Letra,"C");displayMenu(Menus.Letra,63,45,2,1); 
08B46:  MOVLW  07
08B48:  MOVWF  FEA
08B4A:  MOVLW  61
08B4C:  MOVWF  FE9
08B4E:  MOVLW  00
08B50:  CALL   06D4
08B54:  TBLRD*-
08B56:  TBLRD*+
08B58:  MOVF   FF5,W
08B5A:  MOVWF  FEE
08B5C:  IORLW  00
08B5E:  BNZ   8B56
08B60:  MOVLW  07
08B62:  MOVLB  7
08B64:  MOVWF  x89
08B66:  MOVLW  61
08B68:  MOVWF  x88
08B6A:  MOVLW  3F
08B6C:  MOVWF  x8A
08B6E:  MOVLW  2D
08B70:  MOVWF  x8B
08B72:  MOVLW  02
08B74:  MOVWF  x8C
08B76:  MOVLW  01
08B78:  MOVWF  x8D
08B7A:  MOVLB  0
08B7C:  CALL   1842
....................             strcpy(Menus.Letra,"Temp:");displayMenu(Menus.Letra,0,45,2,1);  
08B80:  MOVLW  07
08B82:  MOVWF  FEA
08B84:  MOVLW  61
08B86:  MOVWF  FE9
08B88:  MOVLW  00
08B8A:  CALL   0DCA
08B8E:  TBLRD*-
08B90:  TBLRD*+
08B92:  MOVF   FF5,W
08B94:  MOVWF  FEE
08B96:  IORLW  00
08B98:  BNZ   8B90
08B9A:  MOVLW  07
08B9C:  MOVLB  7
08B9E:  MOVWF  x89
08BA0:  MOVLW  61
08BA2:  MOVWF  x88
08BA4:  CLRF   x8A
08BA6:  MOVLW  2D
08BA8:  MOVWF  x8B
08BAA:  MOVLW  02
08BAC:  MOVWF  x8C
08BAE:  MOVLW  01
08BB0:  MOVWF  x8D
08BB2:  MOVLB  0
08BB4:  CALL   1842
....................              
....................             strcpy(Menus.Letra,"Power:");displayMenu(Menus.Letra,91,32,2,1); 
08BB8:  MOVLW  07
08BBA:  MOVWF  FEA
08BBC:  MOVLW  61
08BBE:  MOVWF  FE9
08BC0:  MOVLW  00
08BC2:  CALL   0DE4
08BC6:  TBLRD*-
08BC8:  TBLRD*+
08BCA:  MOVF   FF5,W
08BCC:  MOVWF  FEE
08BCE:  IORLW  00
08BD0:  BNZ   8BC8
08BD2:  MOVLW  07
08BD4:  MOVLB  7
08BD6:  MOVWF  x89
08BD8:  MOVLW  61
08BDA:  MOVWF  x88
08BDC:  MOVLW  5B
08BDE:  MOVWF  x8A
08BE0:  MOVLW  20
08BE2:  MOVWF  x8B
08BE4:  MOVLW  02
08BE6:  MOVWF  x8C
08BE8:  MOVLW  01
08BEA:  MOVWF  x8D
08BEC:  MOVLB  0
08BEE:  CALL   1842
....................             displayTiempo(Potencia,97,42,3,1);strcpy(Menus.Letra,"%");displayMenu(Menus.Letra,115,42,2,1); 
08BF2:  MOVFF  5D8,788
08BF6:  MOVFF  5D7,787
08BFA:  MOVFF  5D6,786
08BFE:  MOVFF  5D5,785
08C02:  CALL   3DCE
08C06:  MOVFF  01,785
08C0A:  MOVFF  01,788
08C0E:  MOVLW  61
08C10:  MOVLB  7
08C12:  MOVWF  x89
08C14:  MOVLW  2A
08C16:  MOVWF  x8A
08C18:  MOVLW  03
08C1A:  MOVWF  x8B
08C1C:  MOVLW  01
08C1E:  MOVWF  x8C
08C20:  MOVLB  0
08C22:  CALL   2354
08C26:  MOVLW  07
08C28:  MOVWF  FEA
08C2A:  MOVLW  61
08C2C:  MOVWF  FE9
08C2E:  MOVLW  00
08C30:  CALL   0E00
08C34:  TBLRD*-
08C36:  TBLRD*+
08C38:  MOVF   FF5,W
08C3A:  MOVWF  FEE
08C3C:  IORLW  00
08C3E:  BNZ   8C36
08C40:  MOVLW  07
08C42:  MOVLB  7
08C44:  MOVWF  x89
08C46:  MOVLW  61
08C48:  MOVWF  x88
08C4A:  MOVLW  73
08C4C:  MOVWF  x8A
08C4E:  MOVLW  2A
08C50:  MOVWF  x8B
08C52:  MOVLW  02
08C54:  MOVWF  x8C
08C56:  MOVLW  01
08C58:  MOVWF  x8D
08C5A:  MOVLB  0
08C5C:  CALL   1842
....................             strcpy(Menus.Letra,"Segm.");displayMenu(Menus.Letra,95,10,2,1); 
08C60:  MOVLW  07
08C62:  MOVWF  FEA
08C64:  MOVLW  61
08C66:  MOVWF  FE9
08C68:  MOVLW  00
08C6A:  CALL   0E16
08C6E:  TBLRD*-
08C70:  TBLRD*+
08C72:  MOVF   FF5,W
08C74:  MOVWF  FEE
08C76:  IORLW  00
08C78:  BNZ   8C70
08C7A:  MOVLW  07
08C7C:  MOVLB  7
08C7E:  MOVWF  x89
08C80:  MOVLW  61
08C82:  MOVWF  x88
08C84:  MOVLW  5F
08C86:  MOVWF  x8A
08C88:  MOVLW  0A
08C8A:  MOVWF  x8B
08C8C:  MOVLW  02
08C8E:  MOVWF  x8C
08C90:  MOVLW  01
08C92:  MOVWF  x8D
08C94:  MOVLB  0
08C96:  CALL   1842
....................             displayTiempo(Segmento,96,20,3,1); 
08C9A:  MOVFF  597,788
08C9E:  MOVLW  60
08CA0:  MOVLB  7
08CA2:  MOVWF  x89
08CA4:  MOVLW  14
08CA6:  MOVWF  x8A
08CA8:  MOVLW  03
08CAA:  MOVWF  x8B
08CAC:  MOVLW  01
08CAE:  MOVWF  x8C
08CB0:  MOVLB  0
08CB2:  CALL   2354
....................             glcd_rect(90, 0, 127, 54, NO, ON); 
08CB6:  MOVLW  5A
08CB8:  MOVLB  7
08CBA:  MOVWF  x9D
08CBC:  CLRF   x9E
08CBE:  MOVLW  7F
08CC0:  MOVWF  x9F
08CC2:  MOVLW  36
08CC4:  MOVWF  xA0
08CC6:  CLRF   xA1
08CC8:  MOVLW  01
08CCA:  MOVWF  xA2
08CCC:  MOVLB  0
08CCE:  CALL   1780
....................              
....................          //displayTiempo(Tpulsomin*10,97,42,3,1);strcpy(Menus.Letra,"%");displayMenu(Menus.Letra,115,42,2,1); 
....................           
....................          //if(flag_display==1){ 
....................             //displayTiempo(Ganancia,97,13,3,1); 
....................             //displayTemperatura(Prom,97,13,0,1); 
....................             //displayFloat(Setpoint-TempeInicial,97,13,1); 
....................             //displayFloat((Pendiente*60),60,46,1);} 
....................          //else 
....................             //glcd_rect(60, 46, 88, 52, YES, OFF); 
....................           
....................          // Muestra Valor de esterilizacion Programado. 
....................             displayTiempo(Testerilizacion[3],20,2,0,2);displayTiempo(Testerilizacion[2],33,2,0,2); 
08CD2:  MOVFF  5E0,788
08CD6:  MOVLW  14
08CD8:  MOVLB  7
08CDA:  MOVWF  x89
08CDC:  MOVLW  02
08CDE:  MOVWF  x8A
08CE0:  CLRF   x8B
08CE2:  MOVWF  x8C
08CE4:  MOVLB  0
08CE6:  CALL   2354
08CEA:  MOVFF  5DF,788
08CEE:  MOVLW  21
08CF0:  MOVLB  7
08CF2:  MOVWF  x89
08CF4:  MOVLW  02
08CF6:  MOVWF  x8A
08CF8:  CLRF   x8B
08CFA:  MOVWF  x8C
08CFC:  MOVLB  0
08CFE:  CALL   2354
....................             strcpy(Menus.Letra,":");displayMenu(Menus.Letra,46,2,2,2);  
08D02:  MOVLW  07
08D04:  MOVWF  FEA
08D06:  MOVLW  61
08D08:  MOVWF  FE9
08D0A:  MOVLW  00
08D0C:  CALL   0E30
08D10:  TBLRD*-
08D12:  TBLRD*+
08D14:  MOVF   FF5,W
08D16:  MOVWF  FEE
08D18:  IORLW  00
08D1A:  BNZ   8D12
08D1C:  MOVLW  07
08D1E:  MOVLB  7
08D20:  MOVWF  x89
08D22:  MOVLW  61
08D24:  MOVWF  x88
08D26:  MOVLW  2E
08D28:  MOVWF  x8A
08D2A:  MOVLW  02
08D2C:  MOVWF  x8B
08D2E:  MOVWF  x8C
08D30:  MOVWF  x8D
08D32:  MOVLB  0
08D34:  CALL   1842
....................             displayTiempo(Testerilizacion[1],55,2,0,2);displayTiempo(Testerilizacion[0],68,2,0,2); 
08D38:  MOVFF  5DE,788
08D3C:  MOVLW  37
08D3E:  MOVLB  7
08D40:  MOVWF  x89
08D42:  MOVLW  02
08D44:  MOVWF  x8A
08D46:  CLRF   x8B
08D48:  MOVWF  x8C
08D4A:  MOVLB  0
08D4C:  CALL   2354
08D50:  MOVFF  5DD,788
08D54:  MOVLW  44
08D56:  MOVLB  7
08D58:  MOVWF  x89
08D5A:  MOVLW  02
08D5C:  MOVWF  x8A
08D5E:  CLRF   x8B
08D60:  MOVWF  x8C
08D62:  MOVLB  0
08D64:  CALL   2354
....................              
....................             // Muestra Valor de esterilizacion actual. 
....................             strcpy(Menus.Letra,"Time:");displayMenu(Menus.Letra,0,18,2,1);  
08D68:  MOVLW  07
08D6A:  MOVWF  FEA
08D6C:  MOVLW  61
08D6E:  MOVWF  FE9
08D70:  MOVLW  00
08D72:  CALL   0E46
08D76:  TBLRD*-
08D78:  TBLRD*+
08D7A:  MOVF   FF5,W
08D7C:  MOVWF  FEE
08D7E:  IORLW  00
08D80:  BNZ   8D78
08D82:  MOVLW  07
08D84:  MOVLB  7
08D86:  MOVWF  x89
08D88:  MOVLW  61
08D8A:  MOVWF  x88
08D8C:  CLRF   x8A
08D8E:  MOVLW  12
08D90:  MOVWF  x8B
08D92:  MOVLW  02
08D94:  MOVWF  x8C
08D96:  MOVLW  01
08D98:  MOVWF  x8D
08D9A:  MOVLB  0
08D9C:  CALL   1842
....................             displayTiempo(Testerilizacionp[3],30,18,0,1);displayTiempo(Testerilizacionp[2],36,18,0,1); 
08DA0:  MOVFF  5E4,788
08DA4:  MOVLW  1E
08DA6:  MOVLB  7
08DA8:  MOVWF  x89
08DAA:  MOVLW  12
08DAC:  MOVWF  x8A
08DAE:  CLRF   x8B
08DB0:  MOVLW  01
08DB2:  MOVWF  x8C
08DB4:  MOVLB  0
08DB6:  CALL   2354
08DBA:  MOVFF  5E3,788
08DBE:  MOVLW  24
08DC0:  MOVLB  7
08DC2:  MOVWF  x89
08DC4:  MOVLW  12
08DC6:  MOVWF  x8A
08DC8:  CLRF   x8B
08DCA:  MOVLW  01
08DCC:  MOVWF  x8C
08DCE:  MOVLB  0
08DD0:  CALL   2354
....................             strcpy(Menus.Letra,":");displayMenu(Menus.Letra,42,18,2,1);  
08DD4:  MOVLW  07
08DD6:  MOVWF  FEA
08DD8:  MOVLW  61
08DDA:  MOVWF  FE9
08DDC:  MOVLW  00
08DDE:  CALL   0E30
08DE2:  TBLRD*-
08DE4:  TBLRD*+
08DE6:  MOVF   FF5,W
08DE8:  MOVWF  FEE
08DEA:  IORLW  00
08DEC:  BNZ   8DE4
08DEE:  MOVLW  07
08DF0:  MOVLB  7
08DF2:  MOVWF  x89
08DF4:  MOVLW  61
08DF6:  MOVWF  x88
08DF8:  MOVLW  2A
08DFA:  MOVWF  x8A
08DFC:  MOVLW  12
08DFE:  MOVWF  x8B
08E00:  MOVLW  02
08E02:  MOVWF  x8C
08E04:  MOVLW  01
08E06:  MOVWF  x8D
08E08:  MOVLB  0
08E0A:  CALL   1842
....................             displayTiempo(Testerilizacionp[1],48,18,0,1);displayTiempo(Testerilizacionp[0],54,18,0,1); 
08E0E:  MOVFF  5E2,788
08E12:  MOVLW  30
08E14:  MOVLB  7
08E16:  MOVWF  x89
08E18:  MOVLW  12
08E1A:  MOVWF  x8A
08E1C:  CLRF   x8B
08E1E:  MOVLW  01
08E20:  MOVWF  x8C
08E22:  MOVLB  0
08E24:  CALL   2354
08E28:  MOVFF  5E1,788
08E2C:  MOVLW  36
08E2E:  MOVLB  7
08E30:  MOVWF  x89
08E32:  MOVLW  12
08E34:  MOVWF  x8A
08E36:  CLRF   x8B
08E38:  MOVLW  01
08E3A:  MOVWF  x8C
08E3C:  MOVLB  0
08E3E:  CALL   2354
....................             strcpy(Menus.Letra,"(H:M)");displayMenu(Menus.Letra,60,18,2,1);  
08E42:  MOVLW  07
08E44:  MOVWF  FEA
08E46:  MOVLW  61
08E48:  MOVWF  FE9
08E4A:  MOVLW  00
08E4C:  CALL   0E60
08E50:  TBLRD*-
08E52:  TBLRD*+
08E54:  MOVF   FF5,W
08E56:  MOVWF  FEE
08E58:  IORLW  00
08E5A:  BNZ   8E52
08E5C:  MOVLW  07
08E5E:  MOVLB  7
08E60:  MOVWF  x89
08E62:  MOVLW  61
08E64:  MOVWF  x88
08E66:  MOVLW  3C
08E68:  MOVWF  x8A
08E6A:  MOVLW  12
08E6C:  MOVWF  x8B
08E6E:  MOVLW  02
08E70:  MOVWF  x8C
08E72:  MOVLW  01
08E74:  MOVWF  x8D
08E76:  MOVLB  0
08E78:  CALL   1842
....................           
....................             glcd_rect(0, 0, 89, 27, NO, ON); 
08E7C:  MOVLB  7
08E7E:  CLRF   x9D
08E80:  CLRF   x9E
08E82:  MOVLW  59
08E84:  MOVWF  x9F
08E86:  MOVLW  1B
08E88:  MOVWF  xA0
08E8A:  CLRF   xA1
08E8C:  MOVLW  01
08E8E:  MOVWF  xA2
08E90:  MOVLB  0
08E92:  CALL   1780
....................             glcd_rect(0, 27, 89, 54, NO, ON); 
08E96:  MOVLB  7
08E98:  CLRF   x9D
08E9A:  MOVLW  1B
08E9C:  MOVWF  x9E
08E9E:  MOVLW  59
08EA0:  MOVWF  x9F
08EA2:  MOVLW  36
08EA4:  MOVWF  xA0
08EA6:  CLRF   xA1
08EA8:  MOVLW  01
08EAA:  MOVWF  xA2
08EAC:  MOVLB  0
08EAE:  CALL   1780
08EB2:  MOVLB  5
....................       }  
....................       
....................       // Si cumplio el tiempo de esterilizacin, Muestre ciclo finalizado y detenga control de temperatura. 
....................       if((Testerilizacion[0]>=Testerilizacionp[0])&&(Testerilizacion[1]>=Testerilizacionp[1])&&(Testerilizacion[2]>=Testerilizacionp[2])&&(Testerilizacion[3]>=Testerilizacionp[3]) && Pausa<3) 
08EB4:  MOVF   xE1,W
08EB6:  XORLW  80
08EB8:  MOVWF  00
08EBA:  MOVF   xDD,W
08EBC:  XORLW  80
08EBE:  SUBWF  00,W
08EC0:  BZ    8EC6
08EC2:  BTFSC  FD8.0
08EC4:  BRA    8FBE
08EC6:  MOVF   xE2,W
08EC8:  XORLW  80
08ECA:  MOVWF  00
08ECC:  MOVF   xDE,W
08ECE:  XORLW  80
08ED0:  SUBWF  00,W
08ED2:  BZ    8ED8
08ED4:  BTFSC  FD8.0
08ED6:  BRA    8FBE
08ED8:  MOVF   xE3,W
08EDA:  XORLW  80
08EDC:  MOVWF  00
08EDE:  MOVF   xDF,W
08EE0:  XORLW  80
08EE2:  SUBWF  00,W
08EE4:  BZ    8EE8
08EE6:  BC    8FBE
08EE8:  MOVF   xE4,W
08EEA:  XORLW  80
08EEC:  MOVWF  00
08EEE:  MOVF   xE0,W
08EF0:  XORLW  80
08EF2:  SUBWF  00,W
08EF4:  BZ    8EF8
08EF6:  BC    8FBE
08EF8:  MOVF   xA2,W
08EFA:  SUBLW  02
08EFC:  BNC   8FBE
....................       { 
....................          flag_calcula=0; 
08EFE:  BCF    x99.0
....................          if(Segmento<Segmentos){ 
08F00:  MOVF   x96,W
08F02:  SUBWF  x97,W
08F04:  BC    8F12
....................             Segmento++; 
08F06:  INCF   x97,F
....................             Testerilizacion[0]=0; 
08F08:  CLRF   xDD
....................             Testerilizacion[1]=0; 
08F0A:  CLRF   xDE
....................             Testerilizacion[2]=0; 
08F0C:  CLRF   xDF
....................             Testerilizacion[3]=0; 
08F0E:  CLRF   xE0
....................          } 
08F10:  BRA    8F16
....................          else{ 
....................             Pausa=3; 
08F12:  MOVLW  03
08F14:  MOVWF  xA2
....................          } 
....................          glcd_fillScreen(OFF); 
08F16:  MOVLB  7
08F18:  CLRF   x86
08F1A:  MOVLB  0
08F1C:  CALL   123E
....................          Buzz_on; 
08F20:  BSF    F8B.7
08F22:  BCF    F94.7
....................          delay_ms(1000); 
08F24:  MOVLW  04
08F26:  MOVLB  7
08F28:  MOVWF  x85
08F2A:  MOVLW  FA
08F2C:  MOVWF  x8B
08F2E:  MOVLB  0
08F30:  CALL   1166
08F34:  MOVLB  7
08F36:  DECFSZ x85,F
08F38:  BRA    8F2A
....................          Buzz_off; 
08F3A:  BCF    F8B.7
08F3C:  BCF    F94.7
....................          delay_ms(1000); 
08F3E:  MOVLW  04
08F40:  MOVWF  x85
08F42:  MOVLW  FA
08F44:  MOVWF  x8B
08F46:  MOVLB  0
08F48:  CALL   1166
08F4C:  MOVLB  7
08F4E:  DECFSZ x85,F
08F50:  BRA    8F42
....................          glcd_init(ON); 
08F52:  MOVLW  01
08F54:  MOVWF  x85
08F56:  MOVLB  0
08F58:  CALL   1348
....................          strcpy(Menus.Letra,"Status:Cambio Seg."); 
08F5C:  MOVLW  07
08F5E:  MOVWF  FEA
08F60:  MOVLW  61
08F62:  MOVWF  FE9
08F64:  MOVLW  00
08F66:  CALL   0E7A
08F6A:  TBLRD*-
08F6C:  TBLRD*+
08F6E:  MOVF   FF5,W
08F70:  MOVWF  FEE
08F72:  IORLW  00
08F74:  BNZ   8F6C
....................          displayMenu(Menus.Letra,0,55,2,1);          
08F76:  MOVLW  07
08F78:  MOVLB  7
08F7A:  MOVWF  x89
08F7C:  MOVLW  61
08F7E:  MOVWF  x88
08F80:  CLRF   x8A
08F82:  MOVLW  37
08F84:  MOVWF  x8B
08F86:  MOVLW  02
08F88:  MOVWF  x8C
08F8A:  MOVLW  01
08F8C:  MOVWF  x8D
08F8E:  MOVLB  0
08F90:  CALL   1842
....................          delay_ms(500); 
08F94:  MOVLW  02
08F96:  MOVLB  7
08F98:  MOVWF  x85
08F9A:  MOVLW  FA
08F9C:  MOVWF  x8B
08F9E:  MOVLB  0
08FA0:  CALL   1166
08FA4:  MOVLB  7
08FA6:  DECFSZ x85,F
08FA8:  BRA    8F9A
....................           
....................          if(Pausa==3){ 
08FAA:  MOVLB  5
08FAC:  MOVF   xA2,W
08FAE:  SUBLW  03
08FB0:  BNZ   8FBE
....................             glcd_fillScreen(OFF); 
08FB2:  MOVLB  7
08FB4:  CLRF   x86
08FB6:  MOVLB  0
08FB8:  CALL   123E
08FBC:  MOVLB  5
....................          } 
....................       }  
....................        
....................       if(tinicio>=60) 
08FBE:  MOVF   xB0,F
08FC0:  BNZ   8FC8
08FC2:  MOVF   xAF,W
08FC4:  SUBLW  3B
08FC6:  BC    9004
....................       { 
....................          tinicio=0; 
08FC8:  CLRF   xB0
08FCA:  CLRF   xAF
....................          Testerilizacion[0]++; 
08FCC:  INCF   xDD,F
....................          if(Testerilizacion[0]>9) 
08FCE:  BTFSC  xDD.7
08FD0:  BRA    8FDC
08FD2:  MOVF   xDD,W
08FD4:  SUBLW  09
08FD6:  BC    8FDC
....................          { 
....................             Testerilizacion[0]=0; 
08FD8:  CLRF   xDD
....................             Testerilizacion[1]++; 
08FDA:  INCF   xDE,F
....................          } 
....................          if(Testerilizacion[1]>5) 
08FDC:  BTFSC  xDE.7
08FDE:  BRA    8FEA
08FE0:  MOVF   xDE,W
08FE2:  SUBLW  05
08FE4:  BC    8FEA
....................          { 
....................             Testerilizacion[1]=0; 
08FE6:  CLRF   xDE
....................             Testerilizacion[2]++; 
08FE8:  INCF   xDF,F
....................          } 
....................          if(Testerilizacion[2]>9) 
08FEA:  BTFSC  xDF.7
08FEC:  BRA    8FF8
08FEE:  MOVF   xDF,W
08FF0:  SUBLW  09
08FF2:  BC    8FF8
....................          { 
....................             Testerilizacion[2]=0; 
08FF4:  CLRF   xDF
....................             Testerilizacion[3]++; 
08FF6:  INCF   xE0,F
....................          } 
....................          if(Testerilizacion[3]>9) 
08FF8:  BTFSC  xE0.7
08FFA:  BRA    9004
08FFC:  MOVF   xE0,W
08FFE:  SUBLW  09
09000:  BC    9004
....................          { 
....................             Testerilizacion[3]=0; 
09002:  CLRF   xE0
....................          } 
....................       } 
....................        
....................       if(LEFT)//Si oprime boton de Toma. 
09004:  BSF    F96.2
09006:  BTFSS  F84.2
09008:  BRA    9048
....................       { 
....................          if(Pausa<3){ 
0900A:  MOVF   xA2,W
0900C:  SUBLW  02
0900E:  BNC   9048
....................             if(Pausa!=2) 
09010:  MOVF   xA2,W
09012:  SUBLW  02
09014:  BZ    9048
....................             { 
....................                delay_ms(500);Menu=30;glcd_fillscreen(OFF);Opcion=1;visual=1;Pausa=1;Menu=1; 
09016:  MOVLW  02
09018:  MOVLB  7
0901A:  MOVWF  x85
0901C:  MOVLW  FA
0901E:  MOVWF  x8B
09020:  MOVLB  0
09022:  CALL   1166
09026:  MOVLB  7
09028:  DECFSZ x85,F
0902A:  BRA    901C
0902C:  MOVLW  1E
0902E:  MOVLB  5
09030:  MOVWF  x9E
09032:  MOVLB  7
09034:  CLRF   x86
09036:  MOVLB  0
09038:  CALL   123E
0903C:  MOVLW  01
0903E:  MOVLB  5
09040:  MOVWF  xA5
09042:  BSF    x8B.6
09044:  MOVWF  xA2
09046:  MOVWF  x9E
....................             } 
....................          } 
....................       } 
....................        
....................       if(Pausa==3){          
09048:  MOVF   xA2,W
0904A:  SUBLW  03
0904C:  BNZ   909C
....................          strcpy(Menus.Letra,"Status:Finalizado"); 
0904E:  MOVLW  07
09050:  MOVWF  FEA
09052:  MOVLW  61
09054:  MOVWF  FE9
09056:  MOVLW  00
09058:  MOVLB  0
0905A:  CALL   0EA2
0905E:  TBLRD*-
09060:  TBLRD*+
09062:  MOVF   FF5,W
09064:  MOVWF  FEE
09066:  IORLW  00
09068:  BNZ   9060
....................          displayMenu(Menus.Letra,0,55,2,1); 
0906A:  MOVLW  07
0906C:  MOVLB  7
0906E:  MOVWF  x89
09070:  MOVLW  61
09072:  MOVWF  x88
09074:  CLRF   x8A
09076:  MOVLW  37
09078:  MOVWF  x8B
0907A:  MOVLW  02
0907C:  MOVWF  x8C
0907E:  MOVLW  01
09080:  MOVWF  x8D
09082:  MOVLB  0
09084:  CALL   1842
....................          tiempo_esterilizacion=4; 
09088:  MOVLW  04
0908A:  MOVLB  5
0908C:  MOVWF  xA6
....................          Control=0; 
0908E:  CLRF   x9D
....................          Resistencia_off; 
09090:  BCF    F8B.0
09092:  BCF    F94.0
....................          Tpulso=0.0; 
09094:  CLRF   xF8
09096:  CLRF   xF7
09098:  CLRF   xF6
0909A:  CLRF   xF5
....................       } 
....................          
....................     } 
.................... //_--------------------------------------------------------------------------------------------------------------------------------------------------------        
....................  
.................... //_-------------------------------------------------------------------------------------------------------------------------------------------------------- 
....................       if(Menu==100){ //Menu de Configuracin de Parametros de Control 
0909C:  MOVF   x9E,W
0909E:  SUBLW  64
090A0:  BTFSS  FD8.2
090A2:  BRA    96BA
....................        
....................       if(Opcion>9) 
090A4:  MOVF   xA5,W
090A6:  SUBLW  09
090A8:  BC    90AE
....................       {Opcion=1;} 
090AA:  MOVLW  01
090AC:  MOVWF  xA5
....................       if(Opcion<1) 
090AE:  MOVF   xA5,F
090B0:  BNZ   90B6
....................       {Opcion=9;} 
090B2:  MOVLW  09
090B4:  MOVWF  xA5
....................        
....................       if(Opcion<=6){ 
090B6:  MOVF   xA5,W
090B8:  SUBLW  06
090BA:  BTFSS  FD8.0
090BC:  BRA    93A2
....................          if(Opcion==1)    
090BE:  DECFSZ xA5,W
090C0:  BRA    90FC
....................             {strcpy(Menus.Letra,"Proporcional"); 
090C2:  MOVLW  07
090C4:  MOVWF  FEA
090C6:  MOVLW  61
090C8:  MOVWF  FE9
090CA:  MOVLW  00
090CC:  MOVLB  0
090CE:  CALL   0EC8
090D2:  TBLRD*-
090D4:  TBLRD*+
090D6:  MOVF   FF5,W
090D8:  MOVWF  FEE
090DA:  IORLW  00
090DC:  BNZ   90D4
....................             displayMenu(Menus.Letra,0,0,1,1);} 
090DE:  MOVLW  07
090E0:  MOVLB  7
090E2:  MOVWF  x89
090E4:  MOVLW  61
090E6:  MOVWF  x88
090E8:  CLRF   x8A
090EA:  CLRF   x8B
090EC:  MOVLW  01
090EE:  MOVWF  x8C
090F0:  MOVWF  x8D
090F2:  MOVLB  0
090F4:  CALL   1842
090F8:  BRA    9132
090FA:  MOVLB  5
....................          else 
....................             {strcpy(Menus.Letra,"Proporcional"); 
090FC:  MOVLW  07
090FE:  MOVWF  FEA
09100:  MOVLW  61
09102:  MOVWF  FE9
09104:  MOVLW  00
09106:  MOVLB  0
09108:  CALL   0EC8
0910C:  TBLRD*-
0910E:  TBLRD*+
09110:  MOVF   FF5,W
09112:  MOVWF  FEE
09114:  IORLW  00
09116:  BNZ   910E
....................             displayMenu(Menus.Letra,0,0,0,1);} 
09118:  MOVLW  07
0911A:  MOVLB  7
0911C:  MOVWF  x89
0911E:  MOVLW  61
09120:  MOVWF  x88
09122:  CLRF   x8A
09124:  CLRF   x8B
09126:  CLRF   x8C
09128:  MOVLW  01
0912A:  MOVWF  x8D
0912C:  MOVLB  0
0912E:  CALL   1842
....................           
....................          if(Opcion==2)    
09132:  MOVLB  5
09134:  MOVF   xA5,W
09136:  SUBLW  02
09138:  BNZ   9176
....................             {strcpy(Menus.Letra,"Integral"); 
0913A:  MOVLW  07
0913C:  MOVWF  FEA
0913E:  MOVLW  61
09140:  MOVWF  FE9
09142:  MOVLW  00
09144:  MOVLB  0
09146:  CALL   0EEA
0914A:  TBLRD*-
0914C:  TBLRD*+
0914E:  MOVF   FF5,W
09150:  MOVWF  FEE
09152:  IORLW  00
09154:  BNZ   914C
....................             displayMenu(Menus.Letra,0,9,1,1);} 
09156:  MOVLW  07
09158:  MOVLB  7
0915A:  MOVWF  x89
0915C:  MOVLW  61
0915E:  MOVWF  x88
09160:  CLRF   x8A
09162:  MOVLW  09
09164:  MOVWF  x8B
09166:  MOVLW  01
09168:  MOVWF  x8C
0916A:  MOVWF  x8D
0916C:  MOVLB  0
0916E:  CALL   1842
09172:  BRA    91AE
09174:  MOVLB  5
....................          else 
....................             {strcpy(Menus.Letra,"Integral"); 
09176:  MOVLW  07
09178:  MOVWF  FEA
0917A:  MOVLW  61
0917C:  MOVWF  FE9
0917E:  MOVLW  00
09180:  MOVLB  0
09182:  CALL   0EEA
09186:  TBLRD*-
09188:  TBLRD*+
0918A:  MOVF   FF5,W
0918C:  MOVWF  FEE
0918E:  IORLW  00
09190:  BNZ   9188
....................             displayMenu(Menus.Letra,0,9,0,1);} 
09192:  MOVLW  07
09194:  MOVLB  7
09196:  MOVWF  x89
09198:  MOVLW  61
0919A:  MOVWF  x88
0919C:  CLRF   x8A
0919E:  MOVLW  09
091A0:  MOVWF  x8B
091A2:  CLRF   x8C
091A4:  MOVLW  01
091A6:  MOVWF  x8D
091A8:  MOVLB  0
091AA:  CALL   1842
....................              
....................          if(Opcion==3)    
091AE:  MOVLB  5
091B0:  MOVF   xA5,W
091B2:  SUBLW  03
091B4:  BNZ   91F2
....................             {strcpy(Menus.Letra,"Derivativo"); 
091B6:  MOVLW  07
091B8:  MOVWF  FEA
091BA:  MOVLW  61
091BC:  MOVWF  FE9
091BE:  MOVLW  00
091C0:  MOVLB  0
091C2:  CALL   0F08
091C6:  TBLRD*-
091C8:  TBLRD*+
091CA:  MOVF   FF5,W
091CC:  MOVWF  FEE
091CE:  IORLW  00
091D0:  BNZ   91C8
....................             displayMenu(Menus.Letra,0,18,1,1);} 
091D2:  MOVLW  07
091D4:  MOVLB  7
091D6:  MOVWF  x89
091D8:  MOVLW  61
091DA:  MOVWF  x88
091DC:  CLRF   x8A
091DE:  MOVLW  12
091E0:  MOVWF  x8B
091E2:  MOVLW  01
091E4:  MOVWF  x8C
091E6:  MOVWF  x8D
091E8:  MOVLB  0
091EA:  CALL   1842
091EE:  BRA    922A
091F0:  MOVLB  5
....................          else 
....................             {strcpy(Menus.Letra,"Derivativo"); 
091F2:  MOVLW  07
091F4:  MOVWF  FEA
091F6:  MOVLW  61
091F8:  MOVWF  FE9
091FA:  MOVLW  00
091FC:  MOVLB  0
091FE:  CALL   0F08
09202:  TBLRD*-
09204:  TBLRD*+
09206:  MOVF   FF5,W
09208:  MOVWF  FEE
0920A:  IORLW  00
0920C:  BNZ   9204
....................             displayMenu(Menus.Letra,0,18,0,1);}    
0920E:  MOVLW  07
09210:  MOVLB  7
09212:  MOVWF  x89
09214:  MOVLW  61
09216:  MOVWF  x88
09218:  CLRF   x8A
0921A:  MOVLW  12
0921C:  MOVWF  x8B
0921E:  CLRF   x8C
09220:  MOVLW  01
09222:  MOVWF  x8D
09224:  MOVLB  0
09226:  CALL   1842
....................           
....................          if(Opcion==4)    
0922A:  MOVLB  5
0922C:  MOVF   xA5,W
0922E:  SUBLW  04
09230:  BNZ   926E
....................             {strcpy(Menus.Letra,"Tciclo"); 
09232:  MOVLW  07
09234:  MOVWF  FEA
09236:  MOVLW  61
09238:  MOVWF  FE9
0923A:  MOVLW  00
0923C:  MOVLB  0
0923E:  CALL   0F28
09242:  TBLRD*-
09244:  TBLRD*+
09246:  MOVF   FF5,W
09248:  MOVWF  FEE
0924A:  IORLW  00
0924C:  BNZ   9244
....................             displayMenu(Menus.Letra,0,27,1,1);} 
0924E:  MOVLW  07
09250:  MOVLB  7
09252:  MOVWF  x89
09254:  MOVLW  61
09256:  MOVWF  x88
09258:  CLRF   x8A
0925A:  MOVLW  1B
0925C:  MOVWF  x8B
0925E:  MOVLW  01
09260:  MOVWF  x8C
09262:  MOVWF  x8D
09264:  MOVLB  0
09266:  CALL   1842
0926A:  BRA    92A6
0926C:  MOVLB  5
....................          else 
....................             {strcpy(Menus.Letra,"Tciclo"); 
0926E:  MOVLW  07
09270:  MOVWF  FEA
09272:  MOVLW  61
09274:  MOVWF  FE9
09276:  MOVLW  00
09278:  MOVLB  0
0927A:  CALL   0F28
0927E:  TBLRD*-
09280:  TBLRD*+
09282:  MOVF   FF5,W
09284:  MOVWF  FEE
09286:  IORLW  00
09288:  BNZ   9280
....................             displayMenu(Menus.Letra,0,27,0,1);} 
0928A:  MOVLW  07
0928C:  MOVLB  7
0928E:  MOVWF  x89
09290:  MOVLW  61
09292:  MOVWF  x88
09294:  CLRF   x8A
09296:  MOVLW  1B
09298:  MOVWF  x8B
0929A:  CLRF   x8C
0929C:  MOVLW  01
0929E:  MOVWF  x8D
092A0:  MOVLB  0
092A2:  CALL   1842
....................              
....................          if(Opcion==5)    
092A6:  MOVLB  5
092A8:  MOVF   xA5,W
092AA:  SUBLW  05
092AC:  BNZ   92EA
....................             {strcpy(Menus.Letra,"Ajuste +"); 
092AE:  MOVLW  07
092B0:  MOVWF  FEA
092B2:  MOVLW  61
092B4:  MOVWF  FE9
092B6:  MOVLW  00
092B8:  MOVLB  0
092BA:  CALL   0F44
092BE:  TBLRD*-
092C0:  TBLRD*+
092C2:  MOVF   FF5,W
092C4:  MOVWF  FEE
092C6:  IORLW  00
092C8:  BNZ   92C0
....................             displayMenu(Menus.Letra,0,36,1,1);} 
092CA:  MOVLW  07
092CC:  MOVLB  7
092CE:  MOVWF  x89
092D0:  MOVLW  61
092D2:  MOVWF  x88
092D4:  CLRF   x8A
092D6:  MOVLW  24
092D8:  MOVWF  x8B
092DA:  MOVLW  01
092DC:  MOVWF  x8C
092DE:  MOVWF  x8D
092E0:  MOVLB  0
092E2:  CALL   1842
092E6:  BRA    9322
092E8:  MOVLB  5
....................          else 
....................             {strcpy(Menus.Letra,"Ajuste +"); 
092EA:  MOVLW  07
092EC:  MOVWF  FEA
092EE:  MOVLW  61
092F0:  MOVWF  FE9
092F2:  MOVLW  00
092F4:  MOVLB  0
092F6:  CALL   0F44
092FA:  TBLRD*-
092FC:  TBLRD*+
092FE:  MOVF   FF5,W
09300:  MOVWF  FEE
09302:  IORLW  00
09304:  BNZ   92FC
....................             displayMenu(Menus.Letra,0,36,0,1);}    
09306:  MOVLW  07
09308:  MOVLB  7
0930A:  MOVWF  x89
0930C:  MOVLW  61
0930E:  MOVWF  x88
09310:  CLRF   x8A
09312:  MOVLW  24
09314:  MOVWF  x8B
09316:  CLRF   x8C
09318:  MOVLW  01
0931A:  MOVWF  x8D
0931C:  MOVLB  0
0931E:  CALL   1842
....................                          
....................          if(Opcion==6)    
09322:  MOVLB  5
09324:  MOVF   xA5,W
09326:  SUBLW  06
09328:  BNZ   9366
....................             {strcpy(Menus.Letra,"Ajuste -"); 
0932A:  MOVLW  07
0932C:  MOVWF  FEA
0932E:  MOVLW  61
09330:  MOVWF  FE9
09332:  MOVLW  00
09334:  MOVLB  0
09336:  CALL   0F62
0933A:  TBLRD*-
0933C:  TBLRD*+
0933E:  MOVF   FF5,W
09340:  MOVWF  FEE
09342:  IORLW  00
09344:  BNZ   933C
....................             displayMenu(Menus.Letra,0,45,1,1);} 
09346:  MOVLW  07
09348:  MOVLB  7
0934A:  MOVWF  x89
0934C:  MOVLW  61
0934E:  MOVWF  x88
09350:  CLRF   x8A
09352:  MOVLW  2D
09354:  MOVWF  x8B
09356:  MOVLW  01
09358:  MOVWF  x8C
0935A:  MOVWF  x8D
0935C:  MOVLB  0
0935E:  CALL   1842
09362:  BRA    939E
09364:  MOVLB  5
....................          else 
....................             {strcpy(Menus.Letra,"Ajuste -"); 
09366:  MOVLW  07
09368:  MOVWF  FEA
0936A:  MOVLW  61
0936C:  MOVWF  FE9
0936E:  MOVLW  00
09370:  MOVLB  0
09372:  CALL   0F62
09376:  TBLRD*-
09378:  TBLRD*+
0937A:  MOVF   FF5,W
0937C:  MOVWF  FEE
0937E:  IORLW  00
09380:  BNZ   9378
....................             displayMenu(Menus.Letra,0,45,0,1);}      
09382:  MOVLW  07
09384:  MOVLB  7
09386:  MOVWF  x89
09388:  MOVLW  61
0938A:  MOVWF  x88
0938C:  CLRF   x8A
0938E:  MOVLW  2D
09390:  MOVWF  x8B
09392:  CLRF   x8C
09394:  MOVLW  01
09396:  MOVWF  x8D
09398:  MOVLB  0
0939A:  CALL   1842
....................       } 
0939E:  BRA    95B2
093A0:  MOVLB  5
....................       else{ 
....................          if(Opcion==7)    
093A2:  MOVF   xA5,W
093A4:  SUBLW  07
093A6:  BNZ   93E2
....................             {strcpy(Menus.Letra,"Media Movil"); 
093A8:  MOVLW  07
093AA:  MOVWF  FEA
093AC:  MOVLW  61
093AE:  MOVWF  FE9
093B0:  MOVLW  00
093B2:  MOVLB  0
093B4:  CALL   0F80
093B8:  TBLRD*-
093BA:  TBLRD*+
093BC:  MOVF   FF5,W
093BE:  MOVWF  FEE
093C0:  IORLW  00
093C2:  BNZ   93BA
....................             displayMenu(Menus.Letra,0,0,1,1);} 
093C4:  MOVLW  07
093C6:  MOVLB  7
093C8:  MOVWF  x89
093CA:  MOVLW  61
093CC:  MOVWF  x88
093CE:  CLRF   x8A
093D0:  CLRF   x8B
093D2:  MOVLW  01
093D4:  MOVWF  x8C
093D6:  MOVWF  x8D
093D8:  MOVLB  0
093DA:  CALL   1842
093DE:  BRA    9418
093E0:  MOVLB  5
....................          else 
....................             {strcpy(Menus.Letra,"Media Movil"); 
093E2:  MOVLW  07
093E4:  MOVWF  FEA
093E6:  MOVLW  61
093E8:  MOVWF  FE9
093EA:  MOVLW  00
093EC:  MOVLB  0
093EE:  CALL   0F80
093F2:  TBLRD*-
093F4:  TBLRD*+
093F6:  MOVF   FF5,W
093F8:  MOVWF  FEE
093FA:  IORLW  00
093FC:  BNZ   93F4
....................             displayMenu(Menus.Letra,0,0,0,1);}      
093FE:  MOVLW  07
09400:  MOVLB  7
09402:  MOVWF  x89
09404:  MOVLW  61
09406:  MOVWF  x88
09408:  CLRF   x8A
0940A:  CLRF   x8B
0940C:  CLRF   x8C
0940E:  MOVLW  01
09410:  MOVWF  x8D
09412:  MOVLB  0
09414:  CALL   1842
....................              
....................          if(Opcion==8)    
09418:  MOVLB  5
0941A:  MOVF   xA5,W
0941C:  SUBLW  08
0941E:  BNZ   945C
....................             {strcpy(Menus.Letra,"Coeficiente"); 
09420:  MOVLW  07
09422:  MOVWF  FEA
09424:  MOVLW  61
09426:  MOVWF  FE9
09428:  MOVLW  00
0942A:  MOVLB  0
0942C:  CALL   0FA0
09430:  TBLRD*-
09432:  TBLRD*+
09434:  MOVF   FF5,W
09436:  MOVWF  FEE
09438:  IORLW  00
0943A:  BNZ   9432
....................             displayMenu(Menus.Letra,0,9,1,1);} 
0943C:  MOVLW  07
0943E:  MOVLB  7
09440:  MOVWF  x89
09442:  MOVLW  61
09444:  MOVWF  x88
09446:  CLRF   x8A
09448:  MOVLW  09
0944A:  MOVWF  x8B
0944C:  MOVLW  01
0944E:  MOVWF  x8C
09450:  MOVWF  x8D
09452:  MOVLB  0
09454:  CALL   1842
09458:  BRA    9494
0945A:  MOVLB  5
....................          else 
....................             {strcpy(Menus.Letra,"Coeficiente"); 
0945C:  MOVLW  07
0945E:  MOVWF  FEA
09460:  MOVLW  61
09462:  MOVWF  FE9
09464:  MOVLW  00
09466:  MOVLB  0
09468:  CALL   0FA0
0946C:  TBLRD*-
0946E:  TBLRD*+
09470:  MOVF   FF5,W
09472:  MOVWF  FEE
09474:  IORLW  00
09476:  BNZ   946E
....................             displayMenu(Menus.Letra,0,9,0,1);}   
09478:  MOVLW  07
0947A:  MOVLB  7
0947C:  MOVWF  x89
0947E:  MOVLW  61
09480:  MOVWF  x88
09482:  CLRF   x8A
09484:  MOVLW  09
09486:  MOVWF  x8B
09488:  CLRF   x8C
0948A:  MOVLW  01
0948C:  MOVWF  x8D
0948E:  MOVLB  0
09490:  CALL   1842
....................              
....................          if(Opcion==9)    
09494:  MOVLB  5
09496:  MOVF   xA5,W
09498:  SUBLW  09
0949A:  BNZ   94D8
....................             {strcpy(Menus.Letra,"Alarma SobreT"); 
0949C:  MOVLW  07
0949E:  MOVWF  FEA
094A0:  MOVLW  61
094A2:  MOVWF  FE9
094A4:  MOVLW  00
094A6:  MOVLB  0
094A8:  CALL   0FC0
094AC:  TBLRD*-
094AE:  TBLRD*+
094B0:  MOVF   FF5,W
094B2:  MOVWF  FEE
094B4:  IORLW  00
094B6:  BNZ   94AE
....................             displayMenu(Menus.Letra,0,18,1,1);} 
094B8:  MOVLW  07
094BA:  MOVLB  7
094BC:  MOVWF  x89
094BE:  MOVLW  61
094C0:  MOVWF  x88
094C2:  CLRF   x8A
094C4:  MOVLW  12
094C6:  MOVWF  x8B
094C8:  MOVLW  01
094CA:  MOVWF  x8C
094CC:  MOVWF  x8D
094CE:  MOVLB  0
094D0:  CALL   1842
094D4:  BRA    9510
094D6:  MOVLB  5
....................          else 
....................             {strcpy(Menus.Letra,"Alarma SobreT"); 
094D8:  MOVLW  07
094DA:  MOVWF  FEA
094DC:  MOVLW  61
094DE:  MOVWF  FE9
094E0:  MOVLW  00
094E2:  MOVLB  0
094E4:  CALL   0FC0
094E8:  TBLRD*-
094EA:  TBLRD*+
094EC:  MOVF   FF5,W
094EE:  MOVWF  FEE
094F0:  IORLW  00
094F2:  BNZ   94EA
....................             displayMenu(Menus.Letra,0,18,0,1);}      
094F4:  MOVLW  07
094F6:  MOVLB  7
094F8:  MOVWF  x89
094FA:  MOVLW  61
094FC:  MOVWF  x88
094FE:  CLRF   x8A
09500:  MOVLW  12
09502:  MOVWF  x8B
09504:  CLRF   x8C
09506:  MOVLW  01
09508:  MOVWF  x8D
0950A:  MOVLB  0
0950C:  CALL   1842
....................              
....................             strcpy(Menus.Letra,"            "); 
09510:  MOVLW  07
09512:  MOVWF  FEA
09514:  MOVLW  61
09516:  MOVWF  FE9
09518:  MOVLW  00
0951A:  CALL   0FE2
0951E:  TBLRD*-
09520:  TBLRD*+
09522:  MOVF   FF5,W
09524:  MOVWF  FEE
09526:  IORLW  00
09528:  BNZ   9520
....................             displayMenu(Menus.Letra,0,27,0,1); 
0952A:  MOVLW  07
0952C:  MOVLB  7
0952E:  MOVWF  x89
09530:  MOVLW  61
09532:  MOVWF  x88
09534:  CLRF   x8A
09536:  MOVLW  1B
09538:  MOVWF  x8B
0953A:  CLRF   x8C
0953C:  MOVLW  01
0953E:  MOVWF  x8D
09540:  MOVLB  0
09542:  CALL   1842
....................              
....................             strcpy(Menus.Letra,"            "); 
09546:  MOVLW  07
09548:  MOVWF  FEA
0954A:  MOVLW  61
0954C:  MOVWF  FE9
0954E:  MOVLW  00
09550:  CALL   0FE2
09554:  TBLRD*-
09556:  TBLRD*+
09558:  MOVF   FF5,W
0955A:  MOVWF  FEE
0955C:  IORLW  00
0955E:  BNZ   9556
....................             displayMenu(Menus.Letra,0,36,0,1); 
09560:  MOVLW  07
09562:  MOVLB  7
09564:  MOVWF  x89
09566:  MOVLW  61
09568:  MOVWF  x88
0956A:  CLRF   x8A
0956C:  MOVLW  24
0956E:  MOVWF  x8B
09570:  CLRF   x8C
09572:  MOVLW  01
09574:  MOVWF  x8D
09576:  MOVLB  0
09578:  CALL   1842
....................              
....................             strcpy(Menus.Letra,"            "); 
0957C:  MOVLW  07
0957E:  MOVWF  FEA
09580:  MOVLW  61
09582:  MOVWF  FE9
09584:  MOVLW  00
09586:  CALL   0FE2
0958A:  TBLRD*-
0958C:  TBLRD*+
0958E:  MOVF   FF5,W
09590:  MOVWF  FEE
09592:  IORLW  00
09594:  BNZ   958C
....................             displayMenu(Menus.Letra,0,45,0,1); 
09596:  MOVLW  07
09598:  MOVLB  7
0959A:  MOVWF  x89
0959C:  MOVLW  61
0959E:  MOVWF  x88
095A0:  CLRF   x8A
095A2:  MOVLW  2D
095A4:  MOVWF  x8B
095A6:  CLRF   x8C
095A8:  MOVLW  01
095AA:  MOVWF  x8D
095AC:  MOVLB  0
095AE:  CALL   1842
....................       }    
....................        
....................          if(UP)//Si oprime hacia arriba 
095B2:  BSF    F92.5
095B4:  BTFSS  F80.5
095B6:  BRA    95EA
....................          { 
....................             Buzz_on;delay_ms(10);Buzz_off; 
095B8:  BSF    F8B.7
095BA:  BCF    F94.7
095BC:  MOVLW  0A
095BE:  MOVLB  7
095C0:  MOVWF  x8B
095C2:  MOVLB  0
095C4:  CALL   1166
095C8:  BCF    F8B.7
095CA:  BCF    F94.7
....................             if(Flanco == 0) 
095CC:  MOVLB  5
095CE:  BTFSC  x8B.3
095D0:  BRA    95E6
....................                {Flanco = 1;delay_ms(30);Opcion--;visual=1; 
095D2:  BSF    x8B.3
095D4:  MOVLW  1E
095D6:  MOVLB  7
095D8:  MOVWF  x8B
095DA:  MOVLB  0
095DC:  CALL   1166
095E0:  MOVLB  5
095E2:  DECF   xA5,F
095E4:  BSF    x8B.6
....................                } 
....................          } 
095E6:  BRA    95EE
095E8:  MOVLB  0
....................             else 
....................                {Flanco = 0;} 
095EA:  MOVLB  5
095EC:  BCF    x8B.3
....................                    
....................          if(DOWN)//Si oprime hacia abajo 
095EE:  BSF    F96.0
095F0:  BTFSS  F84.0
095F2:  BRA    9624
....................          { 
....................             Buzz_on;delay_ms(10);Buzz_off; 
095F4:  BSF    F8B.7
095F6:  BCF    F94.7
095F8:  MOVLW  0A
095FA:  MOVLB  7
095FC:  MOVWF  x8B
095FE:  MOVLB  0
09600:  CALL   1166
09604:  BCF    F8B.7
09606:  BCF    F94.7
....................             if(Flanco2 == 0) 
09608:  MOVLB  5
0960A:  BTFSC  x8B.5
0960C:  BRA    9622
....................                {Flanco2 = 1;delay_ms(30);Opcion++;visual=1; 
0960E:  BSF    x8B.5
09610:  MOVLW  1E
09612:  MOVLB  7
09614:  MOVWF  x8B
09616:  MOVLB  0
09618:  CALL   1166
0961C:  MOVLB  5
0961E:  INCF   xA5,F
09620:  BSF    x8B.6
....................                }      
....................          } 
09622:  BRA    9626
....................             else 
....................                {Flanco2 = 0;}   
09624:  BCF    x8B.5
....................                 
....................          if(RIGHT)//Si oprime SET 
09626:  BSF    F96.1
09628:  BTFSS  F84.1
0962A:  BRA    9670
....................          {   
....................             Buzz_on;delay_ms(10);Buzz_off; 
0962C:  BSF    F8B.7
0962E:  BCF    F94.7
09630:  MOVLW  0A
09632:  MOVLB  7
09634:  MOVWF  x8B
09636:  MOVLB  0
09638:  CALL   1166
0963C:  BCF    F8B.7
0963E:  BCF    F94.7
....................             if(Flanco1 == 0) 
09640:  MOVLB  5
09642:  BTFSC  x8B.4
09644:  BRA    966E
....................                {Flanco1 = 1;delay_ms(30);Menu=Opcion+100;Opcion=1;glcd_fillscreen(OFF);visual=1; 
09646:  BSF    x8B.4
09648:  MOVLW  1E
0964A:  MOVLB  7
0964C:  MOVWF  x8B
0964E:  MOVLB  0
09650:  CALL   1166
09654:  MOVLW  64
09656:  MOVLB  5
09658:  ADDWF  xA5,W
0965A:  MOVWF  x9E
0965C:  MOVLW  01
0965E:  MOVWF  xA5
09660:  MOVLB  7
09662:  CLRF   x86
09664:  MOVLB  0
09666:  CALL   123E
0966A:  MOVLB  5
0966C:  BSF    x8B.6
....................                } 
....................          } 
0966E:  BRA    9672
....................             else 
....................                {Flanco1 = 0;}  
09670:  BCF    x8B.4
....................                 
....................          if(LEFT)//Si oprime boton de Toma. 
09672:  BSF    F96.2
09674:  BTFSS  F84.2
09676:  BRA    96BA
....................          { 
....................             Buzz_on;delay_ms(10);Buzz_off; 
09678:  BSF    F8B.7
0967A:  BCF    F94.7
0967C:  MOVLW  0A
0967E:  MOVLB  7
09680:  MOVWF  x8B
09682:  MOVLB  0
09684:  CALL   1166
09688:  BCF    F8B.7
0968A:  BCF    F94.7
....................             delay_ms(700);Menu=1;glcd_fillscreen(OFF);Opcion=1;visual=1;             
0968C:  MOVLW  04
0968E:  MOVLB  7
09690:  MOVWF  x85
09692:  MOVLW  AF
09694:  MOVWF  x8B
09696:  MOVLB  0
09698:  CALL   1166
0969C:  MOVLB  7
0969E:  DECFSZ x85,F
096A0:  BRA    9692
096A2:  MOVLW  01
096A4:  MOVLB  5
096A6:  MOVWF  x9E
096A8:  MOVLB  7
096AA:  CLRF   x86
096AC:  MOVLB  0
096AE:  CALL   123E
096B2:  MOVLW  01
096B4:  MOVLB  5
096B6:  MOVWF  xA5
096B8:  BSF    x8B.6
....................          }       
....................          
....................     } 
.................... //_--------------------------------------------------------------------------------------------------------------------------------------------------------        
....................  
.................... //_--------------------------------------------------------------------------------------------------------------------------------------------------------       
....................       if(Menu==101){ // Menu de Ajuste de Ganancia 
096BA:  MOVF   x9E,W
096BC:  SUBLW  65
096BE:  BTFSS  FD8.2
096C0:  BRA    9960
....................        
....................       if(Ganancia>40) 
096C2:  MOVLB  7
096C4:  CLRF   x88
096C6:  CLRF   x87
096C8:  MOVLW  20
096CA:  MOVWF  x86
096CC:  MOVLW  84
096CE:  MOVWF  x85
096D0:  MOVFF  60C,78C
096D4:  MOVFF  60B,78B
096D8:  MOVFF  60A,78A
096DC:  MOVFF  609,789
096E0:  MOVLB  0
096E2:  CALL   118E
096E6:  BNC   96F6
....................       { 
....................          Ganancia=2; 
096E8:  MOVLB  6
096EA:  CLRF   x0C
096EC:  CLRF   x0B
096EE:  CLRF   x0A
096F0:  MOVLW  80
096F2:  MOVWF  x09
096F4:  MOVLB  0
....................       } 
....................        
....................       if(visual==1) 
096F6:  MOVLB  5
096F8:  BTFSS  x8B.6
096FA:  BRA    9778
....................       { 
....................          glcd_fillScreen(OFF); 
096FC:  MOVLB  7
096FE:  CLRF   x86
09700:  MOVLB  0
09702:  CALL   123E
....................          strcpy(Menus.Letra,"P"); 
09706:  MOVLW  07
09708:  MOVWF  FEA
0970A:  MOVLW  61
0970C:  MOVWF  FE9
0970E:  MOVLW  00
09710:  CALL   1004
09714:  TBLRD*-
09716:  TBLRD*+
09718:  MOVF   FF5,W
0971A:  MOVWF  FEE
0971C:  IORLW  00
0971E:  BNZ   9716
....................          displayMenu(Menus.Letra,0,0,1,2); 
09720:  MOVLW  07
09722:  MOVLB  7
09724:  MOVWF  x89
09726:  MOVLW  61
09728:  MOVWF  x88
0972A:  CLRF   x8A
0972C:  CLRF   x8B
0972E:  MOVLW  01
09730:  MOVWF  x8C
09732:  MOVLW  02
09734:  MOVWF  x8D
09736:  MOVLB  0
09738:  CALL   1842
....................           
....................          displayTemperatura(Ganancia,30,30,0,3); 
0973C:  MOVFF  60C,788
09740:  MOVFF  60B,787
09744:  MOVFF  60A,786
09748:  MOVFF  609,785
0974C:  CALL   3DCE
09750:  MOVFF  02,786
09754:  MOVFF  01,785
09758:  MOVFF  02,78B
0975C:  MOVFF  01,78A
09760:  MOVLW  1E
09762:  MOVLB  7
09764:  MOVWF  x8C
09766:  MOVWF  x8D
09768:  CLRF   x8E
0976A:  MOVLW  03
0976C:  MOVWF  x8F
0976E:  MOVLB  0
09770:  CALL   274E
....................           
....................          visual=0; 
09774:  MOVLB  5
09776:  BCF    x8B.6
....................       } 
....................        
....................          if(UP)//Si oprime hacia arriba 
09778:  BSF    F92.5
0977A:  BTFSS  F80.5
0977C:  BRA    981E
....................          {   
....................             Buzz_on;delay_ms(10);Buzz_off; 
0977E:  BSF    F8B.7
09780:  BCF    F94.7
09782:  MOVLW  0A
09784:  MOVLB  7
09786:  MOVWF  x8B
09788:  MOVLB  0
0978A:  CALL   1166
0978E:  BCF    F8B.7
09790:  BCF    F94.7
....................             if(Ganancia>40) 
09792:  MOVLB  7
09794:  CLRF   x88
09796:  CLRF   x87
09798:  MOVLW  20
0979A:  MOVWF  x86
0979C:  MOVLW  84
0979E:  MOVWF  x85
097A0:  MOVFF  60C,78C
097A4:  MOVFF  60B,78B
097A8:  MOVFF  60A,78A
097AC:  MOVFF  609,789
097B0:  MOVLB  0
097B2:  CALL   118E
097B6:  BNC   97DA
....................             { 
....................                Ganancia=40;delay_ms(100);visual=1; 
097B8:  MOVLB  6
097BA:  CLRF   x0C
097BC:  CLRF   x0B
097BE:  MOVLW  20
097C0:  MOVWF  x0A
097C2:  MOVLW  84
097C4:  MOVWF  x09
097C6:  MOVLW  64
097C8:  MOVLB  7
097CA:  MOVWF  x8B
097CC:  MOVLB  0
097CE:  CALL   1166
097D2:  MOVLB  5
097D4:  BSF    x8B.6
....................             } 
097D6:  BRA    981E
097D8:  MOVLB  0
....................             else 
....................             { 
....................                delay_ms(30);Ganancia+=1.0;visual=1; 
097DA:  MOVLW  1E
097DC:  MOVLB  7
097DE:  MOVWF  x8B
097E0:  MOVLB  0
097E2:  CALL   1166
097E6:  BCF    FD8.1
097E8:  MOVFF  60C,78D
097EC:  MOVFF  60B,78C
097F0:  MOVFF  60A,78B
097F4:  MOVFF  609,78A
097F8:  MOVLB  7
097FA:  CLRF   x91
097FC:  CLRF   x90
097FE:  CLRF   x8F
09800:  MOVLW  7F
09802:  MOVWF  x8E
09804:  MOVLB  0
09806:  CALL   1BDA
0980A:  MOVFF  03,60C
0980E:  MOVFF  02,60B
09812:  MOVFF  01,60A
09816:  MOVFF  00,609
0981A:  MOVLB  5
0981C:  BSF    x8B.6
....................             } 
....................          } 
....................                 
....................          if(DOWN)//Si oprime hacia abajo 
0981E:  BSF    F96.0
09820:  BTFSS  F84.0
09822:  BRA    98A0
....................          {   
....................             Buzz_on;delay_ms(10);Buzz_off; 
09824:  BSF    F8B.7
09826:  BCF    F94.7
09828:  MOVLW  0A
0982A:  MOVLB  7
0982C:  MOVWF  x8B
0982E:  MOVLB  0
09830:  CALL   1166
09834:  BCF    F8B.7
09836:  BCF    F94.7
....................             if(Ganancia>1) 
09838:  MOVLB  7
0983A:  CLRF   x88
0983C:  CLRF   x87
0983E:  CLRF   x86
09840:  MOVLW  7F
09842:  MOVWF  x85
09844:  MOVFF  60C,78C
09848:  MOVFF  60B,78B
0984C:  MOVFF  60A,78A
09850:  MOVFF  609,789
09854:  MOVLB  0
09856:  CALL   118E
0985A:  BNC   98A2
....................             { 
....................                delay_ms(30);Ganancia-=1.0;visual=1;      
0985C:  MOVLW  1E
0985E:  MOVLB  7
09860:  MOVWF  x8B
09862:  MOVLB  0
09864:  CALL   1166
09868:  BSF    FD8.1
0986A:  MOVFF  60C,78D
0986E:  MOVFF  60B,78C
09872:  MOVFF  60A,78B
09876:  MOVFF  609,78A
0987A:  MOVLB  7
0987C:  CLRF   x91
0987E:  CLRF   x90
09880:  CLRF   x8F
09882:  MOVLW  7F
09884:  MOVWF  x8E
09886:  MOVLB  0
09888:  CALL   1BDA
0988C:  MOVFF  03,60C
09890:  MOVFF  02,60B
09894:  MOVFF  01,60A
09898:  MOVFF  00,609
0989C:  MOVLB  5
0989E:  BSF    x8B.6
098A0:  MOVLB  0
....................             } 
....................          } 
....................                 
....................          if(RIGHT)//Si oprime SET 
098A2:  BSF    F96.1
098A4:  BTFSS  F84.1
098A6:  BRA    98CE
....................          {   
....................             Buzz_on;delay_ms(10);Buzz_off; 
098A8:  BSF    F8B.7
098AA:  BCF    F94.7
098AC:  MOVLW  0A
098AE:  MOVLB  7
098B0:  MOVWF  x8B
098B2:  MOVLB  0
098B4:  CALL   1166
098B8:  BCF    F8B.7
098BA:  BCF    F94.7
....................             delay_ms(30);visual=1; 
098BC:  MOVLW  1E
098BE:  MOVLB  7
098C0:  MOVWF  x8B
098C2:  MOVLB  0
098C4:  CALL   1166
098C8:  MOVLB  5
098CA:  BSF    x8B.6
098CC:  MOVLB  0
....................          }  
....................                    
....................          if(LEFT)//Si oprime boton de Toma. 
098CE:  BSF    F96.2
098D0:  BTFSS  F84.2
098D2:  BRA    995E
....................          { 
....................             Buzz_on;delay_ms(10);Buzz_off; 
098D4:  BSF    F8B.7
098D6:  BCF    F94.7
098D8:  MOVLW  0A
098DA:  MOVLB  7
098DC:  MOVWF  x8B
098DE:  MOVLB  0
098E0:  CALL   1166
098E4:  BCF    F8B.7
098E6:  BCF    F94.7
....................             delay_ms(700);Menu=100;glcd_fillscreen(OFF);Opcion=1;visual=1; 
098E8:  MOVLW  04
098EA:  MOVLB  7
098EC:  MOVWF  x85
098EE:  MOVLW  AF
098F0:  MOVWF  x8B
098F2:  MOVLB  0
098F4:  CALL   1166
098F8:  MOVLB  7
098FA:  DECFSZ x85,F
098FC:  BRA    98EE
098FE:  MOVLW  64
09900:  MOVLB  5
09902:  MOVWF  x9E
09904:  MOVLB  7
09906:  CLRF   x86
09908:  MOVLB  0
0990A:  CALL   123E
0990E:  MOVLW  01
09910:  MOVLB  5
09912:  MOVWF  xA5
09914:  BSF    x8B.6
....................             write_eeprom(250,(int8)Ganancia); 
09916:  MOVFF  60C,788
0991A:  MOVFF  60B,787
0991E:  MOVFF  60A,786
09922:  MOVFF  609,785
09926:  MOVLB  0
09928:  CALL   3DCE
0992C:  MOVFF  01,785
09930:  MOVF   FF2,W
09932:  MOVWF  00
09934:  BCF    FF2.7
09936:  CLRF   FAA
09938:  MOVLW  FA
0993A:  MOVWF  FA9
0993C:  MOVFF  785,FA8
09940:  BCF    FA6.6
09942:  BCF    FA6.7
09944:  BSF    FA6.2
09946:  MOVLB  F
09948:  MOVLW  55
0994A:  MOVWF  FA7
0994C:  MOVLW  AA
0994E:  MOVWF  FA7
09950:  BSF    FA6.1
09952:  BTFSC  FA6.1
09954:  BRA    9952
09956:  BCF    FA6.2
09958:  MOVF   00,W
0995A:  IORWF  FF2,F
0995C:  MOVLB  0
0995E:  MOVLB  5
....................          } 
....................      } 
.................... //_-------------------------------------------------------------------------------------------------------------------------------------------------------- 
....................  
.................... //_--------------------------------------------------------------------------------------------------------------------------------------------------------       
....................       if(Menu==102){ // Menu de Ajuste de Integral 
09960:  MOVF   x9E,W
09962:  SUBLW  66
09964:  BTFSS  FD8.2
09966:  BRA    9C08
....................        
....................       if(Integral>40) 
09968:  MOVLB  7
0996A:  CLRF   x88
0996C:  CLRF   x87
0996E:  MOVLW  20
09970:  MOVWF  x86
09972:  MOVLW  84
09974:  MOVWF  x85
09976:  MOVFF  630,78C
0997A:  MOVFF  62F,78B
0997E:  MOVFF  62E,78A
09982:  MOVFF  62D,789
09986:  MOVLB  0
09988:  CALL   118E
0998C:  BNC   999C
....................       { 
....................          Integral=1; 
0998E:  MOVLB  6
09990:  CLRF   x30
09992:  CLRF   x2F
09994:  CLRF   x2E
09996:  MOVLW  7F
09998:  MOVWF  x2D
0999A:  MOVLB  0
....................       } 
....................        
....................       if(visual==1) 
0999C:  MOVLB  5
0999E:  BTFSS  x8B.6
099A0:  BRA    9A1E
....................       { 
....................          glcd_fillScreen(OFF); 
099A2:  MOVLB  7
099A4:  CLRF   x86
099A6:  MOVLB  0
099A8:  CALL   123E
....................          strcpy(Menus.Letra,"I"); 
099AC:  MOVLW  07
099AE:  MOVWF  FEA
099B0:  MOVLW  61
099B2:  MOVWF  FE9
099B4:  MOVLW  00
099B6:  CALL   101A
099BA:  TBLRD*-
099BC:  TBLRD*+
099BE:  MOVF   FF5,W
099C0:  MOVWF  FEE
099C2:  IORLW  00
099C4:  BNZ   99BC
....................          displayMenu(Menus.Letra,0,0,1,2); 
099C6:  MOVLW  07
099C8:  MOVLB  7
099CA:  MOVWF  x89
099CC:  MOVLW  61
099CE:  MOVWF  x88
099D0:  CLRF   x8A
099D2:  CLRF   x8B
099D4:  MOVLW  01
099D6:  MOVWF  x8C
099D8:  MOVLW  02
099DA:  MOVWF  x8D
099DC:  MOVLB  0
099DE:  CALL   1842
....................           
....................          displayTemperatura(Integral,30,30,0,3); 
099E2:  MOVFF  630,788
099E6:  MOVFF  62F,787
099EA:  MOVFF  62E,786
099EE:  MOVFF  62D,785
099F2:  CALL   3DCE
099F6:  MOVFF  02,786
099FA:  MOVFF  01,785
099FE:  MOVFF  02,78B
09A02:  MOVFF  01,78A
09A06:  MOVLW  1E
09A08:  MOVLB  7
09A0A:  MOVWF  x8C
09A0C:  MOVWF  x8D
09A0E:  CLRF   x8E
09A10:  MOVLW  03
09A12:  MOVWF  x8F
09A14:  MOVLB  0
09A16:  CALL   274E
....................           
....................          visual=0; 
09A1A:  MOVLB  5
09A1C:  BCF    x8B.6
....................       } 
....................        
....................          if(UP)//Si oprime hacia arriba 
09A1E:  BSF    F92.5
09A20:  BTFSS  F80.5
09A22:  BRA    9AC4
....................          {   
....................             Buzz_on;delay_ms(10);Buzz_off; 
09A24:  BSF    F8B.7
09A26:  BCF    F94.7
09A28:  MOVLW  0A
09A2A:  MOVLB  7
09A2C:  MOVWF  x8B
09A2E:  MOVLB  0
09A30:  CALL   1166
09A34:  BCF    F8B.7
09A36:  BCF    F94.7
....................             if(Integral>40) 
09A38:  MOVLB  7
09A3A:  CLRF   x88
09A3C:  CLRF   x87
09A3E:  MOVLW  20
09A40:  MOVWF  x86
09A42:  MOVLW  84
09A44:  MOVWF  x85
09A46:  MOVFF  630,78C
09A4A:  MOVFF  62F,78B
09A4E:  MOVFF  62E,78A
09A52:  MOVFF  62D,789
09A56:  MOVLB  0
09A58:  CALL   118E
09A5C:  BNC   9A80
....................             { 
....................                Integral=40;delay_ms(100);visual=1; 
09A5E:  MOVLB  6
09A60:  CLRF   x30
09A62:  CLRF   x2F
09A64:  MOVLW  20
09A66:  MOVWF  x2E
09A68:  MOVLW  84
09A6A:  MOVWF  x2D
09A6C:  MOVLW  64
09A6E:  MOVLB  7
09A70:  MOVWF  x8B
09A72:  MOVLB  0
09A74:  CALL   1166
09A78:  MOVLB  5
09A7A:  BSF    x8B.6
....................             } 
09A7C:  BRA    9AC4
09A7E:  MOVLB  0
....................             else 
....................             { 
....................                delay_ms(30);Integral+=1.0;visual=1; 
09A80:  MOVLW  1E
09A82:  MOVLB  7
09A84:  MOVWF  x8B
09A86:  MOVLB  0
09A88:  CALL   1166
09A8C:  BCF    FD8.1
09A8E:  MOVFF  630,78D
09A92:  MOVFF  62F,78C
09A96:  MOVFF  62E,78B
09A9A:  MOVFF  62D,78A
09A9E:  MOVLB  7
09AA0:  CLRF   x91
09AA2:  CLRF   x90
09AA4:  CLRF   x8F
09AA6:  MOVLW  7F
09AA8:  MOVWF  x8E
09AAA:  MOVLB  0
09AAC:  CALL   1BDA
09AB0:  MOVFF  03,630
09AB4:  MOVFF  02,62F
09AB8:  MOVFF  01,62E
09ABC:  MOVFF  00,62D
09AC0:  MOVLB  5
09AC2:  BSF    x8B.6
....................             } 
....................          } 
....................                 
....................          if(DOWN)//Si oprime hacia abajo 
09AC4:  BSF    F96.0
09AC6:  BTFSS  F84.0
09AC8:  BRA    9B46
....................          {   
....................             Buzz_on;delay_ms(10);Buzz_off; 
09ACA:  BSF    F8B.7
09ACC:  BCF    F94.7
09ACE:  MOVLW  0A
09AD0:  MOVLB  7
09AD2:  MOVWF  x8B
09AD4:  MOVLB  0
09AD6:  CALL   1166
09ADA:  BCF    F8B.7
09ADC:  BCF    F94.7
....................             if(Integral>1) 
09ADE:  MOVLB  7
09AE0:  CLRF   x88
09AE2:  CLRF   x87
09AE4:  CLRF   x86
09AE6:  MOVLW  7F
09AE8:  MOVWF  x85
09AEA:  MOVFF  630,78C
09AEE:  MOVFF  62F,78B
09AF2:  MOVFF  62E,78A
09AF6:  MOVFF  62D,789
09AFA:  MOVLB  0
09AFC:  CALL   118E
09B00:  BNC   9B48
....................             { 
....................                delay_ms(30);Integral-=1.0;visual=1;      
09B02:  MOVLW  1E
09B04:  MOVLB  7
09B06:  MOVWF  x8B
09B08:  MOVLB  0
09B0A:  CALL   1166
09B0E:  BSF    FD8.1
09B10:  MOVFF  630,78D
09B14:  MOVFF  62F,78C
09B18:  MOVFF  62E,78B
09B1C:  MOVFF  62D,78A
09B20:  MOVLB  7
09B22:  CLRF   x91
09B24:  CLRF   x90
09B26:  CLRF   x8F
09B28:  MOVLW  7F
09B2A:  MOVWF  x8E
09B2C:  MOVLB  0
09B2E:  CALL   1BDA
09B32:  MOVFF  03,630
09B36:  MOVFF  02,62F
09B3A:  MOVFF  01,62E
09B3E:  MOVFF  00,62D
09B42:  MOVLB  5
09B44:  BSF    x8B.6
09B46:  MOVLB  0
....................             } 
....................          } 
....................                 
....................          if(RIGHT)//Si oprime SET 
09B48:  BSF    F96.1
09B4A:  BTFSS  F84.1
09B4C:  BRA    9B74
....................          {   
....................             Buzz_on;delay_ms(10);Buzz_off; 
09B4E:  BSF    F8B.7
09B50:  BCF    F94.7
09B52:  MOVLW  0A
09B54:  MOVLB  7
09B56:  MOVWF  x8B
09B58:  MOVLB  0
09B5A:  CALL   1166
09B5E:  BCF    F8B.7
09B60:  BCF    F94.7
....................             delay_ms(30);visual=1; 
09B62:  MOVLW  1E
09B64:  MOVLB  7
09B66:  MOVWF  x8B
09B68:  MOVLB  0
09B6A:  CALL   1166
09B6E:  MOVLB  5
09B70:  BSF    x8B.6
09B72:  MOVLB  0
....................          }  
....................                    
....................          if(LEFT)//Si oprime boton de Toma. 
09B74:  BSF    F96.2
09B76:  BTFSS  F84.2
09B78:  BRA    9C06
....................          { 
....................             Buzz_on;delay_ms(10);Buzz_off; 
09B7A:  BSF    F8B.7
09B7C:  BCF    F94.7
09B7E:  MOVLW  0A
09B80:  MOVLB  7
09B82:  MOVWF  x8B
09B84:  MOVLB  0
09B86:  CALL   1166
09B8A:  BCF    F8B.7
09B8C:  BCF    F94.7
....................             delay_ms(700);Menu=100;glcd_fillscreen(OFF);Opcion=1;visual=1; 
09B8E:  MOVLW  04
09B90:  MOVLB  7
09B92:  MOVWF  x85
09B94:  MOVLW  AF
09B96:  MOVWF  x8B
09B98:  MOVLB  0
09B9A:  CALL   1166
09B9E:  MOVLB  7
09BA0:  DECFSZ x85,F
09BA2:  BRA    9B94
09BA4:  MOVLW  64
09BA6:  MOVLB  5
09BA8:  MOVWF  x9E
09BAA:  MOVLB  7
09BAC:  CLRF   x86
09BAE:  MOVLB  0
09BB0:  CALL   123E
09BB4:  MOVLW  01
09BB6:  MOVLB  5
09BB8:  MOVWF  xA5
09BBA:  BSF    x8B.6
....................             write_eeprom(270,(int8)Integral); 
09BBC:  MOVFF  630,788
09BC0:  MOVFF  62F,787
09BC4:  MOVFF  62E,786
09BC8:  MOVFF  62D,785
09BCC:  MOVLB  0
09BCE:  CALL   3DCE
09BD2:  MOVFF  01,785
09BD6:  MOVF   FF2,W
09BD8:  MOVWF  00
09BDA:  BCF    FF2.7
09BDC:  MOVLW  01
09BDE:  MOVWF  FAA
09BE0:  MOVLW  0E
09BE2:  MOVWF  FA9
09BE4:  MOVFF  785,FA8
09BE8:  BCF    FA6.6
09BEA:  BCF    FA6.7
09BEC:  BSF    FA6.2
09BEE:  MOVLB  F
09BF0:  MOVLW  55
09BF2:  MOVWF  FA7
09BF4:  MOVLW  AA
09BF6:  MOVWF  FA7
09BF8:  BSF    FA6.1
09BFA:  BTFSC  FA6.1
09BFC:  BRA    9BFA
09BFE:  BCF    FA6.2
09C00:  MOVF   00,W
09C02:  IORWF  FF2,F
09C04:  MOVLB  0
09C06:  MOVLB  5
....................          } 
....................      } 
.................... //_-------------------------------------------------------------------------------------------------------------------------------------------------------- 
....................  
.................... //_--------------------------------------------------------------------------------------------------------------------------------------------------------       
....................       if(Menu==103){ // Menu de Ajuste de Derivativo 
09C08:  MOVF   x9E,W
09C0A:  SUBLW  67
09C0C:  BTFSS  FD8.2
09C0E:  BRA    9EB0
....................        
....................       if(Derivativo>200) 
09C10:  MOVLB  7
09C12:  CLRF   x88
09C14:  CLRF   x87
09C16:  MOVLW  48
09C18:  MOVWF  x86
09C1A:  MOVLW  86
09C1C:  MOVWF  x85
09C1E:  MOVFF  634,78C
09C22:  MOVFF  633,78B
09C26:  MOVFF  632,78A
09C2A:  MOVFF  631,789
09C2E:  MOVLB  0
09C30:  CALL   118E
09C34:  BNC   9C44
....................       { 
....................          Derivativo=2; 
09C36:  MOVLB  6
09C38:  CLRF   x34
09C3A:  CLRF   x33
09C3C:  CLRF   x32
09C3E:  MOVLW  80
09C40:  MOVWF  x31
09C42:  MOVLB  0
....................       } 
....................        
....................       if(visual==1) 
09C44:  MOVLB  5
09C46:  BTFSS  x8B.6
09C48:  BRA    9CC6
....................       { 
....................          glcd_fillScreen(OFF); 
09C4A:  MOVLB  7
09C4C:  CLRF   x86
09C4E:  MOVLB  0
09C50:  CALL   123E
....................          strcpy(Menus.Letra,"D"); 
09C54:  MOVLW  07
09C56:  MOVWF  FEA
09C58:  MOVLW  61
09C5A:  MOVWF  FE9
09C5C:  MOVLW  00
09C5E:  CALL   1030
09C62:  TBLRD*-
09C64:  TBLRD*+
09C66:  MOVF   FF5,W
09C68:  MOVWF  FEE
09C6A:  IORLW  00
09C6C:  BNZ   9C64
....................          displayMenu(Menus.Letra,0,0,1,2); 
09C6E:  MOVLW  07
09C70:  MOVLB  7
09C72:  MOVWF  x89
09C74:  MOVLW  61
09C76:  MOVWF  x88
09C78:  CLRF   x8A
09C7A:  CLRF   x8B
09C7C:  MOVLW  01
09C7E:  MOVWF  x8C
09C80:  MOVLW  02
09C82:  MOVWF  x8D
09C84:  MOVLB  0
09C86:  CALL   1842
....................           
....................          displayTemperatura(Derivativo,30,30,0,3); 
09C8A:  MOVFF  634,788
09C8E:  MOVFF  633,787
09C92:  MOVFF  632,786
09C96:  MOVFF  631,785
09C9A:  CALL   3DCE
09C9E:  MOVFF  02,786
09CA2:  MOVFF  01,785
09CA6:  MOVFF  02,78B
09CAA:  MOVFF  01,78A
09CAE:  MOVLW  1E
09CB0:  MOVLB  7
09CB2:  MOVWF  x8C
09CB4:  MOVWF  x8D
09CB6:  CLRF   x8E
09CB8:  MOVLW  03
09CBA:  MOVWF  x8F
09CBC:  MOVLB  0
09CBE:  CALL   274E
....................           
....................          visual=0; 
09CC2:  MOVLB  5
09CC4:  BCF    x8B.6
....................       } 
....................        
....................          if(UP)//Si oprime hacia arriba 
09CC6:  BSF    F92.5
09CC8:  BTFSS  F80.5
09CCA:  BRA    9D6C
....................          {   
....................             Buzz_on;delay_ms(10);Buzz_off; 
09CCC:  BSF    F8B.7
09CCE:  BCF    F94.7
09CD0:  MOVLW  0A
09CD2:  MOVLB  7
09CD4:  MOVWF  x8B
09CD6:  MOVLB  0
09CD8:  CALL   1166
09CDC:  BCF    F8B.7
09CDE:  BCF    F94.7
....................             if(Derivativo>200) 
09CE0:  MOVLB  7
09CE2:  CLRF   x88
09CE4:  CLRF   x87
09CE6:  MOVLW  48
09CE8:  MOVWF  x86
09CEA:  MOVLW  86
09CEC:  MOVWF  x85
09CEE:  MOVFF  634,78C
09CF2:  MOVFF  633,78B
09CF6:  MOVFF  632,78A
09CFA:  MOVFF  631,789
09CFE:  MOVLB  0
09D00:  CALL   118E
09D04:  BNC   9D28
....................             { 
....................                Derivativo=200;delay_ms(100);visual=1; 
09D06:  MOVLB  6
09D08:  CLRF   x34
09D0A:  CLRF   x33
09D0C:  MOVLW  48
09D0E:  MOVWF  x32
09D10:  MOVLW  86
09D12:  MOVWF  x31
09D14:  MOVLW  64
09D16:  MOVLB  7
09D18:  MOVWF  x8B
09D1A:  MOVLB  0
09D1C:  CALL   1166
09D20:  MOVLB  5
09D22:  BSF    x8B.6
....................             } 
09D24:  BRA    9D6C
09D26:  MOVLB  0
....................             else 
....................             { 
....................                delay_ms(30);Derivativo+=1.0;visual=1; 
09D28:  MOVLW  1E
09D2A:  MOVLB  7
09D2C:  MOVWF  x8B
09D2E:  MOVLB  0
09D30:  CALL   1166
09D34:  BCF    FD8.1
09D36:  MOVFF  634,78D
09D3A:  MOVFF  633,78C
09D3E:  MOVFF  632,78B
09D42:  MOVFF  631,78A
09D46:  MOVLB  7
09D48:  CLRF   x91
09D4A:  CLRF   x90
09D4C:  CLRF   x8F
09D4E:  MOVLW  7F
09D50:  MOVWF  x8E
09D52:  MOVLB  0
09D54:  CALL   1BDA
09D58:  MOVFF  03,634
09D5C:  MOVFF  02,633
09D60:  MOVFF  01,632
09D64:  MOVFF  00,631
09D68:  MOVLB  5
09D6A:  BSF    x8B.6
....................             } 
....................          } 
....................                 
....................          if(DOWN)//Si oprime hacia abajo 
09D6C:  BSF    F96.0
09D6E:  BTFSS  F84.0
09D70:  BRA    9DEE
....................          {   
....................             Buzz_on;delay_ms(10);Buzz_off; 
09D72:  BSF    F8B.7
09D74:  BCF    F94.7
09D76:  MOVLW  0A
09D78:  MOVLB  7
09D7A:  MOVWF  x8B
09D7C:  MOVLB  0
09D7E:  CALL   1166
09D82:  BCF    F8B.7
09D84:  BCF    F94.7
....................             if(Derivativo>1) 
09D86:  MOVLB  7
09D88:  CLRF   x88
09D8A:  CLRF   x87
09D8C:  CLRF   x86
09D8E:  MOVLW  7F
09D90:  MOVWF  x85
09D92:  MOVFF  634,78C
09D96:  MOVFF  633,78B
09D9A:  MOVFF  632,78A
09D9E:  MOVFF  631,789
09DA2:  MOVLB  0
09DA4:  CALL   118E
09DA8:  BNC   9DF0
....................             { 
....................                delay_ms(30);Derivativo-=1.0;visual=1;      
09DAA:  MOVLW  1E
09DAC:  MOVLB  7
09DAE:  MOVWF  x8B
09DB0:  MOVLB  0
09DB2:  CALL   1166
09DB6:  BSF    FD8.1
09DB8:  MOVFF  634,78D
09DBC:  MOVFF  633,78C
09DC0:  MOVFF  632,78B
09DC4:  MOVFF  631,78A
09DC8:  MOVLB  7
09DCA:  CLRF   x91
09DCC:  CLRF   x90
09DCE:  CLRF   x8F
09DD0:  MOVLW  7F
09DD2:  MOVWF  x8E
09DD4:  MOVLB  0
09DD6:  CALL   1BDA
09DDA:  MOVFF  03,634
09DDE:  MOVFF  02,633
09DE2:  MOVFF  01,632
09DE6:  MOVFF  00,631
09DEA:  MOVLB  5
09DEC:  BSF    x8B.6
09DEE:  MOVLB  0
....................             } 
....................          } 
....................                 
....................          if(RIGHT)//Si oprime SET 
09DF0:  BSF    F96.1
09DF2:  BTFSS  F84.1
09DF4:  BRA    9E1C
....................          {   
....................             Buzz_on;delay_ms(10);Buzz_off; 
09DF6:  BSF    F8B.7
09DF8:  BCF    F94.7
09DFA:  MOVLW  0A
09DFC:  MOVLB  7
09DFE:  MOVWF  x8B
09E00:  MOVLB  0
09E02:  CALL   1166
09E06:  BCF    F8B.7
09E08:  BCF    F94.7
....................             delay_ms(30);visual=1; 
09E0A:  MOVLW  1E
09E0C:  MOVLB  7
09E0E:  MOVWF  x8B
09E10:  MOVLB  0
09E12:  CALL   1166
09E16:  MOVLB  5
09E18:  BSF    x8B.6
09E1A:  MOVLB  0
....................          }  
....................                    
....................          if(LEFT)//Si oprime boton de Toma. 
09E1C:  BSF    F96.2
09E1E:  BTFSS  F84.2
09E20:  BRA    9EAE
....................          { 
....................             Buzz_on;delay_ms(10);Buzz_off; 
09E22:  BSF    F8B.7
09E24:  BCF    F94.7
09E26:  MOVLW  0A
09E28:  MOVLB  7
09E2A:  MOVWF  x8B
09E2C:  MOVLB  0
09E2E:  CALL   1166
09E32:  BCF    F8B.7
09E34:  BCF    F94.7
....................             delay_ms(700);Menu=100;glcd_fillscreen(OFF);Opcion=1;visual=1; 
09E36:  MOVLW  04
09E38:  MOVLB  7
09E3A:  MOVWF  x85
09E3C:  MOVLW  AF
09E3E:  MOVWF  x8B
09E40:  MOVLB  0
09E42:  CALL   1166
09E46:  MOVLB  7
09E48:  DECFSZ x85,F
09E4A:  BRA    9E3C
09E4C:  MOVLW  64
09E4E:  MOVLB  5
09E50:  MOVWF  x9E
09E52:  MOVLB  7
09E54:  CLRF   x86
09E56:  MOVLB  0
09E58:  CALL   123E
09E5C:  MOVLW  01
09E5E:  MOVLB  5
09E60:  MOVWF  xA5
09E62:  BSF    x8B.6
....................             write_eeprom(271,(int8)Derivativo); 
09E64:  MOVFF  634,788
09E68:  MOVFF  633,787
09E6C:  MOVFF  632,786
09E70:  MOVFF  631,785
09E74:  MOVLB  0
09E76:  CALL   3DCE
09E7A:  MOVFF  01,785
09E7E:  MOVF   FF2,W
09E80:  MOVWF  00
09E82:  BCF    FF2.7
09E84:  MOVLW  01
09E86:  MOVWF  FAA
09E88:  MOVLW  0F
09E8A:  MOVWF  FA9
09E8C:  MOVFF  785,FA8
09E90:  BCF    FA6.6
09E92:  BCF    FA6.7
09E94:  BSF    FA6.2
09E96:  MOVLB  F
09E98:  MOVLW  55
09E9A:  MOVWF  FA7
09E9C:  MOVLW  AA
09E9E:  MOVWF  FA7
09EA0:  BSF    FA6.1
09EA2:  BTFSC  FA6.1
09EA4:  BRA    9EA2
09EA6:  BCF    FA6.2
09EA8:  MOVF   00,W
09EAA:  IORWF  FF2,F
09EAC:  MOVLB  0
09EAE:  MOVLB  5
....................          } 
....................      } 
.................... //_-------------------------------------------------------------------------------------------------------------------------------------------------------- 
....................  
....................  
.................... //_--------------------------------------------------------------------------------------------------------------------------------------------------------       
....................       if(Menu==104){ // Menu de Ajuste de Ganancia2 
09EB0:  MOVF   x9E,W
09EB2:  SUBLW  68
09EB4:  BTFSS  FD8.2
09EB6:  BRA    A158
....................        
....................       if(Tciclo>40) 
09EB8:  MOVLB  7
09EBA:  CLRF   x88
09EBC:  CLRF   x87
09EBE:  MOVLW  20
09EC0:  MOVWF  x86
09EC2:  MOVLW  84
09EC4:  MOVWF  x85
09EC6:  MOVFF  5F4,78C
09ECA:  MOVFF  5F3,78B
09ECE:  MOVFF  5F2,78A
09ED2:  MOVFF  5F1,789
09ED6:  MOVLB  0
09ED8:  CALL   118E
09EDC:  BNC   9EEE
....................       { 
....................          Tciclo=40; 
09EDE:  MOVLB  5
09EE0:  CLRF   xF4
09EE2:  CLRF   xF3
09EE4:  MOVLW  20
09EE6:  MOVWF  xF2
09EE8:  MOVLW  84
09EEA:  MOVWF  xF1
09EEC:  MOVLB  0
....................       } 
....................        
....................       if(visual==1) 
09EEE:  MOVLB  5
09EF0:  BTFSS  x8B.6
09EF2:  BRA    9F70
....................       { 
....................          glcd_fillScreen(OFF); 
09EF4:  MOVLB  7
09EF6:  CLRF   x86
09EF8:  MOVLB  0
09EFA:  CALL   123E
....................          strcpy(Menus.Letra,"Tciclo"); 
09EFE:  MOVLW  07
09F00:  MOVWF  FEA
09F02:  MOVLW  61
09F04:  MOVWF  FE9
09F06:  MOVLW  00
09F08:  CALL   0F28
09F0C:  TBLRD*-
09F0E:  TBLRD*+
09F10:  MOVF   FF5,W
09F12:  MOVWF  FEE
09F14:  IORLW  00
09F16:  BNZ   9F0E
....................          displayMenu(Menus.Letra,0,0,1,2); 
09F18:  MOVLW  07
09F1A:  MOVLB  7
09F1C:  MOVWF  x89
09F1E:  MOVLW  61
09F20:  MOVWF  x88
09F22:  CLRF   x8A
09F24:  CLRF   x8B
09F26:  MOVLW  01
09F28:  MOVWF  x8C
09F2A:  MOVLW  02
09F2C:  MOVWF  x8D
09F2E:  MOVLB  0
09F30:  CALL   1842
....................           
....................          displayTemperatura(Tciclo,30,30,0,3); 
09F34:  MOVFF  5F4,788
09F38:  MOVFF  5F3,787
09F3C:  MOVFF  5F2,786
09F40:  MOVFF  5F1,785
09F44:  CALL   3DCE
09F48:  MOVFF  02,786
09F4C:  MOVFF  01,785
09F50:  MOVFF  02,78B
09F54:  MOVFF  01,78A
09F58:  MOVLW  1E
09F5A:  MOVLB  7
09F5C:  MOVWF  x8C
09F5E:  MOVWF  x8D
09F60:  CLRF   x8E
09F62:  MOVLW  03
09F64:  MOVWF  x8F
09F66:  MOVLB  0
09F68:  CALL   274E
....................           
....................          visual=0; 
09F6C:  MOVLB  5
09F6E:  BCF    x8B.6
....................       } 
....................        
....................          if(UP)//Si oprime hacia arriba 
09F70:  BSF    F92.5
09F72:  BTFSS  F80.5
09F74:  BRA    A016
....................          {   
....................             Buzz_on;delay_ms(10);Buzz_off; 
09F76:  BSF    F8B.7
09F78:  BCF    F94.7
09F7A:  MOVLW  0A
09F7C:  MOVLB  7
09F7E:  MOVWF  x8B
09F80:  MOVLB  0
09F82:  CALL   1166
09F86:  BCF    F8B.7
09F88:  BCF    F94.7
....................             if(Tciclo>40) 
09F8A:  MOVLB  7
09F8C:  CLRF   x88
09F8E:  CLRF   x87
09F90:  MOVLW  20
09F92:  MOVWF  x86
09F94:  MOVLW  84
09F96:  MOVWF  x85
09F98:  MOVFF  5F4,78C
09F9C:  MOVFF  5F3,78B
09FA0:  MOVFF  5F2,78A
09FA4:  MOVFF  5F1,789
09FA8:  MOVLB  0
09FAA:  CALL   118E
09FAE:  BNC   9FD2
....................             { 
....................                Tciclo=40;delay_ms(100);visual=1; 
09FB0:  MOVLB  5
09FB2:  CLRF   xF4
09FB4:  CLRF   xF3
09FB6:  MOVLW  20
09FB8:  MOVWF  xF2
09FBA:  MOVLW  84
09FBC:  MOVWF  xF1
09FBE:  MOVLW  64
09FC0:  MOVLB  7
09FC2:  MOVWF  x8B
09FC4:  MOVLB  0
09FC6:  CALL   1166
09FCA:  MOVLB  5
09FCC:  BSF    x8B.6
....................             } 
09FCE:  BRA    A016
09FD0:  MOVLB  0
....................             else 
....................             { 
....................                delay_ms(30);Tciclo+=1.0;visual=1; 
09FD2:  MOVLW  1E
09FD4:  MOVLB  7
09FD6:  MOVWF  x8B
09FD8:  MOVLB  0
09FDA:  CALL   1166
09FDE:  BCF    FD8.1
09FE0:  MOVFF  5F4,78D
09FE4:  MOVFF  5F3,78C
09FE8:  MOVFF  5F2,78B
09FEC:  MOVFF  5F1,78A
09FF0:  MOVLB  7
09FF2:  CLRF   x91
09FF4:  CLRF   x90
09FF6:  CLRF   x8F
09FF8:  MOVLW  7F
09FFA:  MOVWF  x8E
09FFC:  MOVLB  0
09FFE:  CALL   1BDA
0A002:  MOVFF  03,5F4
0A006:  MOVFF  02,5F3
0A00A:  MOVFF  01,5F2
0A00E:  MOVFF  00,5F1
0A012:  MOVLB  5
0A014:  BSF    x8B.6
....................             } 
....................          } 
....................                 
....................          if(DOWN)//Si oprime hacia abajo 
0A016:  BSF    F96.0
0A018:  BTFSS  F84.0
0A01A:  BRA    A098
....................          {   
....................             Buzz_on;delay_ms(10);Buzz_off; 
0A01C:  BSF    F8B.7
0A01E:  BCF    F94.7
0A020:  MOVLW  0A
0A022:  MOVLB  7
0A024:  MOVWF  x8B
0A026:  MOVLB  0
0A028:  CALL   1166
0A02C:  BCF    F8B.7
0A02E:  BCF    F94.7
....................             if(Tciclo>1) 
0A030:  MOVLB  7
0A032:  CLRF   x88
0A034:  CLRF   x87
0A036:  CLRF   x86
0A038:  MOVLW  7F
0A03A:  MOVWF  x85
0A03C:  MOVFF  5F4,78C
0A040:  MOVFF  5F3,78B
0A044:  MOVFF  5F2,78A
0A048:  MOVFF  5F1,789
0A04C:  MOVLB  0
0A04E:  CALL   118E
0A052:  BNC   A09A
....................             { 
....................                delay_ms(30);Tciclo-=1.0;visual=1;      
0A054:  MOVLW  1E
0A056:  MOVLB  7
0A058:  MOVWF  x8B
0A05A:  MOVLB  0
0A05C:  CALL   1166
0A060:  BSF    FD8.1
0A062:  MOVFF  5F4,78D
0A066:  MOVFF  5F3,78C
0A06A:  MOVFF  5F2,78B
0A06E:  MOVFF  5F1,78A
0A072:  MOVLB  7
0A074:  CLRF   x91
0A076:  CLRF   x90
0A078:  CLRF   x8F
0A07A:  MOVLW  7F
0A07C:  MOVWF  x8E
0A07E:  MOVLB  0
0A080:  CALL   1BDA
0A084:  MOVFF  03,5F4
0A088:  MOVFF  02,5F3
0A08C:  MOVFF  01,5F2
0A090:  MOVFF  00,5F1
0A094:  MOVLB  5
0A096:  BSF    x8B.6
0A098:  MOVLB  0
....................             } 
....................          } 
....................                 
....................          if(RIGHT)//Si oprime SET 
0A09A:  BSF    F96.1
0A09C:  BTFSS  F84.1
0A09E:  BRA    A0C6
....................          {   
....................             Buzz_on;delay_ms(10);Buzz_off; 
0A0A0:  BSF    F8B.7
0A0A2:  BCF    F94.7
0A0A4:  MOVLW  0A
0A0A6:  MOVLB  7
0A0A8:  MOVWF  x8B
0A0AA:  MOVLB  0
0A0AC:  CALL   1166
0A0B0:  BCF    F8B.7
0A0B2:  BCF    F94.7
....................             delay_ms(30);visual=1; 
0A0B4:  MOVLW  1E
0A0B6:  MOVLB  7
0A0B8:  MOVWF  x8B
0A0BA:  MOVLB  0
0A0BC:  CALL   1166
0A0C0:  MOVLB  5
0A0C2:  BSF    x8B.6
0A0C4:  MOVLB  0
....................          }  
....................                    
....................          if(LEFT)//Si oprime boton de Toma. 
0A0C6:  BSF    F96.2
0A0C8:  BTFSS  F84.2
0A0CA:  BRA    A156
....................          { 
....................             Buzz_on;delay_ms(10);Buzz_off; 
0A0CC:  BSF    F8B.7
0A0CE:  BCF    F94.7
0A0D0:  MOVLW  0A
0A0D2:  MOVLB  7
0A0D4:  MOVWF  x8B
0A0D6:  MOVLB  0
0A0D8:  CALL   1166
0A0DC:  BCF    F8B.7
0A0DE:  BCF    F94.7
....................             delay_ms(700);Menu=100;glcd_fillscreen(OFF);Opcion=1;visual=1; 
0A0E0:  MOVLW  04
0A0E2:  MOVLB  7
0A0E4:  MOVWF  x85
0A0E6:  MOVLW  AF
0A0E8:  MOVWF  x8B
0A0EA:  MOVLB  0
0A0EC:  CALL   1166
0A0F0:  MOVLB  7
0A0F2:  DECFSZ x85,F
0A0F4:  BRA    A0E6
0A0F6:  MOVLW  64
0A0F8:  MOVLB  5
0A0FA:  MOVWF  x9E
0A0FC:  MOVLB  7
0A0FE:  CLRF   x86
0A100:  MOVLB  0
0A102:  CALL   123E
0A106:  MOVLW  01
0A108:  MOVLB  5
0A10A:  MOVWF  xA5
0A10C:  BSF    x8B.6
....................             write_eeprom(251,(int8)Tciclo); 
0A10E:  MOVFF  5F4,788
0A112:  MOVFF  5F3,787
0A116:  MOVFF  5F2,786
0A11A:  MOVFF  5F1,785
0A11E:  MOVLB  0
0A120:  CALL   3DCE
0A124:  MOVFF  01,785
0A128:  MOVF   FF2,W
0A12A:  MOVWF  00
0A12C:  BCF    FF2.7
0A12E:  CLRF   FAA
0A130:  MOVLW  FB
0A132:  MOVWF  FA9
0A134:  MOVFF  785,FA8
0A138:  BCF    FA6.6
0A13A:  BCF    FA6.7
0A13C:  BSF    FA6.2
0A13E:  MOVLB  F
0A140:  MOVLW  55
0A142:  MOVWF  FA7
0A144:  MOVLW  AA
0A146:  MOVWF  FA7
0A148:  BSF    FA6.1
0A14A:  BTFSC  FA6.1
0A14C:  BRA    A14A
0A14E:  BCF    FA6.2
0A150:  MOVF   00,W
0A152:  IORWF  FF2,F
0A154:  MOVLB  0
0A156:  MOVLB  5
....................          } 
....................      } 
.................... //_-------------------------------------------------------------------------------------------------------------------------------------------------------- 
....................  
.................... //_--------------------------------------------------------------------------------------------------------------------------------------------------------       
....................       if(Menu==105){ // Menu de Ajuste de Ajuste 
0A158:  MOVF   x9E,W
0A15A:  SUBLW  69
0A15C:  BTFSS  FD8.2
0A15E:  BRA    A374
....................        
....................       if(Ajuste>100) 
0A160:  MOVF   x8E,W
0A162:  SUBLW  64
0A164:  BC    A168
....................       { 
....................          Ajuste=0; 
0A166:  CLRF   x8E
....................       } 
....................        
....................       if(visual==1) 
0A168:  BTFSS  x8B.6
0A16A:  BRA    A1CA
....................       { 
....................          glcd_fillScreen(OFF); 
0A16C:  MOVLB  7
0A16E:  CLRF   x86
0A170:  MOVLB  0
0A172:  CALL   123E
....................          strcpy(Menus.Letra,"Ajuste"); 
0A176:  MOVLW  07
0A178:  MOVWF  FEA
0A17A:  MOVLW  61
0A17C:  MOVWF  FE9
0A17E:  MOVLW  00
0A180:  CALL   1046
0A184:  TBLRD*-
0A186:  TBLRD*+
0A188:  MOVF   FF5,W
0A18A:  MOVWF  FEE
0A18C:  IORLW  00
0A18E:  BNZ   A186
....................          displayMenu(Menus.Letra,0,0,1,2); 
0A190:  MOVLW  07
0A192:  MOVLB  7
0A194:  MOVWF  x89
0A196:  MOVLW  61
0A198:  MOVWF  x88
0A19A:  CLRF   x8A
0A19C:  CLRF   x8B
0A19E:  MOVLW  01
0A1A0:  MOVWF  x8C
0A1A2:  MOVLW  02
0A1A4:  MOVWF  x8D
0A1A6:  MOVLB  0
0A1A8:  CALL   1842
....................           
....................          displayTemperatura(Ajuste,30,30,0,3); 
0A1AC:  MOVLB  7
0A1AE:  CLRF   x8B
0A1B0:  MOVFF  58E,78A
0A1B4:  MOVLW  1E
0A1B6:  MOVWF  x8C
0A1B8:  MOVWF  x8D
0A1BA:  CLRF   x8E
0A1BC:  MOVLW  03
0A1BE:  MOVWF  x8F
0A1C0:  MOVLB  0
0A1C2:  CALL   274E
....................           
....................          visual=0; 
0A1C6:  MOVLB  5
0A1C8:  BCF    x8B.6
....................       } 
....................        
....................          if(UP)//Si oprime hacia arriba 
0A1CA:  BSF    F92.5
0A1CC:  BTFSS  F80.5
0A1CE:  BRA    A25A
....................          {   
....................             Buzz_on;delay_ms(10);Buzz_off; 
0A1D0:  BSF    F8B.7
0A1D2:  BCF    F94.7
0A1D4:  MOVLW  0A
0A1D6:  MOVLB  7
0A1D8:  MOVWF  x8B
0A1DA:  MOVLB  0
0A1DC:  CALL   1166
0A1E0:  BCF    F8B.7
0A1E2:  BCF    F94.7
....................             if(Ajuste>100) 
0A1E4:  MOVLB  5
0A1E6:  MOVF   x8E,W
0A1E8:  SUBLW  64
0A1EA:  BC    A200
....................             { 
....................                Ajuste=100;delay_ms(100);visual=1; 
0A1EC:  MOVLW  64
0A1EE:  MOVWF  x8E
0A1F0:  MOVLB  7
0A1F2:  MOVWF  x8B
0A1F4:  MOVLB  0
0A1F6:  CALL   1166
0A1FA:  MOVLB  5
0A1FC:  BSF    x8B.6
....................             } 
0A1FE:  BRA    A25A
....................             else 
....................             { 
....................                delay_ms(30);Ajuste+=1.0;visual=1; 
0A200:  MOVLW  1E
0A202:  MOVLB  7
0A204:  MOVWF  x8B
0A206:  MOVLB  0
0A208:  CALL   1166
0A20C:  MOVLB  7
0A20E:  CLRF   x8C
0A210:  MOVFF  58E,78B
0A214:  MOVLB  0
0A216:  CALL   1B2A
0A21A:  BCF    FD8.1
0A21C:  MOVFF  03,78D
0A220:  MOVFF  02,78C
0A224:  MOVFF  01,78B
0A228:  MOVFF  00,78A
0A22C:  MOVLB  7
0A22E:  CLRF   x91
0A230:  CLRF   x90
0A232:  CLRF   x8F
0A234:  MOVLW  7F
0A236:  MOVWF  x8E
0A238:  MOVLB  0
0A23A:  CALL   1BDA
0A23E:  MOVFF  03,788
0A242:  MOVFF  02,787
0A246:  MOVFF  01,786
0A24A:  MOVFF  00,785
0A24E:  CALL   3DCE
0A252:  MOVFF  01,58E
0A256:  MOVLB  5
0A258:  BSF    x8B.6
....................             } 
....................          } 
....................                 
....................          if(DOWN)//Si oprime hacia abajo 
0A25A:  BSF    F96.0
0A25C:  BTFSS  F84.0
0A25E:  BRA    A2D4
....................          {   
....................             Buzz_on;delay_ms(10);Buzz_off; 
0A260:  BSF    F8B.7
0A262:  BCF    F94.7
0A264:  MOVLW  0A
0A266:  MOVLB  7
0A268:  MOVWF  x8B
0A26A:  MOVLB  0
0A26C:  CALL   1166
0A270:  BCF    F8B.7
0A272:  BCF    F94.7
....................             if(Ajuste>0) 
0A274:  MOVLB  5
0A276:  MOVF   x8E,F
0A278:  BZ    A2D4
....................             { 
....................                delay_ms(30);Ajuste-=1.0;visual=1;      
0A27A:  MOVLW  1E
0A27C:  MOVLB  7
0A27E:  MOVWF  x8B
0A280:  MOVLB  0
0A282:  CALL   1166
0A286:  MOVLB  7
0A288:  CLRF   x8C
0A28A:  MOVFF  58E,78B
0A28E:  MOVLB  0
0A290:  CALL   1B2A
0A294:  BSF    FD8.1
0A296:  MOVFF  03,78D
0A29A:  MOVFF  02,78C
0A29E:  MOVFF  01,78B
0A2A2:  MOVFF  00,78A
0A2A6:  MOVLB  7
0A2A8:  CLRF   x91
0A2AA:  CLRF   x90
0A2AC:  CLRF   x8F
0A2AE:  MOVLW  7F
0A2B0:  MOVWF  x8E
0A2B2:  MOVLB  0
0A2B4:  CALL   1BDA
0A2B8:  MOVFF  03,788
0A2BC:  MOVFF  02,787
0A2C0:  MOVFF  01,786
0A2C4:  MOVFF  00,785
0A2C8:  CALL   3DCE
0A2CC:  MOVFF  01,58E
0A2D0:  MOVLB  5
0A2D2:  BSF    x8B.6
....................             } 
....................          } 
....................                 
....................          if(RIGHT)//Si oprime SET 
0A2D4:  BSF    F96.1
0A2D6:  BTFSS  F84.1
0A2D8:  BRA    A2FE
....................          {   
....................             Buzz_on;delay_ms(10);Buzz_off; 
0A2DA:  BSF    F8B.7
0A2DC:  BCF    F94.7
0A2DE:  MOVLW  0A
0A2E0:  MOVLB  7
0A2E2:  MOVWF  x8B
0A2E4:  MOVLB  0
0A2E6:  CALL   1166
0A2EA:  BCF    F8B.7
0A2EC:  BCF    F94.7
....................             delay_ms(30);visual=1; 
0A2EE:  MOVLW  1E
0A2F0:  MOVLB  7
0A2F2:  MOVWF  x8B
0A2F4:  MOVLB  0
0A2F6:  CALL   1166
0A2FA:  MOVLB  5
0A2FC:  BSF    x8B.6
....................          }  
....................                    
....................          if(LEFT)//Si oprime boton de Toma. 
0A2FE:  BSF    F96.2
0A300:  BTFSS  F84.2
0A302:  BRA    A374
....................          { 
....................             Buzz_on;delay_ms(10);Buzz_off; 
0A304:  BSF    F8B.7
0A306:  BCF    F94.7
0A308:  MOVLW  0A
0A30A:  MOVLB  7
0A30C:  MOVWF  x8B
0A30E:  MOVLB  0
0A310:  CALL   1166
0A314:  BCF    F8B.7
0A316:  BCF    F94.7
....................             delay_ms(700);Menu=100;glcd_fillscreen(OFF);Opcion=1;visual=1; 
0A318:  MOVLW  04
0A31A:  MOVLB  7
0A31C:  MOVWF  x85
0A31E:  MOVLW  AF
0A320:  MOVWF  x8B
0A322:  MOVLB  0
0A324:  CALL   1166
0A328:  MOVLB  7
0A32A:  DECFSZ x85,F
0A32C:  BRA    A31E
0A32E:  MOVLW  64
0A330:  MOVLB  5
0A332:  MOVWF  x9E
0A334:  MOVLB  7
0A336:  CLRF   x86
0A338:  MOVLB  0
0A33A:  CALL   123E
0A33E:  MOVLW  01
0A340:  MOVLB  5
0A342:  MOVWF  xA5
0A344:  BSF    x8B.6
....................             write_eeprom(252,Ajuste); 
0A346:  MOVF   FF2,W
0A348:  MOVWF  00
0A34A:  BCF    FF2.7
0A34C:  CLRF   FAA
0A34E:  MOVLW  FC
0A350:  MOVWF  FA9
0A352:  MOVFF  58E,FA8
0A356:  BCF    FA6.6
0A358:  BCF    FA6.7
0A35A:  BSF    FA6.2
0A35C:  MOVLB  F
0A35E:  MOVLW  55
0A360:  MOVWF  FA7
0A362:  MOVLW  AA
0A364:  MOVWF  FA7
0A366:  BSF    FA6.1
0A368:  BTFSC  FA6.1
0A36A:  BRA    A368
0A36C:  BCF    FA6.2
0A36E:  MOVF   00,W
0A370:  IORWF  FF2,F
0A372:  MOVLB  5
....................          } 
....................      } 
.................... //_-------------------------------------------------------------------------------------------------------------------------------------------------------- 
....................  
.................... //_--------------------------------------------------------------------------------------------------------------------------------------------------------       
....................       if(Menu==106){ // Menu de Ajuste de Ajusten 
0A374:  MOVF   x9E,W
0A376:  SUBLW  6A
0A378:  BTFSS  FD8.2
0A37A:  BRA    A590
....................        
....................       if(Ajusten>100) 
0A37C:  MOVF   x8F,W
0A37E:  SUBLW  64
0A380:  BC    A384
....................       { 
....................          Ajusten=0; 
0A382:  CLRF   x8F
....................       } 
....................        
....................       if(visual==1) 
0A384:  BTFSS  x8B.6
0A386:  BRA    A3E6
....................       { 
....................          glcd_fillScreen(OFF); 
0A388:  MOVLB  7
0A38A:  CLRF   x86
0A38C:  MOVLB  0
0A38E:  CALL   123E
....................          strcpy(Menus.Letra,"Ajusten"); 
0A392:  MOVLW  07
0A394:  MOVWF  FEA
0A396:  MOVLW  61
0A398:  MOVWF  FE9
0A39A:  MOVLW  00
0A39C:  CALL   1062
0A3A0:  TBLRD*-
0A3A2:  TBLRD*+
0A3A4:  MOVF   FF5,W
0A3A6:  MOVWF  FEE
0A3A8:  IORLW  00
0A3AA:  BNZ   A3A2
....................          displayMenu(Menus.Letra,0,0,1,2); 
0A3AC:  MOVLW  07
0A3AE:  MOVLB  7
0A3B0:  MOVWF  x89
0A3B2:  MOVLW  61
0A3B4:  MOVWF  x88
0A3B6:  CLRF   x8A
0A3B8:  CLRF   x8B
0A3BA:  MOVLW  01
0A3BC:  MOVWF  x8C
0A3BE:  MOVLW  02
0A3C0:  MOVWF  x8D
0A3C2:  MOVLB  0
0A3C4:  CALL   1842
....................           
....................          displayTemperatura(Ajusten,30,30,0,3); 
0A3C8:  MOVLB  7
0A3CA:  CLRF   x8B
0A3CC:  MOVFF  58F,78A
0A3D0:  MOVLW  1E
0A3D2:  MOVWF  x8C
0A3D4:  MOVWF  x8D
0A3D6:  CLRF   x8E
0A3D8:  MOVLW  03
0A3DA:  MOVWF  x8F
0A3DC:  MOVLB  0
0A3DE:  CALL   274E
....................           
....................          visual=0; 
0A3E2:  MOVLB  5
0A3E4:  BCF    x8B.6
....................       } 
....................        
....................          if(UP)//Si oprime hacia arriba 
0A3E6:  BSF    F92.5
0A3E8:  BTFSS  F80.5
0A3EA:  BRA    A476
....................          {   
....................             Buzz_on;delay_ms(10);Buzz_off; 
0A3EC:  BSF    F8B.7
0A3EE:  BCF    F94.7
0A3F0:  MOVLW  0A
0A3F2:  MOVLB  7
0A3F4:  MOVWF  x8B
0A3F6:  MOVLB  0
0A3F8:  CALL   1166
0A3FC:  BCF    F8B.7
0A3FE:  BCF    F94.7
....................             if(Ajusten>100) 
0A400:  MOVLB  5
0A402:  MOVF   x8F,W
0A404:  SUBLW  64
0A406:  BC    A41C
....................             { 
....................                Ajusten=100;delay_ms(100);visual=1; 
0A408:  MOVLW  64
0A40A:  MOVWF  x8F
0A40C:  MOVLB  7
0A40E:  MOVWF  x8B
0A410:  MOVLB  0
0A412:  CALL   1166
0A416:  MOVLB  5
0A418:  BSF    x8B.6
....................             } 
0A41A:  BRA    A476
....................             else 
....................             { 
....................                delay_ms(30);Ajusten+=1.0;visual=1; 
0A41C:  MOVLW  1E
0A41E:  MOVLB  7
0A420:  MOVWF  x8B
0A422:  MOVLB  0
0A424:  CALL   1166
0A428:  MOVLB  7
0A42A:  CLRF   x8C
0A42C:  MOVFF  58F,78B
0A430:  MOVLB  0
0A432:  CALL   1B2A
0A436:  BCF    FD8.1
0A438:  MOVFF  03,78D
0A43C:  MOVFF  02,78C
0A440:  MOVFF  01,78B
0A444:  MOVFF  00,78A
0A448:  MOVLB  7
0A44A:  CLRF   x91
0A44C:  CLRF   x90
0A44E:  CLRF   x8F
0A450:  MOVLW  7F
0A452:  MOVWF  x8E
0A454:  MOVLB  0
0A456:  CALL   1BDA
0A45A:  MOVFF  03,788
0A45E:  MOVFF  02,787
0A462:  MOVFF  01,786
0A466:  MOVFF  00,785
0A46A:  CALL   3DCE
0A46E:  MOVFF  01,58F
0A472:  MOVLB  5
0A474:  BSF    x8B.6
....................             } 
....................          } 
....................                 
....................          if(DOWN)//Si oprime hacia abajo 
0A476:  BSF    F96.0
0A478:  BTFSS  F84.0
0A47A:  BRA    A4F0
....................          {   
....................             Buzz_on;delay_ms(10);Buzz_off; 
0A47C:  BSF    F8B.7
0A47E:  BCF    F94.7
0A480:  MOVLW  0A
0A482:  MOVLB  7
0A484:  MOVWF  x8B
0A486:  MOVLB  0
0A488:  CALL   1166
0A48C:  BCF    F8B.7
0A48E:  BCF    F94.7
....................             if(Ajusten>0) 
0A490:  MOVLB  5
0A492:  MOVF   x8F,F
0A494:  BZ    A4F0
....................             { 
....................                delay_ms(30);Ajusten-=1.0;visual=1;      
0A496:  MOVLW  1E
0A498:  MOVLB  7
0A49A:  MOVWF  x8B
0A49C:  MOVLB  0
0A49E:  CALL   1166
0A4A2:  MOVLB  7
0A4A4:  CLRF   x8C
0A4A6:  MOVFF  58F,78B
0A4AA:  MOVLB  0
0A4AC:  CALL   1B2A
0A4B0:  BSF    FD8.1
0A4B2:  MOVFF  03,78D
0A4B6:  MOVFF  02,78C
0A4BA:  MOVFF  01,78B
0A4BE:  MOVFF  00,78A
0A4C2:  MOVLB  7
0A4C4:  CLRF   x91
0A4C6:  CLRF   x90
0A4C8:  CLRF   x8F
0A4CA:  MOVLW  7F
0A4CC:  MOVWF  x8E
0A4CE:  MOVLB  0
0A4D0:  CALL   1BDA
0A4D4:  MOVFF  03,788
0A4D8:  MOVFF  02,787
0A4DC:  MOVFF  01,786
0A4E0:  MOVFF  00,785
0A4E4:  CALL   3DCE
0A4E8:  MOVFF  01,58F
0A4EC:  MOVLB  5
0A4EE:  BSF    x8B.6
....................             } 
....................          } 
....................                 
....................          if(RIGHT)//Si oprime SET 
0A4F0:  BSF    F96.1
0A4F2:  BTFSS  F84.1
0A4F4:  BRA    A51A
....................          {   
....................             Buzz_on;delay_ms(10);Buzz_off; 
0A4F6:  BSF    F8B.7
0A4F8:  BCF    F94.7
0A4FA:  MOVLW  0A
0A4FC:  MOVLB  7
0A4FE:  MOVWF  x8B
0A500:  MOVLB  0
0A502:  CALL   1166
0A506:  BCF    F8B.7
0A508:  BCF    F94.7
....................             delay_ms(30);visual=1; 
0A50A:  MOVLW  1E
0A50C:  MOVLB  7
0A50E:  MOVWF  x8B
0A510:  MOVLB  0
0A512:  CALL   1166
0A516:  MOVLB  5
0A518:  BSF    x8B.6
....................          }  
....................                    
....................          if(LEFT)//Si oprime boton de Toma. 
0A51A:  BSF    F96.2
0A51C:  BTFSS  F84.2
0A51E:  BRA    A590
....................          { 
....................             Buzz_on;delay_ms(10);Buzz_off; 
0A520:  BSF    F8B.7
0A522:  BCF    F94.7
0A524:  MOVLW  0A
0A526:  MOVLB  7
0A528:  MOVWF  x8B
0A52A:  MOVLB  0
0A52C:  CALL   1166
0A530:  BCF    F8B.7
0A532:  BCF    F94.7
....................             delay_ms(700);Menu=100;glcd_fillscreen(OFF);Opcion=1;visual=1; 
0A534:  MOVLW  04
0A536:  MOVLB  7
0A538:  MOVWF  x85
0A53A:  MOVLW  AF
0A53C:  MOVWF  x8B
0A53E:  MOVLB  0
0A540:  CALL   1166
0A544:  MOVLB  7
0A546:  DECFSZ x85,F
0A548:  BRA    A53A
0A54A:  MOVLW  64
0A54C:  MOVLB  5
0A54E:  MOVWF  x9E
0A550:  MOVLB  7
0A552:  CLRF   x86
0A554:  MOVLB  0
0A556:  CALL   123E
0A55A:  MOVLW  01
0A55C:  MOVLB  5
0A55E:  MOVWF  xA5
0A560:  BSF    x8B.6
....................             write_eeprom(253,Ajusten); 
0A562:  MOVF   FF2,W
0A564:  MOVWF  00
0A566:  BCF    FF2.7
0A568:  CLRF   FAA
0A56A:  MOVLW  FD
0A56C:  MOVWF  FA9
0A56E:  MOVFF  58F,FA8
0A572:  BCF    FA6.6
0A574:  BCF    FA6.7
0A576:  BSF    FA6.2
0A578:  MOVLB  F
0A57A:  MOVLW  55
0A57C:  MOVWF  FA7
0A57E:  MOVLW  AA
0A580:  MOVWF  FA7
0A582:  BSF    FA6.1
0A584:  BTFSC  FA6.1
0A586:  BRA    A584
0A588:  BCF    FA6.2
0A58A:  MOVF   00,W
0A58C:  IORWF  FF2,F
0A58E:  MOVLB  5
....................          } 
....................      } 
.................... //_-------------------------------------------------------------------------------------------------------------------------------------------------------- 
....................  
.................... //_--------------------------------------------------------------------------------------------------------------------------------------------------------       
....................       if(Menu==107){ // Menu de Ajuste de Media Movil 
0A590:  MOVF   x9E,W
0A592:  SUBLW  6B
0A594:  BTFSS  FD8.2
0A596:  BRA    A7B2
....................        
....................       if(MediaMovil>80) 
0A598:  MOVF   x90,W
0A59A:  SUBLW  50
0A59C:  BC    A5A2
....................       { 
....................          MediaMovil=10; 
0A59E:  MOVLW  0A
0A5A0:  MOVWF  x90
....................       } 
....................        
....................       if(visual==1) 
0A5A2:  BTFSS  x8B.6
0A5A4:  BRA    A604
....................       { 
....................          glcd_fillScreen(OFF); 
0A5A6:  MOVLB  7
0A5A8:  CLRF   x86
0A5AA:  MOVLB  0
0A5AC:  CALL   123E
....................          strcpy(Menus.Letra,"Media"); 
0A5B0:  MOVLW  07
0A5B2:  MOVWF  FEA
0A5B4:  MOVLW  61
0A5B6:  MOVWF  FE9
0A5B8:  MOVLW  00
0A5BA:  CALL   107E
0A5BE:  TBLRD*-
0A5C0:  TBLRD*+
0A5C2:  MOVF   FF5,W
0A5C4:  MOVWF  FEE
0A5C6:  IORLW  00
0A5C8:  BNZ   A5C0
....................          displayMenu(Menus.Letra,0,0,1,2); 
0A5CA:  MOVLW  07
0A5CC:  MOVLB  7
0A5CE:  MOVWF  x89
0A5D0:  MOVLW  61
0A5D2:  MOVWF  x88
0A5D4:  CLRF   x8A
0A5D6:  CLRF   x8B
0A5D8:  MOVLW  01
0A5DA:  MOVWF  x8C
0A5DC:  MOVLW  02
0A5DE:  MOVWF  x8D
0A5E0:  MOVLB  0
0A5E2:  CALL   1842
....................           
....................          displayTemperatura(MediaMovil,30,30,0,3); 
0A5E6:  MOVLB  7
0A5E8:  CLRF   x8B
0A5EA:  MOVFF  590,78A
0A5EE:  MOVLW  1E
0A5F0:  MOVWF  x8C
0A5F2:  MOVWF  x8D
0A5F4:  CLRF   x8E
0A5F6:  MOVLW  03
0A5F8:  MOVWF  x8F
0A5FA:  MOVLB  0
0A5FC:  CALL   274E
....................           
....................          visual=0; 
0A600:  MOVLB  5
0A602:  BCF    x8B.6
....................       } 
....................        
....................          if(UP)//Si oprime hacia arriba 
0A604:  BSF    F92.5
0A606:  BTFSS  F80.5
0A608:  BRA    A696
....................          {   
....................             Buzz_on;delay_ms(10);Buzz_off; 
0A60A:  BSF    F8B.7
0A60C:  BCF    F94.7
0A60E:  MOVLW  0A
0A610:  MOVLB  7
0A612:  MOVWF  x8B
0A614:  MOVLB  0
0A616:  CALL   1166
0A61A:  BCF    F8B.7
0A61C:  BCF    F94.7
....................             if(MediaMovil>79) 
0A61E:  MOVLB  5
0A620:  MOVF   x90,W
0A622:  SUBLW  4F
0A624:  BC    A63C
....................             { 
....................                MediaMovil=79;delay_ms(100);visual=1; 
0A626:  MOVLW  4F
0A628:  MOVWF  x90
0A62A:  MOVLW  64
0A62C:  MOVLB  7
0A62E:  MOVWF  x8B
0A630:  MOVLB  0
0A632:  CALL   1166
0A636:  MOVLB  5
0A638:  BSF    x8B.6
....................             } 
0A63A:  BRA    A696
....................             else 
....................             { 
....................                delay_ms(30);MediaMovil+=1.0;visual=1; 
0A63C:  MOVLW  1E
0A63E:  MOVLB  7
0A640:  MOVWF  x8B
0A642:  MOVLB  0
0A644:  CALL   1166
0A648:  MOVLB  7
0A64A:  CLRF   x8C
0A64C:  MOVFF  590,78B
0A650:  MOVLB  0
0A652:  CALL   1B2A
0A656:  BCF    FD8.1
0A658:  MOVFF  03,78D
0A65C:  MOVFF  02,78C
0A660:  MOVFF  01,78B
0A664:  MOVFF  00,78A
0A668:  MOVLB  7
0A66A:  CLRF   x91
0A66C:  CLRF   x90
0A66E:  CLRF   x8F
0A670:  MOVLW  7F
0A672:  MOVWF  x8E
0A674:  MOVLB  0
0A676:  CALL   1BDA
0A67A:  MOVFF  03,788
0A67E:  MOVFF  02,787
0A682:  MOVFF  01,786
0A686:  MOVFF  00,785
0A68A:  CALL   3DCE
0A68E:  MOVFF  01,590
0A692:  MOVLB  5
0A694:  BSF    x8B.6
....................             } 
....................          } 
....................                 
....................          if(DOWN)//Si oprime hacia abajo 
0A696:  BSF    F96.0
0A698:  BTFSS  F84.0
0A69A:  BRA    A712
....................          {   
....................             Buzz_on;delay_ms(10);Buzz_off; 
0A69C:  BSF    F8B.7
0A69E:  BCF    F94.7
0A6A0:  MOVLW  0A
0A6A2:  MOVLB  7
0A6A4:  MOVWF  x8B
0A6A6:  MOVLB  0
0A6A8:  CALL   1166
0A6AC:  BCF    F8B.7
0A6AE:  BCF    F94.7
....................             if(MediaMovil>1) 
0A6B0:  MOVLB  5
0A6B2:  MOVF   x90,W
0A6B4:  SUBLW  01
0A6B6:  BC    A712
....................             { 
....................                delay_ms(30);MediaMovil-=1.0;visual=1;      
0A6B8:  MOVLW  1E
0A6BA:  MOVLB  7
0A6BC:  MOVWF  x8B
0A6BE:  MOVLB  0
0A6C0:  CALL   1166
0A6C4:  MOVLB  7
0A6C6:  CLRF   x8C
0A6C8:  MOVFF  590,78B
0A6CC:  MOVLB  0
0A6CE:  CALL   1B2A
0A6D2:  BSF    FD8.1
0A6D4:  MOVFF  03,78D
0A6D8:  MOVFF  02,78C
0A6DC:  MOVFF  01,78B
0A6E0:  MOVFF  00,78A
0A6E4:  MOVLB  7
0A6E6:  CLRF   x91
0A6E8:  CLRF   x90
0A6EA:  CLRF   x8F
0A6EC:  MOVLW  7F
0A6EE:  MOVWF  x8E
0A6F0:  MOVLB  0
0A6F2:  CALL   1BDA
0A6F6:  MOVFF  03,788
0A6FA:  MOVFF  02,787
0A6FE:  MOVFF  01,786
0A702:  MOVFF  00,785
0A706:  CALL   3DCE
0A70A:  MOVFF  01,590
0A70E:  MOVLB  5
0A710:  BSF    x8B.6
....................             } 
....................          } 
....................                 
....................          if(RIGHT)//Si oprime SET 
0A712:  BSF    F96.1
0A714:  BTFSS  F84.1
0A716:  BRA    A73C
....................          {   
....................             Buzz_on;delay_ms(10);Buzz_off; 
0A718:  BSF    F8B.7
0A71A:  BCF    F94.7
0A71C:  MOVLW  0A
0A71E:  MOVLB  7
0A720:  MOVWF  x8B
0A722:  MOVLB  0
0A724:  CALL   1166
0A728:  BCF    F8B.7
0A72A:  BCF    F94.7
....................             delay_ms(30);visual=1; 
0A72C:  MOVLW  1E
0A72E:  MOVLB  7
0A730:  MOVWF  x8B
0A732:  MOVLB  0
0A734:  CALL   1166
0A738:  MOVLB  5
0A73A:  BSF    x8B.6
....................          }  
....................                    
....................          if(LEFT)//Si oprime boton de Toma. 
0A73C:  BSF    F96.2
0A73E:  BTFSS  F84.2
0A740:  BRA    A7B2
....................          { 
....................             Buzz_on;delay_ms(10);Buzz_off; 
0A742:  BSF    F8B.7
0A744:  BCF    F94.7
0A746:  MOVLW  0A
0A748:  MOVLB  7
0A74A:  MOVWF  x8B
0A74C:  MOVLB  0
0A74E:  CALL   1166
0A752:  BCF    F8B.7
0A754:  BCF    F94.7
....................             delay_ms(700);Menu=100;glcd_fillscreen(OFF);Opcion=1;visual=1; 
0A756:  MOVLW  04
0A758:  MOVLB  7
0A75A:  MOVWF  x85
0A75C:  MOVLW  AF
0A75E:  MOVWF  x8B
0A760:  MOVLB  0
0A762:  CALL   1166
0A766:  MOVLB  7
0A768:  DECFSZ x85,F
0A76A:  BRA    A75C
0A76C:  MOVLW  64
0A76E:  MOVLB  5
0A770:  MOVWF  x9E
0A772:  MOVLB  7
0A774:  CLRF   x86
0A776:  MOVLB  0
0A778:  CALL   123E
0A77C:  MOVLW  01
0A77E:  MOVLB  5
0A780:  MOVWF  xA5
0A782:  BSF    x8B.6
....................             write_eeprom(254,(int8)MediaMovil); 
0A784:  MOVF   FF2,W
0A786:  MOVWF  00
0A788:  BCF    FF2.7
0A78A:  CLRF   FAA
0A78C:  MOVLW  FE
0A78E:  MOVWF  FA9
0A790:  MOVFF  590,FA8
0A794:  BCF    FA6.6
0A796:  BCF    FA6.7
0A798:  BSF    FA6.2
0A79A:  MOVLB  F
0A79C:  MOVLW  55
0A79E:  MOVWF  FA7
0A7A0:  MOVLW  AA
0A7A2:  MOVWF  FA7
0A7A4:  BSF    FA6.1
0A7A6:  BTFSC  FA6.1
0A7A8:  BRA    A7A6
0A7AA:  BCF    FA6.2
0A7AC:  MOVF   00,W
0A7AE:  IORWF  FF2,F
0A7B0:  MOVLB  5
....................          } 
....................      } 
.................... //_-------------------------------------------------------------------------------------------------------------------------------------------------------- 
....................  
.................... //_--------------------------------------------------------------------------------------------------------------------------------------------------------       
....................       if(Menu==108){ // Menu de Ajuste de Coeficiente Regulador 
0A7B2:  MOVF   x9E,W
0A7B4:  SUBLW  6C
0A7B6:  BTFSS  FD8.2
0A7B8:  BRA    AA58
....................        
....................       if(Coeficiente>250) 
0A7BA:  MOVLB  7
0A7BC:  CLRF   x88
0A7BE:  CLRF   x87
0A7C0:  MOVLW  7A
0A7C2:  MOVWF  x86
0A7C4:  MOVLW  86
0A7C6:  MOVWF  x85
0A7C8:  MOVFF  614,78C
0A7CC:  MOVFF  613,78B
0A7D0:  MOVFF  612,78A
0A7D4:  MOVFF  611,789
0A7D8:  MOVLB  0
0A7DA:  CALL   118E
0A7DE:  BNC   A7F0
....................       { 
....................          Coeficiente=100; 
0A7E0:  MOVLB  6
0A7E2:  CLRF   x14
0A7E4:  CLRF   x13
0A7E6:  MOVLW  48
0A7E8:  MOVWF  x12
0A7EA:  MOVLW  85
0A7EC:  MOVWF  x11
0A7EE:  MOVLB  0
....................       } 
....................        
....................       if(visual==1) 
0A7F0:  MOVLB  5
0A7F2:  BTFSS  x8B.6
0A7F4:  BRA    A872
....................       { 
....................          glcd_fillScreen(OFF); 
0A7F6:  MOVLB  7
0A7F8:  CLRF   x86
0A7FA:  MOVLB  0
0A7FC:  CALL   123E
....................          strcpy(Menus.Letra,"Coeficiente"); 
0A800:  MOVLW  07
0A802:  MOVWF  FEA
0A804:  MOVLW  61
0A806:  MOVWF  FE9
0A808:  MOVLW  00
0A80A:  CALL   0FA0
0A80E:  TBLRD*-
0A810:  TBLRD*+
0A812:  MOVF   FF5,W
0A814:  MOVWF  FEE
0A816:  IORLW  00
0A818:  BNZ   A810
....................          displayMenu(Menus.Letra,0,0,1,2); 
0A81A:  MOVLW  07
0A81C:  MOVLB  7
0A81E:  MOVWF  x89
0A820:  MOVLW  61
0A822:  MOVWF  x88
0A824:  CLRF   x8A
0A826:  CLRF   x8B
0A828:  MOVLW  01
0A82A:  MOVWF  x8C
0A82C:  MOVLW  02
0A82E:  MOVWF  x8D
0A830:  MOVLB  0
0A832:  CALL   1842
....................           
....................          displayTemperatura(Coeficiente,30,30,0,3); 
0A836:  MOVFF  614,788
0A83A:  MOVFF  613,787
0A83E:  MOVFF  612,786
0A842:  MOVFF  611,785
0A846:  CALL   3DCE
0A84A:  MOVFF  02,786
0A84E:  MOVFF  01,785
0A852:  MOVFF  02,78B
0A856:  MOVFF  01,78A
0A85A:  MOVLW  1E
0A85C:  MOVLB  7
0A85E:  MOVWF  x8C
0A860:  MOVWF  x8D
0A862:  CLRF   x8E
0A864:  MOVLW  03
0A866:  MOVWF  x8F
0A868:  MOVLB  0
0A86A:  CALL   274E
....................           
....................          visual=0; 
0A86E:  MOVLB  5
0A870:  BCF    x8B.6
....................       } 
....................        
....................          if(UP)//Si oprime hacia arriba 
0A872:  BSF    F92.5
0A874:  BTFSS  F80.5
0A876:  BRA    A918
....................          {   
....................             Buzz_on;delay_ms(10);Buzz_off; 
0A878:  BSF    F8B.7
0A87A:  BCF    F94.7
0A87C:  MOVLW  0A
0A87E:  MOVLB  7
0A880:  MOVWF  x8B
0A882:  MOVLB  0
0A884:  CALL   1166
0A888:  BCF    F8B.7
0A88A:  BCF    F94.7
....................             if(Coeficiente>250) 
0A88C:  MOVLB  7
0A88E:  CLRF   x88
0A890:  CLRF   x87
0A892:  MOVLW  7A
0A894:  MOVWF  x86
0A896:  MOVLW  86
0A898:  MOVWF  x85
0A89A:  MOVFF  614,78C
0A89E:  MOVFF  613,78B
0A8A2:  MOVFF  612,78A
0A8A6:  MOVFF  611,789
0A8AA:  MOVLB  0
0A8AC:  CALL   118E
0A8B0:  BNC   A8D4
....................             { 
....................                Coeficiente=250;delay_ms(100);visual=1; 
0A8B2:  MOVLB  6
0A8B4:  CLRF   x14
0A8B6:  CLRF   x13
0A8B8:  MOVLW  7A
0A8BA:  MOVWF  x12
0A8BC:  MOVLW  86
0A8BE:  MOVWF  x11
0A8C0:  MOVLW  64
0A8C2:  MOVLB  7
0A8C4:  MOVWF  x8B
0A8C6:  MOVLB  0
0A8C8:  CALL   1166
0A8CC:  MOVLB  5
0A8CE:  BSF    x8B.6
....................             } 
0A8D0:  BRA    A918
0A8D2:  MOVLB  0
....................             else 
....................             { 
....................                delay_ms(30);Coeficiente+=1.0;visual=1; 
0A8D4:  MOVLW  1E
0A8D6:  MOVLB  7
0A8D8:  MOVWF  x8B
0A8DA:  MOVLB  0
0A8DC:  CALL   1166
0A8E0:  BCF    FD8.1
0A8E2:  MOVFF  614,78D
0A8E6:  MOVFF  613,78C
0A8EA:  MOVFF  612,78B
0A8EE:  MOVFF  611,78A
0A8F2:  MOVLB  7
0A8F4:  CLRF   x91
0A8F6:  CLRF   x90
0A8F8:  CLRF   x8F
0A8FA:  MOVLW  7F
0A8FC:  MOVWF  x8E
0A8FE:  MOVLB  0
0A900:  CALL   1BDA
0A904:  MOVFF  03,614
0A908:  MOVFF  02,613
0A90C:  MOVFF  01,612
0A910:  MOVFF  00,611
0A914:  MOVLB  5
0A916:  BSF    x8B.6
....................             } 
....................          } 
....................                 
....................          if(DOWN)//Si oprime hacia abajo 
0A918:  BSF    F96.0
0A91A:  BTFSS  F84.0
0A91C:  BRA    A99A
....................          {   
....................             Buzz_on;delay_ms(10);Buzz_off; 
0A91E:  BSF    F8B.7
0A920:  BCF    F94.7
0A922:  MOVLW  0A
0A924:  MOVLB  7
0A926:  MOVWF  x8B
0A928:  MOVLB  0
0A92A:  CALL   1166
0A92E:  BCF    F8B.7
0A930:  BCF    F94.7
....................             if(Coeficiente>1) 
0A932:  MOVLB  7
0A934:  CLRF   x88
0A936:  CLRF   x87
0A938:  CLRF   x86
0A93A:  MOVLW  7F
0A93C:  MOVWF  x85
0A93E:  MOVFF  614,78C
0A942:  MOVFF  613,78B
0A946:  MOVFF  612,78A
0A94A:  MOVFF  611,789
0A94E:  MOVLB  0
0A950:  CALL   118E
0A954:  BNC   A99C
....................             { 
....................                delay_ms(30);Coeficiente-=1.0;visual=1;      
0A956:  MOVLW  1E
0A958:  MOVLB  7
0A95A:  MOVWF  x8B
0A95C:  MOVLB  0
0A95E:  CALL   1166
0A962:  BSF    FD8.1
0A964:  MOVFF  614,78D
0A968:  MOVFF  613,78C
0A96C:  MOVFF  612,78B
0A970:  MOVFF  611,78A
0A974:  MOVLB  7
0A976:  CLRF   x91
0A978:  CLRF   x90
0A97A:  CLRF   x8F
0A97C:  MOVLW  7F
0A97E:  MOVWF  x8E
0A980:  MOVLB  0
0A982:  CALL   1BDA
0A986:  MOVFF  03,614
0A98A:  MOVFF  02,613
0A98E:  MOVFF  01,612
0A992:  MOVFF  00,611
0A996:  MOVLB  5
0A998:  BSF    x8B.6
0A99A:  MOVLB  0
....................             } 
....................          } 
....................                 
....................          if(RIGHT)//Si oprime SET 
0A99C:  BSF    F96.1
0A99E:  BTFSS  F84.1
0A9A0:  BRA    A9C8
....................          {   
....................             Buzz_on;delay_ms(10);Buzz_off; 
0A9A2:  BSF    F8B.7
0A9A4:  BCF    F94.7
0A9A6:  MOVLW  0A
0A9A8:  MOVLB  7
0A9AA:  MOVWF  x8B
0A9AC:  MOVLB  0
0A9AE:  CALL   1166
0A9B2:  BCF    F8B.7
0A9B4:  BCF    F94.7
....................             delay_ms(30);visual=1; 
0A9B6:  MOVLW  1E
0A9B8:  MOVLB  7
0A9BA:  MOVWF  x8B
0A9BC:  MOVLB  0
0A9BE:  CALL   1166
0A9C2:  MOVLB  5
0A9C4:  BSF    x8B.6
0A9C6:  MOVLB  0
....................          }  
....................                    
....................          if(LEFT)//Si oprime boton de Toma. 
0A9C8:  BSF    F96.2
0A9CA:  BTFSS  F84.2
0A9CC:  BRA    AA56
....................          { 
....................             Buzz_on;delay_ms(10);Buzz_off; 
0A9CE:  BSF    F8B.7
0A9D0:  BCF    F94.7
0A9D2:  MOVLW  0A
0A9D4:  MOVLB  7
0A9D6:  MOVWF  x8B
0A9D8:  MOVLB  0
0A9DA:  CALL   1166
0A9DE:  BCF    F8B.7
0A9E0:  BCF    F94.7
....................             delay_ms(700);Menu=100;glcd_fillscreen(OFF);Opcion=1;visual=1; 
0A9E2:  MOVLW  04
0A9E4:  MOVLB  7
0A9E6:  MOVWF  x85
0A9E8:  MOVLW  AF
0A9EA:  MOVWF  x8B
0A9EC:  MOVLB  0
0A9EE:  CALL   1166
0A9F2:  MOVLB  7
0A9F4:  DECFSZ x85,F
0A9F6:  BRA    A9E8
0A9F8:  MOVLW  64
0A9FA:  MOVLB  5
0A9FC:  MOVWF  x9E
0A9FE:  MOVLB  7
0AA00:  CLRF   x86
0AA02:  MOVLB  0
0AA04:  CALL   123E
0AA08:  MOVLW  01
0AA0A:  MOVLB  5
0AA0C:  MOVWF  xA5
0AA0E:  BSF    x8B.6
....................             write_eeprom(255,(int8)Coeficiente); 
0AA10:  MOVFF  614,788
0AA14:  MOVFF  613,787
0AA18:  MOVFF  612,786
0AA1C:  MOVFF  611,785
0AA20:  MOVLB  0
0AA22:  CALL   3DCE
0AA26:  MOVFF  01,785
0AA2A:  MOVF   FF2,W
0AA2C:  MOVWF  00
0AA2E:  BCF    FF2.7
0AA30:  CLRF   FAA
0AA32:  SETF   FA9
0AA34:  MOVFF  785,FA8
0AA38:  BCF    FA6.6
0AA3A:  BCF    FA6.7
0AA3C:  BSF    FA6.2
0AA3E:  MOVLB  F
0AA40:  MOVLW  55
0AA42:  MOVWF  FA7
0AA44:  MOVLW  AA
0AA46:  MOVWF  FA7
0AA48:  BSF    FA6.1
0AA4A:  BTFSC  FA6.1
0AA4C:  BRA    AA4A
0AA4E:  BCF    FA6.2
0AA50:  MOVF   00,W
0AA52:  IORWF  FF2,F
0AA54:  MOVLB  0
0AA56:  MOVLB  5
....................          } 
....................      } 
.................... //_-------------------------------------------------------------------------------------------------------------------------------------------------------- 
....................  
.................... //_--------------------------------------------------------------------------------------------------------------------------------------------------------       
....................       if(Menu==109){ // Menu de Alarma Sobretemperatura 
0AA58:  MOVF   x9E,W
0AA5A:  SUBLW  6D
0AA5C:  BTFSS  FD8.2
0AA5E:  BRA    AD0A
....................        
....................       if(AlTem>250) 
0AA60:  MOVLB  7
0AA62:  CLRF   x88
0AA64:  CLRF   x87
0AA66:  MOVLW  7A
0AA68:  MOVWF  x86
0AA6A:  MOVLW  86
0AA6C:  MOVWF  x85
0AA6E:  MOVFF  618,78C
0AA72:  MOVFF  617,78B
0AA76:  MOVFF  616,78A
0AA7A:  MOVFF  615,789
0AA7E:  MOVLB  0
0AA80:  CALL   118E
0AA84:  BNC   AA96
....................       { 
....................          AlTem=250; 
0AA86:  MOVLB  6
0AA88:  CLRF   x18
0AA8A:  CLRF   x17
0AA8C:  MOVLW  7A
0AA8E:  MOVWF  x16
0AA90:  MOVLW  86
0AA92:  MOVWF  x15
0AA94:  MOVLB  0
....................       } 
....................        
....................       if(visual==1) 
0AA96:  MOVLB  5
0AA98:  BTFSS  x8B.6
0AA9A:  BRA    AB18
....................       { 
....................          glcd_fillScreen(OFF); 
0AA9C:  MOVLB  7
0AA9E:  CLRF   x86
0AAA0:  MOVLB  0
0AAA2:  CALL   123E
....................          strcpy(Menus.Letra,"Alarma"); 
0AAA6:  MOVLW  07
0AAA8:  MOVWF  FEA
0AAAA:  MOVLW  61
0AAAC:  MOVWF  FE9
0AAAE:  MOVLW  00
0AAB0:  CALL   1098
0AAB4:  TBLRD*-
0AAB6:  TBLRD*+
0AAB8:  MOVF   FF5,W
0AABA:  MOVWF  FEE
0AABC:  IORLW  00
0AABE:  BNZ   AAB6
....................          displayMenu(Menus.Letra,0,0,1,2); 
0AAC0:  MOVLW  07
0AAC2:  MOVLB  7
0AAC4:  MOVWF  x89
0AAC6:  MOVLW  61
0AAC8:  MOVWF  x88
0AACA:  CLRF   x8A
0AACC:  CLRF   x8B
0AACE:  MOVLW  01
0AAD0:  MOVWF  x8C
0AAD2:  MOVLW  02
0AAD4:  MOVWF  x8D
0AAD6:  MOVLB  0
0AAD8:  CALL   1842
....................           
....................          displayTemperatura(AlTem,30,30,0,3); 
0AADC:  MOVFF  618,788
0AAE0:  MOVFF  617,787
0AAE4:  MOVFF  616,786
0AAE8:  MOVFF  615,785
0AAEC:  CALL   3DCE
0AAF0:  MOVFF  02,786
0AAF4:  MOVFF  01,785
0AAF8:  MOVFF  02,78B
0AAFC:  MOVFF  01,78A
0AB00:  MOVLW  1E
0AB02:  MOVLB  7
0AB04:  MOVWF  x8C
0AB06:  MOVWF  x8D
0AB08:  CLRF   x8E
0AB0A:  MOVLW  03
0AB0C:  MOVWF  x8F
0AB0E:  MOVLB  0
0AB10:  CALL   274E
....................           
....................          visual=0; 
0AB14:  MOVLB  5
0AB16:  BCF    x8B.6
....................       } 
....................        
....................          if(UP)//Si oprime hacia arriba 
0AB18:  BSF    F92.5
0AB1A:  BTFSS  F80.5
0AB1C:  BRA    ABBE
....................          {   
....................             Buzz_on;delay_ms(10);Buzz_off; 
0AB1E:  BSF    F8B.7
0AB20:  BCF    F94.7
0AB22:  MOVLW  0A
0AB24:  MOVLB  7
0AB26:  MOVWF  x8B
0AB28:  MOVLB  0
0AB2A:  CALL   1166
0AB2E:  BCF    F8B.7
0AB30:  BCF    F94.7
....................             if(AlTem>250) 
0AB32:  MOVLB  7
0AB34:  CLRF   x88
0AB36:  CLRF   x87
0AB38:  MOVLW  7A
0AB3A:  MOVWF  x86
0AB3C:  MOVLW  86
0AB3E:  MOVWF  x85
0AB40:  MOVFF  618,78C
0AB44:  MOVFF  617,78B
0AB48:  MOVFF  616,78A
0AB4C:  MOVFF  615,789
0AB50:  MOVLB  0
0AB52:  CALL   118E
0AB56:  BNC   AB7A
....................             { 
....................                AlTem=250;delay_ms(100);visual=1; 
0AB58:  MOVLB  6
0AB5A:  CLRF   x18
0AB5C:  CLRF   x17
0AB5E:  MOVLW  7A
0AB60:  MOVWF  x16
0AB62:  MOVLW  86
0AB64:  MOVWF  x15
0AB66:  MOVLW  64
0AB68:  MOVLB  7
0AB6A:  MOVWF  x8B
0AB6C:  MOVLB  0
0AB6E:  CALL   1166
0AB72:  MOVLB  5
0AB74:  BSF    x8B.6
....................             } 
0AB76:  BRA    ABBE
0AB78:  MOVLB  0
....................             else 
....................             { 
....................                delay_ms(30);AlTem+=1.0;visual=1; 
0AB7A:  MOVLW  1E
0AB7C:  MOVLB  7
0AB7E:  MOVWF  x8B
0AB80:  MOVLB  0
0AB82:  CALL   1166
0AB86:  BCF    FD8.1
0AB88:  MOVFF  618,78D
0AB8C:  MOVFF  617,78C
0AB90:  MOVFF  616,78B
0AB94:  MOVFF  615,78A
0AB98:  MOVLB  7
0AB9A:  CLRF   x91
0AB9C:  CLRF   x90
0AB9E:  CLRF   x8F
0ABA0:  MOVLW  7F
0ABA2:  MOVWF  x8E
0ABA4:  MOVLB  0
0ABA6:  CALL   1BDA
0ABAA:  MOVFF  03,618
0ABAE:  MOVFF  02,617
0ABB2:  MOVFF  01,616
0ABB6:  MOVFF  00,615
0ABBA:  MOVLB  5
0ABBC:  BSF    x8B.6
....................             } 
....................          } 
....................                 
....................          if(DOWN)//Si oprime hacia abajo 
0ABBE:  BSF    F96.0
0ABC0:  BTFSS  F84.0
0ABC2:  BRA    AC40
....................          {   
....................             Buzz_on;delay_ms(10);Buzz_off; 
0ABC4:  BSF    F8B.7
0ABC6:  BCF    F94.7
0ABC8:  MOVLW  0A
0ABCA:  MOVLB  7
0ABCC:  MOVWF  x8B
0ABCE:  MOVLB  0
0ABD0:  CALL   1166
0ABD4:  BCF    F8B.7
0ABD6:  BCF    F94.7
....................             if(AlTem>1) 
0ABD8:  MOVLB  7
0ABDA:  CLRF   x88
0ABDC:  CLRF   x87
0ABDE:  CLRF   x86
0ABE0:  MOVLW  7F
0ABE2:  MOVWF  x85
0ABE4:  MOVFF  618,78C
0ABE8:  MOVFF  617,78B
0ABEC:  MOVFF  616,78A
0ABF0:  MOVFF  615,789
0ABF4:  MOVLB  0
0ABF6:  CALL   118E
0ABFA:  BNC   AC42
....................             { 
....................                delay_ms(30);AlTem-=1.0;visual=1;      
0ABFC:  MOVLW  1E
0ABFE:  MOVLB  7
0AC00:  MOVWF  x8B
0AC02:  MOVLB  0
0AC04:  CALL   1166
0AC08:  BSF    FD8.1
0AC0A:  MOVFF  618,78D
0AC0E:  MOVFF  617,78C
0AC12:  MOVFF  616,78B
0AC16:  MOVFF  615,78A
0AC1A:  MOVLB  7
0AC1C:  CLRF   x91
0AC1E:  CLRF   x90
0AC20:  CLRF   x8F
0AC22:  MOVLW  7F
0AC24:  MOVWF  x8E
0AC26:  MOVLB  0
0AC28:  CALL   1BDA
0AC2C:  MOVFF  03,618
0AC30:  MOVFF  02,617
0AC34:  MOVFF  01,616
0AC38:  MOVFF  00,615
0AC3C:  MOVLB  5
0AC3E:  BSF    x8B.6
0AC40:  MOVLB  0
....................             } 
....................          } 
....................                 
....................          if(RIGHT)//Si oprime SET 
0AC42:  BSF    F96.1
0AC44:  BTFSS  F84.1
0AC46:  BRA    AC6E
....................          {   
....................             Buzz_on;delay_ms(10);Buzz_off; 
0AC48:  BSF    F8B.7
0AC4A:  BCF    F94.7
0AC4C:  MOVLW  0A
0AC4E:  MOVLB  7
0AC50:  MOVWF  x8B
0AC52:  MOVLB  0
0AC54:  CALL   1166
0AC58:  BCF    F8B.7
0AC5A:  BCF    F94.7
....................             delay_ms(30);visual=1; 
0AC5C:  MOVLW  1E
0AC5E:  MOVLB  7
0AC60:  MOVWF  x8B
0AC62:  MOVLB  0
0AC64:  CALL   1166
0AC68:  MOVLB  5
0AC6A:  BSF    x8B.6
0AC6C:  MOVLB  0
....................          }  
....................                    
....................          if(LEFT)//Si oprime boton de Toma. 
0AC6E:  BSF    F96.2
0AC70:  BTFSS  F84.2
0AC72:  BRA    AD08
....................          { 
....................             Buzz_on;delay_ms(10);Buzz_off; 
0AC74:  BSF    F8B.7
0AC76:  BCF    F94.7
0AC78:  MOVLW  0A
0AC7A:  MOVLB  7
0AC7C:  MOVWF  x8B
0AC7E:  MOVLB  0
0AC80:  CALL   1166
0AC84:  BCF    F8B.7
0AC86:  BCF    F94.7
....................             delay_ms(700);Menu=100;glcd_fillscreen(OFF);Opcion=1;visual=1; 
0AC88:  MOVLW  04
0AC8A:  MOVLB  7
0AC8C:  MOVWF  x85
0AC8E:  MOVLW  AF
0AC90:  MOVWF  x8B
0AC92:  MOVLB  0
0AC94:  CALL   1166
0AC98:  MOVLB  7
0AC9A:  DECFSZ x85,F
0AC9C:  BRA    AC8E
0AC9E:  MOVLW  64
0ACA0:  MOVLB  5
0ACA2:  MOVWF  x9E
0ACA4:  MOVLB  7
0ACA6:  CLRF   x86
0ACA8:  MOVLB  0
0ACAA:  CALL   123E
0ACAE:  MOVLW  01
0ACB0:  MOVLB  5
0ACB2:  MOVWF  xA5
0ACB4:  BSF    x8B.6
....................             write_eeprom(256,(int8)AlTem); 
0ACB6:  MOVFF  618,788
0ACBA:  MOVFF  617,787
0ACBE:  MOVFF  616,786
0ACC2:  MOVFF  615,785
0ACC6:  MOVLB  0
0ACC8:  CALL   3DCE
0ACCC:  MOVFF  01,785
0ACD0:  MOVF   FF2,W
0ACD2:  MOVWF  00
0ACD4:  BCF    FF2.7
0ACD6:  MOVLW  01
0ACD8:  MOVWF  FAA
0ACDA:  CLRF   FA9
0ACDC:  MOVFF  785,FA8
0ACE0:  BCF    FA6.6
0ACE2:  BCF    FA6.7
0ACE4:  BSF    FA6.2
0ACE6:  MOVLB  F
0ACE8:  MOVLW  55
0ACEA:  MOVWF  FA7
0ACEC:  MOVLW  AA
0ACEE:  MOVWF  FA7
0ACF0:  BSF    FA6.1
0ACF2:  BTFSC  FA6.1
0ACF4:  BRA    ACF2
0ACF6:  BCF    FA6.2
0ACF8:  MOVF   00,W
0ACFA:  IORWF  FF2,F
....................             delay_ms(10); 
0ACFC:  MOVLW  0A
0ACFE:  MOVLB  7
0AD00:  MOVWF  x8B
0AD02:  MOVLB  0
0AD04:  CALL   1166
0AD08:  MOVLB  5
....................          } 
....................      } 
.................... //_-------------------------------------------------------------------------------------------------------------------------------------------------------- 
....................  
....................       if(Lectura2==1) 
0AD0A:  DECFSZ x93,W
0AD0C:  BRA    AD2C
....................       { 
....................          Temperatura=Leer_Sensor(MediaMovil); 
0AD0E:  MOVFF  590,785
0AD12:  MOVLB  0
0AD14:  CALL   20A6
0AD18:  MOVFF  03,620
0AD1C:  MOVFF  02,61F
0AD20:  MOVFF  01,61E
0AD24:  MOVFF  00,61D
....................          Lectura2=0; 
0AD28:  MOVLB  5
0AD2A:  CLRF   x93
....................       }  
....................  
....................       if(tiemporeset>=60) 
0AD2C:  MOVF   x9B,W
0AD2E:  SUBLW  3B
0AD30:  BC    AD46
....................       { 
....................          if(Menu!=0){ 
0AD32:  MOVF   x9E,F
0AD34:  BZ    AD46
....................             glcd_init(ON); 
0AD36:  MOVLW  01
0AD38:  MOVLB  7
0AD3A:  MOVWF  x85
0AD3C:  MOVLB  0
0AD3E:  CALL   1348
....................             tiemporeset=0; 
0AD42:  MOVLB  5
0AD44:  CLRF   x9B
....................          } 
....................       }  
0AD46:  GOTO   5376
....................  
....................  
....................    } 
.................... } 
0AD4A:  SLEEP 

Configuration Fuses:
   Word  1: 0200   HS NOFCMEN NOIESO
   Word  2: 1E1F   NOPUT BROWNOUT BORV21 NOWDT WDT32768
   Word  3: 0000   NOPBADEN NOLPT1OSC NOMCLR
   Word  4: 00B0   NOSTVREN NOLVP NOXINST NODEBUG
   Word  5: C03F   NOPROTECT NOCPB NOCPD
   Word  6: E03F   NOWRT NOWRTC NOWRTB NOWRTD
   Word  7: 403F   NOEBTR NOEBTRB
