ARM GAS  C:\Users\USUARIO\AppData\Local\Temp\cccXDrki.s 			page 1


   1              		.syntax unified
   2              		.cpu cortex-m3
   3              		.fpu softvfp
   4              		.eabi_attribute 20, 1
   5              		.eabi_attribute 21, 1
   6              		.eabi_attribute 23, 3
   7              		.eabi_attribute 24, 1
   8              		.eabi_attribute 25, 1
   9              		.eabi_attribute 26, 1
  10              		.eabi_attribute 30, 1
  11              		.eabi_attribute 34, 1
  12              		.eabi_attribute 18, 4
  13              		.thumb
  14              		.syntax unified
  15              		.file	"Funciones.c"
  16              		.text
  17              	.Ltext0:
  18              		.cfi_sections	.debug_frame
  19              		.global	__aeabi_f2uiz
  20              		.global	__aeabi_ui2f
  21              		.global	__aeabi_fsub
  22              		.global	__aeabi_fmul
  23              		.section	.text.extraeDecimal,"ax",%progbits
  24              		.align	2
  25              		.global	extraeDecimal
  26              		.thumb
  27              		.thumb_func
  28              		.type	extraeDecimal, %function
  29              	extraeDecimal:
  30              	.LFB64:
  31              		.file 1 "Funciones.c"
   1:Funciones.c   **** /* ========================================
   2:Funciones.c   ****  *
   3:Funciones.c   ****  * Copyright YOUR COMPANY, THE YEAR
   4:Funciones.c   ****  * All Rights Reserved
   5:Funciones.c   ****  * UNPUBLISHED, LICENSED SOFTWARE.
   6:Funciones.c   ****  *
   7:Funciones.c   ****  * CONFIDENTIAL AND PROPRIETARY INFORMATION
   8:Funciones.c   ****  * WHICH IS THE PROPERTY OF your company.
   9:Funciones.c   ****  *
  10:Funciones.c   ****  * ========================================
  11:Funciones.c   **** */
  12:Funciones.c   **** 
  13:Funciones.c   **** #include <Funciones.h>
  14:Funciones.c   **** #include <ks0108.h>
  15:Funciones.c   **** #include <main.h>
  16:Funciones.c   **** 
  17:Funciones.c   **** 
  18:Funciones.c   **** uint8 extraeDecimal(float data){
  32              		.loc 1 18 0
  33              		.cfi_startproc
  34              		@ args = 0, pretend = 0, frame = 0
  35              		@ frame_needed = 0, uses_anonymous_args = 0
  36              	.LVL0:
  37 0000 10B5     		push	{r4, lr}
  38              		.cfi_def_cfa_offset 8
  39              		.cfi_offset 4, -8
ARM GAS  C:\Users\USUARIO\AppData\Local\Temp\cccXDrki.s 			page 2


  40              		.cfi_offset 14, -4
  41 0002 0446     		mov	r4, r0
  42              	.LVL1:
  19:Funciones.c   ****    float entero=0;
  20:Funciones.c   ****    float tmp=0.0;
  21:Funciones.c   ****    
  22:Funciones.c   ****    entero=(uint8)data;
  43              		.loc 1 22 0
  44 0004 FFF7FEFF 		bl	__aeabi_f2uiz
  45              	.LVL2:
  46 0008 C0B2     		uxtb	r0, r0
  47 000a FFF7FEFF 		bl	__aeabi_ui2f
  48              	.LVL3:
  23:Funciones.c   ****    tmp=(data-entero)*100;
  49              		.loc 1 23 0
  50 000e 0146     		mov	r1, r0
  51 0010 2046     		mov	r0, r4
  52              	.LVL4:
  53 0012 FFF7FEFF 		bl	__aeabi_fsub
  54              	.LVL5:
  55 0016 0349     		ldr	r1, .L3
  56 0018 FFF7FEFF 		bl	__aeabi_fmul
  57              	.LVL6:
  24:Funciones.c   ****    return (uint8)tmp;
  58              		.loc 1 24 0
  59 001c FFF7FEFF 		bl	__aeabi_f2uiz
  60              	.LVL7:
  25:Funciones.c   **** }
  61              		.loc 1 25 0
  62 0020 C0B2     		uxtb	r0, r0
  63 0022 10BD     		pop	{r4, pc}
  64              	.LVL8:
  65              	.L4:
  66              		.align	2
  67              	.L3:
  68 0024 0000C842 		.word	1120403456
  69              		.cfi_endproc
  70              	.LFE64:
  71              		.size	extraeDecimal, .-extraeDecimal
  72              		.global	__aeabi_fdiv
  73              		.section	.text.inttofloat,"ax",%progbits
  74              		.align	2
  75              		.global	inttofloat
  76              		.thumb
  77              		.thumb_func
  78              		.type	inttofloat, %function
  79              	inttofloat:
  80              	.LFB65:
  26:Funciones.c   **** 
  27:Funciones.c   **** float inttofloat(uint8 decimal){
  81              		.loc 1 27 0
  82              		.cfi_startproc
  83              		@ args = 0, pretend = 0, frame = 0
  84              		@ frame_needed = 0, uses_anonymous_args = 0
  85              	.LVL9:
  86 0000 08B5     		push	{r3, lr}
  87              		.cfi_def_cfa_offset 8
ARM GAS  C:\Users\USUARIO\AppData\Local\Temp\cccXDrki.s 			page 3


  88              		.cfi_offset 3, -8
  89              		.cfi_offset 14, -4
  28:Funciones.c   ****    float tmp;
  29:Funciones.c   ****    tmp=decimal;
  90              		.loc 1 29 0
  91 0002 FFF7FEFF 		bl	__aeabi_ui2f
  92              	.LVL10:
  30:Funciones.c   ****    return tmp/10;
  93              		.loc 1 30 0
  94 0006 0249     		ldr	r1, .L7
  95 0008 FFF7FEFF 		bl	__aeabi_fdiv
  96              	.LVL11:
  31:Funciones.c   **** }
  97              		.loc 1 31 0
  98 000c 08BD     		pop	{r3, pc}
  99              	.L8:
 100 000e 00BF     		.align	2
 101              	.L7:
 102 0010 00002041 		.word	1092616192
 103              		.cfi_endproc
 104              	.LFE65:
 105              		.size	inttofloat, .-inttofloat
 106              		.section	.text.convert8,"ax",%progbits
 107              		.align	2
 108              		.global	convert8
 109              		.thumb
 110              		.thumb_func
 111              		.type	convert8, %function
 112              	convert8:
 113              	.LFB66:
  32:Funciones.c   **** 
  33:Funciones.c   **** uint8 convert8(uint16 data,uint8 nible){
 114              		.loc 1 33 0
 115              		.cfi_startproc
 116              		@ args = 0, pretend = 0, frame = 0
 117              		@ frame_needed = 0, uses_anonymous_args = 0
 118              		@ link register save eliminated.
 119              	.LVL12:
  34:Funciones.c   ****     uint8 dato=0;
  35:Funciones.c   ****     if(nible==0){
 120              		.loc 1 35 0
 121 0000 09B9     		cbnz	r1, .L10
  36:Funciones.c   ****         dato=(uint8)data;   
 122              		.loc 1 36 0
 123 0002 C0B2     		uxtb	r0, r0
 124              	.LVL13:
 125 0004 7047     		bx	lr
 126              	.LVL14:
 127              	.L10:
  37:Funciones.c   ****     }else if(nible==1){
 128              		.loc 1 37 0
 129 0006 0129     		cmp	r1, #1
 130 0008 01D1     		bne	.L12
  38:Funciones.c   ****         dato=data>>8;
 131              		.loc 1 38 0
 132 000a 000A     		lsrs	r0, r0, #8
 133              	.LVL15:
ARM GAS  C:\Users\USUARIO\AppData\Local\Temp\cccXDrki.s 			page 4


 134 000c 7047     		bx	lr
 135              	.LVL16:
 136              	.L12:
  34:Funciones.c   ****     if(nible==0){
 137              		.loc 1 34 0
 138 000e 0020     		movs	r0, #0
 139              	.LVL17:
  39:Funciones.c   ****     }
  40:Funciones.c   ****     return dato;
  41:Funciones.c   **** }
 140              		.loc 1 41 0
 141 0010 7047     		bx	lr
 142              		.cfi_endproc
 143              	.LFE66:
 144              		.size	convert8, .-convert8
 145 0012 00BF     		.section	.text.convert16,"ax",%progbits
 146              		.align	2
 147              		.global	convert16
 148              		.thumb
 149              		.thumb_func
 150              		.type	convert16, %function
 151              	convert16:
 152              	.LFB67:
  42:Funciones.c   **** 
  43:Funciones.c   **** uint16 convert16(uint8 nibleh,uint8 niblel){
 153              		.loc 1 43 0
 154              		.cfi_startproc
 155              		@ args = 0, pretend = 0, frame = 0
 156              		@ frame_needed = 0, uses_anonymous_args = 0
 157              		@ link register save eliminated.
 158              	.LVL18:
  44:Funciones.c   ****     uint16 temp,var;
  45:Funciones.c   ****     temp=(uint16)nibleh;
  46:Funciones.c   ****     var=temp<<8 | (uint16)niblel;
  47:Funciones.c   ****     return var;
  48:Funciones.c   **** }
 159              		.loc 1 48 0
 160 0000 41EA0020 		orr	r0, r1, r0, lsl #8
 161              	.LVL19:
 162 0004 7047     		bx	lr
 163              		.cfi_endproc
 164              	.LFE67:
 165              		.size	convert16, .-convert16
 166              		.global	__aeabi_fcmpgt
 167              		.global	__aeabi_fcmpeq
 168              		.global	__aeabi_fcmplt
 169              		.global	__aeabi_i2f
 170              		.global	__aeabi_fadd
 171              		.global	__aeabi_f2d
 172              		.global	__aeabi_dcmplt
 173 0006 00BF     		.section	.text.leeEEPROM,"ax",%progbits
 174              		.align	2
 175              		.global	leeEEPROM
 176              		.thumb
 177              		.thumb_func
 178              		.type	leeEEPROM, %function
 179              	leeEEPROM:
ARM GAS  C:\Users\USUARIO\AppData\Local\Temp\cccXDrki.s 			page 5


 180              	.LFB68:
  49:Funciones.c   **** 
  50:Funciones.c   **** void leeEEPROM(){ 
 181              		.loc 1 50 0
 182              		.cfi_startproc
 183              		@ args = 0, pretend = 0, frame = 0
 184              		@ frame_needed = 0, uses_anonymous_args = 0
 185 0000 2DE9F047 		push	{r4, r5, r6, r7, r8, r9, r10, lr}
 186              		.cfi_def_cfa_offset 32
 187              		.cfi_offset 4, -32
 188              		.cfi_offset 5, -28
 189              		.cfi_offset 6, -24
 190              		.cfi_offset 7, -20
 191              		.cfi_offset 8, -16
 192              		.cfi_offset 9, -12
 193              		.cfi_offset 10, -8
 194              		.cfi_offset 14, -4
 195              	.LVL20:
  51:Funciones.c   ****     uint8 j;
  52:Funciones.c   ****    for(j=1;j<6;j++){
 196              		.loc 1 52 0
 197 0004 4FF00108 		mov	r8, #1
 198 0008 96E0     		b	.L15
 199              	.LVL21:
 200              	.L21:
  53:Funciones.c   ****       for(i=0;i<Pasos;i++){
 201              		.loc 1 53 0
 202 000a 0022     		movs	r2, #0
 203 000c 014B     		ldr	r3, .L60
 204 000e 1A70     		strb	r2, [r3]
 205 0010 89E0     		b	.L16
 206              	.L61:
 207 0012 00BF     		.align	2
 208              	.L60:
 209 0014 00000000 		.word	i
 210              	.L20:
  54:Funciones.c   ****          CyDelay(10); 
 211              		.loc 1 54 0
 212 0018 0A20     		movs	r0, #10
 213 001a FFF7FEFF 		bl	CyDelay
 214              	.LVL22:
  55:Funciones.c   ****          Temperatura1[i+((j-1)*Pasos)]=convert16(EEPROM_ReadByte((i*2)+1+((j-1)*(Pasos*4))),EEPROM_
 215              		.loc 1 55 0
 216 001e C94F     		ldr	r7, .L62
 217 0020 3878     		ldrb	r0, [r7]	@ zero_extendqisi2
 218 0022 08F1FF35 		add	r5, r8, #-1
 219 0026 2C01     		lsls	r4, r5, #4
 220 0028 00EB0409 		add	r9, r0, r4
 221 002c 6E01     		lsls	r6, r5, #5
 222 002e B6B2     		uxth	r6, r6
 223 0030 3044     		add	r0, r0, r6
 224 0032 4000     		lsls	r0, r0, #1
 225 0034 0130     		adds	r0, r0, #1
 226 0036 80B2     		uxth	r0, r0
 227 0038 FFF7FEFF 		bl	EEPROM_ReadByte
 228              	.LVL23:
 229 003c 8246     		mov	r10, r0
ARM GAS  C:\Users\USUARIO\AppData\Local\Temp\cccXDrki.s 			page 6


 230 003e 6D01     		lsls	r5, r5, #5
 231 0040 3878     		ldrb	r0, [r7]	@ zero_extendqisi2
 232 0042 2844     		add	r0, r0, r5
 233 0044 4000     		lsls	r0, r0, #1
 234 0046 80B2     		uxth	r0, r0
 235 0048 FFF7FEFF 		bl	EEPROM_ReadByte
 236              	.LVL24:
 237 004c 0146     		mov	r1, r0
 238 004e 5046     		mov	r0, r10
 239 0050 FFF7FEFF 		bl	convert16
 240              	.LVL25:
 241 0054 BC4B     		ldr	r3, .L62+4
 242 0056 23F81900 		strh	r0, [r3, r9, lsl #1]	@ movhi
  56:Funciones.c   ****          if(Temperatura1[i+((j-1)*Pasos)]>1200 || Temperatura1[i+((j-1)*Pasos)]<0){
 243              		.loc 1 56 0
 244 005a 3978     		ldrb	r1, [r7]	@ zero_extendqisi2
 245 005c 0A19     		adds	r2, r1, r4
 246 005e 33F81230 		ldrh	r3, [r3, r2, lsl #1]
 247 0062 B3F5966F 		cmp	r3, #1200
 248 0066 18D9     		bls	.L17
  57:Funciones.c   ****             Temperatura1[i+((j-1)*Pasos)]=0;
 249              		.loc 1 57 0
 250 0068 0027     		movs	r7, #0
 251 006a B74B     		ldr	r3, .L62+4
 252 006c 23F81270 		strh	r7, [r3, r2, lsl #1]	@ movhi
  58:Funciones.c   ****             EEPROM_WriteByte(0,(i*2)+1+((j-1)*(Pasos*4)));
 253              		.loc 1 58 0
 254 0070 3144     		add	r1, r1, r6
 255 0072 4900     		lsls	r1, r1, #1
 256 0074 0131     		adds	r1, r1, #1
 257 0076 89B2     		uxth	r1, r1
 258 0078 3846     		mov	r0, r7
 259 007a FFF7FEFF 		bl	EEPROM_WriteByte
 260              	.LVL26:
  59:Funciones.c   ****             CyDelay(20);
 261              		.loc 1 59 0
 262 007e 1420     		movs	r0, #20
 263 0080 FFF7FEFF 		bl	CyDelay
 264              	.LVL27:
  60:Funciones.c   ****             EEPROM_WriteByte(0,(i*2)+((j-1)*(Pasos*4)));
 265              		.loc 1 60 0
 266 0084 AF4B     		ldr	r3, .L62
 267 0086 1978     		ldrb	r1, [r3]	@ zero_extendqisi2
 268 0088 2944     		add	r1, r1, r5
 269 008a 4900     		lsls	r1, r1, #1
 270 008c 89B2     		uxth	r1, r1
 271 008e 3846     		mov	r0, r7
 272 0090 FFF7FEFF 		bl	EEPROM_WriteByte
 273              	.LVL28:
  61:Funciones.c   ****             CyDelay(20);
 274              		.loc 1 61 0
 275 0094 1420     		movs	r0, #20
 276 0096 FFF7FEFF 		bl	CyDelay
 277              	.LVL29:
 278              	.L17:
  62:Funciones.c   ****          }
  63:Funciones.c   ****          CyDelay(10);
ARM GAS  C:\Users\USUARIO\AppData\Local\Temp\cccXDrki.s 			page 7


 279              		.loc 1 63 0
 280 009a 0A20     		movs	r0, #10
 281 009c FFF7FEFF 		bl	CyDelay
 282              	.LVL30:
  64:Funciones.c   ****          Horas1[i+((j-1)*Pasos)]=EEPROM_ReadByte(i+(((Pasos*4)*j)-(Pasos*2)));     
 283              		.loc 1 64 0
 284 00a0 A84E     		ldr	r6, .L62
 285 00a2 3078     		ldrb	r0, [r6]	@ zero_extendqisi2
 286 00a4 0719     		adds	r7, r0, r4
 287 00a6 4FEA8815 		lsl	r5, r8, #6
 288 00aa 2844     		add	r0, r0, r5
 289 00ac 2038     		subs	r0, r0, #32
 290 00ae 80B2     		uxth	r0, r0
 291 00b0 FFF7FEFF 		bl	EEPROM_ReadByte
 292              	.LVL31:
 293 00b4 A54B     		ldr	r3, .L62+8
 294 00b6 23F81700 		strh	r0, [r3, r7, lsl #1]	@ movhi
  65:Funciones.c   ****          if(Horas1[i+((j-1)*Pasos)]>99){
 295              		.loc 1 65 0
 296 00ba 3178     		ldrb	r1, [r6]	@ zero_extendqisi2
 297 00bc 0A19     		adds	r2, r1, r4
 298 00be 33F91230 		ldrsh	r3, [r3, r2, lsl #1]
 299 00c2 632B     		cmp	r3, #99
 300 00c4 0BDD     		ble	.L18
  66:Funciones.c   ****             Horas1[i+((j-1)*Pasos)]=0;
 301              		.loc 1 66 0
 302 00c6 0020     		movs	r0, #0
 303 00c8 A04B     		ldr	r3, .L62+8
 304 00ca 23F81200 		strh	r0, [r3, r2, lsl #1]	@ movhi
  67:Funciones.c   ****             EEPROM_WriteByte(0,i+(((Pasos*4)*j)-(Pasos*2)));
 305              		.loc 1 67 0
 306 00ce 2944     		add	r1, r1, r5
 307 00d0 2039     		subs	r1, r1, #32
 308 00d2 89B2     		uxth	r1, r1
 309 00d4 FFF7FEFF 		bl	EEPROM_WriteByte
 310              	.LVL32:
  68:Funciones.c   ****             CyDelay(20);
 311              		.loc 1 68 0
 312 00d8 1420     		movs	r0, #20
 313 00da FFF7FEFF 		bl	CyDelay
 314              	.LVL33:
 315              	.L18:
  69:Funciones.c   ****          }
  70:Funciones.c   ****          CyDelay(10);    
 316              		.loc 1 70 0
 317 00de 0A20     		movs	r0, #10
 318 00e0 FFF7FEFF 		bl	CyDelay
 319              	.LVL34:
  71:Funciones.c   ****          Minutos1[i+((j-1)*Pasos)]=EEPROM_ReadByte(i+(((Pasos*4)*j)-Pasos));
 320              		.loc 1 71 0
 321 00e4 974E     		ldr	r6, .L62
 322 00e6 3078     		ldrb	r0, [r6]	@ zero_extendqisi2
 323 00e8 0719     		adds	r7, r0, r4
 324 00ea 2844     		add	r0, r0, r5
 325 00ec 1038     		subs	r0, r0, #16
 326 00ee 80B2     		uxth	r0, r0
 327 00f0 FFF7FEFF 		bl	EEPROM_ReadByte
ARM GAS  C:\Users\USUARIO\AppData\Local\Temp\cccXDrki.s 			page 8


 328              	.LVL35:
 329 00f4 964B     		ldr	r3, .L62+12
 330 00f6 23F81700 		strh	r0, [r3, r7, lsl #1]	@ movhi
  72:Funciones.c   ****          if(Minutos1[i+((j-1)*Pasos)]>59){
 331              		.loc 1 72 0
 332 00fa 3178     		ldrb	r1, [r6]	@ zero_extendqisi2
 333 00fc 0C44     		add	r4, r4, r1
 334 00fe 33F91430 		ldrsh	r3, [r3, r4, lsl #1]
 335 0102 3B2B     		cmp	r3, #59
 336 0104 0BDD     		ble	.L19
  73:Funciones.c   ****             Minutos1[i+((j-1)*Pasos)]=0;
 337              		.loc 1 73 0
 338 0106 0020     		movs	r0, #0
 339 0108 914B     		ldr	r3, .L62+12
 340 010a 23F81400 		strh	r0, [r3, r4, lsl #1]	@ movhi
  74:Funciones.c   ****             EEPROM_WriteByte(0,i+(((Pasos*4)*j)-Pasos));
 341              		.loc 1 74 0
 342 010e 2944     		add	r1, r1, r5
 343 0110 1039     		subs	r1, r1, #16
 344 0112 89B2     		uxth	r1, r1
 345 0114 FFF7FEFF 		bl	EEPROM_WriteByte
 346              	.LVL36:
  75:Funciones.c   ****             CyDelay(20);
 347              		.loc 1 75 0
 348 0118 1420     		movs	r0, #20
 349 011a FFF7FEFF 		bl	CyDelay
 350              	.LVL37:
 351              	.L19:
  53:Funciones.c   ****          CyDelay(10); 
 352              		.loc 1 53 0 discriminator 2
 353 011e 894A     		ldr	r2, .L62
 354 0120 1378     		ldrb	r3, [r2]	@ zero_extendqisi2
 355 0122 0133     		adds	r3, r3, #1
 356 0124 1370     		strb	r3, [r2]
 357              	.L16:
  53:Funciones.c   ****          CyDelay(10); 
 358              		.loc 1 53 0 is_stmt 0 discriminator 1
 359 0126 874B     		ldr	r3, .L62
 360 0128 1B78     		ldrb	r3, [r3]	@ zero_extendqisi2
 361 012a 0F2B     		cmp	r3, #15
 362 012c 7FF674AF 		bls	.L20
  52:Funciones.c   ****       for(i=0;i<Pasos;i++){
 363              		.loc 1 52 0 is_stmt 1 discriminator 2
 364 0130 08F10108 		add	r8, r8, #1
 365              	.LVL38:
 366 0134 5FFA88F8 		uxtb	r8, r8
 367              	.LVL39:
 368              	.L15:
  52:Funciones.c   ****       for(i=0;i<Pasos;i++){
 369              		.loc 1 52 0 is_stmt 0 discriminator 1
 370 0138 B8F1050F 		cmp	r8, #5
 371 013c 7FF665AF 		bls	.L21
  76:Funciones.c   ****          }
  77:Funciones.c   ****       }
  78:Funciones.c   ****    }
  79:Funciones.c   ****    
  80:Funciones.c   ****    CyDelay(50);   
ARM GAS  C:\Users\USUARIO\AppData\Local\Temp\cccXDrki.s 			page 9


 372              		.loc 1 80 0 is_stmt 1
 373 0140 3220     		movs	r0, #50
 374 0142 FFF7FEFF 		bl	CyDelay
 375              	.LVL40:
  81:Funciones.c   ****    Ganancia=EEPROM_ReadByte(450);
 376              		.loc 1 81 0
 377 0146 4FF4E170 		mov	r0, #450
 378 014a FFF7FEFF 		bl	EEPROM_ReadByte
 379              	.LVL41:
 380 014e 814C     		ldr	r4, .L62+16
 381 0150 FFF7FEFF 		bl	__aeabi_ui2f
 382              	.LVL42:
 383 0154 2060     		str	r0, [r4]	@ float
  82:Funciones.c   ****    CyDelay(50);   
 384              		.loc 1 82 0
 385 0156 3220     		movs	r0, #50
 386 0158 FFF7FEFF 		bl	CyDelay
 387              	.LVL43:
  83:Funciones.c   ****    if(Ganancia>40 || Ganancia==0){
 388              		.loc 1 83 0
 389 015c 2468     		ldr	r4, [r4]	@ float
 390 015e 7E49     		ldr	r1, .L62+20
 391 0160 2046     		mov	r0, r4
 392 0162 FFF7FEFF 		bl	__aeabi_fcmpgt
 393              	.LVL44:
 394 0166 20B9     		cbnz	r0, .L22
 395              		.loc 1 83 0 is_stmt 0 discriminator 1
 396 0168 0021     		movs	r1, #0
 397 016a 2046     		mov	r0, r4
 398 016c FFF7FEFF 		bl	__aeabi_fcmpeq
 399              	.LVL45:
 400 0170 50B1     		cbz	r0, .L23
 401              	.L22:
  84:Funciones.c   ****       Ganancia=3;
 402              		.loc 1 84 0 is_stmt 1
 403 0172 7A4A     		ldr	r2, .L62+24
 404 0174 774B     		ldr	r3, .L62+16
 405 0176 1A60     		str	r2, [r3]	@ float
  85:Funciones.c   ****       EEPROM_WriteByte(3,450);
 406              		.loc 1 85 0
 407 0178 4FF4E171 		mov	r1, #450
 408 017c 0320     		movs	r0, #3
 409 017e FFF7FEFF 		bl	EEPROM_WriteByte
 410              	.LVL46:
  86:Funciones.c   ****       CyDelay(20);
 411              		.loc 1 86 0
 412 0182 1420     		movs	r0, #20
 413 0184 FFF7FEFF 		bl	CyDelay
 414              	.LVL47:
 415              	.L23:
  87:Funciones.c   ****    }
  88:Funciones.c   ****    GananciaIn=Ganancia;
 416              		.loc 1 88 0
 417 0188 724B     		ldr	r3, .L62+16
 418 018a 1A68     		ldr	r2, [r3]	@ float
 419 018c 744B     		ldr	r3, .L62+28
 420 018e 1A60     		str	r2, [r3]	@ float
ARM GAS  C:\Users\USUARIO\AppData\Local\Temp\cccXDrki.s 			page 10


  89:Funciones.c   ****    Tciclo=EEPROM_ReadByte(451);
 421              		.loc 1 89 0
 422 0190 40F2C310 		movw	r0, #451
 423 0194 FFF7FEFF 		bl	EEPROM_ReadByte
 424              	.LVL48:
 425 0198 724C     		ldr	r4, .L62+32
 426 019a 2070     		strb	r0, [r4]
  90:Funciones.c   ****    CyDelay(50);   
 427              		.loc 1 90 0
 428 019c 3220     		movs	r0, #50
 429 019e FFF7FEFF 		bl	CyDelay
 430              	.LVL49:
  91:Funciones.c   ****    if(Tciclo>20 || Tciclo<5){
 431              		.loc 1 91 0
 432 01a2 2378     		ldrb	r3, [r4]	@ zero_extendqisi2
 433 01a4 053B     		subs	r3, r3, #5
 434 01a6 DBB2     		uxtb	r3, r3
 435 01a8 0F2B     		cmp	r3, #15
 436 01aa 08D9     		bls	.L25
  92:Funciones.c   ****       Tciclo=10;
 437              		.loc 1 92 0
 438 01ac 0A20     		movs	r0, #10
 439 01ae 2070     		strb	r0, [r4]
  93:Funciones.c   ****       EEPROM_WriteByte(10,451);
 440              		.loc 1 93 0
 441 01b0 40F2C311 		movw	r1, #451
 442 01b4 FFF7FEFF 		bl	EEPROM_WriteByte
 443              	.LVL50:
  94:Funciones.c   ****       CyDelay(20);
 444              		.loc 1 94 0
 445 01b8 1420     		movs	r0, #20
 446 01ba FFF7FEFF 		bl	CyDelay
 447              	.LVL51:
 448              	.L25:
  95:Funciones.c   ****    }
  96:Funciones.c   ****    Ajuste=EEPROM_ReadByte(452);
 449              		.loc 1 96 0
 450 01be 4FF4E270 		mov	r0, #452
 451 01c2 FFF7FEFF 		bl	EEPROM_ReadByte
 452              	.LVL52:
 453 01c6 684C     		ldr	r4, .L62+36
 454 01c8 2070     		strb	r0, [r4]
  97:Funciones.c   ****    CyDelay(50);
 455              		.loc 1 97 0
 456 01ca 3220     		movs	r0, #50
 457 01cc FFF7FEFF 		bl	CyDelay
 458              	.LVL53:
  98:Funciones.c   ****    if(Ajuste>30){
 459              		.loc 1 98 0
 460 01d0 2378     		ldrb	r3, [r4]	@ zero_extendqisi2
 461 01d2 1E2B     		cmp	r3, #30
 462 01d4 08D9     		bls	.L26
  99:Funciones.c   ****       Ajuste=0;
 463              		.loc 1 99 0
 464 01d6 0020     		movs	r0, #0
 465 01d8 2070     		strb	r0, [r4]
 100:Funciones.c   ****       EEPROM_WriteByte(0,452);
ARM GAS  C:\Users\USUARIO\AppData\Local\Temp\cccXDrki.s 			page 11


 466              		.loc 1 100 0
 467 01da 4FF4E271 		mov	r1, #452
 468 01de FFF7FEFF 		bl	EEPROM_WriteByte
 469              	.LVL54:
 101:Funciones.c   ****       CyDelay(20);
 470              		.loc 1 101 0
 471 01e2 1420     		movs	r0, #20
 472 01e4 FFF7FEFF 		bl	CyDelay
 473              	.LVL55:
 474              	.L26:
 102:Funciones.c   ****    }
 103:Funciones.c   ****    Ajusten=EEPROM_ReadByte(453);
 475              		.loc 1 103 0
 476 01e8 40F2C510 		movw	r0, #453
 477 01ec FFF7FEFF 		bl	EEPROM_ReadByte
 478              	.LVL56:
 479 01f0 5E4C     		ldr	r4, .L62+40
 480 01f2 2070     		strb	r0, [r4]
 104:Funciones.c   ****    CyDelay(50);
 481              		.loc 1 104 0
 482 01f4 3220     		movs	r0, #50
 483 01f6 FFF7FEFF 		bl	CyDelay
 484              	.LVL57:
 105:Funciones.c   ****    if(Ajusten>30){
 485              		.loc 1 105 0
 486 01fa 2378     		ldrb	r3, [r4]	@ zero_extendqisi2
 487 01fc 1E2B     		cmp	r3, #30
 488 01fe 08D9     		bls	.L27
 106:Funciones.c   ****       Ajusten=0;
 489              		.loc 1 106 0
 490 0200 0020     		movs	r0, #0
 491 0202 2070     		strb	r0, [r4]
 107:Funciones.c   ****       EEPROM_WriteByte(0,453);
 492              		.loc 1 107 0
 493 0204 40F2C511 		movw	r1, #453
 494 0208 FFF7FEFF 		bl	EEPROM_WriteByte
 495              	.LVL58:
 108:Funciones.c   ****       CyDelay(20);
 496              		.loc 1 108 0
 497 020c 1420     		movs	r0, #20
 498 020e FFF7FEFF 		bl	CyDelay
 499              	.LVL59:
 500              	.L27:
 109:Funciones.c   ****    }
 110:Funciones.c   ****    MediaMovil=EEPROM_ReadByte(454);
 501              		.loc 1 110 0
 502 0212 4FF4E370 		mov	r0, #454
 503 0216 FFF7FEFF 		bl	EEPROM_ReadByte
 504              	.LVL60:
 505 021a 554C     		ldr	r4, .L62+44
 506 021c 2070     		strb	r0, [r4]
 111:Funciones.c   ****    CyDelay(50);   
 507              		.loc 1 111 0
 508 021e 3220     		movs	r0, #50
 509 0220 FFF7FEFF 		bl	CyDelay
 510              	.LVL61:
 112:Funciones.c   ****    if(MediaMovil>80 || MediaMovil<1){
ARM GAS  C:\Users\USUARIO\AppData\Local\Temp\cccXDrki.s 			page 12


 511              		.loc 1 112 0
 512 0224 2378     		ldrb	r3, [r4]	@ zero_extendqisi2
 513 0226 013B     		subs	r3, r3, #1
 514 0228 DBB2     		uxtb	r3, r3
 515 022a 4F2B     		cmp	r3, #79
 516 022c 08D9     		bls	.L28
 113:Funciones.c   ****       MediaMovil=1;
 517              		.loc 1 113 0
 518 022e 0120     		movs	r0, #1
 519 0230 2070     		strb	r0, [r4]
 114:Funciones.c   ****       EEPROM_WriteByte(1,454);
 520              		.loc 1 114 0
 521 0232 4FF4E371 		mov	r1, #454
 522 0236 FFF7FEFF 		bl	EEPROM_WriteByte
 523              	.LVL62:
 115:Funciones.c   ****       CyDelay(20);
 524              		.loc 1 115 0
 525 023a 1420     		movs	r0, #20
 526 023c FFF7FEFF 		bl	CyDelay
 527              	.LVL63:
 528              	.L28:
 116:Funciones.c   ****    }
 117:Funciones.c   ****    Coeficiente=EEPROM_ReadByte(455);
 529              		.loc 1 117 0
 530 0240 40F2C710 		movw	r0, #455
 531 0244 FFF7FEFF 		bl	EEPROM_ReadByte
 532              	.LVL64:
 533 0248 4A4C     		ldr	r4, .L62+48
 534 024a 2080     		strh	r0, [r4]	@ movhi
 118:Funciones.c   ****    CyDelay(50);   
 535              		.loc 1 118 0
 536 024c 3220     		movs	r0, #50
 537 024e FFF7FEFF 		bl	CyDelay
 538              	.LVL65:
 119:Funciones.c   ****    if(Coeficiente<100){
 539              		.loc 1 119 0
 540 0252 2388     		ldrh	r3, [r4]
 541 0254 632B     		cmp	r3, #99
 542 0256 08D8     		bhi	.L29
 120:Funciones.c   ****       Coeficiente=100;
 543              		.loc 1 120 0
 544 0258 6420     		movs	r0, #100
 545 025a 2080     		strh	r0, [r4]	@ movhi
 121:Funciones.c   ****       EEPROM_WriteByte(100,455);
 546              		.loc 1 121 0
 547 025c 40F2C711 		movw	r1, #455
 548 0260 FFF7FEFF 		bl	EEPROM_WriteByte
 549              	.LVL66:
 122:Funciones.c   ****       CyDelay(20);
 550              		.loc 1 122 0
 551 0264 1420     		movs	r0, #20
 552 0266 FFF7FEFF 		bl	CyDelay
 553              	.LVL67:
 554              	.L29:
 123:Funciones.c   ****    }
 124:Funciones.c   **** 
 125:Funciones.c   ****    penMufla=EEPROM_ReadByte(458);
ARM GAS  C:\Users\USUARIO\AppData\Local\Temp\cccXDrki.s 			page 13


 555              		.loc 1 125 0
 556 026a 4FF4E570 		mov	r0, #458
 557 026e FFF7FEFF 		bl	EEPROM_ReadByte
 558              	.LVL68:
 559 0272 414C     		ldr	r4, .L62+52
 560 0274 FFF7FEFF 		bl	__aeabi_ui2f
 561              	.LVL69:
 562 0278 2060     		str	r0, [r4]	@ float
 126:Funciones.c   ****    CyDelay(50); 
 563              		.loc 1 126 0
 564 027a 3220     		movs	r0, #50
 565 027c FFF7FEFF 		bl	CyDelay
 566              	.LVL70:
 127:Funciones.c   ****    if(penMufla>150 || penMufla<10){
 567              		.loc 1 127 0
 568 0280 2468     		ldr	r4, [r4]	@ float
 569 0282 3E49     		ldr	r1, .L62+56
 570 0284 2046     		mov	r0, r4
 571 0286 FFF7FEFF 		bl	__aeabi_fcmpgt
 572              	.LVL71:
 573 028a 20B9     		cbnz	r0, .L30
 574              		.loc 1 127 0 is_stmt 0 discriminator 1
 575 028c 3C49     		ldr	r1, .L62+60
 576 028e 2046     		mov	r0, r4
 577 0290 FFF7FEFF 		bl	__aeabi_fcmplt
 578              	.LVL72:
 579 0294 50B1     		cbz	r0, .L31
 580              	.L30:
 128:Funciones.c   ****       penMufla=50;
 581              		.loc 1 128 0 is_stmt 1
 582 0296 3B4A     		ldr	r2, .L62+64
 583 0298 374B     		ldr	r3, .L62+52
 584 029a 1A60     		str	r2, [r3]	@ float
 129:Funciones.c   ****       EEPROM_WriteByte(50,458);
 585              		.loc 1 129 0
 586 029c 4FF4E571 		mov	r1, #458
 587 02a0 3220     		movs	r0, #50
 588 02a2 FFF7FEFF 		bl	EEPROM_WriteByte
 589              	.LVL73:
 130:Funciones.c   ****       CyDelay(20);
 590              		.loc 1 130 0
 591 02a6 1420     		movs	r0, #20
 592 02a8 FFF7FEFF 		bl	CyDelay
 593              	.LVL74:
 594              	.L31:
 131:Funciones.c   ****    }
 132:Funciones.c   ****    
 133:Funciones.c   ****    Password[0]=EEPROM_ReadByte(460);
 595              		.loc 1 133 0
 596 02ac 4FF4E670 		mov	r0, #460
 597 02b0 FFF7FEFF 		bl	EEPROM_ReadByte
 598              	.LVL75:
 599 02b4 344C     		ldr	r4, .L62+68
 600 02b6 2070     		strb	r0, [r4]
 134:Funciones.c   ****    CyDelay(50);   
 601              		.loc 1 134 0
 602 02b8 3220     		movs	r0, #50
ARM GAS  C:\Users\USUARIO\AppData\Local\Temp\cccXDrki.s 			page 14


 603 02ba FFF7FEFF 		bl	CyDelay
 604              	.LVL76:
 135:Funciones.c   ****    if(Password[0]>9 || Password[0]<0){
 605              		.loc 1 135 0
 606 02be 2378     		ldrb	r3, [r4]	@ zero_extendqisi2
 607 02c0 092B     		cmp	r3, #9
 608 02c2 08D9     		bls	.L33
 136:Funciones.c   ****       Password[0]=0;
 609              		.loc 1 136 0
 610 02c4 0020     		movs	r0, #0
 611 02c6 2070     		strb	r0, [r4]
 137:Funciones.c   ****       EEPROM_WriteByte(0,460);
 612              		.loc 1 137 0
 613 02c8 4FF4E671 		mov	r1, #460
 614 02cc FFF7FEFF 		bl	EEPROM_WriteByte
 615              	.LVL77:
 138:Funciones.c   ****       CyDelay(20);
 616              		.loc 1 138 0
 617 02d0 1420     		movs	r0, #20
 618 02d2 FFF7FEFF 		bl	CyDelay
 619              	.LVL78:
 620              	.L33:
 139:Funciones.c   ****    }
 140:Funciones.c   ****    Password[1]=EEPROM_ReadByte(461);
 621              		.loc 1 140 0
 622 02d6 40F2CD10 		movw	r0, #461
 623 02da FFF7FEFF 		bl	EEPROM_ReadByte
 624              	.LVL79:
 625 02de 2A4C     		ldr	r4, .L62+68
 626 02e0 6070     		strb	r0, [r4, #1]
 141:Funciones.c   ****    CyDelay(50);   
 627              		.loc 1 141 0
 628 02e2 3220     		movs	r0, #50
 629 02e4 FFF7FEFF 		bl	CyDelay
 630              	.LVL80:
 142:Funciones.c   ****    if(Password[1]>9 || Password[1]<0){
 631              		.loc 1 142 0
 632 02e8 6378     		ldrb	r3, [r4, #1]	@ zero_extendqisi2
 633 02ea 092B     		cmp	r3, #9
 634 02ec 08D9     		bls	.L34
 143:Funciones.c   ****       Password[1]=0;
 635              		.loc 1 143 0
 636 02ee 0020     		movs	r0, #0
 637 02f0 6070     		strb	r0, [r4, #1]
 144:Funciones.c   ****       EEPROM_WriteByte(0,461);
 638              		.loc 1 144 0
 639 02f2 40F2CD11 		movw	r1, #461
 640 02f6 FFF7FEFF 		bl	EEPROM_WriteByte
 641              	.LVL81:
 145:Funciones.c   ****       CyDelay(20);
 642              		.loc 1 145 0
 643 02fa 1420     		movs	r0, #20
 644 02fc FFF7FEFF 		bl	CyDelay
 645              	.LVL82:
 646              	.L34:
 146:Funciones.c   ****    }
 147:Funciones.c   ****    Password[2]=EEPROM_ReadByte(462);
ARM GAS  C:\Users\USUARIO\AppData\Local\Temp\cccXDrki.s 			page 15


 647              		.loc 1 147 0
 648 0300 4FF4E770 		mov	r0, #462
 649 0304 FFF7FEFF 		bl	EEPROM_ReadByte
 650              	.LVL83:
 651 0308 1F4C     		ldr	r4, .L62+68
 652 030a A070     		strb	r0, [r4, #2]
 148:Funciones.c   ****    CyDelay(50);   
 653              		.loc 1 148 0
 654 030c 3220     		movs	r0, #50
 655 030e FFF7FEFF 		bl	CyDelay
 656              	.LVL84:
 149:Funciones.c   ****    if(Password[2]>9 || Password[2]<0){
 657              		.loc 1 149 0
 658 0312 A378     		ldrb	r3, [r4, #2]	@ zero_extendqisi2
 659 0314 092B     		cmp	r3, #9
 660 0316 08D9     		bls	.L35
 150:Funciones.c   ****       Password[2]=0;
 661              		.loc 1 150 0
 662 0318 0020     		movs	r0, #0
 663 031a A070     		strb	r0, [r4, #2]
 151:Funciones.c   ****       EEPROM_WriteByte(0,462);
 664              		.loc 1 151 0
 665 031c 4FF4E771 		mov	r1, #462
 666 0320 FFF7FEFF 		bl	EEPROM_WriteByte
 667              	.LVL85:
 152:Funciones.c   ****       CyDelay(20);
 668              		.loc 1 152 0
 669 0324 1420     		movs	r0, #20
 670 0326 FFF7FEFF 		bl	CyDelay
 671              	.LVL86:
 672              	.L35:
 153:Funciones.c   ****    }
 154:Funciones.c   ****    Password[3]=EEPROM_ReadByte(463);
 673              		.loc 1 154 0
 674 032a 40F2CF10 		movw	r0, #463
 675 032e FFF7FEFF 		bl	EEPROM_ReadByte
 676              	.LVL87:
 677 0332 154C     		ldr	r4, .L62+68
 678 0334 E070     		strb	r0, [r4, #3]
 155:Funciones.c   ****    CyDelay(50);
 679              		.loc 1 155 0
 680 0336 3220     		movs	r0, #50
 681 0338 FFF7FEFF 		bl	CyDelay
 682              	.LVL88:
 156:Funciones.c   ****    if(Password[3]>9 || Password[3]<0){
 683              		.loc 1 156 0
 684 033c E378     		ldrb	r3, [r4, #3]	@ zero_extendqisi2
 685 033e 092B     		cmp	r3, #9
 686 0340 2DD9     		bls	.L36
 687 0342 23E0     		b	.L63
 688              	.L64:
 689              		.align	2
 690              	.L62:
 691 0344 00000000 		.word	i
 692 0348 00000000 		.word	Temperatura1
 693 034c 00000000 		.word	Horas1
 694 0350 00000000 		.word	Minutos1
ARM GAS  C:\Users\USUARIO\AppData\Local\Temp\cccXDrki.s 			page 16


 695 0354 00000000 		.word	Ganancia
 696 0358 00002042 		.word	1109393408
 697 035c 00004040 		.word	1077936128
 698 0360 00000000 		.word	GananciaIn
 699 0364 00000000 		.word	Tciclo
 700 0368 00000000 		.word	Ajuste
 701 036c 00000000 		.word	Ajusten
 702 0370 00000000 		.word	MediaMovil
 703 0374 00000000 		.word	Coeficiente
 704 0378 00000000 		.word	penMufla
 705 037c 00001643 		.word	1125515264
 706 0380 00002041 		.word	1092616192
 707 0384 00004842 		.word	1112014848
 708 0388 00000000 		.word	Password
 709              	.L63:
 157:Funciones.c   ****       Password[3]=0;
 710              		.loc 1 157 0
 711 038c 0020     		movs	r0, #0
 712 038e E070     		strb	r0, [r4, #3]
 158:Funciones.c   ****       EEPROM_WriteByte(0,463);
 713              		.loc 1 158 0
 714 0390 40F2CF11 		movw	r1, #463
 715 0394 FFF7FEFF 		bl	EEPROM_WriteByte
 716              	.LVL89:
 159:Funciones.c   ****       CyDelay(20);
 717              		.loc 1 159 0
 718 0398 1420     		movs	r0, #20
 719 039a FFF7FEFF 		bl	CyDelay
 720              	.LVL90:
 721              	.L36:
 160:Funciones.c   ****    }
 161:Funciones.c   **** 
 162:Funciones.c   ****    Tempocp[0]=EEPROM_ReadByte(465);
 722              		.loc 1 162 0
 723 039e 40F2D110 		movw	r0, #465
 724 03a2 FFF7FEFF 		bl	EEPROM_ReadByte
 725              	.LVL91:
 726 03a6 D64C     		ldr	r4, .L65+8
 727 03a8 2070     		strb	r0, [r4]
 163:Funciones.c   ****    CyDelay(50);
 728              		.loc 1 163 0
 729 03aa 3220     		movs	r0, #50
 730 03ac FFF7FEFF 		bl	CyDelay
 731              	.LVL92:
 164:Funciones.c   ****    if(Tempocp[0]>9 || Tempocp[0]<0){
 732              		.loc 1 164 0
 733 03b0 2378     		ldrb	r3, [r4]	@ zero_extendqisi2
 734 03b2 092B     		cmp	r3, #9
 735 03b4 08D9     		bls	.L37
 165:Funciones.c   ****       Tempocp[0]=0;
 736              		.loc 1 165 0
 737 03b6 0020     		movs	r0, #0
 738 03b8 2070     		strb	r0, [r4]
 166:Funciones.c   ****       EEPROM_WriteByte(0,465);
 739              		.loc 1 166 0
 740 03ba 40F2D111 		movw	r1, #465
 741 03be FFF7FEFF 		bl	EEPROM_WriteByte
ARM GAS  C:\Users\USUARIO\AppData\Local\Temp\cccXDrki.s 			page 17


 742              	.LVL93:
 167:Funciones.c   ****       CyDelay(20);
 743              		.loc 1 167 0
 744 03c2 1420     		movs	r0, #20
 745 03c4 FFF7FEFF 		bl	CyDelay
 746              	.LVL94:
 747              	.L37:
 168:Funciones.c   ****    } 
 169:Funciones.c   ****    
 170:Funciones.c   ****    Tempocp[1]=EEPROM_ReadByte(466);
 748              		.loc 1 170 0
 749 03c8 4FF4E970 		mov	r0, #466
 750 03cc FFF7FEFF 		bl	EEPROM_ReadByte
 751              	.LVL95:
 752 03d0 CB4C     		ldr	r4, .L65+8
 753 03d2 6070     		strb	r0, [r4, #1]
 171:Funciones.c   ****    CyDelay(50);
 754              		.loc 1 171 0
 755 03d4 3220     		movs	r0, #50
 756 03d6 FFF7FEFF 		bl	CyDelay
 757              	.LVL96:
 172:Funciones.c   ****    if(Tempocp[1]>9 || Tempocp[1]<0){
 758              		.loc 1 172 0
 759 03da 6378     		ldrb	r3, [r4, #1]	@ zero_extendqisi2
 760 03dc 092B     		cmp	r3, #9
 761 03de 08D9     		bls	.L38
 173:Funciones.c   ****       Tempocp[1]=1;
 762              		.loc 1 173 0
 763 03e0 0120     		movs	r0, #1
 764 03e2 6070     		strb	r0, [r4, #1]
 174:Funciones.c   ****       EEPROM_WriteByte(1,466);
 765              		.loc 1 174 0
 766 03e4 4FF4E971 		mov	r1, #466
 767 03e8 FFF7FEFF 		bl	EEPROM_WriteByte
 768              	.LVL97:
 175:Funciones.c   ****       CyDelay(20);
 769              		.loc 1 175 0
 770 03ec 1420     		movs	r0, #20
 771 03ee FFF7FEFF 		bl	CyDelay
 772              	.LVL98:
 773              	.L38:
 176:Funciones.c   ****    } 
 177:Funciones.c   **** 
 178:Funciones.c   ****    Tempocp[2]=EEPROM_ReadByte(467);
 774              		.loc 1 178 0
 775 03f2 40F2D310 		movw	r0, #467
 776 03f6 FFF7FEFF 		bl	EEPROM_ReadByte
 777              	.LVL99:
 778 03fa C14C     		ldr	r4, .L65+8
 779 03fc A070     		strb	r0, [r4, #2]
 179:Funciones.c   ****    CyDelay(50);
 780              		.loc 1 179 0
 781 03fe 3220     		movs	r0, #50
 782 0400 FFF7FEFF 		bl	CyDelay
 783              	.LVL100:
 180:Funciones.c   ****    if(Tempocp[2]>9 || Tempocp[2]<0){
 784              		.loc 1 180 0
ARM GAS  C:\Users\USUARIO\AppData\Local\Temp\cccXDrki.s 			page 18


 785 0404 A378     		ldrb	r3, [r4, #2]	@ zero_extendqisi2
 786 0406 092B     		cmp	r3, #9
 787 0408 08D9     		bls	.L39
 181:Funciones.c   ****       Tempocp[2]=0;
 788              		.loc 1 181 0
 789 040a 0020     		movs	r0, #0
 790 040c A070     		strb	r0, [r4, #2]
 182:Funciones.c   ****       EEPROM_WriteByte(0,467);
 791              		.loc 1 182 0
 792 040e 40F2D311 		movw	r1, #467
 793 0412 FFF7FEFF 		bl	EEPROM_WriteByte
 794              	.LVL101:
 183:Funciones.c   ****       CyDelay(20);
 795              		.loc 1 183 0
 796 0416 1420     		movs	r0, #20
 797 0418 FFF7FEFF 		bl	CyDelay
 798              	.LVL102:
 799              	.L39:
 184:Funciones.c   ****    } 
 185:Funciones.c   **** 
 186:Funciones.c   ****    Tempocp[3]=EEPROM_ReadByte(468);
 800              		.loc 1 186 0
 801 041c 4FF4EA70 		mov	r0, #468
 802 0420 FFF7FEFF 		bl	EEPROM_ReadByte
 803              	.LVL103:
 804 0424 B64C     		ldr	r4, .L65+8
 805 0426 E070     		strb	r0, [r4, #3]
 187:Funciones.c   ****    CyDelay(50);
 806              		.loc 1 187 0
 807 0428 3220     		movs	r0, #50
 808 042a FFF7FEFF 		bl	CyDelay
 809              	.LVL104:
 188:Funciones.c   ****    if(Tempocp[3]>9 || Tempocp[3]<0){
 810              		.loc 1 188 0
 811 042e E378     		ldrb	r3, [r4, #3]	@ zero_extendqisi2
 812 0430 092B     		cmp	r3, #9
 813 0432 08D9     		bls	.L40
 189:Funciones.c   ****       Tempocp[3]=0;
 814              		.loc 1 189 0
 815 0434 0020     		movs	r0, #0
 816 0436 E070     		strb	r0, [r4, #3]
 190:Funciones.c   ****       EEPROM_WriteByte(0,468);
 817              		.loc 1 190 0
 818 0438 4FF4EA71 		mov	r1, #468
 819 043c FFF7FEFF 		bl	EEPROM_WriteByte
 820              	.LVL105:
 191:Funciones.c   ****       CyDelay(20);
 821              		.loc 1 191 0
 822 0440 1420     		movs	r0, #20
 823 0442 FFF7FEFF 		bl	CyDelay
 824              	.LVL106:
 825              	.L40:
 192:Funciones.c   ****    } 
 193:Funciones.c   **** 
 194:Funciones.c   ****    Integral=EEPROM_ReadByte(470);
 826              		.loc 1 194 0
 827 0446 4FF4EB70 		mov	r0, #470
ARM GAS  C:\Users\USUARIO\AppData\Local\Temp\cccXDrki.s 			page 19


 828 044a FFF7FEFF 		bl	EEPROM_ReadByte
 829              	.LVL107:
 830 044e AD4C     		ldr	r4, .L65+12
 831 0450 2070     		strb	r0, [r4]
 195:Funciones.c   ****    CyDelay(50); 
 832              		.loc 1 195 0
 833 0452 3220     		movs	r0, #50
 834 0454 FFF7FEFF 		bl	CyDelay
 835              	.LVL108:
 196:Funciones.c   ****    if(Integral>5 || Integral==0){
 836              		.loc 1 196 0
 837 0458 2378     		ldrb	r3, [r4]	@ zero_extendqisi2
 838 045a 013B     		subs	r3, r3, #1
 839 045c DBB2     		uxtb	r3, r3
 840 045e 042B     		cmp	r3, #4
 841 0460 08D9     		bls	.L41
 197:Funciones.c   ****       Integral=1;
 842              		.loc 1 197 0
 843 0462 0120     		movs	r0, #1
 844 0464 2070     		strb	r0, [r4]
 198:Funciones.c   ****       EEPROM_WriteByte(1,470);
 845              		.loc 1 198 0
 846 0466 4FF4EB71 		mov	r1, #470
 847 046a FFF7FEFF 		bl	EEPROM_WriteByte
 848              	.LVL109:
 199:Funciones.c   ****       CyDelay(20);
 849              		.loc 1 199 0
 850 046e 1420     		movs	r0, #20
 851 0470 FFF7FEFF 		bl	CyDelay
 852              	.LVL110:
 853              	.L41:
 200:Funciones.c   ****    }
 201:Funciones.c   ****    Derivativo=EEPROM_ReadByte(471);
 854              		.loc 1 201 0
 855 0474 40F2D710 		movw	r0, #471
 856 0478 FFF7FEFF 		bl	EEPROM_ReadByte
 857              	.LVL111:
 858 047c A24C     		ldr	r4, .L65+16
 859 047e 2070     		strb	r0, [r4]
 202:Funciones.c   ****    CyDelay(50); 
 860              		.loc 1 202 0
 861 0480 3220     		movs	r0, #50
 862 0482 FFF7FEFF 		bl	CyDelay
 863              	.LVL112:
 203:Funciones.c   ****    if(Derivativo>60 || Derivativo<5){
 864              		.loc 1 203 0
 865 0486 2378     		ldrb	r3, [r4]	@ zero_extendqisi2
 866 0488 053B     		subs	r3, r3, #5
 867 048a DBB2     		uxtb	r3, r3
 868 048c 372B     		cmp	r3, #55
 869 048e 08D9     		bls	.L42
 204:Funciones.c   ****       Derivativo=30;
 870              		.loc 1 204 0
 871 0490 1E20     		movs	r0, #30
 872 0492 2070     		strb	r0, [r4]
 205:Funciones.c   ****       EEPROM_WriteByte(30,471);
 873              		.loc 1 205 0
ARM GAS  C:\Users\USUARIO\AppData\Local\Temp\cccXDrki.s 			page 20


 874 0494 40F2D711 		movw	r1, #471
 875 0498 FFF7FEFF 		bl	EEPROM_WriteByte
 876              	.LVL113:
 206:Funciones.c   ****       CyDelay(20);
 877              		.loc 1 206 0
 878 049c 1420     		movs	r0, #20
 879 049e FFF7FEFF 		bl	CyDelay
 880              	.LVL114:
 881              	.L42:
 207:Funciones.c   ****    }
 208:Funciones.c   ****    AlTem=convert16(EEPROM_ReadByte(473),EEPROM_ReadByte(472));
 882              		.loc 1 208 0
 883 04a2 40F2D910 		movw	r0, #473
 884 04a6 FFF7FEFF 		bl	EEPROM_ReadByte
 885              	.LVL115:
 886 04aa 0446     		mov	r4, r0
 887 04ac 4FF4EC70 		mov	r0, #472
 888 04b0 FFF7FEFF 		bl	EEPROM_ReadByte
 889              	.LVL116:
 890 04b4 0146     		mov	r1, r0
 891 04b6 2046     		mov	r0, r4
 892 04b8 FFF7FEFF 		bl	convert16
 893              	.LVL117:
 894 04bc 934C     		ldr	r4, .L65+20
 895 04be 2080     		strh	r0, [r4]	@ movhi
 209:Funciones.c   ****    CyDelay(50); 
 896              		.loc 1 209 0
 897 04c0 3220     		movs	r0, #50
 898 04c2 FFF7FEFF 		bl	CyDelay
 899              	.LVL118:
 210:Funciones.c   ****    if(AlTem>500){
 900              		.loc 1 210 0
 901 04c6 2388     		ldrh	r3, [r4]
 902 04c8 B3F5FA7F 		cmp	r3, #500
 903 04cc 10D9     		bls	.L43
 211:Funciones.c   ****       AlTem=200;
 904              		.loc 1 211 0
 905 04ce C820     		movs	r0, #200
 906 04d0 2080     		strh	r0, [r4]	@ movhi
 212:Funciones.c   ****       EEPROM_WriteByte(200,472);
 907              		.loc 1 212 0
 908 04d2 4FF4EC71 		mov	r1, #472
 909 04d6 FFF7FEFF 		bl	EEPROM_WriteByte
 910              	.LVL119:
 213:Funciones.c   ****       CyDelay(20);
 911              		.loc 1 213 0
 912 04da 1420     		movs	r0, #20
 913 04dc FFF7FEFF 		bl	CyDelay
 914              	.LVL120:
 214:Funciones.c   ****       EEPROM_WriteByte(0,473);
 915              		.loc 1 214 0
 916 04e0 40F2D911 		movw	r1, #473
 917 04e4 0020     		movs	r0, #0
 918 04e6 FFF7FEFF 		bl	EEPROM_WriteByte
 919              	.LVL121:
 215:Funciones.c   ****       CyDelay(20);
 920              		.loc 1 215 0
ARM GAS  C:\Users\USUARIO\AppData\Local\Temp\cccXDrki.s 			page 21


 921 04ea 1420     		movs	r0, #20
 922 04ec FFF7FEFF 		bl	CyDelay
 923              	.LVL122:
 924              	.L43:
 216:Funciones.c   ****    }
 217:Funciones.c   ****    //Modo=EEPROM_ReadByte(480);
 218:Funciones.c   ****    //CyDelay(50); 
 219:Funciones.c   ****    m_int=EEPROM_ReadByte(490);
 925              		.loc 1 219 0
 926 04f0 4FF4F570 		mov	r0, #490
 927 04f4 FFF7FEFF 		bl	EEPROM_ReadByte
 928              	.LVL123:
 929 04f8 854C     		ldr	r4, .L65+24
 930 04fa 2070     		strb	r0, [r4]
 220:Funciones.c   ****    CyDelay(50); 
 931              		.loc 1 220 0
 932 04fc 3220     		movs	r0, #50
 933 04fe FFF7FEFF 		bl	CyDelay
 934              	.LVL124:
 221:Funciones.c   ****    m_dec=EEPROM_ReadByte(491);
 935              		.loc 1 221 0
 936 0502 40F2EB10 		movw	r0, #491
 937 0506 FFF7FEFF 		bl	EEPROM_ReadByte
 938              	.LVL125:
 939 050a 824D     		ldr	r5, .L65+28
 940 050c 2870     		strb	r0, [r5]
 222:Funciones.c   ****    CyDelay(50); 
 941              		.loc 1 222 0
 942 050e 3220     		movs	r0, #50
 943 0510 FFF7FEFF 		bl	CyDelay
 944              	.LVL126:
 223:Funciones.c   ****    m=m_int+((float)m_dec/100);
 945              		.loc 1 223 0
 946 0514 2878     		ldrb	r0, [r5]	@ zero_extendqisi2
 947 0516 FFF7FEFF 		bl	__aeabi_ui2f
 948              	.LVL127:
 949 051a 7F49     		ldr	r1, .L65+32
 950 051c FFF7FEFF 		bl	__aeabi_fdiv
 951              	.LVL128:
 952 0520 0546     		mov	r5, r0
 953 0522 2078     		ldrb	r0, [r4]	@ zero_extendqisi2
 954 0524 FFF7FEFF 		bl	__aeabi_i2f
 955              	.LVL129:
 956 0528 2946     		mov	r1, r5
 957 052a FFF7FEFF 		bl	__aeabi_fadd
 958              	.LVL130:
 959 052e 7B4B     		ldr	r3, .L65+36
 960 0530 1860     		str	r0, [r3]	@ float
 224:Funciones.c   ****    b16=convert16(EEPROM_ReadByte(493),EEPROM_ReadByte(492));
 961              		.loc 1 224 0
 962 0532 40F2ED10 		movw	r0, #493
 963 0536 FFF7FEFF 		bl	EEPROM_ReadByte
 964              	.LVL131:
 965 053a 0446     		mov	r4, r0
 966 053c 4FF4F670 		mov	r0, #492
 967 0540 FFF7FEFF 		bl	EEPROM_ReadByte
 968              	.LVL132:
ARM GAS  C:\Users\USUARIO\AppData\Local\Temp\cccXDrki.s 			page 22


 969 0544 0146     		mov	r1, r0
 970 0546 2046     		mov	r0, r4
 971 0548 FFF7FEFF 		bl	convert16
 972              	.LVL133:
 973 054c 744C     		ldr	r4, .L65+40
 974 054e 2080     		strh	r0, [r4]	@ movhi
 225:Funciones.c   ****    b_dec=EEPROM_ReadByte(494);
 975              		.loc 1 225 0
 976 0550 4FF4F770 		mov	r0, #494
 977 0554 FFF7FEFF 		bl	EEPROM_ReadByte
 978              	.LVL134:
 979 0558 724D     		ldr	r5, .L65+44
 980 055a 2870     		strb	r0, [r5]
 226:Funciones.c   ****    CyDelay(50); 
 981              		.loc 1 226 0
 982 055c 3220     		movs	r0, #50
 983 055e FFF7FEFF 		bl	CyDelay
 984              	.LVL135:
 227:Funciones.c   ****    b=b16+((float)b_dec/100);
 985              		.loc 1 227 0
 986 0562 2878     		ldrb	r0, [r5]	@ zero_extendqisi2
 987 0564 FFF7FEFF 		bl	__aeabi_ui2f
 988              	.LVL136:
 989 0568 6B49     		ldr	r1, .L65+32
 990 056a FFF7FEFF 		bl	__aeabi_fdiv
 991              	.LVL137:
 992 056e 0546     		mov	r5, r0
 993 0570 2088     		ldrh	r0, [r4]
 994 0572 FFF7FEFF 		bl	__aeabi_i2f
 995              	.LVL138:
 996 0576 2946     		mov	r1, r5
 997 0578 FFF7FEFF 		bl	__aeabi_fadd
 998              	.LVL139:
 999 057c 6A4B     		ldr	r3, .L65+48
 1000 057e 1860     		str	r0, [r3]	@ float
 228:Funciones.c   ****    if(b>200){
 1001              		.loc 1 228 0
 1002 0580 6A49     		ldr	r1, .L65+52
 1003 0582 FFF7FEFF 		bl	__aeabi_fcmpgt
 1004              	.LVL140:
 1005 0586 D0B1     		cbz	r0, .L44
 229:Funciones.c   ****       b=0;
 1006              		.loc 1 229 0
 1007 0588 0022     		movs	r2, #0
 1008 058a 674B     		ldr	r3, .L65+48
 1009 058c 1A60     		str	r2, [r3]	@ float
 230:Funciones.c   ****       EEPROM_WriteByte(0,492);
 1010              		.loc 1 230 0
 1011 058e 4FF4F671 		mov	r1, #492
 1012 0592 0020     		movs	r0, #0
 1013 0594 FFF7FEFF 		bl	EEPROM_WriteByte
 1014              	.LVL141:
 231:Funciones.c   ****       CyDelay(10);
 1015              		.loc 1 231 0
 1016 0598 0A20     		movs	r0, #10
 1017 059a FFF7FEFF 		bl	CyDelay
 1018              	.LVL142:
ARM GAS  C:\Users\USUARIO\AppData\Local\Temp\cccXDrki.s 			page 23


 232:Funciones.c   ****       EEPROM_WriteByte(0,493);
 1019              		.loc 1 232 0
 1020 059e 40F2ED11 		movw	r1, #493
 1021 05a2 0020     		movs	r0, #0
 1022 05a4 FFF7FEFF 		bl	EEPROM_WriteByte
 1023              	.LVL143:
 233:Funciones.c   ****       CyDelay(10);
 1024              		.loc 1 233 0
 1025 05a8 0A20     		movs	r0, #10
 1026 05aa FFF7FEFF 		bl	CyDelay
 1027              	.LVL144:
 234:Funciones.c   ****       EEPROM_WriteByte(66,494);
 1028              		.loc 1 234 0
 1029 05ae 4FF4F771 		mov	r1, #494
 1030 05b2 4220     		movs	r0, #66
 1031 05b4 FFF7FEFF 		bl	EEPROM_WriteByte
 1032              	.LVL145:
 235:Funciones.c   ****       CyDelay(10);
 1033              		.loc 1 235 0
 1034 05b8 0A20     		movs	r0, #10
 1035 05ba FFF7FEFF 		bl	CyDelay
 1036              	.LVL146:
 1037              	.L44:
 236:Funciones.c   ****    }
 237:Funciones.c   ****    if(m<0.1 || m>2.0){
 1038              		.loc 1 237 0
 1039 05be 574B     		ldr	r3, .L65+36
 1040 05c0 1C68     		ldr	r4, [r3]	@ float
 1041 05c2 2046     		mov	r0, r4
 1042 05c4 FFF7FEFF 		bl	__aeabi_f2d
 1043              	.LVL147:
 1044 05c8 4BA3     		adr	r3, .L65
 1045 05ca D3E90023 		ldrd	r2, [r3]
 1046 05ce FFF7FEFF 		bl	__aeabi_dcmplt
 1047              	.LVL148:
 1048 05d2 28B9     		cbnz	r0, .L46
 1049              		.loc 1 237 0 is_stmt 0 discriminator 1
 1050 05d4 4FF08041 		mov	r1, #1073741824
 1051 05d8 2046     		mov	r0, r4
 1052 05da FFF7FEFF 		bl	__aeabi_fcmpgt
 1053              	.LVL149:
 1054 05de 98B1     		cbz	r0, .L47
 1055              	.L46:
 238:Funciones.c   ****       m=1.0;
 1056              		.loc 1 238 0 is_stmt 1
 1057 05e0 4FF07E52 		mov	r2, #1065353216
 1058 05e4 4D4B     		ldr	r3, .L65+36
 1059 05e6 1A60     		str	r2, [r3]	@ float
 239:Funciones.c   ****       EEPROM_WriteByte(1,490);
 1060              		.loc 1 239 0
 1061 05e8 4FF4F571 		mov	r1, #490
 1062 05ec 0120     		movs	r0, #1
 1063 05ee FFF7FEFF 		bl	EEPROM_WriteByte
 1064              	.LVL150:
 240:Funciones.c   ****       CyDelay(10);
 1065              		.loc 1 240 0
 1066 05f2 0A20     		movs	r0, #10
ARM GAS  C:\Users\USUARIO\AppData\Local\Temp\cccXDrki.s 			page 24


 1067 05f4 FFF7FEFF 		bl	CyDelay
 1068              	.LVL151:
 241:Funciones.c   ****       EEPROM_WriteByte(0,491);
 1069              		.loc 1 241 0
 1070 05f8 40F2EB11 		movw	r1, #491
 1071 05fc 0020     		movs	r0, #0
 1072 05fe FFF7FEFF 		bl	EEPROM_WriteByte
 1073              	.LVL152:
 242:Funciones.c   ****       CyDelay(10);
 1074              		.loc 1 242 0
 1075 0602 0A20     		movs	r0, #10
 1076 0604 FFF7FEFF 		bl	CyDelay
 1077              	.LVL153:
 1078              	.L47:
 243:Funciones.c   ****    }
 244:Funciones.c   ****    
 245:Funciones.c   ****    controlT=EEPROM_ReadByte(495);
 1079              		.loc 1 245 0
 1080 0608 40F2EF10 		movw	r0, #495
 1081 060c FFF7FEFF 		bl	EEPROM_ReadByte
 1082              	.LVL154:
 1083 0610 474C     		ldr	r4, .L65+56
 1084 0612 2070     		strb	r0, [r4]
 246:Funciones.c   ****    CyDelay(50); 
 1085              		.loc 1 246 0
 1086 0614 3220     		movs	r0, #50
 1087 0616 FFF7FEFF 		bl	CyDelay
 1088              	.LVL155:
 247:Funciones.c   ****    if(controlT>1){
 1089              		.loc 1 247 0
 1090 061a 2378     		ldrb	r3, [r4]	@ zero_extendqisi2
 1091 061c 012B     		cmp	r3, #1
 1092 061e 08D9     		bls	.L49
 248:Funciones.c   ****       controlT=0;
 1093              		.loc 1 248 0
 1094 0620 0020     		movs	r0, #0
 1095 0622 2070     		strb	r0, [r4]
 249:Funciones.c   ****       EEPROM_WriteByte(0,495);
 1096              		.loc 1 249 0
 1097 0624 40F2EF11 		movw	r1, #495
 1098 0628 FFF7FEFF 		bl	EEPROM_WriteByte
 1099              	.LVL156:
 250:Funciones.c   ****       CyDelay(20);
 1100              		.loc 1 250 0
 1101 062c 1420     		movs	r0, #20
 1102 062e FFF7FEFF 		bl	CyDelay
 1103              	.LVL157:
 1104              	.L49:
 251:Funciones.c   ****    }
 252:Funciones.c   **** 
 253:Funciones.c   ****    ProgramaSeleccionado=EEPROM_ReadByte(496);
 1105              		.loc 1 253 0
 1106 0632 4FF4F870 		mov	r0, #496
 1107 0636 FFF7FEFF 		bl	EEPROM_ReadByte
 1108              	.LVL158:
 1109 063a 3E4C     		ldr	r4, .L65+60
 1110 063c 2070     		strb	r0, [r4]
ARM GAS  C:\Users\USUARIO\AppData\Local\Temp\cccXDrki.s 			page 25


 254:Funciones.c   ****    CyDelay(50); 
 1111              		.loc 1 254 0
 1112 063e 3220     		movs	r0, #50
 1113 0640 FFF7FEFF 		bl	CyDelay
 1114              	.LVL159:
 255:Funciones.c   ****    if(ProgramaSeleccionado>4){
 1115              		.loc 1 255 0
 1116 0644 2378     		ldrb	r3, [r4]	@ zero_extendqisi2
 1117 0646 042B     		cmp	r3, #4
 1118 0648 14D9     		bls	.L50
 256:Funciones.c   ****       controlT=0;
 1119              		.loc 1 256 0
 1120 064a 0024     		movs	r4, #0
 1121 064c 384B     		ldr	r3, .L65+56
 1122 064e 1C70     		strb	r4, [r3]
 257:Funciones.c   ****       EEPROM_WriteByte(0,495);
 1123              		.loc 1 257 0
 1124 0650 40F2EF11 		movw	r1, #495
 1125 0654 2046     		mov	r0, r4
 1126 0656 FFF7FEFF 		bl	EEPROM_WriteByte
 1127              	.LVL160:
 258:Funciones.c   ****       ProgramaSeleccionado=0;
 1128              		.loc 1 258 0
 1129 065a 364B     		ldr	r3, .L65+60
 1130 065c 1C70     		strb	r4, [r3]
 259:Funciones.c   ****       CyDelay(20);
 1131              		.loc 1 259 0
 1132 065e 1420     		movs	r0, #20
 1133 0660 FFF7FEFF 		bl	CyDelay
 1134              	.LVL161:
 260:Funciones.c   ****       EEPROM_WriteByte(0,496);
 1135              		.loc 1 260 0
 1136 0664 4FF4F871 		mov	r1, #496
 1137 0668 2046     		mov	r0, r4
 1138 066a FFF7FEFF 		bl	EEPROM_WriteByte
 1139              	.LVL162:
 261:Funciones.c   ****       CyDelay(20);
 1140              		.loc 1 261 0
 1141 066e 1420     		movs	r0, #20
 1142 0670 FFF7FEFF 		bl	CyDelay
 1143              	.LVL163:
 1144              	.L50:
 262:Funciones.c   ****    }
 263:Funciones.c   **** 
 264:Funciones.c   ****    Segmento=EEPROM_ReadByte(497);
 1145              		.loc 1 264 0
 1146 0674 40F2F110 		movw	r0, #497
 1147 0678 FFF7FEFF 		bl	EEPROM_ReadByte
 1148              	.LVL164:
 1149 067c 2E4C     		ldr	r4, .L65+64
 1150 067e 2070     		strb	r0, [r4]
 265:Funciones.c   ****    CyDelay(50); 
 1151              		.loc 1 265 0
 1152 0680 3220     		movs	r0, #50
 1153 0682 FFF7FEFF 		bl	CyDelay
 1154              	.LVL165:
 266:Funciones.c   ****    if(Segmento>Pasos){
ARM GAS  C:\Users\USUARIO\AppData\Local\Temp\cccXDrki.s 			page 26


 1155              		.loc 1 266 0
 1156 0686 2378     		ldrb	r3, [r4]	@ zero_extendqisi2
 1157 0688 102B     		cmp	r3, #16
 1158 068a 1ED9     		bls	.L51
 267:Funciones.c   ****       controlT=0;
 1159              		.loc 1 267 0
 1160 068c 0024     		movs	r4, #0
 1161 068e 284B     		ldr	r3, .L65+56
 1162 0690 1C70     		strb	r4, [r3]
 268:Funciones.c   ****       EEPROM_WriteByte(0,495);
 1163              		.loc 1 268 0
 1164 0692 40F2EF11 		movw	r1, #495
 1165 0696 2046     		mov	r0, r4
 1166 0698 FFF7FEFF 		bl	EEPROM_WriteByte
 1167              	.LVL166:
 269:Funciones.c   ****       CyDelay(20);
 1168              		.loc 1 269 0
 1169 069c 1420     		movs	r0, #20
 1170 069e FFF7FEFF 		bl	CyDelay
 1171              	.LVL167:
 270:Funciones.c   ****       ProgramaSeleccionado=0;
 1172              		.loc 1 270 0
 1173 06a2 244B     		ldr	r3, .L65+60
 1174 06a4 1C70     		strb	r4, [r3]
 271:Funciones.c   ****       EEPROM_WriteByte(0,496);
 1175              		.loc 1 271 0
 1176 06a6 4FF4F871 		mov	r1, #496
 1177 06aa 2046     		mov	r0, r4
 1178 06ac FFF7FEFF 		bl	EEPROM_WriteByte
 1179              	.LVL168:
 272:Funciones.c   ****       CyDelay(20);
 1180              		.loc 1 272 0
 1181 06b0 1420     		movs	r0, #20
 1182 06b2 FFF7FEFF 		bl	CyDelay
 1183              	.LVL169:
 273:Funciones.c   ****       Segmento=0;
 1184              		.loc 1 273 0
 1185 06b6 204B     		ldr	r3, .L65+64
 1186 06b8 1C70     		strb	r4, [r3]
 274:Funciones.c   ****       EEPROM_WriteByte(0,497);
 1187              		.loc 1 274 0
 1188 06ba 40F2F111 		movw	r1, #497
 1189 06be 2046     		mov	r0, r4
 1190 06c0 FFF7FEFF 		bl	EEPROM_WriteByte
 1191              	.LVL170:
 275:Funciones.c   ****       CyDelay(20);
 1192              		.loc 1 275 0
 1193 06c4 1420     		movs	r0, #20
 1194 06c6 FFF7FEFF 		bl	CyDelay
 1195              	.LVL171:
 1196              	.L51:
 276:Funciones.c   ****    }
 277:Funciones.c   **** 
 278:Funciones.c   ****    control1=EEPROM_ReadByte(498);
 1197              		.loc 1 278 0
 1198 06ca 4FF4F970 		mov	r0, #498
 1199 06ce FFF7FEFF 		bl	EEPROM_ReadByte
ARM GAS  C:\Users\USUARIO\AppData\Local\Temp\cccXDrki.s 			page 27


 1200              	.LVL172:
 1201 06d2 1A4C     		ldr	r4, .L65+68
 1202 06d4 2080     		strh	r0, [r4]	@ movhi
 279:Funciones.c   ****    CyDelay(50);    
 1203              		.loc 1 279 0
 1204 06d6 3220     		movs	r0, #50
 1205 06d8 FFF7FEFF 		bl	CyDelay
 1206              	.LVL173:
 280:Funciones.c   ****    control2=convert16(EEPROM_ReadByte(500),EEPROM_ReadByte(499));
 1207              		.loc 1 280 0
 1208 06dc 4FF4FA70 		mov	r0, #500
 1209 06e0 FFF7FEFF 		bl	EEPROM_ReadByte
 1210              	.LVL174:
 1211 06e4 0546     		mov	r5, r0
 1212 06e6 40F2F310 		movw	r0, #499
 1213 06ea FFF7FEFF 		bl	EEPROM_ReadByte
 1214              	.LVL175:
 1215 06ee 0146     		mov	r1, r0
 1216 06f0 2846     		mov	r0, r5
 1217 06f2 25E0     		b	.L66
 1218              	.L67:
 1219 06f4 AFF30080 		.align	3
 1220              	.L65:
 1221 06f8 9A999999 		.word	-1717986918
 1222 06fc 9999B93F 		.word	1069128089
 1223 0700 00000000 		.word	Tempocp
 1224 0704 00000000 		.word	Integral
 1225 0708 00000000 		.word	Derivativo
 1226 070c 00000000 		.word	AlTem
 1227 0710 00000000 		.word	m_int
 1228 0714 00000000 		.word	m_dec
 1229 0718 0000C842 		.word	1120403456
 1230 071c 00000000 		.word	m
 1231 0720 00000000 		.word	b16
 1232 0724 00000000 		.word	b_dec
 1233 0728 00000000 		.word	b
 1234 072c 00004843 		.word	1128792064
 1235 0730 00000000 		.word	controlT
 1236 0734 00000000 		.word	ProgramaSeleccionado
 1237 0738 00000000 		.word	Segmento
 1238 073c 00000000 		.word	control1
 1239              	.L66:
 1240 0740 FFF7FEFF 		bl	convert16
 1241              	.LVL176:
 1242 0744 6A4B     		ldr	r3, .L68
 1243 0746 1880     		strh	r0, [r3]	@ movhi
 281:Funciones.c   ****    CyDelay(50); 
 1244              		.loc 1 281 0
 1245 0748 3220     		movs	r0, #50
 1246 074a FFF7FEFF 		bl	CyDelay
 1247              	.LVL177:
 282:Funciones.c   ****    control3=convert16(EEPROM_ReadByte(502),EEPROM_ReadByte(501));
 1248              		.loc 1 282 0
 1249 074e 4FF4FB70 		mov	r0, #502
 1250 0752 FFF7FEFF 		bl	EEPROM_ReadByte
 1251              	.LVL178:
 1252 0756 0546     		mov	r5, r0
ARM GAS  C:\Users\USUARIO\AppData\Local\Temp\cccXDrki.s 			page 28


 1253 0758 40F2F510 		movw	r0, #501
 1254 075c FFF7FEFF 		bl	EEPROM_ReadByte
 1255              	.LVL179:
 1256 0760 0146     		mov	r1, r0
 1257 0762 2846     		mov	r0, r5
 1258 0764 FFF7FEFF 		bl	convert16
 1259              	.LVL180:
 1260 0768 624B     		ldr	r3, .L68+4
 1261 076a 1880     		strh	r0, [r3]	@ movhi
 283:Funciones.c   ****    CyDelay(50); 
 1262              		.loc 1 283 0
 1263 076c 3220     		movs	r0, #50
 1264 076e FFF7FEFF 		bl	CyDelay
 1265              	.LVL181:
 284:Funciones.c   ****    patron1=EEPROM_ReadByte(503);
 1266              		.loc 1 284 0
 1267 0772 40F2F710 		movw	r0, #503
 1268 0776 FFF7FEFF 		bl	EEPROM_ReadByte
 1269              	.LVL182:
 1270 077a 5F4B     		ldr	r3, .L68+8
 1271 077c 1880     		strh	r0, [r3]	@ movhi
 285:Funciones.c   ****    CyDelay(50); 
 1272              		.loc 1 285 0
 1273 077e 3220     		movs	r0, #50
 1274 0780 FFF7FEFF 		bl	CyDelay
 1275              	.LVL183:
 286:Funciones.c   ****    patron2=convert16(EEPROM_ReadByte(505),EEPROM_ReadByte(504));
 1276              		.loc 1 286 0
 1277 0784 40F2F910 		movw	r0, #505
 1278 0788 FFF7FEFF 		bl	EEPROM_ReadByte
 1279              	.LVL184:
 1280 078c 0546     		mov	r5, r0
 1281 078e 4FF4FC70 		mov	r0, #504
 1282 0792 FFF7FEFF 		bl	EEPROM_ReadByte
 1283              	.LVL185:
 1284 0796 0146     		mov	r1, r0
 1285 0798 2846     		mov	r0, r5
 1286 079a FFF7FEFF 		bl	convert16
 1287              	.LVL186:
 1288 079e 574B     		ldr	r3, .L68+12
 1289 07a0 1880     		strh	r0, [r3]	@ movhi
 287:Funciones.c   ****    CyDelay(50); 
 1290              		.loc 1 287 0
 1291 07a2 3220     		movs	r0, #50
 1292 07a4 FFF7FEFF 		bl	CyDelay
 1293              	.LVL187:
 288:Funciones.c   ****    patron3=convert16(EEPROM_ReadByte(507),EEPROM_ReadByte(506));
 1294              		.loc 1 288 0
 1295 07a8 40F2FB10 		movw	r0, #507
 1296 07ac FFF7FEFF 		bl	EEPROM_ReadByte
 1297              	.LVL188:
 1298 07b0 0546     		mov	r5, r0
 1299 07b2 4FF4FD70 		mov	r0, #506
 1300 07b6 FFF7FEFF 		bl	EEPROM_ReadByte
 1301              	.LVL189:
 1302 07ba 0146     		mov	r1, r0
 1303 07bc 2846     		mov	r0, r5
ARM GAS  C:\Users\USUARIO\AppData\Local\Temp\cccXDrki.s 			page 29


 1304 07be FFF7FEFF 		bl	convert16
 1305              	.LVL190:
 1306 07c2 4F4B     		ldr	r3, .L68+16
 1307 07c4 1880     		strh	r0, [r3]	@ movhi
 289:Funciones.c   ****    CyDelay(50); 
 1308              		.loc 1 289 0
 1309 07c6 3220     		movs	r0, #50
 1310 07c8 FFF7FEFF 		bl	CyDelay
 1311              	.LVL191:
 290:Funciones.c   ****    
 291:Funciones.c   ****    if(control1>100 || control1<20){
 1312              		.loc 1 291 0
 1313 07cc 2388     		ldrh	r3, [r4]
 1314 07ce 143B     		subs	r3, r3, #20
 1315 07d0 9BB2     		uxth	r3, r3
 1316 07d2 502B     		cmp	r3, #80
 1317 07d4 0AD9     		bls	.L52
 292:Funciones.c   ****       control1=20;
 1318              		.loc 1 292 0
 1319 07d6 1424     		movs	r4, #20
 1320 07d8 4A4B     		ldr	r3, .L68+20
 1321 07da 1C80     		strh	r4, [r3]	@ movhi
 293:Funciones.c   ****       EEPROM_WriteByte(20,498);
 1322              		.loc 1 293 0
 1323 07dc 4FF4F971 		mov	r1, #498
 1324 07e0 2046     		mov	r0, r4
 1325 07e2 FFF7FEFF 		bl	EEPROM_WriteByte
 1326              	.LVL192:
 294:Funciones.c   ****       CyDelay(20);
 1327              		.loc 1 294 0
 1328 07e6 2046     		mov	r0, r4
 1329 07e8 FFF7FEFF 		bl	CyDelay
 1330              	.LVL193:
 1331              	.L52:
 295:Funciones.c   ****    }
 296:Funciones.c   ****    if(patron1>100 || patron1<20){
 1332              		.loc 1 296 0
 1333 07ec 424B     		ldr	r3, .L68+8
 1334 07ee 1B88     		ldrh	r3, [r3]
 1335 07f0 143B     		subs	r3, r3, #20
 1336 07f2 9BB2     		uxth	r3, r3
 1337 07f4 502B     		cmp	r3, #80
 1338 07f6 0AD9     		bls	.L53
 297:Funciones.c   ****       patron1=20;
 1339              		.loc 1 297 0
 1340 07f8 1424     		movs	r4, #20
 1341 07fa 3F4B     		ldr	r3, .L68+8
 1342 07fc 1C80     		strh	r4, [r3]	@ movhi
 298:Funciones.c   ****       EEPROM_WriteByte(20,503);
 1343              		.loc 1 298 0
 1344 07fe 40F2F711 		movw	r1, #503
 1345 0802 2046     		mov	r0, r4
 1346 0804 FFF7FEFF 		bl	EEPROM_WriteByte
 1347              	.LVL194:
 299:Funciones.c   ****       CyDelay(20);
 1348              		.loc 1 299 0
 1349 0808 2046     		mov	r0, r4
ARM GAS  C:\Users\USUARIO\AppData\Local\Temp\cccXDrki.s 			page 30


 1350 080a FFF7FEFF 		bl	CyDelay
 1351              	.LVL195:
 1352              	.L53:
 300:Funciones.c   ****    }
 301:Funciones.c   ****    if(control2>600 || control2<100){
 1353              		.loc 1 301 0
 1354 080e 384B     		ldr	r3, .L68
 1355 0810 1B88     		ldrh	r3, [r3]
 1356 0812 643B     		subs	r3, r3, #100
 1357 0814 9BB2     		uxth	r3, r3
 1358 0816 B3F5FA7F 		cmp	r3, #500
 1359 081a 13D9     		bls	.L54
 302:Funciones.c   ****       control2=600;
 1360              		.loc 1 302 0
 1361 081c 4FF41672 		mov	r2, #600
 1362 0820 334B     		ldr	r3, .L68
 1363 0822 1A80     		strh	r2, [r3]	@ movhi
 303:Funciones.c   ****       EEPROM_WriteByte(0x58,499);
 1364              		.loc 1 303 0
 1365 0824 40F2F311 		movw	r1, #499
 1366 0828 5820     		movs	r0, #88
 1367 082a FFF7FEFF 		bl	EEPROM_WriteByte
 1368              	.LVL196:
 304:Funciones.c   ****       CyDelay(20);
 1369              		.loc 1 304 0
 1370 082e 1420     		movs	r0, #20
 1371 0830 FFF7FEFF 		bl	CyDelay
 1372              	.LVL197:
 305:Funciones.c   ****       EEPROM_WriteByte(0x02,500);
 1373              		.loc 1 305 0
 1374 0834 4FF4FA71 		mov	r1, #500
 1375 0838 0220     		movs	r0, #2
 1376 083a FFF7FEFF 		bl	EEPROM_WriteByte
 1377              	.LVL198:
 306:Funciones.c   ****       CyDelay(20);
 1378              		.loc 1 306 0
 1379 083e 1420     		movs	r0, #20
 1380 0840 FFF7FEFF 		bl	CyDelay
 1381              	.LVL199:
 1382              	.L54:
 307:Funciones.c   ****    }
 308:Funciones.c   ****    if(control3>1200 || control3<600){
 1383              		.loc 1 308 0
 1384 0844 2B4B     		ldr	r3, .L68+4
 1385 0846 1B88     		ldrh	r3, [r3]
 1386 0848 A3F51673 		sub	r3, r3, #600
 1387 084c 9BB2     		uxth	r3, r3
 1388 084e B3F5167F 		cmp	r3, #600
 1389 0852 13D9     		bls	.L55
 309:Funciones.c   ****       control3=1200;
 1390              		.loc 1 309 0
 1391 0854 4FF49662 		mov	r2, #1200
 1392 0858 264B     		ldr	r3, .L68+4
 1393 085a 1A80     		strh	r2, [r3]	@ movhi
 310:Funciones.c   ****       EEPROM_WriteByte(0xB0,501);
 1394              		.loc 1 310 0
 1395 085c 40F2F511 		movw	r1, #501
ARM GAS  C:\Users\USUARIO\AppData\Local\Temp\cccXDrki.s 			page 31


 1396 0860 B020     		movs	r0, #176
 1397 0862 FFF7FEFF 		bl	EEPROM_WriteByte
 1398              	.LVL200:
 311:Funciones.c   ****       CyDelay(20);
 1399              		.loc 1 311 0
 1400 0866 1420     		movs	r0, #20
 1401 0868 FFF7FEFF 		bl	CyDelay
 1402              	.LVL201:
 312:Funciones.c   ****       EEPROM_WriteByte(0x04,502);
 1403              		.loc 1 312 0
 1404 086c 4FF4FB71 		mov	r1, #502
 1405 0870 0420     		movs	r0, #4
 1406 0872 FFF7FEFF 		bl	EEPROM_WriteByte
 1407              	.LVL202:
 313:Funciones.c   ****       CyDelay(20);
 1408              		.loc 1 313 0
 1409 0876 1420     		movs	r0, #20
 1410 0878 FFF7FEFF 		bl	CyDelay
 1411              	.LVL203:
 1412              	.L55:
 314:Funciones.c   ****    }
 315:Funciones.c   ****    if(patron2>600 || patron2<100){
 1413              		.loc 1 315 0
 1414 087c 1F4B     		ldr	r3, .L68+12
 1415 087e 1B88     		ldrh	r3, [r3]
 1416 0880 643B     		subs	r3, r3, #100
 1417 0882 9BB2     		uxth	r3, r3
 1418 0884 B3F5FA7F 		cmp	r3, #500
 1419 0888 13D9     		bls	.L56
 316:Funciones.c   ****       patron2=600;
 1420              		.loc 1 316 0
 1421 088a 4FF41672 		mov	r2, #600
 1422 088e 1B4B     		ldr	r3, .L68+12
 1423 0890 1A80     		strh	r2, [r3]	@ movhi
 317:Funciones.c   ****       EEPROM_WriteByte(0x58,504);
 1424              		.loc 1 317 0
 1425 0892 4FF4FC71 		mov	r1, #504
 1426 0896 5820     		movs	r0, #88
 1427 0898 FFF7FEFF 		bl	EEPROM_WriteByte
 1428              	.LVL204:
 318:Funciones.c   ****       CyDelay(20);
 1429              		.loc 1 318 0
 1430 089c 1420     		movs	r0, #20
 1431 089e FFF7FEFF 		bl	CyDelay
 1432              	.LVL205:
 319:Funciones.c   ****       EEPROM_WriteByte(0x02,505);
 1433              		.loc 1 319 0
 1434 08a2 40F2F911 		movw	r1, #505
 1435 08a6 0220     		movs	r0, #2
 1436 08a8 FFF7FEFF 		bl	EEPROM_WriteByte
 1437              	.LVL206:
 320:Funciones.c   ****       CyDelay(20);
 1438              		.loc 1 320 0
 1439 08ac 1420     		movs	r0, #20
 1440 08ae FFF7FEFF 		bl	CyDelay
 1441              	.LVL207:
 1442              	.L56:
ARM GAS  C:\Users\USUARIO\AppData\Local\Temp\cccXDrki.s 			page 32


 321:Funciones.c   ****    }
 322:Funciones.c   ****    if(patron3>1200 || patron3<600){
 1443              		.loc 1 322 0
 1444 08b2 134B     		ldr	r3, .L68+16
 1445 08b4 1B88     		ldrh	r3, [r3]
 1446 08b6 A3F51673 		sub	r3, r3, #600
 1447 08ba 9BB2     		uxth	r3, r3
 1448 08bc B3F5167F 		cmp	r3, #600
 1449 08c0 13D9     		bls	.L14
 323:Funciones.c   ****       patron3=1200;
 1450              		.loc 1 323 0
 1451 08c2 4FF49662 		mov	r2, #1200
 1452 08c6 0E4B     		ldr	r3, .L68+16
 1453 08c8 1A80     		strh	r2, [r3]	@ movhi
 324:Funciones.c   ****       EEPROM_WriteByte(0xB0,506);
 1454              		.loc 1 324 0
 1455 08ca 4FF4FD71 		mov	r1, #506
 1456 08ce B020     		movs	r0, #176
 1457 08d0 FFF7FEFF 		bl	EEPROM_WriteByte
 1458              	.LVL208:
 325:Funciones.c   ****       CyDelay(20);
 1459              		.loc 1 325 0
 1460 08d4 1420     		movs	r0, #20
 1461 08d6 FFF7FEFF 		bl	CyDelay
 1462              	.LVL209:
 326:Funciones.c   ****       EEPROM_WriteByte(0x04,507);
 1463              		.loc 1 326 0
 1464 08da 40F2FB11 		movw	r1, #507
 1465 08de 0420     		movs	r0, #4
 1466 08e0 FFF7FEFF 		bl	EEPROM_WriteByte
 1467              	.LVL210:
 327:Funciones.c   ****       CyDelay(20);
 1468              		.loc 1 327 0
 1469 08e4 1420     		movs	r0, #20
 1470 08e6 FFF7FEFF 		bl	CyDelay
 1471              	.LVL211:
 1472              	.L14:
 1473 08ea BDE8F087 		pop	{r4, r5, r6, r7, r8, r9, r10, pc}
 1474              	.LVL212:
 1475              	.L69:
 1476 08ee 00BF     		.align	2
 1477              	.L68:
 1478 08f0 00000000 		.word	control2
 1479 08f4 00000000 		.word	control3
 1480 08f8 00000000 		.word	patron1
 1481 08fc 00000000 		.word	patron2
 1482 0900 00000000 		.word	patron3
 1483 0904 00000000 		.word	control1
 1484              		.cfi_endproc
 1485              	.LFE68:
 1486              		.size	leeEEPROM, .-leeEEPROM
 1487              		.section	.text.PidePassword,"ax",%progbits
 1488              		.align	2
 1489              		.global	PidePassword
 1490              		.thumb
 1491              		.thumb_func
 1492              		.type	PidePassword, %function
ARM GAS  C:\Users\USUARIO\AppData\Local\Temp\cccXDrki.s 			page 33


 1493              	PidePassword:
 1494              	.LFB69:
 328:Funciones.c   ****    }
 329:Funciones.c   **** }
 330:Funciones.c   **** 
 331:Funciones.c   **** short PidePassword(uint8 MenuAnt, uint8 MenuActual, uint8 MenuPost, uint8 clave0,uint8 clave1, uint
 1495              		.loc 1 331 0
 1496              		.cfi_startproc
 1497              		@ args = 12, pretend = 0, frame = 0
 1498              		@ frame_needed = 0, uses_anonymous_args = 0
 1499              	.LVL213:
 1500 0000 2DE9F047 		push	{r4, r5, r6, r7, r8, r9, r10, lr}
 1501              		.cfi_def_cfa_offset 32
 1502              		.cfi_offset 4, -32
 1503              		.cfi_offset 5, -28
 1504              		.cfi_offset 6, -24
 1505              		.cfi_offset 7, -20
 1506              		.cfi_offset 8, -16
 1507              		.cfi_offset 9, -12
 1508              		.cfi_offset 10, -8
 1509              		.cfi_offset 14, -4
 1510 0004 82B0     		sub	sp, sp, #8
 1511              		.cfi_def_cfa_offset 40
 1512 0006 0446     		mov	r4, r0
 1513 0008 1646     		mov	r6, r2
 1514 000a 1D46     		mov	r5, r3
 1515              	.LVL214:
 332:Funciones.c   ****       MenuActual=0;
 333:Funciones.c   ****       if(n==0){
 1516              		.loc 1 333 0
 1517 000c B64B     		ldr	r3, .L97
 1518              	.LVL215:
 1519 000e 1B78     		ldrb	r3, [r3]	@ zero_extendqisi2
 1520 0010 4BBB     		cbnz	r3, .L71
 334:Funciones.c   ****          displayContrasena(Contrasena[0],20,30,1);displayContrasena(Contrasena[1],40,30,0);
 1521              		.loc 1 334 0
 1522 0012 B64F     		ldr	r7, .L97+4
 1523 0014 0123     		movs	r3, #1
 1524 0016 1E22     		movs	r2, #30
 1525              	.LVL216:
 1526 0018 1421     		movs	r1, #20
 1527 001a 3878     		ldrb	r0, [r7]	@ zero_extendqisi2
 1528              	.LVL217:
 1529 001c FFF7FEFF 		bl	displayContrasena
 1530              	.LVL218:
 1531 0020 0023     		movs	r3, #0
 1532 0022 1E22     		movs	r2, #30
 1533 0024 2821     		movs	r1, #40
 1534 0026 7878     		ldrb	r0, [r7, #1]	@ zero_extendqisi2
 1535 0028 FFF7FEFF 		bl	displayContrasena
 1536              	.LVL219:
 335:Funciones.c   ****          displayContrasena(Contrasena[2],60,30,0);displayContrasena(Contrasena[0],80,30,0);
 1537              		.loc 1 335 0
 1538 002c 0023     		movs	r3, #0
 1539 002e 1E22     		movs	r2, #30
 1540 0030 3C21     		movs	r1, #60
 1541 0032 B878     		ldrb	r0, [r7, #2]	@ zero_extendqisi2
ARM GAS  C:\Users\USUARIO\AppData\Local\Temp\cccXDrki.s 			page 34


 1542 0034 FFF7FEFF 		bl	displayContrasena
 1543              	.LVL220:
 1544 0038 0023     		movs	r3, #0
 1545 003a 1E22     		movs	r2, #30
 1546 003c 5021     		movs	r1, #80
 1547 003e 3878     		ldrb	r0, [r7]	@ zero_extendqisi2
 1548 0040 FFF7FEFF 		bl	displayContrasena
 1549              	.LVL221:
 336:Funciones.c   ****          strcpy(Menus.Letra,"Clave");
 1550              		.loc 1 336 0
 1551 0044 AA4F     		ldr	r7, .L97+8
 1552 0046 AB4B     		ldr	r3, .L97+12
 1553 0048 1868     		ldr	r0, [r3]	@ unaligned
 1554 004a 3860     		str	r0, [r7]	@ unaligned
 1555 004c 9B88     		ldrh	r3, [r3, #4]	@ unaligned
 1556 004e BB80     		strh	r3, [r7, #4]	@ unaligned
 337:Funciones.c   ****          displayMenu(Menus.Letra,20,0,1,3);
 1557              		.loc 1 337 0
 1558 0050 0323     		movs	r3, #3
 1559 0052 0093     		str	r3, [sp]
 1560 0054 0123     		movs	r3, #1
 1561 0056 0022     		movs	r2, #0
 1562 0058 1421     		movs	r1, #20
 1563 005a 3846     		mov	r0, r7
 1564 005c FFF7FEFF 		bl	displayMenu
 1565              	.LVL222:
 338:Funciones.c   ****          n=1;
 1566              		.loc 1 338 0
 1567 0060 0122     		movs	r2, #1
 1568 0062 A14B     		ldr	r3, .L97
 1569 0064 1A70     		strb	r2, [r3]
 1570              	.L71:
 339:Funciones.c   ****       }
 340:Funciones.c   ****       
 341:Funciones.c   ****       if(UP_Read()==0){
 1571              		.loc 1 341 0
 1572 0066 FFF7FEFF 		bl	UP_Read
 1573              	.LVL223:
 1574 006a 0028     		cmp	r0, #0
 1575 006c 3DD1     		bne	.L72
 342:Funciones.c   ****          if(Flanco == 0){
 1576              		.loc 1 342 0
 1577 006e A24B     		ldr	r3, .L97+16
 1578 0070 B3F90030 		ldrsh	r3, [r3]
 1579 0074 002B     		cmp	r3, #0
 1580 0076 3BD1     		bne	.L73
 343:Funciones.c   ****             Flanco = 1;CyDelay(200);
 1581              		.loc 1 343 0
 1582 0078 0127     		movs	r7, #1
 1583 007a 9F4B     		ldr	r3, .L97+16
 1584 007c 1F80     		strh	r7, [r3]	@ movhi
 1585 007e C820     		movs	r0, #200
 1586 0080 FFF7FEFF 		bl	CyDelay
 1587              	.LVL224:
 344:Funciones.c   ****             for(i=1;i<=4;i++){
 1588              		.loc 1 344 0
 1589 0084 9D4B     		ldr	r3, .L97+20
ARM GAS  C:\Users\USUARIO\AppData\Local\Temp\cccXDrki.s 			page 35


 1590 0086 1F70     		strb	r7, [r3]
 1591 0088 2AE0     		b	.L74
 1592              	.L78:
 345:Funciones.c   ****                if(unidad==i){
 1593              		.loc 1 345 0
 1594 008a 9D4A     		ldr	r2, .L97+24
 1595 008c 1278     		ldrb	r2, [r2]	@ zero_extendqisi2
 1596 008e 9342     		cmp	r3, r2
 1597 0090 16D1     		bne	.L75
 346:Funciones.c   ****                   Contrasena[i-1]++;
 1598              		.loc 1 346 0
 1599 0092 581E     		subs	r0, r3, #1
 1600 0094 9549     		ldr	r1, .L97+4
 1601 0096 0A56     		ldrsb	r2, [r1, r0]
 1602 0098 0132     		adds	r2, r2, #1
 1603 009a 52B2     		sxtb	r2, r2
 1604 009c 0A54     		strb	r2, [r1, r0]
 347:Funciones.c   ****                   if(Contrasena[i-1]>9){
 1605              		.loc 1 347 0
 1606 009e 092A     		cmp	r2, #9
 1607 00a0 02DD     		ble	.L76
 348:Funciones.c   ****                      Contrasena[i-1]=0;
 1608              		.loc 1 348 0
 1609 00a2 0021     		movs	r1, #0
 1610 00a4 914A     		ldr	r2, .L97+4
 1611 00a6 1154     		strb	r1, [r2, r0]
 1612              	.L76:
 349:Funciones.c   ****                   }
 350:Funciones.c   ****                   displayContrasena(Contrasena[i-1],i*20,30,1);
 1613              		.loc 1 350 0
 1614 00a8 03EB8303 		add	r3, r3, r3, lsl #2
 1615 00ac 9900     		lsls	r1, r3, #2
 1616 00ae 0123     		movs	r3, #1
 1617 00b0 1E22     		movs	r2, #30
 1618 00b2 01F0FC01 		and	r1, r1, #252
 1619 00b6 8D4F     		ldr	r7, .L97+4
 1620 00b8 385C     		ldrb	r0, [r7, r0]	@ zero_extendqisi2
 1621 00ba FFF7FEFF 		bl	displayContrasena
 1622              	.LVL225:
 1623 00be 0BE0     		b	.L77
 1624              	.L75:
 351:Funciones.c   ****                }else{
 352:Funciones.c   ****                   displayContrasena(Contrasena[i-1],i*20,30,0);
 1625              		.loc 1 352 0
 1626 00c0 581E     		subs	r0, r3, #1
 1627 00c2 03EB8303 		add	r3, r3, r3, lsl #2
 1628 00c6 9900     		lsls	r1, r3, #2
 1629 00c8 0023     		movs	r3, #0
 1630 00ca 1E22     		movs	r2, #30
 1631 00cc 01F0FC01 		and	r1, r1, #252
 1632 00d0 864F     		ldr	r7, .L97+4
 1633 00d2 385C     		ldrb	r0, [r7, r0]	@ zero_extendqisi2
 1634 00d4 FFF7FEFF 		bl	displayContrasena
 1635              	.LVL226:
 1636              	.L77:
 344:Funciones.c   ****                if(unidad==i){
 1637              		.loc 1 344 0 discriminator 2
ARM GAS  C:\Users\USUARIO\AppData\Local\Temp\cccXDrki.s 			page 36


 1638 00d8 884A     		ldr	r2, .L97+20
 1639 00da 1378     		ldrb	r3, [r2]	@ zero_extendqisi2
 1640 00dc 0133     		adds	r3, r3, #1
 1641 00de 1370     		strb	r3, [r2]
 1642              	.L74:
 344:Funciones.c   ****                if(unidad==i){
 1643              		.loc 1 344 0 is_stmt 0 discriminator 1
 1644 00e0 864B     		ldr	r3, .L97+20
 1645 00e2 1B78     		ldrb	r3, [r3]	@ zero_extendqisi2
 1646 00e4 042B     		cmp	r3, #4
 1647 00e6 D0D9     		bls	.L78
 1648 00e8 02E0     		b	.L73
 1649              	.L72:
 353:Funciones.c   ****                }
 354:Funciones.c   ****             }
 355:Funciones.c   ****          }
 356:Funciones.c   ****       }else{
 357:Funciones.c   ****          Flanco = 0;
 1650              		.loc 1 357 0 is_stmt 1
 1651 00ea 0022     		movs	r2, #0
 1652 00ec 824B     		ldr	r3, .L97+16
 1653 00ee 1A80     		strh	r2, [r3]	@ movhi
 1654              	.L73:
 358:Funciones.c   ****       }
 359:Funciones.c   ****             
 360:Funciones.c   ****       if(DOWN_Read()==0){
 1655              		.loc 1 360 0
 1656 00f0 FFF7FEFF 		bl	DOWN_Read
 1657              	.LVL227:
 1658 00f4 0028     		cmp	r0, #0
 1659 00f6 3DD1     		bne	.L79
 361:Funciones.c   ****          if(Flanco2 == 0){
 1660              		.loc 1 361 0
 1661 00f8 824B     		ldr	r3, .L97+28
 1662 00fa B3F90030 		ldrsh	r3, [r3]
 1663 00fe 002B     		cmp	r3, #0
 1664 0100 3BD1     		bne	.L80
 362:Funciones.c   ****             Flanco2 = 1;CyDelay(200);
 1665              		.loc 1 362 0
 1666 0102 0127     		movs	r7, #1
 1667 0104 7F4B     		ldr	r3, .L97+28
 1668 0106 1F80     		strh	r7, [r3]	@ movhi
 1669 0108 C820     		movs	r0, #200
 1670 010a FFF7FEFF 		bl	CyDelay
 1671              	.LVL228:
 363:Funciones.c   ****             for(i=1;i<=4;i++){
 1672              		.loc 1 363 0
 1673 010e 7B4B     		ldr	r3, .L97+20
 1674 0110 1F70     		strb	r7, [r3]
 1675 0112 2AE0     		b	.L81
 1676              	.L85:
 364:Funciones.c   ****                if(unidad==i){
 1677              		.loc 1 364 0
 1678 0114 7A4A     		ldr	r2, .L97+24
 1679 0116 1278     		ldrb	r2, [r2]	@ zero_extendqisi2
 1680 0118 9342     		cmp	r3, r2
 1681 011a 16D1     		bne	.L82
ARM GAS  C:\Users\USUARIO\AppData\Local\Temp\cccXDrki.s 			page 37


 365:Funciones.c   ****                   Contrasena[i-1]--;
 1682              		.loc 1 365 0
 1683 011c 581E     		subs	r0, r3, #1
 1684 011e 7349     		ldr	r1, .L97+4
 1685 0120 0A56     		ldrsb	r2, [r1, r0]
 1686 0122 013A     		subs	r2, r2, #1
 1687 0124 52B2     		sxtb	r2, r2
 1688 0126 0A54     		strb	r2, [r1, r0]
 366:Funciones.c   ****                   if(Contrasena[i-1]<0){
 1689              		.loc 1 366 0
 1690 0128 002A     		cmp	r2, #0
 1691 012a 02DA     		bge	.L83
 367:Funciones.c   ****                      Contrasena[i-1]=9;
 1692              		.loc 1 367 0
 1693 012c 0921     		movs	r1, #9
 1694 012e 6F4A     		ldr	r2, .L97+4
 1695 0130 1154     		strb	r1, [r2, r0]
 1696              	.L83:
 368:Funciones.c   ****                   }
 369:Funciones.c   ****                   displayContrasena(Contrasena[i-1],i*20,30,1);
 1697              		.loc 1 369 0
 1698 0132 03EB8303 		add	r3, r3, r3, lsl #2
 1699 0136 9900     		lsls	r1, r3, #2
 1700 0138 0123     		movs	r3, #1
 1701 013a 1E22     		movs	r2, #30
 1702 013c 01F0FC01 		and	r1, r1, #252
 1703 0140 6A4F     		ldr	r7, .L97+4
 1704 0142 385C     		ldrb	r0, [r7, r0]	@ zero_extendqisi2
 1705 0144 FFF7FEFF 		bl	displayContrasena
 1706              	.LVL229:
 1707 0148 0BE0     		b	.L84
 1708              	.L82:
 370:Funciones.c   ****                }else{
 371:Funciones.c   ****                   displayContrasena(Contrasena[i-1],i*20,30,0);
 1709              		.loc 1 371 0
 1710 014a 581E     		subs	r0, r3, #1
 1711 014c 03EB8303 		add	r3, r3, r3, lsl #2
 1712 0150 9900     		lsls	r1, r3, #2
 1713 0152 0023     		movs	r3, #0
 1714 0154 1E22     		movs	r2, #30
 1715 0156 01F0FC01 		and	r1, r1, #252
 1716 015a 644F     		ldr	r7, .L97+4
 1717 015c 385C     		ldrb	r0, [r7, r0]	@ zero_extendqisi2
 1718 015e FFF7FEFF 		bl	displayContrasena
 1719              	.LVL230:
 1720              	.L84:
 363:Funciones.c   ****                if(unidad==i){
 1721              		.loc 1 363 0 discriminator 2
 1722 0162 664A     		ldr	r2, .L97+20
 1723 0164 1378     		ldrb	r3, [r2]	@ zero_extendqisi2
 1724 0166 0133     		adds	r3, r3, #1
 1725 0168 1370     		strb	r3, [r2]
 1726              	.L81:
 363:Funciones.c   ****                if(unidad==i){
 1727              		.loc 1 363 0 is_stmt 0 discriminator 1
 1728 016a 644B     		ldr	r3, .L97+20
 1729 016c 1B78     		ldrb	r3, [r3]	@ zero_extendqisi2
ARM GAS  C:\Users\USUARIO\AppData\Local\Temp\cccXDrki.s 			page 38


 1730 016e 042B     		cmp	r3, #4
 1731 0170 D0D9     		bls	.L85
 1732 0172 02E0     		b	.L80
 1733              	.L79:
 372:Funciones.c   ****                }
 373:Funciones.c   ****             }      
 374:Funciones.c   ****          }     
 375:Funciones.c   ****       }else{
 376:Funciones.c   ****          Flanco2 = 0;
 1734              		.loc 1 376 0 is_stmt 1
 1735 0174 0022     		movs	r2, #0
 1736 0176 634B     		ldr	r3, .L97+28
 1737 0178 1A80     		strh	r2, [r3]	@ movhi
 1738              	.L80:
 377:Funciones.c   ****       }
 378:Funciones.c   ****             
 379:Funciones.c   ****       if(RIGHT_Read()==0){
 1739              		.loc 1 379 0
 1740 017a FFF7FEFF 		bl	RIGHT_Read
 1741              	.LVL231:
 1742 017e 0028     		cmp	r0, #0
 1743 0180 37D1     		bne	.L86
 380:Funciones.c   ****          if(Flanco1 == 0){
 1744              		.loc 1 380 0
 1745 0182 614B     		ldr	r3, .L97+32
 1746 0184 B3F90030 		ldrsh	r3, [r3]
 1747 0188 002B     		cmp	r3, #0
 1748 018a 35D1     		bne	.L87
 381:Funciones.c   ****             Flanco1 = 1;CyDelay(200);unidad++;
 1749              		.loc 1 381 0
 1750 018c 0127     		movs	r7, #1
 1751 018e 5E4B     		ldr	r3, .L97+32
 1752 0190 1F80     		strh	r7, [r3]	@ movhi
 1753 0192 C820     		movs	r0, #200
 1754 0194 FFF7FEFF 		bl	CyDelay
 1755              	.LVL232:
 1756 0198 594A     		ldr	r2, .L97+24
 1757 019a 1378     		ldrb	r3, [r2]	@ zero_extendqisi2
 1758 019c 3B44     		add	r3, r3, r7
 1759 019e 1370     		strb	r3, [r2]
 382:Funciones.c   ****             for(i=1;i<=4;i++){
 1760              		.loc 1 382 0
 1761 01a0 564B     		ldr	r3, .L97+20
 1762 01a2 1F70     		strb	r7, [r3]
 1763 01a4 20E0     		b	.L88
 1764              	.L91:
 383:Funciones.c   ****                if(unidad==i){
 1765              		.loc 1 383 0
 1766 01a6 564A     		ldr	r2, .L97+24
 1767 01a8 1278     		ldrb	r2, [r2]	@ zero_extendqisi2
 1768 01aa 9342     		cmp	r3, r2
 1769 01ac 0CD1     		bne	.L89
 384:Funciones.c   ****                   displayContrasena(Contrasena[i-1],i*20,30,1);
 1770              		.loc 1 384 0
 1771 01ae 581E     		subs	r0, r3, #1
 1772 01b0 03EB8303 		add	r3, r3, r3, lsl #2
 1773 01b4 9900     		lsls	r1, r3, #2
ARM GAS  C:\Users\USUARIO\AppData\Local\Temp\cccXDrki.s 			page 39


 1774 01b6 0123     		movs	r3, #1
 1775 01b8 1E22     		movs	r2, #30
 1776 01ba 01F0FC01 		and	r1, r1, #252
 1777 01be 4B4F     		ldr	r7, .L97+4
 1778 01c0 385C     		ldrb	r0, [r7, r0]	@ zero_extendqisi2
 1779 01c2 FFF7FEFF 		bl	displayContrasena
 1780              	.LVL233:
 1781 01c6 0BE0     		b	.L90
 1782              	.L89:
 385:Funciones.c   ****                }else{
 386:Funciones.c   ****                   displayContrasena(Contrasena[i-1],i*20,30,0);
 1783              		.loc 1 386 0
 1784 01c8 581E     		subs	r0, r3, #1
 1785 01ca 03EB8303 		add	r3, r3, r3, lsl #2
 1786 01ce 9900     		lsls	r1, r3, #2
 1787 01d0 0023     		movs	r3, #0
 1788 01d2 1E22     		movs	r2, #30
 1789 01d4 01F0FC01 		and	r1, r1, #252
 1790 01d8 444F     		ldr	r7, .L97+4
 1791 01da 385C     		ldrb	r0, [r7, r0]	@ zero_extendqisi2
 1792 01dc FFF7FEFF 		bl	displayContrasena
 1793              	.LVL234:
 1794              	.L90:
 382:Funciones.c   ****                if(unidad==i){
 1795              		.loc 1 382 0 discriminator 2
 1796 01e0 464A     		ldr	r2, .L97+20
 1797 01e2 1378     		ldrb	r3, [r2]	@ zero_extendqisi2
 1798 01e4 0133     		adds	r3, r3, #1
 1799 01e6 1370     		strb	r3, [r2]
 1800              	.L88:
 382:Funciones.c   ****                if(unidad==i){
 1801              		.loc 1 382 0 is_stmt 0 discriminator 1
 1802 01e8 444B     		ldr	r3, .L97+20
 1803 01ea 1B78     		ldrb	r3, [r3]	@ zero_extendqisi2
 1804 01ec 042B     		cmp	r3, #4
 1805 01ee DAD9     		bls	.L91
 1806 01f0 02E0     		b	.L87
 1807              	.L86:
 387:Funciones.c   ****                }
 388:Funciones.c   ****             }
 389:Funciones.c   ****          }
 390:Funciones.c   ****       }else{
 391:Funciones.c   ****          Flanco1 = 0;
 1808              		.loc 1 391 0 is_stmt 1
 1809 01f2 0022     		movs	r2, #0
 1810 01f4 444B     		ldr	r3, .L97+32
 1811 01f6 1A80     		strh	r2, [r3]	@ movhi
 1812              	.L87:
 392:Funciones.c   ****       }
 393:Funciones.c   ****       
 394:Funciones.c   ****       if(LEFT_Read()==0){
 1813              		.loc 1 394 0
 1814 01f8 FFF7FEFF 		bl	LEFT_Read
 1815              	.LVL235:
 1816 01fc E0B9     		cbnz	r0, .L92
 395:Funciones.c   ****          CyDelay(100);
 1817              		.loc 1 395 0
ARM GAS  C:\Users\USUARIO\AppData\Local\Temp\cccXDrki.s 			page 40


 1818 01fe 6420     		movs	r0, #100
 1819 0200 FFF7FEFF 		bl	CyDelay
 1820              	.LVL236:
 396:Funciones.c   ****          if(LEFT_Read()==0){
 1821              		.loc 1 396 0
 1822 0204 FFF7FEFF 		bl	LEFT_Read
 1823              	.LVL237:
 1824 0208 B0B9     		cbnz	r0, .L92
 397:Funciones.c   ****             Menu=MenuAnt;glcd_fillScreen(OFF);n=0;Opcion=1;unidad=1;
 1825              		.loc 1 397 0
 1826 020a 404B     		ldr	r3, .L97+36
 1827 020c 1C70     		strb	r4, [r3]
 1828 020e FFF7FEFF 		bl	glcd_fillScreen
 1829              	.LVL238:
 1830 0212 0020     		movs	r0, #0
 1831 0214 344B     		ldr	r3, .L97
 1832 0216 1870     		strb	r0, [r3]
 1833 0218 0125     		movs	r5, #1
 1834 021a 3D4B     		ldr	r3, .L97+40
 1835 021c 1D70     		strb	r5, [r3]
 1836 021e 384B     		ldr	r3, .L97+24
 1837 0220 1D70     		strb	r5, [r3]
 398:Funciones.c   ****             Contrasena[0]=0;Contrasena[1]=0;Contrasena[2]=0;Contrasena[3]=0;
 1838              		.loc 1 398 0
 1839 0222 324B     		ldr	r3, .L97+4
 1840 0224 1870     		strb	r0, [r3]
 1841 0226 5870     		strb	r0, [r3, #1]
 1842 0228 9870     		strb	r0, [r3, #2]
 1843 022a D870     		strb	r0, [r3, #3]
 399:Funciones.c   ****             glcd_fillScreen(OFF);glcd_update();
 1844              		.loc 1 399 0
 1845 022c FFF7FEFF 		bl	glcd_fillScreen
 1846              	.LVL239:
 1847 0230 FFF7FEFF 		bl	glcd_update
 1848              	.LVL240:
 400:Funciones.c   ****             return 1;
 1849              		.loc 1 400 0
 1850 0234 2846     		mov	r0, r5
 1851 0236 DFE0     		b	.L93
 1852              	.L92:
 401:Funciones.c   ****          }
 402:Funciones.c   ****       }
 403:Funciones.c   ****     
 404:Funciones.c   ****       if(unidad>4){
 1853              		.loc 1 404 0
 1854 0238 314B     		ldr	r3, .L97+24
 1855 023a 1B78     		ldrb	r3, [r3]	@ zero_extendqisi2
 1856 023c 042B     		cmp	r3, #4
 1857 023e 40F2DA80 		bls	.L95
 405:Funciones.c   ****          glcd_fillScreen(OFF);unidad=1;
 1858              		.loc 1 405 0
 1859 0242 0020     		movs	r0, #0
 1860 0244 FFF7FEFF 		bl	glcd_fillScreen
 1861              	.LVL241:
 1862 0248 0122     		movs	r2, #1
 1863 024a 2D4B     		ldr	r3, .L97+24
 1864 024c 1A70     		strb	r2, [r3]
ARM GAS  C:\Users\USUARIO\AppData\Local\Temp\cccXDrki.s 			page 41


 406:Funciones.c   ****          /*
 407:Funciones.c   ****          if(Contrasena[0]==3&&Contrasena[1]==8&&Contrasena[2]==9&&Contrasena[3]==2 && MenuActual==0
 408:Funciones.c   ****             EEPROM_WriteByte(0,0);CyDelay(20);EEPROM_WriteByte(1,0);CyDelay(20);// Reestablece a co
 409:Funciones.c   ****             EEPROM_WriteByte(2,0);CyDelay(20);EEPROM_WriteByte(3,0);CyDelay(20);
 410:Funciones.c   ****             reset_cpu();
 411:Funciones.c   ****          }
 412:Funciones.c   ****       */
 413:Funciones.c   ****          if((Contrasena[0]==clave0)&&(Contrasena[1]==clave1)&&(Contrasena[2]==clave2)&&(Contrasena[
 1865              		.loc 1 413 0
 1866 024e 274B     		ldr	r3, .L97+4
 1867 0250 93F90030 		ldrsb	r3, [r3]
 1868 0254 AB42     		cmp	r3, r5
 1869 0256 5FD1     		bne	.L94
 1870              		.loc 1 413 0 is_stmt 0 discriminator 1
 1871 0258 244B     		ldr	r3, .L97+4
 1872 025a 93F90120 		ldrsb	r2, [r3, #1]
 1873 025e 9DF82830 		ldrb	r3, [sp, #40]	@ zero_extendqisi2
 1874 0262 9A42     		cmp	r2, r3
 1875 0264 58D1     		bne	.L94
 1876              		.loc 1 413 0 discriminator 2
 1877 0266 214B     		ldr	r3, .L97+4
 1878 0268 93F90220 		ldrsb	r2, [r3, #2]
 1879 026c 9DF82C30 		ldrb	r3, [sp, #44]	@ zero_extendqisi2
 1880 0270 9A42     		cmp	r2, r3
 1881 0272 51D1     		bne	.L94
 1882              		.loc 1 413 0 discriminator 3
 1883 0274 1D4B     		ldr	r3, .L97+4
 1884 0276 93F90320 		ldrsb	r2, [r3, #3]
 1885 027a 9DF83030 		ldrb	r3, [sp, #48]	@ zero_extendqisi2
 1886 027e 9A42     		cmp	r2, r3
 1887 0280 4AD1     		bne	.L94
 414:Funciones.c   ****             glcd_fillScreen(OFF);
 1888              		.loc 1 414 0 is_stmt 1
 1889 0282 0020     		movs	r0, #0
 1890 0284 FFF7FEFF 		bl	glcd_fillScreen
 1891              	.LVL242:
 415:Funciones.c   ****             strcpy(Menus.Letra,"Clave");
 1892              		.loc 1 415 0
 1893 0288 194C     		ldr	r4, .L97+8
 1894 028a 1A4B     		ldr	r3, .L97+12
 1895 028c 1868     		ldr	r0, [r3]	@ unaligned
 1896 028e 2060     		str	r0, [r4]	@ unaligned
 1897 0290 9B88     		ldrh	r3, [r3, #4]	@ unaligned
 1898 0292 A380     		strh	r3, [r4, #4]	@ unaligned
 416:Funciones.c   ****             displayMenu(Menus.Letra,30,0,0,2);
 1899              		.loc 1 416 0
 1900 0294 0225     		movs	r5, #2
 1901 0296 0095     		str	r5, [sp]
 1902 0298 0023     		movs	r3, #0
 1903 029a 1A46     		mov	r2, r3
 1904 029c 1E21     		movs	r1, #30
 1905 029e 2046     		mov	r0, r4
 1906 02a0 FFF7FEFF 		bl	displayMenu
 1907              	.LVL243:
 417:Funciones.c   ****             strcpy(Menus.Letra,"Correcta");
 1908              		.loc 1 417 0
 1909 02a4 1B4B     		ldr	r3, .L97+44
ARM GAS  C:\Users\USUARIO\AppData\Local\Temp\cccXDrki.s 			page 42


 1910 02a6 03CB     		ldmia	r3!, {r0, r1}
 1911 02a8 2060     		str	r0, [r4]	@ unaligned
 1912 02aa 6160     		str	r1, [r4, #4]	@ unaligned
 1913 02ac 1B78     		ldrb	r3, [r3]	@ zero_extendqisi2
 1914 02ae 2372     		strb	r3, [r4, #8]
 418:Funciones.c   ****             displayMenu(Menus.Letra,15,30,0,2);
 1915              		.loc 1 418 0
 1916 02b0 0095     		str	r5, [sp]
 1917 02b2 0023     		movs	r3, #0
 1918 02b4 1E22     		movs	r2, #30
 1919 02b6 0F21     		movs	r1, #15
 1920 02b8 2046     		mov	r0, r4
 1921 02ba FFF7FEFF 		bl	displayMenu
 1922              	.LVL244:
 419:Funciones.c   ****             Menu=MenuPost;glcd_update();CyDelay(1000);glcd_fillScreen(OFF);
 1923              		.loc 1 419 0
 1924 02be 134B     		ldr	r3, .L97+36
 1925 02c0 1E70     		strb	r6, [r3]
 1926 02c2 FFF7FEFF 		bl	glcd_update
 1927              	.LVL245:
 1928 02c6 4FF47A70 		mov	r0, #1000
 1929 02ca FFF7FEFF 		bl	CyDelay
 1930              	.LVL246:
 1931 02ce 0020     		movs	r0, #0
 1932 02d0 FFF7FEFF 		bl	glcd_fillScreen
 1933              	.LVL247:
 420:Funciones.c   ****             Contrasena[0]=0;Contrasena[1]=0;Contrasena[2]=0;Contrasena[3]=0;
 1934              		.loc 1 420 0
 1935 02d4 054A     		ldr	r2, .L97+4
 1936 02d6 0023     		movs	r3, #0
 1937 02d8 1370     		strb	r3, [r2]
 1938 02da 5370     		strb	r3, [r2, #1]
 1939 02dc 9370     		strb	r3, [r2, #2]
 1940 02de D370     		strb	r3, [r2, #3]
 421:Funciones.c   ****             n=0;
 1941              		.loc 1 421 0
 1942 02e0 014A     		ldr	r2, .L97
 1943 02e2 1370     		strb	r3, [r2]
 422:Funciones.c   ****             return 1;
 1944              		.loc 1 422 0
 1945 02e4 0120     		movs	r0, #1
 1946 02e6 87E0     		b	.L93
 1947              	.L98:
 1948              		.align	2
 1949              	.L97:
 1950 02e8 00000000 		.word	n
 1951 02ec 00000000 		.word	Contrasena
 1952 02f0 00000000 		.word	Menus
 1953 02f4 00000000 		.word	.LC0
 1954 02f8 00000000 		.word	Flanco
 1955 02fc 00000000 		.word	i
 1956 0300 00000000 		.word	unidad
 1957 0304 00000000 		.word	Flanco2
 1958 0308 00000000 		.word	Flanco1
 1959 030c 00000000 		.word	Menu
 1960 0310 00000000 		.word	Opcion
 1961 0314 08000000 		.word	.LC1
ARM GAS  C:\Users\USUARIO\AppData\Local\Temp\cccXDrki.s 			page 43


 1962              	.L94:
 423:Funciones.c   ****          }else{
 424:Funciones.c   ****             glcd_fillScreen(OFF);
 1963              		.loc 1 424 0
 1964 0318 0020     		movs	r0, #0
 1965 031a FFF7FEFF 		bl	glcd_fillScreen
 1966              	.LVL248:
 425:Funciones.c   ****             strcpy(Menus.Letra,"Clave");
 1967              		.loc 1 425 0
 1968 031e 384E     		ldr	r6, .L99
 1969 0320 DFF8F490 		ldr	r9, .L99+24
 1970 0324 D9F80000 		ldr	r0, [r9]	@ unaligned
 1971 0328 3060     		str	r0, [r6]	@ unaligned
 1972 032a B9F804A0 		ldrh	r10, [r9, #4]	@ unaligned
 1973 032e A6F804A0 		strh	r10, [r6, #4]	@ unaligned
 426:Funciones.c   ****             displayMenu(Menus.Letra,30,0,0,2);
 1974              		.loc 1 426 0
 1975 0332 0225     		movs	r5, #2
 1976 0334 0095     		str	r5, [sp]
 1977 0336 0023     		movs	r3, #0
 1978 0338 1A46     		mov	r2, r3
 1979 033a 1E21     		movs	r1, #30
 1980 033c 3046     		mov	r0, r6
 1981 033e FFF7FEFF 		bl	displayMenu
 1982              	.LVL249:
 427:Funciones.c   ****             strcpy(Menus.Letra,"Incorrecta");
 1983              		.loc 1 427 0
 1984 0342 304B     		ldr	r3, .L99+4
 1985 0344 03CB     		ldmia	r3!, {r0, r1}
 1986 0346 3060     		str	r0, [r6]	@ unaligned
 1987 0348 7160     		str	r1, [r6, #4]	@ unaligned
 1988 034a 1A88     		ldrh	r2, [r3]	@ unaligned
 1989 034c 9B78     		ldrb	r3, [r3, #2]	@ zero_extendqisi2
 1990 034e 3281     		strh	r2, [r6, #8]	@ unaligned
 1991 0350 B372     		strb	r3, [r6, #10]
 428:Funciones.c   ****             displayMenu(Menus.Letra,0,30,0,2);
 1992              		.loc 1 428 0
 1993 0352 0095     		str	r5, [sp]
 1994 0354 0023     		movs	r3, #0
 1995 0356 1E22     		movs	r2, #30
 1996 0358 1946     		mov	r1, r3
 1997 035a 3046     		mov	r0, r6
 1998 035c FFF7FEFF 		bl	displayMenu
 1999              	.LVL250:
 429:Funciones.c   ****             unidad=1;glcd_update();CyDelay(1000);Contrasena[0]=0;Contrasena[1]=0;Contrasena[2]=0;Co
 2000              		.loc 1 429 0
 2001 0360 4FF00108 		mov	r8, #1
 2002 0364 284B     		ldr	r3, .L99+8
 2003 0366 83F80080 		strb	r8, [r3]
 2004 036a FFF7FEFF 		bl	glcd_update
 2005              	.LVL251:
 2006 036e 4FF47A70 		mov	r0, #1000
 2007 0372 FFF7FEFF 		bl	CyDelay
 2008              	.LVL252:
 2009 0376 254F     		ldr	r7, .L99+12
 2010 0378 0025     		movs	r5, #0
 2011 037a 3D70     		strb	r5, [r7]
ARM GAS  C:\Users\USUARIO\AppData\Local\Temp\cccXDrki.s 			page 44


 2012 037c 7D70     		strb	r5, [r7, #1]
 2013 037e BD70     		strb	r5, [r7, #2]
 2014 0380 FD70     		strb	r5, [r7, #3]
 2015 0382 2846     		mov	r0, r5
 2016 0384 FFF7FEFF 		bl	glcd_fillScreen
 2017              	.LVL253:
 430:Funciones.c   ****             glcd_rect(0, 0, 127, 25, YES, ON);strcpy(Menus.Letra,"Clave");glcd_text57(25, 1, Menus.
 2018              		.loc 1 430 0
 2019 0388 CDF80480 		str	r8, [sp, #4]
 2020 038c CDF80080 		str	r8, [sp]
 2021 0390 1923     		movs	r3, #25
 2022 0392 7F22     		movs	r2, #127
 2023 0394 2946     		mov	r1, r5
 2024 0396 2846     		mov	r0, r5
 2025 0398 FFF7FEFF 		bl	glcd_rect
 2026              	.LVL254:
 2027 039c D9F80000 		ldr	r0, [r9]	@ unaligned
 2028 03a0 3060     		str	r0, [r6]	@ unaligned
 2029 03a2 A6F804A0 		strh	r10, [r6, #4]	@ unaligned
 2030 03a6 0095     		str	r5, [sp]
 2031 03a8 0323     		movs	r3, #3
 2032 03aa 3246     		mov	r2, r6
 2033 03ac 4146     		mov	r1, r8
 2034 03ae 1920     		movs	r0, #25
 2035 03b0 FFF7FEFF 		bl	glcd_text57
 2036              	.LVL255:
 2037 03b4 4346     		mov	r3, r8
 2038 03b6 1E22     		movs	r2, #30
 2039 03b8 1421     		movs	r1, #20
 2040 03ba 3878     		ldrb	r0, [r7]	@ zero_extendqisi2
 2041 03bc FFF7FEFF 		bl	displayContrasena
 2042              	.LVL256:
 431:Funciones.c   ****             displayContrasena(Contrasena[1],40,30,0);displayContrasena(Contrasena[2],60,30,0);displ
 2043              		.loc 1 431 0
 2044 03c0 2B46     		mov	r3, r5
 2045 03c2 1E22     		movs	r2, #30
 2046 03c4 2821     		movs	r1, #40
 2047 03c6 7878     		ldrb	r0, [r7, #1]	@ zero_extendqisi2
 2048 03c8 FFF7FEFF 		bl	displayContrasena
 2049              	.LVL257:
 2050 03cc 2B46     		mov	r3, r5
 2051 03ce 1E22     		movs	r2, #30
 2052 03d0 3C21     		movs	r1, #60
 2053 03d2 B878     		ldrb	r0, [r7, #2]	@ zero_extendqisi2
 2054 03d4 FFF7FEFF 		bl	displayContrasena
 2055              	.LVL258:
 2056 03d8 2B46     		mov	r3, r5
 2057 03da 1E22     		movs	r2, #30
 2058 03dc 5021     		movs	r1, #80
 2059 03de 3878     		ldrb	r0, [r7]	@ zero_extendqisi2
 2060 03e0 FFF7FEFF 		bl	displayContrasena
 2061              	.LVL259:
 432:Funciones.c   ****             Menu=MenuAnt;glcd_fillScreen(OFF);n=0;
 2062              		.loc 1 432 0
 2063 03e4 0A4B     		ldr	r3, .L99+16
 2064 03e6 1C70     		strb	r4, [r3]
 2065 03e8 2846     		mov	r0, r5
ARM GAS  C:\Users\USUARIO\AppData\Local\Temp\cccXDrki.s 			page 45


 2066 03ea FFF7FEFF 		bl	glcd_fillScreen
 2067              	.LVL260:
 2068 03ee 094B     		ldr	r3, .L99+20
 2069 03f0 1D70     		strb	r5, [r3]
 433:Funciones.c   ****             return 0;
 2070              		.loc 1 433 0
 2071 03f2 2846     		mov	r0, r5
 2072 03f4 00E0     		b	.L93
 2073              	.L95:
 434:Funciones.c   ****          }
 435:Funciones.c   ****       }else{
 436:Funciones.c   ****         return 0;
 2074              		.loc 1 436 0
 2075 03f6 0020     		movs	r0, #0
 2076              	.L93:
 437:Funciones.c   ****       }
 438:Funciones.c   **** }
 2077              		.loc 1 438 0
 2078 03f8 02B0     		add	sp, sp, #8
 2079              		.cfi_def_cfa_offset 32
 2080              		@ sp needed
 2081 03fa BDE8F087 		pop	{r4, r5, r6, r7, r8, r9, r10, pc}
 2082              	.LVL261:
 2083              	.L100:
 2084 03fe 00BF     		.align	2
 2085              	.L99:
 2086 0400 00000000 		.word	Menus
 2087 0404 14000000 		.word	.LC2
 2088 0408 00000000 		.word	unidad
 2089 040c 00000000 		.word	Contrasena
 2090 0410 00000000 		.word	Menu
 2091 0414 00000000 		.word	n
 2092 0418 00000000 		.word	.LC0
 2093              		.cfi_endproc
 2094              	.LFE69:
 2095              		.size	PidePassword, .-PidePassword
 2096              		.section	.text.MuestraSegmento,"ax",%progbits
 2097              		.align	2
 2098              		.global	MuestraSegmento
 2099              		.thumb
 2100              		.thumb_func
 2101              		.type	MuestraSegmento, %function
 2102              	MuestraSegmento:
 2103              	.LFB70:
 439:Funciones.c   **** 
 440:Funciones.c   **** void MuestraSegmento(uint8 Opcio,uint8 l,uint8 Prog ){
 2104              		.loc 1 440 0
 2105              		.cfi_startproc
 2106              		@ args = 0, pretend = 0, frame = 0
 2107              		@ frame_needed = 0, uses_anonymous_args = 0
 2108              	.LVL262:
 2109 0000 2DE9F047 		push	{r4, r5, r6, r7, r8, r9, r10, lr}
 2110              		.cfi_def_cfa_offset 32
 2111              		.cfi_offset 4, -32
 2112              		.cfi_offset 5, -28
 2113              		.cfi_offset 6, -24
 2114              		.cfi_offset 7, -20
ARM GAS  C:\Users\USUARIO\AppData\Local\Temp\cccXDrki.s 			page 46


 2115              		.cfi_offset 8, -16
 2116              		.cfi_offset 9, -12
 2117              		.cfi_offset 10, -8
 2118              		.cfi_offset 14, -4
 2119 0004 82B0     		sub	sp, sp, #8
 2120              		.cfi_def_cfa_offset 40
 2121 0006 8046     		mov	r8, r0
 2122 0008 0F46     		mov	r7, r1
 2123 000a 1646     		mov	r6, r2
 441:Funciones.c   ****          if(Temperatura1[l+((Prog-1)*Pasos)]>1200)
 2124              		.loc 1 441 0
 2125 000c 531E     		subs	r3, r2, #1
 2126 000e 4FEA0319 		lsl	r9, r3, #4
 2127 0012 01EB0905 		add	r5, r1, r9
 2128 0016 AB4B     		ldr	r3, .L140
 2129 0018 33F91530 		ldrsh	r3, [r3, r5, lsl #1]
 2130 001c B3F5966F 		cmp	r3, #1200
 2131 0020 03DD     		ble	.L102
 442:Funciones.c   ****             Temperatura1[l+((Prog-1)*Pasos)]=0;
 2132              		.loc 1 442 0
 2133 0022 0022     		movs	r2, #0
 2134              	.LVL263:
 2135 0024 A74B     		ldr	r3, .L140
 2136 0026 23F81520 		strh	r2, [r3, r5, lsl #1]	@ movhi
 2137              	.L102:
 443:Funciones.c   ****          
 444:Funciones.c   ****          if(Temperatura1[l+((Prog-1)*Pasos)]<0)
 2138              		.loc 1 444 0
 2139 002a A64B     		ldr	r3, .L140
 2140 002c 33F91530 		ldrsh	r3, [r3, r5, lsl #1]
 2141 0030 002B     		cmp	r3, #0
 2142 0032 04DA     		bge	.L103
 445:Funciones.c   ****             Temperatura1[l+((Prog-1)*Pasos)]=1200;
 2143              		.loc 1 445 0
 2144 0034 4FF49662 		mov	r2, #1200
 2145 0038 A24B     		ldr	r3, .L140
 2146 003a 23F81520 		strh	r2, [r3, r5, lsl #1]	@ movhi
 2147              	.L103:
 446:Funciones.c   ****          
 447:Funciones.c   ****          if(Temperatura1[l+((Prog-1)*Pasos)]>=1100)
 2148              		.loc 1 447 0
 2149 003e A14B     		ldr	r3, .L140
 2150 0040 33F91520 		ldrsh	r2, [r3, r5, lsl #1]
 2151 0044 40F24B43 		movw	r3, #1099
 2152 0048 9A42     		cmp	r2, r3
 2153 004a 03DD     		ble	.L104
 448:Funciones.c   ****             Horas1[l+((Prog-1)*Pasos)]=0;
 2154              		.loc 1 448 0
 2155 004c 0022     		movs	r2, #0
 2156 004e 9E4B     		ldr	r3, .L140+4
 2157 0050 23F81520 		strh	r2, [r3, r5, lsl #1]	@ movhi
 2158              	.L104:
 449:Funciones.c   ****          
 450:Funciones.c   ****          //if(!refresh){   
 451:Funciones.c   ****             strcpy(Menus.Letra,"P 0");
 2159              		.loc 1 451 0
 2160 0054 9D4C     		ldr	r4, .L140+8
ARM GAS  C:\Users\USUARIO\AppData\Local\Temp\cccXDrki.s 			page 47


 2161 0056 9E4B     		ldr	r3, .L140+12
 2162 0058 1868     		ldr	r0, [r3]	@ unaligned
 2163              	.LVL264:
 2164 005a 2060     		str	r0, [r4]	@ unaligned
 452:Funciones.c   ****             displayMenu(Menus.Letra,30,0,1,2);
 2165              		.loc 1 452 0
 2166 005c 4FF0020A 		mov	r10, #2
 2167 0060 CDF800A0 		str	r10, [sp]
 2168 0064 0123     		movs	r3, #1
 2169 0066 0022     		movs	r2, #0
 2170 0068 1E21     		movs	r1, #30
 2171              	.LVL265:
 2172 006a 2046     		mov	r0, r4
 2173 006c FFF7FEFF 		bl	displayMenu
 2174              	.LVL266:
 453:Funciones.c   ****             displayTiempo(Prog,68,0,1,2);
 2175              		.loc 1 453 0
 2176 0070 CDF800A0 		str	r10, [sp]
 2177 0074 0123     		movs	r3, #1
 2178 0076 0022     		movs	r2, #0
 2179 0078 4421     		movs	r1, #68
 2180 007a 3046     		mov	r0, r6
 2181 007c FFF7FEFF 		bl	displayTiempo
 2182              	.LVL267:
 454:Funciones.c   ****              
 455:Funciones.c   ****             strcpy(Menus.Letra,"Segmento ");
 2183              		.loc 1 455 0
 2184 0080 944B     		ldr	r3, .L140+16
 2185 0082 03CB     		ldmia	r3!, {r0, r1}
 2186 0084 2060     		str	r0, [r4]	@ unaligned
 2187 0086 6160     		str	r1, [r4, #4]	@ unaligned
 2188 0088 1B88     		ldrh	r3, [r3]	@ unaligned
 2189 008a 2381     		strh	r3, [r4, #8]	@ unaligned
 456:Funciones.c   ****             displayMenu(Menus.Letra,0,20,1,1);
 2190              		.loc 1 456 0
 2191 008c 0126     		movs	r6, #1
 2192 008e 0096     		str	r6, [sp]
 2193 0090 3346     		mov	r3, r6
 2194 0092 1422     		movs	r2, #20
 2195 0094 0021     		movs	r1, #0
 2196 0096 2046     		mov	r0, r4
 2197 0098 FFF7FEFF 		bl	displayMenu
 2198              	.LVL268:
 457:Funciones.c   ****             displayTiempo(l,63,20,1,1);
 2199              		.loc 1 457 0
 2200 009c 0096     		str	r6, [sp]
 2201 009e 3346     		mov	r3, r6
 2202 00a0 1422     		movs	r2, #20
 2203 00a2 3F21     		movs	r1, #63
 2204 00a4 3846     		mov	r0, r7
 2205 00a6 FFF7FEFF 		bl	displayTiempo
 2206              	.LVL269:
 458:Funciones.c   ****              
 459:Funciones.c   ****             strcpy(Menus.Letra,"TA:");
 2207              		.loc 1 459 0
 2208 00aa 8B4B     		ldr	r3, .L140+20
 2209 00ac 1868     		ldr	r0, [r3]	@ unaligned
ARM GAS  C:\Users\USUARIO\AppData\Local\Temp\cccXDrki.s 			page 48


 2210 00ae 2060     		str	r0, [r4]	@ unaligned
 460:Funciones.c   ****             displayMenu(Menus.Letra,80,20,3,1);
 2211              		.loc 1 460 0
 2212 00b0 0096     		str	r6, [sp]
 2213 00b2 0323     		movs	r3, #3
 2214 00b4 1422     		movs	r2, #20
 2215 00b6 5021     		movs	r1, #80
 2216 00b8 2046     		mov	r0, r4
 2217 00ba FFF7FEFF 		bl	displayMenu
 2218              	.LVL270:
 461:Funciones.c   ****           //  refresh=ON;
 462:Funciones.c   ****         //}
 463:Funciones.c   ****          
 464:Funciones.c   ****          if(l>0)
 2219              		.loc 1 464 0
 2220 00be 57B1     		cbz	r7, .L105
 465:Funciones.c   ****             displayTemperatura(Temperatura1[l-1+((Prog-1)*Pasos)],100,20,1,1);
 2221              		.loc 1 465 0
 2222 00c0 7B1E     		subs	r3, r7, #1
 2223 00c2 4B44     		add	r3, r3, r9
 2224 00c4 7F4A     		ldr	r2, .L140
 2225 00c6 32F91300 		ldrsh	r0, [r2, r3, lsl #1]
 2226 00ca 3346     		mov	r3, r6
 2227 00cc 0096     		str	r6, [sp]
 2228 00ce 1422     		movs	r2, #20
 2229 00d0 6421     		movs	r1, #100
 2230 00d2 FFF7FEFF 		bl	displayTemperatura
 2231              	.LVL271:
 2232              	.L105:
 466:Funciones.c   ****          
 467:Funciones.c   ****          if(Opcio==1){            
 2233              		.loc 1 467 0
 2234 00d6 B8F1010F 		cmp	r8, #1
 2235 00da 40F01681 		bne	.L106
 468:Funciones.c   ****             //if(!refresh2){
 469:Funciones.c   ****                 strcpy(Menus.Letra,"Temperatura:");
 2236              		.loc 1 469 0
 2237 00de 7B4C     		ldr	r4, .L140+8
 2238 00e0 7E4B     		ldr	r3, .L140+24
 2239 00e2 07CB     		ldmia	r3!, {r0, r1, r2}
 2240 00e4 2060     		str	r0, [r4]	@ unaligned
 2241 00e6 6160     		str	r1, [r4, #4]	@ unaligned
 2242 00e8 A260     		str	r2, [r4, #8]	@ unaligned
 2243 00ea 1B78     		ldrb	r3, [r3]	@ zero_extendqisi2
 2244 00ec 2373     		strb	r3, [r4, #12]
 470:Funciones.c   ****                 displayTemps(Menus.Letra,Temperatura1[l+((Prog-1)*Pasos)],0,32,1,1);
 2245              		.loc 1 470 0
 2246 00ee 754B     		ldr	r3, .L140
 2247 00f0 33F81510 		ldrh	r1, [r3, r5, lsl #1]
 2248 00f4 0126     		movs	r6, #1
 2249 00f6 0196     		str	r6, [sp, #4]
 2250 00f8 0096     		str	r6, [sp]
 2251 00fa 2023     		movs	r3, #32
 2252 00fc 0022     		movs	r2, #0
 2253 00fe 2046     		mov	r0, r4
 2254 0100 FFF7FEFF 		bl	displayTemps
 2255              	.LVL272:
ARM GAS  C:\Users\USUARIO\AppData\Local\Temp\cccXDrki.s 			page 49


 471:Funciones.c   ****                 strcpy(Menus.Letra,"Horas:");
 2256              		.loc 1 471 0
 2257 0104 764B     		ldr	r3, .L140+28
 2258 0106 1868     		ldr	r0, [r3]	@ unaligned
 2259 0108 2060     		str	r0, [r4]	@ unaligned
 2260 010a 9A88     		ldrh	r2, [r3, #4]	@ unaligned
 2261 010c 9B79     		ldrb	r3, [r3, #6]	@ zero_extendqisi2
 2262 010e A280     		strh	r2, [r4, #4]	@ unaligned
 2263 0110 A371     		strb	r3, [r4, #6]
 472:Funciones.c   ****                 displayTemps(Menus.Letra,Horas1[l+((Prog-1)*Pasos)],0,44,10,1);
 2264              		.loc 1 472 0
 2265 0112 6D4B     		ldr	r3, .L140+4
 2266 0114 33F81510 		ldrh	r1, [r3, r5, lsl #1]
 2267 0118 0196     		str	r6, [sp, #4]
 2268 011a 4FF00A0A 		mov	r10, #10
 2269 011e CDF800A0 		str	r10, [sp]
 2270 0122 2C23     		movs	r3, #44
 2271 0124 0022     		movs	r2, #0
 2272 0126 2046     		mov	r0, r4
 2273 0128 FFF7FEFF 		bl	displayTemps
 2274              	.LVL273:
 473:Funciones.c   ****                 strcpy(Menus.Letra,"Minutos:");
 2275              		.loc 1 473 0
 2276 012c 6D4B     		ldr	r3, .L140+32
 2277 012e 03CB     		ldmia	r3!, {r0, r1}
 2278 0130 2060     		str	r0, [r4]	@ unaligned
 2279 0132 6160     		str	r1, [r4, #4]	@ unaligned
 2280 0134 1B78     		ldrb	r3, [r3]	@ zero_extendqisi2
 2281 0136 2372     		strb	r3, [r4, #8]
 474:Funciones.c   ****                 displayTemps(Menus.Letra,Minutos1[l+((Prog-1)*Pasos)],0,55,10,1);
 2282              		.loc 1 474 0
 2283 0138 6B4B     		ldr	r3, .L140+36
 2284 013a 33F81510 		ldrh	r1, [r3, r5, lsl #1]
 2285 013e 0196     		str	r6, [sp, #4]
 2286 0140 CDF800A0 		str	r10, [sp]
 2287 0144 3723     		movs	r3, #55
 2288 0146 0022     		movs	r2, #0
 2289 0148 2046     		mov	r0, r4
 2290 014a FFF7FEFF 		bl	displayTemps
 2291              	.LVL274:
 475:Funciones.c   ****                 refresh2=ON;
 2292              		.loc 1 475 0
 2293 014e 674B     		ldr	r3, .L140+40
 2294 0150 1E80     		strh	r6, [r3]	@ movhi
 476:Funciones.c   ****             //}
 477:Funciones.c   ****             
 478:Funciones.c   ****                if(!x10){
 2295              		.loc 1 478 0
 2296 0152 674B     		ldr	r3, .L140+44
 2297 0154 B3F90030 		ldrsh	r3, [r3]
 2298 0158 002B     		cmp	r3, #0
 2299 015a 5BD1     		bne	.L107
 479:Funciones.c   ****                     if(tup>30){
 2300              		.loc 1 479 0
 2301 015c 654B     		ldr	r3, .L140+48
 2302 015e 1B88     		ldrh	r3, [r3]
 2303 0160 1E2B     		cmp	r3, #30
ARM GAS  C:\Users\USUARIO\AppData\Local\Temp\cccXDrki.s 			page 50


 2304 0162 27D9     		bls	.L108
 480:Funciones.c   ****                         BUZZER_Write(1);CyDelay(5);BUZZER_Write(0);
 2305              		.loc 1 480 0
 2306 0164 3046     		mov	r0, r6
 2307 0166 FFF7FEFF 		bl	BUZZER_Write
 2308              	.LVL275:
 2309 016a 0520     		movs	r0, #5
 2310 016c FFF7FEFF 		bl	CyDelay
 2311              	.LVL276:
 2312 0170 0020     		movs	r0, #0
 2313 0172 FFF7FEFF 		bl	BUZZER_Write
 2314              	.LVL277:
 481:Funciones.c   ****                         Temperatura1[l+((Prog-1)*Pasos)]++;
 2315              		.loc 1 481 0
 2316 0176 534B     		ldr	r3, .L140
 2317 0178 33F91520 		ldrsh	r2, [r3, r5, lsl #1]
 2318 017c 3244     		add	r2, r2, r6
 2319 017e 12B2     		sxth	r2, r2
 2320 0180 23F81520 		strh	r2, [r3, r5, lsl #1]	@ movhi
 482:Funciones.c   ****                         if(Temperatura1[l+((Prog-1)*Pasos)]%10==0){
 2321              		.loc 1 482 0
 2322 0184 5C4B     		ldr	r3, .L140+52
 2323 0186 83FB0231 		smull	r3, r1, r3, r2
 2324 018a D317     		asrs	r3, r2, #31
 2325 018c C3EBA103 		rsb	r3, r3, r1, asr #2
 2326 0190 03EB8303 		add	r3, r3, r3, lsl #2
 2327 0194 03FA06F1 		lsl	r1, r3, r6
 2328 0198 511A     		subs	r1, r2, r1
 2329 019a 09B2     		sxth	r1, r1
 2330 019c 09B9     		cbnz	r1, .L109
 483:Funciones.c   ****                             x10=ON;
 2331              		.loc 1 483 0
 2332 019e 544B     		ldr	r3, .L140+44
 2333 01a0 1E80     		strh	r6, [r3]	@ movhi
 2334              	.L109:
 484:Funciones.c   ****                         }
 485:Funciones.c   ****                         
 486:Funciones.c   ****                         if(l<Pasos-1)
 2335              		.loc 1 486 0
 2336 01a2 0E2F     		cmp	r7, #14
 2337 01a4 00F2B180 		bhi	.L106
 487:Funciones.c   ****                             Temperatura1[l+1+((Prog-1)*Pasos)]=Temperatura1[l+((Prog-1)*Pasos)]; 
 2338              		.loc 1 487 0
 2339 01a8 7B1C     		adds	r3, r7, #1
 2340 01aa 4B44     		add	r3, r3, r9
 2341 01ac 4549     		ldr	r1, .L140
 2342 01ae 21F81320 		strh	r2, [r1, r3, lsl #1]	@ movhi
 2343 01b2 AAE0     		b	.L106
 2344              	.L108:
 488:Funciones.c   ****                     }else if(tdown>30){
 2345              		.loc 1 488 0
 2346 01b4 514B     		ldr	r3, .L140+56
 2347 01b6 1B88     		ldrh	r3, [r3]
 2348 01b8 1E2B     		cmp	r3, #30
 2349 01ba 27D9     		bls	.L110
 489:Funciones.c   ****                         BUZZER_Write(1);CyDelay(5);BUZZER_Write(0);
 2350              		.loc 1 489 0
ARM GAS  C:\Users\USUARIO\AppData\Local\Temp\cccXDrki.s 			page 51


 2351 01bc 0120     		movs	r0, #1
 2352 01be FFF7FEFF 		bl	BUZZER_Write
 2353              	.LVL278:
 2354 01c2 0520     		movs	r0, #5
 2355 01c4 FFF7FEFF 		bl	CyDelay
 2356              	.LVL279:
 2357 01c8 0020     		movs	r0, #0
 2358 01ca FFF7FEFF 		bl	BUZZER_Write
 2359              	.LVL280:
 490:Funciones.c   ****                         Temperatura1[l+((Prog-1)*Pasos)]--;
 2360              		.loc 1 490 0
 2361 01ce 3D4B     		ldr	r3, .L140
 2362 01d0 33F91520 		ldrsh	r2, [r3, r5, lsl #1]
 2363 01d4 013A     		subs	r2, r2, #1
 2364 01d6 12B2     		sxth	r2, r2
 2365 01d8 23F81520 		strh	r2, [r3, r5, lsl #1]	@ movhi
 491:Funciones.c   ****                         if(Temperatura1[l+((Prog-1)*Pasos)]%10==0){
 2366              		.loc 1 491 0
 2367 01dc 464B     		ldr	r3, .L140+52
 2368 01de 83FB0231 		smull	r3, r1, r3, r2
 2369 01e2 D317     		asrs	r3, r2, #31
 2370 01e4 C3EBA103 		rsb	r3, r3, r1, asr #2
 2371 01e8 03EB8303 		add	r3, r3, r3, lsl #2
 2372 01ec 5900     		lsls	r1, r3, #1
 2373 01ee 531A     		subs	r3, r2, r1
 2374 01f0 1BB2     		sxth	r3, r3
 2375 01f2 13B9     		cbnz	r3, .L111
 492:Funciones.c   ****                             x10=ON;
 2376              		.loc 1 492 0
 2377 01f4 0121     		movs	r1, #1
 2378 01f6 3E4B     		ldr	r3, .L140+44
 2379 01f8 1980     		strh	r1, [r3]	@ movhi
 2380              	.L111:
 493:Funciones.c   ****                         }
 494:Funciones.c   ****                         if(l<Pasos-1)
 2381              		.loc 1 494 0
 2382 01fa 0E2F     		cmp	r7, #14
 2383 01fc 00F28580 		bhi	.L106
 495:Funciones.c   ****                             Temperatura1[l+1+((Prog-1)*Pasos)]=Temperatura1[l+((Prog-1)*Pasos)]; 
 2384              		.loc 1 495 0
 2385 0200 7B1C     		adds	r3, r7, #1
 2386 0202 4B44     		add	r3, r3, r9
 2387 0204 2F49     		ldr	r1, .L140
 2388 0206 21F81320 		strh	r2, [r1, r3, lsl #1]	@ movhi
 2389 020a 7EE0     		b	.L106
 2390              	.L110:
 496:Funciones.c   ****                     }else{
 497:Funciones.c   ****                         x10=OFF;
 2391              		.loc 1 497 0
 2392 020c 0022     		movs	r2, #0
 2393 020e 384B     		ldr	r3, .L140+44
 2394 0210 1A80     		strh	r2, [r3]	@ movhi
 2395 0212 7AE0     		b	.L106
 2396              	.L107:
 498:Funciones.c   ****                     }
 499:Funciones.c   ****                 }else{
 500:Funciones.c   ****                     if(tup>30){
ARM GAS  C:\Users\USUARIO\AppData\Local\Temp\cccXDrki.s 			page 52


 2397              		.loc 1 500 0
 2398 0214 374B     		ldr	r3, .L140+48
 2399 0216 1A88     		ldrh	r2, [r3]
 2400 0218 1E2A     		cmp	r2, #30
 2401 021a 07D9     		bls	.L112
 501:Funciones.c   ****                         if(conteoTecla<=100)
 2402              		.loc 1 501 0
 2403 021c 384B     		ldr	r3, .L140+60
 2404 021e 1B78     		ldrb	r3, [r3]	@ zero_extendqisi2
 2405 0220 642B     		cmp	r3, #100
 2406 0222 14D8     		bhi	.L113
 502:Funciones.c   ****                             conteoTecla++;
 2407              		.loc 1 502 0
 2408 0224 0133     		adds	r3, r3, #1
 2409 0226 3649     		ldr	r1, .L140+60
 2410 0228 0B70     		strb	r3, [r1]
 2411 022a 10E0     		b	.L113
 2412              	.L112:
 503:Funciones.c   ****                     }else if(tdown>30){
 2413              		.loc 1 503 0
 2414 022c 334B     		ldr	r3, .L140+56
 2415 022e 1B88     		ldrh	r3, [r3]
 2416 0230 1E2B     		cmp	r3, #30
 2417 0232 07D9     		bls	.L114
 504:Funciones.c   ****                         if(conteoTecla<=100)
 2418              		.loc 1 504 0
 2419 0234 324B     		ldr	r3, .L140+60
 2420 0236 1B78     		ldrb	r3, [r3]	@ zero_extendqisi2
 2421 0238 642B     		cmp	r3, #100
 2422 023a 08D8     		bhi	.L113
 505:Funciones.c   ****                             conteoTecla++;
 2423              		.loc 1 505 0
 2424 023c 0133     		adds	r3, r3, #1
 2425 023e 3049     		ldr	r1, .L140+60
 2426 0240 0B70     		strb	r3, [r1]
 2427 0242 04E0     		b	.L113
 2428              	.L114:
 506:Funciones.c   ****                     }else{
 507:Funciones.c   ****                         conteoTecla=0;
 2429              		.loc 1 507 0
 2430 0244 0023     		movs	r3, #0
 2431 0246 2E49     		ldr	r1, .L140+60
 2432 0248 0B70     		strb	r3, [r1]
 508:Funciones.c   ****                         x10=OFF;
 2433              		.loc 1 508 0
 2434 024a 2949     		ldr	r1, .L140+44
 2435 024c 0B80     		strh	r3, [r1]	@ movhi
 2436              	.L113:
 509:Funciones.c   ****                     }
 510:Funciones.c   ****              
 511:Funciones.c   ****                     if(conteoTecla>4){
 2437              		.loc 1 511 0
 2438 024e 2C4B     		ldr	r3, .L140+60
 2439 0250 1B78     		ldrb	r3, [r3]	@ zero_extendqisi2
 2440 0252 042B     		cmp	r3, #4
 2441 0254 59D9     		bls	.L106
 512:Funciones.c   ****                         if(tup>30){                            
ARM GAS  C:\Users\USUARIO\AppData\Local\Temp\cccXDrki.s 			page 53


 2442              		.loc 1 512 0
 2443 0256 1E2A     		cmp	r2, #30
 2444 0258 17D9     		bls	.L115
 513:Funciones.c   ****                             BUZZER_Write(1);CyDelay(5);BUZZER_Write(0);
 2445              		.loc 1 513 0
 2446 025a 0120     		movs	r0, #1
 2447 025c FFF7FEFF 		bl	BUZZER_Write
 2448              	.LVL281:
 2449 0260 0520     		movs	r0, #5
 2450 0262 FFF7FEFF 		bl	CyDelay
 2451              	.LVL282:
 2452 0266 0020     		movs	r0, #0
 2453 0268 FFF7FEFF 		bl	BUZZER_Write
 2454              	.LVL283:
 514:Funciones.c   ****                             Temperatura1[l+((Prog-1)*Pasos)]+=10;
 2455              		.loc 1 514 0
 2456 026c 154B     		ldr	r3, .L140
 2457 026e 33F81520 		ldrh	r2, [r3, r5, lsl #1]
 2458 0272 0A32     		adds	r2, r2, #10
 2459 0274 12B2     		sxth	r2, r2
 2460 0276 23F81520 		strh	r2, [r3, r5, lsl #1]	@ movhi
 515:Funciones.c   ****                             if(l<Pasos-1)
 2461              		.loc 1 515 0
 2462 027a 0E2F     		cmp	r7, #14
 2463 027c 45D8     		bhi	.L106
 516:Funciones.c   ****                                 Temperatura1[l+1+((Prog-1)*Pasos)]=Temperatura1[l+((Prog-1)*Pasos)]
 2464              		.loc 1 516 0
 2465 027e 7B1C     		adds	r3, r7, #1
 2466 0280 4B44     		add	r3, r3, r9
 2467 0282 1049     		ldr	r1, .L140
 2468 0284 21F81320 		strh	r2, [r1, r3, lsl #1]	@ movhi
 2469 0288 3FE0     		b	.L106
 2470              	.L115:
 517:Funciones.c   ****                         }else if(tdown>30){
 2471              		.loc 1 517 0
 2472 028a 1C4B     		ldr	r3, .L140+56
 2473 028c 1B88     		ldrh	r3, [r3]
 2474 028e 1E2B     		cmp	r3, #30
 2475 0290 38D9     		bls	.L116
 518:Funciones.c   ****                             BUZZER_Write(1);CyDelay(5);BUZZER_Write(0);
 2476              		.loc 1 518 0
 2477 0292 0120     		movs	r0, #1
 2478 0294 FFF7FEFF 		bl	BUZZER_Write
 2479              	.LVL284:
 2480 0298 0520     		movs	r0, #5
 2481 029a FFF7FEFF 		bl	CyDelay
 2482              	.LVL285:
 2483 029e 0020     		movs	r0, #0
 2484 02a0 FFF7FEFF 		bl	BUZZER_Write
 2485              	.LVL286:
 519:Funciones.c   ****                             Temperatura1[l+((Prog-1)*Pasos)]-=10;
 2486              		.loc 1 519 0
 2487 02a4 074B     		ldr	r3, .L140
 2488 02a6 33F81520 		ldrh	r2, [r3, r5, lsl #1]
 2489 02aa 0A3A     		subs	r2, r2, #10
 2490 02ac 12B2     		sxth	r2, r2
 2491 02ae 23F81520 		strh	r2, [r3, r5, lsl #1]	@ movhi
ARM GAS  C:\Users\USUARIO\AppData\Local\Temp\cccXDrki.s 			page 54


 520:Funciones.c   ****                             if(l<Pasos-1)
 2492              		.loc 1 520 0
 2493 02b2 0E2F     		cmp	r7, #14
 2494 02b4 29D8     		bhi	.L106
 521:Funciones.c   ****                                 Temperatura1[l+1+((Prog-1)*Pasos)]=Temperatura1[l+((Prog-1)*Pasos)]
 2495              		.loc 1 521 0
 2496 02b6 7B1C     		adds	r3, r7, #1
 2497 02b8 4B44     		add	r3, r3, r9
 2498 02ba 0249     		ldr	r1, .L140
 2499 02bc 21F81320 		strh	r2, [r1, r3, lsl #1]	@ movhi
 2500 02c0 23E0     		b	.L106
 2501              	.L141:
 2502 02c2 00BF     		.align	2
 2503              	.L140:
 2504 02c4 00000000 		.word	Temperatura1
 2505 02c8 00000000 		.word	Horas1
 2506 02cc 00000000 		.word	Menus
 2507 02d0 20000000 		.word	.LC3
 2508 02d4 24000000 		.word	.LC4
 2509 02d8 30000000 		.word	.LC5
 2510 02dc 34000000 		.word	.LC6
 2511 02e0 44000000 		.word	.LC7
 2512 02e4 4C000000 		.word	.LC8
 2513 02e8 00000000 		.word	Minutos1
 2514 02ec 00000000 		.word	refresh2
 2515 02f0 00000000 		.word	x10
 2516 02f4 00000000 		.word	tup
 2517 02f8 67666666 		.word	1717986919
 2518 02fc 00000000 		.word	tdown
 2519 0300 00000000 		.word	conteoTecla
 2520              	.L116:
 522:Funciones.c   ****                         }else{
 523:Funciones.c   ****                             x10=OFF;
 2521              		.loc 1 523 0
 2522 0304 0022     		movs	r2, #0
 2523 0306 AB4B     		ldr	r3, .L142
 2524 0308 1A80     		strh	r2, [r3]	@ movhi
 2525              	.L106:
 524:Funciones.c   ****                         }
 525:Funciones.c   ****                     }
 526:Funciones.c   ****                 }
 527:Funciones.c   ****          }
 528:Funciones.c   ****          
 529:Funciones.c   ****          if(Opcio==2){
 2526              		.loc 1 529 0
 2527 030a B8F1020F 		cmp	r8, #2
 2528 030e 40F0E880 		bne	.L117
 530:Funciones.c   ****             //if(!refresh2){
 531:Funciones.c   ****                 strcpy(Menus.Letra,"Temperatura:");
 2529              		.loc 1 531 0
 2530 0312 A94C     		ldr	r4, .L142+4
 2531 0314 A94B     		ldr	r3, .L142+8
 2532 0316 07CB     		ldmia	r3!, {r0, r1, r2}
 2533 0318 2060     		str	r0, [r4]	@ unaligned
 2534 031a 6160     		str	r1, [r4, #4]	@ unaligned
 2535 031c A260     		str	r2, [r4, #8]	@ unaligned
 2536 031e 1B78     		ldrb	r3, [r3]	@ zero_extendqisi2
ARM GAS  C:\Users\USUARIO\AppData\Local\Temp\cccXDrki.s 			page 55


 2537 0320 2373     		strb	r3, [r4, #12]
 532:Funciones.c   ****                 displayTemps(Menus.Letra,Temperatura1[l+((Prog-1)*Pasos)],0,32,0,1);
 2538              		.loc 1 532 0
 2539 0322 A74B     		ldr	r3, .L142+12
 2540 0324 33F81510 		ldrh	r1, [r3, r5, lsl #1]
 2541 0328 0126     		movs	r6, #1
 2542 032a 0196     		str	r6, [sp, #4]
 2543 032c 0027     		movs	r7, #0
 2544 032e 0097     		str	r7, [sp]
 2545 0330 2023     		movs	r3, #32
 2546 0332 3A46     		mov	r2, r7
 2547 0334 2046     		mov	r0, r4
 2548 0336 FFF7FEFF 		bl	displayTemps
 2549              	.LVL287:
 533:Funciones.c   ****                 strcpy(Menus.Letra,"Horas:");
 2550              		.loc 1 533 0
 2551 033a A24B     		ldr	r3, .L142+16
 2552 033c 1868     		ldr	r0, [r3]	@ unaligned
 2553 033e 2060     		str	r0, [r4]	@ unaligned
 2554 0340 9A88     		ldrh	r2, [r3, #4]	@ unaligned
 2555 0342 9B79     		ldrb	r3, [r3, #6]	@ zero_extendqisi2
 2556 0344 A280     		strh	r2, [r4, #4]	@ unaligned
 2557 0346 A371     		strb	r3, [r4, #6]
 534:Funciones.c   ****                 displayTemps(Menus.Letra,Horas1[l+((Prog-1)*Pasos)],0,44,11,1);
 2558              		.loc 1 534 0
 2559 0348 9F4B     		ldr	r3, .L142+20
 2560 034a 33F81510 		ldrh	r1, [r3, r5, lsl #1]
 2561 034e 0196     		str	r6, [sp, #4]
 2562 0350 0B23     		movs	r3, #11
 2563 0352 0093     		str	r3, [sp]
 2564 0354 2C23     		movs	r3, #44
 2565 0356 3A46     		mov	r2, r7
 2566 0358 2046     		mov	r0, r4
 2567 035a FFF7FEFF 		bl	displayTemps
 2568              	.LVL288:
 535:Funciones.c   ****                 strcpy(Menus.Letra,"Minutos:");
 2569              		.loc 1 535 0
 2570 035e 9B4B     		ldr	r3, .L142+24
 2571 0360 03CB     		ldmia	r3!, {r0, r1}
 2572 0362 2060     		str	r0, [r4]	@ unaligned
 2573 0364 6160     		str	r1, [r4, #4]	@ unaligned
 2574 0366 1B78     		ldrb	r3, [r3]	@ zero_extendqisi2
 2575 0368 2372     		strb	r3, [r4, #8]
 536:Funciones.c   ****                 displayTemps(Menus.Letra,Minutos1[l+((Prog-1)*Pasos)],0,55,10,1);
 2576              		.loc 1 536 0
 2577 036a 994B     		ldr	r3, .L142+28
 2578 036c 33F81510 		ldrh	r1, [r3, r5, lsl #1]
 2579 0370 0196     		str	r6, [sp, #4]
 2580 0372 0A23     		movs	r3, #10
 2581 0374 0093     		str	r3, [sp]
 2582 0376 3723     		movs	r3, #55
 2583 0378 3A46     		mov	r2, r7
 2584 037a 2046     		mov	r0, r4
 2585 037c FFF7FEFF 		bl	displayTemps
 2586              	.LVL289:
 537:Funciones.c   ****                 refresh2=ON;
 2587              		.loc 1 537 0
ARM GAS  C:\Users\USUARIO\AppData\Local\Temp\cccXDrki.s 			page 56


 2588 0380 944B     		ldr	r3, .L142+32
 2589 0382 1E80     		strh	r6, [r3]	@ movhi
 538:Funciones.c   ****             //}
 539:Funciones.c   ****             
 540:Funciones.c   ****                 if(!x10){
 2590              		.loc 1 540 0
 2591 0384 8B4B     		ldr	r3, .L142
 2592 0386 B3F90030 		ldrsh	r3, [r3]
 2593 038a 002B     		cmp	r3, #0
 2594 038c 4DD1     		bne	.L118
 541:Funciones.c   ****                     if(tup>30){
 2595              		.loc 1 541 0
 2596 038e 924B     		ldr	r3, .L142+36
 2597 0390 1B88     		ldrh	r3, [r3]
 2598 0392 1E2B     		cmp	r3, #30
 2599 0394 20D9     		bls	.L119
 542:Funciones.c   ****                         BUZZER_Write(1);CyDelay(5);BUZZER_Write(0);
 2600              		.loc 1 542 0
 2601 0396 3046     		mov	r0, r6
 2602 0398 FFF7FEFF 		bl	BUZZER_Write
 2603              	.LVL290:
 2604 039c 0520     		movs	r0, #5
 2605 039e FFF7FEFF 		bl	CyDelay
 2606              	.LVL291:
 2607 03a2 3846     		mov	r0, r7
 2608 03a4 FFF7FEFF 		bl	BUZZER_Write
 2609              	.LVL292:
 543:Funciones.c   ****                         Horas1[l+((Prog-1)*Pasos)]++;
 2610              		.loc 1 543 0
 2611 03a8 874A     		ldr	r2, .L142+20
 2612 03aa 32F91530 		ldrsh	r3, [r2, r5, lsl #1]
 2613 03ae 3344     		add	r3, r3, r6
 2614 03b0 1BB2     		sxth	r3, r3
 2615 03b2 22F81530 		strh	r3, [r2, r5, lsl #1]	@ movhi
 544:Funciones.c   ****                         if(Horas1[l+((Prog-1)*Pasos)]%10==0){
 2616              		.loc 1 544 0
 2617 03b6 894A     		ldr	r2, .L142+40
 2618 03b8 82FB0321 		smull	r2, r1, r2, r3
 2619 03bc DA17     		asrs	r2, r3, #31
 2620 03be C2EBA102 		rsb	r2, r2, r1, asr #2
 2621 03c2 02EB8202 		add	r2, r2, r2, lsl #2
 2622 03c6 02FA06F1 		lsl	r1, r2, r6
 2623 03ca 5B1A     		subs	r3, r3, r1
 2624 03cc 1BB2     		sxth	r3, r3
 2625 03ce 002B     		cmp	r3, #0
 2626 03d0 75D1     		bne	.L120
 545:Funciones.c   ****                             x10=ON;
 2627              		.loc 1 545 0
 2628 03d2 784B     		ldr	r3, .L142
 2629 03d4 1E80     		strh	r6, [r3]	@ movhi
 2630 03d6 72E0     		b	.L120
 2631              	.L119:
 546:Funciones.c   ****                         }
 547:Funciones.c   ****                     }else if(tdown>30){
 2632              		.loc 1 547 0
 2633 03d8 814B     		ldr	r3, .L142+44
 2634 03da 1B88     		ldrh	r3, [r3]
ARM GAS  C:\Users\USUARIO\AppData\Local\Temp\cccXDrki.s 			page 57


 2635 03dc 1E2B     		cmp	r3, #30
 2636 03de 20D9     		bls	.L121
 548:Funciones.c   ****                         BUZZER_Write(1);CyDelay(5);BUZZER_Write(0);
 2637              		.loc 1 548 0
 2638 03e0 0120     		movs	r0, #1
 2639 03e2 FFF7FEFF 		bl	BUZZER_Write
 2640              	.LVL293:
 2641 03e6 0520     		movs	r0, #5
 2642 03e8 FFF7FEFF 		bl	CyDelay
 2643              	.LVL294:
 2644 03ec 0020     		movs	r0, #0
 2645 03ee FFF7FEFF 		bl	BUZZER_Write
 2646              	.LVL295:
 549:Funciones.c   ****                         Horas1[l+((Prog-1)*Pasos)]--;
 2647              		.loc 1 549 0
 2648 03f2 754A     		ldr	r2, .L142+20
 2649 03f4 32F91530 		ldrsh	r3, [r2, r5, lsl #1]
 2650 03f8 013B     		subs	r3, r3, #1
 2651 03fa 1BB2     		sxth	r3, r3
 2652 03fc 22F81530 		strh	r3, [r2, r5, lsl #1]	@ movhi
 550:Funciones.c   ****                         if(Horas1[l+((Prog-1)*Pasos)]%10==0){
 2653              		.loc 1 550 0
 2654 0400 764A     		ldr	r2, .L142+40
 2655 0402 82FB0321 		smull	r2, r1, r2, r3
 2656 0406 DA17     		asrs	r2, r3, #31
 2657 0408 C2EBA102 		rsb	r2, r2, r1, asr #2
 2658 040c 02EB8202 		add	r2, r2, r2, lsl #2
 2659 0410 5100     		lsls	r1, r2, #1
 2660 0412 5B1A     		subs	r3, r3, r1
 2661 0414 1BB2     		sxth	r3, r3
 2662 0416 002B     		cmp	r3, #0
 2663 0418 51D1     		bne	.L120
 551:Funciones.c   ****                             x10=ON;
 2664              		.loc 1 551 0
 2665 041a 0122     		movs	r2, #1
 2666 041c 654B     		ldr	r3, .L142
 2667 041e 1A80     		strh	r2, [r3]	@ movhi
 2668 0420 4DE0     		b	.L120
 2669              	.L121:
 552:Funciones.c   ****                         }
 553:Funciones.c   ****                     }else{
 554:Funciones.c   ****                         x10=OFF;
 2670              		.loc 1 554 0
 2671 0422 0022     		movs	r2, #0
 2672 0424 634B     		ldr	r3, .L142
 2673 0426 1A80     		strh	r2, [r3]	@ movhi
 2674 0428 49E0     		b	.L120
 2675              	.L118:
 555:Funciones.c   ****                     }
 556:Funciones.c   ****                 }else{
 557:Funciones.c   ****                     if(tup>30){
 2676              		.loc 1 557 0
 2677 042a 6B4B     		ldr	r3, .L142+36
 2678 042c 1B88     		ldrh	r3, [r3]
 2679 042e 1E2B     		cmp	r3, #30
 2680 0430 07D9     		bls	.L122
 558:Funciones.c   ****                         if(conteoTecla<=100)
ARM GAS  C:\Users\USUARIO\AppData\Local\Temp\cccXDrki.s 			page 58


 2681              		.loc 1 558 0
 2682 0432 6C4A     		ldr	r2, .L142+48
 2683 0434 1278     		ldrb	r2, [r2]	@ zero_extendqisi2
 2684 0436 642A     		cmp	r2, #100
 2685 0438 14D8     		bhi	.L123
 559:Funciones.c   ****                             conteoTecla++;
 2686              		.loc 1 559 0
 2687 043a 0132     		adds	r2, r2, #1
 2688 043c 6949     		ldr	r1, .L142+48
 2689 043e 0A70     		strb	r2, [r1]
 2690 0440 10E0     		b	.L123
 2691              	.L122:
 560:Funciones.c   ****                     }else if(tdown>30){
 2692              		.loc 1 560 0
 2693 0442 674A     		ldr	r2, .L142+44
 2694 0444 1288     		ldrh	r2, [r2]
 2695 0446 1E2A     		cmp	r2, #30
 2696 0448 07D9     		bls	.L124
 561:Funciones.c   ****                         if(conteoTecla<=100)
 2697              		.loc 1 561 0
 2698 044a 664A     		ldr	r2, .L142+48
 2699 044c 1278     		ldrb	r2, [r2]	@ zero_extendqisi2
 2700 044e 642A     		cmp	r2, #100
 2701 0450 08D8     		bhi	.L123
 562:Funciones.c   ****                             conteoTecla++;
 2702              		.loc 1 562 0
 2703 0452 0132     		adds	r2, r2, #1
 2704 0454 6349     		ldr	r1, .L142+48
 2705 0456 0A70     		strb	r2, [r1]
 2706 0458 04E0     		b	.L123
 2707              	.L124:
 563:Funciones.c   ****                     }else{
 564:Funciones.c   ****                         conteoTecla=0;
 2708              		.loc 1 564 0
 2709 045a 0022     		movs	r2, #0
 2710 045c 6149     		ldr	r1, .L142+48
 2711 045e 0A70     		strb	r2, [r1]
 565:Funciones.c   ****                         x10=OFF;
 2712              		.loc 1 565 0
 2713 0460 5449     		ldr	r1, .L142
 2714 0462 0A80     		strh	r2, [r1]	@ movhi
 2715              	.L123:
 566:Funciones.c   ****                     }
 567:Funciones.c   ****              
 568:Funciones.c   ****                     if(conteoTecla>4){
 2716              		.loc 1 568 0
 2717 0464 5F4A     		ldr	r2, .L142+48
 2718 0466 1278     		ldrb	r2, [r2]	@ zero_extendqisi2
 2719 0468 042A     		cmp	r2, #4
 2720 046a 28D9     		bls	.L120
 569:Funciones.c   ****                         if(tup>30){                            
 2721              		.loc 1 569 0
 2722 046c 1E2B     		cmp	r3, #30
 2723 046e 0FD9     		bls	.L125
 570:Funciones.c   ****                             BUZZER_Write(1);CyDelay(5);BUZZER_Write(0);
 2724              		.loc 1 570 0
 2725 0470 0120     		movs	r0, #1
ARM GAS  C:\Users\USUARIO\AppData\Local\Temp\cccXDrki.s 			page 59


 2726 0472 FFF7FEFF 		bl	BUZZER_Write
 2727              	.LVL296:
 2728 0476 0520     		movs	r0, #5
 2729 0478 FFF7FEFF 		bl	CyDelay
 2730              	.LVL297:
 2731 047c 0020     		movs	r0, #0
 2732 047e FFF7FEFF 		bl	BUZZER_Write
 2733              	.LVL298:
 571:Funciones.c   ****                             Horas1[l+((Prog-1)*Pasos)]+=10;
 2734              		.loc 1 571 0
 2735 0482 514A     		ldr	r2, .L142+20
 2736 0484 32F81530 		ldrh	r3, [r2, r5, lsl #1]
 2737 0488 0A33     		adds	r3, r3, #10
 2738 048a 22F81530 		strh	r3, [r2, r5, lsl #1]	@ movhi
 2739 048e 16E0     		b	.L120
 2740              	.L125:
 572:Funciones.c   ****                         }else if(tdown>30){
 2741              		.loc 1 572 0
 2742 0490 534B     		ldr	r3, .L142+44
 2743 0492 1B88     		ldrh	r3, [r3]
 2744 0494 1E2B     		cmp	r3, #30
 2745 0496 0FD9     		bls	.L126
 573:Funciones.c   ****                             BUZZER_Write(1);CyDelay(5);BUZZER_Write(0);
 2746              		.loc 1 573 0
 2747 0498 0120     		movs	r0, #1
 2748 049a FFF7FEFF 		bl	BUZZER_Write
 2749              	.LVL299:
 2750 049e 0520     		movs	r0, #5
 2751 04a0 FFF7FEFF 		bl	CyDelay
 2752              	.LVL300:
 2753 04a4 0020     		movs	r0, #0
 2754 04a6 FFF7FEFF 		bl	BUZZER_Write
 2755              	.LVL301:
 574:Funciones.c   ****                             Horas1[l+((Prog-1)*Pasos)]-=10;
 2756              		.loc 1 574 0
 2757 04aa 474A     		ldr	r2, .L142+20
 2758 04ac 32F81530 		ldrh	r3, [r2, r5, lsl #1]
 2759 04b0 0A3B     		subs	r3, r3, #10
 2760 04b2 22F81530 		strh	r3, [r2, r5, lsl #1]	@ movhi
 2761 04b6 02E0     		b	.L120
 2762              	.L126:
 575:Funciones.c   ****                         }else{
 576:Funciones.c   ****                             x10=OFF;
 2763              		.loc 1 576 0
 2764 04b8 0022     		movs	r2, #0
 2765 04ba 3E4B     		ldr	r3, .L142
 2766 04bc 1A80     		strh	r2, [r3]	@ movhi
 2767              	.L120:
 577:Funciones.c   ****                         }
 578:Funciones.c   ****                     }
 579:Funciones.c   ****                 }
 580:Funciones.c   ****             
 581:Funciones.c   ****             if(Horas1[l+((Prog-1)*Pasos)]>99)
 2768              		.loc 1 581 0
 2769 04be 424B     		ldr	r3, .L142+20
 2770 04c0 33F91530 		ldrsh	r3, [r3, r5, lsl #1]
 2771 04c4 632B     		cmp	r3, #99
ARM GAS  C:\Users\USUARIO\AppData\Local\Temp\cccXDrki.s 			page 60


 2772 04c6 03DD     		ble	.L127
 582:Funciones.c   ****                   Horas1[l+((Prog-1)*Pasos)]=0;
 2773              		.loc 1 582 0
 2774 04c8 0022     		movs	r2, #0
 2775 04ca 3F4B     		ldr	r3, .L142+20
 2776 04cc 23F81520 		strh	r2, [r3, r5, lsl #1]	@ movhi
 2777              	.L127:
 583:Funciones.c   ****                 
 584:Funciones.c   ****             if(Horas1[l+((Prog-1)*Pasos)]<0)
 2778              		.loc 1 584 0
 2779 04d0 3D4B     		ldr	r3, .L142+20
 2780 04d2 33F91530 		ldrsh	r3, [r3, r5, lsl #1]
 2781 04d6 002B     		cmp	r3, #0
 2782 04d8 03DA     		bge	.L117
 585:Funciones.c   ****                   Horas1[l+((Prog-1)*Pasos)]=99;    
 2783              		.loc 1 585 0
 2784 04da 6322     		movs	r2, #99
 2785 04dc 3A4B     		ldr	r3, .L142+20
 2786 04de 23F81520 		strh	r2, [r3, r5, lsl #1]	@ movhi
 2787              	.L117:
 586:Funciones.c   ****          }
 587:Funciones.c   ****          
 588:Funciones.c   ****          if(Opcio==3){
 2788              		.loc 1 588 0
 2789 04e2 B8F1030F 		cmp	r8, #3
 2790 04e6 40F00481 		bne	.L101
 589:Funciones.c   ****             //if(!refresh2){
 590:Funciones.c   ****                 strcpy(Menus.Letra,"Temperatura:");
 2791              		.loc 1 590 0
 2792 04ea 334C     		ldr	r4, .L142+4
 2793 04ec 334B     		ldr	r3, .L142+8
 2794 04ee 07CB     		ldmia	r3!, {r0, r1, r2}
 2795 04f0 2060     		str	r0, [r4]	@ unaligned
 2796 04f2 6160     		str	r1, [r4, #4]	@ unaligned
 2797 04f4 A260     		str	r2, [r4, #8]	@ unaligned
 2798 04f6 1B78     		ldrb	r3, [r3]	@ zero_extendqisi2
 2799 04f8 2373     		strb	r3, [r4, #12]
 591:Funciones.c   ****                 displayTemps(Menus.Letra,Temperatura1[l+((Prog-1)*Pasos)],0,32,0,1);
 2800              		.loc 1 591 0
 2801 04fa 314B     		ldr	r3, .L142+12
 2802 04fc 33F81510 		ldrh	r1, [r3, r5, lsl #1]
 2803 0500 0126     		movs	r6, #1
 2804 0502 0196     		str	r6, [sp, #4]
 2805 0504 0027     		movs	r7, #0
 2806 0506 0097     		str	r7, [sp]
 2807 0508 2023     		movs	r3, #32
 2808 050a 3A46     		mov	r2, r7
 2809 050c 2046     		mov	r0, r4
 2810 050e FFF7FEFF 		bl	displayTemps
 2811              	.LVL302:
 592:Funciones.c   ****                 strcpy(Menus.Letra,"Horas:");
 2812              		.loc 1 592 0
 2813 0512 2C4B     		ldr	r3, .L142+16
 2814 0514 1868     		ldr	r0, [r3]	@ unaligned
 2815 0516 2060     		str	r0, [r4]	@ unaligned
 2816 0518 9A88     		ldrh	r2, [r3, #4]	@ unaligned
 2817 051a 9B79     		ldrb	r3, [r3, #6]	@ zero_extendqisi2
ARM GAS  C:\Users\USUARIO\AppData\Local\Temp\cccXDrki.s 			page 61


 2818 051c A280     		strh	r2, [r4, #4]	@ unaligned
 2819 051e A371     		strb	r3, [r4, #6]
 593:Funciones.c   ****                 displayTemps(Menus.Letra,Horas1[l+((Prog-1)*Pasos)],0,44,10,1);
 2820              		.loc 1 593 0
 2821 0520 294B     		ldr	r3, .L142+20
 2822 0522 33F81510 		ldrh	r1, [r3, r5, lsl #1]
 2823 0526 0196     		str	r6, [sp, #4]
 2824 0528 0A23     		movs	r3, #10
 2825 052a 0093     		str	r3, [sp]
 2826 052c 2C23     		movs	r3, #44
 2827 052e 3A46     		mov	r2, r7
 2828 0530 2046     		mov	r0, r4
 2829 0532 FFF7FEFF 		bl	displayTemps
 2830              	.LVL303:
 594:Funciones.c   ****                 strcpy(Menus.Letra,"Minutos:");
 2831              		.loc 1 594 0
 2832 0536 254B     		ldr	r3, .L142+24
 2833 0538 03CB     		ldmia	r3!, {r0, r1}
 2834 053a 2060     		str	r0, [r4]	@ unaligned
 2835 053c 6160     		str	r1, [r4, #4]	@ unaligned
 2836 053e 1B78     		ldrb	r3, [r3]	@ zero_extendqisi2
 2837 0540 2372     		strb	r3, [r4, #8]
 595:Funciones.c   ****                 displayTemps(Menus.Letra,Minutos1[l+((Prog-1)*Pasos)],0,55,11,1);
 2838              		.loc 1 595 0
 2839 0542 234B     		ldr	r3, .L142+28
 2840 0544 33F81510 		ldrh	r1, [r3, r5, lsl #1]
 2841 0548 0196     		str	r6, [sp, #4]
 2842 054a 0B23     		movs	r3, #11
 2843 054c 0093     		str	r3, [sp]
 2844 054e 3723     		movs	r3, #55
 2845 0550 3A46     		mov	r2, r7
 2846 0552 2046     		mov	r0, r4
 2847 0554 FFF7FEFF 		bl	displayTemps
 2848              	.LVL304:
 596:Funciones.c   ****                 refresh2=ON;
 2849              		.loc 1 596 0
 2850 0558 1E4B     		ldr	r3, .L142+32
 2851 055a 1E80     		strh	r6, [r3]	@ movhi
 597:Funciones.c   ****             //}
 598:Funciones.c   ****             
 599:Funciones.c   ****                 if(!x10){
 2852              		.loc 1 599 0
 2853 055c 154B     		ldr	r3, .L142
 2854 055e B3F90030 		ldrsh	r3, [r3]
 2855 0562 002B     		cmp	r3, #0
 2856 0564 69D1     		bne	.L129
 600:Funciones.c   ****                     if(tup>30){
 2857              		.loc 1 600 0
 2858 0566 1C4B     		ldr	r3, .L142+36
 2859 0568 1B88     		ldrh	r3, [r3]
 2860 056a 1E2B     		cmp	r3, #30
 2861 056c 3CD9     		bls	.L130
 601:Funciones.c   ****                         BUZZER_Write(1);CyDelay(5);BUZZER_Write(0);
 2862              		.loc 1 601 0
 2863 056e 3046     		mov	r0, r6
 2864 0570 FFF7FEFF 		bl	BUZZER_Write
 2865              	.LVL305:
ARM GAS  C:\Users\USUARIO\AppData\Local\Temp\cccXDrki.s 			page 62


 2866 0574 0520     		movs	r0, #5
 2867 0576 FFF7FEFF 		bl	CyDelay
 2868              	.LVL306:
 2869 057a 3846     		mov	r0, r7
 2870 057c FFF7FEFF 		bl	BUZZER_Write
 2871              	.LVL307:
 602:Funciones.c   ****                         Minutos1[l+((Prog-1)*Pasos)]++;
 2872              		.loc 1 602 0
 2873 0580 134A     		ldr	r2, .L142+28
 2874 0582 32F91530 		ldrsh	r3, [r2, r5, lsl #1]
 2875 0586 3344     		add	r3, r3, r6
 2876 0588 1BB2     		sxth	r3, r3
 2877 058a 22F81530 		strh	r3, [r2, r5, lsl #1]	@ movhi
 603:Funciones.c   ****                         if(Minutos1[l+((Prog-1)*Pasos)]%10==0){
 2878              		.loc 1 603 0
 2879 058e 134A     		ldr	r2, .L142+40
 2880 0590 82FB0321 		smull	r2, r1, r2, r3
 2881 0594 DA17     		asrs	r2, r3, #31
 2882 0596 C2EBA102 		rsb	r2, r2, r1, asr #2
 2883 059a 02EB8202 		add	r2, r2, r2, lsl #2
 2884 059e 02FA06F1 		lsl	r1, r2, r6
 2885 05a2 5B1A     		subs	r3, r3, r1
 2886 05a4 1BB2     		sxth	r3, r3
 2887 05a6 002B     		cmp	r3, #0
 2888 05a8 40F09180 		bne	.L131
 604:Funciones.c   ****                             x10=ON;
 2889              		.loc 1 604 0
 2890 05ac 014B     		ldr	r3, .L142
 2891 05ae 1E80     		strh	r6, [r3]	@ movhi
 2892 05b0 8DE0     		b	.L131
 2893              	.L143:
 2894 05b2 00BF     		.align	2
 2895              	.L142:
 2896 05b4 00000000 		.word	x10
 2897 05b8 00000000 		.word	Menus
 2898 05bc 34000000 		.word	.LC6
 2899 05c0 00000000 		.word	Temperatura1
 2900 05c4 44000000 		.word	.LC7
 2901 05c8 00000000 		.word	Horas1
 2902 05cc 4C000000 		.word	.LC8
 2903 05d0 00000000 		.word	Minutos1
 2904 05d4 00000000 		.word	refresh2
 2905 05d8 00000000 		.word	tup
 2906 05dc 67666666 		.word	1717986919
 2907 05e0 00000000 		.word	tdown
 2908 05e4 00000000 		.word	conteoTecla
 2909              	.L130:
 605:Funciones.c   ****                         }
 606:Funciones.c   ****                     }else if(tdown>30){
 2910              		.loc 1 606 0
 2911 05e8 434B     		ldr	r3, .L144
 2912 05ea 1B88     		ldrh	r3, [r3]
 2913 05ec 1E2B     		cmp	r3, #30
 2914 05ee 20D9     		bls	.L132
 607:Funciones.c   ****                         BUZZER_Write(1);CyDelay(5);BUZZER_Write(0);
 2915              		.loc 1 607 0
 2916 05f0 0120     		movs	r0, #1
ARM GAS  C:\Users\USUARIO\AppData\Local\Temp\cccXDrki.s 			page 63


 2917 05f2 FFF7FEFF 		bl	BUZZER_Write
 2918              	.LVL308:
 2919 05f6 0520     		movs	r0, #5
 2920 05f8 FFF7FEFF 		bl	CyDelay
 2921              	.LVL309:
 2922 05fc 0020     		movs	r0, #0
 2923 05fe FFF7FEFF 		bl	BUZZER_Write
 2924              	.LVL310:
 608:Funciones.c   ****                         Minutos1[l+((Prog-1)*Pasos)]--;
 2925              		.loc 1 608 0
 2926 0602 3E4A     		ldr	r2, .L144+4
 2927 0604 32F91530 		ldrsh	r3, [r2, r5, lsl #1]
 2928 0608 013B     		subs	r3, r3, #1
 2929 060a 1BB2     		sxth	r3, r3
 2930 060c 22F81530 		strh	r3, [r2, r5, lsl #1]	@ movhi
 609:Funciones.c   ****                         if(Minutos1[l+((Prog-1)*Pasos)]%10==0){
 2931              		.loc 1 609 0
 2932 0610 3B4A     		ldr	r2, .L144+8
 2933 0612 82FB0321 		smull	r2, r1, r2, r3
 2934 0616 DA17     		asrs	r2, r3, #31
 2935 0618 C2EBA102 		rsb	r2, r2, r1, asr #2
 2936 061c 02EB8202 		add	r2, r2, r2, lsl #2
 2937 0620 5100     		lsls	r1, r2, #1
 2938 0622 5B1A     		subs	r3, r3, r1
 2939 0624 1BB2     		sxth	r3, r3
 2940 0626 002B     		cmp	r3, #0
 2941 0628 51D1     		bne	.L131
 610:Funciones.c   ****                             x10=ON;
 2942              		.loc 1 610 0
 2943 062a 0122     		movs	r2, #1
 2944 062c 354B     		ldr	r3, .L144+12
 2945 062e 1A80     		strh	r2, [r3]	@ movhi
 2946 0630 4DE0     		b	.L131
 2947              	.L132:
 611:Funciones.c   ****                         }
 612:Funciones.c   ****                     }else{
 613:Funciones.c   ****                         x10=OFF;
 2948              		.loc 1 613 0
 2949 0632 0022     		movs	r2, #0
 2950 0634 334B     		ldr	r3, .L144+12
 2951 0636 1A80     		strh	r2, [r3]	@ movhi
 2952 0638 49E0     		b	.L131
 2953              	.L129:
 614:Funciones.c   ****                     }
 615:Funciones.c   ****                 }else{
 616:Funciones.c   ****                     if(tup>30){
 2954              		.loc 1 616 0
 2955 063a 334B     		ldr	r3, .L144+16
 2956 063c 1B88     		ldrh	r3, [r3]
 2957 063e 1E2B     		cmp	r3, #30
 2958 0640 07D9     		bls	.L133
 617:Funciones.c   ****                         if(conteoTecla<=100)
 2959              		.loc 1 617 0
 2960 0642 324A     		ldr	r2, .L144+20
 2961 0644 1278     		ldrb	r2, [r2]	@ zero_extendqisi2
 2962 0646 642A     		cmp	r2, #100
 2963 0648 14D8     		bhi	.L134
ARM GAS  C:\Users\USUARIO\AppData\Local\Temp\cccXDrki.s 			page 64


 618:Funciones.c   ****                             conteoTecla++;
 2964              		.loc 1 618 0
 2965 064a 0132     		adds	r2, r2, #1
 2966 064c 2F49     		ldr	r1, .L144+20
 2967 064e 0A70     		strb	r2, [r1]
 2968 0650 10E0     		b	.L134
 2969              	.L133:
 619:Funciones.c   ****                     }else if(tdown>30){
 2970              		.loc 1 619 0
 2971 0652 294A     		ldr	r2, .L144
 2972 0654 1288     		ldrh	r2, [r2]
 2973 0656 1E2A     		cmp	r2, #30
 2974 0658 07D9     		bls	.L135
 620:Funciones.c   ****                         if(conteoTecla<=100)
 2975              		.loc 1 620 0
 2976 065a 2C4A     		ldr	r2, .L144+20
 2977 065c 1278     		ldrb	r2, [r2]	@ zero_extendqisi2
 2978 065e 642A     		cmp	r2, #100
 2979 0660 08D8     		bhi	.L134
 621:Funciones.c   ****                             conteoTecla++;
 2980              		.loc 1 621 0
 2981 0662 0132     		adds	r2, r2, #1
 2982 0664 2949     		ldr	r1, .L144+20
 2983 0666 0A70     		strb	r2, [r1]
 2984 0668 04E0     		b	.L134
 2985              	.L135:
 622:Funciones.c   ****                     }else{
 623:Funciones.c   ****                         conteoTecla=0;
 2986              		.loc 1 623 0
 2987 066a 0022     		movs	r2, #0
 2988 066c 2749     		ldr	r1, .L144+20
 2989 066e 0A70     		strb	r2, [r1]
 624:Funciones.c   ****                         x10=OFF;
 2990              		.loc 1 624 0
 2991 0670 2449     		ldr	r1, .L144+12
 2992 0672 0A80     		strh	r2, [r1]	@ movhi
 2993              	.L134:
 625:Funciones.c   ****                     }
 626:Funciones.c   ****              
 627:Funciones.c   ****                     if(conteoTecla>4){
 2994              		.loc 1 627 0
 2995 0674 254A     		ldr	r2, .L144+20
 2996 0676 1278     		ldrb	r2, [r2]	@ zero_extendqisi2
 2997 0678 042A     		cmp	r2, #4
 2998 067a 28D9     		bls	.L131
 628:Funciones.c   ****                         if(tup>30){                            
 2999              		.loc 1 628 0
 3000 067c 1E2B     		cmp	r3, #30
 3001 067e 0FD9     		bls	.L136
 629:Funciones.c   ****                             BUZZER_Write(1);CyDelay(5);BUZZER_Write(0);
 3002              		.loc 1 629 0
 3003 0680 0120     		movs	r0, #1
 3004 0682 FFF7FEFF 		bl	BUZZER_Write
 3005              	.LVL311:
 3006 0686 0520     		movs	r0, #5
 3007 0688 FFF7FEFF 		bl	CyDelay
 3008              	.LVL312:
ARM GAS  C:\Users\USUARIO\AppData\Local\Temp\cccXDrki.s 			page 65


 3009 068c 0020     		movs	r0, #0
 3010 068e FFF7FEFF 		bl	BUZZER_Write
 3011              	.LVL313:
 630:Funciones.c   ****                             Minutos1[l+((Prog-1)*Pasos)]+=10;
 3012              		.loc 1 630 0
 3013 0692 1A4A     		ldr	r2, .L144+4
 3014 0694 32F81530 		ldrh	r3, [r2, r5, lsl #1]
 3015 0698 0A33     		adds	r3, r3, #10
 3016 069a 22F81530 		strh	r3, [r2, r5, lsl #1]	@ movhi
 3017 069e 16E0     		b	.L131
 3018              	.L136:
 631:Funciones.c   ****                         }else if(tdown>30){
 3019              		.loc 1 631 0
 3020 06a0 154B     		ldr	r3, .L144
 3021 06a2 1B88     		ldrh	r3, [r3]
 3022 06a4 1E2B     		cmp	r3, #30
 3023 06a6 0FD9     		bls	.L137
 632:Funciones.c   ****                             BUZZER_Write(1);CyDelay(5);BUZZER_Write(0);
 3024              		.loc 1 632 0
 3025 06a8 0120     		movs	r0, #1
 3026 06aa FFF7FEFF 		bl	BUZZER_Write
 3027              	.LVL314:
 3028 06ae 0520     		movs	r0, #5
 3029 06b0 FFF7FEFF 		bl	CyDelay
 3030              	.LVL315:
 3031 06b4 0020     		movs	r0, #0
 3032 06b6 FFF7FEFF 		bl	BUZZER_Write
 3033              	.LVL316:
 633:Funciones.c   ****                             Minutos1[l+((Prog-1)*Pasos)]-=10;
 3034              		.loc 1 633 0
 3035 06ba 104A     		ldr	r2, .L144+4
 3036 06bc 32F81530 		ldrh	r3, [r2, r5, lsl #1]
 3037 06c0 0A3B     		subs	r3, r3, #10
 3038 06c2 22F81530 		strh	r3, [r2, r5, lsl #1]	@ movhi
 3039 06c6 02E0     		b	.L131
 3040              	.L137:
 634:Funciones.c   ****                         }else{
 635:Funciones.c   ****                             x10=OFF;
 3041              		.loc 1 635 0
 3042 06c8 0022     		movs	r2, #0
 3043 06ca 0E4B     		ldr	r3, .L144+12
 3044 06cc 1A80     		strh	r2, [r3]	@ movhi
 3045              	.L131:
 636:Funciones.c   ****                         }
 637:Funciones.c   ****                     }
 638:Funciones.c   ****                 }
 639:Funciones.c   ****                 
 640:Funciones.c   ****             if(Minutos1[l+((Prog-1)*Pasos)]>59)
 3046              		.loc 1 640 0
 3047 06ce 0B4B     		ldr	r3, .L144+4
 3048 06d0 33F91530 		ldrsh	r3, [r3, r5, lsl #1]
 3049 06d4 3B2B     		cmp	r3, #59
 3050 06d6 03DD     		ble	.L138
 641:Funciones.c   ****                   Minutos1[l+((Prog-1)*Pasos)]=0;
 3051              		.loc 1 641 0
 3052 06d8 0022     		movs	r2, #0
 3053 06da 084B     		ldr	r3, .L144+4
ARM GAS  C:\Users\USUARIO\AppData\Local\Temp\cccXDrki.s 			page 66


 3054 06dc 23F81520 		strh	r2, [r3, r5, lsl #1]	@ movhi
 3055              	.L138:
 642:Funciones.c   ****             if(Minutos1[l+((Prog-1)*Pasos)]<0)
 3056              		.loc 1 642 0
 3057 06e0 064B     		ldr	r3, .L144+4
 3058 06e2 33F91530 		ldrsh	r3, [r3, r5, lsl #1]
 3059 06e6 002B     		cmp	r3, #0
 3060 06e8 03DA     		bge	.L101
 643:Funciones.c   ****                   Minutos1[l+((Prog-1)*Pasos)]=59;    
 3061              		.loc 1 643 0
 3062 06ea 3B22     		movs	r2, #59
 3063 06ec 034B     		ldr	r3, .L144+4
 3064 06ee 23F81520 		strh	r2, [r3, r5, lsl #1]	@ movhi
 3065              	.L101:
 644:Funciones.c   ****          }
 645:Funciones.c   **** }
 3066              		.loc 1 645 0
 3067 06f2 02B0     		add	sp, sp, #8
 3068              		.cfi_def_cfa_offset 32
 3069              		@ sp needed
 3070 06f4 BDE8F087 		pop	{r4, r5, r6, r7, r8, r9, r10, pc}
 3071              	.L145:
 3072              		.align	2
 3073              	.L144:
 3074 06f8 00000000 		.word	tdown
 3075 06fc 00000000 		.word	Minutos1
 3076 0700 67666666 		.word	1717986919
 3077 0704 00000000 		.word	x10
 3078 0708 00000000 		.word	tup
 3079 070c 00000000 		.word	conteoTecla
 3080              		.cfi_endproc
 3081              	.LFE70:
 3082              		.size	MuestraSegmento, .-MuestraSegmento
 3083              		.comm	displayData,1024,4
 3084              		.comm	Menus,30,4
 3085              		.section	.rodata.str1.4,"aMS",%progbits,1
 3086              		.align	2
 3087              	.LC0:
 3088 0000 436C6176 		.ascii	"Clave\000"
 3088      6500
 3089 0006 0000     		.space	2
 3090              	.LC1:
 3091 0008 436F7272 		.ascii	"Correcta\000"
 3091      65637461 
 3091      00
 3092 0011 000000   		.space	3
 3093              	.LC2:
 3094 0014 496E636F 		.ascii	"Incorrecta\000"
 3094      72726563 
 3094      746100
 3095 001f 00       		.space	1
 3096              	.LC3:
 3097 0020 50203000 		.ascii	"P 0\000"
 3098              	.LC4:
 3099 0024 5365676D 		.ascii	"Segmento \000"
 3099      656E746F 
 3099      2000
ARM GAS  C:\Users\USUARIO\AppData\Local\Temp\cccXDrki.s 			page 67


 3100 002e 0000     		.space	2
 3101              	.LC5:
 3102 0030 54413A00 		.ascii	"TA:\000"
 3103              	.LC6:
 3104 0034 54656D70 		.ascii	"Temperatura:\000"
 3104      65726174 
 3104      7572613A 
 3104      00
 3105 0041 000000   		.space	3
 3106              	.LC7:
 3107 0044 486F7261 		.ascii	"Horas:\000"
 3107      733A00
 3108 004b 00       		.space	1
 3109              	.LC8:
 3110 004c 4D696E75 		.ascii	"Minutos:\000"
 3110      746F733A 
 3110      00
 3111              		.text
 3112              	.Letext0:
 3113              		.file 2 "c:\\program files (x86)\\cypress\\psoc creator\\4.4\\psoc creator\\import\\gnu\\arm\\5.4.
 3114              		.file 3 "c:\\program files (x86)\\cypress\\psoc creator\\4.4\\psoc creator\\import\\gnu\\arm\\5.4.
 3115              		.file 4 "Generated_Source\\PSoC5/cytypes.h"
 3116              		.file 5 "./main.h"
 3117              		.file 6 "./ks0108.h"
 3118              		.file 7 "Generated_Source\\PSoC5/core_cm3.h"
 3119              		.file 8 "Generated_Source\\PSoC5/CyLib.h"
 3120              		.file 9 "Generated_Source\\PSoC5/EEPROM.h"
 3121              		.file 10 "Generated_Source\\PSoC5/UP.h"
 3122              		.file 11 "Generated_Source\\PSoC5/DOWN.h"
 3123              		.file 12 "Generated_Source\\PSoC5/RIGHT.h"
 3124              		.file 13 "Generated_Source\\PSoC5/LEFT.h"
 3125              		.file 14 "Generated_Source\\PSoC5/BUZZER.h"