ARM GAS  C:\Users\USUARIO\AppData\Local\Temp\cc8Cohj2.s 			page 1


   1              		.syntax unified
   2              		.cpu cortex-m3
   3              		.fpu softvfp
   4              		.eabi_attribute 20, 1
   5              		.eabi_attribute 21, 1
   6              		.eabi_attribute 23, 3
   7              		.eabi_attribute 24, 1
   8              		.eabi_attribute 25, 1
   9              		.eabi_attribute 26, 1
  10              		.eabi_attribute 30, 1
  11              		.eabi_attribute 34, 1
  12              		.eabi_attribute 18, 4
  13              		.thumb
  14              		.syntax unified
  15              		.file	"main.c"
  16              		.text
  17              	.Ltext0:
  18              		.cfi_sections	.debug_frame
  19              		.syntax unified
  20              		.global _printf_float
  21              		.thumb
  22              		.syntax unified
  23              		.section	.text.ADC_SAR_ISR_LOC,"ax",%progbits
  24              		.align	2
  25              		.global	ADC_SAR_ISR_LOC
  26              		.thumb
  27              		.thumb_func
  28              		.type	ADC_SAR_ISR_LOC, %function
  29              	ADC_SAR_ISR_LOC:
  30              	.LFB64:
  31              		.file 1 "main.c"
   1:main.c        **** 
   2:main.c        **** /* ========================================
   3:main.c        ****  *
   4:main.c        ****  * Copyright JP Bioingenieria SAS, 2020
   5:main.c        ****  * All Rights Reserved
   6:main.c        ****  * UNPUBLISHED, LICENSED SOFTWARE.
   7:main.c        ****  *
   8:main.c        ****  * Para calibrar la temperatura de la mufla de acuerdo a un patron de temperatura se debe realizar 
   9:main.c        ****  * Se mide con el patron la temperatura en dos puntos y se registran las diferencias con respecto a
  10:main.c        ****  * Se dibuja una grafica XY, donde en el eje Y este la temperatura del control y en el eje X la tem
  11:main.c        ****  * Se traza la recta con los valores obtenidos y se calcula la pendiente m y el punto de corte b, e
  12:main.c        ****  * a  la lectura de la termocupla de acuerdo a la siguiente ecuacion: T=(Tcontrol-b)/m;
  13:main.c        ****  *
  14:main.c        ****  * Este programa activa el extractor de una campana externa. El extractor estara activado durante t
  15:main.c        ****  * funcionamiento (Menu==20), una vez termine todas las rampas, comenzara a correr el tiempo config
  16:main.c        ****  * vez acabe el tiempo apagara automaticamente el extractor.
  17:main.c        ****  * ========================================
  18:main.c        **** */
  19:main.c        **** #include <device.h>
  20:main.c        **** #include <stdio.h>
  21:main.c        **** #include <main.h>
  22:main.c        **** #include <math.h>
  23:main.c        **** #include <stdlib.h>
  24:main.c        **** #include <string.h>
  25:main.c        **** #include <Funciones.h>
  26:main.c        **** #include "ks0108.h"
ARM GAS  C:\Users\USUARIO\AppData\Local\Temp\cc8Cohj2.s 			page 2


  27:main.c        **** 
  28:main.c        **** #if defined (__GNUC__)
  29:main.c        ****     /* Add an explicit reference to the floating point printf library */
  30:main.c        ****     /* to allow the usage of floating point conversion specifiers. */
  31:main.c        ****     /* This is not linked in by default with the newlib-nano library. */
  32:main.c        ****     asm (".global _printf_float");
  33:main.c        **** #endif
  34:main.c        **** 
  35:main.c        **** #define OFF 0
  36:main.c        **** #define ON  1
  37:main.c        **** 
  38:main.c        **** int8  Testerilizacion[4]={0,0,0,0};   // Tiempo transcurrido
  39:main.c        **** int8  Testerilizacionp[4]={0,0,0,0};   // Tiempo transcurrido
  40:main.c        **** int8  Contrasena[4]={0,0,0,0};      // Contrasena de 4 digitos
  41:main.c        **** 
  42:main.c        **** int16 offset;
  43:main.c        **** int16 coldJnTemp;
  44:main.c        **** int32 tcColdJnuVolt;
  45:main.c        **** int32 hotJnCount;
  46:main.c        **** int32 filHotJnCount;
  47:main.c        **** int32 tcHotJnuVolt;
  48:main.c        **** int32 tcuVolt;
  49:main.c        **** int32 tcTemp;
  50:main.c        **** char displayStr[100];	
  51:main.c        **** uint8 first = 0;
  52:main.c        **** extern uint8 const CYCODE LCD_customFonts[];  
  53:main.c        **** uint8_t i,pwm1,pwm2,n,PantallaPrincipal,Programa,Opcion2,Derivativo,Integral,MediaMovil,Tciclo,Ajus
  54:main.c        **** uint16 ctr,Setpoint;
  55:main.c        **** uint32_t output,tGrafica;
  56:main.c        **** short flagButton0,flagButton1,flagButton2,flagButton3,dibujo,pulsoAumentar,pulsoDisminuir,flagBorra
  57:main.c        **** short Flanco,Flanco1,Flanco2,Flanco3,flagFinalizo,visual,refresh,refresh2;
  58:main.c        **** float valor,pendiente,b,Ganancia,GananciaIn,b1,b2;
  59:main.c        **** 
  60:main.c        **** #define RX_BUFFER_SIZE  10
  61:main.c        **** char Rx_Buffer[RX_BUFFER_SIZE+1];
  62:main.c        **** char Rx_Buffer2[RX_BUFFER_SIZE+1];
  63:main.c        **** uint8 RX_Wr_Index=0;
  64:main.c        **** uint8 RX_Rd_Index=0;
  65:main.c        **** uint8 RX_Counter=0;
  66:main.c        **** 
  67:main.c        **** char Rx_Buffer3[RX_BUFFER_SIZE+1];
  68:main.c        **** char Rx_Buffer4[RX_BUFFER_SIZE+1];
  69:main.c        **** uint8 RX_Wr_Index2=0;
  70:main.c        **** uint8 RX_Rd_Index2=0;
  71:main.c        **** uint8 RX_Counter2=0;
  72:main.c        **** 
  73:main.c        **** int8  Tempoc[4];
  74:main.c        **** int8  Tempocp[4];
  75:main.c        **** char Dos_puntos[]=":";
  76:main.c        **** uint8 i2cbuf[4];
  77:main.c        **** float promedio[90];
  78:main.c        **** 
  79:main.c        **** uint8 Dato2,Dato3,Dato_Exitoso,Dato_Exitoso2,Menu,MenuAntt,MenuAnt,Menu2,MenuAntt2,z,TipoClave,Segm
  80:main.c        **** short Inicio,Inicio2,EstadoPaso,entro,GuardaEEPROM,rampa,Minutos,Horas,flagTemperatura,Test,x1,x10,
  81:main.c        **** uint8 Password[4];
  82:main.c        **** uint8 tiempo_esterilizacion,y,hEst,mEst,hEstp,mEstp,Segmento,conteo,unidad,Pausa,controlT;
  83:main.c        **** uint16 tiempos,tiempos3,tiempoctrl,Tc,Tp,tiemporeset,TiempoControl,tiemporecta,tiemposetpoint,tinic
ARM GAS  C:\Users\USUARIO\AppData\Local\Temp\cc8Cohj2.s 			page 3


  84:main.c        **** short mensaje,Lectura2,flag_setpoint,flag_tiempocalentamiento,Lectura,flagup,flagdn,flagRampa,flag_
  85:main.c        **** short Finalizo,conteoPregunta,grafica,imprime,flag_display,Dibuja,Desconectado,flag_clear3,flag_gan
  86:main.c        **** float X[2]={0.0,0.0};
  87:main.c        **** float Temperatura,Aumento,PendienteActual,DifPendiente,TempeInicial,Pendiente,TemperaturaIdeal,Pote
  88:main.c        **** float error,Potencia,Tpulsomin,TpulsoMax;
  89:main.c        **** uint16 TiempoActual,MinutosActual,HorasActual,Tiempo,TiempoRampa,tPregunta,b16,tup,tdown,tright,tle
  90:main.c        **** uint8 dataReady = 0u,Alarma,gananciaIn,segundosCampana,calib;
  91:main.c        **** uint16 result;
  92:main.c        **** float Prom,V0,Temperature,m,m1,m2;
  93:main.c        **** int16 control1,control2,control3,patron1,patron2,patron3;
  94:main.c        **** int16 Temperatura1[Pasos*5];
  95:main.c        **** int16 Horas1[Pasos*5];
  96:main.c        **** int16 Minutos1[Pasos*5];
  97:main.c        **** uint8 m_int,m_dec,b_dec;
  98:main.c        **** 
  99:main.c        **** CY_ISR(ADC_SAR_ISR_LOC)
 100:main.c        **** {
  32              		.loc 1 100 0
  33              		.cfi_startproc
  34              		@ args = 0, pretend = 0, frame = 0
  35              		@ frame_needed = 0, uses_anonymous_args = 0
  36              		@ link register save eliminated.
 101:main.c        ****         result = CY_GET_REG16(ADC_SAR_SAR_WRK_PTR);
  37              		.loc 1 101 0
  38 0000 034B     		ldr	r3, .L2
  39 0002 1A88     		ldrh	r2, [r3]
  40 0004 034B     		ldr	r3, .L2+4
  41 0006 1A80     		strh	r2, [r3]	@ movhi
 102:main.c        ****         dataReady = 1u;
  42              		.loc 1 102 0
  43 0008 0122     		movs	r2, #1
  44 000a 034B     		ldr	r3, .L2+8
  45 000c 1A70     		strb	r2, [r3]
  46 000e 7047     		bx	lr
  47              	.L3:
  48              		.align	2
  49              	.L2:
  50 0010 A05B0040 		.word	1073765280
  51 0014 00000000 		.word	result
  52 0018 00000000 		.word	.LANCHOR0
  53              		.cfi_endproc
  54              	.LFE64:
  55              		.size	ADC_SAR_ISR_LOC, .-ADC_SAR_ISR_LOC
  56              		.section	.text.Reloj2,"ax",%progbits
  57              		.align	2
  58              		.global	Reloj2
  59              		.thumb
  60              		.thumb_func
  61              		.type	Reloj2, %function
  62              	Reloj2:
  63              	.LFB70:
 103:main.c        **** }
 104:main.c        **** 
 105:main.c        **** void ActualizaRecta(){
 106:main.c        ****    X[y]=Temperatura;
 107:main.c        ****    y++;
 108:main.c        ****    if(y>=2){
ARM GAS  C:\Users\USUARIO\AppData\Local\Temp\cc8Cohj2.s 			page 4


 109:main.c        ****       y=0;
 110:main.c        ****       Aumento=X[1]-X[0];
 111:main.c        ****       HorasActual=(Testerilizacion[3]*10)+Testerilizacion[2];
 112:main.c        ****       MinutosActual=(Testerilizacion[1]*10)+Testerilizacion[0];
 113:main.c        ****       TiempoActual=Tiempo-((HorasActual*3600)+(MinutosActual*60)+tinicio);
 114:main.c        ****       PendienteActual=((Setpoint-Temperatura)/TiempoActual);
 115:main.c        ****       DifPendiente=(PendienteActual*20)-Aumento;
 116:main.c        ****       DifPendiente=DifPendiente*5;
 117:main.c        ****    }
 118:main.c        **** }
 119:main.c        **** 
 120:main.c        **** void Controla(){
 121:main.c        **** //-------------------------------Control de Calentamiento------------------------------------------
 122:main.c        ****    float tmp=0.0;
 123:main.c        ****       
 124:main.c        ****       if(Pendiente!=0){
 125:main.c        ****         if(tiemporecta>=10){
 126:main.c        ****             ActualizaRecta();
 127:main.c        ****             tiemporecta=0;
 128:main.c        ****         }
 129:main.c        ****       }else{
 130:main.c        ****         if(tiemporecta>=Derivativo/2){
 131:main.c        ****             ActualizaRecta();
 132:main.c        ****             tiemporecta=0;
 133:main.c        ****         }   
 134:main.c        ****       }
 135:main.c        ****     
 136:main.c        ****       if(Segmento==0){
 137:main.c        ****          if(flag_calcula==0){
 138:main.c        ****             Tiempo=(Horas1[ProgramaSeleccionado*Pasos]*3600)+(Minutos1[ProgramaSeleccionado*Pasos]*
 139:main.c        ****             Setpoint=Temperatura1[(ProgramaSeleccionado*Pasos)+Segmento];
 140:main.c        ****             Pendiente=(((float)Setpoint-TempeInicial)/(float)Tiempo);
 141:main.c        ****             Testerilizacionp[3]=(uint8)Horas1[(ProgramaSeleccionado*Pasos)+Segmento]/10;
 142:main.c        ****             Testerilizacionp[2]=Horas1[(ProgramaSeleccionado*Pasos)+Segmento]-(Testerilizacionp[3]*
 143:main.c        ****             Testerilizacionp[1]=Minutos1[(ProgramaSeleccionado*Pasos)+Segmento]/10;
 144:main.c        ****             Testerilizacionp[0]=Minutos1[(ProgramaSeleccionado*Pasos)+Segmento]-(Testerilizacionp[1
 145:main.c        ****             flag_calcula=1;
 146:main.c        ****             Ganancia=GananciaIn*(Setpoint/Coeficiente);
 147:main.c        ****          }
 148:main.c        ****       }else{
 149:main.c        ****          if(flag_calcula==0){
 150:main.c        ****             Tiempo=(Horas1[(ProgramaSeleccionado*Pasos)+Segmento]*3600)+(Minutos1[(ProgramaSeleccio
 151:main.c        ****             Pendiente=((float)(Temperatura1[(ProgramaSeleccionado*Pasos)+Segmento]-Temperatura1[(Pr
 152:main.c        ****             Setpoint=Temperatura1[(ProgramaSeleccionado*Pasos)+Segmento];
 153:main.c        ****             Testerilizacionp[3]=(uint8)Horas1[(ProgramaSeleccionado*Pasos)+Segmento]/10;
 154:main.c        ****             Testerilizacionp[2]=Horas1[(ProgramaSeleccionado*Pasos)+Segmento]-(Testerilizacionp[3]*
 155:main.c        ****             Testerilizacionp[1]=Minutos1[(ProgramaSeleccionado*Pasos)+Segmento]/10;
 156:main.c        ****             Testerilizacionp[0]=Minutos1[(ProgramaSeleccionado*Pasos)+Segmento]-(Testerilizacionp[1
 157:main.c        ****             flag_calcula=1;
 158:main.c        ****             Ganancia=GananciaIn*(Setpoint/Coeficiente);
 159:main.c        ****          }
 160:main.c        ****       }
 161:main.c        ****    
 162:main.c        ****   
 163:main.c        ****    if(Pendiente!=0){// Si Esta realizando una Rampa debe realizar el control de acuerdo a la pendie
 164:main.c        ****       //TiempoRampa=((HorasActual*3600)+(MinutosActual*60)+tinicio);
 165:main.c        ****     TiempoRampa=(((Testerilizacion[3]*10)+Testerilizacion[2])*3600)+(((Testerilizacion[1]*10)+Teste
ARM GAS  C:\Users\USUARIO\AppData\Local\Temp\cc8Cohj2.s 			page 5


 166:main.c        ****       if(Segmento==0){
 167:main.c        ****          TemperaturaIdeal=(Pendiente*TiempoRampa)+TempeInicial;
 168:main.c        ****       }else{
 169:main.c        ****          TemperaturaIdeal=(Pendiente*TiempoRampa)+Temperatura1[(ProgramaSeleccionado*Pasos)+Segment
 170:main.c        ****       }
 171:main.c        ****       PotenciaEntregada=((TemperaturaIdeal-Temperatura)*100)/penMufla;
 172:main.c        **** // Pendiente determinar si el comportamiento de la mufla es lineal 10°C/min o si tiene un comporta
 173:main.c        ****       
 174:main.c        ****       if(Temperatura<450 && Temperatura>=200)
 175:main.c        ****          penMufla=penInicial*0.9;
 176:main.c        ****          
 177:main.c        ****       if(Temperatura<600 && Temperatura>=450)
 178:main.c        ****          penMufla=penInicial*0.8;
 179:main.c        ****          
 180:main.c        ****       if(Temperatura<900 && Temperatura>=600)
 181:main.c        ****          penMufla=penInicial*0.7;  
 182:main.c        ****          
 183:main.c        ****       if(Temperatura<=1200 && Temperatura>=900)
 184:main.c        ****          penMufla=penInicial*0.6;   
 185:main.c        ****       
 186:main.c        ****       if(PotenciaEntregada>100.0){
 187:main.c        ****          PotenciaEntregada=100.0;
 188:main.c        ****       }
 189:main.c        ****       
 190:main.c        ****       if(PotenciaEntregada<0){
 191:main.c        ****          PotenciaEntregada=0;
 192:main.c        ****       }
 193:main.c        ****       
 194:main.c        ****       Tpulso=(PotenciaEntregada*Tciclo)/100;  
 195:main.c        ****    }else{
 196:main.c        ****                
 197:main.c        ****       error=desvio+Setpoint-Temperatura;      // Cálculo del error ******
 198:main.c        ****       
 199:main.c        ****       if(error>=(desvio+3) && Aumento<1){
 200:main.c        ****          flag_ajuste=0;
 201:main.c        ****          flag_ajuste2=0;
 202:main.c        ****          if(Potencia<90.0){
 203:main.c        ****             if(TiempoControl>=Derivativo){
 204:main.c        ****                TiempoControl=0;
 205:main.c        ****                if(Aumento<-2){
 206:main.c        ****                   Ganancia+=Integral+1;
 207:main.c        ****                }else{
 208:main.c        ****                   if(Aumento<-1){
 209:main.c        ****                      Ganancia+=Integral;
 210:main.c        ****                   }else{
 211:main.c        ****                      Ganancia+=Integral-0.5;
 212:main.c        ****                   }
 213:main.c        ****                }
 214:main.c        ****             }
 215:main.c        ****          }
 216:main.c        ****       }
 217:main.c        ****       
 218:main.c        ****       if(Ganancia<0.5){
 219:main.c        ****          Ganancia=0.5;
 220:main.c        ****       }
 221:main.c        ****       
 222:main.c        ****       
ARM GAS  C:\Users\USUARIO\AppData\Local\Temp\cc8Cohj2.s 			page 6


 223:main.c        ****       //if(error<0.0)     // Anti Wind_DOWN    
 224:main.c        ****          //error=0.0;
 225:main.c        ****    
 226:main.c        ****       tmp=error*Ganancia;  // Control Proporcional.
 227:main.c        ****             
 228:main.c        ****       if(tmp>Setpoint)   // Anti Wind-UP_Read()==0      
 229:main.c        ****          tmp=Setpoint;
 230:main.c        ****                   
 231:main.c        ****       if(tmp<0.0)     // Anti Wind_DOWN    
 232:main.c        ****          tmp=0.0;
 233:main.c        ****       
 234:main.c        ****       // Tpulso(t)= Tciclo*(y(t)-ymin)/(ymax - ymin); calculo de ciclo util para control de resiste
 235:main.c        ****       // Tpulso es float, hay que pasar ese ciclo a una salida de un puerto usando el TMR1.
 236:main.c        ****       Tpulso=(tmp/Setpoint)*Tciclo; 
 237:main.c        ****       
 238:main.c        ****         if(error<(desvio+1) && error>0){
 239:main.c        ****          if(error<=(desvio+1) && error>0){   
 240:main.c        ****             if(flag_ajuste==0){
 241:main.c        ****                TpulsoMax=Tpulso;
 242:main.c        ****                flag_ajuste=1;  
 243:main.c        ****             }
 244:main.c        ****          }
 245:main.c        ****          
 246:main.c        ****          if(error<=desvio-1 && error>0){   
 247:main.c        ****             if(flag_ajuste2==0){
 248:main.c        ****                Tpulsomin=Tpulso;
 249:main.c        ****                flag_ajuste2=1;           
 250:main.c        ****             }
 251:main.c        ****          }
 252:main.c        ****          
 253:main.c        ****          if(flag_ajuste2==1){
 254:main.c        ****             if(Tpulso<Tpulsomin){
 255:main.c        ****                Tpulso=Tpulsomin;
 256:main.c        ****             }
 257:main.c        ****          }
 258:main.c        ****          if(flag_ajuste==1){   
 259:main.c        ****             if(Tpulso>TpulsoMax){
 260:main.c        ****                Tpulso=TpulsoMax;
 261:main.c        ****             } 
 262:main.c        ****          }
 263:main.c        ****       }
 264:main.c        ****       
 265:main.c        ****       if(error<0){
 266:main.c        ****          sobrepaso=1;
 267:main.c        ****          Tpulso=Tpulsomin/2;
 268:main.c        ****          if(tSobrepaso>300){
 269:main.c        ****             Tpulsomin-=0.1;
 270:main.c        ****             tSobrepaso=0;
 271:main.c        ****          }
 272:main.c        ****       }else{
 273:main.c        ****          sobrepaso=0;
 274:main.c        ****          tSobrepaso=0;
 275:main.c        ****       }
 276:main.c        ****       
 277:main.c        ****       if(Tpulso<0)Tpulso=0;
 278:main.c        ****       if(Tpulso>Tciclo)Tpulso=0;
 279:main.c        ****    }
ARM GAS  C:\Users\USUARIO\AppData\Local\Temp\cc8Cohj2.s 			page 7


 280:main.c        ****    Tp=(Tpulso/0.002);
 281:main.c        ****    Tc=(Tciclo/0.002);
 282:main.c        ****    Control=1;     
 283:main.c        **** //-------------------------------------------------------------------------------------------------
 284:main.c        ****   
 285:main.c        **** }
 286:main.c        **** 
 287:main.c        **** void CuentaTiempo(){
 288:main.c        ****       if(tinicio>=60){
 289:main.c        ****          tinicio=0;
 290:main.c        ****          mEst+=1.0;
 291:main.c        ****          if(mEst>59){
 292:main.c        ****             mEst=0;
 293:main.c        ****             hEst+=1.0;
 294:main.c        ****          }
 295:main.c        ****       }
 296:main.c        **** }
 297:main.c        **** 
 298:main.c        **** void iniciaConteo(){
 299:main.c        ****    if(Pendiente!=0){
 300:main.c        ****         if(flagRampa)
 301:main.c        ****             tiempo_esterilizacion=1;
 302:main.c        ****         else
 303:main.c        ****             tiempo_esterilizacion=0;
 304:main.c        ****    }else if(Pendiente==0){
 305:main.c        ****       if(flagTemperatura && flagRampa)
 306:main.c        ****          tiempo_esterilizacion=1;
 307:main.c        ****       else
 308:main.c        ****          tiempo_esterilizacion=0;
 309:main.c        ****    }
 310:main.c        **** }
 311:main.c        **** 
 312:main.c        **** float leeTermocupla(uint8 media){
 313:main.c        ****     float Tref;
 314:main.c        ****     Tref=0.0;
 315:main.c        ****     Prom=0.0;
 316:main.c        ****     /* Measure cold junction temperature */
 317:main.c        **** 	coldJnTemp = MeasureColdJnSensorTemp();
 318:main.c        **** 	/* Convert cold junction temp to cold junction compensation voltage */
 319:main.c        **** 	tcColdJnuVolt = Thermocouple_1_GetVoltage(coldJnTemp);
 320:main.c        **** 	/* Read thermocouple hot junction voltage */
 321:main.c        **** 	//ADCMux_FastSelect(TC_HOT_JN_CHANNEL);
 322:main.c        **** 	ADC_SelectConfiguration(ADC_TC_Config,1);
 323:main.c        **** 	ADC_StartConvert();
 324:main.c        ****     /*Note in this example a blocking call is used, this can be replaced
 325:main.c        ****     with a polling method is required in your application*/
 326:main.c        **** 	ADC_IsEndConversion(ADC_WAIT_FOR_RESULT); 
 327:main.c        **** 	ADC_StopConvert();
 328:main.c        **** 	hotJnCount = ADC_GetResult32();
 329:main.c        **** 	/* Read ground reference voltage */
 330:main.c        **** 	offset = 0;//MeasureOffset();
 331:main.c        **** 	/* Correlated double sampling to remove ADC offset */
 332:main.c        **** 	hotJnCount -= offset;
 333:main.c        **** 	/* Filter signal */
 334:main.c        **** 	filHotJnCount = FilterSignal(hotJnCount);
 335:main.c        **** 	/* Find thermo-emf in microvolts */
 336:main.c        **** 	tcHotJnuVolt = ADC_CountsTo_uVolts(filHotJnCount);
ARM GAS  C:\Users\USUARIO\AppData\Local\Temp\cc8Cohj2.s 			page 8


 337:main.c        **** 	/* Perform Cold junction compensation */
 338:main.c        **** 	tcuVolt = tcColdJnuVolt + tcHotJnuVolt;
 339:main.c        **** 	/* Convert thermo-emf to temperature */
 340:main.c        **** 	tcTemp = Thermocouple_1_GetTemperature(tcuVolt);
 341:main.c        ****     V0=(float)(tcTemp/100)+(float)(tcTemp-((tcTemp/100)*100))/100;
 342:main.c        ****             
 343:main.c        ****     if(l>(media-1))
 344:main.c        ****         l=0;
 345:main.c        ****    //promedio[l]=Temperature;l++;
 346:main.c        ****     promedio[l]=V0;l++;
 347:main.c        ****          
 348:main.c        ****     for(h=0;h<media;h++){
 349:main.c        ****         Prom+=promedio[h];
 350:main.c        ****     } 
 351:main.c        ****     Prom=Prom/media;   
 352:main.c        ****    
 353:main.c        ****     Prom+=((float)Ajuste-(float)Ajusten);
 354:main.c        ****     if(Prom<=control2){
 355:main.c        ****         Tref=(Prom-b1)/m1;
 356:main.c        ****     }else{
 357:main.c        ****         Tref=(Prom-b2)/m2;
 358:main.c        ****     }
 359:main.c        ****     return Tref;
 360:main.c        ****     //return Temperature;
 361:main.c        **** }
 362:main.c        **** 
 363:main.c        **** CY_ISR(Reloj2){ 
  64              		.loc 1 363 0
  65              		.cfi_startproc
  66              		@ args = 0, pretend = 0, frame = 0
  67              		@ frame_needed = 0, uses_anonymous_args = 0
  68 0000 08B5     		push	{r3, lr}
  69              		.cfi_def_cfa_offset 8
  70              		.cfi_offset 3, -8
  71              		.cfi_offset 14, -4
 364:main.c        ****     tiempos++;
  72              		.loc 1 364 0
  73 0002 364A     		ldr	r2, .L34
  74 0004 1388     		ldrh	r3, [r2]
  75 0006 0133     		adds	r3, r3, #1
  76 0008 1380     		strh	r3, [r2]	@ movhi
 365:main.c        ****     tiempos3++;
  77              		.loc 1 365 0
  78 000a 354A     		ldr	r2, .L34+4
  79 000c 1388     		ldrh	r3, [r2]
  80 000e 0133     		adds	r3, r3, #1
  81 0010 1380     		strh	r3, [r2]	@ movhi
 366:main.c        ****     tiempoctrl++;
  82              		.loc 1 366 0
  83 0012 344A     		ldr	r2, .L34+8
  84 0014 1388     		ldrh	r3, [r2]
  85 0016 0133     		adds	r3, r3, #1
  86 0018 9BB2     		uxth	r3, r3
  87 001a 1380     		strh	r3, [r2]	@ movhi
 367:main.c        ****     
 368:main.c        ****     if(Control==1 && tcHotJnuVolt > BROKEN_TC_THRESHOLD){
  88              		.loc 1 368 0
ARM GAS  C:\Users\USUARIO\AppData\Local\Temp\cc8Cohj2.s 			page 9


  89 001c 324A     		ldr	r2, .L34+12
  90 001e B2F90020 		ldrsh	r2, [r2]
  91 0022 012A     		cmp	r2, #1
  92 0024 19D1     		bne	.L5
  93              		.loc 1 368 0 is_stmt 0 discriminator 1
  94 0026 314A     		ldr	r2, .L34+16
  95 0028 1168     		ldr	r1, [r2]
  96 002a 314A     		ldr	r2, .L34+20
  97 002c 9142     		cmp	r1, r2
  98 002e 14DB     		blt	.L5
 369:main.c        ****         if(tiempoctrl>=Tc) // Si el tiempo de control es mayor al tiempo de ciclo se reinicia tiemp
  99              		.loc 1 369 0 is_stmt 1
 100 0030 304A     		ldr	r2, .L34+24
 101 0032 1288     		ldrh	r2, [r2]
 102 0034 9342     		cmp	r3, r2
 103 0036 02D3     		bcc	.L6
 370:main.c        ****             tiempoctrl=0;
 104              		.loc 1 370 0
 105 0038 0022     		movs	r2, #0
 106 003a 2A4B     		ldr	r3, .L34+8
 107 003c 1A80     		strh	r2, [r3]	@ movhi
 108              	.L6:
 371:main.c        ****         // tiempoctrl incrementa una unidad cada 5ms, por eso se dividen los tiempos por 0.005.
 372:main.c        ****       
 373:main.c        ****         if(tiempoctrl<=Tp) // Si el tiempo es menor o igual al tiempo de control se enciende la res
 109              		.loc 1 373 0
 110 003e 294B     		ldr	r3, .L34+8
 111 0040 1A88     		ldrh	r2, [r3]
 112 0042 2D4B     		ldr	r3, .L34+28
 113 0044 1B88     		ldrh	r3, [r3]
 114 0046 9A42     		cmp	r2, r3
 115 0048 03D8     		bhi	.L7
 374:main.c        ****             SSR_Write(1);
 116              		.loc 1 374 0
 117 004a 0120     		movs	r0, #1
 118 004c FFF7FEFF 		bl	SSR_Write
 119              	.LVL0:
 120 0050 0AE0     		b	.L8
 121              	.L7:
 375:main.c        ****         else         
 376:main.c        ****             SSR_Write(0);
 122              		.loc 1 376 0
 123 0052 0020     		movs	r0, #0
 124 0054 FFF7FEFF 		bl	SSR_Write
 125              	.LVL1:
 126 0058 06E0     		b	.L8
 127              	.L5:
 377:main.c        ****     }else{
 378:main.c        ****         if(!Test)
 128              		.loc 1 378 0
 129 005a 284B     		ldr	r3, .L34+32
 130 005c B3F90030 		ldrsh	r3, [r3]
 131 0060 13B9     		cbnz	r3, .L8
 379:main.c        ****             SSR_Write(0);
 132              		.loc 1 379 0
 133 0062 0020     		movs	r0, #0
 134 0064 FFF7FEFF 		bl	SSR_Write
ARM GAS  C:\Users\USUARIO\AppData\Local\Temp\cc8Cohj2.s 			page 10


 135              	.LVL2:
 136              	.L8:
 380:main.c        ****     }
 381:main.c        ****    
 382:main.c        ****     if(UP_Read()==0){
 137              		.loc 1 382 0
 138 0068 FFF7FEFF 		bl	UP_Read
 139              	.LVL3:
 140 006c 40B9     		cbnz	r0, .L9
 383:main.c        ****         if(tup<2000)
 141              		.loc 1 383 0
 142 006e 244B     		ldr	r3, .L34+36
 143 0070 1B88     		ldrh	r3, [r3]
 144 0072 B3F5FA6F 		cmp	r3, #2000
 145 0076 06D2     		bcs	.L10
 384:main.c        ****             tup++;
 146              		.loc 1 384 0
 147 0078 0133     		adds	r3, r3, #1
 148 007a 214A     		ldr	r2, .L34+36
 149 007c 1380     		strh	r3, [r2]	@ movhi
 150 007e 02E0     		b	.L10
 151              	.L9:
 385:main.c        ****     }else{
 386:main.c        ****         tup=0;
 152              		.loc 1 386 0
 153 0080 0022     		movs	r2, #0
 154 0082 1F4B     		ldr	r3, .L34+36
 155 0084 1A80     		strh	r2, [r3]	@ movhi
 156              	.L10:
 387:main.c        ****     }
 388:main.c        ****     
 389:main.c        ****     if(DOWN_Read()==0){
 157              		.loc 1 389 0
 158 0086 FFF7FEFF 		bl	DOWN_Read
 159              	.LVL4:
 160 008a 40B9     		cbnz	r0, .L11
 390:main.c        ****         if(tdown<2000)
 161              		.loc 1 390 0
 162 008c 1D4B     		ldr	r3, .L34+40
 163 008e 1B88     		ldrh	r3, [r3]
 164 0090 B3F5FA6F 		cmp	r3, #2000
 165 0094 06D2     		bcs	.L12
 391:main.c        ****             tdown++;
 166              		.loc 1 391 0
 167 0096 0133     		adds	r3, r3, #1
 168 0098 1A4A     		ldr	r2, .L34+40
 169 009a 1380     		strh	r3, [r2]	@ movhi
 170 009c 02E0     		b	.L12
 171              	.L11:
 392:main.c        ****     }else{
 393:main.c        ****         tdown=0;
 172              		.loc 1 393 0
 173 009e 0022     		movs	r2, #0
 174 00a0 184B     		ldr	r3, .L34+40
 175 00a2 1A80     		strh	r2, [r3]	@ movhi
 176              	.L12:
 394:main.c        ****     }
ARM GAS  C:\Users\USUARIO\AppData\Local\Temp\cc8Cohj2.s 			page 11


 395:main.c        ****     
 396:main.c        ****     if(RIGHT_Read()==0){
 177              		.loc 1 396 0
 178 00a4 FFF7FEFF 		bl	RIGHT_Read
 179              	.LVL5:
 180 00a8 40B9     		cbnz	r0, .L13
 397:main.c        ****         if(tright<2000)
 181              		.loc 1 397 0
 182 00aa 174B     		ldr	r3, .L34+44
 183 00ac 1B88     		ldrh	r3, [r3]
 184 00ae B3F5FA6F 		cmp	r3, #2000
 185 00b2 06D2     		bcs	.L14
 398:main.c        ****             tright++;
 186              		.loc 1 398 0
 187 00b4 0133     		adds	r3, r3, #1
 188 00b6 144A     		ldr	r2, .L34+44
 189 00b8 1380     		strh	r3, [r2]	@ movhi
 190 00ba 02E0     		b	.L14
 191              	.L13:
 399:main.c        ****     }else{
 400:main.c        ****         tright=0;
 192              		.loc 1 400 0
 193 00bc 0022     		movs	r2, #0
 194 00be 124B     		ldr	r3, .L34+44
 195 00c0 1A80     		strh	r2, [r3]	@ movhi
 196              	.L14:
 401:main.c        ****     }
 402:main.c        ****     
 403:main.c        ****     if(LEFT_Read()==0){
 197              		.loc 1 403 0
 198 00c2 FFF7FEFF 		bl	LEFT_Read
 199              	.LVL6:
 200 00c6 18BB     		cbnz	r0, .L15
 404:main.c        ****         if(tleft<2000)
 201              		.loc 1 404 0
 202 00c8 104B     		ldr	r3, .L34+48
 203 00ca 1B88     		ldrh	r3, [r3]
 204 00cc B3F5FA6F 		cmp	r3, #2000
 205 00d0 21D2     		bcs	.L16
 405:main.c        ****             tleft++;
 206              		.loc 1 405 0
 207 00d2 0133     		adds	r3, r3, #1
 208 00d4 0D4A     		ldr	r2, .L34+48
 209 00d6 1380     		strh	r3, [r2]	@ movhi
 210 00d8 1DE0     		b	.L16
 211              	.L35:
 212 00da 00BF     		.align	2
 213              	.L34:
 214 00dc 00000000 		.word	tiempos
 215 00e0 00000000 		.word	tiempos3
 216 00e4 00000000 		.word	tiempoctrl
 217 00e8 00000000 		.word	Control
 218 00ec 00000000 		.word	tcHotJnuVolt
 219 00f0 F1D8FFFF 		.word	-9999
 220 00f4 00000000 		.word	Tc
 221 00f8 00000000 		.word	Tp
 222 00fc 00000000 		.word	Test
ARM GAS  C:\Users\USUARIO\AppData\Local\Temp\cc8Cohj2.s 			page 12


 223 0100 00000000 		.word	tup
 224 0104 00000000 		.word	tdown
 225 0108 00000000 		.word	tright
 226 010c 00000000 		.word	tleft
 227              	.L15:
 406:main.c        ****     }else{
 407:main.c        ****         tleft=0;
 228              		.loc 1 407 0
 229 0110 0022     		movs	r2, #0
 230 0112 714B     		ldr	r3, .L36
 231 0114 1A80     		strh	r2, [r3]	@ movhi
 232              	.L16:
 408:main.c        ****     }
 409:main.c        ****     
 410:main.c        ****     if(tiempos3>=500){
 233              		.loc 1 410 0
 234 0116 714B     		ldr	r3, .L36+4
 235 0118 1B88     		ldrh	r3, [r3]
 236 011a B3F5FA7F 		cmp	r3, #500
 237 011e 15D3     		bcc	.L17
 411:main.c        ****         Lectura2=1;
 238              		.loc 1 411 0
 239 0120 0122     		movs	r2, #1
 240 0122 6F4B     		ldr	r3, .L36+8
 241 0124 1A80     		strh	r2, [r3]	@ movhi
 412:main.c        ****         if(flagup)
 242              		.loc 1 412 0
 243 0126 6F4B     		ldr	r3, .L36+12
 244 0128 B3F90030 		ldrsh	r3, [r3]
 245 012c 1BB1     		cbz	r3, .L18
 413:main.c        ****             tiempoup++;
 246              		.loc 1 413 0
 247 012e 6E4A     		ldr	r2, .L36+16
 248 0130 1388     		ldrh	r3, [r2]
 249 0132 0133     		adds	r3, r3, #1
 250 0134 1380     		strh	r3, [r2]	@ movhi
 251              	.L18:
 414:main.c        ****         if(flagdn)
 252              		.loc 1 414 0
 253 0136 6D4B     		ldr	r3, .L36+20
 254 0138 B3F90030 		ldrsh	r3, [r3]
 255 013c 1BB1     		cbz	r3, .L19
 415:main.c        ****             tiempodn++;   
 256              		.loc 1 415 0
 257 013e 6C4A     		ldr	r2, .L36+24
 258 0140 1388     		ldrh	r3, [r2]
 259 0142 0133     		adds	r3, r3, #1
 260 0144 1380     		strh	r3, [r2]	@ movhi
 261              	.L19:
 416:main.c        ****         tiempos3=0;
 262              		.loc 1 416 0
 263 0146 0022     		movs	r2, #0
 264 0148 644B     		ldr	r3, .L36+4
 265 014a 1A80     		strh	r2, [r3]	@ movhi
 266              	.L17:
 417:main.c        ****     }
 418:main.c        ****     
ARM GAS  C:\Users\USUARIO\AppData\Local\Temp\cc8Cohj2.s 			page 13


 419:main.c        ****     if(tiempos>=500){  // Cuenta cada 2ms        
 267              		.loc 1 419 0
 268 014c 694B     		ldr	r3, .L36+28
 269 014e 1B88     		ldrh	r3, [r3]
 270 0150 B3F5FA7F 		cmp	r3, #500
 271 0154 C0F0BE80 		bcc	.L4
 420:main.c        ****         tiempos=0;Lectura=1;tiemporeset++;TiempoControl++;tiemporecta++;mensaje=!mensaje;
 272              		.loc 1 420 0
 273 0158 0022     		movs	r2, #0
 274 015a 664B     		ldr	r3, .L36+28
 275 015c 1A80     		strh	r2, [r3]	@ movhi
 276 015e 0122     		movs	r2, #1
 277 0160 654B     		ldr	r3, .L36+32
 278 0162 1A80     		strh	r2, [r3]	@ movhi
 279 0164 654A     		ldr	r2, .L36+36
 280 0166 1388     		ldrh	r3, [r2]
 281 0168 0133     		adds	r3, r3, #1
 282 016a 1380     		strh	r3, [r2]	@ movhi
 283 016c 644A     		ldr	r2, .L36+40
 284 016e 1388     		ldrh	r3, [r2]
 285 0170 0133     		adds	r3, r3, #1
 286 0172 1380     		strh	r3, [r2]	@ movhi
 287 0174 634A     		ldr	r2, .L36+44
 288 0176 1388     		ldrh	r3, [r2]
 289 0178 0133     		adds	r3, r3, #1
 290 017a 1380     		strh	r3, [r2]	@ movhi
 291 017c 624A     		ldr	r2, .L36+48
 292 017e B2F90030 		ldrsh	r3, [r2]
 293 0182 B3FA83F3 		clz	r3, r3
 294 0186 5B09     		lsrs	r3, r3, #5
 295 0188 1380     		strh	r3, [r2]	@ movhi
 421:main.c        ****    
 422:main.c        ****         if(finalizoCiclo){
 296              		.loc 1 422 0
 297 018a 604B     		ldr	r3, .L36+52
 298 018c B3F90030 		ldrsh	r3, [r3]
 299 0190 002B     		cmp	r3, #0
 300 0192 38D0     		beq	.L21
 423:main.c        ****             segundosCampana++;
 301              		.loc 1 423 0
 302 0194 5E4A     		ldr	r2, .L36+56
 303 0196 1378     		ldrb	r3, [r2]	@ zero_extendqisi2
 304 0198 0133     		adds	r3, r3, #1
 305 019a DBB2     		uxtb	r3, r3
 306 019c 1370     		strb	r3, [r2]
 424:main.c        ****             if(segundosCampana>=60){
 307              		.loc 1 424 0
 308 019e 3B2B     		cmp	r3, #59
 309 01a0 31D9     		bls	.L21
 425:main.c        ****                 segundosCampana=0;
 310              		.loc 1 425 0
 311 01a2 0022     		movs	r2, #0
 312 01a4 5A4B     		ldr	r3, .L36+56
 313 01a6 1A70     		strb	r2, [r3]
 426:main.c        ****                 Tempoc[0]++;
 314              		.loc 1 426 0
 315 01a8 5A4A     		ldr	r2, .L36+60
ARM GAS  C:\Users\USUARIO\AppData\Local\Temp\cc8Cohj2.s 			page 14


 316 01aa 92F90030 		ldrsb	r3, [r2]
 317 01ae 0133     		adds	r3, r3, #1
 318 01b0 5BB2     		sxtb	r3, r3
 319 01b2 1370     		strb	r3, [r2]
 427:main.c        ****                 if(Tempoc[0]>9){
 320              		.loc 1 427 0
 321 01b4 092B     		cmp	r3, #9
 322 01b6 06DD     		ble	.L22
 428:main.c        ****                     Tempoc[0]=0;
 323              		.loc 1 428 0
 324 01b8 1346     		mov	r3, r2
 325 01ba 0022     		movs	r2, #0
 326 01bc 1A70     		strb	r2, [r3]
 429:main.c        ****                     Tempoc[1]++;
 327              		.loc 1 429 0
 328 01be 93F90120 		ldrsb	r2, [r3, #1]
 329 01c2 0132     		adds	r2, r2, #1
 330 01c4 5A70     		strb	r2, [r3, #1]
 331              	.L22:
 430:main.c        ****                 }
 431:main.c        ****                 if(Tempoc[1]>5){
 332              		.loc 1 431 0
 333 01c6 534B     		ldr	r3, .L36+60
 334 01c8 93F90130 		ldrsb	r3, [r3, #1]
 335 01cc 052B     		cmp	r3, #5
 336 01ce 06DD     		ble	.L23
 432:main.c        ****                     Tempoc[1]=0;
 337              		.loc 1 432 0
 338 01d0 504B     		ldr	r3, .L36+60
 339 01d2 0022     		movs	r2, #0
 340 01d4 5A70     		strb	r2, [r3, #1]
 433:main.c        ****                     Tempoc[2]++;
 341              		.loc 1 433 0
 342 01d6 93F90220 		ldrsb	r2, [r3, #2]
 343 01da 0132     		adds	r2, r2, #1
 344 01dc 9A70     		strb	r2, [r3, #2]
 345              	.L23:
 434:main.c        ****                 }
 435:main.c        ****                 if(Tempoc[2]>9){
 346              		.loc 1 435 0
 347 01de 4D4B     		ldr	r3, .L36+60
 348 01e0 93F90230 		ldrsb	r3, [r3, #2]
 349 01e4 092B     		cmp	r3, #9
 350 01e6 06DD     		ble	.L24
 436:main.c        ****                     Tempoc[2]=0;
 351              		.loc 1 436 0
 352 01e8 4A4B     		ldr	r3, .L36+60
 353 01ea 0022     		movs	r2, #0
 354 01ec 9A70     		strb	r2, [r3, #2]
 437:main.c        ****                     Tempoc[3]++;
 355              		.loc 1 437 0
 356 01ee 93F90320 		ldrsb	r2, [r3, #3]
 357 01f2 0132     		adds	r2, r2, #1
 358 01f4 DA70     		strb	r2, [r3, #3]
 359              	.L24:
 438:main.c        ****                 }
 439:main.c        ****                 if(Tempoc[3]>5){
ARM GAS  C:\Users\USUARIO\AppData\Local\Temp\cc8Cohj2.s 			page 15


 360              		.loc 1 439 0
 361 01f6 474B     		ldr	r3, .L36+60
 362 01f8 93F90330 		ldrsb	r3, [r3, #3]
 363 01fc 052B     		cmp	r3, #5
 364 01fe 02DD     		ble	.L21
 440:main.c        ****                     Tempoc[3]=0;
 365              		.loc 1 440 0
 366 0200 0022     		movs	r2, #0
 367 0202 444B     		ldr	r3, .L36+60
 368 0204 DA70     		strb	r2, [r3, #3]
 369              	.L21:
 441:main.c        ****                 }     
 442:main.c        ****             }
 443:main.c        ****         }
 444:main.c        ****         
 445:main.c        ****         if(conteoPregunta)tPregunta++;
 370              		.loc 1 445 0
 371 0206 444B     		ldr	r3, .L36+64
 372 0208 B3F90030 		ldrsh	r3, [r3]
 373 020c 1BB1     		cbz	r3, .L25
 374              		.loc 1 445 0 is_stmt 0 discriminator 1
 375 020e 434A     		ldr	r2, .L36+68
 376 0210 1388     		ldrh	r3, [r2]
 377 0212 0133     		adds	r3, r3, #1
 378 0214 1380     		strh	r3, [r2]	@ movhi
 379              	.L25:
 446:main.c        ****         
 447:main.c        ****         if(sobrepaso==1)
 380              		.loc 1 447 0 is_stmt 1
 381 0216 424B     		ldr	r3, .L36+72
 382 0218 B3F90030 		ldrsh	r3, [r3]
 383 021c 012B     		cmp	r3, #1
 384 021e 03D1     		bne	.L26
 448:main.c        ****          tSobrepaso++;
 385              		.loc 1 448 0
 386 0220 404A     		ldr	r2, .L36+76
 387 0222 1388     		ldrh	r3, [r2]
 388 0224 0133     		adds	r3, r3, #1
 389 0226 1380     		strh	r3, [r2]	@ movhi
 390              	.L26:
 449:main.c        ****         
 450:main.c        ****         if(flag_setpoint==1)
 391              		.loc 1 450 0
 392 0228 3F4B     		ldr	r3, .L36+80
 393 022a B3F90030 		ldrsh	r3, [r3]
 394 022e 012B     		cmp	r3, #1
 395 0230 03D1     		bne	.L27
 451:main.c        ****             tiemposetpoint++;
 396              		.loc 1 451 0
 397 0232 3E4A     		ldr	r2, .L36+84
 398 0234 1388     		ldrh	r3, [r2]
 399 0236 0133     		adds	r3, r3, #1
 400 0238 1380     		strh	r3, [r2]	@ movhi
 401              	.L27:
 452:main.c        ****       
 453:main.c        ****         if(tiempo_esterilizacion==1 || tiempo_esterilizacion==2){               
 402              		.loc 1 453 0
ARM GAS  C:\Users\USUARIO\AppData\Local\Temp\cc8Cohj2.s 			page 16


 403 023a 3D4B     		ldr	r3, .L36+88
 404 023c 1B78     		ldrb	r3, [r3]	@ zero_extendqisi2
 405 023e 013B     		subs	r3, r3, #1
 406 0240 DBB2     		uxtb	r3, r3
 407 0242 012B     		cmp	r3, #1
 408 0244 07D8     		bhi	.L28
 454:main.c        ****             tinicio++;
 409              		.loc 1 454 0
 410 0246 3B4A     		ldr	r2, .L36+92
 411 0248 1388     		ldrh	r3, [r2]
 412 024a 0133     		adds	r3, r3, #1
 413 024c 1380     		strh	r3, [r2]	@ movhi
 455:main.c        ****             tGrafica++;
 414              		.loc 1 455 0
 415 024e 3A4A     		ldr	r2, .L36+96
 416 0250 1368     		ldr	r3, [r2]
 417 0252 0133     		adds	r3, r3, #1
 418 0254 1360     		str	r3, [r2]
 419              	.L28:
 456:main.c        ****         }
 457:main.c        ****              
 458:main.c        ****         if(flag_tiempocalentamiento==1)
 420              		.loc 1 458 0
 421 0256 394B     		ldr	r3, .L36+100
 422 0258 B3F90030 		ldrsh	r3, [r3]
 423 025c 012B     		cmp	r3, #1
 424 025e 03D1     		bne	.L29
 459:main.c        ****             tiempocalentamiento++;
 425              		.loc 1 459 0
 426 0260 374A     		ldr	r2, .L36+104
 427 0262 1388     		ldrh	r3, [r2]
 428 0264 0133     		adds	r3, r3, #1
 429 0266 1380     		strh	r3, [r2]	@ movhi
 430              	.L29:
 460:main.c        ****         
 461:main.c        ****         if(tinicio>=60){
 431              		.loc 1 461 0
 432 0268 324B     		ldr	r3, .L36+92
 433 026a 1B88     		ldrh	r3, [r3]
 434 026c 3B2B     		cmp	r3, #59
 435 026e 31D9     		bls	.L4
 462:main.c        ****             tinicio=0;   
 436              		.loc 1 462 0
 437 0270 0022     		movs	r2, #0
 438 0272 304B     		ldr	r3, .L36+92
 439 0274 1A80     		strh	r2, [r3]	@ movhi
 463:main.c        ****             Testerilizacion[0]++;
 440              		.loc 1 463 0
 441 0276 334A     		ldr	r2, .L36+108
 442 0278 92F90430 		ldrsb	r3, [r2, #4]
 443 027c 0133     		adds	r3, r3, #1
 444 027e 5BB2     		sxtb	r3, r3
 445 0280 1371     		strb	r3, [r2, #4]
 464:main.c        ****             if(Testerilizacion[0]>9){
 446              		.loc 1 464 0
 447 0282 092B     		cmp	r3, #9
 448 0284 06DD     		ble	.L30
ARM GAS  C:\Users\USUARIO\AppData\Local\Temp\cc8Cohj2.s 			page 17


 465:main.c        ****                 Testerilizacion[0]=0;
 449              		.loc 1 465 0
 450 0286 1346     		mov	r3, r2
 451 0288 0022     		movs	r2, #0
 452 028a 1A71     		strb	r2, [r3, #4]
 466:main.c        ****                 Testerilizacion[1]++;
 453              		.loc 1 466 0
 454 028c 93F90520 		ldrsb	r2, [r3, #5]
 455 0290 0132     		adds	r2, r2, #1
 456 0292 5A71     		strb	r2, [r3, #5]
 457              	.L30:
 467:main.c        ****             }
 468:main.c        ****             if(Testerilizacion[1]>5){
 458              		.loc 1 468 0
 459 0294 2B4B     		ldr	r3, .L36+108
 460 0296 93F90530 		ldrsb	r3, [r3, #5]
 461 029a 052B     		cmp	r3, #5
 462 029c 06DD     		ble	.L31
 469:main.c        ****                 Testerilizacion[1]=0;
 463              		.loc 1 469 0
 464 029e 294B     		ldr	r3, .L36+108
 465 02a0 0022     		movs	r2, #0
 466 02a2 5A71     		strb	r2, [r3, #5]
 470:main.c        ****                 Testerilizacion[2]++;
 467              		.loc 1 470 0
 468 02a4 93F90620 		ldrsb	r2, [r3, #6]
 469 02a8 0132     		adds	r2, r2, #1
 470 02aa 9A71     		strb	r2, [r3, #6]
 471              	.L31:
 471:main.c        ****             }
 472:main.c        ****             if(Testerilizacion[2]>9){
 472              		.loc 1 472 0
 473 02ac 254B     		ldr	r3, .L36+108
 474 02ae 93F90630 		ldrsb	r3, [r3, #6]
 475 02b2 092B     		cmp	r3, #9
 476 02b4 06DD     		ble	.L32
 473:main.c        ****                 Testerilizacion[2]=0;
 477              		.loc 1 473 0
 478 02b6 234B     		ldr	r3, .L36+108
 479 02b8 0022     		movs	r2, #0
 480 02ba 9A71     		strb	r2, [r3, #6]
 474:main.c        ****                 Testerilizacion[3]++;
 481              		.loc 1 474 0
 482 02bc 93F90720 		ldrsb	r2, [r3, #7]
 483 02c0 0132     		adds	r2, r2, #1
 484 02c2 DA71     		strb	r2, [r3, #7]
 485              	.L32:
 475:main.c        ****             }
 476:main.c        ****             if(Testerilizacion[3]>9){
 486              		.loc 1 476 0
 487 02c4 1F4B     		ldr	r3, .L36+108
 488 02c6 93F90730 		ldrsb	r3, [r3, #7]
 489 02ca 092B     		cmp	r3, #9
 490 02cc 02DD     		ble	.L4
 477:main.c        ****                 Testerilizacion[3]=0;
 491              		.loc 1 477 0
 492 02ce 0022     		movs	r2, #0
ARM GAS  C:\Users\USUARIO\AppData\Local\Temp\cc8Cohj2.s 			page 18


 493 02d0 1C4B     		ldr	r3, .L36+108
 494 02d2 DA71     		strb	r2, [r3, #7]
 495              	.L4:
 496 02d4 08BD     		pop	{r3, pc}
 497              	.L37:
 498 02d6 00BF     		.align	2
 499              	.L36:
 500 02d8 00000000 		.word	tleft
 501 02dc 00000000 		.word	tiempos3
 502 02e0 00000000 		.word	Lectura2
 503 02e4 00000000 		.word	flagup
 504 02e8 00000000 		.word	tiempoup
 505 02ec 00000000 		.word	flagdn
 506 02f0 00000000 		.word	tiempodn
 507 02f4 00000000 		.word	tiempos
 508 02f8 00000000 		.word	Lectura
 509 02fc 00000000 		.word	tiemporeset
 510 0300 00000000 		.word	TiempoControl
 511 0304 00000000 		.word	tiemporecta
 512 0308 00000000 		.word	mensaje
 513 030c 00000000 		.word	finalizoCiclo
 514 0310 00000000 		.word	segundosCampana
 515 0314 00000000 		.word	Tempoc
 516 0318 00000000 		.word	conteoPregunta
 517 031c 00000000 		.word	tPregunta
 518 0320 00000000 		.word	sobrepaso
 519 0324 00000000 		.word	tSobrepaso
 520 0328 00000000 		.word	flag_setpoint
 521 032c 00000000 		.word	tiemposetpoint
 522 0330 00000000 		.word	tiempo_esterilizacion
 523 0334 00000000 		.word	tinicio
 524 0338 00000000 		.word	tGrafica
 525 033c 00000000 		.word	flag_tiempocalentamiento
 526 0340 00000000 		.word	tiempocalentamiento
 527 0344 00000000 		.word	.LANCHOR0
 528              		.cfi_endproc
 529              	.LFE70:
 530              		.size	Reloj2, .-Reloj2
 531              		.section	.text.inteRX1,"ax",%progbits
 532              		.align	2
 533              		.global	inteRX1
 534              		.thumb
 535              		.thumb_func
 536              		.type	inteRX1, %function
 537              	inteRX1:
 538              	.LFB71:
 478:main.c        ****             }
 479:main.c        ****         }
 480:main.c        ****     }     
 481:main.c        **** }
 482:main.c        **** 
 483:main.c        **** CY_ISR(inteRX1){
 539              		.loc 1 483 0
 540              		.cfi_startproc
 541              		@ args = 0, pretend = 0, frame = 0
 542              		@ frame_needed = 0, uses_anonymous_args = 0
 543 0000 08B5     		push	{r3, lr}
ARM GAS  C:\Users\USUARIO\AppData\Local\Temp\cc8Cohj2.s 			page 19


 544              		.cfi_def_cfa_offset 8
 545              		.cfi_offset 3, -8
 546              		.cfi_offset 14, -4
 484:main.c        ****     Dato3=UART_1_GetByte();
 547              		.loc 1 484 0
 548 0002 FFF7FEFF 		bl	UART_1_GetByte
 549              	.LVL7:
 550 0006 C0B2     		uxtb	r0, r0
 551 0008 1D4B     		ldr	r3, .L45
 552 000a 1870     		strb	r0, [r3]
 485:main.c        ****    if(Dato3==0x65){//Inicio Comunicacion
 553              		.loc 1 485 0
 554 000c 6528     		cmp	r0, #101
 555 000e 05D1     		bne	.L39
 486:main.c        ****       Inicio2=1;
 556              		.loc 1 486 0
 557 0010 0122     		movs	r2, #1
 558 0012 1C4B     		ldr	r3, .L45+4
 559 0014 1A80     		strh	r2, [r3]	@ movhi
 487:main.c        ****       RX_Wr_Index2 =0;
 560              		.loc 1 487 0
 561 0016 0022     		movs	r2, #0
 562 0018 1B4B     		ldr	r3, .L45+8
 563 001a 1A72     		strb	r2, [r3, #8]
 564              	.L39:
 488:main.c        ****    }
 489:main.c        ****    if(Inicio2==1){
 565              		.loc 1 489 0
 566 001c 194B     		ldr	r3, .L45+4
 567 001e B3F90030 		ldrsh	r3, [r3]
 568 0022 012B     		cmp	r3, #1
 569 0024 05D1     		bne	.L40
 490:main.c        ****       Rx_Buffer4[RX_Wr_Index2] = Dato3;
 570              		.loc 1 490 0
 571 0026 184A     		ldr	r2, .L45+8
 572 0028 137A     		ldrb	r3, [r2, #8]	@ zero_extendqisi2
 573 002a 1849     		ldr	r1, .L45+12
 574 002c C854     		strb	r0, [r1, r3]
 491:main.c        ****       RX_Wr_Index2++;
 575              		.loc 1 491 0
 576 002e 0133     		adds	r3, r3, #1
 577 0030 1372     		strb	r3, [r2, #8]
 578              	.L40:
 492:main.c        ****    }
 493:main.c        ****    if(RX_Wr_Index2 >= RX_BUFFER_SIZE){
 579              		.loc 1 493 0
 580 0032 154B     		ldr	r3, .L45+8
 581 0034 1B7A     		ldrb	r3, [r3, #8]	@ zero_extendqisi2
 582 0036 092B     		cmp	r3, #9
 583 0038 04D9     		bls	.L41
 494:main.c        ****       RX_Wr_Index2 =0;
 584              		.loc 1 494 0
 585 003a 0023     		movs	r3, #0
 586 003c 124A     		ldr	r2, .L45+8
 587 003e 1372     		strb	r3, [r2, #8]
 495:main.c        ****       Inicio2=0;
 588              		.loc 1 495 0
ARM GAS  C:\Users\USUARIO\AppData\Local\Temp\cc8Cohj2.s 			page 20


 589 0040 104A     		ldr	r2, .L45+4
 590 0042 1380     		strh	r3, [r2]	@ movhi
 591              	.L41:
 496:main.c        ****    }
 497:main.c        ****    if(RX_Wr_Index2==0){
 592              		.loc 1 497 0
 593 0044 104B     		ldr	r3, .L45+8
 594 0046 1B7A     		ldrb	r3, [r3, #8]	@ zero_extendqisi2
 595 0048 CBB9     		cbnz	r3, .L38
 498:main.c        ****       if(Rx_Buffer4[0]==0x65 && Rx_Buffer4[1]==0xff && Rx_Buffer4[2]==0xff && Rx_Buffer4[8]==0x00 &
 596              		.loc 1 498 0
 597 004a 104B     		ldr	r3, .L45+12
 598 004c 1B78     		ldrb	r3, [r3]	@ zero_extendqisi2
 599 004e 652B     		cmp	r3, #101
 600 0050 12D1     		bne	.L43
 601              		.loc 1 498 0 is_stmt 0 discriminator 1
 602 0052 0E4B     		ldr	r3, .L45+12
 603 0054 5B78     		ldrb	r3, [r3, #1]	@ zero_extendqisi2
 604 0056 FF2B     		cmp	r3, #255
 605 0058 0ED1     		bne	.L43
 606              		.loc 1 498 0 discriminator 2
 607 005a 0C4B     		ldr	r3, .L45+12
 608 005c 9B78     		ldrb	r3, [r3, #2]	@ zero_extendqisi2
 609 005e FF2B     		cmp	r3, #255
 610 0060 0AD1     		bne	.L43
 611              		.loc 1 498 0 discriminator 3
 612 0062 0A4B     		ldr	r3, .L45+12
 613 0064 1B7A     		ldrb	r3, [r3, #8]	@ zero_extendqisi2
 614 0066 3BB9     		cbnz	r3, .L43
 615              		.loc 1 498 0 discriminator 4
 616 0068 084B     		ldr	r3, .L45+12
 617 006a 5B7A     		ldrb	r3, [r3, #9]	@ zero_extendqisi2
 618 006c FF2B     		cmp	r3, #255
 619 006e 03D1     		bne	.L43
 499:main.c        ****          Dato_Exitoso2=5;
 620              		.loc 1 499 0 is_stmt 1
 621 0070 0522     		movs	r2, #5
 622 0072 074B     		ldr	r3, .L45+16
 623 0074 1A70     		strb	r2, [r3]
 624 0076 08BD     		pop	{r3, pc}
 625              	.L43:
 500:main.c        ****       else
 501:main.c        ****          Dato_Exitoso2=10;
 626              		.loc 1 501 0
 627 0078 0A22     		movs	r2, #10
 628 007a 054B     		ldr	r3, .L45+16
 629 007c 1A70     		strb	r2, [r3]
 630              	.L38:
 631 007e 08BD     		pop	{r3, pc}
 632              	.L46:
 633              		.align	2
 634              	.L45:
 635 0080 00000000 		.word	Dato3
 636 0084 00000000 		.word	Inicio2
 637 0088 00000000 		.word	.LANCHOR0
 638 008c 00000000 		.word	Rx_Buffer4
 639 0090 00000000 		.word	Dato_Exitoso2
ARM GAS  C:\Users\USUARIO\AppData\Local\Temp\cc8Cohj2.s 			page 21


 640              		.cfi_endproc
 641              	.LFE71:
 642              		.size	inteRX1, .-inteRX1
 643              		.global	__aeabi_fsub
 644              		.global	__aeabi_i2f
 645              		.global	__aeabi_fdiv
 646              		.global	__aeabi_fmul
 647              		.section	.text.ActualizaRecta,"ax",%progbits
 648              		.align	2
 649              		.global	ActualizaRecta
 650              		.thumb
 651              		.thumb_func
 652              		.type	ActualizaRecta, %function
 653              	ActualizaRecta:
 654              	.LFB65:
 105:main.c        ****    X[y]=Temperatura;
 655              		.loc 1 105 0
 656              		.cfi_startproc
 657              		@ args = 0, pretend = 0, frame = 0
 658              		@ frame_needed = 0, uses_anonymous_args = 0
 659 0000 70B5     		push	{r4, r5, r6, lr}
 660              		.cfi_def_cfa_offset 16
 661              		.cfi_offset 4, -16
 662              		.cfi_offset 5, -12
 663              		.cfi_offset 6, -8
 664              		.cfi_offset 14, -4
 106:main.c        ****    y++;
 665              		.loc 1 106 0
 666 0002 2E49     		ldr	r1, .L50
 667 0004 0B78     		ldrb	r3, [r1]	@ zero_extendqisi2
 668 0006 2E4A     		ldr	r2, .L50+4
 669 0008 1468     		ldr	r4, [r2]	@ float
 670 000a 2E4A     		ldr	r2, .L50+8
 671 000c 02EB8302 		add	r2, r2, r3, lsl #2
 672 0010 D460     		str	r4, [r2, #12]	@ float
 107:main.c        ****    if(y>=2){
 673              		.loc 1 107 0
 674 0012 0133     		adds	r3, r3, #1
 675 0014 DBB2     		uxtb	r3, r3
 676 0016 0B70     		strb	r3, [r1]
 108:main.c        ****       y=0;
 677              		.loc 1 108 0
 678 0018 012B     		cmp	r3, #1
 679 001a 4DD9     		bls	.L47
 109:main.c        ****       Aumento=X[1]-X[0];
 680              		.loc 1 109 0
 681 001c 0022     		movs	r2, #0
 682 001e 0A70     		strb	r2, [r1]
 110:main.c        ****       HorasActual=(Testerilizacion[3]*10)+Testerilizacion[2];
 683              		.loc 1 110 0
 684 0020 284E     		ldr	r6, .L50+8
 685 0022 F168     		ldr	r1, [r6, #12]	@ float
 686 0024 3069     		ldr	r0, [r6, #16]	@ float
 687 0026 FFF7FEFF 		bl	__aeabi_fsub
 688              	.LVL8:
 689 002a 0546     		mov	r5, r0
 690 002c 264B     		ldr	r3, .L50+12
ARM GAS  C:\Users\USUARIO\AppData\Local\Temp\cc8Cohj2.s 			page 22


 691 002e 1860     		str	r0, [r3]	@ float
 111:main.c        ****       MinutosActual=(Testerilizacion[1]*10)+Testerilizacion[0];
 692              		.loc 1 111 0
 693 0030 96F90710 		ldrsb	r1, [r6, #7]
 694 0034 96F90620 		ldrsb	r2, [r6, #6]
 695 0038 01EB8101 		add	r1, r1, r1, lsl #2
 696 003c 02EB4101 		add	r1, r2, r1, lsl #1
 697 0040 89B2     		uxth	r1, r1
 698 0042 224B     		ldr	r3, .L50+16
 699 0044 1980     		strh	r1, [r3]	@ movhi
 112:main.c        ****       TiempoActual=Tiempo-((HorasActual*3600)+(MinutosActual*60)+tinicio);
 700              		.loc 1 112 0
 701 0046 96F90530 		ldrsb	r3, [r6, #5]
 702 004a 96F90420 		ldrsb	r2, [r6, #4]
 703 004e 03EB8303 		add	r3, r3, r3, lsl #2
 704 0052 02EB4303 		add	r3, r2, r3, lsl #1
 705 0056 9BB2     		uxth	r3, r3
 706 0058 1D4A     		ldr	r2, .L50+20
 707 005a 1380     		strh	r3, [r2]	@ movhi
 113:main.c        ****       PendienteActual=((Setpoint-Temperatura)/TiempoActual);
 708              		.loc 1 113 0
 709 005c C1EB0111 		rsb	r1, r1, r1, lsl #4
 710 0060 C1EB0111 		rsb	r1, r1, r1, lsl #4
 711 0064 C3EB0313 		rsb	r3, r3, r3, lsl #4
 712 0068 9B00     		lsls	r3, r3, #2
 713 006a 03EB0113 		add	r3, r3, r1, lsl #4
 714 006e 194A     		ldr	r2, .L50+24
 715 0070 1688     		ldrh	r6, [r2]
 716 0072 1E44     		add	r6, r6, r3
 717 0074 184B     		ldr	r3, .L50+28
 718 0076 1A88     		ldrh	r2, [r3]
 719 0078 961B     		subs	r6, r2, r6
 720 007a B6B2     		uxth	r6, r6
 721 007c 174B     		ldr	r3, .L50+32
 722 007e 1E80     		strh	r6, [r3]	@ movhi
 114:main.c        ****       DifPendiente=(PendienteActual*20)-Aumento;
 723              		.loc 1 114 0
 724 0080 174B     		ldr	r3, .L50+36
 725 0082 1888     		ldrh	r0, [r3]
 726 0084 FFF7FEFF 		bl	__aeabi_i2f
 727              	.LVL9:
 728 0088 2146     		mov	r1, r4
 729 008a FFF7FEFF 		bl	__aeabi_fsub
 730              	.LVL10:
 731 008e 0446     		mov	r4, r0
 732 0090 3046     		mov	r0, r6
 733 0092 FFF7FEFF 		bl	__aeabi_i2f
 734              	.LVL11:
 735 0096 0146     		mov	r1, r0
 736 0098 2046     		mov	r0, r4
 737 009a FFF7FEFF 		bl	__aeabi_fdiv
 738              	.LVL12:
 739 009e 114B     		ldr	r3, .L50+40
 740 00a0 1860     		str	r0, [r3]	@ float
 115:main.c        ****       DifPendiente=DifPendiente*5;
 741              		.loc 1 115 0
 742 00a2 1149     		ldr	r1, .L50+44
ARM GAS  C:\Users\USUARIO\AppData\Local\Temp\cc8Cohj2.s 			page 23


 743 00a4 FFF7FEFF 		bl	__aeabi_fmul
 744              	.LVL13:
 745 00a8 2946     		mov	r1, r5
 746 00aa FFF7FEFF 		bl	__aeabi_fsub
 747              	.LVL14:
 116:main.c        ****    }
 748              		.loc 1 116 0
 749 00ae 0F49     		ldr	r1, .L50+48
 750 00b0 FFF7FEFF 		bl	__aeabi_fmul
 751              	.LVL15:
 752 00b4 0E4B     		ldr	r3, .L50+52
 753 00b6 1860     		str	r0, [r3]	@ float
 754              	.L47:
 755 00b8 70BD     		pop	{r4, r5, r6, pc}
 756              	.L51:
 757 00ba 00BF     		.align	2
 758              	.L50:
 759 00bc 00000000 		.word	y
 760 00c0 00000000 		.word	Temperatura
 761 00c4 00000000 		.word	.LANCHOR0
 762 00c8 00000000 		.word	Aumento
 763 00cc 00000000 		.word	HorasActual
 764 00d0 00000000 		.word	MinutosActual
 765 00d4 00000000 		.word	tinicio
 766 00d8 00000000 		.word	Tiempo
 767 00dc 00000000 		.word	TiempoActual
 768 00e0 00000000 		.word	Setpoint
 769 00e4 00000000 		.word	PendienteActual
 770 00e8 0000A041 		.word	1101004800
 771 00ec 0000A040 		.word	1084227584
 772 00f0 00000000 		.word	DifPendiente
 773              		.cfi_endproc
 774              	.LFE65:
 775              		.size	ActualizaRecta, .-ActualizaRecta
 776              		.global	__aeabi_fcmpeq
 777              		.global	__aeabi_ui2f
 778              		.global	__aeabi_fadd
 779              		.global	__aeabi_fcmplt
 780              		.global	__aeabi_fcmpge
 781              		.global	__aeabi_f2d
 782              		.global	__aeabi_dmul
 783              		.global	__aeabi_d2f
 784              		.global	__aeabi_fcmple
 785              		.global	__aeabi_fcmpgt
 786              		.global	__aeabi_i2d
 787              		.global	__aeabi_dadd
 788              		.global	__aeabi_dsub
 789              		.global	__aeabi_ddiv
 790              		.global	__aeabi_d2uiz
 791              		.section	.text.Controla,"ax",%progbits
 792              		.align	2
 793              		.global	Controla
 794              		.thumb
 795              		.thumb_func
 796              		.type	Controla, %function
 797              	Controla:
 798              	.LFB66:
ARM GAS  C:\Users\USUARIO\AppData\Local\Temp\cc8Cohj2.s 			page 24


 120:main.c        **** //-------------------------------Control de Calentamiento------------------------------------------
 799              		.loc 1 120 0
 800              		.cfi_startproc
 801              		@ args = 0, pretend = 0, frame = 0
 802              		@ frame_needed = 0, uses_anonymous_args = 0
 803 0000 2DE9F047 		push	{r4, r5, r6, r7, r8, r9, r10, lr}
 804              		.cfi_def_cfa_offset 32
 805              		.cfi_offset 4, -32
 806              		.cfi_offset 5, -28
 807              		.cfi_offset 6, -24
 808              		.cfi_offset 7, -20
 809              		.cfi_offset 8, -16
 810              		.cfi_offset 9, -12
 811              		.cfi_offset 10, -8
 812              		.cfi_offset 14, -4
 813              	.LVL16:
 124:main.c        ****         if(tiemporecta>=10){
 814              		.loc 1 124 0
 815 0004 0021     		movs	r1, #0
 816 0006 8D4B     		ldr	r3, .L147
 817 0008 1868     		ldr	r0, [r3]	@ float
 818 000a FFF7FEFF 		bl	__aeabi_fcmpeq
 819              	.LVL17:
 820 000e 48B9     		cbnz	r0, .L141
 125:main.c        ****             ActualizaRecta();
 821              		.loc 1 125 0
 822 0010 8B4B     		ldr	r3, .L147+4
 823 0012 1B88     		ldrh	r3, [r3]
 824 0014 092B     		cmp	r3, #9
 825 0016 11D9     		bls	.L55
 126:main.c        ****             tiemporecta=0;
 826              		.loc 1 126 0
 827 0018 FFF7FEFF 		bl	ActualizaRecta
 828              	.LVL18:
 127:main.c        ****         }
 829              		.loc 1 127 0
 830 001c 0022     		movs	r2, #0
 831 001e 884B     		ldr	r3, .L147+4
 832 0020 1A80     		strh	r2, [r3]	@ movhi
 833 0022 0BE0     		b	.L55
 834              	.L141:
 130:main.c        ****             ActualizaRecta();
 835              		.loc 1 130 0
 836 0024 874B     		ldr	r3, .L147+8
 837 0026 1A78     		ldrb	r2, [r3]	@ zero_extendqisi2
 838 0028 854B     		ldr	r3, .L147+4
 839 002a 1B88     		ldrh	r3, [r3]
 840 002c B3EB520F 		cmp	r3, r2, lsr #1
 841 0030 04D3     		bcc	.L55
 131:main.c        ****             tiemporecta=0;
 842              		.loc 1 131 0
 843 0032 FFF7FEFF 		bl	ActualizaRecta
 844              	.LVL19:
 132:main.c        ****         }   
 845              		.loc 1 132 0
 846 0036 0022     		movs	r2, #0
 847 0038 814B     		ldr	r3, .L147+4
ARM GAS  C:\Users\USUARIO\AppData\Local\Temp\cc8Cohj2.s 			page 25


 848 003a 1A80     		strh	r2, [r3]	@ movhi
 849              	.L55:
 136:main.c        ****          if(flag_calcula==0){
 850              		.loc 1 136 0
 851 003c 824B     		ldr	r3, .L147+12
 852 003e 1C78     		ldrb	r4, [r3]	@ zero_extendqisi2
 853 0040 002C     		cmp	r4, #0
 854 0042 65D1     		bne	.L56
 137:main.c        ****             Tiempo=(Horas1[ProgramaSeleccionado*Pasos]*3600)+(Minutos1[ProgramaSeleccionado*Pasos]*
 855              		.loc 1 137 0
 856 0044 814B     		ldr	r3, .L147+16
 857 0046 B3F90030 		ldrsh	r3, [r3]
 858 004a 002B     		cmp	r3, #0
 859 004c 40F0BF80 		bne	.L57
 138:main.c        ****             Setpoint=Temperatura1[(ProgramaSeleccionado*Pasos)+Segmento];
 860              		.loc 1 138 0
 861 0050 7F4B     		ldr	r3, .L147+20
 862 0052 1E78     		ldrb	r6, [r3]	@ zero_extendqisi2
 863 0054 3601     		lsls	r6, r6, #4
 864 0056 DFF82882 		ldr	r8, .L147+68
 865 005a 38F91630 		ldrsh	r3, [r8, r6, lsl #1]
 866 005e 7D4F     		ldr	r7, .L147+24
 867 0060 37F91620 		ldrsh	r2, [r7, r6, lsl #1]
 868 0064 C3EB0313 		rsb	r3, r3, r3, lsl #4
 869 0068 C3EB0313 		rsb	r3, r3, r3, lsl #4
 870 006c 4FEA0319 		lsl	r9, r3, #4
 871 0070 C2EB0213 		rsb	r3, r2, r2, lsl #4
 872 0074 9A00     		lsls	r2, r3, #2
 873 0076 9144     		add	r9, r9, r2
 874 0078 1FFA89F9 		uxth	r9, r9
 875 007c 764B     		ldr	r3, .L147+28
 876 007e A3F80090 		strh	r9, [r3]	@ movhi
 139:main.c        ****             Pendiente=(((float)Setpoint-TempeInicial)/(float)Tiempo);
 877              		.loc 1 139 0
 878 0082 2644     		add	r6, r6, r4
 879 0084 754B     		ldr	r3, .L147+32
 880 0086 33F81650 		ldrh	r5, [r3, r6, lsl #1]
 881 008a 754B     		ldr	r3, .L147+36
 882 008c 1D80     		strh	r5, [r3]	@ movhi
 140:main.c        ****             Testerilizacionp[3]=(uint8)Horas1[(ProgramaSeleccionado*Pasos)+Segmento]/10;
 883              		.loc 1 140 0
 884 008e 2846     		mov	r0, r5
 885 0090 FFF7FEFF 		bl	__aeabi_ui2f
 886              	.LVL20:
 887 0094 734B     		ldr	r3, .L147+40
 888 0096 1968     		ldr	r1, [r3]	@ float
 889 0098 FFF7FEFF 		bl	__aeabi_fsub
 890              	.LVL21:
 891 009c 8246     		mov	r10, r0
 892 009e 4846     		mov	r0, r9
 893 00a0 FFF7FEFF 		bl	__aeabi_ui2f
 894              	.LVL22:
 895 00a4 0146     		mov	r1, r0
 896 00a6 5046     		mov	r0, r10
 897 00a8 FFF7FEFF 		bl	__aeabi_fdiv
 898              	.LVL23:
 899 00ac 634B     		ldr	r3, .L147
ARM GAS  C:\Users\USUARIO\AppData\Local\Temp\cc8Cohj2.s 			page 26


 900 00ae 1860     		str	r0, [r3]	@ float
 141:main.c        ****             Testerilizacionp[2]=Horas1[(ProgramaSeleccionado*Pasos)+Segmento]-(Testerilizacionp[3]*
 901              		.loc 1 141 0
 902 00b0 18F81600 		ldrb	r0, [r8, r6, lsl #1]	@ zero_extendqisi2
 903 00b4 6C4B     		ldr	r3, .L147+44
 904 00b6 A3FB0023 		umull	r2, r3, r3, r0
 905 00ba DB08     		lsrs	r3, r3, #3
 906 00bc 6B49     		ldr	r1, .L147+48
 907 00be CB75     		strb	r3, [r1, #23]
 142:main.c        ****             Testerilizacionp[1]=Minutos1[(ProgramaSeleccionado*Pasos)+Segmento]/10;
 908              		.loc 1 142 0
 909 00c0 C3EB4312 		rsb	r2, r3, r3, lsl #5
 910 00c4 C3EB8203 		rsb	r3, r3, r2, lsl #2
 911 00c8 5A00     		lsls	r2, r3, #1
 912 00ca 0244     		add	r2, r2, r0
 913 00cc 8A75     		strb	r2, [r1, #22]
 143:main.c        ****             Testerilizacionp[0]=Minutos1[(ProgramaSeleccionado*Pasos)+Segmento]-(Testerilizacionp[1
 914              		.loc 1 143 0
 915 00ce 37F91620 		ldrsh	r2, [r7, r6, lsl #1]
 916 00d2 674B     		ldr	r3, .L147+52
 917 00d4 83FB0230 		smull	r3, r0, r3, r2
 918 00d8 D317     		asrs	r3, r2, #31
 919 00da C3EBA003 		rsb	r3, r3, r0, asr #2
 920 00de 5BB2     		sxtb	r3, r3
 921 00e0 4B75     		strb	r3, [r1, #21]
 144:main.c        ****             flag_calcula=1;
 922              		.loc 1 144 0
 923 00e2 C3EB4310 		rsb	r0, r3, r3, lsl #5
 924 00e6 C3EB8003 		rsb	r3, r3, r0, lsl #2
 925 00ea 5800     		lsls	r0, r3, #1
 926 00ec 0244     		add	r2, r2, r0
 927 00ee 0A75     		strb	r2, [r1, #20]
 145:main.c        ****             Ganancia=GananciaIn*(Setpoint/Coeficiente);
 928              		.loc 1 145 0
 929 00f0 0122     		movs	r2, #1
 930 00f2 564B     		ldr	r3, .L147+16
 931 00f4 1A80     		strh	r2, [r3]	@ movhi
 146:main.c        ****          }
 932              		.loc 1 146 0
 933 00f6 5F4B     		ldr	r3, .L147+56
 934 00f8 1888     		ldrh	r0, [r3]
 935 00fa B5FBF0F0 		udiv	r0, r5, r0
 936 00fe FFF7FEFF 		bl	__aeabi_i2f
 937              	.LVL24:
 938 0102 5D4B     		ldr	r3, .L147+60
 939 0104 1968     		ldr	r1, [r3]	@ float
 940 0106 FFF7FEFF 		bl	__aeabi_fmul
 941              	.LVL25:
 942 010a 5C4B     		ldr	r3, .L147+64
 943 010c 1860     		str	r0, [r3]	@ float
 944 010e 5EE0     		b	.L57
 945              	.L56:
 149:main.c        ****             Tiempo=(Horas1[(ProgramaSeleccionado*Pasos)+Segmento]*3600)+(Minutos1[(ProgramaSeleccio
 946              		.loc 1 149 0
 947 0110 4E4B     		ldr	r3, .L147+16
 948 0112 B3F90030 		ldrsh	r3, [r3]
 949 0116 002B     		cmp	r3, #0
ARM GAS  C:\Users\USUARIO\AppData\Local\Temp\cc8Cohj2.s 			page 27


 950 0118 59D1     		bne	.L57
 150:main.c        ****             Pendiente=((float)(Temperatura1[(ProgramaSeleccionado*Pasos)+Segmento]-Temperatura1[(Pr
 951              		.loc 1 150 0
 952 011a 4D4B     		ldr	r3, .L147+20
 953 011c 1B78     		ldrb	r3, [r3]	@ zero_extendqisi2
 954 011e 04EB0313 		add	r3, r4, r3, lsl #4
 955 0122 574A     		ldr	r2, .L147+68
 956 0124 32F91370 		ldrsh	r7, [r2, r3, lsl #1]
 957 0128 4A4A     		ldr	r2, .L147+24
 958 012a 32F91350 		ldrsh	r5, [r2, r3, lsl #1]
 959 012e C7EB0712 		rsb	r2, r7, r7, lsl #4
 960 0132 C2EB0212 		rsb	r2, r2, r2, lsl #4
 961 0136 1601     		lsls	r6, r2, #4
 962 0138 C5EB0511 		rsb	r1, r5, r5, lsl #4
 963 013c 8A00     		lsls	r2, r1, #2
 964 013e 1644     		add	r6, r6, r2
 965 0140 B6B2     		uxth	r6, r6
 966 0142 454A     		ldr	r2, .L147+28
 967 0144 1680     		strh	r6, [r2]	@ movhi
 151:main.c        ****             Setpoint=Temperatura1[(ProgramaSeleccionado*Pasos)+Segmento];
 968              		.loc 1 151 0
 969 0146 454A     		ldr	r2, .L147+32
 970 0148 32F91380 		ldrsh	r8, [r2, r3, lsl #1]
 971 014c 013B     		subs	r3, r3, #1
 972 014e 32F91300 		ldrsh	r0, [r2, r3, lsl #1]
 973 0152 C0EB0800 		rsb	r0, r0, r8
 974 0156 FFF7FEFF 		bl	__aeabi_i2f
 975              	.LVL26:
 976 015a 8146     		mov	r9, r0
 977 015c 3046     		mov	r0, r6
 978 015e FFF7FEFF 		bl	__aeabi_ui2f
 979              	.LVL27:
 980 0162 0146     		mov	r1, r0
 981 0164 4846     		mov	r0, r9
 982 0166 FFF7FEFF 		bl	__aeabi_fdiv
 983              	.LVL28:
 984 016a 344B     		ldr	r3, .L147
 985 016c 1860     		str	r0, [r3]	@ float
 152:main.c        ****             Testerilizacionp[3]=(uint8)Horas1[(ProgramaSeleccionado*Pasos)+Segmento]/10;
 986              		.loc 1 152 0
 987 016e 1FFA88F1 		uxth	r1, r8
 988 0172 3B4B     		ldr	r3, .L147+36
 989 0174 1980     		strh	r1, [r3]	@ movhi
 153:main.c        ****             Testerilizacionp[2]=Horas1[(ProgramaSeleccionado*Pasos)+Segmento]-(Testerilizacionp[3]*
 990              		.loc 1 153 0
 991 0176 FAB2     		uxtb	r2, r7
 992 0178 3B4B     		ldr	r3, .L147+44
 993 017a A3FB0203 		umull	r0, r3, r3, r2
 994 017e DB08     		lsrs	r3, r3, #3
 995 0180 3A4E     		ldr	r6, .L147+48
 996 0182 F375     		strb	r3, [r6, #23]
 154:main.c        ****             Testerilizacionp[1]=Minutos1[(ProgramaSeleccionado*Pasos)+Segmento]/10;
 997              		.loc 1 154 0
 998 0184 C3EB4310 		rsb	r0, r3, r3, lsl #5
 999 0188 C3EB8003 		rsb	r3, r3, r0, lsl #2
 1000 018c 5800     		lsls	r0, r3, #1
 1001 018e 0244     		add	r2, r2, r0
ARM GAS  C:\Users\USUARIO\AppData\Local\Temp\cc8Cohj2.s 			page 28


 1002 0190 B275     		strb	r2, [r6, #22]
 155:main.c        ****             Testerilizacionp[0]=Minutos1[(ProgramaSeleccionado*Pasos)+Segmento]-(Testerilizacionp[1
 1003              		.loc 1 155 0
 1004 0192 374B     		ldr	r3, .L147+52
 1005 0194 83FB0532 		smull	r3, r2, r3, r5
 1006 0198 EB17     		asrs	r3, r5, #31
 1007 019a C3EBA203 		rsb	r3, r3, r2, asr #2
 1008 019e 5BB2     		sxtb	r3, r3
 1009 01a0 7375     		strb	r3, [r6, #21]
 156:main.c        ****             flag_calcula=1;
 1010              		.loc 1 156 0
 1011 01a2 C3EB4312 		rsb	r2, r3, r3, lsl #5
 1012 01a6 C3EB8203 		rsb	r3, r3, r2, lsl #2
 1013 01aa 5A00     		lsls	r2, r3, #1
 1014 01ac 1544     		add	r5, r5, r2
 1015 01ae 3575     		strb	r5, [r6, #20]
 157:main.c        ****             Ganancia=GananciaIn*(Setpoint/Coeficiente);
 1016              		.loc 1 157 0
 1017 01b0 0122     		movs	r2, #1
 1018 01b2 264B     		ldr	r3, .L147+16
 1019 01b4 1A80     		strh	r2, [r3]	@ movhi
 158:main.c        ****          }
 1020              		.loc 1 158 0
 1021 01b6 2F4B     		ldr	r3, .L147+56
 1022 01b8 1888     		ldrh	r0, [r3]
 1023 01ba B1FBF0F0 		udiv	r0, r1, r0
 1024 01be FFF7FEFF 		bl	__aeabi_i2f
 1025              	.LVL29:
 1026 01c2 2D4B     		ldr	r3, .L147+60
 1027 01c4 1968     		ldr	r1, [r3]	@ float
 1028 01c6 FFF7FEFF 		bl	__aeabi_fmul
 1029              	.LVL30:
 1030 01ca 2C4B     		ldr	r3, .L147+64
 1031 01cc 1860     		str	r0, [r3]	@ float
 1032              	.L57:
 163:main.c        ****       //TiempoRampa=((HorasActual*3600)+(MinutosActual*60)+tinicio);
 1033              		.loc 1 163 0
 1034 01ce 1B4B     		ldr	r3, .L147
 1035 01d0 1D68     		ldr	r5, [r3]	@ float
 1036 01d2 0021     		movs	r1, #0
 1037 01d4 2846     		mov	r0, r5
 1038 01d6 FFF7FEFF 		bl	__aeabi_fcmpeq
 1039              	.LVL31:
 1040 01da 0028     		cmp	r0, #0
 1041 01dc 40F0F980 		bne	.L142
 165:main.c        ****       if(Segmento==0){
 1042              		.loc 1 165 0
 1043 01e0 2248     		ldr	r0, .L147+48
 1044 01e2 90F90720 		ldrsb	r2, [r0, #7]
 1045 01e6 02EB8202 		add	r2, r2, r2, lsl #2
 1046 01ea 5300     		lsls	r3, r2, #1
 1047 01ec 90F90620 		ldrsb	r2, [r0, #6]
 1048 01f0 1344     		add	r3, r3, r2
 1049 01f2 90F90510 		ldrsb	r1, [r0, #5]
 1050 01f6 01EB8101 		add	r1, r1, r1, lsl #2
 1051 01fa 4A00     		lsls	r2, r1, #1
 1052 01fc 90F90410 		ldrsb	r1, [r0, #4]
ARM GAS  C:\Users\USUARIO\AppData\Local\Temp\cc8Cohj2.s 			page 29


 1053 0200 0A44     		add	r2, r2, r1
 1054 0202 C3EB0313 		rsb	r3, r3, r3, lsl #4
 1055 0206 C3EB0313 		rsb	r3, r3, r3, lsl #4
 1056 020a 1801     		lsls	r0, r3, #4
 1057 020c C2EB0213 		rsb	r3, r2, r2, lsl #4
 1058 0210 9A00     		lsls	r2, r3, #2
 1059 0212 1044     		add	r0, r0, r2
 1060 0214 1B4B     		ldr	r3, .L147+72
 1061 0216 1B88     		ldrh	r3, [r3]
 1062 0218 1844     		add	r0, r0, r3
 1063 021a 80B2     		uxth	r0, r0
 1064 021c 1A4B     		ldr	r3, .L147+76
 1065 021e 1880     		strh	r0, [r3]	@ movhi
 166:main.c        ****          TemperaturaIdeal=(Pendiente*TiempoRampa)+TempeInicial;
 1066              		.loc 1 166 0
 1067 0220 B4BB     		cbnz	r4, .L60
 167:main.c        ****       }else{
 1068              		.loc 1 167 0
 1069 0222 FFF7FEFF 		bl	__aeabi_i2f
 1070              	.LVL32:
 1071 0226 2946     		mov	r1, r5
 1072 0228 FFF7FEFF 		bl	__aeabi_fmul
 1073              	.LVL33:
 1074 022c 0D4B     		ldr	r3, .L147+40
 1075 022e 1968     		ldr	r1, [r3]	@ float
 1076 0230 FFF7FEFF 		bl	__aeabi_fadd
 1077              	.LVL34:
 1078 0234 154B     		ldr	r3, .L147+80
 1079 0236 1860     		str	r0, [r3]	@ float
 1080 0238 3FE0     		b	.L61
 1081              	.L148:
 1082 023a 00BF     		.align	2
 1083              	.L147:
 1084 023c 00000000 		.word	Pendiente
 1085 0240 00000000 		.word	tiemporecta
 1086 0244 00000000 		.word	Derivativo
 1087 0248 00000000 		.word	Segmento
 1088 024c 00000000 		.word	flag_calcula
 1089 0250 00000000 		.word	ProgramaSeleccionado
 1090 0254 00000000 		.word	Minutos1
 1091 0258 00000000 		.word	Tiempo
 1092 025c 00000000 		.word	Temperatura1
 1093 0260 00000000 		.word	Setpoint
 1094 0264 00000000 		.word	TempeInicial
 1095 0268 CDCCCCCC 		.word	-858993459
 1096 026c 00000000 		.word	.LANCHOR0
 1097 0270 67666666 		.word	1717986919
 1098 0274 00000000 		.word	Coeficiente
 1099 0278 00000000 		.word	GananciaIn
 1100 027c 00000000 		.word	Ganancia
 1101 0280 00000000 		.word	Horas1
 1102 0284 00000000 		.word	tinicio
 1103 0288 00000000 		.word	TiempoRampa
 1104 028c 00000000 		.word	TemperaturaIdeal
 1105              	.L60:
 169:main.c        ****       }
 1106              		.loc 1 169 0
ARM GAS  C:\Users\USUARIO\AppData\Local\Temp\cc8Cohj2.s 			page 30


 1107 0290 FFF7FEFF 		bl	__aeabi_i2f
 1108              	.LVL35:
 1109 0294 2946     		mov	r1, r5
 1110 0296 FFF7FEFF 		bl	__aeabi_fmul
 1111              	.LVL36:
 1112 029a 0546     		mov	r5, r0
 1113 029c 864B     		ldr	r3, .L149+32
 1114 029e 1B78     		ldrb	r3, [r3]	@ zero_extendqisi2
 1115 02a0 04EB0314 		add	r4, r4, r3, lsl #4
 1116 02a4 013C     		subs	r4, r4, #1
 1117 02a6 854B     		ldr	r3, .L149+36
 1118 02a8 33F91400 		ldrsh	r0, [r3, r4, lsl #1]
 1119 02ac FFF7FEFF 		bl	__aeabi_i2f
 1120              	.LVL37:
 1121 02b0 2946     		mov	r1, r5
 1122 02b2 FFF7FEFF 		bl	__aeabi_fadd
 1123              	.LVL38:
 1124 02b6 824B     		ldr	r3, .L149+40
 1125 02b8 1860     		str	r0, [r3]	@ float
 1126              	.L61:
 171:main.c        **** // Pendiente determinar si el comportamiento de la mufla es lineal 10°C/min o si tiene un comporta
 1127              		.loc 1 171 0
 1128 02ba 824B     		ldr	r3, .L149+44
 1129 02bc 1C68     		ldr	r4, [r3]	@ float
 1130 02be 2146     		mov	r1, r4
 1131 02c0 7F4B     		ldr	r3, .L149+40
 1132 02c2 1868     		ldr	r0, [r3]	@ float
 1133 02c4 FFF7FEFF 		bl	__aeabi_fsub
 1134              	.LVL39:
 1135 02c8 7F49     		ldr	r1, .L149+48
 1136 02ca FFF7FEFF 		bl	__aeabi_fmul
 1137              	.LVL40:
 1138 02ce 7F4B     		ldr	r3, .L149+52
 1139 02d0 1968     		ldr	r1, [r3]	@ float
 1140 02d2 FFF7FEFF 		bl	__aeabi_fdiv
 1141              	.LVL41:
 1142 02d6 0546     		mov	r5, r0
 1143 02d8 7D4B     		ldr	r3, .L149+56
 1144 02da 1860     		str	r0, [r3]	@ float
 174:main.c        ****          penMufla=penInicial*0.9;
 1145              		.loc 1 174 0
 1146 02dc 7D49     		ldr	r1, .L149+60
 1147 02de 2046     		mov	r0, r4
 1148 02e0 FFF7FEFF 		bl	__aeabi_fcmplt
 1149              	.LVL42:
 1150 02e4 88B1     		cbz	r0, .L62
 174:main.c        ****          penMufla=penInicial*0.9;
 1151              		.loc 1 174 0 is_stmt 0 discriminator 1
 1152 02e6 7C49     		ldr	r1, .L149+64
 1153 02e8 2046     		mov	r0, r4
 1154 02ea FFF7FEFF 		bl	__aeabi_fcmpge
 1155              	.LVL43:
 1156 02ee 60B1     		cbz	r0, .L62
 175:main.c        ****          
 1157              		.loc 1 175 0 is_stmt 1
 1158 02f0 7A4B     		ldr	r3, .L149+68
 1159 02f2 1868     		ldr	r0, [r3]	@ float
ARM GAS  C:\Users\USUARIO\AppData\Local\Temp\cc8Cohj2.s 			page 31


 1160 02f4 FFF7FEFF 		bl	__aeabi_f2d
 1161              	.LVL44:
 1162 02f8 67A3     		adr	r3, .L149
 1163 02fa D3E90023 		ldrd	r2, [r3]
 1164 02fe FFF7FEFF 		bl	__aeabi_dmul
 1165              	.LVL45:
 1166 0302 FFF7FEFF 		bl	__aeabi_d2f
 1167              	.LVL46:
 1168 0306 714B     		ldr	r3, .L149+52
 1169 0308 1860     		str	r0, [r3]	@ float
 1170              	.L62:
 177:main.c        ****          penMufla=penInicial*0.8;
 1171              		.loc 1 177 0
 1172 030a 7549     		ldr	r1, .L149+72
 1173 030c 2046     		mov	r0, r4
 1174 030e FFF7FEFF 		bl	__aeabi_fcmplt
 1175              	.LVL47:
 1176 0312 88B1     		cbz	r0, .L65
 177:main.c        ****          penMufla=penInicial*0.8;
 1177              		.loc 1 177 0 is_stmt 0 discriminator 1
 1178 0314 6F49     		ldr	r1, .L149+60
 1179 0316 2046     		mov	r0, r4
 1180 0318 FFF7FEFF 		bl	__aeabi_fcmpge
 1181              	.LVL48:
 1182 031c 60B1     		cbz	r0, .L65
 178:main.c        ****          
 1183              		.loc 1 178 0 is_stmt 1
 1184 031e 6F4B     		ldr	r3, .L149+68
 1185 0320 1868     		ldr	r0, [r3]	@ float
 1186 0322 FFF7FEFF 		bl	__aeabi_f2d
 1187              	.LVL49:
 1188 0326 5EA3     		adr	r3, .L149+8
 1189 0328 D3E90023 		ldrd	r2, [r3]
 1190 032c FFF7FEFF 		bl	__aeabi_dmul
 1191              	.LVL50:
 1192 0330 FFF7FEFF 		bl	__aeabi_d2f
 1193              	.LVL51:
 1194 0334 654B     		ldr	r3, .L149+52
 1195 0336 1860     		str	r0, [r3]	@ float
 1196              	.L65:
 180:main.c        ****          penMufla=penInicial*0.7;  
 1197              		.loc 1 180 0
 1198 0338 6A49     		ldr	r1, .L149+76
 1199 033a 2046     		mov	r0, r4
 1200 033c FFF7FEFF 		bl	__aeabi_fcmplt
 1201              	.LVL52:
 1202 0340 88B1     		cbz	r0, .L68
 180:main.c        ****          penMufla=penInicial*0.7;  
 1203              		.loc 1 180 0 is_stmt 0 discriminator 1
 1204 0342 6749     		ldr	r1, .L149+72
 1205 0344 2046     		mov	r0, r4
 1206 0346 FFF7FEFF 		bl	__aeabi_fcmpge
 1207              	.LVL53:
 1208 034a 60B1     		cbz	r0, .L68
 181:main.c        ****          
 1209              		.loc 1 181 0 is_stmt 1
 1210 034c 634B     		ldr	r3, .L149+68
ARM GAS  C:\Users\USUARIO\AppData\Local\Temp\cc8Cohj2.s 			page 32


 1211 034e 1868     		ldr	r0, [r3]	@ float
 1212 0350 FFF7FEFF 		bl	__aeabi_f2d
 1213              	.LVL54:
 1214 0354 54A3     		adr	r3, .L149+16
 1215 0356 D3E90023 		ldrd	r2, [r3]
 1216 035a FFF7FEFF 		bl	__aeabi_dmul
 1217              	.LVL55:
 1218 035e FFF7FEFF 		bl	__aeabi_d2f
 1219              	.LVL56:
 1220 0362 5A4B     		ldr	r3, .L149+52
 1221 0364 1860     		str	r0, [r3]	@ float
 1222              	.L68:
 183:main.c        ****          penMufla=penInicial*0.6;   
 1223              		.loc 1 183 0
 1224 0366 6049     		ldr	r1, .L149+80
 1225 0368 2046     		mov	r0, r4
 1226 036a FFF7FEFF 		bl	__aeabi_fcmple
 1227              	.LVL57:
 1228 036e 88B1     		cbz	r0, .L71
 183:main.c        ****          penMufla=penInicial*0.6;   
 1229              		.loc 1 183 0 is_stmt 0 discriminator 1
 1230 0370 5C49     		ldr	r1, .L149+76
 1231 0372 2046     		mov	r0, r4
 1232 0374 FFF7FEFF 		bl	__aeabi_fcmpge
 1233              	.LVL58:
 1234 0378 60B1     		cbz	r0, .L71
 184:main.c        ****       
 1235              		.loc 1 184 0 is_stmt 1
 1236 037a 584B     		ldr	r3, .L149+68
 1237 037c 1868     		ldr	r0, [r3]	@ float
 1238 037e FFF7FEFF 		bl	__aeabi_f2d
 1239              	.LVL59:
 1240 0382 4BA3     		adr	r3, .L149+24
 1241 0384 D3E90023 		ldrd	r2, [r3]
 1242 0388 FFF7FEFF 		bl	__aeabi_dmul
 1243              	.LVL60:
 1244 038c FFF7FEFF 		bl	__aeabi_d2f
 1245              	.LVL61:
 1246 0390 4E4B     		ldr	r3, .L149+52
 1247 0392 1860     		str	r0, [r3]	@ float
 1248              	.L71:
 186:main.c        ****          PotenciaEntregada=100.0;
 1249              		.loc 1 186 0
 1250 0394 4C49     		ldr	r1, .L149+48
 1251 0396 2846     		mov	r0, r5
 1252 0398 FFF7FEFF 		bl	__aeabi_fcmpgt
 1253              	.LVL62:
 1254 039c 10B1     		cbz	r0, .L74
 187:main.c        ****       }
 1255              		.loc 1 187 0
 1256 039e 4A4A     		ldr	r2, .L149+48
 1257 03a0 4B4B     		ldr	r3, .L149+56
 1258 03a2 1A60     		str	r2, [r3]	@ float
 1259              	.L74:
 190:main.c        ****          PotenciaEntregada=0;
 1260              		.loc 1 190 0
 1261 03a4 0021     		movs	r1, #0
ARM GAS  C:\Users\USUARIO\AppData\Local\Temp\cc8Cohj2.s 			page 33


 1262 03a6 4A4B     		ldr	r3, .L149+56
 1263 03a8 1868     		ldr	r0, [r3]	@ float
 1264 03aa FFF7FEFF 		bl	__aeabi_fcmplt
 1265              	.LVL63:
 1266 03ae 10B1     		cbz	r0, .L76
 191:main.c        ****       }
 1267              		.loc 1 191 0
 1268 03b0 0022     		movs	r2, #0
 1269 03b2 474B     		ldr	r3, .L149+56
 1270 03b4 1A60     		str	r2, [r3]	@ float
 1271              	.L76:
 194:main.c        ****    }else{
 1272              		.loc 1 194 0
 1273 03b6 4D4B     		ldr	r3, .L149+84
 1274 03b8 1878     		ldrb	r0, [r3]	@ zero_extendqisi2
 1275 03ba FFF7FEFF 		bl	__aeabi_i2f
 1276              	.LVL64:
 1277 03be 444B     		ldr	r3, .L149+56
 1278 03c0 1968     		ldr	r1, [r3]	@ float
 1279 03c2 FFF7FEFF 		bl	__aeabi_fmul
 1280              	.LVL65:
 1281 03c6 4049     		ldr	r1, .L149+48
 1282 03c8 FFF7FEFF 		bl	__aeabi_fdiv
 1283              	.LVL66:
 1284 03cc 484B     		ldr	r3, .L149+88
 1285 03ce 1860     		str	r0, [r3]	@ float
 1286 03d0 82E1     		b	.L78
 1287              	.L142:
 197:main.c        ****       
 1288              		.loc 1 197 0
 1289 03d2 484B     		ldr	r3, .L149+92
 1290 03d4 1F88     		ldrh	r7, [r3]
 1291 03d6 3846     		mov	r0, r7
 1292 03d8 FFF7FEFF 		bl	__aeabi_i2d
 1293              	.LVL67:
 1294 03dc 0022     		movs	r2, #0
 1295 03de 464B     		ldr	r3, .L149+96
 1296 03e0 FFF7FEFF 		bl	__aeabi_dadd
 1297              	.LVL68:
 1298 03e4 0446     		mov	r4, r0
 1299 03e6 0D46     		mov	r5, r1
 1300 03e8 364B     		ldr	r3, .L149+44
 1301 03ea 1868     		ldr	r0, [r3]	@ float
 1302 03ec FFF7FEFF 		bl	__aeabi_f2d
 1303              	.LVL69:
 1304 03f0 0246     		mov	r2, r0
 1305 03f2 0B46     		mov	r3, r1
 1306 03f4 2046     		mov	r0, r4
 1307 03f6 2946     		mov	r1, r5
 1308 03f8 FFF7FEFF 		bl	__aeabi_dsub
 1309              	.LVL70:
 1310 03fc FFF7FEFF 		bl	__aeabi_d2f
 1311              	.LVL71:
 1312 0400 0446     		mov	r4, r0
 1313 0402 3E4B     		ldr	r3, .L149+100
 1314 0404 1860     		str	r0, [r3]	@ float
 199:main.c        ****          flag_ajuste=0;
ARM GAS  C:\Users\USUARIO\AppData\Local\Temp\cc8Cohj2.s 			page 34


 1315              		.loc 1 199 0
 1316 0406 4FF08241 		mov	r1, #1090519040
 1317 040a FFF7FEFF 		bl	__aeabi_fcmpge
 1318              	.LVL72:
 1319 040e 0028     		cmp	r0, #0
 1320 0410 00F09F80 		beq	.L79
 199:main.c        ****          flag_ajuste=0;
 1321              		.loc 1 199 0 is_stmt 0 discriminator 1
 1322 0414 3A4B     		ldr	r3, .L149+104
 1323 0416 1D68     		ldr	r5, [r3]	@ float
 1324 0418 4FF07E51 		mov	r1, #1065353216
 1325 041c 2846     		mov	r0, r5
 1326 041e FFF7FEFF 		bl	__aeabi_fcmplt
 1327              	.LVL73:
 1328 0422 0028     		cmp	r0, #0
 1329 0424 00F09580 		beq	.L79
 200:main.c        ****          flag_ajuste2=0;
 1330              		.loc 1 200 0 is_stmt 1
 1331 0428 0023     		movs	r3, #0
 1332 042a 364A     		ldr	r2, .L149+108
 1333 042c 1380     		strh	r3, [r2]	@ movhi
 201:main.c        ****          if(Potencia<90.0){
 1334              		.loc 1 201 0
 1335 042e 364A     		ldr	r2, .L149+112
 1336 0430 1380     		strh	r3, [r2]	@ movhi
 202:main.c        ****             if(TiempoControl>=Derivativo){
 1337              		.loc 1 202 0
 1338 0432 3649     		ldr	r1, .L149+116
 1339 0434 364B     		ldr	r3, .L149+120
 1340 0436 1868     		ldr	r0, [r3]	@ float
 1341 0438 FFF7FEFF 		bl	__aeabi_fcmplt
 1342              	.LVL74:
 1343 043c 0028     		cmp	r0, #0
 1344 043e 00F08880 		beq	.L79
 203:main.c        ****                TiempoControl=0;
 1345              		.loc 1 203 0
 1346 0442 344B     		ldr	r3, .L149+124
 1347 0444 1A78     		ldrb	r2, [r3]	@ zero_extendqisi2
 1348 0446 344B     		ldr	r3, .L149+128
 1349 0448 1B88     		ldrh	r3, [r3]
 1350 044a 9A42     		cmp	r2, r3
 1351 044c 00F28180 		bhi	.L79
 204:main.c        ****                if(Aumento<-2){
 1352              		.loc 1 204 0
 1353 0450 0022     		movs	r2, #0
 1354 0452 314B     		ldr	r3, .L149+128
 1355 0454 1A80     		strh	r2, [r3]	@ movhi
 205:main.c        ****                   Ganancia+=Integral+1;
 1356              		.loc 1 205 0
 1357 0456 4FF04041 		mov	r1, #-1073741824
 1358 045a 2846     		mov	r0, r5
 1359 045c FFF7FEFF 		bl	__aeabi_fcmplt
 1360              	.LVL75:
 1361 0460 50B1     		cbz	r0, .L143
 206:main.c        ****                }else{
 1362              		.loc 1 206 0
 1363 0462 2E4B     		ldr	r3, .L149+132
ARM GAS  C:\Users\USUARIO\AppData\Local\Temp\cc8Cohj2.s 			page 35


 1364 0464 1878     		ldrb	r0, [r3]	@ zero_extendqisi2
 1365 0466 2E4D     		ldr	r5, .L149+136
 1366 0468 0130     		adds	r0, r0, #1
 1367 046a FFF7FEFF 		bl	__aeabi_i2f
 1368              	.LVL76:
 1369 046e 2968     		ldr	r1, [r5]	@ float
 1370 0470 FFF7FEFF 		bl	__aeabi_fadd
 1371              	.LVL77:
 1372 0474 2860     		str	r0, [r5]	@ float
 1373 0476 6CE0     		b	.L79
 1374              	.L143:
 208:main.c        ****                      Ganancia+=Integral;
 1375              		.loc 1 208 0
 1376 0478 2A49     		ldr	r1, .L149+140
 1377 047a 2846     		mov	r0, r5
 1378 047c FFF7FEFF 		bl	__aeabi_fcmplt
 1379              	.LVL78:
 1380 0480 0028     		cmp	r0, #0
 1381 0482 51D0     		beq	.L144
 209:main.c        ****                   }else{
 1382              		.loc 1 209 0
 1383 0484 264D     		ldr	r5, .L149+136
 1384 0486 254B     		ldr	r3, .L149+132
 1385 0488 1878     		ldrb	r0, [r3]	@ zero_extendqisi2
 1386 048a FFF7FEFF 		bl	__aeabi_i2f
 1387              	.LVL79:
 1388 048e 2968     		ldr	r1, [r5]	@ float
 1389 0490 FFF7FEFF 		bl	__aeabi_fadd
 1390              	.LVL80:
 1391 0494 2860     		str	r0, [r5]	@ float
 1392 0496 5CE0     		b	.L79
 1393              	.L150:
 1394              		.align	3
 1395              	.L149:
 1396 0498 CDCCCCCC 		.word	-858993459
 1397 049c CCCCEC3F 		.word	1072483532
 1398 04a0 9A999999 		.word	-1717986918
 1399 04a4 9999E93F 		.word	1072273817
 1400 04a8 66666666 		.word	1717986918
 1401 04ac 6666E63F 		.word	1072064102
 1402 04b0 33333333 		.word	858993459
 1403 04b4 3333E33F 		.word	1071854387
 1404 04b8 00000000 		.word	ProgramaSeleccionado
 1405 04bc 00000000 		.word	Temperatura1
 1406 04c0 00000000 		.word	TemperaturaIdeal
 1407 04c4 00000000 		.word	Temperatura
 1408 04c8 0000C842 		.word	1120403456
 1409 04cc 00000000 		.word	.LANCHOR1
 1410 04d0 00000000 		.word	PotenciaEntregada
 1411 04d4 0000E143 		.word	1138819072
 1412 04d8 00004843 		.word	1128792064
 1413 04dc 00000000 		.word	penInicial
 1414 04e0 00001644 		.word	1142292480
 1415 04e4 00006144 		.word	1147207680
 1416 04e8 00009644 		.word	1150681088
 1417 04ec 00000000 		.word	Tciclo
 1418 04f0 00000000 		.word	Tpulso
ARM GAS  C:\Users\USUARIO\AppData\Local\Temp\cc8Cohj2.s 			page 36


 1419 04f4 00000000 		.word	Setpoint
 1420 04f8 00001440 		.word	1075052544
 1421 04fc 00000000 		.word	error
 1422 0500 00000000 		.word	Aumento
 1423 0504 00000000 		.word	flag_ajuste
 1424 0508 00000000 		.word	flag_ajuste2
 1425 050c 0000B442 		.word	1119092736
 1426 0510 00000000 		.word	Potencia
 1427 0514 00000000 		.word	Derivativo
 1428 0518 00000000 		.word	TiempoControl
 1429 051c 00000000 		.word	Integral
 1430 0520 00000000 		.word	Ganancia
 1431 0524 000080BF 		.word	-1082130432
 1432              	.L144:
 211:main.c        ****                   }
 1433              		.loc 1 211 0
 1434 0528 7F4B     		ldr	r3, .L151+16
 1435 052a 1878     		ldrb	r0, [r3]	@ zero_extendqisi2
 1436 052c FFF7FEFF 		bl	__aeabi_i2d
 1437              	.LVL81:
 1438 0530 0022     		movs	r2, #0
 1439 0532 7E4B     		ldr	r3, .L151+20
 1440 0534 FFF7FEFF 		bl	__aeabi_dsub
 1441              	.LVL82:
 1442 0538 8046     		mov	r8, r0
 1443 053a 8946     		mov	r9, r1
 1444 053c 7C4D     		ldr	r5, .L151+24
 1445 053e 2868     		ldr	r0, [r5]	@ float
 1446 0540 FFF7FEFF 		bl	__aeabi_f2d
 1447              	.LVL83:
 1448 0544 4246     		mov	r2, r8
 1449 0546 4B46     		mov	r3, r9
 1450 0548 FFF7FEFF 		bl	__aeabi_dadd
 1451              	.LVL84:
 1452 054c FFF7FEFF 		bl	__aeabi_d2f
 1453              	.LVL85:
 1454 0550 2860     		str	r0, [r5]	@ float
 1455              	.L79:
 218:main.c        ****          Ganancia=0.5;
 1456              		.loc 1 218 0
 1457 0552 4FF07C51 		mov	r1, #1056964608
 1458 0556 764B     		ldr	r3, .L151+24
 1459 0558 1868     		ldr	r0, [r3]	@ float
 1460 055a FFF7FEFF 		bl	__aeabi_fcmplt
 1461              	.LVL86:
 1462 055e 18B1     		cbz	r0, .L87
 219:main.c        ****       }
 1463              		.loc 1 219 0
 1464 0560 4FF07C52 		mov	r2, #1056964608
 1465 0564 724B     		ldr	r3, .L151+24
 1466 0566 1A60     		str	r2, [r3]	@ float
 1467              	.L87:
 226:main.c        ****             
 1468              		.loc 1 226 0
 1469 0568 714B     		ldr	r3, .L151+24
 1470 056a 1968     		ldr	r1, [r3]	@ float
 1471 056c 2046     		mov	r0, r4
ARM GAS  C:\Users\USUARIO\AppData\Local\Temp\cc8Cohj2.s 			page 37


 1472 056e FFF7FEFF 		bl	__aeabi_fmul
 1473              	.LVL87:
 1474 0572 0546     		mov	r5, r0
 1475              	.LVL88:
 228:main.c        ****          tmp=Setpoint;
 1476              		.loc 1 228 0
 1477 0574 3846     		mov	r0, r7
 1478              	.LVL89:
 1479 0576 FFF7FEFF 		bl	__aeabi_i2f
 1480              	.LVL90:
 1481 057a 0646     		mov	r6, r0
 1482 057c 0146     		mov	r1, r0
 1483 057e 2846     		mov	r0, r5
 1484 0580 FFF7FEFF 		bl	__aeabi_fcmpgt
 1485              	.LVL91:
 1486 0584 18B1     		cbz	r0, .L89
 229:main.c        ****                   
 1487              		.loc 1 229 0
 1488 0586 3846     		mov	r0, r7
 1489 0588 FFF7FEFF 		bl	__aeabi_ui2f
 1490              	.LVL92:
 1491 058c 0546     		mov	r5, r0
 1492              	.LVL93:
 1493              	.L89:
 231:main.c        ****          tmp=0.0;
 1494              		.loc 1 231 0
 1495 058e 0021     		movs	r1, #0
 1496 0590 2846     		mov	r0, r5
 1497 0592 FFF7FEFF 		bl	__aeabi_fcmplt
 1498              	.LVL94:
 1499 0596 00B1     		cbz	r0, .L91
 232:main.c        ****       
 1500              		.loc 1 232 0
 1501 0598 0025     		movs	r5, #0
 1502              	.LVL95:
 1503              	.L91:
 236:main.c        ****       
 1504              		.loc 1 236 0
 1505 059a 3146     		mov	r1, r6
 1506 059c 2846     		mov	r0, r5
 1507 059e FFF7FEFF 		bl	__aeabi_fdiv
 1508              	.LVL96:
 1509 05a2 0546     		mov	r5, r0
 1510              	.LVL97:
 1511 05a4 634B     		ldr	r3, .L151+28
 1512 05a6 1878     		ldrb	r0, [r3]	@ zero_extendqisi2
 1513 05a8 FFF7FEFF 		bl	__aeabi_i2f
 1514              	.LVL98:
 1515 05ac 2946     		mov	r1, r5
 1516 05ae FFF7FEFF 		bl	__aeabi_fmul
 1517              	.LVL99:
 1518 05b2 0546     		mov	r5, r0
 1519 05b4 604B     		ldr	r3, .L151+32
 1520 05b6 1860     		str	r0, [r3]	@ float
 238:main.c        ****          if(error<=(desvio+1) && error>0){   
 1521              		.loc 1 238 0
 1522 05b8 6049     		ldr	r1, .L151+36
ARM GAS  C:\Users\USUARIO\AppData\Local\Temp\cc8Cohj2.s 			page 38


 1523 05ba 2046     		mov	r0, r4
 1524 05bc FFF7FEFF 		bl	__aeabi_fcmplt
 1525              	.LVL100:
 1526 05c0 0028     		cmp	r0, #0
 1527 05c2 49D0     		beq	.L92
 238:main.c        ****          if(error<=(desvio+1) && error>0){   
 1528              		.loc 1 238 0 is_stmt 0 discriminator 1
 1529 05c4 0021     		movs	r1, #0
 1530 05c6 2046     		mov	r0, r4
 1531 05c8 FFF7FEFF 		bl	__aeabi_fcmpgt
 1532              	.LVL101:
 1533 05cc 0028     		cmp	r0, #0
 1534 05ce 43D0     		beq	.L92
 239:main.c        ****             if(flag_ajuste==0){
 1535              		.loc 1 239 0 is_stmt 1
 1536 05d0 5A49     		ldr	r1, .L151+36
 1537 05d2 2046     		mov	r0, r4
 1538 05d4 FFF7FEFF 		bl	__aeabi_fcmple
 1539              	.LVL102:
 1540 05d8 68B1     		cbz	r0, .L95
 239:main.c        ****             if(flag_ajuste==0){
 1541              		.loc 1 239 0 is_stmt 0 discriminator 1
 1542 05da 0021     		movs	r1, #0
 1543 05dc 2046     		mov	r0, r4
 1544 05de FFF7FEFF 		bl	__aeabi_fcmpgt
 1545              	.LVL103:
 1546 05e2 40B1     		cbz	r0, .L95
 240:main.c        ****                TpulsoMax=Tpulso;
 1547              		.loc 1 240 0 is_stmt 1
 1548 05e4 564B     		ldr	r3, .L151+40
 1549 05e6 B3F90030 		ldrsh	r3, [r3]
 1550 05ea 23B9     		cbnz	r3, .L95
 241:main.c        ****                flag_ajuste=1;  
 1551              		.loc 1 241 0
 1552 05ec 554B     		ldr	r3, .L151+44
 1553 05ee 1D60     		str	r5, [r3]	@ float
 242:main.c        ****             }
 1554              		.loc 1 242 0
 1555 05f0 0122     		movs	r2, #1
 1556 05f2 534B     		ldr	r3, .L151+40
 1557 05f4 1A80     		strh	r2, [r3]	@ movhi
 1558              	.L95:
 246:main.c        ****             if(flag_ajuste2==0){
 1559              		.loc 1 246 0
 1560 05f6 4FF08141 		mov	r1, #1082130432
 1561 05fa 2046     		mov	r0, r4
 1562 05fc FFF7FEFF 		bl	__aeabi_fcmple
 1563              	.LVL104:
 1564 0600 68B1     		cbz	r0, .L98
 246:main.c        ****             if(flag_ajuste2==0){
 1565              		.loc 1 246 0 is_stmt 0 discriminator 1
 1566 0602 0021     		movs	r1, #0
 1567 0604 2046     		mov	r0, r4
 1568 0606 FFF7FEFF 		bl	__aeabi_fcmpgt
 1569              	.LVL105:
 1570 060a 40B1     		cbz	r0, .L98
 247:main.c        ****                Tpulsomin=Tpulso;
ARM GAS  C:\Users\USUARIO\AppData\Local\Temp\cc8Cohj2.s 			page 39


 1571              		.loc 1 247 0 is_stmt 1
 1572 060c 4E4B     		ldr	r3, .L151+48
 1573 060e B3F90030 		ldrsh	r3, [r3]
 1574 0612 23B9     		cbnz	r3, .L98
 248:main.c        ****                flag_ajuste2=1;           
 1575              		.loc 1 248 0
 1576 0614 4D4B     		ldr	r3, .L151+52
 1577 0616 1D60     		str	r5, [r3]	@ float
 249:main.c        ****             }
 1578              		.loc 1 249 0
 1579 0618 0122     		movs	r2, #1
 1580 061a 4B4B     		ldr	r3, .L151+48
 1581 061c 1A80     		strh	r2, [r3]	@ movhi
 1582              	.L98:
 253:main.c        ****             if(Tpulso<Tpulsomin){
 1583              		.loc 1 253 0
 1584 061e 4A4B     		ldr	r3, .L151+48
 1585 0620 B3F90030 		ldrsh	r3, [r3]
 1586 0624 012B     		cmp	r3, #1
 1587 0626 08D1     		bne	.L101
 254:main.c        ****                Tpulso=Tpulsomin;
 1588              		.loc 1 254 0
 1589 0628 484B     		ldr	r3, .L151+52
 1590 062a 1E68     		ldr	r6, [r3]	@ float
 1591 062c 3146     		mov	r1, r6
 1592 062e 2846     		mov	r0, r5
 1593 0630 FFF7FEFF 		bl	__aeabi_fcmplt
 1594              	.LVL106:
 1595 0634 08B1     		cbz	r0, .L101
 255:main.c        ****             }
 1596              		.loc 1 255 0
 1597 0636 404B     		ldr	r3, .L151+32
 1598 0638 1E60     		str	r6, [r3]	@ float
 1599              	.L101:
 258:main.c        ****             if(Tpulso>TpulsoMax){
 1600              		.loc 1 258 0
 1601 063a 414B     		ldr	r3, .L151+40
 1602 063c B3F90030 		ldrsh	r3, [r3]
 1603 0640 012B     		cmp	r3, #1
 1604 0642 09D1     		bne	.L92
 259:main.c        ****                Tpulso=TpulsoMax;
 1605              		.loc 1 259 0
 1606 0644 3F4B     		ldr	r3, .L151+44
 1607 0646 1D68     		ldr	r5, [r3]	@ float
 1608 0648 2946     		mov	r1, r5
 1609 064a 3B4B     		ldr	r3, .L151+32
 1610 064c 1868     		ldr	r0, [r3]	@ float
 1611 064e FFF7FEFF 		bl	__aeabi_fcmpgt
 1612              	.LVL107:
 1613 0652 08B1     		cbz	r0, .L92
 260:main.c        ****             } 
 1614              		.loc 1 260 0
 1615 0654 384B     		ldr	r3, .L151+32
 1616 0656 1D60     		str	r5, [r3]	@ float
 1617              	.L92:
 265:main.c        ****          sobrepaso=1;
 1618              		.loc 1 265 0
ARM GAS  C:\Users\USUARIO\AppData\Local\Temp\cc8Cohj2.s 			page 40


 1619 0658 0021     		movs	r1, #0
 1620 065a 2046     		mov	r0, r4
 1621 065c FFF7FEFF 		bl	__aeabi_fcmplt
 1622              	.LVL108:
 1623 0660 00B3     		cbz	r0, .L145
 266:main.c        ****          Tpulso=Tpulsomin/2;
 1624              		.loc 1 266 0
 1625 0662 0122     		movs	r2, #1
 1626 0664 3A4B     		ldr	r3, .L151+56
 1627 0666 1A80     		strh	r2, [r3]	@ movhi
 267:main.c        ****          if(tSobrepaso>300){
 1628              		.loc 1 267 0
 1629 0668 384B     		ldr	r3, .L151+52
 1630 066a 1C68     		ldr	r4, [r3]	@ float
 1631 066c 4FF07C51 		mov	r1, #1056964608
 1632 0670 2046     		mov	r0, r4
 1633 0672 FFF7FEFF 		bl	__aeabi_fmul
 1634              	.LVL109:
 1635 0676 304B     		ldr	r3, .L151+32
 1636 0678 1860     		str	r0, [r3]	@ float
 268:main.c        ****             Tpulsomin-=0.1;
 1637              		.loc 1 268 0
 1638 067a 364B     		ldr	r3, .L151+60
 1639 067c 1B88     		ldrh	r3, [r3]
 1640 067e B3F5967F 		cmp	r3, #300
 1641 0682 14D9     		bls	.L106
 269:main.c        ****             tSobrepaso=0;
 1642              		.loc 1 269 0
 1643 0684 2046     		mov	r0, r4
 1644 0686 FFF7FEFF 		bl	__aeabi_f2d
 1645              	.LVL110:
 1646 068a 23A3     		adr	r3, .L151
 1647 068c D3E90023 		ldrd	r2, [r3]
 1648 0690 FFF7FEFF 		bl	__aeabi_dsub
 1649              	.LVL111:
 1650 0694 FFF7FEFF 		bl	__aeabi_d2f
 1651              	.LVL112:
 1652 0698 2C4B     		ldr	r3, .L151+52
 1653 069a 1860     		str	r0, [r3]	@ float
 270:main.c        ****          }
 1654              		.loc 1 270 0
 1655 069c 0022     		movs	r2, #0
 1656 069e 2D4B     		ldr	r3, .L151+60
 1657 06a0 1A80     		strh	r2, [r3]	@ movhi
 1658 06a2 04E0     		b	.L106
 1659              	.L145:
 273:main.c        ****          tSobrepaso=0;
 1660              		.loc 1 273 0
 1661 06a4 0023     		movs	r3, #0
 1662 06a6 2A4A     		ldr	r2, .L151+56
 1663 06a8 1380     		strh	r3, [r2]	@ movhi
 274:main.c        ****       }
 1664              		.loc 1 274 0
 1665 06aa 2A4A     		ldr	r2, .L151+60
 1666 06ac 1380     		strh	r3, [r2]	@ movhi
 1667              	.L106:
 277:main.c        ****       if(Tpulso>Tciclo)Tpulso=0;
ARM GAS  C:\Users\USUARIO\AppData\Local\Temp\cc8Cohj2.s 			page 41


 1668              		.loc 1 277 0
 1669 06ae 0021     		movs	r1, #0
 1670 06b0 214B     		ldr	r3, .L151+32
 1671 06b2 1868     		ldr	r0, [r3]	@ float
 1672 06b4 FFF7FEFF 		bl	__aeabi_fcmplt
 1673              	.LVL113:
 1674 06b8 10B1     		cbz	r0, .L107
 277:main.c        ****       if(Tpulso>Tciclo)Tpulso=0;
 1675              		.loc 1 277 0 is_stmt 0 discriminator 1
 1676 06ba 0022     		movs	r2, #0
 1677 06bc 1E4B     		ldr	r3, .L151+32
 1678 06be 1A60     		str	r2, [r3]	@ float
 1679              	.L107:
 278:main.c        ****    }
 1680              		.loc 1 278 0 is_stmt 1
 1681 06c0 1C4B     		ldr	r3, .L151+28
 1682 06c2 1878     		ldrb	r0, [r3]	@ zero_extendqisi2
 1683 06c4 FFF7FEFF 		bl	__aeabi_i2f
 1684              	.LVL114:
 1685 06c8 1B4B     		ldr	r3, .L151+32
 1686 06ca 1968     		ldr	r1, [r3]	@ float
 1687 06cc FFF7FEFF 		bl	__aeabi_fcmplt
 1688              	.LVL115:
 1689 06d0 10B1     		cbz	r0, .L78
 278:main.c        ****    }
 1690              		.loc 1 278 0 is_stmt 0 discriminator 1
 1691 06d2 0022     		movs	r2, #0
 1692 06d4 184B     		ldr	r3, .L151+32
 1693 06d6 1A60     		str	r2, [r3]	@ float
 1694              	.L78:
 280:main.c        ****    Tc=(Tciclo/0.002);
 1695              		.loc 1 280 0 is_stmt 1
 1696 06d8 174B     		ldr	r3, .L151+32
 1697 06da 1868     		ldr	r0, [r3]	@ float
 1698 06dc FFF7FEFF 		bl	__aeabi_f2d
 1699              	.LVL116:
 1700 06e0 0FA3     		adr	r3, .L151+8
 1701 06e2 D3E90023 		ldrd	r2, [r3]
 1702 06e6 FFF7FEFF 		bl	__aeabi_ddiv
 1703              	.LVL117:
 1704 06ea FFF7FEFF 		bl	__aeabi_d2uiz
 1705              	.LVL118:
 1706 06ee 1A4B     		ldr	r3, .L151+64
 1707 06f0 1880     		strh	r0, [r3]	@ movhi
 281:main.c        ****    Control=1;     
 1708              		.loc 1 281 0
 1709 06f2 104B     		ldr	r3, .L151+28
 1710 06f4 1878     		ldrb	r0, [r3]	@ zero_extendqisi2
 1711 06f6 FFF7FEFF 		bl	__aeabi_i2d
 1712              	.LVL119:
 1713 06fa 09A3     		adr	r3, .L151+8
 1714 06fc D3E90023 		ldrd	r2, [r3]
 1715 0700 FFF7FEFF 		bl	__aeabi_ddiv
 1716              	.LVL120:
 1717 0704 FFF7FEFF 		bl	__aeabi_d2uiz
 1718              	.LVL121:
 1719 0708 144B     		ldr	r3, .L151+68
ARM GAS  C:\Users\USUARIO\AppData\Local\Temp\cc8Cohj2.s 			page 42


 1720 070a 1880     		strh	r0, [r3]	@ movhi
 282:main.c        **** //-------------------------------------------------------------------------------------------------
 1721              		.loc 1 282 0
 1722 070c 0122     		movs	r2, #1
 1723 070e 144B     		ldr	r3, .L151+72
 1724 0710 1A80     		strh	r2, [r3]	@ movhi
 1725 0712 BDE8F087 		pop	{r4, r5, r6, r7, r8, r9, r10, pc}
 1726              	.L152:
 1727 0716 00BF     		.align	3
 1728              	.L151:
 1729 0718 9A999999 		.word	-1717986918
 1730 071c 9999B93F 		.word	1069128089
 1731 0720 FCA9F1D2 		.word	-755914244
 1732 0724 4D62603F 		.word	1063281229
 1733 0728 00000000 		.word	Integral
 1734 072c 0000E03F 		.word	1071644672
 1735 0730 00000000 		.word	Ganancia
 1736 0734 00000000 		.word	Tciclo
 1737 0738 00000000 		.word	Tpulso
 1738 073c 0000C040 		.word	1086324736
 1739 0740 00000000 		.word	flag_ajuste
 1740 0744 00000000 		.word	TpulsoMax
 1741 0748 00000000 		.word	flag_ajuste2
 1742 074c 00000000 		.word	Tpulsomin
 1743 0750 00000000 		.word	sobrepaso
 1744 0754 00000000 		.word	tSobrepaso
 1745 0758 00000000 		.word	Tp
 1746 075c 00000000 		.word	Tc
 1747 0760 00000000 		.word	Control
 1748              		.cfi_endproc
 1749              	.LFE66:
 1750              		.size	Controla, .-Controla
 1751              		.section	.text.CuentaTiempo,"ax",%progbits
 1752              		.align	2
 1753              		.global	CuentaTiempo
 1754              		.thumb
 1755              		.thumb_func
 1756              		.type	CuentaTiempo, %function
 1757              	CuentaTiempo:
 1758              	.LFB67:
 287:main.c        ****       if(tinicio>=60){
 1759              		.loc 1 287 0
 1760              		.cfi_startproc
 1761              		@ args = 0, pretend = 0, frame = 0
 1762              		@ frame_needed = 0, uses_anonymous_args = 0
 288:main.c        ****          tinicio=0;
 1763              		.loc 1 288 0
 1764 0000 124B     		ldr	r3, .L157
 1765 0002 1B88     		ldrh	r3, [r3]
 1766 0004 3B2B     		cmp	r3, #59
 1767 0006 1FD9     		bls	.L156
 287:main.c        ****       if(tinicio>=60){
 1768              		.loc 1 287 0
 1769 0008 10B5     		push	{r4, lr}
 1770              		.cfi_def_cfa_offset 8
 1771              		.cfi_offset 4, -8
 1772              		.cfi_offset 14, -4
ARM GAS  C:\Users\USUARIO\AppData\Local\Temp\cc8Cohj2.s 			page 43


 289:main.c        ****          mEst+=1.0;
 1773              		.loc 1 289 0
 1774 000a 0022     		movs	r2, #0
 1775 000c 0F4B     		ldr	r3, .L157
 1776 000e 1A80     		strh	r2, [r3]	@ movhi
 290:main.c        ****          if(mEst>59){
 1777              		.loc 1 290 0
 1778 0010 0F4C     		ldr	r4, .L157+4
 1779 0012 2078     		ldrb	r0, [r4]	@ zero_extendqisi2
 1780 0014 FFF7FEFF 		bl	__aeabi_i2d
 1781              	.LVL122:
 1782 0018 0022     		movs	r2, #0
 1783 001a 0E4B     		ldr	r3, .L157+8
 1784 001c FFF7FEFF 		bl	__aeabi_dadd
 1785              	.LVL123:
 1786 0020 FFF7FEFF 		bl	__aeabi_d2uiz
 1787              	.LVL124:
 1788 0024 C0B2     		uxtb	r0, r0
 1789 0026 2070     		strb	r0, [r4]
 291:main.c        ****             mEst=0;
 1790              		.loc 1 291 0
 1791 0028 3B28     		cmp	r0, #59
 1792 002a 0CD9     		bls	.L153
 292:main.c        ****             hEst+=1.0;
 1793              		.loc 1 292 0
 1794 002c 0022     		movs	r2, #0
 1795 002e 2270     		strb	r2, [r4]
 293:main.c        ****          }
 1796              		.loc 1 293 0
 1797 0030 094C     		ldr	r4, .L157+12
 1798 0032 2078     		ldrb	r0, [r4]	@ zero_extendqisi2
 1799 0034 FFF7FEFF 		bl	__aeabi_i2d
 1800              	.LVL125:
 1801 0038 0022     		movs	r2, #0
 1802 003a 064B     		ldr	r3, .L157+8
 1803 003c FFF7FEFF 		bl	__aeabi_dadd
 1804              	.LVL126:
 1805 0040 FFF7FEFF 		bl	__aeabi_d2uiz
 1806              	.LVL127:
 1807 0044 2070     		strb	r0, [r4]
 1808              	.L153:
 1809 0046 10BD     		pop	{r4, pc}
 1810              	.L156:
 1811              		.cfi_def_cfa_offset 0
 1812              		.cfi_restore 4
 1813              		.cfi_restore 14
 1814 0048 7047     		bx	lr
 1815              	.L158:
 1816 004a 00BF     		.align	2
 1817              	.L157:
 1818 004c 00000000 		.word	tinicio
 1819 0050 00000000 		.word	mEst
 1820 0054 0000F03F 		.word	1072693248
 1821 0058 00000000 		.word	hEst
 1822              		.cfi_endproc
 1823              	.LFE67:
 1824              		.size	CuentaTiempo, .-CuentaTiempo
ARM GAS  C:\Users\USUARIO\AppData\Local\Temp\cc8Cohj2.s 			page 44


 1825              		.section	.text.iniciaConteo,"ax",%progbits
 1826              		.align	2
 1827              		.global	iniciaConteo
 1828              		.thumb
 1829              		.thumb_func
 1830              		.type	iniciaConteo, %function
 1831              	iniciaConteo:
 1832              	.LFB68:
 298:main.c        ****    if(Pendiente!=0){
 1833              		.loc 1 298 0
 1834              		.cfi_startproc
 1835              		@ args = 0, pretend = 0, frame = 0
 1836              		@ frame_needed = 0, uses_anonymous_args = 0
 1837 0000 10B5     		push	{r4, lr}
 1838              		.cfi_def_cfa_offset 8
 1839              		.cfi_offset 4, -8
 1840              		.cfi_offset 14, -4
 299:main.c        ****         if(flagRampa)
 1841              		.loc 1 299 0
 1842 0002 144B     		ldr	r3, .L170
 1843 0004 1C68     		ldr	r4, [r3]	@ float
 1844 0006 0021     		movs	r1, #0
 1845 0008 2046     		mov	r0, r4
 1846 000a FFF7FEFF 		bl	__aeabi_fcmpeq
 1847              	.LVL128:
 1848 000e 58B9     		cbnz	r0, .L168
 300:main.c        ****             tiempo_esterilizacion=1;
 1849              		.loc 1 300 0
 1850 0010 114B     		ldr	r3, .L170+4
 1851 0012 B3F90030 		ldrsh	r3, [r3]
 1852 0016 1BB1     		cbz	r3, .L162
 301:main.c        ****         else
 1853              		.loc 1 301 0
 1854 0018 0122     		movs	r2, #1
 1855 001a 104B     		ldr	r3, .L170+8
 1856 001c 1A70     		strb	r2, [r3]
 1857 001e 10BD     		pop	{r4, pc}
 1858              	.L162:
 303:main.c        ****    }else if(Pendiente==0){
 1859              		.loc 1 303 0
 1860 0020 0022     		movs	r2, #0
 1861 0022 0E4B     		ldr	r3, .L170+8
 1862 0024 1A70     		strb	r2, [r3]
 1863 0026 10BD     		pop	{r4, pc}
 1864              	.L168:
 304:main.c        ****       if(flagTemperatura && flagRampa)
 1865              		.loc 1 304 0
 1866 0028 0021     		movs	r1, #0
 1867 002a 2046     		mov	r0, r4
 1868 002c FFF7FEFF 		bl	__aeabi_fcmpeq
 1869              	.LVL129:
 1870 0030 70B1     		cbz	r0, .L159
 305:main.c        ****          tiempo_esterilizacion=1;
 1871              		.loc 1 305 0
 1872 0032 0B4B     		ldr	r3, .L170+12
 1873 0034 B3F90030 		ldrsh	r3, [r3]
 1874 0038 3BB1     		cbz	r3, .L165
ARM GAS  C:\Users\USUARIO\AppData\Local\Temp\cc8Cohj2.s 			page 45


 305:main.c        ****          tiempo_esterilizacion=1;
 1875              		.loc 1 305 0 is_stmt 0 discriminator 1
 1876 003a 074B     		ldr	r3, .L170+4
 1877 003c B3F90030 		ldrsh	r3, [r3]
 1878 0040 1BB1     		cbz	r3, .L165
 306:main.c        ****       else
 1879              		.loc 1 306 0 is_stmt 1
 1880 0042 0122     		movs	r2, #1
 1881 0044 054B     		ldr	r3, .L170+8
 1882 0046 1A70     		strb	r2, [r3]
 1883 0048 10BD     		pop	{r4, pc}
 1884              	.L165:
 308:main.c        ****    }
 1885              		.loc 1 308 0
 1886 004a 0022     		movs	r2, #0
 1887 004c 034B     		ldr	r3, .L170+8
 1888 004e 1A70     		strb	r2, [r3]
 1889              	.L159:
 1890 0050 10BD     		pop	{r4, pc}
 1891              	.L171:
 1892 0052 00BF     		.align	2
 1893              	.L170:
 1894 0054 00000000 		.word	Pendiente
 1895 0058 00000000 		.word	flagRampa
 1896 005c 00000000 		.word	tiempo_esterilizacion
 1897 0060 00000000 		.word	flagTemperatura
 1898              		.cfi_endproc
 1899              	.LFE68:
 1900              		.size	iniciaConteo, .-iniciaConteo
 1901              		.section	.text.leeTermocupla,"ax",%progbits
 1902              		.align	2
 1903              		.global	leeTermocupla
 1904              		.thumb
 1905              		.thumb_func
 1906              		.type	leeTermocupla, %function
 1907              	leeTermocupla:
 1908              	.LFB69:
 312:main.c        ****     float Tref;
 1909              		.loc 1 312 0
 1910              		.cfi_startproc
 1911              		@ args = 0, pretend = 0, frame = 0
 1912              		@ frame_needed = 0, uses_anonymous_args = 0
 1913              	.LVL130:
 1914 0000 F8B5     		push	{r3, r4, r5, r6, r7, lr}
 1915              		.cfi_def_cfa_offset 24
 1916              		.cfi_offset 3, -24
 1917              		.cfi_offset 4, -20
 1918              		.cfi_offset 5, -16
 1919              		.cfi_offset 6, -12
 1920              		.cfi_offset 7, -8
 1921              		.cfi_offset 14, -4
 1922 0002 0646     		mov	r6, r0
 1923              	.LVL131:
 315:main.c        ****     /* Measure cold junction temperature */
 1924              		.loc 1 315 0
 1925 0004 0022     		movs	r2, #0
 1926 0006 514B     		ldr	r3, .L182
ARM GAS  C:\Users\USUARIO\AppData\Local\Temp\cc8Cohj2.s 			page 46


 1927 0008 1A60     		str	r2, [r3]	@ float
 317:main.c        **** 	/* Convert cold junction temp to cold junction compensation voltage */
 1928              		.loc 1 317 0
 1929 000a FFF7FEFF 		bl	MeasureColdJnSensorTemp
 1930              	.LVL132:
 1931 000e 00B2     		sxth	r0, r0
 1932 0010 4F4B     		ldr	r3, .L182+4
 1933 0012 1880     		strh	r0, [r3]	@ movhi
 319:main.c        **** 	/* Read thermocouple hot junction voltage */
 1934              		.loc 1 319 0
 1935 0014 FFF7FEFF 		bl	Thermocouple_1_GetVoltage
 1936              	.LVL133:
 1937 0018 4E4C     		ldr	r4, .L182+8
 1938 001a 2060     		str	r0, [r4]
 322:main.c        **** 	ADC_StartConvert();
 1939              		.loc 1 322 0
 1940 001c 0121     		movs	r1, #1
 1941 001e 0220     		movs	r0, #2
 1942 0020 FFF7FEFF 		bl	ADC_SelectConfiguration
 1943              	.LVL134:
 323:main.c        ****     /*Note in this example a blocking call is used, this can be replaced
 1944              		.loc 1 323 0
 1945 0024 FFF7FEFF 		bl	ADC_StartConvert
 1946              	.LVL135:
 326:main.c        **** 	ADC_StopConvert();
 1947              		.loc 1 326 0
 1948 0028 0020     		movs	r0, #0
 1949 002a FFF7FEFF 		bl	ADC_IsEndConversion
 1950              	.LVL136:
 327:main.c        **** 	hotJnCount = ADC_GetResult32();
 1951              		.loc 1 327 0
 1952 002e FFF7FEFF 		bl	ADC_StopConvert
 1953              	.LVL137:
 328:main.c        **** 	/* Read ground reference voltage */
 1954              		.loc 1 328 0
 1955 0032 FFF7FEFF 		bl	ADC_GetResult32
 1956              	.LVL138:
 1957 0036 484B     		ldr	r3, .L182+12
 1958 0038 1860     		str	r0, [r3]
 330:main.c        **** 	/* Correlated double sampling to remove ADC offset */
 1959              		.loc 1 330 0
 1960 003a 0022     		movs	r2, #0
 1961 003c 474B     		ldr	r3, .L182+16
 1962 003e 1A80     		strh	r2, [r3]	@ movhi
 334:main.c        **** 	/* Find thermo-emf in microvolts */
 1963              		.loc 1 334 0
 1964 0040 FFF7FEFF 		bl	FilterSignal
 1965              	.LVL139:
 1966 0044 464B     		ldr	r3, .L182+20
 1967 0046 1860     		str	r0, [r3]
 336:main.c        **** 	/* Perform Cold junction compensation */
 1968              		.loc 1 336 0
 1969 0048 FFF7FEFF 		bl	ADC_CountsTo_uVolts
 1970              	.LVL140:
 1971 004c 454B     		ldr	r3, .L182+24
 1972 004e 1860     		str	r0, [r3]
 338:main.c        **** 	/* Convert thermo-emf to temperature */
ARM GAS  C:\Users\USUARIO\AppData\Local\Temp\cc8Cohj2.s 			page 47


 1973              		.loc 1 338 0
 1974 0050 2368     		ldr	r3, [r4]
 1975 0052 1844     		add	r0, r0, r3
 1976 0054 444B     		ldr	r3, .L182+28
 1977 0056 1860     		str	r0, [r3]
 340:main.c        ****     V0=(float)(tcTemp/100)+(float)(tcTemp-((tcTemp/100)*100))/100;
 1978              		.loc 1 340 0
 1979 0058 FFF7FEFF 		bl	Thermocouple_1_GetTemperature
 1980              	.LVL141:
 1981 005c 0546     		mov	r5, r0
 1982 005e 434B     		ldr	r3, .L182+32
 1983 0060 1860     		str	r0, [r3]
 341:main.c        ****             
 1984              		.loc 1 341 0
 1985 0062 434C     		ldr	r4, .L182+36
 1986 0064 84FB0034 		smull	r3, r4, r4, r0
 1987 0068 C317     		asrs	r3, r0, #31
 1988 006a C3EB6414 		rsb	r4, r3, r4, asr #5
 1989 006e 2046     		mov	r0, r4
 1990 0070 FFF7FEFF 		bl	__aeabi_i2f
 1991              	.LVL142:
 1992 0074 0746     		mov	r7, r0
 1993 0076 6420     		movs	r0, #100
 1994 0078 00FB1450 		mls	r0, r0, r4, r5
 1995 007c FFF7FEFF 		bl	__aeabi_i2f
 1996              	.LVL143:
 1997 0080 3C49     		ldr	r1, .L182+40
 1998 0082 FFF7FEFF 		bl	__aeabi_fdiv
 1999              	.LVL144:
 2000 0086 0146     		mov	r1, r0
 2001 0088 3846     		mov	r0, r7
 2002 008a FFF7FEFF 		bl	__aeabi_fadd
 2003              	.LVL145:
 2004 008e 3A4B     		ldr	r3, .L182+44
 2005 0090 1860     		str	r0, [r3]	@ float
 343:main.c        ****         l=0;
 2006              		.loc 1 343 0
 2007 0092 3A4B     		ldr	r3, .L182+48
 2008 0094 1A78     		ldrb	r2, [r3]	@ zero_extendqisi2
 2009 0096 731E     		subs	r3, r6, #1
 2010 0098 9A42     		cmp	r2, r3
 2011 009a 02DD     		ble	.L173
 344:main.c        ****    //promedio[l]=Temperature;l++;
 2012              		.loc 1 344 0
 2013 009c 0022     		movs	r2, #0
 2014 009e 374B     		ldr	r3, .L182+48
 2015 00a0 1A70     		strb	r2, [r3]
 2016              	.L173:
 346:main.c        ****          
 2017              		.loc 1 346 0
 2018 00a2 364A     		ldr	r2, .L182+48
 2019 00a4 1378     		ldrb	r3, [r2]	@ zero_extendqisi2
 2020 00a6 3649     		ldr	r1, .L182+52
 2021 00a8 41F82300 		str	r0, [r1, r3, lsl #2]	@ float
 2022 00ac 0133     		adds	r3, r3, #1
 2023 00ae 1370     		strb	r3, [r2]
 348:main.c        ****         Prom+=promedio[h];
ARM GAS  C:\Users\USUARIO\AppData\Local\Temp\cc8Cohj2.s 			page 48


 2024              		.loc 1 348 0
 2025 00b0 0022     		movs	r2, #0
 2026 00b2 344B     		ldr	r3, .L182+56
 2027 00b4 1A70     		strb	r2, [r3]
 2028 00b6 0AE0     		b	.L174
 2029              	.L175:
 349:main.c        ****     } 
 2030              		.loc 1 349 0 discriminator 3
 2031 00b8 244D     		ldr	r5, .L182
 2032 00ba 314B     		ldr	r3, .L182+52
 2033 00bc 53F82410 		ldr	r1, [r3, r4, lsl #2]	@ float
 2034 00c0 2868     		ldr	r0, [r5]	@ float
 2035 00c2 FFF7FEFF 		bl	__aeabi_fadd
 2036              	.LVL146:
 2037 00c6 2860     		str	r0, [r5]	@ float
 348:main.c        ****         Prom+=promedio[h];
 2038              		.loc 1 348 0 discriminator 3
 2039 00c8 0134     		adds	r4, r4, #1
 2040 00ca 2E4B     		ldr	r3, .L182+56
 2041 00cc 1C70     		strb	r4, [r3]
 2042              	.L174:
 348:main.c        ****         Prom+=promedio[h];
 2043              		.loc 1 348 0 is_stmt 0 discriminator 1
 2044 00ce 2D4B     		ldr	r3, .L182+56
 2045 00d0 1C78     		ldrb	r4, [r3]	@ zero_extendqisi2
 2046 00d2 A642     		cmp	r6, r4
 2047 00d4 F0D8     		bhi	.L175
 351:main.c        ****    
 2048              		.loc 1 351 0 is_stmt 1
 2049 00d6 1D4D     		ldr	r5, .L182
 2050 00d8 3046     		mov	r0, r6
 2051 00da FFF7FEFF 		bl	__aeabi_i2f
 2052              	.LVL147:
 2053 00de 0146     		mov	r1, r0
 2054 00e0 2868     		ldr	r0, [r5]	@ float
 2055 00e2 FFF7FEFF 		bl	__aeabi_fdiv
 2056              	.LVL148:
 2057 00e6 0446     		mov	r4, r0
 353:main.c        ****     if(Prom<=control2){
 2058              		.loc 1 353 0
 2059 00e8 274B     		ldr	r3, .L182+60
 2060 00ea 1878     		ldrb	r0, [r3]	@ zero_extendqisi2
 2061 00ec FFF7FEFF 		bl	__aeabi_ui2f
 2062              	.LVL149:
 2063 00f0 0646     		mov	r6, r0
 2064 00f2 264B     		ldr	r3, .L182+64
 2065 00f4 1878     		ldrb	r0, [r3]	@ zero_extendqisi2
 2066 00f6 FFF7FEFF 		bl	__aeabi_ui2f
 2067              	.LVL150:
 2068 00fa 0146     		mov	r1, r0
 2069 00fc 3046     		mov	r0, r6
 2070 00fe FFF7FEFF 		bl	__aeabi_fsub
 2071              	.LVL151:
 2072 0102 0146     		mov	r1, r0
 2073 0104 2046     		mov	r0, r4
 2074 0106 FFF7FEFF 		bl	__aeabi_fadd
 2075              	.LVL152:
ARM GAS  C:\Users\USUARIO\AppData\Local\Temp\cc8Cohj2.s 			page 49


 2076 010a 0446     		mov	r4, r0
 2077 010c 2860     		str	r0, [r5]	@ float
 354:main.c        ****         Tref=(Prom-b1)/m1;
 2078              		.loc 1 354 0
 2079 010e 204B     		ldr	r3, .L182+68
 2080 0110 B3F90000 		ldrsh	r0, [r3]
 2081 0114 FFF7FEFF 		bl	__aeabi_i2f
 2082              	.LVL153:
 2083 0118 0146     		mov	r1, r0
 2084 011a 2046     		mov	r0, r4
 2085 011c FFF7FEFF 		bl	__aeabi_fcmple
 2086              	.LVL154:
 2087 0120 48B1     		cbz	r0, .L180
 355:main.c        ****     }else{
 2088              		.loc 1 355 0
 2089 0122 1C4B     		ldr	r3, .L182+72
 2090 0124 1968     		ldr	r1, [r3]	@ float
 2091 0126 2046     		mov	r0, r4
 2092 0128 FFF7FEFF 		bl	__aeabi_fsub
 2093              	.LVL155:
 2094 012c 1A4B     		ldr	r3, .L182+76
 2095 012e 1968     		ldr	r1, [r3]	@ float
 2096 0130 FFF7FEFF 		bl	__aeabi_fdiv
 2097              	.LVL156:
 2098 0134 F8BD     		pop	{r3, r4, r5, r6, r7, pc}
 2099              	.LVL157:
 2100              	.L180:
 357:main.c        ****     }
 2101              		.loc 1 357 0
 2102 0136 194B     		ldr	r3, .L182+80
 2103 0138 1968     		ldr	r1, [r3]	@ float
 2104 013a 2046     		mov	r0, r4
 2105 013c FFF7FEFF 		bl	__aeabi_fsub
 2106              	.LVL158:
 2107 0140 174B     		ldr	r3, .L182+84
 2108 0142 1968     		ldr	r1, [r3]	@ float
 2109 0144 FFF7FEFF 		bl	__aeabi_fdiv
 2110              	.LVL159:
 361:main.c        **** 
 2111              		.loc 1 361 0
 2112 0148 F8BD     		pop	{r3, r4, r5, r6, r7, pc}
 2113              	.L183:
 2114 014a 00BF     		.align	2
 2115              	.L182:
 2116 014c 00000000 		.word	Prom
 2117 0150 00000000 		.word	coldJnTemp
 2118 0154 00000000 		.word	tcColdJnuVolt
 2119 0158 00000000 		.word	hotJnCount
 2120 015c 00000000 		.word	offset
 2121 0160 00000000 		.word	filHotJnCount
 2122 0164 00000000 		.word	tcHotJnuVolt
 2123 0168 00000000 		.word	tcuVolt
 2124 016c 00000000 		.word	tcTemp
 2125 0170 1F85EB51 		.word	1374389535
 2126 0174 0000C842 		.word	1120403456
 2127 0178 00000000 		.word	V0
 2128 017c 00000000 		.word	l
ARM GAS  C:\Users\USUARIO\AppData\Local\Temp\cc8Cohj2.s 			page 50


 2129 0180 00000000 		.word	promedio
 2130 0184 00000000 		.word	h
 2131 0188 00000000 		.word	Ajuste
 2132 018c 00000000 		.word	Ajusten
 2133 0190 00000000 		.word	control2
 2134 0194 00000000 		.word	b1
 2135 0198 00000000 		.word	m1
 2136 019c 00000000 		.word	b2
 2137 01a0 00000000 		.word	m2
 2138              		.cfi_endproc
 2139              	.LFE69:
 2140              		.size	leeTermocupla, .-leeTermocupla
 2141              		.global	__aeabi_f2uiz
 2142              		.global	__aeabi_f2iz
 2143              		.section	.text.main,"ax",%progbits
 2144              		.align	2
 2145              		.global	main
 2146              		.thumb
 2147              		.thumb_func
 2148              		.type	main, %function
 2149              	main:
 2150              	.LFB72:
 502:main.c        ****    }
 503:main.c        **** }
 504:main.c        **** 
 505:main.c        **** 
 506:main.c        **** int main(void)
 507:main.c        **** { 
 2151              		.loc 1 507 0
 2152              		.cfi_startproc
 2153              		@ args = 0, pretend = 0, frame = 16
 2154              		@ frame_needed = 0, uses_anonymous_args = 0
 2155 0000 2DE9F047 		push	{r4, r5, r6, r7, r8, r9, r10, lr}
 2156              		.cfi_def_cfa_offset 32
 2157              		.cfi_offset 4, -32
 2158              		.cfi_offset 5, -28
 2159              		.cfi_offset 6, -24
 2160              		.cfi_offset 7, -20
 2161              		.cfi_offset 8, -16
 2162              		.cfi_offset 9, -12
 2163              		.cfi_offset 10, -8
 2164              		.cfi_offset 14, -4
 2165 0004 88B0     		sub	sp, sp, #32
 2166              		.cfi_def_cfa_offset 64
 508:main.c        ****     CyGlobalIntEnable; /* Enable global interrupts. */    
 2167              		.loc 1 508 0
 2168              		.syntax unified
 2169              	@ 508 "main.c" 1
 2170 0006 62B6     		CPSIE   i
 2171              	@ 0 "" 2
 509:main.c        ****     
 510:main.c        ****     Reloj_StartEx(Reloj2);
 2172              		.loc 1 510 0
 2173              		.thumb
 2174              		.syntax unified
 2175 0008 8C48     		ldr	r0, .L572
 2176 000a FFF7FEFF 		bl	Reloj_StartEx
ARM GAS  C:\Users\USUARIO\AppData\Local\Temp\cc8Cohj2.s 			page 51


 2177              	.LVL160:
 511:main.c        ****     UART_1_Start();
 2178              		.loc 1 511 0
 2179 000e FFF7FEFF 		bl	UART_1_Start
 2180              	.LVL161:
 512:main.c        ****     RX1_StartEx(inteRX1);  
 2181              		.loc 1 512 0
 2182 0012 8B48     		ldr	r0, .L572+4
 2183 0014 FFF7FEFF 		bl	RX1_StartEx
 2184              	.LVL162:
 513:main.c        ****     Timer_Start();  
 2185              		.loc 1 513 0
 2186 0018 FFF7FEFF 		bl	Timer_Start
 2187              	.LVL163:
 514:main.c        ****     EEPROM_Start(); 
 2188              		.loc 1 514 0
 2189 001c FFF7FEFF 		bl	EEPROM_Start
 2190              	.LVL164:
 515:main.c        ****     ADC_Start();
 2191              		.loc 1 515 0
 2192 0020 FFF7FEFF 		bl	ADC_Start
 2193              	.LVL165:
 516:main.c        ****     ADC_SAR_Start();
 2194              		.loc 1 516 0
 2195 0024 FFF7FEFF 		bl	ADC_SAR_Start
 2196              	.LVL166:
 517:main.c        ****     ADC_SAR_IRQ_StartEx(ADC_SAR_ISR_LOC);
 2197              		.loc 1 517 0
 2198 0028 8648     		ldr	r0, .L572+8
 2199 002a FFF7FEFF 		bl	ADC_SAR_IRQ_StartEx
 2200              	.LVL167:
 518:main.c        ****     ADC_SAR_StartConvert();
 2201              		.loc 1 518 0
 2202 002e FFF7FEFF 		bl	ADC_SAR_StartConvert
 2203              	.LVL168:
 519:main.c        ****     
 520:main.c        ****     LCD2_Write(1);
 2204              		.loc 1 520 0
 2205 0032 0120     		movs	r0, #1
 2206 0034 FFF7FEFF 		bl	LCD2_Write
 2207              	.LVL169:
 521:main.c        ****     LCD1_Write(1);
 2208              		.loc 1 521 0
 2209 0038 0120     		movs	r0, #1
 2210 003a FFF7FEFF 		bl	LCD1_Write
 2211              	.LVL170:
 522:main.c        ****     LCD3_Write(1);
 2212              		.loc 1 522 0
 2213 003e 0120     		movs	r0, #1
 2214 0040 FFF7FEFF 		bl	LCD3_Write
 2215              	.LVL171:
 523:main.c        ****     
 524:main.c        ****     glcd_init(ON);             //Inicializa la glcd
 2216              		.loc 1 524 0
 2217 0044 0120     		movs	r0, #1
 2218 0046 FFF7FEFF 		bl	glcd_init
 2219              	.LVL172:
ARM GAS  C:\Users\USUARIO\AppData\Local\Temp\cc8Cohj2.s 			page 52


 525:main.c        ****     glcd_fillScreen(OFF);      //Limpia la pantalla
 2220              		.loc 1 525 0
 2221 004a 0020     		movs	r0, #0
 2222 004c FFF7FEFF 		bl	glcd_fillScreen
 2223              	.LVL173:
 526:main.c        ****     glcd_rect(0,61,127,63,YES,ON);
 2224              		.loc 1 526 0
 2225 0050 0125     		movs	r5, #1
 2226 0052 0195     		str	r5, [sp, #4]
 2227 0054 0095     		str	r5, [sp]
 2228 0056 3F23     		movs	r3, #63
 2229 0058 7F22     		movs	r2, #127
 2230 005a 3D21     		movs	r1, #61
 2231 005c 0020     		movs	r0, #0
 2232 005e FFF7FEFF 		bl	glcd_rect
 2233              	.LVL174:
 527:main.c        ****     strcpy(Menus.Letra,"JP Inglobal");
 2234              		.loc 1 527 0
 2235 0062 794C     		ldr	r4, .L572+12
 2236 0064 794B     		ldr	r3, .L572+16
 2237 0066 07CB     		ldmia	r3!, {r0, r1, r2}
 2238 0068 2060     		str	r0, [r4]	@ unaligned
 2239 006a 6160     		str	r1, [r4, #4]	@ unaligned
 2240 006c A260     		str	r2, [r4, #8]	@ unaligned
 528:main.c        ****     displayMenu(Menus.Letra,0,0,0,2);     
 2241              		.loc 1 528 0
 2242 006e 0227     		movs	r7, #2
 2243 0070 0097     		str	r7, [sp]
 2244 0072 0023     		movs	r3, #0
 2245 0074 1A46     		mov	r2, r3
 2246 0076 1946     		mov	r1, r3
 2247 0078 2046     		mov	r0, r4
 2248 007a FFF7FEFF 		bl	displayMenu
 2249              	.LVL175:
 529:main.c        ****     strcpy(Menus.Letra,"    Mufla Digital");
 2250              		.loc 1 529 0
 2251 007e 744E     		ldr	r6, .L572+20
 2252 0080 0FCE     		ldmia	r6!, {r0, r1, r2, r3}
 2253 0082 2060     		str	r0, [r4]	@ unaligned
 2254 0084 6160     		str	r1, [r4, #4]	@ unaligned
 2255 0086 A260     		str	r2, [r4, #8]	@ unaligned
 2256 0088 E360     		str	r3, [r4, #12]	@ unaligned
 2257 008a 3388     		ldrh	r3, [r6]	@ unaligned
 2258 008c 2382     		strh	r3, [r4, #16]	@ unaligned
 530:main.c        ****     displayMenu(Menus.Letra,0,20,0,1);       
 2259              		.loc 1 530 0
 2260 008e 0095     		str	r5, [sp]
 2261 0090 0023     		movs	r3, #0
 2262 0092 1422     		movs	r2, #20
 2263 0094 1946     		mov	r1, r3
 2264 0096 2046     		mov	r0, r4
 2265 0098 FFF7FEFF 		bl	displayMenu
 2266              	.LVL176:
 531:main.c        ****     strcpy(Menus.Letra,"     con Rampas");
 2267              		.loc 1 531 0
 2268 009c 6D4E     		ldr	r6, .L572+24
 2269 009e 0FCE     		ldmia	r6!, {r0, r1, r2, r3}
ARM GAS  C:\Users\USUARIO\AppData\Local\Temp\cc8Cohj2.s 			page 53


 2270 00a0 2060     		str	r0, [r4]	@ unaligned
 2271 00a2 6160     		str	r1, [r4, #4]	@ unaligned
 2272 00a4 A260     		str	r2, [r4, #8]	@ unaligned
 2273 00a6 E360     		str	r3, [r4, #12]	@ unaligned
 532:main.c        ****     displayMenu(Menus.Letra,0,29,0,1);       
 2274              		.loc 1 532 0
 2275 00a8 0095     		str	r5, [sp]
 2276 00aa 0023     		movs	r3, #0
 2277 00ac 1D22     		movs	r2, #29
 2278 00ae 1946     		mov	r1, r3
 2279 00b0 2046     		mov	r0, r4
 2280 00b2 FFF7FEFF 		bl	displayMenu
 2281              	.LVL177:
 533:main.c        ****     strcpy(Menus.Letra,"     3L");
 2282              		.loc 1 533 0
 2283 00b6 684B     		ldr	r3, .L572+28
 2284 00b8 03CB     		ldmia	r3!, {r0, r1}
 2285 00ba 2060     		str	r0, [r4]	@ unaligned
 2286 00bc 6160     		str	r1, [r4, #4]	@ unaligned
 534:main.c        ****     displayMenu(Menus.Letra,0,45,0,2);
 2287              		.loc 1 534 0
 2288 00be 0097     		str	r7, [sp]
 2289 00c0 0023     		movs	r3, #0
 2290 00c2 2D22     		movs	r2, #45
 2291 00c4 1946     		mov	r1, r3
 2292 00c6 2046     		mov	r0, r4
 2293 00c8 FFF7FEFF 		bl	displayMenu
 2294              	.LVL178:
 535:main.c        **** 
 536:main.c        ****     leeEEPROM();
 2295              		.loc 1 536 0
 2296 00cc FFF7FEFF 		bl	leeEEPROM
 2297              	.LVL179:
 537:main.c        ****     glcd_fillScreen(OFF);      //Limpia la pantalla
 2298              		.loc 1 537 0
 2299 00d0 0020     		movs	r0, #0
 2300 00d2 FFF7FEFF 		bl	glcd_fillScreen
 2301              	.LVL180:
 538:main.c        ****     displayContrasena(Contrasena[0],20,30,1);
 2302              		.loc 1 538 0
 2303 00d6 614C     		ldr	r4, .L572+32
 2304 00d8 2B46     		mov	r3, r5
 2305 00da 1E22     		movs	r2, #30
 2306 00dc 1421     		movs	r1, #20
 2307 00de 207E     		ldrb	r0, [r4, #24]	@ zero_extendqisi2
 2308 00e0 FFF7FEFF 		bl	displayContrasena
 2309              	.LVL181:
 539:main.c        ****     displayContrasena(Contrasena[1],40,30,0);
 2310              		.loc 1 539 0
 2311 00e4 0023     		movs	r3, #0
 2312 00e6 1E22     		movs	r2, #30
 2313 00e8 2821     		movs	r1, #40
 2314 00ea 607E     		ldrb	r0, [r4, #25]	@ zero_extendqisi2
 2315 00ec FFF7FEFF 		bl	displayContrasena
 2316              	.LVL182:
 540:main.c        ****     displayContrasena(Contrasena[2],60,30,0);
 2317              		.loc 1 540 0
ARM GAS  C:\Users\USUARIO\AppData\Local\Temp\cc8Cohj2.s 			page 54


 2318 00f0 0023     		movs	r3, #0
 2319 00f2 1E22     		movs	r2, #30
 2320 00f4 3C21     		movs	r1, #60
 2321 00f6 A07E     		ldrb	r0, [r4, #26]	@ zero_extendqisi2
 2322 00f8 FFF7FEFF 		bl	displayContrasena
 2323              	.LVL183:
 541:main.c        ****     displayContrasena(Contrasena[3],80,30,0); 
 2324              		.loc 1 541 0
 2325 00fc 0023     		movs	r3, #0
 2326 00fe 1E22     		movs	r2, #30
 2327 0100 5021     		movs	r1, #80
 2328 0102 E07E     		ldrb	r0, [r4, #27]	@ zero_extendqisi2
 2329 0104 FFF7FEFF 		bl	displayContrasena
 2330              	.LVL184:
 542:main.c        ****     
 543:main.c        ****     penInicial=penMufla;
 2331              		.loc 1 543 0
 2332 0108 554B     		ldr	r3, .L572+36
 2333 010a 1A68     		ldr	r2, [r3]	@ float
 2334 010c 554B     		ldr	r3, .L572+40
 2335 010e 1A60     		str	r2, [r3]	@ float
 544:main.c        ****     Opcion=1;Control=0;    
 2336              		.loc 1 544 0
 2337 0110 554B     		ldr	r3, .L572+44
 2338 0112 1D70     		strb	r5, [r3]
 2339 0114 0024     		movs	r4, #0
 2340 0116 554B     		ldr	r3, .L572+48
 2341 0118 1C80     		strh	r4, [r3]	@ movhi
 545:main.c        ****     
 546:main.c        ****     BUZZER_Write(1);
 2342              		.loc 1 546 0
 2343 011a 2846     		mov	r0, r5
 2344 011c FFF7FEFF 		bl	BUZZER_Write
 2345              	.LVL185:
 547:main.c        ****     CyDelay(100);
 2346              		.loc 1 547 0
 2347 0120 6420     		movs	r0, #100
 2348 0122 FFF7FEFF 		bl	CyDelay
 2349              	.LVL186:
 548:main.c        ****     BUZZER_Write(0); 
 2350              		.loc 1 548 0
 2351 0126 2046     		mov	r0, r4
 2352 0128 FFF7FEFF 		bl	BUZZER_Write
 2353              	.LVL187:
 549:main.c        ****     Menu=0;  
 2354              		.loc 1 549 0
 2355 012c 504B     		ldr	r3, .L572+52
 2356 012e 1C70     		strb	r4, [r3]
 550:main.c        ****     unidad=1;
 2357              		.loc 1 550 0
 2358 0130 504B     		ldr	r3, .L572+56
 2359 0132 1D70     		strb	r5, [r3]
 551:main.c        ****     finalizoCiclo=OFF;
 2360              		.loc 1 551 0
 2361 0134 504B     		ldr	r3, .L572+60
 2362 0136 1C80     		strh	r4, [r3]	@ movhi
 552:main.c        ****     flagGuardaEstado=OFF;
ARM GAS  C:\Users\USUARIO\AppData\Local\Temp\cc8Cohj2.s 			page 55


 2363              		.loc 1 552 0
 2364 0138 504B     		ldr	r3, .L572+64
 2365 013a 1C80     		strh	r4, [r3]	@ movhi
 553:main.c        ****     
 554:main.c        ****     m1=((float)control2-(float)control1)/((float)patron2-(float)patron1);
 2366              		.loc 1 554 0
 2367 013c 504B     		ldr	r3, .L572+68
 2368 013e B3F90000 		ldrsh	r0, [r3]
 2369 0142 FFF7FEFF 		bl	__aeabi_i2f
 2370              	.LVL188:
 2371 0146 0646     		mov	r6, r0
 2372 0148 4E4B     		ldr	r3, .L572+72
 2373 014a B3F90000 		ldrsh	r0, [r3]
 2374 014e FFF7FEFF 		bl	__aeabi_i2f
 2375              	.LVL189:
 2376 0152 0146     		mov	r1, r0
 2377 0154 3046     		mov	r0, r6
 2378 0156 FFF7FEFF 		bl	__aeabi_fsub
 2379              	.LVL190:
 2380 015a 0746     		mov	r7, r0
 2381 015c 4A4B     		ldr	r3, .L572+76
 2382 015e B3F90000 		ldrsh	r0, [r3]
 2383 0162 FFF7FEFF 		bl	__aeabi_i2f
 2384              	.LVL191:
 2385 0166 0546     		mov	r5, r0
 2386 0168 484B     		ldr	r3, .L572+80
 2387 016a B3F90000 		ldrsh	r0, [r3]
 2388 016e FFF7FEFF 		bl	__aeabi_i2f
 2389              	.LVL192:
 2390 0172 0146     		mov	r1, r0
 2391 0174 2846     		mov	r0, r5
 2392 0176 FFF7FEFF 		bl	__aeabi_fsub
 2393              	.LVL193:
 2394 017a 0146     		mov	r1, r0
 2395 017c 3846     		mov	r0, r7
 2396 017e FFF7FEFF 		bl	__aeabi_fdiv
 2397              	.LVL194:
 2398 0182 0146     		mov	r1, r0
 2399 0184 424B     		ldr	r3, .L572+84
 2400 0186 1860     		str	r0, [r3]	@ float
 555:main.c        ****     b1=(float)control2-(m1*(float)patron2);
 2401              		.loc 1 555 0
 2402 0188 2846     		mov	r0, r5
 2403 018a FFF7FEFF 		bl	__aeabi_fmul
 2404              	.LVL195:
 2405 018e 0146     		mov	r1, r0
 2406 0190 3046     		mov	r0, r6
 2407 0192 FFF7FEFF 		bl	__aeabi_fsub
 2408              	.LVL196:
 2409 0196 3F4B     		ldr	r3, .L572+88
 2410 0198 1860     		str	r0, [r3]	@ float
 556:main.c        ****     m2=((float)control3-(float)control2)/((float)patron3-(float)patron2);
 2411              		.loc 1 556 0
 2412 019a 3F4B     		ldr	r3, .L572+92
 2413 019c B3F90000 		ldrsh	r0, [r3]
 2414 01a0 FFF7FEFF 		bl	__aeabi_i2f
 2415              	.LVL197:
ARM GAS  C:\Users\USUARIO\AppData\Local\Temp\cc8Cohj2.s 			page 56


 2416 01a4 0746     		mov	r7, r0
 2417 01a6 3146     		mov	r1, r6
 2418 01a8 FFF7FEFF 		bl	__aeabi_fsub
 2419              	.LVL198:
 2420 01ac 8046     		mov	r8, r0
 2421 01ae 3B4B     		ldr	r3, .L572+96
 2422 01b0 B3F90000 		ldrsh	r0, [r3]
 2423 01b4 FFF7FEFF 		bl	__aeabi_i2f
 2424              	.LVL199:
 2425 01b8 0646     		mov	r6, r0
 2426 01ba 2946     		mov	r1, r5
 2427 01bc FFF7FEFF 		bl	__aeabi_fsub
 2428              	.LVL200:
 2429 01c0 0146     		mov	r1, r0
 2430 01c2 4046     		mov	r0, r8
 2431 01c4 FFF7FEFF 		bl	__aeabi_fdiv
 2432              	.LVL201:
 2433 01c8 0146     		mov	r1, r0
 2434 01ca 354B     		ldr	r3, .L572+100
 2435 01cc 1860     		str	r0, [r3]	@ float
 557:main.c        ****     b2=(float)control3-(m2*(float)patron3);
 2436              		.loc 1 557 0
 2437 01ce 3046     		mov	r0, r6
 2438 01d0 FFF7FEFF 		bl	__aeabi_fmul
 2439              	.LVL202:
 2440 01d4 0146     		mov	r1, r0
 2441 01d6 3846     		mov	r0, r7
 2442 01d8 FFF7FEFF 		bl	__aeabi_fsub
 2443              	.LVL203:
 2444 01dc 314B     		ldr	r3, .L572+104
 2445 01de 1860     		str	r0, [r3]	@ float
 558:main.c        ****     //m3=(1200.0-(float)control3)/(1200.0-(float)patron3);
 559:main.c        ****     //b3=1200.0-(m3*(float)patron3);
 560:main.c        ****     for(i=0;i<80;i++){
 2446              		.loc 1 560 0
 2447 01e0 314B     		ldr	r3, .L572+108
 2448 01e2 1C70     		strb	r4, [r3]
 2449 01e4 09E0     		b	.L185
 2450              	.L186:
 561:main.c        ****         Temperatura=leeTermocupla(MediaMovil);
 2451              		.loc 1 561 0 discriminator 3
 2452 01e6 314B     		ldr	r3, .L572+112
 2453 01e8 1878     		ldrb	r0, [r3]	@ zero_extendqisi2
 2454 01ea FFF7FEFF 		bl	leeTermocupla
 2455              	.LVL204:
 2456 01ee 304B     		ldr	r3, .L572+116
 2457 01f0 1860     		str	r0, [r3]	@ float
 560:main.c        ****         Temperatura=leeTermocupla(MediaMovil);
 2458              		.loc 1 560 0 discriminator 3
 2459 01f2 2D4A     		ldr	r2, .L572+108
 2460 01f4 1378     		ldrb	r3, [r2]	@ zero_extendqisi2
 2461 01f6 0133     		adds	r3, r3, #1
 2462 01f8 1370     		strb	r3, [r2]
 2463              	.L185:
 560:main.c        ****         Temperatura=leeTermocupla(MediaMovil);
 2464              		.loc 1 560 0 is_stmt 0 discriminator 1
 2465 01fa 2B4B     		ldr	r3, .L572+108
ARM GAS  C:\Users\USUARIO\AppData\Local\Temp\cc8Cohj2.s 			page 57


 2466 01fc 1B78     		ldrb	r3, [r3]	@ zero_extendqisi2
 2467 01fe 4F2B     		cmp	r3, #79
 2468 0200 F1D9     		bls	.L186
 562:main.c        ****     }
 563:main.c        ****     
 564:main.c        ****     if(controlT==0){
 2469              		.loc 1 564 0 is_stmt 1
 2470 0202 2C4B     		ldr	r3, .L572+120
 2471 0204 1B78     		ldrb	r3, [r3]	@ zero_extendqisi2
 2472 0206 1BB9     		cbnz	r3, .L187
 565:main.c        ****         Menu=0;      
 2473              		.loc 1 565 0
 2474 0208 0022     		movs	r2, #0
 2475 020a 194B     		ldr	r3, .L572+52
 2476 020c 1A70     		strb	r2, [r3]
 2477 020e F7E0     		b	.L188
 2478              	.L187:
 566:main.c        ****     }else{
 567:main.c        ****         Menu=20;glcd_fillScreen(OFF);
 2479              		.loc 1 567 0
 2480 0210 1422     		movs	r2, #20
 2481 0212 174B     		ldr	r3, .L572+52
 2482 0214 1A70     		strb	r2, [r3]
 2483 0216 0020     		movs	r0, #0
 2484 0218 FFF7FEFF 		bl	glcd_fillScreen
 2485              	.LVL205:
 568:main.c        ****          for(i=0;i<Pasos;i++){
 2486              		.loc 1 568 0
 2487 021c 0022     		movs	r2, #0
 2488 021e 224B     		ldr	r3, .L572+108
 2489 0220 1A70     		strb	r2, [r3]
 2490 0222 55E0     		b	.L189
 2491              	.L192:
 569:main.c        ****             if(Temperatura1[i+((ProgramaSeleccionado)*Pasos)]==0){
 2492              		.loc 1 569 0
 2493 0224 244A     		ldr	r2, .L572+124
 2494 0226 1278     		ldrb	r2, [r2]	@ zero_extendqisi2
 2495 0228 03EB0212 		add	r2, r3, r2, lsl #4
 2496 022c 2349     		ldr	r1, .L572+128
 2497 022e 31F91220 		ldrsh	r2, [r1, r2, lsl #1]
 2498 0232 002A     		cmp	r2, #0
 2499 0234 46D1     		bne	.L190
 570:main.c        ****                Segmentos=i;
 2500              		.loc 1 570 0
 2501 0236 224A     		ldr	r2, .L572+132
 2502 0238 1370     		strb	r3, [r2]
 571:main.c        ****                break;
 2503              		.loc 1 571 0
 2504 023a 4DE0     		b	.L191
 2505              	.L573:
 2506              		.align	2
 2507              	.L572:
 2508 023c 00000000 		.word	Reloj2
 2509 0240 00000000 		.word	inteRX1
 2510 0244 00000000 		.word	ADC_SAR_ISR_LOC
 2511 0248 00000000 		.word	Menus
 2512 024c 00000000 		.word	.LC0
ARM GAS  C:\Users\USUARIO\AppData\Local\Temp\cc8Cohj2.s 			page 58


 2513 0250 0C000000 		.word	.LC1
 2514 0254 20000000 		.word	.LC2
 2515 0258 30000000 		.word	.LC3
 2516 025c 00000000 		.word	.LANCHOR0
 2517 0260 00000000 		.word	.LANCHOR1
 2518 0264 00000000 		.word	penInicial
 2519 0268 00000000 		.word	Opcion
 2520 026c 00000000 		.word	Control
 2521 0270 00000000 		.word	Menu
 2522 0274 00000000 		.word	unidad
 2523 0278 00000000 		.word	finalizoCiclo
 2524 027c 00000000 		.word	flagGuardaEstado
 2525 0280 00000000 		.word	control2
 2526 0284 00000000 		.word	control1
 2527 0288 00000000 		.word	patron2
 2528 028c 00000000 		.word	patron1
 2529 0290 00000000 		.word	m1
 2530 0294 00000000 		.word	b1
 2531 0298 00000000 		.word	control3
 2532 029c 00000000 		.word	patron3
 2533 02a0 00000000 		.word	m2
 2534 02a4 00000000 		.word	b2
 2535 02a8 00000000 		.word	i
 2536 02ac 00000000 		.word	MediaMovil
 2537 02b0 00000000 		.word	Temperatura
 2538 02b4 00000000 		.word	controlT
 2539 02b8 00000000 		.word	ProgramaSeleccionado
 2540 02bc 00000000 		.word	Temperatura1
 2541 02c0 00000000 		.word	Segmentos
 2542              	.L190:
 572:main.c        ****             }
 573:main.c        ****             else{
 574:main.c        ****                Segmentos=Pasos-1;
 2543              		.loc 1 574 0 discriminator 2
 2544 02c4 0F21     		movs	r1, #15
 2545 02c6 B14A     		ldr	r2, .L574
 2546 02c8 1170     		strb	r1, [r2]
 568:main.c        ****             if(Temperatura1[i+((ProgramaSeleccionado)*Pasos)]==0){
 2547              		.loc 1 568 0 discriminator 2
 2548 02ca 0133     		adds	r3, r3, #1
 2549 02cc B04A     		ldr	r2, .L574+4
 2550 02ce 1370     		strb	r3, [r2]
 2551              	.L189:
 568:main.c        ****             if(Temperatura1[i+((ProgramaSeleccionado)*Pasos)]==0){
 2552              		.loc 1 568 0 is_stmt 0 discriminator 1
 2553 02d0 AF4B     		ldr	r3, .L574+4
 2554 02d2 1B78     		ldrb	r3, [r3]	@ zero_extendqisi2
 2555 02d4 0F2B     		cmp	r3, #15
 2556 02d6 A5D9     		bls	.L192
 2557              	.L191:
 575:main.c        ****             }
 576:main.c        ****             //Horas1[i+((Opcion-1)*10)]=0;
 577:main.c        ****             //Minutos1[i+((Opcion-1)*10)]=0;
 578:main.c        ****          }
 579:main.c        ****          if(Segmentos>0){
 2558              		.loc 1 579 0 is_stmt 1
 2559 02d8 AC4B     		ldr	r3, .L574
ARM GAS  C:\Users\USUARIO\AppData\Local\Temp\cc8Cohj2.s 			page 59


 2560 02da 1B78     		ldrb	r3, [r3]	@ zero_extendqisi2
 2561 02dc 002B     		cmp	r3, #0
 2562 02de 00F08C80 		beq	.L193
 580:main.c        ****             glcd_fillScreen(OFF);
 2563              		.loc 1 580 0
 2564 02e2 0020     		movs	r0, #0
 2565 02e4 FFF7FEFF 		bl	glcd_fillScreen
 2566              	.LVL206:
 581:main.c        ****             
 582:main.c        ****             strcpy(Menus.Letra," Segmentos");
 2567              		.loc 1 582 0
 2568 02e8 AA4C     		ldr	r4, .L574+8
 2569 02ea AB4B     		ldr	r3, .L574+12
 2570 02ec 03CB     		ldmia	r3!, {r0, r1}
 2571 02ee 2060     		str	r0, [r4]	@ unaligned
 2572 02f0 6160     		str	r1, [r4, #4]	@ unaligned
 2573 02f2 1A88     		ldrh	r2, [r3]	@ unaligned
 2574 02f4 9B78     		ldrb	r3, [r3, #2]	@ zero_extendqisi2
 2575 02f6 2281     		strh	r2, [r4, #8]	@ unaligned
 2576 02f8 A372     		strb	r3, [r4, #10]
 583:main.c        ****             displayMenu(Menus.Letra,0,0,0,2);
 2577              		.loc 1 583 0
 2578 02fa 0225     		movs	r5, #2
 2579 02fc 0095     		str	r5, [sp]
 2580 02fe 0023     		movs	r3, #0
 2581 0300 1A46     		mov	r2, r3
 2582 0302 1946     		mov	r1, r3
 2583 0304 2046     		mov	r0, r4
 2584 0306 FFF7FEFF 		bl	displayMenu
 2585              	.LVL207:
 584:main.c        ****             
 585:main.c        ****             displayTiempo(Segmentos,63,30,3,2);
 2586              		.loc 1 585 0
 2587 030a A04B     		ldr	r3, .L574
 2588 030c 1878     		ldrb	r0, [r3]	@ zero_extendqisi2
 2589 030e 0095     		str	r5, [sp]
 2590 0310 0323     		movs	r3, #3
 2591 0312 1E22     		movs	r2, #30
 2592 0314 3F21     		movs	r1, #63
 2593 0316 FFF7FEFF 		bl	displayTiempo
 2594              	.LVL208:
 586:main.c        ****             CyDelay(2000);
 2595              		.loc 1 586 0
 2596 031a 4FF4FA60 		mov	r0, #2000
 2597 031e FFF7FEFF 		bl	CyDelay
 2598              	.LVL209:
 587:main.c        ****             glcd_fillScreen(OFF);
 2599              		.loc 1 587 0
 2600 0322 0020     		movs	r0, #0
 2601 0324 FFF7FEFF 		bl	glcd_fillScreen
 2602              	.LVL210:
 588:main.c        ****             Opcion=1;visual=1;//Faltaa cuadrar esta parte
 2603              		.loc 1 588 0
 2604 0328 0123     		movs	r3, #1
 2605 032a 9C4A     		ldr	r2, .L574+16
 2606 032c 1370     		strb	r3, [r2]
 2607 032e 9C4A     		ldr	r2, .L574+20
ARM GAS  C:\Users\USUARIO\AppData\Local\Temp\cc8Cohj2.s 			page 60


 2608 0330 1380     		strh	r3, [r2]	@ movhi
 589:main.c        ****             TempeInicial=Temperatura;
 2609              		.loc 1 589 0
 2610 0332 9C4B     		ldr	r3, .L574+24
 2611 0334 D3F80090 		ldr	r9, [r3]	@ float
 2612 0338 9B4B     		ldr	r3, .L574+28
 2613 033a C3F80090 		str	r9, [r3]	@ float
 590:main.c        ****             
 591:main.c        ****             Tiempo=(Horas1[ProgramaSeleccionado*Pasos]*3600)+(Minutos1[ProgramaSeleccionado*Pasos]*
 2614              		.loc 1 591 0
 2615 033e 9B4B     		ldr	r3, .L574+32
 2616 0340 1A78     		ldrb	r2, [r3]	@ zero_extendqisi2
 2617 0342 1201     		lsls	r2, r2, #4
 2618 0344 DFF8C482 		ldr	r8, .L574+128
 2619 0348 38F91240 		ldrsh	r4, [r8, r2, lsl #1]
 2620 034c 984E     		ldr	r6, .L574+36
 2621 034e 36F91230 		ldrsh	r3, [r6, r2, lsl #1]
 2622 0352 C4EB0414 		rsb	r4, r4, r4, lsl #4
 2623 0356 C4EB0414 		rsb	r4, r4, r4, lsl #4
 2624 035a C3EB0313 		rsb	r3, r3, r3, lsl #4
 2625 035e AB40     		lsls	r3, r3, r5
 2626 0360 03EB0414 		add	r4, r3, r4, lsl #4
 2627 0364 A4B2     		uxth	r4, r4
 2628 0366 934B     		ldr	r3, .L574+40
 2629 0368 1C80     		strh	r4, [r3]	@ movhi
 592:main.c        ****             Setpoint=Temperatura1[(ProgramaSeleccionado*Pasos)+Segmento];
 2630              		.loc 1 592 0
 2631 036a 934B     		ldr	r3, .L574+44
 2632 036c 1F78     		ldrb	r7, [r3]	@ zero_extendqisi2
 2633 036e 1744     		add	r7, r7, r2
 2634 0370 924B     		ldr	r3, .L574+48
 2635 0372 33F81750 		ldrh	r5, [r3, r7, lsl #1]
 2636 0376 924B     		ldr	r3, .L574+52
 2637 0378 1D80     		strh	r5, [r3]	@ movhi
 593:main.c        ****             Pendiente=(((float)Setpoint-TempeInicial)/(float)Tiempo);
 2638              		.loc 1 593 0
 2639 037a 2846     		mov	r0, r5
 2640 037c FFF7FEFF 		bl	__aeabi_ui2f
 2641              	.LVL211:
 2642 0380 4946     		mov	r1, r9
 2643 0382 FFF7FEFF 		bl	__aeabi_fsub
 2644              	.LVL212:
 2645 0386 8146     		mov	r9, r0
 2646 0388 2046     		mov	r0, r4
 2647 038a FFF7FEFF 		bl	__aeabi_ui2f
 2648              	.LVL213:
 2649 038e 0146     		mov	r1, r0
 2650 0390 4846     		mov	r0, r9
 2651 0392 FFF7FEFF 		bl	__aeabi_fdiv
 2652              	.LVL214:
 2653 0396 8B4B     		ldr	r3, .L574+56
 2654 0398 1860     		str	r0, [r3]	@ float
 594:main.c        ****             Testerilizacionp[3]=(uint8)Horas1[(ProgramaSeleccionado*Pasos)+Segmento]/10;
 2655              		.loc 1 594 0
 2656 039a 18F81720 		ldrb	r2, [r8, r7, lsl #1]	@ zero_extendqisi2
 2657 039e 8A4B     		ldr	r3, .L574+60
 2658 03a0 A3FB0213 		umull	r1, r3, r3, r2
ARM GAS  C:\Users\USUARIO\AppData\Local\Temp\cc8Cohj2.s 			page 61


 2659 03a4 DB08     		lsrs	r3, r3, #3
 2660 03a6 8949     		ldr	r1, .L574+64
 2661 03a8 CB75     		strb	r3, [r1, #23]
 595:main.c        ****             Testerilizacionp[2]=Horas1[(ProgramaSeleccionado*Pasos)+Segmento]-(Testerilizacionp[3]*
 2662              		.loc 1 595 0
 2663 03aa C3EB4310 		rsb	r0, r3, r3, lsl #5
 2664 03ae C3EB8003 		rsb	r3, r3, r0, lsl #2
 2665 03b2 02EB4303 		add	r3, r2, r3, lsl #1
 2666 03b6 8B75     		strb	r3, [r1, #22]
 596:main.c        ****             Testerilizacionp[1]=Minutos1[(ProgramaSeleccionado*Pasos)+Segmento]/10;
 2667              		.loc 1 596 0
 2668 03b8 36F91720 		ldrsh	r2, [r6, r7, lsl #1]
 2669 03bc 844B     		ldr	r3, .L574+68
 2670 03be 83FB0230 		smull	r3, r0, r3, r2
 2671 03c2 D317     		asrs	r3, r2, #31
 2672 03c4 C3EBA003 		rsb	r3, r3, r0, asr #2
 2673 03c8 5BB2     		sxtb	r3, r3
 2674 03ca 4B75     		strb	r3, [r1, #21]
 597:main.c        ****             Testerilizacionp[0]=Minutos1[(ProgramaSeleccionado*Pasos)+Segmento]-(Testerilizacionp[1
 2675              		.loc 1 597 0
 2676 03cc C3EB4310 		rsb	r0, r3, r3, lsl #5
 2677 03d0 C3EB8003 		rsb	r3, r3, r0, lsl #2
 2678 03d4 02EB4303 		add	r3, r2, r3, lsl #1
 2679 03d8 0B75     		strb	r3, [r1, #20]
 598:main.c        ****             flag_calcula=0;
 2680              		.loc 1 598 0
 2681 03da 0022     		movs	r2, #0
 2682 03dc 7D4B     		ldr	r3, .L574+72
 2683 03de 1A80     		strh	r2, [r3]	@ movhi
 599:main.c        ****             Ganancia=GananciaIn*(Setpoint/Coeficiente);
 2684              		.loc 1 599 0
 2685 03e0 7D4B     		ldr	r3, .L574+76
 2686 03e2 1888     		ldrh	r0, [r3]
 2687 03e4 B5FBF0F0 		udiv	r0, r5, r0
 2688 03e8 FFF7FEFF 		bl	__aeabi_i2f
 2689              	.LVL215:
 2690 03ec 7B4B     		ldr	r3, .L574+80
 2691 03ee 1968     		ldr	r1, [r3]	@ float
 2692 03f0 FFF7FEFF 		bl	__aeabi_fmul
 2693              	.LVL216:
 2694 03f4 7A4B     		ldr	r3, .L574+84
 2695 03f6 1860     		str	r0, [r3]	@ float
 2696 03f8 02E0     		b	.L188
 2697              	.L193:
 600:main.c        ****          }else{
 601:main.c        ****             Menu=0;             
 2698              		.loc 1 601 0
 2699 03fa 0022     		movs	r2, #0
 2700 03fc 794B     		ldr	r3, .L574+88
 2701 03fe 1A70     		strb	r2, [r3]
 2702              	.L188:
 602:main.c        ****          }
 603:main.c        ****     }
 604:main.c        ****     
 605:main.c        ****     if(UP_Read()==0 && DOWN_Read()==0){
 2703              		.loc 1 605 0
 2704 0400 FFF7FEFF 		bl	UP_Read
ARM GAS  C:\Users\USUARIO\AppData\Local\Temp\cc8Cohj2.s 			page 62


 2705              	.LVL217:
 2706 0404 0028     		cmp	r0, #0
 2707 0406 4DD1     		bne	.L196
 2708              		.loc 1 605 0 is_stmt 0 discriminator 1
 2709 0408 FFF7FEFF 		bl	DOWN_Read
 2710              	.LVL218:
 2711 040c 0028     		cmp	r0, #0
 2712 040e 49D1     		bne	.L196
 2713              	.L197:
 606:main.c        ****         for(;;){ 
 607:main.c        ****             displayTemperatura((uint16)leeTermocupla(MediaMovil),30,45,0,1);
 2714              		.loc 1 607 0 is_stmt 1
 2715 0410 754B     		ldr	r3, .L574+92
 2716 0412 1878     		ldrb	r0, [r3]	@ zero_extendqisi2
 2717 0414 FFF7FEFF 		bl	leeTermocupla
 2718              	.LVL219:
 2719 0418 FFF7FEFF 		bl	__aeabi_f2uiz
 2720              	.LVL220:
 2721 041c 0124     		movs	r4, #1
 2722 041e 0094     		str	r4, [sp]
 2723 0420 0023     		movs	r3, #0
 2724 0422 2D22     		movs	r2, #45
 2725 0424 1E21     		movs	r1, #30
 2726 0426 00B2     		sxth	r0, r0
 2727 0428 FFF7FEFF 		bl	displayTemperatura
 2728              	.LVL221:
 608:main.c        ****             displayFloat(Temperatura,30,15,1);
 2729              		.loc 1 608 0
 2730 042c 2346     		mov	r3, r4
 2731 042e 0F22     		movs	r2, #15
 2732 0430 1E21     		movs	r1, #30
 2733 0432 5C48     		ldr	r0, .L574+24
 2734 0434 0068     		ldr	r0, [r0]	@ float
 2735 0436 FFF7FEFF 		bl	displayFloat
 2736              	.LVL222:
 609:main.c        ****             displayTemperatura((uint16)coldJnTemp,30,0,0,1);
 2737              		.loc 1 609 0
 2738 043a 6C4B     		ldr	r3, .L574+96
 2739 043c B3F90000 		ldrsh	r0, [r3]
 2740 0440 0094     		str	r4, [sp]
 2741 0442 0023     		movs	r3, #0
 2742 0444 1A46     		mov	r2, r3
 2743 0446 1E21     		movs	r1, #30
 2744 0448 FFF7FEFF 		bl	displayTemperatura
 2745              	.LVL223:
 610:main.c        ****             glcd_fillScreen(OFF);
 2746              		.loc 1 610 0
 2747 044c 0020     		movs	r0, #0
 2748 044e FFF7FEFF 		bl	glcd_fillScreen
 2749              	.LVL224:
 611:main.c        ****             glcd_update();  
 2750              		.loc 1 611 0
 2751 0452 FFF7FEFF 		bl	glcd_update
 2752              	.LVL225:
 612:main.c        ****             //Temperatura=leeTermocupla(20);
 613:main.c        ****             if(Lectura2){
 2753              		.loc 1 613 0
ARM GAS  C:\Users\USUARIO\AppData\Local\Temp\cc8Cohj2.s 			page 63


 2754 0456 664B     		ldr	r3, .L574+100
 2755 0458 B3F90030 		ldrsh	r3, [r3]
 2756 045c 002B     		cmp	r3, #0
 2757 045e D7D0     		beq	.L197
 614:main.c        ****                 grafica=ON;
 2758              		.loc 1 614 0
 2759 0460 644B     		ldr	r3, .L574+104
 2760 0462 1C80     		strh	r4, [r3]	@ movhi
 615:main.c        ****                 Lectura2=0;
 2761              		.loc 1 615 0
 2762 0464 0022     		movs	r2, #0
 2763 0466 624B     		ldr	r3, .L574+100
 2764 0468 1A80     		strh	r2, [r3]	@ movhi
 616:main.c        ****                 Temperatura=leeTermocupla(20);
 2765              		.loc 1 616 0
 2766 046a 1420     		movs	r0, #20
 2767 046c FFF7FEFF 		bl	leeTermocupla
 2768              	.LVL226:
 2769 0470 4C4B     		ldr	r3, .L574+24
 2770 0472 1860     		str	r0, [r3]	@ float
 617:main.c        ****                 
 618:main.c        ****                 if(!Test){
 2771              		.loc 1 618 0
 2772 0474 604B     		ldr	r3, .L574+108
 2773 0476 B3F90030 		ldrsh	r3, [r3]
 2774 047a 002B     		cmp	r3, #0
 2775 047c C8D1     		bne	.L197
 619:main.c        ****                     if(coldJnTemp>=3000){
 2776              		.loc 1 619 0
 2777 047e 5B4B     		ldr	r3, .L574+96
 2778 0480 B3F90030 		ldrsh	r3, [r3]
 2779 0484 40F6B732 		movw	r2, #2999
 2780 0488 9342     		cmp	r3, r2
 2781 048a 03DD     		ble	.L199
 620:main.c        ****                         VENT1_Write(0);    
 2782              		.loc 1 620 0
 2783 048c 0020     		movs	r0, #0
 2784 048e FFF7FEFF 		bl	VENT1_Write
 2785              	.LVL227:
 2786 0492 BDE7     		b	.L197
 2787              	.L199:
 621:main.c        ****                     }else if(coldJnTemp<2500){
 2788              		.loc 1 621 0
 2789 0494 40F6C312 		movw	r2, #2499
 2790 0498 9342     		cmp	r3, r2
 2791 049a B9DC     		bgt	.L197
 622:main.c        ****                         VENT1_Write(1);   
 2792              		.loc 1 622 0
 2793 049c 0120     		movs	r0, #1
 2794 049e FFF7FEFF 		bl	VENT1_Write
 2795              	.LVL228:
 2796 04a2 B5E7     		b	.L197
 2797              	.L196:
 623:main.c        ****                     }
 624:main.c        ****                 }
 625:main.c        ****             }
 626:main.c        ****         }
ARM GAS  C:\Users\USUARIO\AppData\Local\Temp\cc8Cohj2.s 			page 64


 627:main.c        ****     }
 628:main.c        ****     
 629:main.c        ****     for(;;)
 630:main.c        ****     {   
 631:main.c        ****         if(Lectura2){
 2798              		.loc 1 631 0
 2799 04a4 524B     		ldr	r3, .L574+100
 2800 04a6 B3F90030 		ldrsh	r3, [r3]
 2801 04aa 3BB3     		cbz	r3, .L200
 632:main.c        ****             grafica=ON;
 2802              		.loc 1 632 0
 2803 04ac 0122     		movs	r2, #1
 2804 04ae 514B     		ldr	r3, .L574+104
 2805 04b0 1A80     		strh	r2, [r3]	@ movhi
 633:main.c        ****             Lectura2=0;
 2806              		.loc 1 633 0
 2807 04b2 0022     		movs	r2, #0
 2808 04b4 4E4B     		ldr	r3, .L574+100
 2809 04b6 1A80     		strh	r2, [r3]	@ movhi
 634:main.c        ****             Temperatura=leeTermocupla(MediaMovil);
 2810              		.loc 1 634 0
 2811 04b8 4B4B     		ldr	r3, .L574+92
 2812 04ba 1878     		ldrb	r0, [r3]	@ zero_extendqisi2
 2813 04bc FFF7FEFF 		bl	leeTermocupla
 2814              	.LVL229:
 2815 04c0 384B     		ldr	r3, .L574+24
 2816 04c2 1860     		str	r0, [r3]	@ float
 635:main.c        ****             if(coldJnTemp>=3000 || Temperatura>150){
 2817              		.loc 1 635 0
 2818 04c4 494B     		ldr	r3, .L574+96
 2819 04c6 B3F90040 		ldrsh	r4, [r3]
 2820 04ca 40F6B733 		movw	r3, #2999
 2821 04ce 9C42     		cmp	r4, r3
 2822 04d0 03DC     		bgt	.L201
 2823              		.loc 1 635 0 is_stmt 0 discriminator 1
 2824 04d2 4A49     		ldr	r1, .L574+112
 2825 04d4 FFF7FEFF 		bl	__aeabi_fcmpgt
 2826              	.LVL230:
 2827 04d8 30B1     		cbz	r0, .L567
 2828              	.L201:
 636:main.c        ****                 VENT1_Write(0);    
 2829              		.loc 1 636 0 is_stmt 1
 2830 04da 0020     		movs	r0, #0
 2831 04dc FFF7FEFF 		bl	VENT1_Write
 2832              	.LVL231:
 637:main.c        ****                 VENT2_Write(0); 
 2833              		.loc 1 637 0
 2834 04e0 0020     		movs	r0, #0
 2835 04e2 FFF7FEFF 		bl	VENT2_Write
 2836              	.LVL232:
 2837 04e6 09E0     		b	.L200
 2838              	.L567:
 638:main.c        ****             }else if(coldJnTemp<2500){
 2839              		.loc 1 638 0
 2840 04e8 40F6C313 		movw	r3, #2499
 2841 04ec 9C42     		cmp	r4, r3
 2842 04ee 05DC     		bgt	.L200
ARM GAS  C:\Users\USUARIO\AppData\Local\Temp\cc8Cohj2.s 			page 65


 639:main.c        ****                 VENT1_Write(1);   
 2843              		.loc 1 639 0
 2844 04f0 0120     		movs	r0, #1
 2845 04f2 FFF7FEFF 		bl	VENT1_Write
 2846              	.LVL233:
 640:main.c        ****                 VENT2_Write(1); 
 2847              		.loc 1 640 0
 2848 04f6 0120     		movs	r0, #1
 2849 04f8 FFF7FEFF 		bl	VENT2_Write
 2850              	.LVL234:
 2851              	.L200:
 641:main.c        ****             }
 642:main.c        ****             
 643:main.c        ****         }
 644:main.c        ****         
 645:main.c        ****     glcd_update();            
 2852              		.loc 1 645 0
 2853 04fc FFF7FEFF 		bl	glcd_update
 2854              	.LVL235:
 646:main.c        ****       
 647:main.c        **** //_------------------------------------------------------------------------------------------------
 648:main.c        ****       if(Menu==0){ //Menu de Contraseña.
 2855              		.loc 1 648 0
 2856 0500 384B     		ldr	r3, .L574+88
 2857 0502 1B78     		ldrb	r3, [r3]	@ zero_extendqisi2
 2858 0504 002B     		cmp	r3, #0
 2859 0506 40F00E82 		bne	.L204
 649:main.c        ****       
 650:main.c        ****       strcpy(Menus.Letra,"Clave");
 2860              		.loc 1 650 0
 2861 050a 224C     		ldr	r4, .L574+8
 2862 050c 3C4B     		ldr	r3, .L574+116
 2863 050e 1868     		ldr	r0, [r3]	@ unaligned
 2864 0510 2060     		str	r0, [r4]	@ unaligned
 2865 0512 9B88     		ldrh	r3, [r3, #4]	@ unaligned
 2866 0514 A380     		strh	r3, [r4, #4]	@ unaligned
 651:main.c        ****       displayMenu(Menus.Letra,30,0,1,2);     
 2867              		.loc 1 651 0
 2868 0516 0223     		movs	r3, #2
 2869 0518 0093     		str	r3, [sp]
 2870 051a 0123     		movs	r3, #1
 2871 051c 0022     		movs	r2, #0
 2872 051e 1E21     		movs	r1, #30
 2873 0520 2046     		mov	r0, r4
 2874 0522 FFF7FEFF 		bl	displayMenu
 2875              	.LVL236:
 652:main.c        ****       
 653:main.c        ****       if(tup>30){
 2876              		.loc 1 653 0
 2877 0526 374B     		ldr	r3, .L574+120
 2878 0528 1B88     		ldrh	r3, [r3]
 2879 052a 1E2B     		cmp	r3, #30
 2880 052c 40F28580 		bls	.L205
 654:main.c        ****          BUZZER_Write(1);CyDelay(10);BUZZER_Write(0);
 2881              		.loc 1 654 0
 2882 0530 0120     		movs	r0, #1
 2883 0532 FFF7FEFF 		bl	BUZZER_Write
ARM GAS  C:\Users\USUARIO\AppData\Local\Temp\cc8Cohj2.s 			page 66


 2884              	.LVL237:
 2885 0536 0A20     		movs	r0, #10
 2886 0538 FFF7FEFF 		bl	CyDelay
 2887              	.LVL238:
 2888 053c 0020     		movs	r0, #0
 2889 053e FFF7FEFF 		bl	BUZZER_Write
 2890              	.LVL239:
 655:main.c        ****          CyDelay(200);
 2891              		.loc 1 655 0
 2892 0542 C820     		movs	r0, #200
 2893 0544 FFF7FEFF 		bl	CyDelay
 2894              	.LVL240:
 656:main.c        ****          for(i=1;i<=4;i++){
 2895              		.loc 1 656 0
 2896 0548 0122     		movs	r2, #1
 2897 054a 114B     		ldr	r3, .L574+4
 2898 054c 1A70     		strb	r2, [r3]
 2899 054e 70E0     		b	.L206
 2900              	.L210:
 657:main.c        ****             if(unidad==i){
 2901              		.loc 1 657 0
 2902 0550 2D4B     		ldr	r3, .L574+124
 2903 0552 1B78     		ldrb	r3, [r3]	@ zero_extendqisi2
 2904 0554 9942     		cmp	r1, r3
 2905 0556 5BD1     		bne	.L207
 658:main.c        ****                Contrasena[i-1]++;
 2906              		.loc 1 658 0
 2907 0558 4A1E     		subs	r2, r1, #1
 2908 055a 1C48     		ldr	r0, .L574+64
 2909 055c 1044     		add	r0, r0, r2
 2910 055e 90F91830 		ldrsb	r3, [r0, #24]
 2911 0562 0133     		adds	r3, r3, #1
 2912 0564 5BB2     		sxtb	r3, r3
 2913 0566 0376     		strb	r3, [r0, #24]
 659:main.c        ****                if(Contrasena[i-1]>9)   
 2914              		.loc 1 659 0
 2915 0568 092B     		cmp	r3, #9
 2916 056a 02DD     		ble	.L208
 660:main.c        ****                   Contrasena[i-1]=0;
 2917              		.loc 1 660 0
 2918 056c 0346     		mov	r3, r0
 2919 056e 0020     		movs	r0, #0
 2920 0570 1876     		strb	r0, [r3, #24]
 2921              	.L208:
 661:main.c        ****                displayContrasena(Contrasena[i-1],i*20,30,1);
 2922              		.loc 1 661 0
 2923 0572 1648     		ldr	r0, .L574+64
 2924 0574 1044     		add	r0, r0, r2
 2925 0576 01EB8101 		add	r1, r1, r1, lsl #2
 2926 057a 8900     		lsls	r1, r1, #2
 2927 057c 0123     		movs	r3, #1
 2928 057e 1E22     		movs	r2, #30
 2929 0580 01F0FC01 		and	r1, r1, #252
 2930 0584 007E     		ldrb	r0, [r0, #24]	@ zero_extendqisi2
 2931 0586 FFF7FEFF 		bl	displayContrasena
 2932              	.LVL241:
 2933 058a 4EE0     		b	.L209
ARM GAS  C:\Users\USUARIO\AppData\Local\Temp\cc8Cohj2.s 			page 67


 2934              	.L575:
 2935              		.align	2
 2936              	.L574:
 2937 058c 00000000 		.word	Segmentos
 2938 0590 00000000 		.word	i
 2939 0594 00000000 		.word	Menus
 2940 0598 38000000 		.word	.LC4
 2941 059c 00000000 		.word	Opcion
 2942 05a0 00000000 		.word	visual
 2943 05a4 00000000 		.word	Temperatura
 2944 05a8 00000000 		.word	TempeInicial
 2945 05ac 00000000 		.word	ProgramaSeleccionado
 2946 05b0 00000000 		.word	Minutos1
 2947 05b4 00000000 		.word	Tiempo
 2948 05b8 00000000 		.word	Segmento
 2949 05bc 00000000 		.word	Temperatura1
 2950 05c0 00000000 		.word	Setpoint
 2951 05c4 00000000 		.word	Pendiente
 2952 05c8 CDCCCCCC 		.word	-858993459
 2953 05cc 00000000 		.word	.LANCHOR0
 2954 05d0 67666666 		.word	1717986919
 2955 05d4 00000000 		.word	flag_calcula
 2956 05d8 00000000 		.word	Coeficiente
 2957 05dc 00000000 		.word	GananciaIn
 2958 05e0 00000000 		.word	Ganancia
 2959 05e4 00000000 		.word	Menu
 2960 05e8 00000000 		.word	MediaMovil
 2961 05ec 00000000 		.word	coldJnTemp
 2962 05f0 00000000 		.word	Lectura2
 2963 05f4 00000000 		.word	grafica
 2964 05f8 00000000 		.word	Test
 2965 05fc 00001643 		.word	1125515264
 2966 0600 44000000 		.word	.LC5
 2967 0604 00000000 		.word	tup
 2968 0608 00000000 		.word	unidad
 2969 060c 00000000 		.word	Horas1
 2970              	.L207:
 662:main.c        ****             }else{
 663:main.c        ****                displayContrasena(Contrasena[i-1],i*20,30,0);
 2971              		.loc 1 663 0
 2972 0610 4B1E     		subs	r3, r1, #1
 2973 0612 9548     		ldr	r0, .L576
 2974 0614 1844     		add	r0, r0, r3
 2975 0616 01EB8101 		add	r1, r1, r1, lsl #2
 2976 061a 8900     		lsls	r1, r1, #2
 2977 061c 0023     		movs	r3, #0
 2978 061e 1E22     		movs	r2, #30
 2979 0620 01F0FC01 		and	r1, r1, #252
 2980 0624 007E     		ldrb	r0, [r0, #24]	@ zero_extendqisi2
 2981 0626 FFF7FEFF 		bl	displayContrasena
 2982              	.LVL242:
 2983              	.L209:
 656:main.c        ****             if(unidad==i){
 2984              		.loc 1 656 0 discriminator 2
 2985 062a 904A     		ldr	r2, .L576+4
 2986 062c 1378     		ldrb	r3, [r2]	@ zero_extendqisi2
 2987 062e 0133     		adds	r3, r3, #1
ARM GAS  C:\Users\USUARIO\AppData\Local\Temp\cc8Cohj2.s 			page 68


 2988 0630 1370     		strb	r3, [r2]
 2989              	.L206:
 656:main.c        ****             if(unidad==i){
 2990              		.loc 1 656 0 is_stmt 0 discriminator 1
 2991 0632 8E4B     		ldr	r3, .L576+4
 2992 0634 1978     		ldrb	r1, [r3]	@ zero_extendqisi2
 2993 0636 0429     		cmp	r1, #4
 2994 0638 8AD9     		bls	.L210
 2995              	.L205:
 664:main.c        ****             }
 665:main.c        ****          }
 666:main.c        ****       }
 667:main.c        ****             
 668:main.c        ****       if(tdown>30){
 2996              		.loc 1 668 0 is_stmt 1
 2997 063a 8D4B     		ldr	r3, .L576+8
 2998 063c 1B88     		ldrh	r3, [r3]
 2999 063e 1E2B     		cmp	r3, #30
 3000 0640 42D9     		bls	.L211
 669:main.c        ****          BUZZER_Write(1);CyDelay(10);BUZZER_Write(0);
 3001              		.loc 1 669 0
 3002 0642 0120     		movs	r0, #1
 3003 0644 FFF7FEFF 		bl	BUZZER_Write
 3004              	.LVL243:
 3005 0648 0A20     		movs	r0, #10
 3006 064a FFF7FEFF 		bl	CyDelay
 3007              	.LVL244:
 3008 064e 0020     		movs	r0, #0
 3009 0650 FFF7FEFF 		bl	BUZZER_Write
 3010              	.LVL245:
 670:main.c        ****          CyDelay(200);
 3011              		.loc 1 670 0
 3012 0654 C820     		movs	r0, #200
 3013 0656 FFF7FEFF 		bl	CyDelay
 3014              	.LVL246:
 671:main.c        ****          for(i=1;i<=4;i++){
 3015              		.loc 1 671 0
 3016 065a 0122     		movs	r2, #1
 3017 065c 834B     		ldr	r3, .L576+4
 3018 065e 1A70     		strb	r2, [r3]
 3019 0660 2EE0     		b	.L212
 3020              	.L216:
 672:main.c        ****             if(unidad==i){
 3021              		.loc 1 672 0
 3022 0662 844B     		ldr	r3, .L576+12
 3023 0664 1B78     		ldrb	r3, [r3]	@ zero_extendqisi2
 3024 0666 9942     		cmp	r1, r3
 3025 0668 19D1     		bne	.L213
 673:main.c        ****                Contrasena[i-1]--;
 3026              		.loc 1 673 0
 3027 066a 4A1E     		subs	r2, r1, #1
 3028 066c 7E48     		ldr	r0, .L576
 3029 066e 1044     		add	r0, r0, r2
 3030 0670 90F91830 		ldrsb	r3, [r0, #24]
 3031 0674 013B     		subs	r3, r3, #1
 3032 0676 5BB2     		sxtb	r3, r3
 3033 0678 0376     		strb	r3, [r0, #24]
ARM GAS  C:\Users\USUARIO\AppData\Local\Temp\cc8Cohj2.s 			page 69


 674:main.c        ****                if(Contrasena[i-1]<0)
 3034              		.loc 1 674 0
 3035 067a 002B     		cmp	r3, #0
 3036 067c 02DA     		bge	.L214
 675:main.c        ****                   Contrasena[i-1]=9;
 3037              		.loc 1 675 0
 3038 067e 0346     		mov	r3, r0
 3039 0680 0920     		movs	r0, #9
 3040 0682 1876     		strb	r0, [r3, #24]
 3041              	.L214:
 676:main.c        ****                displayContrasena(Contrasena[i-1],i*20,30,1);}
 3042              		.loc 1 676 0
 3043 0684 7848     		ldr	r0, .L576
 3044 0686 1044     		add	r0, r0, r2
 3045 0688 01EB8101 		add	r1, r1, r1, lsl #2
 3046 068c 8900     		lsls	r1, r1, #2
 3047 068e 0123     		movs	r3, #1
 3048 0690 1E22     		movs	r2, #30
 3049 0692 01F0FC01 		and	r1, r1, #252
 3050 0696 007E     		ldrb	r0, [r0, #24]	@ zero_extendqisi2
 3051 0698 FFF7FEFF 		bl	displayContrasena
 3052              	.LVL247:
 3053 069c 0CE0     		b	.L215
 3054              	.L213:
 677:main.c        ****             else
 678:main.c        ****             displayContrasena(Contrasena[i-1],i*20,30,0);
 3055              		.loc 1 678 0
 3056 069e 4B1E     		subs	r3, r1, #1
 3057 06a0 7148     		ldr	r0, .L576
 3058 06a2 1844     		add	r0, r0, r3
 3059 06a4 01EB8101 		add	r1, r1, r1, lsl #2
 3060 06a8 8900     		lsls	r1, r1, #2
 3061 06aa 0023     		movs	r3, #0
 3062 06ac 1E22     		movs	r2, #30
 3063 06ae 01F0FC01 		and	r1, r1, #252
 3064 06b2 007E     		ldrb	r0, [r0, #24]	@ zero_extendqisi2
 3065 06b4 FFF7FEFF 		bl	displayContrasena
 3066              	.LVL248:
 3067              	.L215:
 671:main.c        ****             if(unidad==i){
 3068              		.loc 1 671 0 discriminator 2
 3069 06b8 6C4A     		ldr	r2, .L576+4
 3070 06ba 1378     		ldrb	r3, [r2]	@ zero_extendqisi2
 3071 06bc 0133     		adds	r3, r3, #1
 3072 06be 1370     		strb	r3, [r2]
 3073              	.L212:
 671:main.c        ****             if(unidad==i){
 3074              		.loc 1 671 0 is_stmt 0 discriminator 1
 3075 06c0 6A4B     		ldr	r3, .L576+4
 3076 06c2 1978     		ldrb	r1, [r3]	@ zero_extendqisi2
 3077 06c4 0429     		cmp	r1, #4
 3078 06c6 CCD9     		bls	.L216
 3079              	.L211:
 679:main.c        ****          }        
 680:main.c        ****       }
 681:main.c        ****             
 682:main.c        ****       if(tright>30){
ARM GAS  C:\Users\USUARIO\AppData\Local\Temp\cc8Cohj2.s 			page 70


 3080              		.loc 1 682 0 is_stmt 1
 3081 06c8 6B4B     		ldr	r3, .L576+16
 3082 06ca 1B88     		ldrh	r3, [r3]
 3083 06cc 1E2B     		cmp	r3, #30
 3084 06ce 3AD9     		bls	.L217
 683:main.c        ****          BUZZER_Write(1);CyDelay(10);BUZZER_Write(0);
 3085              		.loc 1 683 0
 3086 06d0 0120     		movs	r0, #1
 3087 06d2 FFF7FEFF 		bl	BUZZER_Write
 3088              	.LVL249:
 3089 06d6 0A20     		movs	r0, #10
 3090 06d8 FFF7FEFF 		bl	CyDelay
 3091              	.LVL250:
 3092 06dc 0020     		movs	r0, #0
 3093 06de FFF7FEFF 		bl	BUZZER_Write
 3094              	.LVL251:
 684:main.c        ****          CyDelay(200);unidad++;
 3095              		.loc 1 684 0
 3096 06e2 C820     		movs	r0, #200
 3097 06e4 FFF7FEFF 		bl	CyDelay
 3098              	.LVL252:
 3099 06e8 624A     		ldr	r2, .L576+12
 3100 06ea 1378     		ldrb	r3, [r2]	@ zero_extendqisi2
 3101 06ec 0133     		adds	r3, r3, #1
 3102 06ee 1370     		strb	r3, [r2]
 685:main.c        ****          for(i=1;i<=4;i++){
 3103              		.loc 1 685 0
 3104 06f0 0122     		movs	r2, #1
 3105 06f2 5E4B     		ldr	r3, .L576+4
 3106 06f4 1A70     		strb	r2, [r3]
 3107 06f6 22E0     		b	.L218
 3108              	.L221:
 686:main.c        ****             if(unidad==i)
 3109              		.loc 1 686 0
 3110 06f8 5E4B     		ldr	r3, .L576+12
 3111 06fa 1B78     		ldrb	r3, [r3]	@ zero_extendqisi2
 3112 06fc 9942     		cmp	r1, r3
 3113 06fe 0DD1     		bne	.L219
 687:main.c        ****             {displayContrasena(Contrasena[i-1],i*20,30,1);}
 3114              		.loc 1 687 0
 3115 0700 4B1E     		subs	r3, r1, #1
 3116 0702 5948     		ldr	r0, .L576
 3117 0704 1844     		add	r0, r0, r3
 3118 0706 01EB8101 		add	r1, r1, r1, lsl #2
 3119 070a 8900     		lsls	r1, r1, #2
 3120 070c 0123     		movs	r3, #1
 3121 070e 1E22     		movs	r2, #30
 3122 0710 01F0FC01 		and	r1, r1, #252
 3123 0714 007E     		ldrb	r0, [r0, #24]	@ zero_extendqisi2
 3124 0716 FFF7FEFF 		bl	displayContrasena
 3125              	.LVL253:
 3126 071a 0CE0     		b	.L220
 3127              	.L219:
 688:main.c        ****             else
 689:main.c        ****             {displayContrasena(Contrasena[i-1],i*20,30,0);}
 3128              		.loc 1 689 0
 3129 071c 4B1E     		subs	r3, r1, #1
ARM GAS  C:\Users\USUARIO\AppData\Local\Temp\cc8Cohj2.s 			page 71


 3130 071e 5248     		ldr	r0, .L576
 3131 0720 1844     		add	r0, r0, r3
 3132 0722 01EB8101 		add	r1, r1, r1, lsl #2
 3133 0726 8900     		lsls	r1, r1, #2
 3134 0728 0023     		movs	r3, #0
 3135 072a 1E22     		movs	r2, #30
 3136 072c 01F0FC01 		and	r1, r1, #252
 3137 0730 007E     		ldrb	r0, [r0, #24]	@ zero_extendqisi2
 3138 0732 FFF7FEFF 		bl	displayContrasena
 3139              	.LVL254:
 3140              	.L220:
 685:main.c        ****             if(unidad==i)
 3141              		.loc 1 685 0 discriminator 2
 3142 0736 4D4A     		ldr	r2, .L576+4
 3143 0738 1378     		ldrb	r3, [r2]	@ zero_extendqisi2
 3144 073a 0133     		adds	r3, r3, #1
 3145 073c 1370     		strb	r3, [r2]
 3146              	.L218:
 685:main.c        ****             if(unidad==i)
 3147              		.loc 1 685 0 is_stmt 0 discriminator 1
 3148 073e 4B4B     		ldr	r3, .L576+4
 3149 0740 1978     		ldrb	r1, [r3]	@ zero_extendqisi2
 3150 0742 0429     		cmp	r1, #4
 3151 0744 D8D9     		bls	.L221
 3152              	.L217:
 690:main.c        ****          }
 691:main.c        ****       }
 692:main.c        ****     
 693:main.c        ****       if(unidad>4){
 3153              		.loc 1 693 0 is_stmt 1
 3154 0746 4B4B     		ldr	r3, .L576+12
 3155 0748 1B78     		ldrb	r3, [r3]	@ zero_extendqisi2
 3156 074a 042B     		cmp	r3, #4
 3157 074c 40F2EB80 		bls	.L204
 694:main.c        ****         glcd_fillScreen(OFF);unidad=4;
 3158              		.loc 1 694 0
 3159 0750 0020     		movs	r0, #0
 3160 0752 FFF7FEFF 		bl	glcd_fillScreen
 3161              	.LVL255:
 3162 0756 0422     		movs	r2, #4
 3163 0758 464B     		ldr	r3, .L576+12
 3164 075a 1A70     		strb	r2, [r3]
 695:main.c        ****          if(Contrasena[0]==3&&Contrasena[1]==8&&Contrasena[2]==9&&Contrasena[3]==2) // Si Ingresa c
 3165              		.loc 1 695 0
 3166 075c 424B     		ldr	r3, .L576
 3167 075e 93F91830 		ldrsb	r3, [r3, #24]
 3168 0762 032B     		cmp	r3, #3
 3169 0764 30D1     		bne	.L222
 3170              		.loc 1 695 0 is_stmt 0 discriminator 1
 3171 0766 404B     		ldr	r3, .L576
 3172 0768 93F91930 		ldrsb	r3, [r3, #25]
 3173 076c 082B     		cmp	r3, #8
 3174 076e 2BD1     		bne	.L222
 3175              		.loc 1 695 0 discriminator 2
 3176 0770 3D4B     		ldr	r3, .L576
 3177 0772 93F91A30 		ldrsb	r3, [r3, #26]
 3178 0776 092B     		cmp	r3, #9
ARM GAS  C:\Users\USUARIO\AppData\Local\Temp\cc8Cohj2.s 			page 72


 3179 0778 26D1     		bne	.L222
 3180              		.loc 1 695 0 discriminator 3
 3181 077a 3B4B     		ldr	r3, .L576
 3182 077c 93F91B30 		ldrsb	r3, [r3, #27]
 3183 0780 022B     		cmp	r3, #2
 3184 0782 21D1     		bne	.L222
 696:main.c        ****             {EEPROM_WriteByte(0,460);CyDelay(20);EEPROM_WriteByte(0,461);CyDelay(20);// Reestablece
 3185              		.loc 1 696 0 is_stmt 1
 3186 0784 4FF4E671 		mov	r1, #460
 3187 0788 0020     		movs	r0, #0
 3188 078a FFF7FEFF 		bl	EEPROM_WriteByte
 3189              	.LVL256:
 3190 078e 1420     		movs	r0, #20
 3191 0790 FFF7FEFF 		bl	CyDelay
 3192              	.LVL257:
 3193 0794 40F2CD11 		movw	r1, #461
 3194 0798 0020     		movs	r0, #0
 3195 079a FFF7FEFF 		bl	EEPROM_WriteByte
 3196              	.LVL258:
 3197 079e 1420     		movs	r0, #20
 3198 07a0 FFF7FEFF 		bl	CyDelay
 3199              	.LVL259:
 697:main.c        ****              EEPROM_WriteByte(0,462);CyDelay(20);EEPROM_WriteByte(0,463);CyDelay(20);
 3200              		.loc 1 697 0
 3201 07a4 4FF4E771 		mov	r1, #462
 3202 07a8 0020     		movs	r0, #0
 3203 07aa FFF7FEFF 		bl	EEPROM_WriteByte
 3204              	.LVL260:
 3205 07ae 1420     		movs	r0, #20
 3206 07b0 FFF7FEFF 		bl	CyDelay
 3207              	.LVL261:
 3208 07b4 40F2CF11 		movw	r1, #463
 3209 07b8 0020     		movs	r0, #0
 3210 07ba FFF7FEFF 		bl	EEPROM_WriteByte
 3211              	.LVL262:
 3212 07be 1420     		movs	r0, #20
 3213 07c0 FFF7FEFF 		bl	CyDelay
 3214              	.LVL263:
 698:main.c        ****              CySoftwareReset();}        
 3215              		.loc 1 698 0
 3216 07c4 FFF7FEFF 		bl	CySoftwareReset
 3217              	.LVL264:
 3218              	.L222:
 699:main.c        ****          
 700:main.c        ****          if((Contrasena[0]==Password[0])&&(Contrasena[1]==Password[1])&&(Contrasena[2]==Password[2]
 3219              		.loc 1 700 0
 3220 07c8 274B     		ldr	r3, .L576
 3221 07ca 93F91820 		ldrsb	r2, [r3, #24]
 3222 07ce 2B4B     		ldr	r3, .L576+20
 3223 07d0 1B78     		ldrb	r3, [r3]	@ zero_extendqisi2
 3224 07d2 9A42     		cmp	r2, r3
 3225 07d4 5CD1     		bne	.L223
 3226              		.loc 1 700 0 is_stmt 0 discriminator 1
 3227 07d6 244B     		ldr	r3, .L576
 3228 07d8 93F91920 		ldrsb	r2, [r3, #25]
 3229 07dc 274B     		ldr	r3, .L576+20
 3230 07de 5B78     		ldrb	r3, [r3, #1]	@ zero_extendqisi2
ARM GAS  C:\Users\USUARIO\AppData\Local\Temp\cc8Cohj2.s 			page 73


 3231 07e0 9A42     		cmp	r2, r3
 3232 07e2 55D1     		bne	.L223
 3233              		.loc 1 700 0 discriminator 2
 3234 07e4 204B     		ldr	r3, .L576
 3235 07e6 93F91A20 		ldrsb	r2, [r3, #26]
 3236 07ea 244B     		ldr	r3, .L576+20
 3237 07ec 9B78     		ldrb	r3, [r3, #2]	@ zero_extendqisi2
 3238 07ee 9A42     		cmp	r2, r3
 3239 07f0 4ED1     		bne	.L223
 3240              		.loc 1 700 0 discriminator 3
 3241 07f2 1D4B     		ldr	r3, .L576
 3242 07f4 93F91B20 		ldrsb	r2, [r3, #27]
 3243 07f8 204B     		ldr	r3, .L576+20
 3244 07fa DB78     		ldrb	r3, [r3, #3]	@ zero_extendqisi2
 3245 07fc 9A42     		cmp	r2, r3
 3246 07fe 47D1     		bne	.L223
 701:main.c        ****             glcd_fillScreen(OFF);
 3247              		.loc 1 701 0 is_stmt 1
 3248 0800 0020     		movs	r0, #0
 3249 0802 FFF7FEFF 		bl	glcd_fillScreen
 3250              	.LVL265:
 702:main.c        ****             strcpy(Menus.Letra,"Clave");
 3251              		.loc 1 702 0
 3252 0806 1E4C     		ldr	r4, .L576+24
 3253 0808 1E4B     		ldr	r3, .L576+28
 3254 080a 1868     		ldr	r0, [r3]	@ unaligned
 3255 080c 2060     		str	r0, [r4]	@ unaligned
 3256 080e 9B88     		ldrh	r3, [r3, #4]	@ unaligned
 3257 0810 A380     		strh	r3, [r4, #4]	@ unaligned
 703:main.c        ****             displayMenu(Menus.Letra,30,0,0,2);
 3258              		.loc 1 703 0
 3259 0812 0225     		movs	r5, #2
 3260 0814 0095     		str	r5, [sp]
 3261 0816 0023     		movs	r3, #0
 3262 0818 1A46     		mov	r2, r3
 3263 081a 1E21     		movs	r1, #30
 3264 081c 2046     		mov	r0, r4
 3265 081e FFF7FEFF 		bl	displayMenu
 3266              	.LVL266:
 704:main.c        ****             strcpy(Menus.Letra,"Correcta");
 3267              		.loc 1 704 0
 3268 0822 194B     		ldr	r3, .L576+32
 3269 0824 03CB     		ldmia	r3!, {r0, r1}
 3270 0826 2060     		str	r0, [r4]	@ unaligned
 3271 0828 6160     		str	r1, [r4, #4]	@ unaligned
 3272 082a 1B78     		ldrb	r3, [r3]	@ zero_extendqisi2
 3273 082c 2372     		strb	r3, [r4, #8]
 705:main.c        ****             displayMenu(Menus.Letra,15,30,0,2);
 3274              		.loc 1 705 0
 3275 082e 0095     		str	r5, [sp]
 3276 0830 0023     		movs	r3, #0
 3277 0832 1E22     		movs	r2, #30
 3278 0834 0F21     		movs	r1, #15
 3279 0836 2046     		mov	r0, r4
 3280 0838 FFF7FEFF 		bl	displayMenu
 3281              	.LVL267:
 706:main.c        ****             Menu=1;glcd_update();CyDelay(1000);
ARM GAS  C:\Users\USUARIO\AppData\Local\Temp\cc8Cohj2.s 			page 74


 3282              		.loc 1 706 0
 3283 083c 0124     		movs	r4, #1
 3284 083e 134B     		ldr	r3, .L576+36
 3285 0840 1C70     		strb	r4, [r3]
 3286 0842 FFF7FEFF 		bl	glcd_update
 3287              	.LVL268:
 3288 0846 4FF47A70 		mov	r0, #1000
 3289 084a FFF7FEFF 		bl	CyDelay
 3290              	.LVL269:
 707:main.c        ****             glcd_fillScreen(OFF);unidad=1;
 3291              		.loc 1 707 0
 3292 084e 0020     		movs	r0, #0
 3293 0850 FFF7FEFF 		bl	glcd_fillScreen
 3294              	.LVL270:
 3295 0854 074B     		ldr	r3, .L576+12
 3296 0856 1C70     		strb	r4, [r3]
 708:main.c        ****             Contrasena[0]=0;Contrasena[1]=0;Contrasena[2]=0;Contrasena[3]=0;
 3297              		.loc 1 708 0
 3298 0858 034B     		ldr	r3, .L576
 3299 085a 0022     		movs	r2, #0
 3300 085c 1A76     		strb	r2, [r3, #24]
 3301 085e 5A76     		strb	r2, [r3, #25]
 3302 0860 9A76     		strb	r2, [r3, #26]
 3303 0862 DA76     		strb	r2, [r3, #27]
 3304 0864 5FE0     		b	.L204
 3305              	.L577:
 3306 0866 00BF     		.align	2
 3307              	.L576:
 3308 0868 00000000 		.word	.LANCHOR0
 3309 086c 00000000 		.word	i
 3310 0870 00000000 		.word	tdown
 3311 0874 00000000 		.word	unidad
 3312 0878 00000000 		.word	tright
 3313 087c 00000000 		.word	Password
 3314 0880 00000000 		.word	Menus
 3315 0884 44000000 		.word	.LC5
 3316 0888 4C000000 		.word	.LC6
 3317 088c 00000000 		.word	Menu
 3318              	.L223:
 709:main.c        ****          }else{
 710:main.c        ****             glcd_fillScreen(OFF);
 3319              		.loc 1 710 0
 3320 0890 0020     		movs	r0, #0
 3321 0892 FFF7FEFF 		bl	glcd_fillScreen
 3322              	.LVL271:
 711:main.c        ****             strcpy(Menus.Letra,"Clave");
 3323              		.loc 1 711 0
 3324 0896 BC4C     		ldr	r4, .L578
 3325 0898 BC4B     		ldr	r3, .L578+4
 3326 089a 1868     		ldr	r0, [r3]	@ unaligned
 3327 089c 2060     		str	r0, [r4]	@ unaligned
 3328 089e 9B88     		ldrh	r3, [r3, #4]	@ unaligned
 3329 08a0 A380     		strh	r3, [r4, #4]	@ unaligned
 712:main.c        ****             displayMenu(Menus.Letra,30,0,0,2);
 3330              		.loc 1 712 0
 3331 08a2 0225     		movs	r5, #2
 3332 08a4 0095     		str	r5, [sp]
ARM GAS  C:\Users\USUARIO\AppData\Local\Temp\cc8Cohj2.s 			page 75


 3333 08a6 0023     		movs	r3, #0
 3334 08a8 1A46     		mov	r2, r3
 3335 08aa 1E21     		movs	r1, #30
 3336 08ac 2046     		mov	r0, r4
 3337 08ae FFF7FEFF 		bl	displayMenu
 3338              	.LVL272:
 713:main.c        ****             strcpy(Menus.Letra,"Incorrecta");
 3339              		.loc 1 713 0
 3340 08b2 B74B     		ldr	r3, .L578+8
 3341 08b4 03CB     		ldmia	r3!, {r0, r1}
 3342 08b6 2060     		str	r0, [r4]	@ unaligned
 3343 08b8 6160     		str	r1, [r4, #4]	@ unaligned
 3344 08ba 1A88     		ldrh	r2, [r3]	@ unaligned
 3345 08bc 9B78     		ldrb	r3, [r3, #2]	@ zero_extendqisi2
 3346 08be 2281     		strh	r2, [r4, #8]	@ unaligned
 3347 08c0 A372     		strb	r3, [r4, #10]
 714:main.c        ****             displayMenu(Menus.Letra,0,30,0,2);
 3348              		.loc 1 714 0
 3349 08c2 0095     		str	r5, [sp]
 3350 08c4 0023     		movs	r3, #0
 3351 08c6 1E22     		movs	r2, #30
 3352 08c8 1946     		mov	r1, r3
 3353 08ca 2046     		mov	r0, r4
 3354 08cc FFF7FEFF 		bl	displayMenu
 3355              	.LVL273:
 715:main.c        ****             Menu=0;glcd_update();CyDelay(1000);
 3356              		.loc 1 715 0
 3357 08d0 0024     		movs	r4, #0
 3358 08d2 B04B     		ldr	r3, .L578+12
 3359 08d4 1C70     		strb	r4, [r3]
 3360 08d6 FFF7FEFF 		bl	glcd_update
 3361              	.LVL274:
 3362 08da 4FF47A70 		mov	r0, #1000
 3363 08de FFF7FEFF 		bl	CyDelay
 3364              	.LVL275:
 716:main.c        ****             glcd_fillScreen(OFF);unidad=1;
 3365              		.loc 1 716 0
 3366 08e2 2046     		mov	r0, r4
 3367 08e4 FFF7FEFF 		bl	glcd_fillScreen
 3368              	.LVL276:
 3369 08e8 0123     		movs	r3, #1
 3370 08ea AB4A     		ldr	r2, .L578+16
 3371 08ec 1370     		strb	r3, [r2]
 717:main.c        ****             Contrasena[0]=0;Contrasena[1]=0;Contrasena[2]=0;Contrasena[3]=0;
 3372              		.loc 1 717 0
 3373 08ee AB4D     		ldr	r5, .L578+20
 3374 08f0 2C76     		strb	r4, [r5, #24]
 3375 08f2 6C76     		strb	r4, [r5, #25]
 3376 08f4 AC76     		strb	r4, [r5, #26]
 3377 08f6 EC76     		strb	r4, [r5, #27]
 718:main.c        ****             displayContrasena(Contrasena[0],20,30,1);
 3378              		.loc 1 718 0
 3379 08f8 1E22     		movs	r2, #30
 3380 08fa 1421     		movs	r1, #20
 3381 08fc 2046     		mov	r0, r4
 3382 08fe FFF7FEFF 		bl	displayContrasena
 3383              	.LVL277:
ARM GAS  C:\Users\USUARIO\AppData\Local\Temp\cc8Cohj2.s 			page 76


 719:main.c        ****             displayContrasena(Contrasena[1],40,30,0);
 3384              		.loc 1 719 0
 3385 0902 2346     		mov	r3, r4
 3386 0904 1E22     		movs	r2, #30
 3387 0906 2821     		movs	r1, #40
 3388 0908 687E     		ldrb	r0, [r5, #25]	@ zero_extendqisi2
 3389 090a FFF7FEFF 		bl	displayContrasena
 3390              	.LVL278:
 720:main.c        ****             displayContrasena(Contrasena[2],60,30,0);
 3391              		.loc 1 720 0
 3392 090e 2346     		mov	r3, r4
 3393 0910 1E22     		movs	r2, #30
 3394 0912 3C21     		movs	r1, #60
 3395 0914 A87E     		ldrb	r0, [r5, #26]	@ zero_extendqisi2
 3396 0916 FFF7FEFF 		bl	displayContrasena
 3397              	.LVL279:
 721:main.c        ****             displayContrasena(Contrasena[3],80,30,0);
 3398              		.loc 1 721 0
 3399 091a 2346     		mov	r3, r4
 3400 091c 1E22     		movs	r2, #30
 3401 091e 5021     		movs	r1, #80
 3402 0920 E87E     		ldrb	r0, [r5, #27]	@ zero_extendqisi2
 3403 0922 FFF7FEFF 		bl	displayContrasena
 3404              	.LVL280:
 3405              	.L204:
 722:main.c        ****          }
 723:main.c        ****       }
 724:main.c        ****     }//Clave OK
 725:main.c        **** //_------------------------------------------------------------------------------------------------
 726:main.c        **** 
 727:main.c        **** //_------------------------------------------------------------------------------------------------
 728:main.c        ****       if(Menu==1){ //Menu Principal.      
 3406              		.loc 1 728 0
 3407 0926 9B4B     		ldr	r3, .L578+12
 3408 0928 1B78     		ldrb	r3, [r3]	@ zero_extendqisi2
 3409 092a 012B     		cmp	r3, #1
 3410 092c 40F07881 		bne	.L224
 729:main.c        ****          Control=0;
 3411              		.loc 1 729 0
 3412 0930 0024     		movs	r4, #0
 3413 0932 9B4B     		ldr	r3, .L578+24
 3414 0934 1C80     		strh	r4, [r3]	@ movhi
 730:main.c        ****          SSR_Write(0);
 3415              		.loc 1 730 0
 3416 0936 2046     		mov	r0, r4
 3417 0938 FFF7FEFF 		bl	SSR_Write
 3418              	.LVL281:
 731:main.c        ****          Testerilizacion[0]=0;
 3419              		.loc 1 731 0
 3420 093c 974B     		ldr	r3, .L578+20
 3421 093e 1C71     		strb	r4, [r3, #4]
 732:main.c        ****          Testerilizacion[1]=0;
 3422              		.loc 1 732 0
 3423 0940 5C71     		strb	r4, [r3, #5]
 733:main.c        ****          Testerilizacion[2]=0;
 3424              		.loc 1 733 0
 3425 0942 9C71     		strb	r4, [r3, #6]
ARM GAS  C:\Users\USUARIO\AppData\Local\Temp\cc8Cohj2.s 			page 77


 734:main.c        ****          Testerilizacion[3]=0;
 3426              		.loc 1 734 0
 3427 0944 DC71     		strb	r4, [r3, #7]
 735:main.c        ****          Segmento=0;
 3428              		.loc 1 735 0
 3429 0946 974B     		ldr	r3, .L578+28
 3430 0948 1C70     		strb	r4, [r3]
 736:main.c        ****          Ganancia=GananciaIn;
 3431              		.loc 1 736 0
 3432 094a 974B     		ldr	r3, .L578+32
 3433 094c 1A68     		ldr	r2, [r3]	@ float
 3434 094e 974B     		ldr	r3, .L578+36
 3435 0950 1A60     		str	r2, [r3]	@ float
 737:main.c        ****          if(flagGuardaEstado){
 3436              		.loc 1 737 0
 3437 0952 974B     		ldr	r3, .L578+40
 3438 0954 B3F90030 		ldrsh	r3, [r3]
 3439 0958 4BB1     		cbz	r3, .L225
 738:main.c        ****             EEPROM_WriteByte(0,495);CyDelay(20);
 3440              		.loc 1 738 0
 3441 095a 40F2EF11 		movw	r1, #495
 3442 095e 2046     		mov	r0, r4
 3443 0960 FFF7FEFF 		bl	EEPROM_WriteByte
 3444              	.LVL282:
 3445 0964 1420     		movs	r0, #20
 3446 0966 FFF7FEFF 		bl	CyDelay
 3447              	.LVL283:
 739:main.c        ****             flagGuardaEstado=OFF;
 3448              		.loc 1 739 0
 3449 096a 914B     		ldr	r3, .L578+40
 3450 096c 1C80     		strh	r4, [r3]	@ movhi
 3451              	.L225:
 740:main.c        ****          }
 741:main.c        ****          if(Opcion>5)
 3452              		.loc 1 741 0
 3453 096e 914B     		ldr	r3, .L578+44
 3454 0970 1B78     		ldrb	r3, [r3]	@ zero_extendqisi2
 3455 0972 052B     		cmp	r3, #5
 3456 0974 02D9     		bls	.L226
 742:main.c        ****          {Opcion=1;}
 3457              		.loc 1 742 0
 3458 0976 0122     		movs	r2, #1
 3459 0978 8E4B     		ldr	r3, .L578+44
 3460 097a 1A70     		strb	r2, [r3]
 3461              	.L226:
 743:main.c        ****          if(Opcion<1)
 3462              		.loc 1 743 0
 3463 097c 8D4B     		ldr	r3, .L578+44
 3464 097e 1B78     		ldrb	r3, [r3]	@ zero_extendqisi2
 3465 0980 13B9     		cbnz	r3, .L227
 744:main.c        ****          {Opcion=5;}
 3466              		.loc 1 744 0
 3467 0982 0522     		movs	r2, #5
 3468 0984 8B4B     		ldr	r3, .L578+44
 3469 0986 1A70     		strb	r2, [r3]
 3470              	.L227:
 745:main.c        ****          
ARM GAS  C:\Users\USUARIO\AppData\Local\Temp\cc8Cohj2.s 			page 78


 746:main.c        ****          strcpy(Menus.Letra,"Menu");
 3471              		.loc 1 746 0
 3472 0988 7F4C     		ldr	r4, .L578
 3473 098a 8B4B     		ldr	r3, .L578+48
 3474 098c 1868     		ldr	r0, [r3]	@ unaligned
 3475 098e 2060     		str	r0, [r4]	@ unaligned
 3476 0990 1B79     		ldrb	r3, [r3, #4]	@ zero_extendqisi2
 3477 0992 2371     		strb	r3, [r4, #4]
 747:main.c        ****          displayMenu(Menus.Letra,30,0,1,2);
 3478              		.loc 1 747 0
 3479 0994 0223     		movs	r3, #2
 3480 0996 0093     		str	r3, [sp]
 3481 0998 0123     		movs	r3, #1
 3482 099a 0022     		movs	r2, #0
 3483 099c 1E21     		movs	r1, #30
 3484 099e 2046     		mov	r0, r4
 3485 09a0 FFF7FEFF 		bl	displayMenu
 3486              	.LVL284:
 748:main.c        ****       
 749:main.c        ****          if(Opcion<=5){
 3487              		.loc 1 749 0
 3488 09a4 834B     		ldr	r3, .L578+44
 3489 09a6 1B78     		ldrb	r3, [r3]	@ zero_extendqisi2
 3490 09a8 052B     		cmp	r3, #5
 3491 09aa 00F2AA80 		bhi	.L228
 750:main.c        ****             if(Opcion==1)   
 3492              		.loc 1 750 0
 3493 09ae 012B     		cmp	r3, #1
 3494 09b0 10D1     		bne	.L229
 751:main.c        ****                 {strcpy(Menus.Letra,"Iniciar Programa");
 3495              		.loc 1 751 0
 3496 09b2 2546     		mov	r5, r4
 3497 09b4 814C     		ldr	r4, .L578+52
 3498 09b6 0FCC     		ldmia	r4!, {r0, r1, r2, r3}
 3499 09b8 2860     		str	r0, [r5]	@ unaligned
 3500 09ba 6960     		str	r1, [r5, #4]	@ unaligned
 3501 09bc AA60     		str	r2, [r5, #8]	@ unaligned
 3502 09be EB60     		str	r3, [r5, #12]	@ unaligned
 3503 09c0 2378     		ldrb	r3, [r4]	@ zero_extendqisi2
 3504 09c2 2B74     		strb	r3, [r5, #16]
 752:main.c        ****                 displayMenu(Menus.Letra,0,18,1,1);}
 3505              		.loc 1 752 0
 3506 09c4 0123     		movs	r3, #1
 3507 09c6 0093     		str	r3, [sp]
 3508 09c8 1222     		movs	r2, #18
 3509 09ca 0021     		movs	r1, #0
 3510 09cc 2846     		mov	r0, r5
 3511 09ce FFF7FEFF 		bl	displayMenu
 3512              	.LVL285:
 3513 09d2 10E0     		b	.L230
 3514              	.L229:
 753:main.c        ****             else
 754:main.c        ****                 {strcpy(Menus.Letra,"Iniciar Programa");
 3515              		.loc 1 754 0
 3516 09d4 6C4D     		ldr	r5, .L578
 3517 09d6 794C     		ldr	r4, .L578+52
 3518 09d8 0FCC     		ldmia	r4!, {r0, r1, r2, r3}
ARM GAS  C:\Users\USUARIO\AppData\Local\Temp\cc8Cohj2.s 			page 79


 3519 09da 2860     		str	r0, [r5]	@ unaligned
 3520 09dc 6960     		str	r1, [r5, #4]	@ unaligned
 3521 09de AA60     		str	r2, [r5, #8]	@ unaligned
 3522 09e0 EB60     		str	r3, [r5, #12]	@ unaligned
 3523 09e2 2378     		ldrb	r3, [r4]	@ zero_extendqisi2
 3524 09e4 2B74     		strb	r3, [r5, #16]
 755:main.c        ****                 displayMenu(Menus.Letra,0,18,0,1);}
 3525              		.loc 1 755 0
 3526 09e6 0123     		movs	r3, #1
 3527 09e8 0093     		str	r3, [sp]
 3528 09ea 0023     		movs	r3, #0
 3529 09ec 1222     		movs	r2, #18
 3530 09ee 1946     		mov	r1, r3
 3531 09f0 2846     		mov	r0, r5
 3532 09f2 FFF7FEFF 		bl	displayMenu
 3533              	.LVL286:
 3534              	.L230:
 756:main.c        ****              
 757:main.c        ****             if(Opcion==2)   
 3535              		.loc 1 757 0
 3536 09f6 6F4B     		ldr	r3, .L578+44
 3537 09f8 1B78     		ldrb	r3, [r3]	@ zero_extendqisi2
 3538 09fa 022B     		cmp	r3, #2
 3539 09fc 0ED1     		bne	.L231
 758:main.c        ****                 {strcpy(Menus.Letra,"Editar Programa");
 3540              		.loc 1 758 0
 3541 09fe 624D     		ldr	r5, .L578
 3542 0a00 6F4C     		ldr	r4, .L578+56
 3543 0a02 0FCC     		ldmia	r4!, {r0, r1, r2, r3}
 3544 0a04 2860     		str	r0, [r5]	@ unaligned
 3545 0a06 6960     		str	r1, [r5, #4]	@ unaligned
 3546 0a08 AA60     		str	r2, [r5, #8]	@ unaligned
 3547 0a0a EB60     		str	r3, [r5, #12]	@ unaligned
 759:main.c        ****                 displayMenu(Menus.Letra,0,27,1,1);}
 3548              		.loc 1 759 0
 3549 0a0c 0123     		movs	r3, #1
 3550 0a0e 0093     		str	r3, [sp]
 3551 0a10 1B22     		movs	r2, #27
 3552 0a12 0021     		movs	r1, #0
 3553 0a14 2846     		mov	r0, r5
 3554 0a16 FFF7FEFF 		bl	displayMenu
 3555              	.LVL287:
 3556 0a1a 0EE0     		b	.L232
 3557              	.L231:
 760:main.c        ****             else
 761:main.c        ****                 {strcpy(Menus.Letra,"Editar Programa");
 3558              		.loc 1 761 0
 3559 0a1c 5A4D     		ldr	r5, .L578
 3560 0a1e 684C     		ldr	r4, .L578+56
 3561 0a20 0FCC     		ldmia	r4!, {r0, r1, r2, r3}
 3562 0a22 2860     		str	r0, [r5]	@ unaligned
 3563 0a24 6960     		str	r1, [r5, #4]	@ unaligned
 3564 0a26 AA60     		str	r2, [r5, #8]	@ unaligned
 3565 0a28 EB60     		str	r3, [r5, #12]	@ unaligned
 762:main.c        ****                 displayMenu(Menus.Letra,0,27,0,1);}
 3566              		.loc 1 762 0
 3567 0a2a 0123     		movs	r3, #1
ARM GAS  C:\Users\USUARIO\AppData\Local\Temp\cc8Cohj2.s 			page 80


 3568 0a2c 0093     		str	r3, [sp]
 3569 0a2e 0023     		movs	r3, #0
 3570 0a30 1B22     		movs	r2, #27
 3571 0a32 1946     		mov	r1, r3
 3572 0a34 2846     		mov	r0, r5
 3573 0a36 FFF7FEFF 		bl	displayMenu
 3574              	.LVL288:
 3575              	.L232:
 763:main.c        ****                 
 764:main.c        ****              if(Opcion==3)   
 3576              		.loc 1 764 0
 3577 0a3a 5E4B     		ldr	r3, .L578+44
 3578 0a3c 1B78     		ldrb	r3, [r3]	@ zero_extendqisi2
 3579 0a3e 032B     		cmp	r3, #3
 3580 0a40 0ED1     		bne	.L233
 765:main.c        ****                 {strcpy(Menus.Letra,"Borrar Programa");
 3581              		.loc 1 765 0
 3582 0a42 514D     		ldr	r5, .L578
 3583 0a44 5F4C     		ldr	r4, .L578+60
 3584 0a46 0FCC     		ldmia	r4!, {r0, r1, r2, r3}
 3585 0a48 2860     		str	r0, [r5]	@ unaligned
 3586 0a4a 6960     		str	r1, [r5, #4]	@ unaligned
 3587 0a4c AA60     		str	r2, [r5, #8]	@ unaligned
 3588 0a4e EB60     		str	r3, [r5, #12]	@ unaligned
 766:main.c        ****                 displayMenu(Menus.Letra,0,36,1,1);}
 3589              		.loc 1 766 0
 3590 0a50 0123     		movs	r3, #1
 3591 0a52 0093     		str	r3, [sp]
 3592 0a54 2422     		movs	r2, #36
 3593 0a56 0021     		movs	r1, #0
 3594 0a58 2846     		mov	r0, r5
 3595 0a5a FFF7FEFF 		bl	displayMenu
 3596              	.LVL289:
 3597 0a5e 0EE0     		b	.L234
 3598              	.L233:
 767:main.c        ****             else
 768:main.c        ****                 {strcpy(Menus.Letra,"Borrar Programa");
 3599              		.loc 1 768 0
 3600 0a60 494D     		ldr	r5, .L578
 3601 0a62 584C     		ldr	r4, .L578+60
 3602 0a64 0FCC     		ldmia	r4!, {r0, r1, r2, r3}
 3603 0a66 2860     		str	r0, [r5]	@ unaligned
 3604 0a68 6960     		str	r1, [r5, #4]	@ unaligned
 3605 0a6a AA60     		str	r2, [r5, #8]	@ unaligned
 3606 0a6c EB60     		str	r3, [r5, #12]	@ unaligned
 769:main.c        ****                 displayMenu(Menus.Letra,0,36,0,1);}   
 3607              		.loc 1 769 0
 3608 0a6e 0123     		movs	r3, #1
 3609 0a70 0093     		str	r3, [sp]
 3610 0a72 0023     		movs	r3, #0
 3611 0a74 2422     		movs	r2, #36
 3612 0a76 1946     		mov	r1, r3
 3613 0a78 2846     		mov	r0, r5
 3614 0a7a FFF7FEFF 		bl	displayMenu
 3615              	.LVL290:
 3616              	.L234:
 770:main.c        ****                             
ARM GAS  C:\Users\USUARIO\AppData\Local\Temp\cc8Cohj2.s 			page 81


 771:main.c        ****              if(Opcion==4)   
 3617              		.loc 1 771 0
 3618 0a7e 4D4B     		ldr	r3, .L578+44
 3619 0a80 1B78     		ldrb	r3, [r3]	@ zero_extendqisi2
 3620 0a82 042B     		cmp	r3, #4
 3621 0a84 0CD1     		bne	.L235
 772:main.c        ****                 {strcpy(Menus.Letra,"Ajustes");
 3622              		.loc 1 772 0
 3623 0a86 404C     		ldr	r4, .L578
 3624 0a88 4F4B     		ldr	r3, .L578+64
 3625 0a8a 03CB     		ldmia	r3!, {r0, r1}
 3626 0a8c 2060     		str	r0, [r4]	@ unaligned
 3627 0a8e 6160     		str	r1, [r4, #4]	@ unaligned
 773:main.c        ****                 displayMenu(Menus.Letra,0,45,1,1);}
 3628              		.loc 1 773 0
 3629 0a90 0123     		movs	r3, #1
 3630 0a92 0093     		str	r3, [sp]
 3631 0a94 2D22     		movs	r2, #45
 3632 0a96 0021     		movs	r1, #0
 3633 0a98 2046     		mov	r0, r4
 3634 0a9a FFF7FEFF 		bl	displayMenu
 3635              	.LVL291:
 3636 0a9e 0CE0     		b	.L236
 3637              	.L235:
 774:main.c        ****             else
 775:main.c        ****                 {strcpy(Menus.Letra,"Ajustes");
 3638              		.loc 1 775 0
 3639 0aa0 394C     		ldr	r4, .L578
 3640 0aa2 494B     		ldr	r3, .L578+64
 3641 0aa4 03CB     		ldmia	r3!, {r0, r1}
 3642 0aa6 2060     		str	r0, [r4]	@ unaligned
 3643 0aa8 6160     		str	r1, [r4, #4]	@ unaligned
 776:main.c        ****                 displayMenu(Menus.Letra,0,45,0,1);}     
 3644              		.loc 1 776 0
 3645 0aaa 0123     		movs	r3, #1
 3646 0aac 0093     		str	r3, [sp]
 3647 0aae 0023     		movs	r3, #0
 3648 0ab0 2D22     		movs	r2, #45
 3649 0ab2 1946     		mov	r1, r3
 3650 0ab4 2046     		mov	r0, r4
 3651 0ab6 FFF7FEFF 		bl	displayMenu
 3652              	.LVL292:
 3653              	.L236:
 777:main.c        ****              
 778:main.c        ****             if(Opcion==5)   
 3654              		.loc 1 778 0
 3655 0aba 3E4B     		ldr	r3, .L578+44
 3656 0abc 1B78     		ldrb	r3, [r3]	@ zero_extendqisi2
 3657 0abe 052B     		cmp	r3, #5
 3658 0ac0 0FD1     		bne	.L237
 779:main.c        ****                 {strcpy(Menus.Letra,"Cambio Clave");
 3659              		.loc 1 779 0
 3660 0ac2 314C     		ldr	r4, .L578
 3661 0ac4 414B     		ldr	r3, .L578+68
 3662 0ac6 07CB     		ldmia	r3!, {r0, r1, r2}
 3663 0ac8 2060     		str	r0, [r4]	@ unaligned
 3664 0aca 6160     		str	r1, [r4, #4]	@ unaligned
ARM GAS  C:\Users\USUARIO\AppData\Local\Temp\cc8Cohj2.s 			page 82


 3665 0acc A260     		str	r2, [r4, #8]	@ unaligned
 3666 0ace 1B78     		ldrb	r3, [r3]	@ zero_extendqisi2
 3667 0ad0 2373     		strb	r3, [r4, #12]
 780:main.c        ****                 displayMenu(Menus.Letra,0,54,1,1);}
 3668              		.loc 1 780 0
 3669 0ad2 0123     		movs	r3, #1
 3670 0ad4 0093     		str	r3, [sp]
 3671 0ad6 3622     		movs	r2, #54
 3672 0ad8 0021     		movs	r1, #0
 3673 0ada 2046     		mov	r0, r4
 3674 0adc FFF7FEFF 		bl	displayMenu
 3675              	.LVL293:
 3676 0ae0 0FE0     		b	.L228
 3677              	.L237:
 781:main.c        ****             else
 782:main.c        ****                 {strcpy(Menus.Letra,"Cambio Clave");
 3678              		.loc 1 782 0
 3679 0ae2 294C     		ldr	r4, .L578
 3680 0ae4 394B     		ldr	r3, .L578+68
 3681 0ae6 07CB     		ldmia	r3!, {r0, r1, r2}
 3682 0ae8 2060     		str	r0, [r4]	@ unaligned
 3683 0aea 6160     		str	r1, [r4, #4]	@ unaligned
 3684 0aec A260     		str	r2, [r4, #8]	@ unaligned
 3685 0aee 1B78     		ldrb	r3, [r3]	@ zero_extendqisi2
 3686 0af0 2373     		strb	r3, [r4, #12]
 783:main.c        ****                 displayMenu(Menus.Letra,0,54,0,1);}     
 3687              		.loc 1 783 0
 3688 0af2 0123     		movs	r3, #1
 3689 0af4 0093     		str	r3, [sp]
 3690 0af6 0023     		movs	r3, #0
 3691 0af8 3622     		movs	r2, #54
 3692 0afa 1946     		mov	r1, r3
 3693 0afc 2046     		mov	r0, r4
 3694 0afe FFF7FEFF 		bl	displayMenu
 3695              	.LVL294:
 3696              	.L228:
 784:main.c        ****          }
 785:main.c        ****          
 786:main.c        ****          if(tup>30)//Si oprime hacia arriba
 3697              		.loc 1 786 0
 3698 0b02 334B     		ldr	r3, .L578+72
 3699 0b04 1B88     		ldrh	r3, [r3]
 3700 0b06 1E2B     		cmp	r3, #30
 3701 0b08 0CD9     		bls	.L238
 787:main.c        ****          {
 788:main.c        ****             BUZZER_Write(1);CyDelay(30);Opcion--;BUZZER_Write(0);
 3702              		.loc 1 788 0
 3703 0b0a 0120     		movs	r0, #1
 3704 0b0c FFF7FEFF 		bl	BUZZER_Write
 3705              	.LVL295:
 3706 0b10 1E20     		movs	r0, #30
 3707 0b12 FFF7FEFF 		bl	CyDelay
 3708              	.LVL296:
 3709 0b16 274A     		ldr	r2, .L578+44
 3710 0b18 1378     		ldrb	r3, [r2]	@ zero_extendqisi2
 3711 0b1a 013B     		subs	r3, r3, #1
 3712 0b1c 1370     		strb	r3, [r2]
ARM GAS  C:\Users\USUARIO\AppData\Local\Temp\cc8Cohj2.s 			page 83


 3713 0b1e 0020     		movs	r0, #0
 3714 0b20 FFF7FEFF 		bl	BUZZER_Write
 3715              	.LVL297:
 3716              	.L238:
 789:main.c        ****          }
 790:main.c        ****                   
 791:main.c        ****          if(tdown>30)//Si oprime hacia abajo
 3717              		.loc 1 791 0
 3718 0b24 2B4B     		ldr	r3, .L578+76
 3719 0b26 1B88     		ldrh	r3, [r3]
 3720 0b28 1E2B     		cmp	r3, #30
 3721 0b2a 0CD9     		bls	.L239
 792:main.c        ****          {
 793:main.c        ****             BUZZER_Write(1);CyDelay(30);Opcion++; BUZZER_Write(0);
 3722              		.loc 1 793 0
 3723 0b2c 0120     		movs	r0, #1
 3724 0b2e FFF7FEFF 		bl	BUZZER_Write
 3725              	.LVL298:
 3726 0b32 1E20     		movs	r0, #30
 3727 0b34 FFF7FEFF 		bl	CyDelay
 3728              	.LVL299:
 3729 0b38 1E4A     		ldr	r2, .L578+44
 3730 0b3a 1378     		ldrb	r3, [r2]	@ zero_extendqisi2
 3731 0b3c 0133     		adds	r3, r3, #1
 3732 0b3e 1370     		strb	r3, [r2]
 3733 0b40 0020     		movs	r0, #0
 3734 0b42 FFF7FEFF 		bl	BUZZER_Write
 3735              	.LVL300:
 3736              	.L239:
 794:main.c        ****          }
 795:main.c        ****                
 796:main.c        ****          if(tright>30)//Si oprime SET
 3737              		.loc 1 796 0
 3738 0b46 244B     		ldr	r3, .L578+80
 3739 0b48 1B88     		ldrh	r3, [r3]
 3740 0b4a 1E2B     		cmp	r3, #30
 3741 0b4c 68D9     		bls	.L224
 797:main.c        ****          { 
 798:main.c        ****             BUZZER_Write(1);CyDelay(50);Menu=Opcion+3;Opcion=1;glcd_fillScreen(OFF);BUZZER_Write(0)
 3742              		.loc 1 798 0
 3743 0b4e 0120     		movs	r0, #1
 3744 0b50 FFF7FEFF 		bl	BUZZER_Write
 3745              	.LVL301:
 3746 0b54 3220     		movs	r0, #50
 3747 0b56 FFF7FEFF 		bl	CyDelay
 3748              	.LVL302:
 3749 0b5a 0E4C     		ldr	r4, .L578+12
 3750 0b5c 154A     		ldr	r2, .L578+44
 3751 0b5e 1378     		ldrb	r3, [r2]	@ zero_extendqisi2
 3752 0b60 0333     		adds	r3, r3, #3
 3753 0b62 2370     		strb	r3, [r4]
 3754 0b64 0123     		movs	r3, #1
 3755 0b66 1370     		strb	r3, [r2]
 3756 0b68 0020     		movs	r0, #0
 3757 0b6a FFF7FEFF 		bl	glcd_fillScreen
 3758              	.LVL303:
 3759 0b6e 0020     		movs	r0, #0
ARM GAS  C:\Users\USUARIO\AppData\Local\Temp\cc8Cohj2.s 			page 84


 3760 0b70 FFF7FEFF 		bl	BUZZER_Write
 3761              	.LVL304:
 799:main.c        ****             if(Menu==7){
 3762              		.loc 1 799 0
 3763 0b74 2378     		ldrb	r3, [r4]	@ zero_extendqisi2
 3764 0b76 072B     		cmp	r3, #7
 3765 0b78 52D1     		bne	.L224
 800:main.c        ****                //Menu=100;
 801:main.c        ****             CyDelay(100);
 3766              		.loc 1 801 0
 3767 0b7a 6420     		movs	r0, #100
 3768 0b7c FFF7FEFF 		bl	CyDelay
 3769              	.LVL305:
 802:main.c        ****             glcd_fillScreen(OFF);
 3770              		.loc 1 802 0
 3771 0b80 0020     		movs	r0, #0
 3772 0b82 FFF7FEFF 		bl	glcd_fillScreen
 3773              	.LVL306:
 803:main.c        ****             while(!PidePassword(1,1,100,4,4,4,4)){
 3774              		.loc 1 803 0
 3775 0b86 34E0     		b	.L240
 3776              	.L579:
 3777              		.align	2
 3778              	.L578:
 3779 0b88 00000000 		.word	Menus
 3780 0b8c 44000000 		.word	.LC5
 3781 0b90 58000000 		.word	.LC7
 3782 0b94 00000000 		.word	Menu
 3783 0b98 00000000 		.word	unidad
 3784 0b9c 00000000 		.word	.LANCHOR0
 3785 0ba0 00000000 		.word	Control
 3786 0ba4 00000000 		.word	Segmento
 3787 0ba8 00000000 		.word	GananciaIn
 3788 0bac 00000000 		.word	Ganancia
 3789 0bb0 00000000 		.word	flagGuardaEstado
 3790 0bb4 00000000 		.word	Opcion
 3791 0bb8 64000000 		.word	.LC8
 3792 0bbc 6C000000 		.word	.LC9
 3793 0bc0 80000000 		.word	.LC10
 3794 0bc4 90000000 		.word	.LC11
 3795 0bc8 A0000000 		.word	.LC12
 3796 0bcc A8000000 		.word	.LC13
 3797 0bd0 00000000 		.word	tup
 3798 0bd4 00000000 		.word	tdown
 3799 0bd8 00000000 		.word	tright
 3800              	.L241:
 804:main.c        ****                PidePassword(1,1,100,4,4,4,4);glcd_update();
 3801              		.loc 1 804 0
 3802 0bdc 0423     		movs	r3, #4
 3803 0bde 0293     		str	r3, [sp, #8]
 3804 0be0 0193     		str	r3, [sp, #4]
 3805 0be2 0093     		str	r3, [sp]
 3806 0be4 6422     		movs	r2, #100
 3807 0be6 0121     		movs	r1, #1
 3808 0be8 0846     		mov	r0, r1
 3809 0bea FFF7FEFF 		bl	PidePassword
 3810              	.LVL307:
ARM GAS  C:\Users\USUARIO\AppData\Local\Temp\cc8Cohj2.s 			page 85


 3811 0bee FFF7FEFF 		bl	glcd_update
 3812              	.LVL308:
 3813              	.L240:
 803:main.c        ****             while(!PidePassword(1,1,100,4,4,4,4)){
 3814              		.loc 1 803 0
 3815 0bf2 0423     		movs	r3, #4
 3816 0bf4 0293     		str	r3, [sp, #8]
 3817 0bf6 0193     		str	r3, [sp, #4]
 3818 0bf8 0093     		str	r3, [sp]
 3819 0bfa 6422     		movs	r2, #100
 3820 0bfc 0121     		movs	r1, #1
 3821 0bfe 0846     		mov	r0, r1
 3822 0c00 FFF7FEFF 		bl	PidePassword
 3823              	.LVL309:
 3824 0c04 0028     		cmp	r0, #0
 3825 0c06 E9D0     		beq	.L241
 805:main.c        ****             }            
 806:main.c        ****             glcd_fillScreen(OFF);Opcion=1;unidad=1;
 3826              		.loc 1 806 0
 3827 0c08 0020     		movs	r0, #0
 3828 0c0a FFF7FEFF 		bl	glcd_fillScreen
 3829              	.LVL310:
 3830 0c0e 0123     		movs	r3, #1
 3831 0c10 704A     		ldr	r2, .L580
 3832 0c12 1370     		strb	r3, [r2]
 3833 0c14 704A     		ldr	r2, .L580+4
 3834 0c16 1370     		strb	r3, [r2]
 807:main.c        ****             CyDelay(500);
 3835              		.loc 1 807 0
 3836 0c18 4FF4FA70 		mov	r0, #500
 3837 0c1c FFF7FEFF 		bl	CyDelay
 3838              	.LVL311:
 3839              	.L224:
 808:main.c        ****       
 809:main.c        ****             }
 810:main.c        ****          }
 811:main.c        ****    }
 812:main.c        **** //_------------------------------------------------------------------------------------------------
 813:main.c        **** 
 814:main.c        **** //_------------------------------------------------------------------------------------------------
 815:main.c        ****       if(Menu==4){ //Menu de Continuar
 3840              		.loc 1 815 0
 3841 0c20 6E4B     		ldr	r3, .L580+8
 3842 0c22 1B78     		ldrb	r3, [r3]	@ zero_extendqisi2
 3843 0c24 042B     		cmp	r3, #4
 3844 0c26 40F0F581 		bne	.L242
 816:main.c        ****       
 817:main.c        ****       if(Opcion>5)
 3845              		.loc 1 817 0
 3846 0c2a 6A4B     		ldr	r3, .L580
 3847 0c2c 1B78     		ldrb	r3, [r3]	@ zero_extendqisi2
 3848 0c2e 052B     		cmp	r3, #5
 3849 0c30 02D9     		bls	.L243
 818:main.c        ****          Opcion=1;
 3850              		.loc 1 818 0
 3851 0c32 0122     		movs	r2, #1
 3852 0c34 674B     		ldr	r3, .L580
ARM GAS  C:\Users\USUARIO\AppData\Local\Temp\cc8Cohj2.s 			page 86


 3853 0c36 1A70     		strb	r2, [r3]
 3854              	.L243:
 819:main.c        ****          
 820:main.c        ****       if(Opcion<1)
 3855              		.loc 1 820 0
 3856 0c38 664B     		ldr	r3, .L580
 3857 0c3a 1B78     		ldrb	r3, [r3]	@ zero_extendqisi2
 3858 0c3c 13B9     		cbnz	r3, .L244
 821:main.c        ****          Opcion=5;
 3859              		.loc 1 821 0
 3860 0c3e 0522     		movs	r2, #5
 3861 0c40 644B     		ldr	r3, .L580
 3862 0c42 1A70     		strb	r2, [r3]
 3863              	.L244:
 822:main.c        ****       
 823:main.c        ****          strcpy(Menus.Letra,"Seleccione");
 3864              		.loc 1 823 0
 3865 0c44 664C     		ldr	r4, .L580+12
 3866 0c46 674B     		ldr	r3, .L580+16
 3867 0c48 03CB     		ldmia	r3!, {r0, r1}
 3868 0c4a 2060     		str	r0, [r4]	@ unaligned
 3869 0c4c 6160     		str	r1, [r4, #4]	@ unaligned
 3870 0c4e 1A88     		ldrh	r2, [r3]	@ unaligned
 3871 0c50 9B78     		ldrb	r3, [r3, #2]	@ zero_extendqisi2
 3872 0c52 2281     		strh	r2, [r4, #8]	@ unaligned
 3873 0c54 A372     		strb	r3, [r4, #10]
 824:main.c        ****          displayMenu(Menus.Letra,0,0,1,2);
 3874              		.loc 1 824 0
 3875 0c56 0225     		movs	r5, #2
 3876 0c58 0095     		str	r5, [sp]
 3877 0c5a 0123     		movs	r3, #1
 3878 0c5c 0022     		movs	r2, #0
 3879 0c5e 1146     		mov	r1, r2
 3880 0c60 2046     		mov	r0, r4
 3881 0c62 FFF7FEFF 		bl	displayMenu
 3882              	.LVL312:
 825:main.c        ****          
 826:main.c        ****          strcpy(Menus.Letra," Programa");
 3883              		.loc 1 826 0
 3884 0c66 604B     		ldr	r3, .L580+20
 3885 0c68 03CB     		ldmia	r3!, {r0, r1}
 3886 0c6a 2060     		str	r0, [r4]	@ unaligned
 3887 0c6c 6160     		str	r1, [r4, #4]	@ unaligned
 3888 0c6e 1B88     		ldrh	r3, [r3]	@ unaligned
 3889 0c70 2381     		strh	r3, [r4, #8]	@ unaligned
 827:main.c        ****          displayMenu(Menus.Letra,0,16,1,2);
 3890              		.loc 1 827 0
 3891 0c72 0095     		str	r5, [sp]
 3892 0c74 0123     		movs	r3, #1
 3893 0c76 1022     		movs	r2, #16
 3894 0c78 0021     		movs	r1, #0
 3895 0c7a 2046     		mov	r0, r4
 3896 0c7c FFF7FEFF 		bl	displayMenu
 3897              	.LVL313:
 828:main.c        ****           
 829:main.c        ****          
 830:main.c        ****          if(Opcion==1)
ARM GAS  C:\Users\USUARIO\AppData\Local\Temp\cc8Cohj2.s 			page 87


 3898              		.loc 1 830 0
 3899 0c80 544B     		ldr	r3, .L580
 3900 0c82 1B78     		ldrb	r3, [r3]	@ zero_extendqisi2
 3901 0c84 012B     		cmp	r3, #1
 3902 0c86 0BD1     		bne	.L245
 831:main.c        ****          {
 832:main.c        ****             strcpy(Menus.Letra,"Programa 01");
 3903              		.loc 1 832 0
 3904 0c88 584B     		ldr	r3, .L580+24
 3905 0c8a 07CB     		ldmia	r3!, {r0, r1, r2}
 3906 0c8c 2060     		str	r0, [r4]	@ unaligned
 3907 0c8e 6160     		str	r1, [r4, #4]	@ unaligned
 3908 0c90 A260     		str	r2, [r4, #8]	@ unaligned
 833:main.c        ****             displayMenu(Menus.Letra,0,38,0,2);
 3909              		.loc 1 833 0
 3910 0c92 0095     		str	r5, [sp]
 3911 0c94 0023     		movs	r3, #0
 3912 0c96 2622     		movs	r2, #38
 3913 0c98 1946     		mov	r1, r3
 3914 0c9a 2046     		mov	r0, r4
 3915 0c9c FFF7FEFF 		bl	displayMenu
 3916              	.LVL314:
 3917              	.L245:
 834:main.c        ****          }
 835:main.c        ****          
 836:main.c        ****          if(Opcion==2)
 3918              		.loc 1 836 0
 3919 0ca0 4C4B     		ldr	r3, .L580
 3920 0ca2 1B78     		ldrb	r3, [r3]	@ zero_extendqisi2
 3921 0ca4 022B     		cmp	r3, #2
 3922 0ca6 0DD1     		bne	.L246
 837:main.c        ****          {
 838:main.c        ****             strcpy(Menus.Letra,"Programa 02");
 3923              		.loc 1 838 0
 3924 0ca8 4D4C     		ldr	r4, .L580+12
 3925 0caa 514B     		ldr	r3, .L580+28
 3926 0cac 07CB     		ldmia	r3!, {r0, r1, r2}
 3927 0cae 2060     		str	r0, [r4]	@ unaligned
 3928 0cb0 6160     		str	r1, [r4, #4]	@ unaligned
 3929 0cb2 A260     		str	r2, [r4, #8]	@ unaligned
 839:main.c        ****             displayMenu(Menus.Letra,0,38,0,2);
 3930              		.loc 1 839 0
 3931 0cb4 0223     		movs	r3, #2
 3932 0cb6 0093     		str	r3, [sp]
 3933 0cb8 0023     		movs	r3, #0
 3934 0cba 2622     		movs	r2, #38
 3935 0cbc 1946     		mov	r1, r3
 3936 0cbe 2046     		mov	r0, r4
 3937 0cc0 FFF7FEFF 		bl	displayMenu
 3938              	.LVL315:
 3939              	.L246:
 840:main.c        ****          }
 841:main.c        ****          
 842:main.c        ****          if(Opcion==3)
 3940              		.loc 1 842 0
 3941 0cc4 434B     		ldr	r3, .L580
 3942 0cc6 1B78     		ldrb	r3, [r3]	@ zero_extendqisi2
ARM GAS  C:\Users\USUARIO\AppData\Local\Temp\cc8Cohj2.s 			page 88


 3943 0cc8 032B     		cmp	r3, #3
 3944 0cca 0DD1     		bne	.L247
 843:main.c        ****          {
 844:main.c        ****             strcpy(Menus.Letra,"Programa 03");
 3945              		.loc 1 844 0
 3946 0ccc 444C     		ldr	r4, .L580+12
 3947 0cce 494B     		ldr	r3, .L580+32
 3948 0cd0 07CB     		ldmia	r3!, {r0, r1, r2}
 3949 0cd2 2060     		str	r0, [r4]	@ unaligned
 3950 0cd4 6160     		str	r1, [r4, #4]	@ unaligned
 3951 0cd6 A260     		str	r2, [r4, #8]	@ unaligned
 845:main.c        ****             displayMenu(Menus.Letra,0,38,0,2);
 3952              		.loc 1 845 0
 3953 0cd8 0223     		movs	r3, #2
 3954 0cda 0093     		str	r3, [sp]
 3955 0cdc 0023     		movs	r3, #0
 3956 0cde 2622     		movs	r2, #38
 3957 0ce0 1946     		mov	r1, r3
 3958 0ce2 2046     		mov	r0, r4
 3959 0ce4 FFF7FEFF 		bl	displayMenu
 3960              	.LVL316:
 3961              	.L247:
 846:main.c        ****          }
 847:main.c        ****          
 848:main.c        ****          if(Opcion==4)
 3962              		.loc 1 848 0
 3963 0ce8 3A4B     		ldr	r3, .L580
 3964 0cea 1B78     		ldrb	r3, [r3]	@ zero_extendqisi2
 3965 0cec 042B     		cmp	r3, #4
 3966 0cee 0DD1     		bne	.L248
 849:main.c        ****          {
 850:main.c        ****             strcpy(Menus.Letra,"Programa 04");
 3967              		.loc 1 850 0
 3968 0cf0 3B4C     		ldr	r4, .L580+12
 3969 0cf2 414B     		ldr	r3, .L580+36
 3970 0cf4 07CB     		ldmia	r3!, {r0, r1, r2}
 3971 0cf6 2060     		str	r0, [r4]	@ unaligned
 3972 0cf8 6160     		str	r1, [r4, #4]	@ unaligned
 3973 0cfa A260     		str	r2, [r4, #8]	@ unaligned
 851:main.c        ****             displayMenu(Menus.Letra,0,38,0,2);
 3974              		.loc 1 851 0
 3975 0cfc 0223     		movs	r3, #2
 3976 0cfe 0093     		str	r3, [sp]
 3977 0d00 0023     		movs	r3, #0
 3978 0d02 2622     		movs	r2, #38
 3979 0d04 1946     		mov	r1, r3
 3980 0d06 2046     		mov	r0, r4
 3981 0d08 FFF7FEFF 		bl	displayMenu
 3982              	.LVL317:
 3983              	.L248:
 852:main.c        ****          }
 853:main.c        ****          
 854:main.c        ****          if(Opcion==5)
 3984              		.loc 1 854 0
 3985 0d0c 314B     		ldr	r3, .L580
 3986 0d0e 1B78     		ldrb	r3, [r3]	@ zero_extendqisi2
 3987 0d10 052B     		cmp	r3, #5
ARM GAS  C:\Users\USUARIO\AppData\Local\Temp\cc8Cohj2.s 			page 89


 3988 0d12 0DD1     		bne	.L249
 855:main.c        ****          {
 856:main.c        ****             strcpy(Menus.Letra,"Programa 05");
 3989              		.loc 1 856 0
 3990 0d14 324C     		ldr	r4, .L580+12
 3991 0d16 394B     		ldr	r3, .L580+40
 3992 0d18 07CB     		ldmia	r3!, {r0, r1, r2}
 3993 0d1a 2060     		str	r0, [r4]	@ unaligned
 3994 0d1c 6160     		str	r1, [r4, #4]	@ unaligned
 3995 0d1e A260     		str	r2, [r4, #8]	@ unaligned
 857:main.c        ****             displayMenu(Menus.Letra,0,38,0,2);
 3996              		.loc 1 857 0
 3997 0d20 0223     		movs	r3, #2
 3998 0d22 0093     		str	r3, [sp]
 3999 0d24 0023     		movs	r3, #0
 4000 0d26 2622     		movs	r2, #38
 4001 0d28 1946     		mov	r1, r3
 4002 0d2a 2046     		mov	r0, r4
 4003 0d2c FFF7FEFF 		bl	displayMenu
 4004              	.LVL318:
 4005              	.L249:
 858:main.c        ****          }
 859:main.c        ****          
 860:main.c        ****         
 861:main.c        ****       if(tup>30)//Si oprime hacia arriba
 4006              		.loc 1 861 0
 4007 0d30 334B     		ldr	r3, .L580+44
 4008 0d32 1B88     		ldrh	r3, [r3]
 4009 0d34 1E2B     		cmp	r3, #30
 4010 0d36 16D9     		bls	.L250
 862:main.c        ****       {
 863:main.c        ****          BUZZER_Write(1);CyDelay(30);Opcion++;BUZZER_Write(0);
 4011              		.loc 1 863 0
 4012 0d38 0120     		movs	r0, #1
 4013 0d3a FFF7FEFF 		bl	BUZZER_Write
 4014              	.LVL319:
 4015 0d3e 1E20     		movs	r0, #30
 4016 0d40 FFF7FEFF 		bl	CyDelay
 4017              	.LVL320:
 4018 0d44 234A     		ldr	r2, .L580
 4019 0d46 1378     		ldrb	r3, [r2]	@ zero_extendqisi2
 4020 0d48 0133     		adds	r3, r3, #1
 4021 0d4a 1370     		strb	r3, [r2]
 4022 0d4c 0020     		movs	r0, #0
 4023 0d4e FFF7FEFF 		bl	BUZZER_Write
 4024              	.LVL321:
 864:main.c        ****          glcd_rect(40, 35, 85, 60, YES, OFF);
 4025              		.loc 1 864 0
 4026 0d52 0023     		movs	r3, #0
 4027 0d54 0193     		str	r3, [sp, #4]
 4028 0d56 0123     		movs	r3, #1
 4029 0d58 0093     		str	r3, [sp]
 4030 0d5a 3C23     		movs	r3, #60
 4031 0d5c 5522     		movs	r2, #85
 4032 0d5e 2321     		movs	r1, #35
 4033 0d60 2820     		movs	r0, #40
 4034 0d62 FFF7FEFF 		bl	glcd_rect
ARM GAS  C:\Users\USUARIO\AppData\Local\Temp\cc8Cohj2.s 			page 90


 4035              	.LVL322:
 4036              	.L250:
 865:main.c        ****       }
 866:main.c        ****             
 867:main.c        ****       if(tdown>30)//Si oprime hacia abajo
 4037              		.loc 1 867 0
 4038 0d66 274B     		ldr	r3, .L580+48
 4039 0d68 1B88     		ldrh	r3, [r3]
 4040 0d6a 1E2B     		cmp	r3, #30
 4041 0d6c 16D9     		bls	.L251
 868:main.c        ****       {  
 869:main.c        ****          BUZZER_Write(1);CyDelay(30);Opcion--;BUZZER_Write(0);
 4042              		.loc 1 869 0
 4043 0d6e 0120     		movs	r0, #1
 4044 0d70 FFF7FEFF 		bl	BUZZER_Write
 4045              	.LVL323:
 4046 0d74 1E20     		movs	r0, #30
 4047 0d76 FFF7FEFF 		bl	CyDelay
 4048              	.LVL324:
 4049 0d7a 164A     		ldr	r2, .L580
 4050 0d7c 1378     		ldrb	r3, [r2]	@ zero_extendqisi2
 4051 0d7e 013B     		subs	r3, r3, #1
 4052 0d80 1370     		strb	r3, [r2]
 4053 0d82 0020     		movs	r0, #0
 4054 0d84 FFF7FEFF 		bl	BUZZER_Write
 4055              	.LVL325:
 870:main.c        ****          glcd_rect(40, 35, 85, 60, YES, OFF);
 4056              		.loc 1 870 0
 4057 0d88 0023     		movs	r3, #0
 4058 0d8a 0193     		str	r3, [sp, #4]
 4059 0d8c 0123     		movs	r3, #1
 4060 0d8e 0093     		str	r3, [sp]
 4061 0d90 3C23     		movs	r3, #60
 4062 0d92 5522     		movs	r2, #85
 4063 0d94 2321     		movs	r1, #35
 4064 0d96 2820     		movs	r0, #40
 4065 0d98 FFF7FEFF 		bl	glcd_rect
 4066              	.LVL326:
 4067              	.L251:
 871:main.c        ****       }
 872:main.c        ****             
 873:main.c        ****       if(tright>30)//Si oprime SET
 4068              		.loc 1 873 0
 4069 0d9c 1A4B     		ldr	r3, .L580+52
 4070 0d9e 1B88     		ldrh	r3, [r3]
 4071 0da0 1E2B     		cmp	r3, #30
 4072 0da2 40F21F81 		bls	.L252
 874:main.c        ****       {  
 875:main.c        ****          Menu=20;glcd_fillScreen(OFF);
 4073              		.loc 1 875 0
 4074 0da6 1422     		movs	r2, #20
 4075 0da8 0C4B     		ldr	r3, .L580+8
 4076 0daa 1A70     		strb	r2, [r3]
 4077 0dac 0020     		movs	r0, #0
 4078 0dae FFF7FEFF 		bl	glcd_fillScreen
 4079              	.LVL327:
 876:main.c        ****          for(i=0;i<Pasos;i++){
ARM GAS  C:\Users\USUARIO\AppData\Local\Temp\cc8Cohj2.s 			page 91


 4080              		.loc 1 876 0
 4081 0db2 0022     		movs	r2, #0
 4082 0db4 154B     		ldr	r3, .L580+56
 4083 0db6 1A70     		strb	r2, [r3]
 4084 0db8 34E0     		b	.L253
 4085              	.L256:
 877:main.c        ****             if(Temperatura1[i+((Opcion-1)*Pasos)]==0){
 4086              		.loc 1 877 0
 4087 0dba 064A     		ldr	r2, .L580
 4088 0dbc 1278     		ldrb	r2, [r2]	@ zero_extendqisi2
 4089 0dbe 013A     		subs	r2, r2, #1
 4090 0dc0 03EB0212 		add	r2, r3, r2, lsl #4
 4091 0dc4 1249     		ldr	r1, .L580+60
 4092 0dc6 31F91220 		ldrsh	r2, [r1, r2, lsl #1]
 4093 0dca 2ABB     		cbnz	r2, .L254
 878:main.c        ****                Segmentos=i;
 4094              		.loc 1 878 0
 4095 0dcc 114A     		ldr	r2, .L580+64
 4096 0dce 1370     		strb	r3, [r2]
 879:main.c        ****                break;
 4097              		.loc 1 879 0
 4098 0dd0 2CE0     		b	.L255
 4099              	.L581:
 4100 0dd2 00BF     		.align	2
 4101              	.L580:
 4102 0dd4 00000000 		.word	Opcion
 4103 0dd8 00000000 		.word	unidad
 4104 0ddc 00000000 		.word	Menu
 4105 0de0 00000000 		.word	Menus
 4106 0de4 B8000000 		.word	.LC14
 4107 0de8 C4000000 		.word	.LC15
 4108 0dec D0000000 		.word	.LC16
 4109 0df0 DC000000 		.word	.LC17
 4110 0df4 E8000000 		.word	.LC18
 4111 0df8 F4000000 		.word	.LC19
 4112 0dfc 00010000 		.word	.LC20
 4113 0e00 00000000 		.word	tup
 4114 0e04 00000000 		.word	tdown
 4115 0e08 00000000 		.word	tright
 4116 0e0c 00000000 		.word	i
 4117 0e10 00000000 		.word	Temperatura1
 4118 0e14 00000000 		.word	Segmentos
 4119              	.L254:
 880:main.c        ****             }
 881:main.c        ****             else{
 882:main.c        ****                Segmentos=Pasos-1;
 4120              		.loc 1 882 0 discriminator 2
 4121 0e18 0F21     		movs	r1, #15
 4122 0e1a B84A     		ldr	r2, .L582
 4123 0e1c 1170     		strb	r1, [r2]
 876:main.c        ****             if(Temperatura1[i+((Opcion-1)*Pasos)]==0){
 4124              		.loc 1 876 0 discriminator 2
 4125 0e1e 0133     		adds	r3, r3, #1
 4126 0e20 B74A     		ldr	r2, .L582+4
 4127 0e22 1370     		strb	r3, [r2]
 4128              	.L253:
 876:main.c        ****             if(Temperatura1[i+((Opcion-1)*Pasos)]==0){
ARM GAS  C:\Users\USUARIO\AppData\Local\Temp\cc8Cohj2.s 			page 92


 4129              		.loc 1 876 0 is_stmt 0 discriminator 1
 4130 0e24 B64B     		ldr	r3, .L582+4
 4131 0e26 1B78     		ldrb	r3, [r3]	@ zero_extendqisi2
 4132 0e28 0F2B     		cmp	r3, #15
 4133 0e2a C6D9     		bls	.L256
 4134              	.L255:
 883:main.c        ****             }
 884:main.c        ****             //Horas1[i+((Opcion-1)*10)]=0;
 885:main.c        ****             //Minutos1[i+((Opcion-1)*10)]=0;
 886:main.c        ****          }
 887:main.c        ****          if(Segmentos>0){
 4135              		.loc 1 887 0 is_stmt 1
 4136 0e2c B34B     		ldr	r3, .L582
 4137 0e2e 1B78     		ldrb	r3, [r3]	@ zero_extendqisi2
 4138 0e30 002B     		cmp	r3, #0
 4139 0e32 00F0A280 		beq	.L257
 888:main.c        ****             ProgramaSeleccionado=Opcion-1;
 4140              		.loc 1 888 0
 4141 0e36 B34E     		ldr	r6, .L582+8
 4142 0e38 B34F     		ldr	r7, .L582+12
 4143 0e3a 3B78     		ldrb	r3, [r7]	@ zero_extendqisi2
 4144 0e3c 013B     		subs	r3, r3, #1
 4145 0e3e 3370     		strb	r3, [r6]
 889:main.c        ****             glcd_fillScreen(OFF);
 4146              		.loc 1 889 0
 4147 0e40 0020     		movs	r0, #0
 4148 0e42 FFF7FEFF 		bl	glcd_fillScreen
 4149              	.LVL328:
 890:main.c        ****             EEPROM_WriteByte(ProgramaSeleccionado,496);CyDelay(20);
 4150              		.loc 1 890 0
 4151 0e46 4FF4F871 		mov	r1, #496
 4152 0e4a 3078     		ldrb	r0, [r6]	@ zero_extendqisi2
 4153 0e4c FFF7FEFF 		bl	EEPROM_WriteByte
 4154              	.LVL329:
 4155 0e50 1420     		movs	r0, #20
 4156 0e52 FFF7FEFF 		bl	CyDelay
 4157              	.LVL330:
 891:main.c        ****             EEPROM_WriteByte(Segmento,497);CyDelay(20);
 4158              		.loc 1 891 0
 4159 0e56 AD4D     		ldr	r5, .L582+16
 4160 0e58 40F2F111 		movw	r1, #497
 4161 0e5c 2878     		ldrb	r0, [r5]	@ zero_extendqisi2
 4162 0e5e FFF7FEFF 		bl	EEPROM_WriteByte
 4163              	.LVL331:
 4164 0e62 1420     		movs	r0, #20
 4165 0e64 FFF7FEFF 		bl	CyDelay
 4166              	.LVL332:
 892:main.c        ****             strcpy(Menus.Letra," Segmentos");
 4167              		.loc 1 892 0
 4168 0e68 A94C     		ldr	r4, .L582+20
 4169 0e6a AA4B     		ldr	r3, .L582+24
 4170 0e6c 03CB     		ldmia	r3!, {r0, r1}
 4171 0e6e 2060     		str	r0, [r4]	@ unaligned
 4172 0e70 6160     		str	r1, [r4, #4]	@ unaligned
 4173 0e72 1A88     		ldrh	r2, [r3]	@ unaligned
 4174 0e74 9B78     		ldrb	r3, [r3, #2]	@ zero_extendqisi2
 4175 0e76 2281     		strh	r2, [r4, #8]	@ unaligned
ARM GAS  C:\Users\USUARIO\AppData\Local\Temp\cc8Cohj2.s 			page 93


 4176 0e78 A372     		strb	r3, [r4, #10]
 893:main.c        ****             displayMenu(Menus.Letra,0,0,0,2);
 4177              		.loc 1 893 0
 4178 0e7a 4FF00208 		mov	r8, #2
 4179 0e7e CDF80080 		str	r8, [sp]
 4180 0e82 0023     		movs	r3, #0
 4181 0e84 1A46     		mov	r2, r3
 4182 0e86 1946     		mov	r1, r3
 4183 0e88 2046     		mov	r0, r4
 4184 0e8a FFF7FEFF 		bl	displayMenu
 4185              	.LVL333:
 894:main.c        ****             
 895:main.c        ****             displayTiempo(Segmentos,63,30,3,2);
 4186              		.loc 1 895 0
 4187 0e8e 9B4B     		ldr	r3, .L582
 4188 0e90 1878     		ldrb	r0, [r3]	@ zero_extendqisi2
 4189 0e92 CDF80080 		str	r8, [sp]
 4190 0e96 0323     		movs	r3, #3
 4191 0e98 1E22     		movs	r2, #30
 4192 0e9a 3F21     		movs	r1, #63
 4193 0e9c FFF7FEFF 		bl	displayTiempo
 4194              	.LVL334:
 896:main.c        ****             CyDelay(2000);
 4195              		.loc 1 896 0
 4196 0ea0 4FF4FA60 		mov	r0, #2000
 4197 0ea4 FFF7FEFF 		bl	CyDelay
 4198              	.LVL335:
 897:main.c        ****             glcd_fillScreen(OFF);
 4199              		.loc 1 897 0
 4200 0ea8 0020     		movs	r0, #0
 4201 0eaa FFF7FEFF 		bl	glcd_fillScreen
 4202              	.LVL336:
 898:main.c        ****             Opcion=1;visual=1;//Faltaa cuadrar esta parte
 4203              		.loc 1 898 0
 4204 0eae 0123     		movs	r3, #1
 4205 0eb0 3B70     		strb	r3, [r7]
 4206 0eb2 994A     		ldr	r2, .L582+28
 4207 0eb4 1380     		strh	r3, [r2]	@ movhi
 899:main.c        ****             TempeInicial=Temperatura;
 4208              		.loc 1 899 0
 4209 0eb6 994B     		ldr	r3, .L582+32
 4210 0eb8 D3F80090 		ldr	r9, [r3]	@ float
 4211 0ebc 984B     		ldr	r3, .L582+36
 4212 0ebe C3F80090 		str	r9, [r3]	@ float
 900:main.c        ****             
 901:main.c        ****             Tiempo=(Horas1[ProgramaSeleccionado*Pasos]*3600)+(Minutos1[ProgramaSeleccionado*Pasos]*
 4213              		.loc 1 901 0
 4214 0ec2 3278     		ldrb	r2, [r6]	@ zero_extendqisi2
 4215 0ec4 1201     		lsls	r2, r2, #4
 4216 0ec6 DFF8A482 		ldr	r8, .L582+112
 4217 0eca 38F91270 		ldrsh	r7, [r8, r2, lsl #1]
 4218 0ece 954E     		ldr	r6, .L582+40
 4219 0ed0 36F91230 		ldrsh	r3, [r6, r2, lsl #1]
 4220 0ed4 C7EB0717 		rsb	r7, r7, r7, lsl #4
 4221 0ed8 C7EB0717 		rsb	r7, r7, r7, lsl #4
 4222 0edc C3EB0313 		rsb	r3, r3, r3, lsl #4
 4223 0ee0 9B00     		lsls	r3, r3, #2
ARM GAS  C:\Users\USUARIO\AppData\Local\Temp\cc8Cohj2.s 			page 94


 4224 0ee2 03EB0717 		add	r7, r3, r7, lsl #4
 4225 0ee6 BFB2     		uxth	r7, r7
 4226 0ee8 8F4B     		ldr	r3, .L582+44
 4227 0eea 1F80     		strh	r7, [r3]	@ movhi
 902:main.c        ****             Setpoint=Temperatura1[(ProgramaSeleccionado*Pasos)+Segmento];
 4228              		.loc 1 902 0
 4229 0eec 2C78     		ldrb	r4, [r5]	@ zero_extendqisi2
 4230 0eee 1444     		add	r4, r4, r2
 4231 0ef0 8E4B     		ldr	r3, .L582+48
 4232 0ef2 33F81450 		ldrh	r5, [r3, r4, lsl #1]
 4233 0ef6 8E4B     		ldr	r3, .L582+52
 4234 0ef8 1D80     		strh	r5, [r3]	@ movhi
 903:main.c        ****             Pendiente=((Setpoint-TempeInicial)/Tiempo);
 4235              		.loc 1 903 0
 4236 0efa 2846     		mov	r0, r5
 4237 0efc FFF7FEFF 		bl	__aeabi_i2f
 4238              	.LVL337:
 4239 0f00 4946     		mov	r1, r9
 4240 0f02 FFF7FEFF 		bl	__aeabi_fsub
 4241              	.LVL338:
 4242 0f06 8146     		mov	r9, r0
 4243 0f08 3846     		mov	r0, r7
 4244 0f0a FFF7FEFF 		bl	__aeabi_i2f
 4245              	.LVL339:
 4246 0f0e 0146     		mov	r1, r0
 4247 0f10 4846     		mov	r0, r9
 4248 0f12 FFF7FEFF 		bl	__aeabi_fdiv
 4249              	.LVL340:
 4250 0f16 874B     		ldr	r3, .L582+56
 4251 0f18 1860     		str	r0, [r3]	@ float
 904:main.c        ****             Testerilizacionp[3]=(int8)Horas1[(ProgramaSeleccionado*Pasos)+Segmento]/10;
 4252              		.loc 1 904 0
 4253 0f1a 38F91420 		ldrsh	r2, [r8, r4, lsl #1]
 4254 0f1e 53B2     		sxtb	r3, r2
 4255 0f20 8548     		ldr	r0, .L582+60
 4256 0f22 80FB0371 		smull	r7, r1, r0, r3
 4257 0f26 DB17     		asrs	r3, r3, #31
 4258 0f28 C3EBA103 		rsb	r3, r3, r1, asr #2
 4259 0f2c 5BB2     		sxtb	r3, r3
 4260 0f2e 8349     		ldr	r1, .L582+64
 4261 0f30 CB75     		strb	r3, [r1, #23]
 905:main.c        ****             Testerilizacionp[2]=Horas1[(ProgramaSeleccionado*Pasos)+Segmento]-(Testerilizacionp[3]*
 4262              		.loc 1 905 0
 4263 0f32 C3EB4317 		rsb	r7, r3, r3, lsl #5
 4264 0f36 C3EB8703 		rsb	r3, r3, r7, lsl #2
 4265 0f3a 02EB4303 		add	r3, r2, r3, lsl #1
 4266 0f3e 8B75     		strb	r3, [r1, #22]
 906:main.c        ****             Testerilizacionp[1]=Minutos1[(ProgramaSeleccionado*Pasos)+Segmento]/10;
 4267              		.loc 1 906 0
 4268 0f40 36F91420 		ldrsh	r2, [r6, r4, lsl #1]
 4269 0f44 80FB0230 		smull	r3, r0, r0, r2
 4270 0f48 D317     		asrs	r3, r2, #31
 4271 0f4a C3EBA003 		rsb	r3, r3, r0, asr #2
 4272 0f4e 5BB2     		sxtb	r3, r3
 4273 0f50 4B75     		strb	r3, [r1, #21]
 907:main.c        ****             Testerilizacionp[0]=Minutos1[(ProgramaSeleccionado*Pasos)+Segmento]-(Testerilizacionp[1
 4274              		.loc 1 907 0
ARM GAS  C:\Users\USUARIO\AppData\Local\Temp\cc8Cohj2.s 			page 95


 4275 0f52 C3EB4310 		rsb	r0, r3, r3, lsl #5
 4276 0f56 C3EB8003 		rsb	r3, r3, r0, lsl #2
 4277 0f5a 02EB4303 		add	r3, r2, r3, lsl #1
 4278 0f5e 0B75     		strb	r3, [r1, #20]
 908:main.c        ****             Ganancia=GananciaIn*(Setpoint/Coeficiente);
 4279              		.loc 1 908 0
 4280 0f60 774B     		ldr	r3, .L582+68
 4281 0f62 1888     		ldrh	r0, [r3]
 4282 0f64 B5FBF0F0 		udiv	r0, r5, r0
 4283 0f68 FFF7FEFF 		bl	__aeabi_i2f
 4284              	.LVL341:
 4285 0f6c 754B     		ldr	r3, .L582+72
 4286 0f6e 1968     		ldr	r1, [r3]	@ float
 4287 0f70 FFF7FEFF 		bl	__aeabi_fmul
 4288              	.LVL342:
 4289 0f74 744B     		ldr	r3, .L582+76
 4290 0f76 1860     		str	r0, [r3]	@ float
 4291 0f78 34E0     		b	.L252
 4292              	.L257:
 909:main.c        ****          }
 910:main.c        ****          else{
 911:main.c        ****             glcd_fillScreen(OFF);
 4293              		.loc 1 911 0
 4294 0f7a 0020     		movs	r0, #0
 4295 0f7c FFF7FEFF 		bl	glcd_fillScreen
 4296              	.LVL343:
 912:main.c        ****             strcpy(Menus.Letra," !Programa");
 4297              		.loc 1 912 0
 4298 0f80 634C     		ldr	r4, .L582+20
 4299 0f82 724B     		ldr	r3, .L582+80
 4300 0f84 03CB     		ldmia	r3!, {r0, r1}
 4301 0f86 2060     		str	r0, [r4]	@ unaligned
 4302 0f88 6160     		str	r1, [r4, #4]	@ unaligned
 4303 0f8a 1A88     		ldrh	r2, [r3]	@ unaligned
 4304 0f8c 9B78     		ldrb	r3, [r3, #2]	@ zero_extendqisi2
 4305 0f8e 2281     		strh	r2, [r4, #8]	@ unaligned
 4306 0f90 A372     		strb	r3, [r4, #10]
 913:main.c        ****             displayMenu(Menus.Letra,0,0,0,2);
 4307              		.loc 1 913 0
 4308 0f92 0225     		movs	r5, #2
 4309 0f94 0095     		str	r5, [sp]
 4310 0f96 0023     		movs	r3, #0
 4311 0f98 1A46     		mov	r2, r3
 4312 0f9a 1946     		mov	r1, r3
 4313 0f9c 2046     		mov	r0, r4
 4314 0f9e FFF7FEFF 		bl	displayMenu
 4315              	.LVL344:
 914:main.c        ****             strcpy(Menus.Letra,"    Vacio!");
 4316              		.loc 1 914 0
 4317 0fa2 6B4B     		ldr	r3, .L582+84
 4318 0fa4 03CB     		ldmia	r3!, {r0, r1}
 4319 0fa6 2060     		str	r0, [r4]	@ unaligned
 4320 0fa8 6160     		str	r1, [r4, #4]	@ unaligned
 4321 0faa 1A88     		ldrh	r2, [r3]	@ unaligned
 4322 0fac 9B78     		ldrb	r3, [r3, #2]	@ zero_extendqisi2
 4323 0fae 2281     		strh	r2, [r4, #8]	@ unaligned
 4324 0fb0 A372     		strb	r3, [r4, #10]
ARM GAS  C:\Users\USUARIO\AppData\Local\Temp\cc8Cohj2.s 			page 96


 915:main.c        ****             displayMenu(Menus.Letra,0,20,0,2);
 4325              		.loc 1 915 0
 4326 0fb2 0095     		str	r5, [sp]
 4327 0fb4 0023     		movs	r3, #0
 4328 0fb6 1422     		movs	r2, #20
 4329 0fb8 1946     		mov	r1, r3
 4330 0fba 2046     		mov	r0, r4
 4331 0fbc FFF7FEFF 		bl	displayMenu
 4332              	.LVL345:
 916:main.c        ****             Opcion=1;BUZZER_Write(0);CyDelay(2000);Menu=1;glcd_fillScreen(OFF);Opcion=1;visual=1;
 4333              		.loc 1 916 0
 4334 0fc0 514D     		ldr	r5, .L582+12
 4335 0fc2 0124     		movs	r4, #1
 4336 0fc4 2C70     		strb	r4, [r5]
 4337 0fc6 0020     		movs	r0, #0
 4338 0fc8 FFF7FEFF 		bl	BUZZER_Write
 4339              	.LVL346:
 4340 0fcc 4FF4FA60 		mov	r0, #2000
 4341 0fd0 FFF7FEFF 		bl	CyDelay
 4342              	.LVL347:
 4343 0fd4 5F4B     		ldr	r3, .L582+88
 4344 0fd6 1C70     		strb	r4, [r3]
 4345 0fd8 0020     		movs	r0, #0
 4346 0fda FFF7FEFF 		bl	glcd_fillScreen
 4347              	.LVL348:
 4348 0fde 2C70     		strb	r4, [r5]
 4349 0fe0 4D4B     		ldr	r3, .L582+28
 4350 0fe2 1C80     		strh	r4, [r3]	@ movhi
 4351              	.L252:
 917:main.c        ****          }
 918:main.c        ****       } 
 919:main.c        ****                   
 920:main.c        ****       if(tleft>30)//Si oprime boton de Toma.
 4352              		.loc 1 920 0
 4353 0fe4 5C4B     		ldr	r3, .L582+92
 4354 0fe6 1B88     		ldrh	r3, [r3]
 4355 0fe8 1E2B     		cmp	r3, #30
 4356 0fea 13D9     		bls	.L242
 921:main.c        ****       {
 922:main.c        ****          BUZZER_Write(1);Opcion=1;BUZZER_Write(0);CyDelay(50);Menu=1;glcd_fillScreen(OFF);Opcion=1;
 4357              		.loc 1 922 0
 4358 0fec 0120     		movs	r0, #1
 4359 0fee FFF7FEFF 		bl	BUZZER_Write
 4360              	.LVL349:
 4361 0ff2 454D     		ldr	r5, .L582+12
 4362 0ff4 0124     		movs	r4, #1
 4363 0ff6 2C70     		strb	r4, [r5]
 4364 0ff8 0020     		movs	r0, #0
 4365 0ffa FFF7FEFF 		bl	BUZZER_Write
 4366              	.LVL350:
 4367 0ffe 3220     		movs	r0, #50
 4368 1000 FFF7FEFF 		bl	CyDelay
 4369              	.LVL351:
 4370 1004 534B     		ldr	r3, .L582+88
 4371 1006 1C70     		strb	r4, [r3]
 4372 1008 0020     		movs	r0, #0
 4373 100a FFF7FEFF 		bl	glcd_fillScreen
ARM GAS  C:\Users\USUARIO\AppData\Local\Temp\cc8Cohj2.s 			page 97


 4374              	.LVL352:
 4375 100e 2C70     		strb	r4, [r5]
 4376 1010 414B     		ldr	r3, .L582+28
 4377 1012 1C80     		strh	r4, [r3]	@ movhi
 4378              	.L242:
 923:main.c        ****       } 
 924:main.c        ****     }
 925:main.c        **** //_------------------------------------------------------------------------------------------------
 926:main.c        **** 
 927:main.c        **** //_------------------------------------------------------------------------------------------------
 928:main.c        ****       if(Menu==5){ //Menu Editar Programa
 4379              		.loc 1 928 0
 4380 1014 4F4B     		ldr	r3, .L582+88
 4381 1016 1B78     		ldrb	r3, [r3]	@ zero_extendqisi2
 4382 1018 052B     		cmp	r3, #5
 4383 101a 40F04881 		bne	.L258
 929:main.c        ****       
 930:main.c        ****          if(Opcion>5)
 4384              		.loc 1 930 0
 4385 101e 3A4B     		ldr	r3, .L582+12
 4386 1020 1B78     		ldrb	r3, [r3]	@ zero_extendqisi2
 4387 1022 052B     		cmp	r3, #5
 4388 1024 02D9     		bls	.L259
 931:main.c        ****          {Opcion=1;}
 4389              		.loc 1 931 0
 4390 1026 0122     		movs	r2, #1
 4391 1028 374B     		ldr	r3, .L582+12
 4392 102a 1A70     		strb	r2, [r3]
 4393              	.L259:
 932:main.c        ****          if(Opcion<1)
 4394              		.loc 1 932 0
 4395 102c 364B     		ldr	r3, .L582+12
 4396 102e 1B78     		ldrb	r3, [r3]	@ zero_extendqisi2
 4397 1030 13B9     		cbnz	r3, .L260
 933:main.c        ****          {Opcion=5;}
 4398              		.loc 1 933 0
 4399 1032 0522     		movs	r2, #5
 4400 1034 344B     		ldr	r3, .L582+12
 4401 1036 1A70     		strb	r2, [r3]
 4402              	.L260:
 934:main.c        ****          
 935:main.c        ****          strcpy(Menus.Letra,"Editar");
 4403              		.loc 1 935 0
 4404 1038 354C     		ldr	r4, .L582+20
 4405 103a 484B     		ldr	r3, .L582+96
 4406 103c 1868     		ldr	r0, [r3]	@ unaligned
 4407 103e 2060     		str	r0, [r4]	@ unaligned
 4408 1040 9A88     		ldrh	r2, [r3, #4]	@ unaligned
 4409 1042 9B79     		ldrb	r3, [r3, #6]	@ zero_extendqisi2
 4410 1044 A280     		strh	r2, [r4, #4]	@ unaligned
 4411 1046 A371     		strb	r3, [r4, #6]
 936:main.c        ****          displayMenu(Menus.Letra,30,0,1,2);
 4412              		.loc 1 936 0
 4413 1048 0223     		movs	r3, #2
 4414 104a 0093     		str	r3, [sp]
 4415 104c 0123     		movs	r3, #1
 4416 104e 0022     		movs	r2, #0
ARM GAS  C:\Users\USUARIO\AppData\Local\Temp\cc8Cohj2.s 			page 98


 4417 1050 1E21     		movs	r1, #30
 4418 1052 2046     		mov	r0, r4
 4419 1054 FFF7FEFF 		bl	displayMenu
 4420              	.LVL353:
 937:main.c        ****       
 938:main.c        ****          if(Opcion==1)   
 4421              		.loc 1 938 0
 4422 1058 2B4B     		ldr	r3, .L582+12
 4423 105a 1B78     		ldrb	r3, [r3]	@ zero_extendqisi2
 4424 105c 012B     		cmp	r3, #1
 4425 105e 0CD1     		bne	.L261
 939:main.c        ****             {strcpy(Menus.Letra,"Programa 01");
 4426              		.loc 1 939 0
 4427 1060 3F4B     		ldr	r3, .L582+100
 4428 1062 07CB     		ldmia	r3!, {r0, r1, r2}
 4429 1064 2060     		str	r0, [r4]	@ unaligned
 4430 1066 6160     		str	r1, [r4, #4]	@ unaligned
 4431 1068 A260     		str	r2, [r4, #8]	@ unaligned
 940:main.c        ****             displayMenu(Menus.Letra,0,18,1,1);}
 4432              		.loc 1 940 0
 4433 106a 0123     		movs	r3, #1
 4434 106c 0093     		str	r3, [sp]
 4435 106e 1222     		movs	r2, #18
 4436 1070 0021     		movs	r1, #0
 4437 1072 2046     		mov	r0, r4
 4438 1074 FFF7FEFF 		bl	displayMenu
 4439              	.LVL354:
 4440 1078 0DE0     		b	.L262
 4441              	.L261:
 941:main.c        ****          else
 942:main.c        ****             {strcpy(Menus.Letra,"Programa 01");
 4442              		.loc 1 942 0
 4443 107a 254C     		ldr	r4, .L582+20
 4444 107c 384B     		ldr	r3, .L582+100
 4445 107e 07CB     		ldmia	r3!, {r0, r1, r2}
 4446 1080 2060     		str	r0, [r4]	@ unaligned
 4447 1082 6160     		str	r1, [r4, #4]	@ unaligned
 4448 1084 A260     		str	r2, [r4, #8]	@ unaligned
 943:main.c        ****             displayMenu(Menus.Letra,0,18,0,1);}
 4449              		.loc 1 943 0
 4450 1086 0123     		movs	r3, #1
 4451 1088 0093     		str	r3, [sp]
 4452 108a 0023     		movs	r3, #0
 4453 108c 1222     		movs	r2, #18
 4454 108e 1946     		mov	r1, r3
 4455 1090 2046     		mov	r0, r4
 4456 1092 FFF7FEFF 		bl	displayMenu
 4457              	.LVL355:
 4458              	.L262:
 944:main.c        ****          
 945:main.c        ****          if(Opcion==2)   
 4459              		.loc 1 945 0
 4460 1096 1C4B     		ldr	r3, .L582+12
 4461 1098 1B78     		ldrb	r3, [r3]	@ zero_extendqisi2
 4462 109a 022B     		cmp	r3, #2
 4463 109c 0DD1     		bne	.L263
 946:main.c        ****             {strcpy(Menus.Letra,"Programa 02");
ARM GAS  C:\Users\USUARIO\AppData\Local\Temp\cc8Cohj2.s 			page 99


 4464              		.loc 1 946 0
 4465 109e 1C4C     		ldr	r4, .L582+20
 4466 10a0 304B     		ldr	r3, .L582+104
 4467 10a2 07CB     		ldmia	r3!, {r0, r1, r2}
 4468 10a4 2060     		str	r0, [r4]	@ unaligned
 4469 10a6 6160     		str	r1, [r4, #4]	@ unaligned
 4470 10a8 A260     		str	r2, [r4, #8]	@ unaligned
 947:main.c        ****             displayMenu(Menus.Letra,0,27,1,1);}
 4471              		.loc 1 947 0
 4472 10aa 0123     		movs	r3, #1
 4473 10ac 0093     		str	r3, [sp]
 4474 10ae 1B22     		movs	r2, #27
 4475 10b0 0021     		movs	r1, #0
 4476 10b2 2046     		mov	r0, r4
 4477 10b4 FFF7FEFF 		bl	displayMenu
 4478              	.LVL356:
 4479 10b8 0DE0     		b	.L264
 4480              	.L263:
 948:main.c        ****          else
 949:main.c        ****             {strcpy(Menus.Letra,"Programa 02");
 4481              		.loc 1 949 0
 4482 10ba 154C     		ldr	r4, .L582+20
 4483 10bc 294B     		ldr	r3, .L582+104
 4484 10be 07CB     		ldmia	r3!, {r0, r1, r2}
 4485 10c0 2060     		str	r0, [r4]	@ unaligned
 4486 10c2 6160     		str	r1, [r4, #4]	@ unaligned
 4487 10c4 A260     		str	r2, [r4, #8]	@ unaligned
 950:main.c        ****             displayMenu(Menus.Letra,0,27,0,1);}
 4488              		.loc 1 950 0
 4489 10c6 0123     		movs	r3, #1
 4490 10c8 0093     		str	r3, [sp]
 4491 10ca 0023     		movs	r3, #0
 4492 10cc 1B22     		movs	r2, #27
 4493 10ce 1946     		mov	r1, r3
 4494 10d0 2046     		mov	r0, r4
 4495 10d2 FFF7FEFF 		bl	displayMenu
 4496              	.LVL357:
 4497              	.L264:
 951:main.c        ****             
 952:main.c        ****          if(Opcion==3)   
 4498              		.loc 1 952 0
 4499 10d6 0C4B     		ldr	r3, .L582+12
 4500 10d8 1B78     		ldrb	r3, [r3]	@ zero_extendqisi2
 4501 10da 032B     		cmp	r3, #3
 4502 10dc 48D1     		bne	.L265
 953:main.c        ****             {strcpy(Menus.Letra,"Programa 03");
 4503              		.loc 1 953 0
 4504 10de 0C4C     		ldr	r4, .L582+20
 4505 10e0 214B     		ldr	r3, .L582+108
 4506 10e2 07CB     		ldmia	r3!, {r0, r1, r2}
 4507 10e4 2060     		str	r0, [r4]	@ unaligned
 4508 10e6 6160     		str	r1, [r4, #4]	@ unaligned
 4509 10e8 A260     		str	r2, [r4, #8]	@ unaligned
 954:main.c        ****             displayMenu(Menus.Letra,0,36,1,1);}
 4510              		.loc 1 954 0
 4511 10ea 0123     		movs	r3, #1
 4512 10ec 0093     		str	r3, [sp]
ARM GAS  C:\Users\USUARIO\AppData\Local\Temp\cc8Cohj2.s 			page 100


 4513 10ee 2422     		movs	r2, #36
 4514 10f0 0021     		movs	r1, #0
 4515 10f2 2046     		mov	r0, r4
 4516 10f4 FFF7FEFF 		bl	displayMenu
 4517              	.LVL358:
 4518 10f8 48E0     		b	.L266
 4519              	.L583:
 4520 10fa 00BF     		.align	2
 4521              	.L582:
 4522 10fc 00000000 		.word	Segmentos
 4523 1100 00000000 		.word	i
 4524 1104 00000000 		.word	ProgramaSeleccionado
 4525 1108 00000000 		.word	Opcion
 4526 110c 00000000 		.word	Segmento
 4527 1110 00000000 		.word	Menus
 4528 1114 38000000 		.word	.LC4
 4529 1118 00000000 		.word	visual
 4530 111c 00000000 		.word	Temperatura
 4531 1120 00000000 		.word	TempeInicial
 4532 1124 00000000 		.word	Minutos1
 4533 1128 00000000 		.word	Tiempo
 4534 112c 00000000 		.word	Temperatura1
 4535 1130 00000000 		.word	Setpoint
 4536 1134 00000000 		.word	Pendiente
 4537 1138 67666666 		.word	1717986919
 4538 113c 00000000 		.word	.LANCHOR0
 4539 1140 00000000 		.word	Coeficiente
 4540 1144 00000000 		.word	GananciaIn
 4541 1148 00000000 		.word	Ganancia
 4542 114c 0C010000 		.word	.LC21
 4543 1150 18010000 		.word	.LC22
 4544 1154 00000000 		.word	Menu
 4545 1158 00000000 		.word	tleft
 4546 115c 24010000 		.word	.LC23
 4547 1160 D0000000 		.word	.LC16
 4548 1164 DC000000 		.word	.LC17
 4549 1168 E8000000 		.word	.LC18
 4550 116c 00000000 		.word	Horas1
 4551              	.L265:
 955:main.c        ****          else
 956:main.c        ****             {strcpy(Menus.Letra,"Programa 03");
 4552              		.loc 1 956 0
 4553 1170 B34C     		ldr	r4, .L584
 4554 1172 B44B     		ldr	r3, .L584+4
 4555 1174 07CB     		ldmia	r3!, {r0, r1, r2}
 4556 1176 2060     		str	r0, [r4]	@ unaligned
 4557 1178 6160     		str	r1, [r4, #4]	@ unaligned
 4558 117a A260     		str	r2, [r4, #8]	@ unaligned
 957:main.c        ****             displayMenu(Menus.Letra,0,36,0,1);}   
 4559              		.loc 1 957 0
 4560 117c 0123     		movs	r3, #1
 4561 117e 0093     		str	r3, [sp]
 4562 1180 0023     		movs	r3, #0
 4563 1182 2422     		movs	r2, #36
 4564 1184 1946     		mov	r1, r3
 4565 1186 2046     		mov	r0, r4
 4566 1188 FFF7FEFF 		bl	displayMenu
ARM GAS  C:\Users\USUARIO\AppData\Local\Temp\cc8Cohj2.s 			page 101


 4567              	.LVL359:
 4568              	.L266:
 958:main.c        ****                         
 959:main.c        ****          if(Opcion==4)   
 4569              		.loc 1 959 0
 4570 118c AE4B     		ldr	r3, .L584+8
 4571 118e 1B78     		ldrb	r3, [r3]	@ zero_extendqisi2
 4572 1190 042B     		cmp	r3, #4
 4573 1192 0DD1     		bne	.L267
 960:main.c        ****             {strcpy(Menus.Letra,"Programa 04");
 4574              		.loc 1 960 0
 4575 1194 AA4C     		ldr	r4, .L584
 4576 1196 AD4B     		ldr	r3, .L584+12
 4577 1198 07CB     		ldmia	r3!, {r0, r1, r2}
 4578 119a 2060     		str	r0, [r4]	@ unaligned
 4579 119c 6160     		str	r1, [r4, #4]	@ unaligned
 4580 119e A260     		str	r2, [r4, #8]	@ unaligned
 961:main.c        ****             displayMenu(Menus.Letra,0,45,1,1);}
 4581              		.loc 1 961 0
 4582 11a0 0123     		movs	r3, #1
 4583 11a2 0093     		str	r3, [sp]
 4584 11a4 2D22     		movs	r2, #45
 4585 11a6 0021     		movs	r1, #0
 4586 11a8 2046     		mov	r0, r4
 4587 11aa FFF7FEFF 		bl	displayMenu
 4588              	.LVL360:
 4589 11ae 0DE0     		b	.L268
 4590              	.L267:
 962:main.c        ****          else
 963:main.c        ****             {strcpy(Menus.Letra,"Programa 04");
 4591              		.loc 1 963 0
 4592 11b0 A34C     		ldr	r4, .L584
 4593 11b2 A64B     		ldr	r3, .L584+12
 4594 11b4 07CB     		ldmia	r3!, {r0, r1, r2}
 4595 11b6 2060     		str	r0, [r4]	@ unaligned
 4596 11b8 6160     		str	r1, [r4, #4]	@ unaligned
 4597 11ba A260     		str	r2, [r4, #8]	@ unaligned
 964:main.c        ****             displayMenu(Menus.Letra,0,45,0,1);}     
 4598              		.loc 1 964 0
 4599 11bc 0123     		movs	r3, #1
 4600 11be 0093     		str	r3, [sp]
 4601 11c0 0023     		movs	r3, #0
 4602 11c2 2D22     		movs	r2, #45
 4603 11c4 1946     		mov	r1, r3
 4604 11c6 2046     		mov	r0, r4
 4605 11c8 FFF7FEFF 		bl	displayMenu
 4606              	.LVL361:
 4607              	.L268:
 965:main.c        ****          
 966:main.c        ****          if(Opcion==5)   
 4608              		.loc 1 966 0
 4609 11cc 9E4B     		ldr	r3, .L584+8
 4610 11ce 1B78     		ldrb	r3, [r3]	@ zero_extendqisi2
 4611 11d0 052B     		cmp	r3, #5
 4612 11d2 0DD1     		bne	.L269
 967:main.c        ****             {strcpy(Menus.Letra,"Programa 05");
 4613              		.loc 1 967 0
ARM GAS  C:\Users\USUARIO\AppData\Local\Temp\cc8Cohj2.s 			page 102


 4614 11d4 9A4C     		ldr	r4, .L584
 4615 11d6 9E4B     		ldr	r3, .L584+16
 4616 11d8 07CB     		ldmia	r3!, {r0, r1, r2}
 4617 11da 2060     		str	r0, [r4]	@ unaligned
 4618 11dc 6160     		str	r1, [r4, #4]	@ unaligned
 4619 11de A260     		str	r2, [r4, #8]	@ unaligned
 968:main.c        ****             displayMenu(Menus.Letra,0,54,1,1);}
 4620              		.loc 1 968 0
 4621 11e0 0123     		movs	r3, #1
 4622 11e2 0093     		str	r3, [sp]
 4623 11e4 3622     		movs	r2, #54
 4624 11e6 0021     		movs	r1, #0
 4625 11e8 2046     		mov	r0, r4
 4626 11ea FFF7FEFF 		bl	displayMenu
 4627              	.LVL362:
 4628 11ee 0DE0     		b	.L270
 4629              	.L269:
 969:main.c        ****          else
 970:main.c        ****             {strcpy(Menus.Letra,"Programa 05");
 4630              		.loc 1 970 0
 4631 11f0 934C     		ldr	r4, .L584
 4632 11f2 974B     		ldr	r3, .L584+16
 4633 11f4 07CB     		ldmia	r3!, {r0, r1, r2}
 4634 11f6 2060     		str	r0, [r4]	@ unaligned
 4635 11f8 6160     		str	r1, [r4, #4]	@ unaligned
 4636 11fa A260     		str	r2, [r4, #8]	@ unaligned
 971:main.c        ****             displayMenu(Menus.Letra,0,54,0,1);}     
 4637              		.loc 1 971 0
 4638 11fc 0123     		movs	r3, #1
 4639 11fe 0093     		str	r3, [sp]
 4640 1200 0023     		movs	r3, #0
 4641 1202 3622     		movs	r2, #54
 4642 1204 1946     		mov	r1, r3
 4643 1206 2046     		mov	r0, r4
 4644 1208 FFF7FEFF 		bl	displayMenu
 4645              	.LVL363:
 4646              	.L270:
 972:main.c        ****          
 973:main.c        ****          if(tup>30)//Si oprime hacia arriba
 4647              		.loc 1 973 0
 4648 120c 914B     		ldr	r3, .L584+20
 4649 120e 1B88     		ldrh	r3, [r3]
 4650 1210 1E2B     		cmp	r3, #30
 4651 1212 0CD9     		bls	.L271
 974:main.c        ****          {
 975:main.c        ****             BUZZER_Write(1);CyDelay(30);Opcion--;BUZZER_Write(0);
 4652              		.loc 1 975 0
 4653 1214 0120     		movs	r0, #1
 4654 1216 FFF7FEFF 		bl	BUZZER_Write
 4655              	.LVL364:
 4656 121a 1E20     		movs	r0, #30
 4657 121c FFF7FEFF 		bl	CyDelay
 4658              	.LVL365:
 4659 1220 894A     		ldr	r2, .L584+8
 4660 1222 1378     		ldrb	r3, [r2]	@ zero_extendqisi2
 4661 1224 013B     		subs	r3, r3, #1
 4662 1226 1370     		strb	r3, [r2]
ARM GAS  C:\Users\USUARIO\AppData\Local\Temp\cc8Cohj2.s 			page 103


 4663 1228 0020     		movs	r0, #0
 4664 122a FFF7FEFF 		bl	BUZZER_Write
 4665              	.LVL366:
 4666              	.L271:
 976:main.c        ****          }
 977:main.c        ****                   
 978:main.c        ****          if(tdown>30)//Si oprime hacia abajo
 4667              		.loc 1 978 0
 4668 122e 8A4B     		ldr	r3, .L584+24
 4669 1230 1B88     		ldrh	r3, [r3]
 4670 1232 1E2B     		cmp	r3, #30
 4671 1234 0CD9     		bls	.L272
 979:main.c        ****          {
 980:main.c        ****             BUZZER_Write(1);CyDelay(30);Opcion++; BUZZER_Write(0);
 4672              		.loc 1 980 0
 4673 1236 0120     		movs	r0, #1
 4674 1238 FFF7FEFF 		bl	BUZZER_Write
 4675              	.LVL367:
 4676 123c 1E20     		movs	r0, #30
 4677 123e FFF7FEFF 		bl	CyDelay
 4678              	.LVL368:
 4679 1242 814A     		ldr	r2, .L584+8
 4680 1244 1378     		ldrb	r3, [r2]	@ zero_extendqisi2
 4681 1246 0133     		adds	r3, r3, #1
 4682 1248 1370     		strb	r3, [r2]
 4683 124a 0020     		movs	r0, #0
 4684 124c FFF7FEFF 		bl	BUZZER_Write
 4685              	.LVL369:
 4686              	.L272:
 981:main.c        ****          }
 982:main.c        ****                
 983:main.c        ****          if(tright>30)//Si oprime SET
 4687              		.loc 1 983 0
 4688 1250 824B     		ldr	r3, .L584+28
 4689 1252 1B88     		ldrh	r3, [r3]
 4690 1254 1E2B     		cmp	r3, #30
 4691 1256 15D9     		bls	.L273
 984:main.c        ****          { 
 985:main.c        ****             BUZZER_Write(1);CyDelay(50);Menu=Opcion+10;Opcion=1;glcd_fillScreen(OFF);BUZZER_Write(0
 4692              		.loc 1 985 0
 4693 1258 0120     		movs	r0, #1
 4694 125a FFF7FEFF 		bl	BUZZER_Write
 4695              	.LVL370:
 4696 125e 3220     		movs	r0, #50
 4697 1260 FFF7FEFF 		bl	CyDelay
 4698              	.LVL371:
 4699 1264 784A     		ldr	r2, .L584+8
 4700 1266 1378     		ldrb	r3, [r2]	@ zero_extendqisi2
 4701 1268 0A33     		adds	r3, r3, #10
 4702 126a 7D49     		ldr	r1, .L584+32
 4703 126c 0B70     		strb	r3, [r1]
 4704 126e 0123     		movs	r3, #1
 4705 1270 1370     		strb	r3, [r2]
 4706 1272 0020     		movs	r0, #0
 4707 1274 FFF7FEFF 		bl	glcd_fillScreen
 4708              	.LVL372:
 4709 1278 0020     		movs	r0, #0
ARM GAS  C:\Users\USUARIO\AppData\Local\Temp\cc8Cohj2.s 			page 104


 4710 127a FFF7FEFF 		bl	BUZZER_Write
 4711              	.LVL373:
 4712 127e 0022     		movs	r2, #0
 4713 1280 784B     		ldr	r3, .L584+36
 4714 1282 1A70     		strb	r2, [r3]
 4715              	.L273:
 986:main.c        ****          }
 987:main.c        ****          
 988:main.c        ****          if(tleft>30){
 4716              		.loc 1 988 0
 4717 1284 784B     		ldr	r3, .L584+40
 4718 1286 1B88     		ldrh	r3, [r3]
 4719 1288 1E2B     		cmp	r3, #30
 4720 128a 10D9     		bls	.L258
 989:main.c        ****             BUZZER_Write(1);CyDelay(50);Menu=1;Opcion=1;glcd_fillScreen(OFF);BUZZER_Write(0);
 4721              		.loc 1 989 0
 4722 128c 0120     		movs	r0, #1
 4723 128e FFF7FEFF 		bl	BUZZER_Write
 4724              	.LVL374:
 4725 1292 3220     		movs	r0, #50
 4726 1294 FFF7FEFF 		bl	CyDelay
 4727              	.LVL375:
 4728 1298 0123     		movs	r3, #1
 4729 129a 714A     		ldr	r2, .L584+32
 4730 129c 1370     		strb	r3, [r2]
 4731 129e 6A4A     		ldr	r2, .L584+8
 4732 12a0 1370     		strb	r3, [r2]
 4733 12a2 0020     		movs	r0, #0
 4734 12a4 FFF7FEFF 		bl	glcd_fillScreen
 4735              	.LVL376:
 4736 12a8 0020     		movs	r0, #0
 4737 12aa FFF7FEFF 		bl	BUZZER_Write
 4738              	.LVL377:
 4739              	.L258:
 990:main.c        ****          }
 991:main.c        ****    }
 992:main.c        **** //_------------------------------------------------------------------------------------------------
 993:main.c        **** 
 994:main.c        **** //_------------------------------------------------------------------------------------------------
 995:main.c        ****       if(Menu==6){ //Menu de Borrar Programa
 4740              		.loc 1 995 0
 4741 12ae 6C4B     		ldr	r3, .L584+32
 4742 12b0 1B78     		ldrb	r3, [r3]	@ zero_extendqisi2
 4743 12b2 062B     		cmp	r3, #6
 4744 12b4 40F08B81 		bne	.L274
 996:main.c        ****       
 997:main.c        ****       if(Opcion>5)
 4745              		.loc 1 997 0
 4746 12b8 634B     		ldr	r3, .L584+8
 4747 12ba 1B78     		ldrb	r3, [r3]	@ zero_extendqisi2
 4748 12bc 052B     		cmp	r3, #5
 4749 12be 02D9     		bls	.L275
 998:main.c        ****          Opcion=1;
 4750              		.loc 1 998 0
 4751 12c0 0122     		movs	r2, #1
 4752 12c2 614B     		ldr	r3, .L584+8
 4753 12c4 1A70     		strb	r2, [r3]
ARM GAS  C:\Users\USUARIO\AppData\Local\Temp\cc8Cohj2.s 			page 105


 4754              	.L275:
 999:main.c        ****          
1000:main.c        ****       if(Opcion<1)
 4755              		.loc 1 1000 0
 4756 12c6 604B     		ldr	r3, .L584+8
 4757 12c8 1B78     		ldrb	r3, [r3]	@ zero_extendqisi2
 4758 12ca 13B9     		cbnz	r3, .L276
1001:main.c        ****          Opcion=5;
 4759              		.loc 1 1001 0
 4760 12cc 0522     		movs	r2, #5
 4761 12ce 5E4B     		ldr	r3, .L584+8
 4762 12d0 1A70     		strb	r2, [r3]
 4763              	.L276:
1002:main.c        ****       
1003:main.c        ****          strcpy(Menus.Letra,"  Elimine");
 4764              		.loc 1 1003 0
 4765 12d2 5B4C     		ldr	r4, .L584
 4766 12d4 654B     		ldr	r3, .L584+44
 4767 12d6 03CB     		ldmia	r3!, {r0, r1}
 4768 12d8 2060     		str	r0, [r4]	@ unaligned
 4769 12da 6160     		str	r1, [r4, #4]	@ unaligned
 4770 12dc 1B88     		ldrh	r3, [r3]	@ unaligned
 4771 12de 2381     		strh	r3, [r4, #8]	@ unaligned
1004:main.c        ****          displayMenu(Menus.Letra,0,0,1,2);
 4772              		.loc 1 1004 0
 4773 12e0 0225     		movs	r5, #2
 4774 12e2 0095     		str	r5, [sp]
 4775 12e4 0123     		movs	r3, #1
 4776 12e6 0022     		movs	r2, #0
 4777 12e8 1146     		mov	r1, r2
 4778 12ea 2046     		mov	r0, r4
 4779 12ec FFF7FEFF 		bl	displayMenu
 4780              	.LVL378:
1005:main.c        ****          
1006:main.c        ****          strcpy(Menus.Letra," Programa");
 4781              		.loc 1 1006 0
 4782 12f0 5F4B     		ldr	r3, .L584+48
 4783 12f2 03CB     		ldmia	r3!, {r0, r1}
