ARM GAS  C:\Users\USUARIO\AppData\Local\Temp\ccn1jDSD.s 			page 1


   1              		.syntax unified
   2              		.cpu cortex-m3
   3              		.fpu softvfp
   4              		.eabi_attribute 20, 1
   5              		.eabi_attribute 21, 1
   6              		.eabi_attribute 23, 3
   7              		.eabi_attribute 24, 1
   8              		.eabi_attribute 25, 1
   9              		.eabi_attribute 26, 1
  10              		.eabi_attribute 30, 1
  11              		.eabi_attribute 34, 1
  12              		.eabi_attribute 18, 4
  13              		.thumb
  14              		.syntax unified
  15              		.file	"CapSense.c"
  16              		.text
  17              	.Ltext0:
  18              		.cfi_sections	.debug_frame
  19              		.section	.text.CapSense_Enable,"ax",%progbits
  20              		.align	2
  21              		.global	CapSense_Enable
  22              		.thumb
  23              		.thumb_func
  24              		.type	CapSense_Enable, %function
  25              	CapSense_Enable:
  26              	.LFB1:
  27              		.file 1 "Generated_Source\\PSoC5\\CapSense.c"
   1:Generated_Source\PSoC5/CapSense.c **** /*******************************************************************************
   2:Generated_Source\PSoC5/CapSense.c **** * File Name: CapSense.c
   3:Generated_Source\PSoC5/CapSense.c **** * Version 3.50
   4:Generated_Source\PSoC5/CapSense.c **** *
   5:Generated_Source\PSoC5/CapSense.c **** * Description:
   6:Generated_Source\PSoC5/CapSense.c **** *  This file provides the source code of scanning APIs for the CapSense CSD 
   7:Generated_Source\PSoC5/CapSense.c **** *  component.
   8:Generated_Source\PSoC5/CapSense.c **** *
   9:Generated_Source\PSoC5/CapSense.c **** * Note:
  10:Generated_Source\PSoC5/CapSense.c **** *
  11:Generated_Source\PSoC5/CapSense.c **** ********************************************************************************
  12:Generated_Source\PSoC5/CapSense.c **** * Copyright 2008-2013, Cypress Semiconductor Corporation.  All rights reserved.
  13:Generated_Source\PSoC5/CapSense.c **** * You may use this file only in accordance with the license, terms, conditions,
  14:Generated_Source\PSoC5/CapSense.c **** * disclaimers, and limitations in the end user license agreement accompanying
  15:Generated_Source\PSoC5/CapSense.c **** * the software package with which this file was provided.
  16:Generated_Source\PSoC5/CapSense.c **** *******************************************************************************/
  17:Generated_Source\PSoC5/CapSense.c **** 
  18:Generated_Source\PSoC5/CapSense.c **** #include "CapSense.h"
  19:Generated_Source\PSoC5/CapSense.c **** #include "cyapicallbacks.h"
  20:Generated_Source\PSoC5/CapSense.c **** 
  21:Generated_Source\PSoC5/CapSense.c **** 
  22:Generated_Source\PSoC5/CapSense.c **** static uint8 CapSense_initVar = 0u;
  23:Generated_Source\PSoC5/CapSense.c ****             
  24:Generated_Source\PSoC5/CapSense.c **** /* Global software variables */
  25:Generated_Source\PSoC5/CapSense.c **** volatile uint8 CapSense_csv;            /* CapSense CSD status, control variable */
  26:Generated_Source\PSoC5/CapSense.c **** volatile uint8 CapSense_sensorIndex;    /* Index of scannig sensor */
  27:Generated_Source\PSoC5/CapSense.c **** 
  28:Generated_Source\PSoC5/CapSense.c **** /* AutoTunning start */
  29:Generated_Source\PSoC5/CapSense.c **** #if (CapSense_TUNING_METHOD == CapSense_AUTO_TUNING)
  30:Generated_Source\PSoC5/CapSense.c ****     uint8 CapSense_lowLevelTuningDone = 1u;
ARM GAS  C:\Users\USUARIO\AppData\Local\Temp\ccn1jDSD.s 			page 2


  31:Generated_Source\PSoC5/CapSense.c **** #endif /* (CapSense_TUNING_METHOD == CapSense_AUTO_TUNING) */
  32:Generated_Source\PSoC5/CapSense.c **** 
  33:Generated_Source\PSoC5/CapSense.c **** #if (CapSense_CURRENT_SOURCE == CapSense_EXTERNAL_RB)
  34:Generated_Source\PSoC5/CapSense.c ****     uint8  CapSense_extRbCh0Cur = CapSense_RBLEED1;
  35:Generated_Source\PSoC5/CapSense.c ****     #if (CapSense_DESIGN_TYPE == CapSense_TWO_CHANNELS_DESIGN)
  36:Generated_Source\PSoC5/CapSense.c ****         uint8  CapSense_extRbCh1Cur = (CapSense_RBLEED1 + CapSense_TOTAL_RB_NUMBER__CH0);
  37:Generated_Source\PSoC5/CapSense.c ****     #endif /* (CapSense_DESIGN_TYPE == CapSense_TWO_CHANNELS_DESIGN)*/ 
  38:Generated_Source\PSoC5/CapSense.c **** #endif /* (CapSense_CURRENT_SOURCE == CapSense_EXTERNAL_RB) */ 
  39:Generated_Source\PSoC5/CapSense.c ****         
  40:Generated_Source\PSoC5/CapSense.c **** /* Global array of Raw Counts */
  41:Generated_Source\PSoC5/CapSense.c **** uint16 CapSense_sensorRaw[CapSense_TOTAL_SENSOR_COUNT]; 
  42:Generated_Source\PSoC5/CapSense.c **** 
  43:Generated_Source\PSoC5/CapSense.c **** uint8 CapSense_sensorEnableMask[(((CapSense_TOTAL_SENSOR_COUNT - 1u) / 8u) + 1u)] = {
  44:Generated_Source\PSoC5/CapSense.c **** 0xFu, };
  45:Generated_Source\PSoC5/CapSense.c **** 
  46:Generated_Source\PSoC5/CapSense.c **** uint8 CYXDATA * const CYCODE CapSense_pcTable[] = {
  47:Generated_Source\PSoC5/CapSense.c ****     (uint8 CYXDATA *)CapSense_PortCH0__Button0__BTN__PC, 
  48:Generated_Source\PSoC5/CapSense.c ****     (uint8 CYXDATA *)CapSense_PortCH0__Button1__BTN__PC, 
  49:Generated_Source\PSoC5/CapSense.c ****     (uint8 CYXDATA *)CapSense_PortCH0__Button2__BTN__PC, 
  50:Generated_Source\PSoC5/CapSense.c ****     (uint8 CYXDATA *)CapSense_PortCH0__Button3__BTN__PC, 
  51:Generated_Source\PSoC5/CapSense.c **** };
  52:Generated_Source\PSoC5/CapSense.c **** 
  53:Generated_Source\PSoC5/CapSense.c **** const uint8 CYCODE CapSense_portTable[] = {
  54:Generated_Source\PSoC5/CapSense.c ****     CapSense_PortCH0__Button0__BTN__PORT, 
  55:Generated_Source\PSoC5/CapSense.c ****     CapSense_PortCH0__Button1__BTN__PORT, 
  56:Generated_Source\PSoC5/CapSense.c ****     CapSense_PortCH0__Button2__BTN__PORT, 
  57:Generated_Source\PSoC5/CapSense.c ****     CapSense_PortCH0__Button3__BTN__PORT, 
  58:Generated_Source\PSoC5/CapSense.c **** };
  59:Generated_Source\PSoC5/CapSense.c **** 
  60:Generated_Source\PSoC5/CapSense.c **** const uint8 CYCODE CapSense_maskTable[] = {
  61:Generated_Source\PSoC5/CapSense.c ****     CapSense_PortCH0__Button0__BTN__MASK,
  62:Generated_Source\PSoC5/CapSense.c ****     CapSense_PortCH0__Button1__BTN__MASK,
  63:Generated_Source\PSoC5/CapSense.c ****     CapSense_PortCH0__Button2__BTN__MASK,
  64:Generated_Source\PSoC5/CapSense.c ****     CapSense_PortCH0__Button3__BTN__MASK,
  65:Generated_Source\PSoC5/CapSense.c **** };
  66:Generated_Source\PSoC5/CapSense.c **** 
  67:Generated_Source\PSoC5/CapSense.c **** uint8 CYXDATA * const CYCODE CapSense_csTable[] = {
  68:Generated_Source\PSoC5/CapSense.c ****     (uint8 CYXDATA *)CYREG_PRT0_CAPS_SEL, (uint8 CYXDATA *)CYREG_PRT1_CAPS_SEL, (uint8 CYXDATA *)CY
  69:Generated_Source\PSoC5/CapSense.c ****     (uint8 CYXDATA *)CYREG_PRT3_CAPS_SEL, (uint8 CYXDATA *)CYREG_PRT4_CAPS_SEL, (uint8 CYXDATA *)CY
  70:Generated_Source\PSoC5/CapSense.c ****     (uint8 CYXDATA *)CYREG_PRT6_CAPS_SEL, (uint8 CYXDATA *)CYREG_PRT15_CAPS_SEL,
  71:Generated_Source\PSoC5/CapSense.c **** };
  72:Generated_Source\PSoC5/CapSense.c **** 
  73:Generated_Source\PSoC5/CapSense.c **** uint8 CapSense_idacSettings[] = {
  74:Generated_Source\PSoC5/CapSense.c ****     200u,200u,200u,200u,
  75:Generated_Source\PSoC5/CapSense.c **** };
  76:Generated_Source\PSoC5/CapSense.c **** 
  77:Generated_Source\PSoC5/CapSense.c **** uint8 CapSense_widgetResolution[] = {
  78:Generated_Source\PSoC5/CapSense.c ****     CapSense_PWM_RESOLUTION_10_BITS,
  79:Generated_Source\PSoC5/CapSense.c ****     CapSense_PWM_RESOLUTION_10_BITS,
  80:Generated_Source\PSoC5/CapSense.c ****     CapSense_PWM_RESOLUTION_10_BITS,
  81:Generated_Source\PSoC5/CapSense.c ****     CapSense_PWM_RESOLUTION_10_BITS,
  82:Generated_Source\PSoC5/CapSense.c **** };
  83:Generated_Source\PSoC5/CapSense.c **** 
  84:Generated_Source\PSoC5/CapSense.c **** uint8 CapSense_analogSwitchDivider[CapSense_TOTAL_SCANSLOT_COUNT];
  85:Generated_Source\PSoC5/CapSense.c **** const uint8 CYCODE CapSense_widgetNumber[] = {
  86:Generated_Source\PSoC5/CapSense.c ****     0u, /* Button0__BTN */
  87:Generated_Source\PSoC5/CapSense.c ****     1u, /* Button1__BTN */
ARM GAS  C:\Users\USUARIO\AppData\Local\Temp\ccn1jDSD.s 			page 3


  88:Generated_Source\PSoC5/CapSense.c ****     2u, /* Button2__BTN */
  89:Generated_Source\PSoC5/CapSense.c ****     3u, /* Button3__BTN */
  90:Generated_Source\PSoC5/CapSense.c ****     
  91:Generated_Source\PSoC5/CapSense.c **** };
  92:Generated_Source\PSoC5/CapSense.c **** 
  93:Generated_Source\PSoC5/CapSense.c **** 
  94:Generated_Source\PSoC5/CapSense.c **** 
  95:Generated_Source\PSoC5/CapSense.c **** 
  96:Generated_Source\PSoC5/CapSense.c **** /*******************************************************************************
  97:Generated_Source\PSoC5/CapSense.c **** * Function Name: CapSense_Init
  98:Generated_Source\PSoC5/CapSense.c **** ********************************************************************************
  99:Generated_Source\PSoC5/CapSense.c **** *
 100:Generated_Source\PSoC5/CapSense.c **** * Summary:
 101:Generated_Source\PSoC5/CapSense.c **** *  Inits default CapSense configuration provided with customizer that defines 
 102:Generated_Source\PSoC5/CapSense.c **** *  mode of component operations and resets all sensors to an inactive state.
 103:Generated_Source\PSoC5/CapSense.c **** *
 104:Generated_Source\PSoC5/CapSense.c **** * Parameters:
 105:Generated_Source\PSoC5/CapSense.c **** *  None
 106:Generated_Source\PSoC5/CapSense.c **** *
 107:Generated_Source\PSoC5/CapSense.c **** * Return:
 108:Generated_Source\PSoC5/CapSense.c **** *  None
 109:Generated_Source\PSoC5/CapSense.c **** *
 110:Generated_Source\PSoC5/CapSense.c **** *******************************************************************************/
 111:Generated_Source\PSoC5/CapSense.c **** void CapSense_Init(void) 
 112:Generated_Source\PSoC5/CapSense.c **** {
 113:Generated_Source\PSoC5/CapSense.c ****     #if ( (CapSense_PRS_OPTIONS) || \
 114:Generated_Source\PSoC5/CapSense.c ****           (CapSense_IMPLEMENTATION_CH0 == CapSense_MEASURE_IMPLEMENTATION_UDB) || \
 115:Generated_Source\PSoC5/CapSense.c ****           ( (CapSense_DESIGN_TYPE == CapSense_TWO_CHANNELS_DESIGN) && \
 116:Generated_Source\PSoC5/CapSense.c ****             (CapSense_IMPLEMENTATION_CH1 == CapSense_MEASURE_IMPLEMENTATION_UDB)) )
 117:Generated_Source\PSoC5/CapSense.c ****         
 118:Generated_Source\PSoC5/CapSense.c ****         uint8 enableInterrupts;
 119:Generated_Source\PSoC5/CapSense.c ****     #endif /* ( (CapSense_PRS_OPTIONS) || \
 120:Generated_Source\PSoC5/CapSense.c ****            * (CapSense_IMPLEMENTATION_CH0 == CapSense_MEASURE_IMPLEMENTATION_UDB) || \
 121:Generated_Source\PSoC5/CapSense.c ****            * ( (CapSense_DESIGN_TYPE == CapSense_TWO_CHANNELS_DESIGN) && \
 122:Generated_Source\PSoC5/CapSense.c ****            * (CapSense_IMPLEMENTATION_CH1 == CapSense_MEASURE_IMPLEMENTATION_UDB)) ) 
 123:Generated_Source\PSoC5/CapSense.c ****            */
 124:Generated_Source\PSoC5/CapSense.c ****     
 125:Generated_Source\PSoC5/CapSense.c ****     /* Clear all sensors */
 126:Generated_Source\PSoC5/CapSense.c ****     CapSense_ClearSensors();
 127:Generated_Source\PSoC5/CapSense.c **** 
 128:Generated_Source\PSoC5/CapSense.c ****     /* Set Prescaler */
 129:Generated_Source\PSoC5/CapSense.c ****     #if (CapSense_PRESCALER_OPTIONS == CapSense_PRESCALER_UDB)
 130:Generated_Source\PSoC5/CapSense.c ****         /* Do nothing = config without prescaler */
 131:Generated_Source\PSoC5/CapSense.c ****     #elif (CapSense_PRESCALER_OPTIONS == CapSense_PRESCALER_FF)
 132:Generated_Source\PSoC5/CapSense.c ****         CapSense_PRESCALER_CONTROL_REG   = (CapSense_PRESCALER_CTRL_ENABLE |
 133:Generated_Source\PSoC5/CapSense.c ****                                                     CapSense_PRESCALER_CTRL_MODE_CMP);
 134:Generated_Source\PSoC5/CapSense.c ****                                                
 135:Generated_Source\PSoC5/CapSense.c ****         CapSense_PRESCALER_CONTROL2_REG |= CapSense_PRESCALER_CTRL_CMP_LESS_EQ;
 136:Generated_Source\PSoC5/CapSense.c ****     #else
 137:Generated_Source\PSoC5/CapSense.c ****         /* Do nothing = config without prescaler */
 138:Generated_Source\PSoC5/CapSense.c ****     #endif  /* (CapSense_PRESCALER_OPTIONS == CapSense_PRESCALER_UDB) */
 139:Generated_Source\PSoC5/CapSense.c **** 
 140:Generated_Source\PSoC5/CapSense.c ****     /* Set PRS */
 141:Generated_Source\PSoC5/CapSense.c ****     #if (CapSense_PRS_OPTIONS)
 142:Generated_Source\PSoC5/CapSense.c ****         CapSense_SetAnalogSwitchesSource(CapSense_ANALOG_SWITCHES_SRC_PRS);
 143:Generated_Source\PSoC5/CapSense.c ****     #endif /* (CapSense_PRS_OPTIONS) */
 144:Generated_Source\PSoC5/CapSense.c **** 
ARM GAS  C:\Users\USUARIO\AppData\Local\Temp\ccn1jDSD.s 			page 4


 145:Generated_Source\PSoC5/CapSense.c ****     #if (CapSense_PRS_OPTIONS == CapSense_PRS_8BITS)
 146:Generated_Source\PSoC5/CapSense.c ****         /* Aux control set FIFO as REG */
 147:Generated_Source\PSoC5/CapSense.c ****         enableInterrupts = CyEnterCriticalSection();
 148:Generated_Source\PSoC5/CapSense.c ****         CapSense_AUX_CONTROL_A_REG |= CapSense_AUXCTRL_FIFO_SINGLE_REG;
 149:Generated_Source\PSoC5/CapSense.c ****         CyExitCriticalSection(enableInterrupts);
 150:Generated_Source\PSoC5/CapSense.c ****         
 151:Generated_Source\PSoC5/CapSense.c ****         /* Write polynomial */
 152:Generated_Source\PSoC5/CapSense.c ****         CapSense_POLYNOM_REG   = CapSense_PRS8_DEFAULT_POLYNOM;
 153:Generated_Source\PSoC5/CapSense.c ****         /* Write FIFO with seed */
 154:Generated_Source\PSoC5/CapSense.c ****         CapSense_SEED_COPY_REG = CapSense_MEASURE_FULL_RANGE_LOW;
 155:Generated_Source\PSoC5/CapSense.c ****         
 156:Generated_Source\PSoC5/CapSense.c ****     #elif (CapSense_PRS_OPTIONS == CapSense_PRS_16BITS)
 157:Generated_Source\PSoC5/CapSense.c ****         /* Aux control set FIFO as REG */ 
 158:Generated_Source\PSoC5/CapSense.c ****         enableInterrupts = CyEnterCriticalSection();  
 159:Generated_Source\PSoC5/CapSense.c ****         CapSense_AUX_CONTROL_A_REG |= CapSense_AUXCTRL_FIFO_SINGLE_REG;
 160:Generated_Source\PSoC5/CapSense.c ****         CapSense_AUX_CONTROL_B_REG |= CapSense_AUXCTRL_FIFO_SINGLE_REG;
 161:Generated_Source\PSoC5/CapSense.c ****         CyExitCriticalSection(enableInterrupts);
 162:Generated_Source\PSoC5/CapSense.c ****         
 163:Generated_Source\PSoC5/CapSense.c ****         /* Write polynomial */
 164:Generated_Source\PSoC5/CapSense.c ****         CY_SET_REG16(CapSense_POLYNOM_PTR, CapSense_PRS16_DEFAULT_POLYNOM);
 165:Generated_Source\PSoC5/CapSense.c ****         /* Write FIFO with seed */
 166:Generated_Source\PSoC5/CapSense.c ****         CY_SET_REG16(CapSense_SEED_COPY_PTR, CapSense_MEASURE_FULL_RANGE);
 167:Generated_Source\PSoC5/CapSense.c ****                 
 168:Generated_Source\PSoC5/CapSense.c ****     #elif (CapSense_PRS_OPTIONS == CapSense_PRS_16BITS_4X)
 169:Generated_Source\PSoC5/CapSense.c ****         /* Aux control set FIFO as REG */
 170:Generated_Source\PSoC5/CapSense.c ****         enableInterrupts = CyEnterCriticalSection();
 171:Generated_Source\PSoC5/CapSense.c ****         CapSense_AUX_CONTROL_A_REG  |= CapSense_AUXCTRL_FIFO_SINGLE_REG;
 172:Generated_Source\PSoC5/CapSense.c ****         CyExitCriticalSection(enableInterrupts);
 173:Generated_Source\PSoC5/CapSense.c ****         
 174:Generated_Source\PSoC5/CapSense.c ****         /* Write polynomial */
 175:Generated_Source\PSoC5/CapSense.c ****         CapSense_POLYNOM_A__D1_REG   = HI8(CapSense_PRS16_DEFAULT_POLYNOM);
 176:Generated_Source\PSoC5/CapSense.c ****         CapSense_POLYNOM_A__D0_REG   = LO8(CapSense_PRS16_DEFAULT_POLYNOM);
 177:Generated_Source\PSoC5/CapSense.c ****         /* Write FIFO with seed */
 178:Generated_Source\PSoC5/CapSense.c ****         CapSense_SEED_COPY_A__F1_REG = CapSense_MEASURE_FULL_RANGE_LOW;
 179:Generated_Source\PSoC5/CapSense.c ****         CapSense_SEED_COPY_A__F0_REG = CapSense_MEASURE_FULL_RANGE_LOW; 
 180:Generated_Source\PSoC5/CapSense.c ****         
 181:Generated_Source\PSoC5/CapSense.c ****     #else
 182:Generated_Source\PSoC5/CapSense.c ****         /* Do nothing = config without PRS */
 183:Generated_Source\PSoC5/CapSense.c ****     #endif  /* (CapSense_PRS_OPTIONS == CapSense_PRS_8BITS) */ 
 184:Generated_Source\PSoC5/CapSense.c ****     
 185:Generated_Source\PSoC5/CapSense.c ****     /* Set ScanSpeed */
 186:Generated_Source\PSoC5/CapSense.c ****     CapSense_SCANSPEED_PERIOD_REG = CapSense_SCANSPEED_VALUE;
 187:Generated_Source\PSoC5/CapSense.c ****     
 188:Generated_Source\PSoC5/CapSense.c ****     /* Set the Measure */
 189:Generated_Source\PSoC5/CapSense.c ****     #if (CapSense_IMPLEMENTATION_CH0 == CapSense_MEASURE_IMPLEMENTATION_FF)
 190:Generated_Source\PSoC5/CapSense.c ****         /* Window PWM */
 191:Generated_Source\PSoC5/CapSense.c ****         CapSense_PWM_CH0_CONTROL_REG      = CapSense_MEASURE_CTRL_ENABLE;
 192:Generated_Source\PSoC5/CapSense.c ****         CapSense_PWM_CH0_CONTROL2_REG    |= CapSense_MEASURE_CTRL_PULSEWIDTH;
 193:Generated_Source\PSoC5/CapSense.c ****         CY_SET_REG16(CapSense_PWM_CH0_COUNTER_PTR, CapSense_MEASURE_FULL_RANGE);
 194:Generated_Source\PSoC5/CapSense.c ****         
 195:Generated_Source\PSoC5/CapSense.c ****         /* Raw Counter */
 196:Generated_Source\PSoC5/CapSense.c ****         CapSense_RAW_CH0_CONTROL_REG      = CapSense_MEASURE_CTRL_ENABLE;
 197:Generated_Source\PSoC5/CapSense.c ****         CapSense_RAW_CH0_CONTROL2_REG    |= CapSense_MEASURE_CTRL_PULSEWIDTH;
 198:Generated_Source\PSoC5/CapSense.c ****         CY_SET_REG16(CapSense_RAW_CH0_PERIOD_PTR, CapSense_MEASURE_FULL_RANGE);
 199:Generated_Source\PSoC5/CapSense.c ****     
 200:Generated_Source\PSoC5/CapSense.c ****     #else
 201:Generated_Source\PSoC5/CapSense.c ****         /*Window PWM and Raw Counter AUX set */
ARM GAS  C:\Users\USUARIO\AppData\Local\Temp\ccn1jDSD.s 			page 5


 202:Generated_Source\PSoC5/CapSense.c ****         enableInterrupts = CyEnterCriticalSection();
 203:Generated_Source\PSoC5/CapSense.c ****         CapSense_PWM_CH0_AUX_CONTROL_REG |= CapSense_AUXCTRL_FIFO_SINGLE_REG;
 204:Generated_Source\PSoC5/CapSense.c ****         CapSense_RAW_CH0_AUX_CONTROL_REG |= CapSense_AUXCTRL_FIFO_SINGLE_REG;
 205:Generated_Source\PSoC5/CapSense.c ****         CyExitCriticalSection(enableInterrupts);
 206:Generated_Source\PSoC5/CapSense.c ****         
 207:Generated_Source\PSoC5/CapSense.c ****         /* Window PWM */
 208:Generated_Source\PSoC5/CapSense.c ****         CapSense_PWM_CH0_ADD_VALUE_REG    = CapSense_MEASURE_FULL_RANGE_LOW;
 209:Generated_Source\PSoC5/CapSense.c ****         CapSense_PWM_CH0_PERIOD_LO_REG    = CapSense_MEASURE_FULL_RANGE_LOW;
 210:Generated_Source\PSoC5/CapSense.c ****         CapSense_PWM_CH0_COUNTER_LO_REG   = CapSense_MEASURE_FULL_RANGE_LOW;
 211:Generated_Source\PSoC5/CapSense.c ****         
 212:Generated_Source\PSoC5/CapSense.c ****         /* Raw Counter */
 213:Generated_Source\PSoC5/CapSense.c ****         CapSense_RAW_CH0_ADD_VALUE_REG    = CapSense_MEASURE_FULL_RANGE_LOW;
 214:Generated_Source\PSoC5/CapSense.c ****         CapSense_RAW_CH0_PERIOD_HI_REG    = CapSense_MEASURE_FULL_RANGE_LOW;
 215:Generated_Source\PSoC5/CapSense.c ****         CapSense_RAW_CH0_PERIOD_LO_REG    = CapSense_MEASURE_FULL_RANGE_LOW;
 216:Generated_Source\PSoC5/CapSense.c ****         
 217:Generated_Source\PSoC5/CapSense.c ****     #endif  /* (CapSense_IMPLEMENTATION_CH0 == CapSense_MEASURE_IMPLEMENTATION_FF) */ 
 218:Generated_Source\PSoC5/CapSense.c ****     
 219:Generated_Source\PSoC5/CapSense.c ****     #if (CapSense_DESIGN_TYPE == CapSense_TWO_CHANNELS_DESIGN)
 220:Generated_Source\PSoC5/CapSense.c ****         #if (CapSense_IMPLEMENTATION_CH1 == CapSense_MEASURE_IMPLEMENTATION_FF)
 221:Generated_Source\PSoC5/CapSense.c ****             /* Window PWM */
 222:Generated_Source\PSoC5/CapSense.c ****             CapSense_PWM_CH1_CONTROL_REG      = CapSense_MEASURE_CTRL_ENABLE;
 223:Generated_Source\PSoC5/CapSense.c ****             CapSense_PWM_CH1_CONTROL2_REG    |= CapSense_MEASURE_CTRL_PULSEWIDTH;
 224:Generated_Source\PSoC5/CapSense.c ****             CY_SET_REG16(CapSense_PWM_CH1_COUNTER_PTR, CapSense_MEASURE_FULL_RANGE);
 225:Generated_Source\PSoC5/CapSense.c ****             
 226:Generated_Source\PSoC5/CapSense.c ****             /* Raw Counter */
 227:Generated_Source\PSoC5/CapSense.c ****             CapSense_RAW_CH1_CONTROL_REG      = CapSense_MEASURE_CTRL_ENABLE;
 228:Generated_Source\PSoC5/CapSense.c ****             CapSense_RAW_CH1_CONTROL2_REG    |= CapSense_MEASURE_CTRL_PULSEWIDTH;
 229:Generated_Source\PSoC5/CapSense.c ****             CY_SET_REG16(CapSense_RAW_CH1_PERIOD_PTR, CapSense_MEASURE_FULL_RANGE);
 230:Generated_Source\PSoC5/CapSense.c ****            
 231:Generated_Source\PSoC5/CapSense.c ****         #else
 232:Generated_Source\PSoC5/CapSense.c ****             /*Window PWM and Raw Counter AUX set */
 233:Generated_Source\PSoC5/CapSense.c ****             enableInterrupts = CyEnterCriticalSection();
 234:Generated_Source\PSoC5/CapSense.c ****             CapSense_PWM_CH1_AUX_CONTROL_REG |= CapSense_AUXCTRL_FIFO_SINGLE_REG;
 235:Generated_Source\PSoC5/CapSense.c ****             CapSense_RAW_CH1_AUX_CONTROL_REG |= CapSense_AUXCTRL_FIFO_SINGLE_REG;
 236:Generated_Source\PSoC5/CapSense.c ****             CyExitCriticalSection(enableInterrupts);
 237:Generated_Source\PSoC5/CapSense.c ****             
 238:Generated_Source\PSoC5/CapSense.c ****             /* Window PWM */
 239:Generated_Source\PSoC5/CapSense.c ****             CapSense_PWM_CH1_ADD_VALUE_REG    = CapSense_MEASURE_FULL_RANGE_LOW;
 240:Generated_Source\PSoC5/CapSense.c ****             CapSense_PWM_CH1_PERIOD_LO_REG    = CapSense_MEASURE_FULL_RANGE_LOW;
 241:Generated_Source\PSoC5/CapSense.c ****             CapSense_PWM_CH1_COUNTER_LO_REG   = CapSense_MEASURE_FULL_RANGE_LOW;
 242:Generated_Source\PSoC5/CapSense.c ****             
 243:Generated_Source\PSoC5/CapSense.c ****             /* Raw Counter */
 244:Generated_Source\PSoC5/CapSense.c ****             
 245:Generated_Source\PSoC5/CapSense.c ****             CapSense_RAW_CH1_ADD_VALUE_REG    = CapSense_MEASURE_FULL_RANGE_LOW;
 246:Generated_Source\PSoC5/CapSense.c ****             CapSense_RAW_CH1_PERIOD_HI_REG    = CapSense_MEASURE_FULL_RANGE_LOW;
 247:Generated_Source\PSoC5/CapSense.c ****             CapSense_RAW_CH1_PERIOD_LO_REG    = CapSense_MEASURE_FULL_RANGE_LOW;
 248:Generated_Source\PSoC5/CapSense.c ****             
 249:Generated_Source\PSoC5/CapSense.c ****         #endif  /* (CapSense_IMPLEMENTATION_CH1 == CapSense_MEASURE_IMPLEMENTATION_FF) */
 250:Generated_Source\PSoC5/CapSense.c ****     
 251:Generated_Source\PSoC5/CapSense.c ****     #endif  /* (CapSense_DESIGN_TYPE == TWO_CHANNELS_DESIGN) */
 252:Generated_Source\PSoC5/CapSense.c ****     
 253:Generated_Source\PSoC5/CapSense.c ****     /* Setup ISR */
 254:Generated_Source\PSoC5/CapSense.c ****     CyIntDisable(CapSense_IsrCH0_ISR_NUMBER);
 255:Generated_Source\PSoC5/CapSense.c ****     (void)CyIntSetVector(CapSense_IsrCH0_ISR_NUMBER, &CapSense_IsrCH0_ISR);
 256:Generated_Source\PSoC5/CapSense.c ****     CyIntSetPriority(CapSense_IsrCH0_ISR_NUMBER, CapSense_IsrCH0_ISR_PRIORITY);
 257:Generated_Source\PSoC5/CapSense.c ****     
 258:Generated_Source\PSoC5/CapSense.c ****     #if (CapSense_DESIGN_TYPE == CapSense_TWO_CHANNELS_DESIGN)
ARM GAS  C:\Users\USUARIO\AppData\Local\Temp\ccn1jDSD.s 			page 6


 259:Generated_Source\PSoC5/CapSense.c ****         CyIntDisable(CapSense_IsrCH1_ISR_NUMBER);
 260:Generated_Source\PSoC5/CapSense.c ****         CyIntSetVector(CapSense_IsrCH1_ISR_NUMBER, CapSense_IsrCH1_ISR);
 261:Generated_Source\PSoC5/CapSense.c ****         CyIntSetPriority(CapSense_IsrCH1_ISR_NUMBER, CapSense_IsrCH1_ISR_PRIORITY);
 262:Generated_Source\PSoC5/CapSense.c ****     #endif  /* CapSense_DESIGN_TYPE */
 263:Generated_Source\PSoC5/CapSense.c ****     
 264:Generated_Source\PSoC5/CapSense.c ****     /* Setup AMux Bus: Connect Cmod, Cmp, Idac */
 265:Generated_Source\PSoC5/CapSense.c ****     CapSense_AMuxCH0_Init();
 266:Generated_Source\PSoC5/CapSense.c ****     CapSense_AMuxCH0_Connect(CapSense_AMuxCH0_CMOD_CHANNEL);
 267:Generated_Source\PSoC5/CapSense.c ****     CapSense_AMuxCH0_Connect(CapSense_AMuxCH0_CMP_VP_CHANNEL);
 268:Generated_Source\PSoC5/CapSense.c ****     #if (CapSense_CURRENT_SOURCE)
 269:Generated_Source\PSoC5/CapSense.c ****         CapSense_AMuxCH0_Connect(CapSense_AMuxCH0_IDAC_CHANNEL);
 270:Generated_Source\PSoC5/CapSense.c ****     #endif  /* CapSense_CURRENT_SOURCE */
 271:Generated_Source\PSoC5/CapSense.c ****     
 272:Generated_Source\PSoC5/CapSense.c ****     #if (CapSense_DESIGN_TYPE == CapSense_TWO_CHANNELS_DESIGN) 
 273:Generated_Source\PSoC5/CapSense.c ****         CapSense_AMuxCH1_Init();
 274:Generated_Source\PSoC5/CapSense.c ****         CapSense_AMuxCH1_Connect(CapSense_AMuxCH1_CMOD_CHANNEL);
 275:Generated_Source\PSoC5/CapSense.c ****         CapSense_AMuxCH1_Connect(CapSense_AMuxCH1_CMP_VP_CHANNEL);
 276:Generated_Source\PSoC5/CapSense.c ****         #if (CapSense_CURRENT_SOURCE)
 277:Generated_Source\PSoC5/CapSense.c ****             CapSense_AMuxCH1_Connect(CapSense_AMuxCH1_IDAC_CHANNEL);
 278:Generated_Source\PSoC5/CapSense.c ****         #endif  /* CapSense_CURRENT_SOURCE */
 279:Generated_Source\PSoC5/CapSense.c ****     #endif  /* CapSense_DESIGN_TYPE */
 280:Generated_Source\PSoC5/CapSense.c ****     
 281:Generated_Source\PSoC5/CapSense.c ****     /* Int Rb */
 282:Generated_Source\PSoC5/CapSense.c ****     #if (CapSense_CURRENT_SOURCE == CapSense_EXTERNAL_RB)
 283:Generated_Source\PSoC5/CapSense.c ****         CapSense_InitRb();
 284:Generated_Source\PSoC5/CapSense.c ****     #endif /* (CapSense_CURRENT_SOURCE == CapSense_EXTERNAL_RB) */
 285:Generated_Source\PSoC5/CapSense.c ****     
 286:Generated_Source\PSoC5/CapSense.c ****     /* Enable window generation */
 287:Generated_Source\PSoC5/CapSense.c ****     CapSense_CONTROL_REG |= CapSense_CTRL_WINDOW_EN__CH0;
 288:Generated_Source\PSoC5/CapSense.c ****     #if (CapSense_DESIGN_TYPE == CapSense_TWO_CHANNELS_DESIGN)
 289:Generated_Source\PSoC5/CapSense.c ****         CapSense_CONTROL_REG |= CapSense_CTRL_WINDOW_EN__CH1;
 290:Generated_Source\PSoC5/CapSense.c ****     #endif  /* CapSense_DESIGN_TYPE */
 291:Generated_Source\PSoC5/CapSense.c ****     
 292:Generated_Source\PSoC5/CapSense.c ****     /* Initialize Cmp and Idac */
 293:Generated_Source\PSoC5/CapSense.c ****     CapSense_CompCH0_Init();
 294:Generated_Source\PSoC5/CapSense.c ****     #if (CapSense_CURRENT_SOURCE)
 295:Generated_Source\PSoC5/CapSense.c ****         CapSense_IdacCH0_Init();
 296:Generated_Source\PSoC5/CapSense.c ****         CapSense_IdacCH0_SetPolarity(CapSense_IdacCH0_IDIR);
 297:Generated_Source\PSoC5/CapSense.c ****         CapSense_IdacCH0_SetRange(CapSense_IDAC_RANGE_VALUE);
 298:Generated_Source\PSoC5/CapSense.c ****         CapSense_IdacCH0_SetValue(CapSense_TURN_OFF_IDAC);
 299:Generated_Source\PSoC5/CapSense.c ****     #endif  /* CapSense_CURRENT_SOURCE */
 300:Generated_Source\PSoC5/CapSense.c ****     
 301:Generated_Source\PSoC5/CapSense.c ****     #if (CapSense_DESIGN_TYPE == CapSense_TWO_CHANNELS_DESIGN) 
 302:Generated_Source\PSoC5/CapSense.c ****         CapSense_CompCH1_Init();
 303:Generated_Source\PSoC5/CapSense.c ****         #if (CapSense_CURRENT_SOURCE)
 304:Generated_Source\PSoC5/CapSense.c ****             CapSense_IdacCH1_Init();
 305:Generated_Source\PSoC5/CapSense.c ****             CapSense_IdacCH1_SetPolarity(CapSense_IdacCH1_IDIR);
 306:Generated_Source\PSoC5/CapSense.c ****             CapSense_IdacCH1_SetRange(CapSense_IDAC_RANGE_VALUE);
 307:Generated_Source\PSoC5/CapSense.c ****             CapSense_IdacCH1_SetValue(CapSense_TURN_OFF_IDAC);
 308:Generated_Source\PSoC5/CapSense.c ****         #endif  /* CapSense_CURRENT_SOURCE */
 309:Generated_Source\PSoC5/CapSense.c ****     #endif  /* CapSense_DESIGN_TYPE */
 310:Generated_Source\PSoC5/CapSense.c ****     
 311:Generated_Source\PSoC5/CapSense.c ****     /* Initialize Vref if as VDAC */
 312:Generated_Source\PSoC5/CapSense.c ****     #if (CapSense_VREF_OPTIONS == CapSense_VREF_VDAC)
 313:Generated_Source\PSoC5/CapSense.c ****         CapSense_VdacRefCH0_Init();
 314:Generated_Source\PSoC5/CapSense.c ****         #if (CapSense_DESIGN_TYPE == CapSense_TWO_CHANNELS_DESIGN)
 315:Generated_Source\PSoC5/CapSense.c ****             CapSense_VdacRefCH1_Init();
ARM GAS  C:\Users\USUARIO\AppData\Local\Temp\ccn1jDSD.s 			page 7


 316:Generated_Source\PSoC5/CapSense.c ****         #endif  /* CapSense_DESIGN_TYPE */
 317:Generated_Source\PSoC5/CapSense.c ****     #endif  /* CapSense_VREF_OPTIONS */
 318:Generated_Source\PSoC5/CapSense.c **** }
 319:Generated_Source\PSoC5/CapSense.c **** 
 320:Generated_Source\PSoC5/CapSense.c **** 
 321:Generated_Source\PSoC5/CapSense.c **** /*******************************************************************************
 322:Generated_Source\PSoC5/CapSense.c **** * Function Name: CapSense_Enable
 323:Generated_Source\PSoC5/CapSense.c **** ********************************************************************************
 324:Generated_Source\PSoC5/CapSense.c **** *
 325:Generated_Source\PSoC5/CapSense.c **** * Summary:
 326:Generated_Source\PSoC5/CapSense.c **** *  Enables active mode power template bits for number of component used within 
 327:Generated_Source\PSoC5/CapSense.c **** *  CapSense.
 328:Generated_Source\PSoC5/CapSense.c **** *
 329:Generated_Source\PSoC5/CapSense.c **** * Parameters:
 330:Generated_Source\PSoC5/CapSense.c **** *  None
 331:Generated_Source\PSoC5/CapSense.c **** *
 332:Generated_Source\PSoC5/CapSense.c **** * Return:
 333:Generated_Source\PSoC5/CapSense.c **** *  None
 334:Generated_Source\PSoC5/CapSense.c **** *
 335:Generated_Source\PSoC5/CapSense.c **** *******************************************************************************/
 336:Generated_Source\PSoC5/CapSense.c **** void CapSense_Enable(void) 
 337:Generated_Source\PSoC5/CapSense.c **** {
  28              		.loc 1 337 0
  29              		.cfi_startproc
  30              		@ args = 0, pretend = 0, frame = 0
  31              		@ frame_needed = 0, uses_anonymous_args = 0
  32 0000 10B5     		push	{r4, lr}
  33              		.cfi_def_cfa_offset 8
  34              		.cfi_offset 4, -8
  35              		.cfi_offset 14, -4
 338:Generated_Source\PSoC5/CapSense.c ****     uint8 enableInterrupts;
 339:Generated_Source\PSoC5/CapSense.c ****     
 340:Generated_Source\PSoC5/CapSense.c ****     enableInterrupts = CyEnterCriticalSection();
  36              		.loc 1 340 0
  37 0002 FFF7FEFF 		bl	CyEnterCriticalSection
  38              	.LVL0:
  39 0006 0446     		mov	r4, r0
  40              	.LVL1:
 341:Generated_Source\PSoC5/CapSense.c ****     
 342:Generated_Source\PSoC5/CapSense.c ****     /* Enable Prescaler */
 343:Generated_Source\PSoC5/CapSense.c ****     #if (CapSense_PRESCALER_OPTIONS == CapSense_PRESCALER_UDB)
 344:Generated_Source\PSoC5/CapSense.c ****         /* Do nothing  for UDB */
 345:Generated_Source\PSoC5/CapSense.c ****     #elif (CapSense_PRESCALER_OPTIONS == CapSense_PRESCALER_FF)
 346:Generated_Source\PSoC5/CapSense.c ****         CapSense_PRESCALER_ACT_PWRMGR_REG  |= CapSense_PRESCALER_ACT_PWR_EN;
 347:Generated_Source\PSoC5/CapSense.c ****         CapSense_PRESCALER_STBY_PWRMGR_REG |= CapSense_PRESCALER_STBY_PWR_EN;
 348:Generated_Source\PSoC5/CapSense.c ****         
 349:Generated_Source\PSoC5/CapSense.c ****     #else
 350:Generated_Source\PSoC5/CapSense.c ****         /* Do nothing = config without prescaler */
 351:Generated_Source\PSoC5/CapSense.c ****     #endif  /* (CapSense_PRESCALER_OPTIONS == CapSense_PRESCALER_UDB) */
 352:Generated_Source\PSoC5/CapSense.c ****     
 353:Generated_Source\PSoC5/CapSense.c ****     /* Enable ScanSpeed */
 354:Generated_Source\PSoC5/CapSense.c ****     CapSense_SCANSPEED_AUX_CONTROL_REG |= CapSense_SCANSPEED_CTRL_ENABLE;
  41              		.loc 1 354 0
  42 0008 134A     		ldr	r2, .L3
  43 000a 1378     		ldrb	r3, [r2]	@ zero_extendqisi2
  44 000c 43F02003 		orr	r3, r3, #32
  45 0010 1370     		strb	r3, [r2]
ARM GAS  C:\Users\USUARIO\AppData\Local\Temp\ccn1jDSD.s 			page 8


 355:Generated_Source\PSoC5/CapSense.c ****     
 356:Generated_Source\PSoC5/CapSense.c ****     /* Enable Measure CH0 */
 357:Generated_Source\PSoC5/CapSense.c ****     #if (CapSense_IMPLEMENTATION_CH0 == CapSense_MEASURE_IMPLEMENTATION_FF)
 358:Generated_Source\PSoC5/CapSense.c ****         /* Window PWM */
 359:Generated_Source\PSoC5/CapSense.c ****         CapSense_PWM_CH0_ACT_PWRMGR_REG  |= CapSense_PWM_CH0_ACT_PWR_EN;
 360:Generated_Source\PSoC5/CapSense.c ****         CapSense_PWM_CH0_STBY_PWRMGR_REG |= CapSense_PWM_CH0_STBY_PWR_EN;
 361:Generated_Source\PSoC5/CapSense.c ****         
 362:Generated_Source\PSoC5/CapSense.c ****         /* Raw Counter */
 363:Generated_Source\PSoC5/CapSense.c ****         CapSense_RAW_CH0_ACT_PWRMGR_REG  |= CapSense_RAW_CH0_ACT_PWR_EN;
 364:Generated_Source\PSoC5/CapSense.c ****         CapSense_RAW_CH0_STBY_PWRMGR_REG |= CapSense_RAW_CH0_STBY_PWR_EN;
 365:Generated_Source\PSoC5/CapSense.c ****         
 366:Generated_Source\PSoC5/CapSense.c ****     #else
 367:Generated_Source\PSoC5/CapSense.c ****         /* Window PWM -  Do nothing */
 368:Generated_Source\PSoC5/CapSense.c ****         /* Raw Counter - Do nothing */
 369:Generated_Source\PSoC5/CapSense.c ****         
 370:Generated_Source\PSoC5/CapSense.c ****     #endif  /* (CapSense_IMPLEMENTATION_CH0 == CapSense_MEASURE_IMPLEMENTATION_FF) */ 
 371:Generated_Source\PSoC5/CapSense.c ****     
 372:Generated_Source\PSoC5/CapSense.c ****     /* Enable Measure CH1*/
 373:Generated_Source\PSoC5/CapSense.c ****     #if (CapSense_DESIGN_TYPE == CapSense_TWO_CHANNELS_DESIGN)
 374:Generated_Source\PSoC5/CapSense.c ****         #if (CapSense_IMPLEMENTATION_CH1 == CapSense_MEASURE_IMPLEMENTATION_FF)
 375:Generated_Source\PSoC5/CapSense.c ****             /* Window PWM */
 376:Generated_Source\PSoC5/CapSense.c ****             CapSense_PWM_CH1_ACT_PWRMGR_REG  |= CapSense_PWM_CH1_ACT_PWR_EN;
 377:Generated_Source\PSoC5/CapSense.c ****             CapSense_PWM_CH1_STBY_PWRMGR_REG |= CapSense_PWM_CH1_STBY_PWR_EN;
 378:Generated_Source\PSoC5/CapSense.c ****             
 379:Generated_Source\PSoC5/CapSense.c ****             /* Raw Counter */
 380:Generated_Source\PSoC5/CapSense.c ****             CapSense_RAW_CH1_ACT_PWRMGR_REG  |= CapSense_RAW_CH1_ACT_PWR_EN;
 381:Generated_Source\PSoC5/CapSense.c ****             CapSense_RAW_CH1_STBY_PWRMGR_REG |= CapSense_RAW_CH1_STBY_PWR_EN;
 382:Generated_Source\PSoC5/CapSense.c ****            
 383:Generated_Source\PSoC5/CapSense.c ****         #else
 384:Generated_Source\PSoC5/CapSense.c ****         /* Window PWM -  Do nothing */
 385:Generated_Source\PSoC5/CapSense.c ****         /* Raw Counter - Do nothing */
 386:Generated_Source\PSoC5/CapSense.c ****         
 387:Generated_Source\PSoC5/CapSense.c ****         #endif  /* (CapSense_IMPLEMENTATION_CH1 == CapSense_MEASURE_IMPLEMENTATION_FF) */
 388:Generated_Source\PSoC5/CapSense.c ****     
 389:Generated_Source\PSoC5/CapSense.c ****     #endif  /* (CapSense_DESIGN_TYPE == TWO_CHANNELS_DESIGN)*/
 390:Generated_Source\PSoC5/CapSense.c ****     
 391:Generated_Source\PSoC5/CapSense.c ****     /* Enable the Clock */
 392:Generated_Source\PSoC5/CapSense.c ****     #if (CapSense_CLOCK_SOURCE == CapSense_INTERNAL_CLOCK)
 393:Generated_Source\PSoC5/CapSense.c ****        CapSense_IntClock_Enable();
  46              		.loc 1 393 0
  47 0012 FFF7FEFF 		bl	CapSense_IntClock_Start
  48              	.LVL2:
 394:Generated_Source\PSoC5/CapSense.c ****     #endif  /* CapSense_CLOCK_SOURCE */
 395:Generated_Source\PSoC5/CapSense.c ****     
 396:Generated_Source\PSoC5/CapSense.c ****     /* Setup Cmp and Idac */
 397:Generated_Source\PSoC5/CapSense.c ****     CapSense_CompCH0_Enable();
  49              		.loc 1 397 0
  50 0016 FFF7FEFF 		bl	CapSense_CompCH0_Enable
  51              	.LVL3:
 398:Generated_Source\PSoC5/CapSense.c ****     #if (CapSense_CURRENT_SOURCE)
 399:Generated_Source\PSoC5/CapSense.c ****         CapSense_IdacCH0_Enable();
  52              		.loc 1 399 0
  53 001a FFF7FEFF 		bl	CapSense_IdacCH0_Enable
  54              	.LVL4:
 400:Generated_Source\PSoC5/CapSense.c ****     #endif  /* CapSense_CURRENT_SOURCE */
 401:Generated_Source\PSoC5/CapSense.c ****     
 402:Generated_Source\PSoC5/CapSense.c ****     #if (CapSense_DESIGN_TYPE == CapSense_TWO_CHANNELS_DESIGN) 
ARM GAS  C:\Users\USUARIO\AppData\Local\Temp\ccn1jDSD.s 			page 9


 403:Generated_Source\PSoC5/CapSense.c ****         CapSense_CompCH1_Enable();
 404:Generated_Source\PSoC5/CapSense.c ****         #if (CapSense_CURRENT_SOURCE)
 405:Generated_Source\PSoC5/CapSense.c ****             CapSense_IdacCH1_Enable();
 406:Generated_Source\PSoC5/CapSense.c ****         #endif  /* CapSense_CURRENT_SOURCE */
 407:Generated_Source\PSoC5/CapSense.c ****     #endif  /* CapSense_DESIGN_TYPE */
 408:Generated_Source\PSoC5/CapSense.c ****     
 409:Generated_Source\PSoC5/CapSense.c ****     /* Enable Vref */
 410:Generated_Source\PSoC5/CapSense.c ****     #if (CapSense_VREF_OPTIONS == CapSense_VREF_VDAC)
 411:Generated_Source\PSoC5/CapSense.c ****         CapSense_VdacRefCH0_Enable();
 412:Generated_Source\PSoC5/CapSense.c ****         CapSense_VdacRefCH0_SetValue(CapSense_VdacRefCH0_DEFAULT_DATA);
 413:Generated_Source\PSoC5/CapSense.c ****         #if (CapSense_DESIGN_TYPE == CapSense_TWO_CHANNELS_DESIGN)
 414:Generated_Source\PSoC5/CapSense.c ****             CapSense_VdacRefCH1_Enable();
 415:Generated_Source\PSoC5/CapSense.c ****             CapSense_VdacRefCH1_SetValue(CapSense_VdacRefCH1_DEFAULT_DATA);
 416:Generated_Source\PSoC5/CapSense.c ****         #endif  /* (CapSense_DESIGN_TYPE == CapSense_TWO_CHANNELS_DESIGN) */
 417:Generated_Source\PSoC5/CapSense.c ****     #else
 418:Generated_Source\PSoC5/CapSense.c ****         /* Enable CapSense Buf */
 419:Generated_Source\PSoC5/CapSense.c ****         CapSense_BufCH0_STBY_PWRMGR_REG |= CapSense_BufCH0_STBY_PWR_EN;
  55              		.loc 1 419 0
  56 001e 0F4A     		ldr	r2, .L3+4
  57 0020 1378     		ldrb	r3, [r2]	@ zero_extendqisi2
  58 0022 43F02003 		orr	r3, r3, #32
  59 0026 1370     		strb	r3, [r2]
 420:Generated_Source\PSoC5/CapSense.c ****         CapSense_BufCH0_ACT_PWRMGR_REG  |= CapSense_BufCH0_ACT_PWR_EN;
  60              		.loc 1 420 0
  61 0028 103A     		subs	r2, r2, #16
  62 002a 1378     		ldrb	r3, [r2]	@ zero_extendqisi2
  63 002c 43F02003 		orr	r3, r3, #32
  64 0030 1370     		strb	r3, [r2]
 421:Generated_Source\PSoC5/CapSense.c ****         
 422:Generated_Source\PSoC5/CapSense.c ****         #if (CapSense_DESIGN_TYPE == CapSense_TWO_CHANNELS_DESIGN)
 423:Generated_Source\PSoC5/CapSense.c ****             CapSense_BufCH1_STBY_PWRMGR_REG |= CapSense_BufCH1_STBY_PWR_EN;
 424:Generated_Source\PSoC5/CapSense.c ****             CapSense_BufCH1_ACT_PWRMGR_REG  |= CapSense_BufCH1_ACT_PWR_EN;
 425:Generated_Source\PSoC5/CapSense.c ****         #endif  /* (CapSense_DESIGN_TYPE == CapSense_TWO_CHANNELS_DESIGN) */
 426:Generated_Source\PSoC5/CapSense.c ****     #endif  /* (CapSense_VREF_VDAC == CapSense_VREF_OPTIONS) */
 427:Generated_Source\PSoC5/CapSense.c ****     
 428:Generated_Source\PSoC5/CapSense.c ****     /* Set reference on AMux Bus */
 429:Generated_Source\PSoC5/CapSense.c ****     #if (CapSense_VREF_OPTIONS == CapSense_VREF_VDAC)
 430:Generated_Source\PSoC5/CapSense.c ****         /* Connect Vdac to AMux Bus */
 431:Generated_Source\PSoC5/CapSense.c ****         CapSense_AMuxCH0_Connect(CapSense_AMuxCH0_VREF_CHANNEL);
 432:Generated_Source\PSoC5/CapSense.c ****         #if (CapSense_DESIGN_TYPE == CapSense_TWO_CHANNELS_DESIGN)
 433:Generated_Source\PSoC5/CapSense.c ****             CapSense_AMuxCH1_Connect(CapSense_AMuxCH1_VREF_CHANNEL);
 434:Generated_Source\PSoC5/CapSense.c ****         #endif  /* (CapSense_DESIGN_TYPE == CapSense_TWO_CHANNELS_DESIGN) */
 435:Generated_Source\PSoC5/CapSense.c ****         
 436:Generated_Source\PSoC5/CapSense.c ****     #else
 437:Generated_Source\PSoC5/CapSense.c ****         /* Enable CapSense Buf */
 438:Generated_Source\PSoC5/CapSense.c ****         CapSense_BufCH0_CAPS_CFG0_REG |= CapSense_CSBUF_ENABLE;
  65              		.loc 1 438 0
  66 0032 02F5A652 		add	r2, r2, #5312
  67 0036 0732     		adds	r2, r2, #7
  68 0038 1378     		ldrb	r3, [r2]	@ zero_extendqisi2
  69 003a 43F00103 		orr	r3, r3, #1
  70 003e 1370     		strb	r3, [r2]
 439:Generated_Source\PSoC5/CapSense.c ****         
 440:Generated_Source\PSoC5/CapSense.c ****         #if (CapSense_DESIGN_TYPE == CapSense_TWO_CHANNELS_DESIGN)
 441:Generated_Source\PSoC5/CapSense.c ****             CapSense_BufCH1_CAPS_CFG0_REG |= CapSense_CSBUF_ENABLE;
 442:Generated_Source\PSoC5/CapSense.c ****         #endif  /* (CapSense_DESIGN_TYPE == CapSense_TWO_CHANNELS_DESIGN) */
 443:Generated_Source\PSoC5/CapSense.c ****     #endif  /* (CapSense_VREF_VDAC == CapSense_VREF_OPTIONS)*/
ARM GAS  C:\Users\USUARIO\AppData\Local\Temp\ccn1jDSD.s 			page 10


 444:Generated_Source\PSoC5/CapSense.c ****     
 445:Generated_Source\PSoC5/CapSense.c ****     CyExitCriticalSection(enableInterrupts);
  71              		.loc 1 445 0
  72 0040 2046     		mov	r0, r4
  73 0042 FFF7FEFF 		bl	CyExitCriticalSection
  74              	.LVL5:
 446:Generated_Source\PSoC5/CapSense.c ****     
 447:Generated_Source\PSoC5/CapSense.c ****     /* Enable interrupt */
 448:Generated_Source\PSoC5/CapSense.c ****     CyIntEnable(CapSense_IsrCH0_ISR_NUMBER);
  75              		.loc 1 448 0
  76 0046 1022     		movs	r2, #16
  77 0048 054B     		ldr	r3, .L3+8
  78 004a 1A60     		str	r2, [r3]
 449:Generated_Source\PSoC5/CapSense.c ****     #if (CapSense_DESIGN_TYPE == CapSense_TWO_CHANNELS_DESIGN) 
 450:Generated_Source\PSoC5/CapSense.c ****         CyIntEnable(CapSense_IsrCH1_ISR_NUMBER);
 451:Generated_Source\PSoC5/CapSense.c ****     #endif  /* CapSense_DESIGN_TYPE */
 452:Generated_Source\PSoC5/CapSense.c ****     
 453:Generated_Source\PSoC5/CapSense.c ****     /* Set CapSense Enable state */
 454:Generated_Source\PSoC5/CapSense.c ****     CapSense_CONTROL_REG |= CapSense_CTRL_CAPSENSE_EN;
  79              		.loc 1 454 0
  80 004c 054A     		ldr	r2, .L3+12
  81 004e 1378     		ldrb	r3, [r2]	@ zero_extendqisi2
  82 0050 43F08003 		orr	r3, r3, #128
  83 0054 1370     		strb	r3, [r2]
  84 0056 10BD     		pop	{r4, pc}
  85              	.LVL6:
  86              	.L4:
  87              		.align	2
  88              	.L3:
  89 0058 9E640040 		.word	1073767582
  90 005c BB430040 		.word	1073759163
  91 0060 00E100E0 		.word	-536813312
  92 0064 7D640040 		.word	1073767549
  93              		.cfi_endproc
  94              	.LFE1:
  95              		.size	CapSense_Enable, .-CapSense_Enable
  96              		.section	.text.CapSense_FindNextSensor,"ax",%progbits
  97              		.align	2
  98              		.global	CapSense_FindNextSensor
  99              		.thumb
 100              		.thumb_func
 101              		.type	CapSense_FindNextSensor, %function
 102              	CapSense_FindNextSensor:
 103              	.LFB4:
 455:Generated_Source\PSoC5/CapSense.c **** }
 456:Generated_Source\PSoC5/CapSense.c **** 
 457:Generated_Source\PSoC5/CapSense.c **** 
 458:Generated_Source\PSoC5/CapSense.c **** /*******************************************************************************
 459:Generated_Source\PSoC5/CapSense.c **** * Function Name: CapSense_Start
 460:Generated_Source\PSoC5/CapSense.c **** ********************************************************************************
 461:Generated_Source\PSoC5/CapSense.c **** *
 462:Generated_Source\PSoC5/CapSense.c **** * Summary:
 463:Generated_Source\PSoC5/CapSense.c **** *  Initializes registers and starts the CSD method of CapSense component. Reset 
 464:Generated_Source\PSoC5/CapSense.c **** *  all sensors to an inactive state. Enables interrupts for sensors scanning.
 465:Generated_Source\PSoC5/CapSense.c **** *  When Auto Tuning (SmartSense) mode is selected the tuning procedure is 
 466:Generated_Source\PSoC5/CapSense.c **** *  applied for all sensors.
 467:Generated_Source\PSoC5/CapSense.c **** *
ARM GAS  C:\Users\USUARIO\AppData\Local\Temp\ccn1jDSD.s 			page 11


 468:Generated_Source\PSoC5/CapSense.c **** * Parameters:
 469:Generated_Source\PSoC5/CapSense.c **** *  None
 470:Generated_Source\PSoC5/CapSense.c **** *
 471:Generated_Source\PSoC5/CapSense.c **** * Return:
 472:Generated_Source\PSoC5/CapSense.c **** *  None
 473:Generated_Source\PSoC5/CapSense.c **** *
 474:Generated_Source\PSoC5/CapSense.c **** * Global Variables:
 475:Generated_Source\PSoC5/CapSense.c **** *  CapSense_initVar - used to check initial configuration, modified on 
 476:Generated_Source\PSoC5/CapSense.c **** *  first function call.
 477:Generated_Source\PSoC5/CapSense.c **** *  CapSense_lowLevelTuningDone - used to notify the Tuner GUI that 
 478:Generated_Source\PSoC5/CapSense.c **** *  tuning of scanning parameters are done.
 479:Generated_Source\PSoC5/CapSense.c **** *
 480:Generated_Source\PSoC5/CapSense.c **** * Reentrant:
 481:Generated_Source\PSoC5/CapSense.c **** *  No
 482:Generated_Source\PSoC5/CapSense.c **** *
 483:Generated_Source\PSoC5/CapSense.c **** * Note:
 484:Generated_Source\PSoC5/CapSense.c **** *  All widgets are enabled by default except proximity widgets. Proximity widgets 
 485:Generated_Source\PSoC5/CapSense.c **** *  must be manually enabled as their long scan time is incompatible 
 486:Generated_Source\PSoC5/CapSense.c **** *  with the fast response required of other widget types. 
 487:Generated_Source\PSoC5/CapSense.c **** *
 488:Generated_Source\PSoC5/CapSense.c **** *******************************************************************************/
 489:Generated_Source\PSoC5/CapSense.c **** void CapSense_Start(void)  
 490:Generated_Source\PSoC5/CapSense.c **** {
 491:Generated_Source\PSoC5/CapSense.c ****     if (CapSense_initVar == 0u)
 492:Generated_Source\PSoC5/CapSense.c ****     {
 493:Generated_Source\PSoC5/CapSense.c ****         CapSense_Init();
 494:Generated_Source\PSoC5/CapSense.c ****         CapSense_initVar = 1u;
 495:Generated_Source\PSoC5/CapSense.c ****     }
 496:Generated_Source\PSoC5/CapSense.c ****     CapSense_Enable();
 497:Generated_Source\PSoC5/CapSense.c ****     
 498:Generated_Source\PSoC5/CapSense.c ****     /* AutoTunning start */
 499:Generated_Source\PSoC5/CapSense.c ****     #if (CapSense_TUNING_METHOD == CapSense_AUTO_TUNING)
 500:Generated_Source\PSoC5/CapSense.c ****         /* AutoTune by sensor or pair of sensor basis */
 501:Generated_Source\PSoC5/CapSense.c ****         CapSense_AutoTune();
 502:Generated_Source\PSoC5/CapSense.c ****         CapSense_lowLevelTuningDone = 1u;
 503:Generated_Source\PSoC5/CapSense.c ****     #endif /* (CapSense_TUNING_METHOD == CapSense_AUTO_TUNING) */
 504:Generated_Source\PSoC5/CapSense.c **** }
 505:Generated_Source\PSoC5/CapSense.c **** 
 506:Generated_Source\PSoC5/CapSense.c **** 
 507:Generated_Source\PSoC5/CapSense.c **** /*******************************************************************************
 508:Generated_Source\PSoC5/CapSense.c **** * Function Name: CapSense_Stop
 509:Generated_Source\PSoC5/CapSense.c **** ********************************************************************************
 510:Generated_Source\PSoC5/CapSense.c **** *
 511:Generated_Source\PSoC5/CapSense.c **** * Summary:
 512:Generated_Source\PSoC5/CapSense.c **** *  Stops the sensors scanner, disables internal interrupts, and resets all 
 513:Generated_Source\PSoC5/CapSense.c **** *  sensors to an inactive state. Disables Active mode power template bits for 
 514:Generated_Source\PSoC5/CapSense.c **** *  number of component used within CapSense.
 515:Generated_Source\PSoC5/CapSense.c **** *
 516:Generated_Source\PSoC5/CapSense.c **** * Parameters:
 517:Generated_Source\PSoC5/CapSense.c **** *  None
 518:Generated_Source\PSoC5/CapSense.c **** *
 519:Generated_Source\PSoC5/CapSense.c **** * Return:
 520:Generated_Source\PSoC5/CapSense.c **** *  None
 521:Generated_Source\PSoC5/CapSense.c **** *
 522:Generated_Source\PSoC5/CapSense.c **** * Side Effects:
 523:Generated_Source\PSoC5/CapSense.c **** *  This function should be called after scans will be completed.
 524:Generated_Source\PSoC5/CapSense.c **** *
ARM GAS  C:\Users\USUARIO\AppData\Local\Temp\ccn1jDSD.s 			page 12


 525:Generated_Source\PSoC5/CapSense.c **** *******************************************************************************/
 526:Generated_Source\PSoC5/CapSense.c **** void CapSense_Stop(void) 
 527:Generated_Source\PSoC5/CapSense.c **** {
 528:Generated_Source\PSoC5/CapSense.c ****     /* Stop Capsensing */
 529:Generated_Source\PSoC5/CapSense.c ****     CapSense_CONTROL_REG &= (uint8)(~CapSense_CTRL_START);
 530:Generated_Source\PSoC5/CapSense.c ****     
 531:Generated_Source\PSoC5/CapSense.c ****     /* Disable interrupt */
 532:Generated_Source\PSoC5/CapSense.c ****     CyIntDisable(CapSense_IsrCH0_ISR_NUMBER);
 533:Generated_Source\PSoC5/CapSense.c ****     #if (CapSense_DESIGN_TYPE == CapSense_TWO_CHANNELS_DESIGN) 
 534:Generated_Source\PSoC5/CapSense.c ****         CyIntDisable(CapSense_IsrCH1_ISR_NUMBER);
 535:Generated_Source\PSoC5/CapSense.c ****     #endif  /* CapSense_DESIGN_TYPE */
 536:Generated_Source\PSoC5/CapSense.c ****     
 537:Generated_Source\PSoC5/CapSense.c ****     /* Clear all sensors */
 538:Generated_Source\PSoC5/CapSense.c ****     CapSense_ClearSensors();
 539:Generated_Source\PSoC5/CapSense.c ****     
 540:Generated_Source\PSoC5/CapSense.c ****     /* Disable Prescaler */
 541:Generated_Source\PSoC5/CapSense.c ****     #if (CapSense_PRESCALER_OPTIONS == CapSense_PRESCALER_UDB)
 542:Generated_Source\PSoC5/CapSense.c ****         /* Do nothing  for UDB */
 543:Generated_Source\PSoC5/CapSense.c ****     #elif (CapSense_PRESCALER_OPTIONS == CapSense_PRESCALER_FF)        
 544:Generated_Source\PSoC5/CapSense.c ****         CapSense_PRESCALER_ACT_PWRMGR_REG  &= ~CapSense_PRESCALER_ACT_PWR_EN;
 545:Generated_Source\PSoC5/CapSense.c ****         CapSense_PRESCALER_STBY_PWRMGR_REG &= ~CapSense_PRESCALER_STBY_PWR_EN;
 546:Generated_Source\PSoC5/CapSense.c ****         
 547:Generated_Source\PSoC5/CapSense.c ****     #else
 548:Generated_Source\PSoC5/CapSense.c ****         /* Do nothing = config without prescaler */
 549:Generated_Source\PSoC5/CapSense.c ****     #endif  /* (CapSense_PRESCALER_OPTIONS == CapSense_PRESCALER_UDB) */
 550:Generated_Source\PSoC5/CapSense.c ****     
 551:Generated_Source\PSoC5/CapSense.c ****     /* Disable ScanSpeed */
 552:Generated_Source\PSoC5/CapSense.c ****     CapSense_SCANSPEED_AUX_CONTROL_REG &= (uint8)(~CapSense_SCANSPEED_CTRL_ENABLE);
 553:Generated_Source\PSoC5/CapSense.c ****     
 554:Generated_Source\PSoC5/CapSense.c ****     /* Disable Measure CH0 */
 555:Generated_Source\PSoC5/CapSense.c ****     #if (CapSense_IMPLEMENTATION_CH0 == CapSense_MEASURE_IMPLEMENTATION_FF)
 556:Generated_Source\PSoC5/CapSense.c ****         /* Window PWM */
 557:Generated_Source\PSoC5/CapSense.c ****         CapSense_PWM_CH0_ACT_PWRMGR_REG  &= ~CapSense_PWM_CH0_ACT_PWR_EN;
 558:Generated_Source\PSoC5/CapSense.c ****         CapSense_PWM_CH0_STBY_PWRMGR_REG &= ~CapSense_PWM_CH0_STBY_PWR_EN;
 559:Generated_Source\PSoC5/CapSense.c **** 
 560:Generated_Source\PSoC5/CapSense.c ****         /* Raw Counter */
 561:Generated_Source\PSoC5/CapSense.c ****         CapSense_RAW_CH0_ACT_PWRMGR_REG  &= ~CapSense_RAW_CH0_ACT_PWR_EN;
 562:Generated_Source\PSoC5/CapSense.c ****         CapSense_RAW_CH0_STBY_PWRMGR_REG &= ~CapSense_RAW_CH0_STBY_PWR_EN;
 563:Generated_Source\PSoC5/CapSense.c **** 
 564:Generated_Source\PSoC5/CapSense.c ****     #else
 565:Generated_Source\PSoC5/CapSense.c ****         /* Window PWM -  Do nothing */
 566:Generated_Source\PSoC5/CapSense.c ****         /* Raw Counter - Do nothing */
 567:Generated_Source\PSoC5/CapSense.c ****         
 568:Generated_Source\PSoC5/CapSense.c ****     #endif  /* (CapSense_IMPLEMENTATION_CH0 == CapSense_MEASURE_IMPLEMENTATION_FF) */ 
 569:Generated_Source\PSoC5/CapSense.c ****     
 570:Generated_Source\PSoC5/CapSense.c ****     /* Disable Measure CH1 */
 571:Generated_Source\PSoC5/CapSense.c ****     #if (CapSense_DESIGN_TYPE == CapSense_TWO_CHANNELS_DESIGN)
 572:Generated_Source\PSoC5/CapSense.c ****         #if (CapSense_IMPLEMENTATION_CH1 == CapSense_MEASURE_IMPLEMENTATION_FF)
 573:Generated_Source\PSoC5/CapSense.c ****             /* Window PWM */
 574:Generated_Source\PSoC5/CapSense.c ****             CapSense_PWM_CH1_ACT_PWRMGR_REG  &= ~CapSense_PWM_CH1_ACT_PWR_EN;
 575:Generated_Source\PSoC5/CapSense.c ****             CapSense_PWM_CH1_STBY_PWRMGR_REG &= ~CapSense_PWM_CH1_STBY_PWR_EN;
 576:Generated_Source\PSoC5/CapSense.c ****     
 577:Generated_Source\PSoC5/CapSense.c ****             /* Raw Counter */
 578:Generated_Source\PSoC5/CapSense.c ****             CapSense_RAW_CH1_ACT_PWRMGR_REG  &= ~CapSense_RAW_CH1_ACT_PWR_EN;
 579:Generated_Source\PSoC5/CapSense.c ****             CapSense_RAW_CH1_STBY_PWRMGR_REG &= ~CapSense_RAW_CH1_STBY_PWR_EN;
 580:Generated_Source\PSoC5/CapSense.c ****            
 581:Generated_Source\PSoC5/CapSense.c ****         #else
ARM GAS  C:\Users\USUARIO\AppData\Local\Temp\ccn1jDSD.s 			page 13


 582:Generated_Source\PSoC5/CapSense.c ****         /* Window PWM -  Do nothing */
 583:Generated_Source\PSoC5/CapSense.c ****         /* Raw Counter - Do nothing */
 584:Generated_Source\PSoC5/CapSense.c ****         
 585:Generated_Source\PSoC5/CapSense.c ****         #endif  /* (CapSense_IMPLEMENTATION_CH1 == CapSense_MEASURE_IMPLEMENTATION_FF) */
 586:Generated_Source\PSoC5/CapSense.c ****     
 587:Generated_Source\PSoC5/CapSense.c ****     #endif  /* (CapSense_DESIGN_TYPE == TWO_CHANNELS_DESIGN)*/
 588:Generated_Source\PSoC5/CapSense.c ****     
 589:Generated_Source\PSoC5/CapSense.c ****     /* Disable the Clock */
 590:Generated_Source\PSoC5/CapSense.c ****     #if (CapSense_CLOCK_SOURCE == CapSense_INTERNAL_CLOCK)
 591:Generated_Source\PSoC5/CapSense.c ****        CapSense_IntClock_Stop();
 592:Generated_Source\PSoC5/CapSense.c ****     #endif  /* CapSense_CLOCK_SOURCE */
 593:Generated_Source\PSoC5/CapSense.c ****     
 594:Generated_Source\PSoC5/CapSense.c ****     /* Disable power from Cmp and Idac */
 595:Generated_Source\PSoC5/CapSense.c ****     CapSense_CompCH0_Stop();
 596:Generated_Source\PSoC5/CapSense.c ****     #if (CapSense_CURRENT_SOURCE)
 597:Generated_Source\PSoC5/CapSense.c ****         CapSense_IdacCH0_Stop();
 598:Generated_Source\PSoC5/CapSense.c ****     #endif  /* CapSense_CURRENT_SOURCE */
 599:Generated_Source\PSoC5/CapSense.c ****     
 600:Generated_Source\PSoC5/CapSense.c ****     #if (CapSense_DESIGN_TYPE == CapSense_TWO_CHANNELS_DESIGN) 
 601:Generated_Source\PSoC5/CapSense.c ****         CapSense_CompCH1_Stop();
 602:Generated_Source\PSoC5/CapSense.c ****         #if (CapSense_CURRENT_SOURCE)
 603:Generated_Source\PSoC5/CapSense.c ****             CapSense_IdacCH1_Stop();
 604:Generated_Source\PSoC5/CapSense.c ****         #endif  /* CapSense_CURRENT_SOURCE */
 605:Generated_Source\PSoC5/CapSense.c ****     #endif  /* CapSense_DESIGN_TYPE */    
 606:Generated_Source\PSoC5/CapSense.c ****     
 607:Generated_Source\PSoC5/CapSense.c ****     /* Disable Vref if as VDAC */
 608:Generated_Source\PSoC5/CapSense.c ****     #if (CapSense_VREF_OPTIONS == CapSense_VREF_VDAC)
 609:Generated_Source\PSoC5/CapSense.c ****         CapSense_VdacRefCH0_Stop();
 610:Generated_Source\PSoC5/CapSense.c ****         #if (CapSense_DESIGN_TYPE == CapSense_TWO_CHANNELS_DESIGN)
 611:Generated_Source\PSoC5/CapSense.c ****             CapSense_VdacRefCH1_Stop();
 612:Generated_Source\PSoC5/CapSense.c ****         #endif  /* CapSense_DESIGN_TYPE */
 613:Generated_Source\PSoC5/CapSense.c ****     #endif  /* CapSense_VREF_OPTIONS */
 614:Generated_Source\PSoC5/CapSense.c **** 
 615:Generated_Source\PSoC5/CapSense.c ****     #if (CapSense_VREF_VDAC == CapSense_VREF_OPTIONS)
 616:Generated_Source\PSoC5/CapSense.c ****         /* The Idac turn off before */
 617:Generated_Source\PSoC5/CapSense.c ****     #else
 618:Generated_Source\PSoC5/CapSense.c ****         /* Enable CapSense Buf */
 619:Generated_Source\PSoC5/CapSense.c ****         CapSense_BufCH0_CAPS_CFG0_REG &= (uint8)(~CapSense_CSBUF_ENABLE);
 620:Generated_Source\PSoC5/CapSense.c ****         CapSense_BufCH0_ACT_PWRMGR_REG &= (uint8)(~CapSense_BufCH0_ACT_PWR_EN);
 621:Generated_Source\PSoC5/CapSense.c ****         CapSense_BufCH0_STBY_PWRMGR_REG &= (uint8)(~CapSense_BufCH0_STBY_PWR_EN);
 622:Generated_Source\PSoC5/CapSense.c ****         
 623:Generated_Source\PSoC5/CapSense.c ****         #if (CapSense_DESIGN_TYPE == CapSense_TWO_CHANNELS_DESIGN)
 624:Generated_Source\PSoC5/CapSense.c ****             CapSense_BufCH1_CAPS_CFG0_REG &= (uint8)(~CapSense_CSBUF_ENABLE);
 625:Generated_Source\PSoC5/CapSense.c ****             CapSense_BufCH1_ACT_PWRMGR_REG &= (uint8)(~CapSense_BufCH1_ACT_PWR_EN);
 626:Generated_Source\PSoC5/CapSense.c ****             CapSense_BufCH1_STBY_PWRMGR_REG &= (uint8)(~CapSense_BufCH1_STBY_PWR_EN);
 627:Generated_Source\PSoC5/CapSense.c ****         #endif  /*(CapSense_DESIGN_TYPE == CapSense_TWO_CHANNELS_DESIGN) */
 628:Generated_Source\PSoC5/CapSense.c ****     #endif  /* (CapSense_VREF_VDAC == CapSense_VREF_OPTIONS) */
 629:Generated_Source\PSoC5/CapSense.c ****     
 630:Generated_Source\PSoC5/CapSense.c ****     /* Set CapSense Disable state */
 631:Generated_Source\PSoC5/CapSense.c ****     CapSense_CONTROL_REG &= (uint8)(~CapSense_CTRL_CAPSENSE_EN);
 632:Generated_Source\PSoC5/CapSense.c **** }
 633:Generated_Source\PSoC5/CapSense.c **** 
 634:Generated_Source\PSoC5/CapSense.c **** 
 635:Generated_Source\PSoC5/CapSense.c **** #if (CapSense_DESIGN_TYPE == CapSense_ONE_CHANNEL_DESIGN)
 636:Generated_Source\PSoC5/CapSense.c ****     /*******************************************************************************
 637:Generated_Source\PSoC5/CapSense.c ****     * Function Name: CapSense_FindNextSensor
 638:Generated_Source\PSoC5/CapSense.c ****     ********************************************************************************
ARM GAS  C:\Users\USUARIO\AppData\Local\Temp\ccn1jDSD.s 			page 14


 639:Generated_Source\PSoC5/CapSense.c ****     *
 640:Generated_Source\PSoC5/CapSense.c ****     * Summary:
 641:Generated_Source\PSoC5/CapSense.c ****     *  Finds next sensor to scan. 
 642:Generated_Source\PSoC5/CapSense.c ****     *
 643:Generated_Source\PSoC5/CapSense.c ****     * Parameters:
 644:Generated_Source\PSoC5/CapSense.c ****     *  snsIndex:  Current index of sensor.
 645:Generated_Source\PSoC5/CapSense.c ****     *
 646:Generated_Source\PSoC5/CapSense.c ****     * Return:
 647:Generated_Source\PSoC5/CapSense.c ****     *  Returns the next sensor index to scan.
 648:Generated_Source\PSoC5/CapSense.c ****     *
 649:Generated_Source\PSoC5/CapSense.c ****     * Global Variables:
 650:Generated_Source\PSoC5/CapSense.c ****     *  CapSense_sensorEnableMask[ ] - used to store bit masks of enabled 
 651:Generated_Source\PSoC5/CapSense.c ****     *  sensors.
 652:Generated_Source\PSoC5/CapSense.c ****     *  CapSense_sensorEnableMask[0] contains the masked bits for sensors 0
 653:Generated_Source\PSoC5/CapSense.c ****     *  through 7 (sensor 0 is bit 0, sensor 1 is bit 1).
 654:Generated_Source\PSoC5/CapSense.c ****     *  CapSense_sensorEnableMask[1] contains the masked bits for sensors 
 655:Generated_Source\PSoC5/CapSense.c ****     *  8 through 15 (if needed), and so on.
 656:Generated_Source\PSoC5/CapSense.c ****     *    0 - sensor doesn't scan by CapSense_ScanEnabledWidgets().
 657:Generated_Source\PSoC5/CapSense.c ****     *    1 - sensor scans by CapSense_ScanEnabledWidgets().
 658:Generated_Source\PSoC5/CapSense.c ****     *
 659:Generated_Source\PSoC5/CapSense.c ****     * Note: 
 660:Generated_Source\PSoC5/CapSense.c ****     *  This function has effect on current scanning scanning and should not
 661:Generated_Source\PSoC5/CapSense.c ****     *  be used outisde of component.
 662:Generated_Source\PSoC5/CapSense.c ****     *
 663:Generated_Source\PSoC5/CapSense.c ****     *******************************************************************************/
 664:Generated_Source\PSoC5/CapSense.c ****     uint8 CapSense_FindNextSensor(uint8 snsIndex) CYREENTRANT
 665:Generated_Source\PSoC5/CapSense.c ****     {
 104              		.loc 1 665 0
 105              		.cfi_startproc
 106              		@ args = 0, pretend = 0, frame = 0
 107              		@ frame_needed = 0, uses_anonymous_args = 0
 108              		@ link register save eliminated.
 109              	.LVL7:
 110              	.L7:
 666:Generated_Source\PSoC5/CapSense.c ****         uint8 pos;
 667:Generated_Source\PSoC5/CapSense.c ****         uint8 enMask;
 668:Generated_Source\PSoC5/CapSense.c ****         
 669:Generated_Source\PSoC5/CapSense.c ****         /* Check if sensor enabled */
 670:Generated_Source\PSoC5/CapSense.c ****         do
 671:Generated_Source\PSoC5/CapSense.c ****         {
 672:Generated_Source\PSoC5/CapSense.c ****             /* Proceed with the next sensor */
 673:Generated_Source\PSoC5/CapSense.c ****             snsIndex++;
 111              		.loc 1 673 0
 112 0000 0130     		adds	r0, r0, #1
 113 0002 C0B2     		uxtb	r0, r0
 114              	.LVL8:
 674:Generated_Source\PSoC5/CapSense.c ****             if(snsIndex == CapSense_TOTAL_SENSOR_COUNT)
 115              		.loc 1 674 0
 116 0004 0428     		cmp	r0, #4
 117 0006 08D0     		beq	.L6
 675:Generated_Source\PSoC5/CapSense.c ****             {
 676:Generated_Source\PSoC5/CapSense.c ****                 break;
 677:Generated_Source\PSoC5/CapSense.c ****             }
 678:Generated_Source\PSoC5/CapSense.c ****             pos = (snsIndex >> 3u);
 118              		.loc 1 678 0
 119 0008 C208     		lsrs	r2, r0, #3
 679:Generated_Source\PSoC5/CapSense.c ****             enMask = 0x01u << (snsIndex & 0x07u);
ARM GAS  C:\Users\USUARIO\AppData\Local\Temp\ccn1jDSD.s 			page 15


 120              		.loc 1 679 0
 121 000a 00F00701 		and	r1, r0, #7
 122 000e 0123     		movs	r3, #1
 123 0010 8B40     		lsls	r3, r3, r1
 124              	.LVL9:
 680:Generated_Source\PSoC5/CapSense.c ****         }    
 681:Generated_Source\PSoC5/CapSense.c ****         while((CapSense_sensorEnableMask[pos] & enMask) == 0u);
 125              		.loc 1 681 0
 126 0012 0249     		ldr	r1, .L8
 127 0014 8A5C     		ldrb	r2, [r1, r2]	@ zero_extendqisi2
 128 0016 1342     		tst	r3, r2
 129 0018 F2D0     		beq	.L7
 130              	.LVL10:
 131              	.L6:
 682:Generated_Source\PSoC5/CapSense.c ****         
 683:Generated_Source\PSoC5/CapSense.c ****         return snsIndex;
 684:Generated_Source\PSoC5/CapSense.c ****     }
 132              		.loc 1 684 0
 133 001a 7047     		bx	lr
 134              	.L9:
 135              		.align	2
 136              	.L8:
 137 001c 00000000 		.word	.LANCHOR0
 138              		.cfi_endproc
 139              	.LFE4:
 140              		.size	CapSense_FindNextSensor, .-CapSense_FindNextSensor
 141              		.section	.text.CapSense_IsBusy,"ax",%progbits
 142              		.align	2
 143              		.global	CapSense_IsBusy
 144              		.thumb
 145              		.thumb_func
 146              		.type	CapSense_IsBusy, %function
 147              	CapSense_IsBusy:
 148              	.LFB8:
 685:Generated_Source\PSoC5/CapSense.c ****  #endif  /* CapSense_DESIGN_TYPE == CapSense_ONE_CHANNEL_DESIGN */
 686:Generated_Source\PSoC5/CapSense.c ****  
 687:Generated_Source\PSoC5/CapSense.c ****  
 688:Generated_Source\PSoC5/CapSense.c **** #if (CapSense_DESIGN_TYPE == CapSense_TWO_CHANNELS_DESIGN)
 689:Generated_Source\PSoC5/CapSense.c ****     /*******************************************************************************
 690:Generated_Source\PSoC5/CapSense.c ****     * Function Name: CapSense_FindNextPair
 691:Generated_Source\PSoC5/CapSense.c ****     ********************************************************************************
 692:Generated_Source\PSoC5/CapSense.c ****     *
 693:Generated_Source\PSoC5/CapSense.c ****     * Summary:
 694:Generated_Source\PSoC5/CapSense.c ****     *  Finds next pair or sensor to scan. Sets condition bits to skip scanning.
 695:Generated_Source\PSoC5/CapSense.c ****     *  
 696:Generated_Source\PSoC5/CapSense.c ****     * Parameters:
 697:Generated_Source\PSoC5/CapSense.c ****     *  snsIndex:  Current index pair of sensors.
 698:Generated_Source\PSoC5/CapSense.c ****     *
 699:Generated_Source\PSoC5/CapSense.c ****     * Return:
 700:Generated_Source\PSoC5/CapSense.c ****     *  Returns the next pair of sensors index to scan.
 701:Generated_Source\PSoC5/CapSense.c ****     *
 702:Generated_Source\PSoC5/CapSense.c ****     * Global Variables:
 703:Generated_Source\PSoC5/CapSense.c ****     *  CapSense_sensorEnableMask[ ] - used to store bit masks of enabled 
 704:Generated_Source\PSoC5/CapSense.c ****     *  sensors.
 705:Generated_Source\PSoC5/CapSense.c ****     *  CapSense_sensorEnableMask[0] contains the masked bits for sensors 0
 706:Generated_Source\PSoC5/CapSense.c ****     *  through 7 (sensor 0 is bit 0, sensor 1 is bit 1).
 707:Generated_Source\PSoC5/CapSense.c ****     *  CapSense_sensorEnableMask[1] contains the masked bits for sensors 
ARM GAS  C:\Users\USUARIO\AppData\Local\Temp\ccn1jDSD.s 			page 16


 708:Generated_Source\PSoC5/CapSense.c ****     *  8 through 15 (if needed), and so on.
 709:Generated_Source\PSoC5/CapSense.c ****     *    0 - sensor doesn't scan by CapSense_ScanEnabledWidgets().
 710:Generated_Source\PSoC5/CapSense.c ****     *    1 - sensor scans by CapSense_ScanEnabledWidgets().
 711:Generated_Source\PSoC5/CapSense.c ****     *
 712:Generated_Source\PSoC5/CapSense.c ****     * Note: 
 713:Generated_Source\PSoC5/CapSense.c ****     *  This function has effect on control signals set for scanning and should not
 714:Generated_Source\PSoC5/CapSense.c ****     *  be used outisde of component.
 715:Generated_Source\PSoC5/CapSense.c ****     *
 716:Generated_Source\PSoC5/CapSense.c ****     *******************************************************************************/
 717:Generated_Source\PSoC5/CapSense.c ****     uint8 CapSense_FindNextPair(uint8 snsIndex) CYREENTRANT
 718:Generated_Source\PSoC5/CapSense.c ****     {
 719:Generated_Source\PSoC5/CapSense.c ****         uint8 posCh;
 720:Generated_Source\PSoC5/CapSense.c ****         uint8 enMaskCh;
 721:Generated_Source\PSoC5/CapSense.c ****         uint8 newRegValue;
 722:Generated_Source\PSoC5/CapSense.c ****         uint8 indexCh0 = snsIndex;
 723:Generated_Source\PSoC5/CapSense.c ****         uint8 indexCh1 = snsIndex + CapSense_TOTAL_SENSOR_COUNT__CH0;
 724:Generated_Source\PSoC5/CapSense.c ****         
 725:Generated_Source\PSoC5/CapSense.c ****         /* Find enabled sensor on channel 0 */
 726:Generated_Source\PSoC5/CapSense.c ****         do
 727:Generated_Source\PSoC5/CapSense.c ****         {
 728:Generated_Source\PSoC5/CapSense.c ****             /* Procced the scanning */
 729:Generated_Source\PSoC5/CapSense.c ****             indexCh0++;
 730:Generated_Source\PSoC5/CapSense.c ****             if (indexCh0 >= CapSense_TOTAL_SENSOR_COUNT__CH0)
 731:Generated_Source\PSoC5/CapSense.c ****             {
 732:Generated_Source\PSoC5/CapSense.c ****                 /* Lets hadle now all from CH1 */
 733:Generated_Source\PSoC5/CapSense.c ****                 indexCh0 = CapSense_END_OF_SCAN__CH0;
 734:Generated_Source\PSoC5/CapSense.c ****                 break;
 735:Generated_Source\PSoC5/CapSense.c ****             }
 736:Generated_Source\PSoC5/CapSense.c ****             
 737:Generated_Source\PSoC5/CapSense.c ****             posCh = (indexCh0 >> 3u);
 738:Generated_Source\PSoC5/CapSense.c ****             enMaskCh = 0x01u << (indexCh0 & 0x07u);
 739:Generated_Source\PSoC5/CapSense.c ****         }
 740:Generated_Source\PSoC5/CapSense.c ****         while((CapSense_sensorEnableMask[posCh] & enMaskCh) == 0u);
 741:Generated_Source\PSoC5/CapSense.c ****         
 742:Generated_Source\PSoC5/CapSense.c ****         /* Find enabled sensor on channel 1 */
 743:Generated_Source\PSoC5/CapSense.c ****         do
 744:Generated_Source\PSoC5/CapSense.c ****         {
 745:Generated_Source\PSoC5/CapSense.c ****             /* Procced the scanning */
 746:Generated_Source\PSoC5/CapSense.c ****             indexCh1++;        
 747:Generated_Source\PSoC5/CapSense.c ****             if (indexCh1 >= CapSense_TOTAL_SENSOR_COUNT)
 748:Generated_Source\PSoC5/CapSense.c ****             {
 749:Generated_Source\PSoC5/CapSense.c ****                 /* Lets hadle now all from CH0 */
 750:Generated_Source\PSoC5/CapSense.c ****                 indexCh1 = CapSense_END_OF_SCAN__CH1;
 751:Generated_Source\PSoC5/CapSense.c ****                 break;
 752:Generated_Source\PSoC5/CapSense.c ****             }
 753:Generated_Source\PSoC5/CapSense.c ****             
 754:Generated_Source\PSoC5/CapSense.c ****             posCh = (indexCh1 >> 3u);
 755:Generated_Source\PSoC5/CapSense.c ****             enMaskCh = 0x01u << (indexCh1 & 0x07u);
 756:Generated_Source\PSoC5/CapSense.c ****         } 
 757:Generated_Source\PSoC5/CapSense.c ****         while((CapSense_sensorEnableMask[posCh] & enMaskCh) == 0u);
 758:Generated_Source\PSoC5/CapSense.c ****         
 759:Generated_Source\PSoC5/CapSense.c ****         indexCh1 -= CapSense_TOTAL_SENSOR_COUNT__CH0;
 760:Generated_Source\PSoC5/CapSense.c ****         
 761:Generated_Source\PSoC5/CapSense.c ****         /* Find the pair to scan */
 762:Generated_Source\PSoC5/CapSense.c ****         if(indexCh0 == indexCh1)
 763:Generated_Source\PSoC5/CapSense.c ****         {
 764:Generated_Source\PSoC5/CapSense.c ****             /* Scans TWO Channels */
ARM GAS  C:\Users\USUARIO\AppData\Local\Temp\ccn1jDSD.s 			page 17


 765:Generated_Source\PSoC5/CapSense.c ****             snsIndex = indexCh0;
 766:Generated_Source\PSoC5/CapSense.c ****             
 767:Generated_Source\PSoC5/CapSense.c ****             CapSense_CONTROL_REG |= (CapSense_CTRL_WINDOW_EN__CH0 | 
 768:Generated_Source\PSoC5/CapSense.c ****                                              CapSense_CTRL_WINDOW_EN__CH1);
 769:Generated_Source\PSoC5/CapSense.c ****         }
 770:Generated_Source\PSoC5/CapSense.c ****         else if(indexCh0 < indexCh1)
 771:Generated_Source\PSoC5/CapSense.c ****         {
 772:Generated_Source\PSoC5/CapSense.c ****            /* Scans Channel ONE only */
 773:Generated_Source\PSoC5/CapSense.c ****            snsIndex = indexCh0;
 774:Generated_Source\PSoC5/CapSense.c ****            
 775:Generated_Source\PSoC5/CapSense.c ****             newRegValue = CapSense_CONTROL_REG;
 776:Generated_Source\PSoC5/CapSense.c ****             newRegValue |= CapSense_CTRL_WINDOW_EN__CH0;
 777:Generated_Source\PSoC5/CapSense.c ****             newRegValue &= ~CapSense_CTRL_WINDOW_EN__CH1;
 778:Generated_Source\PSoC5/CapSense.c ****             CapSense_CONTROL_REG = newRegValue;
 779:Generated_Source\PSoC5/CapSense.c ****         }
 780:Generated_Source\PSoC5/CapSense.c ****         else
 781:Generated_Source\PSoC5/CapSense.c ****         {
 782:Generated_Source\PSoC5/CapSense.c ****             /* Scans Channel TWO only */
 783:Generated_Source\PSoC5/CapSense.c ****             snsIndex = indexCh1;
 784:Generated_Source\PSoC5/CapSense.c ****             
 785:Generated_Source\PSoC5/CapSense.c ****             newRegValue = CapSense_CONTROL_REG;
 786:Generated_Source\PSoC5/CapSense.c ****             newRegValue |= CapSense_CTRL_WINDOW_EN__CH1;
 787:Generated_Source\PSoC5/CapSense.c ****             newRegValue &= ~CapSense_CTRL_WINDOW_EN__CH0;
 788:Generated_Source\PSoC5/CapSense.c ****             CapSense_CONTROL_REG = newRegValue;
 789:Generated_Source\PSoC5/CapSense.c ****         }
 790:Generated_Source\PSoC5/CapSense.c ****         
 791:Generated_Source\PSoC5/CapSense.c ****         return (snsIndex);
 792:Generated_Source\PSoC5/CapSense.c ****     }
 793:Generated_Source\PSoC5/CapSense.c **** #endif  /* CapSense_DESIGN_TYPE == CapSense_TWO_CHANNELS_DESIGN */
 794:Generated_Source\PSoC5/CapSense.c **** 
 795:Generated_Source\PSoC5/CapSense.c **** 
 796:Generated_Source\PSoC5/CapSense.c **** /*******************************************************************************
 797:Generated_Source\PSoC5/CapSense.c **** * Function Name: CapSense_SetScanSlotSettings
 798:Generated_Source\PSoC5/CapSense.c **** ********************************************************************************
 799:Generated_Source\PSoC5/CapSense.c **** *
 800:Generated_Source\PSoC5/CapSense.c **** * Summary:
 801:Generated_Source\PSoC5/CapSense.c **** *  Sets the scan settings of the selected scan slot (sensor or pair of sensors). 
 802:Generated_Source\PSoC5/CapSense.c **** *  The scan settings incorporate IDAC value (for IDAC configurations) for every 
 803:Generated_Source\PSoC5/CapSense.c **** *  sensor and resolution. The resolution is the same for all sensors within 
 804:Generated_Source\PSoC5/CapSense.c **** *  widget.
 805:Generated_Source\PSoC5/CapSense.c **** *
 806:Generated_Source\PSoC5/CapSense.c **** * Parameters:
 807:Generated_Source\PSoC5/CapSense.c **** *  slot:  Scan slot number (sensor or pair of sensors).
 808:Generated_Source\PSoC5/CapSense.c **** *
 809:Generated_Source\PSoC5/CapSense.c **** * Return:
 810:Generated_Source\PSoC5/CapSense.c **** *  None
 811:Generated_Source\PSoC5/CapSense.c **** *
 812:Generated_Source\PSoC5/CapSense.c **** * Global Variables:
 813:Generated_Source\PSoC5/CapSense.c **** *  CapSense_idacSettings[] - used to store idac value for every sensor.
 814:Generated_Source\PSoC5/CapSense.c **** *  CapSense_widgetResolution[] - used to store scan resolution of every 
 815:Generated_Source\PSoC5/CapSense.c **** *  widget.
 816:Generated_Source\PSoC5/CapSense.c **** *
 817:Generated_Source\PSoC5/CapSense.c **** *******************************************************************************/
 818:Generated_Source\PSoC5/CapSense.c **** void CapSense_SetScanSlotSettings(uint8 slot) CYREENTRANT
 819:Generated_Source\PSoC5/CapSense.c **** {
 820:Generated_Source\PSoC5/CapSense.c ****     uint8 widget;
 821:Generated_Source\PSoC5/CapSense.c ****     
ARM GAS  C:\Users\USUARIO\AppData\Local\Temp\ccn1jDSD.s 			page 18


 822:Generated_Source\PSoC5/CapSense.c ****     #if (CapSense_DESIGN_TYPE == CapSense_ONE_CHANNEL_DESIGN)
 823:Generated_Source\PSoC5/CapSense.c ****         /* Define widget sensor belongs to */
 824:Generated_Source\PSoC5/CapSense.c ****         widget = CapSense_widgetNumber[slot];
 825:Generated_Source\PSoC5/CapSense.c ****         
 826:Generated_Source\PSoC5/CapSense.c ****         /* Set Idac Value */
 827:Generated_Source\PSoC5/CapSense.c ****         #if (CapSense_CURRENT_SOURCE)
 828:Generated_Source\PSoC5/CapSense.c ****             CapSense_IdacCH0_SetValue(CapSense_idacSettings[slot]);
 829:Generated_Source\PSoC5/CapSense.c ****         #endif  /* CapSense_CURRENT_SOURCE */
 830:Generated_Source\PSoC5/CapSense.c ****         
 831:Generated_Source\PSoC5/CapSense.c ****         /* Window PWM */
 832:Generated_Source\PSoC5/CapSense.c ****         #if (CapSense_IMPLEMENTATION_CH0 == CapSense_MEASURE_IMPLEMENTATION_FF)
 833:Generated_Source\PSoC5/CapSense.c ****             CY_SET_REG16(CapSense_PWM_CH0_PERIOD_PTR,
 834:Generated_Source\PSoC5/CapSense.c ****                 ((uint16) CapSense_widgetResolution[widget] << 8u) | CapSense_MEASURE_FULL_RANGE_LO
 835:Generated_Source\PSoC5/CapSense.c ****         #else
 836:Generated_Source\PSoC5/CapSense.c ****             CapSense_PWM_CH0_PERIOD_HI_REG = CapSense_widgetResolution[widget];
 837:Generated_Source\PSoC5/CapSense.c ****         #endif  /* (CapSense_IMPLEMENTATION_CH0 == CapSense_MEASURE_IMPLEMENTATION_FF) */ 
 838:Generated_Source\PSoC5/CapSense.c **** 
 839:Generated_Source\PSoC5/CapSense.c ****         #if ( (CapSense_MULTIPLE_PRESCALER_ENABLED) || \
 840:Generated_Source\PSoC5/CapSense.c ****               (CapSense_TUNING_METHOD == CapSense_AUTO_TUNING) )
 841:Generated_Source\PSoC5/CapSense.c ****             CapSense_SetPrescaler(CapSense_analogSwitchDivider[slot]);
 842:Generated_Source\PSoC5/CapSense.c ****         #elif (CapSense_PRESCALER_OPTIONS)
 843:Generated_Source\PSoC5/CapSense.c ****             CapSense_SetPrescaler(CapSense_analogSwitchDivider);
 844:Generated_Source\PSoC5/CapSense.c ****         #endif /* ((CapSense_MULTIPLE_PRESCALER_ENABLED) || \
 845:Generated_Source\PSoC5/CapSense.c ****                *   (CapSense_TUNING_METHOD == CapSense_AUTO_TUNING))
 846:Generated_Source\PSoC5/CapSense.c ****                */
 847:Generated_Source\PSoC5/CapSense.c **** 
 848:Generated_Source\PSoC5/CapSense.c ****     #else
 849:Generated_Source\PSoC5/CapSense.c ****         if(slot < CapSense_TOTAL_SENSOR_COUNT__CH0)
 850:Generated_Source\PSoC5/CapSense.c ****         {
 851:Generated_Source\PSoC5/CapSense.c ****             /* Define widget sensor belongs to */
 852:Generated_Source\PSoC5/CapSense.c ****             widget = CapSense_widgetNumber[slot];
 853:Generated_Source\PSoC5/CapSense.c ****             
 854:Generated_Source\PSoC5/CapSense.c ****             /* Set Idac Value */
 855:Generated_Source\PSoC5/CapSense.c ****             #if (CapSense_CURRENT_SOURCE)
 856:Generated_Source\PSoC5/CapSense.c ****                 CapSense_IdacCH0_SetValue(CapSense_idacSettings[slot]);
 857:Generated_Source\PSoC5/CapSense.c ****             #endif  /* CapSense_CURRENT_SOURCE */
 858:Generated_Source\PSoC5/CapSense.c ****             
 859:Generated_Source\PSoC5/CapSense.c ****             /* Set Pwm Resolution */
 860:Generated_Source\PSoC5/CapSense.c ****             #if (CapSense_IMPLEMENTATION_CH0 == CapSense_MEASURE_IMPLEMENTATION_FF)
 861:Generated_Source\PSoC5/CapSense.c ****                 CY_SET_REG16(CapSense_PWM_CH0_PERIOD_PTR,
 862:Generated_Source\PSoC5/CapSense.c ****                   ((uint16) CapSense_widgetResolution[widget] << 8u) | CapSense_MEASURE_FULL_RANGE_
 863:Generated_Source\PSoC5/CapSense.c ****             #else
 864:Generated_Source\PSoC5/CapSense.c ****                 CapSense_PWM_CH0_PERIOD_HI_REG = CapSense_widgetResolution[widget];
 865:Generated_Source\PSoC5/CapSense.c ****             #endif  /* (CapSense_IMPLEMENTATION_CH0 == CapSense_MEASURE_IMPLEMENTATION_FF)*/ 
 866:Generated_Source\PSoC5/CapSense.c ****         }
 867:Generated_Source\PSoC5/CapSense.c ****         
 868:Generated_Source\PSoC5/CapSense.c ****         if(slot < CapSense_TOTAL_SENSOR_COUNT__CH1)
 869:Generated_Source\PSoC5/CapSense.c ****         {
 870:Generated_Source\PSoC5/CapSense.c ****             widget = CapSense_widgetNumber[slot+CapSense_TOTAL_SENSOR_COUNT__CH0];
 871:Generated_Source\PSoC5/CapSense.c ****         
 872:Generated_Source\PSoC5/CapSense.c ****             /* Set Idac Value */
 873:Generated_Source\PSoC5/CapSense.c ****             #if (CapSense_CURRENT_SOURCE)
 874:Generated_Source\PSoC5/CapSense.c ****                 CapSense_IdacCH1_SetValue(CapSense_idacSettings[slot+
 875:Generated_Source\PSoC5/CapSense.c ****                                                                              CapSense_TOTAL_SENSOR_
 876:Generated_Source\PSoC5/CapSense.c ****             #endif  /* CapSense_CURRENT_SOURCE */
 877:Generated_Source\PSoC5/CapSense.c ****             
 878:Generated_Source\PSoC5/CapSense.c ****             /* Set Pwm Resolution */
ARM GAS  C:\Users\USUARIO\AppData\Local\Temp\ccn1jDSD.s 			page 19


 879:Generated_Source\PSoC5/CapSense.c ****             #if (CapSense_IMPLEMENTATION_CH1 == CapSense_MEASURE_IMPLEMENTATION_FF)
 880:Generated_Source\PSoC5/CapSense.c ****                 CY_SET_REG16(CapSense_PWM_CH1_PERIOD_PTR,
 881:Generated_Source\PSoC5/CapSense.c ****                   ((uint16) CapSense_widgetResolution[widget] << 8u) | CapSense_MEASURE_FULL_RANGE_
 882:Generated_Source\PSoC5/CapSense.c ****             #else
 883:Generated_Source\PSoC5/CapSense.c ****                 CapSense_PWM_CH1_PERIOD_HI_REG = CapSense_widgetResolution[widget];
 884:Generated_Source\PSoC5/CapSense.c ****             #endif  /* (CapSense_IMPLEMENTATION_CH1 == CapSense_MEASURE_IMPLEMENTATION_FF)*/ 
 885:Generated_Source\PSoC5/CapSense.c ****         }
 886:Generated_Source\PSoC5/CapSense.c **** 
 887:Generated_Source\PSoC5/CapSense.c ****         #if ( (CapSense_MULTIPLE_PRESCALER_ENABLED) || \
 888:Generated_Source\PSoC5/CapSense.c ****               (CapSense_TUNING_METHOD == CapSense_AUTO_TUNING) )
 889:Generated_Source\PSoC5/CapSense.c ****             CapSense_SetPrescaler(CapSense_analogSwitchDivider[slot]);
 890:Generated_Source\PSoC5/CapSense.c ****         #elif (CapSense_PRESCALER_OPTIONS)
 891:Generated_Source\PSoC5/CapSense.c ****             CapSense_SetPrescaler(CapSense_analogSwitchDivider);
 892:Generated_Source\PSoC5/CapSense.c ****         #endif /* ((CapSense_MULTIPLE_PRESCALER_ENABLED) || \
 893:Generated_Source\PSoC5/CapSense.c ****                *   (CapSense_TUNING_METHOD == CapSense_AUTO_TUNING))
 894:Generated_Source\PSoC5/CapSense.c ****                */
 895:Generated_Source\PSoC5/CapSense.c **** 
 896:Generated_Source\PSoC5/CapSense.c ****     #endif  /* CapSense_DESIGN_TYPE */
 897:Generated_Source\PSoC5/CapSense.c **** }
 898:Generated_Source\PSoC5/CapSense.c **** 
 899:Generated_Source\PSoC5/CapSense.c **** 
 900:Generated_Source\PSoC5/CapSense.c **** /*******************************************************************************
 901:Generated_Source\PSoC5/CapSense.c **** * Function Name: CapSense_ScanSensor
 902:Generated_Source\PSoC5/CapSense.c **** ********************************************************************************
 903:Generated_Source\PSoC5/CapSense.c **** *
 904:Generated_Source\PSoC5/CapSense.c **** * Summary:
 905:Generated_Source\PSoC5/CapSense.c **** *  Sets scan settings and starts scanning a sensor or pair of combined sensors
 906:Generated_Source\PSoC5/CapSense.c **** *  on each channel. If two channels are configured, two sensors may be scanned 
 907:Generated_Source\PSoC5/CapSense.c **** *  at the same time. After scanning is complete the isr copies the measured 
 908:Generated_Source\PSoC5/CapSense.c **** *  sensor raw data to the global array. Use of the isr ensures this function 
 909:Generated_Source\PSoC5/CapSense.c **** *  is non-blocking. Each sensor has a unique number within the sensor array. 
 910:Generated_Source\PSoC5/CapSense.c **** *  This number is assigned by the CapSense customizer in sequence.
 911:Generated_Source\PSoC5/CapSense.c **** *
 912:Generated_Source\PSoC5/CapSense.c **** * Parameters:
 913:Generated_Source\PSoC5/CapSense.c **** *  sensor:  Sensor number.
 914:Generated_Source\PSoC5/CapSense.c **** *
 915:Generated_Source\PSoC5/CapSense.c **** * Return:
 916:Generated_Source\PSoC5/CapSense.c **** *  None
 917:Generated_Source\PSoC5/CapSense.c **** *
 918:Generated_Source\PSoC5/CapSense.c **** * Global Variables:
 919:Generated_Source\PSoC5/CapSense.c **** *  CapSense_csv - used to provide status and mode of scanning process. 
 920:Generated_Source\PSoC5/CapSense.c **** *  Sets busy status(scan in progress) and mode of scan as single scan.
 921:Generated_Source\PSoC5/CapSense.c **** *  For two channel design the additional bits are set to define if scan a 
 922:Generated_Source\PSoC5/CapSense.c **** *  pair of sensors or single one.
 923:Generated_Source\PSoC5/CapSense.c **** *  CapSense_sensorIndex - used to store sensor scanning sensor number.
 924:Generated_Source\PSoC5/CapSense.c **** *  Sets to provided sensor argument.
 925:Generated_Source\PSoC5/CapSense.c **** *
 926:Generated_Source\PSoC5/CapSense.c **** * Reentrant:
 927:Generated_Source\PSoC5/CapSense.c **** *  No
 928:Generated_Source\PSoC5/CapSense.c **** *
 929:Generated_Source\PSoC5/CapSense.c **** *******************************************************************************/
 930:Generated_Source\PSoC5/CapSense.c **** void CapSense_ScanSensor(uint8 sensor)  
 931:Generated_Source\PSoC5/CapSense.c **** {
 932:Generated_Source\PSoC5/CapSense.c ****     /* Clears status/control variable and set sensorIndex */
 933:Generated_Source\PSoC5/CapSense.c ****     CapSense_csv = 0u;
 934:Generated_Source\PSoC5/CapSense.c ****     CapSense_sensorIndex = sensor;
 935:Generated_Source\PSoC5/CapSense.c ****     
ARM GAS  C:\Users\USUARIO\AppData\Local\Temp\ccn1jDSD.s 			page 20


 936:Generated_Source\PSoC5/CapSense.c ****     #if (CapSense_DESIGN_TYPE == CapSense_ONE_CHANNEL_DESIGN)
 937:Generated_Source\PSoC5/CapSense.c ****         /* Start of sensor scan */
 938:Generated_Source\PSoC5/CapSense.c ****         CapSense_csv = (CapSense_SW_STS_BUSY | CapSense_SW_CTRL_SINGLE_SCAN);
 939:Generated_Source\PSoC5/CapSense.c ****         CapSense_PreScan(sensor);
 940:Generated_Source\PSoC5/CapSense.c ****         
 941:Generated_Source\PSoC5/CapSense.c ****     #else
 942:Generated_Source\PSoC5/CapSense.c ****         /* CH0: check end of scan conditions */
 943:Generated_Source\PSoC5/CapSense.c ****         if(sensor < CapSense_TOTAL_SENSOR_COUNT__CH0)
 944:Generated_Source\PSoC5/CapSense.c ****         {
 945:Generated_Source\PSoC5/CapSense.c ****             CapSense_CONTROL_REG |= CapSense_CTRL_WINDOW_EN__CH0;
 946:Generated_Source\PSoC5/CapSense.c ****         }
 947:Generated_Source\PSoC5/CapSense.c ****         else
 948:Generated_Source\PSoC5/CapSense.c ****         {
 949:Generated_Source\PSoC5/CapSense.c ****             CapSense_CONTROL_REG &= ~CapSense_CTRL_WINDOW_EN__CH0;
 950:Generated_Source\PSoC5/CapSense.c ****         }
 951:Generated_Source\PSoC5/CapSense.c ****         
 952:Generated_Source\PSoC5/CapSense.c ****         /* CH1: check end of scan conditions */
 953:Generated_Source\PSoC5/CapSense.c ****         if(sensor < CapSense_TOTAL_SENSOR_COUNT__CH1)
 954:Generated_Source\PSoC5/CapSense.c ****         {
 955:Generated_Source\PSoC5/CapSense.c ****             CapSense_CONTROL_REG |= CapSense_CTRL_WINDOW_EN__CH1;
 956:Generated_Source\PSoC5/CapSense.c ****         }
 957:Generated_Source\PSoC5/CapSense.c ****         else
 958:Generated_Source\PSoC5/CapSense.c ****         {
 959:Generated_Source\PSoC5/CapSense.c ****             CapSense_CONTROL_REG &= ~CapSense_CTRL_WINDOW_EN__CH1;
 960:Generated_Source\PSoC5/CapSense.c ****         }
 961:Generated_Source\PSoC5/CapSense.c ****         
 962:Generated_Source\PSoC5/CapSense.c ****         /* Start sensor scan */
 963:Generated_Source\PSoC5/CapSense.c ****         if( ((CapSense_CONTROL_REG & CapSense_CTRL_WINDOW_EN__CH0) != 0u) || 
 964:Generated_Source\PSoC5/CapSense.c ****             ((CapSense_CONTROL_REG & CapSense_CTRL_WINDOW_EN__CH1) != 0u) )
 965:Generated_Source\PSoC5/CapSense.c ****         {
 966:Generated_Source\PSoC5/CapSense.c ****         
 967:Generated_Source\PSoC5/CapSense.c ****             CapSense_csv |= (CapSense_SW_STS_BUSY | CapSense_SW_CTRL_SINGLE_SCAN);
 968:Generated_Source\PSoC5/CapSense.c ****             CapSense_PreScan(sensor);
 969:Generated_Source\PSoC5/CapSense.c ****         }
 970:Generated_Source\PSoC5/CapSense.c ****         
 971:Generated_Source\PSoC5/CapSense.c ****     #endif  /* CapSense_DESIGN_TYPE */
 972:Generated_Source\PSoC5/CapSense.c **** }
 973:Generated_Source\PSoC5/CapSense.c **** 
 974:Generated_Source\PSoC5/CapSense.c **** 
 975:Generated_Source\PSoC5/CapSense.c **** /*******************************************************************************
 976:Generated_Source\PSoC5/CapSense.c **** * Function Name: CapSense_ScanEnableWidgets
 977:Generated_Source\PSoC5/CapSense.c **** ********************************************************************************
 978:Generated_Source\PSoC5/CapSense.c **** *
 979:Generated_Source\PSoC5/CapSense.c **** * Summary:
 980:Generated_Source\PSoC5/CapSense.c **** *  Scans all of the enabled widgets. Starts scanning a sensor or pair of sensors 
 981:Generated_Source\PSoC5/CapSense.c **** *  within enabled widget. The isr proceeding scanning next sensor or pair till 
 982:Generated_Source\PSoC5/CapSense.c **** *  all enabled widgets will be scanned. Use of the isr ensures this function is 
 983:Generated_Source\PSoC5/CapSense.c **** *  non-blocking. All widgets are enabled by default except proximity widgets. 
 984:Generated_Source\PSoC5/CapSense.c **** *  Proximity widgets must be manually enabled as their long scan time is 
 985:Generated_Source\PSoC5/CapSense.c **** *  incompatible with fast response desired of other widget types.
 986:Generated_Source\PSoC5/CapSense.c **** *
 987:Generated_Source\PSoC5/CapSense.c **** * Parameters:
 988:Generated_Source\PSoC5/CapSense.c **** *  None
 989:Generated_Source\PSoC5/CapSense.c **** *
 990:Generated_Source\PSoC5/CapSense.c **** * Return:
 991:Generated_Source\PSoC5/CapSense.c **** *  None
 992:Generated_Source\PSoC5/CapSense.c **** *
ARM GAS  C:\Users\USUARIO\AppData\Local\Temp\ccn1jDSD.s 			page 21


 993:Generated_Source\PSoC5/CapSense.c **** * Global Variables:
 994:Generated_Source\PSoC5/CapSense.c **** *  CapSense_csv - used to provide status and mode of scanning process. 
 995:Generated_Source\PSoC5/CapSense.c **** *  Sets busy status(scan in progress) and clears single scan mode.
 996:Generated_Source\PSoC5/CapSense.c **** *  For two channel design the additional bits are set to define if scan a 
 997:Generated_Source\PSoC5/CapSense.c **** *  pair of sensors or single one. 
 998:Generated_Source\PSoC5/CapSense.c **** *  CapSense_sensorIndex - used to store sensor scanning sensor number.
 999:Generated_Source\PSoC5/CapSense.c **** *  Sets to 0xFF and provided to function CapSense_FindNextSensor or
1000:Generated_Source\PSoC5/CapSense.c **** *  CapSense_FindNextPair, these functions starts with sensor index
1001:Generated_Source\PSoC5/CapSense.c **** *  increment and overflow of uint8 gives desired index 0.
1002:Generated_Source\PSoC5/CapSense.c **** *
1003:Generated_Source\PSoC5/CapSense.c **** * Reentrant:
1004:Generated_Source\PSoC5/CapSense.c **** *  No
1005:Generated_Source\PSoC5/CapSense.c **** *
1006:Generated_Source\PSoC5/CapSense.c **** *******************************************************************************/
1007:Generated_Source\PSoC5/CapSense.c **** void CapSense_ScanEnabledWidgets(void) 
1008:Generated_Source\PSoC5/CapSense.c **** {
1009:Generated_Source\PSoC5/CapSense.c ****     /* Clears status/control variable and set sensorIndex */
1010:Generated_Source\PSoC5/CapSense.c ****     CapSense_csv = 0u;
1011:Generated_Source\PSoC5/CapSense.c ****     CapSense_sensorIndex = 0xFFu;
1012:Generated_Source\PSoC5/CapSense.c ****     
1013:Generated_Source\PSoC5/CapSense.c ****     #if (CapSense_DESIGN_TYPE == CapSense_ONE_CHANNEL_DESIGN)
1014:Generated_Source\PSoC5/CapSense.c ****         /* Find next sensor */
1015:Generated_Source\PSoC5/CapSense.c ****         CapSense_sensorIndex = CapSense_FindNextSensor(CapSense_sensorIndex);
1016:Generated_Source\PSoC5/CapSense.c **** 
1017:Generated_Source\PSoC5/CapSense.c ****         /* Check end of scan condition */
1018:Generated_Source\PSoC5/CapSense.c ****         if(CapSense_sensorIndex < CapSense_TOTAL_SENSOR_COUNT)
1019:Generated_Source\PSoC5/CapSense.c ****         {
1020:Generated_Source\PSoC5/CapSense.c ****             CapSense_csv |= CapSense_SW_STS_BUSY;
1021:Generated_Source\PSoC5/CapSense.c ****             CapSense_PreScan(CapSense_sensorIndex);
1022:Generated_Source\PSoC5/CapSense.c ****         }
1023:Generated_Source\PSoC5/CapSense.c ****         
1024:Generated_Source\PSoC5/CapSense.c ****     #else
1025:Generated_Source\PSoC5/CapSense.c ****         /* Find next sensor and set proper control register */
1026:Generated_Source\PSoC5/CapSense.c ****         CapSense_sensorIndex = CapSense_FindNextPair(CapSense_sensorIndex);
1027:Generated_Source\PSoC5/CapSense.c ****         
1028:Generated_Source\PSoC5/CapSense.c ****         /* Start sensor scan */
1029:Generated_Source\PSoC5/CapSense.c ****         if((CapSense_sensorIndex < CapSense_TOTAL_SENSOR_COUNT__CH0) || 
1030:Generated_Source\PSoC5/CapSense.c ****            (CapSense_sensorIndex < CapSense_TOTAL_SENSOR_COUNT__CH1))
1031:Generated_Source\PSoC5/CapSense.c ****         {
1032:Generated_Source\PSoC5/CapSense.c ****             CapSense_csv |= CapSense_SW_STS_BUSY;
1033:Generated_Source\PSoC5/CapSense.c ****             CapSense_PreScan(CapSense_sensorIndex);
1034:Generated_Source\PSoC5/CapSense.c ****         }
1035:Generated_Source\PSoC5/CapSense.c ****         
1036:Generated_Source\PSoC5/CapSense.c ****     #endif  /* CapSense_DESIGN_TYPE */
1037:Generated_Source\PSoC5/CapSense.c **** }
1038:Generated_Source\PSoC5/CapSense.c **** 
1039:Generated_Source\PSoC5/CapSense.c **** 
1040:Generated_Source\PSoC5/CapSense.c **** /*******************************************************************************
1041:Generated_Source\PSoC5/CapSense.c **** * Function Name: CapSense_IsBusy
1042:Generated_Source\PSoC5/CapSense.c **** ********************************************************************************
1043:Generated_Source\PSoC5/CapSense.c **** *
1044:Generated_Source\PSoC5/CapSense.c **** * Summary:
1045:Generated_Source\PSoC5/CapSense.c **** *  Returns the state of CapSense component. The 1 means that scanning in 
1046:Generated_Source\PSoC5/CapSense.c **** *  progress and 0 means that scanning is complete.
1047:Generated_Source\PSoC5/CapSense.c **** *
1048:Generated_Source\PSoC5/CapSense.c **** * Parameters:
1049:Generated_Source\PSoC5/CapSense.c **** *  None
ARM GAS  C:\Users\USUARIO\AppData\Local\Temp\ccn1jDSD.s 			page 22


1050:Generated_Source\PSoC5/CapSense.c **** *
1051:Generated_Source\PSoC5/CapSense.c **** * Return:
1052:Generated_Source\PSoC5/CapSense.c **** *  Returns the state of scanning. 1 - scanning in progress, 0 - scanning 
1053:Generated_Source\PSoC5/CapSense.c **** *  completed.
1054:Generated_Source\PSoC5/CapSense.c **** *
1055:Generated_Source\PSoC5/CapSense.c **** * Global Variables:
1056:Generated_Source\PSoC5/CapSense.c **** *  CapSense_csv - used to provide status and mode of scanning process. 
1057:Generated_Source\PSoC5/CapSense.c **** *  Checks the busy status.
1058:Generated_Source\PSoC5/CapSense.c **** *
1059:Generated_Source\PSoC5/CapSense.c **** *******************************************************************************/
1060:Generated_Source\PSoC5/CapSense.c **** uint8 CapSense_IsBusy(void) 
1061:Generated_Source\PSoC5/CapSense.c **** {
 149              		.loc 1 1061 0
 150              		.cfi_startproc
 151              		@ args = 0, pretend = 0, frame = 0
 152              		@ frame_needed = 0, uses_anonymous_args = 0
 153              		@ link register save eliminated.
1062:Generated_Source\PSoC5/CapSense.c ****     return ((0u != (CapSense_csv & CapSense_SW_STS_BUSY)) ? 1u : 0u);
 154              		.loc 1 1062 0
 155 0000 024B     		ldr	r3, .L11
 156 0002 1878     		ldrb	r0, [r3]	@ zero_extendqisi2
1063:Generated_Source\PSoC5/CapSense.c **** }
 157              		.loc 1 1063 0
 158 0004 00F00100 		and	r0, r0, #1
 159 0008 7047     		bx	lr
 160              	.L12:
 161 000a 00BF     		.align	2
 162              	.L11:
 163 000c 00000000 		.word	CapSense_csv
 164              		.cfi_endproc
 165              	.LFE8:
 166              		.size	CapSense_IsBusy, .-CapSense_IsBusy
 167              		.section	.text.CapSense_ReadSensorRaw,"ax",%progbits
 168              		.align	2
 169              		.global	CapSense_ReadSensorRaw
 170              		.thumb
 171              		.thumb_func
 172              		.type	CapSense_ReadSensorRaw, %function
 173              	CapSense_ReadSensorRaw:
 174              	.LFB9:
1064:Generated_Source\PSoC5/CapSense.c **** 
1065:Generated_Source\PSoC5/CapSense.c **** 
1066:Generated_Source\PSoC5/CapSense.c **** /*******************************************************************************
1067:Generated_Source\PSoC5/CapSense.c **** * Function Name: CapSense_ReadSensorRaw
1068:Generated_Source\PSoC5/CapSense.c **** ********************************************************************************
1069:Generated_Source\PSoC5/CapSense.c **** *
1070:Generated_Source\PSoC5/CapSense.c **** * Summary:
1071:Generated_Source\PSoC5/CapSense.c **** *  Returns scan sensor raw data from the CapSense_sensorRaw[] array. 
1072:Generated_Source\PSoC5/CapSense.c **** *  Each scan sensor has a unique number within the sensor array. This number 
1073:Generated_Source\PSoC5/CapSense.c **** *  is assigned by the CapSense customizer in sequence.
1074:Generated_Source\PSoC5/CapSense.c **** *
1075:Generated_Source\PSoC5/CapSense.c **** * Parameters:
1076:Generated_Source\PSoC5/CapSense.c **** *  sensor:  Sensor number.
1077:Generated_Source\PSoC5/CapSense.c **** *
1078:Generated_Source\PSoC5/CapSense.c **** * Return:
1079:Generated_Source\PSoC5/CapSense.c **** *  Returns current raw data value for defined sensor number.
1080:Generated_Source\PSoC5/CapSense.c **** *
ARM GAS  C:\Users\USUARIO\AppData\Local\Temp\ccn1jDSD.s 			page 23


1081:Generated_Source\PSoC5/CapSense.c **** * Global Variables:
1082:Generated_Source\PSoC5/CapSense.c **** *  CapSense_sensorRaw[] - used to store sensors raw data.
1083:Generated_Source\PSoC5/CapSense.c **** *
1084:Generated_Source\PSoC5/CapSense.c **** *******************************************************************************/
1085:Generated_Source\PSoC5/CapSense.c **** uint16 CapSense_ReadSensorRaw(uint8 sensor) 
1086:Generated_Source\PSoC5/CapSense.c **** {
 175              		.loc 1 1086 0
 176              		.cfi_startproc
 177              		@ args = 0, pretend = 0, frame = 0
 178              		@ frame_needed = 0, uses_anonymous_args = 0
 179              		@ link register save eliminated.
 180              	.LVL11:
1087:Generated_Source\PSoC5/CapSense.c ****     return (CapSense_sensorRaw[sensor]);
1088:Generated_Source\PSoC5/CapSense.c **** }
 181              		.loc 1 1088 0
 182 0000 014B     		ldr	r3, .L14
 183 0002 33F81000 		ldrh	r0, [r3, r0, lsl #1]
 184              	.LVL12:
 185 0006 7047     		bx	lr
 186              	.L15:
 187              		.align	2
 188              	.L14:
 189 0008 00000000 		.word	CapSense_sensorRaw
 190              		.cfi_endproc
 191              	.LFE9:
 192              		.size	CapSense_ReadSensorRaw, .-CapSense_ReadSensorRaw
 193              		.section	.text.CapSense_EnableSensor,"ax",%progbits
 194              		.align	2
 195              		.global	CapSense_EnableSensor
 196              		.thumb
 197              		.thumb_func
 198              		.type	CapSense_EnableSensor, %function
 199              	CapSense_EnableSensor:
 200              	.LFB11:
1089:Generated_Source\PSoC5/CapSense.c **** 
1090:Generated_Source\PSoC5/CapSense.c **** 
1091:Generated_Source\PSoC5/CapSense.c **** /*******************************************************************************
1092:Generated_Source\PSoC5/CapSense.c **** * Function Name: CapSense_ClearSensors
1093:Generated_Source\PSoC5/CapSense.c **** ********************************************************************************
1094:Generated_Source\PSoC5/CapSense.c **** *
1095:Generated_Source\PSoC5/CapSense.c **** * Summary:
1096:Generated_Source\PSoC5/CapSense.c **** *  Resets all sensors to the non-sampling state by sequentially disconnecting
1097:Generated_Source\PSoC5/CapSense.c **** *  all sensors from Analog MUX Bus and putting them to inactive state.
1098:Generated_Source\PSoC5/CapSense.c **** *
1099:Generated_Source\PSoC5/CapSense.c **** * Parameters:
1100:Generated_Source\PSoC5/CapSense.c **** *  None
1101:Generated_Source\PSoC5/CapSense.c **** *
1102:Generated_Source\PSoC5/CapSense.c **** * Return:
1103:Generated_Source\PSoC5/CapSense.c **** *  None
1104:Generated_Source\PSoC5/CapSense.c **** *
1105:Generated_Source\PSoC5/CapSense.c **** *******************************************************************************/
1106:Generated_Source\PSoC5/CapSense.c **** void CapSense_ClearSensors(void) 
1107:Generated_Source\PSoC5/CapSense.c **** {
1108:Generated_Source\PSoC5/CapSense.c ****     uint8 i;
1109:Generated_Source\PSoC5/CapSense.c ****    
1110:Generated_Source\PSoC5/CapSense.c ****     for (i = 0u; i < CapSense_TOTAL_SENSOR_COUNT; i++)
1111:Generated_Source\PSoC5/CapSense.c ****     {
ARM GAS  C:\Users\USUARIO\AppData\Local\Temp\ccn1jDSD.s 			page 24


1112:Generated_Source\PSoC5/CapSense.c ****         CapSense_DisableScanSlot(i);
1113:Generated_Source\PSoC5/CapSense.c ****     }
1114:Generated_Source\PSoC5/CapSense.c **** }
1115:Generated_Source\PSoC5/CapSense.c **** 
1116:Generated_Source\PSoC5/CapSense.c **** 
1117:Generated_Source\PSoC5/CapSense.c **** #if (CapSense_IS_COMPLEX_SCANSLOTS)
1118:Generated_Source\PSoC5/CapSense.c ****     /*******************************************************************************
1119:Generated_Source\PSoC5/CapSense.c ****     * Function Name: CapSense_EnableScanSlot
1120:Generated_Source\PSoC5/CapSense.c ****     ********************************************************************************
1121:Generated_Source\PSoC5/CapSense.c ****     *
1122:Generated_Source\PSoC5/CapSense.c ****     * Summary:
1123:Generated_Source\PSoC5/CapSense.c ****     *  Configures the selected slot to measure during the next measurement 
1124:Generated_Source\PSoC5/CapSense.c ****     *  cycle. The corresponding pin/pins are set to Analog High-Z mode and 
1125:Generated_Source\PSoC5/CapSense.c ****     *  connected to the Analog Mux Bus. This also enables the comparator function.
1126:Generated_Source\PSoC5/CapSense.c ****     *
1127:Generated_Source\PSoC5/CapSense.c ****     * Parameters:
1128:Generated_Source\PSoC5/CapSense.c ****     *  slot:  Slot number.
1129:Generated_Source\PSoC5/CapSense.c ****     *
1130:Generated_Source\PSoC5/CapSense.c ****     * Return:
1131:Generated_Source\PSoC5/CapSense.c ****     *  None
1132:Generated_Source\PSoC5/CapSense.c ****     *
1133:Generated_Source\PSoC5/CapSense.c ****     * Global Constants:
1134:Generated_Source\PSoC5/CapSense.c ****     *  CapSense_portTable[]  - used to store the port number that pin 
1135:Generated_Source\PSoC5/CapSense.c ****     *  belongs to for every sensor.
1136:Generated_Source\PSoC5/CapSense.c ****     *  CapSense_maskTable[]  - used to store the pin within the port for 
1137:Generated_Source\PSoC5/CapSense.c ****     *  every sensor.
1138:Generated_Source\PSoC5/CapSense.c ****     *  CapSense_indexTable[] - used to store indexes of complex sensors.
1139:Generated_Source\PSoC5/CapSense.c ****     *  The offset and position in this array are stored in port and mask table for 
1140:Generated_Source\PSoC5/CapSense.c ****     *  complex sensors.
1141:Generated_Source\PSoC5/CapSense.c ****     *  The bit 7 (msb) is used to define the sensor type: single or complex.
1142:Generated_Source\PSoC5/CapSense.c ****     *
1143:Generated_Source\PSoC5/CapSense.c ****     *******************************************************************************/
1144:Generated_Source\PSoC5/CapSense.c ****     void CapSense_EnableScanSlot(uint8 slot) CYREENTRANT
1145:Generated_Source\PSoC5/CapSense.c ****     {
1146:Generated_Source\PSoC5/CapSense.c ****         uint8 j;
1147:Generated_Source\PSoC5/CapSense.c ****         uint8 snsNumber;
1148:Generated_Source\PSoC5/CapSense.c ****         const uint8 CYCODE *index;
1149:Generated_Source\PSoC5/CapSense.c ****         /* Read the sensor type: single or complex */
1150:Generated_Source\PSoC5/CapSense.c ****         uint8 snsType = CapSense_portTable[slot];
1151:Generated_Source\PSoC5/CapSense.c ****         
1152:Generated_Source\PSoC5/CapSense.c ****         /* Check if sensor is complex */
1153:Generated_Source\PSoC5/CapSense.c ****         if ((snsType & CapSense_COMPLEX_SS_FLAG) == 0u)
1154:Generated_Source\PSoC5/CapSense.c ****         {
1155:Generated_Source\PSoC5/CapSense.c ****             /* Enable sensor (signle) */
1156:Generated_Source\PSoC5/CapSense.c ****             CapSense_EnableSensor(slot);
1157:Generated_Source\PSoC5/CapSense.c ****         }
1158:Generated_Source\PSoC5/CapSense.c ****         else
1159:Generated_Source\PSoC5/CapSense.c ****         {
1160:Generated_Source\PSoC5/CapSense.c ****             /* Enable complex sensor */
1161:Generated_Source\PSoC5/CapSense.c ****             snsType &= ~CapSense_COMPLEX_SS_FLAG;
1162:Generated_Source\PSoC5/CapSense.c ****             index = &CapSense_indexTable[snsType];
1163:Generated_Source\PSoC5/CapSense.c ****             snsNumber = CapSense_maskTable[slot];
1164:Generated_Source\PSoC5/CapSense.c ****                         
1165:Generated_Source\PSoC5/CapSense.c ****             for (j=0u; j < snsNumber; j++)
1166:Generated_Source\PSoC5/CapSense.c ****             {
1167:Generated_Source\PSoC5/CapSense.c ****                 CapSense_EnableSensor(index[j]);
1168:Generated_Source\PSoC5/CapSense.c ****             }
ARM GAS  C:\Users\USUARIO\AppData\Local\Temp\ccn1jDSD.s 			page 25


1169:Generated_Source\PSoC5/CapSense.c ****         } 
1170:Generated_Source\PSoC5/CapSense.c ****     }
1171:Generated_Source\PSoC5/CapSense.c ****     
1172:Generated_Source\PSoC5/CapSense.c ****     
1173:Generated_Source\PSoC5/CapSense.c ****     /*******************************************************************************
1174:Generated_Source\PSoC5/CapSense.c ****     * Function Name: CapSense_DisableScanSlot
1175:Generated_Source\PSoC5/CapSense.c ****     ********************************************************************************
1176:Generated_Source\PSoC5/CapSense.c ****     *
1177:Generated_Source\PSoC5/CapSense.c ****     * Summary:
1178:Generated_Source\PSoC5/CapSense.c ****     *  Disables the selected slot. The corresponding pin/pis is/are disconnected 
1179:Generated_Source\PSoC5/CapSense.c ****     *  from the Analog Mux Bus and connected to GND, High_Z or Shield electrode.
1180:Generated_Source\PSoC5/CapSense.c ****     *
1181:Generated_Source\PSoC5/CapSense.c ****     * Parameters:
1182:Generated_Source\PSoC5/CapSense.c ****     *  slot:  Slot number.
1183:Generated_Source\PSoC5/CapSense.c ****     *
1184:Generated_Source\PSoC5/CapSense.c ****     * Return:
1185:Generated_Source\PSoC5/CapSense.c ****     *  None
1186:Generated_Source\PSoC5/CapSense.c ****     *
1187:Generated_Source\PSoC5/CapSense.c ****     * Global Variables:
1188:Generated_Source\PSoC5/CapSense.c ****     *  CapSense_portTable[]  - used to store the port number that pin 
1189:Generated_Source\PSoC5/CapSense.c ****     *  belongs to for every sensor.
1190:Generated_Source\PSoC5/CapSense.c ****     *  CapSense_maskTable[]  - used to store the pin within the port for 
1191:Generated_Source\PSoC5/CapSense.c ****     *  every sensor.
1192:Generated_Source\PSoC5/CapSense.c ****     *  CapSense_indexTable[] - used to store indexes of complex sensors.
1193:Generated_Source\PSoC5/CapSense.c ****     *  The offset and position in this array are stored in port and mask table for 
1194:Generated_Source\PSoC5/CapSense.c ****     *  complex sensors.
1195:Generated_Source\PSoC5/CapSense.c ****     *  The 7bit(msb) is used to define the sensor type: single or complex.
1196:Generated_Source\PSoC5/CapSense.c ****     *
1197:Generated_Source\PSoC5/CapSense.c ****     *******************************************************************************/
1198:Generated_Source\PSoC5/CapSense.c ****     void CapSense_DisableScanSlot(uint8 slot) CYREENTRANT
1199:Generated_Source\PSoC5/CapSense.c ****     {
1200:Generated_Source\PSoC5/CapSense.c ****         uint8 j;
1201:Generated_Source\PSoC5/CapSense.c ****         uint8 snsNumber;
1202:Generated_Source\PSoC5/CapSense.c ****         const uint8 CYCODE *index;
1203:Generated_Source\PSoC5/CapSense.c ****         /* Read the sensor type: single or complex */
1204:Generated_Source\PSoC5/CapSense.c ****         uint8 snsType = CapSense_portTable[slot];
1205:Generated_Source\PSoC5/CapSense.c ****         
1206:Generated_Source\PSoC5/CapSense.c ****         /* Check if sensor is complex */
1207:Generated_Source\PSoC5/CapSense.c ****         if ((snsType & CapSense_COMPLEX_SS_FLAG) == 0u)
1208:Generated_Source\PSoC5/CapSense.c ****         {
1209:Generated_Source\PSoC5/CapSense.c ****             /* Disable sensor (signle) */
1210:Generated_Source\PSoC5/CapSense.c ****             CapSense_DisableSensor(slot);
1211:Generated_Source\PSoC5/CapSense.c ****         }
1212:Generated_Source\PSoC5/CapSense.c ****         else
1213:Generated_Source\PSoC5/CapSense.c ****         {
1214:Generated_Source\PSoC5/CapSense.c ****             /* Disable complex sensor */
1215:Generated_Source\PSoC5/CapSense.c ****             snsType &= ~CapSense_COMPLEX_SS_FLAG;
1216:Generated_Source\PSoC5/CapSense.c ****             index = &CapSense_indexTable[snsType];
1217:Generated_Source\PSoC5/CapSense.c ****             snsNumber = CapSense_maskTable[slot];
1218:Generated_Source\PSoC5/CapSense.c ****                         
1219:Generated_Source\PSoC5/CapSense.c ****             for (j=0u; j < snsNumber; j++)
1220:Generated_Source\PSoC5/CapSense.c ****             {
1221:Generated_Source\PSoC5/CapSense.c ****                 CapSense_DisableSensor(index[j]);
1222:Generated_Source\PSoC5/CapSense.c ****             }
1223:Generated_Source\PSoC5/CapSense.c ****         } 
1224:Generated_Source\PSoC5/CapSense.c ****     }
1225:Generated_Source\PSoC5/CapSense.c **** #endif  /* CapSense_IS_COMPLEX_SCANSLOTS */
ARM GAS  C:\Users\USUARIO\AppData\Local\Temp\ccn1jDSD.s 			page 26


1226:Generated_Source\PSoC5/CapSense.c **** 
1227:Generated_Source\PSoC5/CapSense.c **** 
1228:Generated_Source\PSoC5/CapSense.c **** /*******************************************************************************
1229:Generated_Source\PSoC5/CapSense.c **** * Function Name: CapSense_EnableSensor
1230:Generated_Source\PSoC5/CapSense.c **** ********************************************************************************
1231:Generated_Source\PSoC5/CapSense.c **** *
1232:Generated_Source\PSoC5/CapSense.c **** * Summary:
1233:Generated_Source\PSoC5/CapSense.c **** *  Configures the selected sensor to measure during the next measurement cycle.
1234:Generated_Source\PSoC5/CapSense.c **** *  The corresponding pins are set to Analog High-Z mode and connected to the
1235:Generated_Source\PSoC5/CapSense.c **** *  Analog Mux Bus. This also enables the comparator function.
1236:Generated_Source\PSoC5/CapSense.c **** *
1237:Generated_Source\PSoC5/CapSense.c **** * Parameters:
1238:Generated_Source\PSoC5/CapSense.c **** *  sensor:  Sensor number.
1239:Generated_Source\PSoC5/CapSense.c **** *
1240:Generated_Source\PSoC5/CapSense.c **** * Return:
1241:Generated_Source\PSoC5/CapSense.c **** *  None
1242:Generated_Source\PSoC5/CapSense.c **** *
1243:Generated_Source\PSoC5/CapSense.c **** * Global Variables:
1244:Generated_Source\PSoC5/CapSense.c **** *  CapSense_portTable[] - used to store the port number that pin 
1245:Generated_Source\PSoC5/CapSense.c **** *  belongs to for every sensor.
1246:Generated_Source\PSoC5/CapSense.c **** *  CapSense_maskTable[] - used to store the pin within the port for 
1247:Generated_Source\PSoC5/CapSense.c **** *  every sensor.
1248:Generated_Source\PSoC5/CapSense.c **** *  CapSense_csTable[]   - used to store the pointers to CAPS_SEL 
1249:Generated_Source\PSoC5/CapSense.c **** *  registers for every port.
1250:Generated_Source\PSoC5/CapSense.c **** *  CapSense_pcTable[]   - used to store the pointers to PC pin 
1251:Generated_Source\PSoC5/CapSense.c **** *  register for every sensor.
1252:Generated_Source\PSoC5/CapSense.c **** *  CapSense_amuxIndex[] - used to store corrected AMUX index when 
1253:Generated_Source\PSoC5/CapSense.c **** *  complex sensors are defeined.
1254:Generated_Source\PSoC5/CapSense.c **** *
1255:Generated_Source\PSoC5/CapSense.c **** *******************************************************************************/
1256:Generated_Source\PSoC5/CapSense.c **** void CapSense_EnableSensor(uint8 sensor) CYREENTRANT
1257:Generated_Source\PSoC5/CapSense.c **** {
 201              		.loc 1 1257 0
 202              		.cfi_startproc
 203              		@ args = 0, pretend = 0, frame = 0
 204              		@ frame_needed = 0, uses_anonymous_args = 0
 205              	.LVL13:
 206 0000 10B5     		push	{r4, lr}
 207              		.cfi_def_cfa_offset 8
 208              		.cfi_offset 4, -8
 209              		.cfi_offset 14, -4
1258:Generated_Source\PSoC5/CapSense.c ****     uint8 port = CapSense_portTable[sensor];
 210              		.loc 1 1258 0
 211 0002 0B4B     		ldr	r3, .L20
 212 0004 195C     		ldrb	r1, [r3, r0]	@ zero_extendqisi2
 213              	.LVL14:
1259:Generated_Source\PSoC5/CapSense.c ****     uint8 mask = CapSense_maskTable[sensor];
 214              		.loc 1 1259 0
 215 0006 1A18     		adds	r2, r3, r0
 216 0008 1479     		ldrb	r4, [r2, #4]	@ zero_extendqisi2
 217              	.LVL15:
1260:Generated_Source\PSoC5/CapSense.c ****     
1261:Generated_Source\PSoC5/CapSense.c ****     #if ((CapSense_DESIGN_TYPE == CapSense_TWO_CHANNELS_DESIGN) && \
1262:Generated_Source\PSoC5/CapSense.c ****          (CapSense_IS_COMPLEX_SCANSLOTS))
1263:Generated_Source\PSoC5/CapSense.c ****         uint8 amuxCh = CapSense_amuxIndex[sensor];
1264:Generated_Source\PSoC5/CapSense.c ****     #endif  /* ((CapSense_DESIGN_TYPE == CapSense_TWO_CHANNELS_DESIGN) && \
1265:Generated_Source\PSoC5/CapSense.c ****             *   (CapSense_IS_COMPLEX_SCANSLOTS))
ARM GAS  C:\Users\USUARIO\AppData\Local\Temp\ccn1jDSD.s 			page 27


1266:Generated_Source\PSoC5/CapSense.c ****             */
1267:Generated_Source\PSoC5/CapSense.c ****     
1268:Generated_Source\PSoC5/CapSense.c ****     /* Make sensor High-Z */
1269:Generated_Source\PSoC5/CapSense.c ****     *CapSense_pcTable[sensor] = CapSense_PRT_PC_HIGHZ;
 218              		.loc 1 1269 0
 219 000a 03EB8003 		add	r3, r3, r0, lsl #2
 220 000e 9B68     		ldr	r3, [r3, #8]
 221 0010 0922     		movs	r2, #9
 222 0012 1A70     		strb	r2, [r3]
1270:Generated_Source\PSoC5/CapSense.c ****     
1271:Generated_Source\PSoC5/CapSense.c ****     /* Connect to DSI output */
1272:Generated_Source\PSoC5/CapSense.c **** 	if(port == 15u)
 223              		.loc 1 1272 0
 224 0014 0F29     		cmp	r1, #15
 225 0016 00D1     		bne	.L17
1273:Generated_Source\PSoC5/CapSense.c **** 	{
1274:Generated_Source\PSoC5/CapSense.c **** 		port = 7u;
 226              		.loc 1 1274 0
 227 0018 0721     		movs	r1, #7
 228              	.LVL16:
 229              	.L17:
1275:Generated_Source\PSoC5/CapSense.c **** 	}
1276:Generated_Source\PSoC5/CapSense.c ****     *CapSense_csTable[port] |= mask;
 230              		.loc 1 1276 0
 231 001a 054A     		ldr	r2, .L20
 232 001c 02EB8102 		add	r2, r2, r1, lsl #2
 233 0020 9269     		ldr	r2, [r2, #24]
 234 0022 1378     		ldrb	r3, [r2]	@ zero_extendqisi2
 235 0024 2343     		orrs	r3, r3, r4
 236 0026 1370     		strb	r3, [r2]
1277:Generated_Source\PSoC5/CapSense.c ****     
1278:Generated_Source\PSoC5/CapSense.c ****     /* Connect to AMUX */
1279:Generated_Source\PSoC5/CapSense.c ****     #if (CapSense_DESIGN_TYPE == CapSense_ONE_CHANNEL_DESIGN)
1280:Generated_Source\PSoC5/CapSense.c ****         #if (CapSense_IS_COMPLEX_SCANSLOTS)
1281:Generated_Source\PSoC5/CapSense.c ****             CapSense_AMuxCH0_Connect(CapSense_amuxIndex[sensor]);
1282:Generated_Source\PSoC5/CapSense.c ****         #else
1283:Generated_Source\PSoC5/CapSense.c ****             CapSense_AMuxCH0_Connect(sensor);
 237              		.loc 1 1283 0
 238 0028 FFF7FEFF 		bl	CapSense_AMuxCH0_Set
 239              	.LVL17:
 240 002c 10BD     		pop	{r4, pc}
 241              	.LVL18:
 242              	.L21:
 243 002e 00BF     		.align	2
 244              	.L20:
 245 0030 00000000 		.word	.LANCHOR1
 246              		.cfi_endproc
 247              	.LFE11:
 248              		.size	CapSense_EnableSensor, .-CapSense_EnableSensor
 249              		.section	.text.CapSense_DisableSensor,"ax",%progbits
 250              		.align	2
 251              		.global	CapSense_DisableSensor
 252              		.thumb
 253              		.thumb_func
 254              		.type	CapSense_DisableSensor, %function
 255              	CapSense_DisableSensor:
 256              	.LFB12:
ARM GAS  C:\Users\USUARIO\AppData\Local\Temp\ccn1jDSD.s 			page 28


1284:Generated_Source\PSoC5/CapSense.c ****         #endif  /* CapSense_IS_COMPLEX_SCANSLOTS */
1285:Generated_Source\PSoC5/CapSense.c ****                 
1286:Generated_Source\PSoC5/CapSense.c ****     #else
1287:Generated_Source\PSoC5/CapSense.c ****         #if (CapSense_IS_COMPLEX_SCANSLOTS)
1288:Generated_Source\PSoC5/CapSense.c ****             if ((amuxCh & CapSense_CHANNEL1_FLAG) == 0u)
1289:Generated_Source\PSoC5/CapSense.c ****             {
1290:Generated_Source\PSoC5/CapSense.c ****                 CapSense_AMuxCH0_Connect(amuxCh);
1291:Generated_Source\PSoC5/CapSense.c ****             } 
1292:Generated_Source\PSoC5/CapSense.c ****             else
1293:Generated_Source\PSoC5/CapSense.c ****             {
1294:Generated_Source\PSoC5/CapSense.c ****                 amuxCh &= ~ CapSense_CHANNEL1_FLAG;
1295:Generated_Source\PSoC5/CapSense.c ****                 CapSense_AMuxCH1_Connect(amuxCh);
1296:Generated_Source\PSoC5/CapSense.c ****             }
1297:Generated_Source\PSoC5/CapSense.c ****             
1298:Generated_Source\PSoC5/CapSense.c ****         #else
1299:Generated_Source\PSoC5/CapSense.c ****             if (sensor < CapSense_TOTAL_SENSOR_COUNT__CH0) 
1300:Generated_Source\PSoC5/CapSense.c ****             {
1301:Generated_Source\PSoC5/CapSense.c ****                 CapSense_AMuxCH0_Connect(sensor);
1302:Generated_Source\PSoC5/CapSense.c ****             } 
1303:Generated_Source\PSoC5/CapSense.c ****             else
1304:Generated_Source\PSoC5/CapSense.c ****             {
1305:Generated_Source\PSoC5/CapSense.c ****                 CapSense_AMuxCH1_Connect(sensor - CapSense_TOTAL_SENSOR_COUNT__CH0);
1306:Generated_Source\PSoC5/CapSense.c ****             }
1307:Generated_Source\PSoC5/CapSense.c ****             
1308:Generated_Source\PSoC5/CapSense.c ****         #endif  /* CapSense_IS_COMPLEX_SCANSLOTS */
1309:Generated_Source\PSoC5/CapSense.c ****         
1310:Generated_Source\PSoC5/CapSense.c ****     #endif  /* CapSense_DESIGN_TYPE == CapSense_ONE_CHANNEL_DESIGN */
1311:Generated_Source\PSoC5/CapSense.c **** }
1312:Generated_Source\PSoC5/CapSense.c **** 
1313:Generated_Source\PSoC5/CapSense.c **** 
1314:Generated_Source\PSoC5/CapSense.c **** /*******************************************************************************
1315:Generated_Source\PSoC5/CapSense.c **** * Function Name: CapSense_DisableSensor
1316:Generated_Source\PSoC5/CapSense.c **** ********************************************************************************
1317:Generated_Source\PSoC5/CapSense.c **** *
1318:Generated_Source\PSoC5/CapSense.c **** * Summary:
1319:Generated_Source\PSoC5/CapSense.c **** *  Disables the selected sensor. The corresponding pin is disconnected from the
1320:Generated_Source\PSoC5/CapSense.c **** *  Analog Mux Bus and connected to GND, High_Z or Shield electrode.
1321:Generated_Source\PSoC5/CapSense.c **** *
1322:Generated_Source\PSoC5/CapSense.c **** * Parameters:
1323:Generated_Source\PSoC5/CapSense.c **** *  sensor:  Sensor number
1324:Generated_Source\PSoC5/CapSense.c **** *
1325:Generated_Source\PSoC5/CapSense.c **** * Return:
1326:Generated_Source\PSoC5/CapSense.c **** *  None
1327:Generated_Source\PSoC5/CapSense.c **** *
1328:Generated_Source\PSoC5/CapSense.c **** * Global Variables:
1329:Generated_Source\PSoC5/CapSense.c **** *  CapSense_portTable[] - used to store the port number that pin 
1330:Generated_Source\PSoC5/CapSense.c **** *  belongs to for every sensor.
1331:Generated_Source\PSoC5/CapSense.c **** *  CapSense_maskTable[] - used to store the pin within the port for 
1332:Generated_Source\PSoC5/CapSense.c **** *  every sensor.
1333:Generated_Source\PSoC5/CapSense.c **** *  CapSense_csTable[]   - used to store the pointers to CAPS_SEL 
1334:Generated_Source\PSoC5/CapSense.c **** *  registers for every port.
1335:Generated_Source\PSoC5/CapSense.c **** *  CapSense_pcTable[]   - used to store the pointers to PC pin 
1336:Generated_Source\PSoC5/CapSense.c **** *  register for every sensor.
1337:Generated_Source\PSoC5/CapSense.c **** *  CapSense_amuxIndex[] - used to store corrected AMUX index when 
1338:Generated_Source\PSoC5/CapSense.c **** *  complex sensors are defeined.
1339:Generated_Source\PSoC5/CapSense.c **** *
1340:Generated_Source\PSoC5/CapSense.c **** *******************************************************************************/
ARM GAS  C:\Users\USUARIO\AppData\Local\Temp\ccn1jDSD.s 			page 29


1341:Generated_Source\PSoC5/CapSense.c **** void CapSense_DisableSensor(uint8 sensor) CYREENTRANT
1342:Generated_Source\PSoC5/CapSense.c **** {
 257              		.loc 1 1342 0
 258              		.cfi_startproc
 259              		@ args = 0, pretend = 0, frame = 0
 260              		@ frame_needed = 0, uses_anonymous_args = 0
 261              	.LVL19:
 262 0000 70B5     		push	{r4, r5, r6, lr}
 263              		.cfi_def_cfa_offset 16
 264              		.cfi_offset 4, -16
 265              		.cfi_offset 5, -12
 266              		.cfi_offset 6, -8
 267              		.cfi_offset 14, -4
 268 0002 0546     		mov	r5, r0
1343:Generated_Source\PSoC5/CapSense.c ****     uint8 port = CapSense_portTable[sensor];
 269              		.loc 1 1343 0
 270 0004 0B4B     		ldr	r3, .L26
 271 0006 1C5C     		ldrb	r4, [r3, r0]	@ zero_extendqisi2
 272              	.LVL20:
1344:Generated_Source\PSoC5/CapSense.c ****     uint8 mask = CapSense_maskTable[sensor];
 273              		.loc 1 1344 0
 274 0008 0344     		add	r3, r3, r0
 275 000a 1E79     		ldrb	r6, [r3, #4]	@ zero_extendqisi2
 276              	.LVL21:
1345:Generated_Source\PSoC5/CapSense.c ****     
1346:Generated_Source\PSoC5/CapSense.c ****     #if ((CapSense_DESIGN_TYPE == CapSense_TWO_CHANNELS_DESIGN) && \
1347:Generated_Source\PSoC5/CapSense.c ****          (CapSense_IS_COMPLEX_SCANSLOTS))
1348:Generated_Source\PSoC5/CapSense.c ****         uint8 amuxCh = CapSense_amuxIndex[sensor];
1349:Generated_Source\PSoC5/CapSense.c ****     #endif  /* ((CapSense_DESIGN_TYPE == CapSense_TWO_CHANNELS_DESIGN) && \
1350:Generated_Source\PSoC5/CapSense.c ****             *   (CapSense_IS_COMPLEX_SCANSLOTS))
1351:Generated_Source\PSoC5/CapSense.c ****             */
1352:Generated_Source\PSoC5/CapSense.c ****     
1353:Generated_Source\PSoC5/CapSense.c ****     /* Disconnect from AMUX */
1354:Generated_Source\PSoC5/CapSense.c ****     #if (CapSense_DESIGN_TYPE == CapSense_ONE_CHANNEL_DESIGN)
1355:Generated_Source\PSoC5/CapSense.c ****         #if (CapSense_IS_COMPLEX_SCANSLOTS)
1356:Generated_Source\PSoC5/CapSense.c ****             CapSense_AMuxCH0_Disconnect(CapSense_amuxIndex[sensor]);
1357:Generated_Source\PSoC5/CapSense.c ****         #else
1358:Generated_Source\PSoC5/CapSense.c ****             CapSense_AMuxCH0_Disconnect(sensor);
 277              		.loc 1 1358 0
 278 000c FFF7FEFF 		bl	CapSense_AMuxCH0_Unset
 279              	.LVL22:
1359:Generated_Source\PSoC5/CapSense.c ****         #endif  /* CapSense_IS_COMPLEX_SCANSLOTS */
1360:Generated_Source\PSoC5/CapSense.c ****                 
1361:Generated_Source\PSoC5/CapSense.c ****     #else
1362:Generated_Source\PSoC5/CapSense.c ****         #if (CapSense_IS_COMPLEX_SCANSLOTS)
1363:Generated_Source\PSoC5/CapSense.c ****             if ((amuxCh & CapSense_CHANNEL1_FLAG) == 0u)
1364:Generated_Source\PSoC5/CapSense.c ****             {
1365:Generated_Source\PSoC5/CapSense.c ****                 CapSense_AMuxCH0_Disconnect(amuxCh);
1366:Generated_Source\PSoC5/CapSense.c ****             } 
1367:Generated_Source\PSoC5/CapSense.c ****             else
1368:Generated_Source\PSoC5/CapSense.c ****             {
1369:Generated_Source\PSoC5/CapSense.c ****                 amuxCh &= ~ CapSense_CHANNEL1_FLAG;
1370:Generated_Source\PSoC5/CapSense.c ****                 CapSense_AMuxCH1_Disconnect(amuxCh);
1371:Generated_Source\PSoC5/CapSense.c ****             }
1372:Generated_Source\PSoC5/CapSense.c ****             
1373:Generated_Source\PSoC5/CapSense.c ****         #else
1374:Generated_Source\PSoC5/CapSense.c ****             if (sensor < CapSense_TOTAL_SENSOR_COUNT__CH0) 
ARM GAS  C:\Users\USUARIO\AppData\Local\Temp\ccn1jDSD.s 			page 30


1375:Generated_Source\PSoC5/CapSense.c ****             {
1376:Generated_Source\PSoC5/CapSense.c ****                 CapSense_AMuxCH0_Disconnect(sensor);
1377:Generated_Source\PSoC5/CapSense.c ****             } 
1378:Generated_Source\PSoC5/CapSense.c ****             else
1379:Generated_Source\PSoC5/CapSense.c ****             {
1380:Generated_Source\PSoC5/CapSense.c ****                 CapSense_AMuxCH1_Disconnect(sensor - CapSense_TOTAL_SENSOR_COUNT__CH0);
1381:Generated_Source\PSoC5/CapSense.c ****             }
1382:Generated_Source\PSoC5/CapSense.c ****             
1383:Generated_Source\PSoC5/CapSense.c ****         #endif  /* CapSense_IS_COMPLEX_SCANSLOTS */
1384:Generated_Source\PSoC5/CapSense.c ****         
1385:Generated_Source\PSoC5/CapSense.c ****     #endif  /* CapSense_DESIGN_TYPE */
1386:Generated_Source\PSoC5/CapSense.c ****     
1387:Generated_Source\PSoC5/CapSense.c ****     /* Disconnect from DSI output */
1388:Generated_Source\PSoC5/CapSense.c **** 	if(port == 15u)
 280              		.loc 1 1388 0
 281 0010 0F2C     		cmp	r4, #15
 282 0012 00D1     		bne	.L23
1389:Generated_Source\PSoC5/CapSense.c **** 	{
1390:Generated_Source\PSoC5/CapSense.c **** 		port = 7u;
 283              		.loc 1 1390 0
 284 0014 0724     		movs	r4, #7
 285              	.LVL23:
 286              	.L23:
1391:Generated_Source\PSoC5/CapSense.c **** 	}
1392:Generated_Source\PSoC5/CapSense.c ****     *CapSense_csTable[port] &= (uint8)~mask;
 287              		.loc 1 1392 0
 288 0016 0748     		ldr	r0, .L26
 289 0018 00EB8404 		add	r4, r0, r4, lsl #2
 290              	.LVL24:
 291 001c A269     		ldr	r2, [r4, #24]
 292 001e 1378     		ldrb	r3, [r2]	@ zero_extendqisi2
 293 0020 23EA0603 		bic	r3, r3, r6
 294 0024 1370     		strb	r3, [r2]
1393:Generated_Source\PSoC5/CapSense.c ****     
1394:Generated_Source\PSoC5/CapSense.c ****     /* Set sensor to inactive state */
1395:Generated_Source\PSoC5/CapSense.c ****     #if (CapSense_CONNECT_INACTIVE_SNS == CapSense_CIS_GND)
1396:Generated_Source\PSoC5/CapSense.c ****         *CapSense_pcTable[sensor] = CapSense_PRT_PC_GND;
 295              		.loc 1 1396 0
 296 0026 00EB8500 		add	r0, r0, r5, lsl #2
 297 002a 8368     		ldr	r3, [r0, #8]
 298 002c 0822     		movs	r2, #8
 299 002e 1A70     		strb	r2, [r3]
 300 0030 70BD     		pop	{r4, r5, r6, pc}
 301              	.LVL25:
 302              	.L27:
 303 0032 00BF     		.align	2
 304              	.L26:
 305 0034 00000000 		.word	.LANCHOR1
 306              		.cfi_endproc
 307              	.LFE12:
 308              		.size	CapSense_DisableSensor, .-CapSense_DisableSensor
 309              		.section	.text.CapSense_ClearSensors,"ax",%progbits
 310              		.align	2
 311              		.global	CapSense_ClearSensors
 312              		.thumb
 313              		.thumb_func
 314              		.type	CapSense_ClearSensors, %function
ARM GAS  C:\Users\USUARIO\AppData\Local\Temp\ccn1jDSD.s 			page 31


 315              	CapSense_ClearSensors:
 316              	.LFB10:
1107:Generated_Source\PSoC5/CapSense.c ****     uint8 i;
 317              		.loc 1 1107 0
 318              		.cfi_startproc
 319              		@ args = 0, pretend = 0, frame = 0
 320              		@ frame_needed = 0, uses_anonymous_args = 0
 321 0000 10B5     		push	{r4, lr}
 322              		.cfi_def_cfa_offset 8
 323              		.cfi_offset 4, -8
 324              		.cfi_offset 14, -4
 325              	.LVL26:
1110:Generated_Source\PSoC5/CapSense.c ****     {
 326              		.loc 1 1110 0
 327 0002 0024     		movs	r4, #0
 328 0004 04E0     		b	.L29
 329              	.LVL27:
 330              	.L30:
1112:Generated_Source\PSoC5/CapSense.c ****     }
 331              		.loc 1 1112 0 discriminator 3
 332 0006 2046     		mov	r0, r4
 333 0008 FFF7FEFF 		bl	CapSense_DisableSensor
 334              	.LVL28:
1110:Generated_Source\PSoC5/CapSense.c ****     {
 335              		.loc 1 1110 0 discriminator 3
 336 000c 0134     		adds	r4, r4, #1
 337              	.LVL29:
 338 000e E4B2     		uxtb	r4, r4
 339              	.LVL30:
 340              	.L29:
1110:Generated_Source\PSoC5/CapSense.c ****     {
 341              		.loc 1 1110 0 is_stmt 0 discriminator 1
 342 0010 032C     		cmp	r4, #3
 343 0012 F8D9     		bls	.L30
1114:Generated_Source\PSoC5/CapSense.c **** 
 344              		.loc 1 1114 0 is_stmt 1
 345 0014 10BD     		pop	{r4, pc}
 346              		.cfi_endproc
 347              	.LFE10:
 348              		.size	CapSense_ClearSensors, .-CapSense_ClearSensors
 349 0016 00BF     		.section	.text.CapSense_Stop,"ax",%progbits
 350              		.align	2
 351              		.global	CapSense_Stop
 352              		.thumb
 353              		.thumb_func
 354              		.type	CapSense_Stop, %function
 355              	CapSense_Stop:
 356              	.LFB3:
 527:Generated_Source\PSoC5/CapSense.c ****     /* Stop Capsensing */
 357              		.loc 1 527 0
 358              		.cfi_startproc
 359              		@ args = 0, pretend = 0, frame = 0
 360              		@ frame_needed = 0, uses_anonymous_args = 0
 361 0000 10B5     		push	{r4, lr}
 362              		.cfi_def_cfa_offset 8
 363              		.cfi_offset 4, -8
 364              		.cfi_offset 14, -4
ARM GAS  C:\Users\USUARIO\AppData\Local\Temp\ccn1jDSD.s 			page 32


 529:Generated_Source\PSoC5/CapSense.c ****     
 365              		.loc 1 529 0
 366 0002 154C     		ldr	r4, .L34
 367 0004 2378     		ldrb	r3, [r4]	@ zero_extendqisi2
 368 0006 03F0FD03 		and	r3, r3, #253
 369 000a 2370     		strb	r3, [r4]
 532:Generated_Source\PSoC5/CapSense.c ****     #if (CapSense_DESIGN_TYPE == CapSense_TWO_CHANNELS_DESIGN) 
 370              		.loc 1 532 0
 371 000c 1022     		movs	r2, #16
 372 000e 134B     		ldr	r3, .L34+4
 373 0010 1A60     		str	r2, [r3]
 538:Generated_Source\PSoC5/CapSense.c ****     
 374              		.loc 1 538 0
 375 0012 FFF7FEFF 		bl	CapSense_ClearSensors
 376              	.LVL31:
 552:Generated_Source\PSoC5/CapSense.c ****     
 377              		.loc 1 552 0
 378 0016 124A     		ldr	r2, .L34+8
 379 0018 1378     		ldrb	r3, [r2]	@ zero_extendqisi2
 380 001a 03F0DF03 		and	r3, r3, #223
 381 001e 1370     		strb	r3, [r2]
 591:Generated_Source\PSoC5/CapSense.c ****     #endif  /* CapSense_CLOCK_SOURCE */
 382              		.loc 1 591 0
 383 0020 FFF7FEFF 		bl	CapSense_IntClock_Stop
 384              	.LVL32:
 595:Generated_Source\PSoC5/CapSense.c ****     #if (CapSense_CURRENT_SOURCE)
 385              		.loc 1 595 0
 386 0024 FFF7FEFF 		bl	CapSense_CompCH0_Stop
 387              	.LVL33:
 597:Generated_Source\PSoC5/CapSense.c ****     #endif  /* CapSense_CURRENT_SOURCE */
 388              		.loc 1 597 0
 389 0028 FFF7FEFF 		bl	CapSense_IdacCH0_Stop
 390              	.LVL34:
 619:Generated_Source\PSoC5/CapSense.c ****         CapSense_BufCH0_ACT_PWRMGR_REG &= (uint8)(~CapSense_BufCH0_ACT_PWR_EN);
 391              		.loc 1 619 0
 392 002c 0D4A     		ldr	r2, .L34+12
 393 002e 1378     		ldrb	r3, [r2]	@ zero_extendqisi2
 394 0030 03F0FE03 		and	r3, r3, #254
 395 0034 1370     		strb	r3, [r2]
 620:Generated_Source\PSoC5/CapSense.c ****         CapSense_BufCH0_STBY_PWRMGR_REG &= (uint8)(~CapSense_BufCH0_STBY_PWR_EN);
 396              		.loc 1 620 0
 397 0036 A2F5A652 		sub	r2, r2, #5312
 398 003a 073A     		subs	r2, r2, #7
 399 003c 1378     		ldrb	r3, [r2]	@ zero_extendqisi2
 400 003e 03F0DF03 		and	r3, r3, #223
 401 0042 1370     		strb	r3, [r2]
 621:Generated_Source\PSoC5/CapSense.c ****         
 402              		.loc 1 621 0
 403 0044 1032     		adds	r2, r2, #16
 404 0046 1378     		ldrb	r3, [r2]	@ zero_extendqisi2
 405 0048 03F0DF03 		and	r3, r3, #223
 406 004c 1370     		strb	r3, [r2]
 631:Generated_Source\PSoC5/CapSense.c **** }
 407              		.loc 1 631 0
 408 004e 2378     		ldrb	r3, [r4]	@ zero_extendqisi2
 409 0050 03F07F03 		and	r3, r3, #127
 410 0054 2370     		strb	r3, [r4]
ARM GAS  C:\Users\USUARIO\AppData\Local\Temp\ccn1jDSD.s 			page 33


 411 0056 10BD     		pop	{r4, pc}
 412              	.L35:
 413              		.align	2
 414              	.L34:
 415 0058 7D640040 		.word	1073767549
 416 005c 80E100E0 		.word	-536813184
 417 0060 9E640040 		.word	1073767582
 418 0064 72580040 		.word	1073764466
 419              		.cfi_endproc
 420              	.LFE3:
 421              		.size	CapSense_Stop, .-CapSense_Stop
 422              		.section	.text.CapSense_PostScan,"ax",%progbits
 423              		.align	2
 424              		.global	CapSense_PostScan
 425              		.thumb
 426              		.thumb_func
 427              		.type	CapSense_PostScan, %function
 428              	CapSense_PostScan:
 429              	.LFB14:
1397:Generated_Source\PSoC5/CapSense.c ****     #elif (CapSense_CONNECT_INACTIVE_SNS == CapSense_CIS_HIGHZ)
1398:Generated_Source\PSoC5/CapSense.c ****         *CapSense_pcTable[sensor] = CapSense_PRT_PC_HIGHZ;
1399:Generated_Source\PSoC5/CapSense.c ****     #else
1400:Generated_Source\PSoC5/CapSense.c ****         *CapSense_pcTable[sensor] = CapSense_PRT_PC_SHIELD;
1401:Generated_Source\PSoC5/CapSense.c ****     #endif  /* (CapSense_CONNECT_INACTIVE_SNS == CapSense_CIS_GND) */
1402:Generated_Source\PSoC5/CapSense.c **** }
1403:Generated_Source\PSoC5/CapSense.c **** 
1404:Generated_Source\PSoC5/CapSense.c **** 
1405:Generated_Source\PSoC5/CapSense.c **** /*******************************************************************************
1406:Generated_Source\PSoC5/CapSense.c **** * Function Name: CapSense_PreScan
1407:Generated_Source\PSoC5/CapSense.c **** ********************************************************************************
1408:Generated_Source\PSoC5/CapSense.c **** *
1409:Generated_Source\PSoC5/CapSense.c **** * Summary:
1410:Generated_Source\PSoC5/CapSense.c **** *  Set required settings, enable sensor, remove Vref from AMUX and start the 
1411:Generated_Source\PSoC5/CapSense.c **** *  scanning process of the sensor.
1412:Generated_Source\PSoC5/CapSense.c **** *
1413:Generated_Source\PSoC5/CapSense.c **** * Parameters:
1414:Generated_Source\PSoC5/CapSense.c **** *  sensor:  Sensor number.
1415:Generated_Source\PSoC5/CapSense.c **** *
1416:Generated_Source\PSoC5/CapSense.c **** * Return:
1417:Generated_Source\PSoC5/CapSense.c **** *  None
1418:Generated_Source\PSoC5/CapSense.c **** *
1419:Generated_Source\PSoC5/CapSense.c **** * Global Variables:
1420:Generated_Source\PSoC5/CapSense.c **** *  CapSense_rbTable[] - used to store pointers to PC pin registers for 
1421:Generated_Source\PSoC5/CapSense.c **** *  every bleed resistor (Rb). Only available when Current Source is External 
1422:Generated_Source\PSoC5/CapSense.c **** *  resistor.
1423:Generated_Source\PSoC5/CapSense.c **** *
1424:Generated_Source\PSoC5/CapSense.c **** *******************************************************************************/
1425:Generated_Source\PSoC5/CapSense.c **** void CapSense_PreScan(uint8 sensor) CYREENTRANT
1426:Generated_Source\PSoC5/CapSense.c **** {
1427:Generated_Source\PSoC5/CapSense.c ****     /* Set Sensor Settings */
1428:Generated_Source\PSoC5/CapSense.c ****     CapSense_SetScanSlotSettings(sensor);
1429:Generated_Source\PSoC5/CapSense.c ****     
1430:Generated_Source\PSoC5/CapSense.c ****     /* Place disable interrupts here to eliminate influence on start of scanning */
1431:Generated_Source\PSoC5/CapSense.c ****     /* `#START CapSense_PreScan_DisableInt` */
1432:Generated_Source\PSoC5/CapSense.c **** 
1433:Generated_Source\PSoC5/CapSense.c ****     /* `#END` */
1434:Generated_Source\PSoC5/CapSense.c ****     
ARM GAS  C:\Users\USUARIO\AppData\Local\Temp\ccn1jDSD.s 			page 34


1435:Generated_Source\PSoC5/CapSense.c ****     #ifdef CapSense_PRE_SCAN_DISABLE_INT_CALLBACK
1436:Generated_Source\PSoC5/CapSense.c ****     CapSense_PreScan_DisableInt_Callback();
1437:Generated_Source\PSoC5/CapSense.c ****     #endif /* CapSense_PRE_SCAN_DISABLE_INT_CALLBACK */
1438:Generated_Source\PSoC5/CapSense.c **** 
1439:Generated_Source\PSoC5/CapSense.c ****     /* Resets digital and pre-charge clocks */
1440:Generated_Source\PSoC5/CapSense.c ****     CapSense_CONTROL_REG |= CapSense_CTRL_SYNC_EN;
1441:Generated_Source\PSoC5/CapSense.c ****         
1442:Generated_Source\PSoC5/CapSense.c ****     #if (CapSense_DESIGN_TYPE == CapSense_ONE_CHANNEL_DESIGN)
1443:Generated_Source\PSoC5/CapSense.c ****         #if (CapSense_CURRENT_SOURCE == CapSense_IDAC_SOURCE)
1444:Generated_Source\PSoC5/CapSense.c ****             /* Disable Vref from AMux */
1445:Generated_Source\PSoC5/CapSense.c ****             #if (CapSense_VREF_VDAC == CapSense_VREF_OPTIONS)
1446:Generated_Source\PSoC5/CapSense.c ****                 CapSense_AMuxCH0_Disconnect(CapSense_AMuxCH0_VREF_CHANNEL);
1447:Generated_Source\PSoC5/CapSense.c ****             #else
1448:Generated_Source\PSoC5/CapSense.c ****                 CapSense_BufCH0_CAPS_CFG0_REG &= ~CapSense_CSBUF_ENABLE;
1449:Generated_Source\PSoC5/CapSense.c ****             #endif  /* (CapSense_VREF_VDAC != CapSense_VREF_OPTIONS) */
1450:Generated_Source\PSoC5/CapSense.c **** 
1451:Generated_Source\PSoC5/CapSense.c ****             /* Enable Sensor */
1452:Generated_Source\PSoC5/CapSense.c ****             CapSense_EnableScanSlot(sensor);
1453:Generated_Source\PSoC5/CapSense.c ****             
1454:Generated_Source\PSoC5/CapSense.c ****         #elif (CapSense_CURRENT_SOURCE == CapSense_IDAC_SINK)
1455:Generated_Source\PSoC5/CapSense.c ****             /* Connect IDAC */
1456:Generated_Source\PSoC5/CapSense.c ****             CapSense_AMuxCH0_Connect(CapSense_AMuxCH0_IDAC_CHANNEL);
1457:Generated_Source\PSoC5/CapSense.c ****             
1458:Generated_Source\PSoC5/CapSense.c ****             /* Enable Sensor */
1459:Generated_Source\PSoC5/CapSense.c ****             CapSense_EnableScanSlot(sensor);
1460:Generated_Source\PSoC5/CapSense.c ****                 
1461:Generated_Source\PSoC5/CapSense.c ****             /* Disable CapSense Buffer */
1462:Generated_Source\PSoC5/CapSense.c ****             CapSense_BufCH0_CAPS_CFG0_REG &= (uint8)~CapSense_CSBUF_ENABLE;
1463:Generated_Source\PSoC5/CapSense.c ****             
1464:Generated_Source\PSoC5/CapSense.c ****         #else
1465:Generated_Source\PSoC5/CapSense.c ****             /* Connect DSI output to Rb */
1466:Generated_Source\PSoC5/CapSense.c ****             *CapSense_rbTable[CapSense_extRbCh0Cur] |= CapSense_BYP_MASK;
1467:Generated_Source\PSoC5/CapSense.c ****             
1468:Generated_Source\PSoC5/CapSense.c ****             /* Enable Sensor */
1469:Generated_Source\PSoC5/CapSense.c ****             CapSense_EnableScanSlot(sensor);
1470:Generated_Source\PSoC5/CapSense.c ****              
1471:Generated_Source\PSoC5/CapSense.c ****             /* Disable CapSense Buffer */
1472:Generated_Source\PSoC5/CapSense.c ****             CapSense_BufCH0_CAPS_CFG0_REG &= ~CapSense_CSBUF_ENABLE;
1473:Generated_Source\PSoC5/CapSense.c ****         
1474:Generated_Source\PSoC5/CapSense.c ****         #endif  /* (CapSense_CURRENT_SOURCE == CapSense_IDAC_SOURCE) */
1475:Generated_Source\PSoC5/CapSense.c ****         
1476:Generated_Source\PSoC5/CapSense.c ****     #else
1477:Generated_Source\PSoC5/CapSense.c **** 
1478:Generated_Source\PSoC5/CapSense.c ****         if((CapSense_CONTROL_REG & CapSense_CTRL_WINDOW_EN__CH0) != 0u)
1479:Generated_Source\PSoC5/CapSense.c ****         {
1480:Generated_Source\PSoC5/CapSense.c ****             #if (CapSense_CURRENT_SOURCE == CapSense_IDAC_SOURCE)
1481:Generated_Source\PSoC5/CapSense.c ****                 /* Disable Vref from AMux */
1482:Generated_Source\PSoC5/CapSense.c ****                 #if (CapSense_VREF_VDAC == CapSense_VREF_OPTIONS)
1483:Generated_Source\PSoC5/CapSense.c ****                     CapSense_AMuxCH0_Disconnect(CapSense_AMuxCH0_VREF_CHANNEL);
1484:Generated_Source\PSoC5/CapSense.c ****                 #else
1485:Generated_Source\PSoC5/CapSense.c ****                     CapSense_BufCH0_CAPS_CFG0_REG &= ~CapSense_CSBUF_ENABLE;
1486:Generated_Source\PSoC5/CapSense.c ****                 #endif  /* (CapSense_VREF_VDAC != CapSense_VREF_OPTIONS) */
1487:Generated_Source\PSoC5/CapSense.c ****                 
1488:Generated_Source\PSoC5/CapSense.c ****                 /* Enable Sensor */
1489:Generated_Source\PSoC5/CapSense.c ****                 CapSense_EnableScanSlot(sensor);
1490:Generated_Source\PSoC5/CapSense.c ****                 
1491:Generated_Source\PSoC5/CapSense.c ****             #elif (CapSense_CURRENT_SOURCE == CapSense_IDAC_SINK)
ARM GAS  C:\Users\USUARIO\AppData\Local\Temp\ccn1jDSD.s 			page 35


1492:Generated_Source\PSoC5/CapSense.c ****                 /* Connect IDAC */
1493:Generated_Source\PSoC5/CapSense.c ****                 CapSense_AMuxCH0_Connect(CapSense_AMuxCH0_IDAC_CHANNEL);
1494:Generated_Source\PSoC5/CapSense.c ****                 
1495:Generated_Source\PSoC5/CapSense.c ****                 /* Enable Sensor */
1496:Generated_Source\PSoC5/CapSense.c ****                 CapSense_EnableScanSlot(sensor);
1497:Generated_Source\PSoC5/CapSense.c ****                     
1498:Generated_Source\PSoC5/CapSense.c ****                 /* Disable Vref from AMux */
1499:Generated_Source\PSoC5/CapSense.c ****                 CapSense_BufCH0_CAPS_CFG0_REG &= ~CapSense_CSBUF_ENABLE;
1500:Generated_Source\PSoC5/CapSense.c ****                 
1501:Generated_Source\PSoC5/CapSense.c ****             #else
1502:Generated_Source\PSoC5/CapSense.c ****                 /* Connect DSI output to Rb */
1503:Generated_Source\PSoC5/CapSense.c ****                 *CapSense_rbTable[CapSense_extRbCh0Cur] |= CapSense_BYP_MASK;
1504:Generated_Source\PSoC5/CapSense.c ****                 
1505:Generated_Source\PSoC5/CapSense.c ****                 /* Enable Sensor */
1506:Generated_Source\PSoC5/CapSense.c ****                 CapSense_EnableScanSlot(sensor);
1507:Generated_Source\PSoC5/CapSense.c ****                     
1508:Generated_Source\PSoC5/CapSense.c ****                 /* Disable Vref from AMux */
1509:Generated_Source\PSoC5/CapSense.c ****                 CapSense_BufCH0_CAPS_CFG0_REG &= ~CapSense_CSBUF_ENABLE;
1510:Generated_Source\PSoC5/CapSense.c ****             
1511:Generated_Source\PSoC5/CapSense.c ****             #endif  /* (CapSense_CURRENT_SOURCE == CapSense_IDAC_SOURCE) */
1512:Generated_Source\PSoC5/CapSense.c ****             
1513:Generated_Source\PSoC5/CapSense.c ****         }
1514:Generated_Source\PSoC5/CapSense.c ****         
1515:Generated_Source\PSoC5/CapSense.c ****         if((CapSense_CONTROL_REG & CapSense_CTRL_WINDOW_EN__CH1) != 0u)
1516:Generated_Source\PSoC5/CapSense.c ****         {
1517:Generated_Source\PSoC5/CapSense.c ****             sensor += CapSense_TOTAL_SENSOR_COUNT__CH0;
1518:Generated_Source\PSoC5/CapSense.c ****             
1519:Generated_Source\PSoC5/CapSense.c ****             #if (CapSense_CURRENT_SOURCE == CapSense_IDAC_SOURCE)
1520:Generated_Source\PSoC5/CapSense.c ****                 /* Disable Vref from AMux */
1521:Generated_Source\PSoC5/CapSense.c ****                 #if (CapSense_VREF_VDAC == CapSense_VREF_OPTIONS)
1522:Generated_Source\PSoC5/CapSense.c ****                    CapSense_AMuxCH1_Disconnect(CapSense_AMuxCH1_VREF_CHANNEL);
1523:Generated_Source\PSoC5/CapSense.c ****                 #else 
1524:Generated_Source\PSoC5/CapSense.c ****                     CapSense_BufCH1_CAPS_CFG0_REG &= ~CapSense_CSBUF_ENABLE;
1525:Generated_Source\PSoC5/CapSense.c ****                 #endif  /* (CapSense_VREF_VDAC == CapSense_VREF_OPTIONS) */
1526:Generated_Source\PSoC5/CapSense.c ****                 
1527:Generated_Source\PSoC5/CapSense.c ****                 /* Enable Sensor */
1528:Generated_Source\PSoC5/CapSense.c ****                 CapSense_EnableScanSlot(sensor);
1529:Generated_Source\PSoC5/CapSense.c ****                 
1530:Generated_Source\PSoC5/CapSense.c ****             #elif (CapSense_CURRENT_SOURCE == CapSense_IDAC_SINK)
1531:Generated_Source\PSoC5/CapSense.c ****                 /* Connect IDAC */
1532:Generated_Source\PSoC5/CapSense.c ****                 CapSense_AMuxCH1_Connect(CapSense_AMuxCH1_IDAC_CHANNEL);
1533:Generated_Source\PSoC5/CapSense.c ****                 
1534:Generated_Source\PSoC5/CapSense.c ****                 /* Enable Sensor */
1535:Generated_Source\PSoC5/CapSense.c ****                 CapSense_EnableScanSlot(sensor);
1536:Generated_Source\PSoC5/CapSense.c ****                     
1537:Generated_Source\PSoC5/CapSense.c ****                 /* Disable Vref from AMux */
1538:Generated_Source\PSoC5/CapSense.c ****                 CapSense_BufCH1_CAPS_CFG0_REG &= ~CapSense_CSBUF_ENABLE;
1539:Generated_Source\PSoC5/CapSense.c ****                 
1540:Generated_Source\PSoC5/CapSense.c ****             #else
1541:Generated_Source\PSoC5/CapSense.c ****                 /* Connect DSI output to Rb */
1542:Generated_Source\PSoC5/CapSense.c ****                 *CapSense_rbTable[CapSense_extRbCh1Cur] |= CapSense_BYP_MASK;
1543:Generated_Source\PSoC5/CapSense.c ****                 
1544:Generated_Source\PSoC5/CapSense.c ****                 /* Enable Sensor */
1545:Generated_Source\PSoC5/CapSense.c ****                 CapSense_EnableScanSlot(sensor);
1546:Generated_Source\PSoC5/CapSense.c ****                 
1547:Generated_Source\PSoC5/CapSense.c ****                 /* Disable Vref from AMux */
1548:Generated_Source\PSoC5/CapSense.c ****                 CapSense_BufCH1_CAPS_CFG0_REG &= ~CapSense_CSBUF_ENABLE;
ARM GAS  C:\Users\USUARIO\AppData\Local\Temp\ccn1jDSD.s 			page 36


1549:Generated_Source\PSoC5/CapSense.c ****             
1550:Generated_Source\PSoC5/CapSense.c ****             #endif  /* (CapSense_CURRENT_SOURCE == CapSense_IDAC_SOURCE) */
1551:Generated_Source\PSoC5/CapSense.c ****         }
1552:Generated_Source\PSoC5/CapSense.c ****     
1553:Generated_Source\PSoC5/CapSense.c ****     #endif  /* (CapSense_DESIGN_TYPE == CapSense_ONE_CHANNEL_DESIGN) */
1554:Generated_Source\PSoC5/CapSense.c ****     
1555:Generated_Source\PSoC5/CapSense.c ****     /* Start measurament, pre-charge clocks are running and PRS as well */
1556:Generated_Source\PSoC5/CapSense.c ****     CapSense_CONTROL_REG |= CapSense_CTRL_START;
1557:Generated_Source\PSoC5/CapSense.c ****     
1558:Generated_Source\PSoC5/CapSense.c ****     /* Place enable interrupts here to eliminate influence on start of scanning */
1559:Generated_Source\PSoC5/CapSense.c ****     /* `#START CapSense_PreScan_EnableInt` */
1560:Generated_Source\PSoC5/CapSense.c **** 
1561:Generated_Source\PSoC5/CapSense.c ****     /* `#END` */
1562:Generated_Source\PSoC5/CapSense.c **** 
1563:Generated_Source\PSoC5/CapSense.c ****     #ifdef CapSense_PRE_SCAN_ENABLE_INT_CALLBACK
1564:Generated_Source\PSoC5/CapSense.c ****         CapSense_PreScan_EnableInt_Callback();
1565:Generated_Source\PSoC5/CapSense.c ****     #endif /* CapSense_PRE_SCAN_ENABLE_INT_CALLBACK */
1566:Generated_Source\PSoC5/CapSense.c **** }
1567:Generated_Source\PSoC5/CapSense.c **** 
1568:Generated_Source\PSoC5/CapSense.c **** 
1569:Generated_Source\PSoC5/CapSense.c **** #if (CapSense_DESIGN_TYPE == CapSense_ONE_CHANNEL_DESIGN)
1570:Generated_Source\PSoC5/CapSense.c ****     /*******************************************************************************
1571:Generated_Source\PSoC5/CapSense.c ****     * Function Name: CapSense_PostScan
1572:Generated_Source\PSoC5/CapSense.c ****     ********************************************************************************
1573:Generated_Source\PSoC5/CapSense.c ****     *
1574:Generated_Source\PSoC5/CapSense.c ****     * Summary:
1575:Generated_Source\PSoC5/CapSense.c ****     *  Store results of measurament in CapSense_SensorResult[] array,
1576:Generated_Source\PSoC5/CapSense.c ****     *  sets scan sensor in none sampling state, turn off Idac(Current Source IDAC),
1577:Generated_Source\PSoC5/CapSense.c ****     *  disconnect IDAC(Sink mode) or bleed resistor (Rb) and apply Vref on AMUX.
1578:Generated_Source\PSoC5/CapSense.c ****     *  Only one channel designs.
1579:Generated_Source\PSoC5/CapSense.c ****     *
1580:Generated_Source\PSoC5/CapSense.c ****     * Parameters:
1581:Generated_Source\PSoC5/CapSense.c ****     *  sensor:  Sensor number.
1582:Generated_Source\PSoC5/CapSense.c ****     *
1583:Generated_Source\PSoC5/CapSense.c ****     * Return:
1584:Generated_Source\PSoC5/CapSense.c ****     *  None
1585:Generated_Source\PSoC5/CapSense.c ****     *
1586:Generated_Source\PSoC5/CapSense.c ****     * Global Variables:
1587:Generated_Source\PSoC5/CapSense.c ****     *  CapSense_sensorRaw[] - used to store sensors raw data.
1588:Generated_Source\PSoC5/CapSense.c ****     *
1589:Generated_Source\PSoC5/CapSense.c ****     * Reentrant:
1590:Generated_Source\PSoC5/CapSense.c ****     *  No
1591:Generated_Source\PSoC5/CapSense.c ****     *
1592:Generated_Source\PSoC5/CapSense.c ****     *******************************************************************************/
1593:Generated_Source\PSoC5/CapSense.c ****     void CapSense_PostScan(uint8 sensor) CYREENTRANT
1594:Generated_Source\PSoC5/CapSense.c ****     {
 430              		.loc 1 1594 0
 431              		.cfi_startproc
 432              		@ args = 0, pretend = 0, frame = 0
 433              		@ frame_needed = 0, uses_anonymous_args = 0
 434              	.LVL35:
 435 0000 10B5     		push	{r4, lr}
 436              		.cfi_def_cfa_offset 8
 437              		.cfi_offset 4, -8
 438              		.cfi_offset 14, -4
1595:Generated_Source\PSoC5/CapSense.c ****         /* Stop Capsensing and rearm sync */
1596:Generated_Source\PSoC5/CapSense.c ****         CapSense_CONTROL_REG &= (uint8)~(CapSense_CTRL_START | CapSense_CTRL_SYNC_EN);
ARM GAS  C:\Users\USUARIO\AppData\Local\Temp\ccn1jDSD.s 			page 37


 439              		.loc 1 1596 0
 440 0002 0E4A     		ldr	r2, .L38
 441 0004 1378     		ldrb	r3, [r2]	@ zero_extendqisi2
 442 0006 03F0FC03 		and	r3, r3, #252
 443 000a 1370     		strb	r3, [r2]
1597:Generated_Source\PSoC5/CapSense.c ****         
1598:Generated_Source\PSoC5/CapSense.c ****         /* Read SlotResult from Raw Counter */
1599:Generated_Source\PSoC5/CapSense.c ****         #if (CapSense_IMPLEMENTATION_CH0 == CapSense_MEASURE_IMPLEMENTATION_FF)
1600:Generated_Source\PSoC5/CapSense.c ****             CapSense_sensorRaw[sensor]  = CapSense_MEASURE_FULL_RANGE - 
1601:Generated_Source\PSoC5/CapSense.c ****                                                       CY_GET_REG16(CapSense_RAW_CH0_COUNTER_PTR);
1602:Generated_Source\PSoC5/CapSense.c ****         #else
1603:Generated_Source\PSoC5/CapSense.c ****             CapSense_sensorRaw[sensor]  = ((uint16) CapSense_RAW_CH0_COUNTER_HI_REG << 8u);
 444              		.loc 1 1603 0
 445 000c 0C4B     		ldr	r3, .L38+4
 446 000e 1B78     		ldrb	r3, [r3]	@ zero_extendqisi2
 447 0010 1B02     		lsls	r3, r3, #8
 448 0012 0C49     		ldr	r1, .L38+8
 449 0014 21F81030 		strh	r3, [r1, r0, lsl #1]	@ movhi
1604:Generated_Source\PSoC5/CapSense.c ****             CapSense_sensorRaw[sensor] |= (uint16) CapSense_RAW_CH0_COUNTER_LO_REG;
 450              		.loc 1 1604 0
 451 0018 723A     		subs	r2, r2, #114
 452 001a 1278     		ldrb	r2, [r2]	@ zero_extendqisi2
 453 001c 1343     		orrs	r3, r3, r2
1605:Generated_Source\PSoC5/CapSense.c ****             CapSense_sensorRaw[sensor]  = CapSense_MEASURE_FULL_RANGE -
 454              		.loc 1 1605 0
 455 001e DB43     		mvns	r3, r3
 456 0020 21F81030 		strh	r3, [r1, r0, lsl #1]	@ movhi
1606:Generated_Source\PSoC5/CapSense.c ****                                                       CapSense_sensorRaw[sensor];
1607:Generated_Source\PSoC5/CapSense.c ****         #endif  /* (CapSense_IMPLEMENTATION == CapSense_MEASURE_IMPLEMENTATION_FF) */
1608:Generated_Source\PSoC5/CapSense.c ****         
1609:Generated_Source\PSoC5/CapSense.c ****         /* Disable Sensor */
1610:Generated_Source\PSoC5/CapSense.c ****         CapSense_DisableScanSlot(sensor);
 457              		.loc 1 1610 0
 458 0024 FFF7FEFF 		bl	CapSense_DisableSensor
 459              	.LVL36:
1611:Generated_Source\PSoC5/CapSense.c ****         
1612:Generated_Source\PSoC5/CapSense.c ****         #if(CapSense_CURRENT_SOURCE)
1613:Generated_Source\PSoC5/CapSense.c ****             /* Turn off IDAC */
1614:Generated_Source\PSoC5/CapSense.c ****             CapSense_IdacCH0_SetValue(CapSense_TURN_OFF_IDAC);
 460              		.loc 1 1614 0
 461 0028 0020     		movs	r0, #0
 462 002a FFF7FEFF 		bl	CapSense_IdacCH0_SetValue
 463              	.LVL37:
1615:Generated_Source\PSoC5/CapSense.c ****             #if (CapSense_CURRENT_SOURCE == CapSense_IDAC_SINK)
1616:Generated_Source\PSoC5/CapSense.c ****                 /* Disconnect IDAC */
1617:Generated_Source\PSoC5/CapSense.c ****                 CapSense_AMuxCH0_Disconnect(CapSense_AMuxCH0_IDAC_CHANNEL);
1618:Generated_Source\PSoC5/CapSense.c ****             #endif  /* (CapSense_CURRENT_SOURCE == CapSense_IDAC_SINK) */
1619:Generated_Source\PSoC5/CapSense.c ****         #else
1620:Generated_Source\PSoC5/CapSense.c ****             /* Disconnect DSI output from Rb */
1621:Generated_Source\PSoC5/CapSense.c ****             *CapSense_rbTable[CapSense_extRbCh0Cur] &= ~CapSense_BYP_MASK; 
1622:Generated_Source\PSoC5/CapSense.c ****         #endif  /* (CapSense_CURRENT_SOURCE)*/
1623:Generated_Source\PSoC5/CapSense.c ****             
1624:Generated_Source\PSoC5/CapSense.c ****         /* Enable Vref on AMUX */
1625:Generated_Source\PSoC5/CapSense.c ****         #if (CapSense_VREF_OPTIONS == CapSense_VREF_VDAC)
1626:Generated_Source\PSoC5/CapSense.c ****             CapSense_AMuxCH0_Connect(CapSense_AMuxCH0_VREF_CHANNEL);
1627:Generated_Source\PSoC5/CapSense.c ****         #else
1628:Generated_Source\PSoC5/CapSense.c ****             CapSense_BufCH0_CAPS_CFG0_REG |= CapSense_CSBUF_ENABLE;
ARM GAS  C:\Users\USUARIO\AppData\Local\Temp\ccn1jDSD.s 			page 38


 464              		.loc 1 1628 0
 465 002e 064A     		ldr	r2, .L38+12
 466 0030 1378     		ldrb	r3, [r2]	@ zero_extendqisi2
 467 0032 43F00103 		orr	r3, r3, #1
 468 0036 1370     		strb	r3, [r2]
 469 0038 10BD     		pop	{r4, pc}
 470              	.L39:
 471 003a 00BF     		.align	2
 472              	.L38:
 473 003c 7D640040 		.word	1073767549
 474 0040 1B640040 		.word	1073767451
 475 0044 00000000 		.word	CapSense_sensorRaw
 476 0048 72580040 		.word	1073764466
 477              		.cfi_endproc
 478              	.LFE14:
 479              		.size	CapSense_PostScan, .-CapSense_PostScan
 480              		.section	.text.CapSense_SetPrescaler,"ax",%progbits
 481              		.align	2
 482              		.global	CapSense_SetPrescaler
 483              		.thumb
 484              		.thumb_func
 485              		.type	CapSense_SetPrescaler, %function
 486              	CapSense_SetPrescaler:
 487              	.LFB15:
1629:Generated_Source\PSoC5/CapSense.c ****         #endif  /* (CapSense_VREF_VDAC == CapSense_VREF_OPTIONS) */
1630:Generated_Source\PSoC5/CapSense.c ****     }
1631:Generated_Source\PSoC5/CapSense.c ****     
1632:Generated_Source\PSoC5/CapSense.c **** #else
1633:Generated_Source\PSoC5/CapSense.c **** 
1634:Generated_Source\PSoC5/CapSense.c ****     /*******************************************************************************
1635:Generated_Source\PSoC5/CapSense.c ****     * Function Name: CapSense_PostScan
1636:Generated_Source\PSoC5/CapSense.c ****     ********************************************************************************
1637:Generated_Source\PSoC5/CapSense.c ****     *
1638:Generated_Source\PSoC5/CapSense.c ****     * Summary:
1639:Generated_Source\PSoC5/CapSense.c ****     *  Store results of measurament in CapSense_SensorResult[] array,
1640:Generated_Source\PSoC5/CapSense.c ****     *  sets scan sensor in none sampling state, turn off Idac(Current Source IDAC),
1641:Generated_Source\PSoC5/CapSense.c ****     *  disconnect IDAC(Sink mode) or bleed resistor (Rb) and apply Vref on AMUX.
1642:Generated_Source\PSoC5/CapSense.c ****     *  Only used for channel 0 in two channes designs.
1643:Generated_Source\PSoC5/CapSense.c ****     *
1644:Generated_Source\PSoC5/CapSense.c ****     * Parameters:
1645:Generated_Source\PSoC5/CapSense.c ****     *  sensor:  Sensor number.
1646:Generated_Source\PSoC5/CapSense.c ****     *
1647:Generated_Source\PSoC5/CapSense.c ****     * Return:
1648:Generated_Source\PSoC5/CapSense.c ****     *  None
1649:Generated_Source\PSoC5/CapSense.c ****     *
1650:Generated_Source\PSoC5/CapSense.c ****     * Global Variables:
1651:Generated_Source\PSoC5/CapSense.c ****     *  CapSense_sensorRaw[] - used to store sensors raw data.
1652:Generated_Source\PSoC5/CapSense.c ****     *
1653:Generated_Source\PSoC5/CapSense.c ****     * Reentrant:
1654:Generated_Source\PSoC5/CapSense.c ****     *  No
1655:Generated_Source\PSoC5/CapSense.c ****     *
1656:Generated_Source\PSoC5/CapSense.c ****     *******************************************************************************/
1657:Generated_Source\PSoC5/CapSense.c ****     void CapSense_PostScanCh0(uint8 sensor) CYREENTRANT
1658:Generated_Source\PSoC5/CapSense.c ****     {
1659:Generated_Source\PSoC5/CapSense.c ****         if (((CapSense_CONTROL_REG & CapSense_CTRL_WINDOW_EN__CH0) == 0u) && 
1660:Generated_Source\PSoC5/CapSense.c ****             ((CapSense_CONTROL_REG & CapSense_CTRL_WINDOW_EN__CH1) == 0u)) 
1661:Generated_Source\PSoC5/CapSense.c ****         {
ARM GAS  C:\Users\USUARIO\AppData\Local\Temp\ccn1jDSD.s 			page 39


1662:Generated_Source\PSoC5/CapSense.c ****             /* Stop Capsensing and rearm sync */
1663:Generated_Source\PSoC5/CapSense.c ****             CapSense_CONTROL_REG &= ~(CapSense_CTRL_START | CapSense_CTRL_SYNC_EN);
1664:Generated_Source\PSoC5/CapSense.c ****         }
1665:Generated_Source\PSoC5/CapSense.c ****         
1666:Generated_Source\PSoC5/CapSense.c ****         /* Read SlotResult from Raw Counter */
1667:Generated_Source\PSoC5/CapSense.c ****         #if (CapSense_IMPLEMENTATION_CH0 == CapSense_MEASURE_IMPLEMENTATION_FF)
1668:Generated_Source\PSoC5/CapSense.c ****             CapSense_sensorRaw[sensor]  = CapSense_MEASURE_FULL_RANGE - 
1669:Generated_Source\PSoC5/CapSense.c ****                                                       CY_GET_REG16(CapSense_RAW_CH0_COUNTER_PTR);
1670:Generated_Source\PSoC5/CapSense.c ****         #else
1671:Generated_Source\PSoC5/CapSense.c ****             CapSense_sensorRaw[sensor]  = ((uint16) CapSense_RAW_CH0_COUNTER_HI_REG << 8u);
1672:Generated_Source\PSoC5/CapSense.c ****             CapSense_sensorRaw[sensor] |= (uint16) CapSense_RAW_CH0_COUNTER_LO_REG;
1673:Generated_Source\PSoC5/CapSense.c ****             CapSense_sensorRaw[sensor]  = CapSense_MEASURE_FULL_RANGE - 
1674:Generated_Source\PSoC5/CapSense.c ****                                                       CapSense_sensorRaw[sensor];
1675:Generated_Source\PSoC5/CapSense.c ****         #endif  /* (CapSense_IMPLEMENTATION_CH0 == CapSense_MEASURE_IMPLEMENTATION_FF)*/
1676:Generated_Source\PSoC5/CapSense.c ****         
1677:Generated_Source\PSoC5/CapSense.c ****         /* Disable Sensor */
1678:Generated_Source\PSoC5/CapSense.c ****         CapSense_DisableScanSlot(sensor);
1679:Generated_Source\PSoC5/CapSense.c ****         
1680:Generated_Source\PSoC5/CapSense.c ****         #if (CapSense_CURRENT_SOURCE)
1681:Generated_Source\PSoC5/CapSense.c ****             /* Turn off IDAC */
1682:Generated_Source\PSoC5/CapSense.c ****             CapSense_IdacCH0_SetValue(CapSense_TURN_OFF_IDAC);
1683:Generated_Source\PSoC5/CapSense.c ****             #if (CapSense_CURRENT_SOURCE == CapSense_IDAC_SINK)
1684:Generated_Source\PSoC5/CapSense.c ****                 /* Disconnect IDAC */
1685:Generated_Source\PSoC5/CapSense.c ****                 CapSense_AMuxCH0_Disconnect(CapSense_AMuxCH0_IDAC_CHANNEL);
1686:Generated_Source\PSoC5/CapSense.c ****             #endif  /* (CapSense_CURRENT_SOURCE == CapSense_IDAC_SINK) */
1687:Generated_Source\PSoC5/CapSense.c ****         #else
1688:Generated_Source\PSoC5/CapSense.c ****             /* Disconnect DSI output from Rb */
1689:Generated_Source\PSoC5/CapSense.c ****             *CapSense_rbTable[CapSense_extRbCh0Cur] &= ~CapSense_BYP_MASK; 
1690:Generated_Source\PSoC5/CapSense.c ****         #endif  /* (CapSense_CURRENT_SOURCE)*/
1691:Generated_Source\PSoC5/CapSense.c ****         
1692:Generated_Source\PSoC5/CapSense.c ****         /* Enable Vref on AMUX */
1693:Generated_Source\PSoC5/CapSense.c ****         #if (CapSense_VREF_OPTIONS == CapSense_VREF_VDAC)
1694:Generated_Source\PSoC5/CapSense.c ****             CapSense_AMuxCH0_Connect(CapSense_AMuxCH0_VREF_CHANNEL);
1695:Generated_Source\PSoC5/CapSense.c ****         #else
1696:Generated_Source\PSoC5/CapSense.c ****             CapSense_BufCH0_CAPS_CFG0_REG |= CapSense_CSBUF_ENABLE;
1697:Generated_Source\PSoC5/CapSense.c ****         #endif  /* (CapSense_VREF_VDAC == CapSense_VREF_OPTIONS) */
1698:Generated_Source\PSoC5/CapSense.c ****     }
1699:Generated_Source\PSoC5/CapSense.c ****     
1700:Generated_Source\PSoC5/CapSense.c ****     
1701:Generated_Source\PSoC5/CapSense.c ****     /*******************************************************************************
1702:Generated_Source\PSoC5/CapSense.c ****     * Function Name: CapSense_PostScanCh1
1703:Generated_Source\PSoC5/CapSense.c ****     ********************************************************************************
1704:Generated_Source\PSoC5/CapSense.c ****     *
1705:Generated_Source\PSoC5/CapSense.c ****     * Summary:
1706:Generated_Source\PSoC5/CapSense.c ****     *  Store results of measurament in CapSense_SensorResult[] array,
1707:Generated_Source\PSoC5/CapSense.c ****     *  sets scan sensor in none sampling state, turn off Idac(Current Source IDAC), 
1708:Generated_Source\PSoC5/CapSense.c ****     *  disconnect IDAC(Sink mode) or bleed resistor (Rb) and apply Vref on AMUX.
1709:Generated_Source\PSoC5/CapSense.c ****     *  Only used for channel 1 in two channes designs.
1710:Generated_Source\PSoC5/CapSense.c ****     *
1711:Generated_Source\PSoC5/CapSense.c ****     * Parameters:
1712:Generated_Source\PSoC5/CapSense.c ****     *  sensor:  Sensor number.
1713:Generated_Source\PSoC5/CapSense.c ****     *
1714:Generated_Source\PSoC5/CapSense.c ****     * Return:
1715:Generated_Source\PSoC5/CapSense.c ****     *  None
1716:Generated_Source\PSoC5/CapSense.c ****     *
1717:Generated_Source\PSoC5/CapSense.c ****     * Global Variables:
1718:Generated_Source\PSoC5/CapSense.c ****     *  CapSense_sensorRaw[] - used to store sensors raw data.
ARM GAS  C:\Users\USUARIO\AppData\Local\Temp\ccn1jDSD.s 			page 40


1719:Generated_Source\PSoC5/CapSense.c ****     *
1720:Generated_Source\PSoC5/CapSense.c ****     * Reentrant:
1721:Generated_Source\PSoC5/CapSense.c ****     *  No
1722:Generated_Source\PSoC5/CapSense.c ****     *
1723:Generated_Source\PSoC5/CapSense.c ****     *******************************************************************************/
1724:Generated_Source\PSoC5/CapSense.c ****     void CapSense_PostScanCh1(uint8 sensor) CYREENTRANT
1725:Generated_Source\PSoC5/CapSense.c ****     {
1726:Generated_Source\PSoC5/CapSense.c ****         if (((CapSense_CONTROL_REG & CapSense_CTRL_WINDOW_EN__CH0) == 0u) && 
1727:Generated_Source\PSoC5/CapSense.c ****             ((CapSense_CONTROL_REG & CapSense_CTRL_WINDOW_EN__CH1) == 0u))
1728:Generated_Source\PSoC5/CapSense.c ****         {
1729:Generated_Source\PSoC5/CapSense.c ****             /* Stop Capsensing and rearm sync */
1730:Generated_Source\PSoC5/CapSense.c ****             CapSense_CONTROL_REG &= ~(CapSense_CTRL_START | CapSense_CTRL_SYNC_EN);
1731:Generated_Source\PSoC5/CapSense.c ****         }
1732:Generated_Source\PSoC5/CapSense.c ****         
1733:Generated_Source\PSoC5/CapSense.c ****         /* Read SlotResult from Raw Counter */
1734:Generated_Source\PSoC5/CapSense.c ****         #if (CapSense_IMPLEMENTATION_CH1 == CapSense_MEASURE_IMPLEMENTATION_FF)
1735:Generated_Source\PSoC5/CapSense.c ****             CapSense_sensorRaw[sensor]  = CapSense_MEASURE_FULL_RANGE - 
1736:Generated_Source\PSoC5/CapSense.c ****                                                       CY_GET_REG16(CapSense_RAW_CH1_COUNTER_PTR);
1737:Generated_Source\PSoC5/CapSense.c ****         #else
1738:Generated_Source\PSoC5/CapSense.c ****             CapSense_sensorRaw[sensor]  = ((uint16) CapSense_RAW_CH1_COUNTER_HI_REG << 8u);
1739:Generated_Source\PSoC5/CapSense.c ****             CapSense_sensorRaw[sensor] |= (uint16) CapSense_RAW_CH1_COUNTER_LO_REG;
1740:Generated_Source\PSoC5/CapSense.c ****             CapSense_sensorRaw[sensor]  = CapSense_MEASURE_FULL_RANGE - 
1741:Generated_Source\PSoC5/CapSense.c ****                                                       CapSense_sensorRaw[sensor];
1742:Generated_Source\PSoC5/CapSense.c ****         #endif  /* (CapSense_IMPLEMENTATION_CH1 == CapSense_MEASURE_IMPLEMENTATION_FF)*/
1743:Generated_Source\PSoC5/CapSense.c ****         
1744:Generated_Source\PSoC5/CapSense.c ****         /* Disable Sensor */
1745:Generated_Source\PSoC5/CapSense.c ****         CapSense_DisableScanSlot(sensor);
1746:Generated_Source\PSoC5/CapSense.c ****         
1747:Generated_Source\PSoC5/CapSense.c ****         #if (CapSense_CURRENT_SOURCE)
1748:Generated_Source\PSoC5/CapSense.c ****             /* Turn off IDAC */
1749:Generated_Source\PSoC5/CapSense.c ****             CapSense_IdacCH1_SetValue(CapSense_TURN_OFF_IDAC);
1750:Generated_Source\PSoC5/CapSense.c ****             #if (CapSense_CURRENT_SOURCE == CapSense_IDAC_SINK)
1751:Generated_Source\PSoC5/CapSense.c ****                 /* Disconnect IDAC */
1752:Generated_Source\PSoC5/CapSense.c ****                 CapSense_AMuxCH1_Disconnect(CapSense_AMuxCH1_IDAC_CHANNEL);
1753:Generated_Source\PSoC5/CapSense.c ****             #endif  /* (CapSense_CURRENT_SOURCE == CapSense_IDAC_SINK) */
1754:Generated_Source\PSoC5/CapSense.c ****         #else
1755:Generated_Source\PSoC5/CapSense.c ****             /* Disconnect DSI output from Rb */
1756:Generated_Source\PSoC5/CapSense.c ****             *CapSense_rbTable[CapSense_extRbCh1Cur] &= ~CapSense_BYP_MASK; 
1757:Generated_Source\PSoC5/CapSense.c ****         #endif  /* (CapSense_CURRENT_SOURCE)*/
1758:Generated_Source\PSoC5/CapSense.c **** 
1759:Generated_Source\PSoC5/CapSense.c ****         /* Enable Vref on AMUX */
1760:Generated_Source\PSoC5/CapSense.c ****         #if (CapSense_VREF_OPTIONS == CapSense_VREF_VDAC)
1761:Generated_Source\PSoC5/CapSense.c ****             CapSense_AMuxCH1_Connect(CapSense_AMuxCH1_VREF_CHANNEL);
1762:Generated_Source\PSoC5/CapSense.c ****         #else
1763:Generated_Source\PSoC5/CapSense.c ****             CapSense_BufCH1_CAPS_CFG0_REG |= CapSense_CSBUF_ENABLE;
1764:Generated_Source\PSoC5/CapSense.c ****         #endif  /* (CapSense_VREF_VDAC == CapSense_VREF_OPTIONS) */
1765:Generated_Source\PSoC5/CapSense.c ****     }
1766:Generated_Source\PSoC5/CapSense.c ****     
1767:Generated_Source\PSoC5/CapSense.c **** #endif  /* CapSense_DESIGN_TYPE */
1768:Generated_Source\PSoC5/CapSense.c **** 
1769:Generated_Source\PSoC5/CapSense.c **** 
1770:Generated_Source\PSoC5/CapSense.c **** #if (CapSense_CURRENT_SOURCE == CapSense_EXTERNAL_RB)
1771:Generated_Source\PSoC5/CapSense.c ****     /*******************************************************************************
1772:Generated_Source\PSoC5/CapSense.c ****     * Function Name:  CapSense_InitRb
1773:Generated_Source\PSoC5/CapSense.c ****     ********************************************************************************
1774:Generated_Source\PSoC5/CapSense.c ****     *
1775:Generated_Source\PSoC5/CapSense.c ****     * Summary:
ARM GAS  C:\Users\USUARIO\AppData\Local\Temp\ccn1jDSD.s 			page 41


1776:Generated_Source\PSoC5/CapSense.c ****     *  Sets all Rbleed resistor to High-Z mode. The first Rbleed resistor is active
1777:Generated_Source\PSoC5/CapSense.c ****     *  while next measure.
1778:Generated_Source\PSoC5/CapSense.c ****     *  This function is available only if Current Source is External Resistor.
1779:Generated_Source\PSoC5/CapSense.c ****     *
1780:Generated_Source\PSoC5/CapSense.c ****     * Parameters:
1781:Generated_Source\PSoC5/CapSense.c ****     *  None
1782:Generated_Source\PSoC5/CapSense.c ****     *
1783:Generated_Source\PSoC5/CapSense.c ****     * Return:
1784:Generated_Source\PSoC5/CapSense.c ****     *  None
1785:Generated_Source\PSoC5/CapSense.c ****     *
1786:Generated_Source\PSoC5/CapSense.c ****     ********************************************************************************/
1787:Generated_Source\PSoC5/CapSense.c ****     void CapSense_InitRb(void) 
1788:Generated_Source\PSoC5/CapSense.c ****     {
1789:Generated_Source\PSoC5/CapSense.c ****         uint8 i;
1790:Generated_Source\PSoC5/CapSense.c ****         
1791:Generated_Source\PSoC5/CapSense.c ****         /* Disable all Rb */
1792:Generated_Source\PSoC5/CapSense.c ****         for(i = 0u; i < CapSense_TOTAL_RB_NUMBER; i++)
1793:Generated_Source\PSoC5/CapSense.c ****         {
1794:Generated_Source\PSoC5/CapSense.c ****             /* Make High-Z */
1795:Generated_Source\PSoC5/CapSense.c ****             *CapSense_rbTable[i] = CapSense_PRT_PC_HIGHZ;
1796:Generated_Source\PSoC5/CapSense.c ****         }
1797:Generated_Source\PSoC5/CapSense.c ****     }
1798:Generated_Source\PSoC5/CapSense.c ****     
1799:Generated_Source\PSoC5/CapSense.c ****     
1800:Generated_Source\PSoC5/CapSense.c ****     /*******************************************************************************
1801:Generated_Source\PSoC5/CapSense.c ****     * Function Name: CapSense_SetRBleed
1802:Generated_Source\PSoC5/CapSense.c ****     ********************************************************************************
1803:Generated_Source\PSoC5/CapSense.c ****     *
1804:Generated_Source\PSoC5/CapSense.c ****     * Summary:
1805:Generated_Source\PSoC5/CapSense.c ****     *  Sets the pin to use for the bleed resistor (Rb) connection. This function
1806:Generated_Source\PSoC5/CapSense.c ****     *  can be called at runtime to select the current Rb pin setting from those 
1807:Generated_Source\PSoC5/CapSense.c ****     *  defined customizer. The function overwrites the component parameter setting. 
1808:Generated_Source\PSoC5/CapSense.c ****     *  This function is available only if Current Source is External Resistor.
1809:Generated_Source\PSoC5/CapSense.c ****     * 
1810:Generated_Source\PSoC5/CapSense.c ****     * Parameters:
1811:Generated_Source\PSoC5/CapSense.c ****     *  rbleed:  Ordering number for bleed resistor terminal defined in CapSense
1812:Generated_Source\PSoC5/CapSense.c ****     *  customizer.
1813:Generated_Source\PSoC5/CapSense.c ****     *
1814:Generated_Source\PSoC5/CapSense.c ****     * Return:
1815:Generated_Source\PSoC5/CapSense.c ****     *  None
1816:Generated_Source\PSoC5/CapSense.c ****     *
1817:Generated_Source\PSoC5/CapSense.c ****     * Global Variables:
1818:Generated_Source\PSoC5/CapSense.c ****     *  CapSense_extRbCh0Cur - used to store current number of active 
1819:Generated_Source\PSoC5/CapSense.c ****     *  bleed resistor (Rb) of channel 0.
1820:Generated_Source\PSoC5/CapSense.c ****     *  CapSense_extRbCh1Cur - used to store current number of active 
1821:Generated_Source\PSoC5/CapSense.c ****     *  bleed resistor (Rb) of channel 1.
1822:Generated_Source\PSoC5/CapSense.c ****     *  The active bleed resistor (Rb) pin will be used while next measurement  
1823:Generated_Source\PSoC5/CapSense.c ****     *  cycle.
1824:Generated_Source\PSoC5/CapSense.c ****     *
1825:Generated_Source\PSoC5/CapSense.c ****     * Reentrant:
1826:Generated_Source\PSoC5/CapSense.c ****     *  No
1827:Generated_Source\PSoC5/CapSense.c ****     *
1828:Generated_Source\PSoC5/CapSense.c ****     *******************************************************************************/
1829:Generated_Source\PSoC5/CapSense.c ****     void CapSense_SetRBleed(uint8 rbleed) 
1830:Generated_Source\PSoC5/CapSense.c ****     {
1831:Generated_Source\PSoC5/CapSense.c ****         #if (CapSense_DESIGN_TYPE == CapSense_ONE_CHANNEL_DESIGN)
1832:Generated_Source\PSoC5/CapSense.c ****             CapSense_extRbCh0Cur = rbleed;
ARM GAS  C:\Users\USUARIO\AppData\Local\Temp\ccn1jDSD.s 			page 42


1833:Generated_Source\PSoC5/CapSense.c ****             
1834:Generated_Source\PSoC5/CapSense.c ****         #else
1835:Generated_Source\PSoC5/CapSense.c ****             if(rbleed < CapSense_TOTAL_RB_NUMBER__CH0)
1836:Generated_Source\PSoC5/CapSense.c ****             {
1837:Generated_Source\PSoC5/CapSense.c ****                 CapSense_extRbCh0Cur = rbleed;
1838:Generated_Source\PSoC5/CapSense.c ****             }
1839:Generated_Source\PSoC5/CapSense.c ****             else
1840:Generated_Source\PSoC5/CapSense.c ****             {
1841:Generated_Source\PSoC5/CapSense.c ****                 CapSense_extRbCh1Cur = (rbleed - CapSense_TOTAL_RB_NUMBER__CH0);   
1842:Generated_Source\PSoC5/CapSense.c ****             }
1843:Generated_Source\PSoC5/CapSense.c ****     
1844:Generated_Source\PSoC5/CapSense.c ****         #endif  /* CapSense_DESIGN_TYPE == CapSense_ONE_CHANNEL_DESIGN */ 
1845:Generated_Source\PSoC5/CapSense.c ****     }
1846:Generated_Source\PSoC5/CapSense.c **** #endif /* CapSense_CURRENT_SOURCE == CapSense_EXTERNAL_RB */ 
1847:Generated_Source\PSoC5/CapSense.c **** 
1848:Generated_Source\PSoC5/CapSense.c **** #if (CapSense_PRESCALER_OPTIONS)
1849:Generated_Source\PSoC5/CapSense.c ****     /*******************************************************************************
1850:Generated_Source\PSoC5/CapSense.c ****     * Function Name: CapSense_SetPrescaler
1851:Generated_Source\PSoC5/CapSense.c ****     ********************************************************************************
1852:Generated_Source\PSoC5/CapSense.c ****     *
1853:Generated_Source\PSoC5/CapSense.c ****     * Summary:
1854:Generated_Source\PSoC5/CapSense.c ****     *  Sets analog switch divider.
1855:Generated_Source\PSoC5/CapSense.c ****     *
1856:Generated_Source\PSoC5/CapSense.c ****     * Parameters:
1857:Generated_Source\PSoC5/CapSense.c ****     *  prescaler:  Sets prescaler divider values.
1858:Generated_Source\PSoC5/CapSense.c ****     *
1859:Generated_Source\PSoC5/CapSense.c ****     * Return:
1860:Generated_Source\PSoC5/CapSense.c ****     *  None
1861:Generated_Source\PSoC5/CapSense.c ****     *
1862:Generated_Source\PSoC5/CapSense.c ****     *******************************************************************************/
1863:Generated_Source\PSoC5/CapSense.c ****     void CapSense_SetPrescaler(uint8 prescaler) CYREENTRANT
1864:Generated_Source\PSoC5/CapSense.c ****     {
 488              		.loc 1 1864 0
 489              		.cfi_startproc
 490              		@ args = 0, pretend = 0, frame = 0
 491              		@ frame_needed = 0, uses_anonymous_args = 0
 492              		@ link register save eliminated.
 493              	.LVL38:
1865:Generated_Source\PSoC5/CapSense.c ****         /* Set Prescaler */
1866:Generated_Source\PSoC5/CapSense.c ****         #if (CapSense_PRESCALER_OPTIONS == CapSense_PRESCALER_UDB)
1867:Generated_Source\PSoC5/CapSense.c ****             CapSense_PRESCALER_PERIOD_REG = prescaler;
 494              		.loc 1 1867 0
 495 0000 024B     		ldr	r3, .L41
 496 0002 1870     		strb	r0, [r3]
1868:Generated_Source\PSoC5/CapSense.c ****             CapSense_PRESCALER_COMPARE_REG = (prescaler >> 1u);
 497              		.loc 1 1868 0
 498 0004 4008     		lsrs	r0, r0, #1
 499              	.LVL39:
 500 0006 1033     		adds	r3, r3, #16
 501              	.LVL40:
 502 0008 1870     		strb	r0, [r3]
 503              	.LVL41:
 504 000a 7047     		bx	lr
 505              	.L42:
 506              		.align	2
 507              	.L41:
 508 000c 29640040 		.word	1073767465
ARM GAS  C:\Users\USUARIO\AppData\Local\Temp\ccn1jDSD.s 			page 43


 509              		.cfi_endproc
 510              	.LFE15:
 511              		.size	CapSense_SetPrescaler, .-CapSense_SetPrescaler
 512              		.section	.text.CapSense_SetScanSlotSettings,"ax",%progbits
 513              		.align	2
 514              		.global	CapSense_SetScanSlotSettings
 515              		.thumb
 516              		.thumb_func
 517              		.type	CapSense_SetScanSlotSettings, %function
 518              	CapSense_SetScanSlotSettings:
 519              	.LFB5:
 819:Generated_Source\PSoC5/CapSense.c ****     uint8 widget;
 520              		.loc 1 819 0
 521              		.cfi_startproc
 522              		@ args = 0, pretend = 0, frame = 0
 523              		@ frame_needed = 0, uses_anonymous_args = 0
 524              	.LVL42:
 525 0000 70B5     		push	{r4, r5, r6, lr}
 526              		.cfi_def_cfa_offset 16
 527              		.cfi_offset 4, -16
 528              		.cfi_offset 5, -12
 529              		.cfi_offset 6, -8
 530              		.cfi_offset 14, -4
 531 0002 0446     		mov	r4, r0
 824:Generated_Source\PSoC5/CapSense.c ****         
 532              		.loc 1 824 0
 533 0004 084B     		ldr	r3, .L45
 534 0006 0344     		add	r3, r3, r0
 535 0008 93F83850 		ldrb	r5, [r3, #56]	@ zero_extendqisi2
 536              	.LVL43:
 828:Generated_Source\PSoC5/CapSense.c ****         #endif  /* CapSense_CURRENT_SOURCE */
 537              		.loc 1 828 0
 538 000c 074E     		ldr	r6, .L45+4
 539 000e 3318     		adds	r3, r6, r0
 540 0010 1879     		ldrb	r0, [r3, #4]	@ zero_extendqisi2
 541              	.LVL44:
 542 0012 FFF7FEFF 		bl	CapSense_IdacCH0_SetValue
 543              	.LVL45:
 836:Generated_Source\PSoC5/CapSense.c ****         #endif  /* (CapSense_IMPLEMENTATION_CH0 == CapSense_MEASURE_IMPLEMENTATION_FF) */ 
 544              		.loc 1 836 0
 545 0016 3544     		add	r5, r5, r6
 546              	.LVL46:
 547 0018 2A7A     		ldrb	r2, [r5, #8]	@ zero_extendqisi2
 548 001a 054B     		ldr	r3, .L45+8
 549 001c 1A70     		strb	r2, [r3]
 841:Generated_Source\PSoC5/CapSense.c ****         #elif (CapSense_PRESCALER_OPTIONS)
 550              		.loc 1 841 0
 551 001e 054B     		ldr	r3, .L45+12
 552 0020 185D     		ldrb	r0, [r3, r4]	@ zero_extendqisi2
 553 0022 FFF7FEFF 		bl	CapSense_SetPrescaler
 554              	.LVL47:
 555 0026 70BD     		pop	{r4, r5, r6, pc}
 556              	.LVL48:
 557              	.L46:
 558              		.align	2
 559              	.L45:
 560 0028 00000000 		.word	.LANCHOR1
ARM GAS  C:\Users\USUARIO\AppData\Local\Temp\ccn1jDSD.s 			page 44


 561 002c 00000000 		.word	.LANCHOR0
 562 0030 5A640040 		.word	1073767514
 563 0034 00000000 		.word	CapSense_analogSwitchDivider
 564              		.cfi_endproc
 565              	.LFE5:
 566              		.size	CapSense_SetScanSlotSettings, .-CapSense_SetScanSlotSettings
 567              		.section	.text.CapSense_PreScan,"ax",%progbits
 568              		.align	2
 569              		.global	CapSense_PreScan
 570              		.thumb
 571              		.thumb_func
 572              		.type	CapSense_PreScan, %function
 573              	CapSense_PreScan:
 574              	.LFB13:
1426:Generated_Source\PSoC5/CapSense.c ****     /* Set Sensor Settings */
 575              		.loc 1 1426 0
 576              		.cfi_startproc
 577              		@ args = 0, pretend = 0, frame = 0
 578              		@ frame_needed = 0, uses_anonymous_args = 0
 579              	.LVL49:
 580 0000 38B5     		push	{r3, r4, r5, lr}
 581              		.cfi_def_cfa_offset 16
 582              		.cfi_offset 3, -16
 583              		.cfi_offset 4, -12
 584              		.cfi_offset 5, -8
 585              		.cfi_offset 14, -4
 586 0002 0546     		mov	r5, r0
1428:Generated_Source\PSoC5/CapSense.c ****     
 587              		.loc 1 1428 0
 588 0004 FFF7FEFF 		bl	CapSense_SetScanSlotSettings
 589              	.LVL50:
1440:Generated_Source\PSoC5/CapSense.c ****         
 590              		.loc 1 1440 0
 591 0008 084C     		ldr	r4, .L49
 592 000a 2378     		ldrb	r3, [r4]	@ zero_extendqisi2
 593 000c 43F00103 		orr	r3, r3, #1
 594 0010 2370     		strb	r3, [r4]
1448:Generated_Source\PSoC5/CapSense.c ****             #endif  /* (CapSense_VREF_VDAC != CapSense_VREF_OPTIONS) */
 595              		.loc 1 1448 0
 596 0012 074A     		ldr	r2, .L49+4
 597 0014 1378     		ldrb	r3, [r2]	@ zero_extendqisi2
 598 0016 03F0FE03 		and	r3, r3, #254
 599 001a 1370     		strb	r3, [r2]
1452:Generated_Source\PSoC5/CapSense.c ****             
 600              		.loc 1 1452 0
 601 001c 2846     		mov	r0, r5
 602 001e FFF7FEFF 		bl	CapSense_EnableSensor
 603              	.LVL51:
1556:Generated_Source\PSoC5/CapSense.c ****     
 604              		.loc 1 1556 0
 605 0022 2378     		ldrb	r3, [r4]	@ zero_extendqisi2
 606 0024 43F00203 		orr	r3, r3, #2
 607 0028 2370     		strb	r3, [r4]
 608 002a 38BD     		pop	{r3, r4, r5, pc}
 609              	.L50:
 610              		.align	2
 611              	.L49:
ARM GAS  C:\Users\USUARIO\AppData\Local\Temp\ccn1jDSD.s 			page 45


 612 002c 7D640040 		.word	1073767549
 613 0030 72580040 		.word	1073764466
 614              		.cfi_endproc
 615              	.LFE13:
 616              		.size	CapSense_PreScan, .-CapSense_PreScan
 617              		.section	.text.CapSense_ScanSensor,"ax",%progbits
 618              		.align	2
 619              		.global	CapSense_ScanSensor
 620              		.thumb
 621              		.thumb_func
 622              		.type	CapSense_ScanSensor, %function
 623              	CapSense_ScanSensor:
 624              	.LFB6:
 931:Generated_Source\PSoC5/CapSense.c ****     /* Clears status/control variable and set sensorIndex */
 625              		.loc 1 931 0
 626              		.cfi_startproc
 627              		@ args = 0, pretend = 0, frame = 0
 628              		@ frame_needed = 0, uses_anonymous_args = 0
 629              	.LVL52:
 630 0000 08B5     		push	{r3, lr}
 631              		.cfi_def_cfa_offset 8
 632              		.cfi_offset 3, -8
 633              		.cfi_offset 14, -4
 933:Generated_Source\PSoC5/CapSense.c ****     CapSense_sensorIndex = sensor;
 634              		.loc 1 933 0
 635 0002 054B     		ldr	r3, .L53
 636 0004 0022     		movs	r2, #0
 637 0006 1A70     		strb	r2, [r3]
 934:Generated_Source\PSoC5/CapSense.c ****     
 638              		.loc 1 934 0
 639 0008 044A     		ldr	r2, .L53+4
 640 000a 1070     		strb	r0, [r2]
 938:Generated_Source\PSoC5/CapSense.c ****         CapSense_PreScan(sensor);
 641              		.loc 1 938 0
 642 000c 8122     		movs	r2, #129
 643 000e 1A70     		strb	r2, [r3]
 939:Generated_Source\PSoC5/CapSense.c ****         
 644              		.loc 1 939 0
 645 0010 FFF7FEFF 		bl	CapSense_PreScan
 646              	.LVL53:
 647 0014 08BD     		pop	{r3, pc}
 648              	.L54:
 649 0016 00BF     		.align	2
 650              	.L53:
 651 0018 00000000 		.word	CapSense_csv
 652 001c 00000000 		.word	CapSense_sensorIndex
 653              		.cfi_endproc
 654              	.LFE6:
 655              		.size	CapSense_ScanSensor, .-CapSense_ScanSensor
 656              		.section	.text.CapSense_ScanEnabledWidgets,"ax",%progbits
 657              		.align	2
 658              		.global	CapSense_ScanEnabledWidgets
 659              		.thumb
 660              		.thumb_func
 661              		.type	CapSense_ScanEnabledWidgets, %function
 662              	CapSense_ScanEnabledWidgets:
 663              	.LFB7:
ARM GAS  C:\Users\USUARIO\AppData\Local\Temp\ccn1jDSD.s 			page 46


1008:Generated_Source\PSoC5/CapSense.c ****     /* Clears status/control variable and set sensorIndex */
 664              		.loc 1 1008 0
 665              		.cfi_startproc
 666              		@ args = 0, pretend = 0, frame = 0
 667              		@ frame_needed = 0, uses_anonymous_args = 0
 668 0000 10B5     		push	{r4, lr}
 669              		.cfi_def_cfa_offset 8
 670              		.cfi_offset 4, -8
 671              		.cfi_offset 14, -4
1010:Generated_Source\PSoC5/CapSense.c ****     CapSense_sensorIndex = 0xFFu;
 672              		.loc 1 1010 0
 673 0002 0022     		movs	r2, #0
 674 0004 0A4B     		ldr	r3, .L58
 675 0006 1A70     		strb	r2, [r3]
1011:Generated_Source\PSoC5/CapSense.c ****     
 676              		.loc 1 1011 0
 677 0008 0A4C     		ldr	r4, .L58+4
 678 000a FF23     		movs	r3, #255
 679 000c 2370     		strb	r3, [r4]
1015:Generated_Source\PSoC5/CapSense.c **** 
 680              		.loc 1 1015 0
 681 000e 2078     		ldrb	r0, [r4]	@ zero_extendqisi2
 682 0010 FFF7FEFF 		bl	CapSense_FindNextSensor
 683              	.LVL54:
 684 0014 2070     		strb	r0, [r4]
1018:Generated_Source\PSoC5/CapSense.c ****         {
 685              		.loc 1 1018 0
 686 0016 2378     		ldrb	r3, [r4]	@ zero_extendqisi2
 687 0018 DBB2     		uxtb	r3, r3
 688 001a 032B     		cmp	r3, #3
 689 001c 07D8     		bhi	.L55
1020:Generated_Source\PSoC5/CapSense.c ****             CapSense_PreScan(CapSense_sensorIndex);
 690              		.loc 1 1020 0
 691 001e 044A     		ldr	r2, .L58
 692 0020 1378     		ldrb	r3, [r2]	@ zero_extendqisi2
 693 0022 43F00103 		orr	r3, r3, #1
 694 0026 1370     		strb	r3, [r2]
1021:Generated_Source\PSoC5/CapSense.c ****         }
 695              		.loc 1 1021 0
 696 0028 2078     		ldrb	r0, [r4]	@ zero_extendqisi2
 697 002a FFF7FEFF 		bl	CapSense_PreScan
 698              	.LVL55:
 699              	.L55:
 700 002e 10BD     		pop	{r4, pc}
 701              	.L59:
 702              		.align	2
 703              	.L58:
 704 0030 00000000 		.word	CapSense_csv
 705 0034 00000000 		.word	CapSense_sensorIndex
 706              		.cfi_endproc
 707              	.LFE7:
 708              		.size	CapSense_ScanEnabledWidgets, .-CapSense_ScanEnabledWidgets
 709              		.section	.text.CapSense_GetPrescaler,"ax",%progbits
 710              		.align	2
 711              		.global	CapSense_GetPrescaler
 712              		.thumb
 713              		.thumb_func
ARM GAS  C:\Users\USUARIO\AppData\Local\Temp\ccn1jDSD.s 			page 47


 714              		.type	CapSense_GetPrescaler, %function
 715              	CapSense_GetPrescaler:
 716              	.LFB16:
1869:Generated_Source\PSoC5/CapSense.c ****         #elif (CapSense_PRESCALER_OPTIONS == CapSense_PRESCALER_FF)
1870:Generated_Source\PSoC5/CapSense.c ****             CY_SET_REG16(CapSense_PRESCALER_PERIOD_PTR, (uint16) prescaler);
1871:Generated_Source\PSoC5/CapSense.c ****             CY_SET_REG16(CapSense_PRESCALER_COMPARE_PTR, (uint16) (prescaler >> 1u));
1872:Generated_Source\PSoC5/CapSense.c ****         #else
1873:Generated_Source\PSoC5/CapSense.c ****             /* Do nothing = config without prescaler */
1874:Generated_Source\PSoC5/CapSense.c ****         #endif  /* (CapSense_PRESCALER_OPTIONS == CapSense_PRESCALER_UDB) */
1875:Generated_Source\PSoC5/CapSense.c ****     }
1876:Generated_Source\PSoC5/CapSense.c **** 
1877:Generated_Source\PSoC5/CapSense.c **** 
1878:Generated_Source\PSoC5/CapSense.c ****     /*******************************************************************************
1879:Generated_Source\PSoC5/CapSense.c ****     * Function Name: CapSense_GetPrescaler
1880:Generated_Source\PSoC5/CapSense.c ****     ********************************************************************************
1881:Generated_Source\PSoC5/CapSense.c ****     *
1882:Generated_Source\PSoC5/CapSense.c ****     * Summary:
1883:Generated_Source\PSoC5/CapSense.c ****     *  Gets analog switch divider.
1884:Generated_Source\PSoC5/CapSense.c ****     *
1885:Generated_Source\PSoC5/CapSense.c ****     * Parameters:
1886:Generated_Source\PSoC5/CapSense.c ****     *  None
1887:Generated_Source\PSoC5/CapSense.c ****     *
1888:Generated_Source\PSoC5/CapSense.c ****     * Return:
1889:Generated_Source\PSoC5/CapSense.c ****     *   Returns the prescaler divider value.
1890:Generated_Source\PSoC5/CapSense.c ****     *
1891:Generated_Source\PSoC5/CapSense.c ****     *******************************************************************************/
1892:Generated_Source\PSoC5/CapSense.c ****     uint8 CapSense_GetPrescaler(void) 
1893:Generated_Source\PSoC5/CapSense.c ****     {
 717              		.loc 1 1893 0
 718              		.cfi_startproc
 719              		@ args = 0, pretend = 0, frame = 0
 720              		@ frame_needed = 0, uses_anonymous_args = 0
 721              		@ link register save eliminated.
 722              	.LVL56:
1894:Generated_Source\PSoC5/CapSense.c ****         uint8 prescaler = 0u;
1895:Generated_Source\PSoC5/CapSense.c **** 
1896:Generated_Source\PSoC5/CapSense.c ****         /* Get Prescaler */
1897:Generated_Source\PSoC5/CapSense.c ****         #if (CapSense_PRESCALER_OPTIONS == CapSense_PRESCALER_UDB)
1898:Generated_Source\PSoC5/CapSense.c ****             prescaler = CapSense_PRESCALER_PERIOD_REG;
 723              		.loc 1 1898 0
 724 0000 014B     		ldr	r3, .L61
 725 0002 1878     		ldrb	r0, [r3]	@ zero_extendqisi2
 726              	.LVL57:
1899:Generated_Source\PSoC5/CapSense.c ****             
1900:Generated_Source\PSoC5/CapSense.c ****         #elif (CapSense_PRESCALER_OPTIONS == CapSense_PRESCALER_FF)
1901:Generated_Source\PSoC5/CapSense.c ****             prescaler = (uint8) CY_GET_REG16(CapSense_PRESCALER_PERIOD_PTR);
1902:Generated_Source\PSoC5/CapSense.c ****             
1903:Generated_Source\PSoC5/CapSense.c ****         #else
1904:Generated_Source\PSoC5/CapSense.c ****             /* Do nothing = config without prescaler */
1905:Generated_Source\PSoC5/CapSense.c ****         #endif  /* (CapSense_PRESCALER_OPTIONS == CapSense_PRESCALER_UDB) */
1906:Generated_Source\PSoC5/CapSense.c ****         
1907:Generated_Source\PSoC5/CapSense.c ****         return (prescaler);
1908:Generated_Source\PSoC5/CapSense.c ****     }
 727              		.loc 1 1908 0
 728 0004 7047     		bx	lr
 729              	.L62:
 730 0006 00BF     		.align	2
ARM GAS  C:\Users\USUARIO\AppData\Local\Temp\ccn1jDSD.s 			page 48


 731              	.L61:
 732 0008 29640040 		.word	1073767465
 733              		.cfi_endproc
 734              	.LFE16:
 735              		.size	CapSense_GetPrescaler, .-CapSense_GetPrescaler
 736              		.section	.text.CapSense_SetScanSpeed,"ax",%progbits
 737              		.align	2
 738              		.global	CapSense_SetScanSpeed
 739              		.thumb
 740              		.thumb_func
 741              		.type	CapSense_SetScanSpeed, %function
 742              	CapSense_SetScanSpeed:
 743              	.LFB17:
1909:Generated_Source\PSoC5/CapSense.c **** #endif  /* CapSense_PRESCALER_OPTIONS */
1910:Generated_Source\PSoC5/CapSense.c **** 
1911:Generated_Source\PSoC5/CapSense.c **** 
1912:Generated_Source\PSoC5/CapSense.c **** /*******************************************************************************
1913:Generated_Source\PSoC5/CapSense.c **** * Function Name: CapSense_SetScanSpeed
1914:Generated_Source\PSoC5/CapSense.c **** ********************************************************************************
1915:Generated_Source\PSoC5/CapSense.c **** *
1916:Generated_Source\PSoC5/CapSense.c **** * Summary:
1917:Generated_Source\PSoC5/CapSense.c **** *  Sets ScanSpeed divider.
1918:Generated_Source\PSoC5/CapSense.c **** *
1919:Generated_Source\PSoC5/CapSense.c **** * Parameters:
1920:Generated_Source\PSoC5/CapSense.c **** *  scanspeed:  Sets ScanSpeed divider.
1921:Generated_Source\PSoC5/CapSense.c **** *
1922:Generated_Source\PSoC5/CapSense.c **** * Return:
1923:Generated_Source\PSoC5/CapSense.c **** *  None
1924:Generated_Source\PSoC5/CapSense.c **** *
1925:Generated_Source\PSoC5/CapSense.c **** *******************************************************************************/
1926:Generated_Source\PSoC5/CapSense.c **** void CapSense_SetScanSpeed(uint8 scanSpeed) 
1927:Generated_Source\PSoC5/CapSense.c **** {
 744              		.loc 1 1927 0
 745              		.cfi_startproc
 746              		@ args = 0, pretend = 0, frame = 0
 747              		@ frame_needed = 0, uses_anonymous_args = 0
 748              		@ link register save eliminated.
 749              	.LVL58:
1928:Generated_Source\PSoC5/CapSense.c ****     CapSense_SCANSPEED_PERIOD_REG = scanSpeed; 
 750              		.loc 1 1928 0
 751 0000 014B     		ldr	r3, .L64
 752 0002 1870     		strb	r0, [r3]
 753 0004 7047     		bx	lr
 754              	.L65:
 755 0006 00BF     		.align	2
 756              	.L64:
 757 0008 8E640040 		.word	1073767566
 758              		.cfi_endproc
 759              	.LFE17:
 760              		.size	CapSense_SetScanSpeed, .-CapSense_SetScanSpeed
 761              		.section	.text.CapSense_SetAnalogSwitchesSource,"ax",%progbits
 762              		.align	2
 763              		.global	CapSense_SetAnalogSwitchesSource
 764              		.thumb
 765              		.thumb_func
 766              		.type	CapSense_SetAnalogSwitchesSource, %function
 767              	CapSense_SetAnalogSwitchesSource:
ARM GAS  C:\Users\USUARIO\AppData\Local\Temp\ccn1jDSD.s 			page 49


 768              	.LFB18:
1929:Generated_Source\PSoC5/CapSense.c **** }
1930:Generated_Source\PSoC5/CapSense.c **** 
1931:Generated_Source\PSoC5/CapSense.c **** 
1932:Generated_Source\PSoC5/CapSense.c **** #if (CapSense_PRS_OPTIONS)
1933:Generated_Source\PSoC5/CapSense.c ****     /*******************************************************************************
1934:Generated_Source\PSoC5/CapSense.c ****     * Function Name: CapSense_SetAnalogSwitchesSource
1935:Generated_Source\PSoC5/CapSense.c ****     ********************************************************************************
1936:Generated_Source\PSoC5/CapSense.c ****     *
1937:Generated_Source\PSoC5/CapSense.c ****     * Summary:
1938:Generated_Source\PSoC5/CapSense.c ****     *  Selects the Analog switches source between PRS and prescaler. It is useful
1939:Generated_Source\PSoC5/CapSense.c ****     *  for sensor capacitance determination for sensors with low self-capacitance.
1940:Generated_Source\PSoC5/CapSense.c ****     *  This function is used in auto-tuning procedure.
1941:Generated_Source\PSoC5/CapSense.c ****     *
1942:Generated_Source\PSoC5/CapSense.c ****     * Parameters:
1943:Generated_Source\PSoC5/CapSense.c ****     *  src:  analog switches source:
1944:Generated_Source\PSoC5/CapSense.c ****     *           CapSense_ANALOG_SWITCHES_SRC_PRESCALER - selects prescaler
1945:Generated_Source\PSoC5/CapSense.c ****     *           CapSense_ANALOG_SWITCHES_SRC_PRS - selects PRS
1946:Generated_Source\PSoC5/CapSense.c ****     *
1947:Generated_Source\PSoC5/CapSense.c ****     * Return:
1948:Generated_Source\PSoC5/CapSense.c ****     *  None
1949:Generated_Source\PSoC5/CapSense.c ****     *
1950:Generated_Source\PSoC5/CapSense.c ****     * Reentrant:
1951:Generated_Source\PSoC5/CapSense.c ****     *  No
1952:Generated_Source\PSoC5/CapSense.c ****     *******************************************************************************/
1953:Generated_Source\PSoC5/CapSense.c ****     void CapSense_SetAnalogSwitchesSource(uint8 src)
1954:Generated_Source\PSoC5/CapSense.c ****                       
1955:Generated_Source\PSoC5/CapSense.c ****     {
 769              		.loc 1 1955 0
 770              		.cfi_startproc
 771              		@ args = 0, pretend = 0, frame = 0
 772              		@ frame_needed = 0, uses_anonymous_args = 0
 773              		@ link register save eliminated.
 774              	.LVL59:
1956:Generated_Source\PSoC5/CapSense.c ****         if(src == CapSense_ANALOG_SWITCHES_SRC_PRESCALER)
 775              		.loc 1 1956 0
 776 0000 0128     		cmp	r0, #1
 777 0002 05D1     		bne	.L67
1957:Generated_Source\PSoC5/CapSense.c ****         {
1958:Generated_Source\PSoC5/CapSense.c ****             CapSense_CONTROL_REG &= (uint8)~0x10u;
 778              		.loc 1 1958 0
 779 0004 054A     		ldr	r2, .L69
 780 0006 1378     		ldrb	r3, [r2]	@ zero_extendqisi2
 781 0008 03F0EF03 		and	r3, r3, #239
 782 000c 1370     		strb	r3, [r2]
 783 000e 7047     		bx	lr
 784              	.L67:
1959:Generated_Source\PSoC5/CapSense.c ****         }
1960:Generated_Source\PSoC5/CapSense.c ****         else
1961:Generated_Source\PSoC5/CapSense.c ****         {
1962:Generated_Source\PSoC5/CapSense.c ****             CapSense_CONTROL_REG |= 0x10u;
 785              		.loc 1 1962 0
 786 0010 024A     		ldr	r2, .L69
 787 0012 1378     		ldrb	r3, [r2]	@ zero_extendqisi2
 788 0014 43F01003 		orr	r3, r3, #16
 789 0018 1370     		strb	r3, [r2]
 790 001a 7047     		bx	lr
ARM GAS  C:\Users\USUARIO\AppData\Local\Temp\ccn1jDSD.s 			page 50


 791              	.L70:
 792              		.align	2
 793              	.L69:
 794 001c 7D640040 		.word	1073767549
 795              		.cfi_endproc
 796              	.LFE18:
 797              		.size	CapSense_SetAnalogSwitchesSource, .-CapSense_SetAnalogSwitchesSource
 798              		.section	.text.CapSense_Init,"ax",%progbits
 799              		.align	2
 800              		.global	CapSense_Init
 801              		.thumb
 802              		.thumb_func
 803              		.type	CapSense_Init, %function
 804              	CapSense_Init:
 805              	.LFB0:
 112:Generated_Source\PSoC5/CapSense.c ****     #if ( (CapSense_PRS_OPTIONS) || \
 806              		.loc 1 112 0
 807              		.cfi_startproc
 808              		@ args = 0, pretend = 0, frame = 0
 809              		@ frame_needed = 0, uses_anonymous_args = 0
 810 0000 38B5     		push	{r3, r4, r5, lr}
 811              		.cfi_def_cfa_offset 16
 812              		.cfi_offset 3, -16
 813              		.cfi_offset 4, -12
 814              		.cfi_offset 5, -8
 815              		.cfi_offset 14, -4
 126:Generated_Source\PSoC5/CapSense.c **** 
 816              		.loc 1 126 0
 817 0002 FFF7FEFF 		bl	CapSense_ClearSensors
 818              	.LVL60:
 142:Generated_Source\PSoC5/CapSense.c ****     #endif /* (CapSense_PRS_OPTIONS) */
 819              		.loc 1 142 0
 820 0006 0220     		movs	r0, #2
 821 0008 FFF7FEFF 		bl	CapSense_SetAnalogSwitchesSource
 822              	.LVL61:
 158:Generated_Source\PSoC5/CapSense.c ****         CapSense_AUX_CONTROL_A_REG |= CapSense_AUXCTRL_FIFO_SINGLE_REG;
 823              		.loc 1 158 0
 824 000c FFF7FEFF 		bl	CyEnterCriticalSection
 825              	.LVL62:
 159:Generated_Source\PSoC5/CapSense.c ****         CapSense_AUX_CONTROL_B_REG |= CapSense_AUXCTRL_FIFO_SINGLE_REG;
 826              		.loc 1 159 0
 827 0010 2E4A     		ldr	r2, .L73
 828 0012 1378     		ldrb	r3, [r2]	@ zero_extendqisi2
 829 0014 43F00303 		orr	r3, r3, #3
 830 0018 1370     		strb	r3, [r2]
 160:Generated_Source\PSoC5/CapSense.c ****         CyExitCriticalSection(enableInterrupts);
 831              		.loc 1 160 0
 832 001a 0132     		adds	r2, r2, #1
 833 001c 1378     		ldrb	r3, [r2]	@ zero_extendqisi2
 834 001e 43F00303 		orr	r3, r3, #3
 835 0022 1370     		strb	r3, [r2]
 161:Generated_Source\PSoC5/CapSense.c ****         
 836              		.loc 1 161 0
 837 0024 FFF7FEFF 		bl	CyExitCriticalSection
 838              	.LVL63:
 164:Generated_Source\PSoC5/CapSense.c ****         /* Write FIFO with seed */
 839              		.loc 1 164 0
ARM GAS  C:\Users\USUARIO\AppData\Local\Temp\ccn1jDSD.s 			page 51


 840 0028 4FF43442 		mov	r2, #46080
 841 002c 284B     		ldr	r3, .L73+4
 842 002e 1A80     		strh	r2, [r3]	@ movhi
 166:Generated_Source\PSoC5/CapSense.c ****                 
 843              		.loc 1 166 0
 844 0030 4FF6FF75 		movw	r5, #65535
 845 0034 2033     		adds	r3, r3, #32
 846 0036 1D80     		strh	r5, [r3]	@ movhi
 186:Generated_Source\PSoC5/CapSense.c ****     
 847              		.loc 1 186 0
 848 0038 0724     		movs	r4, #7
 849 003a BA3B     		subs	r3, r3, #186
 850 003c 1C70     		strb	r4, [r3]
 202:Generated_Source\PSoC5/CapSense.c ****         CapSense_PWM_CH0_AUX_CONTROL_REG |= CapSense_AUXCTRL_FIFO_SINGLE_REG;
 851              		.loc 1 202 0
 852 003e FFF7FEFF 		bl	CyEnterCriticalSection
 853              	.LVL64:
 203:Generated_Source\PSoC5/CapSense.c ****         CapSense_RAW_CH0_AUX_CONTROL_REG |= CapSense_AUXCTRL_FIFO_SINGLE_REG;
 854              		.loc 1 203 0
 855 0042 244A     		ldr	r2, .L73+8
 856 0044 1378     		ldrb	r3, [r2]	@ zero_extendqisi2
 857 0046 43F00303 		orr	r3, r3, #3
 858 004a 1370     		strb	r3, [r2]
 204:Generated_Source\PSoC5/CapSense.c ****         CyExitCriticalSection(enableInterrupts);
 859              		.loc 1 204 0
 860 004c 0132     		adds	r2, r2, #1
 861 004e 1378     		ldrb	r3, [r2]	@ zero_extendqisi2
 862 0050 43F00303 		orr	r3, r3, #3
 863 0054 1370     		strb	r3, [r2]
 205:Generated_Source\PSoC5/CapSense.c ****         
 864              		.loc 1 205 0
 865 0056 FFF7FEFF 		bl	CyExitCriticalSection
 866              	.LVL65:
 208:Generated_Source\PSoC5/CapSense.c ****         CapSense_PWM_CH0_PERIOD_LO_REG    = CapSense_MEASURE_FULL_RANGE_LOW;
 867              		.loc 1 208 0
 868 005a FF23     		movs	r3, #255
 869 005c 1E4A     		ldr	r2, .L73+12
 870 005e 1570     		strb	r5, [r2]
 209:Generated_Source\PSoC5/CapSense.c ****         CapSense_PWM_CH0_COUNTER_LO_REG   = CapSense_MEASURE_FULL_RANGE_LOW;
 871              		.loc 1 209 0
 872 0060 2032     		adds	r2, r2, #32
 873 0062 1370     		strb	r3, [r2]
 210:Generated_Source\PSoC5/CapSense.c ****         
 874              		.loc 1 210 0
 875 0064 403A     		subs	r2, r2, #64
 876 0066 1370     		strb	r3, [r2]
 213:Generated_Source\PSoC5/CapSense.c ****         CapSense_RAW_CH0_PERIOD_HI_REG    = CapSense_MEASURE_FULL_RANGE_LOW;
 877              		.loc 1 213 0
 878 0068 2132     		adds	r2, r2, #33
 879 006a 1370     		strb	r3, [r2]
 214:Generated_Source\PSoC5/CapSense.c ****         CapSense_RAW_CH0_PERIOD_LO_REG    = CapSense_MEASURE_FULL_RANGE_LOW;
 880              		.loc 1 214 0
 881 006c 3032     		adds	r2, r2, #48
 882 006e 1370     		strb	r3, [r2]
 215:Generated_Source\PSoC5/CapSense.c ****         
 883              		.loc 1 215 0
 884 0070 103A     		subs	r2, r2, #16
ARM GAS  C:\Users\USUARIO\AppData\Local\Temp\ccn1jDSD.s 			page 52


 885 0072 1370     		strb	r3, [r2]
 254:Generated_Source\PSoC5/CapSense.c ****     (void)CyIntSetVector(CapSense_IsrCH0_ISR_NUMBER, &CapSense_IsrCH0_ISR);
 886              		.loc 1 254 0
 887 0074 1022     		movs	r2, #16
 888 0076 03F1E023 		add	r3, r3, #-536813568
 889 007a 8133     		adds	r3, r3, #129
 890 007c 1A60     		str	r2, [r3]
 255:Generated_Source\PSoC5/CapSense.c ****     CyIntSetPriority(CapSense_IsrCH0_ISR_NUMBER, CapSense_IsrCH0_ISR_PRIORITY);
 891              		.loc 1 255 0
 892 007e 1749     		ldr	r1, .L73+16
 893 0080 0420     		movs	r0, #4
 894 0082 FFF7FEFF 		bl	CyIntSetVector
 895              	.LVL66:
 256:Generated_Source\PSoC5/CapSense.c ****     
 896              		.loc 1 256 0
 897 0086 2146     		mov	r1, r4
 898 0088 0420     		movs	r0, #4
 899 008a FFF7FEFF 		bl	CyIntSetPriority
 900              	.LVL67:
 265:Generated_Source\PSoC5/CapSense.c ****     CapSense_AMuxCH0_Connect(CapSense_AMuxCH0_CMOD_CHANNEL);
 901              		.loc 1 265 0
 902 008e FFF7FEFF 		bl	CapSense_AMuxCH0_Init
 903              	.LVL68:
 266:Generated_Source\PSoC5/CapSense.c ****     CapSense_AMuxCH0_Connect(CapSense_AMuxCH0_CMP_VP_CHANNEL);
 904              		.loc 1 266 0
 905 0092 0420     		movs	r0, #4
 906 0094 FFF7FEFF 		bl	CapSense_AMuxCH0_Set
 907              	.LVL69:
 267:Generated_Source\PSoC5/CapSense.c ****     #if (CapSense_CURRENT_SOURCE)
 908              		.loc 1 267 0
 909 0098 0520     		movs	r0, #5
 910 009a FFF7FEFF 		bl	CapSense_AMuxCH0_Set
 911              	.LVL70:
 269:Generated_Source\PSoC5/CapSense.c ****     #endif  /* CapSense_CURRENT_SOURCE */
 912              		.loc 1 269 0
 913 009e 0620     		movs	r0, #6
 914 00a0 FFF7FEFF 		bl	CapSense_AMuxCH0_Set
 915              	.LVL71:
 287:Generated_Source\PSoC5/CapSense.c ****     #if (CapSense_DESIGN_TYPE == CapSense_TWO_CHANNELS_DESIGN)
 916              		.loc 1 287 0
 917 00a4 0E4A     		ldr	r2, .L73+20
 918 00a6 1378     		ldrb	r3, [r2]	@ zero_extendqisi2
 919 00a8 43F00403 		orr	r3, r3, #4
 920 00ac 1370     		strb	r3, [r2]
 293:Generated_Source\PSoC5/CapSense.c ****     #if (CapSense_CURRENT_SOURCE)
 921              		.loc 1 293 0
 922 00ae FFF7FEFF 		bl	CapSense_CompCH0_Init
 923              	.LVL72:
 295:Generated_Source\PSoC5/CapSense.c ****         CapSense_IdacCH0_SetPolarity(CapSense_IdacCH0_IDIR);
 924              		.loc 1 295 0
 925 00b2 FFF7FEFF 		bl	CapSense_IdacCH0_Init
 926              	.LVL73:
 296:Generated_Source\PSoC5/CapSense.c ****         CapSense_IdacCH0_SetRange(CapSense_IDAC_RANGE_VALUE);
 927              		.loc 1 296 0
 928 00b6 0020     		movs	r0, #0
 929 00b8 FFF7FEFF 		bl	CapSense_IdacCH0_SetPolarity
 930              	.LVL74:
ARM GAS  C:\Users\USUARIO\AppData\Local\Temp\ccn1jDSD.s 			page 53


 297:Generated_Source\PSoC5/CapSense.c ****         CapSense_IdacCH0_SetValue(CapSense_TURN_OFF_IDAC);
 931              		.loc 1 297 0
 932 00bc 0420     		movs	r0, #4
 933 00be FFF7FEFF 		bl	CapSense_IdacCH0_SetRange
 934              	.LVL75:
 298:Generated_Source\PSoC5/CapSense.c ****     #endif  /* CapSense_CURRENT_SOURCE */
 935              		.loc 1 298 0
 936 00c2 0020     		movs	r0, #0
 937 00c4 FFF7FEFF 		bl	CapSense_IdacCH0_SetValue
 938              	.LVL76:
 939 00c8 38BD     		pop	{r3, r4, r5, pc}
 940              	.L74:
 941 00ca 00BF     		.align	2
 942              	.L73:
 943 00cc 98650040 		.word	1073767832
 944 00d0 28650040 		.word	1073767720
 945 00d4 9A640040 		.word	1073767578
 946 00d8 2A640040 		.word	1073767466
 947 00dc 00000000 		.word	CapSense_IsrCH0_ISR
 948 00e0 7D640040 		.word	1073767549
 949              		.cfi_endproc
 950              	.LFE0:
 951              		.size	CapSense_Init, .-CapSense_Init
 952              		.section	.text.CapSense_Start,"ax",%progbits
 953              		.align	2
 954              		.global	CapSense_Start
 955              		.thumb
 956              		.thumb_func
 957              		.type	CapSense_Start, %function
 958              	CapSense_Start:
 959              	.LFB2:
 490:Generated_Source\PSoC5/CapSense.c ****     if (CapSense_initVar == 0u)
 960              		.loc 1 490 0
 961              		.cfi_startproc
 962              		@ args = 0, pretend = 0, frame = 0
 963              		@ frame_needed = 0, uses_anonymous_args = 0
 964 0000 08B5     		push	{r3, lr}
 965              		.cfi_def_cfa_offset 8
 966              		.cfi_offset 3, -8
 967              		.cfi_offset 14, -4
 491:Generated_Source\PSoC5/CapSense.c ****     {
 968              		.loc 1 491 0
 969 0002 084B     		ldr	r3, .L78
 970 0004 1B78     		ldrb	r3, [r3]	@ zero_extendqisi2
 971 0006 23B9     		cbnz	r3, .L76
 493:Generated_Source\PSoC5/CapSense.c ****         CapSense_initVar = 1u;
 972              		.loc 1 493 0
 973 0008 FFF7FEFF 		bl	CapSense_Init
 974              	.LVL77:
 494:Generated_Source\PSoC5/CapSense.c ****     }
 975              		.loc 1 494 0
 976 000c 0122     		movs	r2, #1
 977 000e 054B     		ldr	r3, .L78
 978 0010 1A70     		strb	r2, [r3]
 979              	.L76:
 496:Generated_Source\PSoC5/CapSense.c ****     
 980              		.loc 1 496 0
ARM GAS  C:\Users\USUARIO\AppData\Local\Temp\ccn1jDSD.s 			page 54


 981 0012 FFF7FEFF 		bl	CapSense_Enable
 982              	.LVL78:
 501:Generated_Source\PSoC5/CapSense.c ****         CapSense_lowLevelTuningDone = 1u;
 983              		.loc 1 501 0
 984 0016 FFF7FEFF 		bl	CapSense_AutoTune
 985              	.LVL79:
 502:Generated_Source\PSoC5/CapSense.c ****     #endif /* (CapSense_TUNING_METHOD == CapSense_AUTO_TUNING) */
 986              		.loc 1 502 0
 987 001a 0122     		movs	r2, #1
 988 001c 024B     		ldr	r3, .L78+4
 989 001e 1A73     		strb	r2, [r3, #12]
 990 0020 08BD     		pop	{r3, pc}
 991              	.L79:
 992 0022 00BF     		.align	2
 993              	.L78:
 994 0024 00000000 		.word	.LANCHOR2
 995 0028 00000000 		.word	.LANCHOR0
 996              		.cfi_endproc
 997              	.LFE2:
 998              		.size	CapSense_Start, .-CapSense_Start
 999              		.global	CapSense_widgetNumber
 1000              		.comm	CapSense_analogSwitchDivider,4,4
 1001              		.global	CapSense_widgetResolution
 1002              		.global	CapSense_idacSettings
 1003              		.global	CapSense_csTable
 1004              		.global	CapSense_maskTable
 1005              		.global	CapSense_portTable
 1006              		.global	CapSense_pcTable
 1007              		.global	CapSense_sensorEnableMask
 1008              		.comm	CapSense_sensorRaw,8,4
 1009              		.global	CapSense_lowLevelTuningDone
 1010              		.comm	CapSense_sensorIndex,1,1
 1011              		.comm	CapSense_csv,1,1
 1012              		.section	.rodata
 1013              		.align	2
 1014              		.set	.LANCHOR1,. + 0
 1015              		.type	CapSense_portTable, %object
 1016              		.size	CapSense_portTable, 4
 1017              	CapSense_portTable:
 1018 0000 0F       		.byte	15
 1019 0001 0F       		.byte	15
 1020 0002 03       		.byte	3
 1021 0003 03       		.byte	3
 1022              		.type	CapSense_maskTable, %object
 1023              		.size	CapSense_maskTable, 4
 1024              	CapSense_maskTable:
 1025 0004 04       		.byte	4
 1026 0005 08       		.byte	8
 1027 0006 04       		.byte	4
 1028 0007 08       		.byte	8
 1029              		.type	CapSense_pcTable, %object
 1030              		.size	CapSense_pcTable, 16
 1031              	CapSense_pcTable:
 1032 0008 7A500040 		.word	1073762426
 1033 000c 7B500040 		.word	1073762427
 1034 0010 1A500040 		.word	1073762330
 1035 0014 1B500040 		.word	1073762331
ARM GAS  C:\Users\USUARIO\AppData\Local\Temp\ccn1jDSD.s 			page 55


 1036              		.type	CapSense_csTable, %object
 1037              		.size	CapSense_csTable, 32
 1038              	CapSense_csTable:
 1039 0018 06520040 		.word	1073762822
 1040 001c 0E520040 		.word	1073762830
 1041 0020 16520040 		.word	1073762838
 1042 0024 1E520040 		.word	1073762846
 1043 0028 26520040 		.word	1073762854
 1044 002c 2E520040 		.word	1073762862
 1045 0030 36520040 		.word	1073762870
 1046 0034 7E520040 		.word	1073762942
 1047              		.type	CapSense_widgetNumber, %object
 1048              		.size	CapSense_widgetNumber, 4
 1049              	CapSense_widgetNumber:
 1050 0038 00       		.byte	0
 1051 0039 01       		.byte	1
 1052 003a 02       		.byte	2
 1053 003b 03       		.byte	3
 1054              		.data
 1055              		.align	2
 1056              		.set	.LANCHOR0,. + 0
 1057              		.type	CapSense_sensorEnableMask, %object
 1058              		.size	CapSense_sensorEnableMask, 1
 1059              	CapSense_sensorEnableMask:
 1060 0000 0F       		.byte	15
 1061 0001 000000   		.space	3
 1062              		.type	CapSense_idacSettings, %object
 1063              		.size	CapSense_idacSettings, 4
 1064              	CapSense_idacSettings:
 1065 0004 C8       		.byte	-56
 1066 0005 C8       		.byte	-56
 1067 0006 C8       		.byte	-56
 1068 0007 C8       		.byte	-56
 1069              		.type	CapSense_widgetResolution, %object
 1070              		.size	CapSense_widgetResolution, 4
 1071              	CapSense_widgetResolution:
 1072 0008 03       		.byte	3
 1073 0009 03       		.byte	3
 1074 000a 03       		.byte	3
 1075 000b 03       		.byte	3
 1076              		.type	CapSense_lowLevelTuningDone, %object
 1077              		.size	CapSense_lowLevelTuningDone, 1
 1078              	CapSense_lowLevelTuningDone:
 1079 000c 01       		.byte	1
 1080              		.bss
 1081              		.set	.LANCHOR2,. + 0
 1082              		.type	CapSense_initVar, %object
 1083              		.size	CapSense_initVar, 1
 1084              	CapSense_initVar:
 1085 0000 00       		.space	1
 1086              		.text
 1087              	.Letext0:
 1088              		.file 2 "Generated_Source\\PSoC5\\cytypes.h"
 1089              		.file 3 "Generated_Source\\PSoC5\\CyLib.h"
 1090              		.file 4 "Generated_Source\\PSoC5\\CapSense_IntClock.h"
 1091              		.file 5 "Generated_Source\\PSoC5\\CapSense_CompCH0.h"
 1092              		.file 6 "Generated_Source\\PSoC5\\CapSense_IdacCH0.h"
ARM GAS  C:\Users\USUARIO\AppData\Local\Temp\ccn1jDSD.s 			page 56


 1093              		.file 7 "Generated_Source\\PSoC5\\cyfitter_cfg.h"
 1094              		.file 8 "Generated_Source\\PSoC5\\CapSense_AMuxCH0.h"
 1095              		.file 9 "Generated_Source\\PSoC5\\CapSense.h"
 1096              		.section	.debug_info,"",%progbits
 1097              	.Ldebug_info0:
 1098 0000 3B080000 		.4byte	0x83b
 1099 0004 0400     		.2byte	0x4
 1100 0006 00000000 		.4byte	.Ldebug_abbrev0
 1101 000a 04       		.byte	0x4
 1102 000b 01       		.uleb128 0x1
 1103 000c 00050000 		.4byte	.LASF81
 1104 0010 0C       		.byte	0xc
 1105 0011 2A000000 		.4byte	.LASF82
 1106 0015 E9030000 		.4byte	.LASF83
 1107 0019 00000000 		.4byte	.Ldebug_ranges0+0
 1108 001d 00000000 		.4byte	0
 1109 0021 00000000 		.4byte	.Ldebug_line0
 1110 0025 02       		.uleb128 0x2
 1111 0026 01       		.byte	0x1
 1112 0027 06       		.byte	0x6
 1113 0028 10010000 		.4byte	.LASF0
 1114 002c 02       		.uleb128 0x2
 1115 002d 01       		.byte	0x1
 1116 002e 08       		.byte	0x8
 1117 002f 7E040000 		.4byte	.LASF1
 1118 0033 02       		.uleb128 0x2
 1119 0034 02       		.byte	0x2
 1120 0035 05       		.byte	0x5
 1121 0036 BC040000 		.4byte	.LASF2
 1122 003a 02       		.uleb128 0x2
 1123 003b 02       		.byte	0x2
 1124 003c 07       		.byte	0x7
 1125 003d CB020000 		.4byte	.LASF3
 1126 0041 02       		.uleb128 0x2
 1127 0042 04       		.byte	0x4
 1128 0043 05       		.byte	0x5
 1129 0044 3D010000 		.4byte	.LASF4
 1130 0048 02       		.uleb128 0x2
 1131 0049 04       		.byte	0x4
 1132 004a 07       		.byte	0x7
 1133 004b 64020000 		.4byte	.LASF5
 1134 004f 02       		.uleb128 0x2
 1135 0050 08       		.byte	0x8
 1136 0051 05       		.byte	0x5
 1137 0052 02010000 		.4byte	.LASF6
 1138 0056 02       		.uleb128 0x2
 1139 0057 08       		.byte	0x8
 1140 0058 07       		.byte	0x7
 1141 0059 AD000000 		.4byte	.LASF7
 1142 005d 03       		.uleb128 0x3
 1143 005e 04       		.byte	0x4
 1144 005f 05       		.byte	0x5
 1145 0060 696E7400 		.ascii	"int\000"
 1146 0064 02       		.uleb128 0x2
 1147 0065 04       		.byte	0x4
 1148 0066 07       		.byte	0x7
 1149 0067 27020000 		.4byte	.LASF8
ARM GAS  C:\Users\USUARIO\AppData\Local\Temp\ccn1jDSD.s 			page 57


 1150 006b 04       		.uleb128 0x4
 1151 006c 4C010000 		.4byte	.LASF9
 1152 0070 02       		.byte	0x2
 1153 0071 9201     		.2byte	0x192
 1154 0073 2C000000 		.4byte	0x2c
 1155 0077 04       		.uleb128 0x4
 1156 0078 00000000 		.4byte	.LASF10
 1157 007c 02       		.byte	0x2
 1158 007d 9301     		.2byte	0x193
 1159 007f 3A000000 		.4byte	0x3a
 1160 0083 04       		.uleb128 0x4
 1161 0084 C8010000 		.4byte	.LASF11
 1162 0088 02       		.byte	0x2
 1163 0089 9401     		.2byte	0x194
 1164 008b 48000000 		.4byte	0x48
 1165 008f 02       		.uleb128 0x2
 1166 0090 04       		.byte	0x4
 1167 0091 04       		.byte	0x4
 1168 0092 D9030000 		.4byte	.LASF12
 1169 0096 02       		.uleb128 0x2
 1170 0097 08       		.byte	0x8
 1171 0098 04       		.byte	0x4
 1172 0099 68010000 		.4byte	.LASF13
 1173 009d 02       		.uleb128 0x2
 1174 009e 01       		.byte	0x1
 1175 009f 08       		.byte	0x8
 1176 00a0 8E050000 		.4byte	.LASF14
 1177 00a4 04       		.uleb128 0x4
 1178 00a5 61040000 		.4byte	.LASF15
 1179 00a9 02       		.byte	0x2
 1180 00aa 3C02     		.2byte	0x23c
 1181 00ac B0000000 		.4byte	0xb0
 1182 00b0 05       		.uleb128 0x5
 1183 00b1 6B000000 		.4byte	0x6b
 1184 00b5 04       		.uleb128 0x4
 1185 00b6 46010000 		.4byte	.LASF16
 1186 00ba 02       		.byte	0x2
 1187 00bb 3D02     		.2byte	0x23d
 1188 00bd C1000000 		.4byte	0xc1
 1189 00c1 05       		.uleb128 0x5
 1190 00c2 77000000 		.4byte	0x77
 1191 00c6 04       		.uleb128 0x4
 1192 00c7 2D030000 		.4byte	.LASF17
 1193 00cb 02       		.byte	0x2
 1194 00cc 3E02     		.2byte	0x23e
 1195 00ce D2000000 		.4byte	0xd2
 1196 00d2 05       		.uleb128 0x5
 1197 00d3 83000000 		.4byte	0x83
 1198 00d7 02       		.uleb128 0x2
 1199 00d8 08       		.byte	0x8
 1200 00d9 04       		.byte	0x4
 1201 00da 6A030000 		.4byte	.LASF18
 1202 00de 02       		.uleb128 0x2
 1203 00df 04       		.byte	0x4
 1204 00e0 07       		.byte	0x7
 1205 00e1 50030000 		.4byte	.LASF19
 1206 00e5 06       		.uleb128 0x6
ARM GAS  C:\Users\USUARIO\AppData\Local\Temp\ccn1jDSD.s 			page 58


 1207 00e6 DC000000 		.4byte	.LASF26
 1208 00ea 01       		.byte	0x1
 1209 00eb 5001     		.2byte	0x150
 1210 00ed 00000000 		.4byte	.LFB1
 1211 00f1 68000000 		.4byte	.LFE1-.LFB1
 1212 00f5 01       		.uleb128 0x1
 1213 00f6 9C       		.byte	0x9c
 1214 00f7 40010000 		.4byte	0x140
 1215 00fb 07       		.uleb128 0x7
 1216 00fc F7050000 		.4byte	.LASF20
 1217 0100 01       		.byte	0x1
 1218 0101 5201     		.2byte	0x152
 1219 0103 6B000000 		.4byte	0x6b
 1220 0107 00000000 		.4byte	.LLST0
 1221 010b 08       		.uleb128 0x8
 1222 010c 06000000 		.4byte	.LVL0
 1223 0110 6C070000 		.4byte	0x76c
 1224 0114 08       		.uleb128 0x8
 1225 0115 16000000 		.4byte	.LVL2
 1226 0119 77070000 		.4byte	0x777
 1227 011d 08       		.uleb128 0x8
 1228 011e 1A000000 		.4byte	.LVL3
 1229 0122 82070000 		.4byte	0x782
 1230 0126 08       		.uleb128 0x8
 1231 0127 1E000000 		.4byte	.LVL4
 1232 012b 8D070000 		.4byte	0x78d
 1233 012f 09       		.uleb128 0x9
 1234 0130 46000000 		.4byte	.LVL5
 1235 0134 98070000 		.4byte	0x798
 1236 0138 0A       		.uleb128 0xa
 1237 0139 01       		.uleb128 0x1
 1238 013a 50       		.byte	0x50
 1239 013b 02       		.uleb128 0x2
 1240 013c 74       		.byte	0x74
 1241 013d 00       		.sleb128 0
 1242 013e 00       		.byte	0
 1243 013f 00       		.byte	0
 1244 0140 0B       		.uleb128 0xb
 1245 0141 66040000 		.4byte	.LASF22
 1246 0145 01       		.byte	0x1
 1247 0146 9802     		.2byte	0x298
 1248 0148 6B000000 		.4byte	0x6b
 1249 014c 00000000 		.4byte	.LFB4
 1250 0150 20000000 		.4byte	.LFE4-.LFB4
 1251 0154 01       		.uleb128 0x1
 1252 0155 9C       		.byte	0x9c
 1253 0156 89010000 		.4byte	0x189
 1254 015a 0C       		.uleb128 0xc
 1255 015b A4000000 		.4byte	.LASF24
 1256 015f 01       		.byte	0x1
 1257 0160 9802     		.2byte	0x298
 1258 0162 6B000000 		.4byte	0x6b
 1259 0166 13000000 		.4byte	.LLST1
 1260 016a 0D       		.uleb128 0xd
 1261 016b 706F7300 		.ascii	"pos\000"
 1262 016f 01       		.byte	0x1
 1263 0170 9A02     		.2byte	0x29a
ARM GAS  C:\Users\USUARIO\AppData\Local\Temp\ccn1jDSD.s 			page 59


 1264 0172 6B000000 		.4byte	0x6b
 1265 0176 01       		.uleb128 0x1
 1266 0177 52       		.byte	0x52
 1267 0178 07       		.uleb128 0x7
 1268 0179 8E030000 		.4byte	.LASF21
 1269 017d 01       		.byte	0x1
 1270 017e 9B02     		.2byte	0x29b
 1271 0180 6B000000 		.4byte	0x6b
 1272 0184 3F000000 		.4byte	.LLST2
 1273 0188 00       		.byte	0
 1274 0189 0E       		.uleb128 0xe
 1275 018a 9A060000 		.4byte	.LASF84
 1276 018e 01       		.byte	0x1
 1277 018f 2404     		.2byte	0x424
 1278 0191 6B000000 		.4byte	0x6b
 1279 0195 00000000 		.4byte	.LFB8
 1280 0199 10000000 		.4byte	.LFE8-.LFB8
 1281 019d 01       		.uleb128 0x1
 1282 019e 9C       		.byte	0x9c
 1283 019f 0B       		.uleb128 0xb
 1284 01a0 B1010000 		.4byte	.LASF23
 1285 01a4 01       		.byte	0x1
 1286 01a5 3D04     		.2byte	0x43d
 1287 01a7 77000000 		.4byte	0x77
 1288 01ab 00000000 		.4byte	.LFB9
 1289 01af 0C000000 		.4byte	.LFE9-.LFB9
 1290 01b3 01       		.uleb128 0x1
 1291 01b4 9C       		.byte	0x9c
 1292 01b5 CA010000 		.4byte	0x1ca
 1293 01b9 0C       		.uleb128 0xc
 1294 01ba F5020000 		.4byte	.LASF25
 1295 01be 01       		.byte	0x1
 1296 01bf 3D04     		.2byte	0x43d
 1297 01c1 6B000000 		.4byte	0x6b
 1298 01c5 52000000 		.4byte	.LLST3
 1299 01c9 00       		.byte	0
 1300 01ca 06       		.uleb128 0x6
 1301 01cb 6F010000 		.4byte	.LASF27
 1302 01cf 01       		.byte	0x1
 1303 01d0 E804     		.2byte	0x4e8
 1304 01d2 00000000 		.4byte	.LFB11
 1305 01d6 34000000 		.4byte	.LFE11-.LFB11
 1306 01da 01       		.uleb128 0x1
 1307 01db 9C       		.byte	0x9c
 1308 01dc 1A020000 		.4byte	0x21a
 1309 01e0 0C       		.uleb128 0xc
 1310 01e1 F5020000 		.4byte	.LASF25
 1311 01e5 01       		.byte	0x1
 1312 01e6 E804     		.2byte	0x4e8
 1313 01e8 6B000000 		.4byte	0x6b
 1314 01ec 73000000 		.4byte	.LLST4
 1315 01f0 07       		.uleb128 0x7
 1316 01f1 F9010000 		.4byte	.LASF28
 1317 01f5 01       		.byte	0x1
 1318 01f6 EA04     		.2byte	0x4ea
 1319 01f8 6B000000 		.4byte	0x6b
 1320 01fc 94000000 		.4byte	.LLST5
ARM GAS  C:\Users\USUARIO\AppData\Local\Temp\ccn1jDSD.s 			page 60


 1321 0200 07       		.uleb128 0x7
 1322 0201 DE010000 		.4byte	.LASF29
 1323 0205 01       		.byte	0x1
 1324 0206 EB04     		.2byte	0x4eb
 1325 0208 6B000000 		.4byte	0x6b
 1326 020c A7000000 		.4byte	.LLST6
 1327 0210 08       		.uleb128 0x8
 1328 0211 2C000000 		.4byte	.LVL17
 1329 0215 A3070000 		.4byte	0x7a3
 1330 0219 00       		.byte	0
 1331 021a 06       		.uleb128 0x6
 1332 021b 1E060000 		.4byte	.LASF30
 1333 021f 01       		.byte	0x1
 1334 0220 3D05     		.2byte	0x53d
 1335 0222 00000000 		.4byte	.LFB12
 1336 0226 38000000 		.4byte	.LFE12-.LFB12
 1337 022a 01       		.uleb128 0x1
 1338 022b 9C       		.byte	0x9c
 1339 022c 71020000 		.4byte	0x271
 1340 0230 0C       		.uleb128 0xc
 1341 0231 F5020000 		.4byte	.LASF25
 1342 0235 01       		.byte	0x1
 1343 0236 3D05     		.2byte	0x53d
 1344 0238 6B000000 		.4byte	0x6b
 1345 023c BA000000 		.4byte	.LLST7
 1346 0240 07       		.uleb128 0x7
 1347 0241 F9010000 		.4byte	.LASF28
 1348 0245 01       		.byte	0x1
 1349 0246 3F05     		.2byte	0x53f
 1350 0248 6B000000 		.4byte	0x6b
 1351 024c DB000000 		.4byte	.LLST8
 1352 0250 07       		.uleb128 0x7
 1353 0251 DE010000 		.4byte	.LASF29
 1354 0255 01       		.byte	0x1
 1355 0256 4005     		.2byte	0x540
 1356 0258 6B000000 		.4byte	0x6b
 1357 025c EE000000 		.4byte	.LLST9
 1358 0260 09       		.uleb128 0x9
 1359 0261 10000000 		.4byte	.LVL22
 1360 0265 AE070000 		.4byte	0x7ae
 1361 0269 0A       		.uleb128 0xa
 1362 026a 01       		.uleb128 0x1
 1363 026b 50       		.byte	0x50
 1364 026c 02       		.uleb128 0x2
 1365 026d 75       		.byte	0x75
 1366 026e 00       		.sleb128 0
 1367 026f 00       		.byte	0
 1368 0270 00       		.byte	0
 1369 0271 06       		.uleb128 0x6
 1370 0272 34020000 		.4byte	.LASF31
 1371 0276 01       		.byte	0x1
 1372 0277 5204     		.2byte	0x452
 1373 0279 00000000 		.4byte	.LFB10
 1374 027d 16000000 		.4byte	.LFE10-.LFB10
 1375 0281 01       		.uleb128 0x1
 1376 0282 9C       		.byte	0x9c
 1377 0283 A6020000 		.4byte	0x2a6
ARM GAS  C:\Users\USUARIO\AppData\Local\Temp\ccn1jDSD.s 			page 61


 1378 0287 0F       		.uleb128 0xf
 1379 0288 6900     		.ascii	"i\000"
 1380 028a 01       		.byte	0x1
 1381 028b 5404     		.2byte	0x454
 1382 028d 6B000000 		.4byte	0x6b
 1383 0291 01010000 		.4byte	.LLST10
 1384 0295 09       		.uleb128 0x9
 1385 0296 0C000000 		.4byte	.LVL28
 1386 029a 1A020000 		.4byte	0x21a
 1387 029e 0A       		.uleb128 0xa
 1388 029f 01       		.uleb128 0x1
 1389 02a0 50       		.byte	0x50
 1390 02a1 02       		.uleb128 0x2
 1391 02a2 74       		.byte	0x74
 1392 02a3 00       		.sleb128 0
 1393 02a4 00       		.byte	0
 1394 02a5 00       		.byte	0
 1395 02a6 06       		.uleb128 0x6
 1396 02a7 76030000 		.4byte	.LASF32
 1397 02ab 01       		.byte	0x1
 1398 02ac 0E02     		.2byte	0x20e
 1399 02ae 00000000 		.4byte	.LFB3
 1400 02b2 68000000 		.4byte	.LFE3-.LFB3
 1401 02b6 01       		.uleb128 0x1
 1402 02b7 9C       		.byte	0x9c
 1403 02b8 E1020000 		.4byte	0x2e1
 1404 02bc 08       		.uleb128 0x8
 1405 02bd 16000000 		.4byte	.LVL31
 1406 02c1 71020000 		.4byte	0x271
 1407 02c5 08       		.uleb128 0x8
 1408 02c6 24000000 		.4byte	.LVL32
 1409 02ca B9070000 		.4byte	0x7b9
 1410 02ce 08       		.uleb128 0x8
 1411 02cf 28000000 		.4byte	.LVL33
 1412 02d3 C4070000 		.4byte	0x7c4
 1413 02d7 08       		.uleb128 0x8
 1414 02d8 2C000000 		.4byte	.LVL34
 1415 02dc CF070000 		.4byte	0x7cf
 1416 02e0 00       		.byte	0
 1417 02e1 06       		.uleb128 0x6
 1418 02e2 E5050000 		.4byte	.LASF33
 1419 02e6 01       		.byte	0x1
 1420 02e7 3906     		.2byte	0x639
 1421 02e9 00000000 		.4byte	.LFB14
 1422 02ed 4C000000 		.4byte	.LFE14-.LFB14
 1423 02f1 01       		.uleb128 0x1
 1424 02f2 9C       		.byte	0x9c
 1425 02f3 20030000 		.4byte	0x320
 1426 02f7 0C       		.uleb128 0xc
 1427 02f8 F5020000 		.4byte	.LASF25
 1428 02fc 01       		.byte	0x1
 1429 02fd 3906     		.2byte	0x639
 1430 02ff 6B000000 		.4byte	0x6b
 1431 0303 2B010000 		.4byte	.LLST11
 1432 0307 08       		.uleb128 0x8
 1433 0308 28000000 		.4byte	.LVL36
 1434 030c 1A020000 		.4byte	0x21a
ARM GAS  C:\Users\USUARIO\AppData\Local\Temp\ccn1jDSD.s 			page 62


 1435 0310 09       		.uleb128 0x9
 1436 0311 2E000000 		.4byte	.LVL37
 1437 0315 DA070000 		.4byte	0x7da
 1438 0319 0A       		.uleb128 0xa
 1439 031a 01       		.uleb128 0x1
 1440 031b 50       		.byte	0x50
 1441 031c 01       		.uleb128 0x1
 1442 031d 30       		.byte	0x30
 1443 031e 00       		.byte	0
 1444 031f 00       		.byte	0
 1445 0320 06       		.uleb128 0x6
 1446 0321 EC000000 		.4byte	.LASF34
 1447 0325 01       		.byte	0x1
 1448 0326 4707     		.2byte	0x747
 1449 0328 00000000 		.4byte	.LFB15
 1450 032c 10000000 		.4byte	.LFE15-.LFB15
 1451 0330 01       		.uleb128 0x1
 1452 0331 9C       		.byte	0x9c
 1453 0332 47030000 		.4byte	0x347
 1454 0336 0C       		.uleb128 0xc
 1455 0337 DF030000 		.4byte	.LASF35
 1456 033b 01       		.byte	0x1
 1457 033c 4707     		.2byte	0x747
 1458 033e 6B000000 		.4byte	0x6b
 1459 0342 4C010000 		.4byte	.LLST12
 1460 0346 00       		.byte	0
 1461 0347 06       		.uleb128 0x6
 1462 0348 CD040000 		.4byte	.LASF36
 1463 034c 01       		.byte	0x1
 1464 034d 3203     		.2byte	0x332
 1465 034f 00000000 		.4byte	.LFB5
 1466 0353 38000000 		.4byte	.LFE5-.LFB5
 1467 0357 01       		.uleb128 0x1
 1468 0358 9C       		.byte	0x9c
 1469 0359 90030000 		.4byte	0x390
 1470 035d 0C       		.uleb128 0xc
 1471 035e 16030000 		.4byte	.LASF37
 1472 0362 01       		.byte	0x1
 1473 0363 3203     		.2byte	0x332
 1474 0365 6B000000 		.4byte	0x6b
 1475 0369 88010000 		.4byte	.LLST13
 1476 036d 07       		.uleb128 0x7
 1477 036e C6040000 		.4byte	.LASF38
 1478 0372 01       		.byte	0x1
 1479 0373 3403     		.2byte	0x334
 1480 0375 6B000000 		.4byte	0x6b
 1481 0379 A9010000 		.4byte	.LLST14
 1482 037d 08       		.uleb128 0x8
 1483 037e 16000000 		.4byte	.LVL45
 1484 0382 DA070000 		.4byte	0x7da
 1485 0386 08       		.uleb128 0x8
 1486 0387 26000000 		.4byte	.LVL47
 1487 038b 20030000 		.4byte	0x320
 1488 038f 00       		.byte	0
 1489 0390 06       		.uleb128 0x6
 1490 0391 35060000 		.4byte	.LASF39
 1491 0395 01       		.byte	0x1
ARM GAS  C:\Users\USUARIO\AppData\Local\Temp\ccn1jDSD.s 			page 63


 1492 0396 9105     		.2byte	0x591
 1493 0398 00000000 		.4byte	.LFB13
 1494 039c 34000000 		.4byte	.LFE13-.LFB13
 1495 03a0 01       		.uleb128 0x1
 1496 03a1 9C       		.byte	0x9c
 1497 03a2 DB030000 		.4byte	0x3db
 1498 03a6 0C       		.uleb128 0xc
 1499 03a7 F5020000 		.4byte	.LASF25
 1500 03ab 01       		.byte	0x1
 1501 03ac 9105     		.2byte	0x591
 1502 03ae 6B000000 		.4byte	0x6b
 1503 03b2 CF010000 		.4byte	.LLST15
 1504 03b6 10       		.uleb128 0x10
 1505 03b7 08000000 		.4byte	.LVL50
 1506 03bb 47030000 		.4byte	0x347
 1507 03bf CA030000 		.4byte	0x3ca
 1508 03c3 0A       		.uleb128 0xa
 1509 03c4 01       		.uleb128 0x1
 1510 03c5 50       		.byte	0x50
 1511 03c6 02       		.uleb128 0x2
 1512 03c7 75       		.byte	0x75
 1513 03c8 00       		.sleb128 0
 1514 03c9 00       		.byte	0
 1515 03ca 09       		.uleb128 0x9
 1516 03cb 22000000 		.4byte	.LVL51
 1517 03cf CA010000 		.4byte	0x1ca
 1518 03d3 0A       		.uleb128 0xa
 1519 03d4 01       		.uleb128 0x1
 1520 03d5 50       		.byte	0x50
 1521 03d6 02       		.uleb128 0x2
 1522 03d7 75       		.byte	0x75
 1523 03d8 00       		.sleb128 0
 1524 03d9 00       		.byte	0
 1525 03da 00       		.byte	0
 1526 03db 06       		.uleb128 0x6
 1527 03dc 13020000 		.4byte	.LASF40
 1528 03e0 01       		.byte	0x1
 1529 03e1 A203     		.2byte	0x3a2
 1530 03e3 00000000 		.4byte	.LFB6
 1531 03e7 20000000 		.4byte	.LFE6-.LFB6
 1532 03eb 01       		.uleb128 0x1
 1533 03ec 9C       		.byte	0x9c
 1534 03ed 0B040000 		.4byte	0x40b
 1535 03f1 0C       		.uleb128 0xc
 1536 03f2 F5020000 		.4byte	.LASF25
 1537 03f6 01       		.byte	0x1
 1538 03f7 A203     		.2byte	0x3a2
 1539 03f9 6B000000 		.4byte	0x6b
 1540 03fd F0010000 		.4byte	.LLST16
 1541 0401 08       		.uleb128 0x8
 1542 0402 14000000 		.4byte	.LVL53
 1543 0406 90030000 		.4byte	0x390
 1544 040a 00       		.byte	0
 1545 040b 06       		.uleb128 0x6
 1546 040c 67060000 		.4byte	.LASF41
 1547 0410 01       		.byte	0x1
 1548 0411 EF03     		.2byte	0x3ef
ARM GAS  C:\Users\USUARIO\AppData\Local\Temp\ccn1jDSD.s 			page 64


 1549 0413 00000000 		.4byte	.LFB7
 1550 0417 38000000 		.4byte	.LFE7-.LFB7
 1551 041b 01       		.uleb128 0x1
 1552 041c 9C       		.byte	0x9c
 1553 041d 34040000 		.4byte	0x434
 1554 0421 08       		.uleb128 0x8
 1555 0422 14000000 		.4byte	.LVL54
 1556 0426 40010000 		.4byte	0x140
 1557 042a 08       		.uleb128 0x8
 1558 042b 2E000000 		.4byte	.LVL55
 1559 042f 90030000 		.4byte	0x390
 1560 0433 00       		.byte	0
 1561 0434 0B       		.uleb128 0xb
 1562 0435 EA040000 		.4byte	.LASF42
 1563 0439 01       		.byte	0x1
 1564 043a 6407     		.2byte	0x764
 1565 043c 6B000000 		.4byte	0x6b
 1566 0440 00000000 		.4byte	.LFB16
 1567 0444 0C000000 		.4byte	.LFE16-.LFB16
 1568 0448 01       		.uleb128 0x1
 1569 0449 9C       		.byte	0x9c
 1570 044a 5F040000 		.4byte	0x45f
 1571 044e 07       		.uleb128 0x7
 1572 044f DF030000 		.4byte	.LASF35
 1573 0453 01       		.byte	0x1
 1574 0454 6607     		.2byte	0x766
 1575 0456 6B000000 		.4byte	0x6b
 1576 045a 11020000 		.4byte	.LLST17
 1577 045e 00       		.byte	0
 1578 045f 06       		.uleb128 0x6
 1579 0460 AB050000 		.4byte	.LASF43
 1580 0464 01       		.byte	0x1
 1581 0465 8607     		.2byte	0x786
 1582 0467 00000000 		.4byte	.LFB17
 1583 046b 0C000000 		.4byte	.LFE17-.LFB17
 1584 046f 01       		.uleb128 0x1
 1585 0470 9C       		.byte	0x9c
 1586 0471 84040000 		.4byte	0x484
 1587 0475 11       		.uleb128 0x11
 1588 0476 84030000 		.4byte	.LASF44
 1589 047a 01       		.byte	0x1
 1590 047b 8607     		.2byte	0x786
 1591 047d 6B000000 		.4byte	0x6b
 1592 0481 01       		.uleb128 0x1
 1593 0482 50       		.byte	0x50
 1594 0483 00       		.byte	0
 1595 0484 06       		.uleb128 0x6
 1596 0485 1C010000 		.4byte	.LASF45
 1597 0489 01       		.byte	0x1
 1598 048a A107     		.2byte	0x7a1
 1599 048c 00000000 		.4byte	.LFB18
 1600 0490 20000000 		.4byte	.LFE18-.LFB18
 1601 0494 01       		.uleb128 0x1
 1602 0495 9C       		.byte	0x9c
 1603 0496 A9040000 		.4byte	0x4a9
 1604 049a 12       		.uleb128 0x12
 1605 049b 73726300 		.ascii	"src\000"
ARM GAS  C:\Users\USUARIO\AppData\Local\Temp\ccn1jDSD.s 			page 65


 1606 049f 01       		.byte	0x1
 1607 04a0 A107     		.2byte	0x7a1
 1608 04a2 6B000000 		.4byte	0x6b
 1609 04a6 01       		.uleb128 0x1
 1610 04a7 50       		.byte	0x50
 1611 04a8 00       		.byte	0
 1612 04a9 13       		.uleb128 0x13
 1613 04aa 46060000 		.4byte	.LASF46
 1614 04ae 01       		.byte	0x1
 1615 04af 6F       		.byte	0x6f
 1616 04b0 00000000 		.4byte	.LFB0
 1617 04b4 E4000000 		.4byte	.LFE0-.LFB0
 1618 04b8 01       		.uleb128 0x1
 1619 04b9 9C       		.byte	0x9c
 1620 04ba C3050000 		.4byte	0x5c3
 1621 04be 14       		.uleb128 0x14
 1622 04bf F7050000 		.4byte	.LASF20
 1623 04c3 01       		.byte	0x1
 1624 04c4 76       		.byte	0x76
 1625 04c5 6B000000 		.4byte	0x6b
 1626 04c9 30020000 		.4byte	.LLST18
 1627 04cd 08       		.uleb128 0x8
 1628 04ce 06000000 		.4byte	.LVL60
 1629 04d2 71020000 		.4byte	0x271
 1630 04d6 10       		.uleb128 0x10
 1631 04d7 0C000000 		.4byte	.LVL61
 1632 04db 84040000 		.4byte	0x484
 1633 04df E9040000 		.4byte	0x4e9
 1634 04e3 0A       		.uleb128 0xa
 1635 04e4 01       		.uleb128 0x1
 1636 04e5 50       		.byte	0x50
 1637 04e6 01       		.uleb128 0x1
 1638 04e7 32       		.byte	0x32
 1639 04e8 00       		.byte	0
 1640 04e9 08       		.uleb128 0x8
 1641 04ea 10000000 		.4byte	.LVL62
 1642 04ee 6C070000 		.4byte	0x76c
 1643 04f2 08       		.uleb128 0x8
 1644 04f3 28000000 		.4byte	.LVL63
 1645 04f7 98070000 		.4byte	0x798
 1646 04fb 08       		.uleb128 0x8
 1647 04fc 42000000 		.4byte	.LVL64
 1648 0500 6C070000 		.4byte	0x76c
 1649 0504 08       		.uleb128 0x8
 1650 0505 5A000000 		.4byte	.LVL65
 1651 0509 98070000 		.4byte	0x798
 1652 050d 10       		.uleb128 0x10
 1653 050e 86000000 		.4byte	.LVL66
 1654 0512 E5070000 		.4byte	0x7e5
 1655 0516 20050000 		.4byte	0x520
 1656 051a 0A       		.uleb128 0xa
 1657 051b 01       		.uleb128 0x1
 1658 051c 50       		.byte	0x50
 1659 051d 01       		.uleb128 0x1
 1660 051e 34       		.byte	0x34
 1661 051f 00       		.byte	0
 1662 0520 10       		.uleb128 0x10
ARM GAS  C:\Users\USUARIO\AppData\Local\Temp\ccn1jDSD.s 			page 66


 1663 0521 8E000000 		.4byte	.LVL67
 1664 0525 F0070000 		.4byte	0x7f0
 1665 0529 39050000 		.4byte	0x539
 1666 052d 0A       		.uleb128 0xa
 1667 052e 01       		.uleb128 0x1
 1668 052f 50       		.byte	0x50
 1669 0530 01       		.uleb128 0x1
 1670 0531 34       		.byte	0x34
 1671 0532 0A       		.uleb128 0xa
 1672 0533 01       		.uleb128 0x1
 1673 0534 51       		.byte	0x51
 1674 0535 02       		.uleb128 0x2
 1675 0536 74       		.byte	0x74
 1676 0537 00       		.sleb128 0
 1677 0538 00       		.byte	0
 1678 0539 08       		.uleb128 0x8
 1679 053a 92000000 		.4byte	.LVL68
 1680 053e FB070000 		.4byte	0x7fb
 1681 0542 10       		.uleb128 0x10
 1682 0543 98000000 		.4byte	.LVL69
 1683 0547 A3070000 		.4byte	0x7a3
 1684 054b 55050000 		.4byte	0x555
 1685 054f 0A       		.uleb128 0xa
 1686 0550 01       		.uleb128 0x1
 1687 0551 50       		.byte	0x50
 1688 0552 01       		.uleb128 0x1
 1689 0553 34       		.byte	0x34
 1690 0554 00       		.byte	0
 1691 0555 10       		.uleb128 0x10
 1692 0556 9E000000 		.4byte	.LVL70
 1693 055a A3070000 		.4byte	0x7a3
 1694 055e 68050000 		.4byte	0x568
 1695 0562 0A       		.uleb128 0xa
 1696 0563 01       		.uleb128 0x1
 1697 0564 50       		.byte	0x50
 1698 0565 01       		.uleb128 0x1
 1699 0566 35       		.byte	0x35
 1700 0567 00       		.byte	0
 1701 0568 10       		.uleb128 0x10
 1702 0569 A4000000 		.4byte	.LVL71
 1703 056d A3070000 		.4byte	0x7a3
 1704 0571 7B050000 		.4byte	0x57b
 1705 0575 0A       		.uleb128 0xa
 1706 0576 01       		.uleb128 0x1
 1707 0577 50       		.byte	0x50
 1708 0578 01       		.uleb128 0x1
 1709 0579 36       		.byte	0x36
 1710 057a 00       		.byte	0
 1711 057b 08       		.uleb128 0x8
 1712 057c B2000000 		.4byte	.LVL72
 1713 0580 06080000 		.4byte	0x806
 1714 0584 08       		.uleb128 0x8
 1715 0585 B6000000 		.4byte	.LVL73
 1716 0589 11080000 		.4byte	0x811
 1717 058d 10       		.uleb128 0x10
 1718 058e BC000000 		.4byte	.LVL74
 1719 0592 1C080000 		.4byte	0x81c
ARM GAS  C:\Users\USUARIO\AppData\Local\Temp\ccn1jDSD.s 			page 67


 1720 0596 A0050000 		.4byte	0x5a0
 1721 059a 0A       		.uleb128 0xa
 1722 059b 01       		.uleb128 0x1
 1723 059c 50       		.byte	0x50
 1724 059d 01       		.uleb128 0x1
 1725 059e 30       		.byte	0x30
 1726 059f 00       		.byte	0
 1727 05a0 10       		.uleb128 0x10
 1728 05a1 C2000000 		.4byte	.LVL75
 1729 05a5 27080000 		.4byte	0x827
 1730 05a9 B3050000 		.4byte	0x5b3
 1731 05ad 0A       		.uleb128 0xa
 1732 05ae 01       		.uleb128 0x1
 1733 05af 50       		.byte	0x50
 1734 05b0 01       		.uleb128 0x1
 1735 05b1 34       		.byte	0x34
 1736 05b2 00       		.byte	0
 1737 05b3 09       		.uleb128 0x9
 1738 05b4 C8000000 		.4byte	.LVL76
 1739 05b8 DA070000 		.4byte	0x7da
 1740 05bc 0A       		.uleb128 0xa
 1741 05bd 01       		.uleb128 0x1
 1742 05be 50       		.byte	0x50
 1743 05bf 01       		.uleb128 0x1
 1744 05c0 30       		.byte	0x30
 1745 05c1 00       		.byte	0
 1746 05c2 00       		.byte	0
 1747 05c3 06       		.uleb128 0x6
 1748 05c4 D6050000 		.4byte	.LASF47
 1749 05c8 01       		.byte	0x1
 1750 05c9 E901     		.2byte	0x1e9
 1751 05cb 00000000 		.4byte	.LFB2
 1752 05cf 2C000000 		.4byte	.LFE2-.LFB2
 1753 05d3 01       		.uleb128 0x1
 1754 05d4 9C       		.byte	0x9c
 1755 05d5 F5050000 		.4byte	0x5f5
 1756 05d9 08       		.uleb128 0x8
 1757 05da 0C000000 		.4byte	.LVL77
 1758 05de A9040000 		.4byte	0x4a9
 1759 05e2 08       		.uleb128 0x8
 1760 05e3 16000000 		.4byte	.LVL78
 1761 05e7 E5000000 		.4byte	0xe5
 1762 05eb 08       		.uleb128 0x8
 1763 05ec 1A000000 		.4byte	.LVL79
 1764 05f0 32080000 		.4byte	0x832
 1765 05f4 00       		.byte	0
 1766 05f5 15       		.uleb128 0x15
 1767 05f6 4C000000 		.4byte	.LASF48
 1768 05fa 01       		.byte	0x1
 1769 05fb 16       		.byte	0x16
 1770 05fc 6B000000 		.4byte	0x6b
 1771 0600 05       		.uleb128 0x5
 1772 0601 03       		.byte	0x3
 1773 0602 00000000 		.4byte	CapSense_initVar
 1774 0606 16       		.uleb128 0x16
 1775 0607 6E000000 		.4byte	.LASF49
 1776 060b 01       		.byte	0x1
ARM GAS  C:\Users\USUARIO\AppData\Local\Temp\ccn1jDSD.s 			page 68


 1777 060c 1E       		.byte	0x1e
 1778 060d 6B000000 		.4byte	0x6b
 1779 0611 05       		.uleb128 0x5
 1780 0612 03       		.byte	0x3
 1781 0613 00000000 		.4byte	CapSense_lowLevelTuningDone
 1782 0617 16       		.uleb128 0x16
 1783 0618 07000000 		.4byte	.LASF50
 1784 061c 01       		.byte	0x1
 1785 061d 19       		.byte	0x19
 1786 061e B0000000 		.4byte	0xb0
 1787 0622 05       		.uleb128 0x5
 1788 0623 03       		.byte	0x3
 1789 0624 00000000 		.4byte	CapSense_csv
 1790 0628 16       		.uleb128 0x16
 1791 0629 FE010000 		.4byte	.LASF51
 1792 062d 01       		.byte	0x1
 1793 062e 1A       		.byte	0x1a
 1794 062f B0000000 		.4byte	0xb0
 1795 0633 05       		.uleb128 0x5
 1796 0634 03       		.byte	0x3
 1797 0635 00000000 		.4byte	CapSense_sensorIndex
 1798 0639 17       		.uleb128 0x17
 1799 063a 77000000 		.4byte	0x77
 1800 063e 49060000 		.4byte	0x649
 1801 0642 18       		.uleb128 0x18
 1802 0643 DE000000 		.4byte	0xde
 1803 0647 03       		.byte	0x3
 1804 0648 00       		.byte	0
 1805 0649 16       		.uleb128 0x16
 1806 064a 54060000 		.4byte	.LASF52
 1807 064e 01       		.byte	0x1
 1808 064f 29       		.byte	0x29
 1809 0650 39060000 		.4byte	0x639
 1810 0654 05       		.uleb128 0x5
 1811 0655 03       		.byte	0x3
 1812 0656 00000000 		.4byte	CapSense_sensorRaw
 1813 065a 17       		.uleb128 0x17
 1814 065b 6B000000 		.4byte	0x6b
 1815 065f 6A060000 		.4byte	0x66a
 1816 0663 18       		.uleb128 0x18
 1817 0664 DE000000 		.4byte	0xde
 1818 0668 00       		.byte	0
 1819 0669 00       		.byte	0
 1820 066a 16       		.uleb128 0x16
 1821 066b FC020000 		.4byte	.LASF53
 1822 066f 01       		.byte	0x1
 1823 0670 2B       		.byte	0x2b
 1824 0671 5A060000 		.4byte	0x65a
 1825 0675 05       		.uleb128 0x5
 1826 0676 03       		.byte	0x3
 1827 0677 00000000 		.4byte	CapSense_sensorEnableMask
 1828 067b 17       		.uleb128 0x17
 1829 067c 91060000 		.4byte	0x691
 1830 0680 8B060000 		.4byte	0x68b
 1831 0684 18       		.uleb128 0x18
 1832 0685 DE000000 		.4byte	0xde
 1833 0689 03       		.byte	0x3
ARM GAS  C:\Users\USUARIO\AppData\Local\Temp\ccn1jDSD.s 			page 69


 1834 068a 00       		.byte	0
 1835 068b 19       		.uleb128 0x19
 1836 068c 04       		.byte	0x4
 1837 068d 6B000000 		.4byte	0x6b
 1838 0691 1A       		.uleb128 0x1a
 1839 0692 8B060000 		.4byte	0x68b
 1840 0696 16       		.uleb128 0x16
 1841 0697 5D000000 		.4byte	.LASF54
 1842 069b 01       		.byte	0x1
 1843 069c 2E       		.byte	0x2e
 1844 069d A7060000 		.4byte	0x6a7
 1845 06a1 05       		.uleb128 0x5
 1846 06a2 03       		.byte	0x3
 1847 06a3 00000000 		.4byte	CapSense_pcTable
 1848 06a7 1A       		.uleb128 0x1a
 1849 06a8 7B060000 		.4byte	0x67b
 1850 06ac 17       		.uleb128 0x17
 1851 06ad BC060000 		.4byte	0x6bc
 1852 06b1 BC060000 		.4byte	0x6bc
 1853 06b5 18       		.uleb128 0x18
 1854 06b6 DE000000 		.4byte	0xde
 1855 06ba 03       		.byte	0x3
 1856 06bb 00       		.byte	0
 1857 06bc 1A       		.uleb128 0x1a
 1858 06bd 6B000000 		.4byte	0x6b
 1859 06c1 16       		.uleb128 0x16
 1860 06c2 89020000 		.4byte	.LASF55
 1861 06c6 01       		.byte	0x1
 1862 06c7 35       		.byte	0x35
 1863 06c8 D2060000 		.4byte	0x6d2
 1864 06cc 05       		.uleb128 0x5
 1865 06cd 03       		.byte	0x3
 1866 06ce 00000000 		.4byte	CapSense_portTable
 1867 06d2 1A       		.uleb128 0x1a
 1868 06d3 AC060000 		.4byte	0x6ac
 1869 06d7 16       		.uleb128 0x16
 1870 06d8 76020000 		.4byte	.LASF56
 1871 06dc 01       		.byte	0x1
 1872 06dd 3C       		.byte	0x3c
 1873 06de E8060000 		.4byte	0x6e8
 1874 06e2 05       		.uleb128 0x5
 1875 06e3 03       		.byte	0x3
 1876 06e4 00000000 		.4byte	CapSense_maskTable
 1877 06e8 1A       		.uleb128 0x1a
 1878 06e9 AC060000 		.4byte	0x6ac
 1879 06ed 17       		.uleb128 0x17
 1880 06ee 91060000 		.4byte	0x691
 1881 06f2 FD060000 		.4byte	0x6fd
 1882 06f6 18       		.uleb128 0x18
 1883 06f7 DE000000 		.4byte	0xde
 1884 06fb 07       		.byte	0x7
 1885 06fc 00       		.byte	0
 1886 06fd 16       		.uleb128 0x16
 1887 06fe 59030000 		.4byte	.LASF57
 1888 0702 01       		.byte	0x1
 1889 0703 43       		.byte	0x43
 1890 0704 0E070000 		.4byte	0x70e
ARM GAS  C:\Users\USUARIO\AppData\Local\Temp\ccn1jDSD.s 			page 70


 1891 0708 05       		.uleb128 0x5
 1892 0709 03       		.byte	0x3
 1893 070a 00000000 		.4byte	CapSense_csTable
 1894 070e 1A       		.uleb128 0x1a
 1895 070f ED060000 		.4byte	0x6ed
 1896 0713 17       		.uleb128 0x17
 1897 0714 6B000000 		.4byte	0x6b
 1898 0718 23070000 		.4byte	0x723
 1899 071c 18       		.uleb128 0x18
 1900 071d DE000000 		.4byte	0xde
 1901 0721 03       		.byte	0x3
 1902 0722 00       		.byte	0
 1903 0723 16       		.uleb128 0x16
 1904 0724 C3030000 		.4byte	.LASF58
 1905 0728 01       		.byte	0x1
 1906 0729 49       		.byte	0x49
 1907 072a 13070000 		.4byte	0x713
 1908 072e 05       		.uleb128 0x5
 1909 072f 03       		.byte	0x3
 1910 0730 00000000 		.4byte	CapSense_idacSettings
 1911 0734 16       		.uleb128 0x16
 1912 0735 A2040000 		.4byte	.LASF59
 1913 0739 01       		.byte	0x1
 1914 073a 4D       		.byte	0x4d
 1915 073b 13070000 		.4byte	0x713
 1916 073f 05       		.uleb128 0x5
 1917 0740 03       		.byte	0x3
 1918 0741 00000000 		.4byte	CapSense_widgetResolution
 1919 0745 16       		.uleb128 0x16
 1920 0746 33030000 		.4byte	.LASF60
 1921 074a 01       		.byte	0x1
 1922 074b 54       		.byte	0x54
 1923 074c 13070000 		.4byte	0x713
 1924 0750 05       		.uleb128 0x5
 1925 0751 03       		.byte	0x3
 1926 0752 00000000 		.4byte	CapSense_analogSwitchDivider
 1927 0756 16       		.uleb128 0x16
 1928 0757 9B010000 		.4byte	.LASF61
 1929 075b 01       		.byte	0x1
 1930 075c 55       		.byte	0x55
 1931 075d 67070000 		.4byte	0x767
 1932 0761 05       		.uleb128 0x5
 1933 0762 03       		.byte	0x3
 1934 0763 00000000 		.4byte	CapSense_widgetNumber
 1935 0767 1A       		.uleb128 0x1a
 1936 0768 AC060000 		.4byte	0x6ac
 1937 076c 1B       		.uleb128 0x1b
 1938 076d B4020000 		.4byte	.LASF62
 1939 0771 B4020000 		.4byte	.LASF62
 1940 0775 03       		.byte	0x3
 1941 0776 7D       		.byte	0x7d
 1942 0777 1B       		.uleb128 0x1b
 1943 0778 9C020000 		.4byte	.LASF63
 1944 077c 9C020000 		.4byte	.LASF63
 1945 0780 04       		.byte	0x4
 1946 0781 27       		.byte	0x27
 1947 0782 1B       		.uleb128 0x1b
ARM GAS  C:\Users\USUARIO\AppData\Local\Temp\ccn1jDSD.s 			page 71


 1948 0783 C4000000 		.4byte	.LASF64
 1949 0787 C4000000 		.4byte	.LASF64
 1950 078b 05       		.byte	0x5
 1951 078c 46       		.byte	0x46
 1952 078d 1B       		.uleb128 0x1b
 1953 078e 93050000 		.4byte	.LASF65
 1954 0792 93050000 		.4byte	.LASF65
 1955 0796 06       		.byte	0x6
 1956 0797 46       		.byte	0x46
 1957 0798 1B       		.uleb128 0x1b
 1958 0799 14000000 		.4byte	.LASF66
 1959 079d 14000000 		.4byte	.LASF66
 1960 07a1 03       		.byte	0x3
 1961 07a2 7E       		.byte	0x7e
 1962 07a3 1B       		.uleb128 0x1b
 1963 07a4 C1050000 		.4byte	.LASF67
 1964 07a8 C1050000 		.4byte	.LASF67
 1965 07ac 07       		.byte	0x7
 1966 07ad 1A       		.byte	0x1a
 1967 07ae 1B       		.uleb128 0x1b
 1968 07af 83060000 		.4byte	.LASF68
 1969 07b3 83060000 		.4byte	.LASF68
 1970 07b7 07       		.byte	0x7
 1971 07b8 1B       		.byte	0x1b
 1972 07b9 1B       		.uleb128 0x1b
 1973 07ba DE020000 		.4byte	.LASF69
 1974 07be DE020000 		.4byte	.LASF69
 1975 07c2 04       		.byte	0x4
 1976 07c3 28       		.byte	0x28
 1977 07c4 1B       		.uleb128 0x1b
 1978 07c5 08060000 		.4byte	.LASF70
 1979 07c9 08060000 		.4byte	.LASF70
 1980 07cd 05       		.byte	0x5
 1981 07ce 40       		.byte	0x40
 1982 07cf 1B       		.uleb128 0x1b
 1983 07d0 85010000 		.4byte	.LASF71
 1984 07d4 85010000 		.4byte	.LASF71
 1985 07d8 06       		.byte	0x6
 1986 07d9 3D       		.byte	0x3d
 1987 07da 1B       		.uleb128 0x1b
 1988 07db 8A000000 		.4byte	.LASF72
 1989 07df 8A000000 		.4byte	.LASF72
 1990 07e3 06       		.byte	0x6
 1991 07e4 41       		.byte	0x41
 1992 07e5 1B       		.uleb128 0x1b
 1993 07e6 CF010000 		.4byte	.LASF73
 1994 07ea CF010000 		.4byte	.LASF73
 1995 07ee 03       		.byte	0x3
 1996 07ef 88       		.byte	0x88
 1997 07f0 1B       		.uleb128 0x1b
 1998 07f1 B2030000 		.4byte	.LASF74
 1999 07f5 B2030000 		.4byte	.LASF74
 2000 07f9 03       		.byte	0x3
 2001 07fa 8B       		.byte	0x8b
 2002 07fb 1B       		.uleb128 0x1b
 2003 07fc 52010000 		.4byte	.LASF75
 2004 0800 52010000 		.4byte	.LASF75
ARM GAS  C:\Users\USUARIO\AppData\Local\Temp\ccn1jDSD.s 			page 72


 2005 0804 08       		.byte	0x8
 2006 0805 1F       		.byte	0x1f
 2007 0806 1B       		.uleb128 0x1b
 2008 0807 E3010000 		.4byte	.LASF76
 2009 080b E3010000 		.4byte	.LASF76
 2010 080f 05       		.byte	0x5
 2011 0810 45       		.byte	0x45
 2012 0811 1B       		.uleb128 0x1b
 2013 0812 8C040000 		.4byte	.LASF77
 2014 0816 8C040000 		.4byte	.LASF77
 2015 081a 06       		.byte	0x6
 2016 081b 45       		.byte	0x45
 2017 081c 1B       		.uleb128 0x1b
 2018 081d 95030000 		.4byte	.LASF78
 2019 0821 95030000 		.4byte	.LASF78
 2020 0825 06       		.byte	0x6
 2021 0826 3F       		.byte	0x3f
 2022 0827 1B       		.uleb128 0x1b
 2023 0828 4A020000 		.4byte	.LASF79
 2024 082c 4A020000 		.4byte	.LASF79
 2025 0830 06       		.byte	0x6
 2026 0831 40       		.byte	0x40
 2027 0832 1C       		.uleb128 0x1c
 2028 0833 1B030000 		.4byte	.LASF80
 2029 0837 1B030000 		.4byte	.LASF80
 2030 083b 09       		.byte	0x9
 2031 083c AD02     		.2byte	0x2ad
 2032 083e 00       		.byte	0
 2033              		.section	.debug_abbrev,"",%progbits
 2034              	.Ldebug_abbrev0:
 2035 0000 01       		.uleb128 0x1
 2036 0001 11       		.uleb128 0x11
 2037 0002 01       		.byte	0x1
 2038 0003 25       		.uleb128 0x25
 2039 0004 0E       		.uleb128 0xe
 2040 0005 13       		.uleb128 0x13
 2041 0006 0B       		.uleb128 0xb
 2042 0007 03       		.uleb128 0x3
 2043 0008 0E       		.uleb128 0xe
 2044 0009 1B       		.uleb128 0x1b
 2045 000a 0E       		.uleb128 0xe
 2046 000b 55       		.uleb128 0x55
 2047 000c 17       		.uleb128 0x17
 2048 000d 11       		.uleb128 0x11
 2049 000e 01       		.uleb128 0x1
 2050 000f 10       		.uleb128 0x10
 2051 0010 17       		.uleb128 0x17
 2052 0011 00       		.byte	0
 2053 0012 00       		.byte	0
 2054 0013 02       		.uleb128 0x2
 2055 0014 24       		.uleb128 0x24
 2056 0015 00       		.byte	0
 2057 0016 0B       		.uleb128 0xb
 2058 0017 0B       		.uleb128 0xb
 2059 0018 3E       		.uleb128 0x3e
 2060 0019 0B       		.uleb128 0xb
 2061 001a 03       		.uleb128 0x3
ARM GAS  C:\Users\USUARIO\AppData\Local\Temp\ccn1jDSD.s 			page 73


 2062 001b 0E       		.uleb128 0xe
 2063 001c 00       		.byte	0
 2064 001d 00       		.byte	0
 2065 001e 03       		.uleb128 0x3
 2066 001f 24       		.uleb128 0x24
 2067 0020 00       		.byte	0
 2068 0021 0B       		.uleb128 0xb
 2069 0022 0B       		.uleb128 0xb
 2070 0023 3E       		.uleb128 0x3e
 2071 0024 0B       		.uleb128 0xb
 2072 0025 03       		.uleb128 0x3
 2073 0026 08       		.uleb128 0x8
 2074 0027 00       		.byte	0
 2075 0028 00       		.byte	0
 2076 0029 04       		.uleb128 0x4
 2077 002a 16       		.uleb128 0x16
 2078 002b 00       		.byte	0
 2079 002c 03       		.uleb128 0x3
 2080 002d 0E       		.uleb128 0xe
 2081 002e 3A       		.uleb128 0x3a
 2082 002f 0B       		.uleb128 0xb
 2083 0030 3B       		.uleb128 0x3b
 2084 0031 05       		.uleb128 0x5
 2085 0032 49       		.uleb128 0x49
 2086 0033 13       		.uleb128 0x13
 2087 0034 00       		.byte	0
 2088 0035 00       		.byte	0
 2089 0036 05       		.uleb128 0x5
 2090 0037 35       		.uleb128 0x35
 2091 0038 00       		.byte	0
 2092 0039 49       		.uleb128 0x49
 2093 003a 13       		.uleb128 0x13
 2094 003b 00       		.byte	0
 2095 003c 00       		.byte	0
 2096 003d 06       		.uleb128 0x6
 2097 003e 2E       		.uleb128 0x2e
 2098 003f 01       		.byte	0x1
 2099 0040 3F       		.uleb128 0x3f
 2100 0041 19       		.uleb128 0x19
 2101 0042 03       		.uleb128 0x3
 2102 0043 0E       		.uleb128 0xe
 2103 0044 3A       		.uleb128 0x3a
 2104 0045 0B       		.uleb128 0xb
 2105 0046 3B       		.uleb128 0x3b
 2106 0047 05       		.uleb128 0x5
 2107 0048 27       		.uleb128 0x27
 2108 0049 19       		.uleb128 0x19
 2109 004a 11       		.uleb128 0x11
 2110 004b 01       		.uleb128 0x1
 2111 004c 12       		.uleb128 0x12
 2112 004d 06       		.uleb128 0x6
 2113 004e 40       		.uleb128 0x40
 2114 004f 18       		.uleb128 0x18
 2115 0050 9742     		.uleb128 0x2117
 2116 0052 19       		.uleb128 0x19
 2117 0053 01       		.uleb128 0x1
 2118 0054 13       		.uleb128 0x13
ARM GAS  C:\Users\USUARIO\AppData\Local\Temp\ccn1jDSD.s 			page 74


 2119 0055 00       		.byte	0
 2120 0056 00       		.byte	0
 2121 0057 07       		.uleb128 0x7
 2122 0058 34       		.uleb128 0x34
 2123 0059 00       		.byte	0
 2124 005a 03       		.uleb128 0x3
 2125 005b 0E       		.uleb128 0xe
 2126 005c 3A       		.uleb128 0x3a
 2127 005d 0B       		.uleb128 0xb
 2128 005e 3B       		.uleb128 0x3b
 2129 005f 05       		.uleb128 0x5
 2130 0060 49       		.uleb128 0x49
 2131 0061 13       		.uleb128 0x13
 2132 0062 02       		.uleb128 0x2
 2133 0063 17       		.uleb128 0x17
 2134 0064 00       		.byte	0
 2135 0065 00       		.byte	0
 2136 0066 08       		.uleb128 0x8
 2137 0067 898201   		.uleb128 0x4109
 2138 006a 00       		.byte	0
 2139 006b 11       		.uleb128 0x11
 2140 006c 01       		.uleb128 0x1
 2141 006d 31       		.uleb128 0x31
 2142 006e 13       		.uleb128 0x13
 2143 006f 00       		.byte	0
 2144 0070 00       		.byte	0
 2145 0071 09       		.uleb128 0x9
 2146 0072 898201   		.uleb128 0x4109
 2147 0075 01       		.byte	0x1
 2148 0076 11       		.uleb128 0x11
 2149 0077 01       		.uleb128 0x1
 2150 0078 31       		.uleb128 0x31
 2151 0079 13       		.uleb128 0x13
 2152 007a 00       		.byte	0
 2153 007b 00       		.byte	0
 2154 007c 0A       		.uleb128 0xa
 2155 007d 8A8201   		.uleb128 0x410a
 2156 0080 00       		.byte	0
 2157 0081 02       		.uleb128 0x2
 2158 0082 18       		.uleb128 0x18
 2159 0083 9142     		.uleb128 0x2111
 2160 0085 18       		.uleb128 0x18
 2161 0086 00       		.byte	0
 2162 0087 00       		.byte	0
 2163 0088 0B       		.uleb128 0xb
 2164 0089 2E       		.uleb128 0x2e
 2165 008a 01       		.byte	0x1
 2166 008b 3F       		.uleb128 0x3f
 2167 008c 19       		.uleb128 0x19
 2168 008d 03       		.uleb128 0x3
 2169 008e 0E       		.uleb128 0xe
 2170 008f 3A       		.uleb128 0x3a
 2171 0090 0B       		.uleb128 0xb
 2172 0091 3B       		.uleb128 0x3b
 2173 0092 05       		.uleb128 0x5
 2174 0093 27       		.uleb128 0x27
 2175 0094 19       		.uleb128 0x19
ARM GAS  C:\Users\USUARIO\AppData\Local\Temp\ccn1jDSD.s 			page 75


 2176 0095 49       		.uleb128 0x49
 2177 0096 13       		.uleb128 0x13
 2178 0097 11       		.uleb128 0x11
 2179 0098 01       		.uleb128 0x1
 2180 0099 12       		.uleb128 0x12
 2181 009a 06       		.uleb128 0x6
 2182 009b 40       		.uleb128 0x40
 2183 009c 18       		.uleb128 0x18
 2184 009d 9742     		.uleb128 0x2117
 2185 009f 19       		.uleb128 0x19
 2186 00a0 01       		.uleb128 0x1
 2187 00a1 13       		.uleb128 0x13
 2188 00a2 00       		.byte	0
 2189 00a3 00       		.byte	0
 2190 00a4 0C       		.uleb128 0xc
 2191 00a5 05       		.uleb128 0x5
 2192 00a6 00       		.byte	0
 2193 00a7 03       		.uleb128 0x3
 2194 00a8 0E       		.uleb128 0xe
 2195 00a9 3A       		.uleb128 0x3a
 2196 00aa 0B       		.uleb128 0xb
 2197 00ab 3B       		.uleb128 0x3b
 2198 00ac 05       		.uleb128 0x5
 2199 00ad 49       		.uleb128 0x49
 2200 00ae 13       		.uleb128 0x13
 2201 00af 02       		.uleb128 0x2
 2202 00b0 17       		.uleb128 0x17
 2203 00b1 00       		.byte	0
 2204 00b2 00       		.byte	0
 2205 00b3 0D       		.uleb128 0xd
 2206 00b4 34       		.uleb128 0x34
 2207 00b5 00       		.byte	0
 2208 00b6 03       		.uleb128 0x3
 2209 00b7 08       		.uleb128 0x8
 2210 00b8 3A       		.uleb128 0x3a
 2211 00b9 0B       		.uleb128 0xb
 2212 00ba 3B       		.uleb128 0x3b
 2213 00bb 05       		.uleb128 0x5
 2214 00bc 49       		.uleb128 0x49
 2215 00bd 13       		.uleb128 0x13
 2216 00be 02       		.uleb128 0x2
 2217 00bf 18       		.uleb128 0x18
 2218 00c0 00       		.byte	0
 2219 00c1 00       		.byte	0
 2220 00c2 0E       		.uleb128 0xe
 2221 00c3 2E       		.uleb128 0x2e
 2222 00c4 00       		.byte	0
 2223 00c5 3F       		.uleb128 0x3f
 2224 00c6 19       		.uleb128 0x19
 2225 00c7 03       		.uleb128 0x3
 2226 00c8 0E       		.uleb128 0xe
 2227 00c9 3A       		.uleb128 0x3a
 2228 00ca 0B       		.uleb128 0xb
 2229 00cb 3B       		.uleb128 0x3b
 2230 00cc 05       		.uleb128 0x5
 2231 00cd 27       		.uleb128 0x27
 2232 00ce 19       		.uleb128 0x19
ARM GAS  C:\Users\USUARIO\AppData\Local\Temp\ccn1jDSD.s 			page 76


 2233 00cf 49       		.uleb128 0x49
 2234 00d0 13       		.uleb128 0x13
 2235 00d1 11       		.uleb128 0x11
 2236 00d2 01       		.uleb128 0x1
 2237 00d3 12       		.uleb128 0x12
 2238 00d4 06       		.uleb128 0x6
 2239 00d5 40       		.uleb128 0x40
 2240 00d6 18       		.uleb128 0x18
 2241 00d7 9742     		.uleb128 0x2117
 2242 00d9 19       		.uleb128 0x19
 2243 00da 00       		.byte	0
 2244 00db 00       		.byte	0
 2245 00dc 0F       		.uleb128 0xf
 2246 00dd 34       		.uleb128 0x34
 2247 00de 00       		.byte	0
 2248 00df 03       		.uleb128 0x3
 2249 00e0 08       		.uleb128 0x8
 2250 00e1 3A       		.uleb128 0x3a
 2251 00e2 0B       		.uleb128 0xb
 2252 00e3 3B       		.uleb128 0x3b
 2253 00e4 05       		.uleb128 0x5
 2254 00e5 49       		.uleb128 0x49
 2255 00e6 13       		.uleb128 0x13
 2256 00e7 02       		.uleb128 0x2
 2257 00e8 17       		.uleb128 0x17
 2258 00e9 00       		.byte	0
 2259 00ea 00       		.byte	0
 2260 00eb 10       		.uleb128 0x10
 2261 00ec 898201   		.uleb128 0x4109
 2262 00ef 01       		.byte	0x1
 2263 00f0 11       		.uleb128 0x11
 2264 00f1 01       		.uleb128 0x1
 2265 00f2 31       		.uleb128 0x31
 2266 00f3 13       		.uleb128 0x13
 2267 00f4 01       		.uleb128 0x1
 2268 00f5 13       		.uleb128 0x13
 2269 00f6 00       		.byte	0
 2270 00f7 00       		.byte	0
 2271 00f8 11       		.uleb128 0x11
 2272 00f9 05       		.uleb128 0x5
 2273 00fa 00       		.byte	0
 2274 00fb 03       		.uleb128 0x3
 2275 00fc 0E       		.uleb128 0xe
 2276 00fd 3A       		.uleb128 0x3a
 2277 00fe 0B       		.uleb128 0xb
 2278 00ff 3B       		.uleb128 0x3b
 2279 0100 05       		.uleb128 0x5
 2280 0101 49       		.uleb128 0x49
 2281 0102 13       		.uleb128 0x13
 2282 0103 02       		.uleb128 0x2
 2283 0104 18       		.uleb128 0x18
 2284 0105 00       		.byte	0
 2285 0106 00       		.byte	0
 2286 0107 12       		.uleb128 0x12
 2287 0108 05       		.uleb128 0x5
 2288 0109 00       		.byte	0
 2289 010a 03       		.uleb128 0x3
ARM GAS  C:\Users\USUARIO\AppData\Local\Temp\ccn1jDSD.s 			page 77


 2290 010b 08       		.uleb128 0x8
 2291 010c 3A       		.uleb128 0x3a
 2292 010d 0B       		.uleb128 0xb
 2293 010e 3B       		.uleb128 0x3b
 2294 010f 05       		.uleb128 0x5
 2295 0110 49       		.uleb128 0x49
 2296 0111 13       		.uleb128 0x13
 2297 0112 02       		.uleb128 0x2
 2298 0113 18       		.uleb128 0x18
 2299 0114 00       		.byte	0
 2300 0115 00       		.byte	0
 2301 0116 13       		.uleb128 0x13
 2302 0117 2E       		.uleb128 0x2e
 2303 0118 01       		.byte	0x1
 2304 0119 3F       		.uleb128 0x3f
 2305 011a 19       		.uleb128 0x19
 2306 011b 03       		.uleb128 0x3
 2307 011c 0E       		.uleb128 0xe
 2308 011d 3A       		.uleb128 0x3a
 2309 011e 0B       		.uleb128 0xb
 2310 011f 3B       		.uleb128 0x3b
 2311 0120 0B       		.uleb128 0xb
 2312 0121 27       		.uleb128 0x27
 2313 0122 19       		.uleb128 0x19
 2314 0123 11       		.uleb128 0x11
 2315 0124 01       		.uleb128 0x1
 2316 0125 12       		.uleb128 0x12
 2317 0126 06       		.uleb128 0x6
 2318 0127 40       		.uleb128 0x40
 2319 0128 18       		.uleb128 0x18
 2320 0129 9742     		.uleb128 0x2117
 2321 012b 19       		.uleb128 0x19
 2322 012c 01       		.uleb128 0x1
 2323 012d 13       		.uleb128 0x13
 2324 012e 00       		.byte	0
 2325 012f 00       		.byte	0
 2326 0130 14       		.uleb128 0x14
 2327 0131 34       		.uleb128 0x34
 2328 0132 00       		.byte	0
 2329 0133 03       		.uleb128 0x3
 2330 0134 0E       		.uleb128 0xe
 2331 0135 3A       		.uleb128 0x3a
 2332 0136 0B       		.uleb128 0xb
 2333 0137 3B       		.uleb128 0x3b
 2334 0138 0B       		.uleb128 0xb
 2335 0139 49       		.uleb128 0x49
 2336 013a 13       		.uleb128 0x13
 2337 013b 02       		.uleb128 0x2
 2338 013c 17       		.uleb128 0x17
 2339 013d 00       		.byte	0
 2340 013e 00       		.byte	0
 2341 013f 15       		.uleb128 0x15
 2342 0140 34       		.uleb128 0x34
 2343 0141 00       		.byte	0
 2344 0142 03       		.uleb128 0x3
 2345 0143 0E       		.uleb128 0xe
 2346 0144 3A       		.uleb128 0x3a
ARM GAS  C:\Users\USUARIO\AppData\Local\Temp\ccn1jDSD.s 			page 78


 2347 0145 0B       		.uleb128 0xb
 2348 0146 3B       		.uleb128 0x3b
 2349 0147 0B       		.uleb128 0xb
 2350 0148 49       		.uleb128 0x49
 2351 0149 13       		.uleb128 0x13
 2352 014a 02       		.uleb128 0x2
 2353 014b 18       		.uleb128 0x18
 2354 014c 00       		.byte	0
 2355 014d 00       		.byte	0
 2356 014e 16       		.uleb128 0x16
 2357 014f 34       		.uleb128 0x34
 2358 0150 00       		.byte	0
 2359 0151 03       		.uleb128 0x3
 2360 0152 0E       		.uleb128 0xe
 2361 0153 3A       		.uleb128 0x3a
 2362 0154 0B       		.uleb128 0xb
 2363 0155 3B       		.uleb128 0x3b
 2364 0156 0B       		.uleb128 0xb
 2365 0157 49       		.uleb128 0x49
 2366 0158 13       		.uleb128 0x13
 2367 0159 3F       		.uleb128 0x3f
 2368 015a 19       		.uleb128 0x19
 2369 015b 02       		.uleb128 0x2
 2370 015c 18       		.uleb128 0x18
 2371 015d 00       		.byte	0
 2372 015e 00       		.byte	0
 2373 015f 17       		.uleb128 0x17
 2374 0160 01       		.uleb128 0x1
 2375 0161 01       		.byte	0x1
 2376 0162 49       		.uleb128 0x49
 2377 0163 13       		.uleb128 0x13
 2378 0164 01       		.uleb128 0x1
 2379 0165 13       		.uleb128 0x13
 2380 0166 00       		.byte	0
 2381 0167 00       		.byte	0
 2382 0168 18       		.uleb128 0x18
 2383 0169 21       		.uleb128 0x21
 2384 016a 00       		.byte	0
 2385 016b 49       		.uleb128 0x49
 2386 016c 13       		.uleb128 0x13
 2387 016d 2F       		.uleb128 0x2f
 2388 016e 0B       		.uleb128 0xb
 2389 016f 00       		.byte	0
 2390 0170 00       		.byte	0
 2391 0171 19       		.uleb128 0x19
 2392 0172 0F       		.uleb128 0xf
 2393 0173 00       		.byte	0
 2394 0174 0B       		.uleb128 0xb
 2395 0175 0B       		.uleb128 0xb
 2396 0176 49       		.uleb128 0x49
 2397 0177 13       		.uleb128 0x13
 2398 0178 00       		.byte	0
 2399 0179 00       		.byte	0
 2400 017a 1A       		.uleb128 0x1a
 2401 017b 26       		.uleb128 0x26
 2402 017c 00       		.byte	0
 2403 017d 49       		.uleb128 0x49
ARM GAS  C:\Users\USUARIO\AppData\Local\Temp\ccn1jDSD.s 			page 79


 2404 017e 13       		.uleb128 0x13
 2405 017f 00       		.byte	0
 2406 0180 00       		.byte	0
 2407 0181 1B       		.uleb128 0x1b
 2408 0182 2E       		.uleb128 0x2e
 2409 0183 00       		.byte	0
 2410 0184 3F       		.uleb128 0x3f
 2411 0185 19       		.uleb128 0x19
 2412 0186 3C       		.uleb128 0x3c
 2413 0187 19       		.uleb128 0x19
 2414 0188 6E       		.uleb128 0x6e
 2415 0189 0E       		.uleb128 0xe
 2416 018a 03       		.uleb128 0x3
 2417 018b 0E       		.uleb128 0xe
 2418 018c 3A       		.uleb128 0x3a
 2419 018d 0B       		.uleb128 0xb
 2420 018e 3B       		.uleb128 0x3b
 2421 018f 0B       		.uleb128 0xb
 2422 0190 00       		.byte	0
 2423 0191 00       		.byte	0
 2424 0192 1C       		.uleb128 0x1c
 2425 0193 2E       		.uleb128 0x2e
 2426 0194 00       		.byte	0
 2427 0195 3F       		.uleb128 0x3f
 2428 0196 19       		.uleb128 0x19
 2429 0197 3C       		.uleb128 0x3c
 2430 0198 19       		.uleb128 0x19
 2431 0199 6E       		.uleb128 0x6e
 2432 019a 0E       		.uleb128 0xe
 2433 019b 03       		.uleb128 0x3
 2434 019c 0E       		.uleb128 0xe
 2435 019d 3A       		.uleb128 0x3a
 2436 019e 0B       		.uleb128 0xb
 2437 019f 3B       		.uleb128 0x3b
 2438 01a0 05       		.uleb128 0x5
 2439 01a1 00       		.byte	0
 2440 01a2 00       		.byte	0
 2441 01a3 00       		.byte	0
 2442              		.section	.debug_loc,"",%progbits
 2443              	.Ldebug_loc0:
 2444              	.LLST0:
 2445 0000 08000000 		.4byte	.LVL1
 2446 0004 58000000 		.4byte	.LVL6
 2447 0008 0100     		.2byte	0x1
 2448 000a 54       		.byte	0x54
 2449 000b 00000000 		.4byte	0
 2450 000f 00000000 		.4byte	0
 2451              	.LLST1:
 2452 0013 00000000 		.4byte	.LVL7
 2453 0017 00000000 		.4byte	.LVL7
 2454 001b 0100     		.2byte	0x1
 2455 001d 50       		.byte	0x50
 2456 001e 00000000 		.4byte	.LVL7
 2457 0022 04000000 		.4byte	.LVL8
 2458 0026 0400     		.2byte	0x4
 2459 0028 F3       		.byte	0xf3
 2460 0029 01       		.uleb128 0x1
ARM GAS  C:\Users\USUARIO\AppData\Local\Temp\ccn1jDSD.s 			page 80


 2461 002a 50       		.byte	0x50
 2462 002b 9F       		.byte	0x9f
 2463 002c 04000000 		.4byte	.LVL8
 2464 0030 20000000 		.4byte	.LFE4
 2465 0034 0100     		.2byte	0x1
 2466 0036 50       		.byte	0x50
 2467 0037 00000000 		.4byte	0
 2468 003b 00000000 		.4byte	0
 2469              	.LLST2:
 2470 003f 12000000 		.4byte	.LVL9
 2471 0043 1A000000 		.4byte	.LVL10
 2472 0047 0100     		.2byte	0x1
 2473 0049 53       		.byte	0x53
 2474 004a 00000000 		.4byte	0
 2475 004e 00000000 		.4byte	0
 2476              	.LLST3:
 2477 0052 00000000 		.4byte	.LVL11
 2478 0056 06000000 		.4byte	.LVL12
 2479 005a 0100     		.2byte	0x1
 2480 005c 50       		.byte	0x50
 2481 005d 06000000 		.4byte	.LVL12
 2482 0061 0C000000 		.4byte	.LFE9
 2483 0065 0400     		.2byte	0x4
 2484 0067 F3       		.byte	0xf3
 2485 0068 01       		.uleb128 0x1
 2486 0069 50       		.byte	0x50
 2487 006a 9F       		.byte	0x9f
 2488 006b 00000000 		.4byte	0
 2489 006f 00000000 		.4byte	0
 2490              	.LLST4:
 2491 0073 00000000 		.4byte	.LVL13
 2492 0077 2B000000 		.4byte	.LVL17-1
 2493 007b 0100     		.2byte	0x1
 2494 007d 50       		.byte	0x50
 2495 007e 2B000000 		.4byte	.LVL17-1
 2496 0082 34000000 		.4byte	.LFE11
 2497 0086 0400     		.2byte	0x4
 2498 0088 F3       		.byte	0xf3
 2499 0089 01       		.uleb128 0x1
 2500 008a 50       		.byte	0x50
 2501 008b 9F       		.byte	0x9f
 2502 008c 00000000 		.4byte	0
 2503 0090 00000000 		.4byte	0
 2504              	.LLST5:
 2505 0094 06000000 		.4byte	.LVL14
 2506 0098 2B000000 		.4byte	.LVL17-1
 2507 009c 0100     		.2byte	0x1
 2508 009e 51       		.byte	0x51
 2509 009f 00000000 		.4byte	0
 2510 00a3 00000000 		.4byte	0
 2511              	.LLST6:
 2512 00a7 0A000000 		.4byte	.LVL15
 2513 00ab 2E000000 		.4byte	.LVL18
 2514 00af 0100     		.2byte	0x1
 2515 00b1 54       		.byte	0x54
 2516 00b2 00000000 		.4byte	0
 2517 00b6 00000000 		.4byte	0
ARM GAS  C:\Users\USUARIO\AppData\Local\Temp\ccn1jDSD.s 			page 81


 2518              	.LLST7:
 2519 00ba 00000000 		.4byte	.LVL19
 2520 00be 0F000000 		.4byte	.LVL22-1
 2521 00c2 0100     		.2byte	0x1
 2522 00c4 50       		.byte	0x50
 2523 00c5 0F000000 		.4byte	.LVL22-1
 2524 00c9 38000000 		.4byte	.LFE12
 2525 00cd 0400     		.2byte	0x4
 2526 00cf F3       		.byte	0xf3
 2527 00d0 01       		.uleb128 0x1
 2528 00d1 50       		.byte	0x50
 2529 00d2 9F       		.byte	0x9f
 2530 00d3 00000000 		.4byte	0
 2531 00d7 00000000 		.4byte	0
 2532              	.LLST8:
 2533 00db 08000000 		.4byte	.LVL20
 2534 00df 1C000000 		.4byte	.LVL24
 2535 00e3 0100     		.2byte	0x1
 2536 00e5 54       		.byte	0x54
 2537 00e6 00000000 		.4byte	0
 2538 00ea 00000000 		.4byte	0
 2539              	.LLST9:
 2540 00ee 0C000000 		.4byte	.LVL21
 2541 00f2 32000000 		.4byte	.LVL25
 2542 00f6 0100     		.2byte	0x1
 2543 00f8 56       		.byte	0x56
 2544 00f9 00000000 		.4byte	0
 2545 00fd 00000000 		.4byte	0
 2546              	.LLST10:
 2547 0101 02000000 		.4byte	.LVL26
 2548 0105 06000000 		.4byte	.LVL27
 2549 0109 0200     		.2byte	0x2
 2550 010b 30       		.byte	0x30
 2551 010c 9F       		.byte	0x9f
 2552 010d 06000000 		.4byte	.LVL27
 2553 0111 0E000000 		.4byte	.LVL29
 2554 0115 0100     		.2byte	0x1
 2555 0117 54       		.byte	0x54
 2556 0118 10000000 		.4byte	.LVL30
 2557 011c 16000000 		.4byte	.LFE10
 2558 0120 0100     		.2byte	0x1
 2559 0122 54       		.byte	0x54
 2560 0123 00000000 		.4byte	0
 2561 0127 00000000 		.4byte	0
 2562              	.LLST11:
 2563 012b 00000000 		.4byte	.LVL35
 2564 012f 27000000 		.4byte	.LVL36-1
 2565 0133 0100     		.2byte	0x1
 2566 0135 50       		.byte	0x50
 2567 0136 27000000 		.4byte	.LVL36-1
 2568 013a 4C000000 		.4byte	.LFE14
 2569 013e 0400     		.2byte	0x4
 2570 0140 F3       		.byte	0xf3
 2571 0141 01       		.uleb128 0x1
 2572 0142 50       		.byte	0x50
 2573 0143 9F       		.byte	0x9f
 2574 0144 00000000 		.4byte	0
ARM GAS  C:\Users\USUARIO\AppData\Local\Temp\ccn1jDSD.s 			page 82


 2575 0148 00000000 		.4byte	0
 2576              	.LLST12:
 2577 014c 00000000 		.4byte	.LVL38
 2578 0150 06000000 		.4byte	.LVL39
 2579 0154 0100     		.2byte	0x1
 2580 0156 50       		.byte	0x50
 2581 0157 06000000 		.4byte	.LVL39
 2582 015b 08000000 		.4byte	.LVL40
 2583 015f 0200     		.2byte	0x2
 2584 0161 73       		.byte	0x73
 2585 0162 00       		.sleb128 0
 2586 0163 08000000 		.4byte	.LVL40
 2587 0167 0A000000 		.4byte	.LVL41
 2588 016b 0500     		.2byte	0x5
 2589 016d 0C       		.byte	0xc
 2590 016e 29640040 		.4byte	0x40006429
 2591 0172 0A000000 		.4byte	.LVL41
 2592 0176 10000000 		.4byte	.LFE15
 2593 017a 0400     		.2byte	0x4
 2594 017c F3       		.byte	0xf3
 2595 017d 01       		.uleb128 0x1
 2596 017e 50       		.byte	0x50
 2597 017f 9F       		.byte	0x9f
 2598 0180 00000000 		.4byte	0
 2599 0184 00000000 		.4byte	0
 2600              	.LLST13:
 2601 0188 00000000 		.4byte	.LVL42
 2602 018c 12000000 		.4byte	.LVL44
 2603 0190 0100     		.2byte	0x1
 2604 0192 50       		.byte	0x50
 2605 0193 12000000 		.4byte	.LVL44
 2606 0197 38000000 		.4byte	.LFE5
 2607 019b 0400     		.2byte	0x4
 2608 019d F3       		.byte	0xf3
 2609 019e 01       		.uleb128 0x1
 2610 019f 50       		.byte	0x50
 2611 01a0 9F       		.byte	0x9f
 2612 01a1 00000000 		.4byte	0
 2613 01a5 00000000 		.4byte	0
 2614              	.LLST14:
 2615 01a9 0C000000 		.4byte	.LVL43
 2616 01ad 18000000 		.4byte	.LVL46
 2617 01b1 0100     		.2byte	0x1
 2618 01b3 55       		.byte	0x55
 2619 01b4 18000000 		.4byte	.LVL46
 2620 01b8 28000000 		.4byte	.LVL48
 2621 01bc 0900     		.2byte	0x9
 2622 01be 75       		.byte	0x75
 2623 01bf 00       		.sleb128 0
 2624 01c0 03       		.byte	0x3
 2625 01c1 00000000 		.4byte	.LANCHOR0
 2626 01c5 1C       		.byte	0x1c
 2627 01c6 9F       		.byte	0x9f
 2628 01c7 00000000 		.4byte	0
 2629 01cb 00000000 		.4byte	0
 2630              	.LLST15:
 2631 01cf 00000000 		.4byte	.LVL49
ARM GAS  C:\Users\USUARIO\AppData\Local\Temp\ccn1jDSD.s 			page 83


 2632 01d3 07000000 		.4byte	.LVL50-1
 2633 01d7 0100     		.2byte	0x1
 2634 01d9 50       		.byte	0x50
 2635 01da 07000000 		.4byte	.LVL50-1
 2636 01de 34000000 		.4byte	.LFE13
 2637 01e2 0400     		.2byte	0x4
 2638 01e4 F3       		.byte	0xf3
 2639 01e5 01       		.uleb128 0x1
 2640 01e6 50       		.byte	0x50
 2641 01e7 9F       		.byte	0x9f
 2642 01e8 00000000 		.4byte	0
 2643 01ec 00000000 		.4byte	0
 2644              	.LLST16:
 2645 01f0 00000000 		.4byte	.LVL52
 2646 01f4 13000000 		.4byte	.LVL53-1
 2647 01f8 0100     		.2byte	0x1
 2648 01fa 50       		.byte	0x50
 2649 01fb 13000000 		.4byte	.LVL53-1
 2650 01ff 20000000 		.4byte	.LFE6
 2651 0203 0400     		.2byte	0x4
 2652 0205 F3       		.byte	0xf3
 2653 0206 01       		.uleb128 0x1
 2654 0207 50       		.byte	0x50
 2655 0208 9F       		.byte	0x9f
 2656 0209 00000000 		.4byte	0
 2657 020d 00000000 		.4byte	0
 2658              	.LLST17:
 2659 0211 00000000 		.4byte	.LVL56
 2660 0215 04000000 		.4byte	.LVL57
 2661 0219 0200     		.2byte	0x2
 2662 021b 30       		.byte	0x30
 2663 021c 9F       		.byte	0x9f
 2664 021d 04000000 		.4byte	.LVL57
 2665 0221 0C000000 		.4byte	.LFE16
 2666 0225 0100     		.2byte	0x1
 2667 0227 50       		.byte	0x50
 2668 0228 00000000 		.4byte	0
 2669 022c 00000000 		.4byte	0
 2670              	.LLST18:
 2671 0230 10000000 		.4byte	.LVL62
 2672 0234 27000000 		.4byte	.LVL63-1
 2673 0238 0100     		.2byte	0x1
 2674 023a 50       		.byte	0x50
 2675 023b 42000000 		.4byte	.LVL64
 2676 023f 59000000 		.4byte	.LVL65-1
 2677 0243 0100     		.2byte	0x1
 2678 0245 50       		.byte	0x50
 2679 0246 00000000 		.4byte	0
 2680 024a 00000000 		.4byte	0
 2681              		.section	.debug_aranges,"",%progbits
 2682 0000 AC000000 		.4byte	0xac
 2683 0004 0200     		.2byte	0x2
 2684 0006 00000000 		.4byte	.Ldebug_info0
 2685 000a 04       		.byte	0x4
 2686 000b 00       		.byte	0
 2687 000c 0000     		.2byte	0
 2688 000e 0000     		.2byte	0
ARM GAS  C:\Users\USUARIO\AppData\Local\Temp\ccn1jDSD.s 			page 84


 2689 0010 00000000 		.4byte	.LFB1
 2690 0014 68000000 		.4byte	.LFE1-.LFB1
 2691 0018 00000000 		.4byte	.LFB4
 2692 001c 20000000 		.4byte	.LFE4-.LFB4
 2693 0020 00000000 		.4byte	.LFB8
 2694 0024 10000000 		.4byte	.LFE8-.LFB8
 2695 0028 00000000 		.4byte	.LFB9
 2696 002c 0C000000 		.4byte	.LFE9-.LFB9
 2697 0030 00000000 		.4byte	.LFB11
 2698 0034 34000000 		.4byte	.LFE11-.LFB11
 2699 0038 00000000 		.4byte	.LFB12
 2700 003c 38000000 		.4byte	.LFE12-.LFB12
 2701 0040 00000000 		.4byte	.LFB10
 2702 0044 16000000 		.4byte	.LFE10-.LFB10
 2703 0048 00000000 		.4byte	.LFB3
 2704 004c 68000000 		.4byte	.LFE3-.LFB3
 2705 0050 00000000 		.4byte	.LFB14
 2706 0054 4C000000 		.4byte	.LFE14-.LFB14
 2707 0058 00000000 		.4byte	.LFB15
 2708 005c 10000000 		.4byte	.LFE15-.LFB15
 2709 0060 00000000 		.4byte	.LFB5
 2710 0064 38000000 		.4byte	.LFE5-.LFB5
 2711 0068 00000000 		.4byte	.LFB13
 2712 006c 34000000 		.4byte	.LFE13-.LFB13
 2713 0070 00000000 		.4byte	.LFB6
 2714 0074 20000000 		.4byte	.LFE6-.LFB6
 2715 0078 00000000 		.4byte	.LFB7
 2716 007c 38000000 		.4byte	.LFE7-.LFB7
 2717 0080 00000000 		.4byte	.LFB16
 2718 0084 0C000000 		.4byte	.LFE16-.LFB16
 2719 0088 00000000 		.4byte	.LFB17
 2720 008c 0C000000 		.4byte	.LFE17-.LFB17
 2721 0090 00000000 		.4byte	.LFB18
 2722 0094 20000000 		.4byte	.LFE18-.LFB18
 2723 0098 00000000 		.4byte	.LFB0
 2724 009c E4000000 		.4byte	.LFE0-.LFB0
 2725 00a0 00000000 		.4byte	.LFB2
 2726 00a4 2C000000 		.4byte	.LFE2-.LFB2
 2727 00a8 00000000 		.4byte	0
 2728 00ac 00000000 		.4byte	0
 2729              		.section	.debug_ranges,"",%progbits
 2730              	.Ldebug_ranges0:
 2731 0000 00000000 		.4byte	.LFB1
 2732 0004 68000000 		.4byte	.LFE1
 2733 0008 00000000 		.4byte	.LFB4
 2734 000c 20000000 		.4byte	.LFE4
 2735 0010 00000000 		.4byte	.LFB8
 2736 0014 10000000 		.4byte	.LFE8
 2737 0018 00000000 		.4byte	.LFB9
 2738 001c 0C000000 		.4byte	.LFE9
 2739 0020 00000000 		.4byte	.LFB11
 2740 0024 34000000 		.4byte	.LFE11
 2741 0028 00000000 		.4byte	.LFB12
 2742 002c 38000000 		.4byte	.LFE12
 2743 0030 00000000 		.4byte	.LFB10
 2744 0034 16000000 		.4byte	.LFE10
 2745 0038 00000000 		.4byte	.LFB3
ARM GAS  C:\Users\USUARIO\AppData\Local\Temp\ccn1jDSD.s 			page 85


 2746 003c 68000000 		.4byte	.LFE3
 2747 0040 00000000 		.4byte	.LFB14
 2748 0044 4C000000 		.4byte	.LFE14
 2749 0048 00000000 		.4byte	.LFB15
 2750 004c 10000000 		.4byte	.LFE15
 2751 0050 00000000 		.4byte	.LFB5
 2752 0054 38000000 		.4byte	.LFE5
 2753 0058 00000000 		.4byte	.LFB13
 2754 005c 34000000 		.4byte	.LFE13
 2755 0060 00000000 		.4byte	.LFB6
 2756 0064 20000000 		.4byte	.LFE6
 2757 0068 00000000 		.4byte	.LFB7
 2758 006c 38000000 		.4byte	.LFE7
 2759 0070 00000000 		.4byte	.LFB16
 2760 0074 0C000000 		.4byte	.LFE16
 2761 0078 00000000 		.4byte	.LFB17
 2762 007c 0C000000 		.4byte	.LFE17
 2763 0080 00000000 		.4byte	.LFB18
 2764 0084 20000000 		.4byte	.LFE18
 2765 0088 00000000 		.4byte	.LFB0
 2766 008c E4000000 		.4byte	.LFE0
 2767 0090 00000000 		.4byte	.LFB2
 2768 0094 2C000000 		.4byte	.LFE2
 2769 0098 00000000 		.4byte	0
 2770 009c 00000000 		.4byte	0
 2771              		.section	.debug_line,"",%progbits
 2772              	.Ldebug_line0:
 2773 0000 B5020000 		.section	.debug_str,"MS",%progbits,1
 2773      0200C900 
 2773      00000201 
 2773      FB0E0D00 
 2773      01010101 
 2774              	.LASF10:
 2775 0000 75696E74 		.ascii	"uint16\000"
 2775      313600
 2776              	.LASF50:
 2777 0007 43617053 		.ascii	"CapSense_csv\000"
 2777      656E7365 
 2777      5F637376 
 2777      00
 2778              	.LASF66:
 2779 0014 43794578 		.ascii	"CyExitCriticalSection\000"
 2779      69744372 
 2779      69746963 
 2779      616C5365 
 2779      6374696F 
 2780              	.LASF82:
 2781 002a 47656E65 		.ascii	"Generated_Source\\PSoC5\\CapSense.c\000"
 2781      72617465 
 2781      645F536F 
 2781      75726365 
 2781      5C50536F 
 2782              	.LASF48:
 2783 004c 43617053 		.ascii	"CapSense_initVar\000"
 2783      656E7365 
 2783      5F696E69 
 2783      74566172 
ARM GAS  C:\Users\USUARIO\AppData\Local\Temp\ccn1jDSD.s 			page 86


 2783      00
 2784              	.LASF54:
 2785 005d 43617053 		.ascii	"CapSense_pcTable\000"
 2785      656E7365 
 2785      5F706354 
 2785      61626C65 
 2785      00
 2786              	.LASF49:
 2787 006e 43617053 		.ascii	"CapSense_lowLevelTuningDone\000"
 2787      656E7365 
 2787      5F6C6F77 
 2787      4C657665 
 2787      6C54756E 
 2788              	.LASF72:
 2789 008a 43617053 		.ascii	"CapSense_IdacCH0_SetValue\000"
 2789      656E7365 
 2789      5F496461 
 2789      63434830 
 2789      5F536574 
 2790              	.LASF24:
 2791 00a4 736E7349 		.ascii	"snsIndex\000"
 2791      6E646578 
 2791      00
 2792              	.LASF7:
 2793 00ad 6C6F6E67 		.ascii	"long long unsigned int\000"
 2793      206C6F6E 
 2793      6720756E 
 2793      7369676E 
 2793      65642069 
 2794              	.LASF64:
 2795 00c4 43617053 		.ascii	"CapSense_CompCH0_Enable\000"
 2795      656E7365 
 2795      5F436F6D 
 2795      70434830 
 2795      5F456E61 
 2796              	.LASF26:
 2797 00dc 43617053 		.ascii	"CapSense_Enable\000"
 2797      656E7365 
 2797      5F456E61 
 2797      626C6500 
 2798              	.LASF34:
 2799 00ec 43617053 		.ascii	"CapSense_SetPrescaler\000"
 2799      656E7365 
 2799      5F536574 
 2799      50726573 
 2799      63616C65 
 2800              	.LASF6:
 2801 0102 6C6F6E67 		.ascii	"long long int\000"
 2801      206C6F6E 
 2801      6720696E 
 2801      7400
 2802              	.LASF0:
 2803 0110 7369676E 		.ascii	"signed char\000"
 2803      65642063 
 2803      68617200 
 2804              	.LASF45:
 2805 011c 43617053 		.ascii	"CapSense_SetAnalogSwitchesSource\000"
ARM GAS  C:\Users\USUARIO\AppData\Local\Temp\ccn1jDSD.s 			page 87


 2805      656E7365 
 2805      5F536574 
 2805      416E616C 
 2805      6F675377 
 2806              	.LASF4:
 2807 013d 6C6F6E67 		.ascii	"long int\000"
 2807      20696E74 
 2807      00
 2808              	.LASF16:
 2809 0146 72656731 		.ascii	"reg16\000"
 2809      3600
 2810              	.LASF9:
 2811 014c 75696E74 		.ascii	"uint8\000"
 2811      3800
 2812              	.LASF75:
 2813 0152 43617053 		.ascii	"CapSense_AMuxCH0_Init\000"
 2813      656E7365 
 2813      5F414D75 
 2813      78434830 
 2813      5F496E69 
 2814              	.LASF13:
 2815 0168 646F7562 		.ascii	"double\000"
 2815      6C6500
 2816              	.LASF27:
 2817 016f 43617053 		.ascii	"CapSense_EnableSensor\000"
 2817      656E7365 
 2817      5F456E61 
 2817      626C6553 
 2817      656E736F 
 2818              	.LASF71:
 2819 0185 43617053 		.ascii	"CapSense_IdacCH0_Stop\000"
 2819      656E7365 
 2819      5F496461 
 2819      63434830 
 2819      5F53746F 
 2820              	.LASF61:
 2821 019b 43617053 		.ascii	"CapSense_widgetNumber\000"
 2821      656E7365 
 2821      5F776964 
 2821      6765744E 
 2821      756D6265 
 2822              	.LASF23:
 2823 01b1 43617053 		.ascii	"CapSense_ReadSensorRaw\000"
 2823      656E7365 
 2823      5F526561 
 2823      6453656E 
 2823      736F7252 
 2824              	.LASF11:
 2825 01c8 75696E74 		.ascii	"uint32\000"
 2825      333200
 2826              	.LASF73:
 2827 01cf 4379496E 		.ascii	"CyIntSetVector\000"
 2827      74536574 
 2827      56656374 
 2827      6F7200
 2828              	.LASF29:
 2829 01de 6D61736B 		.ascii	"mask\000"
ARM GAS  C:\Users\USUARIO\AppData\Local\Temp\ccn1jDSD.s 			page 88


 2829      00
 2830              	.LASF76:
 2831 01e3 43617053 		.ascii	"CapSense_CompCH0_Init\000"
 2831      656E7365 
 2831      5F436F6D 
 2831      70434830 
 2831      5F496E69 
 2832              	.LASF28:
 2833 01f9 706F7274 		.ascii	"port\000"
 2833      00
 2834              	.LASF51:
 2835 01fe 43617053 		.ascii	"CapSense_sensorIndex\000"
 2835      656E7365 
 2835      5F73656E 
 2835      736F7249 
 2835      6E646578 
 2836              	.LASF40:
 2837 0213 43617053 		.ascii	"CapSense_ScanSensor\000"
 2837      656E7365 
 2837      5F536361 
 2837      6E53656E 
 2837      736F7200 
 2838              	.LASF8:
 2839 0227 756E7369 		.ascii	"unsigned int\000"
 2839      676E6564 
 2839      20696E74 
 2839      00
 2840              	.LASF31:
 2841 0234 43617053 		.ascii	"CapSense_ClearSensors\000"
 2841      656E7365 
 2841      5F436C65 
 2841      61725365 
 2841      6E736F72 
 2842              	.LASF79:
 2843 024a 43617053 		.ascii	"CapSense_IdacCH0_SetRange\000"
 2843      656E7365 
 2843      5F496461 
 2843      63434830 
 2843      5F536574 
 2844              	.LASF5:
 2845 0264 6C6F6E67 		.ascii	"long unsigned int\000"
 2845      20756E73 
 2845      69676E65 
 2845      6420696E 
 2845      7400
 2846              	.LASF56:
 2847 0276 43617053 		.ascii	"CapSense_maskTable\000"
 2847      656E7365 
 2847      5F6D6173 
 2847      6B546162 
 2847      6C6500
 2848              	.LASF55:
 2849 0289 43617053 		.ascii	"CapSense_portTable\000"
 2849      656E7365 
 2849      5F706F72 
 2849      74546162 
 2849      6C6500
ARM GAS  C:\Users\USUARIO\AppData\Local\Temp\ccn1jDSD.s 			page 89


 2850              	.LASF63:
 2851 029c 43617053 		.ascii	"CapSense_IntClock_Start\000"
 2851      656E7365 
 2851      5F496E74 
 2851      436C6F63 
 2851      6B5F5374 
 2852              	.LASF62:
 2853 02b4 4379456E 		.ascii	"CyEnterCriticalSection\000"
 2853      74657243 
 2853      72697469 
 2853      63616C53 
 2853      65637469 
 2854              	.LASF3:
 2855 02cb 73686F72 		.ascii	"short unsigned int\000"
 2855      7420756E 
 2855      7369676E 
 2855      65642069 
 2855      6E7400
 2856              	.LASF69:
 2857 02de 43617053 		.ascii	"CapSense_IntClock_Stop\000"
 2857      656E7365 
 2857      5F496E74 
 2857      436C6F63 
 2857      6B5F5374 
 2858              	.LASF25:
 2859 02f5 73656E73 		.ascii	"sensor\000"
 2859      6F7200
 2860              	.LASF53:
 2861 02fc 43617053 		.ascii	"CapSense_sensorEnableMask\000"
 2861      656E7365 
 2861      5F73656E 
 2861      736F7245 
 2861      6E61626C 
 2862              	.LASF37:
 2863 0316 736C6F74 		.ascii	"slot\000"
 2863      00
 2864              	.LASF80:
 2865 031b 43617053 		.ascii	"CapSense_AutoTune\000"
 2865      656E7365 
 2865      5F417574 
 2865      6F54756E 
 2865      6500
 2866              	.LASF17:
 2867 032d 72656733 		.ascii	"reg32\000"
 2867      3200
 2868              	.LASF60:
 2869 0333 43617053 		.ascii	"CapSense_analogSwitchDivider\000"
 2869      656E7365 
 2869      5F616E61 
 2869      6C6F6753 
 2869      77697463 
 2870              	.LASF19:
 2871 0350 73697A65 		.ascii	"sizetype\000"
 2871      74797065 
 2871      00
 2872              	.LASF57:
 2873 0359 43617053 		.ascii	"CapSense_csTable\000"
ARM GAS  C:\Users\USUARIO\AppData\Local\Temp\ccn1jDSD.s 			page 90


 2873      656E7365 
 2873      5F637354 
 2873      61626C65 
 2873      00
 2874              	.LASF18:
 2875 036a 6C6F6E67 		.ascii	"long double\000"
 2875      20646F75 
 2875      626C6500 
 2876              	.LASF32:
 2877 0376 43617053 		.ascii	"CapSense_Stop\000"
 2877      656E7365 
 2877      5F53746F 
 2877      7000
 2878              	.LASF44:
 2879 0384 7363616E 		.ascii	"scanSpeed\000"
 2879      53706565 
 2879      6400
 2880              	.LASF21:
 2881 038e 656E4D61 		.ascii	"enMask\000"
 2881      736B00
 2882              	.LASF78:
 2883 0395 43617053 		.ascii	"CapSense_IdacCH0_SetPolarity\000"
 2883      656E7365 
 2883      5F496461 
 2883      63434830 
 2883      5F536574 
 2884              	.LASF74:
 2885 03b2 4379496E 		.ascii	"CyIntSetPriority\000"
 2885      74536574 
 2885      5072696F 
 2885      72697479 
 2885      00
 2886              	.LASF58:
 2887 03c3 43617053 		.ascii	"CapSense_idacSettings\000"
 2887      656E7365 
 2887      5F696461 
 2887      63536574 
 2887      74696E67 
 2888              	.LASF12:
 2889 03d9 666C6F61 		.ascii	"float\000"
 2889      7400
 2890              	.LASF35:
 2891 03df 70726573 		.ascii	"prescaler\000"
 2891      63616C65 
 2891      7200
 2892              	.LASF83:
 2893 03e9 443A5C4C 		.ascii	"D:\\Laboratorio\\Mufla\\2020\\Mufla 14L Touch Avant"
 2893      61626F72 
 2893      61746F72 
 2893      696F5C4D 
 2893      75666C61 
 2894 0418 696B6120 		.ascii	"ika #0045882XX OP202019\\Mufla Doble Display\\Firmw"
 2894      23303034 
 2894      35383832 
 2894      5858204F 
 2894      50323032 
 2895 0449 61726520 		.ascii	"are Psoc\\LCD2\\LCD.cydsn\000"
ARM GAS  C:\Users\USUARIO\AppData\Local\Temp\ccn1jDSD.s 			page 91


 2895      50736F63 
 2895      5C4C4344 
 2895      325C4C43 
 2895      442E6379 
 2896              	.LASF15:
 2897 0461 72656738 		.ascii	"reg8\000"
 2897      00
 2898              	.LASF22:
 2899 0466 43617053 		.ascii	"CapSense_FindNextSensor\000"
 2899      656E7365 
 2899      5F46696E 
 2899      644E6578 
 2899      7453656E 
 2900              	.LASF1:
 2901 047e 756E7369 		.ascii	"unsigned char\000"
 2901      676E6564 
 2901      20636861 
 2901      7200
 2902              	.LASF77:
 2903 048c 43617053 		.ascii	"CapSense_IdacCH0_Init\000"
 2903      656E7365 
 2903      5F496461 
 2903      63434830 
 2903      5F496E69 
 2904              	.LASF59:
 2905 04a2 43617053 		.ascii	"CapSense_widgetResolution\000"
 2905      656E7365 
 2905      5F776964 
 2905      67657452 
 2905      65736F6C 
 2906              	.LASF2:
 2907 04bc 73686F72 		.ascii	"short int\000"
 2907      7420696E 
 2907      7400
 2908              	.LASF38:
 2909 04c6 77696467 		.ascii	"widget\000"
 2909      657400
 2910              	.LASF36:
 2911 04cd 43617053 		.ascii	"CapSense_SetScanSlotSettings\000"
 2911      656E7365 
 2911      5F536574 
 2911      5363616E 
 2911      536C6F74 
 2912              	.LASF42:
 2913 04ea 43617053 		.ascii	"CapSense_GetPrescaler\000"
 2913      656E7365 
 2913      5F476574 
 2913      50726573 
 2913      63616C65 
 2914              	.LASF81:
 2915 0500 474E5520 		.ascii	"GNU C11 5.4.1 20160609 (release) [ARM/embedded-5-br"
 2915      43313120 
 2915      352E342E 
 2915      31203230 
 2915      31363036 
 2916 0533 616E6368 		.ascii	"anch revision 237715] -mcpu=cortex-m3 -mthumb -g -O"
 2916      20726576 
ARM GAS  C:\Users\USUARIO\AppData\Local\Temp\ccn1jDSD.s 			page 92


 2916      6973696F 
 2916      6E203233 
 2916      37373135 
 2917 0566 67202D66 		.ascii	"g -ffunction-sections -ffat-lto-objects\000"
 2917      66756E63 
 2917      74696F6E 
 2917      2D736563 
 2917      74696F6E 
 2918              	.LASF14:
 2919 058e 63686172 		.ascii	"char\000"
 2919      00
 2920              	.LASF65:
 2921 0593 43617053 		.ascii	"CapSense_IdacCH0_Enable\000"
 2921      656E7365 
 2921      5F496461 
 2921      63434830 
 2921      5F456E61 
 2922              	.LASF43:
 2923 05ab 43617053 		.ascii	"CapSense_SetScanSpeed\000"
 2923      656E7365 
 2923      5F536574 
 2923      5363616E 
 2923      53706565 
 2924              	.LASF67:
 2925 05c1 43617053 		.ascii	"CapSense_AMuxCH0_Set\000"
 2925      656E7365 
 2925      5F414D75 
 2925      78434830 
 2925      5F536574 
 2926              	.LASF47:
 2927 05d6 43617053 		.ascii	"CapSense_Start\000"
 2927      656E7365 
 2927      5F537461 
 2927      727400
 2928              	.LASF33:
 2929 05e5 43617053 		.ascii	"CapSense_PostScan\000"
 2929      656E7365 
 2929      5F506F73 
 2929      74536361 
 2929      6E00
 2930              	.LASF20:
 2931 05f7 656E6162 		.ascii	"enableInterrupts\000"
 2931      6C65496E 
 2931      74657272 
 2931      75707473 
 2931      00
 2932              	.LASF70:
 2933 0608 43617053 		.ascii	"CapSense_CompCH0_Stop\000"
 2933      656E7365 
 2933      5F436F6D 
 2933      70434830 
 2933      5F53746F 
 2934              	.LASF30:
 2935 061e 43617053 		.ascii	"CapSense_DisableSensor\000"
 2935      656E7365 
 2935      5F446973 
 2935      61626C65 
ARM GAS  C:\Users\USUARIO\AppData\Local\Temp\ccn1jDSD.s 			page 93


 2935      53656E73 
 2936              	.LASF39:
 2937 0635 43617053 		.ascii	"CapSense_PreScan\000"
 2937      656E7365 
 2937      5F507265 
 2937      5363616E 
 2937      00
 2938              	.LASF46:
 2939 0646 43617053 		.ascii	"CapSense_Init\000"
 2939      656E7365 
 2939      5F496E69 
 2939      7400
 2940              	.LASF52:
 2941 0654 43617053 		.ascii	"CapSense_sensorRaw\000"
 2941      656E7365 
 2941      5F73656E 
 2941      736F7252 
 2941      617700
 2942              	.LASF41:
 2943 0667 43617053 		.ascii	"CapSense_ScanEnabledWidgets\000"
 2943      656E7365 
 2943      5F536361 
 2943      6E456E61 
 2943      626C6564 
 2944              	.LASF68:
 2945 0683 43617053 		.ascii	"CapSense_AMuxCH0_Unset\000"
 2945      656E7365 
 2945      5F414D75 
 2945      78434830 
 2945      5F556E73 
 2946              	.LASF84:
 2947 069a 43617053 		.ascii	"CapSense_IsBusy\000"
 2947      656E7365 
 2947      5F497342 
 2947      75737900 
 2948              		.ident	"GCC: (GNU Tools for ARM Embedded Processors) 5.4.1 20160609 (release) [ARM/embedded-5-bran
