CCS PCH C Compiler, Version 4.104, 5967               11-feb.-21 07:41

               Filename: D:\Laboratorio\Mufla\2019\Mufla 9L Artilab #004588000 OP2019109\FirmwareV1.0.1-Ajuste Pendiente\Mufla.lst

               ROM used: 69740 bytes (71%)
                         Largest free fragment is 22792
               RAM used: 1983 (60%) at main() level
                         2041 (61%) worst case
               Stack:    6 worst case (5 in main + 1 for interrupts)

*
00000:  GOTO   10000
*
00008:  MOVWF  04
0000A:  MOVFF  FD8,05
0000E:  MOVFF  FE0,06
00012:  MOVLB  0
00014:  MOVFF  FE9,0C
00018:  MOVFF  FEA,07
0001C:  MOVFF  FE1,08
00020:  MOVFF  FE2,09
00024:  MOVFF  FD9,0A
00028:  MOVFF  FDA,0B
0002C:  MOVFF  FF3,12
00030:  MOVFF  FF4,13
00034:  MOVFF  FFA,14
00038:  MOVFF  FFB,15
0003C:  MOVFF  00,0E
00040:  MOVFF  01,0F
00044:  MOVFF  02,10
00048:  MOVFF  03,11
0004C:  BTFSS  F9D.0
0004E:  GOTO   0058
00052:  BTFSC  F9E.0
00054:  GOTO   1614
00058:  MOVFF  0E,00
0005C:  MOVFF  0F,01
00060:  MOVFF  10,02
00064:  MOVFF  11,03
00068:  MOVFF  0C,FE9
0006C:  MOVFF  07,FEA
00070:  BSF    07.7
00072:  MOVFF  08,FE1
00076:  MOVFF  09,FE2
0007A:  MOVFF  0A,FD9
0007E:  MOVFF  0B,FDA
00082:  MOVFF  12,FF3
00086:  MOVFF  13,FF4
0008A:  MOVFF  14,FFA
0008E:  MOVFF  15,FFB
00092:  MOVF   04,W
00094:  MOVFF  06,FE0
00098:  MOVFF  05,FD8
0009C:  RETFIE 0
.................... // Control para mufla con rampas  
.................... // Se pueden programar 5 Programas de 10 Segmentos cada Uno. 
.................... // En un segmento se puede programar una rampa o una meseta. 
....................  
....................  
.................... #include <18F4685.h> 
.................... //////// Standard Header file for the PIC18F4685 device //////////////// 
.................... #device PIC18F4685 
.................... #list 
....................  
.................... #device adc=10 
.................... #fuses HS,NOWDT,NOPROTECT,NOLVP,NODEBUG,NOSTVREN,NOPUT,NOCPD,NOWRT,NOIESO,NOFCMEN,NOPBADEN,NOWRTC,NOWRTB,NOEBTR,NOEBTRB,NOCPB,NOXINST,NOLPT1OSC,NOMCLR 
.................... #use delay(clock=20000000) 
*
0184E:  MOVLW  07
01850:  MOVWF  FEA
01852:  MOVLW  C1
01854:  MOVWF  FE9
01856:  MOVF   FEF,W
01858:  BZ    1874
0185A:  MOVLW  06
0185C:  MOVWF  01
0185E:  CLRF   00
01860:  DECFSZ 00,F
01862:  BRA    1860
01864:  DECFSZ 01,F
01866:  BRA    185E
01868:  MOVLW  7B
0186A:  MOVWF  00
0186C:  DECFSZ 00,F
0186E:  BRA    186C
01870:  DECFSZ FEF,F
01872:  BRA    185A
01874:  RETLW  00
.................... #use RS232(BAUD=19200, BITS=8, PARITY=N, XMIT=PIN_C6, RCV=PIN_C7, stream=Printer) 
*
03BD2:  BTFSS  F9E.4
03BD4:  BRA    3BD2
03BD6:  MOVWF  FAD
03BD8:  RETLW  00
.................... #include "HDM64GS12.c" 
.................... ///////////////////////////////////////////////////////////////////////// 
.................... ////                           HDM64GS12.c                           //// 
.................... ////                                                                 //// 
.................... //// This file contains drivers for using a Hantronix HDM64GS12 with //// 
.................... //// a KS0108 display controller. The HDM64GS12 is 128 by 64 pixels. //// 
.................... //// The driver treats the upper left pixel as (0,0).                //// 
.................... ////                                                                 //// 
.................... //// Use #define FAST_GLCD if the target chip has at least 1k of RAM //// 
.................... //// to decrease the time it takes to update the display.            //// 
.................... //// glcd_update() must then be called to update the display after   //// 
.................... //// changing the pixel information.                                 //// 
.................... //// See ex_glcd.c for suggested usage.                              //// 
.................... //// See KS0108.c for controlling a single 64 by 64 display          //// 
.................... ///////////////////////////////////////////////////////////////////////// 
.................... ////                                                                 //// 
.................... //// LCD Pin connections:                                            //// 
.................... //// (These can be changed as needed in the following defines).      //// 
.................... ////  * 1: VSS is connected to GND                                   //// 
.................... ////  * 2: VDD is connected to +5V                                   //// 
.................... ////  * 3: V0  - LCD operating voltage (Constrast adjustment)        //// 
.................... ////  * 4: D/I - Data or Instruction is connected to B2              //// 
.................... ////  * 5: R/W - Read or Write is connected to B4                    //// 
.................... ////  * 6: Enable is connected to B5                                 //// 
.................... ////  *7-14: Data Bus 0 to 7 is connected to port d                  //// 
.................... ////  *15: Chip Select 1 is connected to B0                          //// 
.................... ////  *16: Chip Select 2 is connected to B1                          //// 
.................... ////  *17: Reset is connected to C0                                  //// 
.................... ////  *18: Negative voltage is also connected to the 20k Ohm POT     //// 
.................... ////  *19: Positive voltage for LED backlight is connected to +5V    //// 
.................... ////  *20: Negavtive voltage for LED backlight is connected to GND   //// 
.................... ////                                                                 //// 
.................... ///////////////////////////////////////////////////////////////////////// 
.................... ////                                                                 //// 
.................... ////  glcd_init(mode)                                                //// 
.................... ////     * Must be called before any other function.                 //// 
.................... ////       - mode can be ON or OFF to turn the LCD on or off         //// 
.................... ////                                                                 //// 
.................... ////  glcd_pixel(x,y,color)                                          //// 
.................... ////     * Sets the pixel to the given color.                        //// 
.................... ////       - color can be ON or OFF                                  //// 
.................... ////                                                                 //// 
.................... ////  glcd_fillScreen(color)                                         //// 
.................... ////     * Fills the entire LCD with the given color.                //// 
.................... ////       - color can be ON or OFF                                  //// 
.................... ////                                                                 //// 
.................... ////  glcd_update()                                                  //// 
.................... ////     * Write the display data stored in RAM to the LCD           //// 
.................... ////     * Only available if FAST_GLCD is defined                    //// 
.................... ////                                                                 //// 
.................... ///////////////////////////////////////////////////////////////////////// 
.................... ////        (C) Copyright 1996, 2004 Custom Computer Services        //// 
.................... //// This source code may only be used by licensed users of the CCS  //// 
.................... //// C compiler.  This source code may only be distributed to other  //// 
.................... //// licensed users of the CCS C compiler.  No other use,            //// 
.................... //// reproduction or distribution is permitted without written       //// 
.................... //// permission.  Derivative programs created using this software    //// 
.................... //// in object code form are not restricted in any way.              //// 
.................... ///////////////////////////////////////////////////////////////////////// 
....................  
....................  
....................  
.................... #ifndef HDM64GS12 
.................... #define HDM64GS12 
....................  
.................... #ifndef FAST_GLCD 
.................... #define FAST_GLCD 
....................  
.................... #ifndef GLCD_WIDTH 
.................... #define GLCD_WIDTH   128 
.................... #endif 
....................  
.................... #ifndef GLCD_CS1 
.................... #define GLCD_CS1     PIN_B2   // Chip Selection 1 
.................... #endif 
....................  
.................... #ifndef GLCD_CS2 
.................... #define GLCD_CS2     PIN_B3   // Chip Selection 2 
.................... #endif 
....................  
.................... #ifndef GLCD_DI 
.................... #define GLCD_DI      PIN_B5   // Data or Instruction input 
.................... #endif 
....................  
.................... #ifndef GLCD_RW 
.................... #define GLCD_RW      PIN_B6   // Read/Write 
.................... #endif 
....................  
.................... #ifndef GLCD_E 
.................... #define GLCD_E       PIN_B7   // Enable 
.................... #endif 
....................  
.................... #ifndef GLCD_RST 
.................... #define GLCD_RST     PIN_B4   // Reset 
.................... #endif 
....................  
.................... #define GLCD_LEFT    0 
.................... #define GLCD_RIGHT   1 
....................  
.................... #ifndef ON 
.................... #define ON           1 
.................... #endif 
....................  
.................... #ifndef OFF 
.................... #define OFF          0 
.................... #endif 
....................  
.................... ///////////////////////////////////////////////////////////////////////// 
.................... // Function Prototypes 
.................... ///////////////////////////////////////////////////////////////////////// 
.................... void glcd_init(int1 mode); 
.................... void glcd_pixel(int8 x, int8 y, int1 color); 
.................... void glcd_fillScreen(int1 color); 
.................... void glcd_writeByte(int1 side, BYTE data); 
.................... BYTE glcd_readByte(int1 side); 
.................... void glcd_update(); 
.................... ///////////////////////////////////////////////////////////////////////// 
....................  
.................... #ifdef FAST_GLCD 
.................... struct 
.................... { 
....................    int8 left[512]; 
....................    int8 right[512]; 
.................... } displayData; 
.................... #endif 
....................  
....................  
.................... // Purpose:       Initialize the LCD. 
.................... //                Call before using any other LCD function. 
.................... // Inputs:        OFF - Turns the LCD off 
.................... //                ON  - Turns the LCD on 
.................... void glcd_init(int1 mode) 
.................... { 
....................    // Initialze some pins 
....................    output_high(GLCD_RST); 
*
019E0:  BCF    F93.4
019E2:  BSF    F8A.4
....................    output_low(GLCD_E); 
019E4:  BCF    F93.7
019E6:  BCF    F8A.7
....................    output_low(GLCD_CS1); 
019E8:  BCF    F93.2
019EA:  BCF    F8A.2
....................    output_low(GLCD_CS2); 
019EC:  BCF    F93.3
019EE:  BCF    F8A.3
....................  
....................    output_low(GLCD_DI);                 // Set for instruction 
019F0:  BCF    F93.5
019F2:  BCF    F8A.5
....................    glcd_writeByte(GLCD_LEFT,  0xC0);    // Specify first RAM line at the top 
019F4:  MOVLB  7
019F6:  CLRF   xD8
019F8:  MOVLW  C0
019FA:  MOVWF  xD9
019FC:  MOVLB  0
019FE:  RCALL  1898
....................    glcd_writeByte(GLCD_RIGHT, 0xC0);    //   of the screen 
01A00:  MOVLW  01
01A02:  MOVLB  7
01A04:  MOVWF  xD8
01A06:  MOVLW  C0
01A08:  MOVWF  xD9
01A0A:  MOVLB  0
01A0C:  RCALL  1898
....................    glcd_writeByte(GLCD_LEFT,  0x40);    // Set the column address to 0 
01A0E:  MOVLB  7
01A10:  CLRF   xD8
01A12:  MOVLW  40
01A14:  MOVWF  xD9
01A16:  MOVLB  0
01A18:  RCALL  1898
....................    glcd_writeByte(GLCD_RIGHT, 0x40); 
01A1A:  MOVLW  01
01A1C:  MOVLB  7
01A1E:  MOVWF  xD8
01A20:  MOVLW  40
01A22:  MOVWF  xD9
01A24:  MOVLB  0
01A26:  RCALL  1898
....................    glcd_writeByte(GLCD_LEFT,  0xB8);    // Set the page address to 0 
01A28:  MOVLB  7
01A2A:  CLRF   xD8
01A2C:  MOVLW  B8
01A2E:  MOVWF  xD9
01A30:  MOVLB  0
01A32:  RCALL  1898
....................    glcd_writeByte(GLCD_RIGHT, 0xB8); 
01A34:  MOVLW  01
01A36:  MOVLB  7
01A38:  MOVWF  xD8
01A3A:  MOVLW  B8
01A3C:  MOVWF  xD9
01A3E:  MOVLB  0
01A40:  RCALL  1898
....................  
....................    if(mode == ON) 
01A42:  MOVLB  7
01A44:  DECFSZ xBB,W
01A46:  BRA    1A64
....................    { 
....................       glcd_writeByte(GLCD_LEFT,  0x3F); // Turn the display on 
01A48:  CLRF   xD8
01A4A:  MOVLW  3F
01A4C:  MOVWF  xD9
01A4E:  MOVLB  0
01A50:  RCALL  1898
....................       glcd_writeByte(GLCD_RIGHT, 0x3F); 
01A52:  MOVLW  01
01A54:  MOVLB  7
01A56:  MOVWF  xD8
01A58:  MOVLW  3F
01A5A:  MOVWF  xD9
01A5C:  MOVLB  0
01A5E:  RCALL  1898
....................    } 
....................    else 
01A60:  BRA    1A7C
01A62:  MOVLB  7
....................    { 
....................       glcd_writeByte(GLCD_LEFT,  0x3E); // Turn the display off 
01A64:  CLRF   xD8
01A66:  MOVLW  3E
01A68:  MOVWF  xD9
01A6A:  MOVLB  0
01A6C:  RCALL  1898
....................       glcd_writeByte(GLCD_RIGHT, 0x3E); 
01A6E:  MOVLW  01
01A70:  MOVLB  7
01A72:  MOVWF  xD8
01A74:  MOVLW  3E
01A76:  MOVWF  xD9
01A78:  MOVLB  0
01A7A:  RCALL  1898
....................    } 
....................  
....................    glcd_fillScreen(OFF);                // Clear the display 
01A7C:  MOVLB  7
01A7E:  CLRF   xBC
01A80:  MOVLB  0
01A82:  RCALL  18CE
....................  
....................    #ifdef FAST_GLCD 
....................    glcd_update(); 
01A84:  RCALL  1928
....................    #endif 
.................... } 
01A86:  RETLW  00
....................  
....................  
.................... // Purpose:    Update the LCD with data from the display arrays 
.................... #ifdef FAST_GLCD 
.................... void glcd_update() 
.................... { 
....................    int8 i, j; 
....................    int8 *p1, *p2; 
....................  
....................    p1 = displayData.left; 
*
01928:  MOVLB  7
0192A:  CLRF   xD4
0192C:  MOVLW  17
0192E:  MOVWF  xD3
....................    p2 = displayData.right; 
01930:  MOVLW  02
01932:  MOVWF  xD6
01934:  MOVLW  17
01936:  MOVWF  xD5
....................  
....................    // Loop through the vertical pages 
....................    for(i = 0; i < 8; ++i) 
01938:  CLRF   xD1
0193A:  MOVF   xD1,W
0193C:  SUBLW  07
0193E:  BNC   19DC
....................    { 
....................       output_low(GLCD_DI);                      // Set for instruction 
01940:  BCF    F93.5
01942:  BCF    F8A.5
....................       glcd_writeByte(GLCD_LEFT, 0x40);          // Set horizontal address to 0 
01944:  CLRF   xD8
01946:  MOVLW  40
01948:  MOVWF  xD9
0194A:  MOVLB  0
0194C:  RCALL  1898
....................       glcd_writeByte(GLCD_RIGHT, 0x40); 
0194E:  MOVLW  01
01950:  MOVLB  7
01952:  MOVWF  xD8
01954:  MOVLW  40
01956:  MOVWF  xD9
01958:  MOVLB  0
0195A:  RCALL  1898
....................       glcd_writeByte(GLCD_LEFT, i | 0xB8);      // Set page address 
0195C:  MOVLB  7
0195E:  MOVF   xD1,W
01960:  IORLW  B8
01962:  MOVWF  xD7
01964:  CLRF   xD8
01966:  MOVWF  xD9
01968:  MOVLB  0
0196A:  RCALL  1898
....................       glcd_writeByte(GLCD_RIGHT, i | 0xB8); 
0196C:  MOVLB  7
0196E:  MOVF   xD1,W
01970:  IORLW  B8
01972:  MOVWF  xD7
01974:  MOVLW  01
01976:  MOVWF  xD8
01978:  MOVFF  7D7,7D9
0197C:  MOVLB  0
0197E:  RCALL  1898
....................       output_high(GLCD_DI);                     // Set for data 
01980:  BCF    F93.5
01982:  BSF    F8A.5
....................  
....................       // Loop through the horizontal sections 
....................       for(j = 0; j < 64; ++j) 
01984:  MOVLB  7
01986:  CLRF   xD2
01988:  MOVF   xD2,W
0198A:  SUBLW  3F
0198C:  BNC   19D8
....................       { 
....................          glcd_writeByte(GLCD_LEFT, *p1++);      // Turn pixels on or off 
0198E:  MOVFF  7D4,03
01992:  MOVF   xD3,W
01994:  INCF   xD3,F
01996:  BTFSC  FD8.2
01998:  INCF   xD4,F
0199A:  MOVWF  FE9
0199C:  MOVFF  03,FEA
019A0:  MOVFF  FEF,7D7
019A4:  CLRF   xD8
019A6:  MOVFF  7D7,7D9
019AA:  MOVLB  0
019AC:  RCALL  1898
....................          glcd_writeByte(GLCD_RIGHT, *p2++);     // Turn pixels on or off 
019AE:  MOVLB  7
019B0:  MOVFF  7D6,03
019B4:  MOVF   xD5,W
019B6:  INCF   xD5,F
019B8:  BTFSC  FD8.2
019BA:  INCF   xD6,F
019BC:  MOVWF  FE9
019BE:  MOVFF  03,FEA
019C2:  MOVFF  FEF,7D7
019C6:  MOVLW  01
019C8:  MOVWF  xD8
019CA:  MOVFF  7D7,7D9
019CE:  MOVLB  0
019D0:  RCALL  1898
....................       } 
019D2:  MOVLB  7
019D4:  INCF   xD2,F
019D6:  BRA    1988
....................    } 
019D8:  INCF   xD1,F
019DA:  BRA    193A
.................... } 
019DC:  MOVLB  0
019DE:  RETLW  00
.................... #endif 
....................  
....................  
.................... // Purpose:    Turn a pixel on a graphic LCD on or off 
.................... // Inputs:     1) x - the x coordinate of the pixel 
.................... //             2) y - the y coordinate of the pixel 
.................... //             3) color - ON or OFF 
.................... void glcd_pixel(int8 x, int8 y, int1 color) 
.................... #ifdef FAST_GLCD 
.................... { 
....................    int8* p; 
....................    int16 temp; 
....................    temp =  y/8; 
*
01A88:  MOVLB  7
01A8A:  CLRF   xF5
01A8C:  RRCF   xF0,W
01A8E:  MOVWF  xF4
01A90:  RRCF   xF4,F
01A92:  RRCF   xF4,F
01A94:  MOVLW  1F
01A96:  ANDWF  xF4,F
....................    temp *= 64; 
01A98:  RLCF   xF4,F
01A9A:  RLCF   xF5,F
01A9C:  RLCF   xF4,F
01A9E:  RLCF   xF5,F
01AA0:  RLCF   xF4,F
01AA2:  RLCF   xF5,F
01AA4:  RLCF   xF4,F
01AA6:  RLCF   xF5,F
01AA8:  RLCF   xF4,F
01AAA:  RLCF   xF5,F
01AAC:  RLCF   xF4,F
01AAE:  RLCF   xF5,F
01AB0:  MOVLW  C0
01AB2:  ANDWF  xF4,F
....................    temp += x; 
01AB4:  MOVF   xEF,W
01AB6:  ADDWF  xF4,F
01AB8:  MOVLW  00
01ABA:  ADDWFC xF5,F
....................  
....................    if(x > 63) 
01ABC:  MOVF   xEF,W
01ABE:  SUBLW  3F
01AC0:  BC    1ADC
....................    { 
....................       p = displayData.right + temp - 64; 
01AC2:  MOVLW  17
01AC4:  ADDWF  xF4,W
01AC6:  MOVWF  xF6
01AC8:  MOVLW  02
01ACA:  ADDWFC xF5,W
01ACC:  MOVWF  xF7
01ACE:  MOVLW  40
01AD0:  SUBWF  xF6,W
01AD2:  MOVWF  xF2
01AD4:  MOVLW  00
01AD6:  SUBWFB xF7,W
01AD8:  MOVWF  xF3
....................    } 
....................    else 
01ADA:  BRA    1AE8
....................    { 
....................       p = displayData.left + temp; 
01ADC:  MOVLW  17
01ADE:  ADDWF  xF4,W
01AE0:  MOVWF  xF2
01AE2:  MOVLW  00
01AE4:  ADDWFC xF5,W
01AE6:  MOVWF  xF3
....................    } 
....................  
....................    if(color) 
01AE8:  MOVF   xF1,F
01AEA:  BZ    1B16
....................    { 
....................       bit_set(*p, y%8); 
01AEC:  MOVFF  7F3,03
01AF0:  MOVFF  7F2,FE9
01AF4:  MOVFF  7F3,FEA
01AF8:  MOVF   xF0,W
01AFA:  ANDLW  07
01AFC:  MOVWF  xF6
01AFE:  MOVLW  01
01B00:  MOVWF  00
01B02:  MOVF   xF6,W
01B04:  MOVWF  01
01B06:  BZ    1B10
01B08:  BCF    FD8.0
01B0A:  RLCF   00,F
01B0C:  DECFSZ 01,F
01B0E:  BRA    1B08
01B10:  MOVF   00,W
01B12:  IORWF  FEF,F
....................    } 
....................    else 
01B14:  BRA    1B40
....................    { 
....................       bit_clear(*p, y%8); 
01B16:  MOVFF  7F3,03
01B1A:  MOVFF  7F2,FE9
01B1E:  MOVFF  7F3,FEA
01B22:  MOVF   xF0,W
01B24:  ANDLW  07
01B26:  MOVWF  xF6
01B28:  MOVLW  01
01B2A:  MOVWF  00
01B2C:  MOVF   xF6,W
01B2E:  MOVWF  01
01B30:  BZ    1B3A
01B32:  BCF    FD8.0
01B34:  RLCF   00,F
01B36:  DECFSZ 01,F
01B38:  BRA    1B32
01B3A:  MOVF   00,W
01B3C:  XORLW  FF
01B3E:  ANDWF  FEF,F
....................    } 
.................... } 
01B40:  MOVLB  0
01B42:  RETLW  00
.................... #else 
.................... { 
....................    BYTE data; 
....................    int1 side = GLCD_LEFT;  // Stores which chip to use on the LCD 
....................  
....................    if(x > 63)              // Check for first or second display area 
....................    { 
....................       x -= 64; 
....................       side = GLCD_RIGHT; 
....................    } 
....................  
....................    output_low(GLCD_DI);                         // Set for instruction 
....................    bit_clear(x,7);                              // Clear the MSB. Part of an instruction code 
....................    bit_set(x,6);                                // Set bit 6. Also part of an instruction code 
....................    glcd_writeByte(side, x);                     // Set the horizontal address 
....................    glcd_writeByte(side, (y/8 & 0xBF) | 0xB8);   // Set the vertical page address 
....................    output_high(GLCD_DI);                        // Set for data 
....................    glcd_readByte(side);                         // Need two reads to get data 
....................    data = glcd_readByte(side);                  //  at new address 
....................  
....................    if(color == ON) 
....................       bit_set(data, y%8);        // Turn the pixel on 
....................    else                          // or 
....................       bit_clear(data, y%8);      // turn the pixel off 
....................  
....................    output_low(GLCD_DI);          // Set for instruction 
....................    glcd_writeByte(side, x);      // Set the horizontal address 
....................    output_high(GLCD_DI);         // Set for data 
....................    glcd_writeByte(side, data);   // Write the pixel data 
.................... } 
.................... #endif 
....................  
....................  
.................... // Purpose:    Fill the LCD screen with the passed in color 
.................... // Inputs:     ON  - turn all the pixels on 
.................... //             OFF - turn all the pixels off 
.................... void glcd_fillScreen(int1 color) 
.................... #ifdef FAST_GLCD 
.................... { 
....................    int8  data; 
....................    int8  *p1, *p2; 
....................    int16 i; 
....................  
....................    p1 = displayData.left; 
*
018CE:  MOVLB  7
018D0:  CLRF   xBF
018D2:  MOVLW  17
018D4:  MOVWF  xBE
....................    p2 = displayData.right; 
018D6:  MOVLW  02
018D8:  MOVWF  xC1
018DA:  MOVLW  17
018DC:  MOVWF  xC0
....................    data = 0xFF * color; 
018DE:  MOVF   xBC,W
018E0:  MULLW  FF
018E2:  MOVFF  FF3,7BD
....................  
....................    for(i=0; i<512; ++i) 
018E6:  CLRF   xC3
018E8:  CLRF   xC2
018EA:  MOVF   xC3,W
018EC:  SUBLW  01
018EE:  BNC   1924
....................    { 
....................       *p1++ = data; 
018F0:  MOVFF  7BF,03
018F4:  MOVF   xBE,W
018F6:  INCF   xBE,F
018F8:  BTFSC  FD8.2
018FA:  INCF   xBF,F
018FC:  MOVWF  FE9
018FE:  MOVFF  03,FEA
01902:  MOVFF  7BD,FEF
....................       *p2++ = data; 
01906:  MOVFF  7C1,03
0190A:  MOVF   xC0,W
0190C:  INCF   xC0,F
0190E:  BTFSC  FD8.2
01910:  INCF   xC1,F
01912:  MOVWF  FE9
01914:  MOVFF  03,FEA
01918:  MOVFF  7BD,FEF
....................    } 
0191C:  INCF   xC2,F
0191E:  BTFSC  FD8.2
01920:  INCF   xC3,F
01922:  BRA    18EA
.................... } 
01924:  MOVLB  0
01926:  RETLW  00
.................... #else 
.................... { 
....................    int8 i, j; 
....................  
....................    // Loop through the vertical pages 
....................    for(i = 0; i < 8; ++i) 
....................    { 
....................       output_low(GLCD_DI);                      // Set for instruction 
....................       glcd_writeByte(GLCD_LEFT, 0b01000000);    // Set horizontal address to 0 
....................       glcd_writeByte(GLCD_RIGHT, 0b01000000); 
....................       glcd_writeByte(GLCD_LEFT, i | 0b10111000);// Set page address 
....................       glcd_writeByte(GLCD_RIGHT, i | 0b10111000); 
....................       output_high(GLCD_DI);                     // Set for data 
....................  
....................       // Loop through the horizontal sections 
....................       for(j = 0; j < 64; ++j) 
....................       { 
....................          glcd_writeByte(GLCD_LEFT, 0xFF*color);  // Turn pixels on or off 
....................          glcd_writeByte(GLCD_RIGHT, 0xFF*color); // Turn pixels on or off 
....................       } 
....................    } 
.................... } 
.................... #endif 
....................  
....................  
.................... // Purpose:    Write a byte of data to the specified chip 
.................... // Inputs:     1) chipSelect - which chip to write the data to 
.................... //             2) data - the byte of data to write 
.................... void glcd_writeByte(int1 side, BYTE data) 
.................... { 
....................    if(side)                   // Choose which side to write to 
*
01898:  MOVLB  7
0189A:  MOVF   xD8,F
0189C:  BZ    18A4
....................       output_high(GLCD_CS2); 
0189E:  BCF    F93.3
018A0:  BSF    F8A.3
....................    else 
018A2:  BRA    18A8
....................       output_high(GLCD_CS1); 
018A4:  BCF    F93.2
018A6:  BSF    F8A.2
....................  
....................    output_low(GLCD_RW);       // Set for writing 
018A8:  BCF    F93.6
018AA:  BCF    F8A.6
....................    output_d(data);            // Put the data on the port 
018AC:  CLRF   F95
018AE:  MOVFF  7D9,F8C
....................    delay_cycles(1); 
018B2:  NOP   
....................    output_high(GLCD_E);       // Pulse the enable pin 
018B4:  BCF    F93.7
018B6:  BSF    F8A.7
....................    delay_cycles(5); 
018B8:  BRA    18BA
018BA:  BRA    18BC
018BC:  NOP   
....................    output_low(GLCD_E); 
018BE:  BCF    F93.7
018C0:  BCF    F8A.7
....................  
....................    output_low(GLCD_CS1);      // Reset the chip select lines 
018C2:  BCF    F93.2
018C4:  BCF    F8A.2
....................    output_low(GLCD_CS2); 
018C6:  BCF    F93.3
018C8:  BCF    F8A.3
.................... } 
018CA:  MOVLB  0
018CC:  RETLW  00
....................  
....................  
.................... // Purpose:    Reads a byte of data from the specified chip 
.................... // Ouputs:     A byte of data read from the chip 
.................... BYTE glcd_readByte(int1 side) 
.................... { 
....................    BYTE data;                 // Stores the data read from the LCD 
....................  
....................    set_tris_d(0xFF);          // Set port d to input 
....................    output_high(GLCD_RW);      // Set for reading 
....................  
....................    if(side)                   // Choose which side to write to 
....................       output_high(GLCD_CS2); 
....................    else 
....................       output_high(GLCD_CS1); 
....................  
....................    delay_cycles(1); 
....................    output_high(GLCD_E);       // Pulse the enable pin 
....................    delay_cycles(4); 
....................    data = input_d();          // Get the data from the display's output register 
....................    output_low(GLCD_E); 
....................  
....................    output_low(GLCD_CS1);      // Reset the chip select lines 
....................    output_low(GLCD_CS2); 
....................    return data;               // Return the read data 
.................... } 
....................  
.................... #endif 
....................  
.................... #include "GRAPHICS.c" 
.................... ///////////////////////////////////////////////////////////////////////// 
.................... ////                          graphics.c                             //// 
.................... ////                                                                 //// 
.................... ////   This file contains functions to draw lines, rectangles, bars, //// 
.................... ////   circles and text to a display. A function which draws a       //// 
.................... ////   single pixel must be defined before calling the functions in  //// 
.................... ////   this file. Call it glcd_pixel(x, y, color) where x is the     //// 
.................... ////   horizontal coordinate, y is the vertical coordinate, and      //// 
.................... ////   color is 1 bit to turn the pixel on or off.                   //// 
.................... ////                                                                 //// 
.................... ////   * Note: (0, 0) is treated as the upper left corner            //// 
.................... ////                                                                 //// 
.................... ///////////////////////////////////////////////////////////////////////// 
.................... ////                                                                 //// 
.................... ////  glcd_line(x1, y1, x2, y2, color)                               //// 
.................... ////     * Draws a line from the first point to the second point     //// 
.................... ////       with the given color                                      //// 
.................... ////       - color can be ON or OFF                                  //// 
.................... ////                                                                 //// 
.................... ////  glcd_rect(x1, y1, x2, y2, fill, color)                         //// 
.................... ////     * Draws a rectangle with one corner at point (x1,y1) and    //// 
.................... ////       the other corner at point (x2,y2)                         //// 
.................... ////       - fill can be YES or NO                                   //// 
.................... ////       - color can be ON or OFF                                  //// 
.................... ////                                                                 //// 
.................... ////  glcd_bar(x1, y1, x2, y2, width, color)                         //// 
.................... ////     * Draws a bar (wide line) from the first point to the       //// 
.................... ////       second point                                              //// 
.................... ////       - width is the number of pixels wide                      //// 
.................... ////       - color is ON or OFF                                      //// 
.................... ////                                                                 //// 
.................... ////  glcd_circle(x, y, radius, fill, color)                         //// 
.................... ////     * Draws a circle with center at (x,y)                       //// 
.................... ////       - fill can be YES or NO                                   //// 
.................... ////       - color can be ON or OFF                                  //// 
.................... ////                                                                 //// 
.................... ////  glcd_text57(x, y, textptr, size, color)                        //// 
.................... ////     * Write the null terminated text pointed to by textptr with //// 
.................... ////       the upper left coordinate of the first character at (x,y) //// 
.................... ////       Characters are 5 pixels wide and 7 pixels tall            //// 
.................... ////       - size is an integer that scales the size of the text     //// 
.................... ////       - color is ON or OFF                                      //// 
.................... ////     * Note - This function wraps characters to the next line    //// 
.................... ////              use #define GLCD_WIDTH to specify a display width  //// 
.................... ////                                                                 //// 
.................... ///////////////////////////////////////////////////////////////////////// 
.................... ////        (C) Copyright 1996, 2004 Custom Computer Services        //// 
.................... //// This source code may only be used by licensed users of the CCS  //// 
.................... //// C compiler.  This source code may only be distributed to other  //// 
.................... //// licensed users of the CCS C compiler.  No other use,            //// 
.................... //// reproduction or distribution is permitted without written       //// 
.................... //// permission.  Derivative programs created using this software    //// 
.................... //// in object code form are not restricted in any way.              //// 
.................... ///////////////////////////////////////////////////////////////////////// 
....................  
....................  
.................... ///////////////////////////////////////////////////////////////////////// 
.................... #ifndef GRAPHICS_DRAWING_FUNCTIONS 
.................... #define GRAPHICS_DRAWING_FUNCTIONS 
.................... ///////////////////////////////////////////////////////////////////////// 
....................  
....................  
.................... ///////////////////////////////////////////////////////////////////////// 
.................... #ifndef ON 
.................... #define ON  1 
.................... #endif 
....................  
.................... #ifndef OFF 
.................... #define OFF 0 
.................... #endif 
....................  
.................... #ifndef YES 
.................... #define YES 1 
.................... #endif 
....................  
.................... #ifndef NO 
.................... #define NO  0 
.................... #endif 
.................... ///////////////////////////////////////////////////////////////////////// 
....................  
....................  
.................... ///////////////////////////////////////////////////////////////////////// 
.................... //// Defines a 5x7 font 
.................... ///////////////////////////////////////////////////////////////////////// 
.................... const int8 FONT[51][5] ={0x00, 0x00, 0x00, 0x00, 0x00, // SPACE 
....................                          0x00, 0x00, 0x5F, 0x00, 0x00, // ! 
....................                          0x00, 0x03, 0x00, 0x03, 0x00, // " 
....................                          0x14, 0x3E, 0x14, 0x3E, 0x14, // # 
....................                          0x24, 0x2A, 0x7F, 0x2A, 0x12, // $ 
....................                          0x43, 0x33, 0x08, 0x66, 0x61, // % 
....................                          0x36, 0x49, 0x55, 0x22, 0x50, // & 
....................                          0x00, 0x05, 0x03, 0x00, 0x00, // ' 
....................                          0x00, 0x1C, 0x22, 0x41, 0x00, // ( 
....................                          0x00, 0x41, 0x22, 0x1C, 0x00, // ) 
....................                          0x14, 0x08, 0x3E, 0x08, 0x14, // * 
....................                          0x08, 0x08, 0x3E, 0x08, 0x08, // + 
....................                          0x00, 0x50, 0x30, 0x00, 0x00, // , 
....................                          0x08, 0x08, 0x08, 0x08, 0x08, // - 
....................                          0x00, 0x60, 0x60, 0x00, 0x00, // . 
....................                          0x20, 0x10, 0x08, 0x04, 0x02, // / 
....................                          0x3E, 0x51, 0x49, 0x45, 0x3E, // 0 
....................                          0x00, 0x04, 0x02, 0x7F, 0x00, // 1 
....................                          0x42, 0x61, 0x51, 0x49, 0x46, // 2 
....................                          0x22, 0x41, 0x49, 0x49, 0x36, // 3 
....................                          0x18, 0x14, 0x12, 0x7F, 0x10, // 4 
....................                          0x27, 0x45, 0x45, 0x45, 0x39, // 5 
....................                          0x3E, 0x49, 0x49, 0x49, 0x32, // 6 
....................                          0x01, 0x01, 0x71, 0x09, 0x07, // 7 
....................                          0x36, 0x49, 0x49, 0x49, 0x36, // 8 
....................                          0x26, 0x49, 0x49, 0x49, 0x3E, // 9 
....................                          0x00, 0x36, 0x36, 0x00, 0x00, // : 
....................                          0x00, 0x56, 0x36, 0x00, 0x00, // ; 
....................                          0x08, 0x14, 0x22, 0x41, 0x00, // < 
....................                          0x14, 0x14, 0x14, 0x14, 0x14, // = 
....................                          0x00, 0x41, 0x22, 0x14, 0x08, // > 
....................                          0x02, 0x01, 0x51, 0x09, 0x06, // ? 
....................                          0x3E, 0x41, 0x59, 0x55, 0x5E, // @ 
....................                          0x7E, 0x09, 0x09, 0x09, 0x7E, // A 
....................                          0x7F, 0x49, 0x49, 0x49, 0x36, // B 
....................                          0x3E, 0x41, 0x41, 0x41, 0x22, // C 
....................                          0x7F, 0x41, 0x41, 0x41, 0x3E, // D 
....................                          0x7F, 0x49, 0x49, 0x49, 0x41, // E 
....................                          0x7F, 0x09, 0x09, 0x09, 0x01, // F 
....................                          0x3E, 0x41, 0x41, 0x49, 0x3A, // G 
....................                          0x7F, 0x08, 0x08, 0x08, 0x7F, // H 
....................                          0x00, 0x41, 0x7F, 0x41, 0x00, // I 
....................                          0x30, 0x40, 0x40, 0x40, 0x3F, // J 
....................                          0x7F, 0x08, 0x14, 0x22, 0x41, // K 
....................                          0x7F, 0x40, 0x40, 0x40, 0x40, // L 
....................                          0x7F, 0x02, 0x0C, 0x02, 0x7F, // M 
....................                          0x7F, 0x02, 0x04, 0x08, 0x7F, // N 
....................                          0x3E, 0x41, 0x41, 0x41, 0x3E, // O 
....................                          0x7F, 0x09, 0x09, 0x09, 0x06, // P 
....................                          0x1E, 0x21, 0x21, 0x21, 0x5E, // Q 
....................                          0x7F, 0x09, 0x09, 0x09, 0x76};// R 
....................  
.................... const int8 FONT2[44][5]={0x26, 0x49, 0x49, 0x49, 0x32, // S 
....................                          0x01, 0x01, 0x7F, 0x01, 0x01, // T 
....................                          0x3F, 0x40, 0x40, 0x40, 0x3F, // U 
....................                          0x1F, 0x20, 0x40, 0x20, 0x1F, // V 
....................                          0x7F, 0x20, 0x10, 0x20, 0x7F, // W 
....................                          0x41, 0x22, 0x1C, 0x22, 0x41, // X 
....................                          0x07, 0x08, 0x70, 0x08, 0x07, // Y 
....................                          0x61, 0x51, 0x49, 0x45, 0x43, // Z 
....................                          0x00, 0x7F, 0x41, 0x00, 0x00, // [ 
....................                          0x02, 0x04, 0x08, 0x10, 0x20, // \ 
....................                          0x00, 0x00, 0x41, 0x7F, 0x00, // ] 
....................                          0x04, 0x02, 0x01, 0x02, 0x04, // ^ 
....................                          0x40, 0x40, 0x40, 0x40, 0x40, // _ 
....................                          0x00, 0x01, 0x02, 0x04, 0x00, // ` 
....................                          0x20, 0x54, 0x54, 0x54, 0x78, // a 
....................                          0x7F, 0x44, 0x44, 0x44, 0x38, // b 
....................                          0x38, 0x44, 0x44, 0x44, 0x44, // c 
....................                          0x38, 0x44, 0x44, 0x44, 0x7F, // d 
....................                          0x38, 0x54, 0x54, 0x54, 0x18, // e 
....................                          0x04, 0x04, 0x7E, 0x05, 0x05, // f 
....................                          0x08, 0x54, 0x54, 0x54, 0x3C, // g 
....................                          0x7F, 0x08, 0x04, 0x04, 0x78, // h 
....................                          0x00, 0x44, 0x7D, 0x40, 0x00, // i 
....................                          0x20, 0x40, 0x44, 0x3D, 0x00, // j 
....................                          0x7F, 0x10, 0x28, 0x44, 0x00, // k 
....................                          0x00, 0x41, 0x7F, 0x40, 0x00, // l 
....................                          0x7C, 0x04, 0x78, 0x04, 0x78, // m 
....................                          0x7C, 0x08, 0x04, 0x04, 0x78, // n 
....................                          0x38, 0x44, 0x44, 0x44, 0x38, // o 
....................                          0x7C, 0x14, 0x14, 0x14, 0x08, // p 
....................                          0x08, 0x14, 0x14, 0x14, 0x7C, // q 
....................                          0x00, 0x7C, 0x08, 0x04, 0x04, // r 
....................                          0x48, 0x54, 0x54, 0x54, 0x20, // s 
....................                          0x04, 0x04, 0x3F, 0x44, 0x44, // t 
....................                          0x3C, 0x40, 0x40, 0x20, 0x7C, // u 
....................                          0x1C, 0x20, 0x40, 0x20, 0x1C, // v 
....................                          0x3C, 0x40, 0x30, 0x40, 0x3C, // w 
....................                          0x44, 0x28, 0x10, 0x28, 0x44, // x 
....................                          0x0C, 0x50, 0x50, 0x50, 0x3C, // y 
....................                          0x44, 0x64, 0x54, 0x4C, 0x44, // z 
....................                          0x00, 0x08, 0x36, 0x41, 0x41, // { 
....................                          0x00, 0x00, 0x7F, 0x00, 0x00, // | 
....................                          0x41, 0x41, 0x36, 0x08, 0x00, // } 
....................                          0x02, 0x01, 0x02, 0x04, 0x02};// ~ 
.................... ///////////////////////////////////////////////////////////////////////// 
....................  
....................  
.................... ///////////////////////////////////////////////////////////////////////// 
.................... // Purpose:       Draw a line on a graphic LCD using Bresenham's 
.................... //                line drawing algorithm 
.................... // Inputs:        (x1, y1) - the start coordinate 
.................... //                (x2, y2) - the end coordinate 
.................... //                color - ON or OFF 
.................... // Dependencies:  glcd_pixel() 
.................... ///////////////////////////////////////////////////////////////////////// 
.................... #ifdef LARGE_LCD 
.................... void glcd_line(int16 x1, int16 y1, int16 x2, int16 y2, int1 color) 
.................... #else 
.................... void glcd_line(int8 x1, int8 y1, int8 x2, int8 y2, int1 color) 
.................... #endif 
.................... { 
*
01CFC:  MOVLW  01
01CFE:  MOVLB  7
01D00:  MOVWF  xE8
01D02:  MOVWF  xE9
01D04:  CLRF   xEE
....................    int16        dy, dx; 
....................    signed int8  addx=1, addy=1; 
....................    signed int16 P, diff; 
....................  
....................    #ifdef LARGE_LCD 
....................    int16 i=0; 
....................    dx = abs((signed int16)(x2 - x1)); 
....................    dy = abs((signed int16)(y2 - y1)); 
....................    #else 
....................    int8 i=0; 
....................    dx = abs((signed int8)(x2 - x1)); 
01D06:  MOVF   xDF,W
01D08:  SUBWF  xE1,W
01D0A:  MOVWF  xEF
01D0C:  MOVF   xEF,W
01D0E:  BTFSS  xEF.7
01D10:  BRA    1D18
01D12:  MOVLW  00
01D14:  BSF    FD8.0
01D16:  SUBFWB xEF,W
01D18:  CLRF   03
01D1A:  MOVWF  xE6
01D1C:  MOVFF  03,7E7
....................    dy = abs((signed int8)(y2 - y1)); 
01D20:  MOVF   xE0,W
01D22:  SUBWF  xE2,W
01D24:  MOVWF  xEF
01D26:  MOVF   xEF,W
01D28:  BTFSS  xEF.7
01D2A:  BRA    1D32
01D2C:  MOVLW  00
01D2E:  BSF    FD8.0
01D30:  SUBFWB xEF,W
01D32:  CLRF   03
01D34:  MOVWF  xE4
01D36:  MOVFF  03,7E5
....................    #endif 
....................  
....................    if(x1 > x2) 
01D3A:  MOVF   xDF,W
01D3C:  SUBWF  xE1,W
01D3E:  BC    1D44
....................       addx = -1; 
01D40:  MOVLW  FF
01D42:  MOVWF  xE8
....................    if(y1 > y2) 
01D44:  MOVF   xE0,W
01D46:  SUBWF  xE2,W
01D48:  BC    1D4E
....................       addy = -1; 
01D4A:  MOVLW  FF
01D4C:  MOVWF  xE9
....................  
....................    if(dx >= dy) 
01D4E:  MOVF   xE5,W
01D50:  SUBWF  xE7,W
01D52:  BNC   1DCA
01D54:  BNZ   1D5C
01D56:  MOVF   xE4,W
01D58:  SUBWF  xE6,W
01D5A:  BNC   1DCA
....................    { 
....................       dy *= 2; 
01D5C:  BCF    FD8.0
01D5E:  RLCF   xE4,F
01D60:  RLCF   xE5,F
....................       P = dy - dx; 
01D62:  MOVF   xE6,W
01D64:  SUBWF  xE4,W
01D66:  MOVWF  00
01D68:  MOVF   xE7,W
01D6A:  SUBWFB xE5,W
01D6C:  MOVFF  00,7EA
01D70:  MOVWF  xEB
....................       diff = P - dx; 
01D72:  MOVF   xE6,W
01D74:  SUBWF  xEA,W
01D76:  MOVWF  xEC
01D78:  MOVF   xE7,W
01D7A:  SUBWFB xEB,W
01D7C:  MOVWF  xED
....................  
....................       for(; i<=dx; ++i) 
01D7E:  MOVF   xE7,F
01D80:  BNZ   1D88
01D82:  MOVF   xEE,W
01D84:  SUBWF  xE6,W
01D86:  BNC   1DC8
....................       { 
....................          glcd_pixel(x1, y1, color); 
01D88:  MOVFF  7DF,7EF
01D8C:  MOVFF  7E0,7F0
01D90:  MOVFF  7E3,7F1
01D94:  MOVLB  0
01D96:  RCALL  1A88
....................  
....................          if(P < 0) 
01D98:  MOVLB  7
01D9A:  BTFSC  xEB.7
01D9C:  BRA    1DA0
01D9E:  BRA    1DB0
....................          { 
....................             P  += dy; 
01DA0:  MOVF   xE4,W
01DA2:  ADDWF  xEA,F
01DA4:  MOVF   xE5,W
01DA6:  ADDWFC xEB,F
....................             x1 += addx; 
01DA8:  MOVF   xE8,W
01DAA:  ADDWF  xDF,W
01DAC:  MOVWF  xDF
....................          } 
....................          else 
01DAE:  BRA    1DC4
....................          { 
....................             P  += diff; 
01DB0:  MOVF   xEC,W
01DB2:  ADDWF  xEA,F
01DB4:  MOVF   xED,W
01DB6:  ADDWFC xEB,F
....................             x1 += addx; 
01DB8:  MOVF   xE8,W
01DBA:  ADDWF  xDF,W
01DBC:  MOVWF  xDF
....................             y1 += addy; 
01DBE:  MOVF   xE9,W
01DC0:  ADDWF  xE0,W
01DC2:  MOVWF  xE0
....................          } 
....................       } 
01DC4:  INCF   xEE,F
01DC6:  BRA    1D7E
....................    } 
....................    else 
01DC8:  BRA    1E36
....................    { 
....................       dx *= 2; 
01DCA:  BCF    FD8.0
01DCC:  RLCF   xE6,F
01DCE:  RLCF   xE7,F
....................       P = dx - dy; 
01DD0:  MOVF   xE4,W
01DD2:  SUBWF  xE6,W
01DD4:  MOVWF  00
01DD6:  MOVF   xE5,W
01DD8:  SUBWFB xE7,W
01DDA:  MOVFF  00,7EA
01DDE:  MOVWF  xEB
....................       diff = P - dy; 
01DE0:  MOVF   xE4,W
01DE2:  SUBWF  xEA,W
01DE4:  MOVWF  xEC
01DE6:  MOVF   xE5,W
01DE8:  SUBWFB xEB,W
01DEA:  MOVWF  xED
....................  
....................       for(; i<=dy; ++i) 
01DEC:  MOVF   xE5,F
01DEE:  BNZ   1DF6
01DF0:  MOVF   xEE,W
01DF2:  SUBWF  xE4,W
01DF4:  BNC   1E36
....................       { 
....................          glcd_pixel(x1, y1, color); 
01DF6:  MOVFF  7DF,7EF
01DFA:  MOVFF  7E0,7F0
01DFE:  MOVFF  7E3,7F1
01E02:  MOVLB  0
01E04:  RCALL  1A88
....................  
....................          if(P < 0) 
01E06:  MOVLB  7
01E08:  BTFSC  xEB.7
01E0A:  BRA    1E0E
01E0C:  BRA    1E1E
....................          { 
....................             P  += dx; 
01E0E:  MOVF   xE6,W
01E10:  ADDWF  xEA,F
01E12:  MOVF   xE7,W
01E14:  ADDWFC xEB,F
....................             y1 += addy; 
01E16:  MOVF   xE9,W
01E18:  ADDWF  xE0,W
01E1A:  MOVWF  xE0
....................          } 
....................          else 
01E1C:  BRA    1E32
....................          { 
....................             P  += diff; 
01E1E:  MOVF   xEC,W
01E20:  ADDWF  xEA,F
01E22:  MOVF   xED,W
01E24:  ADDWFC xEB,F
....................             x1 += addx; 
01E26:  MOVF   xE8,W
01E28:  ADDWF  xDF,W
01E2A:  MOVWF  xDF
....................             y1 += addy; 
01E2C:  MOVF   xE9,W
01E2E:  ADDWF  xE0,W
01E30:  MOVWF  xE0
....................          } 
....................       } 
01E32:  INCF   xEE,F
01E34:  BRA    1DEC
....................    } 
.................... } 
01E36:  MOVLB  0
01E38:  RETLW  00
....................  
....................  
.................... ///////////////////////////////////////////////////////////////////////// 
.................... // Purpose:       Draw a rectangle on a graphic LCD 
.................... // Inputs:        (x1, y1) - the start coordinate 
.................... //                (x2, y2) - the end coordinate 
.................... //                fill  - YES or NO 
.................... //                color - ON or OFF 
.................... // Dependencies:  glcd_pixel(), glcd_line() 
.................... ///////////////////////////////////////////////////////////////////////// 
.................... #ifdef LARGE_LCD 
.................... void glcd_rect(int16 x1, int16 y1, int16 x2, int16 y2, int1 fill, int1 color) 
.................... #else 
.................... void glcd_rect(int8 x1, int8 y1, int8 x2, int8 y2, int1 fill, int1 color) 
.................... #endif 
.................... { 
....................    if(fill) 
01E3A:  MOVLB  7
01E3C:  MOVF   xD7,F
01E3E:  BZ    1E9C
....................    { 
....................       #ifdef LARGE_LCD 
....................       int16 i, xmin, xmax, ymin, ymax; 
....................       #else 
....................       int8  i, xmin, xmax, ymin, ymax; 
....................       #endif 
....................  
....................       if(x1 < x2)                            //  Find x min and max 
01E40:  MOVF   xD5,W
01E42:  SUBWF  xD3,W
01E44:  BC    1E50
....................       { 
....................          xmin = x1; 
01E46:  MOVFF  7D3,7DA
....................          xmax = x2; 
01E4A:  MOVFF  7D5,7DB
....................       } 
....................       else 
01E4E:  BRA    1E58
....................       { 
....................          xmin = x2; 
01E50:  MOVFF  7D5,7DA
....................          xmax = x1; 
01E54:  MOVFF  7D3,7DB
....................       } 
....................  
....................       if(y1 < y2)                            // Find the y min and max 
01E58:  MOVF   xD6,W
01E5A:  SUBWF  xD4,W
01E5C:  BC    1E68
....................       { 
....................          ymin = y1; 
01E5E:  MOVFF  7D4,7DC
....................          ymax = y2; 
01E62:  MOVFF  7D6,7DD
....................       } 
....................       else 
01E66:  BRA    1E70
....................       { 
....................          ymin = y2; 
01E68:  MOVFF  7D6,7DC
....................          ymax = y1; 
01E6C:  MOVFF  7D4,7DD
....................       } 
....................  
....................       for(; xmin <= xmax; ++xmin) 
01E70:  MOVF   xDA,W
01E72:  SUBWF  xDB,W
01E74:  BNC   1E9A
....................       { 
....................          for(i=ymin; i<=ymax; ++i) 
01E76:  MOVFF  7DC,7D9
01E7A:  MOVF   xD9,W
01E7C:  SUBWF  xDD,W
01E7E:  BNC   1E96
....................          { 
....................             glcd_pixel(xmin, i, color); 
01E80:  MOVFF  7DA,7EF
01E84:  MOVFF  7D9,7F0
01E88:  MOVFF  7D8,7F1
01E8C:  MOVLB  0
01E8E:  RCALL  1A88
....................          } 
01E90:  MOVLB  7
01E92:  INCF   xD9,F
01E94:  BRA    1E7A
....................       } 
01E96:  INCF   xDA,F
01E98:  BRA    1E70
....................    } 
....................    else 
01E9A:  BRA    1EF8
....................    { 
....................       glcd_line(x1, y1, x2, y1, color);      // Draw the 4 sides 
01E9C:  MOVFF  7D3,7DF
01EA0:  MOVFF  7D4,7E0
01EA4:  MOVFF  7D5,7E1
01EA8:  MOVFF  7D4,7E2
01EAC:  MOVFF  7D8,7E3
01EB0:  MOVLB  0
01EB2:  RCALL  1CFC
....................       glcd_line(x1, y2, x2, y2, color); 
01EB4:  MOVFF  7D3,7DF
01EB8:  MOVFF  7D6,7E0
01EBC:  MOVFF  7D5,7E1
01EC0:  MOVFF  7D6,7E2
01EC4:  MOVFF  7D8,7E3
01EC8:  RCALL  1CFC
....................       glcd_line(x1, y1, x1, y2, color); 
01ECA:  MOVFF  7D3,7DF
01ECE:  MOVFF  7D4,7E0
01ED2:  MOVFF  7D3,7E1
01ED6:  MOVFF  7D6,7E2
01EDA:  MOVFF  7D8,7E3
01EDE:  RCALL  1CFC
....................       glcd_line(x2, y1, x2, y2, color); 
01EE0:  MOVFF  7D5,7DF
01EE4:  MOVFF  7D4,7E0
01EE8:  MOVFF  7D5,7E1
01EEC:  MOVFF  7D6,7E2
01EF0:  MOVFF  7D8,7E3
01EF4:  RCALL  1CFC
01EF6:  MOVLB  7
....................    } 
.................... } 
01EF8:  MOVLB  0
01EFA:  RETLW  00
....................  
.................... ///////////////////////////////////////////////////////////////////////// 
.................... // Purpose:       Draw a bar (wide line) on a graphic LCD 
.................... // Inputs:        (x1, y1) - the start coordinate 
.................... //                (x2, y2) - the end coordinate 
.................... //                width  - The number of pixels wide 
.................... //                color - ON or OFF 
.................... ///////////////////////////////////////////////////////////////////////// 
.................... #ifdef LARGE_LCD 
.................... void glcd_bar(int16 x1, int16 y1, int16 x2, int16 y2, int8 width, int1 color) 
.................... #else 
.................... void glcd_bar(int8 x1, int8 y1, int8 x2, int8 y2, int8 width, int1 color) 
.................... #endif 
.................... { 
....................    int8         half_width; 
....................    signed int16 dy, dx; 
....................    signed int8  addx=1, addy=1, j; 
....................    signed int16 P, diff, c1, c2; 
....................  
....................    #ifdef LARGE_LCD 
....................    int16 i=0; 
....................    dx = abs((signed int16)(x2 - x1)); 
....................    dy = abs((signed int16)(y2 - y1)); 
....................    #else 
....................    int8 i=0; 
....................    dx = abs((signed int8)(x2 - x1)); 
....................    dy = abs((signed int8)(y2 - y1)); 
....................    #endif 
....................  
....................    half_width = width/2; 
....................    c1 = -(dx*x1 + dy*y1); 
....................    c2 = -(dx*x2 + dy*y2); 
....................  
....................    if(x1 > x2) 
....................    { 
....................       signed int16 temp; 
....................       temp = c1; 
....................       c1 = c2; 
....................       c2 = temp; 
....................       addx = -1; 
....................    } 
....................    if(y1 > y2) 
....................    { 
....................       signed int16 temp; 
....................       temp = c1; 
....................       c1 = c2; 
....................       c2 = temp; 
....................       addy = -1; 
....................    } 
....................  
....................    if(dx >= dy) 
....................    { 
....................       P = 2*dy - dx; 
....................       diff = P - dx; 
....................  
....................       for(i=0; i<=dx; ++i) 
....................       { 
....................          for(j=-half_width; j<half_width+width%2; ++j) 
....................          { 
....................             #ifdef LARGE_LCD 
....................             int16 temp; 
....................             #else 
....................             int8 temp; 
....................             #endif 
....................  
....................             temp = dx*x1+dy*(y1+j);    // Use more RAM to increase speed 
....................             if(temp+c1 >= 0 && temp+c2 <=0) 
....................                glcd_pixel(x1, y1+j, color); 
....................          } 
....................          if(P < 0) 
....................          { 
....................             P  += 2*dy; 
....................             x1 += addx; 
....................          } 
....................          else 
....................          { 
....................             P  += diff; 
....................             x1 += addx; 
....................             y1 += addy; 
....................          } 
....................       } 
....................    } 
....................    else 
....................    { 
....................       P = 2*dx - dy; 
....................       diff = P - dy; 
....................  
....................       for(i=0; i<=dy; ++i) 
....................       { 
....................          if(P < 0) 
....................          { 
....................             P  += 2*dx; 
....................             y1 += addy; 
....................          } 
....................          else 
....................          { 
....................             P  += diff; 
....................             x1 += addx; 
....................             y1 += addy; 
....................          } 
....................          for(j=-half_width; j<half_width+width%2; ++j) 
....................          { 
....................             #ifdef LARGE_LCD 
....................             int16 temp; 
....................             #else 
....................             int8 temp; 
....................             #endif 
....................  
....................             temp = dx*x1+dy*(y1+j);    // Use more RAM to increase speed 
....................             if(temp+c1 >= 0 && temp+c2 <=0) 
....................                glcd_pixel(x1+j, y1, color); 
....................          } 
....................       } 
....................    } 
.................... } 
....................  
....................  
.................... ///////////////////////////////////////////////////////////////////////// 
.................... // Purpose:       Draw a circle on a graphic LCD 
.................... // Inputs:        (x,y) - the center of the circle 
.................... //                radius - the radius of the circle 
.................... //                fill - YES or NO 
.................... //                color - ON or OFF 
.................... ///////////////////////////////////////////////////////////////////////// 
.................... #ifdef LARGE_LCD 
.................... void glcd_circle(int16 x, int16 y, int16 radius, int1 fill, int1 color) 
.................... #else 
.................... void glcd_circle(int8 x, int8 y, int8 radius, int1 fill, int1 color) 
.................... #endif 
.................... { 
....................    #ifdef LARGE_LCD 
....................    signed int16 a, b, P; 
....................    #else 
....................    signed int8  a, b, P; 
....................    #endif 
....................  
....................    a = 0; 
*
052E4:  MOVLB  7
052E6:  CLRF   xD8
....................    b = radius; 
052E8:  MOVFF  7D5,7D9
....................    P = 1 - radius; 
052EC:  MOVLW  01
052EE:  BSF    FD8.0
052F0:  SUBFWB xD5,W
052F2:  MOVWF  xDA
....................  
....................    do 
....................    { 
....................       if(fill) 
052F4:  MOVF   xD6,F
052F6:  BZ    53C2
....................       { 
....................          glcd_line(x-a, y+b, x+a, y+b, color); 
052F8:  MOVF   xD8,W
052FA:  SUBWF  xD3,W
052FC:  MOVWF  xDB
052FE:  MOVF   xD9,W
05300:  ADDWF  xD4,W
05302:  MOVWF  xDC
05304:  MOVF   xD8,W
05306:  ADDWF  xD3,W
05308:  MOVWF  xDD
0530A:  MOVF   xD9,W
0530C:  ADDWF  xD4,W
0530E:  MOVWF  xDE
05310:  MOVFF  7DB,7DF
05314:  MOVFF  7DC,7E0
05318:  MOVFF  7DD,7E1
0531C:  MOVWF  xE2
0531E:  MOVFF  7D7,7E3
05322:  MOVLB  0
05324:  CALL   1CFC
....................          glcd_line(x-a, y-b, x+a, y-b, color); 
05328:  MOVLB  7
0532A:  MOVF   xD8,W
0532C:  SUBWF  xD3,W
0532E:  MOVWF  xDB
05330:  MOVF   xD9,W
05332:  SUBWF  xD4,W
05334:  MOVWF  xDC
05336:  MOVF   xD8,W
05338:  ADDWF  xD3,W
0533A:  MOVWF  xDD
0533C:  MOVF   xD9,W
0533E:  SUBWF  xD4,W
05340:  MOVWF  xDE
05342:  MOVFF  7DB,7DF
05346:  MOVFF  7DC,7E0
0534A:  MOVFF  7DD,7E1
0534E:  MOVWF  xE2
05350:  MOVFF  7D7,7E3
05354:  MOVLB  0
05356:  CALL   1CFC
....................          glcd_line(x-b, y+a, x+b, y+a, color); 
0535A:  MOVLB  7
0535C:  MOVF   xD9,W
0535E:  SUBWF  xD3,W
05360:  MOVWF  xDB
05362:  MOVF   xD8,W
05364:  ADDWF  xD4,W
05366:  MOVWF  xDC
05368:  MOVF   xD9,W
0536A:  ADDWF  xD3,W
0536C:  MOVWF  xDD
0536E:  MOVF   xD8,W
05370:  ADDWF  xD4,W
05372:  MOVWF  xDE
05374:  MOVFF  7DB,7DF
05378:  MOVFF  7DC,7E0
0537C:  MOVFF  7DD,7E1
05380:  MOVWF  xE2
05382:  MOVFF  7D7,7E3
05386:  MOVLB  0
05388:  CALL   1CFC
....................          glcd_line(x-b, y-a, x+b, y-a, color); 
0538C:  MOVLB  7
0538E:  MOVF   xD9,W
05390:  SUBWF  xD3,W
05392:  MOVWF  xDB
05394:  MOVF   xD8,W
05396:  SUBWF  xD4,W
05398:  MOVWF  xDC
0539A:  MOVF   xD9,W
0539C:  ADDWF  xD3,W
0539E:  MOVWF  xDD
053A0:  MOVF   xD8,W
053A2:  SUBWF  xD4,W
053A4:  MOVWF  xDE
053A6:  MOVFF  7DB,7DF
053AA:  MOVFF  7DC,7E0
053AE:  MOVFF  7DD,7E1
053B2:  MOVWF  xE2
053B4:  MOVFF  7D7,7E3
053B8:  MOVLB  0
053BA:  CALL   1CFC
....................       } 
....................       else 
053BE:  BRA    54B0
053C0:  MOVLB  7
....................       { 
....................          glcd_pixel(a+x, b+y, color); 
053C2:  MOVF   xD3,W
053C4:  ADDWF  xD8,W
053C6:  MOVWF  xDB
053C8:  MOVF   xD4,W
053CA:  ADDWF  xD9,W
053CC:  MOVWF  xDC
053CE:  MOVFF  7DB,7EF
053D2:  MOVWF  xF0
053D4:  MOVFF  7D7,7F1
053D8:  MOVLB  0
053DA:  CALL   1A88
....................          glcd_pixel(b+x, a+y, color); 
053DE:  MOVLB  7
053E0:  MOVF   xD3,W
053E2:  ADDWF  xD9,W
053E4:  MOVWF  xDB
053E6:  MOVF   xD4,W
053E8:  ADDWF  xD8,W
053EA:  MOVWF  xDC
053EC:  MOVFF  7DB,7EF
053F0:  MOVWF  xF0
053F2:  MOVFF  7D7,7F1
053F6:  MOVLB  0
053F8:  CALL   1A88
....................          glcd_pixel(x-a, b+y, color); 
053FC:  MOVLB  7
053FE:  MOVF   xD8,W
05400:  SUBWF  xD3,W
05402:  MOVWF  xDB
05404:  MOVF   xD4,W
05406:  ADDWF  xD9,W
05408:  MOVWF  xDC
0540A:  MOVFF  7DB,7EF
0540E:  MOVWF  xF0
05410:  MOVFF  7D7,7F1
05414:  MOVLB  0
05416:  CALL   1A88
....................          glcd_pixel(x-b, a+y, color); 
0541A:  MOVLB  7
0541C:  MOVF   xD9,W
0541E:  SUBWF  xD3,W
05420:  MOVWF  xDB
05422:  MOVF   xD4,W
05424:  ADDWF  xD8,W
05426:  MOVWF  xDC
05428:  MOVFF  7DB,7EF
0542C:  MOVWF  xF0
0542E:  MOVFF  7D7,7F1
05432:  MOVLB  0
05434:  CALL   1A88
....................          glcd_pixel(b+x, y-a, color); 
05438:  MOVLB  7
0543A:  MOVF   xD3,W
0543C:  ADDWF  xD9,W
0543E:  MOVWF  xDB
05440:  MOVF   xD8,W
05442:  SUBWF  xD4,W
05444:  MOVWF  xDC
05446:  MOVFF  7DB,7EF
0544A:  MOVWF  xF0
0544C:  MOVFF  7D7,7F1
05450:  MOVLB  0
05452:  CALL   1A88
....................          glcd_pixel(a+x, y-b, color); 
05456:  MOVLB  7
05458:  MOVF   xD3,W
0545A:  ADDWF  xD8,W
0545C:  MOVWF  xDB
0545E:  MOVF   xD9,W
05460:  SUBWF  xD4,W
05462:  MOVWF  xDC
05464:  MOVFF  7DB,7EF
05468:  MOVWF  xF0
0546A:  MOVFF  7D7,7F1
0546E:  MOVLB  0
05470:  CALL   1A88
....................          glcd_pixel(x-a, y-b, color); 
05474:  MOVLB  7
05476:  MOVF   xD8,W
05478:  SUBWF  xD3,W
0547A:  MOVWF  xDB
0547C:  MOVF   xD9,W
0547E:  SUBWF  xD4,W
05480:  MOVWF  xDC
05482:  MOVFF  7DB,7EF
05486:  MOVWF  xF0
05488:  MOVFF  7D7,7F1
0548C:  MOVLB  0
0548E:  CALL   1A88
....................          glcd_pixel(x-b, y-a, color); 
05492:  MOVLB  7
05494:  MOVF   xD9,W
05496:  SUBWF  xD3,W
05498:  MOVWF  xDB
0549A:  MOVF   xD8,W
0549C:  SUBWF  xD4,W
0549E:  MOVWF  xDC
054A0:  MOVFF  7DB,7EF
054A4:  MOVWF  xF0
054A6:  MOVFF  7D7,7F1
054AA:  MOVLB  0
054AC:  CALL   1A88
....................       } 
....................  
....................       if(P < 0) 
054B0:  MOVLB  7
054B2:  BTFSC  xDA.7
054B4:  BRA    54B8
054B6:  BRA    54D6
....................          P += 3 + 2 * a++; 
054B8:  MOVF   xD8,W
054BA:  INCF   xD8,F
054BC:  MOVWF  xDB
054BE:  MOVLW  02
054C0:  MOVWF  xDC
054C2:  MOVFF  7DB,7DD
054C6:  MOVLB  0
054C8:  CALL   3FDA
054CC:  MOVF   01,W
054CE:  ADDLW  03
054D0:  MOVLB  7
054D2:  ADDWF  xDA,F
....................       else 
054D4:  BRA    54FA
....................          P += 5 + 2 * (a++ - b--); 
054D6:  MOVF   xD8,W
054D8:  INCF   xD8,F
054DA:  MOVWF  xDB
054DC:  MOVF   xD9,W
054DE:  DECF   xD9,F
054E0:  SUBWF  xDB,W
054E2:  MOVWF  xDB
054E4:  MOVLW  02
054E6:  MOVWF  xDC
054E8:  MOVFF  7DB,7DD
054EC:  MOVLB  0
054EE:  CALL   3FDA
054F2:  MOVF   01,W
054F4:  ADDLW  05
054F6:  MOVLB  7
054F8:  ADDWF  xDA,F
....................     } while(a <= b); 
054FA:  MOVF   xD8,W
054FC:  XORLW  80
054FE:  MOVWF  00
05500:  MOVF   xD9,W
05502:  XORLW  80
05504:  SUBWF  00,W
05506:  BTFSC  FD8.2
05508:  BRA    52F4
0550A:  BTFSS  FD8.0
0550C:  BRA    52F4
.................... } 
0550E:  MOVLB  0
05510:  RETLW  00
....................  
....................  
.................... ///////////////////////////////////////////////////////////////////////// 
.................... // Purpose:       Write text on a graphic LCD 
.................... // Inputs:        (x,y) - The upper left coordinate of the first letter 
.................... //                textptr - A pointer to an array of text to display 
.................... //                size - The size of the text: 1 = 5x7, 2 = 10x14, ... 
.................... //                color - ON or OFF 
.................... ///////////////////////////////////////////////////////////////////////// 
.................... #ifdef LARGE_LCD 
.................... void glcd_text57(int16 x, int16 y, char* textptr, int8 size, int1 color) 
.................... #else 
.................... void glcd_text57(int8 x, int8 y, char* textptr, int8 size, int1 color) 
.................... #endif 
.................... { 
....................    int8 j, k, l, m;                       // Loop counters 
....................    int8 pixelData[5];                     // Stores character data 
....................  
....................    for(; *textptr != '\0'; ++textptr, ++x)// Loop through the passed string 
*
01B44:  MOVFF  7D6,03
01B48:  MOVLB  7
01B4A:  MOVFF  7D5,FE9
01B4E:  MOVFF  7D6,FEA
01B52:  MOVF   FEF,F
01B54:  BTFSC  FD8.2
01B56:  BRA    1CF8
....................    { 
....................       if(*textptr < 'S') // Checks if the letter is in the first font array 
01B58:  MOVFF  7D6,03
01B5C:  MOVFF  7D5,FE9
01B60:  MOVFF  7D6,FEA
01B64:  MOVF   FEF,W
01B66:  SUBLW  52
01B68:  BNC   1BB8
....................          memcpy(pixelData, FONT[*textptr - ' '], 5); 
01B6A:  MOVFF  7D6,03
01B6E:  MOVFF  7D5,FE9
01B72:  MOVFF  7D6,FEA
01B76:  MOVLW  20
01B78:  SUBWF  FEF,W
01B7A:  MULLW  05
01B7C:  MOVF   FF3,W
01B7E:  CLRF   03
01B80:  MOVWF  xE2
01B82:  MOVLW  07
01B84:  MOVWF  FEA
01B86:  MOVLW  DD
01B88:  MOVWF  FE9
01B8A:  CLRF   xE6
01B8C:  MOVFF  7E2,7E5
01B90:  MOVFF  FF2,7E3
01B94:  BCF    FF2.7
01B96:  MOVLW  05
01B98:  MOVWF  01
01B9A:  CLRF   FF7
01B9C:  MOVF   xE2,W
01B9E:  MOVLB  0
01BA0:  CALL   009E
01BA4:  TBLRD*-
01BA6:  TBLRD*+
01BA8:  MOVFF  FF5,FEE
01BAC:  DECFSZ 01,F
01BAE:  BRA    1BA6
01BB0:  MOVLB  7
01BB2:  BTFSC  xE3.7
01BB4:  BSF    FF2.7
....................       else if(*textptr <= '~') // Check if the letter is in the second font array 
01BB6:  BRA    1C22
01BB8:  MOVFF  7D6,03
01BBC:  MOVFF  7D5,FE9
01BC0:  MOVFF  7D6,FEA
01BC4:  MOVF   FEF,W
01BC6:  SUBLW  7E
01BC8:  BNC   1C18
....................          memcpy(pixelData, FONT2[*textptr - 'S'], 5); 
01BCA:  MOVFF  7D6,03
01BCE:  MOVFF  7D5,FE9
01BD2:  MOVFF  7D6,FEA
01BD6:  MOVLW  53
01BD8:  SUBWF  FEF,W
01BDA:  MULLW  05
01BDC:  MOVF   FF3,W
01BDE:  CLRF   03
01BE0:  MOVWF  xE2
01BE2:  MOVLW  07
01BE4:  MOVWF  FEA
01BE6:  MOVLW  DD
01BE8:  MOVWF  FE9
01BEA:  CLRF   xE6
01BEC:  MOVFF  7E2,7E5
01BF0:  MOVFF  FF2,7E3
01BF4:  BCF    FF2.7
01BF6:  MOVLW  05
01BF8:  MOVWF  01
01BFA:  CLRF   FF7
01BFC:  MOVF   xE2,W
01BFE:  MOVLB  0
01C00:  CALL   01BC
01C04:  TBLRD*-
01C06:  TBLRD*+
01C08:  MOVFF  FF5,FEE
01C0C:  DECFSZ 01,F
01C0E:  BRA    1C06
01C10:  MOVLB  7
01C12:  BTFSC  xE3.7
01C14:  BSF    FF2.7
....................       else 
01C16:  BRA    1C22
....................          memcpy(pixelData, FONT[0], 5);   // Default to space 
01C18:  CLRF   xDD
01C1A:  CLRF   xDE
01C1C:  CLRF   xDF
01C1E:  CLRF   xE0
01C20:  CLRF   xE1
....................  
....................       // Handles newline and carriage returns 
....................       switch(*textptr) 
....................       { 
01C22:  MOVFF  7D6,03
01C26:  MOVF   xD5,W
01C28:  MOVWF  FE9
01C2A:  MOVFF  03,FEA
01C2E:  MOVF   FEF,W
01C30:  XORLW  0A
01C32:  MOVLB  0
01C34:  BZ    1C3C
01C36:  XORLW  07
01C38:  BZ    1C4C
01C3A:  BRA    1C52
....................          case '\n': 
....................             y += 7*size + 1; 
01C3C:  MOVLB  7
01C3E:  MOVF   xD7,W
01C40:  MULLW  07
01C42:  MOVF   FF3,W
01C44:  ADDLW  01
01C46:  ADDWF  xD4,F
....................             continue; 
01C48:  BRA    1CEA
01C4A:  MOVLB  0
....................          case '\r': 
....................             x = 0; 
01C4C:  MOVLB  7
01C4E:  CLRF   xD3
....................             continue; 
01C50:  BRA    1CEA
....................       } 
....................  
....................       if(x+5*size >= GLCD_WIDTH)          // Performs character wrapping 
01C52:  MOVLB  7
01C54:  MOVF   xD7,W
01C56:  MULLW  05
01C58:  MOVF   FF3,W
01C5A:  ADDWF  xD3,W
01C5C:  SUBLW  7F
01C5E:  BC    1C6C
....................       { 
....................          x = 0;                           // Set x at far left position 
01C60:  CLRF   xD3
....................          y += 7*size + 1;                 // Set y at next position down 
01C62:  MOVF   xD7,W
01C64:  MULLW  07
01C66:  MOVF   FF3,W
01C68:  ADDLW  01
01C6A:  ADDWF  xD4,F
....................       } 
....................       for(j=0; j<5; ++j, x+=size)         // Loop through character byte data 
01C6C:  CLRF   xD9
01C6E:  MOVF   xD9,W
01C70:  SUBLW  04
01C72:  BNC   1CEA
....................       { 
....................          for(k=0; k < 7; ++k)             // Loop through the vertical pixels 
01C74:  CLRF   xDA
01C76:  MOVF   xDA,W
01C78:  SUBLW  06
01C7A:  BNC   1CE2
....................          { 
....................             if(bit_test(pixelData[j], k)) // Check if the pixel should be set 
01C7C:  CLRF   03
01C7E:  MOVF   xD9,W
01C80:  ADDLW  DD
01C82:  MOVWF  FE9
01C84:  MOVLW  07
01C86:  ADDWFC 03,W
01C88:  MOVWF  FEA
01C8A:  MOVFF  FEF,7E2
01C8E:  MOVFF  7E2,00
01C92:  MOVF   xDA,W
01C94:  MOVWF  01
01C96:  BZ    1CA0
01C98:  BCF    FD8.0
01C9A:  RRCF   00,F
01C9C:  DECFSZ 01,F
01C9E:  BRA    1C98
01CA0:  BTFSS  00.0
01CA2:  BRA    1CDE
....................             { 
....................                for(l=0; l < size; ++l)    // These two loops change the 
01CA4:  CLRF   xDB
01CA6:  MOVF   xD7,W
01CA8:  SUBWF  xDB,W
01CAA:  BC    1CDE
....................                {                          // character's size 
....................                   for(m=0; m < size; ++m) 
01CAC:  CLRF   xDC
01CAE:  MOVF   xD7,W
01CB0:  SUBWF  xDC,W
01CB2:  BC    1CDA
....................                   { 
....................                      glcd_pixel(x+m, y+k*size+l, color); // Draws the pixel 
01CB4:  MOVF   xDC,W
01CB6:  ADDWF  xD3,W
01CB8:  MOVWF  xE2
01CBA:  MOVF   xDA,W
01CBC:  MULWF  xD7
01CBE:  MOVF   FF3,W
01CC0:  ADDWF  xD4,W
01CC2:  ADDWF  xDB,W
01CC4:  MOVWF  xE3
01CC6:  MOVFF  7E2,7EF
01CCA:  MOVWF  xF0
01CCC:  MOVFF  7D8,7F1
01CD0:  MOVLB  0
01CD2:  RCALL  1A88
....................                   } 
01CD4:  MOVLB  7
01CD6:  INCF   xDC,F
01CD8:  BRA    1CAE
....................                } 
01CDA:  INCF   xDB,F
01CDC:  BRA    1CA6
....................             } 
....................          } 
01CDE:  INCF   xDA,F
01CE0:  BRA    1C76
....................       } 
01CE2:  INCF   xD9,F
01CE4:  MOVF   xD7,W
01CE6:  ADDWF  xD3,F
01CE8:  BRA    1C6E
....................    } 
01CEA:  INCF   xD5,F
01CEC:  BTFSC  FD8.2
01CEE:  INCF   xD6,F
01CF0:  INCF   xD3,F
01CF2:  MOVLB  0
01CF4:  BRA    1B44
01CF6:  MOVLB  7
.................... } 
01CF8:  MOVLB  0
01CFA:  RETLW  00
....................  
.................... #endif 
....................  
.................... #include "imagen.h" 
.................... const int8 Horno [64][16] = { 
.................... 0x00, 0x00, 0x00, 0x00, 0x00, 0x00, 0x00, 0x00, 0x00, 0x00, 0x00, 0x00, 0x00, 0x00, 0x00, 0x00, 
.................... 0x01, 0xC0, 0x00, 0x00, 0x00, 0x00, 0x00, 0x00, 0x00, 0x00, 0x00, 0x00, 0x00, 0x00, 0x00, 0x00, 
.................... 0x07, 0xF0, 0x00, 0x00, 0x00, 0x00, 0x00, 0x00, 0x00, 0x00, 0x00, 0x00, 0x00, 0x00, 0x00, 0x00, 
.................... 0x1C, 0x9C, 0x00, 0x00, 0x00, 0x00, 0x00, 0x00, 0x00, 0x00, 0x00, 0x00, 0x00, 0x00, 0x00, 0x00, 
.................... 0x18, 0x0C, 0x00, 0x00, 0x00, 0x00, 0x00, 0x00, 0x00, 0x00, 0x00, 0x00, 0x00, 0x00, 0x00, 0x00, 
.................... 0x30, 0x86, 0x00, 0x00, 0x00, 0x00, 0x00, 0x00, 0x00, 0x00, 0x00, 0x00, 0x00, 0x00, 0x00, 0x00, 
.................... 0x20, 0x82, 0x00, 0x00, 0x00, 0x00, 0x00, 0x00, 0x00, 0x00, 0x00, 0x00, 0x00, 0x00, 0x00, 0x00, 
.................... 0x60, 0x83, 0x00, 0x00, 0x00, 0x00, 0x00, 0x00, 0x00, 0x00, 0x00, 0x00, 0x00, 0x00, 0x00, 0x00, 
.................... 0x70, 0x87, 0x00, 0x00, 0x00, 0x00, 0x00, 0x00, 0x00, 0x00, 0x00, 0x00, 0x00, 0x00, 0x00, 0x00, 
.................... 0x60, 0xC3, 0x00, 0x00, 0x00, 0x00, 0x00, 0x00, 0x00, 0x00, 0x00, 0x00, 0x00, 0x00, 0x00, 0x00, 
.................... 0x20, 0x62, 0x00, 0x00, 0x00, 0x00, 0x00, 0x00, 0x00, 0x00, 0x00, 0x00, 0x00, 0x00, 0x00, 0x00, 
.................... 0x30, 0x26, 0x00, 0x00, 0x00, 0x00, 0x00, 0x00, 0x00, 0x00, 0x00, 0x00, 0x00, 0x00, 0x00, 0x00, 
.................... 0x18, 0x0C, 0x00, 0x00, 0x00, 0x00, 0x00, 0x00, 0x00, 0x00, 0x00, 0x00, 0x00, 0x00, 0x00, 0x00, 
.................... 0x1C, 0x9C, 0x00, 0x00, 0x00, 0x00, 0x00, 0x00, 0x00, 0x00, 0x00, 0x00, 0x00, 0x00, 0x00, 0x00, 
.................... 0x07, 0xF0, 0x00, 0x00, 0x00, 0x00, 0x00, 0x00, 0x00, 0x00, 0x00, 0x00, 0x00, 0x00, 0x00, 0x00, 
.................... 0x01, 0xC0, 0x00, 0x00, 0x00, 0x00, 0x00, 0x00, 0x00, 0x00, 0x00, 0x00, 0x00, 0x00, 0x00, 0x00, 
.................... 0x00, 0x00, 0x00, 0x00, 0x00, 0x00, 0x00, 0x00, 0x00, 0x00, 0x00, 0x00, 0x00, 0x00, 0x00, 0x00, 
.................... 0x00, 0x00, 0x00, 0x00, 0x00, 0x00, 0x00, 0x00, 0x00, 0x00, 0x00, 0x00, 0x00, 0x00, 0x00, 0x00, 
.................... 0x00, 0x00, 0x00, 0x00, 0x00, 0x00, 0x00, 0x00, 0x00, 0x00, 0x00, 0x00, 0x00, 0x00, 0x00, 0x00, 
.................... 0x00, 0x00, 0x00, 0x00, 0x00, 0x00, 0x00, 0x00, 0x00, 0x00, 0x00, 0x00, 0x00, 0x00, 0x00, 0x00, 
.................... 0x00, 0x00, 0x00, 0x00, 0x00, 0x00, 0x00, 0x00, 0x00, 0x00, 0x00, 0x00, 0x00, 0x00, 0x00, 0x00, 
.................... 0x00, 0x00, 0x00, 0x00, 0x00, 0x00, 0x00, 0x00, 0x00, 0x00, 0x00, 0x00, 0x00, 0x00, 0x00, 0x00, 
.................... 0x00, 0x00, 0x00, 0x00, 0x00, 0x00, 0x00, 0x00, 0x00, 0x00, 0x00, 0x00, 0x00, 0x00, 0x00, 0x00, 
.................... 0x00, 0x00, 0x00, 0x00, 0x00, 0x00, 0x00, 0x00, 0x00, 0x00, 0x00, 0x00, 0x00, 0x00, 0x00, 0x00, 
.................... 0x00, 0x00, 0x00, 0x00, 0x00, 0x00, 0x00, 0x00, 0x00, 0x00, 0x00, 0x00, 0x00, 0x00, 0x00, 0x00, 
.................... 0x00, 0x00, 0x00, 0x00, 0x00, 0x00, 0x00, 0x00, 0x00, 0x00, 0x00, 0x00, 0x00, 0x00, 0x00, 0x00, 
.................... 0x00, 0x00, 0x00, 0x00, 0x00, 0x00, 0x00, 0x00, 0x00, 0x00, 0x00, 0x00, 0x00, 0x00, 0x00, 0x00, 
.................... 0x00, 0x00, 0x00, 0x00, 0x00, 0x00, 0x00, 0x00, 0x00, 0x00, 0x00, 0x00, 0x00, 0x00, 0x00, 0x00, 
.................... 0x01, 0x80, 0x00, 0x00, 0x00, 0x00, 0x00, 0x00, 0x00, 0x00, 0x00, 0x00, 0x00, 0x00, 0x00, 0x00, 
.................... 0x02, 0x40, 0x00, 0x00, 0x00, 0x00, 0x00, 0x00, 0x00, 0x00, 0x00, 0x00, 0x00, 0x00, 0x00, 0x00, 
.................... 0x02, 0x70, 0x00, 0x00, 0x00, 0x00, 0x00, 0x00, 0x00, 0x00, 0x00, 0x00, 0x00, 0x00, 0x00, 0x00, 
.................... 0x02, 0x40, 0x00, 0x00, 0x00, 0x00, 0x00, 0x00, 0x00, 0x00, 0x00, 0x00, 0x00, 0x00, 0x00, 0x00, 
.................... 0x03, 0xC0, 0x00, 0x00, 0x00, 0x00, 0x00, 0x00, 0x00, 0x00, 0x00, 0x00, 0x00, 0x00, 0x00, 0x00, 
.................... 0x03, 0xF0, 0x00, 0x00, 0x00, 0x00, 0x00, 0x00, 0x00, 0x00, 0x00, 0x00, 0x00, 0x00, 0x00, 0x00, 
.................... 0x03, 0xC0, 0x00, 0x00, 0x00, 0x00, 0x00, 0x00, 0x00, 0x00, 0x00, 0x00, 0x00, 0x00, 0x00, 0x00, 
.................... 0x03, 0xC0, 0x00, 0x00, 0x00, 0x00, 0x00, 0x00, 0x00, 0x00, 0x00, 0x00, 0x00, 0x00, 0x00, 0x00, 
.................... 0x07, 0xE0, 0x00, 0x00, 0x00, 0x00, 0x00, 0x00, 0x00, 0x00, 0x00, 0x00, 0x00, 0x00, 0x00, 0x00, 
.................... 0x0F, 0xF0, 0x00, 0x00, 0x00, 0x00, 0x00, 0x00, 0x00, 0x00, 0x00, 0x00, 0x00, 0x00, 0x00, 0x00, 
.................... 0x0B, 0xF0, 0x00, 0x00, 0x00, 0x00, 0x00, 0x00, 0x00, 0x00, 0x00, 0x00, 0x00, 0x00, 0x00, 0x00, 
.................... 0x0B, 0xF0, 0x00, 0x00, 0x00, 0x00, 0x00, 0x00, 0x00, 0x00, 0x00, 0x00, 0x00, 0x00, 0x00, 0x00, 
.................... 0x0F, 0xF0, 0x00, 0x00, 0x00, 0x00, 0x00, 0x00, 0x00, 0x00, 0x00, 0x00, 0x00, 0x00, 0x00, 0x00, 
.................... 0x0F, 0xF0, 0x00, 0x00, 0x00, 0x00, 0x00, 0x00, 0x00, 0x00, 0x00, 0x00, 0x00, 0x00, 0x00, 0x00, 
.................... 0x07, 0xE0, 0x00, 0x00, 0x00, 0x00, 0x00, 0x00, 0x00, 0x00, 0x00, 0x00, 0x00, 0x00, 0x00, 0x00, 
.................... 0x03, 0xC0, 0x00, 0x00, 0x00, 0x00, 0x00, 0x00, 0x00, 0x00, 0x00, 0x00, 0x00, 0x00, 0x00, 0x00, 
.................... 0x00, 0x00, 0x00, 0x00, 0x00, 0x00, 0x00, 0x00, 0x00, 0x00, 0x00, 0x00, 0x00, 0x00, 0x00, 0x00, 
.................... 0x00, 0x00, 0x00, 0x00, 0x00, 0x00, 0x00, 0x00, 0x00, 0x00, 0x00, 0x00, 0x00, 0x00, 0x00, 0x00, 
.................... 0x00, 0x00, 0x00, 0x00, 0x00, 0x00, 0x00, 0x00, 0x00, 0x00, 0x00, 0x00, 0x00, 0x00, 0x00, 0x00, 
.................... 0x00, 0x00, 0x00, 0x00, 0x00, 0x00, 0x00, 0x00, 0x00, 0x00, 0x00, 0x00, 0x00, 0x00, 0x00, 0x00, 
.................... 0x00, 0x00, 0x00, 0x00, 0x00, 0x00, 0x00, 0x00, 0x00, 0x00, 0x00, 0x00, 0x00, 0x00, 0x00, 0x00, 
.................... 0x00, 0x00, 0x00, 0x00, 0x00, 0x00, 0x00, 0x00, 0x00, 0x00, 0x00, 0x00, 0x00, 0x00, 0x00, 0x00, 
.................... 0x00, 0x00, 0x00, 0x00, 0x00, 0x00, 0x00, 0x00, 0x00, 0x00, 0x00, 0x00, 0x00, 0x00, 0x00, 0x00, 
.................... 0x00, 0x00, 0x00, 0x00, 0x00, 0x00, 0x00, 0x00, 0x00, 0x00, 0x00, 0x00, 0x00, 0x00, 0x00, 0x00, 
.................... 0x00, 0x00, 0x00, 0x00, 0x00, 0x00, 0x00, 0x00, 0x00, 0x00, 0x00, 0x00, 0x00, 0x00, 0x00, 0x00, 
.................... 0x00, 0x00, 0x00, 0x00, 0x00, 0x00, 0x00, 0x00, 0x00, 0x00, 0x00, 0x00, 0x00, 0x00, 0x00, 0x00, 
.................... 0x00, 0x00, 0x00, 0x00, 0x00, 0x00, 0x00, 0x00, 0x00, 0x00, 0x00, 0x00, 0x00, 0x00, 0x00, 0x00, 
.................... 0x00, 0x00, 0x00, 0x00, 0x00, 0x00, 0x00, 0x00, 0x00, 0x00, 0x00, 0x00, 0x00, 0x00, 0x00, 0x00, 
.................... 0x00, 0x00, 0x00, 0x00, 0x00, 0x00, 0x00, 0x00, 0x00, 0x00, 0x00, 0x00, 0x00, 0x00, 0x00, 0x00, 
.................... 0x00, 0x00, 0x00, 0x00, 0x00, 0x00, 0x00, 0x00, 0x00, 0x00, 0x00, 0x00, 0x00, 0x00, 0x00, 0x00, 
.................... 0x00, 0x00, 0x00, 0x00, 0x00, 0x00, 0x00, 0x00, 0x00, 0x00, 0x00, 0x00, 0x00, 0x00, 0x00, 0x00, 
.................... 0x00, 0x00, 0x00, 0x00, 0x00, 0x00, 0x00, 0x00, 0x00, 0x00, 0x00, 0x00, 0x00, 0x00, 0x00, 0x00, 
.................... 0x00, 0x00, 0x00, 0x00, 0x00, 0x00, 0x00, 0x00, 0x00, 0x00, 0x00, 0x00, 0x00, 0x00, 0x00, 0x00, 
.................... 0x00, 0x00, 0x00, 0x00, 0x00, 0x00, 0x00, 0x00, 0x00, 0x00, 0x00, 0x00, 0x00, 0x00, 0x00, 0x00, 
.................... 0x00, 0x00, 0x00, 0x00, 0x00, 0x00, 0x00, 0x00, 0x00, 0x00, 0x00, 0x00, 0x00, 0x00, 0x00, 0x00, 
.................... 0x00, 0x00, 0x00, 0x00, 0x00, 0x00, 0x00, 0x00, 0x00, 0x00, 0x00, 0x00, 0x00, 0x00, 0x00, 0x00 
.................... }; 
....................  
....................  
.................... #include <MATH.h> 
.................... //////////////////////////////////////////////////////////////////////////// 
.................... ////        (C) Copyright 1996,2008 Custom Computer Services            //// 
.................... //// This source code may only be used by licensed users of the CCS C   //// 
.................... //// compiler.  This source code may only be distributed to other       //// 
.................... //// licensed users of the CCS C compiler.  No other use, reproduction  //// 
.................... //// or distribution is permitted without written permission.           //// 
.................... //// Derivative programs created using this software in object code     //// 
.................... //// form are not restricted in any way.                                //// 
.................... //////////////////////////////////////////////////////////////////////////// 
.................... ////                                                                    //// 
.................... //// History:                                                           //// 
.................... ////  * 9/20/2001 :  Improvments are made to sin/cos code.              //// 
.................... ////                 The code now is small, much faster,                //// 
.................... ////                 and more accurate.                                 //// 
.................... ////  * 2/21/2007 :  Compiler handles & operator differently and does 
.................... ////                 not return generic (int8 *) so type cast is done   //// 
.................... ////                                                                    //// 
.................... //////////////////////////////////////////////////////////////////////////// 
....................  
.................... #ifndef MATH_H 
.................... #define MATH_H 
....................  
.................... #ifdef PI 
.................... #undef  PI 
.................... #endif 
.................... #define PI     3.1415926535897932 
....................  
....................  
.................... #define SQRT2  1.4142135623730950 
....................  
.................... //float const ps[4] = {5.9304945, 21.125224, 8.9403076, 0.29730279}; 
.................... //float const qs[4] = {1.0000000, 15.035723, 17.764134, 2.4934718}; 
....................  
.................... ///////////////////////////// Round Functions ////////////////////////////// 
....................  
.................... float32 CEIL_FLOOR(float32 x, unsigned int8 n) 
.................... { 
....................    float32 y, res; 
....................    unsigned int16 l; 
....................    int1 s; 
....................  
....................    s = 0; 
....................    y = x; 
....................  
....................    if (x < 0) 
....................    { 
....................       s = 1; 
....................       y = -y; 
....................    } 
....................  
....................    if (y <= 32768.0) 
....................   res = (float32)(unsigned int16)y; 
....................  
....................  else if (y < 10000000.0) 
....................    { 
....................   l = (unsigned int16)(y/32768.0); 
....................       y = 32768.0*(y/32768.0 - (float32)l); 
....................   res = 32768.0*(float32)l; 
....................   res += (float32)(unsigned int16)y; 
....................  } 
....................  
....................  else 
....................   res = y; 
....................  
....................  y = y - (float32)(unsigned int16)y; 
....................  
....................  if (s) 
....................   res = -res; 
....................  
....................  if (y != 0) 
....................  { 
....................   if (s == 1 && n == 0) 
....................    res -= 1.0; 
....................  
....................   if (s == 0 && n == 1) 
....................    res += 1.0; 
....................  } 
....................  if (x == 0) 
....................     res = 0; 
....................  
....................  return (res); 
.................... } 
....................  
.................... // Overloaded Functions to take care for new Data types in PCD 
.................... // Overloaded function CEIL_FLOOR() for data type - Float48 
.................... #if defined(__PCD__) 
.................... float48 CEIL_FLOOR(float48 x, unsigned int8 n) 
.................... { 
....................    float48 y, res; 
....................    unsigned int16 l; 
....................    int1 s; 
....................  
....................    s = 0; 
....................    y = x; 
....................  
....................    if (x < 0) 
....................    { 
....................       s = 1; 
....................       y = -y; 
....................    } 
....................  
....................    if (y <= 32768.0) 
....................   res = (float48)(unsigned int16)y; 
....................  
....................  else if (y < 10000000.0) 
....................    { 
....................   l = (unsigned int16)(y/32768.0); 
....................       y = 32768.0*(y/32768.0 - (float48)l); 
....................   res = 32768.0*(float32)l; 
....................   res += (float48)(unsigned int16)y; 
....................  } 
....................  
....................  else 
....................   res = y; 
....................  
....................  y = y - (float48)(unsigned int16)y; 
....................  
....................  if (s) 
....................   res = -res; 
....................  
....................  if (y != 0) 
....................  { 
....................   if (s == 1 && n == 0) 
....................    res -= 1.0; 
....................  
....................   if (s == 0 && n == 1) 
....................    res += 1.0; 
....................  } 
....................  if (x == 0) 
....................     res = 0; 
....................  
....................  return (res); 
.................... } 
....................  
....................  
.................... // Overloaded function CEIL_FLOOR() for data type - Float64 
.................... float64 CEIL_FLOOR(float64 x, unsigned int8 n) 
.................... { 
....................    float64 y, res; 
....................    unsigned int16 l; 
....................    int1 s; 
....................  
....................    s = 0; 
....................    y = x; 
....................  
....................    if (x < 0) 
....................    { 
....................       s = 1; 
....................       y = -y; 
....................    } 
....................  
....................    if (y <= 32768.0) 
....................   res = (float64)(unsigned int16)y; 
....................  
....................  else if (y < 10000000.0) 
....................    { 
....................   l = (unsigned int16)(y/32768.0); 
....................       y = 32768.0*(y/32768.0 - (float64)l); 
....................   res = 32768.0*(float64)l; 
....................   res += (float64)(unsigned int16)y; 
....................  } 
....................  
....................  else 
....................   res = y; 
....................  
....................  y = y - (float64)(unsigned int16)y; 
....................  
....................  if (s) 
....................   res = -res; 
....................  
....................  if (y != 0) 
....................  { 
....................   if (s == 1 && n == 0) 
....................    res -= 1.0; 
....................  
....................   if (s == 0 && n == 1) 
....................    res += 1.0; 
....................  } 
....................  if (x == 0) 
....................     res = 0; 
....................  
....................  return (res); 
.................... } 
.................... #endif 
....................  
.................... //////////////////////////////////////////////////////////////////////////// 
.................... //   float floor(float x) 
.................... //////////////////////////////////////////////////////////////////////////// 
.................... // Description : rounds down the number x. 
.................... // Date : N/A 
.................... // 
.................... float32 floor(float32 x) 
.................... { 
....................    return CEIL_FLOOR(x, 0); 
.................... } 
.................... // Following 2 functions are overloaded functions of floor() for PCD 
.................... // Overloaded function floor() for data type - Float48 
.................... #if defined(__PCD__) 
.................... float48 floor(float48 x) 
.................... { 
....................    return CEIL_FLOOR(x, 0); 
.................... } 
....................  
.................... // Overloaded function floor() for data type - Float64 
.................... float64 floor(float64 x) 
.................... { 
....................    return CEIL_FLOOR(x, 0); 
.................... } 
.................... #endif 
....................  
....................  
.................... //////////////////////////////////////////////////////////////////////////// 
.................... //   float ceil(float x) 
.................... //////////////////////////////////////////////////////////////////////////// 
.................... // Description : rounds up the number x. 
.................... // Date : N/A 
.................... // 
.................... float32 ceil(float32 x) 
.................... { 
....................    return CEIL_FLOOR(x, 1); 
.................... } 
.................... // Following 2 functions are overloaded functions of ceil() for PCD 
.................... // Overloaded function ceil() for data type - Float48 
.................... #if defined(__PCD__) 
.................... float48 ceil(float48 x) 
.................... { 
....................    return CEIL_FLOOR(x, 1); 
.................... } 
....................  
.................... // Overloaded function ceil() for data type - Float64 
.................... float64 ceil(float64 x) 
.................... { 
....................    return CEIL_FLOOR(x, 1); 
.................... } 
.................... #endif 
....................  
....................  //////////////////////////////////////////////////////////////////////////// 
.................... //   float fabs(float x) 
.................... //////////////////////////////////////////////////////////////////////////// 
.................... // Description : Computes the absolute value of floating point number x 
.................... // Returns : returns the absolute value of x 
.................... // Date : N/A 
.................... // 
.................... #define fabs abs 
....................  
.................... //////////////////////////////////////////////////////////////////////////// 
.................... //   float fmod(float x) 
.................... //////////////////////////////////////////////////////////////////////////// 
.................... // Description : Computes the floating point remainder of x/y 
.................... // Returns : returns the value of x= i*y, for some integer i such that, if y 
.................... // is non zero, the result has the same isgn of x na dmagnitude less than the 
.................... // magnitude of y. If y is zero then a domain error occurs. 
.................... // Date : N/A 
.................... // 
....................  
.................... float fmod(float32 x,float32 y) 
.................... { 
....................    float32 i; 
....................    if (y!=0.0) 
....................    { 
....................       i=(x/y < 0.0)? ceil(x/y): floor(x/y); 
....................       return(x-(i*y)); 
....................    } 
....................    else 
....................    { 
....................    #ifdef _ERRNO 
....................    { 
....................       errno=EDOM; 
....................    } 
....................    #endif 
....................    } 
.................... } 
.................... //Overloaded function for fmod() for PCD 
.................... // Overloaded function fmod() for data type - Float48 
.................... #if defined(__PCD__) 
.................... float48 fmod(float48 x,float48 y) 
.................... { 
....................    float48 i; 
....................    if (y!=0.0) 
....................    { 
....................       i=(x/y < 0.0)? ceil(x/y): floor(x/y); 
....................       return(x-(i*y)); 
....................    } 
....................    else 
....................    { 
....................    #ifdef _ERRNO 
....................    { 
....................       errno=EDOM; 
....................    } 
....................    #endif 
....................    } 
.................... } 
.................... // Overloaded function fmod() for data type - Float64 
.................... float64 fmod(float64 x,float64 y) 
.................... { 
....................    float64 i; 
....................    if (y!=0.0) 
....................    { 
....................       i=(x/y < 0.0)? ceil(x/y): floor(x/y); 
....................       return(x-(i*y)); 
....................    } 
....................    else 
....................    { 
....................    #ifdef _ERRNO 
....................    { 
....................       errno=EDOM; 
....................    } 
....................    #endif 
....................    } 
.................... } 
.................... #endif 
.................... //////////////////// Exponential and logarithmic functions //////////////////// 
.................... //////////////////////////////////////////////////////////////////////////// 
.................... //   float exp(float x) 
.................... //////////////////////////////////////////////////////////////////////////// 
.................... // Description : returns the value (e^x) 
.................... // Date : N/A 
.................... // 
.................... #define LN2 0.6931471805599453 
....................  
.................... float const pe[6] = {0.000207455774, 0.00127100575, 0.00965065093, 
....................                      0.0554965651,  0.240227138,  0.693147172}; 
....................  
....................  
.................... float32 exp(float32 x) 
.................... { 
....................    float32 y, res, r; 
....................    #if defined(__PCD__) 
....................    int8 data1; 
....................    #endif 
....................    signed int8 n; 
....................    int1 s; 
....................    #ifdef _ERRNO 
....................    if(x > 88.722838) 
....................    { 
....................       errno=ERANGE; 
....................       return(0); 
....................    } 
....................    #endif 
....................    n = (signed int16)(x/LN2); 
....................    s = 0; 
....................    y = x; 
....................  
....................    if (x < 0) 
....................    { 
....................       s = 1; 
....................       n = -n; 
....................       y = -y; 
....................    } 
....................  
....................    res = 0.0; 
.................... #if !defined(__PCD__) 
....................    *((unsigned int8 *)(&res)) = n + 0x7F; 
.................... #endif 
....................  
.................... #if defined(__PCD__)  // Takes care of IEEE format for PCD 
....................    data1 = n+0x7F; 
....................    if(bit_test(data1,0)) 
....................    bit_set(*(((unsigned int8 *)(&res)+2)),7); 
....................    rotate_right(&data1,1); 
....................    bit_clear(data1,7); 
....................    *(((unsigned int8 *)(&res)+3)) = data1; 
.................... #endif 
....................  
....................    y = y/LN2 - (float32)n; 
....................  
....................    r = pe[0]*y + pe[1]; 
....................    r = r*y + pe[2]; 
....................    r = r*y + pe[3]; 
....................    r = r*y + pe[4]; 
....................    r = r*y + pe[5]; 
....................  
....................    res = res*(1.0 + y*r); 
....................  
....................    if (s) 
....................       res = 1.0/res; 
....................    return(res); 
.................... } 
....................  
....................  
.................... //Overloaded function for exp() for PCD 
.................... // Overloaded function exp() for data type - Float48 
.................... #if defined(__PCD__) 
.................... float48 exp(float48 x) 
.................... { 
....................    float48 y, res, r; 
....................    int8 data1; 
....................    signed int8 n; 
....................    int1 s; 
....................    #ifdef _ERRNO 
....................    if(x > 88.722838) 
....................    { 
....................       errno=ERANGE; 
....................       return(0); 
....................    } 
....................    #endif 
....................    n = (signed int16)(x/LN2); 
....................    s = 0; 
....................    y = x; 
....................  
....................    if (x < 0) 
....................    { 
....................       s = 1; 
....................       n = -n; 
....................       y = -y; 
....................    } 
....................  
....................    res = 0.0; 
....................  
....................    data1 = n+0x7F; 
....................    if(bit_test(data1,0)) 
....................    bit_set(*(((unsigned int8 *)(&res)+4)),7); 
....................    rotate_right(&data1,1); 
....................    bit_clear(data1,7); 
....................    *(((unsigned int8 *)(&res)+5)) = data1; 
....................  
....................    y = y/LN2 - (float48)n; 
....................  
....................    r = pe[0]*y + pe[1]; 
....................    r = r*y + pe[2]; 
....................    r = r*y + pe[3]; 
....................    r = r*y + pe[4]; 
....................    r = r*y + pe[5]; 
....................  
....................    res = res*(1.0 + y*r); 
....................  
....................    if (s) 
....................       res = 1.0/res; 
....................    return(res); 
.................... } 
....................  
.................... // Overloaded function exp() for data type - Float64 
.................... float64 exp(float64 x) 
.................... { 
....................    float64 y, res, r; 
....................    unsigned int16 data1, data2; 
....................    unsigned int16 *p; 
....................    signed int16 n; 
....................    int1 s; 
....................    #ifdef _ERRNO 
....................    if(x > 709.7827128) 
....................    { 
....................       errno=ERANGE; 
....................       return(0); 
....................    } 
....................    #endif 
....................    n = (signed int16)(x/LN2); 
....................    s = 0; 
....................    y = x; 
....................  
....................    if (x < 0) 
....................    { 
....................       s = 1; 
....................       n = -n; 
....................       y = -y; 
....................    } 
....................  
....................    res = 0.0; 
....................  
.................... #if !defined(__PCD__) 
....................    *((unsigned int16 *)(&res)) = n + 0x7F; 
.................... #endif 
....................    p= (((unsigned int16 *)(&res))+3); 
....................    data1 = *p; 
....................    data2 = *p;    
....................    data1 = n + 0x3FF; 
....................    data1 = data1 <<4; 
....................    if(bit_test(data2,15)) 
....................    bit_set(data1,15); 
....................    data2 = data2 & 0x000F; 
....................    data1 ^= data2; 
....................  
....................    *(((unsigned int16 *)(&res)+3)) = data1; 
....................  
....................  
....................    y = y/LN2 - (float64)n; 
....................  
....................    r = pe[0]*y + pe[1]; 
....................    r = r*y + pe[2]; 
....................    r = r*y + pe[3]; 
....................    r = r*y + pe[4]; 
....................    r = r*y + pe[5]; 
....................  
....................    res = res*(1.0 + y*r); 
....................  
....................    if (s) 
....................       res = 1.0/res; 
....................    return(res); 
.................... } 
....................  
.................... #ENDIF 
....................  
....................  
.................... /************************************************************/ 
....................  
.................... float32 const pl[4] = {0.45145214, -9.0558803, 26.940971, -19.860189}; 
.................... float32 const ql[4] = {1.0000000,  -8.1354259, 16.780517, -9.9300943}; 
....................  
.................... //////////////////////////////////////////////////////////////////////////// 
.................... //   float log(float x) 
.................... //////////////////////////////////////////////////////////////////////////// 
.................... // Description : returns the the natural log of x 
.................... // Date : N/A 
.................... // 
.................... float32 log(float32 x) 
.................... { 
....................    float32 y, res, r, y2; 
....................    #if defined(__PCD__) 
....................    unsigned int8  data1,data2; 
....................    #endif 
....................    signed int8 n; 
....................    #ifdef _ERRNO 
....................    if(x <0) 
....................    { 
....................       errno=EDOM; 
....................    } 
....................    if(x ==0) 
....................    { 
....................       errno=ERANGE; 
....................       return(0); 
....................    } 
....................    #endif 
....................    y = x; 
....................  
....................    if (y != 1.0) 
....................    { 
.................... #if !defined(__PCD__) 
....................     *((unsigned int8 *)(&y)) = 0x7E;  
.................... #endif 
....................  
.................... #if defined(__PCD__) // Takes care of IEEE format 
....................    data2 = *(((unsigned int8 *)(&y))+3); 
....................    *(((unsigned int8 *)(&y))+3) = 0x3F; 
....................    data1 = *(((unsigned int8 *)(&y))+2); 
....................    bit_clear(data1,7); 
....................    *(((unsigned int8 *)(&y))+2) = data1; 
....................    if(bit_test(data2,7)) 
....................    bit_set(*(((unsigned int8 *)(&y))+3),7); 
.................... #endif 
....................  
....................       y = (y - 1.0)/(y + 1.0); 
....................  
....................       y2=y*y; 
....................  
....................       res = pl[0]*y2 + pl[1]; 
....................       res = res*y2 + pl[2]; 
....................       res = res*y2 + pl[3]; 
....................  
....................       r = ql[0]*y2 + ql[1]; 
....................       r = r*y2 + ql[2]; 
....................       r = r*y2 + ql[3]; 
....................  
....................       res = y*res/r; 
.................... #if !defined(__PCD__) 
....................       n = *((unsigned int8 *)(&x)) - 0x7E; 
.................... #endif 
.................... #if defined(__PCD__)  
....................     data1 = *(((unsigned int8 *)(&x)+3)); 
....................     rotate_left(&data1,1); 
....................     data2 = *(((unsigned int8 *)(&x)+2)); 
....................     if(bit_test (data2,7)) 
....................       bit_set(data1,0); 
....................     n = data1 - 0x7E; 
.................... #endif 
....................  
....................       if (n<0)  
....................          r = -(float32)-n; 
....................       else 
....................          r = (float32)n; 
....................  
....................       res += r*LN2; 
....................    } 
....................  
....................    else 
....................       res = 0.0; 
....................  
....................    return(res); 
.................... } 
....................  
.................... //Overloaded function for log() for PCD 
.................... // Overloaded function log() for data type - Float48 
.................... #if defined(__PCD__) 
.................... float48 log(float48 x) 
.................... { 
....................    float48 y, res, r, y2; 
....................    unsigned int8  data1,data2; 
....................    signed int8 n; 
....................    #ifdef _ERRNO 
....................    if(x <0) 
....................    { 
....................       errno=EDOM; 
....................    } 
....................    if(x ==0) 
....................    { 
....................       errno=ERANGE; 
....................       return(0); 
....................    } 
....................    #endif 
....................    y = x; 
....................  
....................    if (y != 1.0) 
....................    { 
....................     
....................    #if !defined(__PCD__) 
....................        *((unsigned int8 *)(&y)) = 0x7E;  
....................    #endif 
....................       data2 = *(((unsigned int8 *)(&y))+5); 
....................       *(((unsigned int8 *)(&y))+5) = 0x3F; 
....................       data1 = *(((unsigned int8 *)(&y))+4); 
....................       bit_clear(data1,7); 
....................       *(((unsigned int8 *)(&y))+4) = data1; 
....................    
....................       if(bit_test(data2,7)) 
....................          bit_set(*(((unsigned int8 *)(&y))+4),7); 
....................       y = (y - 1.0)/(y + 1.0); 
....................  
....................       y2=y*y; 
....................  
....................       res = pl[0]*y2 + pl[1]; 
....................       res = res*y2 + pl[2]; 
....................       res = res*y2 + pl[3]; 
....................  
....................       r = ql[0]*y2 + ql[1]; 
....................       r = r*y2 + ql[2]; 
....................       r = r*y2 + ql[3]; 
....................  
....................       res = y*res/r; 
....................  
....................     data1 = *(((unsigned int8 *)(&x)+5)); 
....................     rotate_left(&data1,1); 
....................     data2 = *(((unsigned int8 *)(&x)+4)); 
....................     if(bit_test (data2,7)) 
....................        bit_set(data1,0); 
....................       
....................     n = data1 - 0x7E; 
....................  
....................       if (n<0) 
....................          r = -(float48)-n; 
....................       else 
....................          r = (float48)n; 
....................  
....................       res += r*LN2; 
....................    } 
....................  
....................    else 
....................       res = 0.0; 
....................  
....................    return(res); 
.................... } 
....................  
.................... // Overloaded function log() for data type - Float48 
.................... #if defined(__PCD__) 
.................... float32 const pl_64[4] = {0.45145214, -9.0558803, 26.940971, -19.860189}; 
.................... float32 const ql_64[4] = {1.0000000,  -8.1354259, 16.780517, -9.9300943}; 
.................... #endif 
.................... float64 log(float64 x) 
.................... { 
....................    float64 y, res, r, y2; 
....................    unsigned int16  data1,data2; 
....................    unsigned int16 *p; 
....................    signed int16 n; 
....................    #ifdef _ERRNO 
....................    if(x <0) 
....................    { 
....................       errno=EDOM; 
....................    } 
....................    if(x ==0) 
....................    { 
....................       errno=ERANGE; 
....................       return(0); 
....................    } 
....................    #endif 
....................    y = x; 
....................  
....................    if (y != 1.0) 
....................    { 
....................    #if !defined(__PCD__) 
....................        *((unsigned int8 *)(&y)) = 0x7E;  
....................    #endif 
....................       p= (((unsigned int16 *)(&y))+3); 
....................       data1 = *p; 
....................       data2 = *p; 
....................       data1 = 0x3FE; 
....................       data1 = data1 <<4; 
....................       if(bit_test (data2,15)) 
....................       bit_set(data1,15); 
....................       data2 = data2 & 0x000F; 
....................       data1 ^=data2; 
....................  
....................       *p = data1; 
....................  
....................       y = (y - 1.0)/(y + 1.0); 
....................  
....................       y2=y*y; 
....................  
....................       res = pl_64[0]*y2 + pl_64[1]; 
....................       res = res*y2 + pl_64[2]; 
....................       res = res*y2 + pl_64[3]; 
....................  
....................       r = ql_64[0]*y2 + ql_64[1]; 
....................       r = r*y2 + ql_64[2]; 
....................       r = r*y2 + ql_64[3]; 
....................  
....................       res = y*res/r; 
....................   
....................       p= (((unsigned int16 *)(&x))+3); 
....................       data1 = *p; 
....................       bit_clear(data1,15); 
....................       data1 = data1 >>4;     
....................       n = data1 - 0x3FE; 
....................  
....................  
....................       if (n<0) 
....................          r = -(float64)-n; 
....................       else 
....................          r = (float64)n; 
....................  
....................       res += r*LN2; 
....................    } 
....................  
....................    else 
....................       res = 0.0; 
....................  
....................    return(res); 
.................... } 
.................... #endif 
....................  
....................  
.................... #define LN10 2.3025850929940456 
....................  
.................... //////////////////////////////////////////////////////////////////////////// 
.................... //   float log10(float x) 
.................... //////////////////////////////////////////////////////////////////////////// 
.................... // Description : returns the the log base 10 of x 
.................... // Date : N/A 
.................... // 
.................... float32 log10(float32 x) 
.................... { 
....................    float32 r; 
....................  
....................    r = log(x); 
....................    r = r/LN10; 
....................    return(r); 
.................... } 
....................  
.................... //Overloaded functions for log10() for PCD 
.................... // Overloaded function log10() for data type - Float48 
.................... #if defined(__PCD__) 
.................... float48 log10(float48 x) 
.................... { 
....................    float48 r; 
....................  
....................    r = log(x); 
....................    r = r/LN10; 
....................    return(r); 
.................... } 
....................  
.................... // Overloaded function log10() for data type - Float64 
.................... float64 log10(float64 x) 
.................... { 
....................    float64 r; 
....................  
....................    r = log(x); 
....................    r = r/LN10; 
....................    return(r); 
.................... } 
.................... #endif 
.................... //////////////////////////////////////////////////////////////////////////// 
.................... //   float modf(float x) 
.................... //////////////////////////////////////////////////////////////////////////// 
.................... // Description :breaks the argument value int integral and fractional parts, 
.................... // ach of which have the same sign as the argument.  It stores the integral part 
.................... // as a float in the object pointed to by the iptr 
.................... // Returns : returns the signed fractional part of value. 
.................... // Date : N/A 
.................... // 
....................  
.................... float32 modf(float32 value,float32 *iptr) 
.................... { 
....................    *iptr=(value < 0.0)? ceil(value): floor(value); 
....................    return(value - *iptr); 
.................... } 
.................... //Overloaded functions for modf() for PCD 
.................... // Overloaded function modf() for data type - Float48 
.................... #if defined(__PCD__) 
.................... float48 modf(float48 value,float48 *iptr) 
.................... { 
....................    *iptr=(value < 0.0)? ceil(value): floor(value); 
....................    return(value - *iptr); 
.................... } 
.................... // Overloaded function modf() for data type - Float64 
.................... float64 modf(float64 value,float64 *iptr) 
.................... { 
....................    *iptr=(value < 0.0)? ceil(value): floor(value); 
....................    return(value - *iptr); 
.................... } 
.................... #endif 
....................  
.................... //////////////////////////////////////////////////////////////////////////// 
.................... //   float pwr(float x,float y) 
.................... //////////////////////////////////////////////////////////////////////////// 
.................... // Description : returns the value (x^y) 
.................... // Date : N/A 
.................... // Note : 0 is returned when the function will generate an imaginary number 
.................... // 
.................... float32 pwr(float32 x,float32 y) 
.................... { 
....................    if(0 > x && fmod(y, 1) == 0) { 
....................       if(fmod(y, 2) == 0) { 
....................          return (exp(log(-x) * y)); 
....................       } else { 
....................          return (-exp(log(-x) * y)); 
....................       } 
....................    } else if(0 > x && fmod(y, 1) != 0) { 
....................       return 0; 
....................    } else { 
....................       if(x != 0 || 0 >= y) { 
....................          return (exp(log(x) * y)); 
....................       } 
....................    } 
.................... } 
.................... //Overloaded functions for pwr() for PCD 
.................... // Overloaded function pwr() for data type - Float48 
.................... #if defined(__PCD__) 
.................... float48 pwr(float48 x,float48 y) 
.................... { 
....................    if(0 > x && fmod(y, 1) == 0) { 
....................       if(fmod(y, 2) == 0) { 
....................          return (exp(log(-x) * y)); 
....................       } else { 
....................          return (-exp(log(-x) * y)); 
....................       } 
....................    } else if(0 > x && fmod(y, 1) != 0) { 
....................       return 0; 
....................    } else { 
....................       if(x != 0 || 0 >= y) { 
....................          return (exp(log(x) * y)); 
....................       } 
....................    } 
.................... } 
.................... // Overloaded function pwr() for data type - Float64 
.................... float64 pwr(float64 x,float64 y) 
.................... { 
....................    if(0 > x && fmod(y, 1) == 0) { 
....................       if(fmod(y, 2) == 0) { 
....................          return (exp(log(-x) * y)); 
....................       } else { 
....................          return (-exp(log(-x) * y)); 
....................       } 
....................    } else if(0 > x && fmod(y, 1) != 0) { 
....................       return 0; 
....................    } else { 
....................       if(x != 0 || 0 >= y) { 
....................          return (exp(log(x) * y)); 
....................       } 
....................    } 
.................... } 
.................... #endif 
....................  
.................... //////////////////// Power functions //////////////////// 
....................  
.................... //////////////////////////////////////////////////////////////////////////// 
.................... //   float pow(float x,float y) 
.................... //////////////////////////////////////////////////////////////////////////// 
.................... // Description : returns the value (x^y) 
.................... // Date : N/A 
.................... // Note : 0 is returned when the function will generate an imaginary number 
.................... // 
.................... float32 pow(float32 x,float32 y) 
.................... { 
....................    if(0 > x && fmod(y, 1) == 0) { 
....................       if(fmod(y, 2) == 0) { 
....................          return (exp(log(-x) * y)); 
....................       } else { 
....................          return (-exp(log(-x) * y)); 
....................       } 
....................    } else if(0 > x && fmod(y, 1) != 0) { 
....................       return 0; 
....................    } else { 
....................       if(x != 0 || 0 >= y) { 
....................          return (exp(log(x) * y)); 
....................       } 
....................    } 
.................... } 
.................... //Overloaded functions for pow() for PCD 
.................... // Overloaded function for pow() data type - Float48 
.................... #if defined(__PCD__) 
.................... float48 pow(float48 x,float48 y) 
.................... { 
....................    if(0 > x && fmod(y, 1) == 0) { 
....................       if(fmod(y, 2) == 0) { 
....................          return (exp(log(-x) * y)); 
....................       } else { 
....................          return (-exp(log(-x) * y)); 
....................       } 
....................    } else if(0 > x && fmod(y, 1) != 0) { 
....................       return 0; 
....................    } else { 
....................       if(x != 0 || 0 >= y) { 
....................          return (exp(log(x) * y)); 
....................       } 
....................    } 
.................... } 
....................  
.................... // Overloaded function pow() for data type - Float64 
.................... float64 pow(float64 x,float64 y) 
.................... { 
....................    if(0 > x && fmod(y, 1) == 0) { 
....................       if(fmod(y, 2) == 0) { 
....................          return (exp(log(-x) * y)); 
....................       } else { 
....................          return (-exp(log(-x) * y)); 
....................       } 
....................    } else if(0 > x && fmod(y, 1) != 0) { 
....................       return 0; 
....................    } else { 
....................       if(x != 0 || 0 >= y) { 
....................          return (exp(log(x) * y)); 
....................       } 
....................    } 
.................... } 
.................... #endif 
....................  
.................... //////////////////////////////////////////////////////////////////////////// 
.................... //   float sqrt(float x) 
.................... //////////////////////////////////////////////////////////////////////////// 
.................... // Description : returns the square root of x 
.................... // Date : N/A 
.................... // 
.................... float32 sqrt(float32 x) 
.................... { 
....................    float32 y, res; 
....................    #if defined(__PCD__) 
....................    unsigned int16 data1,data2; 
....................    #endif 
....................    BYTE *p; 
....................  
....................    #ifdef _ERRNO 
....................    if(x < 0) 
....................    { 
....................       errno=EDOM; 
....................    } 
....................    #endif 
....................  
....................    if( x<=0.0) 
....................       return(0.0); 
....................  
....................    y=x; 
....................     
....................    #if !defined(__PCD__) 
....................     p=&y; 
....................    (*p)=(BYTE)((((unsigned int16)(*p)) + 127) >> 1); 
....................    #endif 
....................     
....................    #if defined(__PCD__) 
....................     p = (((unsigned int8 *)(&y))+3); 
....................     data1 = *(((unsigned int8 *)(&y))+3); 
....................     data2 = *(((unsigned int8 *)(&y))+2); 
....................     rotate_left(&data1,1);     
....................     if(bit_test(data2,7))     
....................     bit_set(data1,0);     
....................     data1 = ((data1+127) >>1); 
....................     bit_clear(data2,7); 
....................     if(bit_test(data1,0)) 
....................     bit_set(data2,7); 
....................     data1 = data1 >>1; 
....................     *(((unsigned int8 *)(&y))+3) = data1; 
....................     *(((unsigned int8 *)(&y))+2) = data2; 
....................      
....................   #endif 
....................  
....................    do { 
....................       res=y; 
....................       y+=(x/y); 
....................  
....................       #if !defined(__PCD__) 
....................      (*p)--; 
....................    #endif 
....................     
....................    #if defined(__PCD__) 
....................     data1 = *(((unsigned int8 *)(&y))+3); 
....................     data2 = *(((unsigned int8 *)(&y))+2); 
....................     rotate_left(&data1,1); 
....................     if(bit_test(data2,7)) 
....................     bit_set(data1,0);     
....................     data1--; 
....................     bit_clear(data2,7); 
....................     if(bit_test(data1,0)) 
....................     bit_set(data2,7); 
....................     data1 = data1 >>1; 
....................     *(((unsigned int8 *)(&y))+3) = data1; 
....................     *(((unsigned int8 *)(&y))+2) = data2; 
....................      
....................   #endif 
....................    } while(res != y); 
....................  
....................    return(res); 
.................... } 
.................... //Overloaded functions for sqrt() for PCD 
.................... // Overloaded function sqrt() for data type - Float48 
.................... #if defined(__PCD__) 
.................... float48 sqrt(float48 x) 
.................... { 
....................    float48 y, res; 
....................    unsigned int16 data1,data2; 
....................    BYTE *p; 
....................  
....................    #ifdef _ERRNO 
....................    if(x < 0) 
....................    { 
....................       errno=EDOM; 
....................    } 
....................    #endif 
....................  
....................    if( x<=0.0) 
....................       return(0.0); 
....................  
....................    y=x; 
....................     
....................    #if !defined(__PCD__) 
....................     p=&y; 
....................    (*p)=(BYTE)((((unsigned int16)(*p)) + 127) >> 1); 
....................    #endif 
....................     
....................    #if defined(__PCD__) 
....................     p = (((unsigned int8 *)(&y))+5); 
....................     data1 = *(((unsigned int8 *)(&y))+5); 
....................     data2 = *(((unsigned int8 *)(&y))+4); 
....................     rotate_left(&data1,1); 
....................     if(bit_test(data2,7)) 
....................     bit_set(data1,0);     
....................     data1 = ((data1+127) >>1); 
....................     bit_clear(data2,7); 
....................     if(bit_test(data1,0)) 
....................     bit_set(data2,7); 
....................     data1 = data1 >>1; 
....................     *(((unsigned int8 *)(&y))+5) = data1; 
....................     *(((unsigned int8 *)(&y))+4) = data2; 
....................      
....................   #endif 
....................  
....................    do { 
....................       res=y; 
....................       y+=(x/y); 
....................  
....................       #if !defined(__PCD__) 
....................      (*p)--; 
....................    #endif 
....................     
....................     data1 = *(((unsigned int8 *)(&y))+5); 
....................     data2 = *(((unsigned int8 *)(&y))+4); 
....................     rotate_left(&data1,1); 
....................     if(bit_test(data2,7)) 
....................     bit_set(data1,0);     
....................     data1--; 
....................     bit_clear(data2,7); 
....................     if(bit_test(data1,0)) 
....................     bit_set(data2,7); 
....................     data1 = data1 >>1; 
....................     *(((unsigned int8 *)(&y))+5) = data1; 
....................     *(((unsigned int8 *)(&y))+4) = data2; 
....................      
....................    } while(res != y); 
....................  
....................    return(res); 
.................... } 
....................  
.................... // Overloaded function sqrt() for data type - Float64 
.................... float64 sqrt(float64 x) 
.................... { 
....................    float64 y, res; 
....................    unsigned int16 *p; 
....................    unsigned int16 temp1,temp2; 
....................  
....................    #ifdef _ERRNO 
....................    if(x < 0) 
....................    { 
....................       errno=EDOM; 
....................    } 
....................    #endif 
....................  
....................    if( x<=0.0) 
....................       return(0.0); 
....................  
....................    y=x; 
....................    p= (((unsigned int16 *)(&y))+3); 
....................    temp1 = *p; 
....................    temp2 = *p; 
....................    bit_clear(temp1,15); 
....................    temp1 = (temp1>>4)+1023; 
....................    temp1 = temp1 >> 1; 
....................    temp1 = (temp1<<4) & 0xFFF0; 
....................    if(bit_test(temp2,15)) 
....................    bit_set(temp1,15); 
....................    temp2 = temp2 & 0x000F; 
....................    temp1 ^= temp2; 
....................     
....................    (*p) = temp1; 
....................     
....................    do { 
....................       res=y; 
....................       y+=(x/y); 
....................      temp1 = *p; 
....................      temp2 = *p; 
....................      bit_clear(temp1,15); 
....................      temp1 = (temp1>>4); 
....................      temp1--; 
....................      temp1 = (temp1<<4) & 0xFFF0; 
....................      if(bit_test(temp2,15)) 
....................      bit_set(temp1,15); 
....................      temp2 = temp2 & 0x000F; 
....................      temp1 ^= temp2; 
....................      (*p) = temp1; 
....................  
....................    } while(res != y); 
....................  
....................    return(res); 
.................... } 
.................... #endif 
....................  
.................... ////////////////////////////// Trig Functions ////////////////////////////// 
.................... #ifdef PI_DIV_BY_TWO 
.................... #undef PI_DIV_BY_TWO 
.................... #endif 
.................... #define PI_DIV_BY_TWO   1.5707963267948966 
.................... #ifdef TWOBYPI 
.................... #undef TWOBYPI 
.................... #define TWOBYPI          0.6366197723675813 
.................... #endif 
.................... //////////////////////////////////////////////////////////////////////////// 
.................... //   float cos(float x) 
.................... //////////////////////////////////////////////////////////////////////////// 
.................... // Description : returns the cosine value of the angle x, which is in radian 
.................... // Date : 9/20/2001 
.................... // 
.................... float32 cos(float32 x) 
.................... { 
....................    float32 y, t, t2 = 1.0; 
....................    unsigned int8 quad, i; 
....................    float32 frac; 
....................    float32 p[6] = {                    //by the series definition for cosine 
....................       -0.5,                            // sum ( ( (-1)^n * x^2n )/(2n)! ) 
....................        0.04166666666667, 
....................       -0.00138888888889, 
....................        0.00002480158730, 
....................       -0.00000027557319, 
....................        0.00000000208767, 
....................       //-0.00000000001147, 
....................       // 0.00000000000005 
....................    }; 
....................  
....................    if (x < 0) x = -x;                  // absolute value of input 
....................  
....................    quad = (unsigned int8)(x / PI_DIV_BY_TWO);    // quadrant 
....................    frac = (x / PI_DIV_BY_TWO) - quad;  // fractional part of input 
....................    quad = quad % 4;                    // quadrant (0 to 3) 
....................  
....................    if (quad == 0 || quad == 2) 
....................       t = frac * PI_DIV_BY_TWO; 
....................    else if (quad == 1) 
....................       t = (1-frac) * PI_DIV_BY_TWO; 
....................    else // should be 3 
....................       t = (frac-1) * PI_DIV_BY_TWO; 
....................  
....................    y = 1.0; 
....................    t = t * t; 
....................    for (i = 0; i <= 5; i++) 
....................    { 
....................       t2 = t2 * t; 
....................       y = y + p[i] * t2; 
....................    } 
....................  
....................    if (quad == 2 || quad == 1) 
....................       y = -y;  // correct sign 
....................  
....................    return (y); 
.................... } 
....................  
....................  
.................... //Overloaded functions for cos() for PCD 
.................... // Overloaded function cos() for data type - Float48 
.................... #if defined(__PCD__) 
.................... float48 cos(float48 x) 
.................... { 
....................    float48 y, t, t2 = 1.0; 
....................    unsigned int8 quad, i; 
....................    float48 frac; 
....................    float48 p[6] = {                    //by the series definition for cosine 
....................       -0.5,                            // sum ( ( (-1)^n * x^2n )/(2n)! ) 
....................        0.04166666666667, 
....................       -0.00138888888889, 
....................        0.00002480158730, 
....................       -0.00000027557319, 
....................        0.00000000208767, 
....................       //-0.00000000001147, 
....................       // 0.00000000000005 
....................    }; 
....................  
....................    if (x < 0) x = -x;                  // absolute value of input 
....................  
....................    quad = (unsigned int8)(x / PI_DIV_BY_TWO);    // quadrant 
....................    frac = (x / PI_DIV_BY_TWO) - quad;  // fractional part of input 
....................    quad = quad % 4;                    // quadrant (0 to 3) 
....................  
....................    if (quad == 0 || quad == 2) 
....................       t = frac * PI_DIV_BY_TWO; 
....................    else if (quad == 1) 
....................       t = (1-frac) * PI_DIV_BY_TWO; 
....................    else // should be 3 
....................       t = (frac-1) * PI_DIV_BY_TWO; 
....................  
....................    y = 0.999999999781; 
....................    t = t * t; 
....................    for (i = 0; i <= 5; i++) 
....................    { 
....................       t2 = t2 * t; 
....................       y = y + p[i] * t2; 
....................    } 
....................  
....................    if (quad == 2 || quad == 1) 
....................       y = -y;  // correct sign 
....................  
....................    return (y); 
.................... } 
....................  
.................... // Overloaded function cos() for data type - Float48 
.................... float64 cos(float64 x) 
.................... { 
....................    float64 y, t, t2 = 1.0; 
....................    unsigned int8 quad, i; 
....................    float64 frac; 
....................    float64 p[6] = {                    //by the series definition for cosine 
....................       -0.5,                            // sum ( ( (-1)^n * x^2n )/(2n)! ) 
....................        0.04166666666667, 
....................       -0.00138888888889, 
....................        0.00002480158730, 
....................       -0.00000027557319, 
....................        0.00000000208767, 
....................       //-0.00000000001147, 
....................       // 0.00000000000005 
....................    }; 
....................  
....................    if (x < 0) x = -x;                  // absolute value of input 
....................  
....................    quad = (unsigned int8)(x / PI_DIV_BY_TWO);    // quadrant 
....................    frac = (x / PI_DIV_BY_TWO) - quad;  // fractional part of input 
....................    quad = quad % 4;                    // quadrant (0 to 3) 
....................  
....................    if (quad == 0 || quad == 2) 
....................       t = frac * PI_DIV_BY_TWO; 
....................    else if (quad == 1) 
....................       t = (1-frac) * PI_DIV_BY_TWO; 
....................    else // should be 3 
....................       t = (frac-1) * PI_DIV_BY_TWO; 
....................  
....................    y = 0.999999999781; 
....................    t = t * t; 
....................    for (i = 0; i <= 5; i++) 
....................    { 
....................       t2 = t2 * t; 
....................       y = y + p[i] * t2; 
....................    } 
....................  
....................    if (quad == 2 || quad == 1) 
....................       y = -y;  // correct sign 
....................  
....................    return (y); 
.................... } 
....................  
.................... #endif 
....................  
.................... //////////////////////////////////////////////////////////////////////////// 
.................... //   float sin(float x) 
.................... //////////////////////////////////////////////////////////////////////////// 
.................... // Description : returns the sine value of the angle x, which is in radian 
.................... // Date : 9/20/2001 
.................... // 
.................... float32 sin(float32 x) 
.................... { 
....................    return cos(x - PI_DIV_BY_TWO); 
.................... } 
....................  
.................... //Overloaded functions for sin() for PCD 
.................... // Overloaded function sin() for data type - Float48 
.................... #if defined(__PCD__) 
.................... float48 sin(float48 x) 
.................... { 
....................    return cos(x - PI_DIV_BY_TWO); 
.................... } 
....................  
.................... // Overloaded function sin() for data type - Float48 
.................... float64 sin(float64 x) 
.................... { 
....................    return cos(x - PI_DIV_BY_TWO); 
.................... } 
.................... #endif 
....................  
.................... //////////////////////////////////////////////////////////////////////////// 
.................... //   float tan(float x) 
.................... //////////////////////////////////////////////////////////////////////////// 
.................... // Description : returns the tangent value of the angle x, which is in radian 
.................... // Date : 9/20/2001 
.................... // 
.................... float32 tan(float32 x) 
.................... { 
....................    float32 c, s; 
....................  
....................    c = cos(x); 
....................    if (c == 0.0) 
....................       return (1.0e+36); 
....................  
....................    s = sin(x); 
....................    return(s/c); 
.................... } 
.................... //Overloaded functions for tan() for PCD 
.................... // Overloaded function tan() for data type - Float48 
.................... #if defined(__PCD__) 
.................... float48 tan(float48 x) 
.................... { 
....................    float48 c, s; 
....................  
....................    c = cos(x); 
....................    if (c == 0.0) 
....................       return (1.0e+36); 
....................  
....................    s = sin(x); 
....................    return(s/c); 
.................... } 
....................  
.................... // Overloaded function tan() for data type - Float48 
.................... float64 tan(float64 x) 
.................... { 
....................    float64 c, s; 
....................  
....................    c = cos(x); 
....................    if (c == 0.0) 
....................       return (1.0e+36); 
....................  
....................    s = sin(x); 
....................    return(s/c); 
.................... } 
.................... #endif 
....................  
.................... float32 const pas[3] = {0.49559947, -4.6145309, 5.6036290}; 
.................... float32 const qas[3] = {1.0000000,  -5.5484666, 5.6036290}; 
....................  
.................... float32 ASIN_COS(float32 x, unsigned int8 n) 
.................... { 
....................    float32 y, res, r, y2; 
....................    int1 s; 
....................    #ifdef _ERRNO 
....................    if(x <-1 || x > 1) 
....................    { 
....................       errno=EDOM; 
....................    } 
....................    #endif 
....................    s = 0; 
....................    y = x; 
....................  
....................    if (x < 0) 
....................    { 
....................       s = 1; 
....................       y = -y; 
....................    } 
....................  
....................    if (y > 0.5) 
....................    { 
....................       y = sqrt((1.0 - y)/2.0); 
....................       n += 2; 
....................    } 
....................  
....................    y2=y*y; 
....................  
....................    res = pas[0]*y2 + pas[1]; 
....................    res = res*y2 + pas[2]; 
....................  
....................    r = qas[0]*y2 + qas[1]; 
....................    r = r*y2 + qas[2]; 
....................  
....................    res = y*res/r; 
....................  
....................    if (n & 2)     // |x| > 0.5 
....................       res = PI_DIV_BY_TWO - 2.0*res; 
....................    if (s) 
....................       res = -res; 
....................    if (n & 1)           // take arccos 
....................       res = PI_DIV_BY_TWO - res; 
....................  
....................    return(res); 
.................... } 
....................  
.................... //Overloaded functions for ASIN_COS() for PCD 
.................... // Overloaded function ASIN_COS() for data type - Float48 
.................... #if defined(__PCD__) 
.................... float48 ASIN_COS(float48 x, unsigned int8 n) 
.................... { 
....................    float48 y, res, r, y2; 
....................    int1 s; 
....................    #ifdef _ERRNO 
....................    if(x <-1 || x > 1) 
....................    { 
....................       errno=EDOM; 
....................    } 
....................    #endif 
....................    s = 0; 
....................    y = x; 
....................  
....................    if (x < 0) 
....................    { 
....................       s = 1; 
....................       y = -y; 
....................    } 
....................  
....................    if (y > 0.5) 
....................    { 
....................       y = sqrt((1.0 - y)/2.0); 
....................       n += 2; 
....................    } 
....................  
....................    y2=y*y; 
....................  
....................    res = pas[0]*y2 + pas[1]; 
....................    res = res*y2 + pas[2]; 
....................  
....................    r = qas[0]*y2 + qas[1]; 
....................    r = r*y2 + qas[2]; 
....................  
....................    res = y*res/r; 
....................  
....................    if (n & 2)     // |x| > 0.5 
....................       res = PI_DIV_BY_TWO - 2.0*res; 
....................    if (s) 
....................       res = -res; 
....................    if (n & 1)           // take arccos 
....................       res = PI_DIV_BY_TWO - res; 
....................  
....................    return(res); 
.................... } 
....................  
.................... // Overloaded function ASIN_COS() for data type - Float64 
.................... float64 ASIN_COS(float64 x, unsigned int8 n) 
.................... { 
....................    float64 y, res, r, y2; 
....................    int1 s; 
....................    #ifdef _ERRNO 
....................    if(x <-1 || x > 1) 
....................    { 
....................       errno=EDOM; 
....................    } 
....................    #endif 
....................    s = 0; 
....................    y = x; 
....................  
....................    if (x < 0) 
....................    { 
....................       s = 1; 
....................       y = -y; 
....................    } 
....................  
....................    if (y > 0.5) 
....................    { 
....................       y = sqrt((1.0 - y)/2.0); 
....................       n += 2; 
....................    } 
....................  
....................    y2=y*y; 
....................  
....................    res = pas[0]*y2 + pas[1]; 
....................    res = res*y2 + pas[2]; 
....................  
....................    r = qas[0]*y2 + qas[1]; 
....................    r = r*y2 + qas[2]; 
....................  
....................    res = y*res/r; 
....................  
....................    if (n & 2)     // |x| > 0.5 
....................       res = PI_DIV_BY_TWO - 2.0*res; 
....................    if (s) 
....................       res = -res; 
....................    if (n & 1)           // take arccos 
....................       res = PI_DIV_BY_TWO - res; 
....................  
....................    return(res); 
.................... } 
.................... #endif 
....................  
.................... //////////////////////////////////////////////////////////////////////////// 
.................... //   float asin(float x) 
.................... //////////////////////////////////////////////////////////////////////////// 
.................... // Description : returns the arcsine value of the value x. 
.................... // Date : N/A 
.................... // 
.................... float32 asin(float32 x) 
.................... { 
....................    float32 r; 
....................  
....................    r = ASIN_COS(x, 0); 
....................    return(r); 
.................... } 
.................... //Overloaded functions for asin() for PCD 
.................... // Overloaded function asin() for data type - Float48 
.................... #if defined(__PCD__) 
.................... float48 asin(float48 x) 
.................... { 
....................    float48 r; 
....................  
....................    r = ASIN_COS(x, 0); 
....................    return(r); 
.................... } 
....................  
.................... // Overloaded function asin() for data type - Float64 
.................... float64 asin(float64 x) 
.................... { 
....................    float64 r; 
....................  
....................    r = ASIN_COS(x, 0); 
....................    return(r); 
.................... } 
.................... #endif 
....................  
.................... //////////////////////////////////////////////////////////////////////////// 
.................... //   float acos(float x) 
.................... //////////////////////////////////////////////////////////////////////////// 
.................... // Description : returns the arccosine value of the value x. 
.................... // Date : N/A 
.................... // 
.................... float32 acos(float32 x) 
.................... { 
....................    float32 r; 
....................  
....................    r = ASIN_COS(x, 1); 
....................    return(r); 
.................... } 
.................... //Overloaded functions for acos() for PCD 
.................... // Overloaded function acos() for data type - Float48 
.................... #if defined(__PCD__) 
.................... float48 acos(float48 x) 
.................... { 
....................    float48 r; 
....................  
....................    r = ASIN_COS(x, 1); 
....................    return(r); 
.................... } 
....................  
.................... // Overloaded function acos() for data type - Float64 
.................... float64 acos(float64 x) 
.................... { 
....................    float64 r; 
....................  
....................    r = ASIN_COS(x, 1); 
....................    return(r); 
.................... } 
.................... #endif 
....................  
.................... float32 const pat[4] = {0.17630401, 5.6710795, 22.376096, 19.818457}; 
.................... float32 const qat[4] = {1.0000000,  11.368190, 28.982246, 19.818457}; 
....................  
.................... //////////////////////////////////////////////////////////////////////////// 
.................... //   float atan(float x) 
.................... //////////////////////////////////////////////////////////////////////////// 
.................... // Description : returns the arctangent value of the value x. 
.................... // Date : N/A 
.................... // 
.................... float32 atan(float32 x) 
.................... { 
....................    float32 y, res, r; 
....................    int1 s, flag; 
....................  
....................    s = 0; 
....................    flag = 0; 
....................    y = x; 
....................  
....................    if (x < 0) 
....................    { 
....................       s = 1; 
....................       y = -y; 
....................    } 
....................  
....................    if (y > 1.0) 
....................    { 
....................       y = 1.0/y; 
....................       flag = 1; 
....................    } 
....................  
....................    res = pat[0]*y*y + pat[1]; 
....................    res = res*y*y + pat[2]; 
....................    res = res*y*y + pat[3]; 
....................  
....................    r = qat[0]*y*y + qat[1]; 
....................    r = r*y*y + qat[2]; 
....................    r = r*y*y + qat[3]; 
....................  
....................    res = y*res/r; 
....................  
....................  
....................    if (flag)                              // for |x| > 1 
....................       res = PI_DIV_BY_TWO - res; 
....................    if (s) 
....................       res = -res; 
....................  
....................    return(res); 
.................... } 
.................... //Overloaded functions for atan() for PCD 
.................... // Overloaded function atan() for data type - Float48 
.................... #if defined(__PCD__) 
.................... float48 atan(float48 x) 
.................... { 
....................    float48 y, res, r; 
....................    int1 s, flag; 
....................  
....................    s = 0; 
....................    flag = 0; 
....................    y = x; 
....................  
....................    if (x < 0) 
....................    { 
....................       s = 1; 
....................       y = -y; 
....................    } 
....................  
....................    if (y > 1.0) 
....................    { 
....................       y = 1.0/y; 
....................       flag = 1; 
....................    } 
....................  
....................    res = pat[0]*y*y + pat[1]; 
....................    res = res*y*y + pat[2]; 
....................    res = res*y*y + pat[3]; 
....................  
....................    r = qat[0]*y*y + qat[1]; 
....................    r = r*y*y + qat[2]; 
....................    r = r*y*y + qat[3]; 
....................  
....................    res = y*res/r; 
....................  
....................  
....................    if (flag)                              // for |x| > 1 
....................       res = PI_DIV_BY_TWO - res; 
....................    if (s) 
....................       res = -res; 
....................  
....................    return(res); 
.................... } 
....................  
.................... // Overloaded function atan() for data type - Float64 
.................... float64 atan(float64 x) 
.................... { 
....................    float64 y, res, r; 
....................    int1 s, flag; 
....................  
....................    s = 0; 
....................    flag = 0; 
....................    y = x; 
....................  
....................    if (x < 0) 
....................    { 
....................       s = 1; 
....................       y = -y; 
....................    } 
....................  
....................    if (y > 1.0) 
....................    { 
....................       y = 1.0/y; 
....................       flag = 1; 
....................    } 
....................  
....................    res = pat[0]*y*y + pat[1]; 
....................    res = res*y*y + pat[2]; 
....................    res = res*y*y + pat[3]; 
....................  
....................    r = qat[0]*y*y + qat[1]; 
....................    r = r*y*y + qat[2]; 
....................    r = r*y*y + qat[3]; 
....................  
....................    res = y*res/r; 
....................  
....................  
....................    if (flag)                              // for |x| > 1 
....................       res = PI_DIV_BY_TWO - res; 
....................    if (s) 
....................       res = -res; 
....................  
....................    return(res); 
.................... } 
.................... #endif 
....................  
.................... ///////////////////////////////////////////////////////////////////////////// 
.................... //   float atan2(float y, float x) 
.................... ///////////////////////////////////////////////////////////////////////////// 
.................... // Description :computes the principal value of arc tangent of y/x, using the 
.................... // signs of both the arguments to determine the quadrant of the return value 
.................... // Returns : returns the arc tangent of y/x. 
.................... // Date : N/A 
.................... // 
....................  
.................... float32 atan2(float32 y,float32 x) 
.................... { 
....................    float32 z; 
....................    int1 sign; 
....................    unsigned int8 quad; 
....................    sign=0; 
....................    quad=0; //quadrant 
....................    quad=((y<=0.0)?((x<=0.0)?3:4):((x<0.0)?2:1)); 
....................    if(y<0.0) 
....................    { 
....................       sign=1; 
....................       y=-y; 
....................    } 
....................    if(x<0.0) 
....................    { 
....................       x=-x; 
....................    } 
....................    if (x==0.0) 
....................    { 
....................       if(y==0.0) 
....................       { 
....................       #ifdef _ERRNO 
....................       { 
....................          errno=EDOM; 
....................       } 
....................       #endif 
....................       } 
....................       else 
....................       { 
....................          if(sign) 
....................          { 
....................          return (-(PI_DIV_BY_TWO)); 
....................          } 
....................          else 
....................          { 
....................          return (PI_DIV_BY_TWO); 
....................          } 
....................       } 
....................    } 
....................    else 
....................    { 
....................       z=y/x; 
....................       switch(quad) 
....................       { 
....................          case 1: 
....................          { 
....................             return atan(z); 
....................             break; 
....................          } 
....................          case 2: 
....................          { 
.................... //            return (atan(z)+PI_DIV_BY_TWO);  //2L3122 
....................             return (PI-atan(z)); 
....................             break; 
....................          } 
....................          case 3: 
....................          { 
....................             return (atan(z)-PI); 
....................             break; 
....................          } 
....................          case 4: 
....................          { 
....................             return (-atan(z)); 
....................             break; 
....................          } 
....................       } 
....................    } 
.................... } 
....................  
.................... //Overloaded functions for atan2() for PCD 
.................... // Overloaded function atan2() for data type - Float48 
.................... #if defined(__PCD__) 
.................... float48 atan2(float48 y,float48 x) 
.................... { 
....................    float48 z; 
....................    int1 sign; 
....................    unsigned int8 quad; 
....................    sign=0; 
....................    quad=0; //quadrant 
....................    quad=((y<=0.0)?((x<=0.0)?3:4):((x<0.0)?2:1)); 
....................    if(y<0.0) 
....................    { 
....................       sign=1; 
....................       y=-y; 
....................    } 
....................    if(x<0.0) 
....................    { 
....................       x=-x; 
....................    } 
....................    if (x==0.0) 
....................    { 
....................       if(y==0.0) 
....................       { 
....................       #ifdef _ERRNO 
....................       { 
....................          errno=EDOM; 
....................       } 
....................       #endif 
....................       } 
....................       else 
....................       { 
....................          if(sign) 
....................          { 
....................          return (-(PI_DIV_BY_TWO)); 
....................          } 
....................          else 
....................          { 
....................          return (PI_DIV_BY_TWO); 
....................          } 
....................       } 
....................    } 
....................    else 
....................    { 
....................       z=y/x; 
....................       switch(quad) 
....................       { 
....................          case 1: 
....................          { 
....................             return atan(z); 
....................             break; 
....................          } 
....................          case 2: 
....................          { 
.................... //            return (atan(z)+PI_DIV_BY_TWO);  //2L3122 
....................             return (PI-atan(z)); 
....................             break; 
....................          } 
....................          case 3: 
....................          { 
....................             return (atan(z)-PI); 
....................             break; 
....................          } 
....................          case 4: 
....................          { 
....................             return (-atan(z)); 
....................             break; 
....................          } 
....................       } 
....................    } 
.................... } 
....................  
.................... // Overloaded function atan2() for data type - Float64 
.................... float64 atan2(float64 y,float64 x) 
.................... { 
....................    float64 z; 
....................    int1 sign; 
....................    unsigned int8 quad; 
....................    sign=0; 
....................    quad=0; //quadrant 
....................    quad=((y<=0.0)?((x<=0.0)?3:4):((x<0.0)?2:1)); 
....................    if(y<0.0) 
....................    { 
....................       sign=1; 
....................       y=-y; 
....................    } 
....................    if(x<0.0) 
....................    { 
....................       x=-x; 
....................    } 
....................    if (x==0.0) 
....................    { 
....................       if(y==0.0) 
....................       { 
....................       #ifdef _ERRNO 
....................       { 
....................          errno=EDOM; 
....................       } 
....................       #endif 
....................       } 
....................       else 
....................       { 
....................          if(sign) 
....................          { 
....................          return (-(PI_DIV_BY_TWO)); 
....................          } 
....................          else 
....................          { 
....................          return (PI_DIV_BY_TWO); 
....................          } 
....................       } 
....................    } 
....................    else 
....................    { 
....................       z=y/x; 
....................       switch(quad) 
....................       { 
....................          case 1: 
....................          { 
....................             return atan(z); 
....................             break; 
....................          } 
....................          case 2: 
....................          { 
.................... //            return (atan(z)+PI_DIV_BY_TWO);  //2L3122 
....................             return (PI-atan(z)); 
....................             break; 
....................          } 
....................          case 3: 
....................          { 
....................             return (atan(z)-PI); 
....................             break; 
....................          } 
....................          case 4: 
....................          { 
....................             return (-atan(z)); 
....................             break; 
....................          } 
....................       } 
....................    } 
.................... } 
.................... #endif 
....................  
.................... //////////////////// Hyperbolic functions //////////////////// 
....................  
.................... //////////////////////////////////////////////////////////////////////////// 
.................... //   float cosh(float x) 
.................... //////////////////////////////////////////////////////////////////////////// 
.................... // Description : Computes the hyperbolic cosine value of x 
.................... // Returns : returns the hyperbolic cosine value of x 
.................... // Date : N/A 
.................... // 
....................  
.................... float32 cosh(float32 x) 
.................... { 
....................    return ((exp(x)+exp(-x))/2); 
.................... } 
.................... //Overloaded functions for cosh() for PCD 
.................... // Overloaded function cosh() for data type - Float48 
.................... #if defined(__PCD__) 
.................... float48 cosh(float48 x) 
.................... { 
....................    return ((exp(x)+exp(-x))/2); 
.................... } 
....................  
.................... // Overloaded function cosh() for data type - Float64 
.................... float64 cosh(float64 x) 
.................... { 
....................    return ((exp(x)+exp(-x))/2); 
.................... } 
.................... #endif 
....................  
.................... //////////////////////////////////////////////////////////////////////////// 
.................... //   float sinh(float x) 
.................... //////////////////////////////////////////////////////////////////////////// 
.................... // Description : Computes the hyperbolic sine value of x 
.................... // Returns : returns the hyperbolic sine value of x 
.................... // Date : N/A 
.................... // 
....................  
.................... float32 sinh(float32 x) 
.................... { 
....................  
....................    return ((exp(x) - exp(-x))/2); 
.................... } 
.................... //Overloaded functions for sinh() for PCD 
.................... // Overloaded function sinh() for data type - Float48 
.................... #if defined(__PCD__) 
.................... float48 sinh(float48 x) 
.................... { 
....................  
....................    return ((exp(x) - exp(-x))/2); 
.................... } 
....................  
.................... // Overloaded function sinh() for data type - Float48 
.................... float64 sinh(float64 x) 
.................... { 
....................  
....................    return ((exp(x) - exp(-x))/2); 
.................... } 
.................... #endif 
....................  
.................... //////////////////////////////////////////////////////////////////////////// 
.................... //   float tanh(float x) 
.................... //////////////////////////////////////////////////////////////////////////// 
.................... // Description : Computes the hyperbolic tangent value of x 
.................... // Returns : returns the hyperbolic tangent value of x 
.................... // Date : N/A 
.................... // 
....................  
.................... float32 tanh(float32 x) 
.................... { 
....................    return(sinh(x)/cosh(x)); 
.................... } 
.................... //Overloaded functions for tanh() for PCD 
.................... // Overloaded function tanh() for data type - Float48 
.................... #if defined(__PCD__) 
.................... float48 tanh(float48 x) 
.................... { 
....................    return(sinh(x)/cosh(x)); 
.................... } 
....................  
.................... // Overloaded function tanh() for data type - Float64 
.................... float64 tanh(float64 x) 
.................... { 
....................    return(sinh(x)/cosh(x)); 
.................... } 
.................... #endif 
....................  
.................... //////////////////////////////////////////////////////////////////////////// 
.................... //   float frexp(float x, signed int *exp) 
.................... //////////////////////////////////////////////////////////////////////////// 
.................... // Description : breaks a floating point number into a normalized fraction and an integral 
.................... // power of 2. It stores the integer in the signed int object pointed to by exp. 
.................... // Returns : returns the value x, such that x is a double with magnitude in the interval 
.................... // [1/2,1) or zero, and value equals x times 2 raised to the power *exp.If value is zero, 
.................... // both parts of the result are zero. 
.................... // Date : N/A 
.................... // 
....................  
.................... #define LOG2 .30102999566398119521 
.................... float32 frexp(float32 x, signed int8 *exp) 
.................... { 
....................    float32 res; 
....................    int1 sign = 0; 
....................    if(x == 0.0) 
....................    { 
....................       *exp=0; 
....................       return (0.0); 
....................    } 
....................    if(x < 0.0) 
....................    { 
....................      x=-x; 
....................      sign=1; 
....................    } 
....................    if (x > 1.0) 
....................    { 
....................       *exp=(ceil(log10(x)/LOG2)); 
....................       res=x/(pow(2, *exp)); 
....................       if (res == 1) 
....................       { 
....................          *exp=*exp+1; 
....................           res=.5; 
....................       } 
....................    } 
....................    else 
....................    { 
....................       if(x < 0.5) 
....................       { 
....................          *exp=-1; 
....................          res=x*2; 
....................       } 
....................       else 
....................       { 
....................          *exp=0; 
....................           res=x; 
....................       } 
....................    } 
....................    if(sign) 
....................    { 
....................       res=-res; 
....................    } 
....................    return res; 
.................... } 
....................  
.................... //Overloaded functions for frexp() for PCD 
.................... // Overloaded function frexp() for data type - Float48 
.................... #if defined(__PCD__) 
.................... float48 frexp(float48 x, signed int8 *exp) 
.................... { 
....................    float48 res; 
....................    int1 sign = 0; 
....................    if(x == 0.0) 
....................    { 
....................       *exp=0; 
....................       return (0.0); 
....................    } 
....................    if(x < 0.0) 
....................    { 
....................      x=-x; 
....................      sign=1; 
....................    } 
....................    if (x > 1.0) 
....................    { 
....................       *exp=(ceil(log10(x)/LOG2)); 
....................       res=x/(pow(2, *exp)); 
....................       if (res == 1) 
....................       { 
....................          *exp=*exp+1; 
....................           res=.5; 
....................       } 
....................    } 
....................    else 
....................    { 
....................       if(x < 0.5) 
....................       { 
....................          *exp=-1; 
....................          res=x*2; 
....................       } 
....................       else 
....................       { 
....................          *exp=0; 
....................           res=x; 
....................       } 
....................    } 
....................    if(sign) 
....................    { 
....................       res=-res; 
....................    } 
....................    return res; 
.................... } 
....................  
.................... // Overloaded function frexp() for data type - Float64 
.................... float64 frexp(float64 x, signed int8 *exp) 
.................... { 
....................    float64 res; 
....................    int1 sign = 0; 
....................    if(x == 0.0) 
....................    { 
....................       *exp=0; 
....................       return (0.0); 
....................    } 
....................    if(x < 0.0) 
....................    { 
....................      x=-x; 
....................      sign=1; 
....................    } 
....................    if (x > 1.0) 
....................    { 
....................       *exp=(ceil(log10(x)/LOG2)); 
....................       res=x/(pow(2, *exp)); 
....................       if (res == 1) 
....................       { 
....................          *exp=*exp+1; 
....................           res=.5; 
....................       } 
....................    } 
....................    else 
....................    { 
....................       if(x < 0.5) 
....................       { 
....................          *exp=-1; 
....................          res=x*2; 
....................       } 
....................       else 
....................       { 
....................          *exp=0; 
....................           res=x; 
....................       } 
....................    } 
....................    if(sign) 
....................    { 
....................       res=-res; 
....................    } 
....................    return res; 
.................... } 
.................... #endif 
....................  
.................... ////////////////////////////////////////////////////////////////////////////// 
.................... //   float ldexp(float x, signed int *exp) 
.................... ////////////////////////////////////////////////////////////////////////////// 
.................... // Description : multiplies a floating point number by an integral power of 2. 
.................... // Returns : returns the value of x times 2 raised to the power exp. 
.................... // Date : N/A 
.................... // 
....................  
.................... float32 ldexp(float32 value, signed int8 exp) 
.................... { 
....................    return (value * pow(2,exp)); 
.................... } 
.................... //Overloaded functions for ldexp() for PCD 
.................... // Overloaded function ldexp() for data type - Float48 
....................  
.................... #if defined(__PCD__) 
.................... float48 ldexp(float48 value, signed int8 exp) 
.................... { 
....................    return (value * pow(2,exp)); 
.................... } 
.................... // Overloaded function ldexp() for data type - Float64 
.................... float64 ldexp(float64 value, signed int8 exp) 
.................... { 
....................    return (value * pow(2,exp)); 
.................... } 
.................... #endif 
....................  
.................... #endif 
....................  
.................... #include <DS1302.c> 
.................... ////////////////////////////////////////////////////////////////////////// 
.................... ////                               DS1302.C                           //// 
.................... ////                     Driver for Real Time Clock                   //// 
.................... ////                                                                  //// 
.................... ////  rtc_init()                                   Call after power up//// 
.................... ////                                                                  //// 
.................... ////  rtc_set_datetime(day,mth,year,dow,hour,min)  Set the date/time  //// 
.................... ////                                                                  //// 
.................... ////  rtc_get_date(day,mth,year,dow)               Get the date       //// 
.................... ////                                                                  //// 
.................... ////  rtc_get_time(hr,min,sec)                     Get the time       //// 
.................... ////                                                                  //// 
.................... ////  rtc_write_nvr(address,data)                  Write to NVR       //// 
.................... ////                                                                  //// 
.................... ////  data = rtc_read_nvr(address)                 Read from NVR      //// 
.................... ////                                                                  //// 
.................... ////  get_bcd(data)                              Convert data to BCD  //// 
.................... ////                                                                  //// 
.................... ////  rm_bcd(data)                               Convert data to int  //// 
.................... ////                                                                  //// 
.................... ////////////////////////////////////////////////////////////////////////// 
.................... ////        (C) Copyright 1996,2003 Custom Computer Services          //// 
.................... //// This source code may only be used by licensed users of the CCS C //// 
.................... //// compiler.  This source code may only be distributed to other     //// 
.................... //// licensed users of the CCS C compiler.  No other use, reproduction//// 
.................... //// or distribution is permitted without written permission.         //// 
.................... //// Derivative programs created using this software in object code   //// 
.................... //// form are not restricted in any way.                              //// 
.................... ////////////////////////////////////////////////////////////////////////// 
....................  
.................... //#ifndef RTC_SCLK 
....................  
.................... #define RTC_SCLK PIN_C3 
.................... #define RTC_IO   PIN_C2 
.................... #define RTC_RST  PIN_C1 
....................  
.................... //#endif 
....................  
.................... void write_ds1302_byte(BYTE cmd) { 
....................    BYTE i; 
....................  
....................    for(i=0;i<=7;++i) { 
*
03AEC:  MOVLB  7
03AEE:  CLRF   xC5
03AF0:  MOVF   xC5,W
03AF2:  SUBLW  07
03AF4:  BNC   3B10
....................       output_bit(RTC_IO, shift_right(&cmd,1,0) ); 
03AF6:  BCF    FD8.0
03AF8:  RRCF   xC4,F
03AFA:  BC    3B00
03AFC:  BCF    F8B.2
03AFE:  BRA    3B02
03B00:  BSF    F8B.2
03B02:  BCF    F94.2
....................       output_high(RTC_SCLK); 
03B04:  BCF    F94.3
03B06:  BSF    F8B.3
....................       output_low(RTC_SCLK); 
03B08:  BCF    F94.3
03B0A:  BCF    F8B.3
....................    } 
03B0C:  INCF   xC5,F
03B0E:  BRA    3AF0
.................... } 
03B10:  MOVLB  0
03B12:  RETLW  00
....................  
.................... void write_ds1302(BYTE cmd, BYTE data) { 
....................  
....................    output_high(RTC_RST); 
03B14:  BCF    F94.1
03B16:  BSF    F8B.1
....................    write_ds1302_byte(cmd); 
03B18:  MOVFF  7C2,7C4
03B1C:  RCALL  3AEC
....................    write_ds1302_byte(data); 
03B1E:  MOVFF  7C3,7C4
03B22:  RCALL  3AEC
....................    output_low(RTC_RST); 
03B24:  BCF    F94.1
03B26:  BCF    F8B.1
.................... } 
03B28:  RETLW  00
....................  
.................... BYTE read_ds1302(BYTE cmd) { 
....................    BYTE i,data; 
....................  
....................    output_high(RTC_RST); 
03B2A:  BCF    F94.1
03B2C:  BSF    F8B.1
....................    write_ds1302_byte(cmd); 
03B2E:  MOVFF  7BF,7C4
03B32:  RCALL  3AEC
....................     
....................    input(RTC_IO); 
03B34:  BSF    F94.2
....................    delay_us(10); 
03B36:  MOVLW  10
03B38:  MOVWF  00
03B3A:  DECFSZ 00,F
03B3C:  BRA    3B3A
03B3E:  NOP   
....................           
....................    for(i=0;i<=7;++i) { 
03B40:  MOVLB  7
03B42:  CLRF   xC0
03B44:  MOVF   xC0,W
03B46:  SUBLW  07
03B48:  BNC   3B74
....................       shift_right(&data,1,input(RTC_IO)); 
03B4A:  BSF    F94.2
03B4C:  BTFSC  F82.2
03B4E:  BRA    3B54
03B50:  BCF    FD8.0
03B52:  BRA    3B56
03B54:  BSF    FD8.0
03B56:  RRCF   xC1,F
....................       output_high(RTC_SCLK); 
03B58:  BCF    F94.3
03B5A:  BSF    F8B.3
....................       delay_us(20); 
03B5C:  MOVLW  21
03B5E:  MOVWF  00
03B60:  DECFSZ 00,F
03B62:  BRA    3B60
....................       output_low(RTC_SCLK); 
03B64:  BCF    F94.3
03B66:  BCF    F8B.3
....................       delay_us(20); 
03B68:  MOVLW  21
03B6A:  MOVWF  00
03B6C:  DECFSZ 00,F
03B6E:  BRA    3B6C
....................    } 
03B70:  INCF   xC0,F
03B72:  BRA    3B44
....................    output_low(RTC_RST); 
03B74:  BCF    F94.1
03B76:  BCF    F8B.1
....................  
....................    return(data); 
03B78:  MOVFF  7C1,01
.................... } 
03B7C:  MOVLB  0
03B7E:  RETLW  00
....................  
.................... void rtc_init() { 
....................    BYTE x; 
....................    output_low(RTC_RST); 
03B80:  BCF    F94.1
03B82:  BCF    F8B.1
....................    delay_us(20); 
03B84:  MOVLW  21
03B86:  MOVWF  00
03B88:  DECFSZ 00,F
03B8A:  BRA    3B88
....................    output_low(RTC_SCLK); 
03B8C:  BCF    F94.3
03B8E:  BCF    F8B.3
....................    write_ds1302(0x8e,0); 
03B90:  MOVLW  8E
03B92:  MOVLB  7
03B94:  MOVWF  xC2
03B96:  CLRF   xC3
03B98:  MOVLB  0
03B9A:  RCALL  3B14
....................    write_ds1302(0x90,0xa4); 
03B9C:  MOVLW  90
03B9E:  MOVLB  7
03BA0:  MOVWF  xC2
03BA2:  MOVLW  A4
03BA4:  MOVWF  xC3
03BA6:  MOVLB  0
03BA8:  RCALL  3B14
....................    x=read_ds1302(0x81); 
03BAA:  MOVLW  81
03BAC:  MOVLB  7
03BAE:  MOVWF  xBF
03BB0:  MOVLB  0
03BB2:  RCALL  3B2A
03BB4:  MOVFF  01,7BB
....................    if((x & 0x80)!=0) 
03BB8:  MOVLB  7
03BBA:  MOVF   xBB,W
03BBC:  ANDLW  80
03BBE:  BZ    3BCC
....................      write_ds1302(0x80,0); 
03BC0:  MOVLW  80
03BC2:  MOVWF  xC2
03BC4:  CLRF   xC3
03BC6:  MOVLB  0
03BC8:  RCALL  3B14
03BCA:  MOVLB  7
.................... } 
03BCC:  MOVLB  0
03BCE:  GOTO   10724 (RETURN)
....................  
.................... byte get_bcd(BYTE data) 
.................... { 
....................    byte nibh; 
....................    byte nibl; 
....................  
....................    nibh=data/10; 
*
04B4E:  MOVFF  7C1,7D0
04B52:  MOVLW  0A
04B54:  MOVLB  7
04B56:  MOVWF  xD1
04B58:  MOVLB  0
04B5A:  CALL   2022
04B5E:  MOVFF  01,7C2
....................    nibl=data-(nibh*10); 
04B62:  MOVLB  7
04B64:  MOVF   xC2,W
04B66:  MULLW  0A
04B68:  MOVF   FF3,W
04B6A:  SUBWF  xC1,W
04B6C:  MOVWF  xC3
....................  
....................    return((nibh<<4)|nibl); 
04B6E:  SWAPF  xC2,W
04B70:  MOVWF  00
04B72:  MOVLW  F0
04B74:  ANDWF  00,F
04B76:  MOVF   00,W
04B78:  IORWF  xC3,W
04B7A:  MOVWF  01
.................... } 
04B7C:  MOVLB  0
04B7E:  RETLW  00
....................  
.................... byte rm_bcd(BYTE data) 
.................... { 
....................    byte i; 
....................  
....................    i=data; 
*
03BDA:  MOVFF  7C0,7C1
....................    data=(i>>4)*10; 
03BDE:  MOVLB  7
03BE0:  SWAPF  xC1,W
03BE2:  MOVWF  00
03BE4:  MOVLW  0F
03BE6:  ANDWF  00,F
03BE8:  MOVF   00,W
03BEA:  MULLW  0A
03BEC:  MOVFF  FF3,7C0
....................    data=data+(i<<4>>4); 
03BF0:  SWAPF  xC1,W
03BF2:  MOVWF  00
03BF4:  MOVLW  F0
03BF6:  ANDWF  00,F
03BF8:  MOVF   00,W
03BFA:  SWAPF  00,F
03BFC:  MOVLW  0F
03BFE:  ANDWF  00,F
03C00:  MOVF   00,W
03C02:  ADDWF  xC0,F
....................  
....................    return data; 
03C04:  MOVFF  7C0,01
.................... } 
03C08:  MOVLB  0
03C0A:  RETLW  00
....................  
.................... void rtc_set_datetime(BYTE day, BYTE mth, BYTE year, BYTE dow, BYTE hr, BYTE min) { 
....................  
....................    write_ds1302(0x86,get_bcd(day)); 
*
04B80:  MOVFF  7BB,7C1
04B84:  RCALL  4B4E
04B86:  MOVFF  01,7C1
04B8A:  MOVLW  86
04B8C:  MOVLB  7
04B8E:  MOVWF  xC2
04B90:  MOVFF  01,7C3
04B94:  MOVLB  0
04B96:  CALL   3B14
....................    write_ds1302(0x88,get_bcd(mth)); 
04B9A:  MOVFF  7BC,7C1
04B9E:  RCALL  4B4E
04BA0:  MOVFF  01,7C1
04BA4:  MOVLW  88
04BA6:  MOVLB  7
04BA8:  MOVWF  xC2
04BAA:  MOVFF  01,7C3
04BAE:  MOVLB  0
04BB0:  CALL   3B14
....................    write_ds1302(0x8c,get_bcd(year)); 
04BB4:  MOVFF  7BD,7C1
04BB8:  RCALL  4B4E
04BBA:  MOVFF  01,7C1
04BBE:  MOVLW  8C
04BC0:  MOVLB  7
04BC2:  MOVWF  xC2
04BC4:  MOVFF  01,7C3
04BC8:  MOVLB  0
04BCA:  CALL   3B14
....................    write_ds1302(0x8a,get_bcd(dow)); 
04BCE:  MOVFF  7BE,7C1
04BD2:  RCALL  4B4E
04BD4:  MOVFF  01,7C1
04BD8:  MOVLW  8A
04BDA:  MOVLB  7
04BDC:  MOVWF  xC2
04BDE:  MOVFF  01,7C3
04BE2:  MOVLB  0
04BE4:  CALL   3B14
....................    write_ds1302(0x84,get_bcd(hr)); 
04BE8:  MOVFF  7BF,7C1
04BEC:  RCALL  4B4E
04BEE:  MOVFF  01,7C1
04BF2:  MOVLW  84
04BF4:  MOVLB  7
04BF6:  MOVWF  xC2
04BF8:  MOVFF  01,7C3
04BFC:  MOVLB  0
04BFE:  CALL   3B14
....................    write_ds1302(0x82,get_bcd(min)); 
04C02:  MOVFF  7C0,7C1
04C06:  RCALL  4B4E
04C08:  MOVFF  01,7C1
04C0C:  MOVLW  82
04C0E:  MOVLB  7
04C10:  MOVWF  xC2
04C12:  MOVFF  01,7C3
04C16:  MOVLB  0
04C18:  CALL   3B14
....................    write_ds1302(0x80,get_bcd(0)); 
04C1C:  MOVLB  7
04C1E:  CLRF   xC1
04C20:  MOVLB  0
04C22:  RCALL  4B4E
04C24:  MOVFF  01,7C1
04C28:  MOVLW  80
04C2A:  MOVLB  7
04C2C:  MOVWF  xC2
04C2E:  MOVFF  01,7C3
04C32:  MOVLB  0
04C34:  CALL   3B14
.................... } 
04C38:  GOTO   1367C (RETURN)
....................  
.................... void rtc_get_date(BYTE& day, BYTE& mth, BYTE& year, BYTE& dow) { 
....................    day = rm_bcd(read_ds1302(0x87)); 
*
1075E:  MOVLW  87
10760:  MOVLB  7
10762:  MOVWF  xBF
10764:  MOVLB  0
10766:  CALL   3B2A
1076A:  MOVFF  01,7BB
1076E:  MOVFF  01,7C0
10772:  CALL   3BDA
10776:  MOVFF  01,773
*
108BE:  MOVLW  87
108C0:  MOVLB  7
108C2:  MOVWF  xBF
108C4:  MOVLB  0
108C6:  CALL   3B2A
108CA:  MOVFF  01,7BB
108CE:  MOVFF  01,7C0
108D2:  CALL   3BDA
108D6:  MOVFF  01,773
*
136CE:  MOVLW  87
136D0:  MOVLB  7
136D2:  MOVWF  xBF
136D4:  MOVLB  0
136D6:  CALL   3B2A
136DA:  MOVFF  01,7BB
136DE:  MOVFF  01,7C0
136E2:  CALL   3BDA
136E6:  MOVFF  01,773
....................    mth = rm_bcd(read_ds1302(0x89)); 
*
1077A:  MOVLW  89
1077C:  MOVLB  7
1077E:  MOVWF  xBF
10780:  MOVLB  0
10782:  CALL   3B2A
10786:  MOVFF  01,7BB
1078A:  MOVFF  01,7C0
1078E:  CALL   3BDA
10792:  MOVFF  01,778
*
108DA:  MOVLW  89
108DC:  MOVLB  7
108DE:  MOVWF  xBF
108E0:  MOVLB  0
108E2:  CALL   3B2A
108E6:  MOVFF  01,7BB
108EA:  MOVFF  01,7C0
108EE:  CALL   3BDA
108F2:  MOVFF  01,778
*
136EA:  MOVLW  89
136EC:  MOVLB  7
136EE:  MOVWF  xBF
136F0:  MOVLB  0
136F2:  CALL   3B2A
136F6:  MOVFF  01,7BB
136FA:  MOVFF  01,7C0
136FE:  CALL   3BDA
13702:  MOVFF  01,778
....................    year = rm_bcd(read_ds1302(0x8d)); 
*
10796:  MOVLW  8D
10798:  MOVLB  7
1079A:  MOVWF  xBF
1079C:  MOVLB  0
1079E:  CALL   3B2A
107A2:  MOVFF  01,7BB
107A6:  MOVFF  01,7C0
107AA:  CALL   3BDA
107AE:  MOVFF  01,771
*
108F6:  MOVLW  8D
108F8:  MOVLB  7
108FA:  MOVWF  xBF
108FC:  MOVLB  0
108FE:  CALL   3B2A
10902:  MOVFF  01,7BB
10906:  MOVFF  01,7C0
1090A:  CALL   3BDA
1090E:  MOVFF  01,771
*
13706:  MOVLW  8D
13708:  MOVLB  7
1370A:  MOVWF  xBF
1370C:  MOVLB  0
1370E:  CALL   3B2A
13712:  MOVFF  01,7BB
13716:  MOVFF  01,7C0
1371A:  CALL   3BDA
1371E:  MOVFF  01,771
....................    dow = rm_bcd(read_ds1302(0x8b)); 
*
107B2:  MOVLW  8B
107B4:  MOVLB  7
107B6:  MOVWF  xBF
107B8:  MOVLB  0
107BA:  CALL   3B2A
107BE:  MOVFF  01,7BB
107C2:  MOVFF  01,7C0
107C6:  CALL   3BDA
107CA:  MOVFF  01,777
*
10912:  MOVLW  8B
10914:  MOVLB  7
10916:  MOVWF  xBF
10918:  MOVLB  0
1091A:  CALL   3B2A
1091E:  MOVFF  01,7BB
10922:  MOVFF  01,7C0
10926:  CALL   3BDA
1092A:  MOVFF  01,777
*
13722:  MOVLW  8B
13724:  MOVLB  7
13726:  MOVWF  xBF
13728:  MOVLB  0
1372A:  CALL   3B2A
1372E:  MOVFF  01,7BB
13732:  MOVFF  01,7C0
13736:  CALL   3BDA
1373A:  MOVFF  01,777
.................... } 
....................  
.................... void rtc_get_time(BYTE& hr, BYTE& min, BYTE& sec) { 
....................    hr = rm_bcd(read_ds1302(0x85)); 
*
107CE:  MOVLW  85
107D0:  MOVLB  7
107D2:  MOVWF  xBF
107D4:  MOVLB  0
107D6:  CALL   3B2A
107DA:  MOVFF  01,7BB
107DE:  MOVFF  01,7C0
107E2:  CALL   3BDA
107E6:  MOVFF  01,774
*
1092E:  MOVLW  85
10930:  MOVLB  7
10932:  MOVWF  xBF
10934:  MOVLB  0
10936:  CALL   3B2A
1093A:  MOVFF  01,7BB
1093E:  MOVFF  01,7C0
10942:  CALL   3BDA
10946:  MOVFF  01,774
*
1373E:  MOVLW  85
13740:  MOVLB  7
13742:  MOVWF  xBF
13744:  MOVLB  0
13746:  CALL   3B2A
1374A:  MOVFF  01,7BB
1374E:  MOVFF  01,7C0
13752:  CALL   3BDA
13756:  MOVFF  01,774
....................    min = rm_bcd(read_ds1302(0x83)); 
*
107EA:  MOVLW  83
107EC:  MOVLB  7
107EE:  MOVWF  xBF
107F0:  MOVLB  0
107F2:  CALL   3B2A
107F6:  MOVFF  01,7BB
107FA:  MOVFF  01,7C0
107FE:  CALL   3BDA
10802:  MOVFF  01,775
*
1094A:  MOVLW  83
1094C:  MOVLB  7
1094E:  MOVWF  xBF
10950:  MOVLB  0
10952:  CALL   3B2A
10956:  MOVFF  01,7BB
1095A:  MOVFF  01,7C0
1095E:  CALL   3BDA
10962:  MOVFF  01,775
*
1375A:  MOVLW  83
1375C:  MOVLB  7
1375E:  MOVWF  xBF
13760:  MOVLB  0
13762:  CALL   3B2A
13766:  MOVFF  01,7BB
1376A:  MOVFF  01,7C0
1376E:  CALL   3BDA
13772:  MOVFF  01,775
....................    sec = rm_bcd(read_ds1302(0x81)); 
*
10806:  MOVLW  81
10808:  MOVLB  7
1080A:  MOVWF  xBF
1080C:  MOVLB  0
1080E:  CALL   3B2A
10812:  MOVFF  01,7BB
10816:  MOVFF  01,7C0
1081A:  CALL   3BDA
1081E:  MOVFF  01,776
*
10966:  MOVLW  81
10968:  MOVLB  7
1096A:  MOVWF  xBF
1096C:  MOVLB  0
1096E:  CALL   3B2A
10972:  MOVFF  01,7BB
10976:  MOVFF  01,7C0
1097A:  CALL   3BDA
1097E:  MOVFF  01,776
*
13776:  MOVLW  81
13778:  MOVLB  7
1377A:  MOVWF  xBF
1377C:  MOVLB  0
1377E:  CALL   3B2A
13782:  MOVFF  01,7BB
13786:  MOVFF  01,7C0
1378A:  CALL   3BDA
1378E:  MOVFF  01,776
.................... } 
....................  
.................... void rtc_write_nvr(BYTE address, BYTE data) { 
....................    write_ds1302(address|0xc0,data); 
.................... } 
....................  
.................... BYTE rtc_read_nvr(BYTE address) { 
....................     return(read_ds1302(address|0xc1)); 
.................... } 
....................  
....................  
.................... // Definicin de teclado - NO 
.................... #define   UP               !input(PIN_A5) 
.................... #define   DOWN             !input(PIN_E0) 
.................... #define   RIGHT            !input(PIN_E1) 
.................... #define   LEFT             !input(PIN_E2) 
....................  
.................... #define   DOOR             input(PIN_A4) 
.................... #define   TERM             input(PIN_A3) 
....................  
.................... #define   Resistencia_on   output_bit(PIN_C0,1) 
.................... #define   Resistencia_off  output_bit(PIN_C0,0) 
.................... #define   Buzz_on          output_bit(PIN_C4,1) 
.................... #define   Buzz_off         output_bit(PIN_C4,0) 
....................  
.................... float promedio[80]={0.0,0.0,0.0,0.0,0.0,0.0,0.0,0.0,0.0,0.0,0.0,0.0,0.0,0.0,0.0,0.0,0.0,0.0,0.0,0.0,0.0,0.0,0.0,0.0,0.0,0.0,0.0,0.0,0.0,0.0,0.0,0.0,0.0,0.0,0.0,0.0,0.0,0.0,0.0,0.0,0.0,0.0,0.0,0.0,0.0,0.0,0.0,0.0,0.0,0.0,0.0,0.0,0.0,0.0,0.0,0.0,0.0,0.0,0.0,0.0,0.0,0.0,0.0,0.0,0.0,0.0,0.0,0.0,0.0,0.0,0.0,0.0,0.0,0.0}; 
.................... float X[2]={0.0,0.0}; 
.................... short flagup=0,flagdn=0,Desconectado=0,ActivaImpresion=0,flagImprime=0; 
.................... int8 h=0,l=0,Ajuste=0,Ajusten=0,MediaMovil=10,tiemporecta=0,flag_ganancia=0,Lectura2=0,tiempoup=0,tiempodn=0,Segmentos=0,Segmento=0,Modo=5; 
.................... short Flanco=0,Flanco1=0,Flanco2=0,visual=1,Lectura=0,flag_calcula=0; 
.................... short flag_clear2=0,flag_tiempocalentamiento=0,flag_display=0,flag_setpoint=0,Dibuja=0; 
.................... int8 y=0,tiemporeset=0,Programa=1,Control=0; 
.................... int8 Menu=0, unidad=1,i=0,j=1,Pausa=0,Pausa_ant=0,TiempoControl=0; 
.................... int8 Opcion=1,tiempo_esterilizacion=0,ProgramaSeleccionado=0,Alarma=10,m_int=0,m_dec=0,b_int=0,b_dec=0; 
.................... int16 tiempos=0,tiempos3=0,tiempoctrl=0,tinicio=0,tiempocalentamiento=0,tiemposetpoint=0,Tp=0,Tc=0,CalculoImpresion=0,tiempoImpresion=0,timpresion=0,b16=0; 
.................... float PendienteMinutos=0,TempeInicial=20,Tiempo=0,TiempoActual=0,PendienteActual=0,HorasActual=0,MinutosActual=0,TiempoRampa=0; 
.................... float Potencia=0.0,PotenciaEntregada=0.0; 
.................... signed int  Testerilizacion[4]={0,0,0,0};   // Tiempo transcurrido 
.................... signed int  Testerilizacionp[4]={0,0,0,0};   // Tiempo transcurrido 
.................... signed int  Contrasena[4]={0,0,0,0};      // Contrasena de 4 digitos 
.................... signed int  Password[4]={0,0,0,0};        // Contrasena Almacenada de 4 digitos 
.................... float V0=0.0,Tciclo=10.0,Tpulso=0.0,error=0.0,Prom=0.0,Temperature=0.0,tmp=0.0,GananciaIn=0,Ganancia=3.0,desvio=3.0,Coeficiente=150.0,AlTem=20.0,resistencia=240.0; 
.................... float Aumento=0.0,Temperatura=0.0,Pendiente=0.0,DifPendiente=0.0,Setpoint=0,Integral=0,Derivativo=0,m=0,b=0,adcSup=0,adcInf=0,Tsup=1250,Tinf=0,penMufla=50; 
.................... float TemperaturaIdeal=0,penInicial=0; 
.................... signed int16 Temperatura1[50]; 
.................... signed int16 Horas1[50]; 
.................... signed int16 Minutos1[50]; 
.................... int8 Year=18,Mess=9,Dia=13,Hora=0,Minuto=0,Segundo=0,dow=0,Mes=9,Modulo=0; 
.................... int8 YearTx=0,MesTx=0,DiaTx=0,HoraTx=0,MinutoTx=0,SegundoTx=0,dowTx=0,SetTime=0,Imprime=0; 
.................... /* Tabla de Modulos, Primera Fila Ao Regular y el siguiente ao Bisiesto 
.................... E   F   M   A   M   J   J   A   S   O   N   D 
.................... 0   3   3   6   1   4   6   2   5   0   3   5 
.................... 0   3   4   0   2   5   0   3   6   1   4   6 
.................... */ 
.................... int8 Regular[12]={0,3,3,6,1,4,6,2,5,0,3,5}; 
.................... int8 Bisiesto[12]={0,3,4,0,2,5,0,3,6,1,4,6}; 
....................  
.................... #include <Funciones.h> 
.................... //Funciones utilizadas en la Mufla 
....................  
.................... typedef struct{ 
....................    char Letra[30]; 
.................... }MENUU; 
....................  
.................... MENUU Menus; 
....................  
.................... void ActualizaRecta(){ 
....................    X[y]=Temperatura; 
*
06620:  MOVLB  5
06622:  MOVF   x6E,W
06624:  MULLW  04
06626:  MOVF   FF3,W
06628:  CLRF   03
0662A:  ADDLW  57
0662C:  MOVWF  FE9
0662E:  MOVLW  05
06630:  ADDWFC 03,W
06632:  MOVWF  FEA
06634:  MOVFF  609,FEF
06638:  MOVFF  60A,FEC
0663C:  MOVFF  60B,FEC
06640:  MOVFF  60C,FEC
....................    y++; 
06644:  INCF   x6E,F
....................    if(y>=2) 
06646:  MOVF   x6E,W
06648:  SUBLW  01
0664A:  BTFSC  FD8.0
0664C:  BRA    68F4
....................    { 
....................       y=0; 
0664E:  CLRF   x6E
....................       Aumento=X[1]-X[0]; 
06650:  BSF    FD8.1
06652:  MOVFF  55E,7CA
06656:  MOVFF  55D,7C9
0665A:  MOVFF  55C,7C8
0665E:  MOVFF  55B,7C7
06662:  MOVFF  55A,7CE
06666:  MOVFF  559,7CD
0666A:  MOVFF  558,7CC
0666E:  MOVFF  557,7CB
06672:  MOVLB  0
06674:  CALL   2412
06678:  MOVFF  03,608
0667C:  MOVFF  02,607
06680:  MOVFF  01,606
06684:  MOVFF  00,605
....................       HorasActual=(Testerilizacion[3]*10)+Testerilizacion[2]; 
06688:  MOVFF  5C4,7DC
0668C:  MOVLW  0A
0668E:  MOVLB  7
06690:  MOVWF  xDD
06692:  MOVLB  0
06694:  CALL   3FDA
06698:  MOVLB  5
0669A:  MOVF   xC3,W
0669C:  ADDWF  01,W
0669E:  MOVLB  7
066A0:  CLRF   xC0
066A2:  MOVWF  xBF
066A4:  BTFSC  xBF.7
066A6:  DECF   xC0,F
066A8:  MOVLB  0
066AA:  CALL   3F8A
066AE:  MOVFF  03,5B0
066B2:  MOVFF  02,5AF
066B6:  MOVFF  01,5AE
066BA:  MOVFF  00,5AD
....................       MinutosActual=(Testerilizacion[1]*10)+Testerilizacion[0]; 
066BE:  MOVFF  5C2,7DC
066C2:  MOVLW  0A
066C4:  MOVLB  7
066C6:  MOVWF  xDD
066C8:  MOVLB  0
066CA:  CALL   3FDA
066CE:  MOVLB  5
066D0:  MOVF   xC1,W
066D2:  ADDWF  01,W
066D4:  MOVLB  7
066D6:  CLRF   xC0
066D8:  MOVWF  xBF
066DA:  BTFSC  xBF.7
066DC:  DECF   xC0,F
066DE:  MOVLB  0
066E0:  CALL   3F8A
066E4:  MOVFF  03,5B4
066E8:  MOVFF  02,5B3
066EC:  MOVFF  01,5B2
066F0:  MOVFF  00,5B1
....................       TiempoActual=Tiempo-((HorasActual*3600)+(MinutosActual*60)+tinicio); 
066F4:  MOVFF  5B0,7DB
066F8:  MOVFF  5AF,7DA
066FC:  MOVFF  5AE,7D9
06700:  MOVFF  5AD,7D8
06704:  MOVLB  7
06706:  CLRF   xDF
06708:  CLRF   xDE
0670A:  MOVLW  61
0670C:  MOVWF  xDD
0670E:  MOVLW  8A
06710:  MOVWF  xDC
06712:  MOVLB  0
06714:  CALL   37C4
06718:  MOVFF  00,7BB
0671C:  MOVFF  01,7BC
06720:  MOVFF  02,7BD
06724:  MOVFF  03,7BE
06728:  MOVFF  5B4,7DB
0672C:  MOVFF  5B3,7DA
06730:  MOVFF  5B2,7D9
06734:  MOVFF  5B1,7D8
06738:  MOVLB  7
0673A:  CLRF   xDF
0673C:  CLRF   xDE
0673E:  MOVLW  70
06740:  MOVWF  xDD
06742:  MOVLW  84
06744:  MOVWF  xDC
06746:  MOVLB  0
06748:  CALL   37C4
0674C:  BCF    FD8.1
0674E:  MOVFF  7BE,7CA
06752:  MOVFF  7BD,7C9
06756:  MOVFF  7BC,7C8
0675A:  MOVFF  7BB,7C7
0675E:  MOVFF  03,7CE
06762:  MOVFF  02,7CD
06766:  MOVFF  01,7CC
0676A:  MOVFF  00,7CB
0676E:  CALL   2412
06772:  MOVFF  00,7BB
06776:  MOVFF  01,7BC
0677A:  MOVFF  02,7BD
0677E:  MOVFF  03,7BE
06782:  MOVFF  588,7C8
06786:  MOVFF  587,7C7
0678A:  CALL   2204
0678E:  BCF    FD8.1
06790:  MOVFF  7BE,7CA
06794:  MOVFF  7BD,7C9
06798:  MOVFF  7BC,7C8
0679C:  MOVFF  7BB,7C7
067A0:  MOVFF  03,7CE
067A4:  MOVFF  02,7CD
067A8:  MOVFF  01,7CC
067AC:  MOVFF  00,7CB
067B0:  CALL   2412
067B4:  BSF    FD8.1
067B6:  MOVFF  5A4,7CA
067BA:  MOVFF  5A3,7C9
067BE:  MOVFF  5A2,7C8
067C2:  MOVFF  5A1,7C7
067C6:  MOVFF  03,7CE
067CA:  MOVFF  02,7CD
067CE:  MOVFF  01,7CC
067D2:  MOVFF  00,7CB
067D6:  CALL   2412
067DA:  MOVFF  03,5A8
067DE:  MOVFF  02,5A7
067E2:  MOVFF  01,5A6
067E6:  MOVFF  00,5A5
....................       PendienteActual=((Setpoint-Temperatura)/TiempoActual); 
067EA:  BSF    FD8.1
067EC:  MOVFF  618,7CA
067F0:  MOVFF  617,7C9
067F4:  MOVFF  616,7C8
067F8:  MOVFF  615,7C7
067FC:  MOVFF  60C,7CE
06800:  MOVFF  60B,7CD
06804:  MOVFF  60A,7CC
06808:  MOVFF  609,7CB
0680C:  CALL   2412
06810:  MOVFF  00,7BB
06814:  MOVFF  01,7BC
06818:  MOVFF  02,7BD
0681C:  MOVFF  03,7BE
06820:  MOVFF  03,7C2
06824:  MOVFF  02,7C1
06828:  MOVFF  01,7C0
0682C:  MOVFF  00,7BF
06830:  MOVFF  5A8,7C6
06834:  MOVFF  5A7,7C5
06838:  MOVFF  5A6,7C4
0683C:  MOVFF  5A5,7C3
06840:  CALL   22B4
06844:  MOVFF  03,5AC
06848:  MOVFF  02,5AB
0684C:  MOVFF  01,5AA
06850:  MOVFF  00,5A9
....................       DifPendiente=(PendienteActual*20)-Aumento; 
06854:  MOVFF  5AC,7DB
06858:  MOVFF  5AB,7DA
0685C:  MOVFF  5AA,7D9
06860:  MOVFF  5A9,7D8
06864:  MOVLB  7
06866:  CLRF   xDF
06868:  CLRF   xDE
0686A:  MOVLW  20
0686C:  MOVWF  xDD
0686E:  MOVLW  83
06870:  MOVWF  xDC
06872:  MOVLB  0
06874:  CALL   37C4
06878:  MOVFF  00,7BB
0687C:  MOVFF  01,7BC
06880:  MOVFF  02,7BD
06884:  MOVFF  03,7BE
06888:  BSF    FD8.1
0688A:  MOVFF  03,7CA
0688E:  MOVFF  02,7C9
06892:  MOVFF  01,7C8
06896:  MOVFF  00,7C7
0689A:  MOVFF  608,7CE
0689E:  MOVFF  607,7CD
068A2:  MOVFF  606,7CC
068A6:  MOVFF  605,7CB
068AA:  CALL   2412
068AE:  MOVFF  03,614
068B2:  MOVFF  02,613
068B6:  MOVFF  01,612
068BA:  MOVFF  00,611
....................       DifPendiente=DifPendiente*5; 
068BE:  MOVFF  614,7DB
068C2:  MOVFF  613,7DA
068C6:  MOVFF  612,7D9
068CA:  MOVFF  611,7D8
068CE:  MOVLB  7
068D0:  CLRF   xDF
068D2:  CLRF   xDE
068D4:  MOVLW  20
068D6:  MOVWF  xDD
068D8:  MOVLW  81
068DA:  MOVWF  xDC
068DC:  MOVLB  0
068DE:  CALL   37C4
068E2:  MOVFF  03,614
068E6:  MOVFF  02,613
068EA:  MOVFF  01,612
068EE:  MOVFF  00,611
068F2:  MOVLB  5
....................       //penMufla=(6000*(Aumento/20))/PotenciaEntregada; 
....................    } 
.................... } 
068F4:  MOVLB  0
068F6:  GOTO   6942 (RETURN)
....................  
.................... // Funcion para conversor analogo-digital 
.................... float sensores(int x){ 
.................... float y;set_adc_channel(x);delay_ms(1);y=read_adc();return (y); 
*
0374A:  MOVLB  7
0374C:  RLCF   xBC,W
0374E:  MOVWF  00
03750:  RLCF   00,F
03752:  MOVLW  FC
03754:  ANDWF  00,F
03756:  MOVFF  00,01
0375A:  MOVF   FC2,W
0375C:  ANDLW  C3
0375E:  IORWF  00,W
03760:  MOVWF  FC2
03762:  MOVLW  01
03764:  MOVWF  xC1
03766:  MOVLB  0
03768:  CALL   184E
0376C:  BSF    FC2.1
0376E:  BTFSC  FC2.1
03770:  BRA    376E
03772:  MOVFF  FC4,7C8
03776:  MOVFF  FC3,7C7
0377A:  MOVLB  0
0377C:  CALL   2204
03780:  MOVFF  03,7C0
03784:  MOVFF  02,7BF
03788:  MOVFF  01,7BE
0378C:  MOVFF  00,7BD
03790:  MOVFF  7BD,00
03794:  MOVFF  7BE,01
03798:  MOVFF  7BF,02
0379C:  MOVFF  7C0,03
.................... } 
037A0:  RETLW  00
.................... float Leer_Sensor(int media) 
.................... { 
....................    Prom=0.0; 
*
038BA:  MOVLB  5
038BC:  CLRF   xE4
038BE:  CLRF   xE3
038C0:  CLRF   xE2
038C2:  CLRF   xE1
....................    V0 = sensores(0);   //Lectura de Divisor de Voltaje de PT100 con resistencia de 6.18k (+-2%)    
038C4:  MOVLB  7
038C6:  CLRF   xBC
038C8:  MOVLB  0
038CA:  RCALL  374A
038CC:  MOVFF  03,5D4
038D0:  MOVFF  02,5D3
038D4:  MOVFF  01,5D2
038D8:  MOVFF  00,5D1
....................              
....................    if(l>(media-1)) 
038DC:  MOVLW  01
038DE:  MOVLB  7
038E0:  SUBWF  xBB,W
038E2:  MOVLB  5
038E4:  SUBWF  x61,W
038E6:  BZ    38EC
038E8:  BNC   38EC
....................    {l=0;} 
038EA:  CLRF   x61
....................    //promedio[l]=Temperature;l++; 
....................    promedio[l]=V0;l++; 
038EC:  MOVLB  7
038EE:  CLRF   xC0
038F0:  MOVFF  561,7BF
038F4:  CLRF   xC2
038F6:  MOVLW  04
038F8:  MOVWF  xC1
038FA:  MOVLB  0
038FC:  RCALL  37A2
038FE:  MOVF   01,W
03900:  ADDLW  17
03902:  MOVWF  FE9
03904:  MOVLW  04
03906:  ADDWFC 02,W
03908:  MOVWF  FEA
0390A:  MOVFF  5D1,FEF
0390E:  MOVFF  5D2,FEC
03912:  MOVFF  5D3,FEC
03916:  MOVFF  5D4,FEC
0391A:  MOVLB  5
0391C:  INCF   x61,F
....................           
....................    for(h=0;h<media;h++) 
0391E:  CLRF   x60
03920:  MOVLB  7
03922:  MOVF   xBB,W
03924:  MOVLB  5
03926:  SUBWF  x60,W
03928:  BC    39A8
....................    { 
....................       Prom+=promedio[h]; 
0392A:  MOVLB  7
0392C:  CLRF   xC0
0392E:  MOVFF  560,7BF
03932:  CLRF   xC2
03934:  MOVLW  04
03936:  MOVWF  xC1
03938:  MOVLB  0
0393A:  RCALL  37A2
0393C:  MOVFF  02,03
03940:  MOVF   01,W
03942:  ADDLW  17
03944:  MOVWF  FE9
03946:  MOVLW  04
03948:  ADDWFC 02,W
0394A:  MOVWF  FEA
0394C:  MOVFF  FEF,00
03950:  MOVFF  FEC,01
03954:  MOVFF  FEC,02
03958:  MOVFF  FEC,03
0395C:  MOVFF  FEA,7BD
03960:  MOVFF  FE9,7BC
03964:  BCF    FD8.1
03966:  MOVFF  5E4,7CA
0396A:  MOVFF  5E3,7C9
0396E:  MOVFF  5E2,7C8
03972:  MOVFF  5E1,7C7
03976:  MOVFF  03,7CE
0397A:  MOVFF  02,7CD
0397E:  MOVFF  01,7CC
03982:  MOVFF  00,7CB
03986:  CALL   2412
0398A:  MOVFF  7BD,FEA
0398E:  MOVFF  7BC,FE9
03992:  MOVFF  03,5E4
03996:  MOVFF  02,5E3
0399A:  MOVFF  01,5E2
0399E:  MOVFF  00,5E1
....................    }  
039A2:  MOVLB  5
039A4:  INCF   x60,F
039A6:  BRA    3920
....................    Prom=Prom/media;    
039A8:  MOVLB  7
039AA:  CLRF   xC8
039AC:  MOVFF  7BB,7C7
039B0:  MOVLB  0
039B2:  CALL   2204
039B6:  MOVFF  5E4,7C2
039BA:  MOVFF  5E3,7C1
039BE:  MOVFF  5E2,7C0
039C2:  MOVFF  5E1,7BF
039C6:  MOVFF  03,7C6
039CA:  MOVFF  02,7C5
039CE:  MOVFF  01,7C4
039D2:  MOVFF  00,7C3
039D6:  CALL   22B4
039DA:  MOVFF  03,5E4
039DE:  MOVFF  02,5E3
039E2:  MOVFF  01,5E2
039E6:  MOVFF  00,5E1
....................    //Temperature=(Prom-100.0)/(0.385);  // Ecuacin determinada por linealizacin en Matlab. Revisar este polinomio.   
....................    //Temperature=(1.5275*Prom)-299.23; // Recta dada por T 0C-1200C y ADC Modo Real    
....................    Temperature=(m*Prom)-b; // Recta dada por T 0C-1200C y ADC Modo Real 
039EA:  MOVFF  624,7DB
039EE:  MOVFF  623,7DA
039F2:  MOVFF  622,7D9
039F6:  MOVFF  621,7D8
039FA:  MOVFF  5E4,7DF
039FE:  MOVFF  5E3,7DE
03A02:  MOVFF  5E2,7DD
03A06:  MOVFF  5E1,7DC
03A0A:  RCALL  37C4
03A0C:  MOVFF  00,7BC
03A10:  MOVFF  01,7BD
03A14:  MOVFF  02,7BE
03A18:  MOVFF  03,7BF
03A1C:  BSF    FD8.1
03A1E:  MOVFF  03,7CA
03A22:  MOVFF  02,7C9
03A26:  MOVFF  01,7C8
03A2A:  MOVFF  00,7C7
03A2E:  MOVFF  628,7CE
03A32:  MOVFF  627,7CD
03A36:  MOVFF  626,7CC
03A3A:  MOVFF  625,7CB
03A3E:  CALL   2412
03A42:  MOVFF  03,5E8
03A46:  MOVFF  02,5E7
03A4A:  MOVFF  01,5E6
03A4E:  MOVFF  00,5E5
....................     
....................    Temperature+=((float)Ajuste-(float)Ajusten); 
03A52:  MOVLB  7
03A54:  CLRF   xC8
03A56:  MOVFF  562,7C7
03A5A:  MOVLB  0
03A5C:  CALL   2204
03A60:  MOVFF  00,7BC
03A64:  MOVFF  01,7BD
03A68:  MOVFF  02,7BE
03A6C:  MOVFF  03,7BF
03A70:  MOVLB  7
03A72:  CLRF   xC8
03A74:  MOVFF  563,7C7
03A78:  MOVLB  0
03A7A:  CALL   2204
03A7E:  BSF    FD8.1
03A80:  MOVFF  7BF,7CA
03A84:  MOVFF  7BE,7C9
03A88:  MOVFF  7BD,7C8
03A8C:  MOVFF  7BC,7C7
03A90:  MOVFF  03,7CE
03A94:  MOVFF  02,7CD
03A98:  MOVFF  01,7CC
03A9C:  MOVFF  00,7CB
03AA0:  CALL   2412
03AA4:  BCF    FD8.1
03AA6:  MOVFF  5E8,7CA
03AAA:  MOVFF  5E7,7C9
03AAE:  MOVFF  5E6,7C8
03AB2:  MOVFF  5E5,7C7
03AB6:  MOVFF  03,7CE
03ABA:  MOVFF  02,7CD
03ABE:  MOVFF  01,7CC
03AC2:  MOVFF  00,7CB
03AC6:  CALL   2412
03ACA:  MOVFF  03,5E8
03ACE:  MOVFF  02,5E7
03AD2:  MOVFF  01,5E6
03AD6:  MOVFF  00,5E5
....................     
....................    //return Prom; 
....................    return Temperature; 
03ADA:  MOVFF  5E5,00
03ADE:  MOVFF  5E6,01
03AE2:  MOVFF  5E7,02
03AE6:  MOVFF  5E8,03
.................... } 
03AEA:  RETLW  00
....................  
.................... void Controla(){ 
.................... //-------------------------------Control de Calentamiento------------------------------------------------------------//          
....................    if(tiemporecta>=10) 
*
06936:  MOVLB  5
06938:  MOVF   x65,W
0693A:  SUBLW  09
0693C:  BC    6946
....................    { 
....................       ActualizaRecta(); 
0693E:  MOVLB  0
06940:  BRA    6620
....................       tiemporecta=0; 
06942:  MOVLB  5
06944:  CLRF   x65
....................    } 
....................    
....................    if(Segmento==0){ 
06946:  MOVF   x6B,F
06948:  BTFSS  FD8.2
0694A:  BRA    6C5E
....................       if(flag_calcula==0){ 
0694C:  BTFSC  x6D.2
0694E:  BRA    6C5C
....................          Tiempo=(Horas1[ProgramaSeleccionado*10]*3600)+(Minutos1[ProgramaSeleccionado*10]*60);          
06950:  MOVF   x7B,W
06952:  MULLW  0A
06954:  MOVFF  FF3,00
06958:  BCF    FD8.0
0695A:  RLCF   00,F
0695C:  MOVF   00,W
0695E:  CLRF   03
06960:  ADDLW  A9
06962:  MOVWF  FE9
06964:  MOVLW  06
06966:  ADDWFC 03,W
06968:  MOVWF  FEA
0696A:  MOVFF  FEC,7BC
0696E:  MOVF   FED,F
06970:  MOVFF  FEF,7BB
06974:  MOVFF  7BC,7C0
06978:  MOVFF  7BB,7BF
0697C:  MOVLW  0E
0697E:  MOVLB  7
06980:  MOVWF  xC2
06982:  MOVLW  10
06984:  MOVWF  xC1
06986:  MOVLB  0
06988:  CALL   3F36
0698C:  MOVFF  02,7BC
06990:  MOVFF  01,7BB
06994:  MOVLB  5
06996:  MOVF   x7B,W
06998:  MULLW  0A
0699A:  MOVFF  FF3,00
0699E:  BCF    FD8.0
069A0:  RLCF   00,F
069A2:  MOVF   00,W
069A4:  CLRF   03
069A6:  ADDLW  0D
069A8:  MOVWF  FE9
069AA:  MOVLW  07
069AC:  ADDWFC 03,W
069AE:  MOVWF  FEA
069B0:  MOVFF  FEC,7BE
069B4:  MOVF   FED,F
069B6:  MOVFF  FEF,7BD
069BA:  MOVFF  7BE,7C0
069BE:  MOVFF  7BD,7BF
069C2:  MOVLB  7
069C4:  CLRF   xC2
069C6:  MOVLW  3C
069C8:  MOVWF  xC1
069CA:  MOVLB  0
069CC:  CALL   3F36
069D0:  MOVFF  02,03
069D4:  MOVF   01,W
069D6:  MOVLB  7
069D8:  ADDWF  xBB,W
069DA:  MOVWF  01
069DC:  MOVF   xBC,W
069DE:  ADDWFC 03,F
069E0:  MOVFF  01,7BF
069E4:  MOVFF  03,7C0
069E8:  MOVLB  0
069EA:  CALL   3F8A
069EE:  MOVFF  03,5A4
069F2:  MOVFF  02,5A3
069F6:  MOVFF  01,5A2
069FA:  MOVFF  00,5A1
....................          Setpoint=Temperatura1[(ProgramaSeleccionado*10)+Segmento]; 
069FE:  MOVLB  5
06A00:  MOVF   x7B,W
06A02:  MULLW  0A
06A04:  MOVF   FF3,W
06A06:  ADDWF  x6B,W
06A08:  MOVWF  00
06A0A:  BCF    FD8.0
06A0C:  RLCF   00,F
06A0E:  MOVF   00,W
06A10:  CLRF   03
06A12:  ADDLW  45
06A14:  MOVWF  FE9
06A16:  MOVLW  06
06A18:  ADDWFC 03,W
06A1A:  MOVWF  FEA
06A1C:  MOVFF  FEC,03
06A20:  MOVF   FED,F
06A22:  MOVFF  FEF,7BF
06A26:  MOVFF  03,7C0
06A2A:  MOVLB  0
06A2C:  CALL   3F8A
06A30:  MOVFF  03,618
06A34:  MOVFF  02,617
06A38:  MOVFF  01,616
06A3C:  MOVFF  00,615
....................          Pendiente=((Setpoint-TempeInicial)/Tiempo); 
06A40:  BSF    FD8.1
06A42:  MOVFF  618,7CA
06A46:  MOVFF  617,7C9
06A4A:  MOVFF  616,7C8
06A4E:  MOVFF  615,7C7
06A52:  MOVFF  5A0,7CE
06A56:  MOVFF  59F,7CD
06A5A:  MOVFF  59E,7CC
06A5E:  MOVFF  59D,7CB
06A62:  CALL   2412
06A66:  MOVFF  00,7BB
06A6A:  MOVFF  01,7BC
06A6E:  MOVFF  02,7BD
06A72:  MOVFF  03,7BE
06A76:  MOVFF  03,7C2
06A7A:  MOVFF  02,7C1
06A7E:  MOVFF  01,7C0
06A82:  MOVFF  00,7BF
06A86:  MOVFF  5A4,7C6
06A8A:  MOVFF  5A3,7C5
06A8E:  MOVFF  5A2,7C4
06A92:  MOVFF  5A1,7C3
06A96:  CALL   22B4
06A9A:  MOVFF  03,610
06A9E:  MOVFF  02,60F
06AA2:  MOVFF  01,60E
06AA6:  MOVFF  00,60D
....................          Testerilizacionp[3]=(int8)Horas1[(ProgramaSeleccionado*10)+Segmento]/10; 
06AAA:  MOVLB  5
06AAC:  MOVF   x7B,W
06AAE:  MULLW  0A
06AB0:  MOVF   FF3,W
06AB2:  ADDWF  x6B,W
06AB4:  MOVWF  00
06AB6:  BCF    FD8.0
06AB8:  RLCF   00,F
06ABA:  MOVF   00,W
06ABC:  CLRF   03
06ABE:  ADDLW  A9
06AC0:  MOVWF  FE9
06AC2:  MOVLW  06
06AC4:  ADDWFC 03,W
06AC6:  MOVWF  FEA
06AC8:  MOVFF  FEF,7D0
06ACC:  MOVLW  0A
06ACE:  MOVLB  7
06AD0:  MOVWF  xD1
06AD2:  MOVLB  0
06AD4:  CALL   2022
06AD8:  MOVFF  01,5C8
06ADC:  MOVLB  5
....................          Testerilizacionp[2]=Horas1[(ProgramaSeleccionado*10)+Segmento]-(Testerilizacionp[3]*10); 
06ADE:  MOVF   x7B,W
06AE0:  MULLW  0A
06AE2:  MOVF   FF3,W
06AE4:  ADDWF  x6B,W
06AE6:  MOVWF  00
06AE8:  BCF    FD8.0
06AEA:  RLCF   00,F
06AEC:  MOVF   00,W
06AEE:  CLRF   03
06AF0:  ADDLW  A9
06AF2:  MOVWF  FE9
06AF4:  MOVLW  06
06AF6:  ADDWFC 03,W
06AF8:  MOVWF  FEA
06AFA:  MOVFF  FEC,7BC
06AFE:  MOVF   FED,F
06B00:  MOVFF  FEF,7BB
06B04:  MOVFF  5C8,7DC
06B08:  MOVLW  0A
06B0A:  MOVLB  7
06B0C:  MOVWF  xDD
06B0E:  MOVLB  0
06B10:  CALL   3FDA
06B14:  MOVF   01,W
06B16:  CLRF   03
06B18:  MOVWF  00
06B1A:  BTFSC  FE8.7
06B1C:  DECF   03,F
06B1E:  MOVLB  7
06B20:  SUBWF  xBB,W
06B22:  MOVWF  00
06B24:  MOVF   03,W
06B26:  SUBWFB xBC,W
06B28:  MOVFF  00,5C7
06B2C:  MOVLB  5
....................          Testerilizacionp[1]=Minutos1[(ProgramaSeleccionado*10)+Segmento]/10; 
06B2E:  MOVF   x7B,W
06B30:  MULLW  0A
06B32:  MOVF   FF3,W
06B34:  ADDWF  x6B,W
06B36:  MOVWF  00
06B38:  BCF    FD8.0
06B3A:  RLCF   00,F
06B3C:  MOVF   00,W
06B3E:  CLRF   03
06B40:  ADDLW  0D
06B42:  MOVWF  FE9
06B44:  MOVLW  07
06B46:  ADDWFC 03,W
06B48:  MOVWF  FEA
06B4A:  MOVFF  FEC,7BC
06B4E:  MOVF   FED,F
06B50:  MOVFF  FEF,7BB
06B54:  MOVFF  7BC,7C0
06B58:  MOVFF  7BB,7BF
06B5C:  MOVLB  7
06B5E:  CLRF   xC2
06B60:  MOVLW  0A
06B62:  MOVWF  xC1
06B64:  MOVLB  0
06B66:  CALL   4028
06B6A:  MOVFF  01,5C6
06B6E:  MOVLB  5
....................          Testerilizacionp[0]=Minutos1[(ProgramaSeleccionado*10)+Segmento]-(Testerilizacionp[1]*10); 
06B70:  MOVF   x7B,W
06B72:  MULLW  0A
06B74:  MOVF   FF3,W
06B76:  ADDWF  x6B,W
06B78:  MOVWF  00
06B7A:  BCF    FD8.0
06B7C:  RLCF   00,F
06B7E:  MOVF   00,W
06B80:  CLRF   03
06B82:  ADDLW  0D
06B84:  MOVWF  FE9
06B86:  MOVLW  07
06B88:  ADDWFC 03,W
06B8A:  MOVWF  FEA
06B8C:  MOVFF  FEC,7BC
06B90:  MOVF   FED,F
06B92:  MOVFF  FEF,7BB
06B96:  MOVFF  5C6,7DC
06B9A:  MOVLW  0A
06B9C:  MOVLB  7
06B9E:  MOVWF  xDD
06BA0:  MOVLB  0
06BA2:  CALL   3FDA
06BA6:  MOVF   01,W
06BA8:  CLRF   03
06BAA:  MOVWF  00
06BAC:  BTFSC  FE8.7
06BAE:  DECF   03,F
06BB0:  MOVLB  7
06BB2:  SUBWF  xBB,W
06BB4:  MOVWF  00
06BB6:  MOVF   03,W
06BB8:  SUBWFB xBC,W
06BBA:  MOVFF  00,5C5
06BBE:  MOVLB  5
....................          flag_calcula=1; 
06BC0:  BSF    x6D.2
....................          Ganancia=read_eeprom(250); 
06BC2:  MOVFF  FF2,7BB
06BC6:  BCF    FF2.7
06BC8:  CLRF   FAA
06BCA:  MOVLW  FA
06BCC:  MOVWF  FA9
06BCE:  BCF    FA6.6
06BD0:  BCF    FA6.7
06BD2:  BSF    FA6.0
06BD4:  MOVF   FA8,W
06BD6:  MOVLB  7
06BD8:  BTFSC  xBB.7
06BDA:  BSF    FF2.7
06BDC:  CLRF   xC8
06BDE:  MOVWF  xC7
06BE0:  MOVLB  0
06BE2:  CALL   2204
06BE6:  MOVFF  03,5F4
06BEA:  MOVFF  02,5F3
06BEE:  MOVFF  01,5F2
06BF2:  MOVFF  00,5F1
....................          delay_ms(10); 
06BF6:  MOVLW  0A
06BF8:  MOVLB  7
06BFA:  MOVWF  xC1
06BFC:  MOVLB  0
06BFE:  CALL   184E
....................          Ganancia=Ganancia*(Setpoint/Coeficiente); 
06C02:  MOVFF  618,7C2
06C06:  MOVFF  617,7C1
06C0A:  MOVFF  616,7C0
06C0E:  MOVFF  615,7BF
06C12:  MOVFF  5FC,7C6
06C16:  MOVFF  5FB,7C5
06C1A:  MOVFF  5FA,7C4
06C1E:  MOVFF  5F9,7C3
06C22:  CALL   22B4
06C26:  MOVFF  5F4,7DB
06C2A:  MOVFF  5F3,7DA
06C2E:  MOVFF  5F2,7D9
06C32:  MOVFF  5F1,7D8
06C36:  MOVFF  03,7DF
06C3A:  MOVFF  02,7DE
06C3E:  MOVFF  01,7DD
06C42:  MOVFF  00,7DC
06C46:  CALL   37C4
06C4A:  MOVFF  03,5F4
06C4E:  MOVFF  02,5F3
06C52:  MOVFF  01,5F2
06C56:  MOVFF  00,5F1
06C5A:  MOVLB  5
....................       } 
....................    } 
....................    else{ 
06C5C:  BRA    6FA0
....................       if(flag_calcula==0){ 
06C5E:  BTFSC  x6D.2
06C60:  BRA    6FA0
....................          Tiempo=(Horas1[(ProgramaSeleccionado*10)+Segmento]*3600)+(Minutos1[(ProgramaSeleccionado*10)+Segmento]*60); 
06C62:  MOVF   x7B,W
06C64:  MULLW  0A
06C66:  MOVF   FF3,W
06C68:  ADDWF  x6B,W
06C6A:  MOVWF  00
06C6C:  BCF    FD8.0
06C6E:  RLCF   00,F
06C70:  MOVF   00,W
06C72:  CLRF   03
06C74:  ADDLW  A9
06C76:  MOVWF  FE9
06C78:  MOVLW  06
06C7A:  ADDWFC 03,W
06C7C:  MOVWF  FEA
06C7E:  MOVFF  FEC,7BC
06C82:  MOVF   FED,F
06C84:  MOVFF  FEF,7BB
06C88:  MOVFF  7BC,7C0
06C8C:  MOVFF  7BB,7BF
06C90:  MOVLW  0E
06C92:  MOVLB  7
06C94:  MOVWF  xC2
06C96:  MOVLW  10
06C98:  MOVWF  xC1
06C9A:  MOVLB  0
06C9C:  CALL   3F36
06CA0:  MOVFF  02,7BC
06CA4:  MOVFF  01,7BB
06CA8:  MOVLB  5
06CAA:  MOVF   x7B,W
06CAC:  MULLW  0A
06CAE:  MOVF   FF3,W
06CB0:  ADDWF  x6B,W
06CB2:  MOVWF  00
06CB4:  BCF    FD8.0
06CB6:  RLCF   00,F
06CB8:  MOVF   00,W
06CBA:  CLRF   03
06CBC:  ADDLW  0D
06CBE:  MOVWF  FE9
06CC0:  MOVLW  07
06CC2:  ADDWFC 03,W
06CC4:  MOVWF  FEA
06CC6:  MOVFF  FEC,7BE
06CCA:  MOVF   FED,F
06CCC:  MOVFF  FEF,7BD
06CD0:  MOVFF  7BE,7C0
06CD4:  MOVFF  7BD,7BF
06CD8:  MOVLB  7
06CDA:  CLRF   xC2
06CDC:  MOVLW  3C
06CDE:  MOVWF  xC1
06CE0:  MOVLB  0
06CE2:  CALL   3F36
06CE6:  MOVFF  02,03
06CEA:  MOVF   01,W
06CEC:  MOVLB  7
06CEE:  ADDWF  xBB,W
06CF0:  MOVWF  01
06CF2:  MOVF   xBC,W
06CF4:  ADDWFC 03,F
06CF6:  MOVFF  01,7BF
06CFA:  MOVFF  03,7C0
06CFE:  MOVLB  0
06D00:  CALL   3F8A
06D04:  MOVFF  03,5A4
06D08:  MOVFF  02,5A3
06D0C:  MOVFF  01,5A2
06D10:  MOVFF  00,5A1
....................          Pendiente=((Temperatura1[(ProgramaSeleccionado*10)+Segmento]-Temperatura1[(ProgramaSeleccionado*10)+Segmento-1])/Tiempo); 
06D14:  MOVLB  5
06D16:  MOVF   x7B,W
06D18:  MULLW  0A
06D1A:  MOVF   FF3,W
06D1C:  ADDWF  x6B,W
06D1E:  MOVWF  00
06D20:  BCF    FD8.0
06D22:  RLCF   00,F
06D24:  MOVF   00,W
06D26:  CLRF   03
06D28:  ADDLW  45
06D2A:  MOVWF  FE9
06D2C:  MOVLW  06
06D2E:  ADDWFC 03,W
06D30:  MOVWF  FEA
06D32:  MOVFF  FEC,7BC
06D36:  MOVF   FED,F
06D38:  MOVFF  FEF,7BB
06D3C:  MOVF   x7B,W
06D3E:  MULLW  0A
06D40:  MOVF   FF3,W
06D42:  ADDWF  x6B,W
06D44:  ADDLW  FF
06D46:  MOVWF  00
06D48:  BCF    FD8.0
06D4A:  RLCF   00,F
06D4C:  MOVF   00,W
06D4E:  CLRF   03
06D50:  ADDLW  45
06D52:  MOVWF  FE9
06D54:  MOVLW  06
06D56:  ADDWFC 03,W
06D58:  MOVWF  FEA
06D5A:  MOVFF  FEC,03
06D5E:  MOVF   FED,F
06D60:  MOVF   FEF,W
06D62:  MOVLB  7
06D64:  SUBWF  xBB,F
06D66:  MOVF   03,W
06D68:  SUBWFB xBC,F
06D6A:  MOVFF  7BC,7C0
06D6E:  MOVFF  7BB,7BF
06D72:  MOVLB  0
06D74:  CALL   3F8A
06D78:  MOVFF  03,7C2
06D7C:  MOVFF  02,7C1
06D80:  MOVFF  01,7C0
06D84:  MOVFF  00,7BF
06D88:  MOVFF  5A4,7C6
06D8C:  MOVFF  5A3,7C5
06D90:  MOVFF  5A2,7C4
06D94:  MOVFF  5A1,7C3
06D98:  CALL   22B4
06D9C:  MOVFF  03,610
06DA0:  MOVFF  02,60F
06DA4:  MOVFF  01,60E
06DA8:  MOVFF  00,60D
....................          Setpoint=Temperatura1[(ProgramaSeleccionado*10)+Segmento]; 
06DAC:  MOVLB  5
06DAE:  MOVF   x7B,W
06DB0:  MULLW  0A
06DB2:  MOVF   FF3,W
06DB4:  ADDWF  x6B,W
06DB6:  MOVWF  00
06DB8:  BCF    FD8.0
06DBA:  RLCF   00,F
06DBC:  MOVF   00,W
06DBE:  CLRF   03
06DC0:  ADDLW  45
06DC2:  MOVWF  FE9
06DC4:  MOVLW  06
06DC6:  ADDWFC 03,W
06DC8:  MOVWF  FEA
06DCA:  MOVFF  FEC,03
06DCE:  MOVF   FED,F
06DD0:  MOVFF  FEF,7BF
06DD4:  MOVFF  03,7C0
06DD8:  MOVLB  0
06DDA:  CALL   3F8A
06DDE:  MOVFF  03,618
06DE2:  MOVFF  02,617
06DE6:  MOVFF  01,616
06DEA:  MOVFF  00,615
....................          Testerilizacionp[3]=(int8)Horas1[(ProgramaSeleccionado*10)+Segmento]/10; 
06DEE:  MOVLB  5
06DF0:  MOVF   x7B,W
06DF2:  MULLW  0A
06DF4:  MOVF   FF3,W
06DF6:  ADDWF  x6B,W
06DF8:  MOVWF  00
06DFA:  BCF    FD8.0
06DFC:  RLCF   00,F
06DFE:  MOVF   00,W
06E00:  CLRF   03
06E02:  ADDLW  A9
06E04:  MOVWF  FE9
06E06:  MOVLW  06
06E08:  ADDWFC 03,W
06E0A:  MOVWF  FEA
06E0C:  MOVFF  FEF,7D0
06E10:  MOVLW  0A
06E12:  MOVLB  7
06E14:  MOVWF  xD1
06E16:  MOVLB  0
06E18:  CALL   2022
06E1C:  MOVFF  01,5C8
06E20:  MOVLB  5
....................          Testerilizacionp[2]=Horas1[(ProgramaSeleccionado*10)+Segmento]-(Testerilizacionp[3]*10); 
06E22:  MOVF   x7B,W
06E24:  MULLW  0A
06E26:  MOVF   FF3,W
06E28:  ADDWF  x6B,W
06E2A:  MOVWF  00
06E2C:  BCF    FD8.0
06E2E:  RLCF   00,F
06E30:  MOVF   00,W
06E32:  CLRF   03
06E34:  ADDLW  A9
06E36:  MOVWF  FE9
06E38:  MOVLW  06
06E3A:  ADDWFC 03,W
06E3C:  MOVWF  FEA
06E3E:  MOVFF  FEC,7BC
06E42:  MOVF   FED,F
06E44:  MOVFF  FEF,7BB
06E48:  MOVFF  5C8,7DC
06E4C:  MOVLW  0A
06E4E:  MOVLB  7
06E50:  MOVWF  xDD
06E52:  MOVLB  0
06E54:  CALL   3FDA
06E58:  MOVF   01,W
06E5A:  CLRF   03
06E5C:  MOVWF  00
06E5E:  BTFSC  FE8.7
06E60:  DECF   03,F
06E62:  MOVLB  7
06E64:  SUBWF  xBB,W
06E66:  MOVWF  00
06E68:  MOVF   03,W
06E6A:  SUBWFB xBC,W
06E6C:  MOVFF  00,5C7
06E70:  MOVLB  5
....................          Testerilizacionp[1]=Minutos1[(ProgramaSeleccionado*10)+Segmento]/10; 
06E72:  MOVF   x7B,W
06E74:  MULLW  0A
06E76:  MOVF   FF3,W
06E78:  ADDWF  x6B,W
06E7A:  MOVWF  00
06E7C:  BCF    FD8.0
06E7E:  RLCF   00,F
06E80:  MOVF   00,W
06E82:  CLRF   03
06E84:  ADDLW  0D
06E86:  MOVWF  FE9
06E88:  MOVLW  07
06E8A:  ADDWFC 03,W
06E8C:  MOVWF  FEA
06E8E:  MOVFF  FEC,7BC
06E92:  MOVF   FED,F
06E94:  MOVFF  FEF,7BB
06E98:  MOVFF  7BC,7C0
06E9C:  MOVFF  7BB,7BF
06EA0:  MOVLB  7
06EA2:  CLRF   xC2
06EA4:  MOVLW  0A
06EA6:  MOVWF  xC1
06EA8:  MOVLB  0
06EAA:  CALL   4028
06EAE:  MOVFF  01,5C6
06EB2:  MOVLB  5
....................          Testerilizacionp[0]=Minutos1[(ProgramaSeleccionado*10)+Segmento]-(Testerilizacionp[1]*10); 
06EB4:  MOVF   x7B,W
06EB6:  MULLW  0A
06EB8:  MOVF   FF3,W
06EBA:  ADDWF  x6B,W
06EBC:  MOVWF  00
06EBE:  BCF    FD8.0
06EC0:  RLCF   00,F
06EC2:  MOVF   00,W
06EC4:  CLRF   03
06EC6:  ADDLW  0D
06EC8:  MOVWF  FE9
06ECA:  MOVLW  07
06ECC:  ADDWFC 03,W
06ECE:  MOVWF  FEA
06ED0:  MOVFF  FEC,7BC
06ED4:  MOVF   FED,F
06ED6:  MOVFF  FEF,7BB
06EDA:  MOVFF  5C6,7DC
06EDE:  MOVLW  0A
06EE0:  MOVLB  7
06EE2:  MOVWF  xDD
06EE4:  MOVLB  0
06EE6:  CALL   3FDA
06EEA:  MOVF   01,W
06EEC:  CLRF   03
06EEE:  MOVWF  00
06EF0:  BTFSC  FE8.7
06EF2:  DECF   03,F
06EF4:  MOVLB  7
06EF6:  SUBWF  xBB,W
06EF8:  MOVWF  00
06EFA:  MOVF   03,W
06EFC:  SUBWFB xBC,W
06EFE:  MOVFF  00,5C5
06F02:  MOVLB  5
....................          flag_calcula=1; 
06F04:  BSF    x6D.2
....................          Ganancia=read_eeprom(250); 
06F06:  MOVFF  FF2,7BB
06F0A:  BCF    FF2.7
06F0C:  CLRF   FAA
06F0E:  MOVLW  FA
06F10:  MOVWF  FA9
06F12:  BCF    FA6.6
06F14:  BCF    FA6.7
06F16:  BSF    FA6.0
06F18:  MOVF   FA8,W
06F1A:  MOVLB  7
06F1C:  BTFSC  xBB.7
06F1E:  BSF    FF2.7
06F20:  CLRF   xC8
06F22:  MOVWF  xC7
06F24:  MOVLB  0
06F26:  CALL   2204
06F2A:  MOVFF  03,5F4
06F2E:  MOVFF  02,5F3
06F32:  MOVFF  01,5F2
06F36:  MOVFF  00,5F1
....................          delay_ms(10); 
06F3A:  MOVLW  0A
06F3C:  MOVLB  7
06F3E:  MOVWF  xC1
06F40:  MOVLB  0
06F42:  CALL   184E
....................          Ganancia=Ganancia*(Setpoint/Coeficiente); 
06F46:  MOVFF  618,7C2
06F4A:  MOVFF  617,7C1
06F4E:  MOVFF  616,7C0
06F52:  MOVFF  615,7BF
06F56:  MOVFF  5FC,7C6
06F5A:  MOVFF  5FB,7C5
06F5E:  MOVFF  5FA,7C4
06F62:  MOVFF  5F9,7C3
06F66:  CALL   22B4
06F6A:  MOVFF  5F4,7DB
06F6E:  MOVFF  5F3,7DA
06F72:  MOVFF  5F2,7D9
06F76:  MOVFF  5F1,7D8
06F7A:  MOVFF  03,7DF
06F7E:  MOVFF  02,7DE
06F82:  MOVFF  01,7DD
06F86:  MOVFF  00,7DC
06F8A:  CALL   37C4
06F8E:  MOVFF  03,5F4
06F92:  MOVFF  02,5F3
06F96:  MOVFF  01,5F2
06F9A:  MOVFF  00,5F1
06F9E:  MOVLB  5
....................       } 
....................    } 
....................     
....................    if(Pendiente==0){// Si Esta realizando una Meseta debe realizar el control JuDifuso 
06FA0:  MOVFF  610,7BE
06FA4:  MOVFF  60F,7BD
06FA8:  MOVFF  60E,7BC
06FAC:  MOVFF  60D,7BB
06FB0:  MOVLB  7
06FB2:  CLRF   xC2
06FB4:  CLRF   xC1
06FB6:  CLRF   xC0
06FB8:  CLRF   xBF
06FBA:  MOVLB  0
06FBC:  CALL   223A
06FC0:  BTFSS  FD8.2
06FC2:  BRA    737A
....................       error=desvio+Setpoint-Temperatura;      // Clculo del error ****** 
06FC4:  BCF    FD8.1
06FC6:  MOVFF  5F8,7CA
06FCA:  MOVFF  5F7,7C9
06FCE:  MOVFF  5F6,7C8
06FD2:  MOVFF  5F5,7C7
06FD6:  MOVFF  618,7CE
06FDA:  MOVFF  617,7CD
06FDE:  MOVFF  616,7CC
06FE2:  MOVFF  615,7CB
06FE6:  CALL   2412
06FEA:  MOVFF  00,7BB
06FEE:  MOVFF  01,7BC
06FF2:  MOVFF  02,7BD
06FF6:  MOVFF  03,7BE
06FFA:  BSF    FD8.1
06FFC:  MOVFF  03,7CA
07000:  MOVFF  02,7C9
07004:  MOVFF  01,7C8
07008:  MOVFF  00,7C7
0700C:  MOVFF  60C,7CE
07010:  MOVFF  60B,7CD
07014:  MOVFF  60A,7CC
07018:  MOVFF  609,7CB
0701C:  CALL   2412
07020:  MOVFF  03,5E0
07024:  MOVFF  02,5DF
07028:  MOVFF  01,5DE
0702C:  MOVFF  00,5DD
....................        
....................       if(error>3.0 && Aumento<1) 
07030:  MOVLB  7
07032:  CLRF   xBE
07034:  CLRF   xBD
07036:  MOVLW  40
07038:  MOVWF  xBC
0703A:  MOVLW  80
0703C:  MOVWF  xBB
0703E:  MOVFF  5E0,7C2
07042:  MOVFF  5DF,7C1
07046:  MOVFF  5DE,7C0
0704A:  MOVFF  5DD,7BF
0704E:  MOVLB  0
07050:  CALL   223A
07054:  BTFSS  FD8.0
07056:  BRA    721A
07058:  MOVFF  608,7BE
0705C:  MOVFF  607,7BD
07060:  MOVFF  606,7BC
07064:  MOVFF  605,7BB
07068:  MOVLB  7
0706A:  CLRF   xC2
0706C:  CLRF   xC1
0706E:  CLRF   xC0
07070:  MOVLW  7F
07072:  MOVWF  xBF
07074:  MOVLB  0
07076:  CALL   223A
0707A:  BTFSS  FD8.0
0707C:  BRA    721A
....................       { 
....................          if(Potencia<90.0) 
0707E:  MOVFF  5BC,7BE
07082:  MOVFF  5BB,7BD
07086:  MOVFF  5BA,7BC
0708A:  MOVFF  5B9,7BB
0708E:  MOVLB  7
07090:  CLRF   xC2
07092:  CLRF   xC1
07094:  MOVLW  34
07096:  MOVWF  xC0
07098:  MOVLW  85
0709A:  MOVWF  xBF
0709C:  MOVLB  0
0709E:  CALL   223A
070A2:  BTFSS  FD8.0
070A4:  BRA    721A
....................          { 
....................             if(TiempoControl>=Derivativo) 
070A6:  MOVLB  7
070A8:  CLRF   xC8
070AA:  MOVFF  578,7C7
070AE:  MOVLB  0
070B0:  CALL   2204
070B4:  MOVFF  620,7BE
070B8:  MOVFF  61F,7BD
070BC:  MOVFF  61E,7BC
070C0:  MOVFF  61D,7BB
070C4:  MOVFF  03,7C2
070C8:  MOVFF  02,7C1
070CC:  MOVFF  01,7C0
070D0:  MOVFF  00,7BF
070D4:  CALL   223A
070D8:  BC    70DE
070DA:  BTFSS  FD8.2
070DC:  BRA    721A
....................             { 
....................                TiempoControl=0; 
070DE:  MOVLB  5
070E0:  CLRF   x78
....................                if(Aumento<-2) 
070E2:  MOVFF  608,7BE
070E6:  MOVFF  607,7BD
070EA:  MOVFF  606,7BC
070EE:  MOVFF  605,7BB
070F2:  MOVLB  7
070F4:  CLRF   xC2
070F6:  CLRF   xC1
070F8:  MOVLW  80
070FA:  MOVWF  xC0
070FC:  MOVWF  xBF
070FE:  MOVLB  0
07100:  CALL   223A
07104:  BNC   7162
....................                { 
....................                   Ganancia+=Integral+1; 
07106:  BCF    FD8.1
07108:  MOVFF  61C,7CA
0710C:  MOVFF  61B,7C9
07110:  MOVFF  61A,7C8
07114:  MOVFF  619,7C7
07118:  MOVLB  7
0711A:  CLRF   xCE
0711C:  CLRF   xCD
0711E:  CLRF   xCC
07120:  MOVLW  7F
07122:  MOVWF  xCB
07124:  MOVLB  0
07126:  CALL   2412
0712A:  BCF    FD8.1
0712C:  MOVFF  5F4,7CA
07130:  MOVFF  5F3,7C9
07134:  MOVFF  5F2,7C8
07138:  MOVFF  5F1,7C7
0713C:  MOVFF  03,7CE
07140:  MOVFF  02,7CD
07144:  MOVFF  01,7CC
07148:  MOVFF  00,7CB
0714C:  CALL   2412
07150:  MOVFF  03,5F4
07154:  MOVFF  02,5F3
07158:  MOVFF  01,5F2
0715C:  MOVFF  00,5F1
....................                } 
....................                else 
07160:  BRA    721A
....................                { 
....................                   if(Aumento<-1) 
07162:  MOVFF  608,7BE
07166:  MOVFF  607,7BD
0716A:  MOVFF  606,7BC
0716E:  MOVFF  605,7BB
07172:  MOVLB  7
07174:  CLRF   xC2
07176:  CLRF   xC1
07178:  MOVLW  80
0717A:  MOVWF  xC0
0717C:  MOVLW  7F
0717E:  MOVWF  xBF
07180:  MOVLB  0
07182:  CALL   223A
07186:  BNC   71C0
....................                   { 
....................                      Ganancia+=Integral; 
07188:  BCF    FD8.1
0718A:  MOVFF  5F4,7CA
0718E:  MOVFF  5F3,7C9
07192:  MOVFF  5F2,7C8
07196:  MOVFF  5F1,7C7
0719A:  MOVFF  61C,7CE
0719E:  MOVFF  61B,7CD
071A2:  MOVFF  61A,7CC
071A6:  MOVFF  619,7CB
071AA:  CALL   2412
071AE:  MOVFF  03,5F4
071B2:  MOVFF  02,5F3
071B6:  MOVFF  01,5F2
071BA:  MOVFF  00,5F1
....................                   }    
....................                   else 
071BE:  BRA    721A
....................                   { 
....................                      Ganancia+=Integral-0.5; 
071C0:  BSF    FD8.1
071C2:  MOVFF  61C,7CA
071C6:  MOVFF  61B,7C9
071CA:  MOVFF  61A,7C8
071CE:  MOVFF  619,7C7
071D2:  MOVLB  7
071D4:  CLRF   xCE
071D6:  CLRF   xCD
071D8:  CLRF   xCC
071DA:  MOVLW  7E
071DC:  MOVWF  xCB
071DE:  MOVLB  0
071E0:  CALL   2412
071E4:  BCF    FD8.1
071E6:  MOVFF  5F4,7CA
071EA:  MOVFF  5F3,7C9
071EE:  MOVFF  5F2,7C8
071F2:  MOVFF  5F1,7C7
071F6:  MOVFF  03,7CE
071FA:  MOVFF  02,7CD
071FE:  MOVFF  01,7CC
07202:  MOVFF  00,7CB
07206:  CALL   2412
0720A:  MOVFF  03,5F4
0720E:  MOVFF  02,5F3
07212:  MOVFF  01,5F2
07216:  MOVFF  00,5F1
....................                   } 
....................                } 
....................             } 
....................          } 
....................       } 
....................        
....................       //if(error<-5) 
....................       //{ 
....................       //   Ganancia=6*(Setpoint/100); 
....................       //} 
....................        
....................       if(Ganancia<0.5) 
0721A:  MOVFF  5F4,7BE
0721E:  MOVFF  5F3,7BD
07222:  MOVFF  5F2,7BC
07226:  MOVFF  5F1,7BB
0722A:  MOVLB  7
0722C:  CLRF   xC2
0722E:  CLRF   xC1
07230:  CLRF   xC0
07232:  MOVLW  7E
07234:  MOVWF  xBF
07236:  MOVLB  0
07238:  CALL   223A
0723C:  BNC   724A
....................       { 
....................          Ganancia=0.5; 
0723E:  MOVLB  5
07240:  CLRF   xF4
07242:  CLRF   xF3
07244:  CLRF   xF2
07246:  MOVLW  7E
07248:  MOVWF  xF1
....................       } 
....................        
....................        
....................       if(error<0.0)     // Anti Wind_DOWN     
0724A:  MOVFF  5E0,7BE
0724E:  MOVFF  5DF,7BD
07252:  MOVFF  5DE,7BC
07256:  MOVFF  5DD,7BB
0725A:  MOVLB  7
0725C:  CLRF   xC2
0725E:  CLRF   xC1
07260:  CLRF   xC0
07262:  CLRF   xBF
07264:  MOVLB  0
07266:  CALL   223A
0726A:  BNC   7278
....................       { 
....................          error=0.0; 
0726C:  MOVLB  5
0726E:  CLRF   xE0
07270:  CLRF   xDF
07272:  CLRF   xDE
07274:  CLRF   xDD
07276:  MOVLB  0
....................       } 
....................     
....................       tmp=error*Ganancia;  // Control Proporcional. 
07278:  MOVFF  5E0,7DB
0727C:  MOVFF  5DF,7DA
07280:  MOVFF  5DE,7D9
07284:  MOVFF  5DD,7D8
07288:  MOVFF  5F4,7DF
0728C:  MOVFF  5F3,7DE
07290:  MOVFF  5F2,7DD
07294:  MOVFF  5F1,7DC
07298:  CALL   37C4
0729C:  MOVFF  03,5EC
072A0:  MOVFF  02,5EB
072A4:  MOVFF  01,5EA
072A8:  MOVFF  00,5E9
....................              
....................       if(tmp>Setpoint)   // Anti Wind-UP       
072AC:  MOVFF  618,7BE
072B0:  MOVFF  617,7BD
072B4:  MOVFF  616,7BC
072B8:  MOVFF  615,7BB
072BC:  MOVFF  5EC,7C2
072C0:  MOVFF  5EB,7C1
072C4:  MOVFF  5EA,7C0
072C8:  MOVFF  5E9,7BF
072CC:  CALL   223A
072D0:  BNC   72E2
....................       { 
....................          tmp=Setpoint; 
072D2:  MOVFF  618,5EC
072D6:  MOVFF  617,5EB
072DA:  MOVFF  616,5EA
072DE:  MOVFF  615,5E9
....................       } 
....................                    
....................       if(tmp<0.0)     // Anti Wind_DOWN     
072E2:  MOVFF  5EC,7BE
072E6:  MOVFF  5EB,7BD
072EA:  MOVFF  5EA,7BC
072EE:  MOVFF  5E9,7BB
072F2:  MOVLB  7
072F4:  CLRF   xC2
072F6:  CLRF   xC1
072F8:  CLRF   xC0
072FA:  CLRF   xBF
072FC:  MOVLB  0
072FE:  CALL   223A
07302:  BNC   7310
....................       { 
....................          tmp=0.0; 
07304:  MOVLB  5
07306:  CLRF   xEC
07308:  CLRF   xEB
0730A:  CLRF   xEA
0730C:  CLRF   xE9
0730E:  MOVLB  0
....................       } 
....................        
....................       // Tpulso(t)= Tciclo*(y(t)-ymin)/(ymax - ymin); calculo de ciclo util para control de resistencia.ymax=140.ymin=0; 
....................       // Tpulso es float, hay que pasar ese ciclo a una salida de un puerto usando el TMR1. 
....................       Tpulso=(tmp/Setpoint)*Tciclo;  
07310:  MOVFF  5EC,7C2
07314:  MOVFF  5EB,7C1
07318:  MOVFF  5EA,7C0
0731C:  MOVFF  5E9,7BF
07320:  MOVFF  618,7C6
07324:  MOVFF  617,7C5
07328:  MOVFF  616,7C4
0732C:  MOVFF  615,7C3
07330:  CALL   22B4
07334:  MOVFF  00,7BB
07338:  MOVFF  01,7BC
0733C:  MOVFF  02,7BD
07340:  MOVFF  03,7BE
07344:  MOVFF  03,7DB
07348:  MOVFF  02,7DA
0734C:  MOVFF  01,7D9
07350:  MOVFF  00,7D8
07354:  MOVFF  5D8,7DF
07358:  MOVFF  5D7,7DE
0735C:  MOVFF  5D6,7DD
07360:  MOVFF  5D5,7DC
07364:  CALL   37C4
07368:  MOVFF  03,5DC
0736C:  MOVFF  02,5DB
07370:  MOVFF  01,5DA
07374:  MOVFF  00,5D9
....................    } 
....................    else{// Si Esta realizando una Rampa debe realizar el control de acuerdo a la pendiente de Temperatura. Aprox 10C * min Maximo Valor de Pendiente. 
07378:  BRA    791E
....................       PendienteMinutos=PendienteActual*60; 
0737A:  MOVFF  5AC,7DB
0737E:  MOVFF  5AB,7DA
07382:  MOVFF  5AA,7D9
07386:  MOVFF  5A9,7D8
0738A:  MOVLB  7
0738C:  CLRF   xDF
0738E:  CLRF   xDE
07390:  MOVLW  70
07392:  MOVWF  xDD
07394:  MOVLW  84
07396:  MOVWF  xDC
07398:  MOVLB  0
0739A:  CALL   37C4
0739E:  MOVFF  03,59C
073A2:  MOVFF  02,59B
073A6:  MOVFF  01,59A
073AA:  MOVFF  00,599
....................       //PotenciaEntregada=((PendienteMinutos+DifPendiente)*100)/penMufla; 
....................       //HorasActual=(Testerilizacion[3]*10)+Testerilizacion[2]; 
....................       //MinutosActual=(Testerilizacion[1]*10)+Testerilizacion[0]; 
....................       TiempoRampa=((HorasActual*3600)+(MinutosActual*60)+tinicio); 
073AE:  MOVFF  5B0,7DB
073B2:  MOVFF  5AF,7DA
073B6:  MOVFF  5AE,7D9
073BA:  MOVFF  5AD,7D8
073BE:  MOVLB  7
073C0:  CLRF   xDF
073C2:  CLRF   xDE
073C4:  MOVLW  61
073C6:  MOVWF  xDD
073C8:  MOVLW  8A
073CA:  MOVWF  xDC
073CC:  MOVLB  0
073CE:  CALL   37C4
073D2:  MOVFF  00,7BB
073D6:  MOVFF  01,7BC
073DA:  MOVFF  02,7BD
073DE:  MOVFF  03,7BE
073E2:  MOVFF  5B4,7DB
073E6:  MOVFF  5B3,7DA
073EA:  MOVFF  5B2,7D9
073EE:  MOVFF  5B1,7D8
073F2:  MOVLB  7
073F4:  CLRF   xDF
073F6:  CLRF   xDE
073F8:  MOVLW  70
073FA:  MOVWF  xDD
073FC:  MOVLW  84
073FE:  MOVWF  xDC
07400:  MOVLB  0
07402:  CALL   37C4
07406:  BCF    FD8.1
07408:  MOVFF  7BE,7CA
0740C:  MOVFF  7BD,7C9
07410:  MOVFF  7BC,7C8
07414:  MOVFF  7BB,7C7
07418:  MOVFF  03,7CE
0741C:  MOVFF  02,7CD
07420:  MOVFF  01,7CC
07424:  MOVFF  00,7CB
07428:  CALL   2412
0742C:  MOVFF  00,7BB
07430:  MOVFF  01,7BC
07434:  MOVFF  02,7BD
07438:  MOVFF  03,7BE
0743C:  MOVFF  588,7C8
07440:  MOVFF  587,7C7
07444:  CALL   2204
07448:  BCF    FD8.1
0744A:  MOVFF  7BE,7CA
0744E:  MOVFF  7BD,7C9
07452:  MOVFF  7BC,7C8
07456:  MOVFF  7BB,7C7
0745A:  MOVFF  03,7CE
0745E:  MOVFF  02,7CD
07462:  MOVFF  01,7CC
07466:  MOVFF  00,7CB
0746A:  CALL   2412
0746E:  MOVFF  03,5B8
07472:  MOVFF  02,5B7
07476:  MOVFF  01,5B6
0747A:  MOVFF  00,5B5
....................       if(Segmento==0){ 
0747E:  MOVLB  5
07480:  MOVF   x6B,F
07482:  BNZ   74F4
....................          TemperaturaIdeal=(Pendiente*TiempoRampa)+TempeInicial; 
07484:  MOVFF  610,7DB
07488:  MOVFF  60F,7DA
0748C:  MOVFF  60E,7D9
07490:  MOVFF  60D,7D8
07494:  MOVFF  5B8,7DF
07498:  MOVFF  5B7,7DE
0749C:  MOVFF  5B6,7DD
074A0:  MOVFF  5B5,7DC
074A4:  MOVLB  0
074A6:  CALL   37C4
074AA:  MOVFF  00,7BB
074AE:  MOVFF  01,7BC
074B2:  MOVFF  02,7BD
074B6:  MOVFF  03,7BE
074BA:  BCF    FD8.1
074BC:  MOVFF  03,7CA
074C0:  MOVFF  02,7C9
074C4:  MOVFF  01,7C8
074C8:  MOVFF  00,7C7
074CC:  MOVFF  5A0,7CE
074D0:  MOVFF  59F,7CD
074D4:  MOVFF  59E,7CC
074D8:  MOVFF  59D,7CB
074DC:  CALL   2412
074E0:  MOVFF  03,640
074E4:  MOVFF  02,63F
074E8:  MOVFF  01,63E
074EC:  MOVFF  00,63D
....................       }else{ 
074F0:  BRA    75A4
074F2:  MOVLB  5
....................          TemperaturaIdeal=(Pendiente*TiempoRampa)+Temperatura1[(ProgramaSeleccionado*10)+Segmento-1]; 
074F4:  MOVFF  610,7DB
074F8:  MOVFF  60F,7DA
074FC:  MOVFF  60E,7D9
07500:  MOVFF  60D,7D8
07504:  MOVFF  5B8,7DF
07508:  MOVFF  5B7,7DE
0750C:  MOVFF  5B6,7DD
07510:  MOVFF  5B5,7DC
07514:  MOVLB  0
07516:  CALL   37C4
0751A:  MOVFF  00,7BB
0751E:  MOVFF  01,7BC
07522:  MOVFF  02,7BD
07526:  MOVFF  03,7BE
0752A:  MOVLB  5
0752C:  MOVF   x7B,W
0752E:  MULLW  0A
07530:  MOVF   FF3,W
07532:  ADDWF  x6B,W
07534:  ADDLW  FF
07536:  MOVWF  00
07538:  BCF    FD8.0
0753A:  RLCF   00,F
0753C:  MOVF   00,W
0753E:  CLRF   03
07540:  ADDLW  45
07542:  MOVWF  FE9
07544:  MOVLW  06
07546:  ADDWFC 03,W
07548:  MOVWF  FEA
0754A:  MOVFF  FEC,03
0754E:  MOVF   FED,F
07550:  MOVFF  FEF,7BF
07554:  MOVFF  03,7C0
07558:  MOVLB  0
0755A:  CALL   3F8A
0755E:  MOVFF  FEA,7C0
07562:  MOVFF  FE9,7BF
07566:  BCF    FD8.1
07568:  MOVFF  7BE,7CA
0756C:  MOVFF  7BD,7C9
07570:  MOVFF  7BC,7C8
07574:  MOVFF  7BB,7C7
07578:  MOVFF  03,7CE
0757C:  MOVFF  02,7CD
07580:  MOVFF  01,7CC
07584:  MOVFF  00,7CB
07588:  CALL   2412
0758C:  MOVFF  7C0,FEA
07590:  MOVFF  7BF,FE9
07594:  MOVFF  03,640
07598:  MOVFF  02,63F
0759C:  MOVFF  01,63E
075A0:  MOVFF  00,63D
....................       } 
....................       PotenciaEntregada=((TemperaturaIdeal-Temperatura)*100)/penMufla; 
075A4:  BSF    FD8.1
075A6:  MOVFF  640,7CA
075AA:  MOVFF  63F,7C9
075AE:  MOVFF  63E,7C8
075B2:  MOVFF  63D,7C7
075B6:  MOVFF  60C,7CE
075BA:  MOVFF  60B,7CD
075BE:  MOVFF  60A,7CC
075C2:  MOVFF  609,7CB
075C6:  CALL   2412
075CA:  MOVFF  00,7BB
075CE:  MOVFF  01,7BC
075D2:  MOVFF  02,7BD
075D6:  MOVFF  03,7BE
075DA:  MOVFF  03,7DB
075DE:  MOVFF  02,7DA
075E2:  MOVFF  01,7D9
075E6:  MOVFF  00,7D8
075EA:  MOVLB  7
075EC:  CLRF   xDF
075EE:  CLRF   xDE
075F0:  MOVLW  48
075F2:  MOVWF  xDD
075F4:  MOVLW  85
075F6:  MOVWF  xDC
075F8:  MOVLB  0
075FA:  CALL   37C4
075FE:  MOVFF  00,7BB
07602:  MOVFF  01,7BC
07606:  MOVFF  02,7BD
0760A:  MOVFF  03,7BE
0760E:  MOVFF  03,7C2
07612:  MOVFF  02,7C1
07616:  MOVFF  01,7C0
0761A:  MOVFF  00,7BF
0761E:  MOVFF  63C,7C6
07622:  MOVFF  63B,7C5
07626:  MOVFF  63A,7C4
0762A:  MOVFF  639,7C3
0762E:  CALL   22B4
07632:  MOVFF  03,5C0
07636:  MOVFF  02,5BF
0763A:  MOVFF  01,5BE
0763E:  MOVFF  00,5BD
.................... // Pendiente determinar si el comportamiento de la mufla es lineal 10C/min o si tiene un comportamiento diferente. 
....................           
....................       if(Temperatura<450 && Temperatura>=200) 
07642:  MOVFF  60C,7BE
07646:  MOVFF  60B,7BD
0764A:  MOVFF  60A,7BC
0764E:  MOVFF  609,7BB
07652:  MOVLB  7
07654:  CLRF   xC2
07656:  CLRF   xC1
07658:  MOVLW  61
0765A:  MOVWF  xC0
0765C:  MOVLW  87
0765E:  MOVWF  xBF
07660:  MOVLB  0
07662:  CALL   223A
07666:  BNC   76C4
07668:  MOVLB  7
0766A:  CLRF   xBE
0766C:  CLRF   xBD
0766E:  MOVLW  48
07670:  MOVWF  xBC
07672:  MOVLW  86
07674:  MOVWF  xBB
07676:  MOVFF  60C,7C2
0767A:  MOVFF  60B,7C1
0767E:  MOVFF  60A,7C0
07682:  MOVFF  609,7BF
07686:  MOVLB  0
07688:  CALL   223A
0768C:  BC    7690
0768E:  BNZ   76C4
....................          penMufla=penInicial*0.9; 
07690:  MOVFF  644,7DB
07694:  MOVFF  643,7DA
07698:  MOVFF  642,7D9
0769C:  MOVFF  641,7D8
076A0:  MOVLW  66
076A2:  MOVLB  7
076A4:  MOVWF  xDF
076A6:  MOVWF  xDE
076A8:  MOVWF  xDD
076AA:  MOVLW  7E
076AC:  MOVWF  xDC
076AE:  MOVLB  0
076B0:  CALL   37C4
076B4:  MOVFF  03,63C
076B8:  MOVFF  02,63B
076BC:  MOVFF  01,63A
076C0:  MOVFF  00,639
....................           
....................       if(Temperatura<600 && Temperatura>=450) 
076C4:  MOVFF  60C,7BE
076C8:  MOVFF  60B,7BD
076CC:  MOVFF  60A,7BC
076D0:  MOVFF  609,7BB
076D4:  MOVLB  7
076D6:  CLRF   xC2
076D8:  CLRF   xC1
076DA:  MOVLW  16
076DC:  MOVWF  xC0
076DE:  MOVLW  88
076E0:  MOVWF  xBF
076E2:  MOVLB  0
076E4:  CALL   223A
076E8:  BNC   774A
076EA:  MOVLB  7
076EC:  CLRF   xBE
076EE:  CLRF   xBD
076F0:  MOVLW  61
076F2:  MOVWF  xBC
076F4:  MOVLW  87
076F6:  MOVWF  xBB
076F8:  MOVFF  60C,7C2
076FC:  MOVFF  60B,7C1
07700:  MOVFF  60A,7C0
07704:  MOVFF  609,7BF
07708:  MOVLB  0
0770A:  CALL   223A
0770E:  BC    7712
07710:  BNZ   774A
....................          penMufla=penInicial*0.8; 
07712:  MOVFF  644,7DB
07716:  MOVFF  643,7DA
0771A:  MOVFF  642,7D9
0771E:  MOVFF  641,7D8
07722:  MOVLW  CD
07724:  MOVLB  7
07726:  MOVWF  xDF
07728:  MOVLW  CC
0772A:  MOVWF  xDE
0772C:  MOVLW  4C
0772E:  MOVWF  xDD
07730:  MOVLW  7E
07732:  MOVWF  xDC
07734:  MOVLB  0
07736:  CALL   37C4
0773A:  MOVFF  03,63C
0773E:  MOVFF  02,63B
07742:  MOVFF  01,63A
07746:  MOVFF  00,639
....................           
....................       if(Temperatura<900 && Temperatura>=600) 
0774A:  MOVFF  60C,7BE
0774E:  MOVFF  60B,7BD
07752:  MOVFF  60A,7BC
07756:  MOVFF  609,7BB
0775A:  MOVLB  7
0775C:  CLRF   xC2
0775E:  CLRF   xC1
07760:  MOVLW  61
07762:  MOVWF  xC0
07764:  MOVLW  88
07766:  MOVWF  xBF
07768:  MOVLB  0
0776A:  CALL   223A
0776E:  BNC   77CC
07770:  MOVLB  7
07772:  CLRF   xBE
07774:  CLRF   xBD
07776:  MOVLW  16
07778:  MOVWF  xBC
0777A:  MOVLW  88
0777C:  MOVWF  xBB
0777E:  MOVFF  60C,7C2
07782:  MOVFF  60B,7C1
07786:  MOVFF  60A,7C0
0778A:  MOVFF  609,7BF
0778E:  MOVLB  0
07790:  CALL   223A
07794:  BC    7798
07796:  BNZ   77CC
....................          penMufla=penInicial*0.7;   
07798:  MOVFF  644,7DB
0779C:  MOVFF  643,7DA
077A0:  MOVFF  642,7D9
077A4:  MOVFF  641,7D8
077A8:  MOVLW  33
077AA:  MOVLB  7
077AC:  MOVWF  xDF
077AE:  MOVWF  xDE
077B0:  MOVWF  xDD
077B2:  MOVLW  7E
077B4:  MOVWF  xDC
077B6:  MOVLB  0
077B8:  CALL   37C4
077BC:  MOVFF  03,63C
077C0:  MOVFF  02,63B
077C4:  MOVFF  01,63A
077C8:  MOVFF  00,639
....................           
....................       if(Temperatura<=1200 && Temperatura>=900) 
077CC:  MOVFF  60C,7BE
077D0:  MOVFF  60B,7BD
077D4:  MOVFF  60A,7BC
077D8:  MOVFF  609,7BB
077DC:  MOVLB  7
077DE:  CLRF   xC2
077E0:  CLRF   xC1
077E2:  MOVLW  16
077E4:  MOVWF  xC0
077E6:  MOVLW  89
077E8:  MOVWF  xBF
077EA:  MOVLB  0
077EC:  CALL   223A
077F0:  BC    77F4
077F2:  BNZ   7854
077F4:  MOVLB  7
077F6:  CLRF   xBE
077F8:  CLRF   xBD
077FA:  MOVLW  61
077FC:  MOVWF  xBC
077FE:  MOVLW  88
07800:  MOVWF  xBB
07802:  MOVFF  60C,7C2
07806:  MOVFF  60B,7C1
0780A:  MOVFF  60A,7C0
0780E:  MOVFF  609,7BF
07812:  MOVLB  0
07814:  CALL   223A
07818:  BC    781C
0781A:  BNZ   7854
....................          penMufla=penInicial*0.6;    
0781C:  MOVFF  644,7DB
07820:  MOVFF  643,7DA
07824:  MOVFF  642,7D9
07828:  MOVFF  641,7D8
0782C:  MOVLW  9A
0782E:  MOVLB  7
07830:  MOVWF  xDF
07832:  MOVLW  99
07834:  MOVWF  xDE
07836:  MOVLW  19
07838:  MOVWF  xDD
0783A:  MOVLW  7E
0783C:  MOVWF  xDC
0783E:  MOVLB  0
07840:  CALL   37C4
07844:  MOVFF  03,63C
07848:  MOVFF  02,63B
0784C:  MOVFF  01,63A
07850:  MOVFF  00,639
....................        
....................       if(PotenciaEntregada>100.0){ 
07854:  MOVLB  7
07856:  CLRF   xBE
07858:  CLRF   xBD
0785A:  MOVLW  48
0785C:  MOVWF  xBC
0785E:  MOVLW  85
07860:  MOVWF  xBB
07862:  MOVFF  5C0,7C2
07866:  MOVFF  5BF,7C1
0786A:  MOVFF  5BE,7C0
0786E:  MOVFF  5BD,7BF
07872:  MOVLB  0
07874:  CALL   223A
07878:  BNC   7888
....................          PotenciaEntregada=100.0; 
0787A:  MOVLB  5
0787C:  CLRF   xC0
0787E:  CLRF   xBF
07880:  MOVLW  48
07882:  MOVWF  xBE
07884:  MOVLW  85
07886:  MOVWF  xBD
....................       } 
....................        
....................       if(PotenciaEntregada<0){ 
07888:  MOVFF  5C0,7BE
0788C:  MOVFF  5BF,7BD
07890:  MOVFF  5BE,7BC
07894:  MOVFF  5BD,7BB
07898:  MOVLB  7
0789A:  CLRF   xC2
0789C:  CLRF   xC1
0789E:  CLRF   xC0
078A0:  CLRF   xBF
078A2:  MOVLB  0
078A4:  CALL   223A
078A8:  BNC   78B6
....................          PotenciaEntregada=0; 
078AA:  MOVLB  5
078AC:  CLRF   xC0
078AE:  CLRF   xBF
078B0:  CLRF   xBE
078B2:  CLRF   xBD
078B4:  MOVLB  0
....................       } 
....................        
....................       Tpulso=(PotenciaEntregada*Tciclo)/100; 
078B6:  MOVFF  5C0,7DB
078BA:  MOVFF  5BF,7DA
078BE:  MOVFF  5BE,7D9
078C2:  MOVFF  5BD,7D8
078C6:  MOVFF  5D8,7DF
078CA:  MOVFF  5D7,7DE
078CE:  MOVFF  5D6,7DD
078D2:  MOVFF  5D5,7DC
078D6:  CALL   37C4
078DA:  MOVFF  00,7BB
078DE:  MOVFF  01,7BC
078E2:  MOVFF  02,7BD
078E6:  MOVFF  03,7BE
078EA:  MOVFF  03,7C2
078EE:  MOVFF  02,7C1
078F2:  MOVFF  01,7C0
078F6:  MOVFF  00,7BF
078FA:  MOVLB  7
078FC:  CLRF   xC6
078FE:  CLRF   xC5
07900:  MOVLW  48
07902:  MOVWF  xC4
07904:  MOVLW  85
07906:  MOVWF  xC3
07908:  MOVLB  0
0790A:  CALL   22B4
0790E:  MOVFF  03,5DC
07912:  MOVFF  02,5DB
07916:  MOVFF  01,5DA
0791A:  MOVFF  00,5D9
....................    } 
....................    Tp=(int16)(Tpulso/0.005); 
0791E:  MOVFF  5DC,7C2
07922:  MOVFF  5DB,7C1
07926:  MOVFF  5DA,7C0
0792A:  MOVFF  5D9,7BF
0792E:  MOVLW  0A
07930:  MOVLB  7
07932:  MOVWF  xC6
07934:  MOVLW  D7
07936:  MOVWF  xC5
07938:  MOVLW  23
0793A:  MOVWF  xC4
0793C:  MOVLW  77
0793E:  MOVWF  xC3
07940:  MOVLB  0
07942:  CALL   22B4
07946:  MOVFF  03,7CA
0794A:  MOVFF  02,7C9
0794E:  MOVFF  01,7C8
07952:  MOVFF  00,7C7
07956:  CALL   68FA
0795A:  MOVFF  02,58E
0795E:  MOVFF  01,58D
....................    Tc=(int16)(Tciclo/0.005); 
07962:  MOVFF  5D8,7C2
07966:  MOVFF  5D7,7C1
0796A:  MOVFF  5D6,7C0
0796E:  MOVFF  5D5,7BF
07972:  MOVLW  0A
07974:  MOVLB  7
07976:  MOVWF  xC6
07978:  MOVLW  D7
0797A:  MOVWF  xC5
0797C:  MOVLW  23
0797E:  MOVWF  xC4
07980:  MOVLW  77
07982:  MOVWF  xC3
07984:  MOVLB  0
07986:  CALL   22B4
0798A:  MOVFF  03,7CA
0798E:  MOVFF  02,7C9
07992:  MOVFF  01,7C8
07996:  MOVFF  00,7C7
0799A:  CALL   68FA
0799E:  MOVFF  02,590
079A2:  MOVFF  01,58F
....................           
.................... //--------------------------------------------------------------------------------------------------------------------//    
.................... } 
079A6:  RETLW  00
....................  
.................... void displayMenu(char palabra[30], int x, int y, int sombreado, int tamano) 
.................... { 
....................    strcpy(Menus.Letra,palabra); 
*
01EFC:  MOVLB  7
01EFE:  MOVFF  7BE,01
01F02:  MOVFF  7BF,03
01F06:  MOVFF  7BE,7C4
01F0A:  MOVFF  7BF,7C5
01F0E:  MOVLW  07
01F10:  MOVWF  FEA
01F12:  MOVLW  9B
01F14:  MOVWF  FE9
01F16:  MOVFF  7BF,FE2
01F1A:  MOVFF  7BE,FE1
01F1E:  MOVF   FE7,F
01F20:  MOVFF  FE6,FEE
01F24:  BNZ   1F1E
....................     
....................    if(sombreado==3) 
01F26:  MOVF   xC2,W
01F28:  SUBLW  03
01F2A:  BNZ   1F52
....................       {glcd_text57(x+1, y+1, Menus.Letra, tamano, OFF);} 
01F2C:  MOVLW  01
01F2E:  ADDWF  xC0,W
01F30:  MOVWF  xC4
01F32:  MOVLW  01
01F34:  ADDWF  xC1,W
01F36:  MOVWF  xC5
01F38:  MOVFF  7C4,7D3
01F3C:  MOVWF  xD4
01F3E:  MOVLW  07
01F40:  MOVWF  xD6
01F42:  MOVLW  9B
01F44:  MOVWF  xD5
01F46:  MOVFF  7C3,7D7
01F4A:  CLRF   xD8
01F4C:  MOVLB  0
01F4E:  RCALL  1B44
01F50:  MOVLB  7
....................    if(sombreado==2) 
01F52:  MOVF   xC2,W
01F54:  SUBLW  02
01F56:  BNZ   1F80
....................       {glcd_text57(x+1, y+1, Menus.Letra, tamano, ON);} 
01F58:  MOVLW  01
01F5A:  ADDWF  xC0,W
01F5C:  MOVWF  xC4
01F5E:  MOVLW  01
01F60:  ADDWF  xC1,W
01F62:  MOVWF  xC5
01F64:  MOVFF  7C4,7D3
01F68:  MOVWF  xD4
01F6A:  MOVLW  07
01F6C:  MOVWF  xD6
01F6E:  MOVLW  9B
01F70:  MOVWF  xD5
01F72:  MOVFF  7C3,7D7
01F76:  MOVLW  01
01F78:  MOVWF  xD8
01F7A:  MOVLB  0
01F7C:  RCALL  1B44
01F7E:  MOVLB  7
....................    if(sombreado==1) 
01F80:  DECFSZ xC2,W
01F82:  BRA    1FCE
....................       {glcd_rect(0, y, 127, y+(tamano*8), YES, ON);glcd_text57(x+1, y+1, Menus.Letra, tamano, OFF);} 
01F84:  MOVF   xC3,W
01F86:  MULLW  08
01F88:  MOVF   FF3,W
01F8A:  ADDWF  xC1,W
01F8C:  MOVWF  xC4
01F8E:  CLRF   xD3
01F90:  MOVFF  7C1,7D4
01F94:  MOVLW  7F
01F96:  MOVWF  xD5
01F98:  MOVFF  7C4,7D6
01F9C:  MOVLW  01
01F9E:  MOVWF  xD7
01FA0:  MOVWF  xD8
01FA2:  MOVLB  0
01FA4:  RCALL  1E3A
01FA6:  MOVLW  01
01FA8:  MOVLB  7
01FAA:  ADDWF  xC0,W
01FAC:  MOVWF  xC4
01FAE:  MOVLW  01
01FB0:  ADDWF  xC1,W
01FB2:  MOVWF  xC5
01FB4:  MOVFF  7C4,7D3
01FB8:  MOVWF  xD4
01FBA:  MOVLW  07
01FBC:  MOVWF  xD6
01FBE:  MOVLW  9B
01FC0:  MOVWF  xD5
01FC2:  MOVFF  7C3,7D7
01FC6:  CLRF   xD8
01FC8:  MOVLB  0
01FCA:  RCALL  1B44
01FCC:  MOVLB  7
....................    if(sombreado==0) 
01FCE:  MOVF   xC2,F
01FD0:  BNZ   201C
....................       {glcd_rect(0, y, 127, y+(tamano*8), YES, OFF);glcd_text57(x+1, y+1, Menus.Letra, tamano, ON);} 
01FD2:  MOVF   xC3,W
01FD4:  MULLW  08
01FD6:  MOVF   FF3,W
01FD8:  ADDWF  xC1,W
01FDA:  MOVWF  xC4
01FDC:  CLRF   xD3
01FDE:  MOVFF  7C1,7D4
01FE2:  MOVLW  7F
01FE4:  MOVWF  xD5
01FE6:  MOVFF  7C4,7D6
01FEA:  MOVLW  01
01FEC:  MOVWF  xD7
01FEE:  CLRF   xD8
01FF0:  MOVLB  0
01FF2:  RCALL  1E3A
01FF4:  MOVLW  01
01FF6:  MOVLB  7
01FF8:  ADDWF  xC0,W
01FFA:  MOVWF  xC4
01FFC:  MOVLW  01
01FFE:  ADDWF  xC1,W
02000:  MOVWF  xC5
02002:  MOVFF  7C4,7D3
02006:  MOVWF  xD4
02008:  MOVLW  07
0200A:  MOVWF  xD6
0200C:  MOVLW  9B
0200E:  MOVWF  xD5
02010:  MOVFF  7C3,7D7
02014:  MOVLW  01
02016:  MOVWF  xD8
02018:  MOVLB  0
0201A:  RCALL  1B44
....................    glcd_update(); 
0201C:  MOVLB  0
0201E:  RCALL  1928
.................... } 
02020:  RETLW  00
....................  
.................... void displayTemps(char palabra[30], int16 digito, int x, int y, int sombreado, int tamano) 
.................... { 
....................    char voltage[9]; 
....................     
....................    if(sombreado==11) 
*
05512:  MOVLB  7
05514:  MOVF   xC6,W
05516:  SUBLW  0B
05518:  BNZ   55D8
....................    { 
....................       sprintf(voltage, "%02Lu", digito); 
0551A:  MOVLW  07
0551C:  MOVWF  xBA
0551E:  MOVLW  C8
05520:  MOVWF  xB9
05522:  MOVLW  0B
05524:  MOVWF  FE9
05526:  MOVFF  7C3,7D2
0552A:  MOVFF  7C2,7D1
0552E:  MOVLB  0
05530:  RCALL  506E
....................       glcd_rect(0, y-2, 127, y+(tamano*8), YES, ON); 
05532:  MOVLW  02
05534:  MOVLB  7
05536:  SUBWF  xC5,W
05538:  MOVWF  xD1
0553A:  MOVF   xC7,W
0553C:  MULLW  08
0553E:  MOVF   FF3,W
05540:  ADDWF  xC5,W
05542:  MOVWF  xD2
05544:  CLRF   xD3
05546:  MOVFF  7D1,7D4
0554A:  MOVLW  7F
0554C:  MOVWF  xD5
0554E:  MOVFF  7D2,7D6
05552:  MOVLW  01
05554:  MOVWF  xD7
05556:  MOVWF  xD8
05558:  MOVLB  0
0555A:  CALL   1E3A
....................       strcpy(Menus.Letra,palabra); 
0555E:  MOVLB  7
05560:  MOVFF  7C0,01
05564:  MOVFF  7C1,03
05568:  MOVFF  7C0,7D1
0556C:  MOVFF  7C1,7D2
05570:  MOVLW  07
05572:  MOVWF  FEA
05574:  MOVLW  9B
05576:  MOVWF  FE9
05578:  MOVFF  7C1,FE2
0557C:  MOVFF  7C0,FE1
05580:  MOVF   FE7,F
05582:  MOVFF  FE6,FEE
05586:  BNZ   5580
....................       glcd_text57(x+90, y+1, voltage, tamano, OFF); 
05588:  MOVLW  5A
0558A:  ADDWF  xC4,W
0558C:  MOVWF  xD1
0558E:  MOVLW  01
05590:  ADDWF  xC5,W
05592:  MOVWF  xD2
05594:  MOVFF  7D1,7D3
05598:  MOVWF  xD4
0559A:  MOVLW  07
0559C:  MOVWF  xD6
0559E:  MOVLW  C8
055A0:  MOVWF  xD5
055A2:  MOVFF  7C7,7D7
055A6:  CLRF   xD8
055A8:  MOVLB  0
055AA:  CALL   1B44
....................       glcd_text57(x+1, y+1, Menus.Letra, tamano, OFF); 
055AE:  MOVLW  01
055B0:  MOVLB  7
055B2:  ADDWF  xC4,W
055B4:  MOVWF  xD1
055B6:  MOVLW  01
055B8:  ADDWF  xC5,W
055BA:  MOVWF  xD2
055BC:  MOVFF  7D1,7D3
055C0:  MOVWF  xD4
055C2:  MOVLW  07
055C4:  MOVWF  xD6
055C6:  MOVLW  9B
055C8:  MOVWF  xD5
055CA:  MOVFF  7C7,7D7
055CE:  CLRF   xD8
055D0:  MOVLB  0
055D2:  CALL   1B44
055D6:  MOVLB  7
....................    } 
....................    if(sombreado==10) 
055D8:  MOVF   xC6,W
055DA:  SUBLW  0A
055DC:  BNZ   56A0
....................    { 
....................       sprintf(voltage, "%02Lu", digito); 
055DE:  MOVLW  07
055E0:  MOVWF  xBA
055E2:  MOVLW  C8
055E4:  MOVWF  xB9
055E6:  MOVLW  0B
055E8:  MOVWF  FE9
055EA:  MOVFF  7C3,7D2
055EE:  MOVFF  7C2,7D1
055F2:  MOVLB  0
055F4:  RCALL  506E
....................       glcd_rect(0, y-2, 127, y+(tamano*8), YES, OFF); 
055F6:  MOVLW  02
055F8:  MOVLB  7
055FA:  SUBWF  xC5,W
055FC:  MOVWF  xD1
055FE:  MOVF   xC7,W
05600:  MULLW  08
05602:  MOVF   FF3,W
05604:  ADDWF  xC5,W
05606:  MOVWF  xD2
05608:  CLRF   xD3
0560A:  MOVFF  7D1,7D4
0560E:  MOVLW  7F
05610:  MOVWF  xD5
05612:  MOVFF  7D2,7D6
05616:  MOVLW  01
05618:  MOVWF  xD7
0561A:  CLRF   xD8
0561C:  MOVLB  0
0561E:  CALL   1E3A
....................       strcpy(Menus.Letra,palabra); 
05622:  MOVLB  7
05624:  MOVFF  7C0,01
05628:  MOVFF  7C1,03
0562C:  MOVFF  7C0,7D1
05630:  MOVFF  7C1,7D2
05634:  MOVLW  07
05636:  MOVWF  FEA
05638:  MOVLW  9B
0563A:  MOVWF  FE9
0563C:  MOVFF  7C1,FE2
05640:  MOVFF  7C0,FE1
05644:  MOVF   FE7,F
05646:  MOVFF  FE6,FEE
0564A:  BNZ   5644
....................       glcd_text57(x+90, y+1, voltage, tamano, ON); 
0564C:  MOVLW  5A
0564E:  ADDWF  xC4,W
05650:  MOVWF  xD1
05652:  MOVLW  01
05654:  ADDWF  xC5,W
05656:  MOVWF  xD2
05658:  MOVFF  7D1,7D3
0565C:  MOVWF  xD4
0565E:  MOVLW  07
05660:  MOVWF  xD6
05662:  MOVLW  C8
05664:  MOVWF  xD5
05666:  MOVFF  7C7,7D7
0566A:  MOVLW  01
0566C:  MOVWF  xD8
0566E:  MOVLB  0
05670:  CALL   1B44
....................       glcd_text57(x+1, y+1, Menus.Letra, tamano, ON); 
05674:  MOVLW  01
05676:  MOVLB  7
05678:  ADDWF  xC4,W
0567A:  MOVWF  xD1
0567C:  MOVLW  01
0567E:  ADDWF  xC5,W
05680:  MOVWF  xD2
05682:  MOVFF  7D1,7D3
05686:  MOVWF  xD4
05688:  MOVLW  07
0568A:  MOVWF  xD6
0568C:  MOVLW  9B
0568E:  MOVWF  xD5
05690:  MOVFF  7C7,7D7
05694:  MOVLW  01
05696:  MOVWF  xD8
05698:  MOVLB  0
0569A:  CALL   1B44
0569E:  MOVLB  7
....................    } 
....................     
....................    if(sombreado==1) 
056A0:  DECFSZ xC6,W
056A2:  BRA    57CE
....................    { 
....................       sprintf(voltage, "%04Lu", digito); 
056A4:  MOVLW  07
056A6:  MOVWF  xBA
056A8:  MOVLW  C8
056AA:  MOVWF  xB9
056AC:  MOVLW  09
056AE:  MOVWF  FE9
056B0:  MOVFF  7C3,7D2
056B4:  MOVFF  7C2,7D1
056B8:  MOVLB  0
056BA:  RCALL  506E
....................       glcd_rect(0, y-2, 127, y+(tamano*8), YES, ON); 
056BC:  MOVLW  02
056BE:  MOVLB  7
056C0:  SUBWF  xC5,W
056C2:  MOVWF  xD1
056C4:  MOVF   xC7,W
056C6:  MULLW  08
056C8:  MOVF   FF3,W
056CA:  ADDWF  xC5,W
056CC:  MOVWF  xD2
056CE:  CLRF   xD3
056D0:  MOVFF  7D1,7D4
056D4:  MOVLW  7F
056D6:  MOVWF  xD5
056D8:  MOVFF  7D2,7D6
056DC:  MOVLW  01
056DE:  MOVWF  xD7
056E0:  MOVWF  xD8
056E2:  MOVLB  0
056E4:  CALL   1E3A
....................       strcpy(Menus.Letra,palabra); 
056E8:  MOVLB  7
056EA:  MOVFF  7C0,01
056EE:  MOVFF  7C1,03
056F2:  MOVFF  7C0,7D1
056F6:  MOVFF  7C1,7D2
056FA:  MOVLW  07
056FC:  MOVWF  FEA
056FE:  MOVLW  9B
05700:  MOVWF  FE9
05702:  MOVFF  7C1,FE2
05706:  MOVFF  7C0,FE1
0570A:  MOVF   FE7,F
0570C:  MOVFF  FE6,FEE
05710:  BNZ   570A
....................       glcd_text57(x+90, y+1, voltage, tamano, OFF); 
05712:  MOVLW  5A
05714:  ADDWF  xC4,W
05716:  MOVWF  xD1
05718:  MOVLW  01
0571A:  ADDWF  xC5,W
0571C:  MOVWF  xD2
0571E:  MOVFF  7D1,7D3
05722:  MOVWF  xD4
05724:  MOVLW  07
05726:  MOVWF  xD6
05728:  MOVLW  C8
0572A:  MOVWF  xD5
0572C:  MOVFF  7C7,7D7
05730:  CLRF   xD8
05732:  MOVLB  0
05734:  CALL   1B44
....................       glcd_text57(x+1, y+1, Menus.Letra, tamano, OFF); 
05738:  MOVLW  01
0573A:  MOVLB  7
0573C:  ADDWF  xC4,W
0573E:  MOVWF  xD1
05740:  MOVLW  01
05742:  ADDWF  xC5,W
05744:  MOVWF  xD2
05746:  MOVFF  7D1,7D3
0574A:  MOVWF  xD4
0574C:  MOVLW  07
0574E:  MOVWF  xD6
05750:  MOVLW  9B
05752:  MOVWF  xD5
05754:  MOVFF  7C7,7D7
05758:  CLRF   xD8
0575A:  MOVLB  0
0575C:  CALL   1B44
....................       strcpy(Menus.Letra,"C"); 
05760:  MOVLW  07
05762:  MOVWF  FEA
05764:  MOVLW  9B
05766:  MOVWF  FE9
05768:  MOVFF  FF2,7D1
0576C:  BCF    FF2.7
0576E:  MOVLW  00
05770:  CALL   06D2
05774:  TBLRD*-
05776:  TBLRD*+
05778:  MOVF   FF5,W
0577A:  MOVWF  FEE
0577C:  IORLW  00
0577E:  BNZ   5776
05780:  MOVLB  7
05782:  BTFSC  xD1.7
05784:  BSF    FF2.7
....................       glcd_text57(x+120, y+1, Menus.Letra, tamano, OFF); 
05786:  MOVLW  78
05788:  ADDWF  xC4,W
0578A:  MOVWF  xD1
0578C:  MOVLW  01
0578E:  ADDWF  xC5,W
05790:  MOVWF  xD2
05792:  MOVFF  7D1,7D3
05796:  MOVWF  xD4
05798:  MOVLW  07
0579A:  MOVWF  xD6
0579C:  MOVLW  9B
0579E:  MOVWF  xD5
057A0:  MOVFF  7C7,7D7
057A4:  CLRF   xD8
057A6:  MOVLB  0
057A8:  CALL   1B44
....................       glcd_circle(x+115,y-1,1,NO,OFF); 
057AC:  MOVLW  73
057AE:  MOVLB  7
057B0:  ADDWF  xC4,W
057B2:  MOVWF  xD1
057B4:  MOVLW  01
057B6:  SUBWF  xC5,W
057B8:  MOVWF  xD2
057BA:  MOVFF  7D1,7D3
057BE:  MOVWF  xD4
057C0:  MOVLW  01
057C2:  MOVWF  xD5
057C4:  CLRF   xD6
057C6:  CLRF   xD7
057C8:  MOVLB  0
057CA:  RCALL  52E4
057CC:  MOVLB  7
....................    } 
....................    if(sombreado==0) 
057CE:  MOVF   xC6,F
057D0:  BTFSS  FD8.2
057D2:  BRA    5902
....................    { 
....................       sprintf(voltage, "%04Lu", digito); 
057D4:  MOVLW  07
057D6:  MOVWF  xBA
057D8:  MOVLW  C8
057DA:  MOVWF  xB9
057DC:  MOVLW  09
057DE:  MOVWF  FE9
057E0:  MOVFF  7C3,7D2
057E4:  MOVFF  7C2,7D1
057E8:  MOVLB  0
057EA:  RCALL  506E
....................       glcd_rect(0, y-2, 127, y+(tamano*8), YES, OFF); 
057EC:  MOVLW  02
057EE:  MOVLB  7
057F0:  SUBWF  xC5,W
057F2:  MOVWF  xD1
057F4:  MOVF   xC7,W
057F6:  MULLW  08
057F8:  MOVF   FF3,W
057FA:  ADDWF  xC5,W
057FC:  MOVWF  xD2
057FE:  CLRF   xD3
05800:  MOVFF  7D1,7D4
05804:  MOVLW  7F
05806:  MOVWF  xD5
05808:  MOVFF  7D2,7D6
0580C:  MOVLW  01
0580E:  MOVWF  xD7
05810:  CLRF   xD8
05812:  MOVLB  0
05814:  CALL   1E3A
....................       strcpy(Menus.Letra,palabra); 
05818:  MOVLB  7
0581A:  MOVFF  7C0,01
0581E:  MOVFF  7C1,03
05822:  MOVFF  7C0,7D1
05826:  MOVFF  7C1,7D2
0582A:  MOVLW  07
0582C:  MOVWF  FEA
0582E:  MOVLW  9B
05830:  MOVWF  FE9
05832:  MOVFF  7C1,FE2
05836:  MOVFF  7C0,FE1
0583A:  MOVF   FE7,F
0583C:  MOVFF  FE6,FEE
05840:  BNZ   583A
....................       glcd_text57(x+90, y+1, voltage, tamano, ON); 
05842:  MOVLW  5A
05844:  ADDWF  xC4,W
05846:  MOVWF  xD1
05848:  MOVLW  01
0584A:  ADDWF  xC5,W
0584C:  MOVWF  xD2
0584E:  MOVFF  7D1,7D3
05852:  MOVWF  xD4
05854:  MOVLW  07
05856:  MOVWF  xD6
05858:  MOVLW  C8
0585A:  MOVWF  xD5
0585C:  MOVFF  7C7,7D7
05860:  MOVLW  01
05862:  MOVWF  xD8
05864:  MOVLB  0
05866:  CALL   1B44
....................       glcd_text57(x+1, y+1, Menus.Letra, tamano, ON); 
0586A:  MOVLW  01
0586C:  MOVLB  7
0586E:  ADDWF  xC4,W
05870:  MOVWF  xD1
05872:  MOVLW  01
05874:  ADDWF  xC5,W
05876:  MOVWF  xD2
05878:  MOVFF  7D1,7D3
0587C:  MOVWF  xD4
0587E:  MOVLW  07
05880:  MOVWF  xD6
05882:  MOVLW  9B
05884:  MOVWF  xD5
05886:  MOVFF  7C7,7D7
0588A:  MOVLW  01
0588C:  MOVWF  xD8
0588E:  MOVLB  0
05890:  CALL   1B44
....................       strcpy(Menus.Letra,"C"); 
05894:  MOVLW  07
05896:  MOVWF  FEA
05898:  MOVLW  9B
0589A:  MOVWF  FE9
0589C:  MOVFF  FF2,7D1
058A0:  BCF    FF2.7
058A2:  MOVLW  00
058A4:  CALL   06D2
058A8:  TBLRD*-
058AA:  TBLRD*+
058AC:  MOVF   FF5,W
058AE:  MOVWF  FEE
058B0:  IORLW  00
058B2:  BNZ   58AA
058B4:  MOVLB  7
058B6:  BTFSC  xD1.7
058B8:  BSF    FF2.7
....................       glcd_text57(x+120, y+1, Menus.Letra, tamano, ON); 
058BA:  MOVLW  78
058BC:  ADDWF  xC4,W
058BE:  MOVWF  xD1
058C0:  MOVLW  01
058C2:  ADDWF  xC5,W
058C4:  MOVWF  xD2
058C6:  MOVFF  7D1,7D3
058CA:  MOVWF  xD4
058CC:  MOVLW  07
058CE:  MOVWF  xD6
058D0:  MOVLW  9B
058D2:  MOVWF  xD5
058D4:  MOVFF  7C7,7D7
058D8:  MOVLW  01
058DA:  MOVWF  xD8
058DC:  MOVLB  0
058DE:  CALL   1B44
....................       glcd_circle(x+115,y-1,1,NO,ON); 
058E2:  MOVLW  73
058E4:  MOVLB  7
058E6:  ADDWF  xC4,W
058E8:  MOVWF  xD1
058EA:  MOVLW  01
058EC:  SUBWF  xC5,W
058EE:  MOVWF  xD2
058F0:  MOVFF  7D1,7D3
058F4:  MOVWF  xD4
058F6:  MOVLW  01
058F8:  MOVWF  xD5
058FA:  CLRF   xD6
058FC:  MOVWF  xD7
058FE:  MOVLB  0
05900:  RCALL  52E4
....................    } 
....................    glcd_update(); 
05902:  MOVLB  0
05904:  CALL   1928
.................... } 
05908:  RETLW  00
....................  
.................... void displayTiempo(int digito, int x, int y, int sombreado, int tamano) 
.................... { 
....................    char voltage[9]; 
....................     
....................    if(sombreado==2) 
*
03D70:  MOVLB  7
03D72:  MOVF   xC1,W
03D74:  SUBLW  02
03D76:  BNZ   3DE8
....................    { 
....................       sprintf(voltage, "%03u", digito); 
03D78:  MOVLW  07
03D7A:  MOVWF  xBA
03D7C:  MOVLW  C3
03D7E:  MOVWF  xB9
03D80:  MOVFF  7BE,7CC
03D84:  MOVLW  03
03D86:  MOVWF  xCD
03D88:  MOVLB  0
03D8A:  RCALL  3CEA
....................       glcd_rect(x, y, x+(tamano*18), y+(tamano*8), YES, ON); 
03D8C:  MOVLB  7
03D8E:  MOVF   xC2,W
03D90:  MULLW  12
03D92:  MOVF   FF3,W
03D94:  ADDWF  xBF,W
03D96:  MOVWF  xCC
03D98:  MOVF   xC2,W
03D9A:  MULLW  08
03D9C:  MOVF   FF3,W
03D9E:  ADDWF  xC0,W
03DA0:  MOVWF  xCD
03DA2:  MOVFF  7BF,7D3
03DA6:  MOVFF  7C0,7D4
03DAA:  MOVFF  7CC,7D5
03DAE:  MOVWF  xD6
03DB0:  MOVLW  01
03DB2:  MOVWF  xD7
03DB4:  MOVWF  xD8
03DB6:  MOVLB  0
03DB8:  CALL   1E3A
....................       glcd_text57(x+1, y+1, voltage, tamano, OFF); 
03DBC:  MOVLW  01
03DBE:  MOVLB  7
03DC0:  ADDWF  xBF,W
03DC2:  MOVWF  xCC
03DC4:  MOVLW  01
03DC6:  ADDWF  xC0,W
03DC8:  MOVWF  xCD
03DCA:  MOVFF  7CC,7D3
03DCE:  MOVWF  xD4
03DD0:  MOVLW  07
03DD2:  MOVWF  xD6
03DD4:  MOVLW  C3
03DD6:  MOVWF  xD5
03DD8:  MOVFF  7C2,7D7
03DDC:  CLRF   xD8
03DDE:  MOVLB  0
03DE0:  CALL   1B44
....................    } 
....................    else 
03DE4:  BRA    3F2C
03DE6:  MOVLB  7
....................    { 
....................       if(sombreado==3) 
03DE8:  MOVF   xC1,W
03DEA:  SUBLW  03
03DEC:  BNZ   3E5E
....................       { 
....................          sprintf(voltage, "%03u", digito); 
03DEE:  MOVLW  07
03DF0:  MOVWF  xBA
03DF2:  MOVLW  C3
03DF4:  MOVWF  xB9
03DF6:  MOVFF  7BE,7CC
03DFA:  MOVLW  03
03DFC:  MOVWF  xCD
03DFE:  MOVLB  0
03E00:  RCALL  3CEA
....................          glcd_rect(x, y, x+(tamano*18), y+(tamano*8), YES, OFF); 
03E02:  MOVLB  7
03E04:  MOVF   xC2,W
03E06:  MULLW  12
03E08:  MOVF   FF3,W
03E0A:  ADDWF  xBF,W
03E0C:  MOVWF  xCC
03E0E:  MOVF   xC2,W
03E10:  MULLW  08
03E12:  MOVF   FF3,W
03E14:  ADDWF  xC0,W
03E16:  MOVWF  xCD
03E18:  MOVFF  7BF,7D3
03E1C:  MOVFF  7C0,7D4
03E20:  MOVFF  7CC,7D5
03E24:  MOVWF  xD6
03E26:  MOVLW  01
03E28:  MOVWF  xD7
03E2A:  CLRF   xD8
03E2C:  MOVLB  0
03E2E:  CALL   1E3A
....................          glcd_text57(x+1, y+1, voltage, tamano, ON); 
03E32:  MOVLW  01
03E34:  MOVLB  7
03E36:  ADDWF  xBF,W
03E38:  MOVWF  xCC
03E3A:  MOVLW  01
03E3C:  ADDWF  xC0,W
03E3E:  MOVWF  xCD
03E40:  MOVFF  7CC,7D3
03E44:  MOVWF  xD4
03E46:  MOVLW  07
03E48:  MOVWF  xD6
03E4A:  MOVLW  C3
03E4C:  MOVWF  xD5
03E4E:  MOVFF  7C2,7D7
03E52:  MOVLW  01
03E54:  MOVWF  xD8
03E56:  MOVLB  0
03E58:  CALL   1B44
03E5C:  MOVLB  7
....................       } 
....................       sprintf(voltage, "%u", digito); 
03E5E:  MOVLW  07
03E60:  MOVWF  xBA
03E62:  MOVLW  C3
03E64:  MOVWF  xB9
03E66:  MOVFF  7BE,7CC
03E6A:  MOVLW  1B
03E6C:  MOVWF  xCD
03E6E:  MOVLB  0
03E70:  RCALL  3CEA
....................       if(sombreado==1) 
03E72:  MOVLB  7
03E74:  DECFSZ xC1,W
03E76:  BRA    3ED0
....................          {glcd_rect(x, y, x+(tamano*5), y+(tamano*8), YES, ON);glcd_text57(x+1, y+1, voltage, tamano, OFF);} 
03E78:  MOVF   xC2,W
03E7A:  MULLW  05
03E7C:  MOVF   FF3,W
03E7E:  ADDWF  xBF,W
03E80:  MOVWF  xCC
03E82:  MOVF   xC2,W
03E84:  MULLW  08
03E86:  MOVF   FF3,W
03E88:  ADDWF  xC0,W
03E8A:  MOVWF  xCD
03E8C:  MOVFF  7BF,7D3
03E90:  MOVFF  7C0,7D4
03E94:  MOVFF  7CC,7D5
03E98:  MOVWF  xD6
03E9A:  MOVLW  01
03E9C:  MOVWF  xD7
03E9E:  MOVWF  xD8
03EA0:  MOVLB  0
03EA2:  CALL   1E3A
03EA6:  MOVLW  01
03EA8:  MOVLB  7
03EAA:  ADDWF  xBF,W
03EAC:  MOVWF  xCC
03EAE:  MOVLW  01
03EB0:  ADDWF  xC0,W
03EB2:  MOVWF  xCD
03EB4:  MOVFF  7CC,7D3
03EB8:  MOVWF  xD4
03EBA:  MOVLW  07
03EBC:  MOVWF  xD6
03EBE:  MOVLW  C3
03EC0:  MOVWF  xD5
03EC2:  MOVFF  7C2,7D7
03EC6:  CLRF   xD8
03EC8:  MOVLB  0
03ECA:  CALL   1B44
03ECE:  MOVLB  7
....................       if(sombreado==0) 
03ED0:  MOVF   xC1,F
03ED2:  BNZ   3F2E
....................          {glcd_rect(x, y, x+(tamano*5), y+(tamano*8), YES, OFF);glcd_text57(x+1, y+1, voltage, tamano, ON);} 
03ED4:  MOVF   xC2,W
03ED6:  MULLW  05
03ED8:  MOVF   FF3,W
03EDA:  ADDWF  xBF,W
03EDC:  MOVWF  xCC
03EDE:  MOVF   xC2,W
03EE0:  MULLW  08
03EE2:  MOVF   FF3,W
03EE4:  ADDWF  xC0,W
03EE6:  MOVWF  xCD
03EE8:  MOVFF  7BF,7D3
03EEC:  MOVFF  7C0,7D4
03EF0:  MOVFF  7CC,7D5
03EF4:  MOVWF  xD6
03EF6:  MOVLW  01
03EF8:  MOVWF  xD7
03EFA:  CLRF   xD8
03EFC:  MOVLB  0
03EFE:  CALL   1E3A
03F02:  MOVLW  01
03F04:  MOVLB  7
03F06:  ADDWF  xBF,W
03F08:  MOVWF  xCC
03F0A:  MOVLW  01
03F0C:  ADDWF  xC0,W
03F0E:  MOVWF  xCD
03F10:  MOVFF  7CC,7D3
03F14:  MOVWF  xD4
03F16:  MOVLW  07
03F18:  MOVWF  xD6
03F1A:  MOVLW  C3
03F1C:  MOVWF  xD5
03F1E:  MOVFF  7C2,7D7
03F22:  MOVLW  01
03F24:  MOVWF  xD8
03F26:  MOVLB  0
03F28:  CALL   1B44
03F2C:  MOVLB  7
....................    } 
....................    glcd_update(); 
03F2E:  MOVLB  0
03F30:  CALL   1928
.................... } 
03F34:  RETLW  00
....................  
.................... void displayTiempo2(int digito, int x, int y, int sombreado, int tamano) 
.................... { 
....................    char voltage[9]; 
....................     
....................    if(sombreado==2) 
*
04EA2:  MOVLB  7
04EA4:  MOVF   xBE,W
04EA6:  SUBLW  02
04EA8:  BNZ   4F1C
....................    { 
....................       sprintf(voltage, "%03u", digito); 
04EAA:  MOVLW  07
04EAC:  MOVWF  xBA
04EAE:  MOVLW  C0
04EB0:  MOVWF  xB9
04EB2:  MOVFF  7BB,7CC
04EB6:  MOVLW  03
04EB8:  MOVWF  xCD
04EBA:  MOVLB  0
04EBC:  CALL   3CEA
....................       glcd_rect(x, y, x+(tamano*18), y+(tamano*8), YES, ON); 
04EC0:  MOVLB  7
04EC2:  MOVF   xBF,W
04EC4:  MULLW  12
04EC6:  MOVF   FF3,W
04EC8:  ADDWF  xBC,W
04ECA:  MOVWF  xC9
04ECC:  MOVF   xBF,W
04ECE:  MULLW  08
04ED0:  MOVF   FF3,W
04ED2:  ADDWF  xBD,W
04ED4:  MOVWF  xCA
04ED6:  MOVFF  7BC,7D3
04EDA:  MOVFF  7BD,7D4
04EDE:  MOVFF  7C9,7D5
04EE2:  MOVWF  xD6
04EE4:  MOVLW  01
04EE6:  MOVWF  xD7
04EE8:  MOVWF  xD8
04EEA:  MOVLB  0
04EEC:  CALL   1E3A
....................       glcd_text57(x+1, y+1, voltage, tamano, OFF); 
04EF0:  MOVLW  01
04EF2:  MOVLB  7
04EF4:  ADDWF  xBC,W
04EF6:  MOVWF  xC9
04EF8:  MOVLW  01
04EFA:  ADDWF  xBD,W
04EFC:  MOVWF  xCA
04EFE:  MOVFF  7C9,7D3
04F02:  MOVWF  xD4
04F04:  MOVLW  07
04F06:  MOVWF  xD6
04F08:  MOVLW  C0
04F0A:  MOVWF  xD5
04F0C:  MOVFF  7BF,7D7
04F10:  CLRF   xD8
04F12:  MOVLB  0
04F14:  CALL   1B44
....................    } 
....................    else 
04F18:  BRA    5064
04F1A:  MOVLB  7
....................    { 
....................       if(sombreado==3) 
04F1C:  MOVF   xBE,W
04F1E:  SUBLW  03
04F20:  BNZ   4F94
....................       { 
....................          sprintf(voltage, "%03u", digito); 
04F22:  MOVLW  07
04F24:  MOVWF  xBA
04F26:  MOVLW  C0
04F28:  MOVWF  xB9
04F2A:  MOVFF  7BB,7CC
04F2E:  MOVLW  03
04F30:  MOVWF  xCD
04F32:  MOVLB  0
04F34:  CALL   3CEA
....................          glcd_rect(x, y, x+(tamano*18), y+(tamano*8), YES, OFF); 
04F38:  MOVLB  7
04F3A:  MOVF   xBF,W
04F3C:  MULLW  12
04F3E:  MOVF   FF3,W
04F40:  ADDWF  xBC,W
04F42:  MOVWF  xC9
04F44:  MOVF   xBF,W
04F46:  MULLW  08
04F48:  MOVF   FF3,W
04F4A:  ADDWF  xBD,W
04F4C:  MOVWF  xCA
04F4E:  MOVFF  7BC,7D3
04F52:  MOVFF  7BD,7D4
04F56:  MOVFF  7C9,7D5
04F5A:  MOVWF  xD6
04F5C:  MOVLW  01
04F5E:  MOVWF  xD7
04F60:  CLRF   xD8
04F62:  MOVLB  0
04F64:  CALL   1E3A
....................          glcd_text57(x+1, y+1, voltage, tamano, ON); 
04F68:  MOVLW  01
04F6A:  MOVLB  7
04F6C:  ADDWF  xBC,W
04F6E:  MOVWF  xC9
04F70:  MOVLW  01
04F72:  ADDWF  xBD,W
04F74:  MOVWF  xCA
04F76:  MOVFF  7C9,7D3
04F7A:  MOVWF  xD4
04F7C:  MOVLW  07
04F7E:  MOVWF  xD6
04F80:  MOVLW  C0
04F82:  MOVWF  xD5
04F84:  MOVFF  7BF,7D7
04F88:  MOVLW  01
04F8A:  MOVWF  xD8
04F8C:  MOVLB  0
04F8E:  CALL   1B44
04F92:  MOVLB  7
....................       } 
....................       sprintf(voltage, "%03u", digito); 
04F94:  MOVLW  07
04F96:  MOVWF  xBA
04F98:  MOVLW  C0
04F9A:  MOVWF  xB9
04F9C:  MOVFF  7BB,7CC
04FA0:  MOVLW  03
04FA2:  MOVWF  xCD
04FA4:  MOVLB  0
04FA6:  CALL   3CEA
....................       if(sombreado==1) 
04FAA:  MOVLB  7
04FAC:  DECFSZ xBE,W
04FAE:  BRA    5008
....................          {glcd_rect(x, y, x+(tamano*18), y+(tamano*8), YES, ON);glcd_text57(x+1, y+1, voltage, tamano, OFF);} 
04FB0:  MOVF   xBF,W
04FB2:  MULLW  12
04FB4:  MOVF   FF3,W
04FB6:  ADDWF  xBC,W
04FB8:  MOVWF  xC9
04FBA:  MOVF   xBF,W
04FBC:  MULLW  08
04FBE:  MOVF   FF3,W
04FC0:  ADDWF  xBD,W
04FC2:  MOVWF  xCA
04FC4:  MOVFF  7BC,7D3
04FC8:  MOVFF  7BD,7D4
04FCC:  MOVFF  7C9,7D5
04FD0:  MOVWF  xD6
04FD2:  MOVLW  01
04FD4:  MOVWF  xD7
04FD6:  MOVWF  xD8
04FD8:  MOVLB  0
04FDA:  CALL   1E3A
04FDE:  MOVLW  01
04FE0:  MOVLB  7
04FE2:  ADDWF  xBC,W
04FE4:  MOVWF  xC9
04FE6:  MOVLW  01
04FE8:  ADDWF  xBD,W
04FEA:  MOVWF  xCA
04FEC:  MOVFF  7C9,7D3
04FF0:  MOVWF  xD4
04FF2:  MOVLW  07
04FF4:  MOVWF  xD6
04FF6:  MOVLW  C0
04FF8:  MOVWF  xD5
04FFA:  MOVFF  7BF,7D7
04FFE:  CLRF   xD8
05000:  MOVLB  0
05002:  CALL   1B44
05006:  MOVLB  7
....................       if(sombreado==0) 
05008:  MOVF   xBE,F
0500A:  BNZ   5066
....................          {glcd_rect(x, y, x+(tamano*18), y+(tamano*8), YES, OFF);glcd_text57(x+1, y+1, voltage, tamano, ON);} 
0500C:  MOVF   xBF,W
0500E:  MULLW  12
05010:  MOVF   FF3,W
05012:  ADDWF  xBC,W
05014:  MOVWF  xC9
05016:  MOVF   xBF,W
05018:  MULLW  08
0501A:  MOVF   FF3,W
0501C:  ADDWF  xBD,W
0501E:  MOVWF  xCA
05020:  MOVFF  7BC,7D3
05024:  MOVFF  7BD,7D4
05028:  MOVFF  7C9,7D5
0502C:  MOVWF  xD6
0502E:  MOVLW  01
05030:  MOVWF  xD7
05032:  CLRF   xD8
05034:  MOVLB  0
05036:  CALL   1E3A
0503A:  MOVLW  01
0503C:  MOVLB  7
0503E:  ADDWF  xBC,W
05040:  MOVWF  xC9
05042:  MOVLW  01
05044:  ADDWF  xBD,W
05046:  MOVWF  xCA
05048:  MOVFF  7C9,7D3
0504C:  MOVWF  xD4
0504E:  MOVLW  07
05050:  MOVWF  xD6
05052:  MOVLW  C0
05054:  MOVWF  xD5
05056:  MOVFF  7BF,7D7
0505A:  MOVLW  01
0505C:  MOVWF  xD8
0505E:  MOVLB  0
05060:  CALL   1B44
05064:  MOVLB  7
....................    } 
....................    glcd_update(); 
05066:  MOVLB  0
05068:  CALL   1928
.................... } 
0506C:  RETLW  00
....................  
....................  
.................... void displayTemperatura(int16 digito, int x, int y, int sombreado, int tamano) 
.................... { 
....................    char voltage[9]; 
....................     
....................    if(sombreado==2) 
*
0512C:  MOVLB  7
0512E:  MOVF   xC4,W
05130:  SUBLW  02
05132:  BNZ   51A8
....................    { 
....................       sprintf(voltage, "%04Lu", digito); 
05134:  MOVLW  07
05136:  MOVWF  xBA
05138:  MOVLW  C6
0513A:  MOVWF  xB9
0513C:  MOVLW  09
0513E:  MOVWF  FE9
05140:  MOVFF  7C1,7D2
05144:  MOVFF  7C0,7D1
05148:  MOVLB  0
0514A:  RCALL  506E
....................       glcd_rect(x, y, x+(tamano*18), y+(tamano*8), YES, ON); 
0514C:  MOVLB  7
0514E:  MOVF   xC5,W
05150:  MULLW  12
05152:  MOVF   FF3,W
05154:  ADDWF  xC2,W
05156:  MOVWF  xCF
05158:  MOVF   xC5,W
0515A:  MULLW  08
0515C:  MOVF   FF3,W
0515E:  ADDWF  xC3,W
05160:  MOVWF  xD0
05162:  MOVFF  7C2,7D3
05166:  MOVFF  7C3,7D4
0516A:  MOVFF  7CF,7D5
0516E:  MOVWF  xD6
05170:  MOVLW  01
05172:  MOVWF  xD7
05174:  MOVWF  xD8
05176:  MOVLB  0
05178:  CALL   1E3A
....................       glcd_text57(x+1, y+1, voltage, tamano, OFF); 
0517C:  MOVLW  01
0517E:  MOVLB  7
05180:  ADDWF  xC2,W
05182:  MOVWF  xCF
05184:  MOVLW  01
05186:  ADDWF  xC3,W
05188:  MOVWF  xD0
0518A:  MOVFF  7CF,7D3
0518E:  MOVWF  xD4
05190:  MOVLW  07
05192:  MOVWF  xD6
05194:  MOVLW  C6
05196:  MOVWF  xD5
05198:  MOVFF  7C5,7D7
0519C:  CLRF   xD8
0519E:  MOVLB  0
051A0:  CALL   1B44
....................    } 
....................    else 
051A4:  BRA    52DA
051A6:  MOVLB  7
....................    { 
....................       sprintf(voltage, "%04Lu", digito); 
051A8:  MOVLW  07
051AA:  MOVWF  xBA
051AC:  MOVLW  C6
051AE:  MOVWF  xB9
051B0:  MOVLW  09
051B2:  MOVWF  FE9
051B4:  MOVFF  7C1,7D2
051B8:  MOVFF  7C0,7D1
051BC:  MOVLB  0
051BE:  RCALL  506E
....................     
....................       if(sombreado==4) 
051C0:  MOVLB  7
051C2:  MOVF   xC4,W
051C4:  SUBLW  04
051C6:  BNZ   5222
....................       { 
....................          glcd_rect(x, y, x+(tamano*16), y+(tamano*8), YES, OFF); 
051C8:  MOVF   xC5,W
051CA:  MULLW  10
051CC:  MOVF   FF3,W
051CE:  ADDWF  xC2,W
051D0:  MOVWF  xCF
051D2:  MOVF   xC5,W
051D4:  MULLW  08
051D6:  MOVF   FF3,W
051D8:  ADDWF  xC3,W
051DA:  MOVWF  xD0
051DC:  MOVFF  7C2,7D3
051E0:  MOVFF  7C3,7D4
051E4:  MOVFF  7CF,7D5
051E8:  MOVWF  xD6
051EA:  MOVLW  01
051EC:  MOVWF  xD7
051EE:  CLRF   xD8
051F0:  MOVLB  0
051F2:  CALL   1E3A
....................          glcd_text57(x+1, y+1, voltage, tamano, ON); 
051F6:  MOVLW  01
051F8:  MOVLB  7
051FA:  ADDWF  xC2,W
051FC:  MOVWF  xCF
051FE:  MOVLW  01
05200:  ADDWF  xC3,W
05202:  MOVWF  xD0
05204:  MOVFF  7CF,7D3
05208:  MOVWF  xD4
0520A:  MOVLW  07
0520C:  MOVWF  xD6
0520E:  MOVLW  C6
05210:  MOVWF  xD5
05212:  MOVFF  7C5,7D7
05216:  MOVLW  01
05218:  MOVWF  xD8
0521A:  MOVLB  0
0521C:  CALL   1B44
05220:  MOVLB  7
....................       } 
....................       if(sombreado==1) 
05222:  DECFSZ xC4,W
05224:  BRA    527E
....................          {glcd_rect(x, y, x+(tamano*5), y+(tamano*8), YES, ON);glcd_text57(x+1, y+1, voltage, tamano, OFF);} 
05226:  MOVF   xC5,W
05228:  MULLW  05
0522A:  MOVF   FF3,W
0522C:  ADDWF  xC2,W
0522E:  MOVWF  xCF
05230:  MOVF   xC5,W
05232:  MULLW  08
05234:  MOVF   FF3,W
05236:  ADDWF  xC3,W
05238:  MOVWF  xD0
0523A:  MOVFF  7C2,7D3
0523E:  MOVFF  7C3,7D4
05242:  MOVFF  7CF,7D5
05246:  MOVWF  xD6
05248:  MOVLW  01
0524A:  MOVWF  xD7
0524C:  MOVWF  xD8
0524E:  MOVLB  0
05250:  CALL   1E3A
05254:  MOVLW  01
05256:  MOVLB  7
05258:  ADDWF  xC2,W
0525A:  MOVWF  xCF
0525C:  MOVLW  01
0525E:  ADDWF  xC3,W
05260:  MOVWF  xD0
05262:  MOVFF  7CF,7D3
05266:  MOVWF  xD4
05268:  MOVLW  07
0526A:  MOVWF  xD6
0526C:  MOVLW  C6
0526E:  MOVWF  xD5
05270:  MOVFF  7C5,7D7
05274:  CLRF   xD8
05276:  MOVLB  0
05278:  CALL   1B44
0527C:  MOVLB  7
....................       if(sombreado==0) 
0527E:  MOVF   xC4,F
05280:  BNZ   52DC
....................          {glcd_rect(x, y, x+(tamano*5), y+(tamano*8), YES, OFF);glcd_text57(x+1, y+1, voltage, tamano, ON);} 
05282:  MOVF   xC5,W
05284:  MULLW  05
05286:  MOVF   FF3,W
05288:  ADDWF  xC2,W
0528A:  MOVWF  xCF
0528C:  MOVF   xC5,W
0528E:  MULLW  08
05290:  MOVF   FF3,W
05292:  ADDWF  xC3,W
05294:  MOVWF  xD0
05296:  MOVFF  7C2,7D3
0529A:  MOVFF  7C3,7D4
0529E:  MOVFF  7CF,7D5
052A2:  MOVWF  xD6
052A4:  MOVLW  01
052A6:  MOVWF  xD7
052A8:  CLRF   xD8
052AA:  MOVLB  0
052AC:  CALL   1E3A
052B0:  MOVLW  01
052B2:  MOVLB  7
052B4:  ADDWF  xC2,W
052B6:  MOVWF  xCF
052B8:  MOVLW  01
052BA:  ADDWF  xC3,W
052BC:  MOVWF  xD0
052BE:  MOVFF  7CF,7D3
052C2:  MOVWF  xD4
052C4:  MOVLW  07
052C6:  MOVWF  xD6
052C8:  MOVLW  C6
052CA:  MOVWF  xD5
052CC:  MOVFF  7C5,7D7
052D0:  MOVLW  01
052D2:  MOVWF  xD8
052D4:  MOVLB  0
052D6:  CALL   1B44
052DA:  MOVLB  7
....................    } 
....................    glcd_update(); 
052DC:  MOVLB  0
052DE:  CALL   1928
.................... } 
052E2:  RETLW  00
....................  
.................... void glcd_imagen(int8 x) 
.................... { 
....................    char i,j; 
....................    signed char k;  
....................     
....................    if(x==5){ 
*
0656E:  MOVLB  7
06570:  MOVF   xBB,W
06572:  SUBLW  05
06574:  BNZ   661A
....................    for( i = 0 ; i < 64 ; i ++ ) 
06576:  CLRF   xBC
06578:  MOVF   xBC,W
0657A:  SUBLW  3F
0657C:  BNC   661A
....................    {   
....................       for( j = 0 ; j < 16 ; j ++) 
0657E:  CLRF   xBD
06580:  MOVF   xBD,W
06582:  SUBLW  0F
06584:  BNC   6616
....................       {     
....................          for(k=7;k>-1;k--) 
06586:  MOVLW  07
06588:  MOVWF  xBE
0658A:  MOVF   xBE,W
0658C:  XORLW  80
0658E:  SUBLW  7F
06590:  BC    6612
....................          {       
....................             if( bit_test(Horno[i][j] ,7-k ))  
06592:  CLRF   xC0
06594:  MOVFF  7BC,7BF
06598:  CLRF   xC2
0659A:  MOVLW  10
0659C:  MOVWF  xC1
0659E:  MOVLB  0
065A0:  CALL   37A2
065A4:  MOVFF  02,7C0
065A8:  MOVFF  01,7BF
065AC:  MOVLB  7
065AE:  MOVF   xBD,W
065B0:  ADDWF  01,W
065B2:  MOVWF  01
065B4:  MOVLW  00
065B6:  ADDWFC 02,W
065B8:  MOVWF  03
065BA:  MOVF   01,W
065BC:  MOVFF  FF2,7BF
065C0:  BCF    FF2.7
065C2:  MOVFF  03,FF7
065C6:  MOVLB  0
065C8:  CALL   02B6
065CC:  MOVLB  7
065CE:  BTFSC  xBF.7
065D0:  BSF    FF2.7
065D2:  MOVWF  xBF
065D4:  MOVLW  07
065D6:  BSF    FD8.0
065D8:  SUBFWB xBE,W
065DA:  MOVWF  xC0
065DC:  MOVFF  7BF,00
065E0:  MOVF   xC0,W
065E2:  MOVWF  01
065E4:  BZ    65EE
065E6:  BCF    FD8.0
065E8:  RRCF   00,F
065EA:  DECFSZ 01,F
065EC:  BRA    65E6
065EE:  BTFSS  00.0
065F0:  BRA    660E
....................                glcd_pixel( j*8+k,i, ON ); 
065F2:  MOVF   xBD,W
065F4:  MULLW  08
065F6:  MOVF   FF3,W
065F8:  ADDWF  xBE,W
065FA:  MOVWF  xBF
065FC:  MOVWF  xEF
065FE:  MOVFF  7BC,7F0
06602:  MOVLW  01
06604:  MOVWF  xF1
06606:  MOVLB  0
06608:  CALL   1A88
0660C:  MOVLB  7
....................          }   
0660E:  DECF   xBE,F
06610:  BRA    658A
....................       } 
06612:  INCF   xBD,F
06614:  BRA    6580
....................    } 
06616:  INCF   xBC,F
06618:  BRA    6578
....................    } 
....................     
.................... } 
0661A:  MOVLB  0
0661C:  GOTO   1405E (RETURN)
....................     
.................... void Limpia(int x1,int x2,int y){ 
....................    glcd_rect(x1, y, x2, y+7, YES, OFF); 
.................... } 
....................  
.................... void displayT(int16 adc,int x,int y,int w) { 
....................    char voltage[9];     
....................    sprintf(voltage, "%04Lu",adc); // Converts adc to text 
*
079A8:  MOVLW  07
079AA:  MOVLB  7
079AC:  MOVWF  xBA
079AE:  MOVLW  C2
079B0:  MOVWF  xB9
079B2:  MOVLW  09
079B4:  MOVWF  FE9
079B6:  MOVFF  7BE,7D2
079BA:  MOVFF  7BD,7D1
079BE:  MOVLB  0
079C0:  CALL   506E
....................    glcd_rect(x, y, x+(w*27), y+(w*8), YES, OFF); 
079C4:  MOVLB  7
079C6:  MOVF   xC1,W
079C8:  MULLW  1B
079CA:  MOVF   FF3,W
079CC:  ADDWF  xBF,W
079CE:  MOVWF  xCB
079D0:  MOVF   xC1,W
079D2:  MULLW  08
079D4:  MOVF   FF3,W
079D6:  ADDWF  xC0,W
079D8:  MOVWF  xCC
079DA:  MOVFF  7BF,7D3
079DE:  MOVFF  7C0,7D4
079E2:  MOVFF  7CB,7D5
079E6:  MOVWF  xD6
079E8:  MOVLW  01
079EA:  MOVWF  xD7
079EC:  CLRF   xD8
079EE:  MOVLB  0
079F0:  CALL   1E3A
....................    glcd_text57(x, y, voltage, w, ON); 
079F4:  MOVFF  7BF,7D3
079F8:  MOVFF  7C0,7D4
079FC:  MOVLW  07
079FE:  MOVLB  7
07A00:  MOVWF  xD6
07A02:  MOVLW  C2
07A04:  MOVWF  xD5
07A06:  MOVFF  7C1,7D7
07A0A:  MOVLW  01
07A0C:  MOVWF  xD8
07A0E:  MOVLB  0
07A10:  CALL   1B44
.................... } 
07A14:  GOTO   1577C (RETURN)
....................  
.................... void displayFloat(float adc,int x,int y,int w) { 
....................    char voltage[9];     
....................    sprintf(voltage, "%03.2f",adc); // Converts adc to text 
*
07BD4:  MOVLW  07
07BD6:  MOVLB  7
07BD8:  MOVWF  xBA
07BDA:  MOVLW  C2
07BDC:  MOVWF  xB9
07BDE:  MOVLW  42
07BE0:  MOVWF  FE9
07BE2:  MOVFF  7BE,7CE
07BE6:  MOVFF  7BD,7CD
07BEA:  MOVFF  7BC,7CC
07BEE:  MOVFF  7BB,7CB
07BF2:  MOVLW  02
07BF4:  MOVWF  xCF
07BF6:  MOVLB  0
07BF8:  BRA    7A18
....................    glcd_rect(x, y, x+(w*27), y+(w*8), YES, OFF); 
07BFA:  MOVLB  7
07BFC:  MOVF   xC1,W
07BFE:  MULLW  1B
07C00:  MOVF   FF3,W
07C02:  ADDWF  xBF,W
07C04:  MOVWF  xCB
07C06:  MOVF   xC1,W
07C08:  MULLW  08
07C0A:  MOVF   FF3,W
07C0C:  ADDWF  xC0,W
07C0E:  MOVWF  xCC
07C10:  MOVFF  7BF,7D3
07C14:  MOVFF  7C0,7D4
07C18:  MOVFF  7CB,7D5
07C1C:  MOVWF  xD6
07C1E:  MOVLW  01
07C20:  MOVWF  xD7
07C22:  CLRF   xD8
07C24:  MOVLB  0
07C26:  CALL   1E3A
....................    glcd_text57(x, y, voltage, w, ON); 
07C2A:  MOVFF  7BF,7D3
07C2E:  MOVFF  7C0,7D4
07C32:  MOVLW  07
07C34:  MOVLB  7
07C36:  MOVWF  xD6
07C38:  MOVLW  C2
07C3A:  MOVWF  xD5
07C3C:  MOVFF  7C1,7D7
07C40:  MOVLW  01
07C42:  MOVWF  xD8
07C44:  MOVLB  0
07C46:  CALL   1B44
.................... } 
07C4A:  RETLW  00
....................  
.................... void displayContrasena(int digito, int x, int y, int sombreado) 
.................... { 
....................    char voltage[9]; 
....................    sprintf(voltage, "%i", digito); 
*
0214E:  MOVLW  07
02150:  MOVLB  7
02152:  MOVWF  xBA
02154:  MOVLW  C1
02156:  MOVWF  xB9
02158:  MOVFF  7BD,7CA
0215C:  MOVLW  1F
0215E:  MOVWF  xCB
02160:  MOVLB  0
02162:  BRA    206E
....................     
....................    if(sombreado==1) 
02164:  MOVLB  7
02166:  DECFSZ xC0,W
02168:  BRA    21B8
....................       {glcd_rect(x, y, x+18, y+24, YES, ON);glcd_text57(x+2, y+1, voltage, 2, OFF);} 
0216A:  MOVLW  12
0216C:  ADDWF  xBE,W
0216E:  MOVWF  xCA
02170:  MOVLW  18
02172:  ADDWF  xBF,W
02174:  MOVWF  xCB
02176:  MOVFF  7BE,7D3
0217A:  MOVFF  7BF,7D4
0217E:  MOVFF  7CA,7D5
02182:  MOVWF  xD6
02184:  MOVLW  01
02186:  MOVWF  xD7
02188:  MOVWF  xD8
0218A:  MOVLB  0
0218C:  RCALL  1E3A
0218E:  MOVLW  02
02190:  MOVLB  7
02192:  ADDWF  xBE,W
02194:  MOVWF  xCA
02196:  MOVLW  01
02198:  ADDWF  xBF,W
0219A:  MOVWF  xCB
0219C:  MOVFF  7CA,7D3
021A0:  MOVWF  xD4
021A2:  MOVLW  07
021A4:  MOVWF  xD6
021A6:  MOVLW  C1
021A8:  MOVWF  xD5
021AA:  MOVLW  02
021AC:  MOVWF  xD7
021AE:  CLRF   xD8
021B0:  MOVLB  0
021B2:  RCALL  1B44
....................    else    
021B4:  BRA    2202
021B6:  MOVLB  7
....................       {glcd_rect(x, y, x+18, y+24, NO, OFF);glcd_text57(x+2, y+1, voltage, 2, ON);} 
021B8:  MOVLW  12
021BA:  ADDWF  xBE,W
021BC:  MOVWF  xCA
021BE:  MOVLW  18
021C0:  ADDWF  xBF,W
021C2:  MOVWF  xCB
021C4:  MOVFF  7BE,7D3
021C8:  MOVFF  7BF,7D4
021CC:  MOVFF  7CA,7D5
021D0:  MOVWF  xD6
021D2:  CLRF   xD7
021D4:  CLRF   xD8
021D6:  MOVLB  0
021D8:  RCALL  1E3A
021DA:  MOVLW  02
021DC:  MOVLB  7
021DE:  ADDWF  xBE,W
021E0:  MOVWF  xCA
021E2:  MOVLW  01
021E4:  ADDWF  xBF,W
021E6:  MOVWF  xCB
021E8:  MOVFF  7CA,7D3
021EC:  MOVWF  xD4
021EE:  MOVLW  07
021F0:  MOVWF  xD6
021F2:  MOVLW  C1
021F4:  MOVWF  xD5
021F6:  MOVLW  02
021F8:  MOVWF  xD7
021FA:  MOVLW  01
021FC:  MOVWF  xD8
021FE:  MOVLB  0
02200:  RCALL  1B44
....................  
.................... } 
02202:  RETLW  00
....................  
.................... void MuestraSegmento(int8 Opcio,int8 l,int8 Prog ){ 
....................          if(Temperatura1[l+((Prog-1)*10)]>1200) 
*
0590A:  MOVLW  01
0590C:  MOVLB  7
0590E:  SUBWF  xBD,W
05910:  MULLW  0A
05912:  MOVF   FF3,W
05914:  ADDWF  xBC,W
05916:  MOVWF  00
05918:  BCF    FD8.0
0591A:  RLCF   00,F
0591C:  MOVF   00,W
0591E:  CLRF   03
05920:  ADDLW  45
05922:  MOVWF  FE9
05924:  MOVLW  06
05926:  ADDWFC 03,W
05928:  MOVWF  FEA
0592A:  MOVFF  FEC,7BF
0592E:  MOVF   FED,F
05930:  MOVFF  FEF,7BE
05934:  BTFSC  xBF.7
05936:  BRA    596C
05938:  MOVF   xBF,W
0593A:  SUBLW  03
0593C:  BC    596C
0593E:  XORLW  FF
05940:  BNZ   5948
05942:  MOVF   xBE,W
05944:  SUBLW  B0
05946:  BC    596C
....................             Temperatura1[l+((Prog-1)*10)]=0; 
05948:  MOVLW  01
0594A:  SUBWF  xBD,W
0594C:  MULLW  0A
0594E:  MOVF   FF3,W
05950:  ADDWF  xBC,W
05952:  MOVWF  00
05954:  BCF    FD8.0
05956:  RLCF   00,F
05958:  MOVF   00,W
0595A:  CLRF   03
0595C:  ADDLW  45
0595E:  MOVWF  FE9
05960:  MOVLW  06
05962:  ADDWFC 03,W
05964:  MOVWF  FEA
05966:  CLRF   FEC
05968:  MOVF   FED,F
0596A:  CLRF   FEF
....................           
....................          if(Temperatura1[l+((Prog-1)*10)]>1100){ 
0596C:  MOVLW  01
0596E:  SUBWF  xBD,W
05970:  MULLW  0A
05972:  MOVF   FF3,W
05974:  ADDWF  xBC,W
05976:  MOVWF  00
05978:  BCF    FD8.0
0597A:  RLCF   00,F
0597C:  MOVF   00,W
0597E:  CLRF   03
05980:  ADDLW  45
05982:  MOVWF  FE9
05984:  MOVLW  06
05986:  ADDWFC 03,W
05988:  MOVWF  FEA
0598A:  MOVFF  FEC,7BF
0598E:  MOVF   FED,F
05990:  MOVFF  FEF,7BE
05994:  BTFSC  xBF.7
05996:  BRA    59CC
05998:  MOVF   xBF,W
0599A:  SUBLW  03
0599C:  BC    59CC
0599E:  XORLW  FF
059A0:  BNZ   59A8
059A2:  MOVF   xBE,W
059A4:  SUBLW  4C
059A6:  BC    59CC
....................             Horas1[l+((Prog-1)*10)]=0; 
059A8:  MOVLW  01
059AA:  SUBWF  xBD,W
059AC:  MULLW  0A
059AE:  MOVF   FF3,W
059B0:  ADDWF  xBC,W
059B2:  MOVWF  00
059B4:  BCF    FD8.0
059B6:  RLCF   00,F
059B8:  MOVF   00,W
059BA:  CLRF   03
059BC:  ADDLW  A9
059BE:  MOVWF  FE9
059C0:  MOVLW  06
059C2:  ADDWFC 03,W
059C4:  MOVWF  FEA
059C6:  CLRF   FEC
059C8:  MOVF   FED,F
059CA:  CLRF   FEF
....................          } 
....................           
....................          strcpy(Menus.Letra,"P 0"); 
059CC:  MOVLW  07
059CE:  MOVWF  FEA
059D0:  MOVLW  9B
059D2:  MOVWF  FE9
059D4:  MOVFF  FF2,7BE
059D8:  BCF    FF2.7
059DA:  MOVLW  00
059DC:  MOVLB  0
059DE:  CALL   06F2
059E2:  TBLRD*-
059E4:  TBLRD*+
059E6:  MOVF   FF5,W
059E8:  MOVWF  FEE
059EA:  IORLW  00
059EC:  BNZ   59E4
059EE:  MOVLB  7
059F0:  BTFSC  xBE.7
059F2:  BSF    FF2.7
....................          displayMenu(Menus.Letra,30,0,1,2); 
059F4:  MOVLW  07
059F6:  MOVWF  xBF
059F8:  MOVLW  9B
059FA:  MOVWF  xBE
059FC:  MOVLW  1E
059FE:  MOVWF  xC0
05A00:  CLRF   xC1
05A02:  MOVLW  01
05A04:  MOVWF  xC2
05A06:  MOVLW  02
05A08:  MOVWF  xC3
05A0A:  MOVLB  0
05A0C:  CALL   1EFC
....................          displayTiempo(Prog,68,0,1,2); 
05A10:  MOVFF  7BD,7BE
05A14:  MOVLW  44
05A16:  MOVLB  7
05A18:  MOVWF  xBF
05A1A:  CLRF   xC0
05A1C:  MOVLW  01
05A1E:  MOVWF  xC1
05A20:  MOVLW  02
05A22:  MOVWF  xC2
05A24:  MOVLB  0
05A26:  CALL   3D70
....................           
....................          strcpy(Menus.Letra,"Segmento 0"); 
05A2A:  MOVLW  07
05A2C:  MOVWF  FEA
05A2E:  MOVLW  9B
05A30:  MOVWF  FE9
05A32:  MOVFF  FF2,7BE
05A36:  BCF    FF2.7
05A38:  MOVLW  00
05A3A:  CALL   0714
05A3E:  TBLRD*-
05A40:  TBLRD*+
05A42:  MOVF   FF5,W
05A44:  MOVWF  FEE
05A46:  IORLW  00
05A48:  BNZ   5A40
05A4A:  MOVLB  7
05A4C:  BTFSC  xBE.7
05A4E:  BSF    FF2.7
....................          displayMenu(Menus.Letra,0,20,1,1); 
05A50:  MOVLW  07
05A52:  MOVWF  xBF
05A54:  MOVLW  9B
05A56:  MOVWF  xBE
05A58:  CLRF   xC0
05A5A:  MOVLW  14
05A5C:  MOVWF  xC1
05A5E:  MOVLW  01
05A60:  MOVWF  xC2
05A62:  MOVWF  xC3
05A64:  MOVLB  0
05A66:  CALL   1EFC
....................          displayTiempo(l,63,20,1,1); 
05A6A:  MOVFF  7BC,7BE
05A6E:  MOVLW  3F
05A70:  MOVLB  7
05A72:  MOVWF  xBF
05A74:  MOVLW  14
05A76:  MOVWF  xC0
05A78:  MOVLW  01
05A7A:  MOVWF  xC1
05A7C:  MOVWF  xC2
05A7E:  MOVLB  0
05A80:  CALL   3D70
....................           
....................          strcpy(Menus.Letra,"TA:"); 
05A84:  MOVLW  07
05A86:  MOVWF  FEA
05A88:  MOVLW  9B
05A8A:  MOVWF  FE9
05A8C:  MOVFF  FF2,7BE
05A90:  BCF    FF2.7
05A92:  MOVLW  00
05A94:  CALL   073E
05A98:  TBLRD*-
05A9A:  TBLRD*+
05A9C:  MOVF   FF5,W
05A9E:  MOVWF  FEE
05AA0:  IORLW  00
05AA2:  BNZ   5A9A
05AA4:  MOVLB  7
05AA6:  BTFSC  xBE.7
05AA8:  BSF    FF2.7
....................          displayMenu(Menus.Letra,80,20,3,1); 
05AAA:  MOVLW  07
05AAC:  MOVWF  xBF
05AAE:  MOVLW  9B
05AB0:  MOVWF  xBE
05AB2:  MOVLW  50
05AB4:  MOVWF  xC0
05AB6:  MOVLW  14
05AB8:  MOVWF  xC1
05ABA:  MOVLW  03
05ABC:  MOVWF  xC2
05ABE:  MOVLW  01
05AC0:  MOVWF  xC3
05AC2:  MOVLB  0
05AC4:  CALL   1EFC
....................           
....................          if(l>0) 
05AC8:  MOVLB  7
05ACA:  MOVF   xBC,F
05ACC:  BZ    5B1A
....................             displayTemperatura(Temperatura1[l-1+((Prog-1)*10)],100,20,1,1); 
05ACE:  MOVLW  01
05AD0:  SUBWF  xBC,W
05AD2:  MOVWF  xBE
05AD4:  MOVLW  01
05AD6:  SUBWF  xBD,W
05AD8:  MULLW  0A
05ADA:  MOVF   FF3,W
05ADC:  ADDWF  xBE,W
05ADE:  MOVWF  00
05AE0:  BCF    FD8.0
05AE2:  RLCF   00,F
05AE4:  MOVF   00,W
05AE6:  CLRF   03
05AE8:  ADDLW  45
05AEA:  MOVWF  FE9
05AEC:  MOVLW  06
05AEE:  ADDWFC 03,W
05AF0:  MOVWF  FEA
05AF2:  MOVFF  FEC,7BF
05AF6:  MOVF   FED,F
05AF8:  MOVFF  FEF,7BE
05AFC:  MOVFF  7BF,7C1
05B00:  MOVFF  7BE,7C0
05B04:  MOVLW  64
05B06:  MOVWF  xC2
05B08:  MOVLW  14
05B0A:  MOVWF  xC3
05B0C:  MOVLW  01
05B0E:  MOVWF  xC4
05B10:  MOVWF  xC5
05B12:  MOVLB  0
05B14:  CALL   512C
05B18:  MOVLB  7
....................           
....................          if(Opcio==1){ 
05B1A:  DECFSZ xBB,W
05B1C:  BRA    5F0C
....................             strcpy(Menus.Letra,"Temperatura:"); 
05B1E:  MOVLW  07
05B20:  MOVWF  FEA
05B22:  MOVLW  9B
05B24:  MOVWF  FE9
05B26:  MOVFF  FF2,7BE
05B2A:  BCF    FF2.7
05B2C:  MOVLW  00
05B2E:  MOVLB  0
05B30:  CALL   0760
05B34:  TBLRD*-
05B36:  TBLRD*+
05B38:  MOVF   FF5,W
05B3A:  MOVWF  FEE
05B3C:  IORLW  00
05B3E:  BNZ   5B36
05B40:  MOVLB  7
05B42:  BTFSC  xBE.7
05B44:  BSF    FF2.7
....................             displayTemps(Menus.Letra,Temperatura1[l+((Prog-1)*10)],0,32,1,1); 
05B46:  MOVLW  01
05B48:  SUBWF  xBD,W
05B4A:  MULLW  0A
05B4C:  MOVF   FF3,W
05B4E:  ADDWF  xBC,W
05B50:  MOVWF  00
05B52:  BCF    FD8.0
05B54:  RLCF   00,F
05B56:  MOVF   00,W
05B58:  CLRF   03
05B5A:  ADDLW  45
05B5C:  MOVWF  FE9
05B5E:  MOVLW  06
05B60:  ADDWFC 03,W
05B62:  MOVWF  FEA
05B64:  MOVFF  FEC,7BF
05B68:  MOVF   FED,F
05B6A:  MOVFF  FEF,7BE
05B6E:  MOVLW  07
05B70:  MOVWF  xC1
05B72:  MOVLW  9B
05B74:  MOVWF  xC0
05B76:  MOVFF  7BF,7C3
05B7A:  MOVFF  7BE,7C2
05B7E:  CLRF   xC4
05B80:  MOVLW  20
05B82:  MOVWF  xC5
05B84:  MOVLW  01
05B86:  MOVWF  xC6
05B88:  MOVWF  xC7
05B8A:  MOVLB  0
05B8C:  RCALL  5512
....................             strcpy(Menus.Letra,"Horas:"); 
05B8E:  MOVLW  07
05B90:  MOVWF  FEA
05B92:  MOVLW  9B
05B94:  MOVWF  FE9
05B96:  MOVFF  FF2,7BE
05B9A:  BCF    FF2.7
05B9C:  MOVLW  00
05B9E:  CALL   078C
05BA2:  TBLRD*-
05BA4:  TBLRD*+
05BA6:  MOVF   FF5,W
05BA8:  MOVWF  FEE
05BAA:  IORLW  00
05BAC:  BNZ   5BA4
05BAE:  MOVLB  7
05BB0:  BTFSC  xBE.7
05BB2:  BSF    FF2.7
....................             displayTemps(Menus.Letra,Horas1[l+((Prog-1)*10)],0,44,10,1); 
05BB4:  MOVLW  01
05BB6:  SUBWF  xBD,W
05BB8:  MULLW  0A
05BBA:  MOVF   FF3,W
05BBC:  ADDWF  xBC,W
05BBE:  MOVWF  00
05BC0:  BCF    FD8.0
05BC2:  RLCF   00,F
05BC4:  MOVF   00,W
05BC6:  CLRF   03
05BC8:  ADDLW  A9
05BCA:  MOVWF  FE9
05BCC:  MOVLW  06
05BCE:  ADDWFC 03,W
05BD0:  MOVWF  FEA
05BD2:  MOVFF  FEC,7BF
05BD6:  MOVF   FED,F
05BD8:  MOVFF  FEF,7BE
05BDC:  MOVLW  07
05BDE:  MOVWF  xC1
05BE0:  MOVLW  9B
05BE2:  MOVWF  xC0
05BE4:  MOVFF  7BF,7C3
05BE8:  MOVFF  7BE,7C2
05BEC:  CLRF   xC4
05BEE:  MOVLW  2C
05BF0:  MOVWF  xC5
05BF2:  MOVLW  0A
05BF4:  MOVWF  xC6
05BF6:  MOVLW  01
05BF8:  MOVWF  xC7
05BFA:  MOVLB  0
05BFC:  RCALL  5512
....................             strcpy(Menus.Letra,"Minutos:"); 
05BFE:  MOVLW  07
05C00:  MOVWF  FEA
05C02:  MOVLW  9B
05C04:  MOVWF  FE9
05C06:  MOVFF  FF2,7BE
05C0A:  BCF    FF2.7
05C0C:  MOVLW  00
05C0E:  CALL   07B2
05C12:  TBLRD*-
05C14:  TBLRD*+
05C16:  MOVF   FF5,W
05C18:  MOVWF  FEE
05C1A:  IORLW  00
05C1C:  BNZ   5C14
05C1E:  MOVLB  7
05C20:  BTFSC  xBE.7
05C22:  BSF    FF2.7
....................             displayTemps(Menus.Letra,Minutos1[l+((Prog-1)*10)],0,55,10,1); 
05C24:  MOVLW  01
05C26:  SUBWF  xBD,W
05C28:  MULLW  0A
05C2A:  MOVF   FF3,W
05C2C:  ADDWF  xBC,W
05C2E:  MOVWF  00
05C30:  BCF    FD8.0
05C32:  RLCF   00,F
05C34:  MOVF   00,W
05C36:  CLRF   03
05C38:  ADDLW  0D
05C3A:  MOVWF  FE9
05C3C:  MOVLW  07
05C3E:  ADDWFC 03,W
05C40:  MOVWF  FEA
05C42:  MOVFF  FEC,7BF
05C46:  MOVF   FED,F
05C48:  MOVFF  FEF,7BE
05C4C:  MOVLW  07
05C4E:  MOVWF  xC1
05C50:  MOVLW  9B
05C52:  MOVWF  xC0
05C54:  MOVFF  7BF,7C3
05C58:  MOVFF  7BE,7C2
05C5C:  CLRF   xC4
05C5E:  MOVLW  37
05C60:  MOVWF  xC5
05C62:  MOVLW  0A
05C64:  MOVWF  xC6
05C66:  MOVLW  01
05C68:  MOVWF  xC7
05C6A:  MOVLB  0
05C6C:  RCALL  5512
....................             if(UP)//Si oprime hacia arriba 
05C6E:  BSF    F92.5
05C70:  BTFSC  F80.5
05C72:  BRA    5DBC
....................             { 
....................                Buzz_on;delay_ms(10);Buzz_off; 
05C74:  BSF    F8B.4
05C76:  BCF    F94.4
05C78:  MOVLW  0A
05C7A:  MOVLB  7
05C7C:  MOVWF  xC1
05C7E:  MOVLB  0
05C80:  CALL   184E
05C84:  BCF    F8B.4
05C86:  BCF    F94.4
....................                if(tiempoup<4){ 
05C88:  MOVLB  5
05C8A:  MOVF   x68,W
05C8C:  SUBLW  03
05C8E:  BNC   5CBE
....................                   flagup=1; 
05C90:  BSF    x5F.0
....................                   Temperatura1[l+((Prog-1)*10)]++; 
05C92:  MOVLW  01
05C94:  MOVLB  7
05C96:  SUBWF  xBD,W
05C98:  MULLW  0A
05C9A:  MOVF   FF3,W
05C9C:  ADDWF  xBC,W
05C9E:  MOVWF  00
05CA0:  BCF    FD8.0
05CA2:  RLCF   00,F
05CA4:  MOVF   00,W
05CA6:  CLRF   03
05CA8:  ADDLW  45
05CAA:  MOVWF  FE9
05CAC:  MOVLW  06
05CAE:  ADDWFC 03,W
05CB0:  MOVWF  FEA
05CB2:  MOVLW  01
05CB4:  ADDWF  FEE,F
05CB6:  BNC   5CBA
05CB8:  INCF   FEF,F
....................                } 
....................                else{ 
05CBA:  BRA    5CF2
05CBC:  MOVLB  5
....................                   flagup=0; 
05CBE:  BCF    x5F.0
....................                   Temperatura1[l+((Prog-1)*10)]+=10; 
05CC0:  MOVLW  01
05CC2:  MOVLB  7
05CC4:  SUBWF  xBD,W
05CC6:  MULLW  0A
05CC8:  MOVF   FF3,W
05CCA:  ADDWF  xBC,W
05CCC:  MOVWF  00
05CCE:  BCF    FD8.0
05CD0:  RLCF   00,F
05CD2:  MOVF   00,W
05CD4:  CLRF   03
05CD6:  ADDLW  45
05CD8:  MOVWF  FE9
05CDA:  MOVLW  06
05CDC:  ADDWFC 03,W
05CDE:  MOVWF  FEA
05CE0:  MOVLW  0A
05CE2:  ADDWF  FEF,W
05CE4:  MOVWF  01
05CE6:  MOVLW  00
05CE8:  ADDWFC FEC,W
05CEA:  MOVF   FED,F
05CEC:  MOVFF  01,FEF
05CF0:  MOVWF  FEC
....................                }  
....................                if(l<9) 
05CF2:  MOVF   xBC,W
05CF4:  SUBLW  08
05CF6:  BNC   5D58
....................                   Temperatura1[l+1+((Prog-1)*10)]=Temperatura1[l+((Prog-1)*10)];  
05CF8:  MOVLW  01
05CFA:  ADDWF  xBC,W
05CFC:  MOVWF  xBE
05CFE:  MOVLW  01
05D00:  SUBWF  xBD,W
05D02:  MULLW  0A
05D04:  MOVF   FF3,W
05D06:  ADDWF  xBE,W
05D08:  MOVWF  00
05D0A:  BCF    FD8.0
05D0C:  RLCF   00,F
05D0E:  MOVF   00,W
05D10:  CLRF   03
05D12:  ADDLW  45
05D14:  MOVWF  01
05D16:  MOVLW  06
05D18:  ADDWFC 03,F
05D1A:  MOVFF  03,7BF
05D1E:  MOVLW  01
05D20:  SUBWF  xBD,W
05D22:  MULLW  0A
05D24:  MOVF   FF3,W
05D26:  ADDWF  xBC,W
05D28:  MOVWF  00
05D2A:  BCF    FD8.0
05D2C:  RLCF   00,F
05D2E:  MOVF   00,W
05D30:  CLRF   03
05D32:  ADDLW  45
05D34:  MOVWF  FE9
05D36:  MOVLW  06
05D38:  ADDWFC 03,W
05D3A:  MOVWF  FEA
05D3C:  MOVFF  FEC,03
05D40:  MOVF   FED,F
05D42:  MOVFF  FEF,7C0
05D46:  MOVFF  7BF,FEA
05D4A:  MOVFF  01,FE9
05D4E:  MOVFF  03,FEC
05D52:  MOVF   FED,F
05D54:  MOVFF  7C0,FEF
....................                    
....................                if(Temperatura1[l+((Prog-1)*10)]>1200) 
05D58:  MOVLW  01
05D5A:  SUBWF  xBD,W
05D5C:  MULLW  0A
05D5E:  MOVF   FF3,W
05D60:  ADDWF  xBC,W
05D62:  MOVWF  00
05D64:  BCF    FD8.0
05D66:  RLCF   00,F
05D68:  MOVF   00,W
05D6A:  CLRF   03
05D6C:  ADDLW  45
05D6E:  MOVWF  FE9
05D70:  MOVLW  06
05D72:  ADDWFC 03,W
05D74:  MOVWF  FEA
05D76:  MOVFF  FEC,7BF
05D7A:  MOVF   FED,F
05D7C:  MOVFF  FEF,7BE
05D80:  BTFSC  xBF.7
05D82:  BRA    5DB8
05D84:  MOVF   xBF,W
05D86:  SUBLW  03
05D88:  BC    5DB8
05D8A:  XORLW  FF
05D8C:  BNZ   5D94
05D8E:  MOVF   xBE,W
05D90:  SUBLW  B0
05D92:  BC    5DB8
....................                   Temperatura1[l+((Prog-1)*10)]=0; 
05D94:  MOVLW  01
05D96:  SUBWF  xBD,W
05D98:  MULLW  0A
05D9A:  MOVF   FF3,W
05D9C:  ADDWF  xBC,W
05D9E:  MOVWF  00
05DA0:  BCF    FD8.0
05DA2:  RLCF   00,F
05DA4:  MOVF   00,W
05DA6:  CLRF   03
05DA8:  ADDLW  45
05DAA:  MOVWF  FE9
05DAC:  MOVLW  06
05DAE:  ADDWFC 03,W
05DB0:  MOVWF  FEA
05DB2:  CLRF   FEC
05DB4:  MOVF   FED,F
05DB6:  CLRF   FEF
....................             } 
....................             else 
05DB8:  BRA    5DC4
05DBA:  MOVLB  0
....................             { 
....................                flagup=0;tiempoup=0; 
05DBC:  MOVLB  5
05DBE:  BCF    x5F.0
05DC0:  CLRF   x68
05DC2:  MOVLB  7
....................             } 
....................                       
....................             if(DOWN)//Si oprime hacia abajo 
05DC4:  BSF    F96.0
05DC6:  BTFSC  F84.0
05DC8:  BRA    5F04
....................             { 
....................                Buzz_on;delay_ms(10);Buzz_off; 
05DCA:  BSF    F8B.4
05DCC:  BCF    F94.4
05DCE:  MOVLW  0A
05DD0:  MOVWF  xC1
05DD2:  MOVLB  0
05DD4:  CALL   184E
05DD8:  BCF    F8B.4
05DDA:  BCF    F94.4
....................                if(tiempodn<4){ 
05DDC:  MOVLB  5
05DDE:  MOVF   x69,W
05DE0:  SUBLW  03
05DE2:  BNC   5E14
....................                   flagdn=1; 
05DE4:  BSF    x5F.1
....................                   Temperatura1[l+((Prog-1)*10)]--; 
05DE6:  MOVLW  01
05DE8:  MOVLB  7
05DEA:  SUBWF  xBD,W
05DEC:  MULLW  0A
05DEE:  MOVF   FF3,W
05DF0:  ADDWF  xBC,W
05DF2:  MOVWF  00
05DF4:  BCF    FD8.0
05DF6:  RLCF   00,F
05DF8:  MOVF   00,W
05DFA:  CLRF   03
05DFC:  ADDLW  45
05DFE:  MOVWF  FE9
05E00:  MOVLW  06
05E02:  ADDWFC 03,W
05E04:  MOVWF  FEA
05E06:  MOVLW  FF
05E08:  ADDWF  FEF,F
05E0A:  BC    5E10
05E0C:  MOVF   FEE,F
05E0E:  DECF   FED,F
....................                } 
....................                else{ 
05E10:  BRA    5E4C
05E12:  MOVLB  5
....................                   flagdn=0; 
05E14:  BCF    x5F.1
....................                   Temperatura1[l+((Prog-1)*10)]-=10; 
05E16:  MOVLW  01
05E18:  MOVLB  7
05E1A:  SUBWF  xBD,W
05E1C:  MULLW  0A
05E1E:  MOVF   FF3,W
05E20:  ADDWF  xBC,W
05E22:  MOVWF  00
05E24:  BCF    FD8.0
05E26:  RLCF   00,F
05E28:  MOVF   00,W
05E2A:  CLRF   03
05E2C:  ADDLW  45
05E2E:  MOVWF  FE9
05E30:  MOVLW  06
05E32:  ADDWFC 03,W
05E34:  MOVWF  FEA
05E36:  MOVLW  0A
05E38:  SUBWF  FEF,W
05E3A:  MOVWF  00
05E3C:  MOVLW  00
05E3E:  SUBWFB FEC,W
05E40:  MOVWF  03
05E42:  MOVF   00,W
05E44:  MOVF   FED,F
05E46:  MOVWF  FEF
05E48:  MOVFF  03,FEC
....................                } 
....................                Temperatura1[l+1+((Prog-1)*10)]=Temperatura1[l+((Prog-1)*10)];  
05E4C:  MOVLW  01
05E4E:  ADDWF  xBC,W
05E50:  MOVWF  xBE
05E52:  MOVLW  01
05E54:  SUBWF  xBD,W
05E56:  MULLW  0A
05E58:  MOVF   FF3,W
05E5A:  ADDWF  xBE,W
05E5C:  MOVWF  00
05E5E:  BCF    FD8.0
05E60:  RLCF   00,F
05E62:  MOVF   00,W
05E64:  CLRF   03
05E66:  ADDLW  45
05E68:  MOVWF  01
05E6A:  MOVLW  06
05E6C:  ADDWFC 03,F
05E6E:  MOVFF  03,7BF
05E72:  MOVLW  01
05E74:  SUBWF  xBD,W
05E76:  MULLW  0A
05E78:  MOVF   FF3,W
05E7A:  ADDWF  xBC,W
05E7C:  MOVWF  00
05E7E:  BCF    FD8.0
05E80:  RLCF   00,F
05E82:  MOVF   00,W
05E84:  CLRF   03
05E86:  ADDLW  45
05E88:  MOVWF  FE9
05E8A:  MOVLW  06
05E8C:  ADDWFC 03,W
05E8E:  MOVWF  FEA
05E90:  MOVFF  FEC,03
05E94:  MOVF   FED,F
05E96:  MOVFF  FEF,7C0
05E9A:  MOVFF  7BF,FEA
05E9E:  MOVFF  01,FE9
05EA2:  MOVFF  03,FEC
05EA6:  MOVF   FED,F
05EA8:  MOVFF  7C0,FEF
....................                 
....................                if(Temperatura1[l+((Prog-1)*10)]<0) 
05EAC:  MOVLW  01
05EAE:  SUBWF  xBD,W
05EB0:  MULLW  0A
05EB2:  MOVF   FF3,W
05EB4:  ADDWF  xBC,W
05EB6:  MOVWF  00
05EB8:  BCF    FD8.0
05EBA:  RLCF   00,F
05EBC:  MOVF   00,W
05EBE:  CLRF   03
05EC0:  ADDLW  45
05EC2:  MOVWF  FE9
05EC4:  MOVLW  06
05EC6:  ADDWFC 03,W
05EC8:  MOVWF  FEA
05ECA:  MOVFF  FEC,7BF
05ECE:  MOVF   FED,F
05ED0:  MOVFF  FEF,7BE
05ED4:  BTFSC  xBF.7
05ED6:  BRA    5EDA
05ED8:  BRA    5F02
....................                   Temperatura1[l+((Prog-1)*10)]=1200; 
05EDA:  MOVLW  01
05EDC:  SUBWF  xBD,W
05EDE:  MULLW  0A
05EE0:  MOVF   FF3,W
05EE2:  ADDWF  xBC,W
05EE4:  MOVWF  00
05EE6:  BCF    FD8.0
05EE8:  RLCF   00,F
05EEA:  MOVF   00,W
05EEC:  CLRF   03
05EEE:  ADDLW  45
05EF0:  MOVWF  FE9
05EF2:  MOVLW  06
05EF4:  ADDWFC 03,W
05EF6:  MOVWF  FEA
05EF8:  MOVLW  04
05EFA:  MOVWF  FEC
05EFC:  MOVF   FED,F
05EFE:  MOVLW  B0
05F00:  MOVWF  FEF
....................             } 
....................             else{ 
05F02:  BRA    5F0C
....................                flagdn=0;tiempodn=0; 
05F04:  MOVLB  5
05F06:  BCF    x5F.1
05F08:  CLRF   x69
05F0A:  MOVLB  7
....................             } 
....................          } 
....................           
....................          if(Opcio==2){ 
05F0C:  MOVF   xBB,W
05F0E:  SUBLW  02
05F10:  BTFSS  FD8.2
05F12:  BRA    623A
....................             strcpy(Menus.Letra,"Temperatura:"); 
05F14:  MOVLW  07
05F16:  MOVWF  FEA
05F18:  MOVLW  9B
05F1A:  MOVWF  FE9
05F1C:  MOVFF  FF2,7BE
05F20:  BCF    FF2.7
05F22:  MOVLW  00
05F24:  MOVLB  0
05F26:  CALL   0760
05F2A:  TBLRD*-
05F2C:  TBLRD*+
05F2E:  MOVF   FF5,W
05F30:  MOVWF  FEE
05F32:  IORLW  00
05F34:  BNZ   5F2C
05F36:  MOVLB  7
05F38:  BTFSC  xBE.7
05F3A:  BSF    FF2.7
....................             displayTemps(Menus.Letra,Temperatura1[l+((Prog-1)*10)],0,32,0,1); 
05F3C:  MOVLW  01
05F3E:  SUBWF  xBD,W
05F40:  MULLW  0A
05F42:  MOVF   FF3,W
05F44:  ADDWF  xBC,W
05F46:  MOVWF  00
05F48:  BCF    FD8.0
05F4A:  RLCF   00,F
05F4C:  MOVF   00,W
05F4E:  CLRF   03
05F50:  ADDLW  45
05F52:  MOVWF  FE9
05F54:  MOVLW  06
05F56:  ADDWFC 03,W
05F58:  MOVWF  FEA
05F5A:  MOVFF  FEC,7BF
05F5E:  MOVF   FED,F
05F60:  MOVFF  FEF,7BE
05F64:  MOVLW  07
05F66:  MOVWF  xC1
05F68:  MOVLW  9B
05F6A:  MOVWF  xC0
05F6C:  MOVFF  7BF,7C3
05F70:  MOVFF  7BE,7C2
05F74:  CLRF   xC4
05F76:  MOVLW  20
05F78:  MOVWF  xC5
05F7A:  CLRF   xC6
05F7C:  MOVLW  01
05F7E:  MOVWF  xC7
05F80:  MOVLB  0
05F82:  CALL   5512
....................             strcpy(Menus.Letra,"Horas:"); 
05F86:  MOVLW  07
05F88:  MOVWF  FEA
05F8A:  MOVLW  9B
05F8C:  MOVWF  FE9
05F8E:  MOVFF  FF2,7BE
05F92:  BCF    FF2.7
05F94:  MOVLW  00
05F96:  CALL   078C
05F9A:  TBLRD*-
05F9C:  TBLRD*+
05F9E:  MOVF   FF5,W
05FA0:  MOVWF  FEE
05FA2:  IORLW  00
05FA4:  BNZ   5F9C
05FA6:  MOVLB  7
05FA8:  BTFSC  xBE.7
05FAA:  BSF    FF2.7
....................             displayTemps(Menus.Letra,Horas1[l+((Prog-1)*10)],0,44,11,1); 
05FAC:  MOVLW  01
05FAE:  SUBWF  xBD,W
05FB0:  MULLW  0A
05FB2:  MOVF   FF3,W
05FB4:  ADDWF  xBC,W
05FB6:  MOVWF  00
05FB8:  BCF    FD8.0
05FBA:  RLCF   00,F
05FBC:  MOVF   00,W
05FBE:  CLRF   03
05FC0:  ADDLW  A9
05FC2:  MOVWF  FE9
05FC4:  MOVLW  06
05FC6:  ADDWFC 03,W
05FC8:  MOVWF  FEA
05FCA:  MOVFF  FEC,7BF
05FCE:  MOVF   FED,F
05FD0:  MOVFF  FEF,7BE
05FD4:  MOVLW  07
05FD6:  MOVWF  xC1
05FD8:  MOVLW  9B
05FDA:  MOVWF  xC0
05FDC:  MOVFF  7BF,7C3
05FE0:  MOVFF  7BE,7C2
05FE4:  CLRF   xC4
05FE6:  MOVLW  2C
05FE8:  MOVWF  xC5
05FEA:  MOVLW  0B
05FEC:  MOVWF  xC6
05FEE:  MOVLW  01
05FF0:  MOVWF  xC7
05FF2:  MOVLB  0
05FF4:  CALL   5512
....................             strcpy(Menus.Letra,"Minutos:"); 
05FF8:  MOVLW  07
05FFA:  MOVWF  FEA
05FFC:  MOVLW  9B
05FFE:  MOVWF  FE9
06000:  MOVFF  FF2,7BE
06004:  BCF    FF2.7
06006:  MOVLW  00
06008:  CALL   07B2
0600C:  TBLRD*-
0600E:  TBLRD*+
06010:  MOVF   FF5,W
06012:  MOVWF  FEE
06014:  IORLW  00
06016:  BNZ   600E
06018:  MOVLB  7
0601A:  BTFSC  xBE.7
0601C:  BSF    FF2.7
....................             displayTemps(Menus.Letra,Minutos1[l+((Prog-1)*10)],0,55,10,1); 
0601E:  MOVLW  01
06020:  SUBWF  xBD,W
06022:  MULLW  0A
06024:  MOVF   FF3,W
06026:  ADDWF  xBC,W
06028:  MOVWF  00
0602A:  BCF    FD8.0
0602C:  RLCF   00,F
0602E:  MOVF   00,W
06030:  CLRF   03
06032:  ADDLW  0D
06034:  MOVWF  FE9
06036:  MOVLW  07
06038:  ADDWFC 03,W
0603A:  MOVWF  FEA
0603C:  MOVFF  FEC,7BF
06040:  MOVF   FED,F
06042:  MOVFF  FEF,7BE
06046:  MOVLW  07
06048:  MOVWF  xC1
0604A:  MOVLW  9B
0604C:  MOVWF  xC0
0604E:  MOVFF  7BF,7C3
06052:  MOVFF  7BE,7C2
06056:  CLRF   xC4
06058:  MOVLW  37
0605A:  MOVWF  xC5
0605C:  MOVLW  0A
0605E:  MOVWF  xC6
06060:  MOVLW  01
06062:  MOVWF  xC7
06064:  MOVLB  0
06066:  CALL   5512
....................             if(UP)//Si oprime hacia arriba 
0606A:  BSF    F92.5
0606C:  BTFSC  F80.5
0606E:  BRA    614C
....................             { 
....................                Buzz_on;delay_ms(10);Buzz_off; 
06070:  BSF    F8B.4
06072:  BCF    F94.4
06074:  MOVLW  0A
06076:  MOVLB  7
06078:  MOVWF  xC1
0607A:  MOVLB  0
0607C:  CALL   184E
06080:  BCF    F8B.4
06082:  BCF    F94.4
....................                if(tiempoup<4){ 
06084:  MOVLB  5
06086:  MOVF   x68,W
06088:  SUBLW  03
0608A:  BNC   60BA
....................                   flagup=1; 
0608C:  BSF    x5F.0
....................                   Horas1[l+((Prog-1)*10)]++; 
0608E:  MOVLW  01
06090:  MOVLB  7
06092:  SUBWF  xBD,W
06094:  MULLW  0A
06096:  MOVF   FF3,W
06098:  ADDWF  xBC,W
0609A:  MOVWF  00
0609C:  BCF    FD8.0
0609E:  RLCF   00,F
060A0:  MOVF   00,W
060A2:  CLRF   03
060A4:  ADDLW  A9
060A6:  MOVWF  FE9
060A8:  MOVLW  06
060AA:  ADDWFC 03,W
060AC:  MOVWF  FEA
060AE:  MOVLW  01
060B0:  ADDWF  FEE,F
060B2:  BNC   60B6
060B4:  INCF   FEF,F
....................                } 
....................                else{ 
060B6:  BRA    60EE
060B8:  MOVLB  5
....................                   flagup=0; 
060BA:  BCF    x5F.0
....................                   Horas1[l+((Prog-1)*10)]+=10; 
060BC:  MOVLW  01
060BE:  MOVLB  7
060C0:  SUBWF  xBD,W
060C2:  MULLW  0A
060C4:  MOVF   FF3,W
060C6:  ADDWF  xBC,W
060C8:  MOVWF  00
060CA:  BCF    FD8.0
060CC:  RLCF   00,F
060CE:  MOVF   00,W
060D0:  CLRF   03
060D2:  ADDLW  A9
060D4:  MOVWF  FE9
060D6:  MOVLW  06
060D8:  ADDWFC 03,W
060DA:  MOVWF  FEA
060DC:  MOVLW  0A
060DE:  ADDWF  FEF,W
060E0:  MOVWF  01
060E2:  MOVLW  00
060E4:  ADDWFC FEC,W
060E6:  MOVF   FED,F
060E8:  MOVFF  01,FEF
060EC:  MOVWF  FEC
....................                } 
....................                if(Horas1[l+((Prog-1)*10)]>99) 
060EE:  MOVLW  01
060F0:  SUBWF  xBD,W
060F2:  MULLW  0A
060F4:  MOVF   FF3,W
060F6:  ADDWF  xBC,W
060F8:  MOVWF  00
060FA:  BCF    FD8.0
060FC:  RLCF   00,F
060FE:  MOVF   00,W
06100:  CLRF   03
06102:  ADDLW  A9
06104:  MOVWF  FE9
06106:  MOVLW  06
06108:  ADDWFC 03,W
0610A:  MOVWF  FEA
0610C:  MOVFF  FEC,7BF
06110:  MOVF   FED,F
06112:  MOVFF  FEF,7BE
06116:  BTFSC  xBF.7
06118:  BRA    6148
0611A:  MOVF   xBF,F
0611C:  BNZ   6124
0611E:  MOVF   xBE,W
06120:  SUBLW  63
06122:  BC    6148
....................                   Horas1[l+((Prog-1)*10)]=0; 
06124:  MOVLW  01
06126:  SUBWF  xBD,W
06128:  MULLW  0A
0612A:  MOVF   FF3,W
0612C:  ADDWF  xBC,W
0612E:  MOVWF  00
06130:  BCF    FD8.0
06132:  RLCF   00,F
06134:  MOVF   00,W
06136:  CLRF   03
06138:  ADDLW  A9
0613A:  MOVWF  FE9
0613C:  MOVLW  06
0613E:  ADDWFC 03,W
06140:  MOVWF  FEA
06142:  CLRF   FEC
06144:  MOVF   FED,F
06146:  CLRF   FEF
....................             } 
....................             else{ 
06148:  BRA    6154
0614A:  MOVLB  0
....................                flagup=0;tiempoup=0; 
0614C:  MOVLB  5
0614E:  BCF    x5F.0
06150:  CLRF   x68
06152:  MOVLB  7
....................             } 
....................                       
....................             if(DOWN)//Si oprime hacia abajo 
06154:  BSF    F96.0
06156:  BTFSC  F84.0
06158:  BRA    6232
....................             { 
....................                Buzz_on;delay_ms(10);Buzz_off; 
0615A:  BSF    F8B.4
0615C:  BCF    F94.4
0615E:  MOVLW  0A
06160:  MOVWF  xC1
06162:  MOVLB  0
06164:  CALL   184E
06168:  BCF    F8B.4
0616A:  BCF    F94.4
....................                if(tiempodn<4){ 
0616C:  MOVLB  5
0616E:  MOVF   x69,W
06170:  SUBLW  03
06172:  BNC   61A4
....................                   flagdn=1; 
06174:  BSF    x5F.1
....................                   Horas1[l+((Prog-1)*10)]--; 
06176:  MOVLW  01
06178:  MOVLB  7
0617A:  SUBWF  xBD,W
0617C:  MULLW  0A
0617E:  MOVF   FF3,W
06180:  ADDWF  xBC,W
06182:  MOVWF  00
06184:  BCF    FD8.0
06186:  RLCF   00,F
06188:  MOVF   00,W
0618A:  CLRF   03
0618C:  ADDLW  A9
0618E:  MOVWF  FE9
06190:  MOVLW  06
06192:  ADDWFC 03,W
06194:  MOVWF  FEA
06196:  MOVLW  FF
06198:  ADDWF  FEF,F
0619A:  BC    61A0
0619C:  MOVF   FEE,F
0619E:  DECF   FED,F
....................                } 
....................                else{ 
061A0:  BRA    61DC
061A2:  MOVLB  5
....................                   flagdn=0; 
061A4:  BCF    x5F.1
....................                   Horas1[l+((Prog-1)*10)]-=10; 
061A6:  MOVLW  01
061A8:  MOVLB  7
061AA:  SUBWF  xBD,W
061AC:  MULLW  0A
061AE:  MOVF   FF3,W
061B0:  ADDWF  xBC,W
061B2:  MOVWF  00
061B4:  BCF    FD8.0
061B6:  RLCF   00,F
061B8:  MOVF   00,W
061BA:  CLRF   03
061BC:  ADDLW  A9
061BE:  MOVWF  FE9
061C0:  MOVLW  06
061C2:  ADDWFC 03,W
061C4:  MOVWF  FEA
061C6:  MOVLW  0A
061C8:  SUBWF  FEF,W
061CA:  MOVWF  00
061CC:  MOVLW  00
061CE:  SUBWFB FEC,W
061D0:  MOVWF  03
061D2:  MOVF   00,W
061D4:  MOVF   FED,F
061D6:  MOVWF  FEF
061D8:  MOVFF  03,FEC
....................                } 
....................                if(Horas1[l+((Prog-1)*10)]<0) 
061DC:  MOVLW  01
061DE:  SUBWF  xBD,W
061E0:  MULLW  0A
061E2:  MOVF   FF3,W
061E4:  ADDWF  xBC,W
061E6:  MOVWF  00
061E8:  BCF    FD8.0
061EA:  RLCF   00,F
061EC:  MOVF   00,W
061EE:  CLRF   03
061F0:  ADDLW  A9
061F2:  MOVWF  FE9
061F4:  MOVLW  06
061F6:  ADDWFC 03,W
061F8:  MOVWF  FEA
061FA:  MOVFF  FEC,7BF
061FE:  MOVF   FED,F
06200:  MOVFF  FEF,7BE
06204:  BTFSC  xBF.7
06206:  BRA    620A
06208:  BRA    6230
....................                   Horas1[l+((Prog-1)*10)]=99; 
0620A:  MOVLW  01
0620C:  SUBWF  xBD,W
0620E:  MULLW  0A
06210:  MOVF   FF3,W
06212:  ADDWF  xBC,W
06214:  MOVWF  00
06216:  BCF    FD8.0
06218:  RLCF   00,F
0621A:  MOVF   00,W
0621C:  CLRF   03
0621E:  ADDLW  A9
06220:  MOVWF  FE9
06222:  MOVLW  06
06224:  ADDWFC 03,W
06226:  MOVWF  FEA
06228:  CLRF   FEC
0622A:  MOVF   FED,F
0622C:  MOVLW  63
0622E:  MOVWF  FEF
....................             } 
....................             else{ 
06230:  BRA    623A
....................                flagdn=0;tiempodn=0; 
06232:  MOVLB  5
06234:  BCF    x5F.1
06236:  CLRF   x69
06238:  MOVLB  7
....................             } 
....................          } 
....................           
....................          if(Opcio==3){ 
0623A:  MOVF   xBB,W
0623C:  SUBLW  03
0623E:  BTFSS  FD8.2
06240:  BRA    6568
....................             strcpy(Menus.Letra,"Temperatura:"); 
06242:  MOVLW  07
06244:  MOVWF  FEA
06246:  MOVLW  9B
06248:  MOVWF  FE9
0624A:  MOVFF  FF2,7BE
0624E:  BCF    FF2.7
06250:  MOVLW  00
06252:  MOVLB  0
06254:  CALL   0760
06258:  TBLRD*-
0625A:  TBLRD*+
0625C:  MOVF   FF5,W
0625E:  MOVWF  FEE
06260:  IORLW  00
06262:  BNZ   625A
06264:  MOVLB  7
06266:  BTFSC  xBE.7
06268:  BSF    FF2.7
....................             displayTemps(Menus.Letra,Temperatura1[l+((Prog-1)*10)],0,32,0,1); 
0626A:  MOVLW  01
0626C:  SUBWF  xBD,W
0626E:  MULLW  0A
06270:  MOVF   FF3,W
06272:  ADDWF  xBC,W
06274:  MOVWF  00
06276:  BCF    FD8.0
06278:  RLCF   00,F
0627A:  MOVF   00,W
0627C:  CLRF   03
0627E:  ADDLW  45
06280:  MOVWF  FE9
06282:  MOVLW  06
06284:  ADDWFC 03,W
06286:  MOVWF  FEA
06288:  MOVFF  FEC,7BF
0628C:  MOVF   FED,F
0628E:  MOVFF  FEF,7BE
06292:  MOVLW  07
06294:  MOVWF  xC1
06296:  MOVLW  9B
06298:  MOVWF  xC0
0629A:  MOVFF  7BF,7C3
0629E:  MOVFF  7BE,7C2
062A2:  CLRF   xC4
062A4:  MOVLW  20
062A6:  MOVWF  xC5
062A8:  CLRF   xC6
062AA:  MOVLW  01
062AC:  MOVWF  xC7
062AE:  MOVLB  0
062B0:  CALL   5512
....................             strcpy(Menus.Letra,"Horas:"); 
062B4:  MOVLW  07
062B6:  MOVWF  FEA
062B8:  MOVLW  9B
062BA:  MOVWF  FE9
062BC:  MOVFF  FF2,7BE
062C0:  BCF    FF2.7
062C2:  MOVLW  00
062C4:  CALL   078C
062C8:  TBLRD*-
062CA:  TBLRD*+
062CC:  MOVF   FF5,W
062CE:  MOVWF  FEE
062D0:  IORLW  00
062D2:  BNZ   62CA
062D4:  MOVLB  7
062D6:  BTFSC  xBE.7
062D8:  BSF    FF2.7
....................             displayTemps(Menus.Letra,Horas1[l+((Prog-1)*10)],0,44,10,1); 
062DA:  MOVLW  01
062DC:  SUBWF  xBD,W
062DE:  MULLW  0A
062E0:  MOVF   FF3,W
062E2:  ADDWF  xBC,W
062E4:  MOVWF  00
062E6:  BCF    FD8.0
062E8:  RLCF   00,F
062EA:  MOVF   00,W
062EC:  CLRF   03
062EE:  ADDLW  A9
062F0:  MOVWF  FE9
062F2:  MOVLW  06
062F4:  ADDWFC 03,W
062F6:  MOVWF  FEA
062F8:  MOVFF  FEC,7BF
062FC:  MOVF   FED,F
062FE:  MOVFF  FEF,7BE
06302:  MOVLW  07
06304:  MOVWF  xC1
06306:  MOVLW  9B
06308:  MOVWF  xC0
0630A:  MOVFF  7BF,7C3
0630E:  MOVFF  7BE,7C2
06312:  CLRF   xC4
06314:  MOVLW  2C
06316:  MOVWF  xC5
06318:  MOVLW  0A
0631A:  MOVWF  xC6
0631C:  MOVLW  01
0631E:  MOVWF  xC7
06320:  MOVLB  0
06322:  CALL   5512
....................             strcpy(Menus.Letra,"Minutos:"); 
06326:  MOVLW  07
06328:  MOVWF  FEA
0632A:  MOVLW  9B
0632C:  MOVWF  FE9
0632E:  MOVFF  FF2,7BE
06332:  BCF    FF2.7
06334:  MOVLW  00
06336:  CALL   07B2
0633A:  TBLRD*-
0633C:  TBLRD*+
0633E:  MOVF   FF5,W
06340:  MOVWF  FEE
06342:  IORLW  00
06344:  BNZ   633C
06346:  MOVLB  7
06348:  BTFSC  xBE.7
0634A:  BSF    FF2.7
....................             displayTemps(Menus.Letra,Minutos1[l+((Prog-1)*10)],0,55,11,1); 
0634C:  MOVLW  01
0634E:  SUBWF  xBD,W
06350:  MULLW  0A
06352:  MOVF   FF3,W
06354:  ADDWF  xBC,W
06356:  MOVWF  00
06358:  BCF    FD8.0
0635A:  RLCF   00,F
0635C:  MOVF   00,W
0635E:  CLRF   03
06360:  ADDLW  0D
06362:  MOVWF  FE9
06364:  MOVLW  07
06366:  ADDWFC 03,W
06368:  MOVWF  FEA
0636A:  MOVFF  FEC,7BF
0636E:  MOVF   FED,F
06370:  MOVFF  FEF,7BE
06374:  MOVLW  07
06376:  MOVWF  xC1
06378:  MOVLW  9B
0637A:  MOVWF  xC0
0637C:  MOVFF  7BF,7C3
06380:  MOVFF  7BE,7C2
06384:  CLRF   xC4
06386:  MOVLW  37
06388:  MOVWF  xC5
0638A:  MOVLW  0B
0638C:  MOVWF  xC6
0638E:  MOVLW  01
06390:  MOVWF  xC7
06392:  MOVLB  0
06394:  CALL   5512
....................             if(UP)//Si oprime hacia arriba 
06398:  BSF    F92.5
0639A:  BTFSC  F80.5
0639C:  BRA    647A
....................             { 
....................                Buzz_on;delay_ms(10);Buzz_off; 
0639E:  BSF    F8B.4
063A0:  BCF    F94.4
063A2:  MOVLW  0A
063A4:  MOVLB  7
063A6:  MOVWF  xC1
063A8:  MOVLB  0
063AA:  CALL   184E
063AE:  BCF    F8B.4
063B0:  BCF    F94.4
....................                if(tiempoup<4){ 
063B2:  MOVLB  5
063B4:  MOVF   x68,W
063B6:  SUBLW  03
063B8:  BNC   63E8
....................                   flagup=1; 
063BA:  BSF    x5F.0
....................                   Minutos1[l+((Prog-1)*10)]++; 
063BC:  MOVLW  01
063BE:  MOVLB  7
063C0:  SUBWF  xBD,W
063C2:  MULLW  0A
063C4:  MOVF   FF3,W
063C6:  ADDWF  xBC,W
063C8:  MOVWF  00
063CA:  BCF    FD8.0
063CC:  RLCF   00,F
063CE:  MOVF   00,W
063D0:  CLRF   03
063D2:  ADDLW  0D
063D4:  MOVWF  FE9
063D6:  MOVLW  07
063D8:  ADDWFC 03,W
063DA:  MOVWF  FEA
063DC:  MOVLW  01
063DE:  ADDWF  FEE,F
063E0:  BNC   63E4
063E2:  INCF   FEF,F
....................                }   
....................                else{ 
063E4:  BRA    641C
063E6:  MOVLB  5
....................                   flagup=0; 
063E8:  BCF    x5F.0
....................                   Minutos1[l+((Prog-1)*10)]+=10; 
063EA:  MOVLW  01
063EC:  MOVLB  7
063EE:  SUBWF  xBD,W
063F0:  MULLW  0A
063F2:  MOVF   FF3,W
063F4:  ADDWF  xBC,W
063F6:  MOVWF  00
063F8:  BCF    FD8.0
063FA:  RLCF   00,F
063FC:  MOVF   00,W
063FE:  CLRF   03
06400:  ADDLW  0D
06402:  MOVWF  FE9
06404:  MOVLW  07
06406:  ADDWFC 03,W
06408:  MOVWF  FEA
0640A:  MOVLW  0A
0640C:  ADDWF  FEF,W
0640E:  MOVWF  01
06410:  MOVLW  00
06412:  ADDWFC FEC,W
06414:  MOVF   FED,F
06416:  MOVFF  01,FEF
0641A:  MOVWF  FEC
....................                } 
....................                if(Minutos1[l+((Prog-1)*10)]>59) 
0641C:  MOVLW  01
0641E:  SUBWF  xBD,W
06420:  MULLW  0A
06422:  MOVF   FF3,W
06424:  ADDWF  xBC,W
06426:  MOVWF  00
06428:  BCF    FD8.0
0642A:  RLCF   00,F
0642C:  MOVF   00,W
0642E:  CLRF   03
06430:  ADDLW  0D
06432:  MOVWF  FE9
06434:  MOVLW  07
06436:  ADDWFC 03,W
06438:  MOVWF  FEA
0643A:  MOVFF  FEC,7BF
0643E:  MOVF   FED,F
06440:  MOVFF  FEF,7BE
06444:  BTFSC  xBF.7
06446:  BRA    6476
06448:  MOVF   xBF,F
0644A:  BNZ   6452
0644C:  MOVF   xBE,W
0644E:  SUBLW  3B
06450:  BC    6476
....................                   Minutos1[l+((Prog-1)*10)]=0; 
06452:  MOVLW  01
06454:  SUBWF  xBD,W
06456:  MULLW  0A
06458:  MOVF   FF3,W
0645A:  ADDWF  xBC,W
0645C:  MOVWF  00
0645E:  BCF    FD8.0
06460:  RLCF   00,F
06462:  MOVF   00,W
06464:  CLRF   03
06466:  ADDLW  0D
06468:  MOVWF  FE9
0646A:  MOVLW  07
0646C:  ADDWFC 03,W
0646E:  MOVWF  FEA
06470:  CLRF   FEC
06472:  MOVF   FED,F
06474:  CLRF   FEF
....................             } 
....................             else{ 
06476:  BRA    6482
06478:  MOVLB  0
....................                flagup=0;tiempoup=0; 
0647A:  MOVLB  5
0647C:  BCF    x5F.0
0647E:  CLRF   x68
06480:  MOVLB  7
....................             } 
....................                       
....................             if(DOWN)//Si oprime hacia abajo 
06482:  BSF    F96.0
06484:  BTFSC  F84.0
06486:  BRA    6560
....................             { 
....................                Buzz_on;delay_ms(10);Buzz_off; 
06488:  BSF    F8B.4
0648A:  BCF    F94.4
0648C:  MOVLW  0A
0648E:  MOVWF  xC1
06490:  MOVLB  0
06492:  CALL   184E
06496:  BCF    F8B.4
06498:  BCF    F94.4
....................                if(tiempodn<4){ 
0649A:  MOVLB  5
0649C:  MOVF   x69,W
0649E:  SUBLW  03
064A0:  BNC   64D2
....................                   flagdn=1; 
064A2:  BSF    x5F.1
....................                   Minutos1[l+((Prog-1)*10)]--; 
064A4:  MOVLW  01
064A6:  MOVLB  7
064A8:  SUBWF  xBD,W
064AA:  MULLW  0A
064AC:  MOVF   FF3,W
064AE:  ADDWF  xBC,W
064B0:  MOVWF  00
064B2:  BCF    FD8.0
064B4:  RLCF   00,F
064B6:  MOVF   00,W
064B8:  CLRF   03
064BA:  ADDLW  0D
064BC:  MOVWF  FE9
064BE:  MOVLW  07
064C0:  ADDWFC 03,W
064C2:  MOVWF  FEA
064C4:  MOVLW  FF
064C6:  ADDWF  FEF,F
064C8:  BC    64CE
064CA:  MOVF   FEE,F
064CC:  DECF   FED,F
....................                } 
....................                else{ 
064CE:  BRA    650A
064D0:  MOVLB  5
....................                   flagdn=0; 
064D2:  BCF    x5F.1
....................                   Minutos1[l+((Prog-1)*10)]-=10; 
064D4:  MOVLW  01
064D6:  MOVLB  7
064D8:  SUBWF  xBD,W
064DA:  MULLW  0A
064DC:  MOVF   FF3,W
064DE:  ADDWF  xBC,W
064E0:  MOVWF  00
064E2:  BCF    FD8.0
064E4:  RLCF   00,F
064E6:  MOVF   00,W
064E8:  CLRF   03
064EA:  ADDLW  0D
064EC:  MOVWF  FE9
064EE:  MOVLW  07
064F0:  ADDWFC 03,W
064F2:  MOVWF  FEA
064F4:  MOVLW  0A
064F6:  SUBWF  FEF,W
064F8:  MOVWF  00
064FA:  MOVLW  00
064FC:  SUBWFB FEC,W
064FE:  MOVWF  03
06500:  MOVF   00,W
06502:  MOVF   FED,F
06504:  MOVWF  FEF
06506:  MOVFF  03,FEC
....................                } 
....................                if(Minutos1[l+((Prog-1)*10)]<0) 
0650A:  MOVLW  01
0650C:  SUBWF  xBD,W
0650E:  MULLW  0A
06510:  MOVF   FF3,W
06512:  ADDWF  xBC,W
06514:  MOVWF  00
06516:  BCF    FD8.0
06518:  RLCF   00,F
0651A:  MOVF   00,W
0651C:  CLRF   03
0651E:  ADDLW  0D
06520:  MOVWF  FE9
06522:  MOVLW  07
06524:  ADDWFC 03,W
06526:  MOVWF  FEA
06528:  MOVFF  FEC,7BF
0652C:  MOVF   FED,F
0652E:  MOVFF  FEF,7BE
06532:  BTFSC  xBF.7
06534:  BRA    6538
06536:  BRA    655E
....................                   Minutos1[l+((Prog-1)*10)]=59; 
06538:  MOVLW  01
0653A:  SUBWF  xBD,W
0653C:  MULLW  0A
0653E:  MOVF   FF3,W
06540:  ADDWF  xBC,W
06542:  MOVWF  00
06544:  BCF    FD8.0
06546:  RLCF   00,F
06548:  MOVF   00,W
0654A:  CLRF   03
0654C:  ADDLW  0D
0654E:  MOVWF  FE9
06550:  MOVLW  07
06552:  ADDWFC 03,W
06554:  MOVWF  FEA
06556:  CLRF   FEC
06558:  MOVF   FED,F
0655A:  MOVLW  3B
0655C:  MOVWF  FEF
....................             } 
....................             else{ 
0655E:  BRA    6568
....................                flagdn=0;tiempodn=0; 
06560:  MOVLB  5
06562:  BCF    x5F.1
06564:  CLRF   x69
06566:  MOVLB  7
....................             } 
....................          } 
.................... } 
06568:  MOVLB  0
0656A:  GOTO   13CF6 (RETURN)
....................  
.................... int8 extraeDecimal(float data){ 
*
0826A:  MOVLB  7
0826C:  CLRF   xC2
0826E:  CLRF   xC1
08270:  CLRF   xC0
08272:  CLRF   xBF
08274:  CLRF   xC6
08276:  CLRF   xC5
08278:  CLRF   xC4
0827A:  CLRF   xC3
....................    float entero=0; 
....................    float tmp=0.0; 
....................     
....................    entero=(int8)data; 
0827C:  MOVFF  7BE,7CA
08280:  MOVFF  7BD,7C9
08284:  MOVFF  7BC,7C8
08288:  MOVFF  7BB,7C7
0828C:  MOVLB  0
0828E:  CALL   68FA
08292:  MOVLB  7
08294:  CLRF   xC8
08296:  MOVFF  01,7C7
0829A:  MOVLB  0
0829C:  CALL   2204
082A0:  MOVFF  03,7C2
082A4:  MOVFF  02,7C1
082A8:  MOVFF  01,7C0
082AC:  MOVFF  00,7BF
....................    tmp=(data-entero)*100; 
082B0:  BSF    FD8.1
082B2:  MOVFF  7BE,7CA
082B6:  MOVFF  7BD,7C9
082BA:  MOVFF  7BC,7C8
082BE:  MOVFF  7BB,7C7
082C2:  MOVFF  7C2,7CE
082C6:  MOVFF  7C1,7CD
082CA:  MOVFF  7C0,7CC
082CE:  MOVFF  7BF,7CB
082D2:  CALL   2412
082D6:  MOVFF  00,7C7
082DA:  MOVFF  01,7C8
082DE:  MOVFF  02,7C9
082E2:  MOVFF  03,7CA
082E6:  MOVFF  03,7DB
082EA:  MOVFF  02,7DA
082EE:  MOVFF  01,7D9
082F2:  MOVFF  00,7D8
082F6:  MOVLB  7
082F8:  CLRF   xDF
082FA:  CLRF   xDE
082FC:  MOVLW  48
082FE:  MOVWF  xDD
08300:  MOVLW  85
08302:  MOVWF  xDC
08304:  MOVLB  0
08306:  CALL   37C4
0830A:  MOVFF  03,7C6
0830E:  MOVFF  02,7C5
08312:  MOVFF  01,7C4
08316:  MOVFF  00,7C3
....................    return (int8)tmp; 
0831A:  MOVFF  7C6,7CA
0831E:  MOVFF  7C5,7C9
08322:  MOVFF  7C4,7C8
08326:  MOVFF  7C3,7C7
0832A:  CALL   68FA
0832E:  MOVF   01,W
.................... } 
08330:  RETLW  00
....................  
....................  
.................... void ConfigInicial(){ 
....................    setup_timer_1(T1_INTERNAL|T1_DIV_BY_1); 
*
01876:  MOVLW  85
01878:  MOVWF  FCD
....................    enable_interrupts(INT_TIMER1); 
0187A:  BSF    F9D.0
....................    setup_adc_ports(AN0_TO_AN2); 
0187C:  MOVF   FC1,W
0187E:  ANDLW  C0
01880:  IORLW  0C
01882:  MOVWF  FC1
....................    setup_adc(ADC_CLOCK_DIV_64); 
01884:  MOVF   FC0,W
01886:  ANDLW  C0
01888:  IORLW  06
0188A:  MOVWF  FC0
0188C:  BSF    FC0.7
0188E:  BSF    FC2.0
....................    enable_interrupts(global); 
01890:  MOVLW  C0
01892:  IORWF  FF2,F
.................... } 
01894:  GOTO   10578 (RETURN)
....................  
.................... void LeeEEPROM(){  
....................    for(j=1;j<6;j++){ 
*
0268A:  MOVLW  01
0268C:  MOVLB  5
0268E:  MOVWF  x75
02690:  MOVF   x75,W
02692:  SUBLW  05
02694:  BTFSS  FD8.0
02696:  BRA    2A7C
....................       for(i=0;i<10;i++){ 
02698:  CLRF   x74
0269A:  MOVF   x74,W
0269C:  SUBLW  09
0269E:  BTFSS  FD8.0
026A0:  BRA    2A78
....................          delay_ms(10);  
026A2:  MOVLW  0A
026A4:  MOVLB  7
026A6:  MOVWF  xC1
026A8:  MOVLB  0
026AA:  CALL   184E
....................          Temperatura1[i+((j-1)*10)]=make16(read_eeprom((i*2)+1+((j-1)*40)),read_eeprom((i*2)+((j-1)*40))); 
026AE:  MOVLW  01
026B0:  MOVLB  5
026B2:  SUBWF  x75,W
026B4:  MULLW  0A
026B6:  MOVF   FF3,W
026B8:  ADDWF  x74,W
026BA:  MOVWF  00
026BC:  BCF    FD8.0
026BE:  RLCF   00,F
026C0:  MOVF   00,W
026C2:  CLRF   03
026C4:  ADDLW  45
026C6:  MOVWF  FE9
026C8:  MOVLW  06
026CA:  ADDWFC 03,W
026CC:  MOVWF  FEA
026CE:  BCF    FD8.0
026D0:  RLCF   x74,W
026D2:  ADDLW  01
026D4:  MOVLB  7
026D6:  MOVWF  xBD
026D8:  MOVLW  01
026DA:  MOVLB  5
026DC:  SUBWF  x75,W
026DE:  MULLW  28
026E0:  MOVF   FF3,W
026E2:  MOVLB  7
026E4:  ADDWF  xBD,F
026E6:  MOVFF  FF2,7BE
026EA:  BCF    FF2.7
026EC:  CLRF   FAA
026EE:  MOVFF  7BD,FA9
026F2:  BCF    FA6.6
026F4:  BCF    FA6.7
026F6:  BSF    FA6.0
026F8:  MOVF   FA8,W
026FA:  BTFSC  xBE.7
026FC:  BSF    FF2.7
026FE:  MOVWF  xBD
02700:  BCF    FD8.0
02702:  MOVLB  5
02704:  RLCF   x74,W
02706:  MOVLB  7
02708:  MOVWF  xBF
0270A:  MOVLW  01
0270C:  MOVLB  5
0270E:  SUBWF  x75,W
02710:  MULLW  28
02712:  MOVF   FF3,W
02714:  MOVLB  7
02716:  ADDWF  xBF,F
02718:  MOVFF  FF2,7C0
0271C:  BCF    FF2.7
0271E:  CLRF   FAA
02720:  MOVFF  7BF,FA9
02724:  BCF    FA6.6
02726:  BCF    FA6.7
02728:  BSF    FA6.0
0272A:  MOVF   FA8,W
0272C:  BTFSC  xC0.7
0272E:  BSF    FF2.7
02730:  MOVWF  xBF
02732:  MOVFF  7BD,FEC
02736:  MOVF   FED,F
02738:  MOVFF  7BF,FEF
....................          if(Temperatura1[i+((j-1)*10)]>1200 || Temperatura1[i+((j-1)*10)]<0){ 
0273C:  MOVLW  01
0273E:  MOVLB  5
02740:  SUBWF  x75,W
02742:  MULLW  0A
02744:  MOVF   FF3,W
02746:  ADDWF  x74,W
02748:  MOVWF  00
0274A:  BCF    FD8.0
0274C:  RLCF   00,F
0274E:  MOVF   00,W
02750:  CLRF   03
02752:  ADDLW  45
02754:  MOVWF  FE9
02756:  MOVLW  06
02758:  ADDWFC 03,W
0275A:  MOVWF  FEA
0275C:  MOVFF  FEC,7BC
02760:  MOVF   FED,F
02762:  MOVFF  FEF,7BB
02766:  MOVLB  7
02768:  BTFSC  xBC.7
0276A:  BRA    277C
0276C:  MOVF   xBC,W
0276E:  SUBLW  03
02770:  BC    277C
02772:  XORLW  FF
02774:  BNZ   27AE
02776:  MOVF   xBB,W
02778:  SUBLW  B0
0277A:  BNC   27AE
0277C:  MOVLW  01
0277E:  MOVLB  5
02780:  SUBWF  x75,W
02782:  MULLW  0A
02784:  MOVF   FF3,W
02786:  ADDWF  x74,W
02788:  MOVWF  00
0278A:  BCF    FD8.0
0278C:  RLCF   00,F
0278E:  MOVF   00,W
02790:  CLRF   03
02792:  ADDLW  45
02794:  MOVWF  FE9
02796:  MOVLW  06
02798:  ADDWFC 03,W
0279A:  MOVWF  FEA
0279C:  MOVFF  FEC,7BC
027A0:  MOVF   FED,F
027A2:  MOVFF  FEF,7BB
027A6:  MOVLB  7
027A8:  BTFSC  xBC.7
027AA:  BRA    27AE
027AC:  BRA    2872
....................             Temperatura1[i+((j-1)*10)]=0; 
027AE:  MOVLW  01
027B0:  MOVLB  5
027B2:  SUBWF  x75,W
027B4:  MULLW  0A
027B6:  MOVF   FF3,W
027B8:  ADDWF  x74,W
027BA:  MOVWF  00
027BC:  BCF    FD8.0
027BE:  RLCF   00,F
027C0:  MOVF   00,W
027C2:  CLRF   03
027C4:  ADDLW  45
027C6:  MOVWF  FE9
027C8:  MOVLW  06
027CA:  ADDWFC 03,W
027CC:  MOVWF  FEA
027CE:  CLRF   FEC
027D0:  MOVF   FED,F
027D2:  CLRF   FEF
....................             write_eeprom((i*2)+1+((j-1)*40),0); 
027D4:  BCF    FD8.0
027D6:  RLCF   x74,W
027D8:  ADDLW  01
027DA:  MOVLB  7
027DC:  MOVWF  xBB
027DE:  MOVLW  01
027E0:  MOVLB  5
027E2:  SUBWF  x75,W
027E4:  MULLW  28
027E6:  MOVF   FF3,W
027E8:  MOVLB  7
027EA:  ADDWF  xBB,F
027EC:  CLRF   FAA
027EE:  MOVFF  7BB,FA9
027F2:  CLRF   FA8
027F4:  BCF    FA6.6
027F6:  BCF    FA6.7
027F8:  BSF    FA6.2
027FA:  MOVF   FF2,W
027FC:  MOVWF  00
027FE:  BCF    FF2.7
02800:  MOVLB  F
02802:  MOVLW  55
02804:  MOVWF  FA7
02806:  MOVLW  AA
02808:  MOVWF  FA7
0280A:  BSF    FA6.1
0280C:  BTFSC  FA6.1
0280E:  BRA    280C
02810:  BCF    FA6.2
02812:  MOVF   00,W
02814:  IORWF  FF2,F
....................             delay_ms(20); 
02816:  MOVLW  14
02818:  MOVLB  7
0281A:  MOVWF  xC1
0281C:  MOVLB  0
0281E:  CALL   184E
....................             write_eeprom((i*2)+((j-1)*40),0); 
02822:  BCF    FD8.0
02824:  MOVLB  5
02826:  RLCF   x74,W
02828:  MOVLB  7
0282A:  MOVWF  xBB
0282C:  MOVLW  01
0282E:  MOVLB  5
02830:  SUBWF  x75,W
02832:  MULLW  28
02834:  MOVF   FF3,W
02836:  MOVLB  7
02838:  ADDWF  xBB,F
0283A:  CLRF   FAA
0283C:  MOVFF  7BB,FA9
02840:  CLRF   FA8
02842:  BCF    FA6.6
02844:  BCF    FA6.7
02846:  BSF    FA6.2
02848:  MOVF   FF2,W
0284A:  MOVWF  00
0284C:  BCF    FF2.7
0284E:  MOVLB  F
02850:  MOVLW  55
02852:  MOVWF  FA7
02854:  MOVLW  AA
02856:  MOVWF  FA7
02858:  BSF    FA6.1
0285A:  BTFSC  FA6.1
0285C:  BRA    285A
0285E:  BCF    FA6.2
02860:  MOVF   00,W
02862:  IORWF  FF2,F
....................             delay_ms(20); 
02864:  MOVLW  14
02866:  MOVLB  7
02868:  MOVWF  xC1
0286A:  MOVLB  0
0286C:  CALL   184E
02870:  MOVLB  7
....................          } 
....................          delay_ms(10); 
02872:  MOVLW  0A
02874:  MOVWF  xC1
02876:  MOVLB  0
02878:  CALL   184E
....................          Horas1[i+((j-1)*10)]=read_eeprom(i+((40*j)-20));      
0287C:  MOVLW  01
0287E:  MOVLB  5
02880:  SUBWF  x75,W
02882:  MULLW  0A
02884:  MOVF   FF3,W
02886:  ADDWF  x74,W
02888:  MOVWF  00
0288A:  BCF    FD8.0
0288C:  RLCF   00,F
0288E:  MOVF   00,W
02890:  CLRF   03
02892:  ADDLW  A9
02894:  MOVWF  FE9
02896:  MOVLW  06
02898:  ADDWFC 03,W
0289A:  MOVWF  FEA
0289C:  MOVF   x75,W
0289E:  MULLW  28
028A0:  MOVF   FF3,W
028A2:  ADDLW  EC
028A4:  ADDWF  x74,W
028A6:  MOVLB  7
028A8:  MOVWF  xBD
028AA:  MOVFF  FF2,7BE
028AE:  BCF    FF2.7
028B0:  CLRF   FAA
028B2:  MOVFF  7BD,FA9
028B6:  BCF    FA6.6
028B8:  BCF    FA6.7
028BA:  BSF    FA6.0
028BC:  MOVF   FA8,W
028BE:  BTFSC  xBE.7
028C0:  BSF    FF2.7
028C2:  CLRF   03
028C4:  MOVWF  FEF
028C6:  MOVFF  03,FEC
028CA:  MOVF   FED,F
....................          if(Horas1[i+((j-1)*10)]>99){ 
028CC:  MOVLW  01
028CE:  MOVLB  5
028D0:  SUBWF  x75,W
028D2:  MULLW  0A
028D4:  MOVF   FF3,W
028D6:  ADDWF  x74,W
028D8:  MOVWF  00
028DA:  BCF    FD8.0
028DC:  RLCF   00,F
028DE:  MOVF   00,W
028E0:  CLRF   03
028E2:  ADDLW  A9
028E4:  MOVWF  FE9
028E6:  MOVLW  06
028E8:  ADDWFC 03,W
028EA:  MOVWF  FEA
028EC:  MOVFF  FEC,7BC
028F0:  MOVF   FED,F
028F2:  MOVFF  FEF,7BB
028F6:  MOVLB  7
028F8:  BTFSC  xBC.7
028FA:  BRA    2972
028FC:  MOVF   xBC,F
028FE:  BNZ   2906
02900:  MOVF   xBB,W
02902:  SUBLW  63
02904:  BC    2972
....................             Horas1[i+((j-1)*10)]=0; 
02906:  MOVLW  01
02908:  MOVLB  5
0290A:  SUBWF  x75,W
0290C:  MULLW  0A
0290E:  MOVF   FF3,W
02910:  ADDWF  x74,W
02912:  MOVWF  00
02914:  BCF    FD8.0
02916:  RLCF   00,F
02918:  MOVF   00,W
0291A:  CLRF   03
0291C:  ADDLW  A9
0291E:  MOVWF  FE9
02920:  MOVLW  06
02922:  ADDWFC 03,W
02924:  MOVWF  FEA
02926:  CLRF   FEC
02928:  MOVF   FED,F
0292A:  CLRF   FEF
....................             write_eeprom(i+((40*j)-20),0); 
0292C:  MOVF   x75,W
0292E:  MULLW  28
02930:  MOVF   FF3,W
02932:  ADDLW  EC
02934:  ADDWF  x74,W
02936:  MOVLB  7
02938:  MOVWF  xBB
0293A:  CLRF   FAA
0293C:  MOVFF  7BB,FA9
02940:  CLRF   FA8
02942:  BCF    FA6.6
02944:  BCF    FA6.7
02946:  BSF    FA6.2
02948:  MOVF   FF2,W
0294A:  MOVWF  00
0294C:  BCF    FF2.7
0294E:  MOVLB  F
02950:  MOVLW  55
02952:  MOVWF  FA7
02954:  MOVLW  AA
02956:  MOVWF  FA7
02958:  BSF    FA6.1
0295A:  BTFSC  FA6.1
0295C:  BRA    295A
0295E:  BCF    FA6.2
02960:  MOVF   00,W
02962:  IORWF  FF2,F
....................             delay_ms(20); 
02964:  MOVLW  14
02966:  MOVLB  7
02968:  MOVWF  xC1
0296A:  MOVLB  0
0296C:  CALL   184E
02970:  MOVLB  7
....................          } 
....................          delay_ms(10);     
02972:  MOVLW  0A
02974:  MOVWF  xC1
02976:  MOVLB  0
02978:  CALL   184E
....................          Minutos1[i+((j-1)*10)]=read_eeprom(i+((40*j)-10)); 
0297C:  MOVLW  01
0297E:  MOVLB  5
02980:  SUBWF  x75,W
02982:  MULLW  0A
02984:  MOVF   FF3,W
02986:  ADDWF  x74,W
02988:  MOVWF  00
0298A:  BCF    FD8.0
0298C:  RLCF   00,F
0298E:  MOVF   00,W
02990:  CLRF   03
02992:  ADDLW  0D
02994:  MOVWF  FE9
02996:  MOVLW  07
02998:  ADDWFC 03,W
0299A:  MOVWF  FEA
0299C:  MOVF   x75,W
0299E:  MULLW  28
029A0:  MOVF   FF3,W
029A2:  ADDLW  F6
029A4:  ADDWF  x74,W
029A6:  MOVLB  7
029A8:  MOVWF  xBD
029AA:  MOVFF  FF2,7BE
029AE:  BCF    FF2.7
029B0:  CLRF   FAA
029B2:  MOVFF  7BD,FA9
029B6:  BCF    FA6.6
029B8:  BCF    FA6.7
029BA:  BSF    FA6.0
029BC:  MOVF   FA8,W
029BE:  BTFSC  xBE.7
029C0:  BSF    FF2.7
029C2:  CLRF   03
029C4:  MOVWF  FEF
029C6:  MOVFF  03,FEC
029CA:  MOVF   FED,F
....................          if(Minutos1[i+((j-1)*10)]>59){ 
029CC:  MOVLW  01
029CE:  MOVLB  5
029D0:  SUBWF  x75,W
029D2:  MULLW  0A
029D4:  MOVF   FF3,W
029D6:  ADDWF  x74,W
029D8:  MOVWF  00
029DA:  BCF    FD8.0
029DC:  RLCF   00,F
029DE:  MOVF   00,W
029E0:  CLRF   03
029E2:  ADDLW  0D
029E4:  MOVWF  FE9
029E6:  MOVLW  07
029E8:  ADDWFC 03,W
029EA:  MOVWF  FEA
029EC:  MOVFF  FEC,7BC
029F0:  MOVF   FED,F
029F2:  MOVFF  FEF,7BB
029F6:  MOVLB  7
029F8:  BTFSC  xBC.7
029FA:  BRA    2A72
029FC:  MOVF   xBC,F
029FE:  BNZ   2A06
02A00:  MOVF   xBB,W
02A02:  SUBLW  3B
02A04:  BC    2A72
....................             Minutos1[i+((j-1)*10)]=0; 
02A06:  MOVLW  01
02A08:  MOVLB  5
02A0A:  SUBWF  x75,W
02A0C:  MULLW  0A
02A0E:  MOVF   FF3,W
02A10:  ADDWF  x74,W
02A12:  MOVWF  00
02A14:  BCF    FD8.0
02A16:  RLCF   00,F
02A18:  MOVF   00,W
02A1A:  CLRF   03
02A1C:  ADDLW  0D
02A1E:  MOVWF  FE9
02A20:  MOVLW  07
02A22:  ADDWFC 03,W
02A24:  MOVWF  FEA
02A26:  CLRF   FEC
02A28:  MOVF   FED,F
02A2A:  CLRF   FEF
....................             write_eeprom(i+((40*j)-10),0); 
02A2C:  MOVF   x75,W
02A2E:  MULLW  28
02A30:  MOVF   FF3,W
02A32:  ADDLW  F6
02A34:  ADDWF  x74,W
02A36:  MOVLB  7
02A38:  MOVWF  xBB
02A3A:  CLRF   FAA
02A3C:  MOVFF  7BB,FA9
02A40:  CLRF   FA8
02A42:  BCF    FA6.6
02A44:  BCF    FA6.7
02A46:  BSF    FA6.2
02A48:  MOVF   FF2,W
02A4A:  MOVWF  00
02A4C:  BCF    FF2.7
02A4E:  MOVLB  F
02A50:  MOVLW  55
02A52:  MOVWF  FA7
02A54:  MOVLW  AA
02A56:  MOVWF  FA7
02A58:  BSF    FA6.1
02A5A:  BTFSC  FA6.1
02A5C:  BRA    2A5A
02A5E:  BCF    FA6.2
02A60:  MOVF   00,W
02A62:  IORWF  FF2,F
....................             delay_ms(20); 
02A64:  MOVLW  14
02A66:  MOVLB  7
02A68:  MOVWF  xC1
02A6A:  MOVLB  0
02A6C:  CALL   184E
02A70:  MOVLB  7
....................          } 
....................           
....................       } 
02A72:  MOVLB  5
02A74:  INCF   x74,F
02A76:  BRA    269A
....................    } 
02A78:  INCF   x75,F
02A7A:  BRA    2690
....................     
....................    delay_ms(50);    
02A7C:  MOVLW  32
02A7E:  MOVLB  7
02A80:  MOVWF  xC1
02A82:  MOVLB  0
02A84:  CALL   184E
....................    Ganancia=read_eeprom(250); 
02A88:  MOVFF  FF2,7BB
02A8C:  BCF    FF2.7
02A8E:  CLRF   FAA
02A90:  MOVLW  FA
02A92:  MOVWF  FA9
02A94:  BCF    FA6.6
02A96:  BCF    FA6.7
02A98:  BSF    FA6.0
02A9A:  MOVF   FA8,W
02A9C:  MOVLB  7
02A9E:  BTFSC  xBB.7
02AA0:  BSF    FF2.7
02AA2:  CLRF   xC8
02AA4:  MOVWF  xC7
02AA6:  MOVLB  0
02AA8:  CALL   2204
02AAC:  MOVFF  03,5F4
02AB0:  MOVFF  02,5F3
02AB4:  MOVFF  01,5F2
02AB8:  MOVFF  00,5F1
....................    delay_ms(50);    
02ABC:  MOVLW  32
02ABE:  MOVLB  7
02AC0:  MOVWF  xC1
02AC2:  MOVLB  0
02AC4:  CALL   184E
....................    if(Ganancia>10){ 
02AC8:  MOVLB  7
02ACA:  CLRF   xBE
02ACC:  CLRF   xBD
02ACE:  MOVLW  20
02AD0:  MOVWF  xBC
02AD2:  MOVLW  82
02AD4:  MOVWF  xBB
02AD6:  MOVFF  5F4,7C2
02ADA:  MOVFF  5F3,7C1
02ADE:  MOVFF  5F2,7C0
02AE2:  MOVFF  5F1,7BF
02AE6:  MOVLB  0
02AE8:  CALL   223A
02AEC:  BNC   2B34
....................       Ganancia=3; 
02AEE:  MOVLB  5
02AF0:  CLRF   xF4
02AF2:  CLRF   xF3
02AF4:  MOVLW  40
02AF6:  MOVWF  xF2
02AF8:  MOVLW  80
02AFA:  MOVWF  xF1
....................       write_eeprom(250,3); 
02AFC:  CLRF   FAA
02AFE:  MOVLW  FA
02B00:  MOVWF  FA9
02B02:  MOVLW  03
02B04:  MOVWF  FA8
02B06:  BCF    FA6.6
02B08:  BCF    FA6.7
02B0A:  BSF    FA6.2
02B0C:  MOVF   FF2,W
02B0E:  MOVWF  00
02B10:  BCF    FF2.7
02B12:  MOVLB  F
02B14:  MOVLW  55
02B16:  MOVWF  FA7
02B18:  MOVLW  AA
02B1A:  MOVWF  FA7
02B1C:  BSF    FA6.1
02B1E:  BTFSC  FA6.1
02B20:  BRA    2B1E
02B22:  BCF    FA6.2
02B24:  MOVF   00,W
02B26:  IORWF  FF2,F
....................       delay_ms(20); 
02B28:  MOVLW  14
02B2A:  MOVLB  7
02B2C:  MOVWF  xC1
02B2E:  MOVLB  0
02B30:  CALL   184E
....................    } 
....................    GananciaIn=Ganancia; 
02B34:  MOVFF  5F4,5F0
02B38:  MOVFF  5F3,5EF
02B3C:  MOVFF  5F2,5EE
02B40:  MOVFF  5F1,5ED
....................    Tciclo=read_eeprom(251); 
02B44:  MOVFF  FF2,7BB
02B48:  BCF    FF2.7
02B4A:  CLRF   FAA
02B4C:  MOVLW  FB
02B4E:  MOVWF  FA9
02B50:  BCF    FA6.6
02B52:  BCF    FA6.7
02B54:  BSF    FA6.0
02B56:  MOVF   FA8,W
02B58:  MOVLB  7
02B5A:  BTFSC  xBB.7
02B5C:  BSF    FF2.7
02B5E:  CLRF   xC8
02B60:  MOVWF  xC7
02B62:  MOVLB  0
02B64:  CALL   2204
02B68:  MOVFF  03,5D8
02B6C:  MOVFF  02,5D7
02B70:  MOVFF  01,5D6
02B74:  MOVFF  00,5D5
....................    delay_ms(50);    
02B78:  MOVLW  32
02B7A:  MOVLB  7
02B7C:  MOVWF  xC1
02B7E:  MOVLB  0
02B80:  CALL   184E
....................    if(Tciclo>10){ 
02B84:  MOVLB  7
02B86:  CLRF   xBE
02B88:  CLRF   xBD
02B8A:  MOVLW  20
02B8C:  MOVWF  xBC
02B8E:  MOVLW  82
02B90:  MOVWF  xBB
02B92:  MOVFF  5D8,7C2
02B96:  MOVFF  5D7,7C1
02B9A:  MOVFF  5D6,7C0
02B9E:  MOVFF  5D5,7BF
02BA2:  MOVLB  0
02BA4:  CALL   223A
02BA8:  BNC   2BF0
....................       Tciclo=10; 
02BAA:  MOVLB  5
02BAC:  CLRF   xD8
02BAE:  CLRF   xD7
02BB0:  MOVLW  20
02BB2:  MOVWF  xD6
02BB4:  MOVLW  82
02BB6:  MOVWF  xD5
....................       write_eeprom(251,10); 
02BB8:  CLRF   FAA
02BBA:  MOVLW  FB
02BBC:  MOVWF  FA9
02BBE:  MOVLW  0A
02BC0:  MOVWF  FA8
02BC2:  BCF    FA6.6
02BC4:  BCF    FA6.7
02BC6:  BSF    FA6.2
02BC8:  MOVF   FF2,W
02BCA:  MOVWF  00
02BCC:  BCF    FF2.7
02BCE:  MOVLB  F
02BD0:  MOVLW  55
02BD2:  MOVWF  FA7
02BD4:  MOVLW  AA
02BD6:  MOVWF  FA7
02BD8:  BSF    FA6.1
02BDA:  BTFSC  FA6.1
02BDC:  BRA    2BDA
02BDE:  BCF    FA6.2
02BE0:  MOVF   00,W
02BE2:  IORWF  FF2,F
....................       delay_ms(20); 
02BE4:  MOVLW  14
02BE6:  MOVLB  7
02BE8:  MOVWF  xC1
02BEA:  MOVLB  0
02BEC:  CALL   184E
....................    } 
....................    Ajuste=read_eeprom(252); 
02BF0:  MOVFF  FF2,7BB
02BF4:  BCF    FF2.7
02BF6:  CLRF   FAA
02BF8:  MOVLW  FC
02BFA:  MOVWF  FA9
02BFC:  BCF    FA6.6
02BFE:  BCF    FA6.7
02C00:  BSF    FA6.0
02C02:  MOVF   FA8,W
02C04:  MOVLB  7
02C06:  BTFSC  xBB.7
02C08:  BSF    FF2.7
02C0A:  MOVLB  5
02C0C:  MOVWF  x62
....................    delay_ms(50); 
02C0E:  MOVLW  32
02C10:  MOVLB  7
02C12:  MOVWF  xC1
02C14:  MOVLB  0
02C16:  CALL   184E
....................    if(Ajuste>10){ 
02C1A:  MOVLB  5
02C1C:  MOVF   x62,W
02C1E:  SUBLW  0A
02C20:  BC    2C5C
....................       Ajuste=0; 
02C22:  CLRF   x62
....................       write_eeprom(252,0); 
02C24:  CLRF   FAA
02C26:  MOVLW  FC
02C28:  MOVWF  FA9
02C2A:  CLRF   FA8
02C2C:  BCF    FA6.6
02C2E:  BCF    FA6.7
02C30:  BSF    FA6.2
02C32:  MOVF   FF2,W
02C34:  MOVWF  00
02C36:  BCF    FF2.7
02C38:  MOVLB  F
02C3A:  MOVLW  55
02C3C:  MOVWF  FA7
02C3E:  MOVLW  AA
02C40:  MOVWF  FA7
02C42:  BSF    FA6.1
02C44:  BTFSC  FA6.1
02C46:  BRA    2C44
02C48:  BCF    FA6.2
02C4A:  MOVF   00,W
02C4C:  IORWF  FF2,F
....................       delay_ms(20); 
02C4E:  MOVLW  14
02C50:  MOVLB  7
02C52:  MOVWF  xC1
02C54:  MOVLB  0
02C56:  CALL   184E
02C5A:  MOVLB  5
....................    } 
....................    Ajusten=read_eeprom(253); 
02C5C:  MOVFF  FF2,7BB
02C60:  BCF    FF2.7
02C62:  CLRF   FAA
02C64:  MOVLW  FD
02C66:  MOVWF  FA9
02C68:  BCF    FA6.6
02C6A:  BCF    FA6.7
02C6C:  BSF    FA6.0
02C6E:  MOVF   FA8,W
02C70:  MOVLB  7
02C72:  BTFSC  xBB.7
02C74:  BSF    FF2.7
02C76:  MOVLB  5
02C78:  MOVWF  x63
....................    delay_ms(50); 
02C7A:  MOVLW  32
02C7C:  MOVLB  7
02C7E:  MOVWF  xC1
02C80:  MOVLB  0
02C82:  CALL   184E
....................    if(Ajusten>10){ 
02C86:  MOVLB  5
02C88:  MOVF   x63,W
02C8A:  SUBLW  0A
02C8C:  BC    2CC8
....................       Ajusten=0; 
02C8E:  CLRF   x63
....................       write_eeprom(253,0); 
02C90:  CLRF   FAA
02C92:  MOVLW  FD
02C94:  MOVWF  FA9
02C96:  CLRF   FA8
02C98:  BCF    FA6.6
02C9A:  BCF    FA6.7
02C9C:  BSF    FA6.2
02C9E:  MOVF   FF2,W
02CA0:  MOVWF  00
02CA2:  BCF    FF2.7
02CA4:  MOVLB  F
02CA6:  MOVLW  55
02CA8:  MOVWF  FA7
02CAA:  MOVLW  AA
02CAC:  MOVWF  FA7
02CAE:  BSF    FA6.1
02CB0:  BTFSC  FA6.1
02CB2:  BRA    2CB0
02CB4:  BCF    FA6.2
02CB6:  MOVF   00,W
02CB8:  IORWF  FF2,F
....................       delay_ms(20); 
02CBA:  MOVLW  14
02CBC:  MOVLB  7
02CBE:  MOVWF  xC1
02CC0:  MOVLB  0
02CC2:  CALL   184E
02CC6:  MOVLB  5
....................    } 
....................    MediaMovil=read_eeprom(254); 
02CC8:  MOVFF  FF2,7BB
02CCC:  BCF    FF2.7
02CCE:  CLRF   FAA
02CD0:  MOVLW  FE
02CD2:  MOVWF  FA9
02CD4:  BCF    FA6.6
02CD6:  BCF    FA6.7
02CD8:  BSF    FA6.0
02CDA:  MOVF   FA8,W
02CDC:  MOVLB  7
02CDE:  BTFSC  xBB.7
02CE0:  BSF    FF2.7
02CE2:  MOVLB  5
02CE4:  MOVWF  x64
....................    delay_ms(50);    
02CE6:  MOVLW  32
02CE8:  MOVLB  7
02CEA:  MOVWF  xC1
02CEC:  MOVLB  0
02CEE:  CALL   184E
....................    if(MediaMovil>40){ 
02CF2:  MOVLB  5
02CF4:  MOVF   x64,W
02CF6:  SUBLW  28
02CF8:  BC    2D38
....................       MediaMovil=20; 
02CFA:  MOVLW  14
02CFC:  MOVWF  x64
....................       write_eeprom(254,20); 
02CFE:  CLRF   FAA
02D00:  MOVLW  FE
02D02:  MOVWF  FA9
02D04:  MOVLW  14
02D06:  MOVWF  FA8
02D08:  BCF    FA6.6
02D0A:  BCF    FA6.7
02D0C:  BSF    FA6.2
02D0E:  MOVF   FF2,W
02D10:  MOVWF  00
02D12:  BCF    FF2.7
02D14:  MOVLB  F
02D16:  MOVLW  55
02D18:  MOVWF  FA7
02D1A:  MOVLW  AA
02D1C:  MOVWF  FA7
02D1E:  BSF    FA6.1
02D20:  BTFSC  FA6.1
02D22:  BRA    2D20
02D24:  BCF    FA6.2
02D26:  MOVF   00,W
02D28:  IORWF  FF2,F
....................       delay_ms(20); 
02D2A:  MOVLW  14
02D2C:  MOVLB  7
02D2E:  MOVWF  xC1
02D30:  MOVLB  0
02D32:  CALL   184E
02D36:  MOVLB  5
....................    } 
....................    Coeficiente=read_eeprom(255); 
02D38:  MOVFF  FF2,7BB
02D3C:  BCF    FF2.7
02D3E:  CLRF   FAA
02D40:  MOVLW  FF
02D42:  MOVWF  FA9
02D44:  BCF    FA6.6
02D46:  BCF    FA6.7
02D48:  BSF    FA6.0
02D4A:  MOVF   FA8,W
02D4C:  MOVLB  7
02D4E:  BTFSC  xBB.7
02D50:  BSF    FF2.7
02D52:  CLRF   xC8
02D54:  MOVWF  xC7
02D56:  MOVLB  0
02D58:  CALL   2204
02D5C:  MOVFF  03,5FC
02D60:  MOVFF  02,5FB
02D64:  MOVFF  01,5FA
02D68:  MOVFF  00,5F9
....................    delay_ms(50);    
02D6C:  MOVLW  32
02D6E:  MOVLB  7
02D70:  MOVWF  xC1
02D72:  MOVLB  0
02D74:  CALL   184E
....................    AlTem=read_eeprom(256); 
02D78:  MOVFF  FF2,7BB
02D7C:  BCF    FF2.7
02D7E:  MOVLW  01
02D80:  MOVWF  FAA
02D82:  CLRF   FA9
02D84:  BCF    FA6.6
02D86:  BCF    FA6.7
02D88:  BSF    FA6.0
02D8A:  MOVF   FA8,W
02D8C:  MOVLB  7
02D8E:  BTFSC  xBB.7
02D90:  BSF    FF2.7
02D92:  CLRF   xC8
02D94:  MOVWF  xC7
02D96:  MOVLB  0
02D98:  CALL   2204
02D9C:  MOVFF  03,600
02DA0:  MOVFF  02,5FF
02DA4:  MOVFF  01,5FE
02DA8:  MOVFF  00,5FD
....................    delay_ms(50);  
02DAC:  MOVLW  32
02DAE:  MOVLB  7
02DB0:  MOVWF  xC1
02DB2:  MOVLB  0
02DB4:  CALL   184E
....................    resistencia=read_eeprom(257); 
02DB8:  MOVFF  FF2,7BB
02DBC:  BCF    FF2.7
02DBE:  MOVLW  01
02DC0:  MOVWF  FAA
02DC2:  MOVLW  01
02DC4:  MOVWF  FA9
02DC6:  BCF    FA6.6
02DC8:  BCF    FA6.7
02DCA:  BSF    FA6.0
02DCC:  MOVF   FA8,W
02DCE:  MOVLB  7
02DD0:  BTFSC  xBB.7
02DD2:  BSF    FF2.7
02DD4:  CLRF   xC8
02DD6:  MOVWF  xC7
02DD8:  MOVLB  0
02DDA:  CALL   2204
02DDE:  MOVFF  03,604
02DE2:  MOVFF  02,603
02DE6:  MOVFF  01,602
02DEA:  MOVFF  00,601
....................    delay_ms(50);  
02DEE:  MOVLW  32
02DF0:  MOVLB  7
02DF2:  MOVWF  xC1
02DF4:  MOVLB  0
02DF6:  CALL   184E
....................    if(resistencia>250){ 
02DFA:  MOVLB  7
02DFC:  CLRF   xBE
02DFE:  CLRF   xBD
02E00:  MOVLW  7A
02E02:  MOVWF  xBC
02E04:  MOVLW  86
02E06:  MOVWF  xBB
02E08:  MOVFF  604,7C2
02E0C:  MOVFF  603,7C1
02E10:  MOVFF  602,7C0
02E14:  MOVFF  601,7BF
02E18:  MOVLB  0
02E1A:  CALL   223A
02E1E:  BNC   2E66
....................       resistencia=240; 
02E20:  MOVLB  6
02E22:  CLRF   x04
02E24:  CLRF   x03
02E26:  MOVLW  70
02E28:  MOVWF  x02
02E2A:  MOVLW  86
02E2C:  MOVWF  x01
....................       write_eeprom(257,240); 
02E2E:  MOVLW  01
02E30:  MOVWF  FAA
02E32:  MOVWF  FA9
02E34:  MOVLW  F0
02E36:  MOVWF  FA8
02E38:  BCF    FA6.6
02E3A:  BCF    FA6.7
02E3C:  BSF    FA6.2
02E3E:  MOVF   FF2,W
02E40:  MOVWF  00
02E42:  BCF    FF2.7
02E44:  MOVLB  F
02E46:  MOVLW  55
02E48:  MOVWF  FA7
02E4A:  MOVLW  AA
02E4C:  MOVWF  FA7
02E4E:  BSF    FA6.1
02E50:  BTFSC  FA6.1
02E52:  BRA    2E50
02E54:  BCF    FA6.2
02E56:  MOVF   00,W
02E58:  IORWF  FF2,F
....................       delay_ms(20); 
02E5A:  MOVLW  14
02E5C:  MOVLB  7
02E5E:  MOVWF  xC1
02E60:  MOVLB  0
02E62:  CALL   184E
....................    } 
....................    penMufla=read_eeprom(258); 
02E66:  MOVFF  FF2,7BB
02E6A:  BCF    FF2.7
02E6C:  MOVLW  01
02E6E:  MOVWF  FAA
02E70:  MOVLW  02
02E72:  MOVWF  FA9
02E74:  BCF    FA6.6
02E76:  BCF    FA6.7
02E78:  BSF    FA6.0
02E7A:  MOVF   FA8,W
02E7C:  MOVLB  7
02E7E:  BTFSC  xBB.7
02E80:  BSF    FF2.7
02E82:  CLRF   xC8
02E84:  MOVWF  xC7
02E86:  MOVLB  0
02E88:  CALL   2204
02E8C:  MOVFF  03,63C
02E90:  MOVFF  02,63B
02E94:  MOVFF  01,63A
02E98:  MOVFF  00,639
....................    delay_ms(50);  
02E9C:  MOVLW  32
02E9E:  MOVLB  7
02EA0:  MOVWF  xC1
02EA2:  MOVLB  0
02EA4:  CALL   184E
....................    if(penMufla>150){ 
02EA8:  MOVLB  7
02EAA:  CLRF   xBE
02EAC:  CLRF   xBD
02EAE:  MOVLW  16
02EB0:  MOVWF  xBC
02EB2:  MOVLW  86
02EB4:  MOVWF  xBB
02EB6:  MOVFF  63C,7C2
02EBA:  MOVFF  63B,7C1
02EBE:  MOVFF  63A,7C0
02EC2:  MOVFF  639,7BF
02EC6:  MOVLB  0
02EC8:  CALL   223A
02ECC:  BNC   2F16
....................       penMufla=100; 
02ECE:  MOVLB  6
02ED0:  CLRF   x3C
02ED2:  CLRF   x3B
02ED4:  MOVLW  48
02ED6:  MOVWF  x3A
02ED8:  MOVLW  85
02EDA:  MOVWF  x39
....................       write_eeprom(258,100); 
02EDC:  MOVLW  01
02EDE:  MOVWF  FAA
02EE0:  MOVLW  02
02EE2:  MOVWF  FA9
02EE4:  MOVLW  64
02EE6:  MOVWF  FA8
02EE8:  BCF    FA6.6
02EEA:  BCF    FA6.7
02EEC:  BSF    FA6.2
02EEE:  MOVF   FF2,W
02EF0:  MOVWF  00
02EF2:  BCF    FF2.7
02EF4:  MOVLB  F
02EF6:  MOVLW  55
02EF8:  MOVWF  FA7
02EFA:  MOVLW  AA
02EFC:  MOVWF  FA7
02EFE:  BSF    FA6.1
02F00:  BTFSC  FA6.1
02F02:  BRA    2F00
02F04:  BCF    FA6.2
02F06:  MOVF   00,W
02F08:  IORWF  FF2,F
....................       delay_ms(20); 
02F0A:  MOVLW  14
02F0C:  MOVLB  7
02F0E:  MOVWF  xC1
02F10:  MOVLB  0
02F12:  CALL   184E
....................    } 
....................     
....................    Password[0]=read_eeprom(260); 
02F16:  MOVFF  FF2,7BB
02F1A:  BCF    FF2.7
02F1C:  MOVLW  01
02F1E:  MOVWF  FAA
02F20:  MOVLW  04
02F22:  MOVWF  FA9
02F24:  BCF    FA6.6
02F26:  BCF    FA6.7
02F28:  BSF    FA6.0
02F2A:  MOVF   FA8,W
02F2C:  MOVLB  7
02F2E:  BTFSC  xBB.7
02F30:  BSF    FF2.7
02F32:  MOVLB  5
02F34:  MOVWF  xCD
....................    delay_ms(50);    
02F36:  MOVLW  32
02F38:  MOVLB  7
02F3A:  MOVWF  xC1
02F3C:  MOVLB  0
02F3E:  CALL   184E
....................    if(Password[0]>9 || Password[0]<0){ 
02F42:  MOVLB  5
02F44:  BTFSC  xCD.7
02F46:  BRA    2F4E
02F48:  MOVF   xCD,W
02F4A:  SUBLW  09
02F4C:  BNC   2F54
02F4E:  BTFSC  xCD.7
02F50:  BRA    2F54
02F52:  BRA    2F90
....................       Password[0]=0; 
02F54:  CLRF   xCD
....................       write_eeprom(260,0); 
02F56:  MOVLW  01
02F58:  MOVWF  FAA
02F5A:  MOVLW  04
02F5C:  MOVWF  FA9
02F5E:  CLRF   FA8
02F60:  BCF    FA6.6
02F62:  BCF    FA6.7
02F64:  BSF    FA6.2
02F66:  MOVF   FF2,W
02F68:  MOVWF  00
02F6A:  BCF    FF2.7
02F6C:  MOVLB  F
02F6E:  MOVLW  55
02F70:  MOVWF  FA7
02F72:  MOVLW  AA
02F74:  MOVWF  FA7
02F76:  BSF    FA6.1
02F78:  BTFSC  FA6.1
02F7A:  BRA    2F78
02F7C:  BCF    FA6.2
02F7E:  MOVF   00,W
02F80:  IORWF  FF2,F
....................       delay_ms(20); 
02F82:  MOVLW  14
02F84:  MOVLB  7
02F86:  MOVWF  xC1
02F88:  MOVLB  0
02F8A:  CALL   184E
02F8E:  MOVLB  5
....................    } 
....................    Password[1]=read_eeprom(261); 
02F90:  MOVFF  FF2,7BB
02F94:  BCF    FF2.7
02F96:  MOVLW  01
02F98:  MOVWF  FAA
02F9A:  MOVLW  05
02F9C:  MOVWF  FA9
02F9E:  BCF    FA6.6
02FA0:  BCF    FA6.7
02FA2:  BSF    FA6.0
02FA4:  MOVF   FA8,W
02FA6:  MOVLB  7
02FA8:  BTFSC  xBB.7
02FAA:  BSF    FF2.7
02FAC:  MOVLB  5
02FAE:  MOVWF  xCE
....................    delay_ms(50);    
02FB0:  MOVLW  32
02FB2:  MOVLB  7
02FB4:  MOVWF  xC1
02FB6:  MOVLB  0
02FB8:  CALL   184E
....................    if(Password[1]>9 || Password[1]<0){ 
02FBC:  MOVLB  5
02FBE:  BTFSC  xCE.7
02FC0:  BRA    2FC8
02FC2:  MOVF   xCE,W
02FC4:  SUBLW  09
02FC6:  BNC   2FCE
02FC8:  BTFSC  xCE.7
02FCA:  BRA    2FCE
02FCC:  BRA    300A
....................       Password[1]=0; 
02FCE:  CLRF   xCE
....................       write_eeprom(261,0); 
02FD0:  MOVLW  01
02FD2:  MOVWF  FAA
02FD4:  MOVLW  05
02FD6:  MOVWF  FA9
02FD8:  CLRF   FA8
02FDA:  BCF    FA6.6
02FDC:  BCF    FA6.7
02FDE:  BSF    FA6.2
02FE0:  MOVF   FF2,W
02FE2:  MOVWF  00
02FE4:  BCF    FF2.7
02FE6:  MOVLB  F
02FE8:  MOVLW  55
02FEA:  MOVWF  FA7
02FEC:  MOVLW  AA
02FEE:  MOVWF  FA7
02FF0:  BSF    FA6.1
02FF2:  BTFSC  FA6.1
02FF4:  BRA    2FF2
02FF6:  BCF    FA6.2
02FF8:  MOVF   00,W
02FFA:  IORWF  FF2,F
....................       delay_ms(20); 
02FFC:  MOVLW  14
02FFE:  MOVLB  7
03000:  MOVWF  xC1
03002:  MOVLB  0
03004:  CALL   184E
03008:  MOVLB  5
....................    } 
....................    Password[2]=read_eeprom(262); 
0300A:  MOVFF  FF2,7BB
0300E:  BCF    FF2.7
03010:  MOVLW  01
03012:  MOVWF  FAA
03014:  MOVLW  06
03016:  MOVWF  FA9
03018:  BCF    FA6.6
0301A:  BCF    FA6.7
0301C:  BSF    FA6.0
0301E:  MOVF   FA8,W
03020:  MOVLB  7
03022:  BTFSC  xBB.7
03024:  BSF    FF2.7
03026:  MOVLB  5
03028:  MOVWF  xCF
....................    delay_ms(50);    
0302A:  MOVLW  32
0302C:  MOVLB  7
0302E:  MOVWF  xC1
03030:  MOVLB  0
03032:  CALL   184E
....................    if(Password[2]>9 || Password[2]<0){ 
03036:  MOVLB  5
03038:  BTFSC  xCF.7
0303A:  BRA    3042
0303C:  MOVF   xCF,W
0303E:  SUBLW  09
03040:  BNC   3048
03042:  BTFSC  xCF.7
03044:  BRA    3048
03046:  BRA    3084
....................       Password[2]=0; 
03048:  CLRF   xCF
....................       write_eeprom(262,0); 
0304A:  MOVLW  01
0304C:  MOVWF  FAA
0304E:  MOVLW  06
03050:  MOVWF  FA9
03052:  CLRF   FA8
03054:  BCF    FA6.6
03056:  BCF    FA6.7
03058:  BSF    FA6.2
0305A:  MOVF   FF2,W
0305C:  MOVWF  00
0305E:  BCF    FF2.7
03060:  MOVLB  F
03062:  MOVLW  55
03064:  MOVWF  FA7
03066:  MOVLW  AA
03068:  MOVWF  FA7
0306A:  BSF    FA6.1
0306C:  BTFSC  FA6.1
0306E:  BRA    306C
03070:  BCF    FA6.2
03072:  MOVF   00,W
03074:  IORWF  FF2,F
....................       delay_ms(20); 
03076:  MOVLW  14
03078:  MOVLB  7
0307A:  MOVWF  xC1
0307C:  MOVLB  0
0307E:  CALL   184E
03082:  MOVLB  5
....................    } 
....................    Password[3]=read_eeprom(263); 
03084:  MOVFF  FF2,7BB
03088:  BCF    FF2.7
0308A:  MOVLW  01
0308C:  MOVWF  FAA
0308E:  MOVLW  07
03090:  MOVWF  FA9
03092:  BCF    FA6.6
03094:  BCF    FA6.7
03096:  BSF    FA6.0
03098:  MOVF   FA8,W
0309A:  MOVLB  7
0309C:  BTFSC  xBB.7
0309E:  BSF    FF2.7
030A0:  MOVLB  5
030A2:  MOVWF  xD0
....................    delay_ms(50); 
030A4:  MOVLW  32
030A6:  MOVLB  7
030A8:  MOVWF  xC1
030AA:  MOVLB  0
030AC:  CALL   184E
....................    if(Password[3]>9 || Password[3]<0){ 
030B0:  MOVLB  5
030B2:  BTFSC  xD0.7
030B4:  BRA    30BC
030B6:  MOVF   xD0,W
030B8:  SUBLW  09
030BA:  BNC   30C0
030BC:  BTFSS  xD0.7
030BE:  BRA    30FC
....................       Password[3]=0; 
030C0:  CLRF   xD0
....................       write_eeprom(263,0); 
030C2:  MOVLW  01
030C4:  MOVWF  FAA
030C6:  MOVLW  07
030C8:  MOVWF  FA9
030CA:  CLRF   FA8
030CC:  BCF    FA6.6
030CE:  BCF    FA6.7
030D0:  BSF    FA6.2
030D2:  MOVF   FF2,W
030D4:  MOVWF  00
030D6:  BCF    FF2.7
030D8:  MOVLB  F
030DA:  MOVLW  55
030DC:  MOVWF  FA7
030DE:  MOVLW  AA
030E0:  MOVWF  FA7
030E2:  BSF    FA6.1
030E4:  BTFSC  FA6.1
030E6:  BRA    30E4
030E8:  BCF    FA6.2
030EA:  MOVF   00,W
030EC:  IORWF  FF2,F
....................       delay_ms(20); 
030EE:  MOVLW  14
030F0:  MOVLB  7
030F2:  MOVWF  xC1
030F4:  MOVLB  0
030F6:  CALL   184E
030FA:  MOVLB  5
....................    } 
....................     
....................    Integral=read_eeprom(270); 
030FC:  MOVFF  FF2,7BB
03100:  BCF    FF2.7
03102:  MOVLW  01
03104:  MOVWF  FAA
03106:  MOVLW  0E
03108:  MOVWF  FA9
0310A:  BCF    FA6.6
0310C:  BCF    FA6.7
0310E:  BSF    FA6.0
03110:  MOVF   FA8,W
03112:  MOVLB  7
03114:  BTFSC  xBB.7
03116:  BSF    FF2.7
03118:  CLRF   xC8
0311A:  MOVWF  xC7
0311C:  MOVLB  0
0311E:  CALL   2204
03122:  MOVFF  03,61C
03126:  MOVFF  02,61B
0312A:  MOVFF  01,61A
0312E:  MOVFF  00,619
....................    delay_ms(50);  
03132:  MOVLW  32
03134:  MOVLB  7
03136:  MOVWF  xC1
03138:  MOVLB  0
0313A:  CALL   184E
....................    if(Integral>5){ 
0313E:  MOVLB  7
03140:  CLRF   xBE
03142:  CLRF   xBD
03144:  MOVLW  20
03146:  MOVWF  xBC
03148:  MOVLW  81
0314A:  MOVWF  xBB
0314C:  MOVFF  61C,7C2
03150:  MOVFF  61B,7C1
03154:  MOVFF  61A,7C0
03158:  MOVFF  619,7BF
0315C:  MOVLB  0
0315E:  CALL   223A
03162:  BNC   31AA
....................       Integral=1; 
03164:  MOVLB  6
03166:  CLRF   x1C
03168:  CLRF   x1B
0316A:  CLRF   x1A
0316C:  MOVLW  7F
0316E:  MOVWF  x19
....................       write_eeprom(270,1); 
03170:  MOVLW  01
03172:  MOVWF  FAA
03174:  MOVLW  0E
03176:  MOVWF  FA9
03178:  MOVLW  01
0317A:  MOVWF  FA8
0317C:  BCF    FA6.6
0317E:  BCF    FA6.7
03180:  BSF    FA6.2
03182:  MOVF   FF2,W
03184:  MOVWF  00
03186:  BCF    FF2.7
03188:  MOVLB  F
0318A:  MOVLW  55
0318C:  MOVWF  FA7
0318E:  MOVLW  AA
03190:  MOVWF  FA7
03192:  BSF    FA6.1
03194:  BTFSC  FA6.1
03196:  BRA    3194
03198:  BCF    FA6.2
0319A:  MOVF   00,W
0319C:  IORWF  FF2,F
....................       delay_ms(20); 
0319E:  MOVLW  14
031A0:  MOVLB  7
031A2:  MOVWF  xC1
031A4:  MOVLB  0
031A6:  CALL   184E
....................    } 
....................    Derivativo=read_eeprom(271); 
031AA:  MOVFF  FF2,7BB
031AE:  BCF    FF2.7
031B0:  MOVLW  01
031B2:  MOVWF  FAA
031B4:  MOVLW  0F
031B6:  MOVWF  FA9
031B8:  BCF    FA6.6
031BA:  BCF    FA6.7
031BC:  BSF    FA6.0
031BE:  MOVF   FA8,W
031C0:  MOVLB  7
031C2:  BTFSC  xBB.7
031C4:  BSF    FF2.7
031C6:  CLRF   xC8
031C8:  MOVWF  xC7
031CA:  MOVLB  0
031CC:  CALL   2204
031D0:  MOVFF  03,620
031D4:  MOVFF  02,61F
031D8:  MOVFF  01,61E
031DC:  MOVFF  00,61D
....................    delay_ms(50);  
031E0:  MOVLW  32
031E2:  MOVLB  7
031E4:  MOVWF  xC1
031E6:  MOVLB  0
031E8:  CALL   184E
....................    if(Derivativo>20){ 
031EC:  MOVLB  7
031EE:  CLRF   xBE
031F0:  CLRF   xBD
031F2:  MOVLW  20
031F4:  MOVWF  xBC
031F6:  MOVLW  83
031F8:  MOVWF  xBB
031FA:  MOVFF  620,7C2
031FE:  MOVFF  61F,7C1
03202:  MOVFF  61E,7C0
03206:  MOVFF  61D,7BF
0320A:  MOVLB  0
0320C:  CALL   223A
03210:  BNC   325A
....................       Derivativo=20; 
03212:  MOVLB  6
03214:  CLRF   x20
03216:  CLRF   x1F
03218:  MOVLW  20
0321A:  MOVWF  x1E
0321C:  MOVLW  83
0321E:  MOVWF  x1D
....................       write_eeprom(271,20); 
03220:  MOVLW  01
03222:  MOVWF  FAA
03224:  MOVLW  0F
03226:  MOVWF  FA9
03228:  MOVLW  14
0322A:  MOVWF  FA8
0322C:  BCF    FA6.6
0322E:  BCF    FA6.7
03230:  BSF    FA6.2
03232:  MOVF   FF2,W
03234:  MOVWF  00
03236:  BCF    FF2.7
03238:  MOVLB  F
0323A:  MOVLW  55
0323C:  MOVWF  FA7
0323E:  MOVLW  AA
03240:  MOVWF  FA7
03242:  BSF    FA6.1
03244:  BTFSC  FA6.1
03246:  BRA    3244
03248:  BCF    FA6.2
0324A:  MOVF   00,W
0324C:  IORWF  FF2,F
....................       delay_ms(20); 
0324E:  MOVLW  14
03250:  MOVLB  7
03252:  MOVWF  xC1
03254:  MOVLB  0
03256:  CALL   184E
....................    } 
....................    ActivaImpresion=read_eeprom(280); 
0325A:  MOVFF  FF2,7BB
0325E:  BCF    FF2.7
03260:  MOVLW  01
03262:  MOVWF  FAA
03264:  MOVLW  18
03266:  MOVWF  FA9
03268:  BCF    FA6.6
0326A:  BCF    FA6.7
0326C:  BSF    FA6.0
0326E:  MOVF   FA8,W
03270:  MOVLB  7
03272:  BTFSC  xBB.7
03274:  BSF    FF2.7
03276:  MOVWF  01
03278:  MOVLB  5
0327A:  BCF    x5F.3
0327C:  BTFSC  01.0
0327E:  BSF    x5F.3
....................    delay_ms(50);  
03280:  MOVLW  32
03282:  MOVLB  7
03284:  MOVWF  xC1
03286:  MOVLB  0
03288:  CALL   184E
....................    if(ActivaImpresion>1){ 
0328C:  MOVLW  00
0328E:  MOVLB  5
03290:  BTFSC  x5F.3
03292:  MOVLW  01
03294:  SUBLW  01
03296:  BC    32D6
....................       ActivaImpresion=1; 
03298:  BSF    x5F.3
....................       write_eeprom(280,1); 
0329A:  MOVLW  01
0329C:  MOVWF  FAA
0329E:  MOVLW  18
032A0:  MOVWF  FA9
032A2:  MOVLW  01
032A4:  MOVWF  FA8
032A6:  BCF    FA6.6
032A8:  BCF    FA6.7
032AA:  BSF    FA6.2
032AC:  MOVF   FF2,W
032AE:  MOVWF  00
032B0:  BCF    FF2.7
032B2:  MOVLB  F
032B4:  MOVLW  55
032B6:  MOVWF  FA7
032B8:  MOVLW  AA
032BA:  MOVWF  FA7
032BC:  BSF    FA6.1
032BE:  BTFSC  FA6.1
032C0:  BRA    32BE
032C2:  BCF    FA6.2
032C4:  MOVF   00,W
032C6:  IORWF  FF2,F
....................       delay_ms(20); 
032C8:  MOVLW  14
032CA:  MOVLB  7
032CC:  MOVWF  xC1
032CE:  MOVLB  0
032D0:  CALL   184E
032D4:  MOVLB  5
....................    } 
....................    timpresion=read_eeprom(281); 
032D6:  MOVFF  FF2,7BB
032DA:  BCF    FF2.7
032DC:  MOVLW  01
032DE:  MOVWF  FAA
032E0:  MOVLW  19
032E2:  MOVWF  FA9
032E4:  BCF    FA6.6
032E6:  BCF    FA6.7
032E8:  BSF    FA6.0
032EA:  MOVF   FA8,W
032EC:  MOVLB  7
032EE:  BTFSC  xBB.7
032F0:  BSF    FF2.7
032F2:  MOVLB  5
032F4:  CLRF   x96
032F6:  MOVWF  x95
....................    delay_ms(50);  
032F8:  MOVLW  32
032FA:  MOVLB  7
032FC:  MOVWF  xC1
032FE:  MOVLB  0
03300:  CALL   184E
....................    if(timpresion>30){ 
03304:  MOVLB  5
03306:  MOVF   x96,F
03308:  BNZ   3310
0330A:  MOVF   x95,W
0330C:  SUBLW  1E
0330E:  BC    3352
....................       timpresion=3; 
03310:  CLRF   x96
03312:  MOVLW  03
03314:  MOVWF  x95
....................       write_eeprom(281,3); 
03316:  MOVLW  01
03318:  MOVWF  FAA
0331A:  MOVLW  19
0331C:  MOVWF  FA9
0331E:  MOVLW  03
03320:  MOVWF  FA8
03322:  BCF    FA6.6
03324:  BCF    FA6.7
03326:  BSF    FA6.2
03328:  MOVF   FF2,W
0332A:  MOVWF  00
0332C:  BCF    FF2.7
0332E:  MOVLB  F
03330:  MOVLW  55
03332:  MOVWF  FA7
03334:  MOVLW  AA
03336:  MOVWF  FA7
03338:  BSF    FA6.1
0333A:  BTFSC  FA6.1
0333C:  BRA    333A
0333E:  BCF    FA6.2
03340:  MOVF   00,W
03342:  IORWF  FF2,F
....................       delay_ms(20); 
03344:  MOVLW  14
03346:  MOVLB  7
03348:  MOVWF  xC1
0334A:  MOVLB  0
0334C:  CALL   184E
03350:  MOVLB  5
....................    } 
....................     
....................    Modo=read_eeprom(480); 
03352:  MOVFF  FF2,7BB
03356:  BCF    FF2.7
03358:  MOVLW  01
0335A:  MOVWF  FAA
0335C:  MOVLW  E0
0335E:  MOVWF  FA9
03360:  BCF    FA6.6
03362:  BCF    FA6.7
03364:  BSF    FA6.0
03366:  MOVF   FA8,W
03368:  MOVLB  7
0336A:  BTFSC  xBB.7
0336C:  BSF    FF2.7
0336E:  MOVLB  5
03370:  MOVWF  x6C
....................    delay_ms(50);  
03372:  MOVLW  32
03374:  MOVLB  7
03376:  MOVWF  xC1
03378:  MOVLB  0
0337A:  CALL   184E
....................    m_int=read_eeprom(490); 
0337E:  MOVFF  FF2,7BB
03382:  BCF    FF2.7
03384:  MOVLW  01
03386:  MOVWF  FAA
03388:  MOVLW  EA
0338A:  MOVWF  FA9
0338C:  BCF    FA6.6
0338E:  BCF    FA6.7
03390:  BSF    FA6.0
03392:  MOVF   FA8,W
03394:  MOVLB  7
03396:  BTFSC  xBB.7
03398:  BSF    FF2.7
0339A:  MOVLB  5
0339C:  MOVWF  x7D
....................    delay_ms(50);  
0339E:  MOVLW  32
033A0:  MOVLB  7
033A2:  MOVWF  xC1
033A4:  MOVLB  0
033A6:  CALL   184E
....................    m_dec=read_eeprom(491); 
033AA:  MOVFF  FF2,7BB
033AE:  BCF    FF2.7
033B0:  MOVLW  01
033B2:  MOVWF  FAA
033B4:  MOVLW  EB
033B6:  MOVWF  FA9
033B8:  BCF    FA6.6
033BA:  BCF    FA6.7
033BC:  BSF    FA6.0
033BE:  MOVF   FA8,W
033C0:  MOVLB  7
033C2:  BTFSC  xBB.7
033C4:  BSF    FF2.7
033C6:  MOVLB  5
033C8:  MOVWF  x7E
....................    delay_ms(50);  
033CA:  MOVLW  32
033CC:  MOVLB  7
033CE:  MOVWF  xC1
033D0:  MOVLB  0
033D2:  CALL   184E
....................    m=m_int+((float)m_dec/100); 
033D6:  MOVLB  7
033D8:  CLRF   xC8
033DA:  MOVFF  57E,7C7
033DE:  MOVLB  0
033E0:  CALL   2204
033E4:  MOVFF  00,7BB
033E8:  MOVFF  01,7BC
033EC:  MOVFF  02,7BD
033F0:  MOVFF  03,7BE
033F4:  MOVFF  03,7C2
033F8:  MOVFF  02,7C1
033FC:  MOVFF  01,7C0
03400:  MOVFF  00,7BF
03404:  MOVLB  7
03406:  CLRF   xC6
03408:  CLRF   xC5
0340A:  MOVLW  48
0340C:  MOVWF  xC4
0340E:  MOVLW  85
03410:  MOVWF  xC3
03412:  MOVLB  0
03414:  CALL   22B4
03418:  MOVFF  00,7BB
0341C:  MOVFF  01,7BC
03420:  MOVFF  02,7BD
03424:  MOVFF  03,7BE
03428:  MOVLB  7
0342A:  CLRF   xC8
0342C:  MOVFF  57D,7C7
03430:  MOVLB  0
03432:  CALL   2204
03436:  BCF    FD8.1
03438:  MOVFF  03,7CA
0343C:  MOVFF  02,7C9
03440:  MOVFF  01,7C8
03444:  MOVFF  00,7C7
03448:  MOVFF  7BE,7CE
0344C:  MOVFF  7BD,7CD
03450:  MOVFF  7BC,7CC
03454:  MOVFF  7BB,7CB
03458:  CALL   2412
0345C:  MOVFF  03,624
03460:  MOVFF  02,623
03464:  MOVFF  01,622
03468:  MOVFF  00,621
....................    b16=make16(read_eeprom(493),read_eeprom(492)); 
0346C:  MOVFF  FF2,7BB
03470:  BCF    FF2.7
03472:  MOVLW  01
03474:  MOVWF  FAA
03476:  MOVLW  ED
03478:  MOVWF  FA9
0347A:  BCF    FA6.6
0347C:  BCF    FA6.7
0347E:  BSF    FA6.0
03480:  MOVF   FA8,W
03482:  MOVLB  7
03484:  BTFSC  xBB.7
03486:  BSF    FF2.7
03488:  MOVWF  xBC
0348A:  MOVFF  FF2,7BD
0348E:  BCF    FF2.7
03490:  MOVLW  01
03492:  MOVWF  FAA
03494:  MOVLW  EC
03496:  MOVWF  FA9
03498:  BCF    FA6.6
0349A:  BCF    FA6.7
0349C:  BSF    FA6.0
0349E:  MOVF   FA8,W
034A0:  BTFSC  xBD.7
034A2:  BSF    FF2.7
034A4:  MOVWF  xBE
034A6:  MOVFF  7BC,598
034AA:  MOVFF  7BE,597
....................    b_dec=read_eeprom(494); 
034AE:  MOVFF  FF2,7BB
034B2:  BCF    FF2.7
034B4:  MOVLW  01
034B6:  MOVWF  FAA
034B8:  MOVLW  EE
034BA:  MOVWF  FA9
034BC:  BCF    FA6.6
034BE:  BCF    FA6.7
034C0:  BSF    FA6.0
034C2:  MOVF   FA8,W
034C4:  BTFSC  xBB.7
034C6:  BSF    FF2.7
034C8:  MOVLB  5
034CA:  MOVWF  x80
....................    delay_ms(50);  
034CC:  MOVLW  32
034CE:  MOVLB  7
034D0:  MOVWF  xC1
034D2:  MOVLB  0
034D4:  CALL   184E
....................    b=b16+((float)b_dec/100); 
034D8:  MOVLB  7
034DA:  CLRF   xC8
034DC:  MOVFF  580,7C7
034E0:  MOVLB  0
034E2:  CALL   2204
034E6:  MOVFF  00,7BB
034EA:  MOVFF  01,7BC
034EE:  MOVFF  02,7BD
034F2:  MOVFF  03,7BE
034F6:  MOVFF  03,7C2
034FA:  MOVFF  02,7C1
034FE:  MOVFF  01,7C0
03502:  MOVFF  00,7BF
03506:  MOVLB  7
03508:  CLRF   xC6
0350A:  CLRF   xC5
0350C:  MOVLW  48
0350E:  MOVWF  xC4
03510:  MOVLW  85
03512:  MOVWF  xC3
03514:  MOVLB  0
03516:  CALL   22B4
0351A:  MOVFF  00,7BB
0351E:  MOVFF  01,7BC
03522:  MOVFF  02,7BD
03526:  MOVFF  03,7BE
0352A:  MOVFF  598,7C8
0352E:  MOVFF  597,7C7
03532:  CALL   2204
03536:  BCF    FD8.1
03538:  MOVFF  03,7CA
0353C:  MOVFF  02,7C9
03540:  MOVFF  01,7C8
03544:  MOVFF  00,7C7
03548:  MOVFF  7BE,7CE
0354C:  MOVFF  7BD,7CD
03550:  MOVFF  7BC,7CC
03554:  MOVFF  7BB,7CB
03558:  CALL   2412
0355C:  MOVFF  03,628
03560:  MOVFF  02,627
03564:  MOVFF  01,626
03568:  MOVFF  00,625
....................    if(b<300 || b>400){ 
0356C:  MOVFF  628,7BE
03570:  MOVFF  627,7BD
03574:  MOVFF  626,7BC
03578:  MOVFF  625,7BB
0357C:  MOVLB  7
0357E:  CLRF   xC2
03580:  CLRF   xC1
03582:  MOVLW  16
03584:  MOVWF  xC0
03586:  MOVLW  87
03588:  MOVWF  xBF
0358A:  MOVLB  0
0358C:  CALL   223A
03590:  BC    35B8
03592:  MOVLB  7
03594:  CLRF   xBE
03596:  CLRF   xBD
03598:  MOVLW  48
0359A:  MOVWF  xBC
0359C:  MOVLW  87
0359E:  MOVWF  xBB
035A0:  MOVFF  628,7C2
035A4:  MOVFF  627,7C1
035A8:  MOVFF  626,7C0
035AC:  MOVFF  625,7BF
035B0:  MOVLB  0
035B2:  CALL   223A
035B6:  BNC   3678
....................       b=347.66; 
035B8:  MOVLW  7B
035BA:  MOVLB  6
035BC:  MOVWF  x28
035BE:  MOVLW  D4
035C0:  MOVWF  x27
035C2:  MOVLW  2D
035C4:  MOVWF  x26
035C6:  MOVLW  87
035C8:  MOVWF  x25
....................       write_eeprom(492,make8(347,0)); 
035CA:  MOVLW  01
035CC:  MOVWF  FAA
035CE:  MOVLW  EC
035D0:  MOVWF  FA9
035D2:  MOVLW  5B
035D4:  MOVWF  FA8
035D6:  BCF    FA6.6
035D8:  BCF    FA6.7
035DA:  BSF    FA6.2
035DC:  MOVF   FF2,W
035DE:  MOVWF  00
035E0:  BCF    FF2.7
035E2:  MOVLB  F
035E4:  MOVLW  55
035E6:  MOVWF  FA7
035E8:  MOVLW  AA
035EA:  MOVWF  FA7
035EC:  BSF    FA6.1
035EE:  BTFSC  FA6.1
035F0:  BRA    35EE
035F2:  BCF    FA6.2
035F4:  MOVF   00,W
035F6:  IORWF  FF2,F
....................       delay_ms(10); 
035F8:  MOVLW  0A
035FA:  MOVLB  7
035FC:  MOVWF  xC1
035FE:  MOVLB  0
03600:  CALL   184E
....................       write_eeprom(493,make8(347,1)); 
03604:  MOVLW  01
03606:  MOVWF  FAA
03608:  MOVLW  ED
0360A:  MOVWF  FA9
0360C:  MOVLW  01
0360E:  MOVWF  FA8
03610:  BCF    FA6.6
03612:  BCF    FA6.7
03614:  BSF    FA6.2
03616:  MOVF   FF2,W
03618:  MOVWF  00
0361A:  BCF    FF2.7
0361C:  MOVLB  F
0361E:  MOVLW  55
03620:  MOVWF  FA7
03622:  MOVLW  AA
03624:  MOVWF  FA7
03626:  BSF    FA6.1
03628:  BTFSC  FA6.1
0362A:  BRA    3628
0362C:  BCF    FA6.2
0362E:  MOVF   00,W
03630:  IORWF  FF2,F
....................       delay_ms(10); 
03632:  MOVLW  0A
03634:  MOVLB  7
03636:  MOVWF  xC1
03638:  MOVLB  0
0363A:  CALL   184E
....................       write_eeprom(494,66); 
0363E:  MOVLW  01
03640:  MOVWF  FAA
03642:  MOVLW  EE
03644:  MOVWF  FA9
03646:  MOVLW  42
03648:  MOVWF  FA8
0364A:  BCF    FA6.6
0364C:  BCF    FA6.7
0364E:  BSF    FA6.2
03650:  MOVF   FF2,W
03652:  MOVWF  00
03654:  BCF    FF2.7
03656:  MOVLB  F
03658:  MOVLW  55
0365A:  MOVWF  FA7
0365C:  MOVLW  AA
0365E:  MOVWF  FA7
03660:  BSF    FA6.1
03662:  BTFSC  FA6.1
03664:  BRA    3662
03666:  BCF    FA6.2
03668:  MOVF   00,W
0366A:  IORWF  FF2,F
....................       delay_ms(10); 
0366C:  MOVLW  0A
0366E:  MOVLB  7
03670:  MOVWF  xC1
03672:  MOVLB  0
03674:  CALL   184E
....................    } 
....................    if(m<1.0 || m>2.0){ 
03678:  MOVFF  624,7BE
0367C:  MOVFF  623,7BD
03680:  MOVFF  622,7BC
03684:  MOVFF  621,7BB
03688:  MOVLB  7
0368A:  CLRF   xC2
0368C:  CLRF   xC1
0368E:  CLRF   xC0
03690:  MOVLW  7F
03692:  MOVWF  xBF
03694:  MOVLB  0
03696:  CALL   223A
0369A:  BC    36C0
0369C:  MOVLB  7
0369E:  CLRF   xBE
036A0:  CLRF   xBD
036A2:  CLRF   xBC
036A4:  MOVLW  80
036A6:  MOVWF  xBB
036A8:  MOVFF  624,7C2
036AC:  MOVFF  623,7C1
036B0:  MOVFF  622,7C0
036B4:  MOVFF  621,7BF
036B8:  MOVLB  0
036BA:  CALL   223A
036BE:  BNC   3746
....................       m=1.79; 
036C0:  MOVLW  B8
036C2:  MOVLB  6
036C4:  MOVWF  x24
036C6:  MOVLW  1E
036C8:  MOVWF  x23
036CA:  MOVLW  65
036CC:  MOVWF  x22
036CE:  MOVLW  7F
036D0:  MOVWF  x21
....................       write_eeprom(490,1); 
036D2:  MOVLW  01
036D4:  MOVWF  FAA
036D6:  MOVLW  EA
036D8:  MOVWF  FA9
036DA:  MOVLW  01
036DC:  MOVWF  FA8
036DE:  BCF    FA6.6
036E0:  BCF    FA6.7
036E2:  BSF    FA6.2
036E4:  MOVF   FF2,W
036E6:  MOVWF  00
036E8:  BCF    FF2.7
036EA:  MOVLB  F
036EC:  MOVLW  55
036EE:  MOVWF  FA7
036F0:  MOVLW  AA
036F2:  MOVWF  FA7
036F4:  BSF    FA6.1
036F6:  BTFSC  FA6.1
036F8:  BRA    36F6
036FA:  BCF    FA6.2
036FC:  MOVF   00,W
036FE:  IORWF  FF2,F
....................       delay_ms(10); 
03700:  MOVLW  0A
03702:  MOVLB  7
03704:  MOVWF  xC1
03706:  MOVLB  0
03708:  CALL   184E
....................       write_eeprom(491,79); 
0370C:  MOVLW  01
0370E:  MOVWF  FAA
03710:  MOVLW  EB
03712:  MOVWF  FA9
03714:  MOVLW  4F
03716:  MOVWF  FA8
03718:  BCF    FA6.6
0371A:  BCF    FA6.7
0371C:  BSF    FA6.2
0371E:  MOVF   FF2,W
03720:  MOVWF  00
03722:  BCF    FF2.7
03724:  MOVLB  F
03726:  MOVLW  55
03728:  MOVWF  FA7
0372A:  MOVLW  AA
0372C:  MOVWF  FA7
0372E:  BSF    FA6.1
03730:  BTFSC  FA6.1
03732:  BRA    3730
03734:  BCF    FA6.2
03736:  MOVF   00,W
03738:  IORWF  FF2,F
....................       delay_ms(10); 
0373A:  MOVLW  0A
0373C:  MOVLB  7
0373E:  MOVWF  xC1
03740:  MOVLB  0
03742:  CALL   184E
....................    } 
.................... } 
03746:  GOTO   106DE (RETURN)
....................  
.................... short esBisiesto(int8 year) { 
....................      return ((year % 4 == 0 && year % 100 != 0) || year % 400 == 0); 
*
040E8:  MOVLB  7
040EA:  MOVF   xBB,W
040EC:  ANDLW  03
040EE:  BNZ   4104
040F0:  MOVFF  7BB,7D0
040F4:  MOVLW  64
040F6:  MOVWF  xD1
040F8:  MOVLB  0
040FA:  CALL   2022
040FE:  MOVF   00,F
04100:  BNZ   4132
04102:  MOVLB  7
04104:  CLRF   xBD
04106:  MOVFF  7BB,7BC
0410A:  MOVLW  01
0410C:  MOVWF  xBF
0410E:  MOVLW  90
04110:  MOVWF  xBE
04112:  MOVLB  0
04114:  BRA    40A0
04116:  MOVFF  00,7BC
0411A:  MOVLB  7
0411C:  MOVFF  03,7BD
04120:  MOVF   xBC,F
04122:  BNZ   412E
04124:  MOVF   xBD,F
04126:  BTFSS  FD8.2
04128:  BRA    412E
0412A:  MOVLB  0
0412C:  BRA    4132
0412E:  MOVLW  00
04130:  BRA    4136
04132:  MOVLW  01
04134:  MOVLB  7
04136:  MOVWF  01
.................... } 
04138:  MOVLB  0
0413A:  RETLW  00
....................  
.................... void LimitaDia(){ 
....................    if(MesTx>12) 
0413C:  MOVLB  7
0413E:  MOVF   x7B,W
04140:  SUBLW  0C
04142:  BC    4148
....................       MesTx=10; 
04144:  MOVLW  0A
04146:  MOVWF  x7B
....................    if(DiaTx>31) 
04148:  MOVF   x7C,W
0414A:  SUBLW  1F
0414C:  BC    4152
....................       DiaTx=16; 
0414E:  MOVLW  10
04150:  MOVWF  x7C
....................    if(YearTx>99) 
04152:  MOVF   x7A,W
04154:  SUBLW  63
04156:  BC    415C
....................       YearTx=18;    
04158:  MOVLW  12
0415A:  MOVWF  x7A
....................    if(HoraTx>24) 
0415C:  MOVF   x7D,W
0415E:  SUBLW  18
04160:  BC    4166
....................       HoraTx=11;       
04162:  MOVLW  0B
04164:  MOVWF  x7D
....................    if(MinutoTx>59) 
04166:  MOVF   x7E,W
04168:  SUBLW  3B
0416A:  BC    4170
....................       MinutoTx=30;       
0416C:  MOVLW  1E
0416E:  MOVWF  x7E
....................     
....................       if(MesTx==2){ 
04170:  MOVF   x7B,W
04172:  SUBLW  02
04174:  BNZ   41B4
....................          if(esBisiesto(YearTx)){ 
04176:  MOVFF  77A,7BB
0417A:  MOVLB  0
0417C:  RCALL  40E8
0417E:  MOVF   01,F
04180:  BZ    419C
....................             if(DiaTx>29){ 
04182:  MOVLB  7
04184:  MOVF   x7C,W
04186:  SUBLW  1D
04188:  BC    4198
....................                DiaTx=29; 
0418A:  MOVLW  1D
0418C:  MOVWF  x7C
....................                glcd_fillScreen(OFF); 
0418E:  CLRF   xBC
04190:  MOVLB  0
04192:  CALL   18CE
04196:  MOVLB  7
....................             } 
....................          }else{ 
04198:  BRA    41B2
0419A:  MOVLB  0
....................             if(DiaTx>28){ 
0419C:  MOVLB  7
0419E:  MOVF   x7C,W
041A0:  SUBLW  1C
041A2:  BC    41B2
....................                DiaTx=28; 
041A4:  MOVLW  1C
041A6:  MOVWF  x7C
....................                glcd_fillScreen(OFF); 
041A8:  CLRF   xBC
041AA:  MOVLB  0
041AC:  CALL   18CE
041B0:  MOVLB  7
....................             } 
....................          } 
....................       }else{ 
041B2:  BRA    41F2
....................          if(MesTx<=7){ 
041B4:  MOVF   x7B,W
041B6:  SUBLW  07
041B8:  BNC   41D6
....................             if(MesTx % 2 ==0){ 
041BA:  MOVF   x7B,W
041BC:  ANDLW  01
041BE:  BNZ   41D4
....................                if(DiaTx>30){ 
041C0:  MOVF   x7C,W
041C2:  SUBLW  1E
041C4:  BC    41D4
....................                   DiaTx=30;  
041C6:  MOVLW  1E
041C8:  MOVWF  x7C
....................                   glcd_fillScreen(OFF); 
041CA:  CLRF   xBC
041CC:  MOVLB  0
041CE:  CALL   18CE
041D2:  MOVLB  7
....................                } 
....................             } 
....................          }else{ 
041D4:  BRA    41F2
....................             if(MesTx % 2 ==1){ 
041D6:  MOVF   x7B,W
041D8:  ANDLW  01
041DA:  SUBLW  01
041DC:  BNZ   41F2
....................                if(DiaTx>30){ 
041DE:  MOVF   x7C,W
041E0:  SUBLW  1E
041E2:  BC    41F2
....................                   DiaTx=30;  
041E4:  MOVLW  1E
041E6:  MOVWF  x7C
....................                   glcd_fillScreen(OFF); 
041E8:  CLRF   xBC
041EA:  MOVLB  0
041EC:  CALL   18CE
041F0:  MOVLB  7
....................                } 
....................             } 
....................          } 
....................       } 
.................... } 
041F2:  MOVLB  0
041F4:  GOTO   132BC (RETURN)
....................  
.................... void displayFecha(int8 dia, int8 mes, int8 ano,int x, int y, int8 sombreado, int tamano){   
....................    char voltage[4]; 
....................    if(sombreado==1){ 
041F8:  MOVLB  7
041FA:  DECFSZ xC0,W
041FC:  BRA    4384
....................       sprintf(voltage, "%02u", dia);  
041FE:  MOVLW  07
04200:  MOVWF  xBA
04202:  MOVLW  C2
04204:  MOVWF  xB9
04206:  MOVFF  7BB,7CC
0420A:  MOVLW  01
0420C:  MOVWF  xCD
0420E:  MOVLB  0
04210:  RCALL  3CEA
....................       glcd_rect(x-1, y-1, x+(tamano*12), y+(tamano*7), YES, ON); 
04212:  MOVLW  01
04214:  MOVLB  7
04216:  SUBWF  xBE,W
04218:  MOVWF  xC6
0421A:  MOVLW  01
0421C:  SUBWF  xBF,W
0421E:  MOVWF  xC7
04220:  MOVF   xC1,W
04222:  MULLW  0C
04224:  MOVF   FF3,W
04226:  ADDWF  xBE,W
04228:  MOVWF  xC8
0422A:  MOVF   xC1,W
0422C:  MULLW  07
0422E:  MOVF   FF3,W
04230:  ADDWF  xBF,W
04232:  MOVWF  xC9
04234:  MOVFF  7C6,7D3
04238:  MOVFF  7C7,7D4
0423C:  MOVFF  7C8,7D5
04240:  MOVWF  xD6
04242:  MOVLW  01
04244:  MOVWF  xD7
04246:  MOVWF  xD8
04248:  MOVLB  0
0424A:  CALL   1E3A
....................       glcd_text57(x, y, voltage, tamano, OFF); 
0424E:  MOVFF  7BE,7D3
04252:  MOVFF  7BF,7D4
04256:  MOVLW  07
04258:  MOVLB  7
0425A:  MOVWF  xD6
0425C:  MOVLW  C2
0425E:  MOVWF  xD5
04260:  MOVFF  7C1,7D7
04264:  CLRF   xD8
04266:  MOVLB  0
04268:  CALL   1B44
....................       strcpy(Menus.Letra,"/"); 
0426C:  MOVLW  07
0426E:  MOVWF  FEA
04270:  MOVLW  9B
04272:  MOVWF  FE9
04274:  MOVFF  FF2,7C6
04278:  BCF    FF2.7
0427A:  MOVLW  00
0427C:  CALL   07DA
04280:  TBLRD*-
04282:  TBLRD*+
04284:  MOVF   FF5,W
04286:  MOVWF  FEE
04288:  IORLW  00
0428A:  BNZ   4282
0428C:  MOVLB  7
0428E:  BTFSC  xC6.7
04290:  BSF    FF2.7
....................       glcd_text57(x+(tamano*12), y, Menus.Letra, tamano, ON); 
04292:  MOVF   xC1,W
04294:  MULLW  0C
04296:  MOVF   FF3,W
04298:  ADDWF  xBE,W
0429A:  MOVWF  xC6
0429C:  MOVWF  xD3
0429E:  MOVFF  7BF,7D4
042A2:  MOVLW  07
042A4:  MOVWF  xD6
042A6:  MOVLW  9B
042A8:  MOVWF  xD5
042AA:  MOVFF  7C1,7D7
042AE:  MOVLW  01
042B0:  MOVWF  xD8
042B2:  MOVLB  0
042B4:  CALL   1B44
....................        
....................       sprintf(voltage, "%02u", mes);  
042B8:  MOVLW  07
042BA:  MOVLB  7
042BC:  MOVWF  xBA
042BE:  MOVLW  C2
042C0:  MOVWF  xB9
042C2:  MOVFF  7BC,7CC
042C6:  MOVLW  01
042C8:  MOVWF  xCD
042CA:  MOVLB  0
042CC:  RCALL  3CEA
....................       glcd_text57(x+(tamano*18), y, voltage, tamano, ON); 
042CE:  MOVLB  7
042D0:  MOVF   xC1,W
042D2:  MULLW  12
042D4:  MOVF   FF3,W
042D6:  ADDWF  xBE,W
042D8:  MOVWF  xC6
042DA:  MOVWF  xD3
042DC:  MOVFF  7BF,7D4
042E0:  MOVLW  07
042E2:  MOVWF  xD6
042E4:  MOVLW  C2
042E6:  MOVWF  xD5
042E8:  MOVFF  7C1,7D7
042EC:  MOVLW  01
042EE:  MOVWF  xD8
042F0:  MOVLB  0
042F2:  CALL   1B44
....................       strcpy(Menus.Letra,"/"); 
042F6:  MOVLW  07
042F8:  MOVWF  FEA
042FA:  MOVLW  9B
042FC:  MOVWF  FE9
042FE:  MOVFF  FF2,7C6
04302:  BCF    FF2.7
04304:  MOVLW  00
04306:  CALL   07DA
0430A:  TBLRD*-
0430C:  TBLRD*+
0430E:  MOVF   FF5,W
04310:  MOVWF  FEE
04312:  IORLW  00
04314:  BNZ   430C
04316:  MOVLB  7
04318:  BTFSC  xC6.7
0431A:  BSF    FF2.7
....................       glcd_text57(x+(tamano*30), y, Menus.Letra, tamano, ON); 
0431C:  MOVF   xC1,W
0431E:  MULLW  1E
04320:  MOVF   FF3,W
04322:  ADDWF  xBE,W
04324:  MOVWF  xC6
04326:  MOVWF  xD3
04328:  MOVFF  7BF,7D4
0432C:  MOVLW  07
0432E:  MOVWF  xD6
04330:  MOVLW  9B
04332:  MOVWF  xD5
04334:  MOVFF  7C1,7D7
04338:  MOVLW  01
0433A:  MOVWF  xD8
0433C:  MOVLB  0
0433E:  CALL   1B44
....................        
....................       sprintf(voltage, "%02u", ano);  
04342:  MOVLW  07
04344:  MOVLB  7
04346:  MOVWF  xBA
04348:  MOVLW  C2
0434A:  MOVWF  xB9
0434C:  MOVFF  7BD,7CC
04350:  MOVLW  01
04352:  MOVWF  xCD
04354:  MOVLB  0
04356:  RCALL  3CEA
....................       glcd_text57(x+(tamano*36), y, voltage, tamano, ON); 
04358:  MOVLB  7
0435A:  MOVF   xC1,W
0435C:  MULLW  24
0435E:  MOVF   FF3,W
04360:  ADDWF  xBE,W
04362:  MOVWF  xC6
04364:  MOVWF  xD3
04366:  MOVFF  7BF,7D4
0436A:  MOVLW  07
0436C:  MOVWF  xD6
0436E:  MOVLW  C2
04370:  MOVWF  xD5
04372:  MOVFF  7C1,7D7
04376:  MOVLW  01
04378:  MOVWF  xD8
0437A:  MOVLB  0
0437C:  CALL   1B44
....................    }else if(sombreado==2){ 
04380:  BRA    4834
04382:  MOVLB  7
04384:  MOVF   xC0,W
04386:  SUBLW  02
04388:  BTFSS  FD8.2
0438A:  BRA    451C
....................       sprintf(voltage, "%02u", dia);  
0438C:  MOVLW  07
0438E:  MOVWF  xBA
04390:  MOVLW  C2
04392:  MOVWF  xB9
04394:  MOVFF  7BB,7CC
04398:  MOVLW  01
0439A:  MOVWF  xCD
0439C:  MOVLB  0
0439E:  RCALL  3CEA
....................       glcd_text57(x, y, voltage, tamano, ON); 
043A0:  MOVFF  7BE,7D3
043A4:  MOVFF  7BF,7D4
043A8:  MOVLW  07
043AA:  MOVLB  7
043AC:  MOVWF  xD6
043AE:  MOVLW  C2
043B0:  MOVWF  xD5
043B2:  MOVFF  7C1,7D7
043B6:  MOVLW  01
043B8:  MOVWF  xD8
043BA:  MOVLB  0
043BC:  CALL   1B44
....................       strcpy(Menus.Letra,"/"); 
043C0:  MOVLW  07
043C2:  MOVWF  FEA
043C4:  MOVLW  9B
043C6:  MOVWF  FE9
043C8:  MOVFF  FF2,7C6
043CC:  BCF    FF2.7
043CE:  MOVLW  00
043D0:  CALL   07DA
043D4:  TBLRD*-
043D6:  TBLRD*+
043D8:  MOVF   FF5,W
043DA:  MOVWF  FEE
043DC:  IORLW  00
043DE:  BNZ   43D6
043E0:  MOVLB  7
043E2:  BTFSC  xC6.7
043E4:  BSF    FF2.7
....................       glcd_text57(x+(tamano*12), y, Menus.Letra, tamano, ON); 
043E6:  MOVF   xC1,W
043E8:  MULLW  0C
043EA:  MOVF   FF3,W
043EC:  ADDWF  xBE,W
043EE:  MOVWF  xC6
043F0:  MOVWF  xD3
043F2:  MOVFF  7BF,7D4
043F6:  MOVLW  07
043F8:  MOVWF  xD6
043FA:  MOVLW  9B
043FC:  MOVWF  xD5
043FE:  MOVFF  7C1,7D7
04402:  MOVLW  01
04404:  MOVWF  xD8
04406:  MOVLB  0
04408:  CALL   1B44
....................        
....................       glcd_rect(x-1+(tamano*18), y-1, x+(tamano*30), y+(tamano*7), YES, ON); 
0440C:  MOVLW  01
0440E:  MOVLB  7
04410:  SUBWF  xBE,W
04412:  MOVWF  xC6
04414:  MOVF   xC1,W
04416:  MULLW  12
04418:  MOVF   FF3,W
0441A:  ADDWF  xC6,F
0441C:  MOVLW  01
0441E:  SUBWF  xBF,W
04420:  MOVWF  xC7
04422:  MOVF   xC1,W
04424:  MULLW  1E
04426:  MOVF   FF3,W
04428:  ADDWF  xBE,W
0442A:  MOVWF  xC8
0442C:  MOVF   xC1,W
0442E:  MULLW  07
04430:  MOVF   FF3,W
04432:  ADDWF  xBF,W
04434:  MOVWF  xC9
04436:  MOVFF  7C6,7D3
0443A:  MOVFF  7C7,7D4
0443E:  MOVFF  7C8,7D5
04442:  MOVWF  xD6
04444:  MOVLW  01
04446:  MOVWF  xD7
04448:  MOVWF  xD8
0444A:  MOVLB  0
0444C:  CALL   1E3A
....................       sprintf(voltage, "%02u", mes);  
04450:  MOVLW  07
04452:  MOVLB  7
04454:  MOVWF  xBA
04456:  MOVLW  C2
04458:  MOVWF  xB9
0445A:  MOVFF  7BC,7CC
0445E:  MOVLW  01
04460:  MOVWF  xCD
04462:  MOVLB  0
04464:  RCALL  3CEA
....................       glcd_text57(x+(tamano*18), y, voltage, tamano, OFF); 
04466:  MOVLB  7
04468:  MOVF   xC1,W
0446A:  MULLW  12
0446C:  MOVF   FF3,W
0446E:  ADDWF  xBE,W
04470:  MOVWF  xC6
04472:  MOVWF  xD3
04474:  MOVFF  7BF,7D4
04478:  MOVLW  07
0447A:  MOVWF  xD6
0447C:  MOVLW  C2
0447E:  MOVWF  xD5
04480:  MOVFF  7C1,7D7
04484:  CLRF   xD8
04486:  MOVLB  0
04488:  CALL   1B44
....................       strcpy(Menus.Letra,"/"); 
0448C:  MOVLW  07
0448E:  MOVWF  FEA
04490:  MOVLW  9B
04492:  MOVWF  FE9
04494:  MOVFF  FF2,7C6
04498:  BCF    FF2.7
0449A:  MOVLW  00
0449C:  CALL   07DA
044A0:  TBLRD*-
044A2:  TBLRD*+
044A4:  MOVF   FF5,W
044A6:  MOVWF  FEE
044A8:  IORLW  00
044AA:  BNZ   44A2
044AC:  MOVLB  7
044AE:  BTFSC  xC6.7
044B0:  BSF    FF2.7
....................       glcd_text57(x+(tamano*30), y, Menus.Letra, tamano, ON); 
044B2:  MOVF   xC1,W
044B4:  MULLW  1E
044B6:  MOVF   FF3,W
044B8:  ADDWF  xBE,W
044BA:  MOVWF  xC6
044BC:  MOVWF  xD3
044BE:  MOVFF  7BF,7D4
044C2:  MOVLW  07
044C4:  MOVWF  xD6
044C6:  MOVLW  9B
044C8:  MOVWF  xD5
044CA:  MOVFF  7C1,7D7
044CE:  MOVLW  01
044D0:  MOVWF  xD8
044D2:  MOVLB  0
044D4:  CALL   1B44
....................        
....................       sprintf(voltage, "%02u", ano);  
044D8:  MOVLW  07
044DA:  MOVLB  7
044DC:  MOVWF  xBA
044DE:  MOVLW  C2
044E0:  MOVWF  xB9
044E2:  MOVFF  7BD,7CC
044E6:  MOVLW  01
044E8:  MOVWF  xCD
044EA:  MOVLB  0
044EC:  CALL   3CEA
....................       glcd_text57(x+(tamano*36), y, voltage, tamano, ON); 
044F0:  MOVLB  7
044F2:  MOVF   xC1,W
044F4:  MULLW  24
044F6:  MOVF   FF3,W
044F8:  ADDWF  xBE,W
044FA:  MOVWF  xC6
044FC:  MOVWF  xD3
044FE:  MOVFF  7BF,7D4
04502:  MOVLW  07
04504:  MOVWF  xD6
04506:  MOVLW  C2
04508:  MOVWF  xD5
0450A:  MOVFF  7C1,7D7
0450E:  MOVLW  01
04510:  MOVWF  xD8
04512:  MOVLB  0
04514:  CALL   1B44
....................    }else if(sombreado==3){ 
04518:  BRA    4834
0451A:  MOVLB  7
0451C:  MOVF   xC0,W
0451E:  SUBLW  03
04520:  BTFSS  FD8.2
04522:  BRA    46B8
....................       sprintf(voltage, "%02u", dia);  
04524:  MOVLW  07
04526:  MOVWF  xBA
04528:  MOVLW  C2
0452A:  MOVWF  xB9
0452C:  MOVFF  7BB,7CC
04530:  MOVLW  01
04532:  MOVWF  xCD
04534:  MOVLB  0
04536:  CALL   3CEA
....................       glcd_text57(x, y, voltage, tamano, ON); 
0453A:  MOVFF  7BE,7D3
0453E:  MOVFF  7BF,7D4
04542:  MOVLW  07
04544:  MOVLB  7
04546:  MOVWF  xD6
04548:  MOVLW  C2
0454A:  MOVWF  xD5
0454C:  MOVFF  7C1,7D7
04550:  MOVLW  01
04552:  MOVWF  xD8
04554:  MOVLB  0
04556:  CALL   1B44
....................       strcpy(Menus.Letra,"/"); 
0455A:  MOVLW  07
0455C:  MOVWF  FEA
0455E:  MOVLW  9B
04560:  MOVWF  FE9
04562:  MOVFF  FF2,7C6
04566:  BCF    FF2.7
04568:  MOVLW  00
0456A:  CALL   07DA
0456E:  TBLRD*-
04570:  TBLRD*+
04572:  MOVF   FF5,W
04574:  MOVWF  FEE
04576:  IORLW  00
04578:  BNZ   4570
0457A:  MOVLB  7
0457C:  BTFSC  xC6.7
0457E:  BSF    FF2.7
....................       glcd_text57(x+(tamano*12), y, Menus.Letra, tamano, ON); 
04580:  MOVF   xC1,W
04582:  MULLW  0C
04584:  MOVF   FF3,W
04586:  ADDWF  xBE,W
04588:  MOVWF  xC6
0458A:  MOVWF  xD3
0458C:  MOVFF  7BF,7D4
04590:  MOVLW  07
04592:  MOVWF  xD6
04594:  MOVLW  9B
04596:  MOVWF  xD5
04598:  MOVFF  7C1,7D7
0459C:  MOVLW  01
0459E:  MOVWF  xD8
045A0:  MOVLB  0
045A2:  CALL   1B44
....................              
....................       sprintf(voltage, "%02u", mes);  
045A6:  MOVLW  07
045A8:  MOVLB  7
045AA:  MOVWF  xBA
045AC:  MOVLW  C2
045AE:  MOVWF  xB9
045B0:  MOVFF  7BC,7CC
045B4:  MOVLW  01
045B6:  MOVWF  xCD
045B8:  MOVLB  0
045BA:  CALL   3CEA
....................       glcd_text57(x+(tamano*18), y, voltage, tamano, ON); 
045BE:  MOVLB  7
045C0:  MOVF   xC1,W
045C2:  MULLW  12
045C4:  MOVF   FF3,W
045C6:  ADDWF  xBE,W
045C8:  MOVWF  xC6
045CA:  MOVWF  xD3
045CC:  MOVFF  7BF,7D4
045D0:  MOVLW  07
045D2:  MOVWF  xD6
045D4:  MOVLW  C2
045D6:  MOVWF  xD5
045D8:  MOVFF  7C1,7D7
045DC:  MOVLW  01
045DE:  MOVWF  xD8
045E0:  MOVLB  0
045E2:  CALL   1B44
....................       strcpy(Menus.Letra,"/"); 
045E6:  MOVLW  07
045E8:  MOVWF  FEA
045EA:  MOVLW  9B
045EC:  MOVWF  FE9
045EE:  MOVFF  FF2,7C6
045F2:  BCF    FF2.7
045F4:  MOVLW  00
045F6:  CALL   07DA
045FA:  TBLRD*-
045FC:  TBLRD*+
045FE:  MOVF   FF5,W
04600:  MOVWF  FEE
04602:  IORLW  00
04604:  BNZ   45FC
04606:  MOVLB  7
04608:  BTFSC  xC6.7
0460A:  BSF    FF2.7
....................       glcd_text57(x+(tamano*30), y, Menus.Letra, tamano, ON); 
0460C:  MOVF   xC1,W
0460E:  MULLW  1E
04610:  MOVF   FF3,W
04612:  ADDWF  xBE,W
04614:  MOVWF  xC6
04616:  MOVWF  xD3
04618:  MOVFF  7BF,7D4
0461C:  MOVLW  07
0461E:  MOVWF  xD6
04620:  MOVLW  9B
04622:  MOVWF  xD5
04624:  MOVFF  7C1,7D7
04628:  MOVLW  01
0462A:  MOVWF  xD8
0462C:  MOVLB  0
0462E:  CALL   1B44
....................       
....................       glcd_rect(x-1+(tamano*36), y-1, x+(tamano*48), y+(tamano*7), YES, ON); 
04632:  MOVLW  01
04634:  MOVLB  7
04636:  SUBWF  xBE,W
04638:  MOVWF  xC6
0463A:  MOVF   xC1,W
0463C:  MULLW  24
0463E:  MOVF   FF3,W
04640:  ADDWF  xC6,F
04642:  MOVLW  01
04644:  SUBWF  xBF,W
04646:  MOVWF  xC7
04648:  MOVF   xC1,W
0464A:  MULLW  30
0464C:  MOVF   FF3,W
0464E:  ADDWF  xBE,W
04650:  MOVWF  xC8
04652:  MOVF   xC1,W
04654:  MULLW  07
04656:  MOVF   FF3,W
04658:  ADDWF  xBF,W
0465A:  MOVWF  xC9
0465C:  MOVFF  7C6,7D3
04660:  MOVFF  7C7,7D4
04664:  MOVFF  7C8,7D5
04668:  MOVWF  xD6
0466A:  MOVLW  01
0466C:  MOVWF  xD7
0466E:  MOVWF  xD8
04670:  MOVLB  0
04672:  CALL   1E3A
....................       sprintf(voltage, "%02u", ano);  
04676:  MOVLW  07
04678:  MOVLB  7
0467A:  MOVWF  xBA
0467C:  MOVLW  C2
0467E:  MOVWF  xB9
04680:  MOVFF  7BD,7CC
04684:  MOVLW  01
04686:  MOVWF  xCD
04688:  MOVLB  0
0468A:  CALL   3CEA
....................       glcd_text57(x+(tamano*36), y, voltage, tamano, OFF); 
0468E:  MOVLB  7
04690:  MOVF   xC1,W
04692:  MULLW  24
04694:  MOVF   FF3,W
04696:  ADDWF  xBE,W
04698:  MOVWF  xC6
0469A:  MOVWF  xD3
0469C:  MOVFF  7BF,7D4
046A0:  MOVLW  07
046A2:  MOVWF  xD6
046A4:  MOVLW  C2
046A6:  MOVWF  xD5
046A8:  MOVFF  7C1,7D7
046AC:  CLRF   xD8
046AE:  MOVLB  0
046B0:  CALL   1B44
....................    }else{ 
046B4:  BRA    4834
046B6:  MOVLB  7
....................       glcd_rect(x, y-1, 127, y+(tamano*7), YES, OFF); 
046B8:  MOVLW  01
046BA:  SUBWF  xBF,W
046BC:  MOVWF  xC6
046BE:  MOVF   xC1,W
046C0:  MULLW  07
046C2:  MOVF   FF3,W
046C4:  ADDWF  xBF,W
046C6:  MOVWF  xC7
046C8:  MOVFF  7BE,7D3
046CC:  MOVFF  7C6,7D4
046D0:  MOVLW  7F
046D2:  MOVWF  xD5
046D4:  MOVFF  7C7,7D6
046D8:  MOVLW  01
046DA:  MOVWF  xD7
046DC:  CLRF   xD8
046DE:  MOVLB  0
046E0:  CALL   1E3A
....................       sprintf(voltage, "%02u", dia);  
046E4:  MOVLW  07
046E6:  MOVLB  7
046E8:  MOVWF  xBA
046EA:  MOVLW  C2
046EC:  MOVWF  xB9
046EE:  MOVFF  7BB,7CC
046F2:  MOVLW  01
046F4:  MOVWF  xCD
046F6:  MOVLB  0
046F8:  CALL   3CEA
....................       glcd_text57(x, y, voltage, tamano, ON); 
046FC:  MOVFF  7BE,7D3
04700:  MOVFF  7BF,7D4
04704:  MOVLW  07
04706:  MOVLB  7
04708:  MOVWF  xD6
0470A:  MOVLW  C2
0470C:  MOVWF  xD5
0470E:  MOVFF  7C1,7D7
04712:  MOVLW  01
04714:  MOVWF  xD8
04716:  MOVLB  0
04718:  CALL   1B44
....................       strcpy(Menus.Letra,"/"); 
0471C:  MOVLW  07
0471E:  MOVWF  FEA
04720:  MOVLW  9B
04722:  MOVWF  FE9
04724:  MOVFF  FF2,7C6
04728:  BCF    FF2.7
0472A:  MOVLW  00
0472C:  CALL   07DA
04730:  TBLRD*-
04732:  TBLRD*+
04734:  MOVF   FF5,W
04736:  MOVWF  FEE
04738:  IORLW  00
0473A:  BNZ   4732
0473C:  MOVLB  7
0473E:  BTFSC  xC6.7
04740:  BSF    FF2.7
....................       glcd_text57(x+(tamano*12), y, Menus.Letra, tamano, ON); 
04742:  MOVF   xC1,W
04744:  MULLW  0C
04746:  MOVF   FF3,W
04748:  ADDWF  xBE,W
0474A:  MOVWF  xC6
0474C:  MOVWF  xD3
0474E:  MOVFF  7BF,7D4
04752:  MOVLW  07
04754:  MOVWF  xD6
04756:  MOVLW  9B
04758:  MOVWF  xD5
0475A:  MOVFF  7C1,7D7
0475E:  MOVLW  01
04760:  MOVWF  xD8
04762:  MOVLB  0
04764:  CALL   1B44
....................              
....................       sprintf(voltage, "%02u", mes);  
04768:  MOVLW  07
0476A:  MOVLB  7
0476C:  MOVWF  xBA
0476E:  MOVLW  C2
04770:  MOVWF  xB9
04772:  MOVFF  7BC,7CC
04776:  MOVLW  01
04778:  MOVWF  xCD
0477A:  MOVLB  0
0477C:  CALL   3CEA
....................       glcd_text57(x+(tamano*18), y, voltage, tamano, ON); 
04780:  MOVLB  7
04782:  MOVF   xC1,W
04784:  MULLW  12
04786:  MOVF   FF3,W
04788:  ADDWF  xBE,W
0478A:  MOVWF  xC6
0478C:  MOVWF  xD3
0478E:  MOVFF  7BF,7D4
04792:  MOVLW  07
04794:  MOVWF  xD6
04796:  MOVLW  C2
04798:  MOVWF  xD5
0479A:  MOVFF  7C1,7D7
0479E:  MOVLW  01
047A0:  MOVWF  xD8
047A2:  MOVLB  0
047A4:  CALL   1B44
....................       strcpy(Menus.Letra,"/"); 
047A8:  MOVLW  07
047AA:  MOVWF  FEA
047AC:  MOVLW  9B
047AE:  MOVWF  FE9
047B0:  MOVFF  FF2,7C6
047B4:  BCF    FF2.7
047B6:  MOVLW  00
047B8:  CALL   07DA
047BC:  TBLRD*-
047BE:  TBLRD*+
047C0:  MOVF   FF5,W
047C2:  MOVWF  FEE
047C4:  IORLW  00
047C6:  BNZ   47BE
047C8:  MOVLB  7
047CA:  BTFSC  xC6.7
047CC:  BSF    FF2.7
....................       glcd_text57(x+(tamano*30), y, Menus.Letra, tamano, ON); 
047CE:  MOVF   xC1,W
047D0:  MULLW  1E
047D2:  MOVF   FF3,W
047D4:  ADDWF  xBE,W
047D6:  MOVWF  xC6
047D8:  MOVWF  xD3
047DA:  MOVFF  7BF,7D4
047DE:  MOVLW  07
047E0:  MOVWF  xD6
047E2:  MOVLW  9B
047E4:  MOVWF  xD5
047E6:  MOVFF  7C1,7D7
047EA:  MOVLW  01
047EC:  MOVWF  xD8
047EE:  MOVLB  0
047F0:  CALL   1B44
....................            
....................       sprintf(voltage, "%02u", ano);  
047F4:  MOVLW  07
047F6:  MOVLB  7
047F8:  MOVWF  xBA
047FA:  MOVLW  C2
047FC:  MOVWF  xB9
047FE:  MOVFF  7BD,7CC
04802:  MOVLW  01
04804:  MOVWF  xCD
04806:  MOVLB  0
04808:  CALL   3CEA
....................       glcd_text57(x+(tamano*36), y, voltage, tamano, ON); 
0480C:  MOVLB  7
0480E:  MOVF   xC1,W
04810:  MULLW  24
04812:  MOVF   FF3,W
04814:  ADDWF  xBE,W
04816:  MOVWF  xC6
04818:  MOVWF  xD3
0481A:  MOVFF  7BF,7D4
0481E:  MOVLW  07
04820:  MOVWF  xD6
04822:  MOVLW  C2
04824:  MOVWF  xD5
04826:  MOVFF  7C1,7D7
0482A:  MOVLW  01
0482C:  MOVWF  xD8
0482E:  MOVLB  0
04830:  CALL   1B44
....................    } 
....................    glcd_update(); 
04834:  CALL   1928
.................... } 
04838:  GOTO   132FC (RETURN)
....................  
.................... void displayHora(int8 hora, int8 minuto, int x, int y, int8 sombreado, int tamano){   
....................    char voltage[4]; 
....................    if(sombreado==4){ 
0483C:  MOVLB  7
0483E:  MOVF   xBF,W
04840:  SUBLW  04
04842:  BTFSS  FD8.2
04844:  BRA    4946
....................       sprintf(voltage, "%02u", hora);  
04846:  MOVLW  07
04848:  MOVWF  xBA
0484A:  MOVLW  C1
0484C:  MOVWF  xB9
0484E:  MOVFF  7BB,7CC
04852:  MOVLW  01
04854:  MOVWF  xCD
04856:  MOVLB  0
04858:  CALL   3CEA
....................       glcd_rect(x-1, y-1, x+(tamano*12), y+(tamano*7), YES, ON); 
0485C:  MOVLW  01
0485E:  MOVLB  7
04860:  SUBWF  xBD,W
04862:  MOVWF  xC5
04864:  MOVLW  01
04866:  SUBWF  xBE,W
04868:  MOVWF  xC6
0486A:  MOVF   xC0,W
0486C:  MULLW  0C
0486E:  MOVF   FF3,W
04870:  ADDWF  xBD,W
04872:  MOVWF  xC7
04874:  MOVF   xC0,W
04876:  MULLW  07
04878:  MOVF   FF3,W
0487A:  ADDWF  xBE,W
0487C:  MOVWF  xC8
0487E:  MOVFF  7C5,7D3
04882:  MOVFF  7C6,7D4
04886:  MOVFF  7C7,7D5
0488A:  MOVWF  xD6
0488C:  MOVLW  01
0488E:  MOVWF  xD7
04890:  MOVWF  xD8
04892:  MOVLB  0
04894:  CALL   1E3A
....................       glcd_text57(x, y, voltage, tamano, OFF); 
04898:  MOVFF  7BD,7D3
0489C:  MOVFF  7BE,7D4
048A0:  MOVLW  07
048A2:  MOVLB  7
048A4:  MOVWF  xD6
048A6:  MOVLW  C1
048A8:  MOVWF  xD5
048AA:  MOVFF  7C0,7D7
048AE:  CLRF   xD8
048B0:  MOVLB  0
048B2:  CALL   1B44
....................       strcpy(Menus.Letra,":"); 
048B6:  MOVLW  07
048B8:  MOVWF  FEA
048BA:  MOVLW  9B
048BC:  MOVWF  FE9
048BE:  MOVFF  FF2,7C5
048C2:  BCF    FF2.7
048C4:  MOVLW  00
048C6:  CALL   07FA
048CA:  TBLRD*-
048CC:  TBLRD*+
048CE:  MOVF   FF5,W
048D0:  MOVWF  FEE
048D2:  IORLW  00
048D4:  BNZ   48CC
048D6:  MOVLB  7
048D8:  BTFSC  xC5.7
048DA:  BSF    FF2.7
....................       glcd_text57(x+(tamano*12), y, Menus.Letra, tamano, ON); 
048DC:  MOVF   xC0,W
048DE:  MULLW  0C
048E0:  MOVF   FF3,W
048E2:  ADDWF  xBD,W
048E4:  MOVWF  xC5
048E6:  MOVWF  xD3
048E8:  MOVFF  7BE,7D4
048EC:  MOVLW  07
048EE:  MOVWF  xD6
048F0:  MOVLW  9B
048F2:  MOVWF  xD5
048F4:  MOVFF  7C0,7D7
048F8:  MOVLW  01
048FA:  MOVWF  xD8
048FC:  MOVLB  0
048FE:  CALL   1B44
....................        
....................       sprintf(voltage, "%02u", minuto);  
04902:  MOVLW  07
04904:  MOVLB  7
04906:  MOVWF  xBA
04908:  MOVLW  C1
0490A:  MOVWF  xB9
0490C:  MOVFF  7BC,7CC
04910:  MOVLW  01
04912:  MOVWF  xCD
04914:  MOVLB  0
04916:  CALL   3CEA
....................       glcd_text57(x+(tamano*18), y, voltage, tamano, ON); 
0491A:  MOVLB  7
0491C:  MOVF   xC0,W
0491E:  MULLW  12
04920:  MOVF   FF3,W
04922:  ADDWF  xBD,W
04924:  MOVWF  xC5
04926:  MOVWF  xD3
04928:  MOVFF  7BE,7D4
0492C:  MOVLW  07
0492E:  MOVWF  xD6
04930:  MOVLW  C1
04932:  MOVWF  xD5
04934:  MOVFF  7C0,7D7
04938:  MOVLW  01
0493A:  MOVWF  xD8
0493C:  MOVLB  0
0493E:  CALL   1B44
....................    }else if(sombreado==5){ 
04942:  BRA    4B46
04944:  MOVLB  7
04946:  MOVF   xBF,W
04948:  SUBLW  05
0494A:  BTFSS  FD8.2
0494C:  BRA    4A56
....................       sprintf(voltage, "%02u", hora);  
0494E:  MOVLW  07
04950:  MOVWF  xBA
04952:  MOVLW  C1
04954:  MOVWF  xB9
04956:  MOVFF  7BB,7CC
0495A:  MOVLW  01
0495C:  MOVWF  xCD
0495E:  MOVLB  0
04960:  CALL   3CEA
....................       glcd_text57(x, y, voltage, tamano, ON); 
04964:  MOVFF  7BD,7D3
04968:  MOVFF  7BE,7D4
0496C:  MOVLW  07
0496E:  MOVLB  7
04970:  MOVWF  xD6
04972:  MOVLW  C1
04974:  MOVWF  xD5
04976:  MOVFF  7C0,7D7
0497A:  MOVLW  01
0497C:  MOVWF  xD8
0497E:  MOVLB  0
04980:  CALL   1B44
....................       strcpy(Menus.Letra,":"); 
04984:  MOVLW  07
04986:  MOVWF  FEA
04988:  MOVLW  9B
0498A:  MOVWF  FE9
0498C:  MOVFF  FF2,7C5
04990:  BCF    FF2.7
04992:  MOVLW  00
04994:  CALL   07FA
04998:  TBLRD*-
0499A:  TBLRD*+
0499C:  MOVF   FF5,W
0499E:  MOVWF  FEE
049A0:  IORLW  00
049A2:  BNZ   499A
049A4:  MOVLB  7
049A6:  BTFSC  xC5.7
049A8:  BSF    FF2.7
....................       glcd_text57(x+(tamano*12), y, Menus.Letra, tamano, ON); 
049AA:  MOVF   xC0,W
049AC:  MULLW  0C
049AE:  MOVF   FF3,W
049B0:  ADDWF  xBD,W
049B2:  MOVWF  xC5
049B4:  MOVWF  xD3
049B6:  MOVFF  7BE,7D4
049BA:  MOVLW  07
049BC:  MOVWF  xD6
049BE:  MOVLW  9B
049C0:  MOVWF  xD5
049C2:  MOVFF  7C0,7D7
049C6:  MOVLW  01
049C8:  MOVWF  xD8
049CA:  MOVLB  0
049CC:  CALL   1B44
....................        
....................       glcd_rect(x-1+(tamano*18), y-1, x+(tamano*30), y+(tamano*7), YES, ON); 
049D0:  MOVLW  01
049D2:  MOVLB  7
049D4:  SUBWF  xBD,W
049D6:  MOVWF  xC5
049D8:  MOVF   xC0,W
049DA:  MULLW  12
049DC:  MOVF   FF3,W
049DE:  ADDWF  xC5,F
049E0:  MOVLW  01
049E2:  SUBWF  xBE,W
049E4:  MOVWF  xC6
049E6:  MOVF   xC0,W
049E8:  MULLW  1E
049EA:  MOVF   FF3,W
049EC:  ADDWF  xBD,W
049EE:  MOVWF  xC7
049F0:  MOVF   xC0,W
049F2:  MULLW  07
049F4:  MOVF   FF3,W
049F6:  ADDWF  xBE,W
049F8:  MOVWF  xC8
049FA:  MOVFF  7C5,7D3
049FE:  MOVFF  7C6,7D4
04A02:  MOVFF  7C7,7D5
04A06:  MOVWF  xD6
04A08:  MOVLW  01
04A0A:  MOVWF  xD7
04A0C:  MOVWF  xD8
04A0E:  MOVLB  0
04A10:  CALL   1E3A
....................       sprintf(voltage, "%02u", minuto);  
04A14:  MOVLW  07
04A16:  MOVLB  7
04A18:  MOVWF  xBA
04A1A:  MOVLW  C1
04A1C:  MOVWF  xB9
04A1E:  MOVFF  7BC,7CC
04A22:  MOVLW  01
04A24:  MOVWF  xCD
04A26:  MOVLB  0
04A28:  CALL   3CEA
....................       glcd_text57(x+(tamano*18), y, voltage, tamano, OFF); 
04A2C:  MOVLB  7
04A2E:  MOVF   xC0,W
04A30:  MULLW  12
04A32:  MOVF   FF3,W
04A34:  ADDWF  xBD,W
04A36:  MOVWF  xC5
04A38:  MOVWF  xD3
04A3A:  MOVFF  7BE,7D4
04A3E:  MOVLW  07
04A40:  MOVWF  xD6
04A42:  MOVLW  C1
04A44:  MOVWF  xD5
04A46:  MOVFF  7C0,7D7
04A4A:  CLRF   xD8
04A4C:  MOVLB  0
04A4E:  CALL   1B44
....................    }else{ 
04A52:  BRA    4B46
04A54:  MOVLB  7
....................       glcd_rect(x, y-1, 127, y+(tamano*7), YES, OFF); 
04A56:  MOVLW  01
04A58:  SUBWF  xBE,W
04A5A:  MOVWF  xC5
04A5C:  MOVF   xC0,W
04A5E:  MULLW  07
04A60:  MOVF   FF3,W
04A62:  ADDWF  xBE,W
04A64:  MOVWF  xC6
04A66:  MOVFF  7BD,7D3
04A6A:  MOVFF  7C5,7D4
04A6E:  MOVLW  7F
04A70:  MOVWF  xD5
04A72:  MOVFF  7C6,7D6
04A76:  MOVLW  01
04A78:  MOVWF  xD7
04A7A:  CLRF   xD8
04A7C:  MOVLB  0
04A7E:  CALL   1E3A
....................       sprintf(voltage, "%02u", hora);  
04A82:  MOVLW  07
04A84:  MOVLB  7
04A86:  MOVWF  xBA
04A88:  MOVLW  C1
04A8A:  MOVWF  xB9
04A8C:  MOVFF  7BB,7CC
04A90:  MOVLW  01
04A92:  MOVWF  xCD
04A94:  MOVLB  0
04A96:  CALL   3CEA
....................       glcd_text57(x, y, voltage, tamano, ON); 
04A9A:  MOVFF  7BD,7D3
04A9E:  MOVFF  7BE,7D4
04AA2:  MOVLW  07
04AA4:  MOVLB  7
04AA6:  MOVWF  xD6
04AA8:  MOVLW  C1
04AAA:  MOVWF  xD5
04AAC:  MOVFF  7C0,7D7
04AB0:  MOVLW  01
04AB2:  MOVWF  xD8
04AB4:  MOVLB  0
04AB6:  CALL   1B44
....................       strcpy(Menus.Letra,":"); 
04ABA:  MOVLW  07
04ABC:  MOVWF  FEA
04ABE:  MOVLW  9B
04AC0:  MOVWF  FE9
04AC2:  MOVFF  FF2,7C5
04AC6:  BCF    FF2.7
04AC8:  MOVLW  00
04ACA:  CALL   07FA
04ACE:  TBLRD*-
04AD0:  TBLRD*+
04AD2:  MOVF   FF5,W
04AD4:  MOVWF  FEE
04AD6:  IORLW  00
04AD8:  BNZ   4AD0
04ADA:  MOVLB  7
04ADC:  BTFSC  xC5.7
04ADE:  BSF    FF2.7
....................       glcd_text57(x+(tamano*12), y, Menus.Letra, tamano, ON); 
04AE0:  MOVF   xC0,W
04AE2:  MULLW  0C
04AE4:  MOVF   FF3,W
04AE6:  ADDWF  xBD,W
04AE8:  MOVWF  xC5
04AEA:  MOVWF  xD3
04AEC:  MOVFF  7BE,7D4
04AF0:  MOVLW  07
04AF2:  MOVWF  xD6
04AF4:  MOVLW  9B
04AF6:  MOVWF  xD5
04AF8:  MOVFF  7C0,7D7
04AFC:  MOVLW  01
04AFE:  MOVWF  xD8
04B00:  MOVLB  0
04B02:  CALL   1B44
....................              
....................       sprintf(voltage, "%02u", minuto);  
04B06:  MOVLW  07
04B08:  MOVLB  7
04B0A:  MOVWF  xBA
04B0C:  MOVLW  C1
04B0E:  MOVWF  xB9
04B10:  MOVFF  7BC,7CC
04B14:  MOVLW  01
04B16:  MOVWF  xCD
04B18:  MOVLB  0
04B1A:  CALL   3CEA
....................       glcd_text57(x+(tamano*18), y, voltage, tamano, ON); 
04B1E:  MOVLB  7
04B20:  MOVF   xC0,W
04B22:  MULLW  12
04B24:  MOVF   FF3,W
04B26:  ADDWF  xBD,W
04B28:  MOVWF  xC5
04B2A:  MOVWF  xD3
04B2C:  MOVFF  7BE,7D4
04B30:  MOVLW  07
04B32:  MOVWF  xD6
04B34:  MOVLW  C1
04B36:  MOVWF  xD5
04B38:  MOVFF  7C0,7D7
04B3C:  MOVLW  01
04B3E:  MOVWF  xD8
04B40:  MOVLB  0
04B42:  CALL   1B44
....................    } 
....................    glcd_update(); 
04B46:  CALL   1928
.................... } 
04B4A:  GOTO   1331C (RETURN)
....................  
.................... void displayFecha2(int8 dia, int8 mes, int8 ano,int x, int y, int8 sombreado, int tamano){   
....................    char voltage[4]; 
....................    
....................       sprintf(voltage, "%02u", dia);  
*
07D54:  MOVLW  07
07D56:  MOVLB  7
07D58:  MOVWF  xBA
07D5A:  MOVLW  C2
07D5C:  MOVWF  xB9
07D5E:  MOVFF  7BB,7CC
07D62:  MOVLW  01
07D64:  MOVWF  xCD
07D66:  MOVLB  0
07D68:  CALL   3CEA
....................       glcd_rect(x-1, y-1, x+(tamano*30), y+(tamano*7), YES, OFF); 
07D6C:  MOVLW  01
07D6E:  MOVLB  7
07D70:  SUBWF  xBE,W
07D72:  MOVWF  xC6
07D74:  MOVLW  01
07D76:  SUBWF  xBF,W
07D78:  MOVWF  xC7
07D7A:  MOVF   xC1,W
07D7C:  MULLW  1E
07D7E:  MOVF   FF3,W
07D80:  ADDWF  xBE,W
07D82:  MOVWF  xC8
07D84:  MOVF   xC1,W
07D86:  MULLW  07
07D88:  MOVF   FF3,W
07D8A:  ADDWF  xBF,W
07D8C:  MOVWF  xC9
07D8E:  MOVFF  7C6,7D3
07D92:  MOVFF  7C7,7D4
07D96:  MOVFF  7C8,7D5
07D9A:  MOVWF  xD6
07D9C:  MOVLW  01
07D9E:  MOVWF  xD7
07DA0:  CLRF   xD8
07DA2:  MOVLB  0
07DA4:  CALL   1E3A
....................       glcd_text57(x, y, voltage, tamano, ON); 
07DA8:  MOVFF  7BE,7D3
07DAC:  MOVFF  7BF,7D4
07DB0:  MOVLW  07
07DB2:  MOVLB  7
07DB4:  MOVWF  xD6
07DB6:  MOVLW  C2
07DB8:  MOVWF  xD5
07DBA:  MOVFF  7C1,7D7
07DBE:  MOVLW  01
07DC0:  MOVWF  xD8
07DC2:  MOVLB  0
07DC4:  CALL   1B44
....................       strcpy(Menus.Letra,"-"); 
07DC8:  MOVLW  07
07DCA:  MOVWF  FEA
07DCC:  MOVLW  9B
07DCE:  MOVWF  FE9
07DD0:  MOVFF  FF2,7C6
07DD4:  BCF    FF2.7
07DD6:  MOVLW  00
07DD8:  CALL   081A
07DDC:  TBLRD*-
07DDE:  TBLRD*+
07DE0:  MOVF   FF5,W
07DE2:  MOVWF  FEE
07DE4:  IORLW  00
07DE6:  BNZ   7DDE
07DE8:  MOVLB  7
07DEA:  BTFSC  xC6.7
07DEC:  BSF    FF2.7
....................       glcd_text57(x+(tamano*12), y, Menus.Letra, tamano, ON); 
07DEE:  MOVF   xC1,W
07DF0:  MULLW  0C
07DF2:  MOVF   FF3,W
07DF4:  ADDWF  xBE,W
07DF6:  MOVWF  xC6
07DF8:  MOVWF  xD3
07DFA:  MOVFF  7BF,7D4
07DFE:  MOVLW  07
07E00:  MOVWF  xD6
07E02:  MOVLW  9B
07E04:  MOVWF  xD5
07E06:  MOVFF  7C1,7D7
07E0A:  MOVLW  01
07E0C:  MOVWF  xD8
07E0E:  MOVLB  0
07E10:  CALL   1B44
....................        
....................       if(mes==1){ 
07E14:  MOVLB  7
07E16:  DECFSZ xBC,W
07E18:  BRA    7E70
....................          sprintf(voltage, "Ene");  
07E1A:  MOVLW  07
07E1C:  MOVWF  xBA
07E1E:  MOVLW  C2
07E20:  MOVWF  xB9
07E22:  MOVLW  45
07E24:  MOVWF  xDA
07E26:  MOVLB  0
07E28:  CALL   204E
07E2C:  MOVLW  6E
07E2E:  MOVLB  7
07E30:  MOVWF  xDA
07E32:  MOVLB  0
07E34:  CALL   204E
07E38:  MOVLW  65
07E3A:  MOVLB  7
07E3C:  MOVWF  xDA
07E3E:  MOVLB  0
07E40:  CALL   204E
....................          glcd_text57(x+(tamano*18), y, voltage, tamano, ON);  
07E44:  MOVLB  7
07E46:  MOVF   xC1,W
07E48:  MULLW  12
07E4A:  MOVF   FF3,W
07E4C:  ADDWF  xBE,W
07E4E:  MOVWF  xC6
07E50:  MOVWF  xD3
07E52:  MOVFF  7BF,7D4
07E56:  MOVLW  07
07E58:  MOVWF  xD6
07E5A:  MOVLW  C2
07E5C:  MOVWF  xD5
07E5E:  MOVFF  7C1,7D7
07E62:  MOVLW  01
07E64:  MOVWF  xD8
07E66:  MOVLB  0
07E68:  CALL   1B44
....................       }else if(mes==2){ 
07E6C:  BRA    8260
07E6E:  MOVLB  7
07E70:  MOVF   xBC,W
07E72:  SUBLW  02
07E74:  BNZ   7ECC
....................          sprintf(voltage, "Feb");  
07E76:  MOVLW  07
07E78:  MOVWF  xBA
07E7A:  MOVLW  C2
07E7C:  MOVWF  xB9
07E7E:  MOVLW  46
07E80:  MOVWF  xDA
07E82:  MOVLB  0
07E84:  CALL   204E
07E88:  MOVLW  65
07E8A:  MOVLB  7
07E8C:  MOVWF  xDA
07E8E:  MOVLB  0
07E90:  CALL   204E
07E94:  MOVLW  62
07E96:  MOVLB  7
07E98:  MOVWF  xDA
07E9A:  MOVLB  0
07E9C:  CALL   204E
....................          glcd_text57(x+(tamano*18), y, voltage, tamano, ON);  
07EA0:  MOVLB  7
07EA2:  MOVF   xC1,W
07EA4:  MULLW  12
07EA6:  MOVF   FF3,W
07EA8:  ADDWF  xBE,W
07EAA:  MOVWF  xC6
07EAC:  MOVWF  xD3
07EAE:  MOVFF  7BF,7D4
07EB2:  MOVLW  07
07EB4:  MOVWF  xD6
07EB6:  MOVLW  C2
07EB8:  MOVWF  xD5
07EBA:  MOVFF  7C1,7D7
07EBE:  MOVLW  01
07EC0:  MOVWF  xD8
07EC2:  MOVLB  0
07EC4:  CALL   1B44
....................       }else if(mes==3){ 
07EC8:  BRA    8260
07ECA:  MOVLB  7
07ECC:  MOVF   xBC,W
07ECE:  SUBLW  03
07ED0:  BNZ   7F28
....................          sprintf(voltage, "Mar");  
07ED2:  MOVLW  07
07ED4:  MOVWF  xBA
07ED6:  MOVLW  C2
07ED8:  MOVWF  xB9
07EDA:  MOVLW  4D
07EDC:  MOVWF  xDA
07EDE:  MOVLB  0
07EE0:  CALL   204E
07EE4:  MOVLW  61
07EE6:  MOVLB  7
07EE8:  MOVWF  xDA
07EEA:  MOVLB  0
07EEC:  CALL   204E
07EF0:  MOVLW  72
07EF2:  MOVLB  7
07EF4:  MOVWF  xDA
07EF6:  MOVLB  0
07EF8:  CALL   204E
....................          glcd_text57(x+(tamano*18), y, voltage, tamano, ON);  
07EFC:  MOVLB  7
07EFE:  MOVF   xC1,W
07F00:  MULLW  12
07F02:  MOVF   FF3,W
07F04:  ADDWF  xBE,W
07F06:  MOVWF  xC6
07F08:  MOVWF  xD3
07F0A:  MOVFF  7BF,7D4
07F0E:  MOVLW  07
07F10:  MOVWF  xD6
07F12:  MOVLW  C2
07F14:  MOVWF  xD5
07F16:  MOVFF  7C1,7D7
07F1A:  MOVLW  01
07F1C:  MOVWF  xD8
07F1E:  MOVLB  0
07F20:  CALL   1B44
....................       }else if(mes==4){ 
07F24:  BRA    8260
07F26:  MOVLB  7
07F28:  MOVF   xBC,W
07F2A:  SUBLW  04
07F2C:  BNZ   7F84
....................          sprintf(voltage, "Abr");  
07F2E:  MOVLW  07
07F30:  MOVWF  xBA
07F32:  MOVLW  C2
07F34:  MOVWF  xB9
07F36:  MOVLW  41
07F38:  MOVWF  xDA
07F3A:  MOVLB  0
07F3C:  CALL   204E
07F40:  MOVLW  62
07F42:  MOVLB  7
07F44:  MOVWF  xDA
07F46:  MOVLB  0
07F48:  CALL   204E
07F4C:  MOVLW  72
07F4E:  MOVLB  7
07F50:  MOVWF  xDA
07F52:  MOVLB  0
07F54:  CALL   204E
....................          glcd_text57(x+(tamano*18), y, voltage, tamano, ON);  
07F58:  MOVLB  7
07F5A:  MOVF   xC1,W
07F5C:  MULLW  12
07F5E:  MOVF   FF3,W
07F60:  ADDWF  xBE,W
07F62:  MOVWF  xC6
07F64:  MOVWF  xD3
07F66:  MOVFF  7BF,7D4
07F6A:  MOVLW  07
07F6C:  MOVWF  xD6
07F6E:  MOVLW  C2
07F70:  MOVWF  xD5
07F72:  MOVFF  7C1,7D7
07F76:  MOVLW  01
07F78:  MOVWF  xD8
07F7A:  MOVLB  0
07F7C:  CALL   1B44
....................       }else if(mes==5){ 
07F80:  BRA    8260
07F82:  MOVLB  7
07F84:  MOVF   xBC,W
07F86:  SUBLW  05
07F88:  BNZ   7FE0
....................          sprintf(voltage, "May");  
07F8A:  MOVLW  07
07F8C:  MOVWF  xBA
07F8E:  MOVLW  C2
07F90:  MOVWF  xB9
07F92:  MOVLW  4D
07F94:  MOVWF  xDA
07F96:  MOVLB  0
07F98:  CALL   204E
07F9C:  MOVLW  61
07F9E:  MOVLB  7
07FA0:  MOVWF  xDA
07FA2:  MOVLB  0
07FA4:  CALL   204E
07FA8:  MOVLW  79
07FAA:  MOVLB  7
07FAC:  MOVWF  xDA
07FAE:  MOVLB  0
07FB0:  CALL   204E
....................          glcd_text57(x+(tamano*18), y, voltage, tamano, ON);  
07FB4:  MOVLB  7
07FB6:  MOVF   xC1,W
07FB8:  MULLW  12
07FBA:  MOVF   FF3,W
07FBC:  ADDWF  xBE,W
07FBE:  MOVWF  xC6
07FC0:  MOVWF  xD3
07FC2:  MOVFF  7BF,7D4
07FC6:  MOVLW  07
07FC8:  MOVWF  xD6
07FCA:  MOVLW  C2
07FCC:  MOVWF  xD5
07FCE:  MOVFF  7C1,7D7
07FD2:  MOVLW  01
07FD4:  MOVWF  xD8
07FD6:  MOVLB  0
07FD8:  CALL   1B44
....................       }else if(mes==6){ 
07FDC:  BRA    8260
07FDE:  MOVLB  7
07FE0:  MOVF   xBC,W
07FE2:  SUBLW  06
07FE4:  BNZ   803C
....................          sprintf(voltage, "Jun");  
07FE6:  MOVLW  07
07FE8:  MOVWF  xBA
07FEA:  MOVLW  C2
07FEC:  MOVWF  xB9
07FEE:  MOVLW  4A
07FF0:  MOVWF  xDA
07FF2:  MOVLB  0
07FF4:  CALL   204E
07FF8:  MOVLW  75
07FFA:  MOVLB  7
07FFC:  MOVWF  xDA
07FFE:  MOVLB  0
08000:  CALL   204E
08004:  MOVLW  6E
08006:  MOVLB  7
08008:  MOVWF  xDA
0800A:  MOVLB  0
0800C:  CALL   204E
....................          glcd_text57(x+(tamano*18), y, voltage, tamano, ON);  
08010:  MOVLB  7
08012:  MOVF   xC1,W
08014:  MULLW  12
08016:  MOVF   FF3,W
08018:  ADDWF  xBE,W
0801A:  MOVWF  xC6
0801C:  MOVWF  xD3
0801E:  MOVFF  7BF,7D4
08022:  MOVLW  07
08024:  MOVWF  xD6
08026:  MOVLW  C2
08028:  MOVWF  xD5
0802A:  MOVFF  7C1,7D7
0802E:  MOVLW  01
08030:  MOVWF  xD8
08032:  MOVLB  0
08034:  CALL   1B44
....................       }else if(mes==7){ 
08038:  BRA    8260
0803A:  MOVLB  7
0803C:  MOVF   xBC,W
0803E:  SUBLW  07
08040:  BNZ   8098
....................          sprintf(voltage, "Jul");  
08042:  MOVLW  07
08044:  MOVWF  xBA
08046:  MOVLW  C2
08048:  MOVWF  xB9
0804A:  MOVLW  4A
0804C:  MOVWF  xDA
0804E:  MOVLB  0
08050:  CALL   204E
08054:  MOVLW  75
08056:  MOVLB  7
08058:  MOVWF  xDA
0805A:  MOVLB  0
0805C:  CALL   204E
08060:  MOVLW  6C
08062:  MOVLB  7
08064:  MOVWF  xDA
08066:  MOVLB  0
08068:  CALL   204E
....................          glcd_text57(x+(tamano*18), y, voltage, tamano, ON);  
0806C:  MOVLB  7
0806E:  MOVF   xC1,W
08070:  MULLW  12
08072:  MOVF   FF3,W
08074:  ADDWF  xBE,W
08076:  MOVWF  xC6
08078:  MOVWF  xD3
0807A:  MOVFF  7BF,7D4
0807E:  MOVLW  07
08080:  MOVWF  xD6
08082:  MOVLW  C2
08084:  MOVWF  xD5
08086:  MOVFF  7C1,7D7
0808A:  MOVLW  01
0808C:  MOVWF  xD8
0808E:  MOVLB  0
08090:  CALL   1B44
....................       }else if(mes==8){ 
08094:  BRA    8260
08096:  MOVLB  7
08098:  MOVF   xBC,W
0809A:  SUBLW  08
0809C:  BNZ   80F4
....................          sprintf(voltage, "Ago");  
0809E:  MOVLW  07
080A0:  MOVWF  xBA
080A2:  MOVLW  C2
080A4:  MOVWF  xB9
080A6:  MOVLW  41
080A8:  MOVWF  xDA
080AA:  MOVLB  0
080AC:  CALL   204E
080B0:  MOVLW  67
080B2:  MOVLB  7
080B4:  MOVWF  xDA
080B6:  MOVLB  0
080B8:  CALL   204E
080BC:  MOVLW  6F
080BE:  MOVLB  7
080C0:  MOVWF  xDA
080C2:  MOVLB  0
080C4:  CALL   204E
....................          glcd_text57(x+(tamano*18), y, voltage, tamano, ON);  
080C8:  MOVLB  7
080CA:  MOVF   xC1,W
080CC:  MULLW  12
080CE:  MOVF   FF3,W
080D0:  ADDWF  xBE,W
080D2:  MOVWF  xC6
080D4:  MOVWF  xD3
080D6:  MOVFF  7BF,7D4
080DA:  MOVLW  07
080DC:  MOVWF  xD6
080DE:  MOVLW  C2
080E0:  MOVWF  xD5
080E2:  MOVFF  7C1,7D7
080E6:  MOVLW  01
080E8:  MOVWF  xD8
080EA:  MOVLB  0
080EC:  CALL   1B44
....................       }else if(mes==9){ 
080F0:  BRA    8260
080F2:  MOVLB  7
080F4:  MOVF   xBC,W
080F6:  SUBLW  09
080F8:  BNZ   8150
....................          sprintf(voltage, "Sep");  
080FA:  MOVLW  07
080FC:  MOVWF  xBA
080FE:  MOVLW  C2
08100:  MOVWF  xB9
08102:  MOVLW  53
08104:  MOVWF  xDA
08106:  MOVLB  0
08108:  CALL   204E
0810C:  MOVLW  65
0810E:  MOVLB  7
08110:  MOVWF  xDA
08112:  MOVLB  0
08114:  CALL   204E
08118:  MOVLW  70
0811A:  MOVLB  7
0811C:  MOVWF  xDA
0811E:  MOVLB  0
08120:  CALL   204E
....................          glcd_text57(x+(tamano*18), y, voltage, tamano, ON);  
08124:  MOVLB  7
08126:  MOVF   xC1,W
08128:  MULLW  12
0812A:  MOVF   FF3,W
0812C:  ADDWF  xBE,W
0812E:  MOVWF  xC6
08130:  MOVWF  xD3
08132:  MOVFF  7BF,7D4
08136:  MOVLW  07
08138:  MOVWF  xD6
0813A:  MOVLW  C2
0813C:  MOVWF  xD5
0813E:  MOVFF  7C1,7D7
08142:  MOVLW  01
08144:  MOVWF  xD8
08146:  MOVLB  0
08148:  CALL   1B44
....................       }else if(mes==10){ 
0814C:  BRA    8260
0814E:  MOVLB  7
08150:  MOVF   xBC,W
08152:  SUBLW  0A
08154:  BNZ   81AC
....................          sprintf(voltage, "Oct");  
08156:  MOVLW  07
08158:  MOVWF  xBA
0815A:  MOVLW  C2
0815C:  MOVWF  xB9
0815E:  MOVLW  4F
08160:  MOVWF  xDA
08162:  MOVLB  0
08164:  CALL   204E
08168:  MOVLW  63
0816A:  MOVLB  7
0816C:  MOVWF  xDA
0816E:  MOVLB  0
08170:  CALL   204E
08174:  MOVLW  74
08176:  MOVLB  7
08178:  MOVWF  xDA
0817A:  MOVLB  0
0817C:  CALL   204E
....................          glcd_text57(x+(tamano*18), y, voltage, tamano, ON);  
08180:  MOVLB  7
08182:  MOVF   xC1,W
08184:  MULLW  12
08186:  MOVF   FF3,W
08188:  ADDWF  xBE,W
0818A:  MOVWF  xC6
0818C:  MOVWF  xD3
0818E:  MOVFF  7BF,7D4
08192:  MOVLW  07
08194:  MOVWF  xD6
08196:  MOVLW  C2
08198:  MOVWF  xD5
0819A:  MOVFF  7C1,7D7
0819E:  MOVLW  01
081A0:  MOVWF  xD8
081A2:  MOVLB  0
081A4:  CALL   1B44
....................       }else if(mes==12){ 
081A8:  BRA    8260
081AA:  MOVLB  7
081AC:  MOVF   xBC,W
081AE:  SUBLW  0C
081B0:  BNZ   8208
....................          sprintf(voltage, "Nov");  
081B2:  MOVLW  07
081B4:  MOVWF  xBA
081B6:  MOVLW  C2
081B8:  MOVWF  xB9
081BA:  MOVLW  4E
081BC:  MOVWF  xDA
081BE:  MOVLB  0
081C0:  CALL   204E
081C4:  MOVLW  6F
081C6:  MOVLB  7
081C8:  MOVWF  xDA
081CA:  MOVLB  0
081CC:  CALL   204E
081D0:  MOVLW  76
081D2:  MOVLB  7
081D4:  MOVWF  xDA
081D6:  MOVLB  0
081D8:  CALL   204E
....................          glcd_text57(x+(tamano*18), y, voltage, tamano, ON);  
081DC:  MOVLB  7
081DE:  MOVF   xC1,W
081E0:  MULLW  12
081E2:  MOVF   FF3,W
081E4:  ADDWF  xBE,W
081E6:  MOVWF  xC6
081E8:  MOVWF  xD3
081EA:  MOVFF  7BF,7D4
081EE:  MOVLW  07
081F0:  MOVWF  xD6
081F2:  MOVLW  C2
081F4:  MOVWF  xD5
081F6:  MOVFF  7C1,7D7
081FA:  MOVLW  01
081FC:  MOVWF  xD8
081FE:  MOVLB  0
08200:  CALL   1B44
....................       }else if(mes==12){ 
08204:  BRA    8260
08206:  MOVLB  7
08208:  MOVF   xBC,W
0820A:  SUBLW  0C
0820C:  BNZ   8260
....................          sprintf(voltage, "Dic");  
0820E:  MOVLW  07
08210:  MOVWF  xBA
08212:  MOVLW  C2
08214:  MOVWF  xB9
08216:  MOVLW  44
08218:  MOVWF  xDA
0821A:  MOVLB  0
0821C:  CALL   204E
08220:  MOVLW  69
08222:  MOVLB  7
08224:  MOVWF  xDA
08226:  MOVLB  0
08228:  CALL   204E
0822C:  MOVLW  63
0822E:  MOVLB  7
08230:  MOVWF  xDA
08232:  MOVLB  0
08234:  CALL   204E
....................          glcd_text57(x+(tamano*18), y, voltage, tamano, ON);  
08238:  MOVLB  7
0823A:  MOVF   xC1,W
0823C:  MULLW  12
0823E:  MOVF   FF3,W
08240:  ADDWF  xBE,W
08242:  MOVWF  xC6
08244:  MOVWF  xD3
08246:  MOVFF  7BF,7D4
0824A:  MOVLW  07
0824C:  MOVWF  xD6
0824E:  MOVLW  C2
08250:  MOVWF  xD5
08252:  MOVFF  7C1,7D7
08256:  MOVLW  01
08258:  MOVWF  xD8
0825A:  MOVLB  0
0825C:  CALL   1B44
....................       } 
....................       //strcpy(Menus.Letra,"/"); 
....................       //glcd_text57(x+(tamano*30), y, Menus.Letra, tamano, ON); 
....................        
....................       //sprintf(voltage, "%02u", ano);  
....................       //glcd_text57(x+(tamano*36), y, voltage, tamano, ON); 
....................    glcd_update(); 
08260:  MOVLB  0
08262:  CALL   1928
.................... } 
08266:  GOTO   15AEA (RETURN)
....................  
.................... void displayHora2(int8 hora, int8 minuto, int x, int y, int8 sombreado, int tamano){   
....................    char voltage[4]; 
....................       sprintf(voltage, "%02u", hora);  
*
07C4C:  MOVLW  07
07C4E:  MOVLB  7
07C50:  MOVWF  xBA
07C52:  MOVLW  C1
07C54:  MOVWF  xB9
07C56:  MOVFF  7BB,7CC
07C5A:  MOVLW  01
07C5C:  MOVWF  xCD
07C5E:  MOVLB  0
07C60:  CALL   3CEA
....................       glcd_rect(x-1, y-1, x+(tamano*30), y+(tamano*7), YES, OFF); 
07C64:  MOVLW  01
07C66:  MOVLB  7
07C68:  SUBWF  xBD,W
07C6A:  MOVWF  xC5
07C6C:  MOVLW  01
07C6E:  SUBWF  xBE,W
07C70:  MOVWF  xC6
07C72:  MOVF   xC0,W
07C74:  MULLW  1E
07C76:  MOVF   FF3,W
07C78:  ADDWF  xBD,W
07C7A:  MOVWF  xC7
07C7C:  MOVF   xC0,W
07C7E:  MULLW  07
07C80:  MOVF   FF3,W
07C82:  ADDWF  xBE,W
07C84:  MOVWF  xC8
07C86:  MOVFF  7C5,7D3
07C8A:  MOVFF  7C6,7D4
07C8E:  MOVFF  7C7,7D5
07C92:  MOVWF  xD6
07C94:  MOVLW  01
07C96:  MOVWF  xD7
07C98:  CLRF   xD8
07C9A:  MOVLB  0
07C9C:  CALL   1E3A
....................       glcd_text57(x, y, voltage, tamano, ON); 
07CA0:  MOVFF  7BD,7D3
07CA4:  MOVFF  7BE,7D4
07CA8:  MOVLW  07
07CAA:  MOVLB  7
07CAC:  MOVWF  xD6
07CAE:  MOVLW  C1
07CB0:  MOVWF  xD5
07CB2:  MOVFF  7C0,7D7
07CB6:  MOVLW  01
07CB8:  MOVWF  xD8
07CBA:  MOVLB  0
07CBC:  CALL   1B44
....................       strcpy(Menus.Letra,":"); 
07CC0:  MOVLW  07
07CC2:  MOVWF  FEA
07CC4:  MOVLW  9B
07CC6:  MOVWF  FE9
07CC8:  MOVFF  FF2,7C5
07CCC:  BCF    FF2.7
07CCE:  MOVLW  00
07CD0:  CALL   07FA
07CD4:  TBLRD*-
07CD6:  TBLRD*+
07CD8:  MOVF   FF5,W
07CDA:  MOVWF  FEE
07CDC:  IORLW  00
07CDE:  BNZ   7CD6
07CE0:  MOVLB  7
07CE2:  BTFSC  xC5.7
07CE4:  BSF    FF2.7
....................       glcd_text57(x+(tamano*12), y, Menus.Letra, tamano, ON); 
07CE6:  MOVF   xC0,W
07CE8:  MULLW  0C
07CEA:  MOVF   FF3,W
07CEC:  ADDWF  xBD,W
07CEE:  MOVWF  xC5
07CF0:  MOVWF  xD3
07CF2:  MOVFF  7BE,7D4
07CF6:  MOVLW  07
07CF8:  MOVWF  xD6
07CFA:  MOVLW  9B
07CFC:  MOVWF  xD5
07CFE:  MOVFF  7C0,7D7
07D02:  MOVLW  01
07D04:  MOVWF  xD8
07D06:  MOVLB  0
07D08:  CALL   1B44
....................       sprintf(voltage, "%02u", minuto);  
07D0C:  MOVLW  07
07D0E:  MOVLB  7
07D10:  MOVWF  xBA
07D12:  MOVLW  C1
07D14:  MOVWF  xB9
07D16:  MOVFF  7BC,7CC
07D1A:  MOVLW  01
07D1C:  MOVWF  xCD
07D1E:  MOVLB  0
07D20:  CALL   3CEA
....................       glcd_text57(x+(tamano*18), y, voltage, tamano, ON); 
07D24:  MOVLB  7
07D26:  MOVF   xC0,W
07D28:  MULLW  12
07D2A:  MOVF   FF3,W
07D2C:  ADDWF  xBD,W
07D2E:  MOVWF  xC5
07D30:  MOVWF  xD3
07D32:  MOVFF  7BE,7D4
07D36:  MOVLW  07
07D38:  MOVWF  xD6
07D3A:  MOVLW  C1
07D3C:  MOVWF  xD5
07D3E:  MOVFF  7C0,7D7
07D42:  MOVLW  01
07D44:  MOVWF  xD8
07D46:  MOVLB  0
07D48:  CALL   1B44
....................    
....................    glcd_update(); 
07D4C:  CALL   1928
.................... } 
07D50:  GOTO   15AC8 (RETURN)
....................  
.................... void menuAjustes(){ 
....................     
.................... //_--------------------------------------------------------------------------------------------------------------------------------------------------------       
....................       if(Menu==101){ // Menu de Ajuste de Ganancia 
*
08332:  MOVLB  5
08334:  MOVF   x72,W
08336:  SUBLW  65
08338:  BTFSS  FD8.2
0833A:  BRA    85E2
....................        
....................       if(Ganancia>40) 
0833C:  MOVLB  7
0833E:  CLRF   xBE
08340:  CLRF   xBD
08342:  MOVLW  20
08344:  MOVWF  xBC
08346:  MOVLW  84
08348:  MOVWF  xBB
0834A:  MOVFF  5F4,7C2
0834E:  MOVFF  5F3,7C1
08352:  MOVFF  5F2,7C0
08356:  MOVFF  5F1,7BF
0835A:  MOVLB  0
0835C:  CALL   223A
08360:  BNC   836E
....................       { 
....................          Ganancia=2; 
08362:  MOVLB  5
08364:  CLRF   xF4
08366:  CLRF   xF3
08368:  CLRF   xF2
0836A:  MOVLW  80
0836C:  MOVWF  xF1
....................       } 
....................        
....................       if(visual==1) 
0836E:  MOVLB  5
08370:  BTFSS  x6D.0
08372:  BRA    83FA
....................       { 
....................          glcd_fillScreen(OFF); 
08374:  MOVLB  7
08376:  CLRF   xBC
08378:  MOVLB  0
0837A:  CALL   18CE
....................          strcpy(Menus.Letra,"P"); 
0837E:  MOVLW  07
08380:  MOVWF  FEA
08382:  MOVLW  9B
08384:  MOVWF  FE9
08386:  MOVFF  FF2,7BB
0838A:  BCF    FF2.7
0838C:  MOVLW  00
0838E:  CALL   083A
08392:  TBLRD*-
08394:  TBLRD*+
08396:  MOVF   FF5,W
08398:  MOVWF  FEE
0839A:  IORLW  00
0839C:  BNZ   8394
0839E:  MOVLB  7
083A0:  BTFSC  xBB.7
083A2:  BSF    FF2.7
....................          displayMenu(Menus.Letra,0,0,1,2); 
083A4:  MOVLW  07
083A6:  MOVWF  xBF
083A8:  MOVLW  9B
083AA:  MOVWF  xBE
083AC:  CLRF   xC0
083AE:  CLRF   xC1
083B0:  MOVLW  01
083B2:  MOVWF  xC2
083B4:  MOVLW  02
083B6:  MOVWF  xC3
083B8:  MOVLB  0
083BA:  CALL   1EFC
....................           
....................          displayTemperatura(Ganancia,30,30,0,3); 
083BE:  MOVFF  5F4,7CA
083C2:  MOVFF  5F3,7C9
083C6:  MOVFF  5F2,7C8
083CA:  MOVFF  5F1,7C7
083CE:  CALL   68FA
083D2:  MOVFF  02,7BC
083D6:  MOVFF  01,7BB
083DA:  MOVFF  02,7C1
083DE:  MOVFF  01,7C0
083E2:  MOVLW  1E
083E4:  MOVLB  7
083E6:  MOVWF  xC2
083E8:  MOVWF  xC3
083EA:  CLRF   xC4
083EC:  MOVLW  03
083EE:  MOVWF  xC5
083F0:  MOVLB  0
083F2:  CALL   512C
....................           
....................          visual=0; 
083F6:  MOVLB  5
083F8:  BCF    x6D.0
....................       } 
....................        
....................          if(UP)//Si oprime hacia arriba 
083FA:  BSF    F92.5
083FC:  BTFSC  F80.5
083FE:  BRA    84A0
....................          {   
....................             Buzz_on;delay_ms(10);Buzz_off; 
08400:  BSF    F8B.4
08402:  BCF    F94.4
08404:  MOVLW  0A
08406:  MOVLB  7
08408:  MOVWF  xC1
0840A:  MOVLB  0
0840C:  CALL   184E
08410:  BCF    F8B.4
08412:  BCF    F94.4
....................             if(Ganancia>40) 
08414:  MOVLB  7
08416:  CLRF   xBE
08418:  CLRF   xBD
0841A:  MOVLW  20
0841C:  MOVWF  xBC
0841E:  MOVLW  84
08420:  MOVWF  xBB
08422:  MOVFF  5F4,7C2
08426:  MOVFF  5F3,7C1
0842A:  MOVFF  5F2,7C0
0842E:  MOVFF  5F1,7BF
08432:  MOVLB  0
08434:  CALL   223A
08438:  BNC   845C
....................             { 
....................                Ganancia=40;delay_ms(100);visual=1; 
0843A:  MOVLB  5
0843C:  CLRF   xF4
0843E:  CLRF   xF3
08440:  MOVLW  20
08442:  MOVWF  xF2
08444:  MOVLW  84
08446:  MOVWF  xF1
08448:  MOVLW  64
0844A:  MOVLB  7
0844C:  MOVWF  xC1
0844E:  MOVLB  0
08450:  CALL   184E
08454:  MOVLB  5
08456:  BSF    x6D.0
....................             } 
....................             else 
08458:  BRA    84A0
0845A:  MOVLB  0
....................             { 
....................                delay_ms(30);Ganancia+=1.0;visual=1; 
0845C:  MOVLW  1E
0845E:  MOVLB  7
08460:  MOVWF  xC1
08462:  MOVLB  0
08464:  CALL   184E
08468:  BCF    FD8.1
0846A:  MOVFF  5F4,7CA
0846E:  MOVFF  5F3,7C9
08472:  MOVFF  5F2,7C8
08476:  MOVFF  5F1,7C7
0847A:  MOVLB  7
0847C:  CLRF   xCE
0847E:  CLRF   xCD
08480:  CLRF   xCC
08482:  MOVLW  7F
08484:  MOVWF  xCB
08486:  MOVLB  0
08488:  CALL   2412
0848C:  MOVFF  03,5F4
08490:  MOVFF  02,5F3
08494:  MOVFF  01,5F2
08498:  MOVFF  00,5F1
0849C:  MOVLB  5
0849E:  BSF    x6D.0
....................             } 
....................          } 
....................                 
....................          if(DOWN)//Si oprime hacia abajo 
084A0:  BSF    F96.0
084A2:  BTFSC  F84.0
084A4:  BRA    8522
....................          {   
....................             Buzz_on;delay_ms(10);Buzz_off; 
084A6:  BSF    F8B.4
084A8:  BCF    F94.4
084AA:  MOVLW  0A
084AC:  MOVLB  7
084AE:  MOVWF  xC1
084B0:  MOVLB  0
084B2:  CALL   184E
084B6:  BCF    F8B.4
084B8:  BCF    F94.4
....................             if(Ganancia>1) 
084BA:  MOVLB  7
084BC:  CLRF   xBE
084BE:  CLRF   xBD
084C0:  CLRF   xBC
084C2:  MOVLW  7F
084C4:  MOVWF  xBB
084C6:  MOVFF  5F4,7C2
084CA:  MOVFF  5F3,7C1
084CE:  MOVFF  5F2,7C0
084D2:  MOVFF  5F1,7BF
084D6:  MOVLB  0
084D8:  CALL   223A
084DC:  BNC   8524
....................             { 
....................                delay_ms(30);Ganancia-=1.0;visual=1;      
084DE:  MOVLW  1E
084E0:  MOVLB  7
084E2:  MOVWF  xC1
084E4:  MOVLB  0
084E6:  CALL   184E
084EA:  BSF    FD8.1
084EC:  MOVFF  5F4,7CA
084F0:  MOVFF  5F3,7C9
084F4:  MOVFF  5F2,7C8
084F8:  MOVFF  5F1,7C7
084FC:  MOVLB  7
084FE:  CLRF   xCE
08500:  CLRF   xCD
08502:  CLRF   xCC
08504:  MOVLW  7F
08506:  MOVWF  xCB
08508:  MOVLB  0
0850A:  CALL   2412
0850E:  MOVFF  03,5F4
08512:  MOVFF  02,5F3
08516:  MOVFF  01,5F2
0851A:  MOVFF  00,5F1
0851E:  MOVLB  5
08520:  BSF    x6D.0
08522:  MOVLB  0
....................             } 
....................          } 
....................                 
....................          if(RIGHT)//Si oprime SET 
08524:  BSF    F96.1
08526:  BTFSC  F84.1
08528:  BRA    8550
....................          {   
....................             Buzz_on;delay_ms(10);Buzz_off; 
0852A:  BSF    F8B.4
0852C:  BCF    F94.4
0852E:  MOVLW  0A
08530:  MOVLB  7
08532:  MOVWF  xC1
08534:  MOVLB  0
08536:  CALL   184E
0853A:  BCF    F8B.4
0853C:  BCF    F94.4
....................             delay_ms(30);visual=1; 
0853E:  MOVLW  1E
08540:  MOVLB  7
08542:  MOVWF  xC1
08544:  MOVLB  0
08546:  CALL   184E
0854A:  MOVLB  5
0854C:  BSF    x6D.0
0854E:  MOVLB  0
....................          }  
....................                    
....................          if(LEFT)//Si oprime boton de Toma. 
08550:  BSF    F96.2
08552:  BTFSC  F84.2
08554:  BRA    85E0
....................          { 
....................             Buzz_on;delay_ms(10);Buzz_off; 
08556:  BSF    F8B.4
08558:  BCF    F94.4
0855A:  MOVLW  0A
0855C:  MOVLB  7
0855E:  MOVWF  xC1
08560:  MOVLB  0
08562:  CALL   184E
08566:  BCF    F8B.4
08568:  BCF    F94.4
....................             delay_ms(700);Menu=100;glcd_fillscreen(OFF);Opcion=1;visual=1; 
0856A:  MOVLW  04
0856C:  MOVLB  7
0856E:  MOVWF  xBB
08570:  MOVLW  AF
08572:  MOVWF  xC1
08574:  MOVLB  0
08576:  CALL   184E
0857A:  MOVLB  7
0857C:  DECFSZ xBB,F
0857E:  BRA    8570
08580:  MOVLW  64
08582:  MOVLB  5
08584:  MOVWF  x72
08586:  MOVLB  7
08588:  CLRF   xBC
0858A:  MOVLB  0
0858C:  CALL   18CE
08590:  MOVLW  01
08592:  MOVLB  5
08594:  MOVWF  x79
08596:  BSF    x6D.0
....................             write_eeprom(250,(int8)Ganancia); 
08598:  MOVFF  5F4,7CA
0859C:  MOVFF  5F3,7C9
085A0:  MOVFF  5F2,7C8
085A4:  MOVFF  5F1,7C7
085A8:  MOVLB  0
085AA:  CALL   68FA
085AE:  MOVFF  01,7BB
085B2:  CLRF   FAA
085B4:  MOVLW  FA
085B6:  MOVWF  FA9
085B8:  MOVFF  7BB,FA8
085BC:  BCF    FA6.6
085BE:  BCF    FA6.7
085C0:  BSF    FA6.2
085C2:  MOVF   FF2,W
085C4:  MOVWF  00
085C6:  BCF    FF2.7
085C8:  MOVLB  F
085CA:  MOVLW  55
085CC:  MOVWF  FA7
085CE:  MOVLW  AA
085D0:  MOVWF  FA7
085D2:  BSF    FA6.1
085D4:  BTFSC  FA6.1
085D6:  BRA    85D4
085D8:  BCF    FA6.2
085DA:  MOVF   00,W
085DC:  IORWF  FF2,F
085DE:  MOVLB  0
085E0:  MOVLB  5
....................          } 
....................      } 
.................... //_-------------------------------------------------------------------------------------------------------------------------------------------------------- 
....................  
.................... //_--------------------------------------------------------------------------------------------------------------------------------------------------------       
....................       if(Menu==102){ // Menu de Ajuste de Integral 
085E2:  MOVF   x72,W
085E4:  SUBLW  66
085E6:  BTFSS  FD8.2
085E8:  BRA    8892
....................        
....................       if(Integral>40) 
085EA:  MOVLB  7
085EC:  CLRF   xBE
085EE:  CLRF   xBD
085F0:  MOVLW  20
085F2:  MOVWF  xBC
085F4:  MOVLW  84
085F6:  MOVWF  xBB
085F8:  MOVFF  61C,7C2
085FC:  MOVFF  61B,7C1
08600:  MOVFF  61A,7C0
08604:  MOVFF  619,7BF
08608:  MOVLB  0
0860A:  CALL   223A
0860E:  BNC   861C
....................       { 
....................          Integral=1; 
08610:  MOVLB  6
08612:  CLRF   x1C
08614:  CLRF   x1B
08616:  CLRF   x1A
08618:  MOVLW  7F
0861A:  MOVWF  x19
....................       } 
....................        
....................       if(visual==1) 
0861C:  MOVLB  5
0861E:  BTFSS  x6D.0
08620:  BRA    86A8
....................       { 
....................          glcd_fillScreen(OFF); 
08622:  MOVLB  7
08624:  CLRF   xBC
08626:  MOVLB  0
08628:  CALL   18CE
....................          strcpy(Menus.Letra,"I"); 
0862C:  MOVLW  07
0862E:  MOVWF  FEA
08630:  MOVLW  9B
08632:  MOVWF  FE9
08634:  MOVFF  FF2,7BB
08638:  BCF    FF2.7
0863A:  MOVLW  00
0863C:  CALL   085A
08640:  TBLRD*-
08642:  TBLRD*+
08644:  MOVF   FF5,W
08646:  MOVWF  FEE
08648:  IORLW  00
0864A:  BNZ   8642
0864C:  MOVLB  7
0864E:  BTFSC  xBB.7
08650:  BSF    FF2.7
....................          displayMenu(Menus.Letra,0,0,1,2); 
08652:  MOVLW  07
08654:  MOVWF  xBF
08656:  MOVLW  9B
08658:  MOVWF  xBE
0865A:  CLRF   xC0
0865C:  CLRF   xC1
0865E:  MOVLW  01
08660:  MOVWF  xC2
08662:  MOVLW  02
08664:  MOVWF  xC3
08666:  MOVLB  0
08668:  CALL   1EFC
....................           
....................          displayTemperatura(Integral,30,30,0,3); 
0866C:  MOVFF  61C,7CA
08670:  MOVFF  61B,7C9
08674:  MOVFF  61A,7C8
08678:  MOVFF  619,7C7
0867C:  CALL   68FA
08680:  MOVFF  02,7BC
08684:  MOVFF  01,7BB
08688:  MOVFF  02,7C1
0868C:  MOVFF  01,7C0
08690:  MOVLW  1E
08692:  MOVLB  7
08694:  MOVWF  xC2
08696:  MOVWF  xC3
08698:  CLRF   xC4
0869A:  MOVLW  03
0869C:  MOVWF  xC5
0869E:  MOVLB  0
086A0:  CALL   512C
....................           
....................          visual=0; 
086A4:  MOVLB  5
086A6:  BCF    x6D.0
....................       } 
....................        
....................          if(UP)//Si oprime hacia arriba 
086A8:  BSF    F92.5
086AA:  BTFSC  F80.5
086AC:  BRA    874E
....................          {   
....................             Buzz_on;delay_ms(10);Buzz_off; 
086AE:  BSF    F8B.4
086B0:  BCF    F94.4
086B2:  MOVLW  0A
086B4:  MOVLB  7
086B6:  MOVWF  xC1
086B8:  MOVLB  0
086BA:  CALL   184E
086BE:  BCF    F8B.4
086C0:  BCF    F94.4
....................             if(Integral>40) 
086C2:  MOVLB  7
086C4:  CLRF   xBE
086C6:  CLRF   xBD
086C8:  MOVLW  20
086CA:  MOVWF  xBC
086CC:  MOVLW  84
086CE:  MOVWF  xBB
086D0:  MOVFF  61C,7C2
086D4:  MOVFF  61B,7C1
086D8:  MOVFF  61A,7C0
086DC:  MOVFF  619,7BF
086E0:  MOVLB  0
086E2:  CALL   223A
086E6:  BNC   870A
....................             { 
....................                Integral=40;delay_ms(100);visual=1; 
086E8:  MOVLB  6
086EA:  CLRF   x1C
086EC:  CLRF   x1B
086EE:  MOVLW  20
086F0:  MOVWF  x1A
086F2:  MOVLW  84
086F4:  MOVWF  x19
086F6:  MOVLW  64
086F8:  MOVLB  7
086FA:  MOVWF  xC1
086FC:  MOVLB  0
086FE:  CALL   184E
08702:  MOVLB  5
08704:  BSF    x6D.0
....................             } 
....................             else 
08706:  BRA    874E
08708:  MOVLB  0
....................             { 
....................                delay_ms(30);Integral+=1.0;visual=1; 
0870A:  MOVLW  1E
0870C:  MOVLB  7
0870E:  MOVWF  xC1
08710:  MOVLB  0
08712:  CALL   184E
08716:  BCF    FD8.1
08718:  MOVFF  61C,7CA
0871C:  MOVFF  61B,7C9
08720:  MOVFF  61A,7C8
08724:  MOVFF  619,7C7
08728:  MOVLB  7
0872A:  CLRF   xCE
0872C:  CLRF   xCD
0872E:  CLRF   xCC
08730:  MOVLW  7F
08732:  MOVWF  xCB
08734:  MOVLB  0
08736:  CALL   2412
0873A:  MOVFF  03,61C
0873E:  MOVFF  02,61B
08742:  MOVFF  01,61A
08746:  MOVFF  00,619
0874A:  MOVLB  5
0874C:  BSF    x6D.0
....................             } 
....................          } 
....................                 
....................          if(DOWN)//Si oprime hacia abajo 
0874E:  BSF    F96.0
08750:  BTFSC  F84.0
08752:  BRA    87D0
....................          {   
....................             Buzz_on;delay_ms(10);Buzz_off; 
08754:  BSF    F8B.4
08756:  BCF    F94.4
08758:  MOVLW  0A
0875A:  MOVLB  7
0875C:  MOVWF  xC1
0875E:  MOVLB  0
08760:  CALL   184E
08764:  BCF    F8B.4
08766:  BCF    F94.4
....................             if(Integral>1) 
08768:  MOVLB  7
0876A:  CLRF   xBE
0876C:  CLRF   xBD
0876E:  CLRF   xBC
08770:  MOVLW  7F
08772:  MOVWF  xBB
08774:  MOVFF  61C,7C2
08778:  MOVFF  61B,7C1
0877C:  MOVFF  61A,7C0
08780:  MOVFF  619,7BF
08784:  MOVLB  0
08786:  CALL   223A
0878A:  BNC   87D2
....................             { 
....................                delay_ms(30);Integral-=1.0;visual=1;      
0878C:  MOVLW  1E
0878E:  MOVLB  7
08790:  MOVWF  xC1
08792:  MOVLB  0
08794:  CALL   184E
08798:  BSF    FD8.1
0879A:  MOVFF  61C,7CA
0879E:  MOVFF  61B,7C9
087A2:  MOVFF  61A,7C8
087A6:  MOVFF  619,7C7
087AA:  MOVLB  7
087AC:  CLRF   xCE
087AE:  CLRF   xCD
087B0:  CLRF   xCC
087B2:  MOVLW  7F
087B4:  MOVWF  xCB
087B6:  MOVLB  0
087B8:  CALL   2412
087BC:  MOVFF  03,61C
087C0:  MOVFF  02,61B
087C4:  MOVFF  01,61A
087C8:  MOVFF  00,619
087CC:  MOVLB  5
087CE:  BSF    x6D.0
087D0:  MOVLB  0
....................             } 
....................          } 
....................                 
....................          if(RIGHT)//Si oprime SET 
087D2:  BSF    F96.1
087D4:  BTFSC  F84.1
087D6:  BRA    87FE
....................          {   
....................             Buzz_on;delay_ms(10);Buzz_off; 
087D8:  BSF    F8B.4
087DA:  BCF    F94.4
087DC:  MOVLW  0A
087DE:  MOVLB  7
087E0:  MOVWF  xC1
087E2:  MOVLB  0
087E4:  CALL   184E
087E8:  BCF    F8B.4
087EA:  BCF    F94.4
....................             delay_ms(30);visual=1; 
087EC:  MOVLW  1E
087EE:  MOVLB  7
087F0:  MOVWF  xC1
087F2:  MOVLB  0
087F4:  CALL   184E
087F8:  MOVLB  5
087FA:  BSF    x6D.0
087FC:  MOVLB  0
....................          }  
....................                    
....................          if(LEFT)//Si oprime boton de Toma. 
087FE:  BSF    F96.2
08800:  BTFSC  F84.2
08802:  BRA    8890
....................          { 
....................             Buzz_on;delay_ms(10);Buzz_off; 
08804:  BSF    F8B.4
08806:  BCF    F94.4
08808:  MOVLW  0A
0880A:  MOVLB  7
0880C:  MOVWF  xC1
0880E:  MOVLB  0
08810:  CALL   184E
08814:  BCF    F8B.4
08816:  BCF    F94.4
....................             delay_ms(700);Menu=100;glcd_fillscreen(OFF);Opcion=1;visual=1; 
08818:  MOVLW  04
0881A:  MOVLB  7
0881C:  MOVWF  xBB
0881E:  MOVLW  AF
08820:  MOVWF  xC1
08822:  MOVLB  0
08824:  CALL   184E
08828:  MOVLB  7
0882A:  DECFSZ xBB,F
0882C:  BRA    881E
0882E:  MOVLW  64
08830:  MOVLB  5
08832:  MOVWF  x72
08834:  MOVLB  7
08836:  CLRF   xBC
08838:  MOVLB  0
0883A:  CALL   18CE
0883E:  MOVLW  01
08840:  MOVLB  5
08842:  MOVWF  x79
08844:  BSF    x6D.0
....................             write_eeprom(270,(int8)Integral); 
08846:  MOVFF  61C,7CA
0884A:  MOVFF  61B,7C9
0884E:  MOVFF  61A,7C8
08852:  MOVFF  619,7C7
08856:  MOVLB  0
08858:  CALL   68FA
0885C:  MOVFF  01,7BB
08860:  MOVLW  01
08862:  MOVWF  FAA
08864:  MOVLW  0E
08866:  MOVWF  FA9
08868:  MOVFF  7BB,FA8
0886C:  BCF    FA6.6
0886E:  BCF    FA6.7
08870:  BSF    FA6.2
08872:  MOVF   FF2,W
08874:  MOVWF  00
08876:  BCF    FF2.7
08878:  MOVLB  F
0887A:  MOVLW  55
0887C:  MOVWF  FA7
0887E:  MOVLW  AA
08880:  MOVWF  FA7
08882:  BSF    FA6.1
08884:  BTFSC  FA6.1
08886:  BRA    8884
08888:  BCF    FA6.2
0888A:  MOVF   00,W
0888C:  IORWF  FF2,F
0888E:  MOVLB  0
08890:  MOVLB  5
....................          } 
....................      } 
.................... //_-------------------------------------------------------------------------------------------------------------------------------------------------------- 
....................  
.................... //_--------------------------------------------------------------------------------------------------------------------------------------------------------       
....................       if(Menu==103){ // Menu de Ajuste de Derivativo 
08892:  MOVF   x72,W
08894:  SUBLW  67
08896:  BTFSS  FD8.2
08898:  BRA    8B42
....................        
....................       if(Derivativo>200) 
0889A:  MOVLB  7
0889C:  CLRF   xBE
0889E:  CLRF   xBD
088A0:  MOVLW  48
088A2:  MOVWF  xBC
088A4:  MOVLW  86
088A6:  MOVWF  xBB
088A8:  MOVFF  620,7C2
088AC:  MOVFF  61F,7C1
088B0:  MOVFF  61E,7C0
088B4:  MOVFF  61D,7BF
088B8:  MOVLB  0
088BA:  CALL   223A
088BE:  BNC   88CC
....................       { 
....................          Derivativo=2; 
088C0:  MOVLB  6
088C2:  CLRF   x20
088C4:  CLRF   x1F
088C6:  CLRF   x1E
088C8:  MOVLW  80
088CA:  MOVWF  x1D
....................       } 
....................        
....................       if(visual==1) 
088CC:  MOVLB  5
088CE:  BTFSS  x6D.0
088D0:  BRA    8958
....................       { 
....................          glcd_fillScreen(OFF); 
088D2:  MOVLB  7
088D4:  CLRF   xBC
088D6:  MOVLB  0
088D8:  CALL   18CE
....................          strcpy(Menus.Letra,"D"); 
088DC:  MOVLW  07
088DE:  MOVWF  FEA
088E0:  MOVLW  9B
088E2:  MOVWF  FE9
088E4:  MOVFF  FF2,7BB
088E8:  BCF    FF2.7
088EA:  MOVLW  00
088EC:  CALL   087A
088F0:  TBLRD*-
088F2:  TBLRD*+
088F4:  MOVF   FF5,W
088F6:  MOVWF  FEE
088F8:  IORLW  00
088FA:  BNZ   88F2
088FC:  MOVLB  7
088FE:  BTFSC  xBB.7
08900:  BSF    FF2.7
....................          displayMenu(Menus.Letra,0,0,1,2); 
08902:  MOVLW  07
08904:  MOVWF  xBF
08906:  MOVLW  9B
08908:  MOVWF  xBE
0890A:  CLRF   xC0
0890C:  CLRF   xC1
0890E:  MOVLW  01
08910:  MOVWF  xC2
08912:  MOVLW  02
08914:  MOVWF  xC3
08916:  MOVLB  0
08918:  CALL   1EFC
....................           
....................          displayTemperatura(Derivativo,30,30,0,3); 
0891C:  MOVFF  620,7CA
08920:  MOVFF  61F,7C9
08924:  MOVFF  61E,7C8
08928:  MOVFF  61D,7C7
0892C:  CALL   68FA
08930:  MOVFF  02,7BC
08934:  MOVFF  01,7BB
08938:  MOVFF  02,7C1
0893C:  MOVFF  01,7C0
08940:  MOVLW  1E
08942:  MOVLB  7
08944:  MOVWF  xC2
08946:  MOVWF  xC3
08948:  CLRF   xC4
0894A:  MOVLW  03
0894C:  MOVWF  xC5
0894E:  MOVLB  0
08950:  CALL   512C
....................           
....................          visual=0; 
08954:  MOVLB  5
08956:  BCF    x6D.0
....................       } 
....................        
....................          if(UP)//Si oprime hacia arriba 
08958:  BSF    F92.5
0895A:  BTFSC  F80.5
0895C:  BRA    89FE
....................          {   
....................             Buzz_on;delay_ms(10);Buzz_off; 
0895E:  BSF    F8B.4
08960:  BCF    F94.4
08962:  MOVLW  0A
08964:  MOVLB  7
08966:  MOVWF  xC1
08968:  MOVLB  0
0896A:  CALL   184E
0896E:  BCF    F8B.4
08970:  BCF    F94.4
....................             if(Derivativo>200) 
08972:  MOVLB  7
08974:  CLRF   xBE
08976:  CLRF   xBD
08978:  MOVLW  48
0897A:  MOVWF  xBC
0897C:  MOVLW  86
0897E:  MOVWF  xBB
08980:  MOVFF  620,7C2
08984:  MOVFF  61F,7C1
08988:  MOVFF  61E,7C0
0898C:  MOVFF  61D,7BF
08990:  MOVLB  0
08992:  CALL   223A
08996:  BNC   89BA
....................             { 
....................                Derivativo=200;delay_ms(100);visual=1; 
08998:  MOVLB  6
0899A:  CLRF   x20
0899C:  CLRF   x1F
0899E:  MOVLW  48
089A0:  MOVWF  x1E
089A2:  MOVLW  86
089A4:  MOVWF  x1D
089A6:  MOVLW  64
089A8:  MOVLB  7
089AA:  MOVWF  xC1
089AC:  MOVLB  0
089AE:  CALL   184E
089B2:  MOVLB  5
089B4:  BSF    x6D.0
....................             } 
....................             else 
089B6:  BRA    89FE
089B8:  MOVLB  0
....................             { 
....................                delay_ms(30);Derivativo+=1.0;visual=1; 
089BA:  MOVLW  1E
089BC:  MOVLB  7
089BE:  MOVWF  xC1
089C0:  MOVLB  0
089C2:  CALL   184E
089C6:  BCF    FD8.1
089C8:  MOVFF  620,7CA
089CC:  MOVFF  61F,7C9
089D0:  MOVFF  61E,7C8
089D4:  MOVFF  61D,7C7
089D8:  MOVLB  7
089DA:  CLRF   xCE
089DC:  CLRF   xCD
089DE:  CLRF   xCC
089E0:  MOVLW  7F
089E2:  MOVWF  xCB
089E4:  MOVLB  0
089E6:  CALL   2412
089EA:  MOVFF  03,620
089EE:  MOVFF  02,61F
089F2:  MOVFF  01,61E
089F6:  MOVFF  00,61D
089FA:  MOVLB  5
089FC:  BSF    x6D.0
....................             } 
....................          } 
....................                 
....................          if(DOWN)//Si oprime hacia abajo 
089FE:  BSF    F96.0
08A00:  BTFSC  F84.0
08A02:  BRA    8A80
....................          {   
....................             Buzz_on;delay_ms(10);Buzz_off; 
08A04:  BSF    F8B.4
08A06:  BCF    F94.4
08A08:  MOVLW  0A
08A0A:  MOVLB  7
08A0C:  MOVWF  xC1
08A0E:  MOVLB  0
08A10:  CALL   184E
08A14:  BCF    F8B.4
08A16:  BCF    F94.4
....................             if(Derivativo>1) 
08A18:  MOVLB  7
08A1A:  CLRF   xBE
08A1C:  CLRF   xBD
08A1E:  CLRF   xBC
08A20:  MOVLW  7F
08A22:  MOVWF  xBB
08A24:  MOVFF  620,7C2
08A28:  MOVFF  61F,7C1
08A2C:  MOVFF  61E,7C0
08A30:  MOVFF  61D,7BF
08A34:  MOVLB  0
08A36:  CALL   223A
08A3A:  BNC   8A82
....................             { 
....................                delay_ms(30);Derivativo-=1.0;visual=1;      
08A3C:  MOVLW  1E
08A3E:  MOVLB  7
08A40:  MOVWF  xC1
08A42:  MOVLB  0
08A44:  CALL   184E
08A48:  BSF    FD8.1
08A4A:  MOVFF  620,7CA
08A4E:  MOVFF  61F,7C9
08A52:  MOVFF  61E,7C8
08A56:  MOVFF  61D,7C7
08A5A:  MOVLB  7
08A5C:  CLRF   xCE
08A5E:  CLRF   xCD
08A60:  CLRF   xCC
08A62:  MOVLW  7F
08A64:  MOVWF  xCB
08A66:  MOVLB  0
08A68:  CALL   2412
08A6C:  MOVFF  03,620
08A70:  MOVFF  02,61F
08A74:  MOVFF  01,61E
08A78:  MOVFF  00,61D
08A7C:  MOVLB  5
08A7E:  BSF    x6D.0
08A80:  MOVLB  0
....................             } 
....................          } 
....................                 
....................          if(RIGHT)//Si oprime SET 
08A82:  BSF    F96.1
08A84:  BTFSC  F84.1
08A86:  BRA    8AAE
....................          {   
....................             Buzz_on;delay_ms(10);Buzz_off; 
08A88:  BSF    F8B.4
08A8A:  BCF    F94.4
08A8C:  MOVLW  0A
08A8E:  MOVLB  7
08A90:  MOVWF  xC1
08A92:  MOVLB  0
08A94:  CALL   184E
08A98:  BCF    F8B.4
08A9A:  BCF    F94.4
....................             delay_ms(30);visual=1; 
08A9C:  MOVLW  1E
08A9E:  MOVLB  7
08AA0:  MOVWF  xC1
08AA2:  MOVLB  0
08AA4:  CALL   184E
08AA8:  MOVLB  5
08AAA:  BSF    x6D.0
08AAC:  MOVLB  0
....................          }  
....................                    
....................          if(LEFT)//Si oprime boton de Toma. 
08AAE:  BSF    F96.2
08AB0:  BTFSC  F84.2
08AB2:  BRA    8B40
....................          { 
....................             Buzz_on;delay_ms(10);Buzz_off; 
08AB4:  BSF    F8B.4
08AB6:  BCF    F94.4
08AB8:  MOVLW  0A
08ABA:  MOVLB  7
08ABC:  MOVWF  xC1
08ABE:  MOVLB  0
08AC0:  CALL   184E
08AC4:  BCF    F8B.4
08AC6:  BCF    F94.4
....................             delay_ms(700);Menu=100;glcd_fillscreen(OFF);Opcion=1;visual=1; 
08AC8:  MOVLW  04
08ACA:  MOVLB  7
08ACC:  MOVWF  xBB
08ACE:  MOVLW  AF
08AD0:  MOVWF  xC1
08AD2:  MOVLB  0
08AD4:  CALL   184E
08AD8:  MOVLB  7
08ADA:  DECFSZ xBB,F
08ADC:  BRA    8ACE
08ADE:  MOVLW  64
08AE0:  MOVLB  5
08AE2:  MOVWF  x72
08AE4:  MOVLB  7
08AE6:  CLRF   xBC
08AE8:  MOVLB  0
08AEA:  CALL   18CE
08AEE:  MOVLW  01
08AF0:  MOVLB  5
08AF2:  MOVWF  x79
08AF4:  BSF    x6D.0
....................             write_eeprom(271,(int8)Derivativo); 
08AF6:  MOVFF  620,7CA
08AFA:  MOVFF  61F,7C9
08AFE:  MOVFF  61E,7C8
08B02:  MOVFF  61D,7C7
08B06:  MOVLB  0
08B08:  CALL   68FA
08B0C:  MOVFF  01,7BB
08B10:  MOVLW  01
08B12:  MOVWF  FAA
08B14:  MOVLW  0F
08B16:  MOVWF  FA9
08B18:  MOVFF  7BB,FA8
08B1C:  BCF    FA6.6
08B1E:  BCF    FA6.7
08B20:  BSF    FA6.2
08B22:  MOVF   FF2,W
08B24:  MOVWF  00
08B26:  BCF    FF2.7
08B28:  MOVLB  F
08B2A:  MOVLW  55
08B2C:  MOVWF  FA7
08B2E:  MOVLW  AA
08B30:  MOVWF  FA7
08B32:  BSF    FA6.1
08B34:  BTFSC  FA6.1
08B36:  BRA    8B34
08B38:  BCF    FA6.2
08B3A:  MOVF   00,W
08B3C:  IORWF  FF2,F
08B3E:  MOVLB  0
08B40:  MOVLB  5
....................          } 
....................      } 
.................... //_-------------------------------------------------------------------------------------------------------------------------------------------------------- 
....................  
....................  
.................... //_--------------------------------------------------------------------------------------------------------------------------------------------------------       
....................       if(Menu==104){ // Menu de Ajuste de Ganancia2 
08B42:  MOVF   x72,W
08B44:  SUBLW  68
08B46:  BTFSS  FD8.2
08B48:  BRA    8DF2
....................        
....................       if(Tciclo>40) 
08B4A:  MOVLB  7
08B4C:  CLRF   xBE
08B4E:  CLRF   xBD
08B50:  MOVLW  20
08B52:  MOVWF  xBC
08B54:  MOVLW  84
08B56:  MOVWF  xBB
08B58:  MOVFF  5D8,7C2
08B5C:  MOVFF  5D7,7C1
08B60:  MOVFF  5D6,7C0
08B64:  MOVFF  5D5,7BF
08B68:  MOVLB  0
08B6A:  CALL   223A
08B6E:  BNC   8B7E
....................       { 
....................          Tciclo=40; 
08B70:  MOVLB  5
08B72:  CLRF   xD8
08B74:  CLRF   xD7
08B76:  MOVLW  20
08B78:  MOVWF  xD6
08B7A:  MOVLW  84
08B7C:  MOVWF  xD5
....................       } 
....................        
....................       if(visual==1) 
08B7E:  MOVLB  5
08B80:  BTFSS  x6D.0
08B82:  BRA    8C0A
....................       { 
....................          glcd_fillScreen(OFF); 
08B84:  MOVLB  7
08B86:  CLRF   xBC
08B88:  MOVLB  0
08B8A:  CALL   18CE
....................          strcpy(Menus.Letra,"Tciclo"); 
08B8E:  MOVLW  07
08B90:  MOVWF  FEA
08B92:  MOVLW  9B
08B94:  MOVWF  FE9
08B96:  MOVFF  FF2,7BB
08B9A:  BCF    FF2.7
08B9C:  MOVLW  00
08B9E:  CALL   089A
08BA2:  TBLRD*-
08BA4:  TBLRD*+
08BA6:  MOVF   FF5,W
08BA8:  MOVWF  FEE
08BAA:  IORLW  00
08BAC:  BNZ   8BA4
08BAE:  MOVLB  7
08BB0:  BTFSC  xBB.7
08BB2:  BSF    FF2.7
....................          displayMenu(Menus.Letra,0,0,1,2); 
08BB4:  MOVLW  07
08BB6:  MOVWF  xBF
08BB8:  MOVLW  9B
08BBA:  MOVWF  xBE
08BBC:  CLRF   xC0
08BBE:  CLRF   xC1
08BC0:  MOVLW  01
08BC2:  MOVWF  xC2
08BC4:  MOVLW  02
08BC6:  MOVWF  xC3
08BC8:  MOVLB  0
08BCA:  CALL   1EFC
....................           
....................          displayTemperatura(Tciclo,30,30,0,3); 
08BCE:  MOVFF  5D8,7CA
08BD2:  MOVFF  5D7,7C9
08BD6:  MOVFF  5D6,7C8
08BDA:  MOVFF  5D5,7C7
08BDE:  CALL   68FA
08BE2:  MOVFF  02,7BC
08BE6:  MOVFF  01,7BB
08BEA:  MOVFF  02,7C1
08BEE:  MOVFF  01,7C0
08BF2:  MOVLW  1E
08BF4:  MOVLB  7
08BF6:  MOVWF  xC2
08BF8:  MOVWF  xC3
08BFA:  CLRF   xC4
08BFC:  MOVLW  03
08BFE:  MOVWF  xC5
08C00:  MOVLB  0
08C02:  CALL   512C
....................           
....................          visual=0; 
08C06:  MOVLB  5
08C08:  BCF    x6D.0
....................       } 
....................        
....................          if(UP)//Si oprime hacia arriba 
08C0A:  BSF    F92.5
08C0C:  BTFSC  F80.5
08C0E:  BRA    8CB0
....................          {   
....................             Buzz_on;delay_ms(10);Buzz_off; 
08C10:  BSF    F8B.4
08C12:  BCF    F94.4
08C14:  MOVLW  0A
08C16:  MOVLB  7
08C18:  MOVWF  xC1
08C1A:  MOVLB  0
08C1C:  CALL   184E
08C20:  BCF    F8B.4
08C22:  BCF    F94.4
....................             if(Tciclo>40) 
08C24:  MOVLB  7
08C26:  CLRF   xBE
08C28:  CLRF   xBD
08C2A:  MOVLW  20
08C2C:  MOVWF  xBC
08C2E:  MOVLW  84
08C30:  MOVWF  xBB
08C32:  MOVFF  5D8,7C2
08C36:  MOVFF  5D7,7C1
08C3A:  MOVFF  5D6,7C0
08C3E:  MOVFF  5D5,7BF
08C42:  MOVLB  0
08C44:  CALL   223A
08C48:  BNC   8C6C
....................             { 
....................                Tciclo=40;delay_ms(100);visual=1; 
08C4A:  MOVLB  5
08C4C:  CLRF   xD8
08C4E:  CLRF   xD7
08C50:  MOVLW  20
08C52:  MOVWF  xD6
08C54:  MOVLW  84
08C56:  MOVWF  xD5
08C58:  MOVLW  64
08C5A:  MOVLB  7
08C5C:  MOVWF  xC1
08C5E:  MOVLB  0
08C60:  CALL   184E
08C64:  MOVLB  5
08C66:  BSF    x6D.0
....................             } 
....................             else 
08C68:  BRA    8CB0
08C6A:  MOVLB  0
....................             { 
....................                delay_ms(30);Tciclo+=1.0;visual=1; 
08C6C:  MOVLW  1E
08C6E:  MOVLB  7
08C70:  MOVWF  xC1
08C72:  MOVLB  0
08C74:  CALL   184E
08C78:  BCF    FD8.1
08C7A:  MOVFF  5D8,7CA
08C7E:  MOVFF  5D7,7C9
08C82:  MOVFF  5D6,7C8
08C86:  MOVFF  5D5,7C7
08C8A:  MOVLB  7
08C8C:  CLRF   xCE
08C8E:  CLRF   xCD
08C90:  CLRF   xCC
08C92:  MOVLW  7F
08C94:  MOVWF  xCB
08C96:  MOVLB  0
08C98:  CALL   2412
08C9C:  MOVFF  03,5D8
08CA0:  MOVFF  02,5D7
08CA4:  MOVFF  01,5D6
08CA8:  MOVFF  00,5D5
08CAC:  MOVLB  5
08CAE:  BSF    x6D.0
....................             } 
....................          } 
....................                 
....................          if(DOWN)//Si oprime hacia abajo 
08CB0:  BSF    F96.0
08CB2:  BTFSC  F84.0
08CB4:  BRA    8D32
....................          {   
....................             Buzz_on;delay_ms(10);Buzz_off; 
08CB6:  BSF    F8B.4
08CB8:  BCF    F94.4
08CBA:  MOVLW  0A
08CBC:  MOVLB  7
08CBE:  MOVWF  xC1
08CC0:  MOVLB  0
08CC2:  CALL   184E
08CC6:  BCF    F8B.4
08CC8:  BCF    F94.4
....................             if(Tciclo>1) 
08CCA:  MOVLB  7
08CCC:  CLRF   xBE
08CCE:  CLRF   xBD
08CD0:  CLRF   xBC
08CD2:  MOVLW  7F
08CD4:  MOVWF  xBB
08CD6:  MOVFF  5D8,7C2
08CDA:  MOVFF  5D7,7C1
08CDE:  MOVFF  5D6,7C0
08CE2:  MOVFF  5D5,7BF
08CE6:  MOVLB  0
08CE8:  CALL   223A
08CEC:  BNC   8D34
....................             { 
....................                delay_ms(30);Tciclo-=1.0;visual=1;      
08CEE:  MOVLW  1E
08CF0:  MOVLB  7
08CF2:  MOVWF  xC1
08CF4:  MOVLB  0
08CF6:  CALL   184E
08CFA:  BSF    FD8.1
08CFC:  MOVFF  5D8,7CA
08D00:  MOVFF  5D7,7C9
08D04:  MOVFF  5D6,7C8
08D08:  MOVFF  5D5,7C7
08D0C:  MOVLB  7
08D0E:  CLRF   xCE
08D10:  CLRF   xCD
08D12:  CLRF   xCC
08D14:  MOVLW  7F
08D16:  MOVWF  xCB
08D18:  MOVLB  0
08D1A:  CALL   2412
08D1E:  MOVFF  03,5D8
08D22:  MOVFF  02,5D7
08D26:  MOVFF  01,5D6
08D2A:  MOVFF  00,5D5
08D2E:  MOVLB  5
08D30:  BSF    x6D.0
08D32:  MOVLB  0
....................             } 
....................          } 
....................                 
....................          if(RIGHT)//Si oprime SET 
08D34:  BSF    F96.1
08D36:  BTFSC  F84.1
08D38:  BRA    8D60
....................          {   
....................             Buzz_on;delay_ms(10);Buzz_off; 
08D3A:  BSF    F8B.4
08D3C:  BCF    F94.4
08D3E:  MOVLW  0A
08D40:  MOVLB  7
08D42:  MOVWF  xC1
08D44:  MOVLB  0
08D46:  CALL   184E
08D4A:  BCF    F8B.4
08D4C:  BCF    F94.4
....................             delay_ms(30);visual=1; 
08D4E:  MOVLW  1E
08D50:  MOVLB  7
08D52:  MOVWF  xC1
08D54:  MOVLB  0
08D56:  CALL   184E
08D5A:  MOVLB  5
08D5C:  BSF    x6D.0
08D5E:  MOVLB  0
....................          }  
....................                    
....................          if(LEFT)//Si oprime boton de Toma. 
08D60:  BSF    F96.2
08D62:  BTFSC  F84.2
08D64:  BRA    8DF0
....................          { 
....................             Buzz_on;delay_ms(10);Buzz_off; 
08D66:  BSF    F8B.4
08D68:  BCF    F94.4
08D6A:  MOVLW  0A
08D6C:  MOVLB  7
08D6E:  MOVWF  xC1
08D70:  MOVLB  0
08D72:  CALL   184E
08D76:  BCF    F8B.4
08D78:  BCF    F94.4
....................             delay_ms(700);Menu=100;glcd_fillscreen(OFF);Opcion=1;visual=1; 
08D7A:  MOVLW  04
08D7C:  MOVLB  7
08D7E:  MOVWF  xBB
08D80:  MOVLW  AF
08D82:  MOVWF  xC1
08D84:  MOVLB  0
08D86:  CALL   184E
08D8A:  MOVLB  7
08D8C:  DECFSZ xBB,F
08D8E:  BRA    8D80
08D90:  MOVLW  64
08D92:  MOVLB  5
08D94:  MOVWF  x72
08D96:  MOVLB  7
08D98:  CLRF   xBC
08D9A:  MOVLB  0
08D9C:  CALL   18CE
08DA0:  MOVLW  01
08DA2:  MOVLB  5
08DA4:  MOVWF  x79
08DA6:  BSF    x6D.0
....................             write_eeprom(251,(int8)Tciclo); 
08DA8:  MOVFF  5D8,7CA
08DAC:  MOVFF  5D7,7C9
08DB0:  MOVFF  5D6,7C8
08DB4:  MOVFF  5D5,7C7
08DB8:  MOVLB  0
08DBA:  CALL   68FA
08DBE:  MOVFF  01,7BB
08DC2:  CLRF   FAA
08DC4:  MOVLW  FB
08DC6:  MOVWF  FA9
08DC8:  MOVFF  7BB,FA8
08DCC:  BCF    FA6.6
08DCE:  BCF    FA6.7
08DD0:  BSF    FA6.2
08DD2:  MOVF   FF2,W
08DD4:  MOVWF  00
08DD6:  BCF    FF2.7
08DD8:  MOVLB  F
08DDA:  MOVLW  55
08DDC:  MOVWF  FA7
08DDE:  MOVLW  AA
08DE0:  MOVWF  FA7
08DE2:  BSF    FA6.1
08DE4:  BTFSC  FA6.1
08DE6:  BRA    8DE4
08DE8:  BCF    FA6.2
08DEA:  MOVF   00,W
08DEC:  IORWF  FF2,F
08DEE:  MOVLB  0
08DF0:  MOVLB  5
....................          } 
....................      } 
.................... //_-------------------------------------------------------------------------------------------------------------------------------------------------------- 
....................  
.................... //_--------------------------------------------------------------------------------------------------------------------------------------------------------       
....................       if(Menu==105){ // Menu de Ajuste de Ajuste 
08DF2:  MOVF   x72,W
08DF4:  SUBLW  69
08DF6:  BTFSS  FD8.2
08DF8:  BRA    9018
....................        
....................       if(Ajuste>100) 
08DFA:  MOVF   x62,W
08DFC:  SUBLW  64
08DFE:  BC    8E02
....................       { 
....................          Ajuste=0; 
08E00:  CLRF   x62
....................       } 
....................        
....................       if(visual==1) 
08E02:  BTFSS  x6D.0
08E04:  BRA    8E6E
....................       { 
....................          glcd_fillScreen(OFF); 
08E06:  MOVLB  7
08E08:  CLRF   xBC
08E0A:  MOVLB  0
08E0C:  CALL   18CE
....................          strcpy(Menus.Letra,"Ajuste"); 
08E10:  MOVLW  07
08E12:  MOVWF  FEA
08E14:  MOVLW  9B
08E16:  MOVWF  FE9
08E18:  MOVFF  FF2,7BB
08E1C:  BCF    FF2.7
08E1E:  MOVLW  00
08E20:  CALL   08C0
08E24:  TBLRD*-
08E26:  TBLRD*+
08E28:  MOVF   FF5,W
08E2A:  MOVWF  FEE
08E2C:  IORLW  00
08E2E:  BNZ   8E26
08E30:  MOVLB  7
08E32:  BTFSC  xBB.7
08E34:  BSF    FF2.7
....................          displayMenu(Menus.Letra,0,0,1,2); 
08E36:  MOVLW  07
08E38:  MOVWF  xBF
08E3A:  MOVLW  9B
08E3C:  MOVWF  xBE
08E3E:  CLRF   xC0
08E40:  CLRF   xC1
08E42:  MOVLW  01
08E44:  MOVWF  xC2
08E46:  MOVLW  02
08E48:  MOVWF  xC3
08E4A:  MOVLB  0
08E4C:  CALL   1EFC
....................           
....................          displayTemperatura(Ajuste,30,30,0,3); 
08E50:  MOVLB  7
08E52:  CLRF   xC1
08E54:  MOVFF  562,7C0
08E58:  MOVLW  1E
08E5A:  MOVWF  xC2
08E5C:  MOVWF  xC3
08E5E:  CLRF   xC4
08E60:  MOVLW  03
08E62:  MOVWF  xC5
08E64:  MOVLB  0
08E66:  CALL   512C
....................           
....................          visual=0; 
08E6A:  MOVLB  5
08E6C:  BCF    x6D.0
....................       } 
....................        
....................          if(UP)//Si oprime hacia arriba 
08E6E:  BSF    F92.5
08E70:  BTFSC  F80.5
08E72:  BRA    8EFE
....................          {   
....................             Buzz_on;delay_ms(10);Buzz_off; 
08E74:  BSF    F8B.4
08E76:  BCF    F94.4
08E78:  MOVLW  0A
08E7A:  MOVLB  7
08E7C:  MOVWF  xC1
08E7E:  MOVLB  0
08E80:  CALL   184E
08E84:  BCF    F8B.4
08E86:  BCF    F94.4
....................             if(Ajuste>100) 
08E88:  MOVLB  5
08E8A:  MOVF   x62,W
08E8C:  SUBLW  64
08E8E:  BC    8EA4
....................             { 
....................                Ajuste=100;delay_ms(100);visual=1; 
08E90:  MOVLW  64
08E92:  MOVWF  x62
08E94:  MOVLB  7
08E96:  MOVWF  xC1
08E98:  MOVLB  0
08E9A:  CALL   184E
08E9E:  MOVLB  5
08EA0:  BSF    x6D.0
....................             } 
....................             else 
08EA2:  BRA    8EFE
....................             { 
....................                delay_ms(30);Ajuste+=1.0;visual=1; 
08EA4:  MOVLW  1E
08EA6:  MOVLB  7
08EA8:  MOVWF  xC1
08EAA:  MOVLB  0
08EAC:  CALL   184E
08EB0:  MOVLB  7
08EB2:  CLRF   xC8
08EB4:  MOVFF  562,7C7
08EB8:  MOVLB  0
08EBA:  CALL   2204
08EBE:  BCF    FD8.1
08EC0:  MOVFF  03,7CA
08EC4:  MOVFF  02,7C9
08EC8:  MOVFF  01,7C8
08ECC:  MOVFF  00,7C7
08ED0:  MOVLB  7
08ED2:  CLRF   xCE
08ED4:  CLRF   xCD
08ED6:  CLRF   xCC
08ED8:  MOVLW  7F
08EDA:  MOVWF  xCB
08EDC:  MOVLB  0
08EDE:  CALL   2412
08EE2:  MOVFF  03,7CA
08EE6:  MOVFF  02,7C9
08EEA:  MOVFF  01,7C8
08EEE:  MOVFF  00,7C7
08EF2:  CALL   68FA
08EF6:  MOVFF  01,562
08EFA:  MOVLB  5
08EFC:  BSF    x6D.0
....................             } 
....................          } 
....................                 
....................          if(DOWN)//Si oprime hacia abajo 
08EFE:  BSF    F96.0
08F00:  BTFSC  F84.0
08F02:  BRA    8F78
....................          {   
....................             Buzz_on;delay_ms(10);Buzz_off; 
08F04:  BSF    F8B.4
08F06:  BCF    F94.4
08F08:  MOVLW  0A
08F0A:  MOVLB  7
08F0C:  MOVWF  xC1
08F0E:  MOVLB  0
08F10:  CALL   184E
08F14:  BCF    F8B.4
08F16:  BCF    F94.4
....................             if(Ajuste>0) 
08F18:  MOVLB  5
08F1A:  MOVF   x62,F
08F1C:  BZ    8F78
....................             { 
....................                delay_ms(30);Ajuste-=1.0;visual=1;      
08F1E:  MOVLW  1E
08F20:  MOVLB  7
08F22:  MOVWF  xC1
08F24:  MOVLB  0
08F26:  CALL   184E
08F2A:  MOVLB  7
08F2C:  CLRF   xC8
08F2E:  MOVFF  562,7C7
08F32:  MOVLB  0
08F34:  CALL   2204
08F38:  BSF    FD8.1
08F3A:  MOVFF  03,7CA
08F3E:  MOVFF  02,7C9
08F42:  MOVFF  01,7C8
08F46:  MOVFF  00,7C7
08F4A:  MOVLB  7
08F4C:  CLRF   xCE
08F4E:  CLRF   xCD
08F50:  CLRF   xCC
08F52:  MOVLW  7F
08F54:  MOVWF  xCB
08F56:  MOVLB  0
08F58:  CALL   2412
08F5C:  MOVFF  03,7CA
08F60:  MOVFF  02,7C9
08F64:  MOVFF  01,7C8
08F68:  MOVFF  00,7C7
08F6C:  CALL   68FA
08F70:  MOVFF  01,562
08F74:  MOVLB  5
08F76:  BSF    x6D.0
....................             } 
....................          } 
....................                 
....................          if(RIGHT)//Si oprime SET 
08F78:  BSF    F96.1
08F7A:  BTFSC  F84.1
08F7C:  BRA    8FA2
....................          {   
....................             Buzz_on;delay_ms(10);Buzz_off; 
08F7E:  BSF    F8B.4
08F80:  BCF    F94.4
08F82:  MOVLW  0A
08F84:  MOVLB  7
08F86:  MOVWF  xC1
08F88:  MOVLB  0
08F8A:  CALL   184E
08F8E:  BCF    F8B.4
08F90:  BCF    F94.4
....................             delay_ms(30);visual=1; 
08F92:  MOVLW  1E
08F94:  MOVLB  7
08F96:  MOVWF  xC1
08F98:  MOVLB  0
08F9A:  CALL   184E
08F9E:  MOVLB  5
08FA0:  BSF    x6D.0
....................          }  
....................                    
....................          if(LEFT)//Si oprime boton de Toma. 
08FA2:  BSF    F96.2
08FA4:  BTFSC  F84.2
08FA6:  BRA    9018
....................          { 
....................             Buzz_on;delay_ms(10);Buzz_off; 
08FA8:  BSF    F8B.4
08FAA:  BCF    F94.4
08FAC:  MOVLW  0A
08FAE:  MOVLB  7
08FB0:  MOVWF  xC1
08FB2:  MOVLB  0
08FB4:  CALL   184E
08FB8:  BCF    F8B.4
08FBA:  BCF    F94.4
....................             delay_ms(700);Menu=100;glcd_fillscreen(OFF);Opcion=1;visual=1; 
08FBC:  MOVLW  04
08FBE:  MOVLB  7
08FC0:  MOVWF  xBB
08FC2:  MOVLW  AF
08FC4:  MOVWF  xC1
08FC6:  MOVLB  0
08FC8:  CALL   184E
08FCC:  MOVLB  7
08FCE:  DECFSZ xBB,F
08FD0:  BRA    8FC2
08FD2:  MOVLW  64
08FD4:  MOVLB  5
08FD6:  MOVWF  x72
08FD8:  MOVLB  7
08FDA:  CLRF   xBC
08FDC:  MOVLB  0
08FDE:  CALL   18CE
08FE2:  MOVLW  01
08FE4:  MOVLB  5
08FE6:  MOVWF  x79
08FE8:  BSF    x6D.0
....................             write_eeprom(252,Ajuste); 
08FEA:  CLRF   FAA
08FEC:  MOVLW  FC
08FEE:  MOVWF  FA9
08FF0:  MOVFF  562,FA8
08FF4:  BCF    FA6.6
08FF6:  BCF    FA6.7
08FF8:  BSF    FA6.2
08FFA:  MOVF   FF2,W
08FFC:  MOVWF  00
08FFE:  BCF    FF2.7
09000:  MOVLB  F
09002:  MOVLW  55
09004:  MOVWF  FA7
09006:  MOVLW  AA
09008:  MOVWF  FA7
0900A:  BSF    FA6.1
0900C:  BTFSC  FA6.1
0900E:  BRA    900C
09010:  BCF    FA6.2
09012:  MOVF   00,W
09014:  IORWF  FF2,F
09016:  MOVLB  5
....................          } 
....................      } 
.................... //_-------------------------------------------------------------------------------------------------------------------------------------------------------- 
....................  
.................... //_--------------------------------------------------------------------------------------------------------------------------------------------------------       
....................       if(Menu==106){ // Menu de Ajuste de Ajusten 
09018:  MOVF   x72,W
0901A:  SUBLW  6A
0901C:  BTFSS  FD8.2
0901E:  BRA    923E
....................        
....................       if(Ajusten>100) 
09020:  MOVF   x63,W
09022:  SUBLW  64
09024:  BC    9028
....................       { 
....................          Ajusten=0; 
09026:  CLRF   x63
....................       } 
....................        
....................       if(visual==1) 
09028:  BTFSS  x6D.0
0902A:  BRA    9094
....................       { 
....................          glcd_fillScreen(OFF); 
0902C:  MOVLB  7
0902E:  CLRF   xBC
09030:  MOVLB  0
09032:  CALL   18CE
....................          strcpy(Menus.Letra,"Ajusten"); 
09036:  MOVLW  07
09038:  MOVWF  FEA
0903A:  MOVLW  9B
0903C:  MOVWF  FE9
0903E:  MOVFF  FF2,7BB
09042:  BCF    FF2.7
09044:  MOVLW  00
09046:  CALL   08E6
0904A:  TBLRD*-
0904C:  TBLRD*+
0904E:  MOVF   FF5,W
09050:  MOVWF  FEE
09052:  IORLW  00
09054:  BNZ   904C
09056:  MOVLB  7
09058:  BTFSC  xBB.7
0905A:  BSF    FF2.7
....................          displayMenu(Menus.Letra,0,0,1,2); 
0905C:  MOVLW  07
0905E:  MOVWF  xBF
09060:  MOVLW  9B
09062:  MOVWF  xBE
09064:  CLRF   xC0
09066:  CLRF   xC1
09068:  MOVLW  01
0906A:  MOVWF  xC2
0906C:  MOVLW  02
0906E:  MOVWF  xC3
09070:  MOVLB  0
09072:  CALL   1EFC
....................           
....................          displayTemperatura(Ajusten,30,30,0,3); 
09076:  MOVLB  7
09078:  CLRF   xC1
0907A:  MOVFF  563,7C0
0907E:  MOVLW  1E
09080:  MOVWF  xC2
09082:  MOVWF  xC3
09084:  CLRF   xC4
09086:  MOVLW  03
09088:  MOVWF  xC5
0908A:  MOVLB  0
0908C:  CALL   512C
....................           
....................          visual=0; 
09090:  MOVLB  5
09092:  BCF    x6D.0
....................       } 
....................        
....................          if(UP)//Si oprime hacia arriba 
09094:  BSF    F92.5
09096:  BTFSC  F80.5
09098:  BRA    9124
....................          {   
....................             Buzz_on;delay_ms(10);Buzz_off; 
0909A:  BSF    F8B.4
0909C:  BCF    F94.4
0909E:  MOVLW  0A
090A0:  MOVLB  7
090A2:  MOVWF  xC1
090A4:  MOVLB  0
090A6:  CALL   184E
090AA:  BCF    F8B.4
090AC:  BCF    F94.4
....................             if(Ajusten>100) 
090AE:  MOVLB  5
090B0:  MOVF   x63,W
090B2:  SUBLW  64
090B4:  BC    90CA
....................             { 
....................                Ajusten=100;delay_ms(100);visual=1; 
090B6:  MOVLW  64
090B8:  MOVWF  x63
090BA:  MOVLB  7
090BC:  MOVWF  xC1
090BE:  MOVLB  0
090C0:  CALL   184E
090C4:  MOVLB  5
090C6:  BSF    x6D.0
....................             } 
....................             else 
090C8:  BRA    9124
....................             { 
....................                delay_ms(30);Ajusten+=1.0;visual=1; 
090CA:  MOVLW  1E
090CC:  MOVLB  7
090CE:  MOVWF  xC1
090D0:  MOVLB  0
090D2:  CALL   184E
090D6:  MOVLB  7
090D8:  CLRF   xC8
090DA:  MOVFF  563,7C7
090DE:  MOVLB  0
090E0:  CALL   2204
090E4:  BCF    FD8.1
090E6:  MOVFF  03,7CA
090EA:  MOVFF  02,7C9
090EE:  MOVFF  01,7C8
090F2:  MOVFF  00,7C7
090F6:  MOVLB  7
090F8:  CLRF   xCE
090FA:  CLRF   xCD
090FC:  CLRF   xCC
090FE:  MOVLW  7F
09100:  MOVWF  xCB
09102:  MOVLB  0
09104:  CALL   2412
09108:  MOVFF  03,7CA
0910C:  MOVFF  02,7C9
09110:  MOVFF  01,7C8
09114:  MOVFF  00,7C7
09118:  CALL   68FA
0911C:  MOVFF  01,563
09120:  MOVLB  5
09122:  BSF    x6D.0
....................             } 
....................          } 
....................                 
....................          if(DOWN)//Si oprime hacia abajo 
09124:  BSF    F96.0
09126:  BTFSC  F84.0
09128:  BRA    919E
....................          {   
....................             Buzz_on;delay_ms(10);Buzz_off; 
0912A:  BSF    F8B.4
0912C:  BCF    F94.4
0912E:  MOVLW  0A
09130:  MOVLB  7
09132:  MOVWF  xC1
09134:  MOVLB  0
09136:  CALL   184E
0913A:  BCF    F8B.4
0913C:  BCF    F94.4
....................             if(Ajusten>0) 
0913E:  MOVLB  5
09140:  MOVF   x63,F
09142:  BZ    919E
....................             { 
....................                delay_ms(30);Ajusten-=1.0;visual=1;      
09144:  MOVLW  1E
09146:  MOVLB  7
09148:  MOVWF  xC1
0914A:  MOVLB  0
0914C:  CALL   184E
09150:  MOVLB  7
09152:  CLRF   xC8
09154:  MOVFF  563,7C7
09158:  MOVLB  0
0915A:  CALL   2204
0915E:  BSF    FD8.1
09160:  MOVFF  03,7CA
09164:  MOVFF  02,7C9
09168:  MOVFF  01,7C8
0916C:  MOVFF  00,7C7
09170:  MOVLB  7
09172:  CLRF   xCE
09174:  CLRF   xCD
09176:  CLRF   xCC
09178:  MOVLW  7F
0917A:  MOVWF  xCB
0917C:  MOVLB  0
0917E:  CALL   2412
09182:  MOVFF  03,7CA
09186:  MOVFF  02,7C9
0918A:  MOVFF  01,7C8
0918E:  MOVFF  00,7C7
09192:  CALL   68FA
09196:  MOVFF  01,563
0919A:  MOVLB  5
0919C:  BSF    x6D.0
....................             } 
....................          } 
....................                 
....................          if(RIGHT)//Si oprime SET 
0919E:  BSF    F96.1
091A0:  BTFSC  F84.1
091A2:  BRA    91C8
....................          {   
....................             Buzz_on;delay_ms(10);Buzz_off; 
091A4:  BSF    F8B.4
091A6:  BCF    F94.4
091A8:  MOVLW  0A
091AA:  MOVLB  7
091AC:  MOVWF  xC1
091AE:  MOVLB  0
091B0:  CALL   184E
091B4:  BCF    F8B.4
091B6:  BCF    F94.4
....................             delay_ms(30);visual=1; 
091B8:  MOVLW  1E
091BA:  MOVLB  7
091BC:  MOVWF  xC1
091BE:  MOVLB  0
091C0:  CALL   184E
091C4:  MOVLB  5
091C6:  BSF    x6D.0
....................          }  
....................                    
....................          if(LEFT)//Si oprime boton de Toma. 
091C8:  BSF    F96.2
091CA:  BTFSC  F84.2
091CC:  BRA    923E
....................          { 
....................             Buzz_on;delay_ms(10);Buzz_off; 
091CE:  BSF    F8B.4
091D0:  BCF    F94.4
091D2:  MOVLW  0A
091D4:  MOVLB  7
091D6:  MOVWF  xC1
091D8:  MOVLB  0
091DA:  CALL   184E
091DE:  BCF    F8B.4
091E0:  BCF    F94.4
....................             delay_ms(700);Menu=100;glcd_fillscreen(OFF);Opcion=1;visual=1; 
091E2:  MOVLW  04
091E4:  MOVLB  7
091E6:  MOVWF  xBB
091E8:  MOVLW  AF
091EA:  MOVWF  xC1
091EC:  MOVLB  0
091EE:  CALL   184E
091F2:  MOVLB  7
091F4:  DECFSZ xBB,F
091F6:  BRA    91E8
091F8:  MOVLW  64
091FA:  MOVLB  5
091FC:  MOVWF  x72
091FE:  MOVLB  7
09200:  CLRF   xBC
09202:  MOVLB  0
09204:  CALL   18CE
09208:  MOVLW  01
0920A:  MOVLB  5
0920C:  MOVWF  x79
0920E:  BSF    x6D.0
....................             write_eeprom(253,Ajusten); 
09210:  CLRF   FAA
09212:  MOVLW  FD
09214:  MOVWF  FA9
09216:  MOVFF  563,FA8
0921A:  BCF    FA6.6
0921C:  BCF    FA6.7
0921E:  BSF    FA6.2
09220:  MOVF   FF2,W
09222:  MOVWF  00
09224:  BCF    FF2.7
09226:  MOVLB  F
09228:  MOVLW  55
0922A:  MOVWF  FA7
0922C:  MOVLW  AA
0922E:  MOVWF  FA7
09230:  BSF    FA6.1
09232:  BTFSC  FA6.1
09234:  BRA    9232
09236:  BCF    FA6.2
09238:  MOVF   00,W
0923A:  IORWF  FF2,F
0923C:  MOVLB  5
....................          } 
....................      } 
.................... //_-------------------------------------------------------------------------------------------------------------------------------------------------------- 
....................  
.................... //_--------------------------------------------------------------------------------------------------------------------------------------------------------       
....................       if(Menu==107){ // Menu de Ajuste de Media Movil 
0923E:  MOVF   x72,W
09240:  SUBLW  6B
09242:  BTFSS  FD8.2
09244:  BRA    946A
....................        
....................       if(MediaMovil>80) 
09246:  MOVF   x64,W
09248:  SUBLW  50
0924A:  BC    9250
....................       { 
....................          MediaMovil=10; 
0924C:  MOVLW  0A
0924E:  MOVWF  x64
....................       } 
....................        
....................       if(visual==1) 
09250:  BTFSS  x6D.0
09252:  BRA    92BC
....................       { 
....................          glcd_fillScreen(OFF); 
09254:  MOVLB  7
09256:  CLRF   xBC
09258:  MOVLB  0
0925A:  CALL   18CE
....................          strcpy(Menus.Letra,"Media"); 
0925E:  MOVLW  07
09260:  MOVWF  FEA
09262:  MOVLW  9B
09264:  MOVWF  FE9
09266:  MOVFF  FF2,7BB
0926A:  BCF    FF2.7
0926C:  MOVLW  00
0926E:  CALL   090C
09272:  TBLRD*-
09274:  TBLRD*+
09276:  MOVF   FF5,W
09278:  MOVWF  FEE
0927A:  IORLW  00
0927C:  BNZ   9274
0927E:  MOVLB  7
09280:  BTFSC  xBB.7
09282:  BSF    FF2.7
....................          displayMenu(Menus.Letra,0,0,1,2); 
09284:  MOVLW  07
09286:  MOVWF  xBF
09288:  MOVLW  9B
0928A:  MOVWF  xBE
0928C:  CLRF   xC0
0928E:  CLRF   xC1
09290:  MOVLW  01
09292:  MOVWF  xC2
09294:  MOVLW  02
09296:  MOVWF  xC3
09298:  MOVLB  0
0929A:  CALL   1EFC
....................           
....................          displayTemperatura(MediaMovil,30,30,0,3); 
0929E:  MOVLB  7
092A0:  CLRF   xC1
092A2:  MOVFF  564,7C0
092A6:  MOVLW  1E
092A8:  MOVWF  xC2
092AA:  MOVWF  xC3
092AC:  CLRF   xC4
092AE:  MOVLW  03
092B0:  MOVWF  xC5
092B2:  MOVLB  0
092B4:  CALL   512C
....................           
....................          visual=0; 
092B8:  MOVLB  5
092BA:  BCF    x6D.0
....................       } 
....................        
....................          if(UP)//Si oprime hacia arriba 
092BC:  BSF    F92.5
092BE:  BTFSC  F80.5
092C0:  BRA    934E
....................          {   
....................             Buzz_on;delay_ms(10);Buzz_off; 
092C2:  BSF    F8B.4
092C4:  BCF    F94.4
092C6:  MOVLW  0A
092C8:  MOVLB  7
092CA:  MOVWF  xC1
092CC:  MOVLB  0
092CE:  CALL   184E
092D2:  BCF    F8B.4
092D4:  BCF    F94.4
....................             if(MediaMovil>79) 
092D6:  MOVLB  5
092D8:  MOVF   x64,W
092DA:  SUBLW  4F
092DC:  BC    92F4
....................             { 
....................                MediaMovil=79;delay_ms(100);visual=1; 
092DE:  MOVLW  4F
092E0:  MOVWF  x64
092E2:  MOVLW  64
092E4:  MOVLB  7
092E6:  MOVWF  xC1
092E8:  MOVLB  0
092EA:  CALL   184E
092EE:  MOVLB  5
092F0:  BSF    x6D.0
....................             } 
....................             else 
092F2:  BRA    934E
....................             { 
....................                delay_ms(30);MediaMovil+=1.0;visual=1; 
092F4:  MOVLW  1E
092F6:  MOVLB  7
092F8:  MOVWF  xC1
092FA:  MOVLB  0
092FC:  CALL   184E
09300:  MOVLB  7
09302:  CLRF   xC8
09304:  MOVFF  564,7C7
09308:  MOVLB  0
0930A:  CALL   2204
0930E:  BCF    FD8.1
09310:  MOVFF  03,7CA
09314:  MOVFF  02,7C9
09318:  MOVFF  01,7C8
0931C:  MOVFF  00,7C7
09320:  MOVLB  7
09322:  CLRF   xCE
09324:  CLRF   xCD
09326:  CLRF   xCC
09328:  MOVLW  7F
0932A:  MOVWF  xCB
0932C:  MOVLB  0
0932E:  CALL   2412
09332:  MOVFF  03,7CA
09336:  MOVFF  02,7C9
0933A:  MOVFF  01,7C8
0933E:  MOVFF  00,7C7
09342:  CALL   68FA
09346:  MOVFF  01,564
0934A:  MOVLB  5
0934C:  BSF    x6D.0
....................             } 
....................          } 
....................                 
....................          if(DOWN)//Si oprime hacia abajo 
0934E:  BSF    F96.0
09350:  BTFSC  F84.0
09352:  BRA    93CA
....................          {   
....................             Buzz_on;delay_ms(10);Buzz_off; 
09354:  BSF    F8B.4
09356:  BCF    F94.4
09358:  MOVLW  0A
0935A:  MOVLB  7
0935C:  MOVWF  xC1
0935E:  MOVLB  0
09360:  CALL   184E
09364:  BCF    F8B.4
09366:  BCF    F94.4
....................             if(MediaMovil>1) 
09368:  MOVLB  5
0936A:  MOVF   x64,W
0936C:  SUBLW  01
0936E:  BC    93CA
....................             { 
....................                delay_ms(30);MediaMovil-=1.0;visual=1;      
09370:  MOVLW  1E
09372:  MOVLB  7
09374:  MOVWF  xC1
09376:  MOVLB  0
09378:  CALL   184E
0937C:  MOVLB  7
0937E:  CLRF   xC8
09380:  MOVFF  564,7C7
09384:  MOVLB  0
09386:  CALL   2204
0938A:  BSF    FD8.1
0938C:  MOVFF  03,7CA
09390:  MOVFF  02,7C9
09394:  MOVFF  01,7C8
09398:  MOVFF  00,7C7
0939C:  MOVLB  7
0939E:  CLRF   xCE
093A0:  CLRF   xCD
093A2:  CLRF   xCC
093A4:  MOVLW  7F
093A6:  MOVWF  xCB
093A8:  MOVLB  0
093AA:  CALL   2412
093AE:  MOVFF  03,7CA
093B2:  MOVFF  02,7C9
093B6:  MOVFF  01,7C8
093BA:  MOVFF  00,7C7
093BE:  CALL   68FA
093C2:  MOVFF  01,564
093C6:  MOVLB  5
093C8:  BSF    x6D.0
....................             } 
....................          } 
....................                 
....................          if(RIGHT)//Si oprime SET 
093CA:  BSF    F96.1
093CC:  BTFSC  F84.1
093CE:  BRA    93F4
....................          {   
....................             Buzz_on;delay_ms(10);Buzz_off; 
093D0:  BSF    F8B.4
093D2:  BCF    F94.4
093D4:  MOVLW  0A
093D6:  MOVLB  7
093D8:  MOVWF  xC1
093DA:  MOVLB  0
093DC:  CALL   184E
093E0:  BCF    F8B.4
093E2:  BCF    F94.4
....................             delay_ms(30);visual=1; 
093E4:  MOVLW  1E
093E6:  MOVLB  7
093E8:  MOVWF  xC1
093EA:  MOVLB  0
093EC:  CALL   184E
093F0:  MOVLB  5
093F2:  BSF    x6D.0
....................          }  
....................                    
....................          if(LEFT)//Si oprime boton de Toma. 
093F4:  BSF    F96.2
093F6:  BTFSC  F84.2
093F8:  BRA    946A
....................          { 
....................             Buzz_on;delay_ms(10);Buzz_off; 
093FA:  BSF    F8B.4
093FC:  BCF    F94.4
093FE:  MOVLW  0A
09400:  MOVLB  7
09402:  MOVWF  xC1
09404:  MOVLB  0
09406:  CALL   184E
0940A:  BCF    F8B.4
0940C:  BCF    F94.4
....................             delay_ms(700);Menu=100;glcd_fillscreen(OFF);Opcion=1;visual=1; 
0940E:  MOVLW  04
09410:  MOVLB  7
09412:  MOVWF  xBB
09414:  MOVLW  AF
09416:  MOVWF  xC1
09418:  MOVLB  0
0941A:  CALL   184E
0941E:  MOVLB  7
09420:  DECFSZ xBB,F
09422:  BRA    9414
09424:  MOVLW  64
09426:  MOVLB  5
09428:  MOVWF  x72
0942A:  MOVLB  7
0942C:  CLRF   xBC
0942E:  MOVLB  0
09430:  CALL   18CE
09434:  MOVLW  01
09436:  MOVLB  5
09438:  MOVWF  x79
0943A:  BSF    x6D.0
....................             write_eeprom(254,(int8)MediaMovil); 
0943C:  CLRF   FAA
0943E:  MOVLW  FE
09440:  MOVWF  FA9
09442:  MOVFF  564,FA8
09446:  BCF    FA6.6
09448:  BCF    FA6.7
0944A:  BSF    FA6.2
0944C:  MOVF   FF2,W
0944E:  MOVWF  00
09450:  BCF    FF2.7
09452:  MOVLB  F
09454:  MOVLW  55
09456:  MOVWF  FA7
09458:  MOVLW  AA
0945A:  MOVWF  FA7
0945C:  BSF    FA6.1
0945E:  BTFSC  FA6.1
09460:  BRA    945E
09462:  BCF    FA6.2
09464:  MOVF   00,W
09466:  IORWF  FF2,F
09468:  MOVLB  5
....................          } 
....................      } 
.................... //_-------------------------------------------------------------------------------------------------------------------------------------------------------- 
....................  
.................... //_--------------------------------------------------------------------------------------------------------------------------------------------------------       
....................       if(Menu==108){ // Menu de Ajuste de Coeficiente Regulador 
0946A:  MOVF   x72,W
0946C:  SUBLW  6C
0946E:  BTFSS  FD8.2
09470:  BRA    971A
....................        
....................       if(Coeficiente>250) 
09472:  MOVLB  7
09474:  CLRF   xBE
09476:  CLRF   xBD
09478:  MOVLW  7A
0947A:  MOVWF  xBC
0947C:  MOVLW  86
0947E:  MOVWF  xBB
09480:  MOVFF  5FC,7C2
09484:  MOVFF  5FB,7C1
09488:  MOVFF  5FA,7C0
0948C:  MOVFF  5F9,7BF
09490:  MOVLB  0
09492:  CALL   223A
09496:  BNC   94A6
....................       { 
....................          Coeficiente=100; 
09498:  MOVLB  5
0949A:  CLRF   xFC
0949C:  CLRF   xFB
0949E:  MOVLW  48
094A0:  MOVWF  xFA
094A2:  MOVLW  85
094A4:  MOVWF  xF9
....................       } 
....................        
....................       if(visual==1) 
094A6:  MOVLB  5
094A8:  BTFSS  x6D.0
094AA:  BRA    9532
....................       { 
....................          glcd_fillScreen(OFF); 
094AC:  MOVLB  7
094AE:  CLRF   xBC
094B0:  MOVLB  0
094B2:  CALL   18CE
....................          strcpy(Menus.Letra,"Coeficiente"); 
094B6:  MOVLW  07
094B8:  MOVWF  FEA
094BA:  MOVLW  9B
094BC:  MOVWF  FE9
094BE:  MOVFF  FF2,7BB
094C2:  BCF    FF2.7
094C4:  MOVLW  00
094C6:  CALL   0930
094CA:  TBLRD*-
094CC:  TBLRD*+
094CE:  MOVF   FF5,W
094D0:  MOVWF  FEE
094D2:  IORLW  00
094D4:  BNZ   94CC
094D6:  MOVLB  7
094D8:  BTFSC  xBB.7
094DA:  BSF    FF2.7
....................          displayMenu(Menus.Letra,0,0,1,2); 
094DC:  MOVLW  07
094DE:  MOVWF  xBF
094E0:  MOVLW  9B
094E2:  MOVWF  xBE
094E4:  CLRF   xC0
094E6:  CLRF   xC1
094E8:  MOVLW  01
094EA:  MOVWF  xC2
094EC:  MOVLW  02
094EE:  MOVWF  xC3
094F0:  MOVLB  0
094F2:  CALL   1EFC
....................           
....................          displayTemperatura(Coeficiente,30,30,0,3); 
094F6:  MOVFF  5FC,7CA
094FA:  MOVFF  5FB,7C9
094FE:  MOVFF  5FA,7C8
09502:  MOVFF  5F9,7C7
09506:  CALL   68FA
0950A:  MOVFF  02,7BC
0950E:  MOVFF  01,7BB
09512:  MOVFF  02,7C1
09516:  MOVFF  01,7C0
0951A:  MOVLW  1E
0951C:  MOVLB  7
0951E:  MOVWF  xC2
09520:  MOVWF  xC3
09522:  CLRF   xC4
09524:  MOVLW  03
09526:  MOVWF  xC5
09528:  MOVLB  0
0952A:  CALL   512C
....................           
....................          visual=0; 
0952E:  MOVLB  5
09530:  BCF    x6D.0
....................       } 
....................        
....................          if(UP)//Si oprime hacia arriba 
09532:  BSF    F92.5
09534:  BTFSC  F80.5
09536:  BRA    95D8
....................          {   
....................             Buzz_on;delay_ms(10);Buzz_off; 
09538:  BSF    F8B.4
0953A:  BCF    F94.4
0953C:  MOVLW  0A
0953E:  MOVLB  7
09540:  MOVWF  xC1
09542:  MOVLB  0
09544:  CALL   184E
09548:  BCF    F8B.4
0954A:  BCF    F94.4
....................             if(Coeficiente>250) 
0954C:  MOVLB  7
0954E:  CLRF   xBE
09550:  CLRF   xBD
09552:  MOVLW  7A
09554:  MOVWF  xBC
09556:  MOVLW  86
09558:  MOVWF  xBB
0955A:  MOVFF  5FC,7C2
0955E:  MOVFF  5FB,7C1
09562:  MOVFF  5FA,7C0
09566:  MOVFF  5F9,7BF
0956A:  MOVLB  0
0956C:  CALL   223A
09570:  BNC   9594
....................             { 
....................                Coeficiente=250;delay_ms(100);visual=1; 
09572:  MOVLB  5
09574:  CLRF   xFC
09576:  CLRF   xFB
09578:  MOVLW  7A
0957A:  MOVWF  xFA
0957C:  MOVLW  86
0957E:  MOVWF  xF9
09580:  MOVLW  64
09582:  MOVLB  7
09584:  MOVWF  xC1
09586:  MOVLB  0
09588:  CALL   184E
0958C:  MOVLB  5
0958E:  BSF    x6D.0
....................             } 
....................             else 
09590:  BRA    95D8
09592:  MOVLB  0
....................             { 
....................                delay_ms(30);Coeficiente+=1.0;visual=1; 
09594:  MOVLW  1E
09596:  MOVLB  7
09598:  MOVWF  xC1
0959A:  MOVLB  0
0959C:  CALL   184E
095A0:  BCF    FD8.1
095A2:  MOVFF  5FC,7CA
095A6:  MOVFF  5FB,7C9
095AA:  MOVFF  5FA,7C8
095AE:  MOVFF  5F9,7C7
095B2:  MOVLB  7
095B4:  CLRF   xCE
095B6:  CLRF   xCD
095B8:  CLRF   xCC
095BA:  MOVLW  7F
095BC:  MOVWF  xCB
095BE:  MOVLB  0
095C0:  CALL   2412
095C4:  MOVFF  03,5FC
095C8:  MOVFF  02,5FB
095CC:  MOVFF  01,5FA
095D0:  MOVFF  00,5F9
095D4:  MOVLB  5
095D6:  BSF    x6D.0
....................             } 
....................          } 
....................                 
....................          if(DOWN)//Si oprime hacia abajo 
095D8:  BSF    F96.0
095DA:  BTFSC  F84.0
095DC:  BRA    965A
....................          {   
....................             Buzz_on;delay_ms(10);Buzz_off; 
095DE:  BSF    F8B.4
095E0:  BCF    F94.4
095E2:  MOVLW  0A
095E4:  MOVLB  7
095E6:  MOVWF  xC1
095E8:  MOVLB  0
095EA:  CALL   184E
095EE:  BCF    F8B.4
095F0:  BCF    F94.4
....................             if(Coeficiente>1) 
095F2:  MOVLB  7
095F4:  CLRF   xBE
095F6:  CLRF   xBD
095F8:  CLRF   xBC
095FA:  MOVLW  7F
095FC:  MOVWF  xBB
095FE:  MOVFF  5FC,7C2
09602:  MOVFF  5FB,7C1
09606:  MOVFF  5FA,7C0
0960A:  MOVFF  5F9,7BF
0960E:  MOVLB  0
09610:  CALL   223A
09614:  BNC   965C
....................             { 
....................                delay_ms(30);Coeficiente-=1.0;visual=1;      
09616:  MOVLW  1E
09618:  MOVLB  7
0961A:  MOVWF  xC1
0961C:  MOVLB  0
0961E:  CALL   184E
09622:  BSF    FD8.1
09624:  MOVFF  5FC,7CA
09628:  MOVFF  5FB,7C9
0962C:  MOVFF  5FA,7C8
09630:  MOVFF  5F9,7C7
09634:  MOVLB  7
09636:  CLRF   xCE
09638:  CLRF   xCD
0963A:  CLRF   xCC
0963C:  MOVLW  7F
0963E:  MOVWF  xCB
09640:  MOVLB  0
09642:  CALL   2412
09646:  MOVFF  03,5FC
0964A:  MOVFF  02,5FB
0964E:  MOVFF  01,5FA
09652:  MOVFF  00,5F9
09656:  MOVLB  5
09658:  BSF    x6D.0
0965A:  MOVLB  0
....................             } 
....................          } 
....................                 
....................          if(RIGHT)//Si oprime SET 
0965C:  BSF    F96.1
0965E:  BTFSC  F84.1
09660:  BRA    9688
....................          {   
....................             Buzz_on;delay_ms(10);Buzz_off; 
09662:  BSF    F8B.4
09664:  BCF    F94.4
09666:  MOVLW  0A
09668:  MOVLB  7
0966A:  MOVWF  xC1
0966C:  MOVLB  0
0966E:  CALL   184E
09672:  BCF    F8B.4
09674:  BCF    F94.4
....................             delay_ms(30);visual=1; 
09676:  MOVLW  1E
09678:  MOVLB  7
0967A:  MOVWF  xC1
0967C:  MOVLB  0
0967E:  CALL   184E
09682:  MOVLB  5
09684:  BSF    x6D.0
09686:  MOVLB  0
....................          }  
....................                    
....................          if(LEFT)//Si oprime boton de Toma. 
09688:  BSF    F96.2
0968A:  BTFSC  F84.2
0968C:  BRA    9718
....................          { 
....................             Buzz_on;delay_ms(10);Buzz_off; 
0968E:  BSF    F8B.4
09690:  BCF    F94.4
09692:  MOVLW  0A
09694:  MOVLB  7
09696:  MOVWF  xC1
09698:  MOVLB  0
0969A:  CALL   184E
0969E:  BCF    F8B.4
096A0:  BCF    F94.4
....................             delay_ms(700);Menu=100;glcd_fillscreen(OFF);Opcion=1;visual=1; 
096A2:  MOVLW  04
096A4:  MOVLB  7
096A6:  MOVWF  xBB
096A8:  MOVLW  AF
096AA:  MOVWF  xC1
096AC:  MOVLB  0
096AE:  CALL   184E
096B2:  MOVLB  7
096B4:  DECFSZ xBB,F
096B6:  BRA    96A8
096B8:  MOVLW  64
096BA:  MOVLB  5
096BC:  MOVWF  x72
096BE:  MOVLB  7
096C0:  CLRF   xBC
096C2:  MOVLB  0
096C4:  CALL   18CE
096C8:  MOVLW  01
096CA:  MOVLB  5
096CC:  MOVWF  x79
096CE:  BSF    x6D.0
....................             write_eeprom(255,(int8)Coeficiente); 
096D0:  MOVFF  5FC,7CA
096D4:  MOVFF  5FB,7C9
096D8:  MOVFF  5FA,7C8
096DC:  MOVFF  5F9,7C7
096E0:  MOVLB  0
096E2:  CALL   68FA
096E6:  MOVFF  01,7BB
096EA:  CLRF   FAA
096EC:  MOVLW  FF
096EE:  MOVWF  FA9
096F0:  MOVFF  7BB,FA8
096F4:  BCF    FA6.6
096F6:  BCF    FA6.7
096F8:  BSF    FA6.2
096FA:  MOVF   FF2,W
096FC:  MOVWF  00
096FE:  BCF    FF2.7
09700:  MOVLB  F
09702:  MOVLW  55
09704:  MOVWF  FA7
09706:  MOVLW  AA
09708:  MOVWF  FA7
0970A:  BSF    FA6.1
0970C:  BTFSC  FA6.1
0970E:  BRA    970C
09710:  BCF    FA6.2
09712:  MOVF   00,W
09714:  IORWF  FF2,F
09716:  MOVLB  0
09718:  MOVLB  5
....................          } 
....................      } 
.................... //_-------------------------------------------------------------------------------------------------------------------------------------------------------- 
....................  
.................... //_--------------------------------------------------------------------------------------------------------------------------------------------------------       
....................       if(Menu==109){ // Menu de Alarma Sobretemperatura 
0971A:  MOVF   x72,W
0971C:  SUBLW  6D
0971E:  BTFSS  FD8.2
09720:  BRA    99D6
....................        
....................       if(AlTem>250) 
09722:  MOVLB  7
09724:  CLRF   xBE
09726:  CLRF   xBD
09728:  MOVLW  7A
0972A:  MOVWF  xBC
0972C:  MOVLW  86
0972E:  MOVWF  xBB
09730:  MOVFF  600,7C2
09734:  MOVFF  5FF,7C1
09738:  MOVFF  5FE,7C0
0973C:  MOVFF  5FD,7BF
09740:  MOVLB  0
09742:  CALL   223A
09746:  BNC   9758
....................       { 
....................          AlTem=250; 
09748:  MOVLB  6
0974A:  CLRF   x00
0974C:  MOVLB  5
0974E:  CLRF   xFF
09750:  MOVLW  7A
09752:  MOVWF  xFE
09754:  MOVLW  86
09756:  MOVWF  xFD
....................       } 
....................        
....................       if(visual==1) 
09758:  MOVLB  5
0975A:  BTFSS  x6D.0
0975C:  BRA    97E4
....................       { 
....................          glcd_fillScreen(OFF); 
0975E:  MOVLB  7
09760:  CLRF   xBC
09762:  MOVLB  0
09764:  CALL   18CE
....................          strcpy(Menus.Letra,"Alarma"); 
09768:  MOVLW  07
0976A:  MOVWF  FEA
0976C:  MOVLW  9B
0976E:  MOVWF  FE9
09770:  MOVFF  FF2,7BB
09774:  BCF    FF2.7
09776:  MOVLW  00
09778:  CALL   095A
0977C:  TBLRD*-
0977E:  TBLRD*+
09780:  MOVF   FF5,W
09782:  MOVWF  FEE
09784:  IORLW  00
09786:  BNZ   977E
09788:  MOVLB  7
0978A:  BTFSC  xBB.7
0978C:  BSF    FF2.7
....................          displayMenu(Menus.Letra,0,0,1,2); 
0978E:  MOVLW  07
09790:  MOVWF  xBF
09792:  MOVLW  9B
09794:  MOVWF  xBE
09796:  CLRF   xC0
09798:  CLRF   xC1
0979A:  MOVLW  01
0979C:  MOVWF  xC2
0979E:  MOVLW  02
097A0:  MOVWF  xC3
097A2:  MOVLB  0
097A4:  CALL   1EFC
....................           
....................          displayTemperatura(AlTem,30,30,0,3); 
097A8:  MOVFF  600,7CA
097AC:  MOVFF  5FF,7C9
097B0:  MOVFF  5FE,7C8
097B4:  MOVFF  5FD,7C7
097B8:  CALL   68FA
097BC:  MOVFF  02,7BC
097C0:  MOVFF  01,7BB
097C4:  MOVFF  02,7C1
097C8:  MOVFF  01,7C0
097CC:  MOVLW  1E
097CE:  MOVLB  7
097D0:  MOVWF  xC2
097D2:  MOVWF  xC3
097D4:  CLRF   xC4
097D6:  MOVLW  03
097D8:  MOVWF  xC5
097DA:  MOVLB  0
097DC:  CALL   512C
....................           
....................          visual=0; 
097E0:  MOVLB  5
097E2:  BCF    x6D.0
....................       } 
....................        
....................          if(UP)//Si oprime hacia arriba 
097E4:  BSF    F92.5
097E6:  BTFSC  F80.5
097E8:  BRA    988C
....................          {   
....................             Buzz_on;delay_ms(10);Buzz_off; 
097EA:  BSF    F8B.4
097EC:  BCF    F94.4
097EE:  MOVLW  0A
097F0:  MOVLB  7
097F2:  MOVWF  xC1
097F4:  MOVLB  0
097F6:  CALL   184E
097FA:  BCF    F8B.4
097FC:  BCF    F94.4
....................             if(AlTem>250) 
097FE:  MOVLB  7
09800:  CLRF   xBE
09802:  CLRF   xBD
09804:  MOVLW  7A
09806:  MOVWF  xBC
09808:  MOVLW  86
0980A:  MOVWF  xBB
0980C:  MOVFF  600,7C2
09810:  MOVFF  5FF,7C1
09814:  MOVFF  5FE,7C0
09818:  MOVFF  5FD,7BF
0981C:  MOVLB  0
0981E:  CALL   223A
09822:  BNC   9848
....................             { 
....................                AlTem=250;delay_ms(100);visual=1; 
09824:  MOVLB  6
09826:  CLRF   x00
09828:  MOVLB  5
0982A:  CLRF   xFF
0982C:  MOVLW  7A
0982E:  MOVWF  xFE
09830:  MOVLW  86
09832:  MOVWF  xFD
09834:  MOVLW  64
09836:  MOVLB  7
09838:  MOVWF  xC1
0983A:  MOVLB  0
0983C:  CALL   184E
09840:  MOVLB  5
09842:  BSF    x6D.0
....................             } 
....................             else 
09844:  BRA    988C
09846:  MOVLB  0
....................             { 
....................                delay_ms(30);AlTem+=1.0;visual=1; 
09848:  MOVLW  1E
0984A:  MOVLB  7
0984C:  MOVWF  xC1
0984E:  MOVLB  0
09850:  CALL   184E
09854:  BCF    FD8.1
09856:  MOVFF  600,7CA
0985A:  MOVFF  5FF,7C9
0985E:  MOVFF  5FE,7C8
09862:  MOVFF  5FD,7C7
09866:  MOVLB  7
09868:  CLRF   xCE
0986A:  CLRF   xCD
0986C:  CLRF   xCC
0986E:  MOVLW  7F
09870:  MOVWF  xCB
09872:  MOVLB  0
09874:  CALL   2412
09878:  MOVFF  03,600
0987C:  MOVFF  02,5FF
09880:  MOVFF  01,5FE
09884:  MOVFF  00,5FD
09888:  MOVLB  5
0988A:  BSF    x6D.0
....................             } 
....................          } 
....................                 
....................          if(DOWN)//Si oprime hacia abajo 
0988C:  BSF    F96.0
0988E:  BTFSC  F84.0
09890:  BRA    990C
....................          {   
....................             Buzz_on;delay_ms(10);Buzz_off; 
09892:  BSF    F8B.4
09894:  BCF    F94.4
09896:  MOVLW  0A
09898:  MOVLB  7
0989A:  MOVWF  xC1
0989C:  MOVLB  0
0989E:  CALL   184E
098A2:  BCF    F8B.4
098A4:  BCF    F94.4
....................             if(AlTem>0) 
098A6:  MOVLB  7
098A8:  CLRF   xBE
098AA:  CLRF   xBD
098AC:  CLRF   xBC
098AE:  CLRF   xBB
098B0:  MOVFF  600,7C2
098B4:  MOVFF  5FF,7C1
098B8:  MOVFF  5FE,7C0
098BC:  MOVFF  5FD,7BF
098C0:  MOVLB  0
098C2:  CALL   223A
098C6:  BNC   990E
....................             { 
....................                delay_ms(30);AlTem-=1.0;visual=1;      
098C8:  MOVLW  1E
098CA:  MOVLB  7
098CC:  MOVWF  xC1
098CE:  MOVLB  0
098D0:  CALL   184E
098D4:  BSF    FD8.1
098D6:  MOVFF  600,7CA
098DA:  MOVFF  5FF,7C9
098DE:  MOVFF  5FE,7C8
098E2:  MOVFF  5FD,7C7
098E6:  MOVLB  7
098E8:  CLRF   xCE
098EA:  CLRF   xCD
098EC:  CLRF   xCC
098EE:  MOVLW  7F
098F0:  MOVWF  xCB
098F2:  MOVLB  0
098F4:  CALL   2412
098F8:  MOVFF  03,600
098FC:  MOVFF  02,5FF
09900:  MOVFF  01,5FE
09904:  MOVFF  00,5FD
09908:  MOVLB  5
0990A:  BSF    x6D.0
0990C:  MOVLB  0
....................             } 
....................          } 
....................                 
....................          if(RIGHT)//Si oprime SET 
0990E:  BSF    F96.1
09910:  BTFSC  F84.1
09912:  BRA    993A
....................          {   
....................             Buzz_on;delay_ms(10);Buzz_off; 
09914:  BSF    F8B.4
09916:  BCF    F94.4
09918:  MOVLW  0A
0991A:  MOVLB  7
0991C:  MOVWF  xC1
0991E:  MOVLB  0
09920:  CALL   184E
09924:  BCF    F8B.4
09926:  BCF    F94.4
....................             delay_ms(30);visual=1; 
09928:  MOVLW  1E
0992A:  MOVLB  7
0992C:  MOVWF  xC1
0992E:  MOVLB  0
09930:  CALL   184E
09934:  MOVLB  5
09936:  BSF    x6D.0
09938:  MOVLB  0
....................          }  
....................                    
....................          if(LEFT)//Si oprime boton de Toma. 
0993A:  BSF    F96.2
0993C:  BTFSC  F84.2
0993E:  BRA    99D4
....................          { 
....................             Buzz_on;delay_ms(10);Buzz_off; 
09940:  BSF    F8B.4
09942:  BCF    F94.4
09944:  MOVLW  0A
09946:  MOVLB  7
09948:  MOVWF  xC1
0994A:  MOVLB  0
0994C:  CALL   184E
09950:  BCF    F8B.4
09952:  BCF    F94.4
....................             delay_ms(700);Menu=100;glcd_fillscreen(OFF);Opcion=1;visual=1; 
09954:  MOVLW  04
09956:  MOVLB  7
09958:  MOVWF  xBB
0995A:  MOVLW  AF
0995C:  MOVWF  xC1
0995E:  MOVLB  0
09960:  CALL   184E
09964:  MOVLB  7
09966:  DECFSZ xBB,F
09968:  BRA    995A
0996A:  MOVLW  64
0996C:  MOVLB  5
0996E:  MOVWF  x72
09970:  MOVLB  7
09972:  CLRF   xBC
09974:  MOVLB  0
09976:  CALL   18CE
0997A:  MOVLW  01
0997C:  MOVLB  5
0997E:  MOVWF  x79
09980:  BSF    x6D.0
....................             write_eeprom(256,(int8)AlTem); 
09982:  MOVFF  600,7CA
09986:  MOVFF  5FF,7C9
0998A:  MOVFF  5FE,7C8
0998E:  MOVFF  5FD,7C7
09992:  MOVLB  0
09994:  CALL   68FA
09998:  MOVFF  01,7BB
0999C:  MOVLW  01
0999E:  MOVWF  FAA
099A0:  CLRF   FA9
099A2:  MOVFF  7BB,FA8
099A6:  BCF    FA6.6
099A8:  BCF    FA6.7
099AA:  BSF    FA6.2
099AC:  MOVF   FF2,W
099AE:  MOVWF  00
099B0:  BCF    FF2.7
099B2:  MOVLB  F
099B4:  MOVLW  55
099B6:  MOVWF  FA7
099B8:  MOVLW  AA
099BA:  MOVWF  FA7
099BC:  BSF    FA6.1
099BE:  BTFSC  FA6.1
099C0:  BRA    99BE
099C2:  BCF    FA6.2
099C4:  MOVF   00,W
099C6:  IORWF  FF2,F
....................             delay_ms(10); 
099C8:  MOVLW  0A
099CA:  MOVLB  7
099CC:  MOVWF  xC1
099CE:  MOVLB  0
099D0:  CALL   184E
099D4:  MOVLB  5
....................          } 
....................      } 
.................... //_-------------------------------------------------------------------------------------------------------------------------------------------------------- 
....................  
.................... //_--------------------------------------------------------------------------------------------------------------------------------------------------------       
....................       if(Menu==110){ // Menu de Resistencia conversora I/V 
099D6:  MOVF   x72,W
099D8:  SUBLW  6E
099DA:  BTFSS  FD8.2
099DC:  BRA    9E88
....................        
....................       if(resistencia>260)       
099DE:  MOVLB  7
099E0:  CLRF   xBE
099E2:  CLRF   xBD
099E4:  MOVLW  02
099E6:  MOVWF  xBC
099E8:  MOVLW  87
099EA:  MOVWF  xBB
099EC:  MOVFF  604,7C2
099F0:  MOVFF  603,7C1
099F4:  MOVFF  602,7C0
099F8:  MOVFF  601,7BF
099FC:  MOVLB  0
099FE:  CALL   223A
09A02:  BNC   9A14
....................          resistencia=240; 
09A04:  MOVLB  6
09A06:  CLRF   x04
09A08:  CLRF   x03
09A0A:  MOVLW  70
09A0C:  MOVWF  x02
09A0E:  MOVLW  86
09A10:  MOVWF  x01
....................       else if(resistencia<230) 
09A12:  BRA    9A48
09A14:  MOVFF  604,7BE
09A18:  MOVFF  603,7BD
09A1C:  MOVFF  602,7BC
09A20:  MOVFF  601,7BB
09A24:  MOVLB  7
09A26:  CLRF   xC2
09A28:  CLRF   xC1
09A2A:  MOVLW  66
09A2C:  MOVWF  xC0
09A2E:  MOVLW  86
09A30:  MOVWF  xBF
09A32:  MOVLB  0
09A34:  CALL   223A
09A38:  BNC   9A48
....................          resistencia=240; 
09A3A:  MOVLB  6
09A3C:  CLRF   x04
09A3E:  CLRF   x03
09A40:  MOVLW  70
09A42:  MOVWF  x02
09A44:  MOVLW  86
09A46:  MOVWF  x01
....................        
....................       if(visual==1){ 
09A48:  MOVLB  5
09A4A:  BTFSS  x6D.0
09A4C:  BRA    9AD4
....................          glcd_fillScreen(OFF); 
09A4E:  MOVLB  7
09A50:  CLRF   xBC
09A52:  MOVLB  0
09A54:  CALL   18CE
....................          strcpy(Menus.Letra,"Resis."); 
09A58:  MOVLW  07
09A5A:  MOVWF  FEA
09A5C:  MOVLW  9B
09A5E:  MOVWF  FE9
09A60:  MOVFF  FF2,7BB
09A64:  BCF    FF2.7
09A66:  MOVLW  00
09A68:  CALL   0980
09A6C:  TBLRD*-
09A6E:  TBLRD*+
09A70:  MOVF   FF5,W
09A72:  MOVWF  FEE
09A74:  IORLW  00
09A76:  BNZ   9A6E
09A78:  MOVLB  7
09A7A:  BTFSC  xBB.7
09A7C:  BSF    FF2.7
....................          displayMenu(Menus.Letra,0,0,1,2); 
09A7E:  MOVLW  07
09A80:  MOVWF  xBF
09A82:  MOVLW  9B
09A84:  MOVWF  xBE
09A86:  CLRF   xC0
09A88:  CLRF   xC1
09A8A:  MOVLW  01
09A8C:  MOVWF  xC2
09A8E:  MOVLW  02
09A90:  MOVWF  xC3
09A92:  MOVLB  0
09A94:  CALL   1EFC
....................           
....................          displayTemperatura(resistencia,30,30,0,3); 
09A98:  MOVFF  604,7CA
09A9C:  MOVFF  603,7C9
09AA0:  MOVFF  602,7C8
09AA4:  MOVFF  601,7C7
09AA8:  CALL   68FA
09AAC:  MOVFF  02,7BC
09AB0:  MOVFF  01,7BB
09AB4:  MOVFF  02,7C1
09AB8:  MOVFF  01,7C0
09ABC:  MOVLW  1E
09ABE:  MOVLB  7
09AC0:  MOVWF  xC2
09AC2:  MOVWF  xC3
09AC4:  CLRF   xC4
09AC6:  MOVLW  03
09AC8:  MOVWF  xC5
09ACA:  MOVLB  0
09ACC:  CALL   512C
....................           
....................          visual=0; 
09AD0:  MOVLB  5
09AD2:  BCF    x6D.0
....................       } 
....................        
....................          if(UP)//Si oprime hacia arriba 
09AD4:  BSF    F92.5
09AD6:  BTFSC  F80.5
09AD8:  BRA    9B34
....................          {   
....................             Buzz_on;delay_ms(10);Buzz_off; 
09ADA:  BSF    F8B.4
09ADC:  BCF    F94.4
09ADE:  MOVLW  0A
09AE0:  MOVLB  7
09AE2:  MOVWF  xC1
09AE4:  MOVLB  0
09AE6:  CALL   184E
09AEA:  BCF    F8B.4
09AEC:  BCF    F94.4
....................             visual=1; 
09AEE:  MOVLB  5
09AF0:  BSF    x6D.0
....................             resistencia+=1.0; 
09AF2:  BCF    FD8.1
09AF4:  MOVFF  604,7CA
09AF8:  MOVFF  603,7C9
09AFC:  MOVFF  602,7C8
09B00:  MOVFF  601,7C7
09B04:  MOVLB  7
09B06:  CLRF   xCE
09B08:  CLRF   xCD
09B0A:  CLRF   xCC
09B0C:  MOVLW  7F
09B0E:  MOVWF  xCB
09B10:  MOVLB  0
09B12:  CALL   2412
09B16:  MOVFF  03,604
09B1A:  MOVFF  02,603
09B1E:  MOVFF  01,602
09B22:  MOVFF  00,601
....................             delay_ms(30); 
09B26:  MOVLW  1E
09B28:  MOVLB  7
09B2A:  MOVWF  xC1
09B2C:  MOVLB  0
09B2E:  CALL   184E
09B32:  MOVLB  5
....................          } 
....................                 
....................          if(DOWN)//Si oprime hacia abajo 
09B34:  BSF    F96.0
09B36:  BTFSC  F84.0
09B38:  BRA    9B94
....................          {   
....................             Buzz_on;delay_ms(10);Buzz_off; 
09B3A:  BSF    F8B.4
09B3C:  BCF    F94.4
09B3E:  MOVLW  0A
09B40:  MOVLB  7
09B42:  MOVWF  xC1
09B44:  MOVLB  0
09B46:  CALL   184E
09B4A:  BCF    F8B.4
09B4C:  BCF    F94.4
....................             visual=1; 
09B4E:  MOVLB  5
09B50:  BSF    x6D.0
....................             resistencia-=1.0; 
09B52:  BSF    FD8.1
09B54:  MOVFF  604,7CA
09B58:  MOVFF  603,7C9
09B5C:  MOVFF  602,7C8
09B60:  MOVFF  601,7C7
09B64:  MOVLB  7
09B66:  CLRF   xCE
09B68:  CLRF   xCD
09B6A:  CLRF   xCC
09B6C:  MOVLW  7F
09B6E:  MOVWF  xCB
09B70:  MOVLB  0
09B72:  CALL   2412
09B76:  MOVFF  03,604
09B7A:  MOVFF  02,603
09B7E:  MOVFF  01,602
09B82:  MOVFF  00,601
....................             delay_ms(30); 
09B86:  MOVLW  1E
09B88:  MOVLB  7
09B8A:  MOVWF  xC1
09B8C:  MOVLB  0
09B8E:  CALL   184E
09B92:  MOVLB  5
....................          } 
....................                 
....................          if(RIGHT)//Si oprime SET 
09B94:  BSF    F96.1
09B96:  BTFSC  F84.1
09B98:  BRA    9BBE
....................          {   
....................             Buzz_on;delay_ms(10);Buzz_off; 
09B9A:  BSF    F8B.4
09B9C:  BCF    F94.4
09B9E:  MOVLW  0A
09BA0:  MOVLB  7
09BA2:  MOVWF  xC1
09BA4:  MOVLB  0
09BA6:  CALL   184E
09BAA:  BCF    F8B.4
09BAC:  BCF    F94.4
....................             delay_ms(30);visual=1; 
09BAE:  MOVLW  1E
09BB0:  MOVLB  7
09BB2:  MOVWF  xC1
09BB4:  MOVLB  0
09BB6:  CALL   184E
09BBA:  MOVLB  5
09BBC:  BSF    x6D.0
....................          }  
....................                    
....................          if(LEFT)//Si oprime boton de Toma. 
09BBE:  BSF    F96.2
09BC0:  BTFSC  F84.2
09BC2:  BRA    9E88
....................          { 
....................             Buzz_on;delay_ms(10);Buzz_off; 
09BC4:  BSF    F8B.4
09BC6:  BCF    F94.4
09BC8:  MOVLW  0A
09BCA:  MOVLB  7
09BCC:  MOVWF  xC1
09BCE:  MOVLB  0
09BD0:  CALL   184E
09BD4:  BCF    F8B.4
09BD6:  BCF    F94.4
....................             delay_ms(700);Menu=100;glcd_fillscreen(OFF);Opcion=1;visual=1; 
09BD8:  MOVLW  04
09BDA:  MOVLB  7
09BDC:  MOVWF  xBB
09BDE:  MOVLW  AF
09BE0:  MOVWF  xC1
09BE2:  MOVLB  0
09BE4:  CALL   184E
09BE8:  MOVLB  7
09BEA:  DECFSZ xBB,F
09BEC:  BRA    9BDE
09BEE:  MOVLW  64
09BF0:  MOVLB  5
09BF2:  MOVWF  x72
09BF4:  MOVLB  7
09BF6:  CLRF   xBC
09BF8:  MOVLB  0
09BFA:  CALL   18CE
09BFE:  MOVLW  01
09C00:  MOVLB  5
09C02:  MOVWF  x79
09C04:  BSF    x6D.0
....................             write_eeprom(257,(int8)resistencia); 
09C06:  MOVFF  604,7CA
09C0A:  MOVFF  603,7C9
09C0E:  MOVFF  602,7C8
09C12:  MOVFF  601,7C7
09C16:  MOVLB  0
09C18:  CALL   68FA
09C1C:  MOVFF  01,7BB
09C20:  MOVLW  01
09C22:  MOVWF  FAA
09C24:  MOVWF  FA9
09C26:  MOVFF  7BB,FA8
09C2A:  BCF    FA6.6
09C2C:  BCF    FA6.7
09C2E:  BSF    FA6.2
09C30:  MOVF   FF2,W
09C32:  MOVWF  00
09C34:  BCF    FF2.7
09C36:  MOVLB  F
09C38:  MOVLW  55
09C3A:  MOVWF  FA7
09C3C:  MOVLW  AA
09C3E:  MOVWF  FA7
09C40:  BSF    FA6.1
09C42:  BTFSC  FA6.1
09C44:  BRA    9C42
09C46:  BCF    FA6.2
09C48:  MOVF   00,W
09C4A:  IORWF  FF2,F
....................             delay_ms(10); 
09C4C:  MOVLW  0A
09C4E:  MOVLB  7
09C50:  MOVWF  xC1
09C52:  MOVLB  0
09C54:  CALL   184E
....................             adcInf=(0.004*resistencia*1023)/5.0; 
09C58:  MOVLW  6F
09C5A:  MOVLB  7
09C5C:  MOVWF  xDB
09C5E:  MOVLW  12
09C60:  MOVWF  xDA
09C62:  MOVLW  03
09C64:  MOVWF  xD9
09C66:  MOVLW  77
09C68:  MOVWF  xD8
09C6A:  MOVFF  604,7DF
09C6E:  MOVFF  603,7DE
09C72:  MOVFF  602,7DD
09C76:  MOVFF  601,7DC
09C7A:  MOVLB  0
09C7C:  CALL   37C4
09C80:  MOVFF  00,7BB
09C84:  MOVFF  01,7BC
09C88:  MOVFF  02,7BD
09C8C:  MOVFF  03,7BE
09C90:  MOVFF  03,7DB
09C94:  MOVFF  02,7DA
09C98:  MOVFF  01,7D9
09C9C:  MOVFF  00,7D8
09CA0:  MOVLB  7
09CA2:  CLRF   xDF
09CA4:  MOVLW  C0
09CA6:  MOVWF  xDE
09CA8:  MOVLW  7F
09CAA:  MOVWF  xDD
09CAC:  MOVLW  88
09CAE:  MOVWF  xDC
09CB0:  MOVLB  0
09CB2:  CALL   37C4
09CB6:  MOVFF  00,7BB
09CBA:  MOVFF  01,7BC
09CBE:  MOVFF  02,7BD
09CC2:  MOVFF  03,7BE
09CC6:  MOVFF  03,7C2
09CCA:  MOVFF  02,7C1
09CCE:  MOVFF  01,7C0
09CD2:  MOVFF  00,7BF
09CD6:  MOVLB  7
09CD8:  CLRF   xC6
09CDA:  CLRF   xC5
09CDC:  MOVLW  20
09CDE:  MOVWF  xC4
09CE0:  MOVLW  81
09CE2:  MOVWF  xC3
09CE4:  MOVLB  0
09CE6:  CALL   22B4
09CEA:  MOVFF  03,630
09CEE:  MOVFF  02,62F
09CF2:  MOVFF  01,62E
09CF6:  MOVFF  00,62D
....................             adcSup=(0.02*resistencia*1023)/5.0; 
09CFA:  MOVLW  0A
09CFC:  MOVLB  7
09CFE:  MOVWF  xDB
09D00:  MOVLW  D7
09D02:  MOVWF  xDA
09D04:  MOVLW  23
09D06:  MOVWF  xD9
09D08:  MOVLW  79
09D0A:  MOVWF  xD8
09D0C:  MOVFF  604,7DF
09D10:  MOVFF  603,7DE
09D14:  MOVFF  602,7DD
09D18:  MOVFF  601,7DC
09D1C:  MOVLB  0
09D1E:  CALL   37C4
09D22:  MOVFF  00,7BB
09D26:  MOVFF  01,7BC
09D2A:  MOVFF  02,7BD
09D2E:  MOVFF  03,7BE
09D32:  MOVFF  03,7DB
09D36:  MOVFF  02,7DA
09D3A:  MOVFF  01,7D9
09D3E:  MOVFF  00,7D8
09D42:  MOVLB  7
09D44:  CLRF   xDF
09D46:  MOVLW  C0
09D48:  MOVWF  xDE
09D4A:  MOVLW  7F
09D4C:  MOVWF  xDD
09D4E:  MOVLW  88
09D50:  MOVWF  xDC
09D52:  MOVLB  0
09D54:  CALL   37C4
09D58:  MOVFF  00,7BB
09D5C:  MOVFF  01,7BC
09D60:  MOVFF  02,7BD
09D64:  MOVFF  03,7BE
09D68:  MOVFF  03,7C2
09D6C:  MOVFF  02,7C1
09D70:  MOVFF  01,7C0
09D74:  MOVFF  00,7BF
09D78:  MOVLB  7
09D7A:  CLRF   xC6
09D7C:  CLRF   xC5
09D7E:  MOVLW  20
09D80:  MOVWF  xC4
09D82:  MOVLW  81
09D84:  MOVWF  xC3
09D86:  MOVLB  0
09D88:  CALL   22B4
09D8C:  MOVFF  03,62C
09D90:  MOVFF  02,62B
09D94:  MOVFF  01,62A
09D98:  MOVFF  00,629
....................             m=(Tsup-Tinf)/(adcSup-adcInf); 
09D9C:  BSF    FD8.1
09D9E:  MOVFF  634,7CA
09DA2:  MOVFF  633,7C9
09DA6:  MOVFF  632,7C8
09DAA:  MOVFF  631,7C7
09DAE:  MOVFF  638,7CE
09DB2:  MOVFF  637,7CD
09DB6:  MOVFF  636,7CC
09DBA:  MOVFF  635,7CB
09DBE:  CALL   2412
09DC2:  MOVFF  00,7BB
09DC6:  MOVFF  01,7BC
09DCA:  MOVFF  02,7BD
09DCE:  MOVFF  03,7BE
09DD2:  BSF    FD8.1
09DD4:  MOVFF  62C,7CA
09DD8:  MOVFF  62B,7C9
09DDC:  MOVFF  62A,7C8
09DE0:  MOVFF  629,7C7
09DE4:  MOVFF  630,7CE
09DE8:  MOVFF  62F,7CD
09DEC:  MOVFF  62E,7CC
09DF0:  MOVFF  62D,7CB
09DF4:  CALL   2412
09DF8:  MOVFF  7BE,7C2
09DFC:  MOVFF  7BD,7C1
09E00:  MOVFF  7BC,7C0
09E04:  MOVFF  7BB,7BF
09E08:  MOVFF  03,7C6
09E0C:  MOVFF  02,7C5
09E10:  MOVFF  01,7C4
09E14:  MOVFF  00,7C3
09E18:  CALL   22B4
09E1C:  MOVFF  03,624
09E20:  MOVFF  02,623
09E24:  MOVFF  01,622
09E28:  MOVFF  00,621
....................             b=Tsup-(m*adcSup); 
09E2C:  MOVFF  624,7DB
09E30:  MOVFF  623,7DA
09E34:  MOVFF  622,7D9
09E38:  MOVFF  621,7D8
09E3C:  MOVFF  62C,7DF
09E40:  MOVFF  62B,7DE
09E44:  MOVFF  62A,7DD
09E48:  MOVFF  629,7DC
09E4C:  CALL   37C4
09E50:  BSF    FD8.1
09E52:  MOVFF  634,7CA
09E56:  MOVFF  633,7C9
09E5A:  MOVFF  632,7C8
09E5E:  MOVFF  631,7C7
09E62:  MOVFF  03,7CE
09E66:  MOVFF  02,7CD
09E6A:  MOVFF  01,7CC
09E6E:  MOVFF  00,7CB
09E72:  CALL   2412
09E76:  MOVFF  03,628
09E7A:  MOVFF  02,627
09E7E:  MOVFF  01,626
09E82:  MOVFF  00,625
09E86:  MOVLB  5
....................          } 
....................      } 
.................... //_-------------------------------------------------------------------------------------------------------------------------------------------------------- 
....................  
.................... //_--------------------------------------------------------------------------------------------------------------------------------------------------------       
....................       if(Menu==111){ // Menu de Pendiente de calentamiento de mufla 
09E88:  MOVF   x72,W
09E8A:  SUBLW  6F
09E8C:  BTFSS  FD8.2
09E8E:  BRA    A10A
....................        
....................       if(penMufla>255)       
09E90:  MOVLB  7
09E92:  CLRF   xBE
09E94:  CLRF   xBD
09E96:  MOVLW  7F
09E98:  MOVWF  xBC
09E9A:  MOVLW  86
09E9C:  MOVWF  xBB
09E9E:  MOVFF  63C,7C2
09EA2:  MOVFF  63B,7C1
09EA6:  MOVFF  63A,7C0
09EAA:  MOVFF  639,7BF
09EAE:  MOVLB  0
09EB0:  CALL   223A
09EB4:  BNC   9EC4
....................          penMufla=1; 
09EB6:  MOVLB  6
09EB8:  CLRF   x3C
09EBA:  CLRF   x3B
09EBC:  CLRF   x3A
09EBE:  MOVLW  7F
09EC0:  MOVWF  x39
....................       else if(penMufla<1) 
09EC2:  BRA    9EF6
09EC4:  MOVFF  63C,7BE
09EC8:  MOVFF  63B,7BD
09ECC:  MOVFF  63A,7BC
09ED0:  MOVFF  639,7BB
09ED4:  MOVLB  7
09ED6:  CLRF   xC2
09ED8:  CLRF   xC1
09EDA:  CLRF   xC0
09EDC:  MOVLW  7F
09EDE:  MOVWF  xBF
09EE0:  MOVLB  0
09EE2:  CALL   223A
09EE6:  BNC   9EF6
....................          penMufla=255; 
09EE8:  MOVLB  6
09EEA:  CLRF   x3C
09EEC:  CLRF   x3B
09EEE:  MOVLW  7F
09EF0:  MOVWF  x3A
09EF2:  MOVLW  86
09EF4:  MOVWF  x39
....................        
....................       if(visual==1){ 
09EF6:  MOVLB  5
09EF8:  BTFSS  x6D.0
09EFA:  BRA    9F82
....................          glcd_fillScreen(OFF); 
09EFC:  MOVLB  7
09EFE:  CLRF   xBC
09F00:  MOVLB  0
09F02:  CALL   18CE
....................          strcpy(Menus.Letra,"m Mufla"); 
09F06:  MOVLW  07
09F08:  MOVWF  FEA
09F0A:  MOVLW  9B
09F0C:  MOVWF  FE9
09F0E:  MOVFF  FF2,7BB
09F12:  BCF    FF2.7
09F14:  MOVLW  00
09F16:  CALL   09A6
09F1A:  TBLRD*-
09F1C:  TBLRD*+
09F1E:  MOVF   FF5,W
09F20:  MOVWF  FEE
09F22:  IORLW  00
09F24:  BNZ   9F1C
09F26:  MOVLB  7
09F28:  BTFSC  xBB.7
09F2A:  BSF    FF2.7
....................          displayMenu(Menus.Letra,0,0,1,2); 
09F2C:  MOVLW  07
09F2E:  MOVWF  xBF
09F30:  MOVLW  9B
09F32:  MOVWF  xBE
09F34:  CLRF   xC0
09F36:  CLRF   xC1
09F38:  MOVLW  01
09F3A:  MOVWF  xC2
09F3C:  MOVLW  02
09F3E:  MOVWF  xC3
09F40:  MOVLB  0
09F42:  CALL   1EFC
....................           
....................          displayTemperatura(penMufla,30,30,0,3); 
09F46:  MOVFF  63C,7CA
09F4A:  MOVFF  63B,7C9
09F4E:  MOVFF  63A,7C8
09F52:  MOVFF  639,7C7
09F56:  CALL   68FA
09F5A:  MOVFF  02,7BC
09F5E:  MOVFF  01,7BB
09F62:  MOVFF  02,7C1
09F66:  MOVFF  01,7C0
09F6A:  MOVLW  1E
09F6C:  MOVLB  7
09F6E:  MOVWF  xC2
09F70:  MOVWF  xC3
09F72:  CLRF   xC4
09F74:  MOVLW  03
09F76:  MOVWF  xC5
09F78:  MOVLB  0
09F7A:  CALL   512C
....................           
....................          visual=0; 
09F7E:  MOVLB  5
09F80:  BCF    x6D.0
....................       } 
....................        
....................          if(UP)//Si oprime hacia arriba 
09F82:  BSF    F92.5
09F84:  BTFSC  F80.5
09F86:  BRA    9FE2
....................          {   
....................             Buzz_on;delay_ms(10);Buzz_off; 
09F88:  BSF    F8B.4
09F8A:  BCF    F94.4
09F8C:  MOVLW  0A
09F8E:  MOVLB  7
09F90:  MOVWF  xC1
09F92:  MOVLB  0
09F94:  CALL   184E
09F98:  BCF    F8B.4
09F9A:  BCF    F94.4
....................             visual=1; 
09F9C:  MOVLB  5
09F9E:  BSF    x6D.0
....................             penMufla+=1.0; 
09FA0:  BCF    FD8.1
09FA2:  MOVFF  63C,7CA
09FA6:  MOVFF  63B,7C9
09FAA:  MOVFF  63A,7C8
09FAE:  MOVFF  639,7C7
09FB2:  MOVLB  7
09FB4:  CLRF   xCE
09FB6:  CLRF   xCD
09FB8:  CLRF   xCC
09FBA:  MOVLW  7F
09FBC:  MOVWF  xCB
09FBE:  MOVLB  0
09FC0:  CALL   2412
09FC4:  MOVFF  03,63C
09FC8:  MOVFF  02,63B
09FCC:  MOVFF  01,63A
09FD0:  MOVFF  00,639
....................             delay_ms(30); 
09FD4:  MOVLW  1E
09FD6:  MOVLB  7
09FD8:  MOVWF  xC1
09FDA:  MOVLB  0
09FDC:  CALL   184E
09FE0:  MOVLB  5
....................          } 
....................                 
....................          if(DOWN)//Si oprime hacia abajo 
09FE2:  BSF    F96.0
09FE4:  BTFSC  F84.0
09FE6:  BRA    A042
....................          {   
....................             Buzz_on;delay_ms(10);Buzz_off; 
09FE8:  BSF    F8B.4
09FEA:  BCF    F94.4
09FEC:  MOVLW  0A
09FEE:  MOVLB  7
09FF0:  MOVWF  xC1
09FF2:  MOVLB  0
09FF4:  CALL   184E
09FF8:  BCF    F8B.4
09FFA:  BCF    F94.4
....................             visual=1; 
09FFC:  MOVLB  5
09FFE:  BSF    x6D.0
....................             penMufla-=1.0; 
0A000:  BSF    FD8.1
0A002:  MOVFF  63C,7CA
0A006:  MOVFF  63B,7C9
0A00A:  MOVFF  63A,7C8
0A00E:  MOVFF  639,7C7
0A012:  MOVLB  7
0A014:  CLRF   xCE
0A016:  CLRF   xCD
0A018:  CLRF   xCC
0A01A:  MOVLW  7F
0A01C:  MOVWF  xCB
0A01E:  MOVLB  0
0A020:  CALL   2412
0A024:  MOVFF  03,63C
0A028:  MOVFF  02,63B
0A02C:  MOVFF  01,63A
0A030:  MOVFF  00,639
....................             delay_ms(30); 
0A034:  MOVLW  1E
0A036:  MOVLB  7
0A038:  MOVWF  xC1
0A03A:  MOVLB  0
0A03C:  CALL   184E
0A040:  MOVLB  5
....................          } 
....................                 
....................          if(RIGHT)//Si oprime SET 
0A042:  BSF    F96.1
0A044:  BTFSC  F84.1
0A046:  BRA    A06C
....................          {   
....................             Buzz_on;delay_ms(10);Buzz_off; 
0A048:  BSF    F8B.4
0A04A:  BCF    F94.4
0A04C:  MOVLW  0A
0A04E:  MOVLB  7
0A050:  MOVWF  xC1
0A052:  MOVLB  0
0A054:  CALL   184E
0A058:  BCF    F8B.4
0A05A:  BCF    F94.4
....................             delay_ms(30);visual=1; 
0A05C:  MOVLW  1E
0A05E:  MOVLB  7
0A060:  MOVWF  xC1
0A062:  MOVLB  0
0A064:  CALL   184E
0A068:  MOVLB  5
0A06A:  BSF    x6D.0
....................          }  
....................                    
....................          if(LEFT)//Si oprime boton de Toma. 
0A06C:  BSF    F96.2
0A06E:  BTFSC  F84.2
0A070:  BRA    A10A
....................          { 
....................             Buzz_on;delay_ms(10);Buzz_off; 
0A072:  BSF    F8B.4
0A074:  BCF    F94.4
0A076:  MOVLW  0A
0A078:  MOVLB  7
0A07A:  MOVWF  xC1
0A07C:  MOVLB  0
0A07E:  CALL   184E
0A082:  BCF    F8B.4
0A084:  BCF    F94.4
....................             delay_ms(700);Menu=100;glcd_fillscreen(OFF);Opcion=1;visual=1; 
0A086:  MOVLW  04
0A088:  MOVLB  7
0A08A:  MOVWF  xBB
0A08C:  MOVLW  AF
0A08E:  MOVWF  xC1
0A090:  MOVLB  0
0A092:  CALL   184E
0A096:  MOVLB  7
0A098:  DECFSZ xBB,F
0A09A:  BRA    A08C
0A09C:  MOVLW  64
0A09E:  MOVLB  5
0A0A0:  MOVWF  x72
0A0A2:  MOVLB  7
0A0A4:  CLRF   xBC
0A0A6:  MOVLB  0
0A0A8:  CALL   18CE
0A0AC:  MOVLW  01
0A0AE:  MOVLB  5
0A0B0:  MOVWF  x79
0A0B2:  BSF    x6D.0
....................             write_eeprom(258,(int8)penMufla); 
0A0B4:  MOVFF  63C,7CA
0A0B8:  MOVFF  63B,7C9
0A0BC:  MOVFF  63A,7C8
0A0C0:  MOVFF  639,7C7
0A0C4:  MOVLB  0
0A0C6:  CALL   68FA
0A0CA:  MOVFF  01,7BB
0A0CE:  MOVLW  01
0A0D0:  MOVWF  FAA
0A0D2:  MOVLW  02
0A0D4:  MOVWF  FA9
0A0D6:  MOVFF  7BB,FA8
0A0DA:  BCF    FA6.6
0A0DC:  BCF    FA6.7
0A0DE:  BSF    FA6.2
0A0E0:  MOVF   FF2,W
0A0E2:  MOVWF  00
0A0E4:  BCF    FF2.7
0A0E6:  MOVLB  F
0A0E8:  MOVLW  55
0A0EA:  MOVWF  FA7
0A0EC:  MOVLW  AA
0A0EE:  MOVWF  FA7
0A0F0:  BSF    FA6.1
0A0F2:  BTFSC  FA6.1
0A0F4:  BRA    A0F2
0A0F6:  BCF    FA6.2
0A0F8:  MOVF   00,W
0A0FA:  IORWF  FF2,F
....................             delay_ms(10); 
0A0FC:  MOVLW  0A
0A0FE:  MOVLB  7
0A100:  MOVWF  xC1
0A102:  MOVLB  0
0A104:  CALL   184E
0A108:  MOVLB  5
....................          } 
....................      } 
.................... //_-------------------------------------------------------------------------------------------------------------------------------------------------------- 
....................  
.................... //_--------------------------------------------------------------------------------------------------------------------------------------------------------       
....................       if(Menu==112){ // Menu de Pendiente de termocupla 
0A10A:  MOVF   x72,W
0A10C:  SUBLW  70
0A10E:  BTFSS  FD8.2
0A110:  BRA    A3DE
....................        
....................       if(m>2.0)       
0A112:  MOVLB  7
0A114:  CLRF   xBE
0A116:  CLRF   xBD
0A118:  CLRF   xBC
0A11A:  MOVLW  80
0A11C:  MOVWF  xBB
0A11E:  MOVFF  624,7C2
0A122:  MOVFF  623,7C1
0A126:  MOVFF  622,7C0
0A12A:  MOVFF  621,7BF
0A12E:  MOVLB  0
0A130:  CALL   223A
0A134:  BNC   A14A
....................          m=1.2; 
0A136:  MOVLW  9A
0A138:  MOVLB  6
0A13A:  MOVWF  x24
0A13C:  MOVLW  99
0A13E:  MOVWF  x23
0A140:  MOVLW  19
0A142:  MOVWF  x22
0A144:  MOVLW  7F
0A146:  MOVWF  x21
....................       else if(m<1.2) 
0A148:  BRA    A180
0A14A:  MOVFF  624,7BE
0A14E:  MOVFF  623,7BD
0A152:  MOVFF  622,7BC
0A156:  MOVFF  621,7BB
0A15A:  MOVLW  9A
0A15C:  MOVLB  7
0A15E:  MOVWF  xC2
0A160:  MOVLW  99
0A162:  MOVWF  xC1
0A164:  MOVLW  19
0A166:  MOVWF  xC0
0A168:  MOVLW  7F
0A16A:  MOVWF  xBF
0A16C:  MOVLB  0
0A16E:  CALL   223A
0A172:  BNC   A180
....................          m=2.0; 
0A174:  MOVLB  6
0A176:  CLRF   x24
0A178:  CLRF   x23
0A17A:  CLRF   x22
0A17C:  MOVLW  80
0A17E:  MOVWF  x21
....................        
....................       if(visual==1){ 
0A180:  MOVLB  5
0A182:  BTFSS  x6D.0
0A184:  BRA    A1F8
....................          glcd_fillScreen(OFF); 
0A186:  MOVLB  7
0A188:  CLRF   xBC
0A18A:  MOVLB  0
0A18C:  CALL   18CE
....................          strcpy(Menus.Letra,"m"); 
0A190:  MOVLW  07
0A192:  MOVWF  FEA
0A194:  MOVLW  9B
0A196:  MOVWF  FE9
0A198:  MOVFF  FF2,7BB
0A19C:  BCF    FF2.7
0A19E:  MOVLW  00
0A1A0:  CALL   09CC
0A1A4:  TBLRD*-
0A1A6:  TBLRD*+
0A1A8:  MOVF   FF5,W
0A1AA:  MOVWF  FEE
0A1AC:  IORLW  00
0A1AE:  BNZ   A1A6
0A1B0:  MOVLB  7
0A1B2:  BTFSC  xBB.7
0A1B4:  BSF    FF2.7
....................          displayMenu(Menus.Letra,0,0,1,2); 
0A1B6:  MOVLW  07
0A1B8:  MOVWF  xBF
0A1BA:  MOVLW  9B
0A1BC:  MOVWF  xBE
0A1BE:  CLRF   xC0
0A1C0:  CLRF   xC1
0A1C2:  MOVLW  01
0A1C4:  MOVWF  xC2
0A1C6:  MOVLW  02
0A1C8:  MOVWF  xC3
0A1CA:  MOVLB  0
0A1CC:  CALL   1EFC
....................           
....................          displayFloat(m,10,30,3); 
0A1D0:  MOVFF  624,7BE
0A1D4:  MOVFF  623,7BD
0A1D8:  MOVFF  622,7BC
0A1DC:  MOVFF  621,7BB
0A1E0:  MOVLW  0A
0A1E2:  MOVLB  7
0A1E4:  MOVWF  xBF
0A1E6:  MOVLW  1E
0A1E8:  MOVWF  xC0
0A1EA:  MOVLW  03
0A1EC:  MOVWF  xC1
0A1EE:  MOVLB  0
0A1F0:  CALL   7BD4
....................           
....................          visual=0; 
0A1F4:  MOVLB  5
0A1F6:  BCF    x6D.0
....................       } 
....................        
....................          if(UP)//Si oprime hacia arriba 
0A1F8:  BSF    F92.5
0A1FA:  BTFSC  F80.5
0A1FC:  BRA    A25E
....................          {   
....................             Buzz_on;delay_ms(10);Buzz_off; 
0A1FE:  BSF    F8B.4
0A200:  BCF    F94.4
0A202:  MOVLW  0A
0A204:  MOVLB  7
0A206:  MOVWF  xC1
0A208:  MOVLB  0
0A20A:  CALL   184E
0A20E:  BCF    F8B.4
0A210:  BCF    F94.4
....................             visual=1; 
0A212:  MOVLB  5
0A214:  BSF    x6D.0
....................             m+=0.01; 
0A216:  BCF    FD8.1
0A218:  MOVFF  624,7CA
0A21C:  MOVFF  623,7C9
0A220:  MOVFF  622,7C8
0A224:  MOVFF  621,7C7
0A228:  MOVLW  0A
0A22A:  MOVLB  7
0A22C:  MOVWF  xCE
0A22E:  MOVLW  D7
0A230:  MOVWF  xCD
0A232:  MOVLW  23
0A234:  MOVWF  xCC
0A236:  MOVLW  78
0A238:  MOVWF  xCB
0A23A:  MOVLB  0
0A23C:  CALL   2412
0A240:  MOVFF  03,624
0A244:  MOVFF  02,623
0A248:  MOVFF  01,622
0A24C:  MOVFF  00,621
....................             delay_ms(10); 
0A250:  MOVLW  0A
0A252:  MOVLB  7
0A254:  MOVWF  xC1
0A256:  MOVLB  0
0A258:  CALL   184E
0A25C:  MOVLB  5
....................          } 
....................                 
....................          if(DOWN)//Si oprime hacia abajo 
0A25E:  BSF    F96.0
0A260:  BTFSC  F84.0
0A262:  BRA    A2C4
....................          {   
....................             Buzz_on;delay_ms(10);Buzz_off; 
0A264:  BSF    F8B.4
0A266:  BCF    F94.4
0A268:  MOVLW  0A
0A26A:  MOVLB  7
0A26C:  MOVWF  xC1
0A26E:  MOVLB  0
0A270:  CALL   184E
0A274:  BCF    F8B.4
0A276:  BCF    F94.4
....................             visual=1; 
0A278:  MOVLB  5
0A27A:  BSF    x6D.0
....................             m-=0.01; 
0A27C:  BSF    FD8.1
0A27E:  MOVFF  624,7CA
0A282:  MOVFF  623,7C9
0A286:  MOVFF  622,7C8
0A28A:  MOVFF  621,7C7
0A28E:  MOVLW  0A
0A290:  MOVLB  7
0A292:  MOVWF  xCE
0A294:  MOVLW  D7
0A296:  MOVWF  xCD
0A298:  MOVLW  23
0A29A:  MOVWF  xCC
0A29C:  MOVLW  78
0A29E:  MOVWF  xCB
0A2A0:  MOVLB  0
0A2A2:  CALL   2412
0A2A6:  MOVFF  03,624
0A2AA:  MOVFF  02,623
0A2AE:  MOVFF  01,622
0A2B2:  MOVFF  00,621
....................             delay_ms(10); 
0A2B6:  MOVLW  0A
0A2B8:  MOVLB  7
0A2BA:  MOVWF  xC1
0A2BC:  MOVLB  0
0A2BE:  CALL   184E
0A2C2:  MOVLB  5
....................          } 
....................                 
....................          if(RIGHT)//Si oprime SET 
0A2C4:  BSF    F96.1
0A2C6:  BTFSC  F84.1
0A2C8:  BRA    A2EE
....................          {   
....................             Buzz_on;delay_ms(10);Buzz_off; 
0A2CA:  BSF    F8B.4
0A2CC:  BCF    F94.4
0A2CE:  MOVLW  0A
0A2D0:  MOVLB  7
0A2D2:  MOVWF  xC1
0A2D4:  MOVLB  0
0A2D6:  CALL   184E
0A2DA:  BCF    F8B.4
0A2DC:  BCF    F94.4
....................             delay_ms(30);visual=1; 
0A2DE:  MOVLW  1E
0A2E0:  MOVLB  7
0A2E2:  MOVWF  xC1
0A2E4:  MOVLB  0
0A2E6:  CALL   184E
0A2EA:  MOVLB  5
0A2EC:  BSF    x6D.0
....................          }  
....................                    
....................          if(LEFT)//Si oprime boton de Toma. 
0A2EE:  BSF    F96.2
0A2F0:  BTFSC  F84.2
0A2F2:  BRA    A3DE
....................          { 
....................             Buzz_on;delay_ms(10);Buzz_off; 
0A2F4:  BSF    F8B.4
0A2F6:  BCF    F94.4
0A2F8:  MOVLW  0A
0A2FA:  MOVLB  7
0A2FC:  MOVWF  xC1
0A2FE:  MOVLB  0
0A300:  CALL   184E
0A304:  BCF    F8B.4
0A306:  BCF    F94.4
....................             delay_ms(700);Menu=100;glcd_fillscreen(OFF);Opcion=1;visual=1; 
0A308:  MOVLW  04
0A30A:  MOVLB  7
0A30C:  MOVWF  xBB
0A30E:  MOVLW  AF
0A310:  MOVWF  xC1
0A312:  MOVLB  0
0A314:  CALL   184E
0A318:  MOVLB  7
0A31A:  DECFSZ xBB,F
0A31C:  BRA    A30E
0A31E:  MOVLW  64
0A320:  MOVLB  5
0A322:  MOVWF  x72
0A324:  MOVLB  7
0A326:  CLRF   xBC
0A328:  MOVLB  0
0A32A:  CALL   18CE
0A32E:  MOVLW  01
0A330:  MOVLB  5
0A332:  MOVWF  x79
0A334:  BSF    x6D.0
....................             write_eeprom(490,(int8)m); 
0A336:  MOVFF  624,7CA
0A33A:  MOVFF  623,7C9
0A33E:  MOVFF  622,7C8
0A342:  MOVFF  621,7C7
0A346:  MOVLB  0
0A348:  CALL   68FA
0A34C:  MOVFF  01,7BB
0A350:  MOVLW  01
0A352:  MOVWF  FAA
0A354:  MOVLW  EA
0A356:  MOVWF  FA9
0A358:  MOVFF  7BB,FA8
0A35C:  BCF    FA6.6
0A35E:  BCF    FA6.7
0A360:  BSF    FA6.2
0A362:  MOVF   FF2,W
0A364:  MOVWF  00
0A366:  BCF    FF2.7
0A368:  MOVLB  F
0A36A:  MOVLW  55
0A36C:  MOVWF  FA7
0A36E:  MOVLW  AA
0A370:  MOVWF  FA7
0A372:  BSF    FA6.1
0A374:  BTFSC  FA6.1
0A376:  BRA    A374
0A378:  BCF    FA6.2
0A37A:  MOVF   00,W
0A37C:  IORWF  FF2,F
....................             delay_ms(10); 
0A37E:  MOVLW  0A
0A380:  MOVLB  7
0A382:  MOVWF  xC1
0A384:  MOVLB  0
0A386:  CALL   184E
....................             write_eeprom(491,extraeDecimal(m)); 
0A38A:  MOVFF  624,7BE
0A38E:  MOVFF  623,7BD
0A392:  MOVFF  622,7BC
0A396:  MOVFF  621,7BB
0A39A:  CALL   826A
0A39E:  MOVFF  01,7BB
0A3A2:  MOVLW  01
0A3A4:  MOVWF  FAA
0A3A6:  MOVLW  EB
0A3A8:  MOVWF  FA9
0A3AA:  MOVFF  7BB,FA8
0A3AE:  BCF    FA6.6
0A3B0:  BCF    FA6.7
0A3B2:  BSF    FA6.2
0A3B4:  MOVF   FF2,W
0A3B6:  MOVWF  00
0A3B8:  BCF    FF2.7
0A3BA:  MOVLB  F
0A3BC:  MOVLW  55
0A3BE:  MOVWF  FA7
0A3C0:  MOVLW  AA
0A3C2:  MOVWF  FA7
0A3C4:  BSF    FA6.1
0A3C6:  BTFSC  FA6.1
0A3C8:  BRA    A3C6
0A3CA:  BCF    FA6.2
0A3CC:  MOVF   00,W
0A3CE:  IORWF  FF2,F
....................             delay_ms(10); 
0A3D0:  MOVLW  0A
0A3D2:  MOVLB  7
0A3D4:  MOVWF  xC1
0A3D6:  MOVLB  0
0A3D8:  CALL   184E
0A3DC:  MOVLB  5
....................          } 
....................      } 
.................... //_-------------------------------------------------------------------------------------------------------------------------------------------------------- 
....................  
.................... //_--------------------------------------------------------------------------------------------------------------------------------------------------------       
....................       if(Menu==113){ // Menu de b de termocupla 
0A3DE:  MOVF   x72,W
0A3E0:  SUBLW  71
0A3E2:  BTFSS  FD8.2
0A3E4:  BRA    A6F2
....................        
....................       if(b>400)       
0A3E6:  MOVLB  7
0A3E8:  CLRF   xBE
0A3EA:  CLRF   xBD
0A3EC:  MOVLW  48
0A3EE:  MOVWF  xBC
0A3F0:  MOVLW  87
0A3F2:  MOVWF  xBB
0A3F4:  MOVFF  628,7C2
0A3F8:  MOVFF  627,7C1
0A3FC:  MOVFF  626,7C0
0A400:  MOVFF  625,7BF
0A404:  MOVLB  0
0A406:  CALL   223A
0A40A:  BNC   A41C
....................          b=300; 
0A40C:  MOVLB  6
0A40E:  CLRF   x28
0A410:  CLRF   x27
0A412:  MOVLW  16
0A414:  MOVWF  x26
0A416:  MOVLW  87
0A418:  MOVWF  x25
....................       else if(b<300) 
0A41A:  BRA    A450
0A41C:  MOVFF  628,7BE
0A420:  MOVFF  627,7BD
0A424:  MOVFF  626,7BC
0A428:  MOVFF  625,7BB
0A42C:  MOVLB  7
0A42E:  CLRF   xC2
0A430:  CLRF   xC1
0A432:  MOVLW  16
0A434:  MOVWF  xC0
0A436:  MOVLW  87
0A438:  MOVWF  xBF
0A43A:  MOVLB  0
0A43C:  CALL   223A
0A440:  BNC   A450
....................          b=400; 
0A442:  MOVLB  6
0A444:  CLRF   x28
0A446:  CLRF   x27
0A448:  MOVLW  48
0A44A:  MOVWF  x26
0A44C:  MOVLW  87
0A44E:  MOVWF  x25
....................        
....................       if(visual==1){ 
0A450:  MOVLB  5
0A452:  BTFSS  x6D.0
0A454:  BRA    A4C6
....................          glcd_fillScreen(OFF); 
0A456:  MOVLB  7
0A458:  CLRF   xBC
0A45A:  MOVLB  0
0A45C:  CALL   18CE
....................          strcpy(Menus.Letra,"b"); 
0A460:  MOVLW  07
0A462:  MOVWF  FEA
0A464:  MOVLW  9B
0A466:  MOVWF  FE9
0A468:  MOVFF  FF2,7BB
0A46C:  BCF    FF2.7
0A46E:  MOVLW  00
0A470:  CALL   09EC
0A474:  TBLRD*-
0A476:  TBLRD*+
0A478:  MOVF   FF5,W
0A47A:  MOVWF  FEE
0A47C:  IORLW  00
0A47E:  BNZ   A476
0A480:  MOVLB  7
0A482:  BTFSC  xBB.7
0A484:  BSF    FF2.7
....................          displayMenu(Menus.Letra,0,0,1,2); 
0A486:  MOVLW  07
0A488:  MOVWF  xBF
0A48A:  MOVLW  9B
0A48C:  MOVWF  xBE
0A48E:  CLRF   xC0
0A490:  CLRF   xC1
0A492:  MOVLW  01
0A494:  MOVWF  xC2
0A496:  MOVLW  02
0A498:  MOVWF  xC3
0A49A:  MOVLB  0
0A49C:  CALL   1EFC
....................           
....................          displayFloat(b,30,30,3); 
0A4A0:  MOVFF  628,7BE
0A4A4:  MOVFF  627,7BD
0A4A8:  MOVFF  626,7BC
0A4AC:  MOVFF  625,7BB
0A4B0:  MOVLW  1E
0A4B2:  MOVLB  7
0A4B4:  MOVWF  xBF
0A4B6:  MOVWF  xC0
0A4B8:  MOVLW  03
0A4BA:  MOVWF  xC1
0A4BC:  MOVLB  0
0A4BE:  CALL   7BD4
....................           
....................          visual=0; 
0A4C2:  MOVLB  5
0A4C4:  BCF    x6D.0
....................       } 
....................        
....................          if(UP)//Si oprime hacia arriba 
0A4C6:  BSF    F92.5
0A4C8:  BTFSC  F80.5
0A4CA:  BRA    A52C
....................          {   
....................             Buzz_on;delay_ms(10);Buzz_off; 
0A4CC:  BSF    F8B.4
0A4CE:  BCF    F94.4
0A4D0:  MOVLW  0A
0A4D2:  MOVLB  7
0A4D4:  MOVWF  xC1
0A4D6:  MOVLB  0
0A4D8:  CALL   184E
0A4DC:  BCF    F8B.4
0A4DE:  BCF    F94.4
....................             visual=1; 
0A4E0:  MOVLB  5
0A4E2:  BSF    x6D.0
....................             b+=0.1; 
0A4E4:  BCF    FD8.1
0A4E6:  MOVFF  628,7CA
0A4EA:  MOVFF  627,7C9
0A4EE:  MOVFF  626,7C8
0A4F2:  MOVFF  625,7C7
0A4F6:  MOVLW  CD
0A4F8:  MOVLB  7
0A4FA:  MOVWF  xCE
0A4FC:  MOVLW  CC
0A4FE:  MOVWF  xCD
0A500:  MOVLW  4C
0A502:  MOVWF  xCC
0A504:  MOVLW  7B
0A506:  MOVWF  xCB
0A508:  MOVLB  0
0A50A:  CALL   2412
0A50E:  MOVFF  03,628
0A512:  MOVFF  02,627
0A516:  MOVFF  01,626
0A51A:  MOVFF  00,625
....................             delay_ms(10); 
0A51E:  MOVLW  0A
0A520:  MOVLB  7
0A522:  MOVWF  xC1
0A524:  MOVLB  0
0A526:  CALL   184E
0A52A:  MOVLB  5
....................          } 
....................                 
....................          if(DOWN)//Si oprime hacia abajo 
0A52C:  BSF    F96.0
0A52E:  BTFSC  F84.0
0A530:  BRA    A592
....................          {   
....................             Buzz_on;delay_ms(10);Buzz_off; 
0A532:  BSF    F8B.4
0A534:  BCF    F94.4
0A536:  MOVLW  0A
0A538:  MOVLB  7
0A53A:  MOVWF  xC1
0A53C:  MOVLB  0
0A53E:  CALL   184E
0A542:  BCF    F8B.4
0A544:  BCF    F94.4
....................             visual=1; 
0A546:  MOVLB  5
0A548:  BSF    x6D.0
....................             b-=0.1; 
0A54A:  BSF    FD8.1
0A54C:  MOVFF  628,7CA
0A550:  MOVFF  627,7C9
0A554:  MOVFF  626,7C8
0A558:  MOVFF  625,7C7
0A55C:  MOVLW  CD
0A55E:  MOVLB  7
0A560:  MOVWF  xCE
0A562:  MOVLW  CC
0A564:  MOVWF  xCD
0A566:  MOVLW  4C
0A568:  MOVWF  xCC
0A56A:  MOVLW  7B
0A56C:  MOVWF  xCB
0A56E:  MOVLB  0
0A570:  CALL   2412
0A574:  MOVFF  03,628
0A578:  MOVFF  02,627
0A57C:  MOVFF  01,626
0A580:  MOVFF  00,625
....................             delay_ms(10); 
0A584:  MOVLW  0A
0A586:  MOVLB  7
0A588:  MOVWF  xC1
0A58A:  MOVLB  0
0A58C:  CALL   184E
0A590:  MOVLB  5
....................          } 
....................                 
....................          if(RIGHT)//Si oprime SET 
0A592:  BSF    F96.1
0A594:  BTFSC  F84.1
0A596:  BRA    A5BC
....................          {   
....................             Buzz_on;delay_ms(10);Buzz_off; 
0A598:  BSF    F8B.4
0A59A:  BCF    F94.4
0A59C:  MOVLW  0A
0A59E:  MOVLB  7
0A5A0:  MOVWF  xC1
0A5A2:  MOVLB  0
0A5A4:  CALL   184E
0A5A8:  BCF    F8B.4
0A5AA:  BCF    F94.4
....................             delay_ms(30);visual=1; 
0A5AC:  MOVLW  1E
0A5AE:  MOVLB  7
0A5B0:  MOVWF  xC1
0A5B2:  MOVLB  0
0A5B4:  CALL   184E
0A5B8:  MOVLB  5
0A5BA:  BSF    x6D.0
....................          }  
....................                    
....................          if(LEFT)//Si oprime boton de Toma. 
0A5BC:  BSF    F96.2
0A5BE:  BTFSC  F84.2
0A5C0:  BRA    A6F2
....................          { 
....................             Buzz_on;delay_ms(10);Buzz_off; 
0A5C2:  BSF    F8B.4
0A5C4:  BCF    F94.4
0A5C6:  MOVLW  0A
0A5C8:  MOVLB  7
0A5CA:  MOVWF  xC1
0A5CC:  MOVLB  0
0A5CE:  CALL   184E
0A5D2:  BCF    F8B.4
0A5D4:  BCF    F94.4
....................             delay_ms(700);Menu=100;glcd_fillscreen(OFF);Opcion=1;visual=1; 
0A5D6:  MOVLW  04
0A5D8:  MOVLB  7
0A5DA:  MOVWF  xBB
0A5DC:  MOVLW  AF
0A5DE:  MOVWF  xC1
0A5E0:  MOVLB  0
0A5E2:  CALL   184E
0A5E6:  MOVLB  7
0A5E8:  DECFSZ xBB,F
0A5EA:  BRA    A5DC
0A5EC:  MOVLW  64
0A5EE:  MOVLB  5
0A5F0:  MOVWF  x72
0A5F2:  MOVLB  7
0A5F4:  CLRF   xBC
0A5F6:  MOVLB  0
0A5F8:  CALL   18CE
0A5FC:  MOVLW  01
0A5FE:  MOVLB  5
0A600:  MOVWF  x79
0A602:  BSF    x6D.0
....................             b16=(int16)b; 
0A604:  MOVFF  628,7CA
0A608:  MOVFF  627,7C9
0A60C:  MOVFF  626,7C8
0A610:  MOVFF  625,7C7
0A614:  MOVLB  0
0A616:  CALL   68FA
0A61A:  MOVFF  02,598
0A61E:  MOVFF  01,597
....................             write_eeprom(492,make8(b16,0)); 
0A622:  MOVFF  597,7BB
0A626:  MOVLW  01
0A628:  MOVWF  FAA
0A62A:  MOVLW  EC
0A62C:  MOVWF  FA9
0A62E:  MOVFF  7BB,FA8
0A632:  BCF    FA6.6
0A634:  BCF    FA6.7
0A636:  BSF    FA6.2
0A638:  MOVF   FF2,W
0A63A:  MOVWF  00
0A63C:  BCF    FF2.7
0A63E:  MOVLB  F
0A640:  MOVLW  55
0A642:  MOVWF  FA7
0A644:  MOVLW  AA
0A646:  MOVWF  FA7
0A648:  BSF    FA6.1
0A64A:  BTFSC  FA6.1
0A64C:  BRA    A64A
0A64E:  BCF    FA6.2
0A650:  MOVF   00,W
0A652:  IORWF  FF2,F
....................             delay_ms(10); 
0A654:  MOVLW  0A
0A656:  MOVLB  7
0A658:  MOVWF  xC1
0A65A:  MOVLB  0
0A65C:  CALL   184E
....................             write_eeprom(493,make8(b16,1)); 
0A660:  MOVFF  598,7BB
0A664:  MOVLW  01
0A666:  MOVWF  FAA
0A668:  MOVLW  ED
0A66A:  MOVWF  FA9
0A66C:  MOVFF  7BB,FA8
0A670:  BCF    FA6.6
0A672:  BCF    FA6.7
0A674:  BSF    FA6.2
0A676:  MOVF   FF2,W
0A678:  MOVWF  00
0A67A:  BCF    FF2.7
0A67C:  MOVLB  F
0A67E:  MOVLW  55
0A680:  MOVWF  FA7
0A682:  MOVLW  AA
0A684:  MOVWF  FA7
0A686:  BSF    FA6.1
0A688:  BTFSC  FA6.1
0A68A:  BRA    A688
0A68C:  BCF    FA6.2
0A68E:  MOVF   00,W
0A690:  IORWF  FF2,F
....................             delay_ms(10); 
0A692:  MOVLW  0A
0A694:  MOVLB  7
0A696:  MOVWF  xC1
0A698:  MOVLB  0
0A69A:  CALL   184E
....................             write_eeprom(494,extraeDecimal(b)); 
0A69E:  MOVFF  628,7BE
0A6A2:  MOVFF  627,7BD
0A6A6:  MOVFF  626,7BC
0A6AA:  MOVFF  625,7BB
0A6AE:  CALL   826A
0A6B2:  MOVFF  01,7BB
0A6B6:  MOVLW  01
0A6B8:  MOVWF  FAA
0A6BA:  MOVLW  EE
0A6BC:  MOVWF  FA9
0A6BE:  MOVFF  7BB,FA8
0A6C2:  BCF    FA6.6
0A6C4:  BCF    FA6.7
0A6C6:  BSF    FA6.2
0A6C8:  MOVF   FF2,W
0A6CA:  MOVWF  00
0A6CC:  BCF    FF2.7
0A6CE:  MOVLB  F
0A6D0:  MOVLW  55
0A6D2:  MOVWF  FA7
0A6D4:  MOVLW  AA
0A6D6:  MOVWF  FA7
0A6D8:  BSF    FA6.1
0A6DA:  BTFSC  FA6.1
0A6DC:  BRA    A6DA
0A6DE:  BCF    FA6.2
0A6E0:  MOVF   00,W
0A6E2:  IORWF  FF2,F
....................             delay_ms(10); 
0A6E4:  MOVLW  0A
0A6E6:  MOVLB  7
0A6E8:  MOVWF  xC1
0A6EA:  MOVLB  0
0A6EC:  CALL   184E
0A6F0:  MOVLB  5
....................          } 
....................      } 
.................... //_-------------------------------------------------------------------------------------------------------------------------------------------------------- 
....................  
....................  
.................... } 
0A6F2:  MOVLB  0
0A6F4:  GOTO   1692A (RETURN)
....................  
....................  
.................... #int_TIMER1 
.................... void temp1s(void){ 
....................    //set_timer1(45612);  // 5 ms 5536 , Posiblemente cargar con 22144 debido a F=12MHz 
....................    set_timer1(40536); 
*
01614:  MOVLW  9E
01616:  MOVWF  FCF
01618:  MOVLW  58
0161A:  MOVWF  FCE
....................    tiempos++; 
0161C:  MOVLB  5
0161E:  INCF   x81,F
01620:  BTFSC  FD8.2
01622:  INCF   x82,F
....................    tiempos3++; 
01624:  INCF   x83,F
01626:  BTFSC  FD8.2
01628:  INCF   x84,F
....................    tiempoctrl++; 
0162A:  INCF   x85,F
0162C:  BTFSC  FD8.2
0162E:  INCF   x86,F
....................     
....................    if(Control==1){ 
01630:  DECFSZ x71,W
01632:  BRA    1660
....................       if(tiempoctrl>=Tc) // Si el tiempo de control es mayor al tiempo de ciclo se reinicia tiempo de control 
01634:  MOVF   x90,W
01636:  SUBWF  x86,W
01638:  BNC   1646
0163A:  BNZ   1642
0163C:  MOVF   x8F,W
0163E:  SUBWF  x85,W
01640:  BNC   1646
....................       { 
....................          tiempoctrl=0; 
01642:  CLRF   x86
01644:  CLRF   x85
....................       } // tiempoctrl incrementa una unidad cada 5ms, por eso se dividen los tiempos por 0.005. 
....................        
....................       if(tiempoctrl<=Tp) // Si el tiempo es menor o igual al tiempo de control se enciende la resistencia de lo contrario se apaga. 
01646:  MOVF   x86,W
01648:  SUBWF  x8E,W
0164A:  BNC   165A
0164C:  BNZ   1654
0164E:  MOVF   x85,W
01650:  SUBWF  x8D,W
01652:  BNC   165A
....................       { 
....................          Resistencia_on; 
01654:  BSF    F8B.0
01656:  BCF    F94.0
....................       } 
....................       else          
01658:  BRA    165E
....................       { 
....................          Resistencia_off; 
0165A:  BCF    F8B.0
0165C:  BCF    F94.0
....................       } 
....................    } 
....................    else{ 
0165E:  BRA    1664
....................       Resistencia_off; 
01660:  BCF    F8B.0
01662:  BCF    F94.0
....................    } 
....................     
....................    if(tiempos3>=200) 
01664:  MOVF   x84,F
01666:  BNZ   166E
01668:  MOVF   x83,W
0166A:  SUBLW  C7
0166C:  BC    1682
....................    { 
....................       Lectura2=1; 
0166E:  MOVLW  01
01670:  MOVWF  x67
....................       if(flagup) 
01672:  BTFSS  x5F.0
01674:  BRA    1678
....................          tiempoup++; 
01676:  INCF   x68,F
....................       if(flagdn) 
01678:  BTFSS  x5F.1
0167A:  BRA    167E
....................          tiempodn++;    
0167C:  INCF   x69,F
....................       tiempos3=0; 
0167E:  CLRF   x84
01680:  CLRF   x83
....................    } 
....................      
....................    if(tiempos>=200)  // 12000 para que incremente cada minuto, 200para que incremente cada segundo. 
01682:  MOVF   x82,F
01684:  BNZ   168C
01686:  MOVF   x81,W
01688:  SUBLW  C7
0168A:  BC    16F4
....................    {tiempos=0;Lectura=1;tiemporeset++;TiempoControl++;tiemporecta++; 
0168C:  CLRF   x82
0168E:  CLRF   x81
01690:  BSF    x6D.1
01692:  INCF   x6F,F
01694:  INCF   x78,F
01696:  INCF   x65,F
....................        
....................       if(Menu==20 && tiempoImpresion<CalculoImpresion){ 
01698:  MOVF   x72,W
0169A:  SUBLW  14
0169C:  BNZ   16B4
0169E:  MOVF   x94,W
016A0:  SUBWF  x92,W
016A2:  BNC   16B4
016A4:  BNZ   16AC
016A6:  MOVF   x91,W
016A8:  SUBWF  x93,W
016AA:  BC    16B4
....................          tiempoImpresion++; 
016AC:  INCF   x93,F
016AE:  BTFSC  FD8.2
016B0:  INCF   x94,F
....................       }else if(tiempoImpresion>=CalculoImpresion){ 
016B2:  BRA    16CE
016B4:  MOVF   x92,W
016B6:  SUBWF  x94,W
016B8:  BNC   16CE
016BA:  BNZ   16C2
016BC:  MOVF   x91,W
016BE:  SUBWF  x93,W
016C0:  BNC   16CE
....................          if(Pausa!=3){ 
016C2:  MOVF   x76,W
016C4:  SUBLW  03
016C6:  BZ    16CA
....................             flagImprime=1; 
016C8:  BSF    x5F.4
....................          } 
....................          tiempoImpresion=0; 
016CA:  CLRF   x94
016CC:  CLRF   x93
....................       } 
....................     
....................       if(flag_setpoint==1) 
016CE:  BTFSS  x6D.6
016D0:  BRA    16D8
....................          tiemposetpoint++; 
016D2:  INCF   x8B,F
016D4:  BTFSC  FD8.2
016D6:  INCF   x8C,F
....................        
....................       if(tiempo_esterilizacion==1 || tiempo_esterilizacion==2){                
016D8:  DECFSZ x7A,W
016DA:  BRA    16DE
016DC:  BRA    16E4
016DE:  MOVF   x7A,W
016E0:  SUBLW  02
016E2:  BNZ   16EA
....................          tinicio++; 
016E4:  INCF   x87,F
016E6:  BTFSC  FD8.2
016E8:  INCF   x88,F
....................       } 
....................           
....................       if(flag_tiempocalentamiento==1) 
016EA:  BTFSS  x6D.4
016EC:  BRA    16F4
....................       { 
....................          tiempocalentamiento++; 
016EE:  INCF   x89,F
016F0:  BTFSC  FD8.2
016F2:  INCF   x8A,F
....................       } 
....................    }         
.................... } 
....................  
016F4:  BCF    F9E.0
016F6:  MOVLB  0
016F8:  GOTO   0058
.................... void main()  
.................... {  
*
10000:  CLRF   FF8
10002:  BCF    FD0.7
10004:  BSF    07.7
10006:  CLRF   FEA
10008:  CLRF   FE9
1000A:  BCF    FB8.3
1000C:  MOVLW  40
1000E:  MOVWF  FAF
10010:  MOVLW  A6
10012:  MOVWF  FAC
10014:  MOVLW  90
10016:  MOVWF  FAB
10018:  MOVLB  5
1001A:  BCF    x5F.0
1001C:  BCF    x5F.1
1001E:  BCF    x5F.2
10020:  BCF    x5F.3
10022:  BCF    x5F.4
10024:  CLRF   x60
10026:  CLRF   x61
10028:  CLRF   x62
1002A:  CLRF   x63
1002C:  MOVLW  0A
1002E:  MOVWF  x64
10030:  CLRF   x65
10032:  CLRF   x66
10034:  CLRF   x67
10036:  CLRF   x68
10038:  CLRF   x69
1003A:  CLRF   x6A
1003C:  CLRF   x6B
1003E:  MOVLW  05
10040:  MOVWF  x6C
10042:  BCF    x5F.5
10044:  BCF    x5F.6
10046:  BCF    x5F.7
10048:  BSF    x6D.0
1004A:  BCF    x6D.1
1004C:  BCF    x6D.2
1004E:  BCF    x6D.3
10050:  BCF    x6D.4
10052:  BCF    x6D.5
10054:  BCF    x6D.6
10056:  BCF    x6D.7
10058:  CLRF   x6E
1005A:  CLRF   x6F
1005C:  MOVLW  01
1005E:  MOVWF  x70
10060:  CLRF   x71
10062:  CLRF   x72
10064:  MOVWF  x73
10066:  CLRF   x74
10068:  MOVWF  x75
1006A:  CLRF   x76
1006C:  CLRF   x77
1006E:  CLRF   x78
10070:  MOVWF  x79
10072:  CLRF   x7A
10074:  CLRF   x7B
10076:  MOVLW  0A
10078:  MOVWF  x7C
1007A:  CLRF   x7D
1007C:  CLRF   x7E
1007E:  CLRF   x7F
10080:  CLRF   x80
10082:  CLRF   x82
10084:  CLRF   x81
10086:  CLRF   x84
10088:  CLRF   x83
1008A:  CLRF   x86
1008C:  CLRF   x85
1008E:  CLRF   x88
10090:  CLRF   x87
10092:  CLRF   x8A
10094:  CLRF   x89
10096:  CLRF   x8C
10098:  CLRF   x8B
1009A:  CLRF   x8E
1009C:  CLRF   x8D
1009E:  CLRF   x90
100A0:  CLRF   x8F
100A2:  CLRF   x92
100A4:  CLRF   x91
100A6:  CLRF   x94
100A8:  CLRF   x93
100AA:  CLRF   x96
100AC:  CLRF   x95
100AE:  CLRF   x98
100B0:  CLRF   x97
100B2:  CLRF   x9C
100B4:  CLRF   x9B
100B6:  CLRF   x9A
100B8:  CLRF   x99
100BA:  CLRF   xA0
100BC:  CLRF   x9F
100BE:  MOVLW  20
100C0:  MOVWF  x9E
100C2:  MOVLW  83
100C4:  MOVWF  x9D
100C6:  CLRF   xA4
100C8:  CLRF   xA3
100CA:  CLRF   xA2
100CC:  CLRF   xA1
100CE:  CLRF   xA8
100D0:  CLRF   xA7
100D2:  CLRF   xA6
100D4:  CLRF   xA5
100D6:  CLRF   xAC
100D8:  CLRF   xAB
100DA:  CLRF   xAA
100DC:  CLRF   xA9
100DE:  CLRF   xB0
100E0:  CLRF   xAF
100E2:  CLRF   xAE
100E4:  CLRF   xAD
100E6:  CLRF   xB4
100E8:  CLRF   xB3
100EA:  CLRF   xB2
100EC:  CLRF   xB1
100EE:  CLRF   xB8
100F0:  CLRF   xB7
100F2:  CLRF   xB6
100F4:  CLRF   xB5
100F6:  CLRF   xBC
100F8:  CLRF   xBB
100FA:  CLRF   xBA
100FC:  CLRF   xB9
100FE:  CLRF   xC0
10100:  CLRF   xBF
10102:  CLRF   xBE
10104:  CLRF   xBD
10106:  CLRF   xD4
10108:  CLRF   xD3
1010A:  CLRF   xD2
1010C:  CLRF   xD1
1010E:  CLRF   xD8
10110:  CLRF   xD7
10112:  MOVLW  20
10114:  MOVWF  xD6
10116:  MOVLW  82
10118:  MOVWF  xD5
1011A:  CLRF   xDC
1011C:  CLRF   xDB
1011E:  CLRF   xDA
10120:  CLRF   xD9
10122:  CLRF   xE0
10124:  CLRF   xDF
10126:  CLRF   xDE
10128:  CLRF   xDD
1012A:  CLRF   xE4
1012C:  CLRF   xE3
1012E:  CLRF   xE2
10130:  CLRF   xE1
10132:  CLRF   xE8
10134:  CLRF   xE7
10136:  CLRF   xE6
10138:  CLRF   xE5
1013A:  CLRF   xEC
1013C:  CLRF   xEB
1013E:  CLRF   xEA
10140:  CLRF   xE9
10142:  CLRF   xF0
10144:  CLRF   xEF
10146:  CLRF   xEE
10148:  CLRF   xED
1014A:  CLRF   xF4
1014C:  CLRF   xF3
1014E:  MOVLW  40
10150:  MOVWF  xF2
10152:  MOVLW  80
10154:  MOVWF  xF1
10156:  CLRF   xF8
10158:  CLRF   xF7
1015A:  MOVLW  40
1015C:  MOVWF  xF6
1015E:  MOVLW  80
10160:  MOVWF  xF5
10162:  CLRF   xFC
10164:  CLRF   xFB
10166:  MOVLW  16
10168:  MOVWF  xFA
1016A:  MOVLW  86
1016C:  MOVWF  xF9
1016E:  MOVLB  6
10170:  CLRF   x00
10172:  MOVLB  5
10174:  CLRF   xFF
10176:  MOVLW  20
10178:  MOVWF  xFE
1017A:  MOVLW  83
1017C:  MOVWF  xFD
1017E:  MOVLB  6
10180:  CLRF   x04
10182:  CLRF   x03
10184:  MOVLW  70
10186:  MOVWF  x02
10188:  MOVLW  86
1018A:  MOVWF  x01
1018C:  CLRF   x08
1018E:  CLRF   x07
10190:  CLRF   x06
10192:  CLRF   x05
10194:  CLRF   x0C
10196:  CLRF   x0B
10198:  CLRF   x0A
1019A:  CLRF   x09
1019C:  CLRF   x10
1019E:  CLRF   x0F
101A0:  CLRF   x0E
101A2:  CLRF   x0D
101A4:  CLRF   x14
101A6:  CLRF   x13
101A8:  CLRF   x12
101AA:  CLRF   x11
101AC:  CLRF   x18
101AE:  CLRF   x17
101B0:  CLRF   x16
101B2:  CLRF   x15
101B4:  CLRF   x1C
101B6:  CLRF   x1B
101B8:  CLRF   x1A
101BA:  CLRF   x19
101BC:  CLRF   x20
101BE:  CLRF   x1F
101C0:  CLRF   x1E
101C2:  CLRF   x1D
101C4:  CLRF   x24
101C6:  CLRF   x23
101C8:  CLRF   x22
101CA:  CLRF   x21
101CC:  CLRF   x28
101CE:  CLRF   x27
101D0:  CLRF   x26
101D2:  CLRF   x25
101D4:  CLRF   x2C
101D6:  CLRF   x2B
101D8:  CLRF   x2A
101DA:  CLRF   x29
101DC:  CLRF   x30
101DE:  CLRF   x2F
101E0:  CLRF   x2E
101E2:  CLRF   x2D
101E4:  CLRF   x34
101E6:  MOVLW  40
101E8:  MOVWF  x33
101EA:  MOVLW  1C
101EC:  MOVWF  x32
101EE:  MOVLW  89
101F0:  MOVWF  x31
101F2:  CLRF   x38
101F4:  CLRF   x37
101F6:  CLRF   x36
101F8:  CLRF   x35
101FA:  CLRF   x3C
101FC:  CLRF   x3B
101FE:  MOVLW  48
10200:  MOVWF  x3A
10202:  MOVLW  84
10204:  MOVWF  x39
10206:  CLRF   x40
10208:  CLRF   x3F
1020A:  CLRF   x3E
1020C:  CLRF   x3D
1020E:  CLRF   x44
10210:  CLRF   x43
10212:  CLRF   x42
10214:  CLRF   x41
10216:  MOVLW  12
10218:  MOVLB  7
1021A:  MOVWF  x71
1021C:  MOVLW  09
1021E:  MOVWF  x72
10220:  MOVLW  0D
10222:  MOVWF  x73
10224:  CLRF   x74
10226:  CLRF   x75
10228:  CLRF   x76
1022A:  CLRF   x77
1022C:  MOVLW  09
1022E:  MOVWF  x78
10230:  CLRF   x79
10232:  CLRF   x7A
10234:  CLRF   x7B
10236:  CLRF   x7C
10238:  CLRF   x7D
1023A:  CLRF   x7E
1023C:  CLRF   x7F
1023E:  CLRF   x80
10240:  CLRF   x81
10242:  CLRF   x82
10244:  MOVF   FC1,W
10246:  ANDLW  C0
10248:  IORLW  0F
1024A:  MOVWF  FC1
1024C:  MOVLW  07
1024E:  MOVWF  FB4
10250:  MOVLB  4
10252:  CLRF   x17
10254:  CLRF   x18
10256:  CLRF   x19
10258:  CLRF   x1A
1025A:  CLRF   x1B
1025C:  CLRF   x1C
1025E:  CLRF   x1D
10260:  CLRF   x1E
10262:  CLRF   x1F
10264:  CLRF   x20
10266:  CLRF   x21
10268:  CLRF   x22
1026A:  CLRF   x23
1026C:  CLRF   x24
1026E:  CLRF   x25
10270:  CLRF   x26
10272:  CLRF   x27
10274:  CLRF   x28
10276:  CLRF   x29
10278:  CLRF   x2A
1027A:  CLRF   x2B
1027C:  CLRF   x2C
1027E:  CLRF   x2D
10280:  CLRF   x2E
10282:  CLRF   x2F
10284:  CLRF   x30
10286:  CLRF   x31
10288:  CLRF   x32
1028A:  CLRF   x33
1028C:  CLRF   x34
1028E:  CLRF   x35
10290:  CLRF   x36
10292:  CLRF   x37
10294:  CLRF   x38
10296:  CLRF   x39
10298:  CLRF   x3A
1029A:  CLRF   x3B
1029C:  CLRF   x3C
1029E:  CLRF   x3D
102A0:  CLRF   x3E
102A2:  CLRF   x3F
102A4:  CLRF   x40
102A6:  CLRF   x41
102A8:  CLRF   x42
102AA:  CLRF   x43
102AC:  CLRF   x44
102AE:  CLRF   x45
102B0:  CLRF   x46
102B2:  CLRF   x47
102B4:  CLRF   x48
102B6:  CLRF   x49
102B8:  CLRF   x4A
102BA:  CLRF   x4B
102BC:  CLRF   x4C
102BE:  CLRF   x4D
102C0:  CLRF   x4E
102C2:  CLRF   x4F
102C4:  CLRF   x50
102C6:  CLRF   x51
102C8:  CLRF   x52
102CA:  CLRF   x53
102CC:  CLRF   x54
102CE:  CLRF   x55
102D0:  CLRF   x56
102D2:  CLRF   x57
102D4:  CLRF   x58
102D6:  CLRF   x59
102D8:  CLRF   x5A
102DA:  CLRF   x5B
102DC:  CLRF   x5C
102DE:  CLRF   x5D
102E0:  CLRF   x5E
102E2:  CLRF   x5F
102E4:  CLRF   x60
102E6:  CLRF   x61
102E8:  CLRF   x62
102EA:  CLRF   x63
102EC:  CLRF   x64
102EE:  CLRF   x65
102F0:  CLRF   x66
102F2:  CLRF   x67
102F4:  CLRF   x68
102F6:  CLRF   x69
102F8:  CLRF   x6A
102FA:  CLRF   x6B
102FC:  CLRF   x6C
102FE:  CLRF   x6D
10300:  CLRF   x6E
10302:  CLRF   x6F
10304:  CLRF   x70
10306:  CLRF   x71
10308:  CLRF   x72
1030A:  CLRF   x73
1030C:  CLRF   x74
1030E:  CLRF   x75
10310:  CLRF   x76
10312:  CLRF   x77
10314:  CLRF   x78
10316:  CLRF   x79
10318:  CLRF   x7A
1031A:  CLRF   x7B
1031C:  CLRF   x7C
1031E:  CLRF   x7D
10320:  CLRF   x7E
10322:  CLRF   x7F
10324:  CLRF   x80
10326:  CLRF   x81
10328:  CLRF   x82
1032A:  CLRF   x83
1032C:  CLRF   x84
1032E:  CLRF   x85
10330:  CLRF   x86
10332:  CLRF   x87
10334:  CLRF   x88
10336:  CLRF   x89
10338:  CLRF   x8A
1033A:  CLRF   x8B
1033C:  CLRF   x8C
1033E:  CLRF   x8D
10340:  CLRF   x8E
10342:  CLRF   x8F
10344:  CLRF   x90
10346:  CLRF   x91
10348:  CLRF   x92
1034A:  CLRF   x93
1034C:  CLRF   x94
1034E:  CLRF   x95
10350:  CLRF   x96
10352:  CLRF   x97
10354:  CLRF   x98
10356:  CLRF   x99
10358:  CLRF   x9A
1035A:  CLRF   x9B
1035C:  CLRF   x9C
1035E:  CLRF   x9D
10360:  CLRF   x9E
10362:  CLRF   x9F
10364:  CLRF   xA0
10366:  CLRF   xA1
10368:  CLRF   xA2
1036A:  CLRF   xA3
1036C:  CLRF   xA4
1036E:  CLRF   xA5
10370:  CLRF   xA6
10372:  CLRF   xA7
10374:  CLRF   xA8
10376:  CLRF   xA9
10378:  CLRF   xAA
1037A:  CLRF   xAB
1037C:  CLRF   xAC
1037E:  CLRF   xAD
10380:  CLRF   xAE
10382:  CLRF   xAF
10384:  CLRF   xB0
10386:  CLRF   xB1
10388:  CLRF   xB2
1038A:  CLRF   xB3
1038C:  CLRF   xB4
1038E:  CLRF   xB5
10390:  CLRF   xB6
10392:  CLRF   xB7
10394:  CLRF   xB8
10396:  CLRF   xB9
10398:  CLRF   xBA
1039A:  CLRF   xBB
1039C:  CLRF   xBC
1039E:  CLRF   xBD
103A0:  CLRF   xBE
103A2:  CLRF   xBF
103A4:  CLRF   xC0
103A6:  CLRF   xC1
103A8:  CLRF   xC2
103AA:  CLRF   xC3
103AC:  CLRF   xC4
103AE:  CLRF   xC5
103B0:  CLRF   xC6
103B2:  CLRF   xC7
103B4:  CLRF   xC8
103B6:  CLRF   xC9
103B8:  CLRF   xCA
103BA:  CLRF   xCB
103BC:  CLRF   xCC
103BE:  CLRF   xCD
103C0:  CLRF   xCE
103C2:  CLRF   xCF
103C4:  CLRF   xD0
103C6:  CLRF   xD1
103C8:  CLRF   xD2
103CA:  CLRF   xD3
103CC:  CLRF   xD4
103CE:  CLRF   xD5
103D0:  CLRF   xD6
103D2:  CLRF   xD7
103D4:  CLRF   xD8
103D6:  CLRF   xD9
103D8:  CLRF   xDA
103DA:  CLRF   xDB
103DC:  CLRF   xDC
103DE:  CLRF   xDD
103E0:  CLRF   xDE
103E2:  CLRF   xDF
103E4:  CLRF   xE0
103E6:  CLRF   xE1
103E8:  CLRF   xE2
103EA:  CLRF   xE3
103EC:  CLRF   xE4
103EE:  CLRF   xE5
103F0:  CLRF   xE6
103F2:  CLRF   xE7
103F4:  CLRF   xE8
103F6:  CLRF   xE9
103F8:  CLRF   xEA
103FA:  CLRF   xEB
103FC:  CLRF   xEC
103FE:  CLRF   xED
10400:  CLRF   xEE
10402:  CLRF   xEF
10404:  CLRF   xF0
10406:  CLRF   xF1
10408:  CLRF   xF2
1040A:  CLRF   xF3
1040C:  CLRF   xF4
1040E:  CLRF   xF5
10410:  CLRF   xF6
10412:  CLRF   xF7
10414:  CLRF   xF8
10416:  CLRF   xF9
10418:  CLRF   xFA
1041A:  CLRF   xFB
1041C:  CLRF   xFC
1041E:  CLRF   xFD
10420:  CLRF   xFE
10422:  CLRF   xFF
10424:  MOVLB  5
10426:  CLRF   x00
10428:  CLRF   x01
1042A:  CLRF   x02
1042C:  CLRF   x03
1042E:  CLRF   x04
10430:  CLRF   x05
10432:  CLRF   x06
10434:  CLRF   x07
10436:  CLRF   x08
10438:  CLRF   x09
1043A:  CLRF   x0A
1043C:  CLRF   x0B
1043E:  CLRF   x0C
10440:  CLRF   x0D
10442:  CLRF   x0E
10444:  CLRF   x0F
10446:  CLRF   x10
10448:  CLRF   x11
1044A:  CLRF   x12
1044C:  CLRF   x13
1044E:  CLRF   x14
10450:  CLRF   x15
10452:  CLRF   x16
10454:  CLRF   x17
10456:  CLRF   x18
10458:  CLRF   x19
1045A:  CLRF   x1A
1045C:  CLRF   x1B
1045E:  CLRF   x1C
10460:  CLRF   x1D
10462:  CLRF   x1E
10464:  CLRF   x1F
10466:  CLRF   x20
10468:  CLRF   x21
1046A:  CLRF   x22
1046C:  CLRF   x23
1046E:  CLRF   x24
10470:  CLRF   x25
10472:  CLRF   x26
10474:  CLRF   x27
10476:  CLRF   x28
10478:  CLRF   x29
1047A:  CLRF   x2A
1047C:  CLRF   x2B
1047E:  CLRF   x2C
10480:  CLRF   x2D
10482:  CLRF   x2E
10484:  CLRF   x2F
10486:  CLRF   x30
10488:  CLRF   x31
1048A:  CLRF   x32
1048C:  CLRF   x33
1048E:  CLRF   x34
10490:  CLRF   x35
10492:  CLRF   x36
10494:  CLRF   x37
10496:  CLRF   x38
10498:  CLRF   x39
1049A:  CLRF   x3A
1049C:  CLRF   x3B
1049E:  CLRF   x3C
104A0:  CLRF   x3D
104A2:  CLRF   x3E
104A4:  CLRF   x3F
104A6:  CLRF   x40
104A8:  CLRF   x41
104AA:  CLRF   x42
104AC:  CLRF   x43
104AE:  CLRF   x44
104B0:  CLRF   x45
104B2:  CLRF   x46
104B4:  CLRF   x47
104B6:  CLRF   x48
104B8:  CLRF   x49
104BA:  CLRF   x4A
104BC:  CLRF   x4B
104BE:  CLRF   x4C
104C0:  CLRF   x4D
104C2:  CLRF   x4E
104C4:  CLRF   x4F
104C6:  CLRF   x50
104C8:  CLRF   x51
104CA:  CLRF   x52
104CC:  CLRF   x53
104CE:  CLRF   x54
104D0:  CLRF   x55
104D2:  CLRF   x56
104D4:  CLRF   x57
104D6:  CLRF   x58
104D8:  CLRF   x59
104DA:  CLRF   x5A
104DC:  CLRF   x5B
104DE:  CLRF   x5C
104E0:  CLRF   x5D
104E2:  CLRF   x5E
104E4:  CLRF   xC1
104E6:  CLRF   xC2
104E8:  CLRF   xC3
104EA:  CLRF   xC4
104EC:  CLRF   xC5
104EE:  CLRF   xC6
104F0:  CLRF   xC7
104F2:  CLRF   xC8
104F4:  CLRF   xC9
104F6:  CLRF   xCA
104F8:  CLRF   xCB
104FA:  CLRF   xCC
104FC:  CLRF   xCD
104FE:  CLRF   xCE
10500:  CLRF   xCF
10502:  CLRF   xD0
10504:  MOVLB  7
10506:  CLRF   x83
10508:  MOVLW  03
1050A:  MOVWF  x84
1050C:  MOVWF  x85
1050E:  MOVLW  06
10510:  MOVWF  x86
10512:  MOVLW  01
10514:  MOVWF  x87
10516:  MOVLW  04
10518:  MOVWF  x88
1051A:  MOVLW  06
1051C:  MOVWF  x89
1051E:  MOVLW  02
10520:  MOVWF  x8A
10522:  MOVLW  05
10524:  MOVWF  x8B
10526:  CLRF   x8C
10528:  MOVLW  03
1052A:  MOVWF  x8D
1052C:  MOVLW  05
1052E:  MOVWF  x8E
10530:  CLRF   x8F
10532:  MOVLW  03
10534:  MOVWF  x90
10536:  MOVLW  04
10538:  MOVWF  x91
1053A:  CLRF   x92
1053C:  MOVLW  02
1053E:  MOVWF  x93
10540:  MOVLW  05
10542:  MOVWF  x94
10544:  CLRF   x95
10546:  MOVLW  03
10548:  MOVWF  x96
1054A:  MOVLW  06
1054C:  MOVWF  x97
1054E:  MOVLW  01
10550:  MOVWF  x98
10552:  MOVLW  04
10554:  MOVWF  x99
10556:  MOVLW  06
10558:  MOVWF  x9A
1055A:  CLRF   xB9
1055C:  CLRF   xBA
....................    delay_ms(1000); 
1055E:  MOVLW  04
10560:  MOVWF  xBB
10562:  MOVLW  FA
10564:  MOVWF  xC1
10566:  MOVLB  0
10568:  CALL   184E
1056C:  MOVLB  7
1056E:  DECFSZ xBB,F
10570:  BRA    10562
....................    ConfigInicial(); 
10572:  MOVLB  0
10574:  GOTO   1876
....................     
....................    glcd_init(ON);             //Inicializa la glcd 
10578:  MOVLW  01
1057A:  MOVLB  7
1057C:  MOVWF  xBB
1057E:  MOVLB  0
10580:  CALL   19E0
....................    glcd_fillScreen(OFF);      //Limpia la pantalla 
10584:  MOVLB  7
10586:  CLRF   xBC
10588:  MOVLB  0
1058A:  CALL   18CE
....................    strcpy(Menus.Letra,"JP Inglobal"); 
1058E:  MOVLW  07
10590:  MOVWF  FEA
10592:  MOVLW  9B
10594:  MOVWF  FE9
10596:  MOVFF  FF2,7BB
1059A:  BCF    FF2.7
1059C:  MOVLW  00
1059E:  CALL   0A0C
105A2:  TBLRD*-
105A4:  TBLRD*+
105A6:  MOVF   FF5,W
105A8:  MOVWF  FEE
105AA:  IORLW  00
105AC:  BTFSS  FD8.2
105AE:  GOTO   105A4
105B2:  MOVLB  7
105B4:  BTFSC  xBB.7
105B6:  BSF    FF2.7
....................    displayMenu(Menus.Letra,0,0,0,2);      
105B8:  MOVLW  07
105BA:  MOVWF  xBF
105BC:  MOVLW  9B
105BE:  MOVWF  xBE
105C0:  CLRF   xC0
105C2:  CLRF   xC1
105C4:  CLRF   xC2
105C6:  MOVLW  02
105C8:  MOVWF  xC3
105CA:  MOVLB  0
105CC:  CALL   1EFC
....................    strcpy(Menus.Letra,"   Mufla"); 
105D0:  MOVLW  07
105D2:  MOVWF  FEA
105D4:  MOVLW  9B
105D6:  MOVWF  FE9
105D8:  MOVFF  FF2,7BB
105DC:  BCF    FF2.7
105DE:  MOVLW  00
105E0:  CALL   0A36
105E4:  TBLRD*-
105E6:  TBLRD*+
105E8:  MOVF   FF5,W
105EA:  MOVWF  FEE
105EC:  IORLW  00
105EE:  BTFSS  FD8.2
105F0:  GOTO   105E6
105F4:  MOVLB  7
105F6:  BTFSC  xBB.7
105F8:  BSF    FF2.7
....................    displayMenu(Menus.Letra,0,20,0,2);        
105FA:  MOVLW  07
105FC:  MOVWF  xBF
105FE:  MOVLW  9B
10600:  MOVWF  xBE
10602:  CLRF   xC0
10604:  MOVLW  14
10606:  MOVWF  xC1
10608:  CLRF   xC2
1060A:  MOVLW  02
1060C:  MOVWF  xC3
1060E:  MOVLB  0
10610:  CALL   1EFC
....................    strcpy(Menus.Letra,"     9L"); 
10614:  MOVLW  07
10616:  MOVWF  FEA
10618:  MOVLW  9B
1061A:  MOVWF  FE9
1061C:  MOVFF  FF2,7BB
10620:  BCF    FF2.7
10622:  MOVLW  00
10624:  CALL   0A5E
10628:  TBLRD*-
1062A:  TBLRD*+
1062C:  MOVF   FF5,W
1062E:  MOVWF  FEE
10630:  IORLW  00
10632:  BTFSS  FD8.2
10634:  GOTO   1062A
10638:  MOVLB  7
1063A:  BTFSC  xBB.7
1063C:  BSF    FF2.7
....................    displayMenu(Menus.Letra,0,45,0,2); 
1063E:  MOVLW  07
10640:  MOVWF  xBF
10642:  MOVLW  9B
10644:  MOVWF  xBE
10646:  CLRF   xC0
10648:  MOVLW  2D
1064A:  MOVWF  xC1
1064C:  CLRF   xC2
1064E:  MOVLW  02
10650:  MOVWF  xC3
10652:  MOVLB  0
10654:  CALL   1EFC
....................    delay_ms(1000); 
10658:  MOVLW  04
1065A:  MOVLB  7
1065C:  MOVWF  xBB
1065E:  MOVLW  FA
10660:  MOVWF  xC1
10662:  MOVLB  0
10664:  CALL   184E
10668:  MOVLB  7
1066A:  DECFSZ xBB,F
1066C:  BRA    1065E
....................     
....................    Resistencia_off; 
1066E:  BCF    F8B.0
10670:  BCF    F94.0
....................    glcd_fillScreen(OFF);      //Limpia la pantalla 
10672:  CLRF   xBC
10674:  MOVLB  0
10676:  CALL   18CE
....................    displayContrasena(Contrasena[0],20,30,1); 
1067A:  MOVFF  5C9,7BD
1067E:  MOVLW  14
10680:  MOVLB  7
10682:  MOVWF  xBE
10684:  MOVLW  1E
10686:  MOVWF  xBF
10688:  MOVLW  01
1068A:  MOVWF  xC0
1068C:  MOVLB  0
1068E:  CALL   214E
....................    displayContrasena(Contrasena[1],40,30,0); 
10692:  MOVFF  5CA,7BD
10696:  MOVLW  28
10698:  MOVLB  7
1069A:  MOVWF  xBE
1069C:  MOVLW  1E
1069E:  MOVWF  xBF
106A0:  CLRF   xC0
106A2:  MOVLB  0
106A4:  CALL   214E
....................    displayContrasena(Contrasena[2],60,30,0); 
106A8:  MOVFF  5CB,7BD
106AC:  MOVLW  3C
106AE:  MOVLB  7
106B0:  MOVWF  xBE
106B2:  MOVLW  1E
106B4:  MOVWF  xBF
106B6:  CLRF   xC0
106B8:  MOVLB  0
106BA:  CALL   214E
....................    displayContrasena(Contrasena[3],80,30,0);  
106BE:  MOVFF  5CC,7BD
106C2:  MOVLW  50
106C4:  MOVLB  7
106C6:  MOVWF  xBE
106C8:  MOVLW  1E
106CA:  MOVWF  xBF
106CC:  CLRF   xC0
106CE:  MOVLB  0
106D0:  CALL   214E
....................    Menu=0; 
106D4:  MOVLB  5
106D6:  CLRF   x72
....................    LeeEEPROM(); 
106D8:  MOVLB  0
106DA:  GOTO   268A
....................     
....................    for(i=0;i<80;i++){ 
106DE:  MOVLB  5
106E0:  CLRF   x74
106E2:  MOVF   x74,W
106E4:  SUBLW  4F
106E6:  BTFSS  FD8.0
106E8:  GOTO   1070E
....................       Temperatura=Leer_Sensor(MediaMovil); 
106EC:  MOVFF  564,7BB
106F0:  MOVLB  0
106F2:  CALL   38BA
106F6:  MOVFF  03,60C
106FA:  MOVFF  02,60B
106FE:  MOVFF  01,60A
10702:  MOVFF  00,609
....................    } 
10706:  MOVLB  5
10708:  INCF   x74,F
1070A:  GOTO   106E2
....................    /* 
....................    adcInf=(0.004*resistencia*1023)/5.02; 
....................    adcSup=(0.02*resistencia*1023)/5.02; 
....................    m=(Tsup-Tinf)/(adcSup-adcInf); 
....................    b=Tsup-(m*adcSup); 
....................    */ 
....................    penInicial=penMufla; 
1070E:  MOVFF  63C,644
10712:  MOVFF  63B,643
10716:  MOVFF  63A,642
1071A:  MOVFF  639,641
....................    rtc_init(); 
1071E:  MOVLB  0
10720:  GOTO   3B80
.................... //Inicio de Impresora 
....................    putc(27); 
10724:  MOVLW  1B
10726:  CALL   3BD2
....................    putc(64); 
1072A:  MOVLW  40
1072C:  CALL   3BD2
....................    delay_us(10); 
10730:  MOVLW  10
10732:  MOVWF  00
10734:  DECFSZ 00,F
10736:  BRA    10734
10738:  NOP   
....................    putc(10); 
1073A:  MOVLW  0A
1073C:  CALL   3BD2
....................    //32 Caracteres se pueden escribir en una linea de la impresora 
....................  //fprintf(printer,"                                \n"); 
....................    CalculoImpresion=timpresion*60; 
10740:  MOVFF  596,7C0
10744:  MOVFF  595,7BF
10748:  MOVLB  7
1074A:  CLRF   xC2
1074C:  MOVLW  3C
1074E:  MOVWF  xC1
10750:  MOVLB  0
10752:  CALL   37A2
10756:  MOVFF  02,592
1075A:  MOVFF  01,591
....................    rtc_get_date(Dia,Mes,Year,dow); 
....................    rtc_get_time(Hora,Minuto,Segundo); 
....................    if(ActivaImpresion){ 
*
10822:  MOVLB  5
10824:  BTFSS  x5F.3
10826:  GOTO   108B8
....................       fprintf(printer," MUFLA DIGITAL  JP INGLOBAL  \n"); 
1082A:  MOVLW  FC
1082C:  MOVWF  FF6
1082E:  MOVLW  16
10830:  MOVWF  FF7
10832:  MOVLW  00
10834:  MOVWF  FF8
10836:  MOVLB  0
10838:  CALL   3C0C
....................       delay_us(10); 
1083C:  MOVLW  10
1083E:  MOVWF  00
10840:  DECFSZ 00,F
10842:  BRA    10840
10844:  NOP   
....................       fprintf(printer,"   FECHA: %02u-%02u-%02u \n",Dia,Mes,Year); 
10846:  MOVLW  1C
10848:  MOVWF  FF6
1084A:  MOVLW  17
1084C:  MOVWF  FF7
1084E:  MOVLW  00
10850:  MOVWF  FF8
10852:  MOVLW  0A
10854:  MOVLB  7
10856:  MOVWF  xBC
10858:  MOVLB  0
1085A:  CALL   3C36
1085E:  MOVFF  773,7BC
10862:  MOVLW  01
10864:  MOVLB  7
10866:  MOVWF  xBD
10868:  MOVLB  0
1086A:  CALL   3C68
1086E:  MOVLW  2D
10870:  BTFSS  F9E.4
10872:  GOTO   10870
10876:  MOVWF  FAD
10878:  MOVFF  778,7BC
1087C:  MOVLW  01
1087E:  MOVLB  7
10880:  MOVWF  xBD
10882:  MOVLB  0
10884:  CALL   3C68
10888:  MOVLW  2D
1088A:  BTFSS  F9E.4
1088C:  GOTO   1088A
10890:  MOVWF  FAD
10892:  MOVFF  771,7BC
10896:  MOVLW  01
10898:  MOVLB  7
1089A:  MOVWF  xBD
1089C:  MOVLB  0
1089E:  CALL   3C68
108A2:  MOVLW  20
108A4:  BTFSS  F9E.4
108A6:  GOTO   108A4
108AA:  MOVWF  FAD
108AC:  MOVLW  0A
108AE:  BTFSS  F9E.4
108B0:  GOTO   108AE
108B4:  MOVWF  FAD
108B6:  MOVLB  5
....................    } 
....................    while(TRUE)  
....................    {  
....................       glcd_update();             
108B8:  MOVLB  0
108BA:  CALL   1928
....................       rtc_get_date(Dia,Mes,Year,dow); 
....................       rtc_get_time(Hora,Minuto,Segundo); 
.................... //_-------------------------------------------------------------------------------------------------------------------------------------------------------- 
....................       if(Menu==0){ //Menu de Contrasea. 
*
10982:  MOVLB  5
10984:  MOVF   x72,F
10986:  BTFSS  FD8.2
10988:  GOTO   10FC4
....................        
....................       strcpy(Menus.Letra,"Clave"); 
1098C:  MOVLW  07
1098E:  MOVWF  FEA
10990:  MOVLW  9B
10992:  MOVWF  FE9
10994:  MOVFF  FF2,7BB
10998:  BCF    FF2.7
1099A:  MOVLW  00
1099C:  MOVLB  0
1099E:  CALL   0A84
109A2:  TBLRD*-
109A4:  TBLRD*+
109A6:  MOVF   FF5,W
109A8:  MOVWF  FEE
109AA:  IORLW  00
109AC:  BTFSS  FD8.2
109AE:  GOTO   109A4
109B2:  MOVLB  7
109B4:  BTFSC  xBB.7
109B6:  BSF    FF2.7
....................       displayMenu(Menus.Letra,30,0,1,2);      
109B8:  MOVLW  07
109BA:  MOVWF  xBF
109BC:  MOVLW  9B
109BE:  MOVWF  xBE
109C0:  MOVLW  1E
109C2:  MOVWF  xC0
109C4:  CLRF   xC1
109C6:  MOVLW  01
109C8:  MOVWF  xC2
109CA:  MOVLW  02
109CC:  MOVWF  xC3
109CE:  MOVLB  0
109D0:  CALL   1EFC
....................        
....................       if(UP)//Si oprime hacia arriba 
109D4:  BSF    F92.5
109D6:  BTFSC  F80.5
109D8:  GOTO   10AD0
....................       { 
....................          Buzz_on;delay_ms(10);Buzz_off; 
109DC:  BSF    F8B.4
109DE:  BCF    F94.4
109E0:  MOVLW  0A
109E2:  MOVLB  7
109E4:  MOVWF  xC1
109E6:  MOVLB  0
109E8:  CALL   184E
109EC:  BCF    F8B.4
109EE:  BCF    F94.4
....................          delay_ms(200); 
109F0:  MOVLW  C8
109F2:  MOVLB  7
109F4:  MOVWF  xC1
109F6:  MOVLB  0
109F8:  CALL   184E
....................          for(i=1;i<=4;i++) 
109FC:  MOVLW  01
109FE:  MOVLB  5
10A00:  MOVWF  x74
10A02:  MOVF   x74,W
10A04:  SUBLW  04
10A06:  BTFSS  FD8.0
10A08:  GOTO   10ACE
....................          { 
....................             if(unidad==i) 
10A0C:  MOVF   x74,W
10A0E:  SUBWF  x73,W
10A10:  BTFSS  FD8.2
10A12:  GOTO   10A94
....................             { 
....................                Contrasena[i-1]++; 
10A16:  MOVLW  01
10A18:  SUBWF  x74,W
10A1A:  CLRF   03
10A1C:  ADDLW  C9
10A1E:  MOVWF  FE9
10A20:  MOVLW  05
10A22:  ADDWFC 03,W
10A24:  MOVWF  FEA
10A26:  INCF   FEF,F
....................                if(Contrasena[i-1]>9)    
10A28:  MOVLW  01
10A2A:  SUBWF  x74,W
10A2C:  CLRF   03
10A2E:  ADDLW  C9
10A30:  MOVWF  FE9
10A32:  MOVLW  05
10A34:  ADDWFC 03,W
10A36:  MOVWF  FEA
10A38:  BTFSC  FEF.7
10A3A:  GOTO   10A5A
10A3E:  MOVF   FEF,W
10A40:  SUBLW  09
10A42:  BTFSC  FD8.0
10A44:  GOTO   10A5A
....................                { 
....................                   Contrasena[i-1]=0; 
10A48:  MOVLW  01
10A4A:  SUBWF  x74,W
10A4C:  CLRF   03
10A4E:  ADDLW  C9
10A50:  MOVWF  FE9
10A52:  MOVLW  05
10A54:  ADDWFC 03,W
10A56:  MOVWF  FEA
10A58:  CLRF   FEF
....................                } 
....................                displayContrasena(Contrasena[i-1],i*20,30,1); 
10A5A:  MOVLW  01
10A5C:  SUBWF  x74,W
10A5E:  CLRF   03
10A60:  ADDLW  C9
10A62:  MOVWF  FE9
10A64:  MOVLW  05
10A66:  ADDWFC 03,W
10A68:  MOVWF  FEA
10A6A:  MOVFF  FEF,7BB
10A6E:  MOVF   x74,W
10A70:  MULLW  14
10A72:  MOVFF  FF3,7BC
10A76:  MOVLB  7
10A78:  MOVFF  7BB,7BD
10A7C:  MOVFF  7BC,7BE
10A80:  MOVLW  1E
10A82:  MOVWF  xBF
10A84:  MOVLW  01
10A86:  MOVWF  xC0
10A88:  MOVLB  0
10A8A:  CALL   214E
....................             } 
....................             else 
10A8E:  GOTO   10AC6
10A92:  MOVLB  5
....................             { 
....................                displayContrasena(Contrasena[i-1],i*20,30,0); 
10A94:  MOVLW  01
10A96:  SUBWF  x74,W
10A98:  CLRF   03
10A9A:  ADDLW  C9
10A9C:  MOVWF  FE9
10A9E:  MOVLW  05
10AA0:  ADDWFC 03,W
10AA2:  MOVWF  FEA
10AA4:  MOVFF  FEF,7BB
10AA8:  MOVF   x74,W
10AAA:  MULLW  14
10AAC:  MOVFF  FF3,7BC
10AB0:  MOVLB  7
10AB2:  MOVFF  7BB,7BD
10AB6:  MOVFF  7BC,7BE
10ABA:  MOVLW  1E
10ABC:  MOVWF  xBF
10ABE:  CLRF   xC0
10AC0:  MOVLB  0
10AC2:  CALL   214E
....................             } 
....................          } 
10AC6:  MOVLB  5
10AC8:  INCF   x74,F
10ACA:  GOTO   10A02
10ACE:  MOVLB  0
....................       } 
....................              
....................       if(DOWN)//Si oprime hacia abajo 
10AD0:  BSF    F96.0
10AD2:  BTFSC  F84.0
10AD4:  GOTO   10BC8
....................       { 
....................          Buzz_on;delay_ms(10);Buzz_off; 
10AD8:  BSF    F8B.4
10ADA:  BCF    F94.4
10ADC:  MOVLW  0A
10ADE:  MOVLB  7
10AE0:  MOVWF  xC1
10AE2:  MOVLB  0
10AE4:  CALL   184E
10AE8:  BCF    F8B.4
10AEA:  BCF    F94.4
....................          delay_ms(200); 
10AEC:  MOVLW  C8
10AEE:  MOVLB  7
10AF0:  MOVWF  xC1
10AF2:  MOVLB  0
10AF4:  CALL   184E
....................          for(i=1;i<=4;i++) 
10AF8:  MOVLW  01
10AFA:  MOVLB  5
10AFC:  MOVWF  x74
10AFE:  MOVF   x74,W
10B00:  SUBLW  04
10B02:  BTFSS  FD8.0
10B04:  GOTO   10BC6
....................          { 
....................             if(unidad==i) 
10B08:  MOVF   x74,W
10B0A:  SUBWF  x73,W
10B0C:  BTFSS  FD8.2
10B0E:  GOTO   10B8C
....................             { 
....................                Contrasena[i-1]--; 
10B12:  MOVLW  01
10B14:  SUBWF  x74,W
10B16:  CLRF   03
10B18:  ADDLW  C9
10B1A:  MOVWF  FE9
10B1C:  MOVLW  05
10B1E:  ADDWFC 03,W
10B20:  MOVWF  FEA
10B22:  DECF   FEF,F
....................                if(Contrasena[i-1]<0) 
10B24:  MOVLW  01
10B26:  SUBWF  x74,W
10B28:  CLRF   03
10B2A:  ADDLW  C9
10B2C:  MOVWF  FE9
10B2E:  MOVLW  05
10B30:  ADDWFC 03,W
10B32:  MOVWF  FEA
10B34:  BTFSC  FEF.7
10B36:  GOTO   10B3E
10B3A:  GOTO   10B52
....................                   {Contrasena[i-1]=9;} 
10B3E:  MOVLW  01
10B40:  SUBWF  x74,W
10B42:  CLRF   03
10B44:  ADDLW  C9
10B46:  MOVWF  FE9
10B48:  MOVLW  05
10B4A:  ADDWFC 03,W
10B4C:  MOVWF  FEA
10B4E:  MOVLW  09
10B50:  MOVWF  FEF
....................                displayContrasena(Contrasena[i-1],i*20,30,1);} 
10B52:  MOVLW  01
10B54:  SUBWF  x74,W
10B56:  CLRF   03
10B58:  ADDLW  C9
10B5A:  MOVWF  FE9
10B5C:  MOVLW  05
10B5E:  ADDWFC 03,W
10B60:  MOVWF  FEA
10B62:  MOVFF  FEF,7BB
10B66:  MOVF   x74,W
10B68:  MULLW  14
10B6A:  MOVFF  FF3,7BC
10B6E:  MOVLB  7
10B70:  MOVFF  7BB,7BD
10B74:  MOVFF  7BC,7BE
10B78:  MOVLW  1E
10B7A:  MOVWF  xBF
10B7C:  MOVLW  01
10B7E:  MOVWF  xC0
10B80:  MOVLB  0
10B82:  CALL   214E
....................             else 
10B86:  GOTO   10BBE
10B8A:  MOVLB  5
....................             {displayContrasena(Contrasena[i-1],i*20,30,0);} 
10B8C:  MOVLW  01
10B8E:  SUBWF  x74,W
10B90:  CLRF   03
10B92:  ADDLW  C9
10B94:  MOVWF  FE9
10B96:  MOVLW  05
10B98:  ADDWFC 03,W
10B9A:  MOVWF  FEA
10B9C:  MOVFF  FEF,7BB
10BA0:  MOVF   x74,W
10BA2:  MULLW  14
10BA4:  MOVFF  FF3,7BC
10BA8:  MOVLB  7
10BAA:  MOVFF  7BB,7BD
10BAE:  MOVFF  7BC,7BE
10BB2:  MOVLW  1E
10BB4:  MOVWF  xBF
10BB6:  CLRF   xC0
10BB8:  MOVLB  0
10BBA:  CALL   214E
....................          }         
10BBE:  MOVLB  5
10BC0:  INCF   x74,F
10BC2:  GOTO   10AFE
10BC6:  MOVLB  0
....................       } 
....................              
....................       if(RIGHT)//Si oprime RIGHT 
10BC8:  BSF    F96.1
10BCA:  BTFSC  F84.1
10BCC:  GOTO   10C80
....................       { 
....................          Buzz_on;delay_ms(10);Buzz_off; 
10BD0:  BSF    F8B.4
10BD2:  BCF    F94.4
10BD4:  MOVLW  0A
10BD6:  MOVLB  7
10BD8:  MOVWF  xC1
10BDA:  MOVLB  0
10BDC:  CALL   184E
10BE0:  BCF    F8B.4
10BE2:  BCF    F94.4
....................          delay_ms(200);unidad++; 
10BE4:  MOVLW  C8
10BE6:  MOVLB  7
10BE8:  MOVWF  xC1
10BEA:  MOVLB  0
10BEC:  CALL   184E
10BF0:  MOVLB  5
10BF2:  INCF   x73,F
....................          for(i=1;i<=4;i++) 
10BF4:  MOVLW  01
10BF6:  MOVWF  x74
10BF8:  MOVF   x74,W
10BFA:  SUBLW  04
10BFC:  BTFSS  FD8.0
10BFE:  GOTO   10C80
....................          { 
....................             if(unidad==i) 
10C02:  MOVF   x74,W
10C04:  SUBWF  x73,W
10C06:  BTFSS  FD8.2
10C08:  GOTO   10C46
....................             {displayContrasena(Contrasena[i-1],i*20,30,1);} 
10C0C:  MOVLW  01
10C0E:  SUBWF  x74,W
10C10:  CLRF   03
10C12:  ADDLW  C9
10C14:  MOVWF  FE9
10C16:  MOVLW  05
10C18:  ADDWFC 03,W
10C1A:  MOVWF  FEA
10C1C:  MOVFF  FEF,7BB
10C20:  MOVF   x74,W
10C22:  MULLW  14
10C24:  MOVFF  FF3,7BC
10C28:  MOVLB  7
10C2A:  MOVFF  7BB,7BD
10C2E:  MOVFF  7BC,7BE
10C32:  MOVLW  1E
10C34:  MOVWF  xBF
10C36:  MOVLW  01
10C38:  MOVWF  xC0
10C3A:  MOVLB  0
10C3C:  CALL   214E
....................             else 
10C40:  GOTO   10C78
10C44:  MOVLB  5
....................             {displayContrasena(Contrasena[i-1],i*20,30,0);} 
10C46:  MOVLW  01
10C48:  SUBWF  x74,W
10C4A:  CLRF   03
10C4C:  ADDLW  C9
10C4E:  MOVWF  FE9
10C50:  MOVLW  05
10C52:  ADDWFC 03,W
10C54:  MOVWF  FEA
10C56:  MOVFF  FEF,7BB
10C5A:  MOVF   x74,W
10C5C:  MULLW  14
10C5E:  MOVFF  FF3,7BC
10C62:  MOVLB  7
10C64:  MOVFF  7BB,7BD
10C68:  MOVFF  7BC,7BE
10C6C:  MOVLW  1E
10C6E:  MOVWF  xBF
10C70:  CLRF   xC0
10C72:  MOVLB  0
10C74:  CALL   214E
....................          } 
10C78:  MOVLB  5
10C7A:  INCF   x74,F
10C7C:  GOTO   10BF8
....................       } 
....................      
....................       if(unidad>4) 
10C80:  MOVLB  5
10C82:  MOVF   x73,W
10C84:  SUBLW  04
10C86:  BTFSC  FD8.0
10C88:  GOTO   10FC4
....................       {glcd_fillScreen(OFF);unidad=4; 
10C8C:  MOVLB  7
10C8E:  CLRF   xBC
10C90:  MOVLB  0
10C92:  CALL   18CE
10C96:  MOVLW  04
10C98:  MOVLB  5
10C9A:  MOVWF  x73
....................          if(Contrasena[0]==3&&Contrasena[1]==8&&Contrasena[2]==9&&Contrasena[3]==2) // Si Ingresa clave para reset general del sistema. 
10C9C:  MOVF   xC9,W
10C9E:  SUBLW  03
10CA0:  BTFSS  FD8.2
10CA2:  GOTO   10DB0
10CA6:  MOVF   xCA,W
10CA8:  SUBLW  08
10CAA:  BTFSS  FD8.2
10CAC:  GOTO   10DB0
10CB0:  MOVF   xCB,W
10CB2:  SUBLW  09
10CB4:  BTFSS  FD8.2
10CB6:  GOTO   10DB0
10CBA:  MOVF   xCC,W
10CBC:  SUBLW  02
10CBE:  BTFSS  FD8.2
10CC0:  GOTO   10DB0
....................             {write_eeprom(260,0);delay_ms(20);write_eeprom(261,0);delay_ms(20);// Reestablece a contrasea de Fabrica y reinicia Programa. 
10CC4:  MOVLW  01
10CC6:  MOVWF  FAA
10CC8:  MOVLW  04
10CCA:  MOVWF  FA9
10CCC:  CLRF   FA8
10CCE:  BCF    FA6.6
10CD0:  BCF    FA6.7
10CD2:  BSF    FA6.2
10CD4:  MOVF   FF2,W
10CD6:  MOVWF  00
10CD8:  BCF    FF2.7
10CDA:  MOVLB  F
10CDC:  MOVLW  55
10CDE:  MOVWF  FA7
10CE0:  MOVLW  AA
10CE2:  MOVWF  FA7
10CE4:  BSF    FA6.1
10CE6:  BTFSC  FA6.1
10CE8:  GOTO   10CE6
10CEC:  BCF    FA6.2
10CEE:  MOVF   00,W
10CF0:  IORWF  FF2,F
10CF2:  MOVLW  14
10CF4:  MOVLB  7
10CF6:  MOVWF  xC1
10CF8:  MOVLB  0
10CFA:  CALL   184E
10CFE:  MOVLW  01
10D00:  MOVWF  FAA
10D02:  MOVLW  05
10D04:  MOVWF  FA9
10D06:  CLRF   FA8
10D08:  BCF    FA6.6
10D0A:  BCF    FA6.7
10D0C:  BSF    FA6.2
10D0E:  MOVF   FF2,W
10D10:  MOVWF  00
10D12:  BCF    FF2.7
10D14:  MOVLB  F
10D16:  MOVLW  55
10D18:  MOVWF  FA7
10D1A:  MOVLW  AA
10D1C:  MOVWF  FA7
10D1E:  BSF    FA6.1
10D20:  BTFSC  FA6.1
10D22:  GOTO   10D20
10D26:  BCF    FA6.2
10D28:  MOVF   00,W
10D2A:  IORWF  FF2,F
10D2C:  MOVLW  14
10D2E:  MOVLB  7
10D30:  MOVWF  xC1
10D32:  MOVLB  0
10D34:  CALL   184E
....................              write_eeprom(262,0);delay_ms(20);write_eeprom(263,0);delay_ms(20); 
10D38:  MOVLW  01
10D3A:  MOVWF  FAA
10D3C:  MOVLW  06
10D3E:  MOVWF  FA9
10D40:  CLRF   FA8
10D42:  BCF    FA6.6
10D44:  BCF    FA6.7
10D46:  BSF    FA6.2
10D48:  MOVF   FF2,W
10D4A:  MOVWF  00
10D4C:  BCF    FF2.7
10D4E:  MOVLB  F
10D50:  MOVLW  55
10D52:  MOVWF  FA7
10D54:  MOVLW  AA
10D56:  MOVWF  FA7
10D58:  BSF    FA6.1
10D5A:  BTFSC  FA6.1
10D5C:  GOTO   10D5A
10D60:  BCF    FA6.2
10D62:  MOVF   00,W
10D64:  IORWF  FF2,F
10D66:  MOVLW  14
10D68:  MOVLB  7
10D6A:  MOVWF  xC1
10D6C:  MOVLB  0
10D6E:  CALL   184E
10D72:  MOVLW  01
10D74:  MOVWF  FAA
10D76:  MOVLW  07
10D78:  MOVWF  FA9
10D7A:  CLRF   FA8
10D7C:  BCF    FA6.6
10D7E:  BCF    FA6.7
10D80:  BSF    FA6.2
10D82:  MOVF   FF2,W
10D84:  MOVWF  00
10D86:  BCF    FF2.7
10D88:  MOVLB  F
10D8A:  MOVLW  55
10D8C:  MOVWF  FA7
10D8E:  MOVLW  AA
10D90:  MOVWF  FA7
10D92:  BSF    FA6.1
10D94:  BTFSC  FA6.1
10D96:  GOTO   10D94
10D9A:  BCF    FA6.2
10D9C:  MOVF   00,W
10D9E:  IORWF  FF2,F
10DA0:  MOVLW  14
10DA2:  MOVLB  7
10DA4:  MOVWF  xC1
10DA6:  MOVLB  0
10DA8:  CALL   184E
....................              reset_cpu();}         
10DAC:  RESET
10DAE:  MOVLB  5
....................           
....................          if((Contrasena[0]==Password[0])&&(Contrasena[1]==Password[1])&&(Contrasena[2]==Password[2])&&(Contrasena[3]==Password[3])) 
10DB0:  MOVF   xCD,W
10DB2:  SUBWF  xC9,W
10DB4:  BTFSS  FD8.2
10DB6:  GOTO   10EA0
10DBA:  MOVF   xCE,W
10DBC:  SUBWF  xCA,W
10DBE:  BTFSS  FD8.2
10DC0:  GOTO   10EA0
10DC4:  MOVF   xCF,W
10DC6:  SUBWF  xCB,W
10DC8:  BTFSS  FD8.2
10DCA:  GOTO   10EA0
10DCE:  MOVF   xD0,W
10DD0:  SUBWF  xCC,W
10DD2:  BTFSS  FD8.2
10DD4:  GOTO   10EA0
....................          { 
....................             glcd_fillScreen(OFF); 
10DD8:  MOVLB  7
10DDA:  CLRF   xBC
10DDC:  MOVLB  0
10DDE:  CALL   18CE
....................             strcpy(Menus.Letra,"Clave"); 
10DE2:  MOVLW  07
10DE4:  MOVWF  FEA
10DE6:  MOVLW  9B
10DE8:  MOVWF  FE9
10DEA:  MOVFF  FF2,7BB
10DEE:  BCF    FF2.7
10DF0:  MOVLW  00
10DF2:  CALL   0A84
10DF6:  TBLRD*-
10DF8:  TBLRD*+
10DFA:  MOVF   FF5,W
10DFC:  MOVWF  FEE
10DFE:  IORLW  00
10E00:  BTFSS  FD8.2
10E02:  GOTO   10DF8
10E06:  MOVLB  7
10E08:  BTFSC  xBB.7
10E0A:  BSF    FF2.7
....................             displayMenu(Menus.Letra,30,0,0,2); 
10E0C:  MOVLW  07
10E0E:  MOVWF  xBF
10E10:  MOVLW  9B
10E12:  MOVWF  xBE
10E14:  MOVLW  1E
10E16:  MOVWF  xC0
10E18:  CLRF   xC1
10E1A:  CLRF   xC2
10E1C:  MOVLW  02
10E1E:  MOVWF  xC3
10E20:  MOVLB  0
10E22:  CALL   1EFC
....................             strcpy(Menus.Letra,"Correcta"); 
10E26:  MOVLW  07
10E28:  MOVWF  FEA
10E2A:  MOVLW  9B
10E2C:  MOVWF  FE9
10E2E:  MOVFF  FF2,7BB
10E32:  BCF    FF2.7
10E34:  MOVLW  00
10E36:  CALL   0AA8
10E3A:  TBLRD*-
10E3C:  TBLRD*+
10E3E:  MOVF   FF5,W
10E40:  MOVWF  FEE
10E42:  IORLW  00
10E44:  BTFSS  FD8.2
10E46:  GOTO   10E3C
10E4A:  MOVLB  7
10E4C:  BTFSC  xBB.7
10E4E:  BSF    FF2.7
....................             displayMenu(Menus.Letra,15,30,0,2); 
10E50:  MOVLW  07
10E52:  MOVWF  xBF
10E54:  MOVLW  9B
10E56:  MOVWF  xBE
10E58:  MOVLW  0F
10E5A:  MOVWF  xC0
10E5C:  MOVLW  1E
10E5E:  MOVWF  xC1
10E60:  CLRF   xC2
10E62:  MOVLW  02
10E64:  MOVWF  xC3
10E66:  MOVLB  0
10E68:  CALL   1EFC
....................             Menu=1;glcd_update();delay_ms(1000); 
10E6C:  MOVLW  01
10E6E:  MOVLB  5
10E70:  MOVWF  x72
10E72:  MOVLB  0
10E74:  CALL   1928
10E78:  MOVLW  04
10E7A:  MOVLB  7
10E7C:  MOVWF  xBB
10E7E:  MOVLW  FA
10E80:  MOVWF  xC1
10E82:  MOVLB  0
10E84:  CALL   184E
10E88:  MOVLB  7
10E8A:  DECFSZ xBB,F
10E8C:  BRA    10E7E
....................             glcd_fillScreen(OFF);unidad=1; 
10E8E:  CLRF   xBC
10E90:  MOVLB  0
10E92:  CALL   18CE
10E96:  MOVLW  01
10E98:  MOVLB  5
10E9A:  MOVWF  x73
....................          }// Esta parte se puede agregar en el Menu 1 dependiendo de la ubicacin del vidrio. 
....................          else 
10E9C:  GOTO   10FC4
....................          { 
....................             glcd_fillScreen(OFF); 
10EA0:  MOVLB  7
10EA2:  CLRF   xBC
10EA4:  MOVLB  0
10EA6:  CALL   18CE
....................             strcpy(Menus.Letra,"Clave"); 
10EAA:  MOVLW  07
10EAC:  MOVWF  FEA
10EAE:  MOVLW  9B
10EB0:  MOVWF  FE9
10EB2:  MOVFF  FF2,7BB
10EB6:  BCF    FF2.7
10EB8:  MOVLW  00
10EBA:  CALL   0A84
10EBE:  TBLRD*-
10EC0:  TBLRD*+
10EC2:  MOVF   FF5,W
10EC4:  MOVWF  FEE
10EC6:  IORLW  00
10EC8:  BTFSS  FD8.2
10ECA:  GOTO   10EC0
10ECE:  MOVLB  7
10ED0:  BTFSC  xBB.7
10ED2:  BSF    FF2.7
....................             displayMenu(Menus.Letra,30,0,0,2); 
10ED4:  MOVLW  07
10ED6:  MOVWF  xBF
10ED8:  MOVLW  9B
10EDA:  MOVWF  xBE
10EDC:  MOVLW  1E
10EDE:  MOVWF  xC0
10EE0:  CLRF   xC1
10EE2:  CLRF   xC2
10EE4:  MOVLW  02
10EE6:  MOVWF  xC3
10EE8:  MOVLB  0
10EEA:  CALL   1EFC
....................             strcpy(Menus.Letra,"Incorrecta"); 
10EEE:  MOVLW  07
10EF0:  MOVWF  FEA
10EF2:  MOVLW  9B
10EF4:  MOVWF  FE9
10EF6:  MOVFF  FF2,7BB
10EFA:  BCF    FF2.7
10EFC:  MOVLW  00
10EFE:  CALL   0AD0
10F02:  TBLRD*-
10F04:  TBLRD*+
10F06:  MOVF   FF5,W
10F08:  MOVWF  FEE
10F0A:  IORLW  00
10F0C:  BTFSS  FD8.2
10F0E:  GOTO   10F04
10F12:  MOVLB  7
10F14:  BTFSC  xBB.7
10F16:  BSF    FF2.7
....................             displayMenu(Menus.Letra,0,30,0,2); 
10F18:  MOVLW  07
10F1A:  MOVWF  xBF
10F1C:  MOVLW  9B
10F1E:  MOVWF  xBE
10F20:  CLRF   xC0
10F22:  MOVLW  1E
10F24:  MOVWF  xC1
10F26:  CLRF   xC2
10F28:  MOVLW  02
10F2A:  MOVWF  xC3
10F2C:  MOVLB  0
10F2E:  CALL   1EFC
....................             Menu=0;glcd_update();delay_ms(1000); 
10F32:  MOVLB  5
10F34:  CLRF   x72
10F36:  MOVLB  0
10F38:  CALL   1928
10F3C:  MOVLW  04
10F3E:  MOVLB  7
10F40:  MOVWF  xBB
10F42:  MOVLW  FA
10F44:  MOVWF  xC1
10F46:  MOVLB  0
10F48:  CALL   184E
10F4C:  MOVLB  7
10F4E:  DECFSZ xBB,F
10F50:  BRA    10F42
....................             glcd_fillScreen(OFF);unidad=1; 
10F52:  CLRF   xBC
10F54:  MOVLB  0
10F56:  CALL   18CE
10F5A:  MOVLW  01
10F5C:  MOVLB  5
10F5E:  MOVWF  x73
....................             Contrasena[0]=0;Contrasena[1]=0;Contrasena[2]=0;Contrasena[3]=0; 
10F60:  CLRF   xC9
10F62:  CLRF   xCA
10F64:  CLRF   xCB
10F66:  CLRF   xCC
....................             displayContrasena(Contrasena[0],20,30,1); 
10F68:  MOVFF  5C9,7BD
10F6C:  MOVLW  14
10F6E:  MOVLB  7
10F70:  MOVWF  xBE
10F72:  MOVLW  1E
10F74:  MOVWF  xBF
10F76:  MOVLW  01
10F78:  MOVWF  xC0
10F7A:  MOVLB  0
10F7C:  CALL   214E
....................             displayContrasena(Contrasena[1],40,30,0); 
10F80:  MOVFF  5CA,7BD
10F84:  MOVLW  28
10F86:  MOVLB  7
10F88:  MOVWF  xBE
10F8A:  MOVLW  1E
10F8C:  MOVWF  xBF
10F8E:  CLRF   xC0
10F90:  MOVLB  0
10F92:  CALL   214E
....................             displayContrasena(Contrasena[2],60,30,0); 
10F96:  MOVFF  5CB,7BD
10F9A:  MOVLW  3C
10F9C:  MOVLB  7
10F9E:  MOVWF  xBE
10FA0:  MOVLW  1E
10FA2:  MOVWF  xBF
10FA4:  CLRF   xC0
10FA6:  MOVLB  0
10FA8:  CALL   214E
....................             displayContrasena(Contrasena[3],80,30,0); 
10FAC:  MOVFF  5CC,7BD
10FB0:  MOVLW  50
10FB2:  MOVLB  7
10FB4:  MOVWF  xBE
10FB6:  MOVLW  1E
10FB8:  MOVWF  xBF
10FBA:  CLRF   xC0
10FBC:  MOVLB  0
10FBE:  CALL   214E
10FC2:  MOVLB  5
....................          } 
....................       } 
....................     } 
.................... //_--------------------------------------------------------------------------------------------------------------------------------------------------------        
....................  
....................  
.................... //_-------------------------------------------------------------------------------------------------------------------------------------------------------- 
....................       if(Menu==1){ //Menu Principal.       
10FC4:  DECFSZ x72,W
10FC6:  GOTO   115EE
....................        
....................          if(Opcion>7) 
10FCA:  MOVF   x79,W
10FCC:  SUBLW  07
10FCE:  BTFSC  FD8.0
10FD0:  GOTO   10FD8
....................          {Opcion=1;} 
10FD4:  MOVLW  01
10FD6:  MOVWF  x79
....................          if(Opcion<1) 
10FD8:  MOVF   x79,F
10FDA:  BTFSS  FD8.2
10FDC:  GOTO   10FE4
....................          {Opcion=7;} 
10FE0:  MOVLW  07
10FE2:  MOVWF  x79
....................           
....................          strcpy(Menus.Letra,"Menu"); 
10FE4:  MOVLW  07
10FE6:  MOVWF  FEA
10FE8:  MOVLW  9B
10FEA:  MOVWF  FE9
10FEC:  MOVFF  FF2,7BB
10FF0:  BCF    FF2.7
10FF2:  MOVLW  00
10FF4:  MOVLB  0
10FF6:  CALL   0AFA
10FFA:  TBLRD*-
10FFC:  TBLRD*+
10FFE:  MOVF   FF5,W
11000:  MOVWF  FEE
11002:  IORLW  00
11004:  BTFSS  FD8.2
11006:  GOTO   10FFC
1100A:  MOVLB  7
1100C:  BTFSC  xBB.7
1100E:  BSF    FF2.7
....................          displayMenu(Menus.Letra,30,0,1,2); 
11010:  MOVLW  07
11012:  MOVWF  xBF
11014:  MOVLW  9B
11016:  MOVWF  xBE
11018:  MOVLW  1E
1101A:  MOVWF  xC0
1101C:  CLRF   xC1
1101E:  MOVLW  01
11020:  MOVWF  xC2
11022:  MOVLW  02
11024:  MOVWF  xC3
11026:  MOVLB  0
11028:  CALL   1EFC
....................        
....................          if(Opcion<=5) 
1102C:  MOVLB  5
1102E:  MOVF   x79,W
11030:  SUBLW  05
11032:  BTFSS  FD8.0
11034:  GOTO   1134E
....................          { 
....................             if(Opcion==1)    
11038:  DECFSZ x79,W
1103A:  GOTO   1108A
....................                {strcpy(Menus.Letra,"Iniciar Programa"); 
1103E:  MOVLW  07
11040:  MOVWF  FEA
11042:  MOVLW  9B
11044:  MOVWF  FE9
11046:  MOVFF  FF2,7BB
1104A:  BCF    FF2.7
1104C:  MOVLW  00
1104E:  MOVLB  0
11050:  CALL   0B1E
11054:  TBLRD*-
11056:  TBLRD*+
11058:  MOVF   FF5,W
1105A:  MOVWF  FEE
1105C:  IORLW  00
1105E:  BTFSS  FD8.2
11060:  GOTO   11056
11064:  MOVLB  7
11066:  BTFSC  xBB.7
11068:  BSF    FF2.7
....................                displayMenu(Menus.Letra,0,18,1,1);} 
1106A:  MOVLW  07
1106C:  MOVWF  xBF
1106E:  MOVLW  9B
11070:  MOVWF  xBE
11072:  CLRF   xC0
11074:  MOVLW  12
11076:  MOVWF  xC1
11078:  MOVLW  01
1107A:  MOVWF  xC2
1107C:  MOVWF  xC3
1107E:  MOVLB  0
11080:  CALL   1EFC
....................             else 
11084:  GOTO   110D0
11088:  MOVLB  5
....................                {strcpy(Menus.Letra,"Iniciar Programa"); 
1108A:  MOVLW  07
1108C:  MOVWF  FEA
1108E:  MOVLW  9B
11090:  MOVWF  FE9
11092:  MOVFF  FF2,7BB
11096:  BCF    FF2.7
11098:  MOVLW  00
1109A:  MOVLB  0
1109C:  CALL   0B1E
110A0:  TBLRD*-
110A2:  TBLRD*+
110A4:  MOVF   FF5,W
110A6:  MOVWF  FEE
110A8:  IORLW  00
110AA:  BTFSS  FD8.2
110AC:  GOTO   110A2
110B0:  MOVLB  7
110B2:  BTFSC  xBB.7
110B4:  BSF    FF2.7
....................                displayMenu(Menus.Letra,0,18,0,1);} 
110B6:  MOVLW  07
110B8:  MOVWF  xBF
110BA:  MOVLW  9B
110BC:  MOVWF  xBE
110BE:  CLRF   xC0
110C0:  MOVLW  12
110C2:  MOVWF  xC1
110C4:  CLRF   xC2
110C6:  MOVLW  01
110C8:  MOVWF  xC3
110CA:  MOVLB  0
110CC:  CALL   1EFC
....................              
....................             if(Opcion==2)    
110D0:  MOVLB  5
110D2:  MOVF   x79,W
110D4:  SUBLW  02
110D6:  BTFSS  FD8.2
110D8:  GOTO   11128
....................                {strcpy(Menus.Letra,"Editar Programa"); 
110DC:  MOVLW  07
110DE:  MOVWF  FEA
110E0:  MOVLW  9B
110E2:  MOVWF  FE9
110E4:  MOVFF  FF2,7BB
110E8:  BCF    FF2.7
110EA:  MOVLW  00
110EC:  MOVLB  0
110EE:  CALL   0B4E
110F2:  TBLRD*-
110F4:  TBLRD*+
110F6:  MOVF   FF5,W
110F8:  MOVWF  FEE
110FA:  IORLW  00
110FC:  BTFSS  FD8.2
110FE:  GOTO   110F4
11102:  MOVLB  7
11104:  BTFSC  xBB.7
11106:  BSF    FF2.7
....................                displayMenu(Menus.Letra,0,27,1,1);} 
11108:  MOVLW  07
1110A:  MOVWF  xBF
1110C:  MOVLW  9B
1110E:  MOVWF  xBE
11110:  CLRF   xC0
11112:  MOVLW  1B
11114:  MOVWF  xC1
11116:  MOVLW  01
11118:  MOVWF  xC2
1111A:  MOVWF  xC3
1111C:  MOVLB  0
1111E:  CALL   1EFC
....................             else 
11122:  GOTO   1116E
11126:  MOVLB  5
....................                {strcpy(Menus.Letra,"Editar Programa"); 
11128:  MOVLW  07
1112A:  MOVWF  FEA
1112C:  MOVLW  9B
1112E:  MOVWF  FE9
11130:  MOVFF  FF2,7BB
11134:  BCF    FF2.7
11136:  MOVLW  00
11138:  MOVLB  0
1113A:  CALL   0B4E
1113E:  TBLRD*-
11140:  TBLRD*+
11142:  MOVF   FF5,W
11144:  MOVWF  FEE
11146:  IORLW  00
11148:  BTFSS  FD8.2
1114A:  GOTO   11140
1114E:  MOVLB  7
11150:  BTFSC  xBB.7
11152:  BSF    FF2.7
....................                displayMenu(Menus.Letra,0,27,0,1);} 
11154:  MOVLW  07
11156:  MOVWF  xBF
11158:  MOVLW  9B
1115A:  MOVWF  xBE
1115C:  CLRF   xC0
1115E:  MOVLW  1B
11160:  MOVWF  xC1
11162:  CLRF   xC2
11164:  MOVLW  01
11166:  MOVWF  xC3
11168:  MOVLB  0
1116A:  CALL   1EFC
....................                 
....................             if(Opcion==3)    
1116E:  MOVLB  5
11170:  MOVF   x79,W
11172:  SUBLW  03
11174:  BTFSS  FD8.2
11176:  GOTO   111C6
....................                {strcpy(Menus.Letra,"Borrar Programa"); 
1117A:  MOVLW  07
1117C:  MOVWF  FEA
1117E:  MOVLW  9B
11180:  MOVWF  FE9
11182:  MOVFF  FF2,7BB
11186:  BCF    FF2.7
11188:  MOVLW  00
1118A:  MOVLB  0
1118C:  CALL   0B7C
11190:  TBLRD*-
11192:  TBLRD*+
11194:  MOVF   FF5,W
11196:  MOVWF  FEE
11198:  IORLW  00
1119A:  BTFSS  FD8.2
1119C:  GOTO   11192
111A0:  MOVLB  7
111A2:  BTFSC  xBB.7
111A4:  BSF    FF2.7
....................                displayMenu(Menus.Letra,0,36,1,1);} 
111A6:  MOVLW  07
111A8:  MOVWF  xBF
111AA:  MOVLW  9B
111AC:  MOVWF  xBE
111AE:  CLRF   xC0
111B0:  MOVLW  24
111B2:  MOVWF  xC1
111B4:  MOVLW  01
111B6:  MOVWF  xC2
111B8:  MOVWF  xC3
111BA:  MOVLB  0
111BC:  CALL   1EFC
....................             else 
111C0:  GOTO   1120C
111C4:  MOVLB  5
....................                {strcpy(Menus.Letra,"Borrar Programa"); 
111C6:  MOVLW  07
111C8:  MOVWF  FEA
111CA:  MOVLW  9B
111CC:  MOVWF  FE9
111CE:  MOVFF  FF2,7BB
111D2:  BCF    FF2.7
111D4:  MOVLW  00
111D6:  MOVLB  0
111D8:  CALL   0B7C
111DC:  TBLRD*-
111DE:  TBLRD*+
111E0:  MOVF   FF5,W
111E2:  MOVWF  FEE
111E4:  IORLW  00
111E6:  BTFSS  FD8.2
111E8:  GOTO   111DE
111EC:  MOVLB  7
111EE:  BTFSC  xBB.7
111F0:  BSF    FF2.7
....................                displayMenu(Menus.Letra,0,36,0,1);}    
111F2:  MOVLW  07
111F4:  MOVWF  xBF
111F6:  MOVLW  9B
111F8:  MOVWF  xBE
111FA:  CLRF   xC0
111FC:  MOVLW  24
111FE:  MOVWF  xC1
11200:  CLRF   xC2
11202:  MOVLW  01
11204:  MOVWF  xC3
11206:  MOVLB  0
11208:  CALL   1EFC
....................                             
....................             if(Opcion==4)    
1120C:  MOVLB  5
1120E:  MOVF   x79,W
11210:  SUBLW  04
11212:  BTFSS  FD8.2
11214:  GOTO   11264
....................                {strcpy(Menus.Letra,"Ajustes"); 
11218:  MOVLW  07
1121A:  MOVWF  FEA
1121C:  MOVLW  9B
1121E:  MOVWF  FE9
11220:  MOVFF  FF2,7BB
11224:  BCF    FF2.7
11226:  MOVLW  00
11228:  MOVLB  0
1122A:  CALL   0BAA
1122E:  TBLRD*-
11230:  TBLRD*+
11232:  MOVF   FF5,W
11234:  MOVWF  FEE
11236:  IORLW  00
11238:  BTFSS  FD8.2
1123A:  GOTO   11230
1123E:  MOVLB  7
11240:  BTFSC  xBB.7
11242:  BSF    FF2.7
....................                displayMenu(Menus.Letra,0,45,1,1);} 
11244:  MOVLW  07
11246:  MOVWF  xBF
11248:  MOVLW  9B
1124A:  MOVWF  xBE
1124C:  CLRF   xC0
1124E:  MOVLW  2D
11250:  MOVWF  xC1
11252:  MOVLW  01
11254:  MOVWF  xC2
11256:  MOVWF  xC3
11258:  MOVLB  0
1125A:  CALL   1EFC
....................             else 
1125E:  GOTO   112AA
11262:  MOVLB  5
....................                {strcpy(Menus.Letra,"Ajustes"); 
11264:  MOVLW  07
11266:  MOVWF  FEA
11268:  MOVLW  9B
1126A:  MOVWF  FE9
1126C:  MOVFF  FF2,7BB
11270:  BCF    FF2.7
11272:  MOVLW  00
11274:  MOVLB  0
11276:  CALL   0BAA
1127A:  TBLRD*-
1127C:  TBLRD*+
1127E:  MOVF   FF5,W
11280:  MOVWF  FEE
11282:  IORLW  00
11284:  BTFSS  FD8.2
11286:  GOTO   1127C
1128A:  MOVLB  7
1128C:  BTFSC  xBB.7
1128E:  BSF    FF2.7
....................                displayMenu(Menus.Letra,0,45,0,1);}      
11290:  MOVLW  07
11292:  MOVWF  xBF
11294:  MOVLW  9B
11296:  MOVWF  xBE
11298:  CLRF   xC0
1129A:  MOVLW  2D
1129C:  MOVWF  xC1
1129E:  CLRF   xC2
112A0:  MOVLW  01
112A2:  MOVWF  xC3
112A4:  MOVLB  0
112A6:  CALL   1EFC
....................              
....................             if(Opcion==5)    
112AA:  MOVLB  5
112AC:  MOVF   x79,W
112AE:  SUBLW  05
112B0:  BTFSS  FD8.2
112B2:  GOTO   11302
....................                {strcpy(Menus.Letra,"Cambio Clave"); 
112B6:  MOVLW  07
112B8:  MOVWF  FEA
112BA:  MOVLW  9B
112BC:  MOVWF  FE9
112BE:  MOVFF  FF2,7BB
112C2:  BCF    FF2.7
112C4:  MOVLW  00
112C6:  MOVLB  0
112C8:  CALL   0BD0
112CC:  TBLRD*-
112CE:  TBLRD*+
112D0:  MOVF   FF5,W
112D2:  MOVWF  FEE
112D4:  IORLW  00
112D6:  BTFSS  FD8.2
112D8:  GOTO   112CE
112DC:  MOVLB  7
112DE:  BTFSC  xBB.7
112E0:  BSF    FF2.7
....................                displayMenu(Menus.Letra,0,54,1,1);} 
112E2:  MOVLW  07
112E4:  MOVWF  xBF
112E6:  MOVLW  9B
112E8:  MOVWF  xBE
112EA:  CLRF   xC0
112EC:  MOVLW  36
112EE:  MOVWF  xC1
112F0:  MOVLW  01
112F2:  MOVWF  xC2
112F4:  MOVWF  xC3
112F6:  MOVLB  0
112F8:  CALL   1EFC
....................             else 
112FC:  GOTO   11348
11300:  MOVLB  5
....................                {strcpy(Menus.Letra,"Cambio Clave"); 
11302:  MOVLW  07
11304:  MOVWF  FEA
11306:  MOVLW  9B
11308:  MOVWF  FE9
1130A:  MOVFF  FF2,7BB
1130E:  BCF    FF2.7
11310:  MOVLW  00
11312:  MOVLB  0
11314:  CALL   0BD0
11318:  TBLRD*-
1131A:  TBLRD*+
1131C:  MOVF   FF5,W
1131E:  MOVWF  FEE
11320:  IORLW  00
11322:  BTFSS  FD8.2
11324:  GOTO   1131A
11328:  MOVLB  7
1132A:  BTFSC  xBB.7
1132C:  BSF    FF2.7
....................                displayMenu(Menus.Letra,0,54,0,1);}      
1132E:  MOVLW  07
11330:  MOVWF  xBF
11332:  MOVLW  9B
11334:  MOVWF  xBE
11336:  CLRF   xC0
11338:  MOVLW  36
1133A:  MOVWF  xC1
1133C:  CLRF   xC2
1133E:  MOVLW  01
11340:  MOVWF  xC3
11342:  MOVLB  0
11344:  CALL   1EFC
....................          }else{ 
11348:  GOTO   11554
1134C:  MOVLB  5
....................             if(Opcion==6)    
1134E:  MOVF   x79,W
11350:  SUBLW  06
11352:  BTFSS  FD8.2
11354:  GOTO   113A4
....................                {strcpy(Menus.Letra,"Fecha y Hora"); 
11358:  MOVLW  07
1135A:  MOVWF  FEA
1135C:  MOVLW  9B
1135E:  MOVWF  FE9
11360:  MOVFF  FF2,7BB
11364:  BCF    FF2.7
11366:  MOVLW  00
11368:  MOVLB  0
1136A:  CALL   0BFC
1136E:  TBLRD*-
11370:  TBLRD*+
11372:  MOVF   FF5,W
11374:  MOVWF  FEE
11376:  IORLW  00
11378:  BTFSS  FD8.2
1137A:  GOTO   11370
1137E:  MOVLB  7
11380:  BTFSC  xBB.7
11382:  BSF    FF2.7
....................                displayMenu(Menus.Letra,0,18,1,1);} 
11384:  MOVLW  07
11386:  MOVWF  xBF
11388:  MOVLW  9B
1138A:  MOVWF  xBE
1138C:  CLRF   xC0
1138E:  MOVLW  12
11390:  MOVWF  xC1
11392:  MOVLW  01
11394:  MOVWF  xC2
11396:  MOVWF  xC3
11398:  MOVLB  0
1139A:  CALL   1EFC
....................             else 
1139E:  GOTO   113EA
113A2:  MOVLB  5
....................                {strcpy(Menus.Letra,"Fecha y Hora"); 
113A4:  MOVLW  07
113A6:  MOVWF  FEA
113A8:  MOVLW  9B
113AA:  MOVWF  FE9
113AC:  MOVFF  FF2,7BB
113B0:  BCF    FF2.7
113B2:  MOVLW  00
113B4:  MOVLB  0
113B6:  CALL   0BFC
113BA:  TBLRD*-
113BC:  TBLRD*+
113BE:  MOVF   FF5,W
113C0:  MOVWF  FEE
113C2:  IORLW  00
113C4:  BTFSS  FD8.2
113C6:  GOTO   113BC
113CA:  MOVLB  7
113CC:  BTFSC  xBB.7
113CE:  BSF    FF2.7
....................                displayMenu(Menus.Letra,0,18,0,1);} 
113D0:  MOVLW  07
113D2:  MOVWF  xBF
113D4:  MOVLW  9B
113D6:  MOVWF  xBE
113D8:  CLRF   xC0
113DA:  MOVLW  12
113DC:  MOVWF  xC1
113DE:  CLRF   xC2
113E0:  MOVLW  01
113E2:  MOVWF  xC3
113E4:  MOVLB  0
113E6:  CALL   1EFC
....................              
....................             if(Opcion==7)    
113EA:  MOVLB  5
113EC:  MOVF   x79,W
113EE:  SUBLW  07
113F0:  BTFSS  FD8.2
113F2:  GOTO   11442
....................                {strcpy(Menus.Letra,"Ajustes Impresora"); 
113F6:  MOVLW  07
113F8:  MOVWF  FEA
113FA:  MOVLW  9B
113FC:  MOVWF  FE9
113FE:  MOVFF  FF2,7BB
11402:  BCF    FF2.7
11404:  MOVLW  00
11406:  MOVLB  0
11408:  CALL   0C28
1140C:  TBLRD*-
1140E:  TBLRD*+
11410:  MOVF   FF5,W
11412:  MOVWF  FEE
11414:  IORLW  00
11416:  BTFSS  FD8.2
11418:  GOTO   1140E
1141C:  MOVLB  7
1141E:  BTFSC  xBB.7
11420:  BSF    FF2.7
....................                displayMenu(Menus.Letra,0,27,1,1);} 
11422:  MOVLW  07
11424:  MOVWF  xBF
11426:  MOVLW  9B
11428:  MOVWF  xBE
1142A:  CLRF   xC0
1142C:  MOVLW  1B
1142E:  MOVWF  xC1
11430:  MOVLW  01
11432:  MOVWF  xC2
11434:  MOVWF  xC3
11436:  MOVLB  0
11438:  CALL   1EFC
....................             else 
1143C:  GOTO   11488
11440:  MOVLB  5
....................                {strcpy(Menus.Letra,"Ajustes Impresora"); 
11442:  MOVLW  07
11444:  MOVWF  FEA
11446:  MOVLW  9B
11448:  MOVWF  FE9
1144A:  MOVFF  FF2,7BB
1144E:  BCF    FF2.7
11450:  MOVLW  00
11452:  MOVLB  0
11454:  CALL   0C28
11458:  TBLRD*-
1145A:  TBLRD*+
1145C:  MOVF   FF5,W
1145E:  MOVWF  FEE
11460:  IORLW  00
11462:  BTFSS  FD8.2
11464:  GOTO   1145A
11468:  MOVLB  7
1146A:  BTFSC  xBB.7
1146C:  BSF    FF2.7
....................                displayMenu(Menus.Letra,0,27,0,1);} 
1146E:  MOVLW  07
11470:  MOVWF  xBF
11472:  MOVLW  9B
11474:  MOVWF  xBE
11476:  CLRF   xC0
11478:  MOVLW  1B
1147A:  MOVWF  xC1
1147C:  CLRF   xC2
1147E:  MOVLW  01
11480:  MOVWF  xC3
11482:  MOVLB  0
11484:  CALL   1EFC
....................                 
....................                strcpy(Menus.Letra,"           "); 
11488:  MOVLW  07
1148A:  MOVWF  FEA
1148C:  MOVLW  9B
1148E:  MOVWF  FE9
11490:  MOVFF  FF2,7BB
11494:  BCF    FF2.7
11496:  MOVLW  00
11498:  CALL   0C58
1149C:  TBLRD*-
1149E:  TBLRD*+
114A0:  MOVF   FF5,W
114A2:  MOVWF  FEE
114A4:  IORLW  00
114A6:  BTFSS  FD8.2
114A8:  GOTO   1149E
114AC:  MOVLB  7
114AE:  BTFSC  xBB.7
114B0:  BSF    FF2.7
....................                displayMenu(Menus.Letra,0,36,0,1); 
114B2:  MOVLW  07
114B4:  MOVWF  xBF
114B6:  MOVLW  9B
114B8:  MOVWF  xBE
114BA:  CLRF   xC0
114BC:  MOVLW  24
114BE:  MOVWF  xC1
114C0:  CLRF   xC2
114C2:  MOVLW  01
114C4:  MOVWF  xC3
114C6:  MOVLB  0
114C8:  CALL   1EFC
....................                 
....................                strcpy(Menus.Letra,"           "); 
114CC:  MOVLW  07
114CE:  MOVWF  FEA
114D0:  MOVLW  9B
114D2:  MOVWF  FE9
114D4:  MOVFF  FF2,7BB
114D8:  BCF    FF2.7
114DA:  MOVLW  00
114DC:  CALL   0C58
114E0:  TBLRD*-
114E2:  TBLRD*+
114E4:  MOVF   FF5,W
114E6:  MOVWF  FEE
114E8:  IORLW  00
114EA:  BTFSS  FD8.2
114EC:  GOTO   114E2
114F0:  MOVLB  7
114F2:  BTFSC  xBB.7
114F4:  BSF    FF2.7
....................                displayMenu(Menus.Letra,0,45,0,1); 
114F6:  MOVLW  07
114F8:  MOVWF  xBF
114FA:  MOVLW  9B
114FC:  MOVWF  xBE
114FE:  CLRF   xC0
11500:  MOVLW  2D
11502:  MOVWF  xC1
11504:  CLRF   xC2
11506:  MOVLW  01
11508:  MOVWF  xC3
1150A:  MOVLB  0
1150C:  CALL   1EFC
....................                 
....................                strcpy(Menus.Letra,"           "); 
11510:  MOVLW  07
11512:  MOVWF  FEA
11514:  MOVLW  9B
11516:  MOVWF  FE9
11518:  MOVFF  FF2,7BB
1151C:  BCF    FF2.7
1151E:  MOVLW  00
11520:  CALL   0C58
11524:  TBLRD*-
11526:  TBLRD*+
11528:  MOVF   FF5,W
1152A:  MOVWF  FEE
1152C:  IORLW  00
1152E:  BTFSS  FD8.2
11530:  GOTO   11526
11534:  MOVLB  7
11536:  BTFSC  xBB.7
11538:  BSF    FF2.7
....................                displayMenu(Menus.Letra,0,54,0,1); 
1153A:  MOVLW  07
1153C:  MOVWF  xBF
1153E:  MOVLW  9B
11540:  MOVWF  xBE
11542:  CLRF   xC0
11544:  MOVLW  36
11546:  MOVWF  xC1
11548:  CLRF   xC2
1154A:  MOVLW  01
1154C:  MOVWF  xC3
1154E:  MOVLB  0
11550:  CALL   1EFC
....................          } 
....................              
....................          if(UP)//Si oprime hacia arriba 
11554:  BSF    F92.5
11556:  BTFSC  F80.5
11558:  GOTO   11576
....................          { 
....................             Buzz_on;delay_ms(30);Opcion--;Buzz_off; 
1155C:  BSF    F8B.4
1155E:  BCF    F94.4
11560:  MOVLW  1E
11562:  MOVLB  7
11564:  MOVWF  xC1
11566:  MOVLB  0
11568:  CALL   184E
1156C:  MOVLB  5
1156E:  DECF   x79,F
11570:  BCF    F8B.4
11572:  BCF    F94.4
11574:  MOVLB  0
....................          } 
....................                    
....................          if(DOWN)//Si oprime hacia abajo 
11576:  BSF    F96.0
11578:  BTFSC  F84.0
1157A:  GOTO   11598
....................          { 
....................             Buzz_on;delay_ms(30);Opcion++; Buzz_off; 
1157E:  BSF    F8B.4
11580:  BCF    F94.4
11582:  MOVLW  1E
11584:  MOVLB  7
11586:  MOVWF  xC1
11588:  MOVLB  0
1158A:  CALL   184E
1158E:  MOVLB  5
11590:  INCF   x79,F
11592:  BCF    F8B.4
11594:  BCF    F94.4
11596:  MOVLB  0
....................          } 
....................                 
....................          if(RIGHT)//Si oprime SET 
11598:  BSF    F96.1
1159A:  BTFSC  F84.1
1159C:  GOTO   115F0
....................          {  
....................             Buzz_on;delay_ms(50);Menu=Opcion+3;Opcion=1;glcd_fillscreen(OFF);Buzz_off; 
115A0:  BSF    F8B.4
115A2:  BCF    F94.4
115A4:  MOVLW  32
115A6:  MOVLB  7
115A8:  MOVWF  xC1
115AA:  MOVLB  0
115AC:  CALL   184E
115B0:  MOVLW  03
115B2:  MOVLB  5
115B4:  ADDWF  x79,W
115B6:  MOVWF  x72
115B8:  MOVLW  01
115BA:  MOVWF  x79
115BC:  MOVLB  7
115BE:  CLRF   xBC
115C0:  MOVLB  0
115C2:  CALL   18CE
115C6:  BCF    F8B.4
115C8:  BCF    F94.4
....................             if(Menu==7) 
115CA:  MOVLB  5
115CC:  MOVF   x72,W
115CE:  SUBLW  07
115D0:  BTFSS  FD8.2
115D2:  GOTO   115DA
....................                Menu=100; 
115D6:  MOVLW  64
115D8:  MOVWF  x72
....................             DiaTx=Dia; 
115DA:  MOVFF  773,77C
....................             MesTx=Mes; 
115DE:  MOVFF  778,77B
....................             YearTx=Year; 
115E2:  MOVFF  771,77A
....................             HoraTx=Hora; 
115E6:  MOVFF  774,77D
....................             MinutoTx=Minuto;    
115EA:  MOVFF  775,77E
115EE:  MOVLB  0
....................          } 
....................        
....................  
....................    } 
.................... //_--------------------------------------------------------------------------------------------------------------------------------------------------------        
....................  
.................... //_-------------------------------------------------------------------------------------------------------------------------------------------------------- 
....................       if(Menu==4){ //Menu de Continuar 
115F0:  MOVLB  5
115F2:  MOVF   x72,W
115F4:  SUBLW  04
115F6:  BTFSS  FD8.2
115F8:  GOTO   11E5E
....................        
....................       if(Opcion>5) 
115FC:  MOVF   x79,W
115FE:  SUBLW  05
11600:  BTFSC  FD8.0
11602:  GOTO   1160A
....................          Opcion=1; 
11606:  MOVLW  01
11608:  MOVWF  x79
....................           
....................       if(Opcion<1) 
1160A:  MOVF   x79,F
1160C:  BTFSS  FD8.2
1160E:  GOTO   11616
....................          Opcion=5; 
11612:  MOVLW  05
11614:  MOVWF  x79
....................        
....................          strcpy(Menus.Letra,"Seleccione"); 
11616:  MOVLW  07
11618:  MOVWF  FEA
1161A:  MOVLW  9B
1161C:  MOVWF  FE9
1161E:  MOVFF  FF2,7BB
11622:  BCF    FF2.7
11624:  MOVLW  00
11626:  MOVLB  0
11628:  CALL   0C82
1162C:  TBLRD*-
1162E:  TBLRD*+
11630:  MOVF   FF5,W
11632:  MOVWF  FEE
11634:  IORLW  00
11636:  BTFSS  FD8.2
11638:  GOTO   1162E
1163C:  MOVLB  7
1163E:  BTFSC  xBB.7
11640:  BSF    FF2.7
....................          displayMenu(Menus.Letra,0,0,1,2); 
11642:  MOVLW  07
11644:  MOVWF  xBF
11646:  MOVLW  9B
11648:  MOVWF  xBE
1164A:  CLRF   xC0
1164C:  CLRF   xC1
1164E:  MOVLW  01
11650:  MOVWF  xC2
11652:  MOVLW  02
11654:  MOVWF  xC3
11656:  MOVLB  0
11658:  CALL   1EFC
....................           
....................          strcpy(Menus.Letra," Programa"); 
1165C:  MOVLW  07
1165E:  MOVWF  FEA
11660:  MOVLW  9B
11662:  MOVWF  FE9
11664:  MOVFF  FF2,7BB
11668:  BCF    FF2.7
1166A:  MOVLW  00
1166C:  CALL   0CAC
11670:  TBLRD*-
11672:  TBLRD*+
11674:  MOVF   FF5,W
11676:  MOVWF  FEE
11678:  IORLW  00
1167A:  BTFSS  FD8.2
1167C:  GOTO   11672
11680:  MOVLB  7
11682:  BTFSC  xBB.7
11684:  BSF    FF2.7
....................          displayMenu(Menus.Letra,0,16,1,2); 
11686:  MOVLW  07
11688:  MOVWF  xBF
1168A:  MOVLW  9B
1168C:  MOVWF  xBE
1168E:  CLRF   xC0
11690:  MOVLW  10
11692:  MOVWF  xC1
11694:  MOVLW  01
11696:  MOVWF  xC2
11698:  MOVLW  02
1169A:  MOVWF  xC3
1169C:  MOVLB  0
1169E:  CALL   1EFC
....................            
....................           
....................          if(Opcion==1) 
116A2:  MOVLB  5
116A4:  DECFSZ x79,W
116A6:  GOTO   116F2
....................          { 
....................             strcpy(Menus.Letra,"Programa 01"); 
116AA:  MOVLW  07
116AC:  MOVWF  FEA
116AE:  MOVLW  9B
116B0:  MOVWF  FE9
116B2:  MOVFF  FF2,7BB
116B6:  BCF    FF2.7
116B8:  MOVLW  00
116BA:  MOVLB  0
116BC:  CALL   0CD4
116C0:  TBLRD*-
116C2:  TBLRD*+
116C4:  MOVF   FF5,W
116C6:  MOVWF  FEE
116C8:  IORLW  00
116CA:  BTFSS  FD8.2
116CC:  GOTO   116C2
116D0:  MOVLB  7
116D2:  BTFSC  xBB.7
116D4:  BSF    FF2.7
....................             displayMenu(Menus.Letra,0,38,0,2); 
116D6:  MOVLW  07
116D8:  MOVWF  xBF
116DA:  MOVLW  9B
116DC:  MOVWF  xBE
116DE:  CLRF   xC0
116E0:  MOVLW  26
116E2:  MOVWF  xC1
116E4:  CLRF   xC2
116E6:  MOVLW  02
116E8:  MOVWF  xC3
116EA:  MOVLB  0
116EC:  CALL   1EFC
116F0:  MOVLB  5
....................          } 
....................           
....................          if(Opcion==2) 
116F2:  MOVF   x79,W
116F4:  SUBLW  02
116F6:  BTFSS  FD8.2
116F8:  GOTO   11744
....................          { 
....................             strcpy(Menus.Letra,"Programa 02"); 
116FC:  MOVLW  07
116FE:  MOVWF  FEA
11700:  MOVLW  9B
11702:  MOVWF  FE9
11704:  MOVFF  FF2,7BB
11708:  BCF    FF2.7
1170A:  MOVLW  00
1170C:  MOVLB  0
1170E:  CALL   0CFE
11712:  TBLRD*-
11714:  TBLRD*+
11716:  MOVF   FF5,W
11718:  MOVWF  FEE
1171A:  IORLW  00
1171C:  BTFSS  FD8.2
1171E:  GOTO   11714
11722:  MOVLB  7
11724:  BTFSC  xBB.7
11726:  BSF    FF2.7
....................             displayMenu(Menus.Letra,0,38,0,2); 
11728:  MOVLW  07
1172A:  MOVWF  xBF
1172C:  MOVLW  9B
1172E:  MOVWF  xBE
11730:  CLRF   xC0
11732:  MOVLW  26
11734:  MOVWF  xC1
11736:  CLRF   xC2
11738:  MOVLW  02
1173A:  MOVWF  xC3
1173C:  MOVLB  0
1173E:  CALL   1EFC
11742:  MOVLB  5
....................          } 
....................           
....................          if(Opcion==3) 
11744:  MOVF   x79,W
11746:  SUBLW  03
11748:  BTFSS  FD8.2
1174A:  GOTO   11796
....................          { 
....................             strcpy(Menus.Letra,"Programa 03"); 
1174E:  MOVLW  07
11750:  MOVWF  FEA
11752:  MOVLW  9B
11754:  MOVWF  FE9
11756:  MOVFF  FF2,7BB
1175A:  BCF    FF2.7
1175C:  MOVLW  00
1175E:  MOVLB  0
11760:  CALL   0D28
11764:  TBLRD*-
11766:  TBLRD*+
11768:  MOVF   FF5,W
1176A:  MOVWF  FEE
1176C:  IORLW  00
1176E:  BTFSS  FD8.2
11770:  GOTO   11766
11774:  MOVLB  7
11776:  BTFSC  xBB.7
11778:  BSF    FF2.7
....................             displayMenu(Menus.Letra,0,38,0,2); 
1177A:  MOVLW  07
1177C:  MOVWF  xBF
1177E:  MOVLW  9B
11780:  MOVWF  xBE
11782:  CLRF   xC0
11784:  MOVLW  26
11786:  MOVWF  xC1
11788:  CLRF   xC2
1178A:  MOVLW  02
1178C:  MOVWF  xC3
1178E:  MOVLB  0
11790:  CALL   1EFC
11794:  MOVLB  5
....................          } 
....................           
....................          if(Opcion==4) 
11796:  MOVF   x79,W
11798:  SUBLW  04
1179A:  BTFSS  FD8.2
1179C:  GOTO   117E8
....................          { 
....................             strcpy(Menus.Letra,"Programa 04"); 
117A0:  MOVLW  07
117A2:  MOVWF  FEA
117A4:  MOVLW  9B
117A6:  MOVWF  FE9
117A8:  MOVFF  FF2,7BB
117AC:  BCF    FF2.7
117AE:  MOVLW  00
117B0:  MOVLB  0
117B2:  CALL   0D52
117B6:  TBLRD*-
117B8:  TBLRD*+
117BA:  MOVF   FF5,W
117BC:  MOVWF  FEE
117BE:  IORLW  00
117C0:  BTFSS  FD8.2
117C2:  GOTO   117B8
117C6:  MOVLB  7
117C8:  BTFSC  xBB.7
117CA:  BSF    FF2.7
....................             displayMenu(Menus.Letra,0,38,0,2); 
117CC:  MOVLW  07
117CE:  MOVWF  xBF
117D0:  MOVLW  9B
117D2:  MOVWF  xBE
117D4:  CLRF   xC0
117D6:  MOVLW  26
117D8:  MOVWF  xC1
117DA:  CLRF   xC2
117DC:  MOVLW  02
117DE:  MOVWF  xC3
117E0:  MOVLB  0
117E2:  CALL   1EFC
117E6:  MOVLB  5
....................          } 
....................           
....................          if(Opcion==5) 
117E8:  MOVF   x79,W
117EA:  SUBLW  05
117EC:  BTFSS  FD8.2
117EE:  GOTO   1183A
....................          { 
....................             strcpy(Menus.Letra,"Programa 05"); 
117F2:  MOVLW  07
117F4:  MOVWF  FEA
117F6:  MOVLW  9B
117F8:  MOVWF  FE9
117FA:  MOVFF  FF2,7BB
117FE:  BCF    FF2.7
11800:  MOVLW  00
11802:  MOVLB  0
11804:  CALL   0D7C
11808:  TBLRD*-
1180A:  TBLRD*+
1180C:  MOVF   FF5,W
1180E:  MOVWF  FEE
11810:  IORLW  00
11812:  BTFSS  FD8.2
11814:  GOTO   1180A
11818:  MOVLB  7
1181A:  BTFSC  xBB.7
1181C:  BSF    FF2.7
....................             displayMenu(Menus.Letra,0,38,0,2); 
1181E:  MOVLW  07
11820:  MOVWF  xBF
11822:  MOVLW  9B
11824:  MOVWF  xBE
11826:  CLRF   xC0
11828:  MOVLW  26
1182A:  MOVWF  xC1
1182C:  CLRF   xC2
1182E:  MOVLW  02
11830:  MOVWF  xC3
11832:  MOVLB  0
11834:  CALL   1EFC
11838:  MOVLB  5
....................          } 
....................           
....................          
....................       if(UP)//Si oprime hacia arriba 
1183A:  BSF    F92.5
1183C:  BTFSC  F80.5
1183E:  GOTO   1187A
....................       { 
....................          Buzz_on;delay_ms(30);Opcion++;Buzz_off; 
11842:  BSF    F8B.4
11844:  BCF    F94.4
11846:  MOVLW  1E
11848:  MOVLB  7
1184A:  MOVWF  xC1
1184C:  MOVLB  0
1184E:  CALL   184E
11852:  MOVLB  5
11854:  INCF   x79,F
11856:  BCF    F8B.4
11858:  BCF    F94.4
....................          glcd_rect(40, 35, 85, 60, YES, OFF); 
1185A:  MOVLW  28
1185C:  MOVLB  7
1185E:  MOVWF  xD3
11860:  MOVLW  23
11862:  MOVWF  xD4
11864:  MOVLW  55
11866:  MOVWF  xD5
11868:  MOVLW  3C
1186A:  MOVWF  xD6
1186C:  MOVLW  01
1186E:  MOVWF  xD7
11870:  CLRF   xD8
11872:  MOVLB  0
11874:  CALL   1E3A
11878:  MOVLB  5
....................       } 
....................              
....................       if(DOWN)//Si oprime hacia abajo 
1187A:  BSF    F96.0
1187C:  BTFSC  F84.0
1187E:  GOTO   118BA
....................       {   
....................          Buzz_on;delay_ms(30);Opcion--;Buzz_off; 
11882:  BSF    F8B.4
11884:  BCF    F94.4
11886:  MOVLW  1E
11888:  MOVLB  7
1188A:  MOVWF  xC1
1188C:  MOVLB  0
1188E:  CALL   184E
11892:  MOVLB  5
11894:  DECF   x79,F
11896:  BCF    F8B.4
11898:  BCF    F94.4
....................          glcd_rect(40, 35, 85, 60, YES, OFF); 
1189A:  MOVLW  28
1189C:  MOVLB  7
1189E:  MOVWF  xD3
118A0:  MOVLW  23
118A2:  MOVWF  xD4
118A4:  MOVLW  55
118A6:  MOVWF  xD5
118A8:  MOVLW  3C
118AA:  MOVWF  xD6
118AC:  MOVLW  01
118AE:  MOVWF  xD7
118B0:  CLRF   xD8
118B2:  MOVLB  0
118B4:  CALL   1E3A
118B8:  MOVLB  5
....................       } 
....................              
....................       if(RIGHT)//Si oprime SET 
118BA:  BSF    F96.1
118BC:  BTFSC  F84.1
118BE:  GOTO   11E26
....................       {   
....................          Menu=20;glcd_fillscreen(OFF); 
118C2:  MOVLW  14
118C4:  MOVWF  x72
118C6:  MOVLB  7
118C8:  CLRF   xBC
118CA:  MOVLB  0
118CC:  CALL   18CE
....................          for(i=0;i<10;i++){ 
118D0:  MOVLB  5
118D2:  CLRF   x74
118D4:  MOVF   x74,W
118D6:  SUBLW  09
118D8:  BTFSS  FD8.0
118DA:  GOTO   11934
....................             if(Temperatura1[i+((Opcion-1)*10)]==0){ 
118DE:  MOVLW  01
118E0:  SUBWF  x79,W
118E2:  MULLW  0A
118E4:  MOVF   FF3,W
118E6:  ADDWF  x74,W
118E8:  MOVWF  00
118EA:  BCF    FD8.0
118EC:  RLCF   00,F
118EE:  MOVF   00,W
118F0:  CLRF   03
118F2:  ADDLW  45
118F4:  MOVWF  FE9
118F6:  MOVLW  06
118F8:  ADDWFC 03,W
118FA:  MOVWF  FEA
118FC:  MOVFF  FEC,7BC
11900:  MOVF   FED,F
11902:  MOVFF  FEF,7BB
11906:  MOVLB  7
11908:  MOVF   xBB,F
1190A:  BTFSS  FD8.2
1190C:  GOTO   11928
11910:  MOVF   xBC,F
11912:  BTFSS  FD8.2
11914:  GOTO   11928
....................                Segmentos=i; 
11918:  MOVFF  574,56A
....................                break; 
1191C:  MOVLB  5
1191E:  GOTO   11934
....................             } 
....................             else{ 
11922:  GOTO   1192E
11926:  MOVLB  7
....................                Segmentos=9; 
11928:  MOVLW  09
1192A:  MOVLB  5
1192C:  MOVWF  x6A
....................             } 
....................             //Horas1[i+((Opcion-1)*10)]=0; 
....................             //Minutos1[i+((Opcion-1)*10)]=0; 
....................          } 
1192E:  INCF   x74,F
11930:  GOTO   118D4
....................          if(Segmentos>0){ 
11934:  MOVF   x6A,F
11936:  BTFSC  FD8.2
11938:  GOTO   11D5E
....................             ProgramaSeleccionado=Opcion-1; 
1193C:  MOVLW  01
1193E:  SUBWF  x79,W
11940:  MOVWF  x7B
....................             glcd_fillscreen(OFF); 
11942:  MOVLB  7
11944:  CLRF   xBC
11946:  MOVLB  0
11948:  CALL   18CE
....................              
....................             strcpy(Menus.Letra," Segmentos"); 
1194C:  MOVLW  07
1194E:  MOVWF  FEA
11950:  MOVLW  9B
11952:  MOVWF  FE9
11954:  MOVFF  FF2,7BB
11958:  BCF    FF2.7
1195A:  MOVLW  00
1195C:  CALL   0DA6
11960:  TBLRD*-
11962:  TBLRD*+
11964:  MOVF   FF5,W
11966:  MOVWF  FEE
11968:  IORLW  00
1196A:  BTFSS  FD8.2
1196C:  GOTO   11962
11970:  MOVLB  7
11972:  BTFSC  xBB.7
11974:  BSF    FF2.7
....................             displayMenu(Menus.Letra,0,0,0,2); 
11976:  MOVLW  07
11978:  MOVWF  xBF
1197A:  MOVLW  9B
1197C:  MOVWF  xBE
1197E:  CLRF   xC0
11980:  CLRF   xC1
11982:  CLRF   xC2
11984:  MOVLW  02
11986:  MOVWF  xC3
11988:  MOVLB  0
1198A:  CALL   1EFC
....................              
....................             displayTiempo(Segmentos,63,30,3,2); 
1198E:  MOVFF  56A,7BE
11992:  MOVLW  3F
11994:  MOVLB  7
11996:  MOVWF  xBF
11998:  MOVLW  1E
1199A:  MOVWF  xC0
1199C:  MOVLW  03
1199E:  MOVWF  xC1
119A0:  MOVLW  02
119A2:  MOVWF  xC2
119A4:  MOVLB  0
119A6:  CALL   3D70
....................             delay_ms(2000); 
119AA:  MOVLW  08
119AC:  MOVLB  7
119AE:  MOVWF  xBB
119B0:  MOVLW  FA
119B2:  MOVWF  xC1
119B4:  MOVLB  0
119B6:  CALL   184E
119BA:  MOVLB  7
119BC:  DECFSZ xBB,F
119BE:  BRA    119B0
....................             glcd_fillscreen(OFF); 
119C0:  CLRF   xBC
119C2:  MOVLB  0
119C4:  CALL   18CE
....................             Opcion=1;visual=1;//Faltaa cuadrar esta parte 
119C8:  MOVLW  01
119CA:  MOVLB  5
119CC:  MOVWF  x79
119CE:  BSF    x6D.0
....................             TempeInicial=Temperatura; 
119D0:  MOVFF  60C,5A0
119D4:  MOVFF  60B,59F
119D8:  MOVFF  60A,59E
119DC:  MOVFF  609,59D
....................             Ganancia=GananciaIn*(Setpoint/Coeficiente); 
119E0:  MOVFF  618,7C2
119E4:  MOVFF  617,7C1
119E8:  MOVFF  616,7C0
119EC:  MOVFF  615,7BF
119F0:  MOVFF  5FC,7C6
119F4:  MOVFF  5FB,7C5
119F8:  MOVFF  5FA,7C4
119FC:  MOVFF  5F9,7C3
11A00:  MOVLB  0
11A02:  CALL   22B4
11A06:  MOVFF  5F0,7DB
11A0A:  MOVFF  5EF,7DA
11A0E:  MOVFF  5EE,7D9
11A12:  MOVFF  5ED,7D8
11A16:  MOVFF  03,7DF
11A1A:  MOVFF  02,7DE
11A1E:  MOVFF  01,7DD
11A22:  MOVFF  00,7DC
11A26:  CALL   37C4
11A2A:  MOVFF  03,5F4
11A2E:  MOVFF  02,5F3
11A32:  MOVFF  01,5F2
11A36:  MOVFF  00,5F1
....................              
....................             Tiempo=(Horas1[ProgramaSeleccionado*10]*3600)+(Minutos1[ProgramaSeleccionado*10]*60);          
11A3A:  MOVLB  5
11A3C:  MOVF   x7B,W
11A3E:  MULLW  0A
11A40:  MOVFF  FF3,00
11A44:  BCF    FD8.0
11A46:  RLCF   00,F
11A48:  MOVF   00,W
11A4A:  CLRF   03
11A4C:  ADDLW  A9
11A4E:  MOVWF  FE9
11A50:  MOVLW  06
11A52:  ADDWFC 03,W
11A54:  MOVWF  FEA
11A56:  MOVFF  FEC,7BC
11A5A:  MOVF   FED,F
11A5C:  MOVFF  FEF,7BB
11A60:  MOVFF  7BC,7C0
11A64:  MOVFF  7BB,7BF
11A68:  MOVLW  0E
11A6A:  MOVLB  7
11A6C:  MOVWF  xC2
11A6E:  MOVLW  10
11A70:  MOVWF  xC1
11A72:  MOVLB  0
11A74:  CALL   3F36
11A78:  MOVFF  02,7BC
11A7C:  MOVFF  01,7BB
11A80:  MOVLB  5
11A82:  MOVF   x7B,W
11A84:  MULLW  0A
11A86:  MOVFF  FF3,00
11A8A:  BCF    FD8.0
11A8C:  RLCF   00,F
11A8E:  MOVF   00,W
11A90:  CLRF   03
11A92:  ADDLW  0D
11A94:  MOVWF  FE9
11A96:  MOVLW  07
11A98:  ADDWFC 03,W
11A9A:  MOVWF  FEA
11A9C:  MOVFF  FEC,7BE
11AA0:  MOVF   FED,F
11AA2:  MOVFF  FEF,7BD
11AA6:  MOVFF  7BE,7C0
11AAA:  MOVFF  7BD,7BF
11AAE:  MOVLB  7
11AB0:  CLRF   xC2
11AB2:  MOVLW  3C
11AB4:  MOVWF  xC1
11AB6:  MOVLB  0
11AB8:  CALL   3F36
11ABC:  MOVFF  02,03
11AC0:  MOVF   01,W
11AC2:  MOVLB  7
11AC4:  ADDWF  xBB,W
11AC6:  MOVWF  01
11AC8:  MOVF   xBC,W
11ACA:  ADDWFC 03,F
11ACC:  MOVFF  01,7BF
11AD0:  MOVFF  03,7C0
11AD4:  MOVLB  0
11AD6:  CALL   3F8A
11ADA:  MOVFF  03,5A4
11ADE:  MOVFF  02,5A3
11AE2:  MOVFF  01,5A2
11AE6:  MOVFF  00,5A1
....................             Setpoint=Temperatura1[(ProgramaSeleccionado*10)+Segmento]; 
11AEA:  MOVLB  5
11AEC:  MOVF   x7B,W
11AEE:  MULLW  0A
11AF0:  MOVF   FF3,W
11AF2:  ADDWF  x6B,W
11AF4:  MOVWF  00
11AF6:  BCF    FD8.0
11AF8:  RLCF   00,F
11AFA:  MOVF   00,W
11AFC:  CLRF   03
11AFE:  ADDLW  45
11B00:  MOVWF  FE9
11B02:  MOVLW  06
11B04:  ADDWFC 03,W
11B06:  MOVWF  FEA
11B08:  MOVFF  FEC,03
11B0C:  MOVF   FED,F
11B0E:  MOVFF  FEF,7BF
11B12:  MOVFF  03,7C0
11B16:  MOVLB  0
11B18:  CALL   3F8A
11B1C:  MOVFF  03,618
11B20:  MOVFF  02,617
11B24:  MOVFF  01,616
11B28:  MOVFF  00,615
....................             Pendiente=((Setpoint-TempeInicial)/Tiempo); 
11B2C:  BSF    FD8.1
11B2E:  MOVFF  618,7CA
11B32:  MOVFF  617,7C9
11B36:  MOVFF  616,7C8
11B3A:  MOVFF  615,7C7
11B3E:  MOVFF  5A0,7CE
11B42:  MOVFF  59F,7CD
11B46:  MOVFF  59E,7CC
11B4A:  MOVFF  59D,7CB
11B4E:  CALL   2412
11B52:  MOVFF  00,7BB
11B56:  MOVFF  01,7BC
11B5A:  MOVFF  02,7BD
11B5E:  MOVFF  03,7BE
11B62:  MOVFF  7BE,7C2
11B66:  MOVFF  7BD,7C1
11B6A:  MOVFF  7BC,7C0
11B6E:  MOVFF  7BB,7BF
11B72:  MOVFF  5A4,7C6
11B76:  MOVFF  5A3,7C5
11B7A:  MOVFF  5A2,7C4
11B7E:  MOVFF  5A1,7C3
11B82:  CALL   22B4
11B86:  MOVFF  03,610
11B8A:  MOVFF  02,60F
11B8E:  MOVFF  01,60E
11B92:  MOVFF  00,60D
....................             Testerilizacionp[3]=(int8)Horas1[(ProgramaSeleccionado*10)+Segmento]/10; 
11B96:  MOVLB  5
11B98:  MOVF   x7B,W
11B9A:  MULLW  0A
11B9C:  MOVF   FF3,W
11B9E:  ADDWF  x6B,W
11BA0:  MOVWF  00
11BA2:  BCF    FD8.0
11BA4:  RLCF   00,F
11BA6:  MOVF   00,W
11BA8:  CLRF   03
11BAA:  ADDLW  A9
11BAC:  MOVWF  FE9
11BAE:  MOVLW  06
11BB0:  ADDWFC 03,W
11BB2:  MOVWF  FEA
11BB4:  MOVFF  FEF,7D0
11BB8:  MOVLW  0A
11BBA:  MOVLB  7
11BBC:  MOVWF  xD1
11BBE:  MOVLB  0
11BC0:  CALL   2022
11BC4:  MOVFF  01,5C8
11BC8:  MOVLB  5
....................             Testerilizacionp[2]=Horas1[(ProgramaSeleccionado*10)+Segmento]-(Testerilizacionp[3]*10); 
11BCA:  MOVF   x7B,W
11BCC:  MULLW  0A
11BCE:  MOVF   FF3,W
11BD0:  ADDWF  x6B,W
11BD2:  MOVWF  00
11BD4:  BCF    FD8.0
11BD6:  RLCF   00,F
11BD8:  MOVF   00,W
11BDA:  CLRF   03
11BDC:  ADDLW  A9
11BDE:  MOVWF  FE9
11BE0:  MOVLW  06
11BE2:  ADDWFC 03,W
11BE4:  MOVWF  FEA
11BE6:  MOVFF  FEC,7BC
11BEA:  MOVF   FED,F
11BEC:  MOVFF  FEF,7BB
11BF0:  MOVFF  5C8,7DC
11BF4:  MOVLW  0A
11BF6:  MOVLB  7
11BF8:  MOVWF  xDD
11BFA:  MOVLB  0
11BFC:  CALL   3FDA
11C00:  MOVF   01,W
11C02:  CLRF   03
11C04:  MOVWF  00
11C06:  BTFSC  FE8.7
11C08:  DECF   03,F
11C0A:  MOVLB  7
11C0C:  SUBWF  xBB,W
11C0E:  MOVWF  00
11C10:  MOVF   03,W
11C12:  SUBWFB xBC,W
11C14:  MOVFF  00,5C7
11C18:  MOVLB  5
....................             Testerilizacionp[1]=Minutos1[(ProgramaSeleccionado*10)+Segmento]/10; 
11C1A:  MOVF   x7B,W
11C1C:  MULLW  0A
11C1E:  MOVF   FF3,W
11C20:  ADDWF  x6B,W
11C22:  MOVWF  00
11C24:  BCF    FD8.0
11C26:  RLCF   00,F
11C28:  MOVF   00,W
11C2A:  CLRF   03
11C2C:  ADDLW  0D
11C2E:  MOVWF  FE9
11C30:  MOVLW  07
11C32:  ADDWFC 03,W
11C34:  MOVWF  FEA
11C36:  MOVFF  FEC,7BC
11C3A:  MOVF   FED,F
11C3C:  MOVFF  FEF,7BB
11C40:  MOVFF  7BC,7C0
11C44:  MOVFF  7BB,7BF
11C48:  MOVLB  7
11C4A:  CLRF   xC2
11C4C:  MOVLW  0A
11C4E:  MOVWF  xC1
11C50:  MOVLB  0
11C52:  CALL   4028
11C56:  MOVFF  01,5C6
11C5A:  MOVLB  5
....................             Testerilizacionp[0]=Minutos1[(ProgramaSeleccionado*10)+Segmento]-(Testerilizacionp[1]*10); 
11C5C:  MOVF   x7B,W
11C5E:  MULLW  0A
11C60:  MOVF   FF3,W
11C62:  ADDWF  x6B,W
11C64:  MOVWF  00
11C66:  BCF    FD8.0
11C68:  RLCF   00,F
11C6A:  MOVF   00,W
11C6C:  CLRF   03
11C6E:  ADDLW  0D
11C70:  MOVWF  FE9
11C72:  MOVLW  07
11C74:  ADDWFC 03,W
11C76:  MOVWF  FEA
11C78:  MOVFF  FEC,7BC
11C7C:  MOVF   FED,F
11C7E:  MOVFF  FEF,7BB
11C82:  MOVFF  5C6,7DC
11C86:  MOVLW  0A
11C88:  MOVLB  7
11C8A:  MOVWF  xDD
11C8C:  MOVLB  0
11C8E:  CALL   3FDA
11C92:  MOVF   01,W
11C94:  CLRF   03
11C96:  MOVWF  00
11C98:  BTFSC  FE8.7
11C9A:  DECF   03,F
11C9C:  MOVLB  7
11C9E:  SUBWF  xBB,W
11CA0:  MOVWF  00
11CA2:  MOVF   03,W
11CA4:  SUBWFB xBC,W
11CA6:  MOVFF  00,5C5
11CAA:  MOVLB  5
....................             if(ActivaImpresion){ 
11CAC:  BTFSS  x5F.3
11CAE:  GOTO   11D5A
....................                fprintf(printer,"OPERADOR:________________\n"); 
11CB2:  MOVLW  38
11CB4:  MOVWF  FF6
11CB6:  MOVLW  17
11CB8:  MOVWF  FF7
11CBA:  MOVLW  00
11CBC:  MOVWF  FF8
11CBE:  MOVLB  0
11CC0:  CALL   3C0C
....................                delay_us(20); 
11CC4:  MOVLW  21
11CC6:  MOVWF  00
11CC8:  DECFSZ 00,F
11CCA:  BRA    11CC8
....................                fprintf(printer,"Programa: %02u\n",ProgramaSeleccionado+1); 
11CCC:  MOVLW  01
11CCE:  MOVLB  5
11CD0:  ADDWF  x7B,W
11CD2:  MOVLB  7
11CD4:  MOVWF  xBB
11CD6:  MOVLW  54
11CD8:  MOVWF  FF6
11CDA:  MOVLW  17
11CDC:  MOVWF  FF7
11CDE:  MOVLW  00
11CE0:  MOVWF  FF8
11CE2:  MOVLW  0A
11CE4:  MOVWF  xBC
11CE6:  MOVLB  0
11CE8:  CALL   3C36
11CEC:  MOVFF  7BB,7BC
11CF0:  MOVLW  01
11CF2:  MOVLB  7
11CF4:  MOVWF  xBD
11CF6:  MOVLB  0
11CF8:  CALL   3C68
11CFC:  MOVLW  0A
11CFE:  BTFSS  F9E.4
11D00:  GOTO   11CFE
11D04:  MOVWF  FAD
....................                delay_us(20); 
11D06:  MOVLW  21
11D08:  MOVWF  00
11D0A:  DECFSZ 00,F
11D0C:  BRA    11D0A
....................                fprintf(printer,"Segmentos: %02u\n",Segmentos); 
11D0E:  MOVLW  64
11D10:  MOVWF  FF6
11D12:  MOVLW  17
11D14:  MOVWF  FF7
11D16:  MOVLW  00
11D18:  MOVWF  FF8
11D1A:  MOVLW  0B
11D1C:  MOVLB  7
11D1E:  MOVWF  xBC
11D20:  MOVLB  0
11D22:  CALL   3C36
11D26:  MOVFF  56A,7BC
11D2A:  MOVLW  01
11D2C:  MOVLB  7
11D2E:  MOVWF  xBD
11D30:  MOVLB  0
11D32:  CALL   3C68
11D36:  MOVLW  0A
11D38:  BTFSS  F9E.4
11D3A:  GOTO   11D38
11D3E:  MOVWF  FAD
....................                delay_us(20); 
11D40:  MOVLW  21
11D42:  MOVWF  00
11D44:  DECFSZ 00,F
11D46:  BRA    11D44
....................                fprintf(printer,"  HORA   TEMPER.   SEGMENTO \n"); 
11D48:  MOVLW  76
11D4A:  MOVWF  FF6
11D4C:  MOVLW  17
11D4E:  MOVWF  FF7
11D50:  MOVLW  00
11D52:  MOVWF  FF8
11D54:  CALL   3C0C
11D58:  MOVLB  5
....................             } 
....................          } 
....................          else{ 
11D5A:  GOTO   11E26
....................             glcd_fillscreen(OFF); 
11D5E:  MOVLB  7
11D60:  CLRF   xBC
11D62:  MOVLB  0
11D64:  CALL   18CE
....................             strcpy(Menus.Letra," !Programa"); 
11D68:  MOVLW  07
11D6A:  MOVWF  FEA
11D6C:  MOVLW  9B
11D6E:  MOVWF  FE9
11D70:  MOVFF  FF2,7BB
11D74:  BCF    FF2.7
11D76:  MOVLW  00
11D78:  CALL   0DD0
11D7C:  TBLRD*-
11D7E:  TBLRD*+
11D80:  MOVF   FF5,W
11D82:  MOVWF  FEE
11D84:  IORLW  00
11D86:  BTFSS  FD8.2
11D88:  GOTO   11D7E
11D8C:  MOVLB  7
11D8E:  BTFSC  xBB.7
11D90:  BSF    FF2.7
....................             displayMenu(Menus.Letra,0,0,0,2); 
11D92:  MOVLW  07
11D94:  MOVWF  xBF
11D96:  MOVLW  9B
11D98:  MOVWF  xBE
11D9A:  CLRF   xC0
11D9C:  CLRF   xC1
11D9E:  CLRF   xC2
11DA0:  MOVLW  02
11DA2:  MOVWF  xC3
11DA4:  MOVLB  0
11DA6:  CALL   1EFC
....................             strcpy(Menus.Letra,"    Vacio!"); 
11DAA:  MOVLW  07
11DAC:  MOVWF  FEA
11DAE:  MOVLW  9B
11DB0:  MOVWF  FE9
11DB2:  MOVFF  FF2,7BB
11DB6:  BCF    FF2.7
11DB8:  MOVLW  00
11DBA:  CALL   0DFA
11DBE:  TBLRD*-
11DC0:  TBLRD*+
11DC2:  MOVF   FF5,W
11DC4:  MOVWF  FEE
11DC6:  IORLW  00
11DC8:  BTFSS  FD8.2
11DCA:  GOTO   11DC0
11DCE:  MOVLB  7
11DD0:  BTFSC  xBB.7
11DD2:  BSF    FF2.7
....................             displayMenu(Menus.Letra,0,20,0,2); 
11DD4:  MOVLW  07
11DD6:  MOVWF  xBF
11DD8:  MOVLW  9B
11DDA:  MOVWF  xBE
11DDC:  CLRF   xC0
11DDE:  MOVLW  14
11DE0:  MOVWF  xC1
11DE2:  CLRF   xC2
11DE4:  MOVLW  02
11DE6:  MOVWF  xC3
11DE8:  MOVLB  0
11DEA:  CALL   1EFC
....................             Opcion=1;Buzz_off;delay_ms(2000);Menu=1;glcd_fillscreen(OFF);Opcion=1;visual=1; 
11DEE:  MOVLW  01
11DF0:  MOVLB  5
11DF2:  MOVWF  x79
11DF4:  BCF    F8B.4
11DF6:  BCF    F94.4
11DF8:  MOVLW  08
11DFA:  MOVLB  7
11DFC:  MOVWF  xBB
11DFE:  MOVLW  FA
11E00:  MOVWF  xC1
11E02:  MOVLB  0
11E04:  CALL   184E
11E08:  MOVLB  7
11E0A:  DECFSZ xBB,F
11E0C:  BRA    11DFE
11E0E:  MOVLW  01
11E10:  MOVLB  5
11E12:  MOVWF  x72
11E14:  MOVLB  7
11E16:  CLRF   xBC
11E18:  MOVLB  0
11E1A:  CALL   18CE
11E1E:  MOVLW  01
11E20:  MOVLB  5
11E22:  MOVWF  x79
11E24:  BSF    x6D.0
....................          } 
....................       }  
....................                    
....................       if(LEFT)//Si oprime boton de Toma. 
11E26:  BSF    F96.2
11E28:  BTFSC  F84.2
11E2A:  GOTO   11E5E
....................       { 
....................          Buzz_on;Opcion=1;Buzz_off;delay_ms(50);Menu=1;glcd_fillscreen(OFF);Opcion=1;visual=1; 
11E2E:  BSF    F8B.4
11E30:  BCF    F94.4
11E32:  MOVLW  01
11E34:  MOVWF  x79
11E36:  BCF    F8B.4
11E38:  BCF    F94.4
11E3A:  MOVLW  32
11E3C:  MOVLB  7
11E3E:  MOVWF  xC1
11E40:  MOVLB  0
11E42:  CALL   184E
11E46:  MOVLW  01
11E48:  MOVLB  5
11E4A:  MOVWF  x72
11E4C:  MOVLB  7
11E4E:  CLRF   xBC
11E50:  MOVLB  0
11E52:  CALL   18CE
11E56:  MOVLW  01
11E58:  MOVLB  5
11E5A:  MOVWF  x79
11E5C:  BSF    x6D.0
....................       }  
....................     } 
.................... //_--------------------------------------------------------------------------------------------------------------------------------------------------------        
....................  
.................... //_-------------------------------------------------------------------------------------------------------------------------------------------------------- 
....................       if(Menu==5){ //Menu Editar Programa 
11E5E:  MOVF   x72,W
11E60:  SUBLW  05
11E62:  BTFSS  FD8.2
11E64:  GOTO   12288
....................        
....................          if(Opcion>5) 
11E68:  MOVF   x79,W
11E6A:  SUBLW  05
11E6C:  BTFSC  FD8.0
11E6E:  GOTO   11E76
....................          {Opcion=1;} 
11E72:  MOVLW  01
11E74:  MOVWF  x79
....................          if(Opcion<1) 
11E76:  MOVF   x79,F
11E78:  BTFSS  FD8.2
11E7A:  GOTO   11E82
....................          {Opcion=5;} 
11E7E:  MOVLW  05
11E80:  MOVWF  x79
....................           
....................          strcpy(Menus.Letra,"Editar"); 
11E82:  MOVLW  07
11E84:  MOVWF  FEA
11E86:  MOVLW  9B
11E88:  MOVWF  FE9
11E8A:  MOVFF  FF2,7BB
11E8E:  BCF    FF2.7
11E90:  MOVLW  00
11E92:  MOVLB  0
11E94:  CALL   0E24
11E98:  TBLRD*-
11E9A:  TBLRD*+
11E9C:  MOVF   FF5,W
11E9E:  MOVWF  FEE
11EA0:  IORLW  00
11EA2:  BTFSS  FD8.2
11EA4:  GOTO   11E9A
11EA8:  MOVLB  7
11EAA:  BTFSC  xBB.7
11EAC:  BSF    FF2.7
....................          displayMenu(Menus.Letra,30,0,1,2); 
11EAE:  MOVLW  07
11EB0:  MOVWF  xBF
11EB2:  MOVLW  9B
11EB4:  MOVWF  xBE
11EB6:  MOVLW  1E
11EB8:  MOVWF  xC0
11EBA:  CLRF   xC1
11EBC:  MOVLW  01
11EBE:  MOVWF  xC2
11EC0:  MOVLW  02
11EC2:  MOVWF  xC3
11EC4:  MOVLB  0
11EC6:  CALL   1EFC
....................        
....................          if(Opcion==1)    
11ECA:  MOVLB  5
11ECC:  DECFSZ x79,W
11ECE:  GOTO   11F1E
....................             {strcpy(Menus.Letra,"Programa 01"); 
11ED2:  MOVLW  07
11ED4:  MOVWF  FEA
11ED6:  MOVLW  9B
11ED8:  MOVWF  FE9
11EDA:  MOVFF  FF2,7BB
11EDE:  BCF    FF2.7
11EE0:  MOVLW  00
11EE2:  MOVLB  0
11EE4:  CALL   0CD4
11EE8:  TBLRD*-
11EEA:  TBLRD*+
11EEC:  MOVF   FF5,W
11EEE:  MOVWF  FEE
11EF0:  IORLW  00
11EF2:  BTFSS  FD8.2
11EF4:  GOTO   11EEA
11EF8:  MOVLB  7
11EFA:  BTFSC  xBB.7
11EFC:  BSF    FF2.7
....................             displayMenu(Menus.Letra,0,18,1,1);} 
11EFE:  MOVLW  07
11F00:  MOVWF  xBF
11F02:  MOVLW  9B
11F04:  MOVWF  xBE
11F06:  CLRF   xC0
11F08:  MOVLW  12
11F0A:  MOVWF  xC1
11F0C:  MOVLW  01
11F0E:  MOVWF  xC2
11F10:  MOVWF  xC3
11F12:  MOVLB  0
11F14:  CALL   1EFC
....................          else 
11F18:  GOTO   11F64
11F1C:  MOVLB  5
....................             {strcpy(Menus.Letra,"Programa 01"); 
11F1E:  MOVLW  07
11F20:  MOVWF  FEA
11F22:  MOVLW  9B
11F24:  MOVWF  FE9
11F26:  MOVFF  FF2,7BB
11F2A:  BCF    FF2.7
11F2C:  MOVLW  00
11F2E:  MOVLB  0
11F30:  CALL   0CD4
11F34:  TBLRD*-
11F36:  TBLRD*+
11F38:  MOVF   FF5,W
11F3A:  MOVWF  FEE
11F3C:  IORLW  00
11F3E:  BTFSS  FD8.2
11F40:  GOTO   11F36
11F44:  MOVLB  7
11F46:  BTFSC  xBB.7
11F48:  BSF    FF2.7
....................             displayMenu(Menus.Letra,0,18,0,1);} 
11F4A:  MOVLW  07
11F4C:  MOVWF  xBF
11F4E:  MOVLW  9B
11F50:  MOVWF  xBE
11F52:  CLRF   xC0
11F54:  MOVLW  12
11F56:  MOVWF  xC1
11F58:  CLRF   xC2
11F5A:  MOVLW  01
11F5C:  MOVWF  xC3
11F5E:  MOVLB  0
11F60:  CALL   1EFC
....................           
....................          if(Opcion==2)    
11F64:  MOVLB  5
11F66:  MOVF   x79,W
11F68:  SUBLW  02
11F6A:  BTFSS  FD8.2
11F6C:  GOTO   11FBC
....................             {strcpy(Menus.Letra,"Programa 02"); 
11F70:  MOVLW  07
11F72:  MOVWF  FEA
11F74:  MOVLW  9B
11F76:  MOVWF  FE9
11F78:  MOVFF  FF2,7BB
11F7C:  BCF    FF2.7
11F7E:  MOVLW  00
11F80:  MOVLB  0
11F82:  CALL   0CFE
11F86:  TBLRD*-
11F88:  TBLRD*+
11F8A:  MOVF   FF5,W
11F8C:  MOVWF  FEE
11F8E:  IORLW  00
11F90:  BTFSS  FD8.2
11F92:  GOTO   11F88
11F96:  MOVLB  7
11F98:  BTFSC  xBB.7
11F9A:  BSF    FF2.7
....................             displayMenu(Menus.Letra,0,27,1,1);} 
11F9C:  MOVLW  07
11F9E:  MOVWF  xBF
11FA0:  MOVLW  9B
11FA2:  MOVWF  xBE
11FA4:  CLRF   xC0
11FA6:  MOVLW  1B
11FA8:  MOVWF  xC1
11FAA:  MOVLW  01
11FAC:  MOVWF  xC2
11FAE:  MOVWF  xC3
11FB0:  MOVLB  0
11FB2:  CALL   1EFC
....................          else 
11FB6:  GOTO   12002
11FBA:  MOVLB  5
....................             {strcpy(Menus.Letra,"Programa 02"); 
11FBC:  MOVLW  07
11FBE:  MOVWF  FEA
11FC0:  MOVLW  9B
11FC2:  MOVWF  FE9
11FC4:  MOVFF  FF2,7BB
11FC8:  BCF    FF2.7
11FCA:  MOVLW  00
11FCC:  MOVLB  0
11FCE:  CALL   0CFE
11FD2:  TBLRD*-
11FD4:  TBLRD*+
11FD6:  MOVF   FF5,W
11FD8:  MOVWF  FEE
11FDA:  IORLW  00
11FDC:  BTFSS  FD8.2
11FDE:  GOTO   11FD4
11FE2:  MOVLB  7
11FE4:  BTFSC  xBB.7
11FE6:  BSF    FF2.7
....................             displayMenu(Menus.Letra,0,27,0,1);} 
11FE8:  MOVLW  07
11FEA:  MOVWF  xBF
11FEC:  MOVLW  9B
11FEE:  MOVWF  xBE
11FF0:  CLRF   xC0
11FF2:  MOVLW  1B
11FF4:  MOVWF  xC1
11FF6:  CLRF   xC2
11FF8:  MOVLW  01
11FFA:  MOVWF  xC3
11FFC:  MOVLB  0
11FFE:  CALL   1EFC
....................              
....................          if(Opcion==3)    
12002:  MOVLB  5
12004:  MOVF   x79,W
12006:  SUBLW  03
12008:  BTFSS  FD8.2
1200A:  GOTO   1205A
....................             {strcpy(Menus.Letra,"Programa 03"); 
1200E:  MOVLW  07
12010:  MOVWF  FEA
12012:  MOVLW  9B
12014:  MOVWF  FE9
12016:  MOVFF  FF2,7BB
1201A:  BCF    FF2.7
1201C:  MOVLW  00
1201E:  MOVLB  0
12020:  CALL   0D28
12024:  TBLRD*-
12026:  TBLRD*+
12028:  MOVF   FF5,W
1202A:  MOVWF  FEE
1202C:  IORLW  00
1202E:  BTFSS  FD8.2
12030:  GOTO   12026
12034:  MOVLB  7
12036:  BTFSC  xBB.7
12038:  BSF    FF2.7
....................             displayMenu(Menus.Letra,0,36,1,1);} 
1203A:  MOVLW  07
1203C:  MOVWF  xBF
1203E:  MOVLW  9B
12040:  MOVWF  xBE
12042:  CLRF   xC0
12044:  MOVLW  24
12046:  MOVWF  xC1
12048:  MOVLW  01
1204A:  MOVWF  xC2
1204C:  MOVWF  xC3
1204E:  MOVLB  0
12050:  CALL   1EFC
....................          else 
12054:  GOTO   120A0
12058:  MOVLB  5
....................             {strcpy(Menus.Letra,"Programa 03"); 
1205A:  MOVLW  07
1205C:  MOVWF  FEA
1205E:  MOVLW  9B
12060:  MOVWF  FE9
12062:  MOVFF  FF2,7BB
12066:  BCF    FF2.7
12068:  MOVLW  00
1206A:  MOVLB  0
1206C:  CALL   0D28
12070:  TBLRD*-
12072:  TBLRD*+
12074:  MOVF   FF5,W
12076:  MOVWF  FEE
12078:  IORLW  00
1207A:  BTFSS  FD8.2
1207C:  GOTO   12072
12080:  MOVLB  7
12082:  BTFSC  xBB.7
12084:  BSF    FF2.7
....................             displayMenu(Menus.Letra,0,36,0,1);}    
12086:  MOVLW  07
12088:  MOVWF  xBF
1208A:  MOVLW  9B
1208C:  MOVWF  xBE
1208E:  CLRF   xC0
12090:  MOVLW  24
12092:  MOVWF  xC1
12094:  CLRF   xC2
12096:  MOVLW  01
12098:  MOVWF  xC3
1209A:  MOVLB  0
1209C:  CALL   1EFC
....................                          
....................          if(Opcion==4)    
120A0:  MOVLB  5
120A2:  MOVF   x79,W
120A4:  SUBLW  04
120A6:  BTFSS  FD8.2
120A8:  GOTO   120F8
....................             {strcpy(Menus.Letra,"Programa 04"); 
120AC:  MOVLW  07
120AE:  MOVWF  FEA
120B0:  MOVLW  9B
120B2:  MOVWF  FE9
120B4:  MOVFF  FF2,7BB
120B8:  BCF    FF2.7
120BA:  MOVLW  00
120BC:  MOVLB  0
120BE:  CALL   0D52
120C2:  TBLRD*-
120C4:  TBLRD*+
120C6:  MOVF   FF5,W
120C8:  MOVWF  FEE
120CA:  IORLW  00
120CC:  BTFSS  FD8.2
120CE:  GOTO   120C4
120D2:  MOVLB  7
120D4:  BTFSC  xBB.7
120D6:  BSF    FF2.7
....................             displayMenu(Menus.Letra,0,45,1,1);} 
120D8:  MOVLW  07
120DA:  MOVWF  xBF
120DC:  MOVLW  9B
120DE:  MOVWF  xBE
120E0:  CLRF   xC0
120E2:  MOVLW  2D
120E4:  MOVWF  xC1
120E6:  MOVLW  01
120E8:  MOVWF  xC2
120EA:  MOVWF  xC3
120EC:  MOVLB  0
120EE:  CALL   1EFC
....................          else 
120F2:  GOTO   1213E
120F6:  MOVLB  5
....................             {strcpy(Menus.Letra,"Programa 04"); 
120F8:  MOVLW  07
120FA:  MOVWF  FEA
120FC:  MOVLW  9B
120FE:  MOVWF  FE9
12100:  MOVFF  FF2,7BB
12104:  BCF    FF2.7
12106:  MOVLW  00
12108:  MOVLB  0
1210A:  CALL   0D52
1210E:  TBLRD*-
12110:  TBLRD*+
12112:  MOVF   FF5,W
12114:  MOVWF  FEE
12116:  IORLW  00
12118:  BTFSS  FD8.2
1211A:  GOTO   12110
1211E:  MOVLB  7
12120:  BTFSC  xBB.7
12122:  BSF    FF2.7
....................             displayMenu(Menus.Letra,0,45,0,1);}      
12124:  MOVLW  07
12126:  MOVWF  xBF
12128:  MOVLW  9B
1212A:  MOVWF  xBE
1212C:  CLRF   xC0
1212E:  MOVLW  2D
12130:  MOVWF  xC1
12132:  CLRF   xC2
12134:  MOVLW  01
12136:  MOVWF  xC3
12138:  MOVLB  0
1213A:  CALL   1EFC
....................           
....................          if(Opcion==5)    
1213E:  MOVLB  5
12140:  MOVF   x79,W
12142:  SUBLW  05
12144:  BTFSS  FD8.2
12146:  GOTO   12196
....................             {strcpy(Menus.Letra,"Programa 05"); 
1214A:  MOVLW  07
1214C:  MOVWF  FEA
1214E:  MOVLW  9B
12150:  MOVWF  FE9
12152:  MOVFF  FF2,7BB
12156:  BCF    FF2.7
12158:  MOVLW  00
1215A:  MOVLB  0
1215C:  CALL   0D7C
12160:  TBLRD*-
12162:  TBLRD*+
12164:  MOVF   FF5,W
12166:  MOVWF  FEE
12168:  IORLW  00
1216A:  BTFSS  FD8.2
1216C:  GOTO   12162
12170:  MOVLB  7
12172:  BTFSC  xBB.7
12174:  BSF    FF2.7
....................             displayMenu(Menus.Letra,0,54,1,1);} 
12176:  MOVLW  07
12178:  MOVWF  xBF
1217A:  MOVLW  9B
1217C:  MOVWF  xBE
1217E:  CLRF   xC0
12180:  MOVLW  36
12182:  MOVWF  xC1
12184:  MOVLW  01
12186:  MOVWF  xC2
12188:  MOVWF  xC3
1218A:  MOVLB  0
1218C:  CALL   1EFC
....................          else 
12190:  GOTO   121DC
12194:  MOVLB  5
....................             {strcpy(Menus.Letra,"Programa 05"); 
12196:  MOVLW  07
12198:  MOVWF  FEA
1219A:  MOVLW  9B
1219C:  MOVWF  FE9
1219E:  MOVFF  FF2,7BB
121A2:  BCF    FF2.7
121A4:  MOVLW  00
121A6:  MOVLB  0
121A8:  CALL   0D7C
121AC:  TBLRD*-
121AE:  TBLRD*+
121B0:  MOVF   FF5,W
121B2:  MOVWF  FEE
121B4:  IORLW  00
121B6:  BTFSS  FD8.2
121B8:  GOTO   121AE
121BC:  MOVLB  7
121BE:  BTFSC  xBB.7
121C0:  BSF    FF2.7
....................             displayMenu(Menus.Letra,0,54,0,1);}      
121C2:  MOVLW  07
121C4:  MOVWF  xBF
121C6:  MOVLW  9B
121C8:  MOVWF  xBE
121CA:  CLRF   xC0
121CC:  MOVLW  36
121CE:  MOVWF  xC1
121D0:  CLRF   xC2
121D2:  MOVLW  01
121D4:  MOVWF  xC3
121D6:  MOVLB  0
121D8:  CALL   1EFC
....................           
....................          if(UP)//Si oprime hacia arriba 
121DC:  BSF    F92.5
121DE:  BTFSC  F80.5
121E0:  GOTO   121FE
....................          { 
....................             Buzz_on;delay_ms(30);Opcion--;Buzz_off; 
121E4:  BSF    F8B.4
121E6:  BCF    F94.4
121E8:  MOVLW  1E
121EA:  MOVLB  7
121EC:  MOVWF  xC1
121EE:  MOVLB  0
121F0:  CALL   184E
121F4:  MOVLB  5
121F6:  DECF   x79,F
121F8:  BCF    F8B.4
121FA:  BCF    F94.4
121FC:  MOVLB  0
....................          } 
....................                    
....................          if(DOWN)//Si oprime hacia abajo 
121FE:  BSF    F96.0
12200:  BTFSC  F84.0
12202:  GOTO   12220
....................          { 
....................             Buzz_on;delay_ms(30);Opcion++; Buzz_off; 
12206:  BSF    F8B.4
12208:  BCF    F94.4
1220A:  MOVLW  1E
1220C:  MOVLB  7
1220E:  MOVWF  xC1
12210:  MOVLB  0
12212:  CALL   184E
12216:  MOVLB  5
12218:  INCF   x79,F
1221A:  BCF    F8B.4
1221C:  BCF    F94.4
1221E:  MOVLB  0
....................          } 
....................                 
....................          if(RIGHT)//Si oprime SET 
12220:  BSF    F96.1
12222:  BTFSC  F84.1
12224:  GOTO   12258
....................          {  
....................             Buzz_on;delay_ms(50);Menu=Opcion+30;Opcion=1;glcd_fillscreen(OFF);Buzz_off;i=0; 
12228:  BSF    F8B.4
1222A:  BCF    F94.4
1222C:  MOVLW  32
1222E:  MOVLB  7
12230:  MOVWF  xC1
12232:  MOVLB  0
12234:  CALL   184E
12238:  MOVLW  1E
1223A:  MOVLB  5
1223C:  ADDWF  x79,W
1223E:  MOVWF  x72
12240:  MOVLW  01
12242:  MOVWF  x79
12244:  MOVLB  7
12246:  CLRF   xBC
12248:  MOVLB  0
1224A:  CALL   18CE
1224E:  BCF    F8B.4
12250:  BCF    F94.4
12252:  MOVLB  5
12254:  CLRF   x74
12256:  MOVLB  0
....................          } 
....................           
....................          if(LEFT){ 
12258:  BSF    F96.2
1225A:  BTFSC  F84.2
1225C:  GOTO   12286
....................             Buzz_on;delay_ms(50);Menu=1;Opcion=1;glcd_fillscreen(OFF);Buzz_off; 
12260:  BSF    F8B.4
12262:  BCF    F94.4
12264:  MOVLW  32
12266:  MOVLB  7
12268:  MOVWF  xC1
1226A:  MOVLB  0
1226C:  CALL   184E
12270:  MOVLW  01
12272:  MOVLB  5
12274:  MOVWF  x72
12276:  MOVWF  x79
12278:  MOVLB  7
1227A:  CLRF   xBC
1227C:  MOVLB  0
1227E:  CALL   18CE
12282:  BCF    F8B.4
12284:  BCF    F94.4
12286:  MOVLB  5
....................          } 
....................    } 
.................... //_--------------------------------------------------------------------------------------------------------------------------------------------------------        
....................  
.................... //_-------------------------------------------------------------------------------------------------------------------------------------------------------- 
....................       if(Menu==6){ //Menu de Borrar Programa 
12288:  MOVF   x72,W
1228A:  SUBLW  06
1228C:  BTFSS  FD8.2
1228E:  GOTO   1284E
....................        
....................       if(Opcion>5) 
12292:  MOVF   x79,W
12294:  SUBLW  05
12296:  BTFSC  FD8.0
12298:  GOTO   122A0
....................          Opcion=1; 
1229C:  MOVLW  01
1229E:  MOVWF  x79
....................           
....................       if(Opcion<1) 
122A0:  MOVF   x79,F
122A2:  BTFSS  FD8.2
122A4:  GOTO   122AC
....................          Opcion=5; 
122A8:  MOVLW  05
122AA:  MOVWF  x79
....................        
....................          strcpy(Menus.Letra,"  Elimine"); 
122AC:  MOVLW  07
122AE:  MOVWF  FEA
122B0:  MOVLW  9B
122B2:  MOVWF  FE9
122B4:  MOVFF  FF2,7BB
122B8:  BCF    FF2.7
122BA:  MOVLW  00
122BC:  MOVLB  0
122BE:  CALL   0E4A
122C2:  TBLRD*-
122C4:  TBLRD*+
122C6:  MOVF   FF5,W
122C8:  MOVWF  FEE
122CA:  IORLW  00
122CC:  BTFSS  FD8.2
122CE:  GOTO   122C4
122D2:  MOVLB  7
122D4:  BTFSC  xBB.7
122D6:  BSF    FF2.7
....................          displayMenu(Menus.Letra,0,0,1,2); 
122D8:  MOVLW  07
122DA:  MOVWF  xBF
122DC:  MOVLW  9B
122DE:  MOVWF  xBE
122E0:  CLRF   xC0
122E2:  CLRF   xC1
122E4:  MOVLW  01
122E6:  MOVWF  xC2
122E8:  MOVLW  02
122EA:  MOVWF  xC3
122EC:  MOVLB  0
122EE:  CALL   1EFC
....................           
....................          strcpy(Menus.Letra," Programa"); 
122F2:  MOVLW  07
122F4:  MOVWF  FEA
122F6:  MOVLW  9B
122F8:  MOVWF  FE9
122FA:  MOVFF  FF2,7BB
122FE:  BCF    FF2.7
12300:  MOVLW  00
12302:  CALL   0CAC
12306:  TBLRD*-
12308:  TBLRD*+
1230A:  MOVF   FF5,W
1230C:  MOVWF  FEE
1230E:  IORLW  00
12310:  BTFSS  FD8.2
12312:  GOTO   12308
12316:  MOVLB  7
12318:  BTFSC  xBB.7
1231A:  BSF    FF2.7
....................          displayMenu(Menus.Letra,0,16,1,2); 
1231C:  MOVLW  07
1231E:  MOVWF  xBF
12320:  MOVLW  9B
12322:  MOVWF  xBE
12324:  CLRF   xC0
12326:  MOVLW  10
12328:  MOVWF  xC1
1232A:  MOVLW  01
1232C:  MOVWF  xC2
1232E:  MOVLW  02
12330:  MOVWF  xC3
12332:  MOVLB  0
12334:  CALL   1EFC
....................            
....................           
....................          if(Opcion==1) 
12338:  MOVLB  5
1233A:  DECFSZ x79,W
1233C:  GOTO   12388
....................          { 
....................             strcpy(Menus.Letra,"Programa 01"); 
12340:  MOVLW  07
12342:  MOVWF  FEA
12344:  MOVLW  9B
12346:  MOVWF  FE9
12348:  MOVFF  FF2,7BB
1234C:  BCF    FF2.7
1234E:  MOVLW  00
12350:  MOVLB  0
12352:  CALL   0CD4
12356:  TBLRD*-
12358:  TBLRD*+
1235A:  MOVF   FF5,W
1235C:  MOVWF  FEE
1235E:  IORLW  00
12360:  BTFSS  FD8.2
12362:  GOTO   12358
12366:  MOVLB  7
12368:  BTFSC  xBB.7
1236A:  BSF    FF2.7
....................             displayMenu(Menus.Letra,0,38,0,2); 
1236C:  MOVLW  07
1236E:  MOVWF  xBF
12370:  MOVLW  9B
12372:  MOVWF  xBE
12374:  CLRF   xC0
12376:  MOVLW  26
12378:  MOVWF  xC1
1237A:  CLRF   xC2
1237C:  MOVLW  02
1237E:  MOVWF  xC3
12380:  MOVLB  0
12382:  CALL   1EFC
12386:  MOVLB  5
....................          } 
....................           
....................          if(Opcion==2) 
12388:  MOVF   x79,W
1238A:  SUBLW  02
1238C:  BTFSS  FD8.2
1238E:  GOTO   123DA
....................          { 
....................             strcpy(Menus.Letra,"Programa 02"); 
12392:  MOVLW  07
12394:  MOVWF  FEA
12396:  MOVLW  9B
12398:  MOVWF  FE9
1239A:  MOVFF  FF2,7BB
1239E:  BCF    FF2.7
123A0:  MOVLW  00
123A2:  MOVLB  0
123A4:  CALL   0CFE
123A8:  TBLRD*-
123AA:  TBLRD*+
123AC:  MOVF   FF5,W
123AE:  MOVWF  FEE
123B0:  IORLW  00
123B2:  BTFSS  FD8.2
123B4:  GOTO   123AA
123B8:  MOVLB  7
123BA:  BTFSC  xBB.7
123BC:  BSF    FF2.7
....................             displayMenu(Menus.Letra,0,38,0,2); 
123BE:  MOVLW  07
123C0:  MOVWF  xBF
123C2:  MOVLW  9B
123C4:  MOVWF  xBE
123C6:  CLRF   xC0
123C8:  MOVLW  26
123CA:  MOVWF  xC1
123CC:  CLRF   xC2
123CE:  MOVLW  02
123D0:  MOVWF  xC3
123D2:  MOVLB  0
123D4:  CALL   1EFC
123D8:  MOVLB  5
....................          } 
....................           
....................          if(Opcion==3) 
123DA:  MOVF   x79,W
123DC:  SUBLW  03
123DE:  BTFSS  FD8.2
123E0:  GOTO   1242C
....................          { 
....................             strcpy(Menus.Letra,"Programa 03"); 
123E4:  MOVLW  07
123E6:  MOVWF  FEA
123E8:  MOVLW  9B
123EA:  MOVWF  FE9
123EC:  MOVFF  FF2,7BB
123F0:  BCF    FF2.7
123F2:  MOVLW  00
123F4:  MOVLB  0
123F6:  CALL   0D28
123FA:  TBLRD*-
123FC:  TBLRD*+
123FE:  MOVF   FF5,W
12400:  MOVWF  FEE
12402:  IORLW  00
12404:  BTFSS  FD8.2
12406:  GOTO   123FC
1240A:  MOVLB  7
1240C:  BTFSC  xBB.7
1240E:  BSF    FF2.7
....................             displayMenu(Menus.Letra,0,38,0,2); 
12410:  MOVLW  07
12412:  MOVWF  xBF
12414:  MOVLW  9B
12416:  MOVWF  xBE
12418:  CLRF   xC0
1241A:  MOVLW  26
1241C:  MOVWF  xC1
1241E:  CLRF   xC2
12420:  MOVLW  02
12422:  MOVWF  xC3
12424:  MOVLB  0
12426:  CALL   1EFC
1242A:  MOVLB  5
....................          } 
....................           
....................          if(Opcion==4) 
1242C:  MOVF   x79,W
1242E:  SUBLW  04
12430:  BTFSS  FD8.2
12432:  GOTO   1247E
....................          { 
....................             strcpy(Menus.Letra,"Programa 04"); 
12436:  MOVLW  07
12438:  MOVWF  FEA
1243A:  MOVLW  9B
1243C:  MOVWF  FE9
1243E:  MOVFF  FF2,7BB
12442:  BCF    FF2.7
12444:  MOVLW  00
12446:  MOVLB  0
12448:  CALL   0D52
1244C:  TBLRD*-
1244E:  TBLRD*+
12450:  MOVF   FF5,W
12452:  MOVWF  FEE
12454:  IORLW  00
12456:  BTFSS  FD8.2
12458:  GOTO   1244E
1245C:  MOVLB  7
1245E:  BTFSC  xBB.7
12460:  BSF    FF2.7
....................             displayMenu(Menus.Letra,0,38,0,2); 
12462:  MOVLW  07
12464:  MOVWF  xBF
12466:  MOVLW  9B
12468:  MOVWF  xBE
1246A:  CLRF   xC0
1246C:  MOVLW  26
1246E:  MOVWF  xC1
12470:  CLRF   xC2
12472:  MOVLW  02
12474:  MOVWF  xC3
12476:  MOVLB  0
12478:  CALL   1EFC
1247C:  MOVLB  5
....................          } 
....................           
....................          if(Opcion==5) 
1247E:  MOVF   x79,W
12480:  SUBLW  05
12482:  BTFSS  FD8.2
12484:  GOTO   124D0
....................          { 
....................             strcpy(Menus.Letra,"Programa 05"); 
12488:  MOVLW  07
1248A:  MOVWF  FEA
1248C:  MOVLW  9B
1248E:  MOVWF  FE9
12490:  MOVFF  FF2,7BB
12494:  BCF    FF2.7
12496:  MOVLW  00
12498:  MOVLB  0
1249A:  CALL   0D7C
1249E:  TBLRD*-
124A0:  TBLRD*+
124A2:  MOVF   FF5,W
124A4:  MOVWF  FEE
124A6:  IORLW  00
124A8:  BTFSS  FD8.2
124AA:  GOTO   124A0
124AE:  MOVLB  7
124B0:  BTFSC  xBB.7
124B2:  BSF    FF2.7
....................             displayMenu(Menus.Letra,0,38,0,2); 
124B4:  MOVLW  07
124B6:  MOVWF  xBF
124B8:  MOVLW  9B
124BA:  MOVWF  xBE
124BC:  CLRF   xC0
124BE:  MOVLW  26
124C0:  MOVWF  xC1
124C2:  CLRF   xC2
124C4:  MOVLW  02
124C6:  MOVWF  xC3
124C8:  MOVLB  0
124CA:  CALL   1EFC
124CE:  MOVLB  5
....................          } 
....................           
....................          
....................       if(UP)//Si oprime hacia arriba 
124D0:  BSF    F92.5
124D2:  BTFSC  F80.5
124D4:  GOTO   12510
....................       { 
....................          Buzz_on;delay_ms(30);Opcion++;Buzz_off; 
124D8:  BSF    F8B.4
124DA:  BCF    F94.4
124DC:  MOVLW  1E
124DE:  MOVLB  7
124E0:  MOVWF  xC1
124E2:  MOVLB  0
124E4:  CALL   184E
124E8:  MOVLB  5
124EA:  INCF   x79,F
124EC:  BCF    F8B.4
124EE:  BCF    F94.4
....................          glcd_rect(40, 35, 85, 60, YES, OFF); 
124F0:  MOVLW  28
124F2:  MOVLB  7
124F4:  MOVWF  xD3
124F6:  MOVLW  23
124F8:  MOVWF  xD4
124FA:  MOVLW  55
124FC:  MOVWF  xD5
124FE:  MOVLW  3C
12500:  MOVWF  xD6
12502:  MOVLW  01
12504:  MOVWF  xD7
12506:  CLRF   xD8
12508:  MOVLB  0
1250A:  CALL   1E3A
1250E:  MOVLB  5
....................       } 
....................              
....................       if(DOWN)//Si oprime hacia abajo 
12510:  BSF    F96.0
12512:  BTFSC  F84.0
12514:  GOTO   12550
....................       {   
....................          Buzz_on;delay_ms(30);Opcion--;Buzz_off; 
12518:  BSF    F8B.4
1251A:  BCF    F94.4
1251C:  MOVLW  1E
1251E:  MOVLB  7
12520:  MOVWF  xC1
12522:  MOVLB  0
12524:  CALL   184E
12528:  MOVLB  5
1252A:  DECF   x79,F
1252C:  BCF    F8B.4
1252E:  BCF    F94.4
....................          glcd_rect(40, 35, 85, 60, YES, OFF); 
12530:  MOVLW  28
12532:  MOVLB  7
12534:  MOVWF  xD3
12536:  MOVLW  23
12538:  MOVWF  xD4
1253A:  MOVLW  55
1253C:  MOVWF  xD5
1253E:  MOVLW  3C
12540:  MOVWF  xD6
12542:  MOVLW  01
12544:  MOVWF  xD7
12546:  CLRF   xD8
12548:  MOVLB  0
1254A:  CALL   1E3A
1254E:  MOVLB  5
....................       } 
....................              
....................       if(RIGHT)//Si oprime SET 
12550:  BSF    F96.1
12552:  BTFSC  F84.1
12554:  GOTO   1280C
....................       {   
....................          Buzz_on; 
12558:  BSF    F8B.4
1255A:  BCF    F94.4
....................          for(i=0;i<10;i++){ 
1255C:  CLRF   x74
1255E:  MOVF   x74,W
12560:  SUBLW  09
12562:  BTFSS  FD8.0
12564:  GOTO   125DA
....................             Temperatura1[i+((Opcion-1)*10)]=0; 
12568:  MOVLW  01
1256A:  SUBWF  x79,W
1256C:  MULLW  0A
1256E:  MOVF   FF3,W
12570:  ADDWF  x74,W
12572:  MOVWF  00
12574:  BCF    FD8.0
12576:  RLCF   00,F
12578:  MOVF   00,W
1257A:  CLRF   03
1257C:  ADDLW  45
1257E:  MOVWF  FE9
12580:  MOVLW  06
12582:  ADDWFC 03,W
12584:  MOVWF  FEA
12586:  CLRF   FEC
12588:  MOVF   FED,F
1258A:  CLRF   FEF
....................             Horas1[i+((Opcion-1)*10)]=0; 
1258C:  MOVLW  01
1258E:  SUBWF  x79,W
12590:  MULLW  0A
12592:  MOVF   FF3,W
12594:  ADDWF  x74,W
12596:  MOVWF  00
12598:  BCF    FD8.0
1259A:  RLCF   00,F
1259C:  MOVF   00,W
1259E:  CLRF   03
125A0:  ADDLW  A9
125A2:  MOVWF  FE9
125A4:  MOVLW  06
125A6:  ADDWFC 03,W
125A8:  MOVWF  FEA
125AA:  CLRF   FEC
125AC:  MOVF   FED,F
125AE:  CLRF   FEF
....................             Minutos1[i+((Opcion-1)*10)]=0; 
125B0:  MOVLW  01
125B2:  SUBWF  x79,W
125B4:  MULLW  0A
125B6:  MOVF   FF3,W
125B8:  ADDWF  x74,W
125BA:  MOVWF  00
125BC:  BCF    FD8.0
125BE:  RLCF   00,F
125C0:  MOVF   00,W
125C2:  CLRF   03
125C4:  ADDLW  0D
125C6:  MOVWF  FE9
125C8:  MOVLW  07
125CA:  ADDWFC 03,W
125CC:  MOVWF  FEA
125CE:  CLRF   FEC
125D0:  MOVF   FED,F
125D2:  CLRF   FEF
....................          } 
125D4:  INCF   x74,F
125D6:  GOTO   1255E
....................           
....................          for(i=0;i<10;i++){ 
125DA:  CLRF   x74
125DC:  MOVF   x74,W
125DE:  SUBLW  09
125E0:  BTFSS  FD8.0
125E2:  GOTO   12720
....................             delay_ms(10);     
125E6:  MOVLW  0A
125E8:  MOVLB  7
125EA:  MOVWF  xC1
125EC:  MOVLB  0
125EE:  CALL   184E
....................             write_eeprom((i*2)+(40*(Opcion-1)),0); 
125F2:  BCF    FD8.0
125F4:  MOVLB  5
125F6:  RLCF   x74,W
125F8:  MOVLB  7
125FA:  MOVWF  xBB
125FC:  MOVLW  01
125FE:  MOVLB  5
12600:  SUBWF  x79,W
12602:  MULLW  28
12604:  MOVF   FF3,W
12606:  MOVLB  7
12608:  ADDWF  xBB,F
1260A:  CLRF   FAA
1260C:  MOVFF  7BB,FA9
12610:  CLRF   FA8
12612:  BCF    FA6.6
12614:  BCF    FA6.7
12616:  BSF    FA6.2
12618:  MOVF   FF2,W
1261A:  MOVWF  00
1261C:  BCF    FF2.7
1261E:  MOVLB  F
12620:  MOVLW  55
12622:  MOVWF  FA7
12624:  MOVLW  AA
12626:  MOVWF  FA7
12628:  BSF    FA6.1
1262A:  BTFSC  FA6.1
1262C:  GOTO   1262A
12630:  BCF    FA6.2
12632:  MOVF   00,W
12634:  IORWF  FF2,F
....................             delay_ms(10);     
12636:  MOVLW  0A
12638:  MOVLB  7
1263A:  MOVWF  xC1
1263C:  MOVLB  0
1263E:  CALL   184E
....................             write_eeprom((i*2)+1+(40*(Opcion-1)),0); 
12642:  BCF    FD8.0
12644:  MOVLB  5
12646:  RLCF   x74,W
12648:  ADDLW  01
1264A:  MOVLB  7
1264C:  MOVWF  xBB
1264E:  MOVLW  01
12650:  MOVLB  5
12652:  SUBWF  x79,W
12654:  MULLW  28
12656:  MOVF   FF3,W
12658:  MOVLB  7
1265A:  ADDWF  xBB,F
1265C:  CLRF   FAA
1265E:  MOVFF  7BB,FA9
12662:  CLRF   FA8
12664:  BCF    FA6.6
12666:  BCF    FA6.7
12668:  BSF    FA6.2
1266A:  MOVF   FF2,W
1266C:  MOVWF  00
1266E:  BCF    FF2.7
12670:  MOVLB  F
12672:  MOVLW  55
12674:  MOVWF  FA7
12676:  MOVLW  AA
12678:  MOVWF  FA7
1267A:  BSF    FA6.1
1267C:  BTFSC  FA6.1
1267E:  GOTO   1267C
12682:  BCF    FA6.2
12684:  MOVF   00,W
12686:  IORWF  FF2,F
....................             delay_ms(10);     
12688:  MOVLW  0A
1268A:  MOVLB  7
1268C:  MOVWF  xC1
1268E:  MOVLB  0
12690:  CALL   184E
....................             write_eeprom(i+((40*Opcion)-20),0); 
12694:  MOVLB  5
12696:  MOVF   x79,W
12698:  MULLW  28
1269A:  MOVF   FF3,W
1269C:  ADDLW  EC
1269E:  ADDWF  x74,W
126A0:  MOVLB  7
126A2:  MOVWF  xBB
126A4:  CLRF   FAA
126A6:  MOVFF  7BB,FA9
126AA:  CLRF   FA8
126AC:  BCF    FA6.6
126AE:  BCF    FA6.7
126B0:  BSF    FA6.2
126B2:  MOVF   FF2,W
126B4:  MOVWF  00
126B6:  BCF    FF2.7
126B8:  MOVLB  F
126BA:  MOVLW  55
126BC:  MOVWF  FA7
126BE:  MOVLW  AA
126C0:  MOVWF  FA7
126C2:  BSF    FA6.1
126C4:  BTFSC  FA6.1
126C6:  GOTO   126C4
126CA:  BCF    FA6.2
126CC:  MOVF   00,W
126CE:  IORWF  FF2,F
....................             delay_ms(10);     
126D0:  MOVLW  0A
126D2:  MOVLB  7
126D4:  MOVWF  xC1
126D6:  MOVLB  0
126D8:  CALL   184E
....................             write_eeprom(i+((40*Opcion)-10),0); 
126DC:  MOVLB  5
126DE:  MOVF   x79,W
126E0:  MULLW  28
126E2:  MOVF   FF3,W
126E4:  ADDLW  F6
126E6:  ADDWF  x74,W
126E8:  MOVLB  7
126EA:  MOVWF  xBB
126EC:  CLRF   FAA
126EE:  MOVFF  7BB,FA9
126F2:  CLRF   FA8
126F4:  BCF    FA6.6
126F6:  BCF    FA6.7
126F8:  BSF    FA6.2
126FA:  MOVF   FF2,W
126FC:  MOVWF  00
126FE:  BCF    FF2.7
12700:  MOVLB  F
12702:  MOVLW  55
12704:  MOVWF  FA7
12706:  MOVLW  AA
12708:  MOVWF  FA7
1270A:  BSF    FA6.1
1270C:  BTFSC  FA6.1
1270E:  GOTO   1270C
12712:  BCF    FA6.2
12714:  MOVF   00,W
12716:  IORWF  FF2,F
....................          }  
12718:  MOVLB  5
1271A:  INCF   x74,F
1271C:  GOTO   125DC
....................           
....................          delay_ms(200);Buzz_off;Menu=1;glcd_fillscreen(OFF);Opcion=1;visual=1; 
12720:  MOVLW  C8
12722:  MOVLB  7
12724:  MOVWF  xC1
12726:  MOVLB  0
12728:  CALL   184E
1272C:  BCF    F8B.4
1272E:  BCF    F94.4
12730:  MOVLW  01
12732:  MOVLB  5
12734:  MOVWF  x72
12736:  MOVLB  7
12738:  CLRF   xBC
1273A:  MOVLB  0
1273C:  CALL   18CE
12740:  MOVLW  01
12742:  MOVLB  5
12744:  MOVWF  x79
12746:  BSF    x6D.0
....................          glcd_fillScreen(OFF); 
12748:  MOVLB  7
1274A:  CLRF   xBC
1274C:  MOVLB  0
1274E:  CALL   18CE
....................          strcpy(Menus.Letra,"Programa"); 
12752:  MOVLW  07
12754:  MOVWF  FEA
12756:  MOVLW  9B
12758:  MOVWF  FE9
1275A:  MOVFF  FF2,7BB
1275E:  BCF    FF2.7
12760:  MOVLW  00
12762:  CALL   0E72
12766:  TBLRD*-
12768:  TBLRD*+
1276A:  MOVF   FF5,W
1276C:  MOVWF  FEE
1276E:  IORLW  00
12770:  BTFSS  FD8.2
12772:  GOTO   12768
12776:  MOVLB  7
12778:  BTFSC  xBB.7
1277A:  BSF    FF2.7
....................          displayMenu(Menus.Letra,30,0,0,2); 
1277C:  MOVLW  07
1277E:  MOVWF  xBF
12780:  MOVLW  9B
12782:  MOVWF  xBE
12784:  MOVLW  1E
12786:  MOVWF  xC0
12788:  CLRF   xC1
1278A:  CLRF   xC2
1278C:  MOVLW  02
1278E:  MOVWF  xC3
12790:  MOVLB  0
12792:  CALL   1EFC
....................          strcpy(Menus.Letra,"Eliminado"); 
12796:  MOVLW  07
12798:  MOVWF  FEA
1279A:  MOVLW  9B
1279C:  MOVWF  FE9
1279E:  MOVFF  FF2,7BB
127A2:  BCF    FF2.7
127A4:  MOVLW  00
127A6:  CALL   0E9A
127AA:  TBLRD*-
127AC:  TBLRD*+
127AE:  MOVF   FF5,W
127B0:  MOVWF  FEE
127B2:  IORLW  00
127B4:  BTFSS  FD8.2
127B6:  GOTO   127AC
127BA:  MOVLB  7
127BC:  BTFSC  xBB.7
127BE:  BSF    FF2.7
....................          displayMenu(Menus.Letra,15,30,0,2); 
127C0:  MOVLW  07
127C2:  MOVWF  xBF
127C4:  MOVLW  9B
127C6:  MOVWF  xBE
127C8:  MOVLW  0F
127CA:  MOVWF  xC0
127CC:  MOVLW  1E
127CE:  MOVWF  xC1
127D0:  CLRF   xC2
127D2:  MOVLW  02
127D4:  MOVWF  xC3
127D6:  MOVLB  0
127D8:  CALL   1EFC
....................          Menu=1;glcd_update();delay_ms(1000); 
127DC:  MOVLW  01
127DE:  MOVLB  5
127E0:  MOVWF  x72
127E2:  MOVLB  0
127E4:  CALL   1928
127E8:  MOVLW  04
127EA:  MOVLB  7
127EC:  MOVWF  xBB
127EE:  MOVLW  FA
127F0:  MOVWF  xC1
127F2:  MOVLB  0
127F4:  CALL   184E
127F8:  MOVLB  7
127FA:  DECFSZ xBB,F
127FC:  BRA    127EE
....................          glcd_fillScreen(OFF);unidad=1; 
127FE:  CLRF   xBC
12800:  MOVLB  0
12802:  CALL   18CE
12806:  MOVLW  01
12808:  MOVLB  5
1280A:  MOVWF  x73
....................       }  
....................                    
....................       if(LEFT)//Si oprime boton de Toma. 
1280C:  BSF    F96.2
1280E:  BTFSC  F84.2
12810:  GOTO   1284E
....................       { 
....................          Buzz_on;Opcion=1;Buzz_off;delay_ms(500);Menu=1;glcd_fillscreen(OFF);Opcion=1;visual=1; 
12814:  BSF    F8B.4
12816:  BCF    F94.4
12818:  MOVLW  01
1281A:  MOVWF  x79
1281C:  BCF    F8B.4
1281E:  BCF    F94.4
12820:  MOVLW  02
12822:  MOVLB  7
12824:  MOVWF  xBB
12826:  MOVLW  FA
12828:  MOVWF  xC1
1282A:  MOVLB  0
1282C:  CALL   184E
12830:  MOVLB  7
12832:  DECFSZ xBB,F
12834:  BRA    12826
12836:  MOVLW  01
12838:  MOVLB  5
1283A:  MOVWF  x72
1283C:  MOVLB  7
1283E:  CLRF   xBC
12840:  MOVLB  0
12842:  CALL   18CE
12846:  MOVLW  01
12848:  MOVLB  5
1284A:  MOVWF  x79
1284C:  BSF    x6D.0
....................       }  
....................     } 
.................... //_--------------------------------------------------------------------------------------------------------------------------------------------------------        
....................  
.................... //_--------------------------------------------------------------------------------------------------------------------------------------------------------       
....................       if(Menu==8){ // Menu de Cambio de Contrasea 
1284E:  MOVF   x72,W
12850:  SUBLW  08
12852:  BTFSS  FD8.2
12854:  GOTO   12D96
....................          
....................       strcpy(Menus.Letra,"Clave"); 
12858:  MOVLW  07
1285A:  MOVWF  FEA
1285C:  MOVLW  9B
1285E:  MOVWF  FE9
12860:  MOVFF  FF2,7BB
12864:  BCF    FF2.7
12866:  MOVLW  00
12868:  MOVLB  0
1286A:  CALL   0A84
1286E:  TBLRD*-
12870:  TBLRD*+
12872:  MOVF   FF5,W
12874:  MOVWF  FEE
12876:  IORLW  00
12878:  BTFSS  FD8.2
1287A:  GOTO   12870
1287E:  MOVLB  7
12880:  BTFSC  xBB.7
12882:  BSF    FF2.7
....................       displayMenu(Menus.Letra,30,0,1,2);      
12884:  MOVLW  07
12886:  MOVWF  xBF
12888:  MOVLW  9B
1288A:  MOVWF  xBE
1288C:  MOVLW  1E
1288E:  MOVWF  xC0
12890:  CLRF   xC1
12892:  MOVLW  01
12894:  MOVWF  xC2
12896:  MOVLW  02
12898:  MOVWF  xC3
1289A:  MOVLB  0
1289C:  CALL   1EFC
....................        
....................       if(unidad==1) 
128A0:  MOVLB  5
128A2:  DECFSZ x73,W
128A4:  GOTO   12908
....................       { 
....................          displayContrasena(Contrasena[0],20,30,1); 
128A8:  MOVFF  5C9,7BD
128AC:  MOVLW  14
128AE:  MOVLB  7
128B0:  MOVWF  xBE
128B2:  MOVLW  1E
128B4:  MOVWF  xBF
128B6:  MOVLW  01
128B8:  MOVWF  xC0
128BA:  MOVLB  0
128BC:  CALL   214E
....................          displayContrasena(Contrasena[1],40,30,0); 
128C0:  MOVFF  5CA,7BD
128C4:  MOVLW  28
128C6:  MOVLB  7
128C8:  MOVWF  xBE
128CA:  MOVLW  1E
128CC:  MOVWF  xBF
128CE:  CLRF   xC0
128D0:  MOVLB  0
128D2:  CALL   214E
....................          displayContrasena(Contrasena[2],60,30,0); 
128D6:  MOVFF  5CB,7BD
128DA:  MOVLW  3C
128DC:  MOVLB  7
128DE:  MOVWF  xBE
128E0:  MOVLW  1E
128E2:  MOVWF  xBF
128E4:  CLRF   xC0
128E6:  MOVLB  0
128E8:  CALL   214E
....................          displayContrasena(Contrasena[3],80,30,0); 
128EC:  MOVFF  5CC,7BD
128F0:  MOVLW  50
128F2:  MOVLB  7
128F4:  MOVWF  xBE
128F6:  MOVLW  1E
128F8:  MOVWF  xBF
128FA:  CLRF   xC0
128FC:  MOVLB  0
128FE:  CALL   214E
....................       } 
....................       else 
12902:  GOTO   12A40
12906:  MOVLB  5
....................       { 
....................          if(unidad==2) 
12908:  MOVF   x73,W
1290A:  SUBLW  02
1290C:  BTFSS  FD8.2
1290E:  GOTO   12972
....................          { 
....................             displayContrasena(Contrasena[0],20,30,0); 
12912:  MOVFF  5C9,7BD
12916:  MOVLW  14
12918:  MOVLB  7
1291A:  MOVWF  xBE
1291C:  MOVLW  1E
1291E:  MOVWF  xBF
12920:  CLRF   xC0
12922:  MOVLB  0
12924:  CALL   214E
....................             displayContrasena(Contrasena[1],40,30,1); 
12928:  MOVFF  5CA,7BD
1292C:  MOVLW  28
1292E:  MOVLB  7
12930:  MOVWF  xBE
12932:  MOVLW  1E
12934:  MOVWF  xBF
12936:  MOVLW  01
12938:  MOVWF  xC0
1293A:  MOVLB  0
1293C:  CALL   214E
....................             displayContrasena(Contrasena[2],60,30,0); 
12940:  MOVFF  5CB,7BD
12944:  MOVLW  3C
12946:  MOVLB  7
12948:  MOVWF  xBE
1294A:  MOVLW  1E
1294C:  MOVWF  xBF
1294E:  CLRF   xC0
12950:  MOVLB  0
12952:  CALL   214E
....................             displayContrasena(Contrasena[3],80,30,0); 
12956:  MOVFF  5CC,7BD
1295A:  MOVLW  50
1295C:  MOVLB  7
1295E:  MOVWF  xBE
12960:  MOVLW  1E
12962:  MOVWF  xBF
12964:  CLRF   xC0
12966:  MOVLB  0
12968:  CALL   214E
....................          } 
....................          else 
1296C:  GOTO   12A40
12970:  MOVLB  5
....................          { 
....................             if(unidad==3) 
12972:  MOVF   x73,W
12974:  SUBLW  03
12976:  BTFSS  FD8.2
12978:  GOTO   129DC
....................             { 
....................                displayContrasena(Contrasena[0],20,30,0); 
1297C:  MOVFF  5C9,7BD
12980:  MOVLW  14
12982:  MOVLB  7
12984:  MOVWF  xBE
12986:  MOVLW  1E
12988:  MOVWF  xBF
1298A:  CLRF   xC0
1298C:  MOVLB  0
1298E:  CALL   214E
....................                displayContrasena(Contrasena[1],40,30,0); 
12992:  MOVFF  5CA,7BD
12996:  MOVLW  28
12998:  MOVLB  7
1299A:  MOVWF  xBE
1299C:  MOVLW  1E
1299E:  MOVWF  xBF
129A0:  CLRF   xC0
129A2:  MOVLB  0
129A4:  CALL   214E
....................                displayContrasena(Contrasena[2],60,30,1); 
129A8:  MOVFF  5CB,7BD
129AC:  MOVLW  3C
129AE:  MOVLB  7
129B0:  MOVWF  xBE
129B2:  MOVLW  1E
129B4:  MOVWF  xBF
129B6:  MOVLW  01
129B8:  MOVWF  xC0
129BA:  MOVLB  0
129BC:  CALL   214E
....................                displayContrasena(Contrasena[3],80,30,0); 
129C0:  MOVFF  5CC,7BD
129C4:  MOVLW  50
129C6:  MOVLB  7
129C8:  MOVWF  xBE
129CA:  MOVLW  1E
129CC:  MOVWF  xBF
129CE:  CLRF   xC0
129D0:  MOVLB  0
129D2:  CALL   214E
....................             } 
....................             else 
129D6:  GOTO   12A40
129DA:  MOVLB  5
....................             { 
....................                if(unidad==4) 
129DC:  MOVF   x73,W
129DE:  SUBLW  04
129E0:  BTFSS  FD8.2
129E2:  GOTO   12A42
....................                { 
....................                   displayContrasena(Contrasena[0],20,30,0); 
129E6:  MOVFF  5C9,7BD
129EA:  MOVLW  14
129EC:  MOVLB  7
129EE:  MOVWF  xBE
129F0:  MOVLW  1E
129F2:  MOVWF  xBF
129F4:  CLRF   xC0
129F6:  MOVLB  0
129F8:  CALL   214E
....................                   displayContrasena(Contrasena[1],40,30,0); 
129FC:  MOVFF  5CA,7BD
12A00:  MOVLW  28
12A02:  MOVLB  7
12A04:  MOVWF  xBE
12A06:  MOVLW  1E
12A08:  MOVWF  xBF
12A0A:  CLRF   xC0
12A0C:  MOVLB  0
12A0E:  CALL   214E
....................                   displayContrasena(Contrasena[2],60,30,0); 
12A12:  MOVFF  5CB,7BD
12A16:  MOVLW  3C
12A18:  MOVLB  7
12A1A:  MOVWF  xBE
12A1C:  MOVLW  1E
12A1E:  MOVWF  xBF
12A20:  CLRF   xC0
12A22:  MOVLB  0
12A24:  CALL   214E
....................                   displayContrasena(Contrasena[3],80,30,1); 
12A28:  MOVFF  5CC,7BD
12A2C:  MOVLW  50
12A2E:  MOVLB  7
12A30:  MOVWF  xBE
12A32:  MOVLW  1E
12A34:  MOVWF  xBF
12A36:  MOVLW  01
12A38:  MOVWF  xC0
12A3A:  MOVLB  0
12A3C:  CALL   214E
12A40:  MOVLB  5
....................                } 
....................             } 
....................          } 
....................       } 
....................        
....................       if(UP)//Si oprime hacia arriba 
12A42:  BSF    F92.5
12A44:  BTFSC  F80.5
12A46:  GOTO   12ACE
....................       { 
....................          Buzz_on;delay_ms(10);Buzz_off; 
12A4A:  BSF    F8B.4
12A4C:  BCF    F94.4
12A4E:  MOVLW  0A
12A50:  MOVLB  7
12A52:  MOVWF  xC1
12A54:  MOVLB  0
12A56:  CALL   184E
12A5A:  BCF    F8B.4
12A5C:  BCF    F94.4
....................          delay_ms(30); 
12A5E:  MOVLW  1E
12A60:  MOVLB  7
12A62:  MOVWF  xC1
12A64:  MOVLB  0
12A66:  CALL   184E
....................          for(i=1;i<=4;i++) 
12A6A:  MOVLW  01
12A6C:  MOVLB  5
12A6E:  MOVWF  x74
12A70:  MOVF   x74,W
12A72:  SUBLW  04
12A74:  BTFSS  FD8.0
12A76:  GOTO   12ACE
....................          { 
....................             if(unidad==i) 
12A7A:  MOVF   x74,W
12A7C:  SUBWF  x73,W
12A7E:  BTFSS  FD8.2
12A80:  GOTO   12AC8
....................             { 
....................                Contrasena[i-1]++; 
12A84:  MOVLW  01
12A86:  SUBWF  x74,W
12A88:  CLRF   03
12A8A:  ADDLW  C9
12A8C:  MOVWF  FE9
12A8E:  MOVLW  05
12A90:  ADDWFC 03,W
12A92:  MOVWF  FEA
12A94:  INCF   FEF,F
....................                if(Contrasena[i-1]>9)    
12A96:  MOVLW  01
12A98:  SUBWF  x74,W
12A9A:  CLRF   03
12A9C:  ADDLW  C9
12A9E:  MOVWF  FE9
12AA0:  MOVLW  05
12AA2:  ADDWFC 03,W
12AA4:  MOVWF  FEA
12AA6:  BTFSC  FEF.7
12AA8:  GOTO   12AC8
12AAC:  MOVF   FEF,W
12AAE:  SUBLW  09
12AB0:  BTFSC  FD8.0
12AB2:  GOTO   12AC8
....................                { 
....................                   Contrasena[i-1]=0; 
12AB6:  MOVLW  01
12AB8:  SUBWF  x74,W
12ABA:  CLRF   03
12ABC:  ADDLW  C9
12ABE:  MOVWF  FE9
12AC0:  MOVLW  05
12AC2:  ADDWFC 03,W
12AC4:  MOVWF  FEA
12AC6:  CLRF   FEF
....................                } 
....................             } 
....................          } 
12AC8:  INCF   x74,F
12ACA:  GOTO   12A70
....................       } 
....................              
....................       if(DOWN)//Si oprime hacia abajo 
12ACE:  BSF    F96.0
12AD0:  BTFSC  F84.0
12AD2:  GOTO   12B56
....................       { 
....................          Buzz_on;delay_ms(10);Buzz_off; 
12AD6:  BSF    F8B.4
12AD8:  BCF    F94.4
12ADA:  MOVLW  0A
12ADC:  MOVLB  7
12ADE:  MOVWF  xC1
12AE0:  MOVLB  0
12AE2:  CALL   184E
12AE6:  BCF    F8B.4
12AE8:  BCF    F94.4
....................          delay_ms(30); 
12AEA:  MOVLW  1E
12AEC:  MOVLB  7
12AEE:  MOVWF  xC1
12AF0:  MOVLB  0
12AF2:  CALL   184E
....................          for(i=1;i<=4;i++) 
12AF6:  MOVLW  01
12AF8:  MOVLB  5
12AFA:  MOVWF  x74
12AFC:  MOVF   x74,W
12AFE:  SUBLW  04
12B00:  BTFSS  FD8.0
12B02:  GOTO   12B56
....................          { 
....................             if(unidad==i) 
12B06:  MOVF   x74,W
12B08:  SUBWF  x73,W
12B0A:  BTFSS  FD8.2
12B0C:  GOTO   12B50
....................             {Contrasena[i-1]--;  
12B10:  MOVLW  01
12B12:  SUBWF  x74,W
12B14:  CLRF   03
12B16:  ADDLW  C9
12B18:  MOVWF  FE9
12B1A:  MOVLW  05
12B1C:  ADDWFC 03,W
12B1E:  MOVWF  FEA
12B20:  DECF   FEF,F
....................             if(Contrasena[i-1]<0) 
12B22:  MOVLW  01
12B24:  SUBWF  x74,W
12B26:  CLRF   03
12B28:  ADDLW  C9
12B2A:  MOVWF  FE9
12B2C:  MOVLW  05
12B2E:  ADDWFC 03,W
12B30:  MOVWF  FEA
12B32:  BTFSC  FEF.7
12B34:  GOTO   12B3C
12B38:  GOTO   12B50
....................             {Contrasena[i-1]=9;} 
12B3C:  MOVLW  01
12B3E:  SUBWF  x74,W
12B40:  CLRF   03
12B42:  ADDLW  C9
12B44:  MOVWF  FE9
12B46:  MOVLW  05
12B48:  ADDWFC 03,W
12B4A:  MOVWF  FEA
12B4C:  MOVLW  09
12B4E:  MOVWF  FEF
....................             } 
....................          }   
12B50:  INCF   x74,F
12B52:  GOTO   12AFC
....................       } 
....................              
....................       if(RIGHT)//Si oprime RIGHT 
12B56:  BSF    F96.1
12B58:  BTFSC  F84.1
12B5A:  GOTO   12B82
....................       { 
....................          Buzz_on;delay_ms(10);Buzz_off;delay_ms(30);unidad++; 
12B5E:  BSF    F8B.4
12B60:  BCF    F94.4
12B62:  MOVLW  0A
12B64:  MOVLB  7
12B66:  MOVWF  xC1
12B68:  MOVLB  0
12B6A:  CALL   184E
12B6E:  BCF    F8B.4
12B70:  BCF    F94.4
12B72:  MOVLW  1E
12B74:  MOVLB  7
12B76:  MOVWF  xC1
12B78:  MOVLB  0
12B7A:  CALL   184E
12B7E:  MOVLB  5
12B80:  INCF   x73,F
....................       } 
....................        
....................       if(LEFT)//Si oprime Izquierda 
12B82:  BSF    F96.2
12B84:  BTFSC  F84.2
12B86:  GOTO   12BC6
....................       { 
....................          Buzz_on;delay_ms(10);Buzz_off;delay_ms(700);Menu=1;glcd_fillscreen(OFF); 
12B8A:  BSF    F8B.4
12B8C:  BCF    F94.4
12B8E:  MOVLW  0A
12B90:  MOVLB  7
12B92:  MOVWF  xC1
12B94:  MOVLB  0
12B96:  CALL   184E
12B9A:  BCF    F8B.4
12B9C:  BCF    F94.4
12B9E:  MOVLW  04
12BA0:  MOVLB  7
12BA2:  MOVWF  xBB
12BA4:  MOVLW  AF
12BA6:  MOVWF  xC1
12BA8:  MOVLB  0
12BAA:  CALL   184E
12BAE:  MOVLB  7
12BB0:  DECFSZ xBB,F
12BB2:  BRA    12BA4
12BB4:  MOVLW  01
12BB6:  MOVLB  5
12BB8:  MOVWF  x72
12BBA:  MOVLB  7
12BBC:  CLRF   xBC
12BBE:  MOVLB  0
12BC0:  CALL   18CE
12BC4:  MOVLB  5
....................       } 
....................        
....................       if(unidad>4) 
12BC6:  MOVF   x73,W
12BC8:  SUBLW  04
12BCA:  BTFSC  FD8.0
12BCC:  GOTO   12D96
....................       {glcd_fillScreen(OFF); 
12BD0:  MOVLB  7
12BD2:  CLRF   xBC
12BD4:  MOVLB  0
12BD6:  CALL   18CE
....................           
....................          if((Contrasena[0]==Password[0])&&(Contrasena[1]==Password[1])&&(Contrasena[2]==Password[2])&&(Contrasena[3]==Password[3])) 
12BDA:  MOVLB  5
12BDC:  MOVF   xCD,W
12BDE:  SUBWF  xC9,W
12BE0:  BTFSS  FD8.2
12BE2:  GOTO   12CCC
12BE6:  MOVF   xCE,W
12BE8:  SUBWF  xCA,W
12BEA:  BTFSS  FD8.2
12BEC:  GOTO   12CCC
12BF0:  MOVF   xCF,W
12BF2:  SUBWF  xCB,W
12BF4:  BTFSS  FD8.2
12BF6:  GOTO   12CCC
12BFA:  MOVF   xD0,W
12BFC:  SUBWF  xCC,W
12BFE:  BTFSS  FD8.2
12C00:  GOTO   12CCC
....................          { 
....................             glcd_fillScreen(OFF); 
12C04:  MOVLB  7
12C06:  CLRF   xBC
12C08:  MOVLB  0
12C0A:  CALL   18CE
....................             strcpy(Menus.Letra,"Clave"); 
12C0E:  MOVLW  07
12C10:  MOVWF  FEA
12C12:  MOVLW  9B
12C14:  MOVWF  FE9
12C16:  MOVFF  FF2,7BB
12C1A:  BCF    FF2.7
12C1C:  MOVLW  00
12C1E:  CALL   0A84
12C22:  TBLRD*-
12C24:  TBLRD*+
12C26:  MOVF   FF5,W
12C28:  MOVWF  FEE
12C2A:  IORLW  00
12C2C:  BTFSS  FD8.2
12C2E:  GOTO   12C24
12C32:  MOVLB  7
12C34:  BTFSC  xBB.7
12C36:  BSF    FF2.7
....................             displayMenu(Menus.Letra,30,0,0,2); 
12C38:  MOVLW  07
12C3A:  MOVWF  xBF
12C3C:  MOVLW  9B
12C3E:  MOVWF  xBE
12C40:  MOVLW  1E
12C42:  MOVWF  xC0
12C44:  CLRF   xC1
12C46:  CLRF   xC2
12C48:  MOVLW  02
12C4A:  MOVWF  xC3
12C4C:  MOVLB  0
12C4E:  CALL   1EFC
....................             strcpy(Menus.Letra,"Correcta"); 
12C52:  MOVLW  07
12C54:  MOVWF  FEA
12C56:  MOVLW  9B
12C58:  MOVWF  FE9
12C5A:  MOVFF  FF2,7BB
12C5E:  BCF    FF2.7
12C60:  MOVLW  00
12C62:  CALL   0AA8
12C66:  TBLRD*-
12C68:  TBLRD*+
12C6A:  MOVF   FF5,W
12C6C:  MOVWF  FEE
12C6E:  IORLW  00
12C70:  BTFSS  FD8.2
12C72:  GOTO   12C68
12C76:  MOVLB  7
12C78:  BTFSC  xBB.7
12C7A:  BSF    FF2.7
....................             displayMenu(Menus.Letra,15,30,0,2); 
12C7C:  MOVLW  07
12C7E:  MOVWF  xBF
12C80:  MOVLW  9B
12C82:  MOVWF  xBE
12C84:  MOVLW  0F
12C86:  MOVWF  xC0
12C88:  MOVLW  1E
12C8A:  MOVWF  xC1
12C8C:  CLRF   xC2
12C8E:  MOVLW  02
12C90:  MOVWF  xC3
12C92:  MOVLB  0
12C94:  CALL   1EFC
....................             Menu=91;glcd_update();delay_ms(1000); 
12C98:  MOVLW  5B
12C9A:  MOVLB  5
12C9C:  MOVWF  x72
12C9E:  MOVLB  0
12CA0:  CALL   1928
12CA4:  MOVLW  04
12CA6:  MOVLB  7
12CA8:  MOVWF  xBB
12CAA:  MOVLW  FA
12CAC:  MOVWF  xC1
12CAE:  MOVLB  0
12CB0:  CALL   184E
12CB4:  MOVLB  7
12CB6:  DECFSZ xBB,F
12CB8:  BRA    12CAA
....................             glcd_fillScreen(OFF);unidad=1; 
12CBA:  CLRF   xBC
12CBC:  MOVLB  0
12CBE:  CALL   18CE
12CC2:  MOVLW  01
12CC4:  MOVLB  5
12CC6:  MOVWF  x73
....................          }// Esta parte se puede agregar en el Menu 1 dependiendo de la ubicacin del vidrio. 
....................          else 
12CC8:  GOTO   12D96
....................          { 
....................             glcd_fillScreen(OFF); 
12CCC:  MOVLB  7
12CCE:  CLRF   xBC
12CD0:  MOVLB  0
12CD2:  CALL   18CE
....................             strcpy(Menus.Letra,"Clave"); 
12CD6:  MOVLW  07
12CD8:  MOVWF  FEA
12CDA:  MOVLW  9B
12CDC:  MOVWF  FE9
12CDE:  MOVFF  FF2,7BB
12CE2:  BCF    FF2.7
12CE4:  MOVLW  00
12CE6:  CALL   0A84
12CEA:  TBLRD*-
12CEC:  TBLRD*+
12CEE:  MOVF   FF5,W
12CF0:  MOVWF  FEE
12CF2:  IORLW  00
12CF4:  BTFSS  FD8.2
12CF6:  GOTO   12CEC
12CFA:  MOVLB  7
12CFC:  BTFSC  xBB.7
12CFE:  BSF    FF2.7
....................             displayMenu(Menus.Letra,30,0,0,2); 
12D00:  MOVLW  07
12D02:  MOVWF  xBF
12D04:  MOVLW  9B
12D06:  MOVWF  xBE
12D08:  MOVLW  1E
12D0A:  MOVWF  xC0
12D0C:  CLRF   xC1
12D0E:  CLRF   xC2
12D10:  MOVLW  02
12D12:  MOVWF  xC3
12D14:  MOVLB  0
12D16:  CALL   1EFC
....................             strcpy(Menus.Letra,"Incorrecta"); 
12D1A:  MOVLW  07
12D1C:  MOVWF  FEA
12D1E:  MOVLW  9B
12D20:  MOVWF  FE9
12D22:  MOVFF  FF2,7BB
12D26:  BCF    FF2.7
12D28:  MOVLW  00
12D2A:  CALL   0AD0
12D2E:  TBLRD*-
12D30:  TBLRD*+
12D32:  MOVF   FF5,W
12D34:  MOVWF  FEE
12D36:  IORLW  00
12D38:  BTFSS  FD8.2
12D3A:  GOTO   12D30
12D3E:  MOVLB  7
12D40:  BTFSC  xBB.7
12D42:  BSF    FF2.7
....................             displayMenu(Menus.Letra,0,30,0,2); 
12D44:  MOVLW  07
12D46:  MOVWF  xBF
12D48:  MOVLW  9B
12D4A:  MOVWF  xBE
12D4C:  CLRF   xC0
12D4E:  MOVLW  1E
12D50:  MOVWF  xC1
12D52:  CLRF   xC2
12D54:  MOVLW  02
12D56:  MOVWF  xC3
12D58:  MOVLB  0
12D5A:  CALL   1EFC
....................             Menu=1;glcd_update();delay_ms(1000); 
12D5E:  MOVLW  01
12D60:  MOVLB  5
12D62:  MOVWF  x72
12D64:  MOVLB  0
12D66:  CALL   1928
12D6A:  MOVLW  04
12D6C:  MOVLB  7
12D6E:  MOVWF  xBB
12D70:  MOVLW  FA
12D72:  MOVWF  xC1
12D74:  MOVLB  0
12D76:  CALL   184E
12D7A:  MOVLB  7
12D7C:  DECFSZ xBB,F
12D7E:  BRA    12D70
....................             glcd_fillScreen(OFF);unidad=1; 
12D80:  CLRF   xBC
12D82:  MOVLB  0
12D84:  CALL   18CE
12D88:  MOVLW  01
12D8A:  MOVLB  5
12D8C:  MOVWF  x73
....................             Contrasena[0]=0;Contrasena[1]=0;Contrasena[2]=0;Contrasena[3]=0; 
12D8E:  CLRF   xC9
12D90:  CLRF   xCA
12D92:  CLRF   xCB
12D94:  CLRF   xCC
....................          } 
....................       } 
....................     }     
.................... //_--------------------------------------------------------------------------------------------------------------------------------------------------------     
....................  
.................... //_--------------------------------------------------------------------------------------------------------------------------------------------------------       
....................       if(Menu==91){ // Menu de Cambio de Contrasea 
12D96:  MOVF   x72,W
12D98:  SUBLW  5B
12D9A:  BTFSS  FD8.2
12D9C:  GOTO   13222
....................          
....................       strcpy(Menus.Letra,"Clave Nueva"); 
12DA0:  MOVLW  07
12DA2:  MOVWF  FEA
12DA4:  MOVLW  9B
12DA6:  MOVWF  FE9
12DA8:  MOVFF  FF2,7BB
12DAC:  BCF    FF2.7
12DAE:  MOVLW  00
12DB0:  MOVLB  0
12DB2:  CALL   0EC2
12DB6:  TBLRD*-
12DB8:  TBLRD*+
12DBA:  MOVF   FF5,W
12DBC:  MOVWF  FEE
12DBE:  IORLW  00
12DC0:  BTFSS  FD8.2
12DC2:  GOTO   12DB8
12DC6:  MOVLB  7
12DC8:  BTFSC  xBB.7
12DCA:  BSF    FF2.7
....................       displayMenu(Menus.Letra,0,0,1,2);      
12DCC:  MOVLW  07
12DCE:  MOVWF  xBF
12DD0:  MOVLW  9B
12DD2:  MOVWF  xBE
12DD4:  CLRF   xC0
12DD6:  CLRF   xC1
12DD8:  MOVLW  01
12DDA:  MOVWF  xC2
12DDC:  MOVLW  02
12DDE:  MOVWF  xC3
12DE0:  MOVLB  0
12DE2:  CALL   1EFC
....................        
....................       if(unidad==1) 
12DE6:  MOVLB  5
12DE8:  DECFSZ x73,W
12DEA:  GOTO   12E4E
....................       { 
....................          displayContrasena(Password[0],20,30,1); 
12DEE:  MOVFF  5CD,7BD
12DF2:  MOVLW  14
12DF4:  MOVLB  7
12DF6:  MOVWF  xBE
12DF8:  MOVLW  1E
12DFA:  MOVWF  xBF
12DFC:  MOVLW  01
12DFE:  MOVWF  xC0
12E00:  MOVLB  0
12E02:  CALL   214E
....................          displayContrasena(Password[1],40,30,0); 
12E06:  MOVFF  5CE,7BD
12E0A:  MOVLW  28
12E0C:  MOVLB  7
12E0E:  MOVWF  xBE
12E10:  MOVLW  1E
12E12:  MOVWF  xBF
12E14:  CLRF   xC0
12E16:  MOVLB  0
12E18:  CALL   214E
....................          displayContrasena(Password[2],60,30,0); 
12E1C:  MOVFF  5CF,7BD
12E20:  MOVLW  3C
12E22:  MOVLB  7
12E24:  MOVWF  xBE
12E26:  MOVLW  1E
12E28:  MOVWF  xBF
12E2A:  CLRF   xC0
12E2C:  MOVLB  0
12E2E:  CALL   214E
....................          displayContrasena(Password[3],80,30,0); 
12E32:  MOVFF  5D0,7BD
12E36:  MOVLW  50
12E38:  MOVLB  7
12E3A:  MOVWF  xBE
12E3C:  MOVLW  1E
12E3E:  MOVWF  xBF
12E40:  CLRF   xC0
12E42:  MOVLB  0
12E44:  CALL   214E
....................       } 
....................       else 
12E48:  GOTO   12F86
12E4C:  MOVLB  5
....................       { 
....................          if(unidad==2) 
12E4E:  MOVF   x73,W
12E50:  SUBLW  02
12E52:  BTFSS  FD8.2
12E54:  GOTO   12EB8
....................          { 
....................             displayContrasena(Password[0],20,30,0); 
12E58:  MOVFF  5CD,7BD
12E5C:  MOVLW  14
12E5E:  MOVLB  7
12E60:  MOVWF  xBE
12E62:  MOVLW  1E
12E64:  MOVWF  xBF
12E66:  CLRF   xC0
12E68:  MOVLB  0
12E6A:  CALL   214E
....................             displayContrasena(Password[1],40,30,1); 
12E6E:  MOVFF  5CE,7BD
12E72:  MOVLW  28
12E74:  MOVLB  7
12E76:  MOVWF  xBE
12E78:  MOVLW  1E
12E7A:  MOVWF  xBF
12E7C:  MOVLW  01
12E7E:  MOVWF  xC0
12E80:  MOVLB  0
12E82:  CALL   214E
....................             displayContrasena(Password[2],60,30,0); 
12E86:  MOVFF  5CF,7BD
12E8A:  MOVLW  3C
12E8C:  MOVLB  7
12E8E:  MOVWF  xBE
12E90:  MOVLW  1E
12E92:  MOVWF  xBF
12E94:  CLRF   xC0
12E96:  MOVLB  0
12E98:  CALL   214E
....................             displayContrasena(Password[3],80,30,0); 
12E9C:  MOVFF  5D0,7BD
12EA0:  MOVLW  50
12EA2:  MOVLB  7
12EA4:  MOVWF  xBE
12EA6:  MOVLW  1E
12EA8:  MOVWF  xBF
12EAA:  CLRF   xC0
12EAC:  MOVLB  0
12EAE:  CALL   214E
....................          } 
....................          else 
12EB2:  GOTO   12F86
12EB6:  MOVLB  5
....................          { 
....................             if(unidad==3) 
12EB8:  MOVF   x73,W
12EBA:  SUBLW  03
12EBC:  BTFSS  FD8.2
12EBE:  GOTO   12F22
....................             { 
....................                displayContrasena(Password[0],20,30,0); 
12EC2:  MOVFF  5CD,7BD
12EC6:  MOVLW  14
12EC8:  MOVLB  7
12ECA:  MOVWF  xBE
12ECC:  MOVLW  1E
12ECE:  MOVWF  xBF
12ED0:  CLRF   xC0
12ED2:  MOVLB  0
12ED4:  CALL   214E
....................                displayContrasena(Password[1],40,30,0); 
12ED8:  MOVFF  5CE,7BD
12EDC:  MOVLW  28
12EDE:  MOVLB  7
12EE0:  MOVWF  xBE
12EE2:  MOVLW  1E
12EE4:  MOVWF  xBF
12EE6:  CLRF   xC0
12EE8:  MOVLB  0
12EEA:  CALL   214E
....................                displayContrasena(Password[2],60,30,1); 
12EEE:  MOVFF  5CF,7BD
12EF2:  MOVLW  3C
12EF4:  MOVLB  7
12EF6:  MOVWF  xBE
12EF8:  MOVLW  1E
12EFA:  MOVWF  xBF
12EFC:  MOVLW  01
12EFE:  MOVWF  xC0
12F00:  MOVLB  0
12F02:  CALL   214E
....................                displayContrasena(Password[3],80,30,0); 
12F06:  MOVFF  5D0,7BD
12F0A:  MOVLW  50
12F0C:  MOVLB  7
12F0E:  MOVWF  xBE
12F10:  MOVLW  1E
12F12:  MOVWF  xBF
12F14:  CLRF   xC0
12F16:  MOVLB  0
12F18:  CALL   214E
....................             } 
....................             else 
12F1C:  GOTO   12F86
12F20:  MOVLB  5
....................             { 
....................                if(unidad==4) 
12F22:  MOVF   x73,W
12F24:  SUBLW  04
12F26:  BTFSS  FD8.2
12F28:  GOTO   12F88
....................                { 
....................                   displayContrasena(Password[0],20,30,0); 
12F2C:  MOVFF  5CD,7BD
12F30:  MOVLW  14
12F32:  MOVLB  7
12F34:  MOVWF  xBE
12F36:  MOVLW  1E
12F38:  MOVWF  xBF
12F3A:  CLRF   xC0
12F3C:  MOVLB  0
12F3E:  CALL   214E
....................                   displayContrasena(Password[1],40,30,0); 
12F42:  MOVFF  5CE,7BD
12F46:  MOVLW  28
12F48:  MOVLB  7
12F4A:  MOVWF  xBE
12F4C:  MOVLW  1E
12F4E:  MOVWF  xBF
12F50:  CLRF   xC0
12F52:  MOVLB  0
12F54:  CALL   214E
....................                   displayContrasena(Password[2],60,30,0); 
12F58:  MOVFF  5CF,7BD
12F5C:  MOVLW  3C
12F5E:  MOVLB  7
12F60:  MOVWF  xBE
12F62:  MOVLW  1E
12F64:  MOVWF  xBF
12F66:  CLRF   xC0
12F68:  MOVLB  0
12F6A:  CALL   214E
....................                   displayContrasena(Password[3],80,30,1); 
12F6E:  MOVFF  5D0,7BD
12F72:  MOVLW  50
12F74:  MOVLB  7
12F76:  MOVWF  xBE
12F78:  MOVLW  1E
12F7A:  MOVWF  xBF
12F7C:  MOVLW  01
12F7E:  MOVWF  xC0
12F80:  MOVLB  0
12F82:  CALL   214E
12F86:  MOVLB  5
....................                } 
....................             } 
....................          } 
....................       } 
....................        
....................       if(UP)//Si oprime hacia arriba 
12F88:  BSF    F92.5
12F8A:  BTFSC  F80.5
12F8C:  GOTO   13014
....................       { 
....................          Buzz_on;delay_ms(10);Buzz_off; 
12F90:  BSF    F8B.4
12F92:  BCF    F94.4
12F94:  MOVLW  0A
12F96:  MOVLB  7
12F98:  MOVWF  xC1
12F9A:  MOVLB  0
12F9C:  CALL   184E
12FA0:  BCF    F8B.4
12FA2:  BCF    F94.4
....................          delay_ms(30); 
12FA4:  MOVLW  1E
12FA6:  MOVLB  7
12FA8:  MOVWF  xC1
12FAA:  MOVLB  0
12FAC:  CALL   184E
....................          for(i=1;i<=4;i++) 
12FB0:  MOVLW  01
12FB2:  MOVLB  5
12FB4:  MOVWF  x74
12FB6:  MOVF   x74,W
12FB8:  SUBLW  04
12FBA:  BTFSS  FD8.0
12FBC:  GOTO   13014
....................          { 
....................             if(unidad==i) 
12FC0:  MOVF   x74,W
12FC2:  SUBWF  x73,W
12FC4:  BTFSS  FD8.2
12FC6:  GOTO   1300E
....................             { 
....................                Password[i-1]++; 
12FCA:  MOVLW  01
12FCC:  SUBWF  x74,W
12FCE:  CLRF   03
12FD0:  ADDLW  CD
12FD2:  MOVWF  FE9
12FD4:  MOVLW  05
12FD6:  ADDWFC 03,W
12FD8:  MOVWF  FEA
12FDA:  INCF   FEF,F
....................                if(Password[i-1]>9)    
12FDC:  MOVLW  01
12FDE:  SUBWF  x74,W
12FE0:  CLRF   03
12FE2:  ADDLW  CD
12FE4:  MOVWF  FE9
12FE6:  MOVLW  05
12FE8:  ADDWFC 03,W
12FEA:  MOVWF  FEA
12FEC:  BTFSC  FEF.7
12FEE:  GOTO   1300E
12FF2:  MOVF   FEF,W
12FF4:  SUBLW  09
12FF6:  BTFSC  FD8.0
12FF8:  GOTO   1300E
....................                { 
....................                   Password[i-1]=0; 
12FFC:  MOVLW  01
12FFE:  SUBWF  x74,W
13000:  CLRF   03
13002:  ADDLW  CD
13004:  MOVWF  FE9
13006:  MOVLW  05
13008:  ADDWFC 03,W
1300A:  MOVWF  FEA
1300C:  CLRF   FEF
....................                } 
....................             } 
....................          } 
1300E:  INCF   x74,F
13010:  GOTO   12FB6
....................       } 
....................              
....................       if(DOWN)//Si oprime hacia abajo 
13014:  BSF    F96.0
13016:  BTFSC  F84.0
13018:  GOTO   1309C
....................       { 
....................          Buzz_on;delay_ms(10);Buzz_off; 
1301C:  BSF    F8B.4
1301E:  BCF    F94.4
13020:  MOVLW  0A
13022:  MOVLB  7
13024:  MOVWF  xC1
13026:  MOVLB  0
13028:  CALL   184E
1302C:  BCF    F8B.4
1302E:  BCF    F94.4
....................          delay_ms(30); 
13030:  MOVLW  1E
13032:  MOVLB  7
13034:  MOVWF  xC1
13036:  MOVLB  0
13038:  CALL   184E
....................          for(i=1;i<=4;i++) 
1303C:  MOVLW  01
1303E:  MOVLB  5
13040:  MOVWF  x74
13042:  MOVF   x74,W
13044:  SUBLW  04
13046:  BTFSS  FD8.0
13048:  GOTO   1309C
....................             { 
....................                if(unidad==i) 
1304C:  MOVF   x74,W
1304E:  SUBWF  x73,W
13050:  BTFSS  FD8.2
13052:  GOTO   13096
....................                { 
....................                   Password[i-1]--; 
13056:  MOVLW  01
13058:  SUBWF  x74,W
1305A:  CLRF   03
1305C:  ADDLW  CD
1305E:  MOVWF  FE9
13060:  MOVLW  05
13062:  ADDWFC 03,W
13064:  MOVWF  FEA
13066:  DECF   FEF,F
....................                   if(Password[i-1]<0) 
13068:  MOVLW  01
1306A:  SUBWF  x74,W
1306C:  CLRF   03
1306E:  ADDLW  CD
13070:  MOVWF  FE9
13072:  MOVLW  05
13074:  ADDWFC 03,W
13076:  MOVWF  FEA
13078:  BTFSC  FEF.7
1307A:  GOTO   13082
1307E:  GOTO   13096
....................                   { 
....................                      Password[i-1]=9; 
13082:  MOVLW  01
13084:  SUBWF  x74,W
13086:  CLRF   03
13088:  ADDLW  CD
1308A:  MOVWF  FE9
1308C:  MOVLW  05
1308E:  ADDWFC 03,W
13090:  MOVWF  FEA
13092:  MOVLW  09
13094:  MOVWF  FEF
....................                   } 
....................                } 
....................             }        
13096:  INCF   x74,F
13098:  GOTO   13042
....................       } 
....................              
....................       if(RIGHT)//Si oprime RIGHT 
1309C:  BSF    F96.1
1309E:  BTFSC  F84.1
130A0:  GOTO   130C8
....................       { 
....................          Buzz_on;delay_ms(10);Buzz_off;delay_ms(30);unidad++; 
130A4:  BSF    F8B.4
130A6:  BCF    F94.4
130A8:  MOVLW  0A
130AA:  MOVLB  7
130AC:  MOVWF  xC1
130AE:  MOVLB  0
130B0:  CALL   184E
130B4:  BCF    F8B.4
130B6:  BCF    F94.4
130B8:  MOVLW  1E
130BA:  MOVLB  7
130BC:  MOVWF  xC1
130BE:  MOVLB  0
130C0:  CALL   184E
130C4:  MOVLB  5
130C6:  INCF   x73,F
....................       } 
....................        
....................       if(LEFT)//Si oprime Izquierda 
130C8:  BSF    F96.2
130CA:  BTFSC  F84.2
130CC:  GOTO   1310C
....................       { 
....................          Buzz_on;delay_ms(10);Buzz_off;delay_ms(700);Menu=1;glcd_fillscreen(OFF); 
130D0:  BSF    F8B.4
130D2:  BCF    F94.4
130D4:  MOVLW  0A
130D6:  MOVLB  7
130D8:  MOVWF  xC1
130DA:  MOVLB  0
130DC:  CALL   184E
130E0:  BCF    F8B.4
130E2:  BCF    F94.4
130E4:  MOVLW  04
130E6:  MOVLB  7
130E8:  MOVWF  xBB
130EA:  MOVLW  AF
130EC:  MOVWF  xC1
130EE:  MOVLB  0
130F0:  CALL   184E
130F4:  MOVLB  7
130F6:  DECFSZ xBB,F
130F8:  BRA    130EA
130FA:  MOVLW  01
130FC:  MOVLB  5
130FE:  MOVWF  x72
13100:  MOVLB  7
13102:  CLRF   xBC
13104:  MOVLB  0
13106:  CALL   18CE
1310A:  MOVLB  5
....................       } 
....................        
....................       if(unidad>4) 
1310C:  MOVF   x73,W
1310E:  SUBLW  04
13110:  BTFSC  FD8.0
13112:  GOTO   13222
....................       { 
....................          Opcion=1;unidad=1; 
13116:  MOVLW  01
13118:  MOVWF  x79
1311A:  MOVWF  x73
....................          write_eeprom(260,Password[0]); 
1311C:  MOVWF  FAA
1311E:  MOVLW  04
13120:  MOVWF  FA9
13122:  MOVFF  5CD,FA8
13126:  BCF    FA6.6
13128:  BCF    FA6.7
1312A:  BSF    FA6.2
1312C:  MOVF   FF2,W
1312E:  MOVWF  00
13130:  BCF    FF2.7
13132:  MOVLB  F
13134:  MOVLW  55
13136:  MOVWF  FA7
13138:  MOVLW  AA
1313A:  MOVWF  FA7
1313C:  BSF    FA6.1
1313E:  BTFSC  FA6.1
13140:  GOTO   1313E
13144:  BCF    FA6.2
13146:  MOVF   00,W
13148:  IORWF  FF2,F
....................          delay_ms(50);    
1314A:  MOVLW  32
1314C:  MOVLB  7
1314E:  MOVWF  xC1
13150:  MOVLB  0
13152:  CALL   184E
....................          write_eeprom(261,Password[1]); 
13156:  MOVLW  01
13158:  MOVWF  FAA
1315A:  MOVLW  05
1315C:  MOVWF  FA9
1315E:  MOVFF  5CE,FA8
13162:  BCF    FA6.6
13164:  BCF    FA6.7
13166:  BSF    FA6.2
13168:  MOVF   FF2,W
1316A:  MOVWF  00
1316C:  BCF    FF2.7
1316E:  MOVLB  F
13170:  MOVLW  55
13172:  MOVWF  FA7
13174:  MOVLW  AA
13176:  MOVWF  FA7
13178:  BSF    FA6.1
1317A:  BTFSC  FA6.1
1317C:  GOTO   1317A
13180:  BCF    FA6.2
13182:  MOVF   00,W
13184:  IORWF  FF2,F
....................          delay_ms(50);    
13186:  MOVLW  32
13188:  MOVLB  7
1318A:  MOVWF  xC1
1318C:  MOVLB  0
1318E:  CALL   184E
....................          write_eeprom(262,Password[2]); 
13192:  MOVLW  01
13194:  MOVWF  FAA
13196:  MOVLW  06
13198:  MOVWF  FA9
1319A:  MOVFF  5CF,FA8
1319E:  BCF    FA6.6
131A0:  BCF    FA6.7
131A2:  BSF    FA6.2
131A4:  MOVF   FF2,W
131A6:  MOVWF  00
131A8:  BCF    FF2.7
131AA:  MOVLB  F
131AC:  MOVLW  55
131AE:  MOVWF  FA7
131B0:  MOVLW  AA
131B2:  MOVWF  FA7
131B4:  BSF    FA6.1
131B6:  BTFSC  FA6.1
131B8:  GOTO   131B6
131BC:  BCF    FA6.2
131BE:  MOVF   00,W
131C0:  IORWF  FF2,F
....................          delay_ms(50);    
131C2:  MOVLW  32
131C4:  MOVLB  7
131C6:  MOVWF  xC1
131C8:  MOVLB  0
131CA:  CALL   184E
....................          write_eeprom(263,Password[3]); 
131CE:  MOVLW  01
131D0:  MOVWF  FAA
131D2:  MOVLW  07
131D4:  MOVWF  FA9
131D6:  MOVFF  5D0,FA8
131DA:  BCF    FA6.6
131DC:  BCF    FA6.7
131DE:  BSF    FA6.2
131E0:  MOVF   FF2,W
131E2:  MOVWF  00
131E4:  BCF    FF2.7
131E6:  MOVLB  F
131E8:  MOVLW  55
131EA:  MOVWF  FA7
131EC:  MOVLW  AA
131EE:  MOVWF  FA7
131F0:  BSF    FA6.1
131F2:  BTFSC  FA6.1
131F4:  GOTO   131F2
131F8:  BCF    FA6.2
131FA:  MOVF   00,W
131FC:  IORWF  FF2,F
....................          delay_ms(1000);glcd_fillScreen(OFF);Menu=1; 
131FE:  MOVLW  04
13200:  MOVLB  7
13202:  MOVWF  xBB
13204:  MOVLW  FA
13206:  MOVWF  xC1
13208:  MOVLB  0
1320A:  CALL   184E
1320E:  MOVLB  7
13210:  DECFSZ xBB,F
13212:  BRA    13204
13214:  CLRF   xBC
13216:  MOVLB  0
13218:  CALL   18CE
1321C:  MOVLW  01
1321E:  MOVLB  5
13220:  MOVWF  x72
....................       } 
....................     }     
.................... //_--------------------------------------------------------------------------------------------------------------------------------------------------------     
....................  
.................... //_--------------------------------------------------------------------------------------------------------------------------------------------------------       
....................       if(Menu==9){ //Menu de Configuracin de Fecha y Hora 
13222:  MOVF   x72,W
13224:  SUBLW  09
13226:  BTFSS  FD8.2
13228:  GOTO   13862
....................        
....................       strcpy(Menus.Letra,"Fecha"); 
1322C:  MOVLW  07
1322E:  MOVWF  FEA
13230:  MOVLW  9B
13232:  MOVWF  FE9
13234:  MOVFF  FF2,7BB
13238:  BCF    FF2.7
1323A:  MOVLW  00
1323C:  MOVLB  0
1323E:  CALL   0EEC
13242:  TBLRD*-
13244:  TBLRD*+
13246:  MOVF   FF5,W
13248:  MOVWF  FEE
1324A:  IORLW  00
1324C:  BTFSS  FD8.2
1324E:  GOTO   13244
13252:  MOVLB  7
13254:  BTFSC  xBB.7
13256:  BSF    FF2.7
....................       displayMenu(Menus.Letra,45,0,1,1); 
13258:  MOVLW  07
1325A:  MOVWF  xBF
1325C:  MOVLW  9B
1325E:  MOVWF  xBE
13260:  MOVLW  2D
13262:  MOVWF  xC0
13264:  CLRF   xC1
13266:  MOVLW  01
13268:  MOVWF  xC2
1326A:  MOVWF  xC3
1326C:  MOVLB  0
1326E:  CALL   1EFC
....................        
....................       strcpy(Menus.Letra,"Hora"); 
13272:  MOVLW  07
13274:  MOVWF  FEA
13276:  MOVLW  9B
13278:  MOVWF  FE9
1327A:  MOVFF  FF2,7BB
1327E:  BCF    FF2.7
13280:  MOVLW  00
13282:  CALL   0F10
13286:  TBLRD*-
13288:  TBLRD*+
1328A:  MOVF   FF5,W
1328C:  MOVWF  FEE
1328E:  IORLW  00
13290:  BTFSS  FD8.2
13292:  GOTO   13288
13296:  MOVLB  7
13298:  BTFSC  xBB.7
1329A:  BSF    FF2.7
....................       displayMenu(Menus.Letra,45,32,1,1); 
1329C:  MOVLW  07
1329E:  MOVWF  xBF
132A0:  MOVLW  9B
132A2:  MOVWF  xBE
132A4:  MOVLW  2D
132A6:  MOVWF  xC0
132A8:  MOVLW  20
132AA:  MOVWF  xC1
132AC:  MOVLW  01
132AE:  MOVWF  xC2
132B0:  MOVWF  xC3
132B2:  MOVLB  0
132B4:  CALL   1EFC
....................        
....................       LimitaDia(); 
132B8:  GOTO   413C
....................        
....................       if(Opcion>5) 
132BC:  MOVLB  5
132BE:  MOVF   x79,W
132C0:  SUBLW  05
132C2:  BTFSC  FD8.0
132C4:  GOTO   132CC
....................       {Opcion=1;} 
132C8:  MOVLW  01
132CA:  MOVWF  x79
....................       if(Opcion<1) 
132CC:  MOVF   x79,F
132CE:  BTFSS  FD8.2
132D0:  GOTO   132D8
....................       {Opcion=5;} 
132D4:  MOVLW  05
132D6:  MOVWF  x79
....................        
....................       displayFecha(DiaTx,MesTx,YearTx,15,13,Opcion,2); 
132D8:  MOVFF  77C,7BB
132DC:  MOVFF  77B,7BC
132E0:  MOVFF  77A,7BD
132E4:  MOVLW  0F
132E6:  MOVLB  7
132E8:  MOVWF  xBE
132EA:  MOVLW  0D
132EC:  MOVWF  xBF
132EE:  MOVFF  579,7C0
132F2:  MOVLW  02
132F4:  MOVWF  xC1
132F6:  MOVLB  0
132F8:  GOTO   41F8
....................       displayHora(HoraTx,MinutoTx,25,44,Opcion,2); 
132FC:  MOVFF  77D,7BB
13300:  MOVFF  77E,7BC
13304:  MOVLW  19
13306:  MOVLB  7
13308:  MOVWF  xBD
1330A:  MOVLW  2C
1330C:  MOVWF  xBE
1330E:  MOVFF  579,7BF
13312:  MOVLW  02
13314:  MOVWF  xC0
13316:  MOVLB  0
13318:  GOTO   483C
....................        
....................          if(UP){ 
1331C:  BSF    F92.5
1331E:  BTFSC  F80.5
13320:  GOTO   1349C
....................             delay_ms(3); 
13324:  MOVLW  03
13326:  MOVLB  7
13328:  MOVWF  xC1
1332A:  MOVLB  0
1332C:  CALL   184E
....................             if(Opcion==1){ 
13330:  MOVLB  5
13332:  DECFSZ x79,W
13334:  GOTO   1340C
....................                if(MesTx==2){ 
13338:  MOVLB  7
1333A:  MOVF   x7B,W
1333C:  SUBLW  02
1333E:  BTFSS  FD8.2
13340:  GOTO   1338C
....................                   if(esBisiesto(YearTx)){ 
13344:  MOVFF  77A,7BB
13348:  MOVLB  0
1334A:  CALL   40E8
1334E:  MOVF   01,F
13350:  BTFSC  FD8.2
13352:  GOTO   13372
....................                      if(DiaTx<29) 
13356:  MOVLB  7
13358:  MOVF   x7C,W
1335A:  SUBLW  1C
1335C:  BTFSS  FD8.0
1335E:  GOTO   13368
....................                         DiaTx++; 
13362:  INCF   x7C,F
....................                      else 
13364:  GOTO   1336C
....................                         DiaTx=1; 
13368:  MOVLW  01
1336A:  MOVWF  x7C
....................                   }else{ 
1336C:  GOTO   13388
13370:  MOVLB  0
....................                      if(DiaTx<28) 
13372:  MOVLB  7
13374:  MOVF   x7C,W
13376:  SUBLW  1B
13378:  BTFSS  FD8.0
1337A:  GOTO   13384
....................                         DiaTx++; 
1337E:  INCF   x7C,F
....................                      else 
13380:  GOTO   13388
....................                         DiaTx=1; 
13384:  MOVLW  01
13386:  MOVWF  x7C
....................                   } 
....................                }else{ 
13388:  GOTO   13406
....................                   if(MesTx<=7){ 
1338C:  MOVF   x7B,W
1338E:  SUBLW  07
13390:  BTFSS  FD8.0
13392:  GOTO   133D0
....................                      if(MesTx % 2 ==0){ 
13396:  MOVF   x7B,W
13398:  ANDLW  01
1339A:  BTFSS  FD8.2
1339C:  GOTO   133B8
....................                         if(DiaTx<30) 
133A0:  MOVF   x7C,W
133A2:  SUBLW  1D
133A4:  BTFSS  FD8.0
133A6:  GOTO   133B0
....................                            DiaTx++;     
133AA:  INCF   x7C,F
....................                         else 
133AC:  GOTO   133B4
....................                            DiaTx=1; 
133B0:  MOVLW  01
133B2:  MOVWF  x7C
....................                      }else{ 
133B4:  GOTO   133CC
....................                         if(DiaTx<31) 
133B8:  MOVF   x7C,W
133BA:  SUBLW  1E
133BC:  BTFSS  FD8.0
133BE:  GOTO   133C8
....................                            DiaTx++;     
133C2:  INCF   x7C,F
....................                         else 
133C4:  GOTO   133CC
....................                            DiaTx=1; 
133C8:  MOVLW  01
133CA:  MOVWF  x7C
....................                      }     
....................                   }else{ 
133CC:  GOTO   13406
....................                      if(MesTx % 2 ==0){ 
133D0:  MOVF   x7B,W
133D2:  ANDLW  01
133D4:  BTFSS  FD8.2
133D6:  GOTO   133F2
....................                         if(DiaTx<31) 
133DA:  MOVF   x7C,W
133DC:  SUBLW  1E
133DE:  BTFSS  FD8.0
133E0:  GOTO   133EA
....................                            DiaTx++;     
133E4:  INCF   x7C,F
....................                         else 
133E6:  GOTO   133EE
....................                            DiaTx=1; 
133EA:  MOVLW  01
133EC:  MOVWF  x7C
....................                      }else{ 
133EE:  GOTO   13406
....................                         if(DiaTx<30) 
133F2:  MOVF   x7C,W
133F4:  SUBLW  1D
133F6:  BTFSS  FD8.0
133F8:  GOTO   13402
....................                            DiaTx++;     
133FC:  INCF   x7C,F
....................                         else 
133FE:  GOTO   13406
....................                            DiaTx=1; 
13402:  MOVLW  01
13404:  MOVWF  x7C
....................                      }     
....................                   } 
....................                } 
....................             }else if(Opcion==2){ 
13406:  GOTO   13498
1340A:  MOVLB  5
1340C:  MOVF   x79,W
1340E:  SUBLW  02
13410:  BTFSS  FD8.2
13412:  GOTO   13432
....................                if(MesTx<12) 
13416:  MOVLB  7
13418:  MOVF   x7B,W
1341A:  SUBLW  0B
1341C:  BTFSS  FD8.0
1341E:  GOTO   13428
....................                   MesTx++; 
13422:  INCF   x7B,F
....................                else 
13424:  GOTO   1342C
....................                   MesTx=1; 
13428:  MOVLW  01
1342A:  MOVWF  x7B
....................             }else if(Opcion==3){ 
1342C:  GOTO   13498
13430:  MOVLB  5
13432:  MOVF   x79,W
13434:  SUBLW  03
13436:  BTFSS  FD8.2
13438:  GOTO   13456
....................                if(YearTx<99) 
1343C:  MOVLB  7
1343E:  MOVF   x7A,W
13440:  SUBLW  62
13442:  BTFSS  FD8.0
13444:  GOTO   1344E
....................                   YearTx++; 
13448:  INCF   x7A,F
....................                else 
1344A:  GOTO   13450
....................                   YearTx=0; 
1344E:  CLRF   x7A
....................             }else if(Opcion==4){ 
13450:  GOTO   13498
13454:  MOVLB  5
13456:  MOVF   x79,W
13458:  SUBLW  04
1345A:  BTFSS  FD8.2
1345C:  GOTO   1347A
....................                if(HoraTx<24) 
13460:  MOVLB  7
13462:  MOVF   x7D,W
13464:  SUBLW  17
13466:  BTFSS  FD8.0
13468:  GOTO   13472
....................                   HoraTx++; 
1346C:  INCF   x7D,F
....................                else 
1346E:  GOTO   13474
....................                   HoraTx=0; 
13472:  CLRF   x7D
....................             }else if(Opcion==5){ 
13474:  GOTO   13498
13478:  MOVLB  5
1347A:  MOVF   x79,W
1347C:  SUBLW  05
1347E:  BTFSS  FD8.2
13480:  GOTO   1349A
....................                if(MinutoTx<59) 
13484:  MOVLB  7
13486:  MOVF   x7E,W
13488:  SUBLW  3A
1348A:  BTFSS  FD8.0
1348C:  GOTO   13496
....................                   MinutoTx++; 
13490:  INCF   x7E,F
....................                else 
13492:  GOTO   13498
....................                   MinutoTx=0; 
13496:  CLRF   x7E
13498:  MOVLB  5
1349A:  MOVLB  0
....................             } 
....................          } 
....................                    
....................          if(DOWN){ 
1349C:  BSF    F96.0
1349E:  BTFSC  F84.0
134A0:  GOTO   1353A
....................             delay_ms(3); 
134A4:  MOVLW  03
134A6:  MOVLB  7
134A8:  MOVWF  xC1
134AA:  MOVLB  0
134AC:  CALL   184E
....................             if(Opcion==1){ 
134B0:  MOVLB  5
134B2:  DECFSZ x79,W
134B4:  GOTO   134CA
....................                if(DiaTx>0) 
134B8:  MOVLB  7
134BA:  MOVF   x7C,F
134BC:  BTFSC  FD8.2
134BE:  GOTO   134C4
....................                   DiaTx--; 
134C2:  DECF   x7C,F
....................             }else if(Opcion==2){ 
134C4:  GOTO   13536
134C8:  MOVLB  5
134CA:  MOVF   x79,W
134CC:  SUBLW  02
134CE:  BTFSS  FD8.2
134D0:  GOTO   134E8
....................                if(MesTx>1) 
134D4:  MOVLB  7
134D6:  MOVF   x7B,W
134D8:  SUBLW  01
134DA:  BTFSC  FD8.0
134DC:  GOTO   134E2
....................                   MesTx--; 
134E0:  DECF   x7B,F
....................             }else if(Opcion==3){ 
134E2:  GOTO   13536
134E6:  MOVLB  5
134E8:  MOVF   x79,W
134EA:  SUBLW  03
134EC:  BTFSS  FD8.2
134EE:  GOTO   13504
....................                if(YearTx>0) 
134F2:  MOVLB  7
134F4:  MOVF   x7A,F
134F6:  BTFSC  FD8.2
134F8:  GOTO   134FE
....................                   YearTx--; 
134FC:  DECF   x7A,F
....................             }else if(Opcion==4){ 
134FE:  GOTO   13536
13502:  MOVLB  5
13504:  MOVF   x79,W
13506:  SUBLW  04
13508:  BTFSS  FD8.2
1350A:  GOTO   13520
....................                if(HoraTx>0) 
1350E:  MOVLB  7
13510:  MOVF   x7D,F
13512:  BTFSC  FD8.2
13514:  GOTO   1351A
....................                   HoraTx--; 
13518:  DECF   x7D,F
....................             }else if(Opcion==5){ 
1351A:  GOTO   13536
1351E:  MOVLB  5
13520:  MOVF   x79,W
13522:  SUBLW  05
13524:  BTFSS  FD8.2
13526:  GOTO   13538
....................                if(MinutoTx>0) 
1352A:  MOVLB  7
1352C:  MOVF   x7E,F
1352E:  BTFSC  FD8.2
13530:  GOTO   13536
....................                   MinutoTx--; 
13534:  DECF   x7E,F
13536:  MOVLB  5
13538:  MOVLB  0
....................             } 
....................          } 
....................                 
....................          if(RIGHT){   
1353A:  BSF    F96.1
1353C:  BTFSC  F84.1
1353E:  GOTO   1357C
....................             delay_ms(10); 
13542:  MOVLW  0A
13544:  MOVLB  7
13546:  MOVWF  xC1
13548:  MOVLB  0
1354A:  CALL   184E
....................             if(Flanco1 == 0){ 
1354E:  MOVLB  5
13550:  BTFSC  x5F.6
13552:  GOTO   13576
....................                Flanco1 = 1;delay_ms(3);Opcion++;glcd_fillscreen(OFF);visual=1; 
13556:  BSF    x5F.6
13558:  MOVLW  03
1355A:  MOVLB  7
1355C:  MOVWF  xC1
1355E:  MOVLB  0
13560:  CALL   184E
13564:  MOVLB  5
13566:  INCF   x79,F
13568:  MOVLB  7
1356A:  CLRF   xBC
1356C:  MOVLB  0
1356E:  CALL   18CE
13572:  MOVLB  5
13574:  BSF    x6D.0
....................             } 
....................          }else{ 
13576:  GOTO   13580
1357A:  MOVLB  0
....................             Flanco1 = 0; 
1357C:  MOVLB  5
1357E:  BCF    x5F.6
....................          } 
....................                 
....................          if(LEFT){ 
13580:  BSF    F96.2
13582:  BTFSC  F84.2
13584:  GOTO   13862
....................             if(esBisiesto(YearTx)) 
13588:  MOVFF  77A,7BB
1358C:  MOVLB  0
1358E:  CALL   40E8
13592:  MOVF   01,F
13594:  BTFSC  FD8.2
13596:  GOTO   135B4
....................                Modulo=Bisiesto[MesTx]; 
1359A:  CLRF   03
1359C:  MOVLB  7
1359E:  MOVF   x7B,W
135A0:  ADDLW  8F
135A2:  MOVWF  FE9
135A4:  MOVLW  07
135A6:  ADDWFC 03,W
135A8:  MOVWF  FEA
135AA:  MOVFF  FEF,779
....................             else 
135AE:  GOTO   135C8
135B2:  MOVLB  0
....................                Modulo=Regular[MesTx]; 
135B4:  CLRF   03
135B6:  MOVLB  7
135B8:  MOVF   x7B,W
135BA:  ADDLW  83
135BC:  MOVWF  FE9
135BE:  MOVLW  07
135C0:  ADDWFC 03,W
135C2:  MOVWF  FEA
135C4:  MOVFF  FEF,779
....................           
....................             dowTx=((YearTx-1)%7+((YearTx-1)/4-3*((YearTx-1)/100+1)/4)%7+Modulo+DiaTx%7)%7; 
135C8:  MOVLW  01
135CA:  SUBWF  x7A,W
135CC:  MOVWF  xBC
135CE:  MOVFF  7BC,7D0
135D2:  MOVLW  07
135D4:  MOVWF  xD1
135D6:  MOVLB  0
135D8:  CALL   2022
135DC:  MOVFF  00,7BB
135E0:  MOVLW  01
135E2:  MOVLB  7
135E4:  SUBWF  x7A,W
135E6:  MOVWF  00
135E8:  RRCF   00,W
135EA:  MOVWF  xBC
135EC:  RRCF   xBC,F
135EE:  MOVLW  3F
135F0:  ANDWF  xBC,F
135F2:  MOVLW  01
135F4:  SUBWF  x7A,W
135F6:  MOVWF  xBE
135F8:  MOVFF  7BE,7D0
135FC:  MOVLW  64
135FE:  MOVWF  xD1
13600:  MOVLB  0
13602:  CALL   2022
13606:  MOVLW  01
13608:  ADDWF  01,W
1360A:  MULLW  03
1360C:  MOVFF  FF3,00
13610:  RRCF   00,F
13612:  RRCF   00,F
13614:  MOVLW  3F
13616:  ANDWF  00,F
13618:  MOVF   00,W
1361A:  MOVLB  7
1361C:  SUBWF  xBC,W
1361E:  MOVWF  xBD
13620:  MOVFF  7BD,7D0
13624:  MOVLW  07
13626:  MOVWF  xD1
13628:  MOVLB  0
1362A:  CALL   2022
1362E:  MOVF   00,W
13630:  MOVLB  7
13632:  ADDWF  xBB,W
13634:  ADDWF  x79,W
13636:  MOVWF  xBB
13638:  MOVFF  77C,7D0
1363C:  MOVLW  07
1363E:  MOVWF  xD1
13640:  MOVLB  0
13642:  CALL   2022
13646:  MOVF   00,W
13648:  MOVLB  7
1364A:  ADDWF  xBB,W
1364C:  MOVWF  xBC
1364E:  MOVFF  7BC,7D0
13652:  MOVLW  07
13654:  MOVWF  xD1
13656:  MOVLB  0
13658:  CALL   2022
1365C:  MOVFF  00,780
....................             rtc_set_datetime(DiaTx,MesTx,YearTx,dowTx,HoraTx,MinutoTx); 
13660:  MOVFF  77C,7BB
13664:  MOVFF  77B,7BC
13668:  MOVFF  77A,7BD
1366C:  MOVFF  780,7BE
13670:  MOVFF  77D,7BF
13674:  MOVFF  77E,7C0
13678:  GOTO   4B80
....................             delay_ms(100); 
1367C:  MOVLW  64
1367E:  MOVLB  7
13680:  MOVWF  xC1
13682:  MOVLB  0
13684:  CALL   184E
....................             Menu=1; 
13688:  MOVLW  01
1368A:  MOVLB  5
1368C:  MOVWF  x72
....................             Opcion=1; 
1368E:  MOVWF  x79
....................             glcd_fillscreen(OFF);visual=1; 
13690:  MOVLB  7
13692:  CLRF   xBC
13694:  MOVLB  0
13696:  CALL   18CE
1369A:  MOVLB  5
1369C:  BSF    x6D.0
....................             fprintf(printer,"  \n"); 
1369E:  MOVLW  20
136A0:  BTFSS  F9E.4
136A2:  GOTO   136A0
136A6:  MOVWF  FAD
136A8:  MOVLW  20
136AA:  BTFSS  F9E.4
136AC:  GOTO   136AA
136B0:  MOVWF  FAD
136B2:  MOVLW  0A
136B4:  BTFSS  F9E.4
136B6:  GOTO   136B4
136BA:  MOVWF  FAD
....................             fprintf(printer,"  Ajusto Fecha y hora \n"); 
136BC:  MOVLW  94
136BE:  MOVWF  FF6
136C0:  MOVLW  17
136C2:  MOVWF  FF7
136C4:  MOVLW  00
136C6:  MOVWF  FF8
136C8:  MOVLB  0
136CA:  CALL   3C0C
....................             rtc_get_date(Dia,Mes,Year,dow); 
....................             rtc_get_time(Hora,Minuto,Segundo); 
....................             fprintf(printer,"%02u-%02u-%02u  %02u:%02u  %03.1fC   \n",Dia,Mes,Year,Hora,Minuto,Temperatura);  
*
13792:  MOVFF  773,7BC
13796:  MOVLW  01
13798:  MOVLB  7
1379A:  MOVWF  xBD
1379C:  MOVLB  0
1379E:  CALL   3C68
137A2:  MOVLW  2D
137A4:  BTFSS  F9E.4
137A6:  GOTO   137A4
137AA:  MOVWF  FAD
137AC:  MOVFF  778,7BC
137B0:  MOVLW  01
137B2:  MOVLB  7
137B4:  MOVWF  xBD
137B6:  MOVLB  0
137B8:  CALL   3C68
137BC:  MOVLW  2D
137BE:  BTFSS  F9E.4
137C0:  GOTO   137BE
137C4:  MOVWF  FAD
137C6:  MOVFF  771,7BC
137CA:  MOVLW  01
137CC:  MOVLB  7
137CE:  MOVWF  xBD
137D0:  MOVLB  0
137D2:  CALL   3C68
137D6:  MOVLW  20
137D8:  BTFSS  F9E.4
137DA:  GOTO   137D8
137DE:  MOVWF  FAD
137E0:  MOVLW  20
137E2:  BTFSS  F9E.4
137E4:  GOTO   137E2
137E8:  MOVWF  FAD
137EA:  MOVFF  774,7BC
137EE:  MOVLW  01
137F0:  MOVLB  7
137F2:  MOVWF  xBD
137F4:  MOVLB  0
137F6:  CALL   3C68
137FA:  MOVLW  3A
137FC:  BTFSS  F9E.4
137FE:  GOTO   137FC
13802:  MOVWF  FAD
13804:  MOVFF  775,7BC
13808:  MOVLW  01
1380A:  MOVLB  7
1380C:  MOVWF  xBD
1380E:  MOVLB  0
13810:  CALL   3C68
13814:  MOVLW  20
13816:  BTFSS  F9E.4
13818:  GOTO   13816
1381C:  MOVWF  FAD
1381E:  MOVLW  20
13820:  BTFSS  F9E.4
13822:  GOTO   13820
13826:  MOVWF  FAD
13828:  MOVLW  42
1382A:  MOVWF  FE9
1382C:  MOVFF  60C,7BE
13830:  MOVFF  60B,7BD
13834:  MOVFF  60A,7BC
13838:  MOVFF  609,7BB
1383C:  MOVLW  01
1383E:  MOVLB  7
13840:  MOVWF  xBF
13842:  MOVLB  0
13844:  CALL   4CFE
13848:  MOVLW  CD
1384A:  MOVWF  FF6
1384C:  MOVLW  17
1384E:  MOVWF  FF7
13850:  MOVLW  00
13852:  MOVWF  FF8
13854:  MOVLW  06
13856:  MOVLB  7
13858:  MOVWF  xBC
1385A:  MOVLB  0
1385C:  CALL   3C36
13860:  MOVLB  5
....................          }       
....................          
....................     } 
.................... //_--------------------------------------------------------------------------------------------------------------------------------------------------------        
....................  
.................... //_--------------------------------------------------------------------------------------------------------------------------------------------------------       
....................       if(Menu==10){ //Menu de Configuracin de Impresora 
13862:  MOVF   x72,W
13864:  SUBLW  0A
13866:  BTFSS  FD8.2
13868:  GOTO   13C5A
....................        
....................       strcpy(Menus.Letra,"Desea Impresion?"); 
1386C:  MOVLW  07
1386E:  MOVWF  FEA
13870:  MOVLW  9B
13872:  MOVWF  FE9
13874:  MOVFF  FF2,7BB
13878:  BCF    FF2.7
1387A:  MOVLW  00
1387C:  MOVLB  0
1387E:  CALL   0F34
13882:  TBLRD*-
13884:  TBLRD*+
13886:  MOVF   FF5,W
13888:  MOVWF  FEE
1388A:  IORLW  00
1388C:  BTFSS  FD8.2
1388E:  GOTO   13884
13892:  MOVLB  7
13894:  BTFSC  xBB.7
13896:  BSF    FF2.7
....................       displayMenu(Menus.Letra,0,0,1,1); 
13898:  MOVLW  07
1389A:  MOVWF  xBF
1389C:  MOVLW  9B
1389E:  MOVWF  xBE
138A0:  CLRF   xC0
138A2:  CLRF   xC1
138A4:  MOVLW  01
138A6:  MOVWF  xC2
138A8:  MOVWF  xC3
138AA:  MOVLB  0
138AC:  CALL   1EFC
....................        
....................       strcpy(Menus.Letra,"Tiempo de Impresion"); 
138B0:  MOVLW  07
138B2:  MOVWF  FEA
138B4:  MOVLW  9B
138B6:  MOVWF  FE9
138B8:  MOVFF  FF2,7BB
138BC:  BCF    FF2.7
138BE:  MOVLW  00
138C0:  CALL   0F64
138C4:  TBLRD*-
138C6:  TBLRD*+
138C8:  MOVF   FF5,W
138CA:  MOVWF  FEE
138CC:  IORLW  00
138CE:  BTFSS  FD8.2
138D0:  GOTO   138C6
138D4:  MOVLB  7
138D6:  BTFSC  xBB.7
138D8:  BSF    FF2.7
....................       displayMenu(Menus.Letra,0,32,1,1); 
138DA:  MOVLW  07
138DC:  MOVWF  xBF
138DE:  MOVLW  9B
138E0:  MOVWF  xBE
138E2:  CLRF   xC0
138E4:  MOVLW  20
138E6:  MOVWF  xC1
138E8:  MOVLW  01
138EA:  MOVWF  xC2
138EC:  MOVWF  xC3
138EE:  MOVLB  0
138F0:  CALL   1EFC
....................        
....................       if(timpresion>30) 
138F4:  MOVLB  5
138F6:  MOVF   x96,F
138F8:  BTFSS  FD8.2
138FA:  GOTO   13908
138FE:  MOVF   x95,W
13900:  SUBLW  1E
13902:  BTFSC  FD8.0
13904:  GOTO   1390E
....................          timpresion=30; 
13908:  CLRF   x96
1390A:  MOVLW  1E
1390C:  MOVWF  x95
....................        
....................       if(Opcion==1 && ActivaImpresion==0){ 
1390E:  DECFSZ x79,W
13910:  GOTO   1396A
13914:  BTFSC  x5F.3
13916:  GOTO   1396A
....................          strcpy(Menus.Letra,"No"); 
1391A:  MOVLW  07
1391C:  MOVWF  FEA
1391E:  MOVLW  9B
13920:  MOVWF  FE9
13922:  MOVFF  FF2,7BB
13926:  BCF    FF2.7
13928:  MOVLW  00
1392A:  MOVLB  0
1392C:  CALL   0F96
13930:  TBLRD*-
13932:  TBLRD*+
13934:  MOVF   FF5,W
13936:  MOVWF  FEE
13938:  IORLW  00
1393A:  BTFSS  FD8.2
1393C:  GOTO   13932
13940:  MOVLB  7
13942:  BTFSC  xBB.7
13944:  BSF    FF2.7
....................          displayMenu(Menus.Letra,40,13,1,2); 
13946:  MOVLW  07
13948:  MOVWF  xBF
1394A:  MOVLW  9B
1394C:  MOVWF  xBE
1394E:  MOVLW  28
13950:  MOVWF  xC0
13952:  MOVLW  0D
13954:  MOVWF  xC1
13956:  MOVLW  01
13958:  MOVWF  xC2
1395A:  MOVLW  02
1395C:  MOVWF  xC3
1395E:  MOVLB  0
13960:  CALL   1EFC
....................       }else if(Opcion==1 && ActivaImpresion==1){ 
13964:  GOTO   13A7C
13968:  MOVLB  5
1396A:  DECFSZ x79,W
1396C:  GOTO   139C6
13970:  BTFSS  x5F.3
13972:  GOTO   139C6
....................          strcpy(Menus.Letra,"Si"); 
13976:  MOVLW  07
13978:  MOVWF  FEA
1397A:  MOVLW  9B
1397C:  MOVWF  FE9
1397E:  MOVFF  FF2,7BB
13982:  BCF    FF2.7
13984:  MOVLW  00
13986:  MOVLB  0
13988:  CALL   0FB8
1398C:  TBLRD*-
1398E:  TBLRD*+
13990:  MOVF   FF5,W
13992:  MOVWF  FEE
13994:  IORLW  00
13996:  BTFSS  FD8.2
13998:  GOTO   1398E
1399C:  MOVLB  7
1399E:  BTFSC  xBB.7
139A0:  BSF    FF2.7
....................          displayMenu(Menus.Letra,40,13,1,2); 
139A2:  MOVLW  07
139A4:  MOVWF  xBF
139A6:  MOVLW  9B
139A8:  MOVWF  xBE
139AA:  MOVLW  28
139AC:  MOVWF  xC0
139AE:  MOVLW  0D
139B0:  MOVWF  xC1
139B2:  MOVLW  01
139B4:  MOVWF  xC2
139B6:  MOVLW  02
139B8:  MOVWF  xC3
139BA:  MOVLB  0
139BC:  CALL   1EFC
....................       }else if(Opcion==2 && ActivaImpresion==1){ 
139C0:  GOTO   13A7C
139C4:  MOVLB  5
139C6:  MOVF   x79,W
139C8:  SUBLW  02
139CA:  BTFSS  FD8.2
139CC:  GOTO   13A24
139D0:  BTFSS  x5F.3
139D2:  GOTO   13A24
....................          strcpy(Menus.Letra,"Si"); 
139D6:  MOVLW  07
139D8:  MOVWF  FEA
139DA:  MOVLW  9B
139DC:  MOVWF  FE9
139DE:  MOVFF  FF2,7BB
139E2:  BCF    FF2.7
139E4:  MOVLW  00
139E6:  MOVLB  0
139E8:  CALL   0FB8
139EC:  TBLRD*-
139EE:  TBLRD*+
139F0:  MOVF   FF5,W
139F2:  MOVWF  FEE
139F4:  IORLW  00
139F6:  BTFSS  FD8.2
139F8:  GOTO   139EE
139FC:  MOVLB  7
139FE:  BTFSC  xBB.7
13A00:  BSF    FF2.7
....................          displayMenu(Menus.Letra,40,13,0,2); 
13A02:  MOVLW  07
13A04:  MOVWF  xBF
13A06:  MOVLW  9B
13A08:  MOVWF  xBE
13A0A:  MOVLW  28
13A0C:  MOVWF  xC0
13A0E:  MOVLW  0D
13A10:  MOVWF  xC1
13A12:  CLRF   xC2
13A14:  MOVLW  02
13A16:  MOVWF  xC3
13A18:  MOVLB  0
13A1A:  CALL   1EFC
....................       }else if(Opcion==2 && ActivaImpresion==0){ 
13A1E:  GOTO   13A7C
13A22:  MOVLB  5
13A24:  MOVF   x79,W
13A26:  SUBLW  02
13A28:  BTFSS  FD8.2
13A2A:  GOTO   13A7E
13A2E:  BTFSC  x5F.3
13A30:  GOTO   13A7E
....................          strcpy(Menus.Letra,"No"); 
13A34:  MOVLW  07
13A36:  MOVWF  FEA
13A38:  MOVLW  9B
13A3A:  MOVWF  FE9
13A3C:  MOVFF  FF2,7BB
13A40:  BCF    FF2.7
13A42:  MOVLW  00
13A44:  MOVLB  0
13A46:  CALL   0F96
13A4A:  TBLRD*-
13A4C:  TBLRD*+
13A4E:  MOVF   FF5,W
13A50:  MOVWF  FEE
13A52:  IORLW  00
13A54:  BTFSS  FD8.2
13A56:  GOTO   13A4C
13A5A:  MOVLB  7
13A5C:  BTFSC  xBB.7
13A5E:  BSF    FF2.7
....................          displayMenu(Menus.Letra,40,13,0,2); 
13A60:  MOVLW  07
13A62:  MOVWF  xBF
13A64:  MOVLW  9B
13A66:  MOVWF  xBE
13A68:  MOVLW  28
13A6A:  MOVWF  xC0
13A6C:  MOVLW  0D
13A6E:  MOVWF  xC1
13A70:  CLRF   xC2
13A72:  MOVLW  02
13A74:  MOVWF  xC3
13A76:  MOVLB  0
13A78:  CALL   1EFC
13A7C:  MOVLB  5
....................       } 
....................       if(Opcion==1) 
13A7E:  DECFSZ x79,W
13A80:  GOTO   13AA0
....................          displayTiempo2(timpresion,40,44,0,2); 
13A84:  MOVFF  595,7BB
13A88:  MOVLW  28
13A8A:  MOVLB  7
13A8C:  MOVWF  xBC
13A8E:  MOVLW  2C
13A90:  MOVWF  xBD
13A92:  CLRF   xBE
13A94:  MOVLW  02
13A96:  MOVWF  xBF
13A98:  MOVLB  0
13A9A:  CALL   4EA2
13A9E:  MOVLB  5
....................       if(Opcion==2) 
13AA0:  MOVF   x79,W
13AA2:  SUBLW  02
13AA4:  BTFSS  FD8.2
13AA6:  GOTO   13AC8
....................          displayTiempo2(timpresion,40,44,1,2); 
13AAA:  MOVFF  595,7BB
13AAE:  MOVLW  28
13AB0:  MOVLB  7
13AB2:  MOVWF  xBC
13AB4:  MOVLW  2C
13AB6:  MOVWF  xBD
13AB8:  MOVLW  01
13ABA:  MOVWF  xBE
13ABC:  MOVLW  02
13ABE:  MOVWF  xBF
13AC0:  MOVLB  0
13AC2:  CALL   4EA2
13AC6:  MOVLB  5
....................        
....................       if(Opcion>2) 
13AC8:  MOVF   x79,W
13ACA:  SUBLW  02
13ACC:  BTFSC  FD8.0
13ACE:  GOTO   13AD6
....................       {Opcion=1;} 
13AD2:  MOVLW  01
13AD4:  MOVWF  x79
....................       if(Opcion<1) 
13AD6:  MOVF   x79,F
13AD8:  BTFSS  FD8.2
13ADA:  GOTO   13AE2
....................       {Opcion=2;} 
13ADE:  MOVLW  02
13AE0:  MOVWF  x79
....................        
....................          if(UP){ 
13AE2:  BSF    F92.5
13AE4:  BTFSC  F80.5
13AE6:  GOTO   13B14
....................             delay_ms(3); 
13AEA:  MOVLW  03
13AEC:  MOVLB  7
13AEE:  MOVWF  xC1
13AF0:  MOVLB  0
13AF2:  CALL   184E
....................             if(Opcion==1){ 
13AF6:  MOVLB  5
13AF8:  DECFSZ x79,W
13AFA:  GOTO   13B04
....................                ActivaImpresion=1; 
13AFE:  BSF    x5F.3
....................             }else if(Opcion==2){ 
13B00:  GOTO   13B14
13B04:  MOVF   x79,W
13B06:  SUBLW  02
13B08:  BTFSS  FD8.2
13B0A:  GOTO   13B14
....................                timpresion++;        
13B0E:  INCF   x95,F
13B10:  BTFSC  FD8.2
13B12:  INCF   x96,F
....................             } 
....................          } 
....................                    
....................          if(DOWN){ 
13B14:  BSF    F96.0
13B16:  BTFSC  F84.0
13B18:  GOTO   13B5A
....................             delay_ms(3); 
13B1C:  MOVLW  03
13B1E:  MOVLB  7
13B20:  MOVWF  xC1
13B22:  MOVLB  0
13B24:  CALL   184E
....................             if(Opcion==1){ 
13B28:  MOVLB  5
13B2A:  DECFSZ x79,W
13B2C:  GOTO   13B36
....................                ActivaImpresion=0; 
13B30:  BCF    x5F.3
....................             }else if(Opcion==2){ 
13B32:  GOTO   13B5A
13B36:  MOVF   x79,W
13B38:  SUBLW  02
13B3A:  BTFSS  FD8.2
13B3C:  GOTO   13B5A
....................                if(timpresion>1) 
13B40:  MOVF   x96,F
13B42:  BTFSS  FD8.2
13B44:  GOTO   13B52
13B48:  MOVF   x95,W
13B4A:  SUBLW  01
13B4C:  BTFSC  FD8.0
13B4E:  GOTO   13B5A
....................                   timpresion--; 
13B52:  MOVF   x95,W
13B54:  BTFSC  FD8.2
13B56:  DECF   x96,F
13B58:  DECF   x95,F
....................             } 
....................          } 
....................                 
....................          if(RIGHT){   
13B5A:  BSF    F96.1
13B5C:  BTFSC  F84.1
13B5E:  GOTO   13B9A
....................             delay_ms(10); 
13B62:  MOVLW  0A
13B64:  MOVLB  7
13B66:  MOVWF  xC1
13B68:  MOVLB  0
13B6A:  CALL   184E
....................             if(Flanco1 == 0){ 
13B6E:  MOVLB  5
13B70:  BTFSC  x5F.6
13B72:  GOTO   13B96
....................                Flanco1 = 1;delay_ms(3);Opcion++;glcd_fillscreen(OFF);visual=1; 
13B76:  BSF    x5F.6
13B78:  MOVLW  03
13B7A:  MOVLB  7
13B7C:  MOVWF  xC1
13B7E:  MOVLB  0
13B80:  CALL   184E
13B84:  MOVLB  5
13B86:  INCF   x79,F
13B88:  MOVLB  7
13B8A:  CLRF   xBC
13B8C:  MOVLB  0
13B8E:  CALL   18CE
13B92:  MOVLB  5
13B94:  BSF    x6D.0
....................             } 
....................          }else{ 
13B96:  GOTO   13B9C
....................             Flanco1 = 0; 
13B9A:  BCF    x5F.6
....................          } 
....................                 
....................          if(LEFT){ 
13B9C:  BSF    F96.2
13B9E:  BTFSC  F84.2
13BA0:  GOTO   13C5A
....................             Menu=1; 
13BA4:  MOVLW  01
13BA6:  MOVWF  x72
....................             Opcion=1; 
13BA8:  MOVWF  x79
....................             glcd_fillscreen(OFF);visual=1; 
13BAA:  MOVLB  7
13BAC:  CLRF   xBC
13BAE:  MOVLB  0
13BB0:  CALL   18CE
13BB4:  MOVLB  5
13BB6:  BSF    x6D.0
....................             write_eeprom(280,ActivaImpresion);delay_ms(10); 
13BB8:  MOVLW  00
13BBA:  BTFSC  x5F.3
13BBC:  MOVLW  01
13BBE:  MOVLB  7
13BC0:  MOVWF  xBB
13BC2:  MOVLW  01
13BC4:  MOVWF  FAA
13BC6:  MOVLW  18
13BC8:  MOVWF  FA9
13BCA:  MOVFF  7BB,FA8
13BCE:  BCF    FA6.6
13BD0:  BCF    FA6.7
13BD2:  BSF    FA6.2
13BD4:  MOVF   FF2,W
13BD6:  MOVWF  00
13BD8:  BCF    FF2.7
13BDA:  MOVLB  F
13BDC:  MOVLW  55
13BDE:  MOVWF  FA7
13BE0:  MOVLW  AA
13BE2:  MOVWF  FA7
13BE4:  BSF    FA6.1
13BE6:  BTFSC  FA6.1
13BE8:  GOTO   13BE6
13BEC:  BCF    FA6.2
13BEE:  MOVF   00,W
13BF0:  IORWF  FF2,F
13BF2:  MOVLW  0A
13BF4:  MOVLB  7
13BF6:  MOVWF  xC1
13BF8:  MOVLB  0
13BFA:  CALL   184E
....................             write_eeprom(281,timpresion);delay_ms(10); 
13BFE:  MOVLW  01
13C00:  MOVWF  FAA
13C02:  MOVLW  19
13C04:  MOVWF  FA9
13C06:  MOVFF  595,FA8
13C0A:  BCF    FA6.6
13C0C:  BCF    FA6.7
13C0E:  BSF    FA6.2
13C10:  MOVF   FF2,W
13C12:  MOVWF  00
13C14:  BCF    FF2.7
13C16:  MOVLB  F
13C18:  MOVLW  55
13C1A:  MOVWF  FA7
13C1C:  MOVLW  AA
13C1E:  MOVWF  FA7
13C20:  BSF    FA6.1
13C22:  BTFSC  FA6.1
13C24:  GOTO   13C22
13C28:  BCF    FA6.2
13C2A:  MOVF   00,W
13C2C:  IORWF  FF2,F
13C2E:  MOVLW  0A
13C30:  MOVLB  7
13C32:  MOVWF  xC1
13C34:  MOVLB  0
13C36:  CALL   184E
....................             CalculoImpresion=timpresion*60; 
13C3A:  MOVFF  596,7C0
13C3E:  MOVFF  595,7BF
13C42:  MOVLB  7
13C44:  CLRF   xC2
13C46:  MOVLW  3C
13C48:  MOVWF  xC1
13C4A:  MOVLB  0
13C4C:  CALL   37A2
13C50:  MOVFF  02,592
13C54:  MOVFF  01,591
13C58:  MOVLB  5
....................          }       
....................          
....................     } 
.................... //_--------------------------------------------------------------------------------------------------------------------------------------------------------        
....................  
.................... //_-------------------------------------------------------------------------------------------------------------------------------------------------------- 
....................       if(Menu>30 && Menu<36){ //Menu Editar Programa 01, Programa 02, Programa 03, Programa 04 y Programa 05 
13C5A:  MOVF   x72,W
13C5C:  SUBLW  1E
13C5E:  BTFSC  FD8.0
13C60:  GOTO   13F90
13C64:  MOVF   x72,W
13C66:  SUBLW  23
13C68:  BTFSS  FD8.0
13C6A:  GOTO   13F90
....................        
....................          if(Opcion>3){ 
13C6E:  MOVF   x79,W
13C70:  SUBLW  03
13C72:  BTFSC  FD8.0
13C74:  GOTO   13C88
....................             Opcion=1; 
13C78:  MOVLW  01
13C7A:  MOVWF  x79
....................             if(i<9){ 
13C7C:  MOVF   x74,W
13C7E:  SUBLW  08
13C80:  BTFSS  FD8.0
13C82:  GOTO   13C88
....................                i++;   
13C86:  INCF   x74,F
....................             } 
....................          } 
....................           
....................          if(Opcion<1){ 
13C88:  MOVF   x79,F
13C8A:  BTFSS  FD8.2
13C8C:  GOTO   13C9E
....................             if(i>0) 
13C90:  MOVF   x74,F
13C92:  BTFSC  FD8.2
13C94:  GOTO   13C9A
....................                i--; 
13C98:  DECF   x74,F
....................             Opcion=3; 
13C9A:  MOVLW  03
13C9C:  MOVWF  x79
....................          } 
....................           
....................          if(Menu==31) 
13C9E:  MOVF   x72,W
13CA0:  SUBLW  1F
13CA2:  BTFSS  FD8.2
13CA4:  GOTO   13CAC
....................             Programa=1; 
13CA8:  MOVLW  01
13CAA:  MOVWF  x70
....................           
....................          if(Menu==32) 
13CAC:  MOVF   x72,W
13CAE:  SUBLW  20
13CB0:  BTFSS  FD8.2
13CB2:  GOTO   13CBA
....................             Programa=2; 
13CB6:  MOVLW  02
13CB8:  MOVWF  x70
....................              
....................          if(Menu==33) 
13CBA:  MOVF   x72,W
13CBC:  SUBLW  21
13CBE:  BTFSS  FD8.2
13CC0:  GOTO   13CC8
....................             Programa=3; 
13CC4:  MOVLW  03
13CC6:  MOVWF  x70
....................              
....................          if(Menu==34) 
13CC8:  MOVF   x72,W
13CCA:  SUBLW  22
13CCC:  BTFSS  FD8.2
13CCE:  GOTO   13CD6
....................             Programa=4; 
13CD2:  MOVLW  04
13CD4:  MOVWF  x70
....................              
....................          if(Menu==35) 
13CD6:  MOVF   x72,W
13CD8:  SUBLW  23
13CDA:  BTFSS  FD8.2
13CDC:  GOTO   13CE4
....................             Programa=5;    
13CE0:  MOVLW  05
13CE2:  MOVWF  x70
....................           
....................          MuestraSegmento(Opcion,i,Programa); 
13CE4:  MOVFF  579,7BB
13CE8:  MOVFF  574,7BC
13CEC:  MOVFF  570,7BD
13CF0:  MOVLB  0
13CF2:  GOTO   590A
....................           
....................          if(RIGHT && LEFT){ 
13CF6:  BSF    F96.1
13CF8:  BTFSC  F84.1
13CFA:  GOTO   13F3A
13CFE:  BSF    F96.2
13D00:  BTFSC  F84.2
13D02:  GOTO   13F3A
....................             Buzz_on;Menu=5;Opcion=1;glcd_fillscreen(OFF);delay_ms(500);Buzz_off; 
13D06:  BSF    F8B.4
13D08:  BCF    F94.4
13D0A:  MOVLW  05
13D0C:  MOVLB  5
13D0E:  MOVWF  x72
13D10:  MOVLW  01
13D12:  MOVWF  x79
13D14:  MOVLB  7
13D16:  CLRF   xBC
13D18:  MOVLB  0
13D1A:  CALL   18CE
13D1E:  MOVLW  02
13D20:  MOVLB  7
13D22:  MOVWF  xBB
13D24:  MOVLW  FA
13D26:  MOVWF  xC1
13D28:  MOVLB  0
13D2A:  CALL   184E
13D2E:  MOVLB  7
13D30:  DECFSZ xBB,F
13D32:  BRA    13D24
13D34:  BCF    F8B.4
13D36:  BCF    F94.4
....................              
....................             for(i=0;i<10;i++){ 
13D38:  MOVLB  5
13D3A:  CLRF   x74
13D3C:  MOVF   x74,W
13D3E:  SUBLW  09
13D40:  BTFSS  FD8.0
13D42:  GOTO   13F38
....................                delay_ms(10);     
13D46:  MOVLW  0A
13D48:  MOVLB  7
13D4A:  MOVWF  xC1
13D4C:  MOVLB  0
13D4E:  CALL   184E
....................                write_eeprom((i*2)+(40*(Programa-1)),make8(Temperatura1[i+((Programa-1)*10)],0)); 
13D52:  BCF    FD8.0
13D54:  MOVLB  5
13D56:  RLCF   x74,W
13D58:  MOVLB  7
13D5A:  MOVWF  xBB
13D5C:  MOVLW  01
13D5E:  MOVLB  5
13D60:  SUBWF  x70,W
13D62:  MULLW  28
13D64:  MOVF   FF3,W
13D66:  MOVLB  7
13D68:  ADDWF  xBB,F
13D6A:  MOVLW  01
13D6C:  MOVLB  5
13D6E:  SUBWF  x70,W
13D70:  MULLW  0A
13D72:  MOVF   FF3,W
13D74:  ADDWF  x74,W
13D76:  MOVWF  00
13D78:  BCF    FD8.0
13D7A:  RLCF   00,F
13D7C:  MOVF   00,W
13D7E:  CLRF   03
13D80:  ADDLW  45
13D82:  MOVWF  FE9
13D84:  MOVLW  06
13D86:  ADDWFC 03,W
13D88:  MOVWF  FEA
13D8A:  MOVFF  FEC,7BD
13D8E:  MOVF   FED,F
13D90:  MOVFF  FEF,7BC
13D94:  MOVFF  7BC,7BE
13D98:  CLRF   FAA
13D9A:  MOVFF  7BB,FA9
13D9E:  MOVFF  7BE,FA8
13DA2:  BCF    FA6.6
13DA4:  BCF    FA6.7
13DA6:  BSF    FA6.2
13DA8:  MOVF   FF2,W
13DAA:  MOVWF  00
13DAC:  BCF    FF2.7
13DAE:  MOVLB  F
13DB0:  MOVLW  55
13DB2:  MOVWF  FA7
13DB4:  MOVLW  AA
13DB6:  MOVWF  FA7
13DB8:  BSF    FA6.1
13DBA:  BTFSC  FA6.1
13DBC:  GOTO   13DBA
13DC0:  BCF    FA6.2
13DC2:  MOVF   00,W
13DC4:  IORWF  FF2,F
....................                delay_ms(10);     
13DC6:  MOVLW  0A
13DC8:  MOVLB  7
13DCA:  MOVWF  xC1
13DCC:  MOVLB  0
13DCE:  CALL   184E
....................                write_eeprom((i*2)+1+(40*(Programa-1)),make8(Temperatura1[i+((Programa-1)*10)],1)); 
13DD2:  BCF    FD8.0
13DD4:  MOVLB  5
13DD6:  RLCF   x74,W
13DD8:  ADDLW  01
13DDA:  MOVLB  7
13DDC:  MOVWF  xBB
13DDE:  MOVLW  01
13DE0:  MOVLB  5
13DE2:  SUBWF  x70,W
13DE4:  MULLW  28
13DE6:  MOVF   FF3,W
13DE8:  MOVLB  7
13DEA:  ADDWF  xBB,F
13DEC:  MOVLW  01
13DEE:  MOVLB  5
13DF0:  SUBWF  x70,W
13DF2:  MULLW  0A
13DF4:  MOVF   FF3,W
13DF6:  ADDWF  x74,W
13DF8:  MOVWF  00
13DFA:  BCF    FD8.0
13DFC:  RLCF   00,F
13DFE:  MOVF   00,W
13E00:  CLRF   03
13E02:  ADDLW  45
13E04:  MOVWF  FE9
13E06:  MOVLW  06
13E08:  ADDWFC 03,W
13E0A:  MOVWF  FEA
13E0C:  MOVFF  FEC,7BD
13E10:  MOVF   FED,F
13E12:  MOVFF  FEF,7BC
13E16:  MOVFF  7BD,7BE
13E1A:  CLRF   FAA
13E1C:  MOVFF  7BB,FA9
13E20:  MOVFF  7BE,FA8
13E24:  BCF    FA6.6
13E26:  BCF    FA6.7
13E28:  BSF    FA6.2
13E2A:  MOVF   FF2,W
13E2C:  MOVWF  00
13E2E:  BCF    FF2.7
13E30:  MOVLB  F
13E32:  MOVLW  55
13E34:  MOVWF  FA7
13E36:  MOVLW  AA
13E38:  MOVWF  FA7
13E3A:  BSF    FA6.1
13E3C:  BTFSC  FA6.1
13E3E:  GOTO   13E3C
13E42:  BCF    FA6.2
13E44:  MOVF   00,W
13E46:  IORWF  FF2,F
....................                delay_ms(10);     
13E48:  MOVLW  0A
13E4A:  MOVLB  7
13E4C:  MOVWF  xC1
13E4E:  MOVLB  0
13E50:  CALL   184E
....................                write_eeprom(i+((40*Programa)-20),Horas1[i+((Programa-1)*10)]); 
13E54:  MOVLB  5
13E56:  MOVF   x70,W
13E58:  MULLW  28
13E5A:  MOVF   FF3,W
13E5C:  ADDLW  EC
13E5E:  ADDWF  x74,W
13E60:  MOVLB  7
13E62:  MOVWF  xBB
13E64:  MOVLW  01
13E66:  MOVLB  5
13E68:  SUBWF  x70,W
13E6A:  MULLW  0A
13E6C:  MOVF   FF3,W
13E6E:  ADDWF  x74,W
13E70:  MOVWF  00
13E72:  BCF    FD8.0
13E74:  RLCF   00,F
13E76:  MOVF   00,W
13E78:  CLRF   03
13E7A:  ADDLW  A9
13E7C:  MOVWF  FE9
13E7E:  MOVLW  06
13E80:  ADDWFC 03,W
13E82:  MOVWF  FEA
13E84:  MOVFF  FEC,7BD
13E88:  MOVF   FED,F
13E8A:  MOVFF  FEF,7BC
13E8E:  CLRF   FAA
13E90:  MOVFF  7BB,FA9
13E94:  MOVFF  7BC,FA8
13E98:  BCF    FA6.6
13E9A:  BCF    FA6.7
13E9C:  BSF    FA6.2
13E9E:  MOVF   FF2,W
13EA0:  MOVWF  00
13EA2:  BCF    FF2.7
13EA4:  MOVLB  F
13EA6:  MOVLW  55
13EA8:  MOVWF  FA7
13EAA:  MOVLW  AA
13EAC:  MOVWF  FA7
13EAE:  BSF    FA6.1
13EB0:  BTFSC  FA6.1
13EB2:  GOTO   13EB0
13EB6:  BCF    FA6.2
13EB8:  MOVF   00,W
13EBA:  IORWF  FF2,F
....................                delay_ms(10);     
13EBC:  MOVLW  0A
13EBE:  MOVLB  7
13EC0:  MOVWF  xC1
13EC2:  MOVLB  0
13EC4:  CALL   184E
....................                write_eeprom(i+((40*Programa)-10),Minutos1[i+((Programa-1)*10)]); 
13EC8:  MOVLB  5
13ECA:  MOVF   x70,W
13ECC:  MULLW  28
13ECE:  MOVF   FF3,W
13ED0:  ADDLW  F6
13ED2:  ADDWF  x74,W
13ED4:  MOVLB  7
13ED6:  MOVWF  xBB
13ED8:  MOVLW  01
13EDA:  MOVLB  5
13EDC:  SUBWF  x70,W
13EDE:  MULLW  0A
13EE0:  MOVF   FF3,W
13EE2:  ADDWF  x74,W
13EE4:  MOVWF  00
13EE6:  BCF    FD8.0
13EE8:  RLCF   00,F
13EEA:  MOVF   00,W
13EEC:  CLRF   03
13EEE:  ADDLW  0D
13EF0:  MOVWF  FE9
13EF2:  MOVLW  07
13EF4:  ADDWFC 03,W
13EF6:  MOVWF  FEA
13EF8:  MOVFF  FEC,7BD
13EFC:  MOVF   FED,F
13EFE:  MOVFF  FEF,7BC
13F02:  CLRF   FAA
13F04:  MOVFF  7BB,FA9
13F08:  MOVFF  7BC,FA8
13F0C:  BCF    FA6.6
13F0E:  BCF    FA6.7
13F10:  BSF    FA6.2
13F12:  MOVF   FF2,W
13F14:  MOVWF  00
13F16:  BCF    FF2.7
13F18:  MOVLB  F
13F1A:  MOVLW  55
13F1C:  MOVWF  FA7
13F1E:  MOVLW  AA
13F20:  MOVWF  FA7
13F22:  BSF    FA6.1
13F24:  BTFSC  FA6.1
13F26:  GOTO   13F24
13F2A:  BCF    FA6.2
13F2C:  MOVF   00,W
13F2E:  IORWF  FF2,F
....................             }  
13F30:  MOVLB  5
13F32:  INCF   x74,F
13F34:  GOTO   13D3C
13F38:  MOVLB  0
....................          } 
....................           
....................          if(RIGHT)//Si oprime SET 
13F3A:  BSF    F96.1
13F3C:  BTFSC  F84.1
13F3E:  GOTO   13F64
....................          {  
....................             Buzz_on;delay_ms(50);Opcion++;glcd_fillscreen(OFF);Buzz_off; 
13F42:  BSF    F8B.4
13F44:  BCF    F94.4
13F46:  MOVLW  32
13F48:  MOVLB  7
13F4A:  MOVWF  xC1
13F4C:  MOVLB  0
13F4E:  CALL   184E
13F52:  MOVLB  5
13F54:  INCF   x79,F
13F56:  MOVLB  7
13F58:  CLRF   xBC
13F5A:  MOVLB  0
13F5C:  CALL   18CE
13F60:  BCF    F8B.4
13F62:  BCF    F94.4
....................          } 
....................           
....................          if(LEFT){ 
13F64:  BSF    F96.2
13F66:  BTFSC  F84.2
13F68:  GOTO   13F8E
....................             Buzz_on;delay_ms(50);Opcion--;glcd_fillscreen(OFF);Buzz_off; 
13F6C:  BSF    F8B.4
13F6E:  BCF    F94.4
13F70:  MOVLW  32
13F72:  MOVLB  7
13F74:  MOVWF  xC1
13F76:  MOVLB  0
13F78:  CALL   184E
13F7C:  MOVLB  5
13F7E:  DECF   x79,F
13F80:  MOVLB  7
13F82:  CLRF   xBC
13F84:  MOVLB  0
13F86:  CALL   18CE
13F8A:  BCF    F8B.4
13F8C:  BCF    F94.4
13F8E:  MOVLB  5
....................          } 
....................    } 
.................... //_--------------------------------------------------------------------------------------------------------------------------------------------------------        
....................  
.................... //_-------------------------------------------------------------------------------------------------------------------------------------------------------- 
....................       if(Menu==20){ //Menu de Funcionamiento 
13F90:  MOVF   x72,W
13F92:  SUBLW  14
13F94:  BTFSS  FD8.2
13F96:  GOTO   15FE0
....................        
....................       if(flagImprime && ActivaImpresion==1){ 
13F9A:  BTFSS  x5F.4
13F9C:  GOTO   14052
13FA0:  BTFSS  x5F.3
13FA2:  GOTO   14052
....................          fprintf(printer,"  %02u:%02u    %03.1fC  %u\n",Hora,Minuto,Temperatura,Segmento); 
13FA6:  MOVLW  20
13FA8:  BTFSS  F9E.4
13FAA:  GOTO   13FA8
13FAE:  MOVWF  FAD
13FB0:  MOVLW  20
13FB2:  BTFSS  F9E.4
13FB4:  GOTO   13FB2
13FB8:  MOVWF  FAD
13FBA:  MOVFF  774,7BC
13FBE:  MOVLW  01
13FC0:  MOVLB  7
13FC2:  MOVWF  xBD
13FC4:  MOVLB  0
13FC6:  CALL   3C68
13FCA:  MOVLW  3A
13FCC:  BTFSS  F9E.4
13FCE:  GOTO   13FCC
13FD2:  MOVWF  FAD
13FD4:  MOVFF  775,7BC
13FD8:  MOVLW  01
13FDA:  MOVLB  7
13FDC:  MOVWF  xBD
13FDE:  MOVLB  0
13FE0:  CALL   3C68
13FE4:  MOVLW  DF
13FE6:  MOVWF  FF6
13FE8:  MOVLW  17
13FEA:  MOVWF  FF7
13FEC:  MOVLW  00
13FEE:  MOVWF  FF8
13FF0:  MOVLW  04
13FF2:  MOVLB  7
13FF4:  MOVWF  xBC
13FF6:  MOVLB  0
13FF8:  CALL   3C36
13FFC:  MOVLW  42
13FFE:  MOVWF  FE9
14000:  MOVFF  60C,7BE
14004:  MOVFF  60B,7BD
14008:  MOVFF  60A,7BC
1400C:  MOVFF  609,7BB
14010:  MOVLW  01
14012:  MOVLB  7
14014:  MOVWF  xBF
14016:  MOVLB  0
14018:  CALL   4CFE
1401C:  MOVLW  E9
1401E:  MOVWF  FF6
14020:  MOVLW  17
14022:  MOVWF  FF7
14024:  MOVLW  00
14026:  MOVWF  FF8
14028:  MOVLW  04
1402A:  MOVLB  7
1402C:  MOVWF  xBC
1402E:  MOVLB  0
14030:  CALL   3C36
14034:  MOVFF  56B,7BC
14038:  MOVLW  1B
1403A:  MOVLB  7
1403C:  MOVWF  xBD
1403E:  MOVLB  0
14040:  CALL   3C68
14044:  MOVLW  0A
14046:  BTFSS  F9E.4
14048:  GOTO   14046
1404C:  MOVWF  FAD
....................          flagImprime=0; 
1404E:  MOVLB  5
14050:  BCF    x5F.4
....................       } 
....................       // Muestra imagen de fondo en Display GLCD       
....................       glcd_imagen(5); 
14052:  MOVLW  05
14054:  MOVLB  7
14056:  MOVWF  xBB
14058:  MOVLB  0
1405A:  GOTO   656E
....................       //flag_display=0; 
....................  
....................       if(UP && DOWN)//Si oprime hacia abajo 
1405E:  BSF    F92.5
14060:  BTFSC  F80.5
14062:  GOTO   1408A
14066:  BSF    F96.0
14068:  BTFSC  F84.0
1406A:  GOTO   1408A
....................       { 
....................          glcd_init(ON);delay_ms(200);flag_display=!flag_display;          
1406E:  MOVLW  01
14070:  MOVLB  7
14072:  MOVWF  xBB
14074:  MOVLB  0
14076:  CALL   19E0
1407A:  MOVLW  C8
1407C:  MOVLB  7
1407E:  MOVWF  xC1
14080:  MOVLB  0
14082:  CALL   184E
14086:  MOVLB  5
14088:  BTG    x6D.5
....................       } 
....................  
....................       if(Temperatura>1250 || Temperatura<0) 
1408A:  MOVLB  7
1408C:  CLRF   xBE
1408E:  MOVLW  40
14090:  MOVWF  xBD
14092:  MOVLW  1C
14094:  MOVWF  xBC
14096:  MOVLW  89
14098:  MOVWF  xBB
1409A:  MOVFF  60C,7C2
1409E:  MOVFF  60B,7C1
140A2:  MOVFF  60A,7C0
140A6:  MOVFF  609,7BF
140AA:  MOVLB  0
140AC:  CALL   223A
140B0:  BTFSC  FD8.0
140B2:  GOTO   140DC
140B6:  MOVFF  60C,7BE
140BA:  MOVFF  60B,7BD
140BE:  MOVFF  60A,7BC
140C2:  MOVFF  609,7BB
140C6:  MOVLB  7
140C8:  CLRF   xC2
140CA:  CLRF   xC1
140CC:  CLRF   xC0
140CE:  CLRF   xBF
140D0:  MOVLB  0
140D2:  CALL   223A
140D6:  BTFSS  FD8.0
140D8:  GOTO   14182
....................       { 
....................          glcd_rect(0, 55, 127, 63, YES, OFF); 
140DC:  MOVLB  7
140DE:  CLRF   xD3
140E0:  MOVLW  37
140E2:  MOVWF  xD4
140E4:  MOVLW  7F
140E6:  MOVWF  xD5
140E8:  MOVLW  3F
140EA:  MOVWF  xD6
140EC:  MOVLW  01
140EE:  MOVWF  xD7
140F0:  CLRF   xD8
140F2:  MOVLB  0
140F4:  CALL   1E3A
....................          strcpy(Menus.Letra,"Status:Sensor Descon."); 
140F8:  MOVLW  07
140FA:  MOVWF  FEA
140FC:  MOVLW  9B
140FE:  MOVWF  FE9
14100:  MOVFF  FF2,7BB
14104:  BCF    FF2.7
14106:  MOVLW  00
14108:  CALL   0FDA
1410C:  TBLRD*-
1410E:  TBLRD*+
14110:  MOVF   FF5,W
14112:  MOVWF  FEE
14114:  IORLW  00
14116:  BTFSS  FD8.2
14118:  GOTO   1410E
1411C:  MOVLB  7
1411E:  BTFSC  xBB.7
14120:  BSF    FF2.7
....................          displayMenu(Menus.Letra,0,55,2,1); 
14122:  MOVLW  07
14124:  MOVWF  xBF
14126:  MOVLW  9B
14128:  MOVWF  xBE
1412A:  CLRF   xC0
1412C:  MOVLW  37
1412E:  MOVWF  xC1
14130:  MOVLW  02
14132:  MOVWF  xC2
14134:  MOVLW  01
14136:  MOVWF  xC3
14138:  MOVLB  0
1413A:  CALL   1EFC
....................          tiempo_esterilizacion=0; 
1413E:  MOVLB  5
14140:  CLRF   x7A
....................          Resistencia_off; 
14142:  BCF    F8B.0
14144:  BCF    F94.0
....................          Tpulso=0.0; 
14146:  CLRF   xDC
14148:  CLRF   xDB
1414A:  CLRF   xDA
1414C:  CLRF   xD9
....................          flag_tiempocalentamiento=0; 
1414E:  BCF    x6D.4
....................          Buzz_on; 
14150:  BSF    F8B.4
14152:  BCF    F94.4
....................          delay_ms(500); 
14154:  MOVLW  02
14156:  MOVLB  7
14158:  MOVWF  xBB
1415A:  MOVLW  FA
1415C:  MOVWF  xC1
1415E:  MOVLB  0
14160:  CALL   184E
14164:  MOVLB  7
14166:  DECFSZ xBB,F
14168:  BRA    1415A
....................          Buzz_off; 
1416A:  BCF    F8B.4
1416C:  BCF    F94.4
....................          delay_ms(250); 
1416E:  MOVLW  FA
14170:  MOVWF  xC1
14172:  MOVLB  0
14174:  CALL   184E
....................          Control=0; 
14178:  MOVLB  5
1417A:  CLRF   x71
....................       } 
....................       else 
1417C:  GOTO   14836
14180:  MOVLB  0
....................       { 
....................           
....................          if(Pausa==0 && !DOOR) 
14182:  MOVLB  5
14184:  MOVF   x76,F
14186:  BTFSS  FD8.2
14188:  GOTO   14536
1418C:  BSF    F92.4
1418E:  BTFSC  F80.4
14190:  GOTO   14536
....................          { 
....................             Control=1; 
14194:  MOVLW  01
14196:  MOVWF  x71
....................              
....................             if(Temperatura>Setpoint+AlTem && AlTem>0){ 
14198:  BCF    FD8.1
1419A:  MOVFF  618,7CA
1419E:  MOVFF  617,7C9
141A2:  MOVFF  616,7C8
141A6:  MOVFF  615,7C7
141AA:  MOVFF  600,7CE
141AE:  MOVFF  5FF,7CD
141B2:  MOVFF  5FE,7CC
141B6:  MOVFF  5FD,7CB
141BA:  MOVLB  0
141BC:  CALL   2412
141C0:  MOVFF  03,7BE
141C4:  MOVFF  02,7BD
141C8:  MOVFF  01,7BC
141CC:  MOVFF  00,7BB
141D0:  MOVFF  60C,7C2
141D4:  MOVFF  60B,7C1
141D8:  MOVFF  60A,7C0
141DC:  MOVFF  609,7BF
141E0:  CALL   223A
141E4:  BTFSS  FD8.0
141E6:  GOTO   1421C
141EA:  MOVLB  7
141EC:  CLRF   xBE
141EE:  CLRF   xBD
141F0:  CLRF   xBC
141F2:  CLRF   xBB
141F4:  MOVFF  600,7C2
141F8:  MOVFF  5FF,7C1
141FC:  MOVFF  5FE,7C0
14200:  MOVFF  5FD,7BF
14204:  MOVLB  0
14206:  CALL   223A
1420A:  BTFSS  FD8.0
1420C:  GOTO   1421C
....................                Alarma=5; 
14210:  MOVLW  05
14212:  MOVLB  5
14214:  MOVWF  x7C
....................             }else{   
14216:  GOTO   14536
1421A:  MOVLB  0
....................                Alarma=10; 
1421C:  MOVLW  0A
1421E:  MOVLB  5
14220:  MOVWF  x7C
....................                if((Temperatura>=Setpoint-10) && (Temperatura<Setpoint+50)) 
14222:  BSF    FD8.1
14224:  MOVFF  618,7CA
14228:  MOVFF  617,7C9
1422C:  MOVFF  616,7C8
14230:  MOVFF  615,7C7
14234:  MOVLB  7
14236:  CLRF   xCE
14238:  CLRF   xCD
1423A:  MOVLW  20
1423C:  MOVWF  xCC
1423E:  MOVLW  82
14240:  MOVWF  xCB
14242:  MOVLB  0
14244:  CALL   2412
14248:  MOVFF  03,7BE
1424C:  MOVFF  02,7BD
14250:  MOVFF  01,7BC
14254:  MOVFF  00,7BB
14258:  MOVFF  60C,7C2
1425C:  MOVFF  60B,7C1
14260:  MOVFF  60A,7C0
14264:  MOVFF  609,7BF
14268:  CALL   223A
1426C:  BTFSC  FD8.0
1426E:  GOTO   14278
14272:  BTFSS  FD8.2
14274:  GOTO   14404
14278:  BCF    FD8.1
1427A:  MOVFF  618,7CA
1427E:  MOVFF  617,7C9
14282:  MOVFF  616,7C8
14286:  MOVFF  615,7C7
1428A:  MOVLB  7
1428C:  CLRF   xCE
1428E:  CLRF   xCD
14290:  MOVLW  48
14292:  MOVWF  xCC
14294:  MOVLW  84
14296:  MOVWF  xCB
14298:  MOVLB  0
1429A:  CALL   2412
1429E:  MOVFF  60C,7BE
142A2:  MOVFF  60B,7BD
142A6:  MOVFF  60A,7BC
142AA:  MOVFF  609,7BB
142AE:  MOVFF  03,7C2
142B2:  MOVFF  02,7C1
142B6:  MOVFF  01,7C0
142BA:  MOVFF  00,7BF
142BE:  CALL   223A
142C2:  BTFSS  FD8.0
142C4:  GOTO   14404
....................                { 
....................                   if(Pendiente!=0){ 
142C8:  MOVFF  610,7BE
142CC:  MOVFF  60F,7BD
142D0:  MOVFF  60E,7BC
142D4:  MOVFF  60D,7BB
142D8:  MOVLB  7
142DA:  CLRF   xC2
142DC:  CLRF   xC1
142DE:  CLRF   xC0
142E0:  CLRF   xBF
142E2:  MOVLB  0
142E4:  CALL   223A
142E8:  BTFSC  FD8.2
142EA:  GOTO   1435C
....................                      tiempo_esterilizacion=1; 
142EE:  MOVLW  01
142F0:  MOVLB  5
142F2:  MOVWF  x7A
....................                      if(flag_display==0){ 
142F4:  BTFSC  x6D.5
142F6:  GOTO   1435E
....................                         glcd_rect(0, 55, 127, 63, YES, OFF); 
142FA:  MOVLB  7
142FC:  CLRF   xD3
142FE:  MOVLW  37
14300:  MOVWF  xD4
14302:  MOVLW  7F
14304:  MOVWF  xD5
14306:  MOVLW  3F
14308:  MOVWF  xD6
1430A:  MOVLW  01
1430C:  MOVWF  xD7
1430E:  CLRF   xD8
14310:  MOVLB  0
14312:  CALL   1E3A
....................                         strcpy(Menus.Letra,"Status:Controlando"); 
14316:  MOVLW  07
14318:  MOVWF  FEA
1431A:  MOVLW  9B
1431C:  MOVWF  FE9
1431E:  MOVFF  FF2,7BB
14322:  BCF    FF2.7
14324:  MOVLW  00
14326:  CALL   100E
1432A:  TBLRD*-
1432C:  TBLRD*+
1432E:  MOVF   FF5,W
14330:  MOVWF  FEE
14332:  IORLW  00
14334:  BTFSS  FD8.2
14336:  GOTO   1432C
1433A:  MOVLB  7
1433C:  BTFSC  xBB.7
1433E:  BSF    FF2.7
....................                         displayMenu(Menus.Letra,0,55,2,1); 
14340:  MOVLW  07
14342:  MOVWF  xBF
14344:  MOVLW  9B
14346:  MOVWF  xBE
14348:  CLRF   xC0
1434A:  MOVLW  37
1434C:  MOVWF  xC1
1434E:  MOVLW  02
14350:  MOVWF  xC2
14352:  MOVLW  01
14354:  MOVWF  xC3
14356:  MOVLB  0
14358:  CALL   1EFC
1435C:  MOVLB  5
....................                      } 
....................                   } 
....................                    
....................                   if(Pendiente==0){ 
1435E:  MOVFF  610,7BE
14362:  MOVFF  60F,7BD
14366:  MOVFF  60E,7BC
1436A:  MOVFF  60D,7BB
1436E:  MOVLB  7
14370:  CLRF   xC2
14372:  CLRF   xC1
14374:  CLRF   xC0
14376:  CLRF   xBF
14378:  MOVLB  0
1437A:  CALL   223A
1437E:  BTFSS  FD8.2
14380:  GOTO   143F6
....................                      if(flag_display==0){ 
14384:  MOVLB  5
14386:  BTFSC  x6D.5
14388:  GOTO   143F0
....................                         glcd_rect(0, 55, 127, 63, YES, OFF); 
1438C:  MOVLB  7
1438E:  CLRF   xD3
14390:  MOVLW  37
14392:  MOVWF  xD4
14394:  MOVLW  7F
14396:  MOVWF  xD5
14398:  MOVLW  3F
1439A:  MOVWF  xD6
1439C:  MOVLW  01
1439E:  MOVWF  xD7
143A0:  CLRF   xD8
143A2:  MOVLB  0
143A4:  CALL   1E3A
....................                         strcpy(Menus.Letra,"Status:Meseta  "); 
143A8:  MOVLW  07
143AA:  MOVWF  FEA
143AC:  MOVLW  9B
143AE:  MOVWF  FE9
143B0:  MOVFF  FF2,7BB
143B4:  BCF    FF2.7
143B6:  MOVLW  00
143B8:  CALL   1040
143BC:  TBLRD*-
143BE:  TBLRD*+
143C0:  MOVF   FF5,W
143C2:  MOVWF  FEE
143C4:  IORLW  00
143C6:  BTFSS  FD8.2
143C8:  GOTO   143BE
143CC:  MOVLB  7
143CE:  BTFSC  xBB.7
143D0:  BSF    FF2.7
....................                         displayMenu(Menus.Letra,0,55,2,1); 
143D2:  MOVLW  07
143D4:  MOVWF  xBF
143D6:  MOVLW  9B
143D8:  MOVWF  xBE
143DA:  CLRF   xC0
143DC:  MOVLW  37
143DE:  MOVWF  xC1
143E0:  MOVLW  02
143E2:  MOVWF  xC2
143E4:  MOVLW  01
143E6:  MOVWF  xC3
143E8:  MOVLB  0
143EA:  CALL   1EFC
143EE:  MOVLB  5
....................                      } 
....................                      tiempo_esterilizacion=2; 
143F0:  MOVLW  02
143F2:  MOVWF  x7A
143F4:  MOVLB  0
....................                   } 
....................                   Controla(); 
143F6:  CALL   6936
....................                   flag_tiempocalentamiento=0; 
143FA:  MOVLB  5
143FC:  BCF    x6D.4
....................                } 
....................                else 
143FE:  GOTO   14536
14402:  MOVLB  0
....................                { 
....................                   if(Pendiente!=0){ 
14404:  MOVFF  610,7BE
14408:  MOVFF  60F,7BD
1440C:  MOVFF  60E,7BC
14410:  MOVFF  60D,7BB
14414:  MOVLB  7
14416:  CLRF   xC2
14418:  CLRF   xC1
1441A:  CLRF   xC0
1441C:  CLRF   xBF
1441E:  MOVLB  0
14420:  CALL   223A
14424:  BTFSC  FD8.2
14426:  GOTO   14498
....................                      tiempo_esterilizacion=1; 
1442A:  MOVLW  01
1442C:  MOVLB  5
1442E:  MOVWF  x7A
....................                      if(flag_display==0){ 
14430:  BTFSC  x6D.5
14432:  GOTO   1449A
....................                         glcd_rect(0, 55, 127, 63, YES, OFF); 
14436:  MOVLB  7
14438:  CLRF   xD3
1443A:  MOVLW  37
1443C:  MOVWF  xD4
1443E:  MOVLW  7F
14440:  MOVWF  xD5
14442:  MOVLW  3F
14444:  MOVWF  xD6
14446:  MOVLW  01
14448:  MOVWF  xD7
1444A:  CLRF   xD8
1444C:  MOVLB  0
1444E:  CALL   1E3A
....................                         strcpy(Menus.Letra,"Status:Rampa  "); 
14452:  MOVLW  07
14454:  MOVWF  FEA
14456:  MOVLW  9B
14458:  MOVWF  FE9
1445A:  MOVFF  FF2,7BB
1445E:  BCF    FF2.7
14460:  MOVLW  00
14462:  CALL   106E
14466:  TBLRD*-
14468:  TBLRD*+
1446A:  MOVF   FF5,W
1446C:  MOVWF  FEE
1446E:  IORLW  00
14470:  BTFSS  FD8.2
14472:  GOTO   14468
14476:  MOVLB  7
14478:  BTFSC  xBB.7
1447A:  BSF    FF2.7
....................                         displayMenu(Menus.Letra,0,55,2,1); 
1447C:  MOVLW  07
1447E:  MOVWF  xBF
14480:  MOVLW  9B
14482:  MOVWF  xBE
14484:  CLRF   xC0
14486:  MOVLW  37
14488:  MOVWF  xC1
1448A:  MOVLW  02
1448C:  MOVWF  xC2
1448E:  MOVLW  01
14490:  MOVWF  xC3
14492:  MOVLB  0
14494:  CALL   1EFC
14498:  MOVLB  5
....................                      } 
....................                   } 
....................                    
....................                   if(Pendiente==0){ 
1449A:  MOVFF  610,7BE
1449E:  MOVFF  60F,7BD
144A2:  MOVFF  60E,7BC
144A6:  MOVFF  60D,7BB
144AA:  MOVLB  7
144AC:  CLRF   xC2
144AE:  CLRF   xC1
144B0:  CLRF   xC0
144B2:  CLRF   xBF
144B4:  MOVLB  0
144B6:  CALL   223A
144BA:  BTFSS  FD8.2
144BC:  GOTO   14530
....................                      if(flag_display==0){ 
144C0:  MOVLB  5
144C2:  BTFSC  x6D.5
144C4:  GOTO   1452C
....................                         glcd_rect(0, 55, 127, 63, YES, OFF); 
144C8:  MOVLB  7
144CA:  CLRF   xD3
144CC:  MOVLW  37
144CE:  MOVWF  xD4
144D0:  MOVLW  7F
144D2:  MOVWF  xD5
144D4:  MOVLW  3F
144D6:  MOVWF  xD6
144D8:  MOVLW  01
144DA:  MOVWF  xD7
144DC:  CLRF   xD8
144DE:  MOVLB  0
144E0:  CALL   1E3A
....................                         strcpy(Menus.Letra,"Status:Calentando"); 
144E4:  MOVLW  07
144E6:  MOVWF  FEA
144E8:  MOVLW  9B
144EA:  MOVWF  FE9
144EC:  MOVFF  FF2,7BB
144F0:  BCF    FF2.7
144F2:  MOVLW  00
144F4:  CALL   109C
144F8:  TBLRD*-
144FA:  TBLRD*+
144FC:  MOVF   FF5,W
144FE:  MOVWF  FEE
14500:  IORLW  00
14502:  BTFSS  FD8.2
14504:  GOTO   144FA
14508:  MOVLB  7
1450A:  BTFSC  xBB.7
1450C:  BSF    FF2.7
....................                         displayMenu(Menus.Letra,0,55,2,1); 
1450E:  MOVLW  07
14510:  MOVWF  xBF
14512:  MOVLW  9B
14514:  MOVWF  xBE
14516:  CLRF   xC0
14518:  MOVLW  37
1451A:  MOVWF  xC1
1451C:  MOVLW  02
1451E:  MOVWF  xC2
14520:  MOVLW  01
14522:  MOVWF  xC3
14524:  MOVLB  0
14526:  CALL   1EFC
1452A:  MOVLB  5
....................                      } 
....................                      tiempo_esterilizacion=0; 
1452C:  CLRF   x7A
1452E:  MOVLB  0
....................                   } 
....................                   Controla(); 
14530:  CALL   6936
14534:  MOVLB  5
....................                } 
....................             } 
....................          } 
....................           
....................          if(Alarma==5){ 
14536:  MOVF   x7C,W
14538:  SUBLW  05
1453A:  BTFSS  FD8.2
1453C:  GOTO   14666
....................             Control=0;             
14540:  CLRF   x71
....................             flag_tiempocalentamiento=0; 
14542:  BCF    x6D.4
....................             tiempo_esterilizacion=0; 
14544:  CLRF   x7A
....................             Resistencia_off; 
14546:  BCF    F8B.0
14548:  BCF    F94.0
....................             if(flag_clear2==0) 
1454A:  BTFSC  x6D.3
1454C:  GOTO   145EA
....................             { 
....................                //Ganancia=read_eeprom(90); 
....................                //Ganancia=Setpoint*(Ganancia/Coeficiente); 
....................                //glcd_fillScreen(OFF); 
....................                Ganancia=GananciaIn*(Setpoint/Coeficiente); 
14550:  MOVFF  618,7C2
14554:  MOVFF  617,7C1
14558:  MOVFF  616,7C0
1455C:  MOVFF  615,7BF
14560:  MOVFF  5FC,7C6
14564:  MOVFF  5FB,7C5
14568:  MOVFF  5FA,7C4
1456C:  MOVFF  5F9,7C3
14570:  MOVLB  0
14572:  CALL   22B4
14576:  MOVFF  5F0,7DB
1457A:  MOVFF  5EF,7DA
1457E:  MOVFF  5EE,7D9
14582:  MOVFF  5ED,7D8
14586:  MOVFF  03,7DF
1458A:  MOVFF  02,7DE
1458E:  MOVFF  01,7DD
14592:  MOVFF  00,7DC
14596:  CALL   37C4
1459A:  MOVFF  03,5F4
1459E:  MOVFF  02,5F3
145A2:  MOVFF  01,5F2
145A6:  MOVFF  00,5F1
....................                glcd_fillScreen(OFF); 
145AA:  MOVLB  7
145AC:  CLRF   xBC
145AE:  MOVLB  0
145B0:  CALL   18CE
....................                glcd_init(ON); 
145B4:  MOVLW  01
145B6:  MOVLB  7
145B8:  MOVWF  xBB
145BA:  MOVLB  0
145BC:  CALL   19E0
....................                glcd_rect(0, 55, 127, 63, YES, OFF); 
145C0:  MOVLB  7
145C2:  CLRF   xD3
145C4:  MOVLW  37
145C6:  MOVWF  xD4
145C8:  MOVLW  7F
145CA:  MOVWF  xD5
145CC:  MOVLW  3F
145CE:  MOVWF  xD6
145D0:  MOVLW  01
145D2:  MOVWF  xD7
145D4:  CLRF   xD8
145D6:  MOVLB  0
145D8:  CALL   1E3A
....................                Tpulso=0.0; 
145DC:  MOVLB  5
145DE:  CLRF   xDC
145E0:  CLRF   xDB
145E2:  CLRF   xDA
145E4:  CLRF   xD9
....................                flag_clear2=1; 
145E6:  BSF    x6D.3
....................                flag_ganancia=0; 
145E8:  CLRF   x66
....................             } 
....................             strcpy(Menus.Letra,"Status:Sobre Temp"); 
145EA:  MOVLW  07
145EC:  MOVWF  FEA
145EE:  MOVLW  9B
145F0:  MOVWF  FE9
145F2:  MOVFF  FF2,7BB
145F6:  BCF    FF2.7
145F8:  MOVLW  00
145FA:  MOVLB  0
145FC:  CALL   10CC
14600:  TBLRD*-
14602:  TBLRD*+
14604:  MOVF   FF5,W
14606:  MOVWF  FEE
14608:  IORLW  00
1460A:  BTFSS  FD8.2
1460C:  GOTO   14602
14610:  MOVLB  7
14612:  BTFSC  xBB.7
14614:  BSF    FF2.7
....................             displayMenu(Menus.Letra,0,55,2,1); 
14616:  MOVLW  07
14618:  MOVWF  xBF
1461A:  MOVLW  9B
1461C:  MOVWF  xBE
1461E:  CLRF   xC0
14620:  MOVLW  37
14622:  MOVWF  xC1
14624:  MOVLW  02
14626:  MOVWF  xC2
14628:  MOVLW  01
1462A:  MOVWF  xC3
1462C:  MOVLB  0
1462E:  CALL   1EFC
....................             Buzz_on; 
14632:  BSF    F8B.4
14634:  BCF    F94.4
....................             delay_ms(1000); 
14636:  MOVLW  04
14638:  MOVLB  7
1463A:  MOVWF  xBB
1463C:  MOVLW  FA
1463E:  MOVWF  xC1
14640:  MOVLB  0
14642:  CALL   184E
14646:  MOVLB  7
14648:  DECFSZ xBB,F
1464A:  BRA    1463C
....................             Buzz_off; 
1464C:  BCF    F8B.4
1464E:  BCF    F94.4
....................             delay_ms(1000); 
14650:  MOVLW  04
14652:  MOVWF  xBB
14654:  MOVLW  FA
14656:  MOVWF  xC1
14658:  MOVLB  0
1465A:  CALL   184E
1465E:  MOVLB  7
14660:  DECFSZ xBB,F
14662:  BRA    14654
14664:  MOVLB  5
....................          } 
....................           
....................          if(Pausa==1 && !DOOR) 
14666:  DECFSZ x76,W
14668:  GOTO   146D0
1466C:  BSF    F92.4
1466E:  BTFSC  F80.4
14670:  GOTO   146D0
....................          { 
....................             flag_tiempocalentamiento=0; 
14674:  BCF    x6D.4
....................             strcpy(Menus.Letra,"Status:Pausado"); 
14676:  MOVLW  07
14678:  MOVWF  FEA
1467A:  MOVLW  9B
1467C:  MOVWF  FE9
1467E:  MOVFF  FF2,7BB
14682:  BCF    FF2.7
14684:  MOVLW  00
14686:  MOVLB  0
14688:  CALL   10FC
1468C:  TBLRD*-
1468E:  TBLRD*+
14690:  MOVF   FF5,W
14692:  MOVWF  FEE
14694:  IORLW  00
14696:  BTFSS  FD8.2
14698:  GOTO   1468E
1469C:  MOVLB  7
1469E:  BTFSC  xBB.7
146A0:  BSF    FF2.7
....................             displayMenu(Menus.Letra,0,55,2,1); 
146A2:  MOVLW  07
146A4:  MOVWF  xBF
146A6:  MOVLW  9B
146A8:  MOVWF  xBE
146AA:  CLRF   xC0
146AC:  MOVLW  37
146AE:  MOVWF  xC1
146B0:  MOVLW  02
146B2:  MOVWF  xC2
146B4:  MOVLW  01
146B6:  MOVWF  xC3
146B8:  MOVLB  0
146BA:  CALL   1EFC
....................             tiempo_esterilizacion=0; 
146BE:  MOVLB  5
146C0:  CLRF   x7A
....................             Control=0; 
146C2:  CLRF   x71
....................             Resistencia_off; 
146C4:  BCF    F8B.0
146C6:  BCF    F94.0
....................             Tpulso=0.0; 
146C8:  CLRF   xDC
146CA:  CLRF   xDB
146CC:  CLRF   xDA
146CE:  CLRF   xD9
....................          } 
....................           
....................          if(DOOR) 
146D0:  BSF    F92.4
146D2:  BTFSS  F80.4
146D4:  GOTO   14802
....................          { 
....................             Control=0;             
146D8:  CLRF   x71
....................             flag_tiempocalentamiento=0; 
146DA:  BCF    x6D.4
....................             tiempo_esterilizacion=0; 
146DC:  CLRF   x7A
....................             Resistencia_off; 
146DE:  BCF    F8B.0
146E0:  BCF    F94.0
....................             if(flag_clear2==0) 
146E2:  BTFSC  x6D.3
146E4:  GOTO   14782
....................             { 
....................                //Ganancia=read_eeprom(90); 
....................                //Ganancia=Setpoint*(Ganancia/Coeficiente); 
....................                //glcd_fillScreen(OFF); 
....................                Ganancia=GananciaIn*(Setpoint/Coeficiente); 
146E8:  MOVFF  618,7C2
146EC:  MOVFF  617,7C1
146F0:  MOVFF  616,7C0
146F4:  MOVFF  615,7BF
146F8:  MOVFF  5FC,7C6
146FC:  MOVFF  5FB,7C5
14700:  MOVFF  5FA,7C4
14704:  MOVFF  5F9,7C3
14708:  MOVLB  0
1470A:  CALL   22B4
1470E:  MOVFF  5F0,7DB
14712:  MOVFF  5EF,7DA
14716:  MOVFF  5EE,7D9
1471A:  MOVFF  5ED,7D8
1471E:  MOVFF  03,7DF
14722:  MOVFF  02,7DE
14726:  MOVFF  01,7DD
1472A:  MOVFF  00,7DC
1472E:  CALL   37C4
14732:  MOVFF  03,5F4
14736:  MOVFF  02,5F3
1473A:  MOVFF  01,5F2
1473E:  MOVFF  00,5F1
....................                glcd_fillScreen(OFF); 
14742:  MOVLB  7
14744:  CLRF   xBC
14746:  MOVLB  0
14748:  CALL   18CE
....................                glcd_init(ON); 
1474C:  MOVLW  01
1474E:  MOVLB  7
14750:  MOVWF  xBB
14752:  MOVLB  0
14754:  CALL   19E0
....................                glcd_rect(0, 55, 127, 63, YES, OFF); 
14758:  MOVLB  7
1475A:  CLRF   xD3
1475C:  MOVLW  37
1475E:  MOVWF  xD4
14760:  MOVLW  7F
14762:  MOVWF  xD5
14764:  MOVLW  3F
14766:  MOVWF  xD6
14768:  MOVLW  01
1476A:  MOVWF  xD7
1476C:  CLRF   xD8
1476E:  MOVLB  0
14770:  CALL   1E3A
....................                Tpulso=0.0; 
14774:  MOVLB  5
14776:  CLRF   xDC
14778:  CLRF   xDB
1477A:  CLRF   xDA
1477C:  CLRF   xD9
....................                flag_clear2=1; 
1477E:  BSF    x6D.3
....................                flag_ganancia=0; 
14780:  CLRF   x66
....................             } 
....................             strcpy(Menus.Letra,"Status:Puerta Abierta"); 
14782:  MOVLW  07
14784:  MOVWF  FEA
14786:  MOVLW  9B
14788:  MOVWF  FE9
1478A:  MOVFF  FF2,7BB
1478E:  BCF    FF2.7
14790:  MOVLW  00
14792:  MOVLB  0
14794:  CALL   112A
14798:  TBLRD*-
1479A:  TBLRD*+
1479C:  MOVF   FF5,W
1479E:  MOVWF  FEE
147A0:  IORLW  00
147A2:  BTFSS  FD8.2
147A4:  GOTO   1479A
147A8:  MOVLB  7
147AA:  BTFSC  xBB.7
147AC:  BSF    FF2.7
....................             displayMenu(Menus.Letra,0,55,2,1); 
147AE:  MOVLW  07
147B0:  MOVWF  xBF
147B2:  MOVLW  9B
147B4:  MOVWF  xBE
147B6:  CLRF   xC0
147B8:  MOVLW  37
147BA:  MOVWF  xC1
147BC:  MOVLW  02
147BE:  MOVWF  xC2
147C0:  MOVLW  01
147C2:  MOVWF  xC3
147C4:  MOVLB  0
147C6:  CALL   1EFC
....................             Buzz_on; 
147CA:  BSF    F8B.4
147CC:  BCF    F94.4
....................             delay_ms(1000); 
147CE:  MOVLW  04
147D0:  MOVLB  7
147D2:  MOVWF  xBB
147D4:  MOVLW  FA
147D6:  MOVWF  xC1
147D8:  MOVLB  0
147DA:  CALL   184E
147DE:  MOVLB  7
147E0:  DECFSZ xBB,F
147E2:  BRA    147D4
....................             Buzz_off; 
147E4:  BCF    F8B.4
147E6:  BCF    F94.4
....................             delay_ms(1000); 
147E8:  MOVLW  04
147EA:  MOVWF  xBB
147EC:  MOVLW  FA
147EE:  MOVWF  xC1
147F0:  MOVLB  0
147F2:  CALL   184E
147F6:  MOVLB  7
147F8:  DECFSZ xBB,F
147FA:  BRA    147EC
....................          } 
....................          else 
147FC:  GOTO   14838
14800:  MOVLB  5
....................          { 
....................             Buzz_off; 
14802:  BCF    F8B.4
14804:  BCF    F94.4
....................             if(flag_clear2==1){                
14806:  BTFSS  x6D.3
14808:  GOTO   14836
....................                glcd_fillScreen(OFF); 
1480C:  MOVLB  7
1480E:  CLRF   xBC
14810:  MOVLB  0
14812:  CALL   18CE
....................                glcd_rect(0, 55, 127, 63, YES, OFF); 
14816:  MOVLB  7
14818:  CLRF   xD3
1481A:  MOVLW  37
1481C:  MOVWF  xD4
1481E:  MOVLW  7F
14820:  MOVWF  xD5
14822:  MOVLW  3F
14824:  MOVWF  xD6
14826:  MOVLW  01
14828:  MOVWF  xD7
1482A:  CLRF   xD8
1482C:  MOVLB  0
1482E:  CALL   1E3A
....................                flag_clear2=0; 
14832:  MOVLB  5
14834:  BCF    x6D.3
14836:  MOVLB  7
....................             } 
....................          } 
....................       } 
....................        
....................       if(UP)//Si oprime hacia arriba 
14838:  BSF    F92.5
1483A:  BTFSC  F80.5
1483C:  GOTO   15554
....................       { 
....................          glcd_fillscreen(OFF); 
14840:  CLRF   xBC
14842:  MOVLB  0
14844:  CALL   18CE
....................                glcd_line(27,0,27,55,ON); 
14848:  MOVLW  1B
1484A:  MOVLB  7
1484C:  MOVWF  xDF
1484E:  CLRF   xE0
14850:  MOVWF  xE1
14852:  MOVLW  37
14854:  MOVWF  xE2
14856:  MOVLW  01
14858:  MOVWF  xE3
1485A:  MOVLB  0
1485C:  CALL   1CFC
....................                glcd_line(27,55,127,55,ON); 
14860:  MOVLW  1B
14862:  MOVLB  7
14864:  MOVWF  xDF
14866:  MOVLW  37
14868:  MOVWF  xE0
1486A:  MOVLW  7F
1486C:  MOVWF  xE1
1486E:  MOVLW  37
14870:  MOVWF  xE2
14872:  MOVLW  01
14874:  MOVWF  xE3
14876:  MOVLB  0
14878:  CALL   1CFC
....................                 
....................                strcpy(Menus.Letra,"Grafica Rampas");displayMenu(Menus.Letra,0,0,1,1);  
1487C:  MOVLW  07
1487E:  MOVWF  FEA
14880:  MOVLW  9B
14882:  MOVWF  FE9
14884:  MOVFF  FF2,7BB
14888:  BCF    FF2.7
1488A:  MOVLW  00
1488C:  CALL   115E
14890:  TBLRD*-
14892:  TBLRD*+
14894:  MOVF   FF5,W
14896:  MOVWF  FEE
14898:  IORLW  00
1489A:  BTFSS  FD8.2
1489C:  GOTO   14892
148A0:  MOVLB  7
148A2:  BTFSC  xBB.7
148A4:  BSF    FF2.7
148A6:  MOVLW  07
148A8:  MOVWF  xBF
148AA:  MOVLW  9B
148AC:  MOVWF  xBE
148AE:  CLRF   xC0
148B0:  CLRF   xC1
148B2:  MOVLW  01
148B4:  MOVWF  xC2
148B6:  MOVWF  xC3
148B8:  MOVLB  0
148BA:  CALL   1EFC
....................                 
....................                glcd_line(24,55-10,27,55-10,ON); 
148BE:  MOVLW  18
148C0:  MOVLB  7
148C2:  MOVWF  xDF
148C4:  MOVLW  2D
148C6:  MOVWF  xE0
148C8:  MOVLW  1B
148CA:  MOVWF  xE1
148CC:  MOVLW  2D
148CE:  MOVWF  xE2
148D0:  MOVLW  01
148D2:  MOVWF  xE3
148D4:  MOVLB  0
148D6:  CALL   1CFC
....................                strcpy(Menus.Letra,"300");displayMenu(Menus.Letra,0,55-15,2,1);  
148DA:  MOVLW  07
148DC:  MOVWF  FEA
148DE:  MOVLW  9B
148E0:  MOVWF  FE9
148E2:  MOVFF  FF2,7BB
148E6:  BCF    FF2.7
148E8:  MOVLW  00
148EA:  CALL   118C
148EE:  TBLRD*-
148F0:  TBLRD*+
148F2:  MOVF   FF5,W
148F4:  MOVWF  FEE
148F6:  IORLW  00
148F8:  BTFSS  FD8.2
148FA:  GOTO   148F0
148FE:  MOVLB  7
14900:  BTFSC  xBB.7
14902:  BSF    FF2.7
14904:  MOVLW  07
14906:  MOVWF  xBF
14908:  MOVLW  9B
1490A:  MOVWF  xBE
1490C:  CLRF   xC0
1490E:  MOVLW  28
14910:  MOVWF  xC1
14912:  MOVLW  02
14914:  MOVWF  xC2
14916:  MOVLW  01
14918:  MOVWF  xC3
1491A:  MOVLB  0
1491C:  CALL   1EFC
....................                glcd_line(24,55-20,27,55-20,ON); 
14920:  MOVLW  18
14922:  MOVLB  7
14924:  MOVWF  xDF
14926:  MOVLW  23
14928:  MOVWF  xE0
1492A:  MOVLW  1B
1492C:  MOVWF  xE1
1492E:  MOVLW  23
14930:  MOVWF  xE2
14932:  MOVLW  01
14934:  MOVWF  xE3
14936:  MOVLB  0
14938:  CALL   1CFC
....................                strcpy(Menus.Letra,"600");displayMenu(Menus.Letra,0,55-25,2,1);  
1493C:  MOVLW  07
1493E:  MOVWF  FEA
14940:  MOVLW  9B
14942:  MOVWF  FE9
14944:  MOVFF  FF2,7BB
14948:  BCF    FF2.7
1494A:  MOVLW  00
1494C:  CALL   11AE
14950:  TBLRD*-
14952:  TBLRD*+
14954:  MOVF   FF5,W
14956:  MOVWF  FEE
14958:  IORLW  00
1495A:  BTFSS  FD8.2
1495C:  GOTO   14952
14960:  MOVLB  7
14962:  BTFSC  xBB.7
14964:  BSF    FF2.7
14966:  MOVLW  07
14968:  MOVWF  xBF
1496A:  MOVLW  9B
1496C:  MOVWF  xBE
1496E:  CLRF   xC0
14970:  MOVLW  1E
14972:  MOVWF  xC1
14974:  MOVLW  02
14976:  MOVWF  xC2
14978:  MOVLW  01
1497A:  MOVWF  xC3
1497C:  MOVLB  0
1497E:  CALL   1EFC
....................                glcd_line(24,55-30,27,55-30,ON); 
14982:  MOVLW  18
14984:  MOVLB  7
14986:  MOVWF  xDF
14988:  MOVLW  19
1498A:  MOVWF  xE0
1498C:  MOVLW  1B
1498E:  MOVWF  xE1
14990:  MOVLW  19
14992:  MOVWF  xE2
14994:  MOVLW  01
14996:  MOVWF  xE3
14998:  MOVLB  0
1499A:  CALL   1CFC
....................                strcpy(Menus.Letra,"900");displayMenu(Menus.Letra,0,55-35,2,1); 
1499E:  MOVLW  07
149A0:  MOVWF  FEA
149A2:  MOVLW  9B
149A4:  MOVWF  FE9
149A6:  MOVFF  FF2,7BB
149AA:  BCF    FF2.7
149AC:  MOVLW  00
149AE:  CALL   11D0
149B2:  TBLRD*-
149B4:  TBLRD*+
149B6:  MOVF   FF5,W
149B8:  MOVWF  FEE
149BA:  IORLW  00
149BC:  BTFSS  FD8.2
149BE:  GOTO   149B4
149C2:  MOVLB  7
149C4:  BTFSC  xBB.7
149C6:  BSF    FF2.7
149C8:  MOVLW  07
149CA:  MOVWF  xBF
149CC:  MOVLW  9B
149CE:  MOVWF  xBE
149D0:  CLRF   xC0
149D2:  MOVLW  14
149D4:  MOVWF  xC1
149D6:  MOVLW  02
149D8:  MOVWF  xC2
149DA:  MOVLW  01
149DC:  MOVWF  xC3
149DE:  MOVLB  0
149E0:  CALL   1EFC
....................                glcd_line(24,55-40,27,55-40,ON); 
149E4:  MOVLW  18
149E6:  MOVLB  7
149E8:  MOVWF  xDF
149EA:  MOVLW  0F
149EC:  MOVWF  xE0
149EE:  MOVLW  1B
149F0:  MOVWF  xE1
149F2:  MOVLW  0F
149F4:  MOVWF  xE2
149F6:  MOVLW  01
149F8:  MOVWF  xE3
149FA:  MOVLB  0
149FC:  CALL   1CFC
....................                strcpy(Menus.Letra,"1200");displayMenu(Menus.Letra,0,55-45,2,1);  
14A00:  MOVLW  07
14A02:  MOVWF  FEA
14A04:  MOVLW  9B
14A06:  MOVWF  FE9
14A08:  MOVFF  FF2,7BB
14A0C:  BCF    FF2.7
14A0E:  MOVLW  00
14A10:  CALL   11F2
14A14:  TBLRD*-
14A16:  TBLRD*+
14A18:  MOVF   FF5,W
14A1A:  MOVWF  FEE
14A1C:  IORLW  00
14A1E:  BTFSS  FD8.2
14A20:  GOTO   14A16
14A24:  MOVLB  7
14A26:  BTFSC  xBB.7
14A28:  BSF    FF2.7
14A2A:  MOVLW  07
14A2C:  MOVWF  xBF
14A2E:  MOVLW  9B
14A30:  MOVWF  xBE
14A32:  CLRF   xC0
14A34:  MOVLW  0A
14A36:  MOVWF  xC1
14A38:  MOVLW  02
14A3A:  MOVWF  xC2
14A3C:  MOVLW  01
14A3E:  MOVWF  xC3
14A40:  MOVLB  0
14A42:  CALL   1EFC
....................                 
....................                if(Segmento==0){ 
14A46:  MOVLB  5
14A48:  MOVF   x6B,F
14A4A:  BTFSS  FD8.2
14A4C:  GOTO   14A9A
....................                   strcpy(Menus.Letra,"s0");displayMenu(Menus.Letra,16,56,1,1);} 
14A50:  MOVLW  07
14A52:  MOVWF  FEA
14A54:  MOVLW  9B
14A56:  MOVWF  FE9
14A58:  MOVFF  FF2,7BB
14A5C:  BCF    FF2.7
14A5E:  MOVLW  00
14A60:  MOVLB  0
14A62:  CALL   1216
14A66:  TBLRD*-
14A68:  TBLRD*+
14A6A:  MOVF   FF5,W
14A6C:  MOVWF  FEE
14A6E:  IORLW  00
14A70:  BTFSS  FD8.2
14A72:  GOTO   14A68
14A76:  MOVLB  7
14A78:  BTFSC  xBB.7
14A7A:  BSF    FF2.7
14A7C:  MOVLW  07
14A7E:  MOVWF  xBF
14A80:  MOVLW  9B
14A82:  MOVWF  xBE
14A84:  MOVLW  10
14A86:  MOVWF  xC0
14A88:  MOVLW  38
14A8A:  MOVWF  xC1
14A8C:  MOVLW  01
14A8E:  MOVWF  xC2
14A90:  MOVWF  xC3
14A92:  MOVLB  0
14A94:  CALL   1EFC
14A98:  MOVLB  5
....................                    
....................                if(Segmento==1){ 
14A9A:  DECFSZ x6B,W
14A9C:  GOTO   14AEA
....................                   strcpy(Menus.Letra,"s1");displayMenu(Menus.Letra,27,56,1,1);} 
14AA0:  MOVLW  07
14AA2:  MOVWF  FEA
14AA4:  MOVLW  9B
14AA6:  MOVWF  FE9
14AA8:  MOVFF  FF2,7BB
14AAC:  BCF    FF2.7
14AAE:  MOVLW  00
14AB0:  MOVLB  0
14AB2:  CALL   1238
14AB6:  TBLRD*-
14AB8:  TBLRD*+
14ABA:  MOVF   FF5,W
14ABC:  MOVWF  FEE
14ABE:  IORLW  00
14AC0:  BTFSS  FD8.2
14AC2:  GOTO   14AB8
14AC6:  MOVLB  7
14AC8:  BTFSC  xBB.7
14ACA:  BSF    FF2.7
14ACC:  MOVLW  07
14ACE:  MOVWF  xBF
14AD0:  MOVLW  9B
14AD2:  MOVWF  xBE
14AD4:  MOVLW  1B
14AD6:  MOVWF  xC0
14AD8:  MOVLW  38
14ADA:  MOVWF  xC1
14ADC:  MOVLW  01
14ADE:  MOVWF  xC2
14AE0:  MOVWF  xC3
14AE2:  MOVLB  0
14AE4:  CALL   1EFC
14AE8:  MOVLB  5
....................                    
....................                if(Segmento==2){ 
14AEA:  MOVF   x6B,W
14AEC:  SUBLW  02
14AEE:  BTFSS  FD8.2
14AF0:  GOTO   14B3E
....................                   strcpy(Menus.Letra,"s2");displayMenu(Menus.Letra,38,56,1,1);} 
14AF4:  MOVLW  07
14AF6:  MOVWF  FEA
14AF8:  MOVLW  9B
14AFA:  MOVWF  FE9
14AFC:  MOVFF  FF2,7BB
14B00:  BCF    FF2.7
14B02:  MOVLW  00
14B04:  MOVLB  0
14B06:  CALL   125A
14B0A:  TBLRD*-
14B0C:  TBLRD*+
14B0E:  MOVF   FF5,W
14B10:  MOVWF  FEE
14B12:  IORLW  00
14B14:  BTFSS  FD8.2
14B16:  GOTO   14B0C
14B1A:  MOVLB  7
14B1C:  BTFSC  xBB.7
14B1E:  BSF    FF2.7
14B20:  MOVLW  07
14B22:  MOVWF  xBF
14B24:  MOVLW  9B
14B26:  MOVWF  xBE
14B28:  MOVLW  26
14B2A:  MOVWF  xC0
14B2C:  MOVLW  38
14B2E:  MOVWF  xC1
14B30:  MOVLW  01
14B32:  MOVWF  xC2
14B34:  MOVWF  xC3
14B36:  MOVLB  0
14B38:  CALL   1EFC
14B3C:  MOVLB  5
....................                    
....................                if(Segmento==3){ 
14B3E:  MOVF   x6B,W
14B40:  SUBLW  03
14B42:  BTFSS  FD8.2
14B44:  GOTO   14B92
....................                   strcpy(Menus.Letra,"s3");displayMenu(Menus.Letra,49,56,1,1);} 
14B48:  MOVLW  07
14B4A:  MOVWF  FEA
14B4C:  MOVLW  9B
14B4E:  MOVWF  FE9
14B50:  MOVFF  FF2,7BB
14B54:  BCF    FF2.7
14B56:  MOVLW  00
14B58:  MOVLB  0
14B5A:  CALL   127C
14B5E:  TBLRD*-
14B60:  TBLRD*+
14B62:  MOVF   FF5,W
14B64:  MOVWF  FEE
14B66:  IORLW  00
14B68:  BTFSS  FD8.2
14B6A:  GOTO   14B60
14B6E:  MOVLB  7
14B70:  BTFSC  xBB.7
14B72:  BSF    FF2.7
14B74:  MOVLW  07
14B76:  MOVWF  xBF
14B78:  MOVLW  9B
14B7A:  MOVWF  xBE
14B7C:  MOVLW  31
14B7E:  MOVWF  xC0
14B80:  MOVLW  38
14B82:  MOVWF  xC1
14B84:  MOVLW  01
14B86:  MOVWF  xC2
14B88:  MOVWF  xC3
14B8A:  MOVLB  0
14B8C:  CALL   1EFC
14B90:  MOVLB  5
....................                    
....................                if(Segmento==4){ 
14B92:  MOVF   x6B,W
14B94:  SUBLW  04
14B96:  BTFSS  FD8.2
14B98:  GOTO   14BE6
....................                   strcpy(Menus.Letra,"s4");displayMenu(Menus.Letra,60,56,1,1);} 
14B9C:  MOVLW  07
14B9E:  MOVWF  FEA
14BA0:  MOVLW  9B
14BA2:  MOVWF  FE9
14BA4:  MOVFF  FF2,7BB
14BA8:  BCF    FF2.7
14BAA:  MOVLW  00
14BAC:  MOVLB  0
14BAE:  CALL   129E
14BB2:  TBLRD*-
14BB4:  TBLRD*+
14BB6:  MOVF   FF5,W
14BB8:  MOVWF  FEE
14BBA:  IORLW  00
14BBC:  BTFSS  FD8.2
14BBE:  GOTO   14BB4
14BC2:  MOVLB  7
14BC4:  BTFSC  xBB.7
14BC6:  BSF    FF2.7
14BC8:  MOVLW  07
14BCA:  MOVWF  xBF
14BCC:  MOVLW  9B
14BCE:  MOVWF  xBE
14BD0:  MOVLW  3C
14BD2:  MOVWF  xC0
14BD4:  MOVLW  38
14BD6:  MOVWF  xC1
14BD8:  MOVLW  01
14BDA:  MOVWF  xC2
14BDC:  MOVWF  xC3
14BDE:  MOVLB  0
14BE0:  CALL   1EFC
14BE4:  MOVLB  5
....................                    
....................                if(Segmento==5){ 
14BE6:  MOVF   x6B,W
14BE8:  SUBLW  05
14BEA:  BTFSS  FD8.2
14BEC:  GOTO   14C3A
....................                   strcpy(Menus.Letra,"s5");displayMenu(Menus.Letra,71,56,1,1);} 
14BF0:  MOVLW  07
14BF2:  MOVWF  FEA
14BF4:  MOVLW  9B
14BF6:  MOVWF  FE9
14BF8:  MOVFF  FF2,7BB
14BFC:  BCF    FF2.7
14BFE:  MOVLW  00
14C00:  MOVLB  0
14C02:  CALL   12C0
14C06:  TBLRD*-
14C08:  TBLRD*+
14C0A:  MOVF   FF5,W
14C0C:  MOVWF  FEE
14C0E:  IORLW  00
14C10:  BTFSS  FD8.2
14C12:  GOTO   14C08
14C16:  MOVLB  7
14C18:  BTFSC  xBB.7
14C1A:  BSF    FF2.7
14C1C:  MOVLW  07
14C1E:  MOVWF  xBF
14C20:  MOVLW  9B
14C22:  MOVWF  xBE
14C24:  MOVLW  47
14C26:  MOVWF  xC0
14C28:  MOVLW  38
14C2A:  MOVWF  xC1
14C2C:  MOVLW  01
14C2E:  MOVWF  xC2
14C30:  MOVWF  xC3
14C32:  MOVLB  0
14C34:  CALL   1EFC
14C38:  MOVLB  5
....................                    
....................                if(Segmento==6){ 
14C3A:  MOVF   x6B,W
14C3C:  SUBLW  06
14C3E:  BTFSS  FD8.2
14C40:  GOTO   14C8E
....................                   strcpy(Menus.Letra,"s6");displayMenu(Menus.Letra,82,56,1,1);} 
14C44:  MOVLW  07
14C46:  MOVWF  FEA
14C48:  MOVLW  9B
14C4A:  MOVWF  FE9
14C4C:  MOVFF  FF2,7BB
14C50:  BCF    FF2.7
14C52:  MOVLW  00
14C54:  MOVLB  0
14C56:  CALL   12E2
14C5A:  TBLRD*-
14C5C:  TBLRD*+
14C5E:  MOVF   FF5,W
14C60:  MOVWF  FEE
14C62:  IORLW  00
14C64:  BTFSS  FD8.2
14C66:  GOTO   14C5C
14C6A:  MOVLB  7
14C6C:  BTFSC  xBB.7
14C6E:  BSF    FF2.7
14C70:  MOVLW  07
14C72:  MOVWF  xBF
14C74:  MOVLW  9B
14C76:  MOVWF  xBE
14C78:  MOVLW  52
14C7A:  MOVWF  xC0
14C7C:  MOVLW  38
14C7E:  MOVWF  xC1
14C80:  MOVLW  01
14C82:  MOVWF  xC2
14C84:  MOVWF  xC3
14C86:  MOVLB  0
14C88:  CALL   1EFC
14C8C:  MOVLB  5
....................                    
....................                if(Segmento==7){ 
14C8E:  MOVF   x6B,W
14C90:  SUBLW  07
14C92:  BTFSS  FD8.2
14C94:  GOTO   14CE2
....................                   strcpy(Menus.Letra,"s7");displayMenu(Menus.Letra,93,56,1,1);} 
14C98:  MOVLW  07
14C9A:  MOVWF  FEA
14C9C:  MOVLW  9B
14C9E:  MOVWF  FE9
14CA0:  MOVFF  FF2,7BB
14CA4:  BCF    FF2.7
14CA6:  MOVLW  00
14CA8:  MOVLB  0
14CAA:  CALL   1304
14CAE:  TBLRD*-
14CB0:  TBLRD*+
14CB2:  MOVF   FF5,W
14CB4:  MOVWF  FEE
14CB6:  IORLW  00
14CB8:  BTFSS  FD8.2
14CBA:  GOTO   14CB0
14CBE:  MOVLB  7
14CC0:  BTFSC  xBB.7
14CC2:  BSF    FF2.7
14CC4:  MOVLW  07
14CC6:  MOVWF  xBF
14CC8:  MOVLW  9B
14CCA:  MOVWF  xBE
14CCC:  MOVLW  5D
14CCE:  MOVWF  xC0
14CD0:  MOVLW  38
14CD2:  MOVWF  xC1
14CD4:  MOVLW  01
14CD6:  MOVWF  xC2
14CD8:  MOVWF  xC3
14CDA:  MOVLB  0
14CDC:  CALL   1EFC
14CE0:  MOVLB  5
....................                    
....................                if(Segmento==8){ 
14CE2:  MOVF   x6B,W
14CE4:  SUBLW  08
14CE6:  BTFSS  FD8.2
14CE8:  GOTO   14D36
....................                   strcpy(Menus.Letra,"s8");displayMenu(Menus.Letra,104,56,1,1);} 
14CEC:  MOVLW  07
14CEE:  MOVWF  FEA
14CF0:  MOVLW  9B
14CF2:  MOVWF  FE9
14CF4:  MOVFF  FF2,7BB
14CF8:  BCF    FF2.7
14CFA:  MOVLW  00
14CFC:  MOVLB  0
14CFE:  CALL   1326
14D02:  TBLRD*-
14D04:  TBLRD*+
14D06:  MOVF   FF5,W
14D08:  MOVWF  FEE
14D0A:  IORLW  00
14D0C:  BTFSS  FD8.2
14D0E:  GOTO   14D04
14D12:  MOVLB  7
14D14:  BTFSC  xBB.7
14D16:  BSF    FF2.7
14D18:  MOVLW  07
14D1A:  MOVWF  xBF
14D1C:  MOVLW  9B
14D1E:  MOVWF  xBE
14D20:  MOVLW  68
14D22:  MOVWF  xC0
14D24:  MOVLW  38
14D26:  MOVWF  xC1
14D28:  MOVLW  01
14D2A:  MOVWF  xC2
14D2C:  MOVWF  xC3
14D2E:  MOVLB  0
14D30:  CALL   1EFC
14D34:  MOVLB  5
....................                 
....................                if(Segmento==9){ 
14D36:  MOVF   x6B,W
14D38:  SUBLW  09
14D3A:  BTFSS  FD8.2
14D3C:  GOTO   14D88
....................                   strcpy(Menus.Letra,"s9");displayMenu(Menus.Letra,115,56,1,1);} 
14D40:  MOVLW  07
14D42:  MOVWF  FEA
14D44:  MOVLW  9B
14D46:  MOVWF  FE9
14D48:  MOVFF  FF2,7BB
14D4C:  BCF    FF2.7
14D4E:  MOVLW  00
14D50:  MOVLB  0
14D52:  CALL   1348
14D56:  TBLRD*-
14D58:  TBLRD*+
14D5A:  MOVF   FF5,W
14D5C:  MOVWF  FEE
14D5E:  IORLW  00
14D60:  BTFSS  FD8.2
14D62:  GOTO   14D58
14D66:  MOVLB  7
14D68:  BTFSC  xBB.7
14D6A:  BSF    FF2.7
14D6C:  MOVLW  07
14D6E:  MOVWF  xBF
14D70:  MOVLW  9B
14D72:  MOVWF  xBE
14D74:  MOVLW  73
14D76:  MOVWF  xC0
14D78:  MOVLW  38
14D7A:  MOVWF  xC1
14D7C:  MOVLW  01
14D7E:  MOVWF  xC2
14D80:  MOVWF  xC3
14D82:  MOVLB  0
14D84:  CALL   1EFC
....................                 
....................                glcd_line(27+0,55-TempeInicial/30,27+10,55-Temperatura1[ProgramaSeleccionado*10]/30,ON); 
14D88:  MOVFF  5A0,7C2
14D8C:  MOVFF  59F,7C1
14D90:  MOVFF  59E,7C0
14D94:  MOVFF  59D,7BF
14D98:  MOVLB  7
14D9A:  CLRF   xC6
14D9C:  CLRF   xC5
14D9E:  MOVLW  70
14DA0:  MOVWF  xC4
14DA2:  MOVLW  83
14DA4:  MOVWF  xC3
14DA6:  MOVLB  0
14DA8:  CALL   22B4
14DAC:  BSF    FD8.1
14DAE:  MOVLB  7
14DB0:  CLRF   xCA
14DB2:  CLRF   xC9
14DB4:  MOVLW  5C
14DB6:  MOVWF  xC8
14DB8:  MOVLW  84
14DBA:  MOVWF  xC7
14DBC:  MOVFF  03,7CE
14DC0:  MOVFF  02,7CD
14DC4:  MOVFF  01,7CC
14DC8:  MOVFF  00,7CB
14DCC:  MOVLB  0
14DCE:  CALL   2412
14DD2:  MOVFF  03,7CA
14DD6:  MOVFF  02,7C9
14DDA:  MOVFF  01,7C8
14DDE:  MOVFF  00,7C7
14DE2:  CALL   68FA
14DE6:  MOVFF  01,7BB
14DEA:  MOVLB  5
14DEC:  MOVF   x7B,W
14DEE:  MULLW  0A
14DF0:  MOVFF  FF3,00
14DF4:  BCF    FD8.0
14DF6:  RLCF   00,F
14DF8:  MOVF   00,W
14DFA:  CLRF   03
14DFC:  ADDLW  45
14DFE:  MOVWF  FE9
14E00:  MOVLW  06
14E02:  ADDWFC 03,W
14E04:  MOVWF  FEA
14E06:  MOVFF  FEC,7BD
14E0A:  MOVF   FED,F
14E0C:  MOVFF  FEF,7BC
14E10:  MOVFF  7BD,7C0
14E14:  MOVFF  7BC,7BF
14E18:  MOVLB  7
14E1A:  CLRF   xC2
14E1C:  MOVLW  1E
14E1E:  MOVWF  xC1
14E20:  MOVLB  0
14E22:  CALL   4028
14E26:  MOVFF  02,03
14E2A:  MOVF   01,W
14E2C:  XORLW  FF
14E2E:  ADDLW  38
14E30:  MOVLB  7
14E32:  MOVWF  xBC
14E34:  MOVLW  00
14E36:  SUBFWB 02,W
14E38:  MOVWF  xBD
14E3A:  MOVLW  1B
14E3C:  MOVWF  xDF
14E3E:  MOVFF  7BB,7E0
14E42:  MOVLW  25
14E44:  MOVWF  xE1
14E46:  MOVFF  7BC,7E2
14E4A:  MOVLW  01
14E4C:  MOVWF  xE3
14E4E:  MOVLB  0
14E50:  CALL   1CFC
....................                glcd_line(27+10,55-Temperatura1[ProgramaSeleccionado*10]/30,27+20,55-Temperatura1[(ProgramaSeleccionado*10)+1]/30,ON); 
14E54:  MOVLB  5
14E56:  MOVF   x7B,W
14E58:  MULLW  0A
14E5A:  MOVFF  FF3,00
14E5E:  BCF    FD8.0
14E60:  RLCF   00,F
14E62:  MOVF   00,W
14E64:  CLRF   03
14E66:  ADDLW  45
14E68:  MOVWF  FE9
14E6A:  MOVLW  06
14E6C:  ADDWFC 03,W
14E6E:  MOVWF  FEA
14E70:  MOVFF  FEC,7BC
14E74:  MOVF   FED,F
14E76:  MOVFF  FEF,7BB
14E7A:  MOVFF  7BC,7C0
14E7E:  MOVFF  7BB,7BF
14E82:  MOVLB  7
14E84:  CLRF   xC2
14E86:  MOVLW  1E
14E88:  MOVWF  xC1
14E8A:  MOVLB  0
14E8C:  CALL   4028
14E90:  MOVFF  02,03
14E94:  MOVF   01,W
14E96:  XORLW  FF
14E98:  ADDLW  38
14E9A:  MOVLB  7
14E9C:  MOVWF  xBB
14E9E:  MOVLW  00
14EA0:  SUBFWB 02,W
14EA2:  MOVWF  xBC
14EA4:  MOVLB  5
14EA6:  MOVF   x7B,W
14EA8:  MULLW  0A
14EAA:  MOVF   FF3,W
14EAC:  ADDLW  01
14EAE:  MOVWF  00
14EB0:  BCF    FD8.0
14EB2:  RLCF   00,F
14EB4:  MOVF   00,W
14EB6:  CLRF   03
14EB8:  ADDLW  45
14EBA:  MOVWF  FE9
14EBC:  MOVLW  06
14EBE:  ADDWFC 03,W
14EC0:  MOVWF  FEA
14EC2:  MOVFF  FEC,7BE
14EC6:  MOVF   FED,F
14EC8:  MOVFF  FEF,7BD
14ECC:  MOVFF  7BE,7C0
14ED0:  MOVFF  7BD,7BF
14ED4:  MOVLB  7
14ED6:  CLRF   xC2
14ED8:  MOVLW  1E
14EDA:  MOVWF  xC1
14EDC:  MOVLB  0
14EDE:  CALL   4028
14EE2:  MOVFF  02,03
14EE6:  MOVF   01,W
14EE8:  XORLW  FF
14EEA:  ADDLW  38
14EEC:  MOVLB  7
14EEE:  MOVWF  xBD
14EF0:  MOVLW  00
14EF2:  SUBFWB 02,W
14EF4:  MOVWF  xBE
14EF6:  MOVLW  25
14EF8:  MOVWF  xDF
14EFA:  MOVFF  7BB,7E0
14EFE:  MOVLW  2F
14F00:  MOVWF  xE1
14F02:  MOVFF  7BD,7E2
14F06:  MOVLW  01
14F08:  MOVWF  xE3
14F0A:  MOVLB  0
14F0C:  CALL   1CFC
....................                glcd_line(27+20,55-Temperatura1[(ProgramaSeleccionado*10)+1]/30,27+30,55-Temperatura1[(ProgramaSeleccionado*10)+2]/30,ON); 
14F10:  MOVLB  5
14F12:  MOVF   x7B,W
14F14:  MULLW  0A
14F16:  MOVF   FF3,W
14F18:  ADDLW  01
14F1A:  MOVWF  00
14F1C:  BCF    FD8.0
14F1E:  RLCF   00,F
14F20:  MOVF   00,W
14F22:  CLRF   03
14F24:  ADDLW  45
14F26:  MOVWF  FE9
14F28:  MOVLW  06
14F2A:  ADDWFC 03,W
14F2C:  MOVWF  FEA
14F2E:  MOVFF  FEC,7BC
14F32:  MOVF   FED,F
14F34:  MOVFF  FEF,7BB
14F38:  MOVFF  7BC,7C0
14F3C:  MOVFF  7BB,7BF
14F40:  MOVLB  7
14F42:  CLRF   xC2
14F44:  MOVLW  1E
14F46:  MOVWF  xC1
14F48:  MOVLB  0
14F4A:  CALL   4028
14F4E:  MOVFF  02,03
14F52:  MOVF   01,W
14F54:  XORLW  FF
14F56:  ADDLW  38
14F58:  MOVLB  7
14F5A:  MOVWF  xBB
14F5C:  MOVLW  00
14F5E:  SUBFWB 02,W
14F60:  MOVWF  xBC
14F62:  MOVLB  5
14F64:  MOVF   x7B,W
14F66:  MULLW  0A
14F68:  MOVF   FF3,W
14F6A:  ADDLW  02
14F6C:  MOVWF  00
14F6E:  BCF    FD8.0
14F70:  RLCF   00,F
14F72:  MOVF   00,W
14F74:  CLRF   03
14F76:  ADDLW  45
14F78:  MOVWF  FE9
14F7A:  MOVLW  06
14F7C:  ADDWFC 03,W
14F7E:  MOVWF  FEA
14F80:  MOVFF  FEC,7BE
14F84:  MOVF   FED,F
14F86:  MOVFF  FEF,7BD
14F8A:  MOVFF  7BE,7C0
14F8E:  MOVFF  7BD,7BF
14F92:  MOVLB  7
14F94:  CLRF   xC2
14F96:  MOVLW  1E
14F98:  MOVWF  xC1
14F9A:  MOVLB  0
14F9C:  CALL   4028
14FA0:  MOVFF  02,03
14FA4:  MOVF   01,W
14FA6:  XORLW  FF
14FA8:  ADDLW  38
14FAA:  MOVLB  7
14FAC:  MOVWF  xBD
14FAE:  MOVLW  00
14FB0:  SUBFWB 02,W
14FB2:  MOVWF  xBE
14FB4:  MOVLW  2F
14FB6:  MOVWF  xDF
14FB8:  MOVFF  7BB,7E0
14FBC:  MOVLW  39
14FBE:  MOVWF  xE1
14FC0:  MOVFF  7BD,7E2
14FC4:  MOVLW  01
14FC6:  MOVWF  xE3
14FC8:  MOVLB  0
14FCA:  CALL   1CFC
....................                glcd_line(27+30,55-Temperatura1[(ProgramaSeleccionado*10)+2]/30,27+40,55-Temperatura1[(ProgramaSeleccionado*10)+3]/30,ON); 
14FCE:  MOVLB  5
14FD0:  MOVF   x7B,W
14FD2:  MULLW  0A
14FD4:  MOVF   FF3,W
14FD6:  ADDLW  02
14FD8:  MOVWF  00
14FDA:  BCF    FD8.0
14FDC:  RLCF   00,F
14FDE:  MOVF   00,W
14FE0:  CLRF   03
14FE2:  ADDLW  45
14FE4:  MOVWF  FE9
14FE6:  MOVLW  06
14FE8:  ADDWFC 03,W
14FEA:  MOVWF  FEA
14FEC:  MOVFF  FEC,7BC
14FF0:  MOVF   FED,F
14FF2:  MOVFF  FEF,7BB
14FF6:  MOVFF  7BC,7C0
14FFA:  MOVFF  7BB,7BF
14FFE:  MOVLB  7
15000:  CLRF   xC2
15002:  MOVLW  1E
15004:  MOVWF  xC1
15006:  MOVLB  0
15008:  CALL   4028
1500C:  MOVFF  02,03
15010:  MOVF   01,W
15012:  XORLW  FF
15014:  ADDLW  38
15016:  MOVLB  7
15018:  MOVWF  xBB
1501A:  MOVLW  00
1501C:  SUBFWB 02,W
1501E:  MOVWF  xBC
15020:  MOVLB  5
15022:  MOVF   x7B,W
15024:  MULLW  0A
15026:  MOVF   FF3,W
15028:  ADDLW  03
1502A:  MOVWF  00
1502C:  BCF    FD8.0
1502E:  RLCF   00,F
15030:  MOVF   00,W
15032:  CLRF   03
15034:  ADDLW  45
15036:  MOVWF  FE9
15038:  MOVLW  06
1503A:  ADDWFC 03,W
1503C:  MOVWF  FEA
1503E:  MOVFF  FEC,7BE
15042:  MOVF   FED,F
15044:  MOVFF  FEF,7BD
15048:  MOVFF  7BE,7C0
1504C:  MOVFF  7BD,7BF
15050:  MOVLB  7
15052:  CLRF   xC2
15054:  MOVLW  1E
15056:  MOVWF  xC1
15058:  MOVLB  0
1505A:  CALL   4028
1505E:  MOVFF  02,03
15062:  MOVF   01,W
15064:  XORLW  FF
15066:  ADDLW  38
15068:  MOVLB  7
1506A:  MOVWF  xBD
1506C:  MOVLW  00
1506E:  SUBFWB 02,W
15070:  MOVWF  xBE
15072:  MOVLW  39
15074:  MOVWF  xDF
15076:  MOVFF  7BB,7E0
1507A:  MOVLW  43
1507C:  MOVWF  xE1
1507E:  MOVFF  7BD,7E2
15082:  MOVLW  01
15084:  MOVWF  xE3
15086:  MOVLB  0
15088:  CALL   1CFC
....................                glcd_line(27+40,55-Temperatura1[(ProgramaSeleccionado*10)+3]/30,27+50,55-Temperatura1[(ProgramaSeleccionado*10)+4]/30,ON); 
1508C:  MOVLB  5
1508E:  MOVF   x7B,W
15090:  MULLW  0A
15092:  MOVF   FF3,W
15094:  ADDLW  03
15096:  MOVWF  00
15098:  BCF    FD8.0
1509A:  RLCF   00,F
1509C:  MOVF   00,W
1509E:  CLRF   03
150A0:  ADDLW  45
150A2:  MOVWF  FE9
150A4:  MOVLW  06
150A6:  ADDWFC 03,W
150A8:  MOVWF  FEA
150AA:  MOVFF  FEC,7BC
150AE:  MOVF   FED,F
150B0:  MOVFF  FEF,7BB
150B4:  MOVFF  7BC,7C0
150B8:  MOVFF  7BB,7BF
150BC:  MOVLB  7
150BE:  CLRF   xC2
150C0:  MOVLW  1E
150C2:  MOVWF  xC1
150C4:  MOVLB  0
150C6:  CALL   4028
150CA:  MOVFF  02,03
150CE:  MOVF   01,W
150D0:  XORLW  FF
150D2:  ADDLW  38
150D4:  MOVLB  7
150D6:  MOVWF  xBB
150D8:  MOVLW  00
150DA:  SUBFWB 02,W
150DC:  MOVWF  xBC
150DE:  MOVLB  5
150E0:  MOVF   x7B,W
150E2:  MULLW  0A
150E4:  MOVF   FF3,W
150E6:  ADDLW  04
150E8:  MOVWF  00
150EA:  BCF    FD8.0
150EC:  RLCF   00,F
150EE:  MOVF   00,W
150F0:  CLRF   03
150F2:  ADDLW  45
150F4:  MOVWF  FE9
150F6:  MOVLW  06
150F8:  ADDWFC 03,W
150FA:  MOVWF  FEA
150FC:  MOVFF  FEC,7BE
15100:  MOVF   FED,F
15102:  MOVFF  FEF,7BD
15106:  MOVFF  7BE,7C0
1510A:  MOVFF  7BD,7BF
1510E:  MOVLB  7
15110:  CLRF   xC2
15112:  MOVLW  1E
15114:  MOVWF  xC1
15116:  MOVLB  0
15118:  CALL   4028
1511C:  MOVFF  02,03
15120:  MOVF   01,W
15122:  XORLW  FF
15124:  ADDLW  38
15126:  MOVLB  7
15128:  MOVWF  xBD
1512A:  MOVLW  00
1512C:  SUBFWB 02,W
1512E:  MOVWF  xBE
15130:  MOVLW  43
15132:  MOVWF  xDF
15134:  MOVFF  7BB,7E0
15138:  MOVLW  4D
1513A:  MOVWF  xE1
1513C:  MOVFF  7BD,7E2
15140:  MOVLW  01
15142:  MOVWF  xE3
15144:  MOVLB  0
15146:  CALL   1CFC
....................                glcd_line(27+50,55-Temperatura1[(ProgramaSeleccionado*10)+4]/30,27+60,55-Temperatura1[(ProgramaSeleccionado*10)+5]/30,ON); 
1514A:  MOVLB  5
1514C:  MOVF   x7B,W
1514E:  MULLW  0A
15150:  MOVF   FF3,W
15152:  ADDLW  04
15154:  MOVWF  00
15156:  BCF    FD8.0
15158:  RLCF   00,F
1515A:  MOVF   00,W
1515C:  CLRF   03
1515E:  ADDLW  45
15160:  MOVWF  FE9
15162:  MOVLW  06
15164:  ADDWFC 03,W
15166:  MOVWF  FEA
15168:  MOVFF  FEC,7BC
1516C:  MOVF   FED,F
1516E:  MOVFF  FEF,7BB
15172:  MOVFF  7BC,7C0
15176:  MOVFF  7BB,7BF
1517A:  MOVLB  7
1517C:  CLRF   xC2
1517E:  MOVLW  1E
15180:  MOVWF  xC1
15182:  MOVLB  0
15184:  CALL   4028
15188:  MOVFF  02,03
1518C:  MOVF   01,W
1518E:  XORLW  FF
15190:  ADDLW  38
15192:  MOVLB  7
15194:  MOVWF  xBB
15196:  MOVLW  00
15198:  SUBFWB 02,W
1519A:  MOVWF  xBC
1519C:  MOVLB  5
1519E:  MOVF   x7B,W
151A0:  MULLW  0A
151A2:  MOVF   FF3,W
151A4:  ADDLW  05
151A6:  MOVWF  00
151A8:  BCF    FD8.0
151AA:  RLCF   00,F
151AC:  MOVF   00,W
151AE:  CLRF   03
151B0:  ADDLW  45
151B2:  MOVWF  FE9
151B4:  MOVLW  06
151B6:  ADDWFC 03,W
151B8:  MOVWF  FEA
151BA:  MOVFF  FEC,7BE
151BE:  MOVF   FED,F
151C0:  MOVFF  FEF,7BD
151C4:  MOVFF  7BE,7C0
151C8:  MOVFF  7BD,7BF
151CC:  MOVLB  7
151CE:  CLRF   xC2
151D0:  MOVLW  1E
151D2:  MOVWF  xC1
151D4:  MOVLB  0
151D6:  CALL   4028
151DA:  MOVFF  02,03
151DE:  MOVF   01,W
151E0:  XORLW  FF
151E2:  ADDLW  38
151E4:  MOVLB  7
151E6:  MOVWF  xBD
151E8:  MOVLW  00
151EA:  SUBFWB 02,W
151EC:  MOVWF  xBE
151EE:  MOVLW  4D
151F0:  MOVWF  xDF
151F2:  MOVFF  7BB,7E0
151F6:  MOVLW  57
151F8:  MOVWF  xE1
151FA:  MOVFF  7BD,7E2
151FE:  MOVLW  01
15200:  MOVWF  xE3
15202:  MOVLB  0
15204:  CALL   1CFC
....................                glcd_line(27+60,55-Temperatura1[(ProgramaSeleccionado*10)+5]/30,27+70,55-Temperatura1[(ProgramaSeleccionado*10)+6]/30,ON); 
15208:  MOVLB  5
1520A:  MOVF   x7B,W
1520C:  MULLW  0A
1520E:  MOVF   FF3,W
15210:  ADDLW  05
15212:  MOVWF  00
15214:  BCF    FD8.0
15216:  RLCF   00,F
15218:  MOVF   00,W
1521A:  CLRF   03
1521C:  ADDLW  45
1521E:  MOVWF  FE9
15220:  MOVLW  06
15222:  ADDWFC 03,W
15224:  MOVWF  FEA
15226:  MOVFF  FEC,7BC
1522A:  MOVF   FED,F
1522C:  MOVFF  FEF,7BB
15230:  MOVFF  7BC,7C0
15234:  MOVFF  7BB,7BF
15238:  MOVLB  7
1523A:  CLRF   xC2
1523C:  MOVLW  1E
1523E:  MOVWF  xC1
15240:  MOVLB  0
15242:  CALL   4028
15246:  MOVFF  02,03
1524A:  MOVF   01,W
1524C:  XORLW  FF
1524E:  ADDLW  38
15250:  MOVLB  7
15252:  MOVWF  xBB
15254:  MOVLW  00
15256:  SUBFWB 02,W
15258:  MOVWF  xBC
1525A:  MOVLB  5
1525C:  MOVF   x7B,W
1525E:  MULLW  0A
15260:  MOVF   FF3,W
15262:  ADDLW  06
15264:  MOVWF  00
15266:  BCF    FD8.0
15268:  RLCF   00,F
1526A:  MOVF   00,W
1526C:  CLRF   03
1526E:  ADDLW  45
15270:  MOVWF  FE9
15272:  MOVLW  06
15274:  ADDWFC 03,W
15276:  MOVWF  FEA
15278:  MOVFF  FEC,7BE
1527C:  MOVF   FED,F
1527E:  MOVFF  FEF,7BD
15282:  MOVFF  7BE,7C0
15286:  MOVFF  7BD,7BF
1528A:  MOVLB  7
1528C:  CLRF   xC2
1528E:  MOVLW  1E
15290:  MOVWF  xC1
15292:  MOVLB  0
15294:  CALL   4028
15298:  MOVFF  02,03
1529C:  MOVF   01,W
1529E:  XORLW  FF
152A0:  ADDLW  38
152A2:  MOVLB  7
152A4:  MOVWF  xBD
152A6:  MOVLW  00
152A8:  SUBFWB 02,W
152AA:  MOVWF  xBE
152AC:  MOVLW  57
152AE:  MOVWF  xDF
152B0:  MOVFF  7BB,7E0
152B4:  MOVLW  61
152B6:  MOVWF  xE1
152B8:  MOVFF  7BD,7E2
152BC:  MOVLW  01
152BE:  MOVWF  xE3
152C0:  MOVLB  0
152C2:  CALL   1CFC
....................                glcd_line(27+70,55-Temperatura1[(ProgramaSeleccionado*10)+6]/30,27+80,55-Temperatura1[(ProgramaSeleccionado*10)+7]/30,ON); 
152C6:  MOVLB  5
152C8:  MOVF   x7B,W
152CA:  MULLW  0A
152CC:  MOVF   FF3,W
152CE:  ADDLW  06
152D0:  MOVWF  00
152D2:  BCF    FD8.0
152D4:  RLCF   00,F
152D6:  MOVF   00,W
152D8:  CLRF   03
152DA:  ADDLW  45
152DC:  MOVWF  FE9
152DE:  MOVLW  06
152E0:  ADDWFC 03,W
152E2:  MOVWF  FEA
152E4:  MOVFF  FEC,7BC
152E8:  MOVF   FED,F
152EA:  MOVFF  FEF,7BB
152EE:  MOVFF  7BC,7C0
152F2:  MOVFF  7BB,7BF
152F6:  MOVLB  7
152F8:  CLRF   xC2
152FA:  MOVLW  1E
152FC:  MOVWF  xC1
152FE:  MOVLB  0
15300:  CALL   4028
15304:  MOVFF  02,03
15308:  MOVF   01,W
1530A:  XORLW  FF
1530C:  ADDLW  38
1530E:  MOVLB  7
15310:  MOVWF  xBB
15312:  MOVLW  00
15314:  SUBFWB 02,W
15316:  MOVWF  xBC
15318:  MOVLB  5
1531A:  MOVF   x7B,W
1531C:  MULLW  0A
1531E:  MOVF   FF3,W
15320:  ADDLW  07
15322:  MOVWF  00
15324:  BCF    FD8.0
15326:  RLCF   00,F
15328:  MOVF   00,W
1532A:  CLRF   03
1532C:  ADDLW  45
1532E:  MOVWF  FE9
15330:  MOVLW  06
15332:  ADDWFC 03,W
15334:  MOVWF  FEA
15336:  MOVFF  FEC,7BE
1533A:  MOVF   FED,F
1533C:  MOVFF  FEF,7BD
15340:  MOVFF  7BE,7C0
15344:  MOVFF  7BD,7BF
15348:  MOVLB  7
1534A:  CLRF   xC2
1534C:  MOVLW  1E
1534E:  MOVWF  xC1
15350:  MOVLB  0
15352:  CALL   4028
15356:  MOVFF  02,03
1535A:  MOVF   01,W
1535C:  XORLW  FF
1535E:  ADDLW  38
15360:  MOVLB  7
15362:  MOVWF  xBD
15364:  MOVLW  00
15366:  SUBFWB 02,W
15368:  MOVWF  xBE
1536A:  MOVLW  61
1536C:  MOVWF  xDF
1536E:  MOVFF  7BB,7E0
15372:  MOVLW  6B
15374:  MOVWF  xE1
15376:  MOVFF  7BD,7E2
1537A:  MOVLW  01
1537C:  MOVWF  xE3
1537E:  MOVLB  0
15380:  CALL   1CFC
....................                glcd_line(27+80,55-Temperatura1[(ProgramaSeleccionado*10)+7]/30,27+90,55-Temperatura1[(ProgramaSeleccionado*10)+8]/30,ON); 
15384:  MOVLB  5
15386:  MOVF   x7B,W
15388:  MULLW  0A
1538A:  MOVF   FF3,W
1538C:  ADDLW  07
1538E:  MOVWF  00
15390:  BCF    FD8.0
15392:  RLCF   00,F
15394:  MOVF   00,W
15396:  CLRF   03
15398:  ADDLW  45
1539A:  MOVWF  FE9
1539C:  MOVLW  06
1539E:  ADDWFC 03,W
153A0:  MOVWF  FEA
153A2:  MOVFF  FEC,7BC
153A6:  MOVF   FED,F
153A8:  MOVFF  FEF,7BB
153AC:  MOVFF  7BC,7C0
153B0:  MOVFF  7BB,7BF
153B4:  MOVLB  7
153B6:  CLRF   xC2
153B8:  MOVLW  1E
153BA:  MOVWF  xC1
153BC:  MOVLB  0
153BE:  CALL   4028
153C2:  MOVFF  02,03
153C6:  MOVF   01,W
153C8:  XORLW  FF
153CA:  ADDLW  38
153CC:  MOVLB  7
153CE:  MOVWF  xBB
153D0:  MOVLW  00
153D2:  SUBFWB 02,W
153D4:  MOVWF  xBC
153D6:  MOVLB  5
153D8:  MOVF   x7B,W
153DA:  MULLW  0A
153DC:  MOVF   FF3,W
153DE:  ADDLW  08
153E0:  MOVWF  00
153E2:  BCF    FD8.0
153E4:  RLCF   00,F
153E6:  MOVF   00,W
153E8:  CLRF   03
153EA:  ADDLW  45
153EC:  MOVWF  FE9
153EE:  MOVLW  06
153F0:  ADDWFC 03,W
153F2:  MOVWF  FEA
153F4:  MOVFF  FEC,7BE
153F8:  MOVF   FED,F
153FA:  MOVFF  FEF,7BD
153FE:  MOVFF  7BE,7C0
15402:  MOVFF  7BD,7BF
15406:  MOVLB  7
15408:  CLRF   xC2
1540A:  MOVLW  1E
1540C:  MOVWF  xC1
1540E:  MOVLB  0
15410:  CALL   4028
15414:  MOVFF  02,03
15418:  MOVF   01,W
1541A:  XORLW  FF
1541C:  ADDLW  38
1541E:  MOVLB  7
15420:  MOVWF  xBD
15422:  MOVLW  00
15424:  SUBFWB 02,W
15426:  MOVWF  xBE
15428:  MOVLW  6B
1542A:  MOVWF  xDF
1542C:  MOVFF  7BB,7E0
15430:  MOVLW  75
15432:  MOVWF  xE1
15434:  MOVFF  7BD,7E2
15438:  MOVLW  01
1543A:  MOVWF  xE3
1543C:  MOVLB  0
1543E:  CALL   1CFC
....................                glcd_line(27+90,55-Temperatura1[(ProgramaSeleccionado*10)+8]/30,27+100,55-Temperatura1[(ProgramaSeleccionado*10)+9]/30,ON); 
15442:  MOVLB  5
15444:  MOVF   x7B,W
15446:  MULLW  0A
15448:  MOVF   FF3,W
1544A:  ADDLW  08
1544C:  MOVWF  00
1544E:  BCF    FD8.0
15450:  RLCF   00,F
15452:  MOVF   00,W
15454:  CLRF   03
15456:  ADDLW  45
15458:  MOVWF  FE9
1545A:  MOVLW  06
1545C:  ADDWFC 03,W
1545E:  MOVWF  FEA
15460:  MOVFF  FEC,7BC
15464:  MOVF   FED,F
15466:  MOVFF  FEF,7BB
1546A:  MOVFF  7BC,7C0
1546E:  MOVFF  7BB,7BF
15472:  MOVLB  7
15474:  CLRF   xC2
15476:  MOVLW  1E
15478:  MOVWF  xC1
1547A:  MOVLB  0
1547C:  CALL   4028
15480:  MOVFF  02,03
15484:  MOVF   01,W
15486:  XORLW  FF
15488:  ADDLW  38
1548A:  MOVLB  7
1548C:  MOVWF  xBB
1548E:  MOVLW  00
15490:  SUBFWB 02,W
15492:  MOVWF  xBC
15494:  MOVLB  5
15496:  MOVF   x7B,W
15498:  MULLW  0A
1549A:  MOVF   FF3,W
1549C:  ADDLW  09
1549E:  MOVWF  00
154A0:  BCF    FD8.0
154A2:  RLCF   00,F
154A4:  MOVF   00,W
154A6:  CLRF   03
154A8:  ADDLW  45
154AA:  MOVWF  FE9
154AC:  MOVLW  06
154AE:  ADDWFC 03,W
154B0:  MOVWF  FEA
154B2:  MOVFF  FEC,7BE
154B6:  MOVF   FED,F
154B8:  MOVFF  FEF,7BD
154BC:  MOVFF  7BE,7C0
154C0:  MOVFF  7BD,7BF
154C4:  MOVLB  7
154C6:  CLRF   xC2
154C8:  MOVLW  1E
154CA:  MOVWF  xC1
154CC:  MOVLB  0
154CE:  CALL   4028
154D2:  MOVFF  02,03
154D6:  MOVF   01,W
154D8:  XORLW  FF
154DA:  ADDLW  38
154DC:  MOVLB  7
154DE:  MOVWF  xBD
154E0:  MOVLW  00
154E2:  SUBFWB 02,W
154E4:  MOVWF  xBE
154E6:  MOVLW  75
154E8:  MOVWF  xDF
154EA:  MOVFF  7BB,7E0
154EE:  MOVLW  7F
154F0:  MOVWF  xE1
154F2:  MOVFF  7BD,7E2
154F6:  MOVLW  01
154F8:  MOVWF  xE3
154FA:  MOVLB  0
154FC:  CALL   1CFC
....................                glcd_update(); 
15500:  CALL   1928
....................                for(i=0;i<80;i++) 
15504:  MOVLB  5
15506:  CLRF   x74
15508:  MOVF   x74,W
1550A:  SUBLW  4F
1550C:  BTFSS  FD8.0
1550E:  GOTO   15534
....................                { 
....................                   Temperatura=Leer_Sensor(MediaMovil); 
15512:  MOVFF  564,7BB
15516:  MOVLB  0
15518:  CALL   38BA
1551C:  MOVFF  03,60C
15520:  MOVFF  02,60B
15524:  MOVFF  01,60A
15528:  MOVFF  00,609
....................                } 
1552C:  MOVLB  5
1552E:  INCF   x74,F
15530:  GOTO   15508
....................             delay_ms(3000); 
15534:  MOVLW  0C
15536:  MOVLB  7
15538:  MOVWF  xBB
1553A:  MOVLW  FA
1553C:  MOVWF  xC1
1553E:  MOVLB  0
15540:  CALL   184E
15544:  MOVLB  7
15546:  DECFSZ xBB,F
15548:  BRA    1553A
....................             glcd_fillscreen(OFF); 
1554A:  CLRF   xBC
1554C:  MOVLB  0
1554E:  CALL   18CE
15552:  MOVLB  7
....................       } 
....................              
....................       if(DOWN)//Si oprime hacia abajo 
15554:  BSF    F96.0
15556:  BTFSC  F84.0
15558:  GOTO   1555C
....................       {   
....................       } 
....................        
....................       if(RIGHT)//Si oprime SET 
1555C:  BSF    F96.1
1555E:  BTFSC  F84.1
15560:  GOTO   155BC
....................       {   
....................          if(Pausa!=2) 
15564:  MOVLB  5
15566:  MOVF   x76,W
15568:  SUBLW  02
1556A:  BTFSC  FD8.2
1556C:  GOTO   155BC
....................          { 
....................             if(Pausa==0) 
15570:  MOVF   x76,F
15572:  BTFSS  FD8.2
15574:  GOTO   1558E
....................             { 
....................                delay_ms(200);Pausa=1; 
15578:  MOVLW  C8
1557A:  MOVLB  7
1557C:  MOVWF  xC1
1557E:  MOVLB  0
15580:  CALL   184E
15584:  MOVLW  01
15586:  MOVLB  5
15588:  MOVWF  x76
....................             } 
....................             else 
1558A:  GOTO   1559E
....................             { 
....................                delay_ms(200);Pausa=0; 
1558E:  MOVLW  C8
15590:  MOVLB  7
15592:  MOVWF  xC1
15594:  MOVLB  0
15596:  CALL   184E
1559A:  MOVLB  5
1559C:  CLRF   x76
....................             } 
....................             glcd_rect(0, 55, 127, 63, YES, OFF); 
1559E:  MOVLB  7
155A0:  CLRF   xD3
155A2:  MOVLW  37
155A4:  MOVWF  xD4
155A6:  MOVLW  7F
155A8:  MOVWF  xD5
155AA:  MOVLW  3F
155AC:  MOVWF  xD6
155AE:  MOVLW  01
155B0:  MOVWF  xD7
155B2:  CLRF   xD8
155B4:  MOVLB  0
155B6:  CALL   1E3A
155BA:  MOVLB  5
....................          } 
....................       } 
....................        
....................          
....................       if(Lectura==1)// Utilizado para visualizar la lectura de la temperatura 
155BC:  MOVLB  5
155BE:  BTFSS  x6D.1
155C0:  GOTO   15CCE
....................       {                  
....................           
....................          Lectura=0; 
155C4:  BCF    x6D.1
....................          Potencia=(100.0/Tciclo)*Tpulso; 
155C6:  MOVLB  7
155C8:  CLRF   xC2
155CA:  CLRF   xC1
155CC:  MOVLW  48
155CE:  MOVWF  xC0
155D0:  MOVLW  85
155D2:  MOVWF  xBF
155D4:  MOVFF  5D8,7C6
155D8:  MOVFF  5D7,7C5
155DC:  MOVFF  5D6,7C4
155E0:  MOVFF  5D5,7C3
155E4:  MOVLB  0
155E6:  CALL   22B4
155EA:  MOVFF  00,7BB
155EE:  MOVFF  01,7BC
155F2:  MOVFF  02,7BD
155F6:  MOVFF  03,7BE
155FA:  MOVFF  7BE,7DB
155FE:  MOVFF  7BD,7DA
15602:  MOVFF  7BC,7D9
15606:  MOVFF  7BB,7D8
1560A:  MOVFF  5DC,7DF
1560E:  MOVFF  5DB,7DE
15612:  MOVFF  5DA,7DD
15616:  MOVFF  5D9,7DC
1561A:  CALL   37C4
1561E:  MOVFF  03,5BC
15622:  MOVFF  02,5BB
15626:  MOVFF  01,5BA
1562A:  MOVFF  00,5B9
....................           
....................  //----------------Muestra Temperatura-------------------------- 
....................          if(Temperatura>1250 || Temperatura<0) 
1562E:  MOVLB  7
15630:  CLRF   xBE
15632:  MOVLW  40
15634:  MOVWF  xBD
15636:  MOVLW  1C
15638:  MOVWF  xBC
1563A:  MOVLW  89
1563C:  MOVWF  xBB
1563E:  MOVFF  60C,7C2
15642:  MOVFF  60B,7C1
15646:  MOVFF  60A,7C0
1564A:  MOVFF  609,7BF
1564E:  MOVLB  0
15650:  CALL   223A
15654:  BTFSC  FD8.0
15656:  GOTO   15680
1565A:  MOVFF  60C,7BE
1565E:  MOVFF  60B,7BD
15662:  MOVFF  60A,7BC
15666:  MOVFF  609,7BB
1566A:  MOVLB  7
1566C:  CLRF   xC2
1566E:  CLRF   xC1
15670:  CLRF   xC0
15672:  CLRF   xBF
15674:  MOVLB  0
15676:  CALL   223A
1567A:  BTFSS  FD8.0
1567C:  GOTO   156F0
....................          { 
....................             glcd_rect(15, 29, 69, 45, YES, OFF); 
15680:  MOVLW  0F
15682:  MOVLB  7
15684:  MOVWF  xD3
15686:  MOVLW  1D
15688:  MOVWF  xD4
1568A:  MOVLW  45
1568C:  MOVWF  xD5
1568E:  MOVLW  2D
15690:  MOVWF  xD6
15692:  MOVLW  01
15694:  MOVWF  xD7
15696:  CLRF   xD8
15698:  MOVLB  0
1569A:  CALL   1E3A
....................             strcpy(Menus.Letra,"-----");displayMenu(Menus.Letra,15,29,2,2); 
1569E:  MOVLW  07
156A0:  MOVWF  FEA
156A2:  MOVLW  9B
156A4:  MOVWF  FE9
156A6:  MOVFF  FF2,7BB
156AA:  BCF    FF2.7
156AC:  MOVLW  00
156AE:  CALL   136A
156B2:  TBLRD*-
156B4:  TBLRD*+
156B6:  MOVF   FF5,W
156B8:  MOVWF  FEE
156BA:  IORLW  00
156BC:  BTFSS  FD8.2
156BE:  GOTO   156B4
156C2:  MOVLB  7
156C4:  BTFSC  xBB.7
156C6:  BSF    FF2.7
156C8:  MOVLW  07
156CA:  MOVWF  xBF
156CC:  MOVLW  9B
156CE:  MOVWF  xBE
156D0:  MOVLW  0F
156D2:  MOVWF  xC0
156D4:  MOVLW  1D
156D6:  MOVWF  xC1
156D8:  MOVLW  02
156DA:  MOVWF  xC2
156DC:  MOVWF  xC3
156DE:  MOVLB  0
156E0:  CALL   1EFC
....................             Desconectado=1; 
156E4:  MOVLB  5
156E6:  BSF    x5F.2
....................             Control=0; 
156E8:  CLRF   x71
....................          } 
....................          else 
156EA:  GOTO   1577E
156EE:  MOVLB  0
....................          { 
....................             if(Desconectado==1) 
156F0:  MOVLB  5
156F2:  BTFSS  x5F.2
156F4:  GOTO   15742
....................             { 
....................                Desconectado=0; 
156F8:  BCF    x5F.2
....................                delay_ms(2000); 
156FA:  MOVLW  08
156FC:  MOVLB  7
156FE:  MOVWF  xBB
15700:  MOVLW  FA
15702:  MOVWF  xC1
15704:  MOVLB  0
15706:  CALL   184E
1570A:  MOVLB  7
1570C:  DECFSZ xBB,F
1570E:  BRA    15700
....................                for(i=0;i<80;i++) 
15710:  MOVLB  5
15712:  CLRF   x74
15714:  MOVF   x74,W
15716:  SUBLW  4F
15718:  BTFSS  FD8.0
1571A:  GOTO   15742
....................                { 
....................                   Temperatura=Leer_Sensor(80); 
1571E:  MOVLW  50
15720:  MOVLB  7
15722:  MOVWF  xBB
15724:  MOVLB  0
15726:  CALL   38BA
1572A:  MOVFF  03,60C
1572E:  MOVFF  02,60B
15732:  MOVFF  01,60A
15736:  MOVFF  00,609
....................                } 
1573A:  MOVLB  5
1573C:  INCF   x74,F
1573E:  GOTO   15714
....................             } 
....................              
....................                displayT(Temperatura,15,29,2); 
15742:  MOVFF  60C,7CA
15746:  MOVFF  60B,7C9
1574A:  MOVFF  60A,7C8
1574E:  MOVFF  609,7C7
15752:  MOVLB  0
15754:  CALL   68FA
15758:  MOVFF  02,7BC
1575C:  MOVFF  01,7BB
15760:  MOVFF  7BC,7BE
15764:  MOVFF  7BB,7BD
15768:  MOVLW  0F
1576A:  MOVLB  7
1576C:  MOVWF  xBF
1576E:  MOVLW  1D
15770:  MOVWF  xC0
15772:  MOVLW  02
15774:  MOVWF  xC1
15776:  MOVLB  0
15778:  GOTO   79A8
1577C:  MOVLB  5
....................              
....................             //displayTemperatura(Temperatura,15,29,0,2); 
....................          } 
....................  
....................          //displayT(Temperatura,15,29,2); 
....................             Dibuja=0; 
1577E:  BCF    x6D.7
....................             glcd_circle(74,30,2,NO,ON); 
15780:  MOVLW  4A
15782:  MOVLB  7
15784:  MOVWF  xD3
15786:  MOVLW  1E
15788:  MOVWF  xD4
1578A:  MOVLW  02
1578C:  MOVWF  xD5
1578E:  CLRF   xD6
15790:  MOVLW  01
15792:  MOVWF  xD7
15794:  MOVLB  0
15796:  CALL   52E4
....................             strcpy(Menus.Letra,"C");displayMenu(Menus.Letra,75,30,2,2); 
1579A:  MOVLW  07
1579C:  MOVWF  FEA
1579E:  MOVLW  9B
157A0:  MOVWF  FE9
157A2:  MOVFF  FF2,7BB
157A6:  BCF    FF2.7
157A8:  MOVLW  00
157AA:  CALL   06D2
157AE:  TBLRD*-
157B0:  TBLRD*+
157B2:  MOVF   FF5,W
157B4:  MOVWF  FEE
157B6:  IORLW  00
157B8:  BTFSS  FD8.2
157BA:  GOTO   157B0
157BE:  MOVLB  7
157C0:  BTFSC  xBB.7
157C2:  BSF    FF2.7
157C4:  MOVLW  07
157C6:  MOVWF  xBF
157C8:  MOVLW  9B
157CA:  MOVWF  xBE
157CC:  MOVLW  4B
157CE:  MOVWF  xC0
157D0:  MOVLW  1E
157D2:  MOVWF  xC1
157D4:  MOVLW  02
157D6:  MOVWF  xC2
157D8:  MOVWF  xC3
157DA:  MOVLB  0
157DC:  CALL   1EFC
....................              
....................             displayTemperatura(Setpoint,30,45,0,1); 
157E0:  MOVFF  618,7CA
157E4:  MOVFF  617,7C9
157E8:  MOVFF  616,7C8
157EC:  MOVFF  615,7C7
157F0:  CALL   68FA
157F4:  MOVFF  02,7BC
157F8:  MOVFF  01,7BB
157FC:  MOVFF  7BC,7C1
15800:  MOVFF  7BB,7C0
15804:  MOVLW  1E
15806:  MOVLB  7
15808:  MOVWF  xC2
1580A:  MOVLW  2D
1580C:  MOVWF  xC3
1580E:  CLRF   xC4
15810:  MOVLW  01
15812:  MOVWF  xC5
15814:  MOVLB  0
15816:  CALL   512C
....................             glcd_circle(60,47,1,NO,ON); 
1581A:  MOVLW  3C
1581C:  MOVLB  7
1581E:  MOVWF  xD3
15820:  MOVLW  2F
15822:  MOVWF  xD4
15824:  MOVLW  01
15826:  MOVWF  xD5
15828:  CLRF   xD6
1582A:  MOVWF  xD7
1582C:  MOVLB  0
1582E:  CALL   52E4
....................             strcpy(Menus.Letra,"C");displayMenu(Menus.Letra,63,45,2,1); 
15832:  MOVLW  07
15834:  MOVWF  FEA
15836:  MOVLW  9B
15838:  MOVWF  FE9
1583A:  MOVFF  FF2,7BB
1583E:  BCF    FF2.7
15840:  MOVLW  00
15842:  CALL   06D2
15846:  TBLRD*-
15848:  TBLRD*+
1584A:  MOVF   FF5,W
1584C:  MOVWF  FEE
1584E:  IORLW  00
15850:  BTFSS  FD8.2
15852:  GOTO   15848
15856:  MOVLB  7
15858:  BTFSC  xBB.7
1585A:  BSF    FF2.7
1585C:  MOVLW  07
1585E:  MOVWF  xBF
15860:  MOVLW  9B
15862:  MOVWF  xBE
15864:  MOVLW  3F
15866:  MOVWF  xC0
15868:  MOVLW  2D
1586A:  MOVWF  xC1
1586C:  MOVLW  02
1586E:  MOVWF  xC2
15870:  MOVLW  01
15872:  MOVWF  xC3
15874:  MOVLB  0
15876:  CALL   1EFC
....................             strcpy(Menus.Letra,"Temp:");displayMenu(Menus.Letra,0,45,2,1);  
1587A:  MOVLW  07
1587C:  MOVWF  FEA
1587E:  MOVLW  9B
15880:  MOVWF  FE9
15882:  MOVFF  FF2,7BB
15886:  BCF    FF2.7
15888:  MOVLW  00
1588A:  CALL   138E
1588E:  TBLRD*-
15890:  TBLRD*+
15892:  MOVF   FF5,W
15894:  MOVWF  FEE
15896:  IORLW  00
15898:  BTFSS  FD8.2
1589A:  GOTO   15890
1589E:  MOVLB  7
158A0:  BTFSC  xBB.7
158A2:  BSF    FF2.7
158A4:  MOVLW  07
158A6:  MOVWF  xBF
158A8:  MOVLW  9B
158AA:  MOVWF  xBE
158AC:  CLRF   xC0
158AE:  MOVLW  2D
158B0:  MOVWF  xC1
158B2:  MOVLW  02
158B4:  MOVWF  xC2
158B6:  MOVLW  01
158B8:  MOVWF  xC3
158BA:  MOVLB  0
158BC:  CALL   1EFC
....................              
....................             strcpy(Menus.Letra,"Power:");displayMenu(Menus.Letra,91,34,2,1); 
158C0:  MOVLW  07
158C2:  MOVWF  FEA
158C4:  MOVLW  9B
158C6:  MOVWF  FE9
158C8:  MOVFF  FF2,7BB
158CC:  BCF    FF2.7
158CE:  MOVLW  00
158D0:  CALL   13B2
158D4:  TBLRD*-
158D6:  TBLRD*+
158D8:  MOVF   FF5,W
158DA:  MOVWF  FEE
158DC:  IORLW  00
158DE:  BTFSS  FD8.2
158E0:  GOTO   158D6
158E4:  MOVLB  7
158E6:  BTFSC  xBB.7
158E8:  BSF    FF2.7
158EA:  MOVLW  07
158EC:  MOVWF  xBF
158EE:  MOVLW  9B
158F0:  MOVWF  xBE
158F2:  MOVLW  5B
158F4:  MOVWF  xC0
158F6:  MOVLW  22
158F8:  MOVWF  xC1
158FA:  MOVLW  02
158FC:  MOVWF  xC2
158FE:  MOVLW  01
15900:  MOVWF  xC3
15902:  MOVLB  0
15904:  CALL   1EFC
....................             displayTiempo(Potencia,97,44,3,1);strcpy(Menus.Letra,"%");displayMenu(Menus.Letra,115,44,2,1); 
15908:  MOVFF  5BC,7CA
1590C:  MOVFF  5BB,7C9
15910:  MOVFF  5BA,7C8
15914:  MOVFF  5B9,7C7
15918:  CALL   68FA
1591C:  MOVFF  01,7BB
15920:  MOVFF  7BB,7BE
15924:  MOVLW  61
15926:  MOVLB  7
15928:  MOVWF  xBF
1592A:  MOVLW  2C
1592C:  MOVWF  xC0
1592E:  MOVLW  03
15930:  MOVWF  xC1
15932:  MOVLW  01
15934:  MOVWF  xC2
15936:  MOVLB  0
15938:  CALL   3D70
1593C:  MOVLW  07
1593E:  MOVWF  FEA
15940:  MOVLW  9B
15942:  MOVWF  FE9
15944:  MOVFF  FF2,7BB
15948:  BCF    FF2.7
1594A:  MOVLW  00
1594C:  CALL   13D8
15950:  TBLRD*-
15952:  TBLRD*+
15954:  MOVF   FF5,W
15956:  MOVWF  FEE
15958:  IORLW  00
1595A:  BTFSS  FD8.2
1595C:  GOTO   15952
15960:  MOVLB  7
15962:  BTFSC  xBB.7
15964:  BSF    FF2.7
15966:  MOVLW  07
15968:  MOVWF  xBF
1596A:  MOVLW  9B
1596C:  MOVWF  xBE
1596E:  MOVLW  73
15970:  MOVWF  xC0
15972:  MOVLW  2C
15974:  MOVWF  xC1
15976:  MOVLW  02
15978:  MOVWF  xC2
1597A:  MOVLW  01
1597C:  MOVWF  xC3
1597E:  MOVLB  0
15980:  CALL   1EFC
....................             strcpy(Menus.Letra,"Segm.");displayMenu(Menus.Letra,95,18,2,1); 
15984:  MOVLW  07
15986:  MOVWF  FEA
15988:  MOVLW  9B
1598A:  MOVWF  FE9
1598C:  MOVFF  FF2,7BB
15990:  BCF    FF2.7
15992:  MOVLW  00
15994:  CALL   13F8
15998:  TBLRD*-
1599A:  TBLRD*+
1599C:  MOVF   FF5,W
1599E:  MOVWF  FEE
159A0:  IORLW  00
159A2:  BTFSS  FD8.2
159A4:  GOTO   1599A
159A8:  MOVLB  7
159AA:  BTFSC  xBB.7
159AC:  BSF    FF2.7
159AE:  MOVLW  07
159B0:  MOVWF  xBF
159B2:  MOVLW  9B
159B4:  MOVWF  xBE
159B6:  MOVLW  5F
159B8:  MOVWF  xC0
159BA:  MOVLW  12
159BC:  MOVWF  xC1
159BE:  MOVLW  02
159C0:  MOVWF  xC2
159C2:  MOVLW  01
159C4:  MOVWF  xC3
159C6:  MOVLB  0
159C8:  CALL   1EFC
....................             displayTiempo(Segmento,96,26,3,1); 
159CC:  MOVFF  56B,7BE
159D0:  MOVLW  60
159D2:  MOVLB  7
159D4:  MOVWF  xBF
159D6:  MOVLW  1A
159D8:  MOVWF  xC0
159DA:  MOVLW  03
159DC:  MOVWF  xC1
159DE:  MOVLW  01
159E0:  MOVWF  xC2
159E2:  MOVLB  0
159E4:  CALL   3D70
....................             glcd_rect(90, 0, 127, 54, NO, ON); 
159E8:  MOVLW  5A
159EA:  MOVLB  7
159EC:  MOVWF  xD3
159EE:  CLRF   xD4
159F0:  MOVLW  7F
159F2:  MOVWF  xD5
159F4:  MOVLW  36
159F6:  MOVWF  xD6
159F8:  CLRF   xD7
159FA:  MOVLW  01
159FC:  MOVWF  xD8
159FE:  MOVLB  0
15A00:  CALL   1E3A
....................              
....................          //displayTiempo(Tpulsomin*10,97,42,3,1);strcpy(Menus.Letra,"%");displayMenu(Menus.Letra,115,42,2,1); 
....................           
....................          if(flag_display==1){ 
15A04:  MOVLB  5
15A06:  BTFSS  x6D.5
15A08:  GOTO   15A74
....................             displayTiempo(sensores(0),97,1,3,1); 
15A0C:  MOVLB  7
15A0E:  CLRF   xBC
15A10:  MOVLB  0
15A12:  CALL   374A
15A16:  MOVFF  03,7CA
15A1A:  MOVFF  02,7C9
15A1E:  MOVFF  01,7C8
15A22:  MOVFF  00,7C7
15A26:  CALL   68FA
15A2A:  MOVFF  01,7BB
15A2E:  MOVFF  7BB,7BE
15A32:  MOVLW  61
15A34:  MOVLB  7
15A36:  MOVWF  xBF
15A38:  MOVLW  01
15A3A:  MOVWF  xC0
15A3C:  MOVLW  03
15A3E:  MOVWF  xC1
15A40:  MOVLW  01
15A42:  MOVWF  xC2
15A44:  MOVLB  0
15A46:  CALL   3D70
....................             //displayTemperatura(Prom,97,13,0,1); 
....................             //displayFloat(Setpoint-TempeInicial,97,13,1); 
....................             displayFloat(TemperaturaIdeal,97,10,1);} 
15A4A:  MOVFF  640,7BE
15A4E:  MOVFF  63F,7BD
15A52:  MOVFF  63E,7BC
15A56:  MOVFF  63D,7BB
15A5A:  MOVLW  61
15A5C:  MOVLB  7
15A5E:  MOVWF  xBF
15A60:  MOVLW  0A
15A62:  MOVWF  xC0
15A64:  MOVLW  01
15A66:  MOVWF  xC1
15A68:  MOVLB  0
15A6A:  CALL   7BD4
....................          else{ 
15A6E:  GOTO   15AEA
15A72:  MOVLB  5
....................             glcd_rect(0, 0, 89, 27, NO, ON); 
15A74:  MOVLB  7
15A76:  CLRF   xD3
15A78:  CLRF   xD4
15A7A:  MOVLW  59
15A7C:  MOVWF  xD5
15A7E:  MOVLW  1B
15A80:  MOVWF  xD6
15A82:  CLRF   xD7
15A84:  MOVLW  01
15A86:  MOVWF  xD8
15A88:  MOVLB  0
15A8A:  CALL   1E3A
....................             glcd_rect(0, 27, 89, 54, NO, ON); 
15A8E:  MOVLB  7
15A90:  CLRF   xD3
15A92:  MOVLW  1B
15A94:  MOVWF  xD4
15A96:  MOVLW  59
15A98:  MOVWF  xD5
15A9A:  MOVLW  36
15A9C:  MOVWF  xD6
15A9E:  CLRF   xD7
15AA0:  MOVLW  01
15AA2:  MOVWF  xD8
15AA4:  MOVLB  0
15AA6:  CALL   1E3A
....................             displayHora2(Hora,Minuto,92,2,1,1); 
15AAA:  MOVFF  774,7BB
15AAE:  MOVFF  775,7BC
15AB2:  MOVLW  5C
15AB4:  MOVLB  7
15AB6:  MOVWF  xBD
15AB8:  MOVLW  02
15ABA:  MOVWF  xBE
15ABC:  MOVLW  01
15ABE:  MOVWF  xBF
15AC0:  MOVWF  xC0
15AC2:  MOVLB  0
15AC4:  GOTO   7C4C
....................             displayFecha2(Dia,Mes,Year,92,10,1,1); 
15AC8:  MOVFF  773,7BB
15ACC:  MOVFF  778,7BC
15AD0:  MOVFF  771,7BD
15AD4:  MOVLW  5C
15AD6:  MOVLB  7
15AD8:  MOVWF  xBE
15ADA:  MOVLW  0A
15ADC:  MOVWF  xBF
15ADE:  MOVLW  01
15AE0:  MOVWF  xC0
15AE2:  MOVWF  xC1
15AE4:  MOVLB  0
15AE6:  GOTO   7D54
....................          } 
....................           
....................          // Muestra Valor de esterilizacion Programado. 
....................             displayTiempo(Testerilizacion[3],20,2,0,2);displayTiempo(Testerilizacion[2],33,2,0,2); 
15AEA:  MOVFF  5C4,7BE
15AEE:  MOVLW  14
15AF0:  MOVLB  7
15AF2:  MOVWF  xBF
15AF4:  MOVLW  02
15AF6:  MOVWF  xC0
15AF8:  CLRF   xC1
15AFA:  MOVWF  xC2
15AFC:  MOVLB  0
15AFE:  CALL   3D70
15B02:  MOVFF  5C3,7BE
15B06:  MOVLW  21
15B08:  MOVLB  7
15B0A:  MOVWF  xBF
15B0C:  MOVLW  02
15B0E:  MOVWF  xC0
15B10:  CLRF   xC1
15B12:  MOVWF  xC2
15B14:  MOVLB  0
15B16:  CALL   3D70
....................             strcpy(Menus.Letra,":");displayMenu(Menus.Letra,46,2,2,2);  
15B1A:  MOVLW  07
15B1C:  MOVWF  FEA
15B1E:  MOVLW  9B
15B20:  MOVWF  FE9
15B22:  MOVFF  FF2,7BB
15B26:  BCF    FF2.7
15B28:  MOVLW  00
15B2A:  CALL   07FA
15B2E:  TBLRD*-
15B30:  TBLRD*+
15B32:  MOVF   FF5,W
15B34:  MOVWF  FEE
15B36:  IORLW  00
15B38:  BTFSS  FD8.2
15B3A:  GOTO   15B30
15B3E:  MOVLB  7
15B40:  BTFSC  xBB.7
15B42:  BSF    FF2.7
15B44:  MOVLW  07
15B46:  MOVWF  xBF
15B48:  MOVLW  9B
15B4A:  MOVWF  xBE
15B4C:  MOVLW  2E
15B4E:  MOVWF  xC0
15B50:  MOVLW  02
15B52:  MOVWF  xC1
15B54:  MOVWF  xC2
15B56:  MOVWF  xC3
15B58:  MOVLB  0
15B5A:  CALL   1EFC
....................             displayTiempo(Testerilizacion[1],55,2,0,2);displayTiempo(Testerilizacion[0],68,2,0,2); 
15B5E:  MOVFF  5C2,7BE
15B62:  MOVLW  37
15B64:  MOVLB  7
15B66:  MOVWF  xBF
15B68:  MOVLW  02
15B6A:  MOVWF  xC0
15B6C:  CLRF   xC1
15B6E:  MOVWF  xC2
15B70:  MOVLB  0
15B72:  CALL   3D70
15B76:  MOVFF  5C1,7BE
15B7A:  MOVLW  44
15B7C:  MOVLB  7
15B7E:  MOVWF  xBF
15B80:  MOVLW  02
15B82:  MOVWF  xC0
15B84:  CLRF   xC1
15B86:  MOVWF  xC2
15B88:  MOVLB  0
15B8A:  CALL   3D70
....................              
....................             // Muestra Valor de esterilizacion actual. 
....................             strcpy(Menus.Letra,"Time:");displayMenu(Menus.Letra,0,18,2,1);  
15B8E:  MOVLW  07
15B90:  MOVWF  FEA
15B92:  MOVLW  9B
15B94:  MOVWF  FE9
15B96:  MOVFF  FF2,7BB
15B9A:  BCF    FF2.7
15B9C:  MOVLW  00
15B9E:  CALL   141C
15BA2:  TBLRD*-
15BA4:  TBLRD*+
15BA6:  MOVF   FF5,W
15BA8:  MOVWF  FEE
15BAA:  IORLW  00
15BAC:  BTFSS  FD8.2
15BAE:  GOTO   15BA4
15BB2:  MOVLB  7
15BB4:  BTFSC  xBB.7
15BB6:  BSF    FF2.7
15BB8:  MOVLW  07
15BBA:  MOVWF  xBF
15BBC:  MOVLW  9B
15BBE:  MOVWF  xBE
15BC0:  CLRF   xC0
15BC2:  MOVLW  12
15BC4:  MOVWF  xC1
15BC6:  MOVLW  02
15BC8:  MOVWF  xC2
15BCA:  MOVLW  01
15BCC:  MOVWF  xC3
15BCE:  MOVLB  0
15BD0:  CALL   1EFC
....................             displayTiempo(Testerilizacionp[3],30,18,0,1);displayTiempo(Testerilizacionp[2],36,18,0,1); 
15BD4:  MOVFF  5C8,7BE
15BD8:  MOVLW  1E
15BDA:  MOVLB  7
15BDC:  MOVWF  xBF
15BDE:  MOVLW  12
15BE0:  MOVWF  xC0
15BE2:  CLRF   xC1
15BE4:  MOVLW  01
15BE6:  MOVWF  xC2
15BE8:  MOVLB  0
15BEA:  CALL   3D70
15BEE:  MOVFF  5C7,7BE
15BF2:  MOVLW  24
15BF4:  MOVLB  7
15BF6:  MOVWF  xBF
15BF8:  MOVLW  12
15BFA:  MOVWF  xC0
15BFC:  CLRF   xC1
15BFE:  MOVLW  01
15C00:  MOVWF  xC2
15C02:  MOVLB  0
15C04:  CALL   3D70
....................             strcpy(Menus.Letra,":");displayMenu(Menus.Letra,42,18,2,1);  
15C08:  MOVLW  07
15C0A:  MOVWF  FEA
15C0C:  MOVLW  9B
15C0E:  MOVWF  FE9
15C10:  MOVFF  FF2,7BB
15C14:  BCF    FF2.7
15C16:  MOVLW  00
15C18:  CALL   07FA
15C1C:  TBLRD*-
15C1E:  TBLRD*+
15C20:  MOVF   FF5,W
15C22:  MOVWF  FEE
15C24:  IORLW  00
15C26:  BTFSS  FD8.2
15C28:  GOTO   15C1E
15C2C:  MOVLB  7
15C2E:  BTFSC  xBB.7
15C30:  BSF    FF2.7
15C32:  MOVLW  07
15C34:  MOVWF  xBF
15C36:  MOVLW  9B
15C38:  MOVWF  xBE
15C3A:  MOVLW  2A
15C3C:  MOVWF  xC0
15C3E:  MOVLW  12
15C40:  MOVWF  xC1
15C42:  MOVLW  02
15C44:  MOVWF  xC2
15C46:  MOVLW  01
15C48:  MOVWF  xC3
15C4A:  MOVLB  0
15C4C:  CALL   1EFC
....................             displayTiempo(Testerilizacionp[1],48,18,0,1);displayTiempo(Testerilizacionp[0],54,18,0,1); 
15C50:  MOVFF  5C6,7BE
15C54:  MOVLW  30
15C56:  MOVLB  7
15C58:  MOVWF  xBF
15C5A:  MOVLW  12
15C5C:  MOVWF  xC0
15C5E:  CLRF   xC1
15C60:  MOVLW  01
15C62:  MOVWF  xC2
15C64:  MOVLB  0
15C66:  CALL   3D70
15C6A:  MOVFF  5C5,7BE
15C6E:  MOVLW  36
15C70:  MOVLB  7
15C72:  MOVWF  xBF
15C74:  MOVLW  12
15C76:  MOVWF  xC0
15C78:  CLRF   xC1
15C7A:  MOVLW  01
15C7C:  MOVWF  xC2
15C7E:  MOVLB  0
15C80:  CALL   3D70
....................             strcpy(Menus.Letra,"(H:M)");displayMenu(Menus.Letra,60,18,2,1);  
15C84:  MOVLW  07
15C86:  MOVWF  FEA
15C88:  MOVLW  9B
15C8A:  MOVWF  FE9
15C8C:  MOVFF  FF2,7BB
15C90:  BCF    FF2.7
15C92:  MOVLW  00
15C94:  CALL   1440
15C98:  TBLRD*-
15C9A:  TBLRD*+
15C9C:  MOVF   FF5,W
15C9E:  MOVWF  FEE
15CA0:  IORLW  00
15CA2:  BTFSS  FD8.2
15CA4:  GOTO   15C9A
15CA8:  MOVLB  7
15CAA:  BTFSC  xBB.7
15CAC:  BSF    FF2.7
15CAE:  MOVLW  07
15CB0:  MOVWF  xBF
15CB2:  MOVLW  9B
15CB4:  MOVWF  xBE
15CB6:  MOVLW  3C
15CB8:  MOVWF  xC0
15CBA:  MOVLW  12
15CBC:  MOVWF  xC1
15CBE:  MOVLW  02
15CC0:  MOVWF  xC2
15CC2:  MOVLW  01
15CC4:  MOVWF  xC3
15CC6:  MOVLB  0
15CC8:  CALL   1EFC
15CCC:  MOVLB  5
....................       }  
....................       
....................       // Si cumplio el tiempo de esterilizacin, Muestre ciclo finalizado y detenga control de temperatura. 
....................       if((Testerilizacion[0]>=Testerilizacionp[0])&&(Testerilizacion[1]>=Testerilizacionp[1])&&(Testerilizacion[2]>=Testerilizacionp[2])&&(Testerilizacion[3]>=Testerilizacionp[3]) && Pausa<3) 
15CCE:  MOVF   xC5,W
15CD0:  XORLW  80
15CD2:  MOVWF  00
15CD4:  MOVF   xC1,W
15CD6:  XORLW  80
15CD8:  SUBWF  00,W
15CDA:  BTFSC  FD8.2
15CDC:  GOTO   15CE6
15CE0:  BTFSC  FD8.0
15CE2:  GOTO   15EBE
15CE6:  MOVF   xC6,W
15CE8:  XORLW  80
15CEA:  MOVWF  00
15CEC:  MOVF   xC2,W
15CEE:  XORLW  80
15CF0:  SUBWF  00,W
15CF2:  BTFSC  FD8.2
15CF4:  GOTO   15CFE
15CF8:  BTFSC  FD8.0
15CFA:  GOTO   15EBE
15CFE:  MOVF   xC7,W
15D00:  XORLW  80
15D02:  MOVWF  00
15D04:  MOVF   xC3,W
15D06:  XORLW  80
15D08:  SUBWF  00,W
15D0A:  BTFSC  FD8.2
15D0C:  GOTO   15D16
15D10:  BTFSC  FD8.0
15D12:  GOTO   15EBE
15D16:  MOVF   xC8,W
15D18:  XORLW  80
15D1A:  MOVWF  00
15D1C:  MOVF   xC4,W
15D1E:  XORLW  80
15D20:  SUBWF  00,W
15D22:  BTFSC  FD8.2
15D24:  GOTO   15D2E
15D28:  BTFSC  FD8.0
15D2A:  GOTO   15EBE
15D2E:  MOVF   x76,W
15D30:  SUBLW  02
15D32:  BTFSS  FD8.0
15D34:  GOTO   15EBE
....................       { 
....................          flag_calcula=0; 
15D38:  BCF    x6D.2
....................          if(Segmento<Segmentos){ 
15D3A:  MOVF   x6A,W
15D3C:  SUBWF  x6B,W
15D3E:  BTFSC  FD8.0
15D40:  GOTO   15DAE
....................             Segmento++; 
15D44:  INCF   x6B,F
....................             Testerilizacion[0]=0; 
15D46:  CLRF   xC1
....................             Testerilizacion[1]=0; 
15D48:  CLRF   xC2
....................             Testerilizacion[2]=0; 
15D4A:  CLRF   xC3
....................             Testerilizacion[3]=0; 
15D4C:  CLRF   xC4
....................             if(ActivaImpresion){ 
15D4E:  BTFSS  x5F.3
15D50:  GOTO   15DAA
....................                fprintf(printer,"---------------\n"); 
15D54:  MOVLW  F2
15D56:  MOVWF  FF6
15D58:  MOVLW  17
15D5A:  MOVWF  FF7
15D5C:  MOVLW  00
15D5E:  MOVWF  FF8
15D60:  MOVLB  0
15D62:  CALL   3C0C
....................                delay_us(20); 
15D66:  MOVLW  21
15D68:  MOVWF  00
15D6A:  DECFSZ 00,F
15D6C:  BRA    15D6A
....................                fprintf(printer,"Inicia Segmento %02u\n",Segmento); 
15D6E:  MOVLW  04
15D70:  MOVWF  FF6
15D72:  MOVLW  18
15D74:  MOVWF  FF7
15D76:  MOVLW  00
15D78:  MOVWF  FF8
15D7A:  MOVLW  10
15D7C:  MOVLB  7
15D7E:  MOVWF  xBC
15D80:  MOVLB  0
15D82:  CALL   3C36
15D86:  MOVFF  56B,7BC
15D8A:  MOVLW  01
15D8C:  MOVLB  7
15D8E:  MOVWF  xBD
15D90:  MOVLB  0
15D92:  CALL   3C68
15D96:  MOVLW  0A
15D98:  BTFSS  F9E.4
15D9A:  GOTO   15D98
15D9E:  MOVWF  FAD
....................                delay_us(20); 
15DA0:  MOVLW  21
15DA2:  MOVWF  00
15DA4:  DECFSZ 00,F
15DA6:  BRA    15DA4
15DA8:  MOVLB  5
....................             } 
....................          } 
....................          else{ 
15DAA:  GOTO   15E04
....................             Pausa=3; 
15DAE:  MOVLW  03
15DB0:  MOVWF  x76
....................             if(ActivaImpresion){ 
15DB2:  BTFSS  x5F.3
15DB4:  GOTO   15E04
....................                fprintf(printer,"---------------\n"); 
15DB8:  MOVLW  1A
15DBA:  MOVWF  FF6
15DBC:  MOVLW  18
15DBE:  MOVWF  FF7
15DC0:  MOVLW  00
15DC2:  MOVWF  FF8
15DC4:  MOVLB  0
15DC6:  CALL   3C0C
....................                delay_us(20); 
15DCA:  MOVLW  21
15DCC:  MOVWF  00
15DCE:  DECFSZ 00,F
15DD0:  BRA    15DCE
....................                fprintf(printer,"Ciclo Finalizado\n"); 
15DD2:  MOVLW  2C
15DD4:  MOVWF  FF6
15DD6:  MOVLW  18
15DD8:  MOVWF  FF7
15DDA:  MOVLW  00
15DDC:  MOVWF  FF8
15DDE:  CALL   3C0C
....................                delay_us(20); 
15DE2:  MOVLW  21
15DE4:  MOVWF  00
15DE6:  DECFSZ 00,F
15DE8:  BRA    15DE6
....................                fprintf(printer,"              \n"); 
15DEA:  MOVLW  3E
15DEC:  MOVWF  FF6
15DEE:  MOVLW  18
15DF0:  MOVWF  FF7
15DF2:  MOVLW  00
15DF4:  MOVWF  FF8
15DF6:  CALL   3C0C
....................                delay_us(20); 
15DFA:  MOVLW  21
15DFC:  MOVWF  00
15DFE:  DECFSZ 00,F
15E00:  BRA    15DFE
15E02:  MOVLB  5
....................             } 
....................          } 
....................          glcd_fillScreen(OFF); 
15E04:  MOVLB  7
15E06:  CLRF   xBC
15E08:  MOVLB  0
15E0A:  CALL   18CE
....................          Buzz_on; 
15E0E:  BSF    F8B.4
15E10:  BCF    F94.4
....................          delay_ms(1000); 
15E12:  MOVLW  04
15E14:  MOVLB  7
15E16:  MOVWF  xBB
15E18:  MOVLW  FA
15E1A:  MOVWF  xC1
15E1C:  MOVLB  0
15E1E:  CALL   184E
15E22:  MOVLB  7
15E24:  DECFSZ xBB,F
15E26:  BRA    15E18
....................          Buzz_off; 
15E28:  BCF    F8B.4
15E2A:  BCF    F94.4
....................          delay_ms(1000); 
15E2C:  MOVLW  04
15E2E:  MOVWF  xBB
15E30:  MOVLW  FA
15E32:  MOVWF  xC1
15E34:  MOVLB  0
15E36:  CALL   184E
15E3A:  MOVLB  7
15E3C:  DECFSZ xBB,F
15E3E:  BRA    15E30
....................          glcd_init(ON); 
15E40:  MOVLW  01
15E42:  MOVWF  xBB
15E44:  MOVLB  0
15E46:  CALL   19E0
....................          strcpy(Menus.Letra,"Status:Cambio Seg."); 
15E4A:  MOVLW  07
15E4C:  MOVWF  FEA
15E4E:  MOVLW  9B
15E50:  MOVWF  FE9
15E52:  MOVFF  FF2,7BB
15E56:  BCF    FF2.7
15E58:  MOVLW  00
15E5A:  CALL   1464
15E5E:  TBLRD*-
15E60:  TBLRD*+
15E62:  MOVF   FF5,W
15E64:  MOVWF  FEE
15E66:  IORLW  00
15E68:  BTFSS  FD8.2
15E6A:  GOTO   15E60
15E6E:  MOVLB  7
15E70:  BTFSC  xBB.7
15E72:  BSF    FF2.7
....................          displayMenu(Menus.Letra,0,55,2,1);          
15E74:  MOVLW  07
15E76:  MOVWF  xBF
15E78:  MOVLW  9B
15E7A:  MOVWF  xBE
15E7C:  CLRF   xC0
15E7E:  MOVLW  37
15E80:  MOVWF  xC1
15E82:  MOVLW  02
15E84:  MOVWF  xC2
15E86:  MOVLW  01
15E88:  MOVWF  xC3
15E8A:  MOVLB  0
15E8C:  CALL   1EFC
....................          delay_ms(500); 
15E90:  MOVLW  02
15E92:  MOVLB  7
15E94:  MOVWF  xBB
15E96:  MOVLW  FA
15E98:  MOVWF  xC1
15E9A:  MOVLB  0
15E9C:  CALL   184E
15EA0:  MOVLB  7
15EA2:  DECFSZ xBB,F
15EA4:  BRA    15E96
....................          if(Pausa==3){ 
15EA6:  MOVLB  5
15EA8:  MOVF   x76,W
15EAA:  SUBLW  03
15EAC:  BTFSS  FD8.2
15EAE:  GOTO   15EBE
....................             glcd_fillScreen(OFF); 
15EB2:  MOVLB  7
15EB4:  CLRF   xBC
15EB6:  MOVLB  0
15EB8:  CALL   18CE
15EBC:  MOVLB  5
....................          } 
....................       }  
....................        
....................       if(tinicio>=60) 
15EBE:  MOVF   x88,F
15EC0:  BTFSS  FD8.2
15EC2:  GOTO   15ED0
15EC6:  MOVF   x87,W
15EC8:  SUBLW  3B
15ECA:  BTFSC  FD8.0
15ECC:  GOTO   15F24
....................       { 
....................          tinicio=0; 
15ED0:  CLRF   x88
15ED2:  CLRF   x87
....................          Testerilizacion[0]++; 
15ED4:  INCF   xC1,F
....................          if(Testerilizacion[0]>9) 
15ED6:  BTFSC  xC1.7
15ED8:  GOTO   15EEA
15EDC:  MOVF   xC1,W
15EDE:  SUBLW  09
15EE0:  BTFSC  FD8.0
15EE2:  GOTO   15EEA
....................          { 
....................             Testerilizacion[0]=0; 
15EE6:  CLRF   xC1
....................             Testerilizacion[1]++; 
15EE8:  INCF   xC2,F
....................          } 
....................          if(Testerilizacion[1]>5) 
15EEA:  BTFSC  xC2.7
15EEC:  GOTO   15EFE
15EF0:  MOVF   xC2,W
15EF2:  SUBLW  05
15EF4:  BTFSC  FD8.0
15EF6:  GOTO   15EFE
....................          { 
....................             Testerilizacion[1]=0; 
15EFA:  CLRF   xC2
....................             Testerilizacion[2]++; 
15EFC:  INCF   xC3,F
....................          } 
....................          if(Testerilizacion[2]>9) 
15EFE:  BTFSC  xC3.7
15F00:  GOTO   15F12
15F04:  MOVF   xC3,W
15F06:  SUBLW  09
15F08:  BTFSC  FD8.0
15F0A:  GOTO   15F12
....................          { 
....................             Testerilizacion[2]=0; 
15F0E:  CLRF   xC3
....................             Testerilizacion[3]++; 
15F10:  INCF   xC4,F
....................          } 
....................          if(Testerilizacion[3]>9) 
15F12:  BTFSC  xC4.7
15F14:  GOTO   15F24
15F18:  MOVF   xC4,W
15F1A:  SUBLW  09
15F1C:  BTFSC  FD8.0
15F1E:  GOTO   15F24
....................          { 
....................             Testerilizacion[3]=0; 
15F22:  CLRF   xC4
....................          } 
....................       } 
....................        
....................       if(LEFT)//Si oprime boton de Toma. 
15F24:  BSF    F96.2
15F26:  BTFSC  F84.2
15F28:  GOTO   15F72
....................       { 
....................          if(Pausa<3){ 
15F2C:  MOVF   x76,W
15F2E:  SUBLW  02
15F30:  BTFSS  FD8.0
15F32:  GOTO   15F72
....................             if(Pausa!=2) 
15F36:  MOVF   x76,W
15F38:  SUBLW  02
15F3A:  BTFSC  FD8.2
15F3C:  GOTO   15F72
....................             { 
....................                delay_ms(500);Menu=30;glcd_fillscreen(OFF);Opcion=1;visual=1;Pausa=1;Menu=1; 
15F40:  MOVLW  02
15F42:  MOVLB  7
15F44:  MOVWF  xBB
15F46:  MOVLW  FA
15F48:  MOVWF  xC1
15F4A:  MOVLB  0
15F4C:  CALL   184E
15F50:  MOVLB  7
15F52:  DECFSZ xBB,F
15F54:  BRA    15F46
15F56:  MOVLW  1E
15F58:  MOVLB  5
15F5A:  MOVWF  x72
15F5C:  MOVLB  7
15F5E:  CLRF   xBC
15F60:  MOVLB  0
15F62:  CALL   18CE
15F66:  MOVLW  01
15F68:  MOVLB  5
15F6A:  MOVWF  x79
15F6C:  BSF    x6D.0
15F6E:  MOVWF  x76
15F70:  MOVWF  x72
....................             } 
....................          } 
....................       } 
....................        
....................       if(Pausa==3 && !DOOR){          
15F72:  MOVF   x76,W
15F74:  SUBLW  03
15F76:  BTFSS  FD8.2
15F78:  GOTO   15FE0
15F7C:  BSF    F92.4
15F7E:  BTFSC  F80.4
15F80:  GOTO   15FE0
....................          strcpy(Menus.Letra,"Status:Finalizado"); 
15F84:  MOVLW  07
15F86:  MOVWF  FEA
15F88:  MOVLW  9B
15F8A:  MOVWF  FE9
15F8C:  MOVFF  FF2,7BB
15F90:  BCF    FF2.7
15F92:  MOVLW  00
15F94:  MOVLB  0
15F96:  CALL   1496
15F9A:  TBLRD*-
15F9C:  TBLRD*+
15F9E:  MOVF   FF5,W
15FA0:  MOVWF  FEE
15FA2:  IORLW  00
15FA4:  BTFSS  FD8.2
15FA6:  GOTO   15F9C
15FAA:  MOVLB  7
15FAC:  BTFSC  xBB.7
15FAE:  BSF    FF2.7
....................          displayMenu(Menus.Letra,0,55,2,1); 
15FB0:  MOVLW  07
15FB2:  MOVWF  xBF
15FB4:  MOVLW  9B
15FB6:  MOVWF  xBE
15FB8:  CLRF   xC0
15FBA:  MOVLW  37
15FBC:  MOVWF  xC1
15FBE:  MOVLW  02
15FC0:  MOVWF  xC2
15FC2:  MOVLW  01
15FC4:  MOVWF  xC3
15FC6:  MOVLB  0
15FC8:  CALL   1EFC
....................          tiempo_esterilizacion=4; 
15FCC:  MOVLW  04
15FCE:  MOVLB  5
15FD0:  MOVWF  x7A
....................          Control=0; 
15FD2:  CLRF   x71
....................          Resistencia_off; 
15FD4:  BCF    F8B.0
15FD6:  BCF    F94.0
....................          Tpulso=0.0; 
15FD8:  CLRF   xDC
15FDA:  CLRF   xDB
15FDC:  CLRF   xDA
15FDE:  CLRF   xD9
....................       } 
....................          
....................     } 
.................... //_--------------------------------------------------------------------------------------------------------------------------------------------------------        
....................  
.................... //_-------------------------------------------------------------------------------------------------------------------------------------------------------- 
....................       if(Menu==100){ //Menu de Configuracin de Parametros de Control 
15FE0:  MOVF   x72,W
15FE2:  SUBLW  64
15FE4:  BTFSS  FD8.2
15FE6:  GOTO   16924
....................        
....................       if(Opcion>13) 
15FEA:  MOVF   x79,W
15FEC:  SUBLW  0D
15FEE:  BTFSC  FD8.0
15FF0:  GOTO   15FF8
....................       {Opcion=1;} 
15FF4:  MOVLW  01
15FF6:  MOVWF  x79
....................       if(Opcion<1) 
15FF8:  MOVF   x79,F
15FFA:  BTFSS  FD8.2
15FFC:  GOTO   16004
....................       {Opcion=13;} 
16000:  MOVLW  0D
16002:  MOVWF  x79
....................        
....................       if(Opcion<=6){ 
16004:  MOVF   x79,W
16006:  SUBLW  06
16008:  BTFSS  FD8.0
1600A:  GOTO   163BE
....................          if(Opcion==1)    
1600E:  DECFSZ x79,W
16010:  GOTO   1605E
....................             {strcpy(Menus.Letra,"Proporcional"); 
16014:  MOVLW  07
16016:  MOVWF  FEA
16018:  MOVLW  9B
1601A:  MOVWF  FE9
1601C:  MOVFF  FF2,7BB
16020:  BCF    FF2.7
16022:  MOVLW  00
16024:  MOVLB  0
16026:  CALL   14C6
1602A:  TBLRD*-
1602C:  TBLRD*+
1602E:  MOVF   FF5,W
16030:  MOVWF  FEE
16032:  IORLW  00
16034:  BTFSS  FD8.2
16036:  GOTO   1602C
1603A:  MOVLB  7
1603C:  BTFSC  xBB.7
1603E:  BSF    FF2.7
....................             displayMenu(Menus.Letra,0,0,1,1);} 
16040:  MOVLW  07
16042:  MOVWF  xBF
16044:  MOVLW  9B
16046:  MOVWF  xBE
16048:  CLRF   xC0
1604A:  CLRF   xC1
1604C:  MOVLW  01
1604E:  MOVWF  xC2
16050:  MOVWF  xC3
16052:  MOVLB  0
16054:  CALL   1EFC
....................          else 
16058:  GOTO   160A2
1605C:  MOVLB  5
....................             {strcpy(Menus.Letra,"Proporcional"); 
1605E:  MOVLW  07
16060:  MOVWF  FEA
16062:  MOVLW  9B
16064:  MOVWF  FE9
16066:  MOVFF  FF2,7BB
1606A:  BCF    FF2.7
1606C:  MOVLW  00
1606E:  MOVLB  0
16070:  CALL   14C6
16074:  TBLRD*-
16076:  TBLRD*+
16078:  MOVF   FF5,W
1607A:  MOVWF  FEE
1607C:  IORLW  00
1607E:  BTFSS  FD8.2
16080:  GOTO   16076
16084:  MOVLB  7
16086:  BTFSC  xBB.7
16088:  BSF    FF2.7
....................             displayMenu(Menus.Letra,0,0,0,1);} 
1608A:  MOVLW  07
1608C:  MOVWF  xBF
1608E:  MOVLW  9B
16090:  MOVWF  xBE
16092:  CLRF   xC0
16094:  CLRF   xC1
16096:  CLRF   xC2
16098:  MOVLW  01
1609A:  MOVWF  xC3
1609C:  MOVLB  0
1609E:  CALL   1EFC
....................           
....................          if(Opcion==2)    
160A2:  MOVLB  5
160A4:  MOVF   x79,W
160A6:  SUBLW  02
160A8:  BTFSS  FD8.2
160AA:  GOTO   160FA
....................             {strcpy(Menus.Letra,"Integral"); 
160AE:  MOVLW  07
160B0:  MOVWF  FEA
160B2:  MOVLW  9B
160B4:  MOVWF  FE9
160B6:  MOVFF  FF2,7BB
160BA:  BCF    FF2.7
160BC:  MOVLW  00
160BE:  MOVLB  0
160C0:  CALL   14F2
160C4:  TBLRD*-
160C6:  TBLRD*+
160C8:  MOVF   FF5,W
160CA:  MOVWF  FEE
160CC:  IORLW  00
160CE:  BTFSS  FD8.2
160D0:  GOTO   160C6
160D4:  MOVLB  7
160D6:  BTFSC  xBB.7
160D8:  BSF    FF2.7
....................             displayMenu(Menus.Letra,0,9,1,1);} 
160DA:  MOVLW  07
160DC:  MOVWF  xBF
160DE:  MOVLW  9B
160E0:  MOVWF  xBE
160E2:  CLRF   xC0
160E4:  MOVLW  09
160E6:  MOVWF  xC1
160E8:  MOVLW  01
160EA:  MOVWF  xC2
160EC:  MOVWF  xC3
160EE:  MOVLB  0
160F0:  CALL   1EFC
....................          else 
160F4:  GOTO   16140
160F8:  MOVLB  5
....................             {strcpy(Menus.Letra,"Integral"); 
160FA:  MOVLW  07
160FC:  MOVWF  FEA
160FE:  MOVLW  9B
16100:  MOVWF  FE9
16102:  MOVFF  FF2,7BB
16106:  BCF    FF2.7
16108:  MOVLW  00
1610A:  MOVLB  0
1610C:  CALL   14F2
16110:  TBLRD*-
16112:  TBLRD*+
16114:  MOVF   FF5,W
16116:  MOVWF  FEE
16118:  IORLW  00
1611A:  BTFSS  FD8.2
1611C:  GOTO   16112
16120:  MOVLB  7
16122:  BTFSC  xBB.7
16124:  BSF    FF2.7
....................             displayMenu(Menus.Letra,0,9,0,1);} 
16126:  MOVLW  07
16128:  MOVWF  xBF
1612A:  MOVLW  9B
1612C:  MOVWF  xBE
1612E:  CLRF   xC0
16130:  MOVLW  09
16132:  MOVWF  xC1
16134:  CLRF   xC2
16136:  MOVLW  01
16138:  MOVWF  xC3
1613A:  MOVLB  0
1613C:  CALL   1EFC
....................              
....................          if(Opcion==3)    
16140:  MOVLB  5
16142:  MOVF   x79,W
16144:  SUBLW  03
16146:  BTFSS  FD8.2
16148:  GOTO   16198
....................             {strcpy(Menus.Letra,"Derivativo"); 
1614C:  MOVLW  07
1614E:  MOVWF  FEA
16150:  MOVLW  9B
16152:  MOVWF  FE9
16154:  MOVFF  FF2,7BB
16158:  BCF    FF2.7
1615A:  MOVLW  00
1615C:  MOVLB  0
1615E:  CALL   151A
16162:  TBLRD*-
16164:  TBLRD*+
16166:  MOVF   FF5,W
16168:  MOVWF  FEE
1616A:  IORLW  00
1616C:  BTFSS  FD8.2
1616E:  GOTO   16164
16172:  MOVLB  7
16174:  BTFSC  xBB.7
16176:  BSF    FF2.7
....................             displayMenu(Menus.Letra,0,18,1,1);} 
16178:  MOVLW  07
1617A:  MOVWF  xBF
1617C:  MOVLW  9B
1617E:  MOVWF  xBE
16180:  CLRF   xC0
16182:  MOVLW  12
16184:  MOVWF  xC1
16186:  MOVLW  01
16188:  MOVWF  xC2
1618A:  MOVWF  xC3
1618C:  MOVLB  0
1618E:  CALL   1EFC
....................          else 
16192:  GOTO   161DE
16196:  MOVLB  5
....................             {strcpy(Menus.Letra,"Derivativo"); 
16198:  MOVLW  07
1619A:  MOVWF  FEA
1619C:  MOVLW  9B
1619E:  MOVWF  FE9
161A0:  MOVFF  FF2,7BB
161A4:  BCF    FF2.7
161A6:  MOVLW  00
161A8:  MOVLB  0
161AA:  CALL   151A
161AE:  TBLRD*-
161B0:  TBLRD*+
161B2:  MOVF   FF5,W
161B4:  MOVWF  FEE
161B6:  IORLW  00
161B8:  BTFSS  FD8.2
161BA:  GOTO   161B0
161BE:  MOVLB  7
161C0:  BTFSC  xBB.7
161C2:  BSF    FF2.7
....................             displayMenu(Menus.Letra,0,18,0,1);}    
161C4:  MOVLW  07
161C6:  MOVWF  xBF
161C8:  MOVLW  9B
161CA:  MOVWF  xBE
161CC:  CLRF   xC0
161CE:  MOVLW  12
161D0:  MOVWF  xC1
161D2:  CLRF   xC2
161D4:  MOVLW  01
161D6:  MOVWF  xC3
161D8:  MOVLB  0
161DA:  CALL   1EFC
....................           
....................          if(Opcion==4)    
161DE:  MOVLB  5
161E0:  MOVF   x79,W
161E2:  SUBLW  04
161E4:  BTFSS  FD8.2
161E6:  GOTO   16236
....................             {strcpy(Menus.Letra,"Tciclo"); 
161EA:  MOVLW  07
161EC:  MOVWF  FEA
161EE:  MOVLW  9B
161F0:  MOVWF  FE9
161F2:  MOVFF  FF2,7BB
161F6:  BCF    FF2.7
161F8:  MOVLW  00
161FA:  MOVLB  0
161FC:  CALL   089A
16200:  TBLRD*-
16202:  TBLRD*+
16204:  MOVF   FF5,W
16206:  MOVWF  FEE
16208:  IORLW  00
1620A:  BTFSS  FD8.2
1620C:  GOTO   16202
16210:  MOVLB  7
16212:  BTFSC  xBB.7
16214:  BSF    FF2.7
....................             displayMenu(Menus.Letra,0,27,1,1);} 
16216:  MOVLW  07
16218:  MOVWF  xBF
1621A:  MOVLW  9B
1621C:  MOVWF  xBE
1621E:  CLRF   xC0
16220:  MOVLW  1B
16222:  MOVWF  xC1
16224:  MOVLW  01
16226:  MOVWF  xC2
16228:  MOVWF  xC3
1622A:  MOVLB  0
1622C:  CALL   1EFC
....................          else 
16230:  GOTO   1627C
16234:  MOVLB  5
....................             {strcpy(Menus.Letra,"Tciclo"); 
16236:  MOVLW  07
16238:  MOVWF  FEA
1623A:  MOVLW  9B
1623C:  MOVWF  FE9
1623E:  MOVFF  FF2,7BB
16242:  BCF    FF2.7
16244:  MOVLW  00
16246:  MOVLB  0
16248:  CALL   089A
1624C:  TBLRD*-
1624E:  TBLRD*+
16250:  MOVF   FF5,W
16252:  MOVWF  FEE
16254:  IORLW  00
16256:  BTFSS  FD8.2
16258:  GOTO   1624E
1625C:  MOVLB  7
1625E:  BTFSC  xBB.7
16260:  BSF    FF2.7
....................             displayMenu(Menus.Letra,0,27,0,1);} 
16262:  MOVLW  07
16264:  MOVWF  xBF
16266:  MOVLW  9B
16268:  MOVWF  xBE
1626A:  CLRF   xC0
1626C:  MOVLW  1B
1626E:  MOVWF  xC1
16270:  CLRF   xC2
16272:  MOVLW  01
16274:  MOVWF  xC3
16276:  MOVLB  0
16278:  CALL   1EFC
....................              
....................          if(Opcion==5)    
1627C:  MOVLB  5
1627E:  MOVF   x79,W
16280:  SUBLW  05
16282:  BTFSS  FD8.2
16284:  GOTO   162D4
....................             {strcpy(Menus.Letra,"Ajuste +"); 
16288:  MOVLW  07
1628A:  MOVWF  FEA
1628C:  MOVLW  9B
1628E:  MOVWF  FE9
16290:  MOVFF  FF2,7BB
16294:  BCF    FF2.7
16296:  MOVLW  00
16298:  MOVLB  0
1629A:  CALL   1544
1629E:  TBLRD*-
162A0:  TBLRD*+
162A2:  MOVF   FF5,W
162A4:  MOVWF  FEE
162A6:  IORLW  00
162A8:  BTFSS  FD8.2
162AA:  GOTO   162A0
162AE:  MOVLB  7
162B0:  BTFSC  xBB.7
162B2:  BSF    FF2.7
....................             displayMenu(Menus.Letra,0,36,1,1);} 
162B4:  MOVLW  07
162B6:  MOVWF  xBF
162B8:  MOVLW  9B
162BA:  MOVWF  xBE
162BC:  CLRF   xC0
162BE:  MOVLW  24
162C0:  MOVWF  xC1
162C2:  MOVLW  01
162C4:  MOVWF  xC2
162C6:  MOVWF  xC3
162C8:  MOVLB  0
162CA:  CALL   1EFC
....................          else 
162CE:  GOTO   1631A
162D2:  MOVLB  5
....................             {strcpy(Menus.Letra,"Ajuste +"); 
162D4:  MOVLW  07
162D6:  MOVWF  FEA
162D8:  MOVLW  9B
162DA:  MOVWF  FE9
162DC:  MOVFF  FF2,7BB
162E0:  BCF    FF2.7
162E2:  MOVLW  00
162E4:  MOVLB  0
162E6:  CALL   1544
162EA:  TBLRD*-
162EC:  TBLRD*+
162EE:  MOVF   FF5,W
162F0:  MOVWF  FEE
162F2:  IORLW  00
162F4:  BTFSS  FD8.2
162F6:  GOTO   162EC
162FA:  MOVLB  7
162FC:  BTFSC  xBB.7
162FE:  BSF    FF2.7
....................             displayMenu(Menus.Letra,0,36,0,1);}    
16300:  MOVLW  07
16302:  MOVWF  xBF
16304:  MOVLW  9B
16306:  MOVWF  xBE
16308:  CLRF   xC0
1630A:  MOVLW  24
1630C:  MOVWF  xC1
1630E:  CLRF   xC2
16310:  MOVLW  01
16312:  MOVWF  xC3
16314:  MOVLB  0
16316:  CALL   1EFC
....................                          
....................          if(Opcion==6)    
1631A:  MOVLB  5
1631C:  MOVF   x79,W
1631E:  SUBLW  06
16320:  BTFSS  FD8.2
16322:  GOTO   16372
....................             {strcpy(Menus.Letra,"Ajuste -"); 
16326:  MOVLW  07
16328:  MOVWF  FEA
1632A:  MOVLW  9B
1632C:  MOVWF  FE9
1632E:  MOVFF  FF2,7BB
16332:  BCF    FF2.7
16334:  MOVLW  00
16336:  MOVLB  0
16338:  CALL   156C
1633C:  TBLRD*-
1633E:  TBLRD*+
16340:  MOVF   FF5,W
16342:  MOVWF  FEE
16344:  IORLW  00
16346:  BTFSS  FD8.2
16348:  GOTO   1633E
1634C:  MOVLB  7
1634E:  BTFSC  xBB.7
16350:  BSF    FF2.7
....................             displayMenu(Menus.Letra,0,45,1,1);} 
16352:  MOVLW  07
16354:  MOVWF  xBF
16356:  MOVLW  9B
16358:  MOVWF  xBE
1635A:  CLRF   xC0
1635C:  MOVLW  2D
1635E:  MOVWF  xC1
16360:  MOVLW  01
16362:  MOVWF  xC2
16364:  MOVWF  xC3
16366:  MOVLB  0
16368:  CALL   1EFC
....................          else 
1636C:  GOTO   163B8
16370:  MOVLB  5
....................             {strcpy(Menus.Letra,"Ajuste -"); 
16372:  MOVLW  07
16374:  MOVWF  FEA
16376:  MOVLW  9B
16378:  MOVWF  FE9
1637A:  MOVFF  FF2,7BB
1637E:  BCF    FF2.7
16380:  MOVLW  00
16382:  MOVLB  0
16384:  CALL   156C
16388:  TBLRD*-
1638A:  TBLRD*+
1638C:  MOVF   FF5,W
1638E:  MOVWF  FEE
16390:  IORLW  00
16392:  BTFSS  FD8.2
16394:  GOTO   1638A
16398:  MOVLB  7
1639A:  BTFSC  xBB.7
1639C:  BSF    FF2.7
....................             displayMenu(Menus.Letra,0,45,0,1);}      
1639E:  MOVLW  07
163A0:  MOVWF  xBF
163A2:  MOVLW  9B
163A4:  MOVWF  xBE
163A6:  CLRF   xC0
163A8:  MOVLW  2D
163AA:  MOVWF  xC1
163AC:  CLRF   xC2
163AE:  MOVLW  01
163B0:  MOVWF  xC3
163B2:  MOVLB  0
163B4:  CALL   1EFC
....................       } 
....................       else{ 
163B8:  GOTO   1680A
163BC:  MOVLB  5
....................          if(Opcion==7)    
163BE:  MOVF   x79,W
163C0:  SUBLW  07
163C2:  BTFSS  FD8.2
163C4:  GOTO   16412
....................             {strcpy(Menus.Letra,"Media Movil"); 
163C8:  MOVLW  07
163CA:  MOVWF  FEA
163CC:  MOVLW  9B
163CE:  MOVWF  FE9
163D0:  MOVFF  FF2,7BB
163D4:  BCF    FF2.7
163D6:  MOVLW  00
163D8:  MOVLB  0
163DA:  CALL   1594
163DE:  TBLRD*-
163E0:  TBLRD*+
163E2:  MOVF   FF5,W
163E4:  MOVWF  FEE
163E6:  IORLW  00
163E8:  BTFSS  FD8.2
163EA:  GOTO   163E0
163EE:  MOVLB  7
163F0:  BTFSC  xBB.7
163F2:  BSF    FF2.7
....................             displayMenu(Menus.Letra,0,0,1,1);} 
163F4:  MOVLW  07
163F6:  MOVWF  xBF
163F8:  MOVLW  9B
163FA:  MOVWF  xBE
163FC:  CLRF   xC0
163FE:  CLRF   xC1
16400:  MOVLW  01
16402:  MOVWF  xC2
16404:  MOVWF  xC3
16406:  MOVLB  0
16408:  CALL   1EFC
....................          else 
1640C:  GOTO   16456
16410:  MOVLB  5
....................             {strcpy(Menus.Letra,"Media Movil"); 
16412:  MOVLW  07
16414:  MOVWF  FEA
16416:  MOVLW  9B
16418:  MOVWF  FE9
1641A:  MOVFF  FF2,7BB
1641E:  BCF    FF2.7
16420:  MOVLW  00
16422:  MOVLB  0
16424:  CALL   1594
16428:  TBLRD*-
1642A:  TBLRD*+
1642C:  MOVF   FF5,W
1642E:  MOVWF  FEE
16430:  IORLW  00
16432:  BTFSS  FD8.2
16434:  GOTO   1642A
16438:  MOVLB  7
1643A:  BTFSC  xBB.7
1643C:  BSF    FF2.7
....................             displayMenu(Menus.Letra,0,0,0,1);}      
1643E:  MOVLW  07
16440:  MOVWF  xBF
16442:  MOVLW  9B
16444:  MOVWF  xBE
16446:  CLRF   xC0
16448:  CLRF   xC1
1644A:  CLRF   xC2
1644C:  MOVLW  01
1644E:  MOVWF  xC3
16450:  MOVLB  0
16452:  CALL   1EFC
....................              
....................          if(Opcion==8)    
16456:  MOVLB  5
16458:  MOVF   x79,W
1645A:  SUBLW  08
1645C:  BTFSS  FD8.2
1645E:  GOTO   164AE
....................             {strcpy(Menus.Letra,"Coeficiente"); 
16462:  MOVLW  07
16464:  MOVWF  FEA
16466:  MOVLW  9B
16468:  MOVWF  FE9
1646A:  MOVFF  FF2,7BB
1646E:  BCF    FF2.7
16470:  MOVLW  00
16472:  MOVLB  0
16474:  CALL   0930
16478:  TBLRD*-
1647A:  TBLRD*+
1647C:  MOVF   FF5,W
1647E:  MOVWF  FEE
16480:  IORLW  00
16482:  BTFSS  FD8.2
16484:  GOTO   1647A
16488:  MOVLB  7
1648A:  BTFSC  xBB.7
1648C:  BSF    FF2.7
....................             displayMenu(Menus.Letra,0,9,1,1);} 
1648E:  MOVLW  07
16490:  MOVWF  xBF
16492:  MOVLW  9B
16494:  MOVWF  xBE
16496:  CLRF   xC0
16498:  MOVLW  09
1649A:  MOVWF  xC1
1649C:  MOVLW  01
1649E:  MOVWF  xC2
164A0:  MOVWF  xC3
164A2:  MOVLB  0
164A4:  CALL   1EFC
....................          else 
164A8:  GOTO   164F4
164AC:  MOVLB  5
....................             {strcpy(Menus.Letra,"Coeficiente"); 
164AE:  MOVLW  07
164B0:  MOVWF  FEA
164B2:  MOVLW  9B
164B4:  MOVWF  FE9
164B6:  MOVFF  FF2,7BB
164BA:  BCF    FF2.7
164BC:  MOVLW  00
164BE:  MOVLB  0
164C0:  CALL   0930
164C4:  TBLRD*-
164C6:  TBLRD*+
164C8:  MOVF   FF5,W
164CA:  MOVWF  FEE
164CC:  IORLW  00
164CE:  BTFSS  FD8.2
164D0:  GOTO   164C6
164D4:  MOVLB  7
164D6:  BTFSC  xBB.7
164D8:  BSF    FF2.7
....................             displayMenu(Menus.Letra,0,9,0,1);}   
164DA:  MOVLW  07
164DC:  MOVWF  xBF
164DE:  MOVLW  9B
164E0:  MOVWF  xBE
164E2:  CLRF   xC0
164E4:  MOVLW  09
164E6:  MOVWF  xC1
164E8:  CLRF   xC2
164EA:  MOVLW  01
164EC:  MOVWF  xC3
164EE:  MOVLB  0
164F0:  CALL   1EFC
....................              
....................          if(Opcion==9)    
164F4:  MOVLB  5
164F6:  MOVF   x79,W
164F8:  SUBLW  09
164FA:  BTFSS  FD8.2
164FC:  GOTO   1654C
....................             {strcpy(Menus.Letra,"Alarma SobreT"); 
16500:  MOVLW  07
16502:  MOVWF  FEA
16504:  MOVLW  9B
16506:  MOVWF  FE9
16508:  MOVFF  FF2,7BB
1650C:  BCF    FF2.7
1650E:  MOVLW  00
16510:  MOVLB  0
16512:  CALL   15BE
16516:  TBLRD*-
16518:  TBLRD*+
1651A:  MOVF   FF5,W
1651C:  MOVWF  FEE
1651E:  IORLW  00
16520:  BTFSS  FD8.2
16522:  GOTO   16518
16526:  MOVLB  7
16528:  BTFSC  xBB.7
1652A:  BSF    FF2.7
....................             displayMenu(Menus.Letra,0,18,1,1);} 
1652C:  MOVLW  07
1652E:  MOVWF  xBF
16530:  MOVLW  9B
16532:  MOVWF  xBE
16534:  CLRF   xC0
16536:  MOVLW  12
16538:  MOVWF  xC1
1653A:  MOVLW  01
1653C:  MOVWF  xC2
1653E:  MOVWF  xC3
16540:  MOVLB  0
16542:  CALL   1EFC
....................          else 
16546:  GOTO   16592
1654A:  MOVLB  5
....................             {strcpy(Menus.Letra,"Alarma SobreT"); 
1654C:  MOVLW  07
1654E:  MOVWF  FEA
16550:  MOVLW  9B
16552:  MOVWF  FE9
16554:  MOVFF  FF2,7BB
16558:  BCF    FF2.7
1655A:  MOVLW  00
1655C:  MOVLB  0
1655E:  CALL   15BE
16562:  TBLRD*-
16564:  TBLRD*+
16566:  MOVF   FF5,W
16568:  MOVWF  FEE
1656A:  IORLW  00
1656C:  BTFSS  FD8.2
1656E:  GOTO   16564
16572:  MOVLB  7
16574:  BTFSC  xBB.7
16576:  BSF    FF2.7
....................             displayMenu(Menus.Letra,0,18,0,1);}      
16578:  MOVLW  07
1657A:  MOVWF  xBF
1657C:  MOVLW  9B
1657E:  MOVWF  xBE
16580:  CLRF   xC0
16582:  MOVLW  12
16584:  MOVWF  xC1
16586:  CLRF   xC2
16588:  MOVLW  01
1658A:  MOVWF  xC3
1658C:  MOVLB  0
1658E:  CALL   1EFC
....................              
....................          if(Opcion==10)    
16592:  MOVLB  5
16594:  MOVF   x79,W
16596:  SUBLW  0A
16598:  BTFSS  FD8.2
1659A:  GOTO   165EA
....................             {strcpy(Menus.Letra,"Resistencia"); 
1659E:  MOVLW  07
165A0:  MOVWF  FEA
165A2:  MOVLW  9B
165A4:  MOVWF  FE9
165A6:  MOVFF  FF2,7BB
165AA:  BCF    FF2.7
165AC:  MOVLW  00
165AE:  MOVLB  0
165B0:  CALL   15EA
165B4:  TBLRD*-
165B6:  TBLRD*+
165B8:  MOVF   FF5,W
165BA:  MOVWF  FEE
165BC:  IORLW  00
165BE:  BTFSS  FD8.2
165C0:  GOTO   165B6
165C4:  MOVLB  7
165C6:  BTFSC  xBB.7
165C8:  BSF    FF2.7
....................             displayMenu(Menus.Letra,0,27,1,1);} 
165CA:  MOVLW  07
165CC:  MOVWF  xBF
165CE:  MOVLW  9B
165D0:  MOVWF  xBE
165D2:  CLRF   xC0
165D4:  MOVLW  1B
165D6:  MOVWF  xC1
165D8:  MOVLW  01
165DA:  MOVWF  xC2
165DC:  MOVWF  xC3
165DE:  MOVLB  0
165E0:  CALL   1EFC
....................          else 
165E4:  GOTO   16630
165E8:  MOVLB  5
....................             {strcpy(Menus.Letra,"Resistencia"); 
165EA:  MOVLW  07
165EC:  MOVWF  FEA
165EE:  MOVLW  9B
165F0:  MOVWF  FE9
165F2:  MOVFF  FF2,7BB
165F6:  BCF    FF2.7
165F8:  MOVLW  00
165FA:  MOVLB  0
165FC:  CALL   15EA
16600:  TBLRD*-
16602:  TBLRD*+
16604:  MOVF   FF5,W
16606:  MOVWF  FEE
16608:  IORLW  00
1660A:  BTFSS  FD8.2
1660C:  GOTO   16602
16610:  MOVLB  7
16612:  BTFSC  xBB.7
16614:  BSF    FF2.7
....................             displayMenu(Menus.Letra,0,27,0,1);}      
16616:  MOVLW  07
16618:  MOVWF  xBF
1661A:  MOVLW  9B
1661C:  MOVWF  xBE
1661E:  CLRF   xC0
16620:  MOVLW  1B
16622:  MOVWF  xC1
16624:  CLRF   xC2
16626:  MOVLW  01
16628:  MOVWF  xC3
1662A:  MOVLB  0
1662C:  CALL   1EFC
....................              
....................          if(Opcion==11)    
16630:  MOVLB  5
16632:  MOVF   x79,W
16634:  SUBLW  0B
16636:  BTFSS  FD8.2
16638:  GOTO   16688
....................             {strcpy(Menus.Letra,"m Mufla"); 
1663C:  MOVLW  07
1663E:  MOVWF  FEA
16640:  MOVLW  9B
16642:  MOVWF  FE9
16644:  MOVFF  FF2,7BB
16648:  BCF    FF2.7
1664A:  MOVLW  00
1664C:  MOVLB  0
1664E:  CALL   09A6
16652:  TBLRD*-
16654:  TBLRD*+
16656:  MOVF   FF5,W
16658:  MOVWF  FEE
1665A:  IORLW  00
1665C:  BTFSS  FD8.2
1665E:  GOTO   16654
16662:  MOVLB  7
16664:  BTFSC  xBB.7
16666:  BSF    FF2.7
....................             displayMenu(Menus.Letra,0,36,1,1);} 
16668:  MOVLW  07
1666A:  MOVWF  xBF
1666C:  MOVLW  9B
1666E:  MOVWF  xBE
16670:  CLRF   xC0
16672:  MOVLW  24
16674:  MOVWF  xC1
16676:  MOVLW  01
16678:  MOVWF  xC2
1667A:  MOVWF  xC3
1667C:  MOVLB  0
1667E:  CALL   1EFC
....................          else 
16682:  GOTO   166CE
16686:  MOVLB  5
....................             {strcpy(Menus.Letra,"m Mufla"); 
16688:  MOVLW  07
1668A:  MOVWF  FEA
1668C:  MOVLW  9B
1668E:  MOVWF  FE9
16690:  MOVFF  FF2,7BB
16694:  BCF    FF2.7
16696:  MOVLW  00
16698:  MOVLB  0
1669A:  CALL   09A6
1669E:  TBLRD*-
166A0:  TBLRD*+
166A2:  MOVF   FF5,W
166A4:  MOVWF  FEE
166A6:  IORLW  00
166A8:  BTFSS  FD8.2
166AA:  GOTO   166A0
166AE:  MOVLB  7
166B0:  BTFSC  xBB.7
166B2:  BSF    FF2.7
....................             displayMenu(Menus.Letra,0,36,0,1);}      
166B4:  MOVLW  07
166B6:  MOVWF  xBF
166B8:  MOVLW  9B
166BA:  MOVWF  xBE
166BC:  CLRF   xC0
166BE:  MOVLW  24
166C0:  MOVWF  xC1
166C2:  CLRF   xC2
166C4:  MOVLW  01
166C6:  MOVWF  xC3
166C8:  MOVLB  0
166CA:  CALL   1EFC
....................              
....................          if(Opcion==12) 
166CE:  MOVLB  5
166D0:  MOVF   x79,W
166D2:  SUBLW  0C
166D4:  BTFSS  FD8.2
166D6:  GOTO   16726
....................             {strcpy(Menus.Letra,"m"); 
166DA:  MOVLW  07
166DC:  MOVWF  FEA
166DE:  MOVLW  9B
166E0:  MOVWF  FE9
166E2:  MOVFF  FF2,7BB
166E6:  BCF    FF2.7
166E8:  MOVLW  00
166EA:  MOVLB  0
166EC:  CALL   09CC
166F0:  TBLRD*-
166F2:  TBLRD*+
166F4:  MOVF   FF5,W
166F6:  MOVWF  FEE
166F8:  IORLW  00
166FA:  BTFSS  FD8.2
166FC:  GOTO   166F2
16700:  MOVLB  7
16702:  BTFSC  xBB.7
16704:  BSF    FF2.7
....................             displayMenu(Menus.Letra,0,45,1,1);} 
16706:  MOVLW  07
16708:  MOVWF  xBF
1670A:  MOVLW  9B
1670C:  MOVWF  xBE
1670E:  CLRF   xC0
16710:  MOVLW  2D
16712:  MOVWF  xC1
16714:  MOVLW  01
16716:  MOVWF  xC2
16718:  MOVWF  xC3
1671A:  MOVLB  0
1671C:  CALL   1EFC
....................          else 
16720:  GOTO   1676C
16724:  MOVLB  5
....................             {strcpy(Menus.Letra,"m"); 
16726:  MOVLW  07
16728:  MOVWF  FEA
1672A:  MOVLW  9B
1672C:  MOVWF  FE9
1672E:  MOVFF  FF2,7BB
16732:  BCF    FF2.7
16734:  MOVLW  00
16736:  MOVLB  0
16738:  CALL   09CC
1673C:  TBLRD*-
1673E:  TBLRD*+
16740:  MOVF   FF5,W
16742:  MOVWF  FEE
16744:  IORLW  00
16746:  BTFSS  FD8.2
16748:  GOTO   1673E
1674C:  MOVLB  7
1674E:  BTFSC  xBB.7
16750:  BSF    FF2.7
....................             displayMenu(Menus.Letra,0,45,0,1);}        
16752:  MOVLW  07
16754:  MOVWF  xBF
16756:  MOVLW  9B
16758:  MOVWF  xBE
1675A:  CLRF   xC0
1675C:  MOVLW  2D
1675E:  MOVWF  xC1
16760:  CLRF   xC2
16762:  MOVLW  01
16764:  MOVWF  xC3
16766:  MOVLB  0
16768:  CALL   1EFC
....................           
....................          if(Opcion==13) 
1676C:  MOVLB  5
1676E:  MOVF   x79,W
16770:  SUBLW  0D
16772:  BTFSS  FD8.2
16774:  GOTO   167C4
....................             {strcpy(Menus.Letra,"b"); 
16778:  MOVLW  07
1677A:  MOVWF  FEA
1677C:  MOVLW  9B
1677E:  MOVWF  FE9
16780:  MOVFF  FF2,7BB
16784:  BCF    FF2.7
16786:  MOVLW  00
16788:  MOVLB  0
1678A:  CALL   09EC
1678E:  TBLRD*-
16790:  TBLRD*+
16792:  MOVF   FF5,W
16794:  MOVWF  FEE
16796:  IORLW  00
16798:  BTFSS  FD8.2
1679A:  GOTO   16790
1679E:  MOVLB  7
167A0:  BTFSC  xBB.7
167A2:  BSF    FF2.7
....................             displayMenu(Menus.Letra,0,54,1,1);} 
167A4:  MOVLW  07
167A6:  MOVWF  xBF
167A8:  MOVLW  9B
167AA:  MOVWF  xBE
167AC:  CLRF   xC0
167AE:  MOVLW  36
167B0:  MOVWF  xC1
167B2:  MOVLW  01
167B4:  MOVWF  xC2
167B6:  MOVWF  xC3
167B8:  MOVLB  0
167BA:  CALL   1EFC
....................          else 
167BE:  GOTO   1680A
167C2:  MOVLB  5
....................             {strcpy(Menus.Letra,"b"); 
167C4:  MOVLW  07
167C6:  MOVWF  FEA
167C8:  MOVLW  9B
167CA:  MOVWF  FE9
167CC:  MOVFF  FF2,7BB
167D0:  BCF    FF2.7
167D2:  MOVLW  00
167D4:  MOVLB  0
167D6:  CALL   09EC
167DA:  TBLRD*-
167DC:  TBLRD*+
167DE:  MOVF   FF5,W
167E0:  MOVWF  FEE
167E2:  IORLW  00
167E4:  BTFSS  FD8.2
167E6:  GOTO   167DC
167EA:  MOVLB  7
167EC:  BTFSC  xBB.7
167EE:  BSF    FF2.7
....................             displayMenu(Menus.Letra,0,54,0,1);} 
167F0:  MOVLW  07
167F2:  MOVWF  xBF
167F4:  MOVLW  9B
167F6:  MOVWF  xBE
167F8:  CLRF   xC0
167FA:  MOVLW  36
167FC:  MOVWF  xC1
167FE:  CLRF   xC2
16800:  MOVLW  01
16802:  MOVWF  xC3
16804:  MOVLB  0
16806:  CALL   1EFC
....................       }    
....................        
....................          if(UP)//Si oprime hacia arriba 
1680A:  BSF    F92.5
1680C:  BTFSC  F80.5
1680E:  GOTO   16846
....................          { 
....................             Buzz_on;delay_ms(10);Buzz_off; 
16812:  BSF    F8B.4
16814:  BCF    F94.4
16816:  MOVLW  0A
16818:  MOVLB  7
1681A:  MOVWF  xC1
1681C:  MOVLB  0
1681E:  CALL   184E
16822:  BCF    F8B.4
16824:  BCF    F94.4
....................             if(Flanco == 0) 
16826:  MOVLB  5
16828:  BTFSC  x5F.5
1682A:  GOTO   16842
....................                {Flanco = 1;delay_ms(30);Opcion--;visual=1; 
1682E:  BSF    x5F.5
16830:  MOVLW  1E
16832:  MOVLB  7
16834:  MOVWF  xC1
16836:  MOVLB  0
16838:  CALL   184E
1683C:  MOVLB  5
1683E:  DECF   x79,F
16840:  BSF    x6D.0
....................                } 
....................          } 
....................             else 
16842:  GOTO   1684A
....................                {Flanco = 0;} 
16846:  MOVLB  5
16848:  BCF    x5F.5
....................                    
....................          if(DOWN)//Si oprime hacia abajo 
1684A:  BSF    F96.0
1684C:  BTFSC  F84.0
1684E:  GOTO   16886
....................          { 
....................             Buzz_on;delay_ms(10);Buzz_off; 
16852:  BSF    F8B.4
16854:  BCF    F94.4
16856:  MOVLW  0A
16858:  MOVLB  7
1685A:  MOVWF  xC1
1685C:  MOVLB  0
1685E:  CALL   184E
16862:  BCF    F8B.4
16864:  BCF    F94.4
....................             if(Flanco2 == 0) 
16866:  MOVLB  5
16868:  BTFSC  x5F.7
1686A:  GOTO   16882
....................                {Flanco2 = 1;delay_ms(30);Opcion++;visual=1; 
1686E:  BSF    x5F.7
16870:  MOVLW  1E
16872:  MOVLB  7
16874:  MOVWF  xC1
16876:  MOVLB  0
16878:  CALL   184E
1687C:  MOVLB  5
1687E:  INCF   x79,F
16880:  BSF    x6D.0
....................                }      
....................          } 
....................             else 
16882:  GOTO   16888
....................                {Flanco2 = 0;}   
16886:  BCF    x5F.7
....................                 
....................          if(RIGHT)//Si oprime SET 
16888:  BSF    F96.1
1688A:  BTFSC  F84.1
1688C:  GOTO   168D8
....................          {   
....................             Buzz_on;delay_ms(10);Buzz_off; 
16890:  BSF    F8B.4
16892:  BCF    F94.4
16894:  MOVLW  0A
16896:  MOVLB  7
16898:  MOVWF  xC1
1689A:  MOVLB  0
1689C:  CALL   184E
168A0:  BCF    F8B.4
168A2:  BCF    F94.4
....................             if(Flanco1 == 0) 
168A4:  MOVLB  5
168A6:  BTFSC  x5F.6
168A8:  GOTO   168D4
....................                {Flanco1 = 1;delay_ms(30);Menu=Opcion+100;Opcion=1;glcd_fillscreen(OFF);visual=1; 
168AC:  BSF    x5F.6
168AE:  MOVLW  1E
168B0:  MOVLB  7
168B2:  MOVWF  xC1
168B4:  MOVLB  0
168B6:  CALL   184E
168BA:  MOVLW  64
168BC:  MOVLB  5
168BE:  ADDWF  x79,W
168C0:  MOVWF  x72
168C2:  MOVLW  01
168C4:  MOVWF  x79
168C6:  MOVLB  7
168C8:  CLRF   xBC
168CA:  MOVLB  0
168CC:  CALL   18CE
168D0:  MOVLB  5
168D2:  BSF    x6D.0
....................                } 
....................          } 
....................             else 
168D4:  GOTO   168DA
....................                {Flanco1 = 0;}  
168D8:  BCF    x5F.6
....................                 
....................          if(LEFT)//Si oprime boton de Toma. 
168DA:  BSF    F96.2
168DC:  BTFSC  F84.2
168DE:  GOTO   16924
....................          { 
....................             Buzz_on;delay_ms(10);Buzz_off; 
168E2:  BSF    F8B.4
168E4:  BCF    F94.4
168E6:  MOVLW  0A
168E8:  MOVLB  7
168EA:  MOVWF  xC1
168EC:  MOVLB  0
168EE:  CALL   184E
168F2:  BCF    F8B.4
168F4:  BCF    F94.4
....................             delay_ms(700);Menu=1;glcd_fillscreen(OFF);Opcion=1;visual=1;             
168F6:  MOVLW  04
168F8:  MOVLB  7
168FA:  MOVWF  xBB
168FC:  MOVLW  AF
168FE:  MOVWF  xC1
16900:  MOVLB  0
16902:  CALL   184E
16906:  MOVLB  7
16908:  DECFSZ xBB,F
1690A:  BRA    168FC
1690C:  MOVLW  01
1690E:  MOVLB  5
16910:  MOVWF  x72
16912:  MOVLB  7
16914:  CLRF   xBC
16916:  MOVLB  0
16918:  CALL   18CE
1691C:  MOVLW  01
1691E:  MOVLB  5
16920:  MOVWF  x79
16922:  BSF    x6D.0
....................          }       
....................          
....................     } 
.................... //_--------------------------------------------------------------------------------------------------------------------------------------------------------        
....................  
....................    menuAjustes(); 
16924:  MOVLB  0
16926:  GOTO   8332
....................     
....................       if(Lectura2==1) 
1692A:  MOVLB  5
1692C:  DECFSZ x67,W
1692E:  GOTO   16950
....................       { 
....................          Temperatura=Leer_Sensor(MediaMovil); 
16932:  MOVFF  564,7BB
16936:  MOVLB  0
16938:  CALL   38BA
1693C:  MOVFF  03,60C
16940:  MOVFF  02,60B
16944:  MOVFF  01,60A
16948:  MOVFF  00,609
....................          Lectura2=0; 
1694C:  MOVLB  5
1694E:  CLRF   x67
....................       }  
....................  
....................       if(tiemporeset>=60) 
16950:  MOVF   x6F,W
16952:  SUBLW  3B
16954:  BTFSC  FD8.0
16956:  GOTO   16972
....................       { 
....................          if(Menu!=0){ 
1695A:  MOVF   x72,F
1695C:  BTFSC  FD8.2
1695E:  GOTO   16972
....................             glcd_init(ON); 
16962:  MOVLW  01
16964:  MOVLB  7
16966:  MOVWF  xBB
16968:  MOVLB  0
1696A:  CALL   19E0
....................             tiemporeset=0; 
1696E:  MOVLB  5
16970:  CLRF   x6F
....................          } 
....................       }  
....................  
....................    } 
16972:  GOTO   108B8
.................... } 
16976:  SLEEP 

Configuration Fuses:
   Word  1: 0200   HS NOIESO NOFCMEN
   Word  2: 1E1F   BROWNOUT NOWDT BORV20 NOPUT WDT32768
   Word  3: 0000   NOPBADEN NOLPT1OSC NOMCLR
   Word  4: 00B0   NOSTVREN NODEBUG NOLVP NOXINST BBSIZ4K
   Word  5: C03F   NOPROTECT NOCPD NOCPB
   Word  6: E03F   NOWRT NOWRTD NOWRTC NOWRTB
   Word  7: 403F   NOEBTR NOEBTRB
