ARM GAS  C:\Users\USUARIO\AppData\Local\Temp\ccywmqVe.s 			page 1


   1              		.syntax unified
   2              		.cpu cortex-m3
   3              		.fpu softvfp
   4              		.eabi_attribute 20, 1
   5              		.eabi_attribute 21, 1
   6              		.eabi_attribute 23, 3
   7              		.eabi_attribute 24, 1
   8              		.eabi_attribute 25, 1
   9              		.eabi_attribute 26, 1
  10              		.eabi_attribute 30, 1
  11              		.eabi_attribute 34, 1
  12              		.eabi_attribute 18, 4
  13              		.thumb
  14              		.syntax unified
  15              		.file	"ks0108.c"
  16              		.text
  17              	.Ltext0:
  18              		.cfi_sections	.debug_frame
  19              		.section	.text.vLcdDataWrite,"ax",%progbits
  20              		.align	2
  21              		.global	vLcdDataWrite
  22              		.thumb
  23              		.thumb_func
  24              		.type	vLcdDataWrite, %function
  25              	vLcdDataWrite:
  26              	.LFB64:
  27              		.file 1 "ks0108.c"
   1:ks0108.c      **** #include "ks0108.h"
   2:ks0108.c      **** #include "project.h"
   3:ks0108.c      **** #include <device.h>
   4:ks0108.c      **** #include <stdio.h>
   5:ks0108.c      **** #include <main.h>
   6:ks0108.c      **** 
   7:ks0108.c      **** /////////////////////////////////////////////////////////////////////////
   8:ks0108.c      **** //// Defines a 5x7 font
   9:ks0108.c      **** /////////////////////////////////////////////////////////////////////////
  10:ks0108.c      **** const int8 FONT[51][5] ={0x00, 0x00, 0x00, 0x00, 0x00, // SPACE
  11:ks0108.c      ****                          0x00, 0x00, 0x5F, 0x00, 0x00, // !
  12:ks0108.c      ****                          0x00, 0x03, 0x00, 0x03, 0x00, // "
  13:ks0108.c      ****                          0x14, 0x3E, 0x14, 0x3E, 0x14, // #
  14:ks0108.c      ****                          0x24, 0x2A, 0x7F, 0x2A, 0x12, // $
  15:ks0108.c      ****                          0x43, 0x33, 0x08, 0x66, 0x61, // %
  16:ks0108.c      ****                          0x36, 0x49, 0x55, 0x22, 0x50, // &
  17:ks0108.c      ****                          0x00, 0x05, 0x03, 0x00, 0x00, // '
  18:ks0108.c      ****                          0x00, 0x1C, 0x22, 0x41, 0x00, // (
  19:ks0108.c      ****                          0x00, 0x41, 0x22, 0x1C, 0x00, // )
  20:ks0108.c      ****                          0x14, 0x08, 0x3E, 0x08, 0x14, // *
  21:ks0108.c      ****                          0x08, 0x08, 0x3E, 0x08, 0x08, // +
  22:ks0108.c      ****                          0x00, 0x50, 0x30, 0x00, 0x00, // ,
  23:ks0108.c      ****                          0x08, 0x08, 0x08, 0x08, 0x08, // -
  24:ks0108.c      ****                          0x00, 0x60, 0x60, 0x00, 0x00, // .
  25:ks0108.c      ****                          0x20, 0x10, 0x08, 0x04, 0x02, // /
  26:ks0108.c      ****                          0x3E, 0x51, 0x49, 0x45, 0x3E, // 0
  27:ks0108.c      ****                          0x00, 0x04, 0x02, 0x7F, 0x00, // 1
  28:ks0108.c      ****                          0x42, 0x61, 0x51, 0x49, 0x46, // 2
  29:ks0108.c      ****                          0x22, 0x41, 0x49, 0x49, 0x36, // 3
  30:ks0108.c      ****                          0x18, 0x14, 0x12, 0x7F, 0x10, // 4
ARM GAS  C:\Users\USUARIO\AppData\Local\Temp\ccywmqVe.s 			page 2


  31:ks0108.c      ****                          0x27, 0x45, 0x45, 0x45, 0x39, // 5
  32:ks0108.c      ****                          0x3E, 0x49, 0x49, 0x49, 0x32, // 6
  33:ks0108.c      ****                          0x01, 0x01, 0x71, 0x09, 0x07, // 7
  34:ks0108.c      ****                          0x36, 0x49, 0x49, 0x49, 0x36, // 8
  35:ks0108.c      ****                          0x26, 0x49, 0x49, 0x49, 0x3E, // 9
  36:ks0108.c      ****                          0x00, 0x36, 0x36, 0x00, 0x00, // :
  37:ks0108.c      ****                          0x00, 0x56, 0x36, 0x00, 0x00, // ;
  38:ks0108.c      ****                          0x08, 0x14, 0x22, 0x41, 0x00, // <
  39:ks0108.c      ****                          0x14, 0x14, 0x14, 0x14, 0x14, // =
  40:ks0108.c      ****                          0x00, 0x41, 0x22, 0x14, 0x08, // >
  41:ks0108.c      ****                          0x02, 0x01, 0x51, 0x09, 0x06, // ?
  42:ks0108.c      ****                          0x3E, 0x41, 0x59, 0x55, 0x5E, // @
  43:ks0108.c      ****                          0x7E, 0x09, 0x09, 0x09, 0x7E, // A
  44:ks0108.c      ****                          0x7F, 0x49, 0x49, 0x49, 0x36, // B
  45:ks0108.c      ****                          0x3E, 0x41, 0x41, 0x41, 0x22, // C
  46:ks0108.c      ****                          0x7F, 0x41, 0x41, 0x41, 0x3E, // D
  47:ks0108.c      ****                          0x7F, 0x49, 0x49, 0x49, 0x41, // E
  48:ks0108.c      ****                          0x7F, 0x09, 0x09, 0x09, 0x01, // F
  49:ks0108.c      ****                          0x3E, 0x41, 0x41, 0x49, 0x3A, // G
  50:ks0108.c      ****                          0x7F, 0x08, 0x08, 0x08, 0x7F, // H
  51:ks0108.c      ****                          0x00, 0x41, 0x7F, 0x41, 0x00, // I
  52:ks0108.c      ****                          0x30, 0x40, 0x40, 0x40, 0x3F, // J
  53:ks0108.c      ****                          0x7F, 0x08, 0x14, 0x22, 0x41, // K
  54:ks0108.c      ****                          0x7F, 0x40, 0x40, 0x40, 0x40, // L
  55:ks0108.c      ****                          0x7F, 0x02, 0x0C, 0x02, 0x7F, // M
  56:ks0108.c      ****                          0x7F, 0x02, 0x04, 0x08, 0x7F, // N
  57:ks0108.c      ****                          0x3E, 0x41, 0x41, 0x41, 0x3E, // O
  58:ks0108.c      ****                          0x7F, 0x09, 0x09, 0x09, 0x06, // P
  59:ks0108.c      ****                          0x1E, 0x21, 0x21, 0x21, 0x5E, // Q
  60:ks0108.c      ****                          0x7F, 0x09, 0x09, 0x09, 0x76};// R
  61:ks0108.c      **** 
  62:ks0108.c      **** const int8 FONT2[45][5]={0x26, 0x49, 0x49, 0x49, 0x32, // S
  63:ks0108.c      ****                          0x01, 0x01, 0x7F, 0x01, 0x01, // T
  64:ks0108.c      ****                          0x3F, 0x40, 0x40, 0x40, 0x3F, // U
  65:ks0108.c      ****                          0x1F, 0x20, 0x40, 0x20, 0x1F, // V
  66:ks0108.c      ****                          0x7F, 0x20, 0x10, 0x20, 0x7F, // W
  67:ks0108.c      ****                          0x41, 0x22, 0x1C, 0x22, 0x41, // X
  68:ks0108.c      ****                          0x07, 0x08, 0x70, 0x08, 0x07, // Y
  69:ks0108.c      ****                          0x61, 0x51, 0x49, 0x45, 0x43, // Z
  70:ks0108.c      ****                          0x00, 0x7F, 0x41, 0x00, 0x00, // [
  71:ks0108.c      ****                          0x02, 0x04, 0x08, 0x10, 0x20, // \
  72:ks0108.c      ****                          0x00, 0x00, 0x41, 0x7F, 0x00, // ]
  73:ks0108.c      ****                          0x04, 0x02, 0x01, 0x02, 0x04, // ^
  74:ks0108.c      ****                          0x40, 0x40, 0x40, 0x40, 0x40, // _
  75:ks0108.c      ****                          0x00, 0x01, 0x02, 0x04, 0x00, // `
  76:ks0108.c      ****                          0x00, 0x01, 0x02, 0x04, 0x00, // `
  77:ks0108.c      ****                          0x20, 0x54, 0x54, 0x54, 0x78, // a
  78:ks0108.c      ****                          0x7F, 0x44, 0x44, 0x44, 0x38, // b
  79:ks0108.c      ****                          0x38, 0x44, 0x44, 0x44, 0x44, // c
  80:ks0108.c      ****                          0x38, 0x44, 0x44, 0x44, 0x7F, // d
  81:ks0108.c      ****                          0x38, 0x54, 0x54, 0x54, 0x18, // e
  82:ks0108.c      ****                          0x04, 0x04, 0x7E, 0x05, 0x05, // f
  83:ks0108.c      ****                          0x08, 0x54, 0x54, 0x54, 0x3C, // g
  84:ks0108.c      ****                          0x7F, 0x08, 0x04, 0x04, 0x78, // h
  85:ks0108.c      ****                          0x00, 0x44, 0x7D, 0x40, 0x00, // i
  86:ks0108.c      ****                          0x20, 0x40, 0x44, 0x3D, 0x00, // j
  87:ks0108.c      ****                          0x7F, 0x10, 0x28, 0x44, 0x00, // k
ARM GAS  C:\Users\USUARIO\AppData\Local\Temp\ccywmqVe.s 			page 3


  88:ks0108.c      ****                          0x00, 0x41, 0x7F, 0x40, 0x00, // l
  89:ks0108.c      ****                          0x7C, 0x04, 0x78, 0x04, 0x78, // m
  90:ks0108.c      ****                          0x7C, 0x08, 0x04, 0x04, 0x78, // n
  91:ks0108.c      ****                          0x38, 0x44, 0x44, 0x44, 0x38, // o
  92:ks0108.c      ****                          0x7C, 0x14, 0x14, 0x14, 0x08, // p
  93:ks0108.c      ****                          0x08, 0x14, 0x14, 0x14, 0x7C, // q
  94:ks0108.c      ****                          0x00, 0x7C, 0x08, 0x04, 0x04, // r
  95:ks0108.c      ****                          0x48, 0x54, 0x54, 0x54, 0x20, // s
  96:ks0108.c      ****                          0x04, 0x04, 0x3F, 0x44, 0x44, // t
  97:ks0108.c      ****                          0x3C, 0x40, 0x40, 0x20, 0x7C, // u
  98:ks0108.c      ****                          0x1C, 0x20, 0x40, 0x20, 0x1C, // v
  99:ks0108.c      ****                          0x3C, 0x40, 0x30, 0x40, 0x3C, // w
 100:ks0108.c      ****                          0x44, 0x28, 0x10, 0x28, 0x44, // x
 101:ks0108.c      ****                          0x0C, 0x50, 0x50, 0x50, 0x3C, // y
 102:ks0108.c      ****                          0x44, 0x64, 0x54, 0x4C, 0x44, // z
 103:ks0108.c      ****                          0x00, 0x08, 0x36, 0x41, 0x41, // {
 104:ks0108.c      ****                          0x00, 0x00, 0x7F, 0x00, 0x00, // |
 105:ks0108.c      ****                          0x41, 0x41, 0x36, 0x08, 0x00, // }
 106:ks0108.c      ****                          0x02, 0x01, 0x02, 0x04, 0x02};// ~
 107:ks0108.c      **** /////////////////////////////////////////////////////////////////////////
 108:ks0108.c      **** 
 109:ks0108.c      **** 
 110:ks0108.c      **** const int8 Horno [64][16] = {
 111:ks0108.c      **** 0x00, 0x00, 0x00, 0x00, 0x00, 0x00, 0x00, 0x00, 0x00, 0x00, 0x00, 0x00, 0x00, 0x00, 0x00, 0x00,
 112:ks0108.c      **** 0x01, 0xC0, 0x00, 0x00, 0x00, 0x00, 0x00, 0x00, 0x00, 0x00, 0x00, 0x00, 0x00, 0x00, 0x00, 0x00,
 113:ks0108.c      **** 0x07, 0xF0, 0x00, 0x00, 0x00, 0x00, 0x00, 0x00, 0x00, 0x00, 0x00, 0x00, 0x00, 0x00, 0x00, 0x00,
 114:ks0108.c      **** 0x1C, 0x9C, 0x00, 0x00, 0x00, 0x00, 0x00, 0x00, 0x00, 0x00, 0x00, 0x00, 0x00, 0x00, 0x00, 0x00,
 115:ks0108.c      **** 0x18, 0x0C, 0x00, 0x00, 0x00, 0x00, 0x00, 0x00, 0x00, 0x00, 0x00, 0x00, 0x00, 0x00, 0x00, 0x00,
 116:ks0108.c      **** 0x30, 0x86, 0x00, 0x00, 0x00, 0x00, 0x00, 0x00, 0x00, 0x00, 0x00, 0x00, 0x00, 0x00, 0x00, 0x00,
 117:ks0108.c      **** 0x20, 0x82, 0x00, 0x00, 0x00, 0x00, 0x00, 0x00, 0x00, 0x00, 0x00, 0x00, 0x00, 0x00, 0x00, 0x00,
 118:ks0108.c      **** 0x60, 0x83, 0x00, 0x00, 0x00, 0x00, 0x00, 0x00, 0x00, 0x00, 0x00, 0x00, 0x00, 0x00, 0x00, 0x00,
 119:ks0108.c      **** 0x70, 0x87, 0x00, 0x00, 0x00, 0x00, 0x00, 0x00, 0x00, 0x00, 0x00, 0x00, 0x00, 0x00, 0x00, 0x00,
 120:ks0108.c      **** 0x60, 0xC3, 0x00, 0x00, 0x00, 0x00, 0x00, 0x00, 0x00, 0x00, 0x00, 0x00, 0x00, 0x00, 0x00, 0x00,
 121:ks0108.c      **** 0x20, 0x62, 0x00, 0x00, 0x00, 0x00, 0x00, 0x00, 0x00, 0x00, 0x00, 0x00, 0x00, 0x00, 0x00, 0x00,
 122:ks0108.c      **** 0x30, 0x26, 0x00, 0x00, 0x00, 0x00, 0x00, 0x00, 0x00, 0x00, 0x00, 0x00, 0x00, 0x00, 0x00, 0x00,
 123:ks0108.c      **** 0x18, 0x0C, 0x00, 0x00, 0x00, 0x00, 0x00, 0x00, 0x00, 0x00, 0x00, 0x00, 0x00, 0x00, 0x00, 0x00,
 124:ks0108.c      **** 0x1C, 0x9C, 0x00, 0x00, 0x00, 0x00, 0x00, 0x00, 0x00, 0x00, 0x00, 0x00, 0x00, 0x00, 0x00, 0x00,
 125:ks0108.c      **** 0x07, 0xF0, 0x00, 0x00, 0x00, 0x00, 0x00, 0x00, 0x00, 0x00, 0x00, 0x00, 0x00, 0x00, 0x00, 0x00,
 126:ks0108.c      **** 0x01, 0xC0, 0x00, 0x00, 0x00, 0x00, 0x00, 0x00, 0x00, 0x00, 0x00, 0x00, 0x00, 0x00, 0x00, 0x00,
 127:ks0108.c      **** 0x00, 0x00, 0x00, 0x00, 0x00, 0x00, 0x00, 0x00, 0x00, 0x00, 0x00, 0x00, 0x00, 0x00, 0x00, 0x00,
 128:ks0108.c      **** 0x00, 0x00, 0x00, 0x00, 0x00, 0x00, 0x00, 0x00, 0x00, 0x00, 0x00, 0x00, 0x00, 0x00, 0x00, 0x00,
 129:ks0108.c      **** 0x00, 0x00, 0x00, 0x00, 0x00, 0x00, 0x00, 0x00, 0x00, 0x00, 0x00, 0x00, 0x00, 0x00, 0x00, 0x00,
 130:ks0108.c      **** 0x00, 0x00, 0x00, 0x00, 0x00, 0x00, 0x00, 0x00, 0x00, 0x00, 0x00, 0x00, 0x00, 0x00, 0x00, 0x00,
 131:ks0108.c      **** 0x00, 0x00, 0x00, 0x00, 0x00, 0x00, 0x00, 0x00, 0x00, 0x00, 0x00, 0x00, 0x00, 0x00, 0x00, 0x00,
 132:ks0108.c      **** 0x00, 0x00, 0x00, 0x00, 0x00, 0x00, 0x00, 0x00, 0x00, 0x00, 0x00, 0x00, 0x00, 0x00, 0x00, 0x00,
 133:ks0108.c      **** 0x00, 0x00, 0x00, 0x00, 0x00, 0x00, 0x00, 0x00, 0x00, 0x00, 0x00, 0x00, 0x00, 0x00, 0x00, 0x00,
 134:ks0108.c      **** 0x00, 0x00, 0x00, 0x00, 0x00, 0x00, 0x00, 0x00, 0x00, 0x00, 0x00, 0x00, 0x00, 0x00, 0x00, 0x00,
 135:ks0108.c      **** 0x00, 0x00, 0x00, 0x00, 0x00, 0x00, 0x00, 0x00, 0x00, 0x00, 0x00, 0x00, 0x00, 0x00, 0x00, 0x00,
 136:ks0108.c      **** 0x00, 0x00, 0x00, 0x00, 0x00, 0x00, 0x00, 0x00, 0x00, 0x00, 0x00, 0x00, 0x00, 0x00, 0x00, 0x00,
 137:ks0108.c      **** 0x00, 0x00, 0x00, 0x00, 0x00, 0x00, 0x00, 0x00, 0x00, 0x00, 0x00, 0x00, 0x00, 0x00, 0x00, 0x00,
 138:ks0108.c      **** 0x00, 0x00, 0x00, 0x00, 0x00, 0x00, 0x00, 0x00, 0x00, 0x00, 0x00, 0x00, 0x00, 0x00, 0x00, 0x00,
 139:ks0108.c      **** 0x01, 0x80, 0x00, 0x00, 0x00, 0x00, 0x00, 0x00, 0x00, 0x00, 0x00, 0x00, 0x00, 0x00, 0x00, 0x00,
 140:ks0108.c      **** 0x02, 0x40, 0x00, 0x00, 0x00, 0x00, 0x00, 0x00, 0x00, 0x00, 0x00, 0x00, 0x00, 0x00, 0x00, 0x00,
 141:ks0108.c      **** 0x02, 0x70, 0x00, 0x00, 0x00, 0x00, 0x00, 0x00, 0x00, 0x00, 0x00, 0x00, 0x00, 0x00, 0x00, 0x00,
 142:ks0108.c      **** 0x02, 0x40, 0x00, 0x00, 0x00, 0x00, 0x00, 0x00, 0x00, 0x00, 0x00, 0x00, 0x00, 0x00, 0x00, 0x00,
 143:ks0108.c      **** 0x03, 0xC0, 0x00, 0x00, 0x00, 0x00, 0x00, 0x00, 0x00, 0x00, 0x00, 0x00, 0x00, 0x00, 0x00, 0x00,
 144:ks0108.c      **** 0x03, 0xF0, 0x00, 0x00, 0x00, 0x00, 0x00, 0x00, 0x00, 0x00, 0x00, 0x00, 0x00, 0x00, 0x00, 0x00,
ARM GAS  C:\Users\USUARIO\AppData\Local\Temp\ccywmqVe.s 			page 4


 145:ks0108.c      **** 0x03, 0xC0, 0x00, 0x00, 0x00, 0x00, 0x00, 0x00, 0x00, 0x00, 0x00, 0x00, 0x00, 0x00, 0x00, 0x00,
 146:ks0108.c      **** 0x03, 0xC0, 0x00, 0x00, 0x00, 0x00, 0x00, 0x00, 0x00, 0x00, 0x00, 0x00, 0x00, 0x00, 0x00, 0x00,
 147:ks0108.c      **** 0x07, 0xE0, 0x00, 0x00, 0x00, 0x00, 0x00, 0x00, 0x00, 0x00, 0x00, 0x00, 0x00, 0x00, 0x00, 0x00,
 148:ks0108.c      **** 0x0F, 0xF0, 0x00, 0x00, 0x00, 0x00, 0x00, 0x00, 0x00, 0x00, 0x00, 0x00, 0x00, 0x00, 0x00, 0x00,
 149:ks0108.c      **** 0x0B, 0xF0, 0x00, 0x00, 0x00, 0x00, 0x00, 0x00, 0x00, 0x00, 0x00, 0x00, 0x00, 0x00, 0x00, 0x00,
 150:ks0108.c      **** 0x0B, 0xF0, 0x00, 0x00, 0x00, 0x00, 0x00, 0x00, 0x00, 0x00, 0x00, 0x00, 0x00, 0x00, 0x00, 0x00,
 151:ks0108.c      **** 0x0F, 0xF0, 0x00, 0x00, 0x00, 0x00, 0x00, 0x00, 0x00, 0x00, 0x00, 0x00, 0x00, 0x00, 0x00, 0x00,
 152:ks0108.c      **** 0x0F, 0xF0, 0x00, 0x00, 0x00, 0x00, 0x00, 0x00, 0x00, 0x00, 0x00, 0x00, 0x00, 0x00, 0x00, 0x00,
 153:ks0108.c      **** 0x07, 0xE0, 0x00, 0x00, 0x00, 0x00, 0x00, 0x00, 0x00, 0x00, 0x00, 0x00, 0x00, 0x00, 0x00, 0x00,
 154:ks0108.c      **** 0x03, 0xC0, 0x00, 0x00, 0x00, 0x00, 0x00, 0x00, 0x00, 0x00, 0x00, 0x00, 0x00, 0x00, 0x00, 0x00,
 155:ks0108.c      **** 0x00, 0x00, 0x00, 0x00, 0x00, 0x00, 0x00, 0x00, 0x00, 0x00, 0x00, 0x00, 0x00, 0x00, 0x00, 0x00,
 156:ks0108.c      **** 0x00, 0x00, 0x00, 0x00, 0x00, 0x00, 0x00, 0x00, 0x00, 0x00, 0x00, 0x00, 0x00, 0x00, 0x00, 0x00,
 157:ks0108.c      **** 0x00, 0x00, 0x00, 0x00, 0x00, 0x00, 0x00, 0x00, 0x00, 0x00, 0x00, 0x00, 0x00, 0x00, 0x00, 0x00,
 158:ks0108.c      **** 0x00, 0x00, 0x00, 0x00, 0x00, 0x00, 0x00, 0x00, 0x00, 0x00, 0x00, 0x00, 0x00, 0x00, 0x00, 0x00,
 159:ks0108.c      **** 0x00, 0x00, 0x00, 0x00, 0x00, 0x00, 0x00, 0x00, 0x00, 0x00, 0x00, 0x00, 0x00, 0x00, 0x00, 0x00,
 160:ks0108.c      **** 0x00, 0x00, 0x00, 0x00, 0x00, 0x00, 0x00, 0x00, 0x00, 0x00, 0x00, 0x00, 0x00, 0x00, 0x00, 0x00,
 161:ks0108.c      **** 0x00, 0x00, 0x00, 0x00, 0x00, 0x00, 0x00, 0x00, 0x00, 0x00, 0x00, 0x00, 0x00, 0x00, 0x00, 0x00,
 162:ks0108.c      **** 0x00, 0x00, 0x00, 0x00, 0x00, 0x00, 0x00, 0x00, 0x00, 0x00, 0x00, 0x00, 0x00, 0x00, 0x00, 0x00,
 163:ks0108.c      **** 0x00, 0x00, 0x00, 0x00, 0x00, 0x00, 0x00, 0x00, 0x00, 0x00, 0x00, 0x00, 0x00, 0x00, 0x00, 0x00,
 164:ks0108.c      **** 0x00, 0x00, 0x00, 0x00, 0x00, 0x00, 0x00, 0x00, 0x00, 0x00, 0x00, 0x00, 0x00, 0x00, 0x00, 0x00,
 165:ks0108.c      **** 0x00, 0x00, 0x00, 0x00, 0x00, 0x00, 0x00, 0x00, 0x00, 0x00, 0x00, 0x00, 0x00, 0x00, 0x00, 0x00,
 166:ks0108.c      **** 0x00, 0x00, 0x00, 0x00, 0x00, 0x00, 0x00, 0x00, 0x00, 0x00, 0x00, 0x00, 0x00, 0x00, 0x00, 0x00,
 167:ks0108.c      **** 0x00, 0x00, 0x00, 0x00, 0x00, 0x00, 0x00, 0x00, 0x00, 0x00, 0x00, 0x00, 0x00, 0x00, 0x00, 0x00,
 168:ks0108.c      **** 0x00, 0x00, 0x00, 0x00, 0x00, 0x00, 0x00, 0x00, 0x00, 0x00, 0x00, 0x00, 0x00, 0x00, 0x00, 0x00,
 169:ks0108.c      **** 0x00, 0x00, 0x00, 0x00, 0x00, 0x00, 0x00, 0x00, 0x00, 0x00, 0x00, 0x00, 0x00, 0x00, 0x00, 0x00,
 170:ks0108.c      **** 0x00, 0x00, 0x00, 0x00, 0x00, 0x00, 0x00, 0x00, 0x00, 0x00, 0x00, 0x00, 0x00, 0x00, 0x00, 0x00,
 171:ks0108.c      **** 0x00, 0x00, 0x00, 0x00, 0x00, 0x00, 0x00, 0x00, 0x00, 0x00, 0x00, 0x00, 0x00, 0x00, 0x00, 0x00,
 172:ks0108.c      **** 0x00, 0x00, 0x00, 0x00, 0x00, 0x00, 0x00, 0x00, 0x00, 0x00, 0x00, 0x00, 0x00, 0x00, 0x00, 0x00,
 173:ks0108.c      **** 0x00, 0x00, 0x00, 0x00, 0x00, 0x00, 0x00, 0x00, 0x00, 0x00, 0x00, 0x00, 0x00, 0x00, 0x00, 0x00,
 174:ks0108.c      **** 0x00, 0x00, 0x00, 0x00, 0x00, 0x00, 0x00, 0x00, 0x00, 0x00, 0x00, 0x00, 0x00, 0x00, 0x00, 0x00
 175:ks0108.c      **** };
 176:ks0108.c      **** 
 177:ks0108.c      **** 
 178:ks0108.c      **** 
 179:ks0108.c      **** void vLcdDataWrite(uint8_t ui8Value)
 180:ks0108.c      **** {   
  28              		.loc 1 180 0
  29              		.cfi_startproc
  30              		@ args = 0, pretend = 0, frame = 0
  31              		@ frame_needed = 0, uses_anonymous_args = 0
  32              	.LVL0:
  33 0000 10B5     		push	{r4, lr}
  34              		.cfi_def_cfa_offset 8
  35              		.cfi_offset 4, -8
  36              		.cfi_offset 14, -4
  37 0002 0446     		mov	r4, r0
 181:ks0108.c      ****    
 182:ks0108.c      ****     DB_0_Write(LOW);
  38              		.loc 1 182 0
  39 0004 0020     		movs	r0, #0
  40              	.LVL1:
  41 0006 FFF7FEFF 		bl	DB_0_Write
  42              	.LVL2:
 183:ks0108.c      ****     DB_1_Write(LOW);
  43              		.loc 1 183 0
  44 000a 0020     		movs	r0, #0
  45 000c FFF7FEFF 		bl	DB_1_Write
ARM GAS  C:\Users\USUARIO\AppData\Local\Temp\ccywmqVe.s 			page 5


  46              	.LVL3:
 184:ks0108.c      ****     DB_2_Write(LOW);
  47              		.loc 1 184 0
  48 0010 0020     		movs	r0, #0
  49 0012 FFF7FEFF 		bl	DB_2_Write
  50              	.LVL4:
 185:ks0108.c      ****     DB_3_Write(LOW);
  51              		.loc 1 185 0
  52 0016 0020     		movs	r0, #0
  53 0018 FFF7FEFF 		bl	DB_3_Write
  54              	.LVL5:
 186:ks0108.c      ****     DB_4_Write(LOW);
  55              		.loc 1 186 0
  56 001c 0020     		movs	r0, #0
  57 001e FFF7FEFF 		bl	DB_4_Write
  58              	.LVL6:
 187:ks0108.c      ****     DB_5_Write(LOW);
  59              		.loc 1 187 0
  60 0022 0020     		movs	r0, #0
  61 0024 FFF7FEFF 		bl	DB_5_Write
  62              	.LVL7:
 188:ks0108.c      ****     DB_6_Write(LOW);
  63              		.loc 1 188 0
  64 0028 0020     		movs	r0, #0
  65 002a FFF7FEFF 		bl	DB_6_Write
  66              	.LVL8:
 189:ks0108.c      ****     DB_7_Write(LOW);
  67              		.loc 1 189 0
  68 002e 0020     		movs	r0, #0
  69 0030 FFF7FEFF 		bl	DB_7_Write
  70              	.LVL9:
 190:ks0108.c      **** 
 191:ks0108.c      **** 		if(ui8Value & 0x01)
  71              		.loc 1 191 0
  72 0034 14F0010F 		tst	r4, #1
  73 0038 02D0     		beq	.L2
 192:ks0108.c      **** 			DB_0_Write(HIGH);
  74              		.loc 1 192 0
  75 003a 0120     		movs	r0, #1
  76 003c FFF7FEFF 		bl	DB_0_Write
  77              	.LVL10:
  78              	.L2:
 193:ks0108.c      **** 		if(ui8Value & 0x02)
  79              		.loc 1 193 0
  80 0040 14F0020F 		tst	r4, #2
  81 0044 02D0     		beq	.L3
 194:ks0108.c      **** 			DB_1_Write(HIGH);
  82              		.loc 1 194 0
  83 0046 0120     		movs	r0, #1
  84 0048 FFF7FEFF 		bl	DB_1_Write
  85              	.LVL11:
  86              	.L3:
 195:ks0108.c      **** 		if(ui8Value & 0x04)
  87              		.loc 1 195 0
  88 004c 14F0040F 		tst	r4, #4
  89 0050 02D0     		beq	.L4
 196:ks0108.c      **** 			DB_2_Write(HIGH);
ARM GAS  C:\Users\USUARIO\AppData\Local\Temp\ccywmqVe.s 			page 6


  90              		.loc 1 196 0
  91 0052 0120     		movs	r0, #1
  92 0054 FFF7FEFF 		bl	DB_2_Write
  93              	.LVL12:
  94              	.L4:
 197:ks0108.c      **** 		if(ui8Value & 0x08)
  95              		.loc 1 197 0
  96 0058 14F0080F 		tst	r4, #8
  97 005c 02D0     		beq	.L5
 198:ks0108.c      **** 			DB_3_Write(HIGH);
  98              		.loc 1 198 0
  99 005e 0120     		movs	r0, #1
 100 0060 FFF7FEFF 		bl	DB_3_Write
 101              	.LVL13:
 102              	.L5:
 199:ks0108.c      **** 		if(ui8Value & 0x10)
 103              		.loc 1 199 0
 104 0064 14F0100F 		tst	r4, #16
 105 0068 02D0     		beq	.L6
 200:ks0108.c      **** 			DB_4_Write(HIGH);
 106              		.loc 1 200 0
 107 006a 0120     		movs	r0, #1
 108 006c FFF7FEFF 		bl	DB_4_Write
 109              	.LVL14:
 110              	.L6:
 201:ks0108.c      **** 		if(ui8Value & 0x20)
 111              		.loc 1 201 0
 112 0070 14F0200F 		tst	r4, #32
 113 0074 02D0     		beq	.L7
 202:ks0108.c      **** 			DB_5_Write(HIGH);
 114              		.loc 1 202 0
 115 0076 0120     		movs	r0, #1
 116 0078 FFF7FEFF 		bl	DB_5_Write
 117              	.LVL15:
 118              	.L7:
 203:ks0108.c      **** 		if(ui8Value & 0x40)
 119              		.loc 1 203 0
 120 007c 14F0400F 		tst	r4, #64
 121 0080 02D0     		beq	.L8
 204:ks0108.c      **** 			DB_6_Write(HIGH);
 122              		.loc 1 204 0
 123 0082 0120     		movs	r0, #1
 124 0084 FFF7FEFF 		bl	DB_6_Write
 125              	.LVL16:
 126              	.L8:
 205:ks0108.c      **** 		if(ui8Value & 0x80)
 127              		.loc 1 205 0
 128 0088 14F0800F 		tst	r4, #128
 129 008c 02D0     		beq	.L1
 206:ks0108.c      **** 			DB_7_Write(HIGH);
 130              		.loc 1 206 0
 131 008e 0120     		movs	r0, #1
 132 0090 FFF7FEFF 		bl	DB_7_Write
 133              	.LVL17:
 134              	.L1:
 135 0094 10BD     		pop	{r4, pc}
 136              		.cfi_endproc
ARM GAS  C:\Users\USUARIO\AppData\Local\Temp\ccywmqVe.s 			page 7


 137              	.LFE64:
 138              		.size	vLcdDataWrite, .-vLcdDataWrite
 139 0096 00BF     		.section	.text.vLcdDataRead,"ax",%progbits
 140              		.align	2
 141              		.global	vLcdDataRead
 142              		.thumb
 143              		.thumb_func
 144              		.type	vLcdDataRead, %function
 145              	vLcdDataRead:
 146              	.LFB65:
 207:ks0108.c      ****            
 208:ks0108.c      **** }
 209:ks0108.c      **** 
 210:ks0108.c      **** uint8 vLcdDataRead()
 211:ks0108.c      **** {   
 147              		.loc 1 211 0
 148              		.cfi_startproc
 149              		@ args = 0, pretend = 0, frame = 0
 150              		@ frame_needed = 0, uses_anonymous_args = 0
 151 0000 10B5     		push	{r4, lr}
 152              		.cfi_def_cfa_offset 8
 153              		.cfi_offset 4, -8
 154              		.cfi_offset 14, -4
 155              	.LVL18:
 212:ks0108.c      ****    uint8 val;
 213:ks0108.c      ****     val=0;
 214:ks0108.c      **** 
 215:ks0108.c      **** 		if(DB_0_Read())
 156              		.loc 1 215 0
 157 0002 FFF7FEFF 		bl	DB_0_Read
 158              	.LVL19:
 159 0006 08B9     		cbnz	r0, .L20
 213:ks0108.c      **** 
 160              		.loc 1 213 0
 161 0008 0024     		movs	r4, #0
 162 000a 00E0     		b	.L12
 163              	.L20:
 216:ks0108.c      ****             val+=1;
 164              		.loc 1 216 0
 165 000c 0124     		movs	r4, #1
 166              	.L12:
 167              	.LVL20:
 217:ks0108.c      ****         if(DB_1_Read())
 168              		.loc 1 217 0
 169 000e FFF7FEFF 		bl	DB_1_Read
 170              	.LVL21:
 171 0012 08B1     		cbz	r0, .L13
 218:ks0108.c      ****             val+=2;
 172              		.loc 1 218 0
 173 0014 0234     		adds	r4, r4, #2
 174              	.LVL22:
 175 0016 E4B2     		uxtb	r4, r4
 176              	.LVL23:
 177              	.L13:
 219:ks0108.c      ****         if(DB_2_Read())
 178              		.loc 1 219 0
 179 0018 FFF7FEFF 		bl	DB_2_Read
ARM GAS  C:\Users\USUARIO\AppData\Local\Temp\ccywmqVe.s 			page 8


 180              	.LVL24:
 181 001c 08B1     		cbz	r0, .L14
 220:ks0108.c      ****             val+=4;
 182              		.loc 1 220 0
 183 001e 0434     		adds	r4, r4, #4
 184              	.LVL25:
 185 0020 E4B2     		uxtb	r4, r4
 186              	.LVL26:
 187              	.L14:
 221:ks0108.c      ****         if(DB_3_Read())
 188              		.loc 1 221 0
 189 0022 FFF7FEFF 		bl	DB_3_Read
 190              	.LVL27:
 191 0026 08B1     		cbz	r0, .L15
 222:ks0108.c      ****             val+=8;
 192              		.loc 1 222 0
 193 0028 0834     		adds	r4, r4, #8
 194              	.LVL28:
 195 002a E4B2     		uxtb	r4, r4
 196              	.LVL29:
 197              	.L15:
 223:ks0108.c      ****         if(DB_4_Read())
 198              		.loc 1 223 0
 199 002c FFF7FEFF 		bl	DB_4_Read
 200              	.LVL30:
 201 0030 08B1     		cbz	r0, .L16
 224:ks0108.c      ****             val+=16;
 202              		.loc 1 224 0
 203 0032 1034     		adds	r4, r4, #16
 204              	.LVL31:
 205 0034 E4B2     		uxtb	r4, r4
 206              	.LVL32:
 207              	.L16:
 225:ks0108.c      ****         if(DB_5_Read())
 208              		.loc 1 225 0
 209 0036 FFF7FEFF 		bl	DB_5_Read
 210              	.LVL33:
 211 003a 08B1     		cbz	r0, .L17
 226:ks0108.c      ****             val+=32;
 212              		.loc 1 226 0
 213 003c 2034     		adds	r4, r4, #32
 214              	.LVL34:
 215 003e E4B2     		uxtb	r4, r4
 216              	.LVL35:
 217              	.L17:
 227:ks0108.c      ****         if(DB_6_Read())
 218              		.loc 1 227 0
 219 0040 FFF7FEFF 		bl	DB_6_Read
 220              	.LVL36:
 221 0044 08B1     		cbz	r0, .L18
 228:ks0108.c      ****             val+=64;
 222              		.loc 1 228 0
 223 0046 4034     		adds	r4, r4, #64
 224              	.LVL37:
 225 0048 E4B2     		uxtb	r4, r4
 226              	.LVL38:
 227              	.L18:
ARM GAS  C:\Users\USUARIO\AppData\Local\Temp\ccywmqVe.s 			page 9


 229:ks0108.c      ****         if(DB_7_Read())
 228              		.loc 1 229 0
 229 004a FFF7FEFF 		bl	DB_7_Read
 230              	.LVL39:
 231 004e 08B1     		cbz	r0, .L19
 230:ks0108.c      ****             val+=128;
 232              		.loc 1 230 0
 233 0050 84F08004 		eor	r4, r4, #128
 234              	.LVL40:
 235              	.L19:
 231:ks0108.c      ****         return val;
 232:ks0108.c      **** }
 236              		.loc 1 232 0
 237 0054 2046     		mov	r0, r4
 238 0056 10BD     		pop	{r4, pc}
 239              		.cfi_endproc
 240              	.LFE65:
 241              		.size	vLcdDataRead, .-vLcdDataRead
 242              		.section	.text.glcd_writeByte,"ax",%progbits
 243              		.align	2
 244              		.global	glcd_writeByte
 245              		.thumb
 246              		.thumb_func
 247              		.type	glcd_writeByte, %function
 248              	glcd_writeByte:
 249              	.LFB66:
 233:ks0108.c      **** 
 234:ks0108.c      **** void glcd_writeByte(short side, uint8 data)
 235:ks0108.c      **** {
 250              		.loc 1 235 0
 251              		.cfi_startproc
 252              		@ args = 0, pretend = 0, frame = 0
 253              		@ frame_needed = 0, uses_anonymous_args = 0
 254              	.LVL41:
 255 0000 10B5     		push	{r4, lr}
 256              		.cfi_def_cfa_offset 8
 257              		.cfi_offset 4, -8
 258              		.cfi_offset 14, -4
 259 0002 0C46     		mov	r4, r1
 236:ks0108.c      ****    if(side){                   // Choose which side to write to
 260              		.loc 1 236 0
 261 0004 18B1     		cbz	r0, .L23
 237:ks0108.c      ****       LCD_CHIP_SELECT_2();
 262              		.loc 1 237 0
 263 0006 0120     		movs	r0, #1
 264              	.LVL42:
 265 0008 FFF7FEFF 		bl	CS_2_Write
 266              	.LVL43:
 267 000c 02E0     		b	.L24
 268              	.LVL44:
 269              	.L23:
 238:ks0108.c      ****    }else{
 239:ks0108.c      ****       LCD_CHIP_SELECT_1();
 270              		.loc 1 239 0
 271 000e 0120     		movs	r0, #1
 272              	.LVL45:
 273 0010 FFF7FEFF 		bl	CS_1_Write
ARM GAS  C:\Users\USUARIO\AppData\Local\Temp\ccywmqVe.s 			page 10


 274              	.LVL46:
 275              	.L24:
 240:ks0108.c      ****     }
 241:ks0108.c      **** 
 242:ks0108.c      ****    //output_low(GLCD_RW);       // Set for writing
 243:ks0108.c      ****     R_W_Write(0);
 276              		.loc 1 243 0
 277 0014 0020     		movs	r0, #0
 278 0016 FFF7FEFF 		bl	R_W_Write
 279              	.LVL47:
 244:ks0108.c      ****    vLcdDataWrite(data);            // Put the data on the port
 280              		.loc 1 244 0
 281 001a 2046     		mov	r0, r4
 282 001c FFF7FEFF 		bl	vLcdDataWrite
 283              	.LVL48:
 245:ks0108.c      ****    CyDelayCycles(100);
 284              		.loc 1 245 0
 285 0020 6420     		movs	r0, #100
 286 0022 FFF7FEFF 		bl	CyDelayCycles
 287              	.LVL49:
 246:ks0108.c      ****    //output_high(GLCD_E);       // Pulse the enable pin
 247:ks0108.c      ****     ENABLE_HIGH();
 288              		.loc 1 247 0
 289 0026 0120     		movs	r0, #1
 290 0028 FFF7FEFF 		bl	ENABLE_Write
 291              	.LVL50:
 248:ks0108.c      ****    CyDelayCycles(500);
 292              		.loc 1 248 0
 293 002c 4FF4FA70 		mov	r0, #500
 294 0030 FFF7FEFF 		bl	CyDelayCycles
 295              	.LVL51:
 249:ks0108.c      ****    ENABLE_LOW();
 296              		.loc 1 249 0
 297 0034 0020     		movs	r0, #0
 298 0036 FFF7FEFF 		bl	ENABLE_Write
 299              	.LVL52:
 250:ks0108.c      **** 
 251:ks0108.c      ****    LCD_CHIP_DESELECT_1();
 300              		.loc 1 251 0
 301 003a 0020     		movs	r0, #0
 302 003c FFF7FEFF 		bl	CS_1_Write
 303              	.LVL53:
 252:ks0108.c      ****    LCD_CHIP_DESELECT_2();
 304              		.loc 1 252 0
 305 0040 0020     		movs	r0, #0
 306 0042 FFF7FEFF 		bl	CS_2_Write
 307              	.LVL54:
 308 0046 10BD     		pop	{r4, pc}
 309              		.cfi_endproc
 310              	.LFE66:
 311              		.size	glcd_writeByte, .-glcd_writeByte
 312              		.section	.text.glcd_update,"ax",%progbits
 313              		.align	2
 314              		.global	glcd_update
 315              		.thumb
 316              		.thumb_func
 317              		.type	glcd_update, %function
ARM GAS  C:\Users\USUARIO\AppData\Local\Temp\ccywmqVe.s 			page 11


 318              	glcd_update:
 319              	.LFB67:
 253:ks0108.c      **** }
 254:ks0108.c      **** 
 255:ks0108.c      **** void glcd_update()
 256:ks0108.c      **** {
 320              		.loc 1 256 0
 321              		.cfi_startproc
 322              		@ args = 0, pretend = 0, frame = 0
 323              		@ frame_needed = 0, uses_anonymous_args = 0
 324 0000 2DE9F041 		push	{r4, r5, r6, r7, r8, lr}
 325              		.cfi_def_cfa_offset 24
 326              		.cfi_offset 4, -24
 327              		.cfi_offset 5, -20
 328              		.cfi_offset 6, -16
 329              		.cfi_offset 7, -12
 330              		.cfi_offset 8, -8
 331              		.cfi_offset 14, -4
 332              	.LVL55:
 257:ks0108.c      ****    uint8 i, j;
 258:ks0108.c      ****    uint8 *p1, *p2;
 259:ks0108.c      **** 
 260:ks0108.c      ****    p1 = displayData.left;
 261:ks0108.c      ****    p2 = displayData.right;
 333              		.loc 1 261 0
 334 0004 1C4D     		ldr	r5, .L32
 335              	.LVL56:
 260:ks0108.c      ****    p2 = displayData.right;
 336              		.loc 1 260 0
 337 0006 A5F50076 		sub	r6, r5, #512
 262:ks0108.c      **** 
 263:ks0108.c      ****    // Loop through the vertical pages
 264:ks0108.c      ****    for(i = 0; i < 8; ++i)
 338              		.loc 1 264 0
 339 000a 4FF00008 		mov	r8, #0
 340 000e 2DE0     		b	.L27
 341              	.LVL57:
 342              	.L30:
 265:ks0108.c      ****    {
 266:ks0108.c      ****       //output_low(GLCD_DI);                      // Set for instruction
 267:ks0108.c      ****       D_I_Write(0);
 343              		.loc 1 267 0
 344 0010 0020     		movs	r0, #0
 345 0012 FFF7FEFF 		bl	D_I_Write
 346              	.LVL58:
 268:ks0108.c      ****       //glcd_writeByte(GLCD_LEFT, 0x40);          // Set horizontal address to 0
 269:ks0108.c      ****       glcd_writeByte(GLCD_LEFT, 0x40);          // Set horizontal address to 0
 347              		.loc 1 269 0
 348 0016 4021     		movs	r1, #64
 349 0018 0020     		movs	r0, #0
 350 001a FFF7FEFF 		bl	glcd_writeByte
 351              	.LVL59:
 270:ks0108.c      ****       glcd_writeByte(GLCD_RIGHT, 0x40);
 352              		.loc 1 270 0
 353 001e 4021     		movs	r1, #64
 354 0020 0120     		movs	r0, #1
 355 0022 FFF7FEFF 		bl	glcd_writeByte
ARM GAS  C:\Users\USUARIO\AppData\Local\Temp\ccywmqVe.s 			page 12


 356              	.LVL60:
 271:ks0108.c      ****       glcd_writeByte(GLCD_LEFT, i | 0xB8);      // Set page address
 357              		.loc 1 271 0
 358 0026 48F0B804 		orr	r4, r8, #184
 359 002a 2146     		mov	r1, r4
 360 002c 0020     		movs	r0, #0
 361 002e FFF7FEFF 		bl	glcd_writeByte
 362              	.LVL61:
 272:ks0108.c      ****       glcd_writeByte(GLCD_RIGHT, i | 0xB8);
 363              		.loc 1 272 0
 364 0032 2146     		mov	r1, r4
 365 0034 0120     		movs	r0, #1
 366 0036 FFF7FEFF 		bl	glcd_writeByte
 367              	.LVL62:
 273:ks0108.c      ****       D_I_Write(1);
 368              		.loc 1 273 0
 369 003a 0120     		movs	r0, #1
 370 003c FFF7FEFF 		bl	D_I_Write
 371              	.LVL63:
 274:ks0108.c      **** 
 275:ks0108.c      ****       // Loop through the horizontal sections
 276:ks0108.c      ****       for(j = 0; j < 64; ++j)
 372              		.loc 1 276 0
 373 0040 0024     		movs	r4, #0
 374 0042 0DE0     		b	.L28
 375              	.LVL64:
 376              	.L29:
 277:ks0108.c      ****       {
 278:ks0108.c      ****          glcd_writeByte(GLCD_LEFT, *p1++);      // Turn pixels on or off
 377              		.loc 1 278 0 discriminator 3
 378 0044 771C     		adds	r7, r6, #1
 379              	.LVL65:
 380 0046 3178     		ldrb	r1, [r6]	@ zero_extendqisi2
 381 0048 0020     		movs	r0, #0
 382 004a FFF7FEFF 		bl	glcd_writeByte
 383              	.LVL66:
 279:ks0108.c      ****          glcd_writeByte(GLCD_RIGHT, *p2++);     // Turn pixels on or off
 384              		.loc 1 279 0 discriminator 3
 385 004e 6E1C     		adds	r6, r5, #1
 386              	.LVL67:
 387 0050 2978     		ldrb	r1, [r5]	@ zero_extendqisi2
 388 0052 0120     		movs	r0, #1
 389 0054 FFF7FEFF 		bl	glcd_writeByte
 390              	.LVL68:
 276:ks0108.c      ****       {
 391              		.loc 1 276 0 discriminator 3
 392 0058 0134     		adds	r4, r4, #1
 393              	.LVL69:
 394 005a E4B2     		uxtb	r4, r4
 395              	.LVL70:
 396              		.loc 1 279 0 discriminator 3
 397 005c 3546     		mov	r5, r6
 278:ks0108.c      ****          glcd_writeByte(GLCD_RIGHT, *p2++);     // Turn pixels on or off
 398              		.loc 1 278 0 discriminator 3
 399 005e 3E46     		mov	r6, r7
 400              	.LVL71:
 401              	.L28:
ARM GAS  C:\Users\USUARIO\AppData\Local\Temp\ccywmqVe.s 			page 13


 276:ks0108.c      ****       {
 402              		.loc 1 276 0 discriminator 1
 403 0060 3F2C     		cmp	r4, #63
 404 0062 EFD9     		bls	.L29
 264:ks0108.c      ****    {
 405              		.loc 1 264 0 discriminator 2
 406 0064 08F10108 		add	r8, r8, #1
 407              	.LVL72:
 408 0068 5FFA88F8 		uxtb	r8, r8
 409              	.LVL73:
 410              	.L27:
 264:ks0108.c      ****    {
 411              		.loc 1 264 0 is_stmt 0 discriminator 1
 412 006c B8F1070F 		cmp	r8, #7
 413 0070 CED9     		bls	.L30
 280:ks0108.c      ****       }
 281:ks0108.c      ****    }
 282:ks0108.c      **** }
 414              		.loc 1 282 0 is_stmt 1
 415 0072 BDE8F081 		pop	{r4, r5, r6, r7, r8, pc}
 416              	.LVL74:
 417              	.L33:
 418 0076 00BF     		.align	2
 419              	.L32:
 420 0078 00020000 		.word	displayData+512
 421              		.cfi_endproc
 422              	.LFE67:
 423              		.size	glcd_update, .-glcd_update
 424              		.section	.text.glcd_readByte,"ax",%progbits
 425              		.align	2
 426              		.global	glcd_readByte
 427              		.thumb
 428              		.thumb_func
 429              		.type	glcd_readByte, %function
 430              	glcd_readByte:
 431              	.LFB68:
 283:ks0108.c      **** 
 284:ks0108.c      **** uint8 glcd_readByte(short side)
 285:ks0108.c      **** {
 432              		.loc 1 285 0
 433              		.cfi_startproc
 434              		@ args = 0, pretend = 0, frame = 0
 435              		@ frame_needed = 0, uses_anonymous_args = 0
 436              	.LVL75:
 437 0000 10B5     		push	{r4, lr}
 438              		.cfi_def_cfa_offset 8
 439              		.cfi_offset 4, -8
 440              		.cfi_offset 14, -4
 441 0002 0446     		mov	r4, r0
 286:ks0108.c      ****    uint8 data;                 // Stores the data read from the LCD
 287:ks0108.c      **** 
 288:ks0108.c      ****    //set_tris_d(0xFF);          // Set port d to input
 289:ks0108.c      ****    //output_high(GLCD_RW);      // Set for reading
 290:ks0108.c      ****     R_W_Write(1);
 442              		.loc 1 290 0
 443 0004 0120     		movs	r0, #1
 444              	.LVL76:
ARM GAS  C:\Users\USUARIO\AppData\Local\Temp\ccywmqVe.s 			page 14


 445 0006 FFF7FEFF 		bl	R_W_Write
 446              	.LVL77:
 291:ks0108.c      **** 
 292:ks0108.c      ****    if(side){                   // Choose which side to write to
 447              		.loc 1 292 0
 448 000a 1CB1     		cbz	r4, .L35
 293:ks0108.c      ****       LCD_CHIP_SELECT_2();
 449              		.loc 1 293 0
 450 000c 0120     		movs	r0, #1
 451 000e FFF7FEFF 		bl	CS_2_Write
 452              	.LVL78:
 453 0012 02E0     		b	.L36
 454              	.L35:
 294:ks0108.c      ****    }else{
 295:ks0108.c      ****       LCD_CHIP_SELECT_1();
 455              		.loc 1 295 0
 456 0014 0120     		movs	r0, #1
 457 0016 FFF7FEFF 		bl	CS_1_Write
 458              	.LVL79:
 459              	.L36:
 296:ks0108.c      ****     }
 297:ks0108.c      **** 
 298:ks0108.c      ****    CyDelayCycles(100);
 460              		.loc 1 298 0
 461 001a 6420     		movs	r0, #100
 462 001c FFF7FEFF 		bl	CyDelayCycles
 463              	.LVL80:
 299:ks0108.c      ****    //output_high(GLCD_E);       // Pulse the enable pin
 300:ks0108.c      ****     ENABLE_HIGH();
 464              		.loc 1 300 0
 465 0020 0120     		movs	r0, #1
 466 0022 FFF7FEFF 		bl	ENABLE_Write
 467              	.LVL81:
 301:ks0108.c      ****    CyDelayCycles(400);
 468              		.loc 1 301 0
 469 0026 4FF4C870 		mov	r0, #400
 470 002a FFF7FEFF 		bl	CyDelayCycles
 471              	.LVL82:
 302:ks0108.c      ****    data = vLcdDataRead();          // Get the data from the display's output register
 472              		.loc 1 302 0
 473 002e FFF7FEFF 		bl	vLcdDataRead
 474              	.LVL83:
 475 0032 0446     		mov	r4, r0
 476              	.LVL84:
 303:ks0108.c      ****    //output_low(GLCD_E);
 304:ks0108.c      ****     ENABLE_LOW();
 477              		.loc 1 304 0
 478 0034 0020     		movs	r0, #0
 479 0036 FFF7FEFF 		bl	ENABLE_Write
 480              	.LVL85:
 305:ks0108.c      **** 
 306:ks0108.c      ****    LCD_CHIP_DESELECT_1();
 481              		.loc 1 306 0
 482 003a 0020     		movs	r0, #0
 483 003c FFF7FEFF 		bl	CS_1_Write
 484              	.LVL86:
 307:ks0108.c      ****    LCD_CHIP_DESELECT_2();
ARM GAS  C:\Users\USUARIO\AppData\Local\Temp\ccywmqVe.s 			page 15


 485              		.loc 1 307 0
 486 0040 0020     		movs	r0, #0
 487 0042 FFF7FEFF 		bl	CS_2_Write
 488              	.LVL87:
 308:ks0108.c      ****    return data;               // Return the read data
 309:ks0108.c      **** }
 489              		.loc 1 309 0
 490 0046 2046     		mov	r0, r4
 491 0048 10BD     		pop	{r4, pc}
 492              		.cfi_endproc
 493              	.LFE68:
 494              		.size	glcd_readByte, .-glcd_readByte
 495 004a 00BF     		.section	.text.glcd_fillScreen,"ax",%progbits
 496              		.align	2
 497              		.global	glcd_fillScreen
 498              		.thumb
 499              		.thumb_func
 500              		.type	glcd_fillScreen, %function
 501              	glcd_fillScreen:
 502              	.LFB69:
 310:ks0108.c      **** 
 311:ks0108.c      **** void glcd_fillScreen(short color)
 312:ks0108.c      **** {
 503              		.loc 1 312 0
 504              		.cfi_startproc
 505              		@ args = 0, pretend = 0, frame = 0
 506              		@ frame_needed = 0, uses_anonymous_args = 0
 507              		@ link register save eliminated.
 508              	.LVL88:
 313:ks0108.c      ****    uint8  data;
 314:ks0108.c      ****    uint8  *p1, *p2;
 315:ks0108.c      ****    uint16 i;
 316:ks0108.c      **** 
 317:ks0108.c      ****    p1 = displayData.left;
 318:ks0108.c      ****    p2 = displayData.right;
 319:ks0108.c      ****    data = 0xFF * color;
 509              		.loc 1 319 0
 510 0000 4042     		negs	r0, r0
 511              	.LVL89:
 512 0002 C0B2     		uxtb	r0, r0
 513              	.LVL90:
 320:ks0108.c      **** 
 321:ks0108.c      ****    for(i=0; i<512; ++i)
 514              		.loc 1 321 0
 515 0004 0023     		movs	r3, #0
 318:ks0108.c      ****    data = 0xFF * color;
 516              		.loc 1 318 0
 517 0006 074A     		ldr	r2, .L41
 518              	.LVL91:
 317:ks0108.c      ****    p2 = displayData.right;
 519              		.loc 1 317 0
 520 0008 A2F50071 		sub	r1, r2, #512
 521              		.loc 1 321 0
 522 000c 05E0     		b	.L39
 523              	.LVL92:
 524              	.L40:
 322:ks0108.c      ****    {
ARM GAS  C:\Users\USUARIO\AppData\Local\Temp\ccywmqVe.s 			page 16


 323:ks0108.c      ****       *p1++ = data;
 525              		.loc 1 323 0 discriminator 3
 526 000e 0870     		strb	r0, [r1]
 527              	.LVL93:
 324:ks0108.c      ****       *p2++ = data;
 528              		.loc 1 324 0 discriminator 3
 529 0010 1070     		strb	r0, [r2]
 321:ks0108.c      ****    {
 530              		.loc 1 321 0 discriminator 3
 531 0012 0133     		adds	r3, r3, #1
 532              	.LVL94:
 533 0014 9BB2     		uxth	r3, r3
 534              	.LVL95:
 535              		.loc 1 324 0 discriminator 3
 536 0016 0132     		adds	r2, r2, #1
 537              	.LVL96:
 323:ks0108.c      ****       *p2++ = data;
 538              		.loc 1 323 0 discriminator 3
 539 0018 0131     		adds	r1, r1, #1
 540              	.LVL97:
 541              	.L39:
 321:ks0108.c      ****    {
 542              		.loc 1 321 0 discriminator 1
 543 001a B3F5007F 		cmp	r3, #512
 544 001e F6D3     		bcc	.L40
 325:ks0108.c      ****    }
 326:ks0108.c      ****    
 327:ks0108.c      **** }
 545              		.loc 1 327 0
 546 0020 7047     		bx	lr
 547              	.L42:
 548 0022 00BF     		.align	2
 549              	.L41:
 550 0024 00020000 		.word	displayData+512
 551              		.cfi_endproc
 552              	.LFE69:
 553              		.size	glcd_fillScreen, .-glcd_fillScreen
 554              		.section	.text.glcd_init,"ax",%progbits
 555              		.align	2
 556              		.global	glcd_init
 557              		.thumb
 558              		.thumb_func
 559              		.type	glcd_init, %function
 560              	glcd_init:
 561              	.LFB70:
 328:ks0108.c      **** 
 329:ks0108.c      **** void glcd_init(short mode)
 330:ks0108.c      **** {
 562              		.loc 1 330 0
 563              		.cfi_startproc
 564              		@ args = 0, pretend = 0, frame = 0
 565              		@ frame_needed = 0, uses_anonymous_args = 0
 566              	.LVL98:
 567 0000 10B5     		push	{r4, lr}
 568              		.cfi_def_cfa_offset 8
 569              		.cfi_offset 4, -8
 570              		.cfi_offset 14, -4
ARM GAS  C:\Users\USUARIO\AppData\Local\Temp\ccywmqVe.s 			page 17


 571 0002 0446     		mov	r4, r0
 331:ks0108.c      ****    // Initialze some pins
 332:ks0108.c      ****    //output_high(GLCD_RST);
 333:ks0108.c      ****     RESET_Write(1);
 572              		.loc 1 333 0
 573 0004 0120     		movs	r0, #1
 574              	.LVL99:
 575 0006 FFF7FEFF 		bl	RESET_Write
 576              	.LVL100:
 334:ks0108.c      ****    ENABLE_Write(0);
 577              		.loc 1 334 0
 578 000a 0020     		movs	r0, #0
 579 000c FFF7FEFF 		bl	ENABLE_Write
 580              	.LVL101:
 335:ks0108.c      ****    LCD_CHIP_DESELECT_1();
 581              		.loc 1 335 0
 582 0010 0020     		movs	r0, #0
 583 0012 FFF7FEFF 		bl	CS_1_Write
 584              	.LVL102:
 336:ks0108.c      ****    LCD_CHIP_DESELECT_2();
 585              		.loc 1 336 0
 586 0016 0020     		movs	r0, #0
 587 0018 FFF7FEFF 		bl	CS_2_Write
 588              	.LVL103:
 337:ks0108.c      **** 
 338:ks0108.c      ****    D_I_Write(0);
 589              		.loc 1 338 0
 590 001c 0020     		movs	r0, #0
 591 001e FFF7FEFF 		bl	D_I_Write
 592              	.LVL104:
 339:ks0108.c      ****    glcd_writeByte(GLCD_LEFT,  0xC0);    // Specify first RAM line at the top
 593              		.loc 1 339 0
 594 0022 C021     		movs	r1, #192
 595 0024 0020     		movs	r0, #0
 596 0026 FFF7FEFF 		bl	glcd_writeByte
 597              	.LVL105:
 340:ks0108.c      ****    glcd_writeByte(GLCD_RIGHT, 0xC0);    //   of the screen
 598              		.loc 1 340 0
 599 002a C021     		movs	r1, #192
 600 002c 0120     		movs	r0, #1
 601 002e FFF7FEFF 		bl	glcd_writeByte
 602              	.LVL106:
 341:ks0108.c      ****    glcd_writeByte(GLCD_LEFT,  0x40);    // Set the column address to 0
 603              		.loc 1 341 0
 604 0032 4021     		movs	r1, #64
 605 0034 0020     		movs	r0, #0
 606 0036 FFF7FEFF 		bl	glcd_writeByte
 607              	.LVL107:
 342:ks0108.c      ****    glcd_writeByte(GLCD_RIGHT, 0x40);
 608              		.loc 1 342 0
 609 003a 4021     		movs	r1, #64
 610 003c 0120     		movs	r0, #1
 611 003e FFF7FEFF 		bl	glcd_writeByte
 612              	.LVL108:
 343:ks0108.c      ****    glcd_writeByte(GLCD_LEFT,  0xB8);    // Set the page address to 0
 613              		.loc 1 343 0
 614 0042 B821     		movs	r1, #184
ARM GAS  C:\Users\USUARIO\AppData\Local\Temp\ccywmqVe.s 			page 18


 615 0044 0020     		movs	r0, #0
 616 0046 FFF7FEFF 		bl	glcd_writeByte
 617              	.LVL109:
 344:ks0108.c      ****    glcd_writeByte(GLCD_RIGHT, 0xB8);
 618              		.loc 1 344 0
 619 004a B821     		movs	r1, #184
 620 004c 0120     		movs	r0, #1
 621 004e FFF7FEFF 		bl	glcd_writeByte
 622              	.LVL110:
 345:ks0108.c      **** 
 346:ks0108.c      ****    if(mode == ON)
 623              		.loc 1 346 0
 624 0052 012C     		cmp	r4, #1
 625 0054 08D1     		bne	.L44
 347:ks0108.c      ****    {
 348:ks0108.c      ****       glcd_writeByte(GLCD_LEFT,  0x3F); // Turn the display on
 626              		.loc 1 348 0
 627 0056 3F21     		movs	r1, #63
 628 0058 0020     		movs	r0, #0
 629 005a FFF7FEFF 		bl	glcd_writeByte
 630              	.LVL111:
 349:ks0108.c      ****       glcd_writeByte(GLCD_RIGHT, 0x3F);
 631              		.loc 1 349 0
 632 005e 3F21     		movs	r1, #63
 633 0060 0120     		movs	r0, #1
 634 0062 FFF7FEFF 		bl	glcd_writeByte
 635              	.LVL112:
 636 0066 07E0     		b	.L45
 637              	.L44:
 350:ks0108.c      ****    }
 351:ks0108.c      ****    else
 352:ks0108.c      ****    {
 353:ks0108.c      ****       glcd_writeByte(GLCD_LEFT,  0x3E); // Turn the display off
 638              		.loc 1 353 0
 639 0068 3E21     		movs	r1, #62
 640 006a 0020     		movs	r0, #0
 641 006c FFF7FEFF 		bl	glcd_writeByte
 642              	.LVL113:
 354:ks0108.c      ****       glcd_writeByte(GLCD_RIGHT, 0x3E);
 643              		.loc 1 354 0
 644 0070 3E21     		movs	r1, #62
 645 0072 0120     		movs	r0, #1
 646 0074 FFF7FEFF 		bl	glcd_writeByte
 647              	.LVL114:
 648              	.L45:
 355:ks0108.c      ****    }
 356:ks0108.c      **** 
 357:ks0108.c      ****    glcd_fillScreen(OFF);                // Clear the display
 649              		.loc 1 357 0
 650 0078 0020     		movs	r0, #0
 651 007a FFF7FEFF 		bl	glcd_fillScreen
 652              	.LVL115:
 358:ks0108.c      ****    glcd_update();
 653              		.loc 1 358 0
 654 007e FFF7FEFF 		bl	glcd_update
 655              	.LVL116:
 656 0082 10BD     		pop	{r4, pc}
ARM GAS  C:\Users\USUARIO\AppData\Local\Temp\ccywmqVe.s 			page 19


 657              		.cfi_endproc
 658              	.LFE70:
 659              		.size	glcd_init, .-glcd_init
 660              		.section	.text.glcd_pixel,"ax",%progbits
 661              		.align	2
 662              		.global	glcd_pixel
 663              		.thumb
 664              		.thumb_func
 665              		.type	glcd_pixel, %function
 666              	glcd_pixel:
 667              	.LFB71:
 359:ks0108.c      **** }
 360:ks0108.c      **** 
 361:ks0108.c      **** void glcd_pixel(uint8 x, uint8 y, short color)
 362:ks0108.c      **** {
 668              		.loc 1 362 0
 669              		.cfi_startproc
 670              		@ args = 0, pretend = 0, frame = 0
 671              		@ frame_needed = 0, uses_anonymous_args = 0
 672              		@ link register save eliminated.
 673              	.LVL117:
 363:ks0108.c      ****     
 364:ks0108.c      ****    uint8* p;
 365:ks0108.c      ****    uint16 temp;
 366:ks0108.c      ****    temp =  y/8;
 674              		.loc 1 366 0
 675 0000 CB08     		lsrs	r3, r1, #3
 676              	.LVL118:
 367:ks0108.c      ****    temp *= 64;
 368:ks0108.c      ****    temp += x;
 677              		.loc 1 368 0
 678 0002 00EB8313 		add	r3, r0, r3, lsl #6
 679              	.LVL119:
 369:ks0108.c      **** 
 370:ks0108.c      ****    if(x > 63)
 680              		.loc 1 370 0
 681 0006 3F28     		cmp	r0, #63
 682 0008 03D9     		bls	.L48
 371:ks0108.c      ****    {
 372:ks0108.c      ****       p = displayData.right + temp - 64;
 683              		.loc 1 372 0
 684 000a 403B     		subs	r3, r3, #64
 685              	.LVL120:
 686 000c 0C48     		ldr	r0, .L52
 687              	.LVL121:
 688 000e 0344     		add	r3, r3, r0
 689              	.LVL122:
 690 0010 01E0     		b	.L49
 691              	.LVL123:
 692              	.L48:
 373:ks0108.c      ****    }
 374:ks0108.c      ****    else
 375:ks0108.c      ****    {
 376:ks0108.c      ****       p = displayData.left + temp;
 693              		.loc 1 376 0
 694 0012 0C48     		ldr	r0, .L52+4
 695              	.LVL124:
ARM GAS  C:\Users\USUARIO\AppData\Local\Temp\ccywmqVe.s 			page 20


 696 0014 0344     		add	r3, r3, r0
 697              	.LVL125:
 698              	.L49:
 377:ks0108.c      ****    }
 378:ks0108.c      **** 
 379:ks0108.c      ****    if(color)
 699              		.loc 1 379 0
 700 0016 42B1     		cbz	r2, .L50
 380:ks0108.c      ****    {
 381:ks0108.c      ****       bitSet(*p, y%8);
 701              		.loc 1 381 0
 702 0018 01F00701 		and	r1, r1, #7
 703              	.LVL126:
 704 001c 0122     		movs	r2, #1
 705              	.LVL127:
 706 001e 02FA01F1 		lsl	r1, r2, r1
 707 0022 1A78     		ldrb	r2, [r3]	@ zero_extendqisi2
 708 0024 1143     		orrs	r1, r1, r2
 709 0026 1970     		strb	r1, [r3]
 710 0028 7047     		bx	lr
 711              	.LVL128:
 712              	.L50:
 382:ks0108.c      ****    }
 383:ks0108.c      ****    else
 384:ks0108.c      ****    {
 385:ks0108.c      ****       bitClear(*p, y%8);
 713              		.loc 1 385 0
 714 002a 01F00701 		and	r1, r1, #7
 715              	.LVL129:
 716 002e 0122     		movs	r2, #1
 717              	.LVL130:
 718 0030 02FA01F1 		lsl	r1, r2, r1
 719 0034 1A78     		ldrb	r2, [r3]	@ zero_extendqisi2
 720 0036 22EA0101 		bic	r1, r2, r1
 721 003a 1970     		strb	r1, [r3]
 722 003c 7047     		bx	lr
 723              	.L53:
 724 003e 00BF     		.align	2
 725              	.L52:
 726 0040 00020000 		.word	displayData+512
 727 0044 00000000 		.word	displayData
 728              		.cfi_endproc
 729              	.LFE71:
 730              		.size	glcd_pixel, .-glcd_pixel
 731              		.section	.text.glcd_line,"ax",%progbits
 732              		.align	2
 733              		.global	glcd_line
 734              		.thumb
 735              		.thumb_func
 736              		.type	glcd_line, %function
 737              	glcd_line:
 738              	.LFB72:
 386:ks0108.c      ****    }
 387:ks0108.c      ****     
 388:ks0108.c      **** }
 389:ks0108.c      **** 
 390:ks0108.c      **** void glcd_line(uint8 x1, uint8 y1, uint8 x2, uint8 y2, short color)
ARM GAS  C:\Users\USUARIO\AppData\Local\Temp\ccywmqVe.s 			page 21


 391:ks0108.c      **** {
 739              		.loc 1 391 0
 740              		.cfi_startproc
 741              		@ args = 4, pretend = 0, frame = 8
 742              		@ frame_needed = 0, uses_anonymous_args = 0
 743              	.LVL131:
 744 0000 2DE9F04F 		push	{r4, r5, r6, r7, r8, r9, r10, fp, lr}
 745              		.cfi_def_cfa_offset 36
 746              		.cfi_offset 4, -36
 747              		.cfi_offset 5, -32
 748              		.cfi_offset 6, -28
 749              		.cfi_offset 7, -24
 750              		.cfi_offset 8, -20
 751              		.cfi_offset 9, -16
 752              		.cfi_offset 10, -12
 753              		.cfi_offset 11, -8
 754              		.cfi_offset 14, -4
 755 0004 83B0     		sub	sp, sp, #12
 756              		.cfi_def_cfa_offset 48
 757 0006 0446     		mov	r4, r0
 758 0008 0D46     		mov	r5, r1
 759 000a BDF93010 		ldrsh	r1, [sp, #48]
 760              	.LVL132:
 761 000e 0091     		str	r1, [sp]
 762              	.LVL133:
 392:ks0108.c      ****    uint16        dy, dx;
 393:ks0108.c      ****    uint8  addx=1, addy=1;
 394:ks0108.c      ****    int16 P, diff;
 395:ks0108.c      **** 
 396:ks0108.c      ****    uint8 i=0;
 397:ks0108.c      ****    dx = x2 - x1;
 763              		.loc 1 397 0
 764 0010 C0EB0208 		rsb	r8, r0, r2
 765 0014 1FFA88F8 		uxth	r8, r8
 766              	.LVL134:
 398:ks0108.c      ****    dy = y2 - y1;
 767              		.loc 1 398 0
 768 0018 C5EB030B 		rsb	fp, r5, r3
 769 001c 1FFA8BFB 		uxth	fp, fp
 770              	.LVL135:
 399:ks0108.c      **** 
 400:ks0108.c      ****    if(x1 > x2)
 771              		.loc 1 400 0
 772 0020 8242     		cmp	r2, r0
 773 0022 02D3     		bcc	.L67
 393:ks0108.c      ****    int16 P, diff;
 774              		.loc 1 393 0
 775 0024 4FF00109 		mov	r9, #1
 776 0028 01E0     		b	.L55
 777              	.L67:
 401:ks0108.c      ****       addx = -1;
 778              		.loc 1 401 0
 779 002a 4FF0FF09 		mov	r9, #255
 780              	.L55:
 781              	.LVL136:
 402:ks0108.c      ****    if(y1 > y2)
 782              		.loc 1 402 0
ARM GAS  C:\Users\USUARIO\AppData\Local\Temp\ccywmqVe.s 			page 22


 783 002e AB42     		cmp	r3, r5
 784 0030 02D3     		bcc	.L68
 393:ks0108.c      ****    int16 P, diff;
 785              		.loc 1 393 0
 786 0032 4FF0010A 		mov	r10, #1
 787 0036 01E0     		b	.L56
 788              	.L68:
 403:ks0108.c      ****       addy = -1;
 789              		.loc 1 403 0
 790 0038 4FF0FF0A 		mov	r10, #255
 791              	.L56:
 792              	.LVL137:
 404:ks0108.c      **** 
 405:ks0108.c      ****    if(dx >= dy)
 793              		.loc 1 405 0
 794 003c D845     		cmp	r8, fp
 795 003e 29D3     		bcc	.L57
 406:ks0108.c      ****    {
 407:ks0108.c      ****       dy *= 2;
 796              		.loc 1 407 0
 797 0040 4FEA4B0B 		lsl	fp, fp, #1
 798              	.LVL138:
 799 0044 1FFA8BF3 		uxth	r3, fp
 800              	.LVL139:
 801 0048 0193     		str	r3, [sp, #4]
 802              	.LVL140:
 408:ks0108.c      ****       P = dy - dx;
 803              		.loc 1 408 0
 804 004a C8EB030B 		rsb	fp, r8, r3
 805 004e 1FFA8BFB 		uxth	fp, fp
 806 0052 0FFA8BF7 		sxth	r7, fp
 807              	.LVL141:
 409:ks0108.c      ****       diff = P - dx;
 808              		.loc 1 409 0
 809 0056 C8EB0B0B 		rsb	fp, r8, fp
 810 005a 1FFA8BFB 		uxth	fp, fp
 811              	.LVL142:
 396:ks0108.c      ****    dx = x2 - x1;
 812              		.loc 1 396 0
 813 005e 0026     		movs	r6, #0
 410:ks0108.c      **** 
 411:ks0108.c      ****       for(; i<=dx; ++i)
 814              		.loc 1 411 0
 815 0060 14E0     		b	.L58
 816              	.LVL143:
 817              	.L61:
 412:ks0108.c      ****       {
 413:ks0108.c      ****          glcd_pixel(x1, y1, color);
 818              		.loc 1 413 0
 819 0062 009A     		ldr	r2, [sp]
 820 0064 2946     		mov	r1, r5
 821 0066 2046     		mov	r0, r4
 822 0068 FFF7FEFF 		bl	glcd_pixel
 823              	.LVL144:
 414:ks0108.c      **** 
 415:ks0108.c      ****          if(P < 0)
 824              		.loc 1 415 0
ARM GAS  C:\Users\USUARIO\AppData\Local\Temp\ccywmqVe.s 			page 23


 825 006c 002F     		cmp	r7, #0
 826 006e 05DA     		bge	.L59
 416:ks0108.c      ****          {
 417:ks0108.c      ****             P  += dy;
 827              		.loc 1 417 0
 828 0070 019B     		ldr	r3, [sp, #4]
 829 0072 1F44     		add	r7, r7, r3
 830              	.LVL145:
 831 0074 3FB2     		sxth	r7, r7
 832              	.LVL146:
 418:ks0108.c      ****             x1 += addx;
 833              		.loc 1 418 0
 834 0076 4C44     		add	r4, r4, r9
 835              	.LVL147:
 836 0078 E4B2     		uxtb	r4, r4
 837              	.LVL148:
 838 007a 05E0     		b	.L60
 839              	.L59:
 419:ks0108.c      ****          }
 420:ks0108.c      ****          else
 421:ks0108.c      ****          {
 422:ks0108.c      ****             P  += diff;
 840              		.loc 1 422 0
 841 007c 5F44     		add	r7, r7, fp
 842              	.LVL149:
 843 007e 3FB2     		sxth	r7, r7
 844              	.LVL150:
 423:ks0108.c      ****             x1 += addx;
 845              		.loc 1 423 0
 846 0080 4C44     		add	r4, r4, r9
 847              	.LVL151:
 848 0082 E4B2     		uxtb	r4, r4
 849              	.LVL152:
 424:ks0108.c      ****             y1 += addy;
 850              		.loc 1 424 0
 851 0084 5544     		add	r5, r5, r10
 852              	.LVL153:
 853 0086 EDB2     		uxtb	r5, r5
 854              	.LVL154:
 855              	.L60:
 411:ks0108.c      ****       {
 856              		.loc 1 411 0
 857 0088 0136     		adds	r6, r6, #1
 858              	.LVL155:
 859 008a F6B2     		uxtb	r6, r6
 860              	.LVL156:
 861              	.L58:
 411:ks0108.c      ****       {
 862              		.loc 1 411 0 is_stmt 0 discriminator 1
 863 008c B3B2     		uxth	r3, r6
 864 008e 9845     		cmp	r8, r3
 865 0090 E7D2     		bcs	.L61
 866 0092 28E0     		b	.L54
 867              	.LVL157:
 868              	.L57:
 425:ks0108.c      ****          }
 426:ks0108.c      ****       }
ARM GAS  C:\Users\USUARIO\AppData\Local\Temp\ccywmqVe.s 			page 24


 427:ks0108.c      ****    }
 428:ks0108.c      ****    else
 429:ks0108.c      ****    {
 430:ks0108.c      ****       dx *= 2;
 869              		.loc 1 430 0 is_stmt 1
 870 0094 4FEA4808 		lsl	r8, r8, #1
 871              	.LVL158:
 872 0098 1FFA88F3 		uxth	r3, r8
 873              	.LVL159:
 874 009c 0193     		str	r3, [sp, #4]
 875              	.LVL160:
 431:ks0108.c      ****       P = dx - dy;
 876              		.loc 1 431 0
 877 009e CBEB0308 		rsb	r8, fp, r3
 878 00a2 1FFA88F8 		uxth	r8, r8
 879 00a6 0FFA88F7 		sxth	r7, r8
 880              	.LVL161:
 432:ks0108.c      ****       diff = P - dy;
 881              		.loc 1 432 0
 882 00aa CBEB0808 		rsb	r8, fp, r8
 883 00ae 1FFA88F8 		uxth	r8, r8
 884              	.LVL162:
 396:ks0108.c      ****    dx = x2 - x1;
 885              		.loc 1 396 0
 886 00b2 0026     		movs	r6, #0
 433:ks0108.c      **** 
 434:ks0108.c      ****       for(; i<=dy; ++i)
 887              		.loc 1 434 0
 888 00b4 14E0     		b	.L63
 889              	.LVL163:
 890              	.L66:
 435:ks0108.c      ****       {
 436:ks0108.c      ****          glcd_pixel(x1, y1, color);
 891              		.loc 1 436 0
 892 00b6 009A     		ldr	r2, [sp]
 893 00b8 2946     		mov	r1, r5
 894 00ba 2046     		mov	r0, r4
 895 00bc FFF7FEFF 		bl	glcd_pixel
 896              	.LVL164:
 437:ks0108.c      **** 
 438:ks0108.c      ****          if(P < 0)
 897              		.loc 1 438 0
 898 00c0 002F     		cmp	r7, #0
 899 00c2 05DA     		bge	.L64
 439:ks0108.c      ****          {
 440:ks0108.c      ****             P  += dx;
 900              		.loc 1 440 0
 901 00c4 019B     		ldr	r3, [sp, #4]
 902 00c6 1F44     		add	r7, r7, r3
 903              	.LVL165:
 904 00c8 3FB2     		sxth	r7, r7
 905              	.LVL166:
 441:ks0108.c      ****             y1 += addy;
 906              		.loc 1 441 0
 907 00ca 5544     		add	r5, r5, r10
 908              	.LVL167:
 909 00cc EDB2     		uxtb	r5, r5
ARM GAS  C:\Users\USUARIO\AppData\Local\Temp\ccywmqVe.s 			page 25


 910              	.LVL168:
 911 00ce 05E0     		b	.L65
 912              	.L64:
 442:ks0108.c      ****          }
 443:ks0108.c      ****          else
 444:ks0108.c      ****          {
 445:ks0108.c      ****             P  += diff;
 913              		.loc 1 445 0
 914 00d0 4744     		add	r7, r7, r8
 915              	.LVL169:
 916 00d2 3FB2     		sxth	r7, r7
 917              	.LVL170:
 446:ks0108.c      ****             x1 += addx;
 918              		.loc 1 446 0
 919 00d4 4C44     		add	r4, r4, r9
 920              	.LVL171:
 921 00d6 E4B2     		uxtb	r4, r4
 922              	.LVL172:
 447:ks0108.c      ****             y1 += addy;
 923              		.loc 1 447 0
 924 00d8 5544     		add	r5, r5, r10
 925              	.LVL173:
 926 00da EDB2     		uxtb	r5, r5
 927              	.LVL174:
 928              	.L65:
 434:ks0108.c      ****       {
 929              		.loc 1 434 0
 930 00dc 0136     		adds	r6, r6, #1
 931              	.LVL175:
 932 00de F6B2     		uxtb	r6, r6
 933              	.LVL176:
 934              	.L63:
 434:ks0108.c      ****       {
 935              		.loc 1 434 0 is_stmt 0 discriminator 1
 936 00e0 B3B2     		uxth	r3, r6
 937 00e2 9B45     		cmp	fp, r3
 938 00e4 E7D2     		bcs	.L66
 939              	.LVL177:
 940              	.L54:
 448:ks0108.c      ****          }
 449:ks0108.c      ****       }
 450:ks0108.c      ****    }
 451:ks0108.c      **** }
 941              		.loc 1 451 0 is_stmt 1
 942 00e6 03B0     		add	sp, sp, #12
 943              		.cfi_def_cfa_offset 36
 944              		@ sp needed
 945 00e8 BDE8F08F 		pop	{r4, r5, r6, r7, r8, r9, r10, fp, pc}
 946              		.cfi_endproc
 947              	.LFE72:
 948              		.size	glcd_line, .-glcd_line
 949              		.section	.text.glcd_rect,"ax",%progbits
 950              		.align	2
 951              		.global	glcd_rect
 952              		.thumb
 953              		.thumb_func
 954              		.type	glcd_rect, %function
ARM GAS  C:\Users\USUARIO\AppData\Local\Temp\ccywmqVe.s 			page 26


 955              	glcd_rect:
 956              	.LFB73:
 452:ks0108.c      **** 
 453:ks0108.c      **** void glcd_rect(uint8 x1, uint8 y1, uint8 x2, uint8 y2, short fill, short color)
 454:ks0108.c      **** {
 957              		.loc 1 454 0
 958              		.cfi_startproc
 959              		@ args = 8, pretend = 0, frame = 0
 960              		@ frame_needed = 0, uses_anonymous_args = 0
 961              	.LVL178:
 962 0000 2DE9F043 		push	{r4, r5, r6, r7, r8, r9, lr}
 963              		.cfi_def_cfa_offset 28
 964              		.cfi_offset 4, -28
 965              		.cfi_offset 5, -24
 966              		.cfi_offset 6, -20
 967              		.cfi_offset 7, -16
 968              		.cfi_offset 8, -12
 969              		.cfi_offset 9, -8
 970              		.cfi_offset 14, -4
 971 0004 83B0     		sub	sp, sp, #12
 972              		.cfi_def_cfa_offset 40
 973 0006 0546     		mov	r5, r0
 974 0008 0E46     		mov	r6, r1
 975 000a 9046     		mov	r8, r2
 976 000c 9946     		mov	r9, r3
 977 000e BDF92830 		ldrsh	r3, [sp, #40]
 978              	.LVL179:
 979 0012 BDF92C70 		ldrsh	r7, [sp, #44]
 455:ks0108.c      ****    if(fill)
 980              		.loc 1 455 0
 981 0016 CBB1     		cbz	r3, .L71
 982              	.LBB2:
 456:ks0108.c      ****    {
 457:ks0108.c      ****       uint8  i, xmin, xmax, ymin, ymax;      
 458:ks0108.c      **** 
 459:ks0108.c      ****       if(x1 < x2)                            //  Find x min and max
 983              		.loc 1 459 0
 984 0018 9042     		cmp	r0, r2
 985 001a 01D3     		bcc	.L72
 460:ks0108.c      ****       {
 461:ks0108.c      ****          xmin = x1;
 462:ks0108.c      ****          xmax = x2;
 463:ks0108.c      ****       }
 464:ks0108.c      ****       else
 465:ks0108.c      ****       {
 466:ks0108.c      ****          xmin = x2;
 986              		.loc 1 466 0
 987 001c 1546     		mov	r5, r2
 467:ks0108.c      ****          xmax = x1;
 988              		.loc 1 467 0
 989 001e 8046     		mov	r8, r0
 990              	.L72:
 991              	.LVL180:
 468:ks0108.c      ****       }
 469:ks0108.c      **** 
 470:ks0108.c      ****       if(y1 < y2)                            // Find the y min and max
 992              		.loc 1 470 0
ARM GAS  C:\Users\USUARIO\AppData\Local\Temp\ccywmqVe.s 			page 27


 993 0020 4E45     		cmp	r6, r9
 994 0022 10D2     		bcs	.L74
 995 0024 4B46     		mov	r3, r9
 471:ks0108.c      ****       {
 472:ks0108.c      ****          ymin = y1;
 996              		.loc 1 472 0
 997 0026 B146     		mov	r9, r6
 473:ks0108.c      ****          ymax = y2;
 998              		.loc 1 473 0
 999 0028 1E46     		mov	r6, r3
 1000 002a 0CE0     		b	.L74
 1001              	.LVL181:
 1002              	.L75:
 474:ks0108.c      ****       }
 475:ks0108.c      ****       else
 476:ks0108.c      ****       {
 477:ks0108.c      ****          ymin = y2;
 478:ks0108.c      ****          ymax = y1;
 479:ks0108.c      ****       }
 480:ks0108.c      **** 
 481:ks0108.c      ****       for(; xmin <= xmax; ++xmin)
 482:ks0108.c      ****       {
 483:ks0108.c      ****          for(i=ymin; i<=ymax; ++i)
 484:ks0108.c      ****          {
 485:ks0108.c      ****             glcd_pixel(xmin, i, color);
 1003              		.loc 1 485 0 discriminator 3
 1004 002c 3A46     		mov	r2, r7
 1005 002e 2146     		mov	r1, r4
 1006 0030 2846     		mov	r0, r5
 1007 0032 FFF7FEFF 		bl	glcd_pixel
 1008              	.LVL182:
 483:ks0108.c      ****          {
 1009              		.loc 1 483 0 discriminator 3
 1010 0036 0134     		adds	r4, r4, #1
 1011              	.LVL183:
 1012 0038 E4B2     		uxtb	r4, r4
 1013              	.LVL184:
 1014 003a 00E0     		b	.L76
 1015              	.LVL185:
 1016              	.L79:
 1017 003c 4C46     		mov	r4, r9
 1018              	.L76:
 1019              	.LVL186:
 483:ks0108.c      ****          {
 1020              		.loc 1 483 0 is_stmt 0 discriminator 1
 1021 003e B442     		cmp	r4, r6
 1022 0040 F4D9     		bls	.L75
 481:ks0108.c      ****       {
 1023              		.loc 1 481 0 is_stmt 1
 1024 0042 0135     		adds	r5, r5, #1
 1025              	.LVL187:
 1026 0044 EDB2     		uxtb	r5, r5
 1027              	.LVL188:
 1028              	.L74:
 481:ks0108.c      ****       {
 1029              		.loc 1 481 0 is_stmt 0 discriminator 1
 1030 0046 4545     		cmp	r5, r8
ARM GAS  C:\Users\USUARIO\AppData\Local\Temp\ccywmqVe.s 			page 28


 1031 0048 F8D9     		bls	.L79
 1032 004a 18E0     		b	.L70
 1033              	.LVL189:
 1034              	.L71:
 1035              	.LBE2:
 486:ks0108.c      ****          }
 487:ks0108.c      ****       }
 488:ks0108.c      ****    }
 489:ks0108.c      ****    else
 490:ks0108.c      ****    {
 491:ks0108.c      ****       glcd_line(x1, y1, x2, y1, color);      // Draw the 4 sides
 1036              		.loc 1 491 0 is_stmt 1
 1037 004c 0097     		str	r7, [sp]
 1038 004e 0B46     		mov	r3, r1
 1039 0050 FFF7FEFF 		bl	glcd_line
 1040              	.LVL190:
 492:ks0108.c      ****       glcd_line(x1, y2, x2, y2, color);
 1041              		.loc 1 492 0
 1042 0054 0097     		str	r7, [sp]
 1043 0056 4B46     		mov	r3, r9
 1044 0058 4246     		mov	r2, r8
 1045 005a 4946     		mov	r1, r9
 1046 005c 2846     		mov	r0, r5
 1047 005e FFF7FEFF 		bl	glcd_line
 1048              	.LVL191:
 493:ks0108.c      ****       glcd_line(x1, y1, x1, y2, color);
 1049              		.loc 1 493 0
 1050 0062 0097     		str	r7, [sp]
 1051 0064 4B46     		mov	r3, r9
 1052 0066 2A46     		mov	r2, r5
 1053 0068 3146     		mov	r1, r6
 1054 006a 2846     		mov	r0, r5
 1055 006c FFF7FEFF 		bl	glcd_line
 1056              	.LVL192:
 494:ks0108.c      ****       glcd_line(x2, y1, x2, y2, color);
 1057              		.loc 1 494 0
 1058 0070 0097     		str	r7, [sp]
 1059 0072 4B46     		mov	r3, r9
 1060 0074 4246     		mov	r2, r8
 1061 0076 3146     		mov	r1, r6
 1062 0078 4046     		mov	r0, r8
 1063 007a FFF7FEFF 		bl	glcd_line
 1064              	.LVL193:
 1065              	.L70:
 495:ks0108.c      ****    }
 496:ks0108.c      **** }
 1066              		.loc 1 496 0
 1067 007e 03B0     		add	sp, sp, #12
 1068              		.cfi_def_cfa_offset 28
 1069              		@ sp needed
 1070 0080 BDE8F083 		pop	{r4, r5, r6, r7, r8, r9, pc}
 1071              		.cfi_endproc
 1072              	.LFE73:
 1073              		.size	glcd_rect, .-glcd_rect
 1074              		.section	.text.glcd_bar,"ax",%progbits
 1075              		.align	2
 1076              		.global	glcd_bar
ARM GAS  C:\Users\USUARIO\AppData\Local\Temp\ccywmqVe.s 			page 29


 1077              		.thumb
 1078              		.thumb_func
 1079              		.type	glcd_bar, %function
 1080              	glcd_bar:
 1081              	.LFB74:
 497:ks0108.c      **** 
 498:ks0108.c      **** void glcd_bar(uint8 x1, uint8 y1, uint8 x2, uint8 y2, uint8 width, short color)
 499:ks0108.c      **** {
 1082              		.loc 1 499 0
 1083              		.cfi_startproc
 1084              		@ args = 8, pretend = 0, frame = 32
 1085              		@ frame_needed = 0, uses_anonymous_args = 0
 1086              	.LVL194:
 1087 0000 2DE9F04F 		push	{r4, r5, r6, r7, r8, r9, r10, fp, lr}
 1088              		.cfi_def_cfa_offset 36
 1089              		.cfi_offset 4, -36
 1090              		.cfi_offset 5, -32
 1091              		.cfi_offset 6, -28
 1092              		.cfi_offset 7, -24
 1093              		.cfi_offset 8, -20
 1094              		.cfi_offset 9, -16
 1095              		.cfi_offset 10, -12
 1096              		.cfi_offset 11, -8
 1097              		.cfi_offset 14, -4
 1098 0004 89B0     		sub	sp, sp, #36
 1099              		.cfi_def_cfa_offset 72
 1100 0006 0746     		mov	r7, r0
 1101 0008 8846     		mov	r8, r1
 1102 000a 9646     		mov	lr, r2
 1103 000c 0192     		str	r2, [sp, #4]
 1104 000e 9946     		mov	r9, r3
 1105 0010 9DF84860 		ldrb	r6, [sp, #72]	@ zero_extendqisi2
 1106 0014 BDF94C30 		ldrsh	r3, [sp, #76]
 1107              	.LVL195:
 1108 0018 0393     		str	r3, [sp, #12]
 1109              	.LVL196:
 500:ks0108.c      ****    uint8         half_width;
 501:ks0108.c      ****    uint16 dy, dx;
 502:ks0108.c      ****    uint8  addx=1, addy=1, j;
 503:ks0108.c      ****    uint16 P, diff, c1, c2;
 504:ks0108.c      **** 
 505:ks0108.c      ****    uint8 i=0;
 506:ks0108.c      ****    dx = (x2 - x1);
 1110              		.loc 1 506 0
 1111 001a 91B2     		uxth	r1, r2
 1112              	.LVL197:
 1113 001c 83B2     		uxth	r3, r0
 1114 001e CA1A     		subs	r2, r1, r3
 1115              	.LVL198:
 1116 0020 92B2     		uxth	r2, r2
 1117 0022 0692     		str	r2, [sp, #24]
 1118              	.LVL199:
 507:ks0108.c      ****    dy = (y2 - y1);
 1119              		.loc 1 507 0
 1120 0024 1FFA89F2 		uxth	r2, r9
 1121 0028 1FFA88F0 		uxth	r0, r8
 1122              	.LVL200:
ARM GAS  C:\Users\USUARIO\AppData\Local\Temp\ccywmqVe.s 			page 30


 1123 002c 141A     		subs	r4, r2, r0
 1124 002e A5B2     		uxth	r5, r4
 1125 0030 2C46     		mov	r4, r5
 1126              	.LVL201:
 508:ks0108.c      **** 
 509:ks0108.c      **** 
 510:ks0108.c      ****    half_width = width/2;
 1127              		.loc 1 510 0
 1128 0032 7508     		lsrs	r5, r6, #1
 1129              	.LVL202:
 511:ks0108.c      ****    c1 = -(dx*x1 + dy*y1);
 1130              		.loc 1 511 0
 1131 0034 0794     		str	r4, [sp, #28]
 1132 0036 04FB00F0 		mul	r0, r4, r0
 1133 003a 069C     		ldr	r4, [sp, #24]
 1134              	.LVL203:
 1135 003c 04FB0303 		mla	r3, r4, r3, r0
 1136 0040 5B42     		negs	r3, r3
 1137 0042 9BB2     		uxth	r3, r3
 1138              	.LVL204:
 512:ks0108.c      ****    c2 = -(dx*x2 + dy*y2);
 1139              		.loc 1 512 0
 1140 0044 0798     		ldr	r0, [sp, #28]
 1141 0046 00FB02F2 		mul	r2, r0, r2
 1142 004a 04FB0122 		mla	r2, r4, r1, r2
 1143 004e 5242     		negs	r2, r2
 1144 0050 92B2     		uxth	r2, r2
 1145 0052 0092     		str	r2, [sp]
 1146              	.LVL205:
 513:ks0108.c      **** 
 514:ks0108.c      ****    if(x1 > x2)
 1147              		.loc 1 514 0
 1148 0054 BE45     		cmp	lr, r7
 1149 0056 04D3     		bcc	.L95
 511:ks0108.c      ****    c2 = -(dx*x2 + dy*y2);
 1150              		.loc 1 511 0
 1151 0058 0093     		str	r3, [sp]
 512:ks0108.c      ****    c2 = -(dx*x2 + dy*y2);
 1152              		.loc 1 512 0
 1153 005a 1346     		mov	r3, r2
 1154              	.LVL206:
 502:ks0108.c      ****    uint16 P, diff, c1, c2;
 1155              		.loc 1 502 0
 1156 005c 0122     		movs	r2, #1
 1157              	.LVL207:
 1158 005e 0492     		str	r2, [sp, #16]
 1159 0060 01E0     		b	.L82
 1160              	.LVL208:
 1161              	.L95:
 1162              	.LBB3:
 515:ks0108.c      ****    {
 516:ks0108.c      ****       uint16 temp;
 517:ks0108.c      ****       temp = c1;
 518:ks0108.c      ****       c1 = c2;
 519:ks0108.c      ****       c2 = temp;
 520:ks0108.c      ****       addx = -1;
 1163              		.loc 1 520 0
ARM GAS  C:\Users\USUARIO\AppData\Local\Temp\ccywmqVe.s 			page 31


 1164 0062 FF22     		movs	r2, #255
 1165              	.LVL209:
 1166 0064 0492     		str	r2, [sp, #16]
 1167              	.LVL210:
 1168              	.L82:
 1169              	.LBE3:
 521:ks0108.c      ****    }
 522:ks0108.c      ****    if(y1 > y2)
 1170              		.loc 1 522 0
 1171 0066 C145     		cmp	r9, r8
 1172 0068 03D3     		bcc	.L96
 1173 006a 0093     		str	r3, [sp]
 1174              	.LVL211:
 502:ks0108.c      ****    uint16 P, diff, c1, c2;
 1175              		.loc 1 502 0
 1176 006c 0123     		movs	r3, #1
 1177              	.LVL212:
 1178 006e 0593     		str	r3, [sp, #20]
 1179 0070 01E0     		b	.L83
 1180              	.LVL213:
 1181              	.L96:
 1182              	.LBB4:
 523:ks0108.c      ****    {
 524:ks0108.c      ****       uint16 temp;
 525:ks0108.c      ****       temp = c1;
 526:ks0108.c      ****       c1 = c2;
 527:ks0108.c      ****       c2 = temp;
 528:ks0108.c      ****       addy = -1;
 1183              		.loc 1 528 0
 1184 0072 FF23     		movs	r3, #255
 1185              	.LVL214:
 1186 0074 0593     		str	r3, [sp, #20]
 1187              	.LVL215:
 1188              	.L83:
 1189              	.LBE4:
 529:ks0108.c      ****    }
 530:ks0108.c      **** 
 531:ks0108.c      ****    if(dx >= dy)
 1190              		.loc 1 531 0
 1191 0076 069B     		ldr	r3, [sp, #24]
 1192 0078 079A     		ldr	r2, [sp, #28]
 1193 007a 9342     		cmp	r3, r2
 1194 007c 2FD2     		bcs	.L97
 1195 007e C346     		mov	fp, r8
 1196 0080 BA46     		mov	r10, r7
 1197 0082 0023     		movs	r3, #0
 1198 0084 0293     		str	r3, [sp, #8]
 1199 0086 60E0     		b	.L85
 1200              	.LVL216:
 1201              	.L89:
 532:ks0108.c      ****    {
 533:ks0108.c      ****       P = 2*dy - dx;
 534:ks0108.c      ****       diff = P - dx;
 535:ks0108.c      **** 
 536:ks0108.c      ****       for(i=0; i<=dx; ++i)
 537:ks0108.c      ****       {
 538:ks0108.c      ****          for(j=-half_width; j<half_width+width%2; ++j)
ARM GAS  C:\Users\USUARIO\AppData\Local\Temp\ccywmqVe.s 			page 32


 1202              		.loc 1 538 0
 1203 0088 6C42     		negs	r4, r5
 1204 008a E4B2     		uxtb	r4, r4
 1205              	.LVL217:
 1206 008c 15E0     		b	.L86
 1207              	.L88:
 1208              	.LBB5:
 539:ks0108.c      ****          {
 540:ks0108.c      ****             uint8 temp;            
 541:ks0108.c      **** 
 542:ks0108.c      ****             temp = dx*x1+dy*(y1+j);    // Use more RAM to increase speed
 1209              		.loc 1 542 0
 1210 008e 0BEB0401 		add	r1, fp, r4
 1211 0092 C9B2     		uxtb	r1, r1
 1212 0094 019B     		ldr	r3, [sp, #4]
 1213 0096 DB1B     		subs	r3, r3, r7
 1214 0098 C8EB0902 		rsb	r2, r8, r9
 1215 009c 02FB01F2 		mul	r2, r2, r1
 1216 00a0 03FB0A23 		mla	r3, r3, r10, r2
 1217 00a4 DBB2     		uxtb	r3, r3
 1218              	.LVL218:
 543:ks0108.c      ****             if(temp+c1 >= 0 && temp+c2 <=0)
 1219              		.loc 1 543 0
 1220 00a6 009A     		ldr	r2, [sp]
 1221 00a8 1344     		add	r3, r3, r2
 1222              	.LVL219:
 1223 00aa 002B     		cmp	r3, #0
 1224 00ac 03DC     		bgt	.L87
 544:ks0108.c      ****                glcd_pixel(x1, y1+j, color);
 1225              		.loc 1 544 0
 1226 00ae 039A     		ldr	r2, [sp, #12]
 1227 00b0 5046     		mov	r0, r10
 1228 00b2 FFF7FEFF 		bl	glcd_pixel
 1229              	.LVL220:
 1230              	.L87:
 1231              	.LBE5:
 538:ks0108.c      ****          {
 1232              		.loc 1 538 0 discriminator 2
 1233 00b6 0134     		adds	r4, r4, #1
 1234              	.LVL221:
 1235 00b8 E4B2     		uxtb	r4, r4
 1236              	.LVL222:
 1237              	.L86:
 538:ks0108.c      ****          {
 1238              		.loc 1 538 0 is_stmt 0 discriminator 1
 1239 00ba 06F00103 		and	r3, r6, #1
 1240 00be 2B44     		add	r3, r3, r5
 1241 00c0 9C42     		cmp	r4, r3
 1242 00c2 E4DB     		blt	.L88
 545:ks0108.c      ****          }
 546:ks0108.c      ****          if(P < 0)
 547:ks0108.c      ****          {
 548:ks0108.c      ****             P  += 2*dy;
 549:ks0108.c      ****             x1 += addx;
 550:ks0108.c      ****          }
 551:ks0108.c      ****          else
 552:ks0108.c      ****          {
ARM GAS  C:\Users\USUARIO\AppData\Local\Temp\ccywmqVe.s 			page 33


 553:ks0108.c      ****             P  += diff;
 554:ks0108.c      ****             x1 += addx;
 1243              		.loc 1 554 0 is_stmt 1
 1244 00c4 049B     		ldr	r3, [sp, #16]
 1245 00c6 9A44     		add	r10, r10, r3
 1246              	.LVL223:
 1247 00c8 5FFA8AFA 		uxtb	r10, r10
 1248              	.LVL224:
 555:ks0108.c      ****             y1 += addy;
 1249              		.loc 1 555 0
 1250 00cc 059B     		ldr	r3, [sp, #20]
 1251 00ce 9B44     		add	fp, fp, r3
 1252              	.LVL225:
 1253 00d0 5FFA8BFB 		uxtb	fp, fp
 1254              	.LVL226:
 536:ks0108.c      ****       {
 1255              		.loc 1 536 0
 1256 00d4 029B     		ldr	r3, [sp, #8]
 1257 00d6 0133     		adds	r3, r3, #1
 1258 00d8 DBB2     		uxtb	r3, r3
 1259 00da 0293     		str	r3, [sp, #8]
 1260              	.LVL227:
 1261 00dc 03E0     		b	.L84
 1262              	.LVL228:
 1263              	.L97:
 1264 00de C346     		mov	fp, r8
 1265 00e0 BA46     		mov	r10, r7
 1266 00e2 0023     		movs	r3, #0
 1267 00e4 0293     		str	r3, [sp, #8]
 1268              	.LVL229:
 1269              	.L84:
 536:ks0108.c      ****       {
 1270              		.loc 1 536 0 is_stmt 0 discriminator 1
 1271 00e6 BDF80830 		ldrh	r3, [sp, #8]
 1272 00ea 069A     		ldr	r2, [sp, #24]
 1273 00ec 9A42     		cmp	r2, r3
 1274 00ee CBD2     		bcs	.L89
 1275 00f0 30E0     		b	.L81
 1276              	.L94:
 556:ks0108.c      ****          }
 557:ks0108.c      ****       }
 558:ks0108.c      ****    }
 559:ks0108.c      ****    else
 560:ks0108.c      ****    {
 561:ks0108.c      ****       P = 2*dx - dy;
 562:ks0108.c      ****       diff = P - dy;
 563:ks0108.c      **** 
 564:ks0108.c      ****       for(i=0; i<=dy; ++i)
 565:ks0108.c      ****       {
 566:ks0108.c      ****          if(P < 0)
 567:ks0108.c      ****          {
 568:ks0108.c      ****             P  += 2*dx;
 569:ks0108.c      ****             y1 += addy;
 570:ks0108.c      ****          }
 571:ks0108.c      ****          else
 572:ks0108.c      ****          {
 573:ks0108.c      ****             P  += diff;
ARM GAS  C:\Users\USUARIO\AppData\Local\Temp\ccywmqVe.s 			page 34


 574:ks0108.c      ****             x1 += addx;
 1277              		.loc 1 574 0 is_stmt 1
 1278 00f2 049B     		ldr	r3, [sp, #16]
 1279 00f4 9A44     		add	r10, r10, r3
 1280              	.LVL230:
 1281 00f6 5FFA8AFA 		uxtb	r10, r10
 1282              	.LVL231:
 575:ks0108.c      ****             y1 += addy;
 1283              		.loc 1 575 0
 1284 00fa 059B     		ldr	r3, [sp, #20]
 1285 00fc 9B44     		add	fp, fp, r3
 1286              	.LVL232:
 1287 00fe 5FFA8BFB 		uxtb	fp, fp
 1288              	.LVL233:
 576:ks0108.c      ****          }
 577:ks0108.c      ****          for(j=-half_width; j<half_width+width%2; ++j)
 1289              		.loc 1 577 0
 1290 0102 6C42     		negs	r4, r5
 1291 0104 E4B2     		uxtb	r4, r4
 1292              	.LVL234:
 1293 0106 17E0     		b	.L91
 1294              	.L93:
 1295              	.LBB6:
 578:ks0108.c      ****          {
 579:ks0108.c      ****             uint8 temp;            
 580:ks0108.c      **** 
 581:ks0108.c      ****             temp = dx*x1+dy*(y1+j);    // Use more RAM to increase speed
 1296              		.loc 1 581 0
 1297 0108 C8EB0903 		rsb	r3, r8, r9
 1298 010c 04EB0B02 		add	r2, r4, fp
 1299 0110 0199     		ldr	r1, [sp, #4]
 1300 0112 C91B     		subs	r1, r1, r7
 1301 0114 01FB0AF1 		mul	r1, r1, r10
 1302 0118 03FB0213 		mla	r3, r3, r2, r1
 1303 011c DBB2     		uxtb	r3, r3
 1304              	.LVL235:
 582:ks0108.c      ****             if(temp+c1 >= 0 && temp+c2 <=0)
 1305              		.loc 1 582 0
 1306 011e 009A     		ldr	r2, [sp]
 1307 0120 1344     		add	r3, r3, r2
 1308              	.LVL236:
 1309 0122 002B     		cmp	r3, #0
 1310 0124 06DC     		bgt	.L92
 583:ks0108.c      ****                glcd_pixel(x1+j, y1, color);
 1311              		.loc 1 583 0
 1312 0126 04EB0A00 		add	r0, r4, r10
 1313 012a 039A     		ldr	r2, [sp, #12]
 1314 012c 5946     		mov	r1, fp
 1315              	.LVL237:
 1316 012e C0B2     		uxtb	r0, r0
 1317 0130 FFF7FEFF 		bl	glcd_pixel
 1318              	.LVL238:
 1319              	.L92:
 1320              	.LBE6:
 577:ks0108.c      ****          {
 1321              		.loc 1 577 0 discriminator 2
 1322 0134 0134     		adds	r4, r4, #1
ARM GAS  C:\Users\USUARIO\AppData\Local\Temp\ccywmqVe.s 			page 35


 1323              	.LVL239:
 1324 0136 E4B2     		uxtb	r4, r4
 1325              	.LVL240:
 1326              	.L91:
 577:ks0108.c      ****          {
 1327              		.loc 1 577 0 is_stmt 0 discriminator 1
 1328 0138 06F00103 		and	r3, r6, #1
 1329 013c 2B44     		add	r3, r3, r5
 1330 013e 9C42     		cmp	r4, r3
 1331 0140 E2DB     		blt	.L93
 564:ks0108.c      ****       {
 1332              		.loc 1 564 0 is_stmt 1 discriminator 2
 1333 0142 029B     		ldr	r3, [sp, #8]
 1334 0144 0133     		adds	r3, r3, #1
 1335 0146 DBB2     		uxtb	r3, r3
 1336 0148 0293     		str	r3, [sp, #8]
 1337              	.LVL241:
 1338              	.L85:
 564:ks0108.c      ****       {
 1339              		.loc 1 564 0 is_stmt 0 discriminator 1
 1340 014a BDF80830 		ldrh	r3, [sp, #8]
 1341 014e 079A     		ldr	r2, [sp, #28]
 1342 0150 9A42     		cmp	r2, r3
 1343 0152 CED2     		bcs	.L94
 1344              	.L81:
 584:ks0108.c      ****          }
 585:ks0108.c      ****       }
 586:ks0108.c      ****    }
 587:ks0108.c      **** }
 1345              		.loc 1 587 0 is_stmt 1
 1346 0154 09B0     		add	sp, sp, #36
 1347              		.cfi_def_cfa_offset 36
 1348              	.LVL242:
 1349              		@ sp needed
 1350 0156 BDE8F08F 		pop	{r4, r5, r6, r7, r8, r9, r10, fp, pc}
 1351              		.cfi_endproc
 1352              	.LFE74:
 1353              		.size	glcd_bar, .-glcd_bar
 1354 015a 00BF     		.section	.text.glcd_circle,"ax",%progbits
 1355              		.align	2
 1356              		.global	glcd_circle
 1357              		.thumb
 1358              		.thumb_func
 1359              		.type	glcd_circle, %function
 1360              	glcd_circle:
 1361              	.LFB75:
 588:ks0108.c      **** 
 589:ks0108.c      **** void glcd_circle(uint8 x, uint8 y, uint8 radius, short fill, short color)
 590:ks0108.c      **** {
 1362              		.loc 1 590 0
 1363              		.cfi_startproc
 1364              		@ args = 4, pretend = 0, frame = 16
 1365              		@ frame_needed = 0, uses_anonymous_args = 0
 1366              	.LVL243:
 1367 0000 2DE9F04F 		push	{r4, r5, r6, r7, r8, r9, r10, fp, lr}
 1368              		.cfi_def_cfa_offset 36
 1369              		.cfi_offset 4, -36
ARM GAS  C:\Users\USUARIO\AppData\Local\Temp\ccywmqVe.s 			page 36


 1370              		.cfi_offset 5, -32
 1371              		.cfi_offset 6, -28
 1372              		.cfi_offset 7, -24
 1373              		.cfi_offset 8, -20
 1374              		.cfi_offset 9, -16
 1375              		.cfi_offset 10, -12
 1376              		.cfi_offset 11, -8
 1377              		.cfi_offset 14, -4
 1378 0004 87B0     		sub	sp, sp, #28
 1379              		.cfi_def_cfa_offset 64
 1380 0006 0646     		mov	r6, r0
 1381 0008 8B46     		mov	fp, r1
 1382 000a 1546     		mov	r5, r2
 1383 000c 0393     		str	r3, [sp, #12]
 1384 000e BDF94090 		ldrsh	r9, [sp, #64]
 1385              	.LVL244:
 591:ks0108.c      ****    uint8  a, b, P;
 592:ks0108.c      **** 
 593:ks0108.c      ****    a = 0;
 1386              		.loc 1 593 0
 1387 0012 0024     		movs	r4, #0
 1388 0014 4F46     		mov	r7, r9
 1389              	.LVL245:
 1390              	.L102:
 594:ks0108.c      ****    b = radius;
 595:ks0108.c      ****    P = 1 - radius;
 596:ks0108.c      **** 
 597:ks0108.c      ****    do
 598:ks0108.c      ****    {
 599:ks0108.c      ****       if(fill)
 1391              		.loc 1 599 0
 1392 0016 039B     		ldr	r3, [sp, #12]
 1393 0018 A3B3     		cbz	r3, .L100
 600:ks0108.c      ****       {
 601:ks0108.c      ****          glcd_line(x-a, y+b, x+a, y+b, color);
 1394              		.loc 1 601 0
 1395 001a C4EB0608 		rsb	r8, r4, r6
 1396 001e 5FFA88F8 		uxtb	r8, r8
 1397 0022 04EB0609 		add	r9, r4, r6
 1398 0026 5FFA89F9 		uxtb	r9, r9
 1399 002a 05EB0B01 		add	r1, r5, fp
 1400 002e C9B2     		uxtb	r1, r1
 1401 0030 0097     		str	r7, [sp]
 1402 0032 0B46     		mov	r3, r1
 1403 0034 4A46     		mov	r2, r9
 1404 0036 4046     		mov	r0, r8
 1405 0038 FFF7FEFF 		bl	glcd_line
 1406              	.LVL246:
 602:ks0108.c      ****          glcd_line(x-a, y-b, x+a, y-b, color);
 1407              		.loc 1 602 0
 1408 003c C5EB0B01 		rsb	r1, r5, fp
 1409 0040 C9B2     		uxtb	r1, r1
 1410 0042 0097     		str	r7, [sp]
 1411 0044 0B46     		mov	r3, r1
 1412 0046 4A46     		mov	r2, r9
 1413 0048 4046     		mov	r0, r8
 1414 004a FFF7FEFF 		bl	glcd_line
ARM GAS  C:\Users\USUARIO\AppData\Local\Temp\ccywmqVe.s 			page 37


 1415              	.LVL247:
 603:ks0108.c      ****          glcd_line(x-b, y+a, x+b, y+a, color);
 1416              		.loc 1 603 0
 1417 004e C5EB0608 		rsb	r8, r5, r6
 1418 0052 5FFA88F8 		uxtb	r8, r8
 1419 0056 05EB0609 		add	r9, r5, r6
 1420 005a 5FFA89F9 		uxtb	r9, r9
 1421 005e 04EB0B01 		add	r1, r4, fp
 1422 0062 C9B2     		uxtb	r1, r1
 1423 0064 0097     		str	r7, [sp]
 1424 0066 0B46     		mov	r3, r1
 1425 0068 4A46     		mov	r2, r9
 1426 006a 4046     		mov	r0, r8
 1427 006c FFF7FEFF 		bl	glcd_line
 1428              	.LVL248:
 604:ks0108.c      ****          glcd_line(x-b, y-a, x+b, y-a, color);
 1429              		.loc 1 604 0
 1430 0070 C4EB0B01 		rsb	r1, r4, fp
 1431 0074 C9B2     		uxtb	r1, r1
 1432 0076 0097     		str	r7, [sp]
 1433 0078 0B46     		mov	r3, r1
 1434 007a 4A46     		mov	r2, r9
 1435 007c 4046     		mov	r0, r8
 1436 007e FFF7FEFF 		bl	glcd_line
 1437              	.LVL249:
 1438 0082 45E0     		b	.L101
 1439              	.L100:
 605:ks0108.c      ****       }
 606:ks0108.c      ****       else
 607:ks0108.c      ****       {
 608:ks0108.c      ****          glcd_pixel(a+x, b+y, color);
 1440              		.loc 1 608 0
 1441 0084 A319     		adds	r3, r4, r6
 1442 0086 DBB2     		uxtb	r3, r3
 1443 0088 05EB0B08 		add	r8, r5, fp
 1444 008c 5FFA88F8 		uxtb	r8, r8
 1445 0090 3A46     		mov	r2, r7
 1446 0092 4146     		mov	r1, r8
 1447 0094 0493     		str	r3, [sp, #16]
 1448 0096 1846     		mov	r0, r3
 1449 0098 FFF7FEFF 		bl	glcd_pixel
 1450              	.LVL250:
 609:ks0108.c      ****          glcd_pixel(b+x, a+y, color);
 1451              		.loc 1 609 0
 1452 009c 05EB060A 		add	r10, r5, r6
 1453 00a0 5FFA8AFA 		uxtb	r10, r10
 1454 00a4 04EB0B09 		add	r9, r4, fp
 1455 00a8 5FFA89F9 		uxtb	r9, r9
 1456 00ac 3A46     		mov	r2, r7
 1457 00ae 4946     		mov	r1, r9
 1458 00b0 5046     		mov	r0, r10
 1459 00b2 FFF7FEFF 		bl	glcd_pixel
 1460              	.LVL251:
 610:ks0108.c      ****          glcd_pixel(x-a, b+y, color);
 1461              		.loc 1 610 0
 1462 00b6 331B     		subs	r3, r6, r4
 1463 00b8 DAB2     		uxtb	r2, r3
ARM GAS  C:\Users\USUARIO\AppData\Local\Temp\ccywmqVe.s 			page 38


 1464 00ba 1046     		mov	r0, r2
 1465 00bc 3A46     		mov	r2, r7
 1466 00be 4146     		mov	r1, r8
 1467 00c0 0590     		str	r0, [sp, #20]
 1468 00c2 FFF7FEFF 		bl	glcd_pixel
 1469              	.LVL252:
 611:ks0108.c      ****          glcd_pixel(x-b, a+y, color);
 1470              		.loc 1 611 0
 1471 00c6 C5EB0608 		rsb	r8, r5, r6
 1472 00ca 5FFA88F8 		uxtb	r8, r8
 1473 00ce 3A46     		mov	r2, r7
 1474 00d0 4946     		mov	r1, r9
 1475 00d2 4046     		mov	r0, r8
 1476 00d4 FFF7FEFF 		bl	glcd_pixel
 1477              	.LVL253:
 612:ks0108.c      ****          glcd_pixel(b+x, y-a, color);
 1478              		.loc 1 612 0
 1479 00d8 C4EB0B09 		rsb	r9, r4, fp
 1480 00dc 5FFA89F9 		uxtb	r9, r9
 1481 00e0 3A46     		mov	r2, r7
 1482 00e2 4946     		mov	r1, r9
 1483 00e4 5046     		mov	r0, r10
 1484 00e6 FFF7FEFF 		bl	glcd_pixel
 1485              	.LVL254:
 613:ks0108.c      ****          glcd_pixel(a+x, y-b, color);
 1486              		.loc 1 613 0
 1487 00ea C5EB0B0A 		rsb	r10, r5, fp
 1488 00ee 5FFA8AFA 		uxtb	r10, r10
 1489 00f2 3A46     		mov	r2, r7
 1490 00f4 5146     		mov	r1, r10
 1491 00f6 0498     		ldr	r0, [sp, #16]
 1492 00f8 FFF7FEFF 		bl	glcd_pixel
 1493              	.LVL255:
 614:ks0108.c      ****          glcd_pixel(x-a, y-b, color);
 1494              		.loc 1 614 0
 1495 00fc 3A46     		mov	r2, r7
 1496 00fe 5146     		mov	r1, r10
 1497 0100 0598     		ldr	r0, [sp, #20]
 1498 0102 FFF7FEFF 		bl	glcd_pixel
 1499              	.LVL256:
 615:ks0108.c      ****          glcd_pixel(x-b, y-a, color);
 1500              		.loc 1 615 0
 1501 0106 3A46     		mov	r2, r7
 1502 0108 4946     		mov	r1, r9
 1503 010a 4046     		mov	r0, r8
 1504 010c FFF7FEFF 		bl	glcd_pixel
 1505              	.LVL257:
 1506              	.L101:
 616:ks0108.c      ****       }
 617:ks0108.c      **** 
 618:ks0108.c      ****       if(P < 0)
 619:ks0108.c      ****          P += 3 + 2 * a++;
 620:ks0108.c      ****       else
 621:ks0108.c      ****          P += 5 + 2 * (a++ - b--);
 1507              		.loc 1 621 0
 1508 0110 0134     		adds	r4, r4, #1
 1509              	.LVL258:
ARM GAS  C:\Users\USUARIO\AppData\Local\Temp\ccywmqVe.s 			page 39


 1510 0112 E4B2     		uxtb	r4, r4
 1511              	.LVL259:
 1512 0114 013D     		subs	r5, r5, #1
 1513              	.LVL260:
 1514 0116 EDB2     		uxtb	r5, r5
 1515              	.LVL261:
 622:ks0108.c      ****     } while(a <= b);
 1516              		.loc 1 622 0
 1517 0118 AC42     		cmp	r4, r5
 1518 011a 7FF67CAF 		bls	.L102
 623:ks0108.c      **** }
 1519              		.loc 1 623 0
 1520 011e 07B0     		add	sp, sp, #28
 1521              		.cfi_def_cfa_offset 36
 1522              		@ sp needed
 1523 0120 BDE8F08F 		pop	{r4, r5, r6, r7, r8, r9, r10, fp, pc}
 1524              		.cfi_endproc
 1525              	.LFE75:
 1526              		.size	glcd_circle, .-glcd_circle
 1527              		.section	.text.glcd_text57,"ax",%progbits
 1528              		.align	2
 1529              		.global	glcd_text57
 1530              		.thumb
 1531              		.thumb_func
 1532              		.type	glcd_text57, %function
 1533              	glcd_text57:
 1534              	.LFB76:
 624:ks0108.c      **** 
 625:ks0108.c      **** void glcd_text57(uint8 x, uint8 y, char* textptr, uint8 size, short color)
 626:ks0108.c      **** {
 1535              		.loc 1 626 0
 1536              		.cfi_startproc
 1537              		@ args = 4, pretend = 0, frame = 16
 1538              		@ frame_needed = 0, uses_anonymous_args = 0
 1539              	.LVL262:
 1540 0000 2DE9F04F 		push	{r4, r5, r6, r7, r8, r9, r10, fp, lr}
 1541              		.cfi_def_cfa_offset 36
 1542              		.cfi_offset 4, -36
 1543              		.cfi_offset 5, -32
 1544              		.cfi_offset 6, -28
 1545              		.cfi_offset 7, -24
 1546              		.cfi_offset 8, -20
 1547              		.cfi_offset 9, -16
 1548              		.cfi_offset 10, -12
 1549              		.cfi_offset 11, -8
 1550              		.cfi_offset 14, -4
 1551 0004 85B0     		sub	sp, sp, #20
 1552              		.cfi_def_cfa_offset 56
 1553 0006 8046     		mov	r8, r0
 1554 0008 8946     		mov	r9, r1
 1555 000a 0192     		str	r2, [sp, #4]
 1556 000c 1D46     		mov	r5, r3
 1557 000e BDF938A0 		ldrsh	r10, [sp, #56]
 627:ks0108.c      ****    uint8 j, k, l, m;                       // Loop counters
 628:ks0108.c      ****    uint8 pixelData[5];                     // Stores character data
 629:ks0108.c      **** 
 630:ks0108.c      ****    for(; *textptr != '\0'; ++textptr, ++x)// Loop through the passed string
ARM GAS  C:\Users\USUARIO\AppData\Local\Temp\ccywmqVe.s 			page 40


 1558              		.loc 1 630 0
 1559 0012 7CE0     		b	.L105
 1560              	.LVL263:
 1561              	.L120:
 631:ks0108.c      ****    {
 632:ks0108.c      ****       if(*textptr < 'S') // Checks if the letter is in the first font array
 1562              		.loc 1 632 0
 1563 0014 522B     		cmp	r3, #82
 1564 0016 0BD8     		bhi	.L106
 633:ks0108.c      ****          memcpy(pixelData, FONT[*textptr - ' '], 5);
 1565              		.loc 1 633 0
 1566 0018 A3F12002 		sub	r2, r3, #32
 1567 001c 02EB8202 		add	r2, r2, r2, lsl #2
 1568 0020 3F49     		ldr	r1, .L127
 1569 0022 0A44     		add	r2, r2, r1
 1570 0024 1068     		ldr	r0, [r2]	@ unaligned
 1571 0026 0290     		str	r0, [sp, #8]	@ unaligned
 1572 0028 1279     		ldrb	r2, [r2, #4]	@ zero_extendqisi2
 1573 002a 8DF80C20 		strb	r2, [sp, #12]
 1574 002e 13E0     		b	.L107
 1575              	.L106:
 634:ks0108.c      ****       else if(*textptr <= '~') // Check if the letter is in the second font array
 1576              		.loc 1 634 0
 1577 0030 7E2B     		cmp	r3, #126
 1578 0032 0BD8     		bhi	.L108
 635:ks0108.c      ****          memcpy(pixelData, FONT2[*textptr - 'S'], 5);
 1579              		.loc 1 635 0
 1580 0034 A3F15302 		sub	r2, r3, #83
 1581 0038 02EB8202 		add	r2, r2, r2, lsl #2
 1582 003c 3949     		ldr	r1, .L127+4
 1583 003e 0A44     		add	r2, r2, r1
 1584 0040 1068     		ldr	r0, [r2]	@ unaligned
 1585 0042 0290     		str	r0, [sp, #8]	@ unaligned
 1586 0044 1279     		ldrb	r2, [r2, #4]	@ zero_extendqisi2
 1587 0046 8DF80C20 		strb	r2, [sp, #12]
 1588 004a 05E0     		b	.L107
 1589              	.L108:
 636:ks0108.c      ****       else
 637:ks0108.c      ****          memcpy(pixelData, FONT[0], 5);   // Default to space
 1590              		.loc 1 637 0
 1591 004c 344A     		ldr	r2, .L127
 1592 004e 92E80300 		ldmia	r2, {r0, r1}
 1593 0052 0290     		str	r0, [sp, #8]
 1594 0054 8DF80C10 		strb	r1, [sp, #12]
 1595              	.L107:
 638:ks0108.c      **** 
 639:ks0108.c      ****       // Handles newline and carriage returns
 640:ks0108.c      ****       switch(*textptr)
 1596              		.loc 1 640 0
 1597 0058 0A2B     		cmp	r3, #10
 1598 005a 02D0     		beq	.L110
 1599 005c 0D2B     		cmp	r3, #13
 1600 005e 4DD0     		beq	.L121
 1601 0060 09E0     		b	.L125
 1602              	.L110:
 641:ks0108.c      ****       {
 642:ks0108.c      ****          case '\n':
ARM GAS  C:\Users\USUARIO\AppData\Local\Temp\ccywmqVe.s 			page 41


 643:ks0108.c      ****             y += 7*size + 1;
 1603              		.loc 1 643 0
 1604 0062 C5EBC503 		rsb	r3, r5, r5, lsl #3
 1605 0066 9944     		add	r9, r9, r3
 1606              	.LVL264:
 1607 0068 5FFA89F9 		uxtb	r9, r9
 1608 006c 09F10109 		add	r9, r9, #1
 1609 0070 5FFA89F9 		uxtb	r9, r9
 1610              	.LVL265:
 644:ks0108.c      ****             continue;
 1611              		.loc 1 644 0
 1612 0074 44E0     		b	.L111
 1613              	.L125:
 645:ks0108.c      ****          case '\r':
 646:ks0108.c      ****             x = 0;
 647:ks0108.c      ****             continue;
 648:ks0108.c      ****       }
 649:ks0108.c      **** 
 650:ks0108.c      ****       if(x+5*size >= GLCD_WIDTH)          // Performs character wrapping
 1614              		.loc 1 650 0
 1615 0076 05EB8503 		add	r3, r5, r5, lsl #2
 1616 007a 4344     		add	r3, r3, r8
 1617 007c 7F2B     		cmp	r3, #127
 1618 007e 0ADD     		ble	.L112
 1619              	.LVL266:
 651:ks0108.c      ****       {
 652:ks0108.c      ****          x = 0;                           // Set x at far left position
 653:ks0108.c      ****          y += 7*size + 1;                 // Set y at next position down
 1620              		.loc 1 653 0
 1621 0080 C5EBC503 		rsb	r3, r5, r5, lsl #3
 1622 0084 9944     		add	r9, r9, r3
 1623              	.LVL267:
 1624 0086 5FFA89F9 		uxtb	r9, r9
 1625 008a 09F10109 		add	r9, r9, #1
 1626 008e 5FFA89F9 		uxtb	r9, r9
 1627              	.LVL268:
 652:ks0108.c      ****          y += 7*size + 1;                 // Set y at next position down
 1628              		.loc 1 652 0
 1629 0092 4FF00008 		mov	r8, #0
 1630              	.LVL269:
 1631              	.L112:
 654:ks0108.c      ****       }
 655:ks0108.c      ****       for(j=0; j<5; ++j, x+=size)         // Loop through character byte data
 1632              		.loc 1 655 0
 1633 0096 4FF0000B 		mov	fp, #0
 1634 009a 2BE0     		b	.L113
 1635              	.LVL270:
 1636              	.L118:
 656:ks0108.c      ****       {
 657:ks0108.c      ****          for(k=0; k < 7; ++k)             // Loop through the vertical pixels
 658:ks0108.c      ****          {
 659:ks0108.c      ****             if(bitRead(pixelData[j], k)) // Check if the pixel should be set
 1637              		.loc 1 659 0
 1638 009c 04AB     		add	r3, sp, #16
 1639 009e 5B44     		add	r3, r3, fp
 1640 00a0 13F8083C 		ldrb	r3, [r3, #-8]	@ zero_extendqisi2
 1641 00a4 3B41     		asrs	r3, r3, r7
ARM GAS  C:\Users\USUARIO\AppData\Local\Temp\ccywmqVe.s 			page 42


 1642 00a6 13F0010F 		tst	r3, #1
 1643 00aa 13D1     		bne	.L122
 1644 00ac 15E0     		b	.L115
 1645              	.LVL271:
 1646              	.L116:
 660:ks0108.c      ****             {
 661:ks0108.c      ****                for(l=0; l < size; ++l)    // These two loops change the
 662:ks0108.c      ****                {                          // character's size
 663:ks0108.c      ****                   for(m=0; m < size; ++m)
 664:ks0108.c      ****                   {
 665:ks0108.c      ****                      glcd_pixel(x+m, y+k*size+l, color); // Draws the pixel
 1647              		.loc 1 665 0 discriminator 3
 1648 00ae 05FB0791 		mla	r1, r5, r7, r9
 1649 00b2 3144     		add	r1, r1, r6
 1650 00b4 08EB0400 		add	r0, r8, r4
 1651 00b8 5246     		mov	r2, r10
 1652 00ba C9B2     		uxtb	r1, r1
 1653 00bc C0B2     		uxtb	r0, r0
 1654 00be FFF7FEFF 		bl	glcd_pixel
 1655              	.LVL272:
 663:ks0108.c      ****                   {
 1656              		.loc 1 663 0 discriminator 3
 1657 00c2 0134     		adds	r4, r4, #1
 1658              	.LVL273:
 1659 00c4 E4B2     		uxtb	r4, r4
 1660              	.LVL274:
 1661 00c6 00E0     		b	.L117
 1662              	.LVL275:
 1663              	.L123:
 1664 00c8 0024     		movs	r4, #0
 1665              	.L117:
 1666              	.LVL276:
 663:ks0108.c      ****                   {
 1667              		.loc 1 663 0 is_stmt 0 discriminator 1
 1668 00ca AC42     		cmp	r4, r5
 1669 00cc EFD3     		bcc	.L116
 661:ks0108.c      ****                {                          // character's size
 1670              		.loc 1 661 0 is_stmt 1 discriminator 2
 1671 00ce 0136     		adds	r6, r6, #1
 1672              	.LVL277:
 1673 00d0 F6B2     		uxtb	r6, r6
 1674              	.LVL278:
 1675 00d2 00E0     		b	.L114
 1676              	.LVL279:
 1677              	.L122:
 1678 00d4 0026     		movs	r6, #0
 1679              	.L114:
 1680              	.LVL280:
 661:ks0108.c      ****                {                          // character's size
 1681              		.loc 1 661 0 is_stmt 0 discriminator 1
 1682 00d6 AE42     		cmp	r6, r5
 1683 00d8 F6D3     		bcc	.L123
 1684              	.LVL281:
 1685              	.L115:
 657:ks0108.c      ****          {
 1686              		.loc 1 657 0 is_stmt 1 discriminator 2
 1687 00da 0137     		adds	r7, r7, #1
ARM GAS  C:\Users\USUARIO\AppData\Local\Temp\ccywmqVe.s 			page 43


 1688              	.LVL282:
 1689 00dc FFB2     		uxtb	r7, r7
 1690              	.LVL283:
 1691 00de 00E0     		b	.L119
 1692              	.LVL284:
 1693              	.L124:
 1694 00e0 0027     		movs	r7, #0
 1695              	.L119:
 1696              	.LVL285:
 657:ks0108.c      ****          {
 1697              		.loc 1 657 0 is_stmt 0 discriminator 1
 1698 00e2 062F     		cmp	r7, #6
 1699 00e4 DAD9     		bls	.L118
 655:ks0108.c      ****       {
 1700              		.loc 1 655 0 is_stmt 1 discriminator 2
 1701 00e6 0BF1010B 		add	fp, fp, #1
 1702              	.LVL286:
 1703 00ea 5FFA8BFB 		uxtb	fp, fp
 1704              	.LVL287:
 1705 00ee A844     		add	r8, r8, r5
 1706              	.LVL288:
 1707 00f0 5FFA88F8 		uxtb	r8, r8
 1708              	.LVL289:
 1709              	.L113:
 655:ks0108.c      ****       {
 1710              		.loc 1 655 0 is_stmt 0 discriminator 1
 1711 00f4 BBF1040F 		cmp	fp, #4
 1712 00f8 F2D9     		bls	.L124
 1713 00fa 01E0     		b	.L111
 1714              	.LVL290:
 1715              	.L121:
 646:ks0108.c      ****             continue;
 1716              		.loc 1 646 0 is_stmt 1
 1717 00fc 4FF00008 		mov	r8, #0
 1718              	.LVL291:
 1719              	.L111:
 630:ks0108.c      ****    {
 1720              		.loc 1 630 0
 1721 0100 019B     		ldr	r3, [sp, #4]
 1722 0102 0133     		adds	r3, r3, #1
 1723 0104 0193     		str	r3, [sp, #4]
 1724              	.LVL292:
 1725 0106 08F10108 		add	r8, r8, #1
 1726              	.LVL293:
 1727 010a 5FFA88F8 		uxtb	r8, r8
 1728              	.LVL294:
 1729              	.L105:
 630:ks0108.c      ****    {
 1730              		.loc 1 630 0 is_stmt 0 discriminator 1
 1731 010e 019B     		ldr	r3, [sp, #4]
 1732 0110 1B78     		ldrb	r3, [r3]	@ zero_extendqisi2
 1733 0112 002B     		cmp	r3, #0
 1734 0114 7FF47EAF 		bne	.L120
 666:ks0108.c      ****                   }
 667:ks0108.c      ****                }
 668:ks0108.c      ****             }
 669:ks0108.c      ****          }
ARM GAS  C:\Users\USUARIO\AppData\Local\Temp\ccywmqVe.s 			page 44


 670:ks0108.c      ****       }
 671:ks0108.c      ****    }
 672:ks0108.c      **** }
 1735              		.loc 1 672 0 is_stmt 1
 1736 0118 05B0     		add	sp, sp, #20
 1737              		.cfi_def_cfa_offset 36
 1738              		@ sp needed
 1739 011a BDE8F08F 		pop	{r4, r5, r6, r7, r8, r9, r10, fp, pc}
 1740              	.LVL295:
 1741              	.L128:
 1742 011e 00BF     		.align	2
 1743              	.L127:
 1744 0120 00000000 		.word	.LANCHOR0
 1745 0124 00010000 		.word	.LANCHOR0+256
 1746              		.cfi_endproc
 1747              	.LFE76:
 1748              		.size	glcd_text57, .-glcd_text57
 1749              		.section	.text.displayMenu,"ax",%progbits
 1750              		.align	2
 1751              		.global	displayMenu
 1752              		.thumb
 1753              		.thumb_func
 1754              		.type	displayMenu, %function
 1755              	displayMenu:
 1756              	.LFB77:
 673:ks0108.c      **** 
 674:ks0108.c      **** void displayMenu(char palabra[30], uint8 x, uint8 y, short sombreado, short tamano)
 675:ks0108.c      **** {
 1757              		.loc 1 675 0
 1758              		.cfi_startproc
 1759              		@ args = 4, pretend = 0, frame = 0
 1760              		@ frame_needed = 0, uses_anonymous_args = 0
 1761              	.LVL296:
 1762 0000 2DE9F041 		push	{r4, r5, r6, r7, r8, lr}
 1763              		.cfi_def_cfa_offset 24
 1764              		.cfi_offset 4, -24
 1765              		.cfi_offset 5, -20
 1766              		.cfi_offset 6, -16
 1767              		.cfi_offset 7, -12
 1768              		.cfi_offset 8, -8
 1769              		.cfi_offset 14, -4
 1770 0004 82B0     		sub	sp, sp, #8
 1771              		.cfi_def_cfa_offset 32
 1772 0006 0F46     		mov	r7, r1
 1773 0008 1546     		mov	r5, r2
 1774 000a 1C46     		mov	r4, r3
 1775 000c BDF92060 		ldrsh	r6, [sp, #32]
 676:ks0108.c      ****    strcpy(Menus.Letra,palabra);
 1776              		.loc 1 676 0
 1777 0010 0146     		mov	r1, r0
 1778              	.LVL297:
 1779 0012 2748     		ldr	r0, .L135
 1780              	.LVL298:
 1781 0014 FFF7FEFF 		bl	strcpy
 1782              	.LVL299:
 677:ks0108.c      ****    
 678:ks0108.c      ****    if(sombreado==3)
ARM GAS  C:\Users\USUARIO\AppData\Local\Temp\ccywmqVe.s 			page 45


 1783              		.loc 1 678 0
 1784 0018 032C     		cmp	r4, #3
 1785 001a 09D1     		bne	.L130
 679:ks0108.c      ****       {glcd_text57(x+1, y+1, Menus.Letra, tamano, OFF);}
 1786              		.loc 1 679 0
 1787 001c 691C     		adds	r1, r5, #1
 1788 001e 781C     		adds	r0, r7, #1
 1789 0020 0023     		movs	r3, #0
 1790 0022 0093     		str	r3, [sp]
 1791 0024 F3B2     		uxtb	r3, r6
 1792 0026 224A     		ldr	r2, .L135
 1793 0028 C9B2     		uxtb	r1, r1
 1794 002a C0B2     		uxtb	r0, r0
 1795 002c FFF7FEFF 		bl	glcd_text57
 1796              	.LVL300:
 1797              	.L130:
 680:ks0108.c      ****    if(sombreado==2)
 1798              		.loc 1 680 0
 1799 0030 022C     		cmp	r4, #2
 1800 0032 09D1     		bne	.L131
 681:ks0108.c      ****       {glcd_text57(x+1, y+1, Menus.Letra, tamano, ON);}
 1801              		.loc 1 681 0
 1802 0034 691C     		adds	r1, r5, #1
 1803 0036 781C     		adds	r0, r7, #1
 1804 0038 0123     		movs	r3, #1
 1805 003a 0093     		str	r3, [sp]
 1806 003c F3B2     		uxtb	r3, r6
 1807 003e 1C4A     		ldr	r2, .L135
 1808 0040 C9B2     		uxtb	r1, r1
 1809 0042 C0B2     		uxtb	r0, r0
 1810 0044 FFF7FEFF 		bl	glcd_text57
 1811              	.LVL301:
 1812              	.L131:
 682:ks0108.c      ****    if(sombreado==1)
 1813              		.loc 1 682 0
 1814 0048 012C     		cmp	r4, #1
 1815 004a 16D1     		bne	.L132
 683:ks0108.c      ****       {glcd_rect(0, y, 127, y+(tamano*8), YES, ON);glcd_text57(x+1, y+1, Menus.Letra, tamano, OFF);
 1816              		.loc 1 683 0
 1817 004c 5FFA86F8 		uxtb	r8, r6
 1818 0050 05EBC803 		add	r3, r5, r8, lsl #3
 1819 0054 0122     		movs	r2, #1
 1820 0056 0192     		str	r2, [sp, #4]
 1821 0058 0092     		str	r2, [sp]
 1822 005a DBB2     		uxtb	r3, r3
 1823 005c 7F22     		movs	r2, #127
 1824 005e 2946     		mov	r1, r5
 1825 0060 0020     		movs	r0, #0
 1826 0062 FFF7FEFF 		bl	glcd_rect
 1827              	.LVL302:
 1828 0066 691C     		adds	r1, r5, #1
 1829 0068 781C     		adds	r0, r7, #1
 1830 006a 0023     		movs	r3, #0
 1831 006c 0093     		str	r3, [sp]
 1832 006e 4346     		mov	r3, r8
 1833 0070 0F4A     		ldr	r2, .L135
 1834 0072 C9B2     		uxtb	r1, r1
ARM GAS  C:\Users\USUARIO\AppData\Local\Temp\ccywmqVe.s 			page 46


 1835 0074 C0B2     		uxtb	r0, r0
 1836 0076 FFF7FEFF 		bl	glcd_text57
 1837              	.LVL303:
 1838              	.L132:
 684:ks0108.c      ****    if(sombreado==0)
 1839              		.loc 1 684 0
 1840 007a A4B9     		cbnz	r4, .L133
 685:ks0108.c      ****       {glcd_rect(0, y, 127, y+(tamano*8), YES, OFF);glcd_text57(x+1, y+1, Menus.Letra, tamano, ON);
 1841              		.loc 1 685 0
 1842 007c F6B2     		uxtb	r6, r6
 1843 007e 05EBC603 		add	r3, r5, r6, lsl #3
 1844 0082 0020     		movs	r0, #0
 1845 0084 0190     		str	r0, [sp, #4]
 1846 0086 0124     		movs	r4, #1
 1847 0088 0094     		str	r4, [sp]
 1848 008a DBB2     		uxtb	r3, r3
 1849 008c 7F22     		movs	r2, #127
 1850 008e 2946     		mov	r1, r5
 1851 0090 FFF7FEFF 		bl	glcd_rect
 1852              	.LVL304:
 1853 0094 2919     		adds	r1, r5, r4
 1854 0096 3819     		adds	r0, r7, r4
 1855 0098 0094     		str	r4, [sp]
 1856 009a 3346     		mov	r3, r6
 1857 009c 044A     		ldr	r2, .L135
 1858 009e C9B2     		uxtb	r1, r1
 1859 00a0 C0B2     		uxtb	r0, r0
 1860 00a2 FFF7FEFF 		bl	glcd_text57
 1861              	.LVL305:
 1862              	.L133:
 686:ks0108.c      ****    glcd_update();
 1863              		.loc 1 686 0
 1864 00a6 FFF7FEFF 		bl	glcd_update
 1865              	.LVL306:
 687:ks0108.c      **** }
 1866              		.loc 1 687 0
 1867 00aa 02B0     		add	sp, sp, #8
 1868              		.cfi_def_cfa_offset 24
 1869              		@ sp needed
 1870 00ac BDE8F081 		pop	{r4, r5, r6, r7, r8, pc}
 1871              	.LVL307:
 1872              	.L136:
 1873              		.align	2
 1874              	.L135:
 1875 00b0 00000000 		.word	Menus
 1876              		.cfi_endproc
 1877              	.LFE77:
 1878              		.size	displayMenu, .-displayMenu
 1879              		.section	.text.displayTemps,"ax",%progbits
 1880              		.align	2
 1881              		.global	displayTemps
 1882              		.thumb
 1883              		.thumb_func
 1884              		.type	displayTemps, %function
 1885              	displayTemps:
 1886              	.LFB78:
 688:ks0108.c      **** 
ARM GAS  C:\Users\USUARIO\AppData\Local\Temp\ccywmqVe.s 			page 47


 689:ks0108.c      **** void displayTemps(char palabra[30], uint16 digito, uint8 x, uint8 y, short sombreado, short tamano)
 690:ks0108.c      **** {
 1887              		.loc 1 690 0
 1888              		.cfi_startproc
 1889              		@ args = 8, pretend = 0, frame = 32
 1890              		@ frame_needed = 0, uses_anonymous_args = 0
 1891              	.LVL308:
 1892 0000 2DE9F04F 		push	{r4, r5, r6, r7, r8, r9, r10, fp, lr}
 1893              		.cfi_def_cfa_offset 36
 1894              		.cfi_offset 4, -36
 1895              		.cfi_offset 5, -32
 1896              		.cfi_offset 6, -28
 1897              		.cfi_offset 7, -24
 1898              		.cfi_offset 8, -20
 1899              		.cfi_offset 9, -16
 1900              		.cfi_offset 10, -12
 1901              		.cfi_offset 11, -8
 1902              		.cfi_offset 14, -4
 1903 0004 8BB0     		sub	sp, sp, #44
 1904              		.cfi_def_cfa_offset 80
 1905 0006 0390     		str	r0, [sp, #12]
 1906 0008 0491     		str	r1, [sp, #16]
 1907 000a 1646     		mov	r6, r2
 1908 000c 1D46     		mov	r5, r3
 1909 000e BDF95040 		ldrsh	r4, [sp, #80]
 1910 0012 BDF95470 		ldrsh	r7, [sp, #84]
 691:ks0108.c      ****    char voltage[9];
 692:ks0108.c      ****    
 693:ks0108.c      ****    if(sombreado==11)
 1911              		.loc 1 693 0
 1912 0016 0B2C     		cmp	r4, #11
 1913 0018 31D1     		bne	.L138
 694:ks0108.c      ****    {
 695:ks0108.c      ****       sprintf(voltage, "%02u", digito);
 1914              		.loc 1 695 0
 1915 001a 0A46     		mov	r2, r1
 1916              	.LVL309:
 1917 001c 8149     		ldr	r1, .L143
 1918              	.LVL310:
 1919 001e 07A8     		add	r0, sp, #28
 1920              	.LVL311:
 1921 0020 FFF7FEFF 		bl	sprintf
 1922              	.LVL312:
 696:ks0108.c      ****       glcd_rect(0, y-2, 127, y+(tamano*8), YES, ON);
 1923              		.loc 1 696 0
 1924 0024 5FFA87F9 		uxtb	r9, r7
 1925 0028 05EBC903 		add	r3, r5, r9, lsl #3
 1926 002c A91E     		subs	r1, r5, #2
 1927 002e 0122     		movs	r2, #1
 1928 0030 0192     		str	r2, [sp, #4]
 1929 0032 0092     		str	r2, [sp]
 1930 0034 DBB2     		uxtb	r3, r3
 1931 0036 7F22     		movs	r2, #127
 1932 0038 C9B2     		uxtb	r1, r1
 1933 003a 0020     		movs	r0, #0
 1934 003c FFF7FEFF 		bl	glcd_rect
 1935              	.LVL313:
ARM GAS  C:\Users\USUARIO\AppData\Local\Temp\ccywmqVe.s 			page 48


 697:ks0108.c      ****       strcpy(Menus.Letra,palabra);
 1936              		.loc 1 697 0
 1937 0040 DFF8ECA1 		ldr	r10, .L143+12
 1938 0044 0399     		ldr	r1, [sp, #12]
 1939 0046 5046     		mov	r0, r10
 1940 0048 FFF7FEFF 		bl	strcpy
 1941              	.LVL314:
 698:ks0108.c      ****       glcd_text57(x+90, y+1, voltage, tamano, OFF);
 1942              		.loc 1 698 0
 1943 004c 05F10108 		add	r8, r5, #1
 1944 0050 5FFA88F8 		uxtb	r8, r8
 1945 0054 06F15A00 		add	r0, r6, #90
 1946 0058 4FF0000B 		mov	fp, #0
 1947 005c CDF800B0 		str	fp, [sp]
 1948 0060 4B46     		mov	r3, r9
 1949 0062 07AA     		add	r2, sp, #28
 1950 0064 4146     		mov	r1, r8
 1951 0066 C0B2     		uxtb	r0, r0
 1952 0068 FFF7FEFF 		bl	glcd_text57
 1953              	.LVL315:
 699:ks0108.c      ****       glcd_text57(x+1, y+1, Menus.Letra, tamano, OFF);
 1954              		.loc 1 699 0
 1955 006c 701C     		adds	r0, r6, #1
 1956 006e CDF800B0 		str	fp, [sp]
 1957 0072 4B46     		mov	r3, r9
 1958 0074 5246     		mov	r2, r10
 1959 0076 4146     		mov	r1, r8
 1960 0078 C0B2     		uxtb	r0, r0
 1961 007a FFF7FEFF 		bl	glcd_text57
 1962              	.LVL316:
 1963              	.L138:
 700:ks0108.c      ****    }
 701:ks0108.c      ****    if(sombreado==10)
 1964              		.loc 1 701 0
 1965 007e 0A2C     		cmp	r4, #10
 1966 0080 32D1     		bne	.L139
 702:ks0108.c      ****    {
 703:ks0108.c      ****       sprintf(voltage, "%02u", digito);
 1967              		.loc 1 703 0
 1968 0082 049A     		ldr	r2, [sp, #16]
 1969 0084 6749     		ldr	r1, .L143
 1970 0086 07A8     		add	r0, sp, #28
 1971 0088 FFF7FEFF 		bl	sprintf
 1972              	.LVL317:
 704:ks0108.c      ****       glcd_rect(0, y-2, 127, y+(tamano*8), YES, OFF);
 1973              		.loc 1 704 0
 1974 008c 5FFA87F9 		uxtb	r9, r7
 1975 0090 05EBC903 		add	r3, r5, r9, lsl #3
 1976 0094 A91E     		subs	r1, r5, #2
 1977 0096 0020     		movs	r0, #0
 1978 0098 0190     		str	r0, [sp, #4]
 1979 009a 4FF0010A 		mov	r10, #1
 1980 009e CDF800A0 		str	r10, [sp]
 1981 00a2 DBB2     		uxtb	r3, r3
 1982 00a4 7F22     		movs	r2, #127
 1983 00a6 C9B2     		uxtb	r1, r1
 1984 00a8 FFF7FEFF 		bl	glcd_rect
ARM GAS  C:\Users\USUARIO\AppData\Local\Temp\ccywmqVe.s 			page 49


 1985              	.LVL318:
 705:ks0108.c      ****       strcpy(Menus.Letra,palabra);
 1986              		.loc 1 705 0
 1987 00ac DFF880B1 		ldr	fp, .L143+12
 1988 00b0 0399     		ldr	r1, [sp, #12]
 1989 00b2 5846     		mov	r0, fp
 1990 00b4 FFF7FEFF 		bl	strcpy
 1991              	.LVL319:
 706:ks0108.c      ****       glcd_text57(x+90, y+1, voltage, tamano, ON);
 1992              		.loc 1 706 0
 1993 00b8 05EB0A08 		add	r8, r5, r10
 1994 00bc 5FFA88F8 		uxtb	r8, r8
 1995 00c0 06F15A00 		add	r0, r6, #90
 1996 00c4 CDF800A0 		str	r10, [sp]
 1997 00c8 4B46     		mov	r3, r9
 1998 00ca 07AA     		add	r2, sp, #28
 1999 00cc 4146     		mov	r1, r8
 2000 00ce C0B2     		uxtb	r0, r0
 2001 00d0 FFF7FEFF 		bl	glcd_text57
 2002              	.LVL320:
 707:ks0108.c      ****       glcd_text57(x+1, y+1, Menus.Letra, tamano, ON);
 2003              		.loc 1 707 0
 2004 00d4 06EB0A00 		add	r0, r6, r10
 2005 00d8 CDF800A0 		str	r10, [sp]
 2006 00dc 4B46     		mov	r3, r9
 2007 00de 5A46     		mov	r2, fp
 2008 00e0 4146     		mov	r1, r8
 2009 00e2 C0B2     		uxtb	r0, r0
 2010 00e4 FFF7FEFF 		bl	glcd_text57
 2011              	.LVL321:
 2012              	.L139:
 708:ks0108.c      ****    }
 709:ks0108.c      ****    
 710:ks0108.c      ****    if(sombreado==1)
 2013              		.loc 1 710 0
 2014 00e8 012C     		cmp	r4, #1
 2015 00ea 4ED1     		bne	.L140
 711:ks0108.c      ****    {
 712:ks0108.c      ****       sprintf(voltage, "%04u", digito);
 2016              		.loc 1 712 0
 2017 00ec 049A     		ldr	r2, [sp, #16]
 2018 00ee 4E49     		ldr	r1, .L143+4
 2019 00f0 07A8     		add	r0, sp, #28
 2020 00f2 FFF7FEFF 		bl	sprintf
 2021              	.LVL322:
 713:ks0108.c      ****       glcd_rect(0, y-2, 127, y+(tamano*8), YES, ON);
 2022              		.loc 1 713 0
 2023 00f6 5FFA87F9 		uxtb	r9, r7
 2024 00fa 05EBC903 		add	r3, r5, r9, lsl #3
 2025 00fe A91E     		subs	r1, r5, #2
 2026 0100 4FF0010A 		mov	r10, #1
 2027 0104 CDF804A0 		str	r10, [sp, #4]
 2028 0108 CDF800A0 		str	r10, [sp]
 2029 010c DBB2     		uxtb	r3, r3
 2030 010e 7F22     		movs	r2, #127
 2031 0110 C9B2     		uxtb	r1, r1
 2032 0112 0020     		movs	r0, #0
ARM GAS  C:\Users\USUARIO\AppData\Local\Temp\ccywmqVe.s 			page 50


 2033 0114 FFF7FEFF 		bl	glcd_rect
 2034              	.LVL323:
 714:ks0108.c      ****       strcpy(Menus.Letra,palabra);
 2035              		.loc 1 714 0
 2036 0118 DFF814B1 		ldr	fp, .L143+12
 2037 011c 0399     		ldr	r1, [sp, #12]
 2038 011e 5846     		mov	r0, fp
 2039 0120 FFF7FEFF 		bl	strcpy
 2040              	.LVL324:
 715:ks0108.c      ****       glcd_text57(x+90, y+1, voltage, tamano, OFF);
 2041              		.loc 1 715 0
 2042 0124 05EB0A03 		add	r3, r5, r10
 2043 0128 DBB2     		uxtb	r3, r3
 2044 012a 1946     		mov	r1, r3
 2045 012c 06F15A00 		add	r0, r6, #90
 2046 0130 4FF00008 		mov	r8, #0
 2047 0134 CDF80080 		str	r8, [sp]
 2048 0138 4B46     		mov	r3, r9
 2049 013a 07AA     		add	r2, sp, #28
 2050 013c 0591     		str	r1, [sp, #20]
 2051 013e C0B2     		uxtb	r0, r0
 2052 0140 FFF7FEFF 		bl	glcd_text57
 2053              	.LVL325:
 716:ks0108.c      ****       glcd_text57(x+1, y+1, Menus.Letra, tamano, OFF);
 2054              		.loc 1 716 0
 2055 0144 06EB0A00 		add	r0, r6, r10
 2056 0148 CDF80080 		str	r8, [sp]
 2057 014c 4B46     		mov	r3, r9
 2058 014e 5A46     		mov	r2, fp
 2059 0150 0599     		ldr	r1, [sp, #20]
 2060 0152 C0B2     		uxtb	r0, r0
 2061 0154 FFF7FEFF 		bl	glcd_text57
 2062              	.LVL326:
 717:ks0108.c      ****       strcpy(Menus.Letra,"C");
 2063              		.loc 1 717 0
 2064 0158 344B     		ldr	r3, .L143+8
 2065 015a 1B88     		ldrh	r3, [r3]	@ unaligned
 2066 015c ABF80030 		strh	r3, [fp]	@ unaligned
 718:ks0108.c      ****       glcd_text57(x+120, y+1, Menus.Letra, tamano, OFF);
 2067              		.loc 1 718 0
 2068 0160 06F17800 		add	r0, r6, #120
 2069 0164 CDF80080 		str	r8, [sp]
 2070 0168 4B46     		mov	r3, r9
 2071 016a 5A46     		mov	r2, fp
 2072 016c 0599     		ldr	r1, [sp, #20]
 2073 016e C0B2     		uxtb	r0, r0
 2074 0170 FFF7FEFF 		bl	glcd_text57
 2075              	.LVL327:
 719:ks0108.c      ****       glcd_circle(x+115,y-1,1,NO,OFF);
 2076              		.loc 1 719 0
 2077 0174 691E     		subs	r1, r5, #1
 2078 0176 06F17300 		add	r0, r6, #115
 2079 017a CDF80080 		str	r8, [sp]
 2080 017e 4346     		mov	r3, r8
 2081 0180 5246     		mov	r2, r10
 2082 0182 C9B2     		uxtb	r1, r1
 2083 0184 C0B2     		uxtb	r0, r0
ARM GAS  C:\Users\USUARIO\AppData\Local\Temp\ccywmqVe.s 			page 51


 2084 0186 FFF7FEFF 		bl	glcd_circle
 2085              	.LVL328:
 2086              	.L140:
 720:ks0108.c      ****    }
 721:ks0108.c      ****    if(sombreado==0)
 2087              		.loc 1 721 0
 2088 018a 002C     		cmp	r4, #0
 2089 018c 45D1     		bne	.L141
 722:ks0108.c      ****    {
 723:ks0108.c      ****       sprintf(voltage, "%04u", digito);
 2090              		.loc 1 723 0
 2091 018e 049A     		ldr	r2, [sp, #16]
 2092 0190 2549     		ldr	r1, .L143+4
 2093 0192 07A8     		add	r0, sp, #28
 2094 0194 FFF7FEFF 		bl	sprintf
 2095              	.LVL329:
 724:ks0108.c      ****       glcd_rect(0, y-2, 127, y+(tamano*8), YES, OFF);
 2096              		.loc 1 724 0
 2097 0198 5FFA87FA 		uxtb	r10, r7
 2098 019c 05EBCA03 		add	r3, r5, r10, lsl #3
 2099 01a0 A91E     		subs	r1, r5, #2
 2100 01a2 0027     		movs	r7, #0
 2101 01a4 0197     		str	r7, [sp, #4]
 2102 01a6 0124     		movs	r4, #1
 2103 01a8 0094     		str	r4, [sp]
 2104 01aa DBB2     		uxtb	r3, r3
 2105 01ac 7F22     		movs	r2, #127
 2106 01ae C9B2     		uxtb	r1, r1
 2107 01b0 3846     		mov	r0, r7
 2108 01b2 FFF7FEFF 		bl	glcd_rect
 2109              	.LVL330:
 725:ks0108.c      ****       strcpy(Menus.Letra,palabra);
 2110              		.loc 1 725 0
 2111 01b6 DFF87890 		ldr	r9, .L143+12
 2112 01ba 0399     		ldr	r1, [sp, #12]
 2113 01bc 4846     		mov	r0, r9
 2114 01be FFF7FEFF 		bl	strcpy
 2115              	.LVL331:
 726:ks0108.c      ****       glcd_text57(x+90, y+1, voltage, tamano, ON);
 2116              		.loc 1 726 0
 2117 01c2 05EB0408 		add	r8, r5, r4
 2118 01c6 5FFA88F8 		uxtb	r8, r8
 2119 01ca 06F15A00 		add	r0, r6, #90
 2120 01ce 0094     		str	r4, [sp]
 2121 01d0 5346     		mov	r3, r10
 2122 01d2 07AA     		add	r2, sp, #28
 2123 01d4 4146     		mov	r1, r8
 2124 01d6 C0B2     		uxtb	r0, r0
 2125 01d8 FFF7FEFF 		bl	glcd_text57
 2126              	.LVL332:
 727:ks0108.c      ****       glcd_text57(x+1, y+1, Menus.Letra, tamano, ON);
 2127              		.loc 1 727 0
 2128 01dc 3019     		adds	r0, r6, r4
 2129 01de 0094     		str	r4, [sp]
 2130 01e0 5346     		mov	r3, r10
 2131 01e2 4A46     		mov	r2, r9
 2132 01e4 4146     		mov	r1, r8
ARM GAS  C:\Users\USUARIO\AppData\Local\Temp\ccywmqVe.s 			page 52


 2133 01e6 C0B2     		uxtb	r0, r0
 2134 01e8 FFF7FEFF 		bl	glcd_text57
 2135              	.LVL333:
 728:ks0108.c      ****       strcpy(Menus.Letra,"C");
 2136              		.loc 1 728 0
 2137 01ec 0F4B     		ldr	r3, .L143+8
 2138 01ee 1B88     		ldrh	r3, [r3]	@ unaligned
 2139 01f0 A9F80030 		strh	r3, [r9]	@ unaligned
 729:ks0108.c      ****       glcd_text57(x+120, y+1, Menus.Letra, tamano, ON);
 2140              		.loc 1 729 0
 2141 01f4 06F17800 		add	r0, r6, #120
 2142 01f8 0094     		str	r4, [sp]
 2143 01fa 5346     		mov	r3, r10
 2144 01fc 4A46     		mov	r2, r9
 2145 01fe 4146     		mov	r1, r8
 2146 0200 C0B2     		uxtb	r0, r0
 2147 0202 FFF7FEFF 		bl	glcd_text57
 2148              	.LVL334:
 730:ks0108.c      ****       glcd_circle(x+115,y-1,1,NO,ON);
 2149              		.loc 1 730 0
 2150 0206 691E     		subs	r1, r5, #1
 2151 0208 06F17300 		add	r0, r6, #115
 2152 020c 0094     		str	r4, [sp]
 2153 020e 3B46     		mov	r3, r7
 2154 0210 2246     		mov	r2, r4
 2155 0212 C9B2     		uxtb	r1, r1
 2156 0214 C0B2     		uxtb	r0, r0
 2157 0216 FFF7FEFF 		bl	glcd_circle
 2158              	.LVL335:
 2159              	.L141:
 731:ks0108.c      ****    }
 732:ks0108.c      ****    glcd_update();
 2160              		.loc 1 732 0
 2161 021a FFF7FEFF 		bl	glcd_update
 2162              	.LVL336:
 733:ks0108.c      **** }
 2163              		.loc 1 733 0
 2164 021e 0BB0     		add	sp, sp, #44
 2165              		.cfi_def_cfa_offset 36
 2166              		@ sp needed
 2167 0220 BDE8F08F 		pop	{r4, r5, r6, r7, r8, r9, r10, fp, pc}
 2168              	.LVL337:
 2169              	.L144:
 2170              		.align	2
 2171              	.L143:
 2172 0224 00000000 		.word	.LC0
 2173 0228 08000000 		.word	.LC1
 2174 022c 10000000 		.word	.LC2
 2175 0230 00000000 		.word	Menus
 2176              		.cfi_endproc
 2177              	.LFE78:
 2178              		.size	displayTemps, .-displayTemps
 2179              		.section	.text.displayTiempo,"ax",%progbits
 2180              		.align	2
 2181              		.global	displayTiempo
 2182              		.thumb
 2183              		.thumb_func
ARM GAS  C:\Users\USUARIO\AppData\Local\Temp\ccywmqVe.s 			page 53


 2184              		.type	displayTiempo, %function
 2185              	displayTiempo:
 2186              	.LFB79:
 734:ks0108.c      **** 
 735:ks0108.c      **** void displayTiempo(uint8 digito, uint8 x, uint8 y, short sombreado, short tamano)
 736:ks0108.c      **** {
 2187              		.loc 1 736 0
 2188              		.cfi_startproc
 2189              		@ args = 4, pretend = 0, frame = 16
 2190              		@ frame_needed = 0, uses_anonymous_args = 0
 2191              	.LVL338:
 2192 0000 2DE9F047 		push	{r4, r5, r6, r7, r8, r9, r10, lr}
 2193              		.cfi_def_cfa_offset 32
 2194              		.cfi_offset 4, -32
 2195              		.cfi_offset 5, -28
 2196              		.cfi_offset 6, -24
 2197              		.cfi_offset 7, -20
 2198              		.cfi_offset 8, -16
 2199              		.cfi_offset 9, -12
 2200              		.cfi_offset 10, -8
 2201              		.cfi_offset 14, -4
 2202 0004 86B0     		sub	sp, sp, #24
 2203              		.cfi_def_cfa_offset 56
 2204 0006 8046     		mov	r8, r0
 2205 0008 0D46     		mov	r5, r1
 2206 000a 1646     		mov	r6, r2
 2207 000c BDF93870 		ldrsh	r7, [sp, #56]
 737:ks0108.c      ****    char voltage[9];
 738:ks0108.c      ****    
 739:ks0108.c      ****    if(sombreado==2)
 2208              		.loc 1 739 0
 2209 0010 022B     		cmp	r3, #2
 2210 0012 1FD1     		bne	.L146
 740:ks0108.c      ****    {
 741:ks0108.c      ****       sprintf(voltage, "%03u", digito);
 2211              		.loc 1 741 0
 2212 0014 0246     		mov	r2, r0
 2213              	.LVL339:
 2214 0016 4349     		ldr	r1, .L151
 2215              	.LVL340:
 2216 0018 03A8     		add	r0, sp, #12
 2217              	.LVL341:
 2218 001a FFF7FEFF 		bl	sprintf
 2219              	.LVL342:
 742:ks0108.c      ****       glcd_rect(x, y, x+(tamano*18), y+(tamano*8), YES, ON);
 2220              		.loc 1 742 0
 2221 001e FCB2     		uxtb	r4, r7
 2222 0020 06EBC403 		add	r3, r6, r4, lsl #3
 2223 0024 04EBC401 		add	r1, r4, r4, lsl #3
 2224 0028 4A00     		lsls	r2, r1, #1
 2225 002a 2A44     		add	r2, r2, r5
 2226 002c 0121     		movs	r1, #1
 2227 002e 0191     		str	r1, [sp, #4]
 2228 0030 0091     		str	r1, [sp]
 2229 0032 DBB2     		uxtb	r3, r3
 2230 0034 D2B2     		uxtb	r2, r2
 2231 0036 3146     		mov	r1, r6
ARM GAS  C:\Users\USUARIO\AppData\Local\Temp\ccywmqVe.s 			page 54


 2232 0038 2846     		mov	r0, r5
 2233 003a FFF7FEFF 		bl	glcd_rect
 2234              	.LVL343:
 743:ks0108.c      ****       glcd_text57(x+1, y+1, voltage, tamano, OFF);
 2235              		.loc 1 743 0
 2236 003e 711C     		adds	r1, r6, #1
 2237 0040 681C     		adds	r0, r5, #1
 2238 0042 0023     		movs	r3, #0
 2239 0044 0093     		str	r3, [sp]
 2240 0046 2346     		mov	r3, r4
 2241 0048 03AA     		add	r2, sp, #12
 2242 004a C9B2     		uxtb	r1, r1
 2243 004c C0B2     		uxtb	r0, r0
 2244 004e FFF7FEFF 		bl	glcd_text57
 2245              	.LVL344:
 2246 0052 62E0     		b	.L147
 2247              	.LVL345:
 2248              	.L146:
 2249 0054 1C46     		mov	r4, r3
 744:ks0108.c      ****    }
 745:ks0108.c      ****    else
 746:ks0108.c      ****    {
 747:ks0108.c      ****       if(sombreado==3)
 2250              		.loc 1 747 0
 2251 0056 032B     		cmp	r3, #3
 2252 0058 24D1     		bne	.L148
 748:ks0108.c      ****       {
 749:ks0108.c      ****          sprintf(voltage, "%03u", digito);
 2253              		.loc 1 749 0
 2254 005a 0246     		mov	r2, r0
 2255              	.LVL346:
 2256 005c 3149     		ldr	r1, .L151
 2257              	.LVL347:
 2258 005e 03A8     		add	r0, sp, #12
 2259              	.LVL348:
 2260 0060 FFF7FEFF 		bl	sprintf
 2261              	.LVL349:
 750:ks0108.c      ****          glcd_rect(x, y, x+(tamano*18), y+(tamano*8), YES, OFF);
 2262              		.loc 1 750 0
 2263 0064 5FFA87F9 		uxtb	r9, r7
 2264 0068 06EBC903 		add	r3, r6, r9, lsl #3
 2265 006c 09EBC901 		add	r1, r9, r9, lsl #3
 2266 0070 4A00     		lsls	r2, r1, #1
 2267 0072 2A44     		add	r2, r2, r5
 2268 0074 0021     		movs	r1, #0
 2269 0076 0191     		str	r1, [sp, #4]
 2270 0078 4FF0010A 		mov	r10, #1
 2271 007c CDF800A0 		str	r10, [sp]
 2272 0080 DBB2     		uxtb	r3, r3
 2273 0082 D2B2     		uxtb	r2, r2
 2274 0084 3146     		mov	r1, r6
 2275 0086 2846     		mov	r0, r5
 2276 0088 FFF7FEFF 		bl	glcd_rect
 2277              	.LVL350:
 751:ks0108.c      ****          glcd_text57(x+1, y+1, voltage, tamano, ON);
 2278              		.loc 1 751 0
 2279 008c 06EB0A01 		add	r1, r6, r10
ARM GAS  C:\Users\USUARIO\AppData\Local\Temp\ccywmqVe.s 			page 55


 2280 0090 05EB0A00 		add	r0, r5, r10
 2281 0094 CDF800A0 		str	r10, [sp]
 2282 0098 4B46     		mov	r3, r9
 2283 009a 03AA     		add	r2, sp, #12
 2284 009c C9B2     		uxtb	r1, r1
 2285 009e C0B2     		uxtb	r0, r0
 2286 00a0 FFF7FEFF 		bl	glcd_text57
 2287              	.LVL351:
 2288              	.L148:
 752:ks0108.c      ****       }
 753:ks0108.c      ****       sprintf(voltage, "%u", digito);
 2289              		.loc 1 753 0
 2290 00a4 4246     		mov	r2, r8
 2291 00a6 2049     		ldr	r1, .L151+4
 2292 00a8 03A8     		add	r0, sp, #12
 2293 00aa FFF7FEFF 		bl	sprintf
 2294              	.LVL352:
 754:ks0108.c      ****       if(sombreado==1)
 2295              		.loc 1 754 0
 2296 00ae 012C     		cmp	r4, #1
 2297 00b0 19D1     		bne	.L149
 755:ks0108.c      ****          {glcd_rect(x, y, x+(tamano*5), y+(tamano*8), YES, ON);glcd_text57(x+1, y+1, voltage, taman
 2298              		.loc 1 755 0
 2299 00b2 5FFA87F8 		uxtb	r8, r7
 2300 00b6 06EBC803 		add	r3, r6, r8, lsl #3
 2301 00ba 08EB8802 		add	r2, r8, r8, lsl #2
 2302 00be 2A44     		add	r2, r2, r5
 2303 00c0 0121     		movs	r1, #1
 2304 00c2 0191     		str	r1, [sp, #4]
 2305 00c4 0091     		str	r1, [sp]
 2306 00c6 DBB2     		uxtb	r3, r3
 2307 00c8 D2B2     		uxtb	r2, r2
 2308 00ca 3146     		mov	r1, r6
 2309 00cc 2846     		mov	r0, r5
 2310 00ce FFF7FEFF 		bl	glcd_rect
 2311              	.LVL353:
 2312 00d2 711C     		adds	r1, r6, #1
 2313 00d4 681C     		adds	r0, r5, #1
 2314 00d6 0023     		movs	r3, #0
 2315 00d8 0093     		str	r3, [sp]
 2316 00da 4346     		mov	r3, r8
 2317 00dc 03AA     		add	r2, sp, #12
 2318 00de C9B2     		uxtb	r1, r1
 2319 00e0 C0B2     		uxtb	r0, r0
 2320 00e2 FFF7FEFF 		bl	glcd_text57
 2321              	.LVL354:
 2322              	.L149:
 756:ks0108.c      ****       if(sombreado==0)
 2323              		.loc 1 756 0
 2324 00e6 C4B9     		cbnz	r4, .L147
 757:ks0108.c      ****          {glcd_rect(x, y, x+(tamano*5), y+(tamano*8), YES, OFF);glcd_text57(x+1, y+1, voltage, tama
 2325              		.loc 1 757 0
 2326 00e8 FCB2     		uxtb	r4, r7
 2327 00ea 06EBC403 		add	r3, r6, r4, lsl #3
 2328 00ee 04EB8402 		add	r2, r4, r4, lsl #2
 2329 00f2 2A44     		add	r2, r2, r5
 2330 00f4 0021     		movs	r1, #0
ARM GAS  C:\Users\USUARIO\AppData\Local\Temp\ccywmqVe.s 			page 56


 2331 00f6 0191     		str	r1, [sp, #4]
 2332 00f8 0127     		movs	r7, #1
 2333 00fa 0097     		str	r7, [sp]
 2334 00fc DBB2     		uxtb	r3, r3
 2335 00fe D2B2     		uxtb	r2, r2
 2336 0100 3146     		mov	r1, r6
 2337 0102 2846     		mov	r0, r5
 2338 0104 FFF7FEFF 		bl	glcd_rect
 2339              	.LVL355:
 2340 0108 F119     		adds	r1, r6, r7
 2341 010a E819     		adds	r0, r5, r7
 2342 010c 0097     		str	r7, [sp]
 2343 010e 2346     		mov	r3, r4
 2344 0110 03AA     		add	r2, sp, #12
 2345 0112 C9B2     		uxtb	r1, r1
 2346 0114 C0B2     		uxtb	r0, r0
 2347 0116 FFF7FEFF 		bl	glcd_text57
 2348              	.LVL356:
 2349              	.L147:
 758:ks0108.c      ****    }
 759:ks0108.c      ****    glcd_update();
 2350              		.loc 1 759 0
 2351 011a FFF7FEFF 		bl	glcd_update
 2352              	.LVL357:
 760:ks0108.c      **** }
 2353              		.loc 1 760 0
 2354 011e 06B0     		add	sp, sp, #24
 2355              		.cfi_def_cfa_offset 32
 2356              		@ sp needed
 2357 0120 BDE8F087 		pop	{r4, r5, r6, r7, r8, r9, r10, pc}
 2358              	.LVL358:
 2359              	.L152:
 2360              		.align	2
 2361              	.L151:
 2362 0124 14000000 		.word	.LC3
 2363 0128 1C000000 		.word	.LC4
 2364              		.cfi_endproc
 2365              	.LFE79:
 2366              		.size	displayTiempo, .-displayTiempo
 2367              		.section	.text.displayTemperatura,"ax",%progbits
 2368              		.align	2
 2369              		.global	displayTemperatura
 2370              		.thumb
 2371              		.thumb_func
 2372              		.type	displayTemperatura, %function
 2373              	displayTemperatura:
 2374              	.LFB80:
 761:ks0108.c      **** 
 762:ks0108.c      **** void displayTemperatura(int16 digito, uint8 x, uint8 y, short sombreado, short tamano)
 763:ks0108.c      **** {
 2375              		.loc 1 763 0
 2376              		.cfi_startproc
 2377              		@ args = 4, pretend = 0, frame = 16
 2378              		@ frame_needed = 0, uses_anonymous_args = 0
 2379              	.LVL359:
 2380 0000 2DE9F043 		push	{r4, r5, r6, r7, r8, r9, lr}
 2381              		.cfi_def_cfa_offset 28
ARM GAS  C:\Users\USUARIO\AppData\Local\Temp\ccywmqVe.s 			page 57


 2382              		.cfi_offset 4, -28
 2383              		.cfi_offset 5, -24
 2384              		.cfi_offset 6, -20
 2385              		.cfi_offset 7, -16
 2386              		.cfi_offset 8, -12
 2387              		.cfi_offset 9, -8
 2388              		.cfi_offset 14, -4
 2389 0004 87B0     		sub	sp, sp, #28
 2390              		.cfi_def_cfa_offset 56
 2391 0006 0E46     		mov	r6, r1
 2392 0008 1746     		mov	r7, r2
 2393 000a BDF93850 		ldrsh	r5, [sp, #56]
 764:ks0108.c      ****    char voltage[9];
 765:ks0108.c      ****    
 766:ks0108.c      ****    if(sombreado==2)
 2394              		.loc 1 766 0
 2395 000e 022B     		cmp	r3, #2
 2396 0010 1FD1     		bne	.L154
 767:ks0108.c      ****    {
 768:ks0108.c      ****       sprintf(voltage, "%04u", digito);
 2397              		.loc 1 768 0
 2398 0012 0246     		mov	r2, r0
 2399              	.LVL360:
 2400 0014 3F49     		ldr	r1, .L159
 2401              	.LVL361:
 2402 0016 03A8     		add	r0, sp, #12
 2403              	.LVL362:
 2404 0018 FFF7FEFF 		bl	sprintf
 2405              	.LVL363:
 769:ks0108.c      ****       glcd_rect(x, y, x+(tamano*18), y+(tamano*8), YES, ON);
 2406              		.loc 1 769 0
 2407 001c EDB2     		uxtb	r5, r5
 2408 001e 07EBC503 		add	r3, r7, r5, lsl #3
 2409 0022 05EBC501 		add	r1, r5, r5, lsl #3
 2410 0026 4A00     		lsls	r2, r1, #1
 2411 0028 3244     		add	r2, r2, r6
 2412 002a 0121     		movs	r1, #1
 2413 002c 0191     		str	r1, [sp, #4]
 2414 002e 0091     		str	r1, [sp]
 2415 0030 DBB2     		uxtb	r3, r3
 2416 0032 D2B2     		uxtb	r2, r2
 2417 0034 3946     		mov	r1, r7
 2418 0036 3046     		mov	r0, r6
 2419 0038 FFF7FEFF 		bl	glcd_rect
 2420              	.LVL364:
 770:ks0108.c      ****       glcd_text57(x+1, y+1, voltage, tamano, OFF);
 2421              		.loc 1 770 0
 2422 003c 791C     		adds	r1, r7, #1
 2423 003e 701C     		adds	r0, r6, #1
 2424 0040 0023     		movs	r3, #0
 2425 0042 0093     		str	r3, [sp]
 2426 0044 2B46     		mov	r3, r5
 2427 0046 03AA     		add	r2, sp, #12
 2428 0048 C9B2     		uxtb	r1, r1
 2429 004a C0B2     		uxtb	r0, r0
 2430 004c FFF7FEFF 		bl	glcd_text57
 2431              	.LVL365:
ARM GAS  C:\Users\USUARIO\AppData\Local\Temp\ccywmqVe.s 			page 58


 2432 0050 5BE0     		b	.L155
 2433              	.LVL366:
 2434              	.L154:
 2435 0052 1C46     		mov	r4, r3
 771:ks0108.c      ****    }
 772:ks0108.c      ****    else
 773:ks0108.c      ****    {
 774:ks0108.c      ****       sprintf(voltage, "%04u", digito);
 2436              		.loc 1 774 0
 2437 0054 0246     		mov	r2, r0
 2438              	.LVL367:
 2439 0056 2F49     		ldr	r1, .L159
 2440              	.LVL368:
 2441 0058 03A8     		add	r0, sp, #12
 2442              	.LVL369:
 2443 005a FFF7FEFF 		bl	sprintf
 2444              	.LVL370:
 775:ks0108.c      ****    
 776:ks0108.c      ****       if(sombreado==4)
 2445              		.loc 1 776 0
 2446 005e 042C     		cmp	r4, #4
 2447 0060 1DD1     		bne	.L156
 777:ks0108.c      ****       {
 778:ks0108.c      ****          glcd_rect(x, y, x+(tamano*16), y+(tamano*8), YES, OFF);
 2448              		.loc 1 778 0
 2449 0062 5FFA85F8 		uxtb	r8, r5
 2450 0066 07EBC803 		add	r3, r7, r8, lsl #3
 2451 006a 06EB0812 		add	r2, r6, r8, lsl #4
 2452 006e 0021     		movs	r1, #0
 2453 0070 0191     		str	r1, [sp, #4]
 2454 0072 4FF00109 		mov	r9, #1
 2455 0076 CDF80090 		str	r9, [sp]
 2456 007a DBB2     		uxtb	r3, r3
 2457 007c D2B2     		uxtb	r2, r2
 2458 007e 3946     		mov	r1, r7
 2459 0080 3046     		mov	r0, r6
 2460 0082 FFF7FEFF 		bl	glcd_rect
 2461              	.LVL371:
 779:ks0108.c      ****          glcd_text57(x+1, y+1, voltage, tamano, ON);
 2462              		.loc 1 779 0
 2463 0086 07EB0901 		add	r1, r7, r9
 2464 008a 06EB0900 		add	r0, r6, r9
 2465 008e CDF80090 		str	r9, [sp]
 2466 0092 4346     		mov	r3, r8
 2467 0094 03AA     		add	r2, sp, #12
 2468 0096 C9B2     		uxtb	r1, r1
 2469 0098 C0B2     		uxtb	r0, r0
 2470 009a FFF7FEFF 		bl	glcd_text57
 2471              	.LVL372:
 2472              	.L156:
 780:ks0108.c      ****       }
 781:ks0108.c      ****       if(sombreado==1)
 2473              		.loc 1 781 0
 2474 009e 012C     		cmp	r4, #1
 2475 00a0 19D1     		bne	.L157
 782:ks0108.c      ****          {glcd_rect(x, y, x+(tamano*5), y+(tamano*8), YES, ON);glcd_text57(x+1, y+1, voltage, taman
 2476              		.loc 1 782 0
ARM GAS  C:\Users\USUARIO\AppData\Local\Temp\ccywmqVe.s 			page 59


 2477 00a2 5FFA85F8 		uxtb	r8, r5
 2478 00a6 07EBC803 		add	r3, r7, r8, lsl #3
 2479 00aa 08EB8802 		add	r2, r8, r8, lsl #2
 2480 00ae 3244     		add	r2, r2, r6
 2481 00b0 0121     		movs	r1, #1
 2482 00b2 0191     		str	r1, [sp, #4]
 2483 00b4 0091     		str	r1, [sp]
 2484 00b6 DBB2     		uxtb	r3, r3
 2485 00b8 D2B2     		uxtb	r2, r2
 2486 00ba 3946     		mov	r1, r7
 2487 00bc 3046     		mov	r0, r6
 2488 00be FFF7FEFF 		bl	glcd_rect
 2489              	.LVL373:
 2490 00c2 791C     		adds	r1, r7, #1
 2491 00c4 701C     		adds	r0, r6, #1
 2492 00c6 0023     		movs	r3, #0
 2493 00c8 0093     		str	r3, [sp]
 2494 00ca 4346     		mov	r3, r8
 2495 00cc 03AA     		add	r2, sp, #12
 2496 00ce C9B2     		uxtb	r1, r1
 2497 00d0 C0B2     		uxtb	r0, r0
 2498 00d2 FFF7FEFF 		bl	glcd_text57
 2499              	.LVL374:
 2500              	.L157:
 783:ks0108.c      ****       if(sombreado==0)
 2501              		.loc 1 783 0
 2502 00d6 C4B9     		cbnz	r4, .L155
 784:ks0108.c      ****          {glcd_rect(x, y, x+(tamano*5), y+(tamano*8), YES, OFF);glcd_text57(x+1, y+1, voltage, tama
 2503              		.loc 1 784 0
 2504 00d8 EDB2     		uxtb	r5, r5
 2505 00da 07EBC503 		add	r3, r7, r5, lsl #3
 2506 00de 05EB8502 		add	r2, r5, r5, lsl #2
 2507 00e2 3244     		add	r2, r2, r6
 2508 00e4 0021     		movs	r1, #0
 2509 00e6 0191     		str	r1, [sp, #4]
 2510 00e8 0124     		movs	r4, #1
 2511 00ea 0094     		str	r4, [sp]
 2512 00ec DBB2     		uxtb	r3, r3
 2513 00ee D2B2     		uxtb	r2, r2
 2514 00f0 3946     		mov	r1, r7
 2515 00f2 3046     		mov	r0, r6
 2516 00f4 FFF7FEFF 		bl	glcd_rect
 2517              	.LVL375:
 2518 00f8 3919     		adds	r1, r7, r4
 2519 00fa 3019     		adds	r0, r6, r4
 2520 00fc 0094     		str	r4, [sp]
 2521 00fe 2B46     		mov	r3, r5
 2522 0100 03AA     		add	r2, sp, #12
 2523 0102 C9B2     		uxtb	r1, r1
 2524 0104 C0B2     		uxtb	r0, r0
 2525 0106 FFF7FEFF 		bl	glcd_text57
 2526              	.LVL376:
 2527              	.L155:
 785:ks0108.c      ****    }
 786:ks0108.c      ****    glcd_update();
 2528              		.loc 1 786 0
 2529 010a FFF7FEFF 		bl	glcd_update
ARM GAS  C:\Users\USUARIO\AppData\Local\Temp\ccywmqVe.s 			page 60


 2530              	.LVL377:
 787:ks0108.c      **** }
 2531              		.loc 1 787 0
 2532 010e 07B0     		add	sp, sp, #28
 2533              		.cfi_def_cfa_offset 28
 2534              		@ sp needed
 2535 0110 BDE8F083 		pop	{r4, r5, r6, r7, r8, r9, pc}
 2536              	.LVL378:
 2537              	.L160:
 2538              		.align	2
 2539              	.L159:
 2540 0114 08000000 		.word	.LC1
 2541              		.cfi_endproc
 2542              	.LFE80:
 2543              		.size	displayTemperatura, .-displayTemperatura
 2544              		.section	.text.glcd_imagen,"ax",%progbits
 2545              		.align	2
 2546              		.global	glcd_imagen
 2547              		.thumb
 2548              		.thumb_func
 2549              		.type	glcd_imagen, %function
 2550              	glcd_imagen:
 2551              	.LFB81:
 788:ks0108.c      **** 
 789:ks0108.c      **** void glcd_imagen(uint8 x)
 790:ks0108.c      **** {
 2552              		.loc 1 790 0
 2553              		.cfi_startproc
 2554              		@ args = 0, pretend = 0, frame = 0
 2555              		@ frame_needed = 0, uses_anonymous_args = 0
 2556              	.LVL379:
 2557 0000 70B5     		push	{r4, r5, r6, lr}
 2558              		.cfi_def_cfa_offset 16
 2559              		.cfi_offset 4, -16
 2560              		.cfi_offset 5, -12
 2561              		.cfi_offset 6, -8
 2562              		.cfi_offset 14, -4
 791:ks0108.c      ****    char i,j;
 792:ks0108.c      ****    signed char k; 
 793:ks0108.c      ****    
 794:ks0108.c      ****    if(x==5){
 2563              		.loc 1 794 0
 2564 0002 0528     		cmp	r0, #5
 2565 0004 25D1     		bne	.L163
 2566 0006 21E0     		b	.L168
 2567              	.LVL380:
 2568              	.L165:
 795:ks0108.c      ****    for( i = 0 ; i < 64 ; i ++ )
 796:ks0108.c      ****    {  
 797:ks0108.c      ****       for( j = 0 ; j < 16 ; j ++)
 798:ks0108.c      ****       {    
 799:ks0108.c      ****          for(k=7;k>-1;k--)
 800:ks0108.c      ****          {      
 801:ks0108.c      ****             if( bitRead(Horno[i][j] ,7-k )) 
 2569              		.loc 1 801 0
 2570 0008 134B     		ldr	r3, .L172
 2571 000a 03EB0613 		add	r3, r3, r6, lsl #4
ARM GAS  C:\Users\USUARIO\AppData\Local\Temp\ccywmqVe.s 			page 61


 2572 000e 2B44     		add	r3, r3, r5
 2573 0010 93F9E431 		ldrsb	r3, [r3, #484]
 2574 0014 C4F10702 		rsb	r2, r4, #7
 2575 0018 1341     		asrs	r3, r3, r2
 2576 001a 13F0010F 		tst	r3, #1
 2577 001e 06D0     		beq	.L164
 802:ks0108.c      ****                glcd_pixel( j*8+k,i, ON );
 2578              		.loc 1 802 0
 2579 0020 04EBC500 		add	r0, r4, r5, lsl #3
 2580 0024 0122     		movs	r2, #1
 2581 0026 3146     		mov	r1, r6
 2582 0028 C0B2     		uxtb	r0, r0
 2583 002a FFF7FEFF 		bl	glcd_pixel
 2584              	.LVL381:
 2585              	.L164:
 799:ks0108.c      ****          {      
 2586              		.loc 1 799 0 discriminator 2
 2587 002e 013C     		subs	r4, r4, #1
 2588              	.LVL382:
 2589 0030 64B2     		sxtb	r4, r4
 2590              	.LVL383:
 2591 0032 00E0     		b	.L166
 2592              	.LVL384:
 2593              	.L169:
 2594 0034 0724     		movs	r4, #7
 2595              	.L166:
 2596              	.LVL385:
 799:ks0108.c      ****          {      
 2597              		.loc 1 799 0 is_stmt 0 discriminator 1
 2598 0036 002C     		cmp	r4, #0
 2599 0038 E6DA     		bge	.L165
 797:ks0108.c      ****       {    
 2600              		.loc 1 797 0 is_stmt 1 discriminator 2
 2601 003a 0135     		adds	r5, r5, #1
 2602              	.LVL386:
 2603 003c EDB2     		uxtb	r5, r5
 2604              	.LVL387:
 2605 003e 00E0     		b	.L167
 2606              	.LVL388:
 2607              	.L170:
 2608 0040 0025     		movs	r5, #0
 2609              	.L167:
 2610              	.LVL389:
 797:ks0108.c      ****       {    
 2611              		.loc 1 797 0 is_stmt 0 discriminator 1
 2612 0042 0F2D     		cmp	r5, #15
 2613 0044 F6D9     		bls	.L169
 795:ks0108.c      ****    {  
 2614              		.loc 1 795 0 is_stmt 1 discriminator 2
 2615 0046 0136     		adds	r6, r6, #1
 2616              	.LVL390:
 2617 0048 F6B2     		uxtb	r6, r6
 2618              	.LVL391:
 2619 004a 00E0     		b	.L162
 2620              	.LVL392:
 2621              	.L168:
 2622 004c 0026     		movs	r6, #0
ARM GAS  C:\Users\USUARIO\AppData\Local\Temp\ccywmqVe.s 			page 62


 2623              	.LVL393:
 2624              	.L162:
 795:ks0108.c      ****    {  
 2625              		.loc 1 795 0 is_stmt 0 discriminator 1
 2626 004e 3F2E     		cmp	r6, #63
 2627 0050 F6D9     		bls	.L170
 2628              	.LVL394:
 2629              	.L163:
 803:ks0108.c      ****          }  
 804:ks0108.c      ****       }
 805:ks0108.c      ****    }
 806:ks0108.c      ****    }
 807:ks0108.c      ****     glcd_update();   
 2630              		.loc 1 807 0 is_stmt 1
 2631 0052 FFF7FEFF 		bl	glcd_update
 2632              	.LVL395:
 2633 0056 70BD     		pop	{r4, r5, r6, pc}
 2634              	.L173:
 2635              		.align	2
 2636              	.L172:
 2637 0058 00000000 		.word	.LANCHOR0
 2638              		.cfi_endproc
 2639              	.LFE81:
 2640              		.size	glcd_imagen, .-glcd_imagen
 2641              		.section	.text.Limpia,"ax",%progbits
 2642              		.align	2
 2643              		.global	Limpia
 2644              		.thumb
 2645              		.thumb_func
 2646              		.type	Limpia, %function
 2647              	Limpia:
 2648              	.LFB82:
 808:ks0108.c      **** }
 809:ks0108.c      ****    
 810:ks0108.c      **** void Limpia(uint8 x1,uint8 x2,uint8 y){
 2649              		.loc 1 810 0
 2650              		.cfi_startproc
 2651              		@ args = 0, pretend = 0, frame = 0
 2652              		@ frame_needed = 0, uses_anonymous_args = 0
 2653              	.LVL396:
 2654 0000 10B5     		push	{r4, lr}
 2655              		.cfi_def_cfa_offset 8
 2656              		.cfi_offset 4, -8
 2657              		.cfi_offset 14, -4
 2658 0002 82B0     		sub	sp, sp, #8
 2659              		.cfi_def_cfa_offset 16
 2660 0004 1446     		mov	r4, r2
 811:ks0108.c      ****    glcd_rect(x1, y, x2, y+7, YES, OFF);
 2661              		.loc 1 811 0
 2662 0006 D31D     		adds	r3, r2, #7
 2663 0008 0022     		movs	r2, #0
 2664              	.LVL397:
 2665 000a 0192     		str	r2, [sp, #4]
 2666 000c 0122     		movs	r2, #1
 2667 000e 0092     		str	r2, [sp]
 2668 0010 DBB2     		uxtb	r3, r3
 2669 0012 0A46     		mov	r2, r1
ARM GAS  C:\Users\USUARIO\AppData\Local\Temp\ccywmqVe.s 			page 63


 2670 0014 2146     		mov	r1, r4
 2671              	.LVL398:
 2672 0016 FFF7FEFF 		bl	glcd_rect
 2673              	.LVL399:
 812:ks0108.c      **** }
 2674              		.loc 1 812 0
 2675 001a 02B0     		add	sp, sp, #8
 2676              		.cfi_def_cfa_offset 8
 2677              		@ sp needed
 2678 001c 10BD     		pop	{r4, pc}
 2679              		.cfi_endproc
 2680              	.LFE82:
 2681              		.size	Limpia, .-Limpia
 2682 001e 00BF     		.section	.text.displayT,"ax",%progbits
 2683              		.align	2
 2684              		.global	displayT
 2685              		.thumb
 2686              		.thumb_func
 2687              		.type	displayT, %function
 2688              	displayT:
 2689              	.LFB83:
 813:ks0108.c      **** 
 814:ks0108.c      **** void displayT(uint16 adc,uint8 x,uint8 y,uint8 w) {
 2690              		.loc 1 814 0
 2691              		.cfi_startproc
 2692              		@ args = 0, pretend = 0, frame = 16
 2693              		@ frame_needed = 0, uses_anonymous_args = 0
 2694              	.LVL400:
 2695 0000 F0B5     		push	{r4, r5, r6, r7, lr}
 2696              		.cfi_def_cfa_offset 20
 2697              		.cfi_offset 4, -20
 2698              		.cfi_offset 5, -16
 2699              		.cfi_offset 6, -12
 2700              		.cfi_offset 7, -8
 2701              		.cfi_offset 14, -4
 2702 0002 87B0     		sub	sp, sp, #28
 2703              		.cfi_def_cfa_offset 48
 2704 0004 0D46     		mov	r5, r1
 2705 0006 1646     		mov	r6, r2
 2706 0008 1C46     		mov	r4, r3
 815:ks0108.c      ****    char voltage[9];    
 816:ks0108.c      ****    sprintf(voltage, "%04u",adc); // Converts adc to text
 2707              		.loc 1 816 0
 2708 000a 0246     		mov	r2, r0
 2709              	.LVL401:
 2710 000c 0E49     		ldr	r1, .L178
 2711              	.LVL402:
 2712 000e 03A8     		add	r0, sp, #12
 2713              	.LVL403:
 2714 0010 FFF7FEFF 		bl	sprintf
 2715              	.LVL404:
 817:ks0108.c      ****    glcd_rect(x, y, x+(w*27), y+(w*8), YES, OFF);
 2716              		.loc 1 817 0
 2717 0014 06EBC403 		add	r3, r6, r4, lsl #3
 2718 0018 04EB4402 		add	r2, r4, r4, lsl #1
 2719 001c 02EBC202 		add	r2, r2, r2, lsl #3
 2720 0020 2A44     		add	r2, r2, r5
ARM GAS  C:\Users\USUARIO\AppData\Local\Temp\ccywmqVe.s 			page 64


 2721 0022 0021     		movs	r1, #0
 2722 0024 0191     		str	r1, [sp, #4]
 2723 0026 0127     		movs	r7, #1
 2724 0028 0097     		str	r7, [sp]
 2725 002a DBB2     		uxtb	r3, r3
 2726 002c D2B2     		uxtb	r2, r2
 2727 002e 3146     		mov	r1, r6
 2728 0030 2846     		mov	r0, r5
 2729 0032 FFF7FEFF 		bl	glcd_rect
 2730              	.LVL405:
 818:ks0108.c      ****    glcd_text57(x, y, voltage, w, ON);
 2731              		.loc 1 818 0
 2732 0036 0097     		str	r7, [sp]
 2733 0038 2346     		mov	r3, r4
 2734 003a 03AA     		add	r2, sp, #12
 2735 003c 3146     		mov	r1, r6
 2736 003e 2846     		mov	r0, r5
 2737 0040 FFF7FEFF 		bl	glcd_text57
 2738              	.LVL406:
 819:ks0108.c      **** }
 2739              		.loc 1 819 0
 2740 0044 07B0     		add	sp, sp, #28
 2741              		.cfi_def_cfa_offset 20
 2742              		@ sp needed
 2743 0046 F0BD     		pop	{r4, r5, r6, r7, pc}
 2744              	.L179:
 2745              		.align	2
 2746              	.L178:
 2747 0048 08000000 		.word	.LC1
 2748              		.cfi_endproc
 2749              	.LFE83:
 2750              		.size	displayT, .-displayT
 2751              		.global	__aeabi_f2d
 2752              		.section	.text.displayFloat,"ax",%progbits
 2753              		.align	2
 2754              		.global	displayFloat
 2755              		.thumb
 2756              		.thumb_func
 2757              		.type	displayFloat, %function
 2758              	displayFloat:
 2759              	.LFB84:
 820:ks0108.c      **** 
 821:ks0108.c      **** void displayFloat(float adc,uint8 x,uint8 y,uint8 w) {
 2760              		.loc 1 821 0
 2761              		.cfi_startproc
 2762              		@ args = 0, pretend = 0, frame = 16
 2763              		@ frame_needed = 0, uses_anonymous_args = 0
 2764              	.LVL407:
 2765 0000 F0B5     		push	{r4, r5, r6, r7, lr}
 2766              		.cfi_def_cfa_offset 20
 2767              		.cfi_offset 4, -20
 2768              		.cfi_offset 5, -16
 2769              		.cfi_offset 6, -12
 2770              		.cfi_offset 7, -8
 2771              		.cfi_offset 14, -4
 2772 0002 87B0     		sub	sp, sp, #28
 2773              		.cfi_def_cfa_offset 48
ARM GAS  C:\Users\USUARIO\AppData\Local\Temp\ccywmqVe.s 			page 65


 2774 0004 0D46     		mov	r5, r1
 2775 0006 1646     		mov	r6, r2
 2776 0008 1C46     		mov	r4, r3
 822:ks0108.c      ****    char voltage[9];    
 823:ks0108.c      ****    sprintf(voltage, "%03.2f",adc); // Converts adc to text
 2777              		.loc 1 823 0
 2778 000a FFF7FEFF 		bl	__aeabi_f2d
 2779              	.LVL408:
 2780 000e 0246     		mov	r2, r0
 2781 0010 0B46     		mov	r3, r1
 2782 0012 0F49     		ldr	r1, .L182
 2783 0014 03A8     		add	r0, sp, #12
 2784 0016 FFF7FEFF 		bl	sprintf
 2785              	.LVL409:
 824:ks0108.c      ****    glcd_rect(x, y, x+(w*27), y+(w*8), YES, OFF);
 2786              		.loc 1 824 0
 2787 001a 06EBC403 		add	r3, r6, r4, lsl #3
 2788 001e 04EB4402 		add	r2, r4, r4, lsl #1
 2789 0022 02EBC202 		add	r2, r2, r2, lsl #3
 2790 0026 2A44     		add	r2, r2, r5
 2791 0028 0021     		movs	r1, #0
 2792 002a 0191     		str	r1, [sp, #4]
 2793 002c 0127     		movs	r7, #1
 2794 002e 0097     		str	r7, [sp]
 2795 0030 DBB2     		uxtb	r3, r3
 2796 0032 D2B2     		uxtb	r2, r2
 2797 0034 3146     		mov	r1, r6
 2798 0036 2846     		mov	r0, r5
 2799 0038 FFF7FEFF 		bl	glcd_rect
 2800              	.LVL410:
 825:ks0108.c      ****    glcd_text57(x, y, voltage, w, ON);
 2801              		.loc 1 825 0
 2802 003c 0097     		str	r7, [sp]
 2803 003e 2346     		mov	r3, r4
 2804 0040 03AA     		add	r2, sp, #12
 2805 0042 3146     		mov	r1, r6
 2806 0044 2846     		mov	r0, r5
 2807 0046 FFF7FEFF 		bl	glcd_text57
 2808              	.LVL411:
 826:ks0108.c      **** }
 2809              		.loc 1 826 0
 2810 004a 07B0     		add	sp, sp, #28
 2811              		.cfi_def_cfa_offset 20
 2812              		@ sp needed
 2813 004c F0BD     		pop	{r4, r5, r6, r7, pc}
 2814              	.L183:
 2815 004e 00BF     		.align	2
 2816              	.L182:
 2817 0050 20000000 		.word	.LC5
 2818              		.cfi_endproc
 2819              	.LFE84:
 2820              		.size	displayFloat, .-displayFloat
 2821              		.section	.text.displayContrasena,"ax",%progbits
 2822              		.align	2
 2823              		.global	displayContrasena
 2824              		.thumb
 2825              		.thumb_func
ARM GAS  C:\Users\USUARIO\AppData\Local\Temp\ccywmqVe.s 			page 66


 2826              		.type	displayContrasena, %function
 2827              	displayContrasena:
 2828              	.LFB85:
 827:ks0108.c      **** 
 828:ks0108.c      **** void displayContrasena(uint8 digito, uint8 x, uint8 y, uint8 sombreado)
 829:ks0108.c      **** {
 2829              		.loc 1 829 0
 2830              		.cfi_startproc
 2831              		@ args = 0, pretend = 0, frame = 16
 2832              		@ frame_needed = 0, uses_anonymous_args = 0
 2833              	.LVL412:
 2834 0000 70B5     		push	{r4, r5, r6, lr}
 2835              		.cfi_def_cfa_offset 16
 2836              		.cfi_offset 4, -16
 2837              		.cfi_offset 5, -12
 2838              		.cfi_offset 6, -8
 2839              		.cfi_offset 14, -4
 2840 0002 86B0     		sub	sp, sp, #24
 2841              		.cfi_def_cfa_offset 40
 2842 0004 0C46     		mov	r4, r1
 2843 0006 1546     		mov	r5, r2
 2844 0008 1E46     		mov	r6, r3
 830:ks0108.c      ****    char voltage[9];
 831:ks0108.c      ****    sprintf(voltage, "%i", digito);
 2845              		.loc 1 831 0
 2846 000a 0246     		mov	r2, r0
 2847              	.LVL413:
 2848 000c 1B49     		ldr	r1, .L188
 2849              	.LVL414:
 2850 000e 03A8     		add	r0, sp, #12
 2851              	.LVL415:
 2852 0010 FFF7FEFF 		bl	sprintf
 2853              	.LVL416:
 832:ks0108.c      ****    
 833:ks0108.c      ****    if(sombreado==1)
 2854              		.loc 1 833 0
 2855 0014 012E     		cmp	r6, #1
 2856 0016 17D1     		bne	.L185
 834:ks0108.c      ****       {glcd_rect(x, y, x+18, y+24, YES, ON);glcd_text57(x+2, y+1, voltage, 2, OFF);}
 2857              		.loc 1 834 0
 2858 0018 05F11803 		add	r3, r5, #24
 2859 001c 04F11202 		add	r2, r4, #18
 2860 0020 0121     		movs	r1, #1
 2861 0022 0191     		str	r1, [sp, #4]
 2862 0024 0091     		str	r1, [sp]
 2863 0026 DBB2     		uxtb	r3, r3
 2864 0028 D2B2     		uxtb	r2, r2
 2865 002a 2946     		mov	r1, r5
 2866 002c 2046     		mov	r0, r4
 2867 002e FFF7FEFF 		bl	glcd_rect
 2868              	.LVL417:
 2869 0032 691C     		adds	r1, r5, #1
 2870 0034 A01C     		adds	r0, r4, #2
 2871 0036 0023     		movs	r3, #0
 2872 0038 0093     		str	r3, [sp]
 2873 003a 0223     		movs	r3, #2
 2874 003c 03AA     		add	r2, sp, #12
ARM GAS  C:\Users\USUARIO\AppData\Local\Temp\ccywmqVe.s 			page 67


 2875 003e C9B2     		uxtb	r1, r1
 2876 0040 C0B2     		uxtb	r0, r0
 2877 0042 FFF7FEFF 		bl	glcd_text57
 2878              	.LVL418:
 2879 0046 16E0     		b	.L184
 2880              	.L185:
 835:ks0108.c      ****    else   
 836:ks0108.c      ****       {glcd_rect(x, y, x+18, y+24, NO, OFF);glcd_text57(x+2, y+1, voltage, 2, ON);}
 2881              		.loc 1 836 0
 2882 0048 05F11803 		add	r3, r5, #24
 2883 004c 04F11202 		add	r2, r4, #18
 2884 0050 0021     		movs	r1, #0
 2885 0052 0191     		str	r1, [sp, #4]
 2886 0054 0091     		str	r1, [sp]
 2887 0056 DBB2     		uxtb	r3, r3
 2888 0058 D2B2     		uxtb	r2, r2
 2889 005a 2946     		mov	r1, r5
 2890 005c 2046     		mov	r0, r4
 2891 005e FFF7FEFF 		bl	glcd_rect
 2892              	.LVL419:
 2893 0062 691C     		adds	r1, r5, #1
 2894 0064 A01C     		adds	r0, r4, #2
 2895 0066 0123     		movs	r3, #1
 2896 0068 0093     		str	r3, [sp]
 2897 006a 0223     		movs	r3, #2
 2898 006c 03AA     		add	r2, sp, #12
 2899 006e C9B2     		uxtb	r1, r1
 2900 0070 C0B2     		uxtb	r0, r0
 2901 0072 FFF7FEFF 		bl	glcd_text57
 2902              	.LVL420:
 2903              	.L184:
 837:ks0108.c      **** 
 838:ks0108.c      **** }
 2904              		.loc 1 838 0
 2905 0076 06B0     		add	sp, sp, #24
 2906              		.cfi_def_cfa_offset 16
 2907              		@ sp needed
 2908 0078 70BD     		pop	{r4, r5, r6, pc}
 2909              	.L189:
 2910 007a 00BF     		.align	2
 2911              	.L188:
 2912 007c 28000000 		.word	.LC6
 2913              		.cfi_endproc
 2914              	.LFE85:
 2915              		.size	displayContrasena, .-displayContrasena
 2916              		.section	.text.displayTiempos,"ax",%progbits
 2917              		.align	2
 2918              		.global	displayTiempos
 2919              		.thumb
 2920              		.thumb_func
 2921              		.type	displayTiempos, %function
 2922              	displayTiempos:
 2923              	.LFB86:
 839:ks0108.c      **** 
 840:ks0108.c      **** void displayTiempos(uint8 digito, uint8 x, uint8 y, uint8 sombreado, uint8 tamano)
 841:ks0108.c      **** {
 2924              		.loc 1 841 0
ARM GAS  C:\Users\USUARIO\AppData\Local\Temp\ccywmqVe.s 			page 68


 2925              		.cfi_startproc
 2926              		@ args = 4, pretend = 0, frame = 16
 2927              		@ frame_needed = 0, uses_anonymous_args = 0
 2928              	.LVL421:
 2929 0000 2DE9F043 		push	{r4, r5, r6, r7, r8, r9, lr}
 2930              		.cfi_def_cfa_offset 28
 2931              		.cfi_offset 4, -28
 2932              		.cfi_offset 5, -24
 2933              		.cfi_offset 6, -20
 2934              		.cfi_offset 7, -16
 2935              		.cfi_offset 8, -12
 2936              		.cfi_offset 9, -8
 2937              		.cfi_offset 14, -4
 2938 0004 87B0     		sub	sp, sp, #28
 2939              		.cfi_def_cfa_offset 56
 2940 0006 8046     		mov	r8, r0
 2941 0008 0D46     		mov	r5, r1
 2942 000a 1646     		mov	r6, r2
 2943 000c 9DF83870 		ldrb	r7, [sp, #56]	@ zero_extendqisi2
 842:ks0108.c      ****    char voltage[9];
 843:ks0108.c      ****    
 844:ks0108.c      ****    if(sombreado==2)
 2944              		.loc 1 844 0
 2945 0010 022B     		cmp	r3, #2
 2946 0012 1ED1     		bne	.L191
 845:ks0108.c      ****    {
 846:ks0108.c      ****       sprintf(voltage, "%02d", digito);
 2947              		.loc 1 846 0
 2948 0014 0246     		mov	r2, r0
 2949              	.LVL422:
 2950 0016 4049     		ldr	r1, .L196
 2951              	.LVL423:
 2952 0018 03A8     		add	r0, sp, #12
 2953              	.LVL424:
 2954 001a FFF7FEFF 		bl	sprintf
 2955              	.LVL425:
 847:ks0108.c      ****       glcd_rect(x, y, x+(tamano*12), y+(tamano*8), YES, OFF);
 2956              		.loc 1 847 0
 2957 001e 06EBC703 		add	r3, r6, r7, lsl #3
 2958 0022 07EB4701 		add	r1, r7, r7, lsl #1
 2959 0026 8A00     		lsls	r2, r1, #2
 2960 0028 2A44     		add	r2, r2, r5
 2961 002a 0021     		movs	r1, #0
 2962 002c 0191     		str	r1, [sp, #4]
 2963 002e 0124     		movs	r4, #1
 2964 0030 0094     		str	r4, [sp]
 2965 0032 DBB2     		uxtb	r3, r3
 2966 0034 D2B2     		uxtb	r2, r2
 2967 0036 3146     		mov	r1, r6
 2968 0038 2846     		mov	r0, r5
 2969 003a FFF7FEFF 		bl	glcd_rect
 2970              	.LVL426:
 848:ks0108.c      ****       glcd_text57(x+1, y+1, voltage, tamano, ON);
 2971              		.loc 1 848 0
 2972 003e 3119     		adds	r1, r6, r4
 2973 0040 2819     		adds	r0, r5, r4
 2974 0042 0094     		str	r4, [sp]
ARM GAS  C:\Users\USUARIO\AppData\Local\Temp\ccywmqVe.s 			page 69


 2975 0044 3B46     		mov	r3, r7
 2976 0046 03AA     		add	r2, sp, #12
 2977 0048 C9B2     		uxtb	r1, r1
 2978 004a C0B2     		uxtb	r0, r0
 2979 004c FFF7FEFF 		bl	glcd_text57
 2980              	.LVL427:
 2981 0050 5DE0     		b	.L192
 2982              	.LVL428:
 2983              	.L191:
 2984 0052 1C46     		mov	r4, r3
 849:ks0108.c      ****    }
 850:ks0108.c      ****    else
 851:ks0108.c      ****    {
 852:ks0108.c      ****       if(sombreado==3)
 2985              		.loc 1 852 0
 2986 0054 032B     		cmp	r3, #3
 2987 0056 22D1     		bne	.L193
 853:ks0108.c      ****       {
 854:ks0108.c      ****          sprintf(voltage, "%03u", digito);
 2988              		.loc 1 854 0
 2989 0058 0246     		mov	r2, r0
 2990              	.LVL429:
 2991 005a 3049     		ldr	r1, .L196+4
 2992              	.LVL430:
 2993 005c 03A8     		add	r0, sp, #12
 2994              	.LVL431:
 2995 005e FFF7FEFF 		bl	sprintf
 2996              	.LVL432:
 855:ks0108.c      ****          glcd_rect(x, y, x+(tamano*18), y+(tamano*8), YES, OFF);
 2997              		.loc 1 855 0
 2998 0062 06EBC703 		add	r3, r6, r7, lsl #3
 2999 0066 07EBC701 		add	r1, r7, r7, lsl #3
 3000 006a 4A00     		lsls	r2, r1, #1
 3001 006c 2A44     		add	r2, r2, r5
 3002 006e 0021     		movs	r1, #0
 3003 0070 0191     		str	r1, [sp, #4]
 3004 0072 4FF00109 		mov	r9, #1
 3005 0076 CDF80090 		str	r9, [sp]
 3006 007a DBB2     		uxtb	r3, r3
 3007 007c D2B2     		uxtb	r2, r2
 3008 007e 3146     		mov	r1, r6
 3009 0080 2846     		mov	r0, r5
 3010 0082 FFF7FEFF 		bl	glcd_rect
 3011              	.LVL433:
 856:ks0108.c      ****          glcd_text57(x+1, y+1, voltage, tamano, ON);
 3012              		.loc 1 856 0
 3013 0086 06EB0901 		add	r1, r6, r9
 3014 008a 05EB0900 		add	r0, r5, r9
 3015 008e CDF80090 		str	r9, [sp]
 3016 0092 3B46     		mov	r3, r7
 3017 0094 03AA     		add	r2, sp, #12
 3018 0096 C9B2     		uxtb	r1, r1
 3019 0098 C0B2     		uxtb	r0, r0
 3020 009a FFF7FEFF 		bl	glcd_text57
 3021              	.LVL434:
 3022              	.L193:
 857:ks0108.c      ****       }
ARM GAS  C:\Users\USUARIO\AppData\Local\Temp\ccywmqVe.s 			page 70


 858:ks0108.c      ****       sprintf(voltage, "%u", digito);
 3023              		.loc 1 858 0
 3024 009e 4246     		mov	r2, r8
 3025 00a0 1F49     		ldr	r1, .L196+8
 3026 00a2 03A8     		add	r0, sp, #12
 3027 00a4 FFF7FEFF 		bl	sprintf
 3028              	.LVL435:
 859:ks0108.c      ****       if(sombreado==1)
 3029              		.loc 1 859 0
 3030 00a8 012C     		cmp	r4, #1
 3031 00aa 17D1     		bne	.L194
 860:ks0108.c      ****          {glcd_rect(x, y, x+(tamano*5), y+(tamano*8), YES, ON);glcd_text57(x+1, y+1, voltage, taman
 3032              		.loc 1 860 0
 3033 00ac 06EBC703 		add	r3, r6, r7, lsl #3
 3034 00b0 07EB8702 		add	r2, r7, r7, lsl #2
 3035 00b4 2A44     		add	r2, r2, r5
 3036 00b6 0121     		movs	r1, #1
 3037 00b8 0191     		str	r1, [sp, #4]
 3038 00ba 0091     		str	r1, [sp]
 3039 00bc DBB2     		uxtb	r3, r3
 3040 00be D2B2     		uxtb	r2, r2
 3041 00c0 3146     		mov	r1, r6
 3042 00c2 2846     		mov	r0, r5
 3043 00c4 FFF7FEFF 		bl	glcd_rect
 3044              	.LVL436:
 3045 00c8 711C     		adds	r1, r6, #1
 3046 00ca 681C     		adds	r0, r5, #1
 3047 00cc 0023     		movs	r3, #0
 3048 00ce 0093     		str	r3, [sp]
 3049 00d0 3B46     		mov	r3, r7
 3050 00d2 03AA     		add	r2, sp, #12
 3051 00d4 C9B2     		uxtb	r1, r1
 3052 00d6 C0B2     		uxtb	r0, r0
 3053 00d8 FFF7FEFF 		bl	glcd_text57
 3054              	.LVL437:
 3055              	.L194:
 861:ks0108.c      ****       if(sombreado==0)
 3056              		.loc 1 861 0
 3057 00dc BCB9     		cbnz	r4, .L192
 862:ks0108.c      ****          {glcd_rect(x, y, x+(tamano*5), y+(tamano*8), YES, OFF);glcd_text57(x+1, y+1, voltage, tama
 3058              		.loc 1 862 0
 3059 00de 06EBC703 		add	r3, r6, r7, lsl #3
 3060 00e2 07EB8702 		add	r2, r7, r7, lsl #2
 3061 00e6 2A44     		add	r2, r2, r5
 3062 00e8 0021     		movs	r1, #0
 3063 00ea 0191     		str	r1, [sp, #4]
 3064 00ec 0124     		movs	r4, #1
 3065 00ee 0094     		str	r4, [sp]
 3066 00f0 DBB2     		uxtb	r3, r3
 3067 00f2 D2B2     		uxtb	r2, r2
 3068 00f4 3146     		mov	r1, r6
 3069 00f6 2846     		mov	r0, r5
 3070 00f8 FFF7FEFF 		bl	glcd_rect
 3071              	.LVL438:
 3072 00fc 3119     		adds	r1, r6, r4
 3073 00fe 2819     		adds	r0, r5, r4
 3074 0100 0094     		str	r4, [sp]
ARM GAS  C:\Users\USUARIO\AppData\Local\Temp\ccywmqVe.s 			page 71


 3075 0102 3B46     		mov	r3, r7
 3076 0104 03AA     		add	r2, sp, #12
 3077 0106 C9B2     		uxtb	r1, r1
 3078 0108 C0B2     		uxtb	r0, r0
 3079 010a FFF7FEFF 		bl	glcd_text57
 3080              	.LVL439:
 3081              	.L192:
 863:ks0108.c      ****    }
 864:ks0108.c      ****    glcd_update();
 3082              		.loc 1 864 0
 3083 010e FFF7FEFF 		bl	glcd_update
 3084              	.LVL440:
 865:ks0108.c      **** }
 3085              		.loc 1 865 0
 3086 0112 07B0     		add	sp, sp, #28
 3087              		.cfi_def_cfa_offset 28
 3088              		@ sp needed
 3089 0114 BDE8F083 		pop	{r4, r5, r6, r7, r8, r9, pc}
 3090              	.LVL441:
 3091              	.L197:
 3092              		.align	2
 3093              	.L196:
 3094 0118 2C000000 		.word	.LC7
 3095 011c 14000000 		.word	.LC3
 3096 0120 1C000000 		.word	.LC4
 3097              		.cfi_endproc
 3098              	.LFE86:
 3099              		.size	displayTiempos, .-displayTiempos
 3100              		.global	Horno
 3101              		.global	FONT2
 3102              		.global	FONT
 3103              		.comm	displayData,1024,4
 3104              		.comm	Menus,30,4
 3105              		.section	.rodata
 3106              		.align	2
 3107              		.set	.LANCHOR0,. + 0
 3108              		.type	FONT, %object
 3109              		.size	FONT, 255
 3110              	FONT:
 3111 0000 00       		.byte	0
 3112 0001 00       		.byte	0
 3113 0002 00       		.byte	0
 3114 0003 00       		.byte	0
 3115 0004 00       		.byte	0
 3116 0005 00       		.byte	0
 3117 0006 00       		.byte	0
 3118 0007 5F       		.byte	95
 3119 0008 00       		.byte	0
 3120 0009 00       		.byte	0
 3121 000a 00       		.byte	0
 3122 000b 03       		.byte	3
 3123 000c 00       		.byte	0
 3124 000d 03       		.byte	3
 3125 000e 00       		.byte	0
 3126 000f 14       		.byte	20
 3127 0010 3E       		.byte	62
 3128 0011 14       		.byte	20
ARM GAS  C:\Users\USUARIO\AppData\Local\Temp\ccywmqVe.s 			page 72


 3129 0012 3E       		.byte	62
 3130 0013 14       		.byte	20
 3131 0014 24       		.byte	36
 3132 0015 2A       		.byte	42
 3133 0016 7F       		.byte	127
 3134 0017 2A       		.byte	42
 3135 0018 12       		.byte	18
 3136 0019 43       		.byte	67
 3137 001a 33       		.byte	51
 3138 001b 08       		.byte	8
 3139 001c 66       		.byte	102
 3140 001d 61       		.byte	97
 3141 001e 36       		.byte	54
 3142 001f 49       		.byte	73
 3143 0020 55       		.byte	85
 3144 0021 22       		.byte	34
 3145 0022 50       		.byte	80
 3146 0023 00       		.byte	0
 3147 0024 05       		.byte	5
 3148 0025 03       		.byte	3
 3149 0026 00       		.byte	0
 3150 0027 00       		.byte	0
 3151 0028 00       		.byte	0
 3152 0029 1C       		.byte	28
 3153 002a 22       		.byte	34
 3154 002b 41       		.byte	65
 3155 002c 00       		.byte	0
 3156 002d 00       		.byte	0
 3157 002e 41       		.byte	65
 3158 002f 22       		.byte	34
 3159 0030 1C       		.byte	28
 3160 0031 00       		.byte	0
 3161 0032 14       		.byte	20
 3162 0033 08       		.byte	8
 3163 0034 3E       		.byte	62
 3164 0035 08       		.byte	8
 3165 0036 14       		.byte	20
 3166 0037 08       		.byte	8
 3167 0038 08       		.byte	8
 3168 0039 3E       		.byte	62
 3169 003a 08       		.byte	8
 3170 003b 08       		.byte	8
 3171 003c 00       		.byte	0
 3172 003d 50       		.byte	80
 3173 003e 30       		.byte	48
 3174 003f 00       		.byte	0
 3175 0040 00       		.byte	0
 3176 0041 08       		.byte	8
 3177 0042 08       		.byte	8
 3178 0043 08       		.byte	8
 3179 0044 08       		.byte	8
 3180 0045 08       		.byte	8
 3181 0046 00       		.byte	0
 3182 0047 60       		.byte	96
 3183 0048 60       		.byte	96
 3184 0049 00       		.byte	0
 3185 004a 00       		.byte	0
ARM GAS  C:\Users\USUARIO\AppData\Local\Temp\ccywmqVe.s 			page 73


 3186 004b 20       		.byte	32
 3187 004c 10       		.byte	16
 3188 004d 08       		.byte	8
 3189 004e 04       		.byte	4
 3190 004f 02       		.byte	2
 3191 0050 3E       		.byte	62
 3192 0051 51       		.byte	81
 3193 0052 49       		.byte	73
 3194 0053 45       		.byte	69
 3195 0054 3E       		.byte	62
 3196 0055 00       		.byte	0
 3197 0056 04       		.byte	4
 3198 0057 02       		.byte	2
 3199 0058 7F       		.byte	127
 3200 0059 00       		.byte	0
 3201 005a 42       		.byte	66
 3202 005b 61       		.byte	97
 3203 005c 51       		.byte	81
 3204 005d 49       		.byte	73
 3205 005e 46       		.byte	70
 3206 005f 22       		.byte	34
 3207 0060 41       		.byte	65
 3208 0061 49       		.byte	73
 3209 0062 49       		.byte	73
 3210 0063 36       		.byte	54
 3211 0064 18       		.byte	24
 3212 0065 14       		.byte	20
 3213 0066 12       		.byte	18
 3214 0067 7F       		.byte	127
 3215 0068 10       		.byte	16
 3216 0069 27       		.byte	39
 3217 006a 45       		.byte	69
 3218 006b 45       		.byte	69
 3219 006c 45       		.byte	69
 3220 006d 39       		.byte	57
 3221 006e 3E       		.byte	62
 3222 006f 49       		.byte	73
 3223 0070 49       		.byte	73
 3224 0071 49       		.byte	73
 3225 0072 32       		.byte	50
 3226 0073 01       		.byte	1
 3227 0074 01       		.byte	1
 3228 0075 71       		.byte	113
 3229 0076 09       		.byte	9
 3230 0077 07       		.byte	7
 3231 0078 36       		.byte	54
 3232 0079 49       		.byte	73
 3233 007a 49       		.byte	73
 3234 007b 49       		.byte	73
 3235 007c 36       		.byte	54
 3236 007d 26       		.byte	38
 3237 007e 49       		.byte	73
 3238 007f 49       		.byte	73
 3239 0080 49       		.byte	73
 3240 0081 3E       		.byte	62
 3241 0082 00       		.byte	0
 3242 0083 36       		.byte	54
ARM GAS  C:\Users\USUARIO\AppData\Local\Temp\ccywmqVe.s 			page 74


 3243 0084 36       		.byte	54
 3244 0085 00       		.byte	0
 3245 0086 00       		.byte	0
 3246 0087 00       		.byte	0
 3247 0088 56       		.byte	86
 3248 0089 36       		.byte	54
 3249 008a 00       		.byte	0
 3250 008b 00       		.byte	0
 3251 008c 08       		.byte	8
 3252 008d 14       		.byte	20
 3253 008e 22       		.byte	34
 3254 008f 41       		.byte	65
 3255 0090 00       		.byte	0
 3256 0091 14       		.byte	20
 3257 0092 14       		.byte	20
 3258 0093 14       		.byte	20
 3259 0094 14       		.byte	20
 3260 0095 14       		.byte	20
 3261 0096 00       		.byte	0
 3262 0097 41       		.byte	65
 3263 0098 22       		.byte	34
 3264 0099 14       		.byte	20
 3265 009a 08       		.byte	8
 3266 009b 02       		.byte	2
 3267 009c 01       		.byte	1
 3268 009d 51       		.byte	81
 3269 009e 09       		.byte	9
 3270 009f 06       		.byte	6
 3271 00a0 3E       		.byte	62
 3272 00a1 41       		.byte	65
 3273 00a2 59       		.byte	89
 3274 00a3 55       		.byte	85
 3275 00a4 5E       		.byte	94
 3276 00a5 7E       		.byte	126
 3277 00a6 09       		.byte	9
 3278 00a7 09       		.byte	9
 3279 00a8 09       		.byte	9
 3280 00a9 7E       		.byte	126
 3281 00aa 7F       		.byte	127
 3282 00ab 49       		.byte	73
 3283 00ac 49       		.byte	73
 3284 00ad 49       		.byte	73
 3285 00ae 36       		.byte	54
 3286 00af 3E       		.byte	62
 3287 00b0 41       		.byte	65
 3288 00b1 41       		.byte	65
 3289 00b2 41       		.byte	65
 3290 00b3 22       		.byte	34
 3291 00b4 7F       		.byte	127
 3292 00b5 41       		.byte	65
 3293 00b6 41       		.byte	65
 3294 00b7 41       		.byte	65
 3295 00b8 3E       		.byte	62
 3296 00b9 7F       		.byte	127
 3297 00ba 49       		.byte	73
 3298 00bb 49       		.byte	73
 3299 00bc 49       		.byte	73
ARM GAS  C:\Users\USUARIO\AppData\Local\Temp\ccywmqVe.s 			page 75


 3300 00bd 41       		.byte	65
 3301 00be 7F       		.byte	127
 3302 00bf 09       		.byte	9
 3303 00c0 09       		.byte	9
 3304 00c1 09       		.byte	9
 3305 00c2 01       		.byte	1
 3306 00c3 3E       		.byte	62
 3307 00c4 41       		.byte	65
 3308 00c5 41       		.byte	65
 3309 00c6 49       		.byte	73
 3310 00c7 3A       		.byte	58
 3311 00c8 7F       		.byte	127
 3312 00c9 08       		.byte	8
 3313 00ca 08       		.byte	8
 3314 00cb 08       		.byte	8
 3315 00cc 7F       		.byte	127
 3316 00cd 00       		.byte	0
 3317 00ce 41       		.byte	65
 3318 00cf 7F       		.byte	127
 3319 00d0 41       		.byte	65
 3320 00d1 00       		.byte	0
 3321 00d2 30       		.byte	48
 3322 00d3 40       		.byte	64
 3323 00d4 40       		.byte	64
 3324 00d5 40       		.byte	64
 3325 00d6 3F       		.byte	63
 3326 00d7 7F       		.byte	127
 3327 00d8 08       		.byte	8
 3328 00d9 14       		.byte	20
 3329 00da 22       		.byte	34
 3330 00db 41       		.byte	65
 3331 00dc 7F       		.byte	127
 3332 00dd 40       		.byte	64
 3333 00de 40       		.byte	64
 3334 00df 40       		.byte	64
 3335 00e0 40       		.byte	64
 3336 00e1 7F       		.byte	127
 3337 00e2 02       		.byte	2
 3338 00e3 0C       		.byte	12
 3339 00e4 02       		.byte	2
 3340 00e5 7F       		.byte	127
 3341 00e6 7F       		.byte	127
 3342 00e7 02       		.byte	2
 3343 00e8 04       		.byte	4
 3344 00e9 08       		.byte	8
 3345 00ea 7F       		.byte	127
 3346 00eb 3E       		.byte	62
 3347 00ec 41       		.byte	65
 3348 00ed 41       		.byte	65
 3349 00ee 41       		.byte	65
 3350 00ef 3E       		.byte	62
 3351 00f0 7F       		.byte	127
 3352 00f1 09       		.byte	9
 3353 00f2 09       		.byte	9
 3354 00f3 09       		.byte	9
 3355 00f4 06       		.byte	6
 3356 00f5 1E       		.byte	30
ARM GAS  C:\Users\USUARIO\AppData\Local\Temp\ccywmqVe.s 			page 76


 3357 00f6 21       		.byte	33
 3358 00f7 21       		.byte	33
 3359 00f8 21       		.byte	33
 3360 00f9 5E       		.byte	94
 3361 00fa 7F       		.byte	127
 3362 00fb 09       		.byte	9
 3363 00fc 09       		.byte	9
 3364 00fd 09       		.byte	9
 3365 00fe 76       		.byte	118
 3366 00ff 00       		.space	1
 3367              		.type	FONT2, %object
 3368              		.size	FONT2, 225
 3369              	FONT2:
 3370 0100 26       		.byte	38
 3371 0101 49       		.byte	73
 3372 0102 49       		.byte	73
 3373 0103 49       		.byte	73
 3374 0104 32       		.byte	50
 3375 0105 01       		.byte	1
 3376 0106 01       		.byte	1
 3377 0107 7F       		.byte	127
 3378 0108 01       		.byte	1
 3379 0109 01       		.byte	1
 3380 010a 3F       		.byte	63
 3381 010b 40       		.byte	64
 3382 010c 40       		.byte	64
 3383 010d 40       		.byte	64
 3384 010e 3F       		.byte	63
 3385 010f 1F       		.byte	31
 3386 0110 20       		.byte	32
 3387 0111 40       		.byte	64
 3388 0112 20       		.byte	32
 3389 0113 1F       		.byte	31
 3390 0114 7F       		.byte	127
 3391 0115 20       		.byte	32
 3392 0116 10       		.byte	16
 3393 0117 20       		.byte	32
 3394 0118 7F       		.byte	127
 3395 0119 41       		.byte	65
 3396 011a 22       		.byte	34
 3397 011b 1C       		.byte	28
 3398 011c 22       		.byte	34
 3399 011d 41       		.byte	65
 3400 011e 07       		.byte	7
 3401 011f 08       		.byte	8
 3402 0120 70       		.byte	112
 3403 0121 08       		.byte	8
 3404 0122 07       		.byte	7
 3405 0123 61       		.byte	97
 3406 0124 51       		.byte	81
 3407 0125 49       		.byte	73
 3408 0126 45       		.byte	69
 3409 0127 43       		.byte	67
 3410 0128 00       		.byte	0
 3411 0129 7F       		.byte	127
 3412 012a 41       		.byte	65
 3413 012b 00       		.byte	0
ARM GAS  C:\Users\USUARIO\AppData\Local\Temp\ccywmqVe.s 			page 77


 3414 012c 00       		.byte	0
 3415 012d 02       		.byte	2
 3416 012e 04       		.byte	4
 3417 012f 08       		.byte	8
 3418 0130 10       		.byte	16
 3419 0131 20       		.byte	32
 3420 0132 04       		.byte	4
 3421 0133 02       		.byte	2
 3422 0134 01       		.byte	1
 3423 0135 02       		.byte	2
 3424 0136 04       		.byte	4
 3425 0137 40       		.byte	64
 3426 0138 40       		.byte	64
 3427 0139 40       		.byte	64
 3428 013a 40       		.byte	64
 3429 013b 40       		.byte	64
 3430 013c 00       		.byte	0
 3431 013d 01       		.byte	1
 3432 013e 02       		.byte	2
 3433 013f 04       		.byte	4
 3434 0140 00       		.byte	0
 3435 0141 00       		.byte	0
 3436 0142 01       		.byte	1
 3437 0143 02       		.byte	2
 3438 0144 04       		.byte	4
 3439 0145 00       		.byte	0
 3440 0146 20       		.byte	32
 3441 0147 54       		.byte	84
 3442 0148 54       		.byte	84
 3443 0149 54       		.byte	84
 3444 014a 78       		.byte	120
 3445 014b 7F       		.byte	127
 3446 014c 44       		.byte	68
 3447 014d 44       		.byte	68
 3448 014e 44       		.byte	68
 3449 014f 38       		.byte	56
 3450 0150 38       		.byte	56
 3451 0151 44       		.byte	68
 3452 0152 44       		.byte	68
 3453 0153 44       		.byte	68
 3454 0154 44       		.byte	68
 3455 0155 38       		.byte	56
 3456 0156 44       		.byte	68
 3457 0157 44       		.byte	68
 3458 0158 44       		.byte	68
 3459 0159 7F       		.byte	127
 3460 015a 38       		.byte	56
 3461 015b 54       		.byte	84
 3462 015c 54       		.byte	84
 3463 015d 54       		.byte	84
 3464 015e 18       		.byte	24
 3465 015f 04       		.byte	4
 3466 0160 04       		.byte	4
 3467 0161 7E       		.byte	126
 3468 0162 05       		.byte	5
 3469 0163 05       		.byte	5
 3470 0164 08       		.byte	8
ARM GAS  C:\Users\USUARIO\AppData\Local\Temp\ccywmqVe.s 			page 78


 3471 0165 54       		.byte	84
 3472 0166 54       		.byte	84
 3473 0167 54       		.byte	84
 3474 0168 3C       		.byte	60
 3475 0169 7F       		.byte	127
 3476 016a 08       		.byte	8
 3477 016b 04       		.byte	4
 3478 016c 04       		.byte	4
 3479 016d 78       		.byte	120
 3480 016e 00       		.byte	0
 3481 016f 44       		.byte	68
 3482 0170 7D       		.byte	125
 3483 0171 40       		.byte	64
 3484 0172 00       		.byte	0
 3485 0173 20       		.byte	32
 3486 0174 40       		.byte	64
 3487 0175 44       		.byte	68
 3488 0176 3D       		.byte	61
 3489 0177 00       		.byte	0
 3490 0178 7F       		.byte	127
 3491 0179 10       		.byte	16
 3492 017a 28       		.byte	40
 3493 017b 44       		.byte	68
 3494 017c 00       		.byte	0
 3495 017d 00       		.byte	0
 3496 017e 41       		.byte	65
 3497 017f 7F       		.byte	127
 3498 0180 40       		.byte	64
 3499 0181 00       		.byte	0
 3500 0182 7C       		.byte	124
 3501 0183 04       		.byte	4
 3502 0184 78       		.byte	120
 3503 0185 04       		.byte	4
 3504 0186 78       		.byte	120
 3505 0187 7C       		.byte	124
 3506 0188 08       		.byte	8
 3507 0189 04       		.byte	4
 3508 018a 04       		.byte	4
 3509 018b 78       		.byte	120
 3510 018c 38       		.byte	56
 3511 018d 44       		.byte	68
 3512 018e 44       		.byte	68
 3513 018f 44       		.byte	68
 3514 0190 38       		.byte	56
 3515 0191 7C       		.byte	124
 3516 0192 14       		.byte	20
 3517 0193 14       		.byte	20
 3518 0194 14       		.byte	20
 3519 0195 08       		.byte	8
 3520 0196 08       		.byte	8
 3521 0197 14       		.byte	20
 3522 0198 14       		.byte	20
 3523 0199 14       		.byte	20
 3524 019a 7C       		.byte	124
 3525 019b 00       		.byte	0
 3526 019c 7C       		.byte	124
 3527 019d 08       		.byte	8
ARM GAS  C:\Users\USUARIO\AppData\Local\Temp\ccywmqVe.s 			page 79


 3528 019e 04       		.byte	4
 3529 019f 04       		.byte	4
 3530 01a0 48       		.byte	72
 3531 01a1 54       		.byte	84
 3532 01a2 54       		.byte	84
 3533 01a3 54       		.byte	84
 3534 01a4 20       		.byte	32
 3535 01a5 04       		.byte	4
 3536 01a6 04       		.byte	4
 3537 01a7 3F       		.byte	63
 3538 01a8 44       		.byte	68
 3539 01a9 44       		.byte	68
 3540 01aa 3C       		.byte	60
 3541 01ab 40       		.byte	64
 3542 01ac 40       		.byte	64
 3543 01ad 20       		.byte	32
 3544 01ae 7C       		.byte	124
 3545 01af 1C       		.byte	28
 3546 01b0 20       		.byte	32
 3547 01b1 40       		.byte	64
 3548 01b2 20       		.byte	32
 3549 01b3 1C       		.byte	28
 3550 01b4 3C       		.byte	60
 3551 01b5 40       		.byte	64
 3552 01b6 30       		.byte	48
 3553 01b7 40       		.byte	64
 3554 01b8 3C       		.byte	60
 3555 01b9 44       		.byte	68
 3556 01ba 28       		.byte	40
 3557 01bb 10       		.byte	16
 3558 01bc 28       		.byte	40
 3559 01bd 44       		.byte	68
 3560 01be 0C       		.byte	12
 3561 01bf 50       		.byte	80
 3562 01c0 50       		.byte	80
 3563 01c1 50       		.byte	80
 3564 01c2 3C       		.byte	60
 3565 01c3 44       		.byte	68
 3566 01c4 64       		.byte	100
 3567 01c5 54       		.byte	84
 3568 01c6 4C       		.byte	76
 3569 01c7 44       		.byte	68
 3570 01c8 00       		.byte	0
 3571 01c9 08       		.byte	8
 3572 01ca 36       		.byte	54
 3573 01cb 41       		.byte	65
 3574 01cc 41       		.byte	65
 3575 01cd 00       		.byte	0
 3576 01ce 00       		.byte	0
 3577 01cf 7F       		.byte	127
 3578 01d0 00       		.byte	0
 3579 01d1 00       		.byte	0
 3580 01d2 41       		.byte	65
 3581 01d3 41       		.byte	65
 3582 01d4 36       		.byte	54
 3583 01d5 08       		.byte	8
 3584 01d6 00       		.byte	0
ARM GAS  C:\Users\USUARIO\AppData\Local\Temp\ccywmqVe.s 			page 80


 3585 01d7 02       		.byte	2
 3586 01d8 01       		.byte	1
 3587 01d9 02       		.byte	2
 3588 01da 04       		.byte	4
 3589 01db 02       		.byte	2
 3590 01dc 00000000 		.space	5
 3590      00
 3591 01e1 000000   		.space	3
 3592              		.type	Horno, %object
 3593              		.size	Horno, 1024
 3594              	Horno:
 3595 01e4 00       		.byte	0
 3596 01e5 00       		.byte	0
 3597 01e6 00       		.byte	0
 3598 01e7 00       		.byte	0
 3599 01e8 00       		.byte	0
 3600 01e9 00       		.byte	0
 3601 01ea 00       		.byte	0
 3602 01eb 00       		.byte	0
 3603 01ec 00       		.byte	0
 3604 01ed 00       		.byte	0
 3605 01ee 00       		.byte	0
 3606 01ef 00       		.byte	0
 3607 01f0 00       		.byte	0
 3608 01f1 00       		.byte	0
 3609 01f2 00       		.byte	0
 3610 01f3 00       		.byte	0
 3611 01f4 01       		.byte	1
 3612 01f5 C0       		.byte	-64
 3613 01f6 00       		.byte	0
 3614 01f7 00       		.byte	0
 3615 01f8 00       		.byte	0
 3616 01f9 00       		.byte	0
 3617 01fa 00       		.byte	0
 3618 01fb 00       		.byte	0
 3619 01fc 00       		.byte	0
 3620 01fd 00       		.byte	0
 3621 01fe 00       		.byte	0
 3622 01ff 00       		.byte	0
 3623 0200 00       		.byte	0
 3624 0201 00       		.byte	0
 3625 0202 00       		.byte	0
 3626 0203 00       		.byte	0
 3627 0204 07       		.byte	7
 3628 0205 F0       		.byte	-16
 3629 0206 00       		.byte	0
 3630 0207 00       		.byte	0
 3631 0208 00       		.byte	0
 3632 0209 00       		.byte	0
 3633 020a 00       		.byte	0
 3634 020b 00       		.byte	0
 3635 020c 00       		.byte	0
 3636 020d 00       		.byte	0
 3637 020e 00       		.byte	0
 3638 020f 00       		.byte	0
 3639 0210 00       		.byte	0
 3640 0211 00       		.byte	0
ARM GAS  C:\Users\USUARIO\AppData\Local\Temp\ccywmqVe.s 			page 81


 3641 0212 00       		.byte	0
 3642 0213 00       		.byte	0
 3643 0214 1C       		.byte	28
 3644 0215 9C       		.byte	-100
 3645 0216 00       		.byte	0
 3646 0217 00       		.byte	0
 3647 0218 00       		.byte	0
 3648 0219 00       		.byte	0
 3649 021a 00       		.byte	0
 3650 021b 00       		.byte	0
 3651 021c 00       		.byte	0
 3652 021d 00       		.byte	0
 3653 021e 00       		.byte	0
 3654 021f 00       		.byte	0
 3655 0220 00       		.byte	0
 3656 0221 00       		.byte	0
 3657 0222 00       		.byte	0
 3658 0223 00       		.byte	0
 3659 0224 18       		.byte	24
 3660 0225 0C       		.byte	12
 3661 0226 00       		.byte	0
 3662 0227 00       		.byte	0
 3663 0228 00       		.byte	0
 3664 0229 00       		.byte	0
 3665 022a 00       		.byte	0
 3666 022b 00       		.byte	0
 3667 022c 00       		.byte	0
 3668 022d 00       		.byte	0
 3669 022e 00       		.byte	0
 3670 022f 00       		.byte	0
 3671 0230 00       		.byte	0
 3672 0231 00       		.byte	0
 3673 0232 00       		.byte	0
 3674 0233 00       		.byte	0
 3675 0234 30       		.byte	48
 3676 0235 86       		.byte	-122
 3677 0236 00       		.byte	0
 3678 0237 00       		.byte	0
 3679 0238 00       		.byte	0
 3680 0239 00       		.byte	0
 3681 023a 00       		.byte	0
 3682 023b 00       		.byte	0
 3683 023c 00       		.byte	0
 3684 023d 00       		.byte	0
 3685 023e 00       		.byte	0
 3686 023f 00       		.byte	0
 3687 0240 00       		.byte	0
 3688 0241 00       		.byte	0
 3689 0242 00       		.byte	0
 3690 0243 00       		.byte	0
 3691 0244 20       		.byte	32
 3692 0245 82       		.byte	-126
 3693 0246 00       		.byte	0
 3694 0247 00       		.byte	0
 3695 0248 00       		.byte	0
 3696 0249 00       		.byte	0
 3697 024a 00       		.byte	0
ARM GAS  C:\Users\USUARIO\AppData\Local\Temp\ccywmqVe.s 			page 82


 3698 024b 00       		.byte	0
 3699 024c 00       		.byte	0
 3700 024d 00       		.byte	0
 3701 024e 00       		.byte	0
 3702 024f 00       		.byte	0
 3703 0250 00       		.byte	0
 3704 0251 00       		.byte	0
 3705 0252 00       		.byte	0
 3706 0253 00       		.byte	0
 3707 0254 60       		.byte	96
 3708 0255 83       		.byte	-125
 3709 0256 00       		.byte	0
 3710 0257 00       		.byte	0
 3711 0258 00       		.byte	0
 3712 0259 00       		.byte	0
 3713 025a 00       		.byte	0
 3714 025b 00       		.byte	0
 3715 025c 00       		.byte	0
 3716 025d 00       		.byte	0
 3717 025e 00       		.byte	0
 3718 025f 00       		.byte	0
 3719 0260 00       		.byte	0
 3720 0261 00       		.byte	0
 3721 0262 00       		.byte	0
 3722 0263 00       		.byte	0
 3723 0264 70       		.byte	112
 3724 0265 87       		.byte	-121
 3725 0266 00       		.byte	0
 3726 0267 00       		.byte	0
 3727 0268 00       		.byte	0
 3728 0269 00       		.byte	0
 3729 026a 00       		.byte	0
 3730 026b 00       		.byte	0
 3731 026c 00       		.byte	0
 3732 026d 00       		.byte	0
 3733 026e 00       		.byte	0
 3734 026f 00       		.byte	0
 3735 0270 00       		.byte	0
 3736 0271 00       		.byte	0
 3737 0272 00       		.byte	0
 3738 0273 00       		.byte	0
 3739 0274 60       		.byte	96
 3740 0275 C3       		.byte	-61
 3741 0276 00       		.byte	0
 3742 0277 00       		.byte	0
 3743 0278 00       		.byte	0
 3744 0279 00       		.byte	0
 3745 027a 00       		.byte	0
 3746 027b 00       		.byte	0
 3747 027c 00       		.byte	0
 3748 027d 00       		.byte	0
 3749 027e 00       		.byte	0
 3750 027f 00       		.byte	0
 3751 0280 00       		.byte	0
 3752 0281 00       		.byte	0
 3753 0282 00       		.byte	0
 3754 0283 00       		.byte	0
ARM GAS  C:\Users\USUARIO\AppData\Local\Temp\ccywmqVe.s 			page 83


 3755 0284 20       		.byte	32
 3756 0285 62       		.byte	98
 3757 0286 00       		.byte	0
 3758 0287 00       		.byte	0
 3759 0288 00       		.byte	0
 3760 0289 00       		.byte	0
 3761 028a 00       		.byte	0
 3762 028b 00       		.byte	0
 3763 028c 00       		.byte	0
 3764 028d 00       		.byte	0
 3765 028e 00       		.byte	0
 3766 028f 00       		.byte	0
 3767 0290 00       		.byte	0
 3768 0291 00       		.byte	0
 3769 0292 00       		.byte	0
 3770 0293 00       		.byte	0
 3771 0294 30       		.byte	48
 3772 0295 26       		.byte	38
 3773 0296 00       		.byte	0
 3774 0297 00       		.byte	0
 3775 0298 00       		.byte	0
 3776 0299 00       		.byte	0
 3777 029a 00       		.byte	0
 3778 029b 00       		.byte	0
 3779 029c 00       		.byte	0
 3780 029d 00       		.byte	0
 3781 029e 00       		.byte	0
 3782 029f 00       		.byte	0
 3783 02a0 00       		.byte	0
 3784 02a1 00       		.byte	0
 3785 02a2 00       		.byte	0
 3786 02a3 00       		.byte	0
 3787 02a4 18       		.byte	24
 3788 02a5 0C       		.byte	12
 3789 02a6 00       		.byte	0
 3790 02a7 00       		.byte	0
 3791 02a8 00       		.byte	0
 3792 02a9 00       		.byte	0
 3793 02aa 00       		.byte	0
 3794 02ab 00       		.byte	0
 3795 02ac 00       		.byte	0
 3796 02ad 00       		.byte	0
 3797 02ae 00       		.byte	0
 3798 02af 00       		.byte	0
 3799 02b0 00       		.byte	0
 3800 02b1 00       		.byte	0
 3801 02b2 00       		.byte	0
 3802 02b3 00       		.byte	0
 3803 02b4 1C       		.byte	28
 3804 02b5 9C       		.byte	-100
 3805 02b6 00       		.byte	0
 3806 02b7 00       		.byte	0
 3807 02b8 00       		.byte	0
 3808 02b9 00       		.byte	0
 3809 02ba 00       		.byte	0
 3810 02bb 00       		.byte	0
 3811 02bc 00       		.byte	0
ARM GAS  C:\Users\USUARIO\AppData\Local\Temp\ccywmqVe.s 			page 84


 3812 02bd 00       		.byte	0
 3813 02be 00       		.byte	0
 3814 02bf 00       		.byte	0
 3815 02c0 00       		.byte	0
 3816 02c1 00       		.byte	0
 3817 02c2 00       		.byte	0
 3818 02c3 00       		.byte	0
 3819 02c4 07       		.byte	7
 3820 02c5 F0       		.byte	-16
 3821 02c6 00       		.byte	0
 3822 02c7 00       		.byte	0
 3823 02c8 00       		.byte	0
 3824 02c9 00       		.byte	0
 3825 02ca 00       		.byte	0
 3826 02cb 00       		.byte	0
 3827 02cc 00       		.byte	0
 3828 02cd 00       		.byte	0
 3829 02ce 00       		.byte	0
 3830 02cf 00       		.byte	0
 3831 02d0 00       		.byte	0
 3832 02d1 00       		.byte	0
 3833 02d2 00       		.byte	0
 3834 02d3 00       		.byte	0
 3835 02d4 01       		.byte	1
 3836 02d5 C0       		.byte	-64
 3837 02d6 00       		.byte	0
 3838 02d7 00       		.byte	0
 3839 02d8 00       		.byte	0
 3840 02d9 00       		.byte	0
 3841 02da 00       		.byte	0
 3842 02db 00       		.byte	0
 3843 02dc 00       		.byte	0
 3844 02dd 00       		.byte	0
 3845 02de 00       		.byte	0
 3846 02df 00       		.byte	0
 3847 02e0 00       		.byte	0
 3848 02e1 00       		.byte	0
 3849 02e2 00       		.byte	0
 3850 02e3 00       		.byte	0
 3851 02e4 00       		.byte	0
 3852 02e5 00       		.byte	0
 3853 02e6 00       		.byte	0
 3854 02e7 00       		.byte	0
 3855 02e8 00       		.byte	0
 3856 02e9 00       		.byte	0
 3857 02ea 00       		.byte	0
 3858 02eb 00       		.byte	0
 3859 02ec 00       		.byte	0
 3860 02ed 00       		.byte	0
 3861 02ee 00       		.byte	0
 3862 02ef 00       		.byte	0
 3863 02f0 00       		.byte	0
 3864 02f1 00       		.byte	0
 3865 02f2 00       		.byte	0
 3866 02f3 00       		.byte	0
 3867 02f4 00       		.byte	0
 3868 02f5 00       		.byte	0
ARM GAS  C:\Users\USUARIO\AppData\Local\Temp\ccywmqVe.s 			page 85


 3869 02f6 00       		.byte	0
 3870 02f7 00       		.byte	0
 3871 02f8 00       		.byte	0
 3872 02f9 00       		.byte	0
 3873 02fa 00       		.byte	0
 3874 02fb 00       		.byte	0
 3875 02fc 00       		.byte	0
 3876 02fd 00       		.byte	0
 3877 02fe 00       		.byte	0
 3878 02ff 00       		.byte	0
 3879 0300 00       		.byte	0
 3880 0301 00       		.byte	0
 3881 0302 00       		.byte	0
 3882 0303 00       		.byte	0
 3883 0304 00       		.byte	0
 3884 0305 00       		.byte	0
 3885 0306 00       		.byte	0
 3886 0307 00       		.byte	0
 3887 0308 00       		.byte	0
 3888 0309 00       		.byte	0
 3889 030a 00       		.byte	0
 3890 030b 00       		.byte	0
 3891 030c 00       		.byte	0
 3892 030d 00       		.byte	0
 3893 030e 00       		.byte	0
 3894 030f 00       		.byte	0
 3895 0310 00       		.byte	0
 3896 0311 00       		.byte	0
 3897 0312 00       		.byte	0
 3898 0313 00       		.byte	0
 3899 0314 00       		.byte	0
 3900 0315 00       		.byte	0
 3901 0316 00       		.byte	0
 3902 0317 00       		.byte	0
 3903 0318 00       		.byte	0
 3904 0319 00       		.byte	0
 3905 031a 00       		.byte	0
 3906 031b 00       		.byte	0
 3907 031c 00       		.byte	0
 3908 031d 00       		.byte	0
 3909 031e 00       		.byte	0
 3910 031f 00       		.byte	0
 3911 0320 00       		.byte	0
 3912 0321 00       		.byte	0
 3913 0322 00       		.byte	0
 3914 0323 00       		.byte	0
 3915 0324 00       		.byte	0
 3916 0325 00       		.byte	0
 3917 0326 00       		.byte	0
 3918 0327 00       		.byte	0
 3919 0328 00       		.byte	0
 3920 0329 00       		.byte	0
 3921 032a 00       		.byte	0
 3922 032b 00       		.byte	0
 3923 032c 00       		.byte	0
 3924 032d 00       		.byte	0
 3925 032e 00       		.byte	0
ARM GAS  C:\Users\USUARIO\AppData\Local\Temp\ccywmqVe.s 			page 86


 3926 032f 00       		.byte	0
 3927 0330 00       		.byte	0
 3928 0331 00       		.byte	0
 3929 0332 00       		.byte	0
 3930 0333 00       		.byte	0
 3931 0334 00       		.byte	0
 3932 0335 00       		.byte	0
 3933 0336 00       		.byte	0
 3934 0337 00       		.byte	0
 3935 0338 00       		.byte	0
 3936 0339 00       		.byte	0
 3937 033a 00       		.byte	0
 3938 033b 00       		.byte	0
 3939 033c 00       		.byte	0
 3940 033d 00       		.byte	0
 3941 033e 00       		.byte	0
 3942 033f 00       		.byte	0
 3943 0340 00       		.byte	0
 3944 0341 00       		.byte	0
 3945 0342 00       		.byte	0
 3946 0343 00       		.byte	0
 3947 0344 00       		.byte	0
 3948 0345 00       		.byte	0
 3949 0346 00       		.byte	0
 3950 0347 00       		.byte	0
 3951 0348 00       		.byte	0
 3952 0349 00       		.byte	0
 3953 034a 00       		.byte	0
 3954 034b 00       		.byte	0
 3955 034c 00       		.byte	0
 3956 034d 00       		.byte	0
 3957 034e 00       		.byte	0
 3958 034f 00       		.byte	0
 3959 0350 00       		.byte	0
 3960 0351 00       		.byte	0
 3961 0352 00       		.byte	0
 3962 0353 00       		.byte	0
 3963 0354 00       		.byte	0
 3964 0355 00       		.byte	0
 3965 0356 00       		.byte	0
 3966 0357 00       		.byte	0
 3967 0358 00       		.byte	0
 3968 0359 00       		.byte	0
 3969 035a 00       		.byte	0
 3970 035b 00       		.byte	0
 3971 035c 00       		.byte	0
 3972 035d 00       		.byte	0
 3973 035e 00       		.byte	0
 3974 035f 00       		.byte	0
 3975 0360 00       		.byte	0
 3976 0361 00       		.byte	0
 3977 0362 00       		.byte	0
 3978 0363 00       		.byte	0
 3979 0364 00       		.byte	0
 3980 0365 00       		.byte	0
 3981 0366 00       		.byte	0
 3982 0367 00       		.byte	0
ARM GAS  C:\Users\USUARIO\AppData\Local\Temp\ccywmqVe.s 			page 87


 3983 0368 00       		.byte	0
 3984 0369 00       		.byte	0
 3985 036a 00       		.byte	0
 3986 036b 00       		.byte	0
 3987 036c 00       		.byte	0
 3988 036d 00       		.byte	0
 3989 036e 00       		.byte	0
 3990 036f 00       		.byte	0
 3991 0370 00       		.byte	0
 3992 0371 00       		.byte	0
 3993 0372 00       		.byte	0
 3994 0373 00       		.byte	0
 3995 0374 00       		.byte	0
 3996 0375 00       		.byte	0
 3997 0376 00       		.byte	0
 3998 0377 00       		.byte	0
 3999 0378 00       		.byte	0
 4000 0379 00       		.byte	0
 4001 037a 00       		.byte	0
 4002 037b 00       		.byte	0
 4003 037c 00       		.byte	0
 4004 037d 00       		.byte	0
 4005 037e 00       		.byte	0
 4006 037f 00       		.byte	0
 4007 0380 00       		.byte	0
 4008 0381 00       		.byte	0
 4009 0382 00       		.byte	0
 4010 0383 00       		.byte	0
 4011 0384 00       		.byte	0
 4012 0385 00       		.byte	0
 4013 0386 00       		.byte	0
 4014 0387 00       		.byte	0
 4015 0388 00       		.byte	0
 4016 0389 00       		.byte	0
 4017 038a 00       		.byte	0
 4018 038b 00       		.byte	0
 4019 038c 00       		.byte	0
 4020 038d 00       		.byte	0
 4021 038e 00       		.byte	0
 4022 038f 00       		.byte	0
 4023 0390 00       		.byte	0
 4024 0391 00       		.byte	0
 4025 0392 00       		.byte	0
 4026 0393 00       		.byte	0
 4027 0394 00       		.byte	0
 4028 0395 00       		.byte	0
 4029 0396 00       		.byte	0
 4030 0397 00       		.byte	0
 4031 0398 00       		.byte	0
 4032 0399 00       		.byte	0
 4033 039a 00       		.byte	0
 4034 039b 00       		.byte	0
 4035 039c 00       		.byte	0
 4036 039d 00       		.byte	0
 4037 039e 00       		.byte	0
 4038 039f 00       		.byte	0
 4039 03a0 00       		.byte	0
ARM GAS  C:\Users\USUARIO\AppData\Local\Temp\ccywmqVe.s 			page 88


 4040 03a1 00       		.byte	0
 4041 03a2 00       		.byte	0
 4042 03a3 00       		.byte	0
 4043 03a4 01       		.byte	1
 4044 03a5 80       		.byte	-128
 4045 03a6 00       		.byte	0
 4046 03a7 00       		.byte	0
 4047 03a8 00       		.byte	0
 4048 03a9 00       		.byte	0
 4049 03aa 00       		.byte	0
 4050 03ab 00       		.byte	0
 4051 03ac 00       		.byte	0
 4052 03ad 00       		.byte	0
 4053 03ae 00       		.byte	0
 4054 03af 00       		.byte	0
 4055 03b0 00       		.byte	0
 4056 03b1 00       		.byte	0
 4057 03b2 00       		.byte	0
 4058 03b3 00       		.byte	0
 4059 03b4 02       		.byte	2
 4060 03b5 40       		.byte	64
 4061 03b6 00       		.byte	0
 4062 03b7 00       		.byte	0
 4063 03b8 00       		.byte	0
 4064 03b9 00       		.byte	0
 4065 03ba 00       		.byte	0
 4066 03bb 00       		.byte	0
 4067 03bc 00       		.byte	0
 4068 03bd 00       		.byte	0
 4069 03be 00       		.byte	0
 4070 03bf 00       		.byte	0
 4071 03c0 00       		.byte	0
 4072 03c1 00       		.byte	0
 4073 03c2 00       		.byte	0
 4074 03c3 00       		.byte	0
 4075 03c4 02       		.byte	2
 4076 03c5 70       		.byte	112
 4077 03c6 00       		.byte	0
 4078 03c7 00       		.byte	0
 4079 03c8 00       		.byte	0
 4080 03c9 00       		.byte	0
 4081 03ca 00       		.byte	0
 4082 03cb 00       		.byte	0
 4083 03cc 00       		.byte	0
 4084 03cd 00       		.byte	0
 4085 03ce 00       		.byte	0
 4086 03cf 00       		.byte	0
 4087 03d0 00       		.byte	0
 4088 03d1 00       		.byte	0
 4089 03d2 00       		.byte	0
 4090 03d3 00       		.byte	0
 4091 03d4 02       		.byte	2
 4092 03d5 40       		.byte	64
 4093 03d6 00       		.byte	0
 4094 03d7 00       		.byte	0
 4095 03d8 00       		.byte	0
 4096 03d9 00       		.byte	0
ARM GAS  C:\Users\USUARIO\AppData\Local\Temp\ccywmqVe.s 			page 89


 4097 03da 00       		.byte	0
 4098 03db 00       		.byte	0
 4099 03dc 00       		.byte	0
 4100 03dd 00       		.byte	0
 4101 03de 00       		.byte	0
 4102 03df 00       		.byte	0
 4103 03e0 00       		.byte	0
 4104 03e1 00       		.byte	0
 4105 03e2 00       		.byte	0
 4106 03e3 00       		.byte	0
 4107 03e4 03       		.byte	3
 4108 03e5 C0       		.byte	-64
 4109 03e6 00       		.byte	0
 4110 03e7 00       		.byte	0
 4111 03e8 00       		.byte	0
 4112 03e9 00       		.byte	0
 4113 03ea 00       		.byte	0
 4114 03eb 00       		.byte	0
 4115 03ec 00       		.byte	0
 4116 03ed 00       		.byte	0
 4117 03ee 00       		.byte	0
 4118 03ef 00       		.byte	0
 4119 03f0 00       		.byte	0
 4120 03f1 00       		.byte	0
 4121 03f2 00       		.byte	0
 4122 03f3 00       		.byte	0
 4123 03f4 03       		.byte	3
 4124 03f5 F0       		.byte	-16
 4125 03f6 00       		.byte	0
 4126 03f7 00       		.byte	0
 4127 03f8 00       		.byte	0
 4128 03f9 00       		.byte	0
 4129 03fa 00       		.byte	0
 4130 03fb 00       		.byte	0
 4131 03fc 00       		.byte	0
 4132 03fd 00       		.byte	0
 4133 03fe 00       		.byte	0
 4134 03ff 00       		.byte	0
 4135 0400 00       		.byte	0
 4136 0401 00       		.byte	0
 4137 0402 00       		.byte	0
 4138 0403 00       		.byte	0
 4139 0404 03       		.byte	3
 4140 0405 C0       		.byte	-64
 4141 0406 00       		.byte	0
 4142 0407 00       		.byte	0
 4143 0408 00       		.byte	0
 4144 0409 00       		.byte	0
 4145 040a 00       		.byte	0
 4146 040b 00       		.byte	0
 4147 040c 00       		.byte	0
 4148 040d 00       		.byte	0
 4149 040e 00       		.byte	0
 4150 040f 00       		.byte	0
 4151 0410 00       		.byte	0
 4152 0411 00       		.byte	0
 4153 0412 00       		.byte	0
ARM GAS  C:\Users\USUARIO\AppData\Local\Temp\ccywmqVe.s 			page 90


 4154 0413 00       		.byte	0
 4155 0414 03       		.byte	3
 4156 0415 C0       		.byte	-64
 4157 0416 00       		.byte	0
 4158 0417 00       		.byte	0
 4159 0418 00       		.byte	0
 4160 0419 00       		.byte	0
 4161 041a 00       		.byte	0
 4162 041b 00       		.byte	0
 4163 041c 00       		.byte	0
 4164 041d 00       		.byte	0
 4165 041e 00       		.byte	0
 4166 041f 00       		.byte	0
 4167 0420 00       		.byte	0
 4168 0421 00       		.byte	0
 4169 0422 00       		.byte	0
 4170 0423 00       		.byte	0
 4171 0424 07       		.byte	7
 4172 0425 E0       		.byte	-32
 4173 0426 00       		.byte	0
 4174 0427 00       		.byte	0
 4175 0428 00       		.byte	0
 4176 0429 00       		.byte	0
 4177 042a 00       		.byte	0
 4178 042b 00       		.byte	0
 4179 042c 00       		.byte	0
 4180 042d 00       		.byte	0
 4181 042e 00       		.byte	0
 4182 042f 00       		.byte	0
 4183 0430 00       		.byte	0
 4184 0431 00       		.byte	0
 4185 0432 00       		.byte	0
 4186 0433 00       		.byte	0
 4187 0434 0F       		.byte	15
 4188 0435 F0       		.byte	-16
 4189 0436 00       		.byte	0
 4190 0437 00       		.byte	0
 4191 0438 00       		.byte	0
 4192 0439 00       		.byte	0
 4193 043a 00       		.byte	0
 4194 043b 00       		.byte	0
 4195 043c 00       		.byte	0
 4196 043d 00       		.byte	0
 4197 043e 00       		.byte	0
 4198 043f 00       		.byte	0
 4199 0440 00       		.byte	0
 4200 0441 00       		.byte	0
 4201 0442 00       		.byte	0
 4202 0443 00       		.byte	0
 4203 0444 0B       		.byte	11
 4204 0445 F0       		.byte	-16
 4205 0446 00       		.byte	0
 4206 0447 00       		.byte	0
 4207 0448 00       		.byte	0
 4208 0449 00       		.byte	0
 4209 044a 00       		.byte	0
 4210 044b 00       		.byte	0
ARM GAS  C:\Users\USUARIO\AppData\Local\Temp\ccywmqVe.s 			page 91


 4211 044c 00       		.byte	0
 4212 044d 00       		.byte	0
 4213 044e 00       		.byte	0
 4214 044f 00       		.byte	0
 4215 0450 00       		.byte	0
 4216 0451 00       		.byte	0
 4217 0452 00       		.byte	0
 4218 0453 00       		.byte	0
 4219 0454 0B       		.byte	11
 4220 0455 F0       		.byte	-16
 4221 0456 00       		.byte	0
 4222 0457 00       		.byte	0
 4223 0458 00       		.byte	0
 4224 0459 00       		.byte	0
 4225 045a 00       		.byte	0
 4226 045b 00       		.byte	0
 4227 045c 00       		.byte	0
 4228 045d 00       		.byte	0
 4229 045e 00       		.byte	0
 4230 045f 00       		.byte	0
 4231 0460 00       		.byte	0
 4232 0461 00       		.byte	0
 4233 0462 00       		.byte	0
 4234 0463 00       		.byte	0
 4235 0464 0F       		.byte	15
 4236 0465 F0       		.byte	-16
 4237 0466 00       		.byte	0
 4238 0467 00       		.byte	0
 4239 0468 00       		.byte	0
 4240 0469 00       		.byte	0
 4241 046a 00       		.byte	0
 4242 046b 00       		.byte	0
 4243 046c 00       		.byte	0
 4244 046d 00       		.byte	0
 4245 046e 00       		.byte	0
 4246 046f 00       		.byte	0
 4247 0470 00       		.byte	0
 4248 0471 00       		.byte	0
 4249 0472 00       		.byte	0
 4250 0473 00       		.byte	0
 4251 0474 0F       		.byte	15
 4252 0475 F0       		.byte	-16
 4253 0476 00       		.byte	0
 4254 0477 00       		.byte	0
 4255 0478 00       		.byte	0
 4256 0479 00       		.byte	0
 4257 047a 00       		.byte	0
 4258 047b 00       		.byte	0
 4259 047c 00       		.byte	0
 4260 047d 00       		.byte	0
 4261 047e 00       		.byte	0
 4262 047f 00       		.byte	0
 4263 0480 00       		.byte	0
 4264 0481 00       		.byte	0
 4265 0482 00       		.byte	0
 4266 0483 00       		.byte	0
 4267 0484 07       		.byte	7
ARM GAS  C:\Users\USUARIO\AppData\Local\Temp\ccywmqVe.s 			page 92


 4268 0485 E0       		.byte	-32
 4269 0486 00       		.byte	0
 4270 0487 00       		.byte	0
 4271 0488 00       		.byte	0
 4272 0489 00       		.byte	0
 4273 048a 00       		.byte	0
 4274 048b 00       		.byte	0
 4275 048c 00       		.byte	0
 4276 048d 00       		.byte	0
 4277 048e 00       		.byte	0
 4278 048f 00       		.byte	0
 4279 0490 00       		.byte	0
 4280 0491 00       		.byte	0
 4281 0492 00       		.byte	0
 4282 0493 00       		.byte	0
 4283 0494 03       		.byte	3
 4284 0495 C0       		.byte	-64
 4285 0496 00       		.byte	0
 4286 0497 00       		.byte	0
 4287 0498 00       		.byte	0
 4288 0499 00       		.byte	0
 4289 049a 00       		.byte	0
 4290 049b 00       		.byte	0
 4291 049c 00       		.byte	0
 4292 049d 00       		.byte	0
 4293 049e 00       		.byte	0
 4294 049f 00       		.byte	0
 4295 04a0 00       		.byte	0
 4296 04a1 00       		.byte	0
 4297 04a2 00       		.byte	0
 4298 04a3 00       		.byte	0
 4299 04a4 00       		.byte	0
 4300 04a5 00       		.byte	0
 4301 04a6 00       		.byte	0
 4302 04a7 00       		.byte	0
 4303 04a8 00       		.byte	0
 4304 04a9 00       		.byte	0
 4305 04aa 00       		.byte	0
 4306 04ab 00       		.byte	0
 4307 04ac 00       		.byte	0
 4308 04ad 00       		.byte	0
 4309 04ae 00       		.byte	0
 4310 04af 00       		.byte	0
 4311 04b0 00       		.byte	0
 4312 04b1 00       		.byte	0
 4313 04b2 00       		.byte	0
 4314 04b3 00       		.byte	0
 4315 04b4 00       		.byte	0
 4316 04b5 00       		.byte	0
 4317 04b6 00       		.byte	0
 4318 04b7 00       		.byte	0
 4319 04b8 00       		.byte	0
 4320 04b9 00       		.byte	0
 4321 04ba 00       		.byte	0
 4322 04bb 00       		.byte	0
 4323 04bc 00       		.byte	0
 4324 04bd 00       		.byte	0
ARM GAS  C:\Users\USUARIO\AppData\Local\Temp\ccywmqVe.s 			page 93


 4325 04be 00       		.byte	0
 4326 04bf 00       		.byte	0
 4327 04c0 00       		.byte	0
 4328 04c1 00       		.byte	0
 4329 04c2 00       		.byte	0
 4330 04c3 00       		.byte	0
 4331 04c4 00       		.byte	0
 4332 04c5 00       		.byte	0
 4333 04c6 00       		.byte	0
 4334 04c7 00       		.byte	0
 4335 04c8 00       		.byte	0
 4336 04c9 00       		.byte	0
 4337 04ca 00       		.byte	0
 4338 04cb 00       		.byte	0
 4339 04cc 00       		.byte	0
 4340 04cd 00       		.byte	0
 4341 04ce 00       		.byte	0
 4342 04cf 00       		.byte	0
 4343 04d0 00       		.byte	0
 4344 04d1 00       		.byte	0
 4345 04d2 00       		.byte	0
 4346 04d3 00       		.byte	0
 4347 04d4 00       		.byte	0
 4348 04d5 00       		.byte	0
 4349 04d6 00       		.byte	0
 4350 04d7 00       		.byte	0
 4351 04d8 00       		.byte	0
 4352 04d9 00       		.byte	0
 4353 04da 00       		.byte	0
 4354 04db 00       		.byte	0
 4355 04dc 00       		.byte	0
 4356 04dd 00       		.byte	0
 4357 04de 00       		.byte	0
 4358 04df 00       		.byte	0
 4359 04e0 00       		.byte	0
 4360 04e1 00       		.byte	0
 4361 04e2 00       		.byte	0
 4362 04e3 00       		.byte	0
 4363 04e4 00       		.byte	0
 4364 04e5 00       		.byte	0
 4365 04e6 00       		.byte	0
 4366 04e7 00       		.byte	0
 4367 04e8 00       		.byte	0
 4368 04e9 00       		.byte	0
 4369 04ea 00       		.byte	0
 4370 04eb 00       		.byte	0
 4371 04ec 00       		.byte	0
 4372 04ed 00       		.byte	0
 4373 04ee 00       		.byte	0
 4374 04ef 00       		.byte	0
 4375 04f0 00       		.byte	0
 4376 04f1 00       		.byte	0
 4377 04f2 00       		.byte	0
 4378 04f3 00       		.byte	0
 4379 04f4 00       		.byte	0
 4380 04f5 00       		.byte	0
 4381 04f6 00       		.byte	0
ARM GAS  C:\Users\USUARIO\AppData\Local\Temp\ccywmqVe.s 			page 94


 4382 04f7 00       		.byte	0
 4383 04f8 00       		.byte	0
 4384 04f9 00       		.byte	0
 4385 04fa 00       		.byte	0
 4386 04fb 00       		.byte	0
 4387 04fc 00       		.byte	0
 4388 04fd 00       		.byte	0
 4389 04fe 00       		.byte	0
 4390 04ff 00       		.byte	0
 4391 0500 00       		.byte	0
 4392 0501 00       		.byte	0
 4393 0502 00       		.byte	0
 4394 0503 00       		.byte	0
 4395 0504 00       		.byte	0
 4396 0505 00       		.byte	0
 4397 0506 00       		.byte	0
 4398 0507 00       		.byte	0
 4399 0508 00       		.byte	0
 4400 0509 00       		.byte	0
 4401 050a 00       		.byte	0
 4402 050b 00       		.byte	0
 4403 050c 00       		.byte	0
 4404 050d 00       		.byte	0
 4405 050e 00       		.byte	0
 4406 050f 00       		.byte	0
 4407 0510 00       		.byte	0
 4408 0511 00       		.byte	0
 4409 0512 00       		.byte	0
 4410 0513 00       		.byte	0
 4411 0514 00       		.byte	0
 4412 0515 00       		.byte	0
 4413 0516 00       		.byte	0
 4414 0517 00       		.byte	0
 4415 0518 00       		.byte	0
 4416 0519 00       		.byte	0
 4417 051a 00       		.byte	0
 4418 051b 00       		.byte	0
 4419 051c 00       		.byte	0
 4420 051d 00       		.byte	0
 4421 051e 00       		.byte	0
 4422 051f 00       		.byte	0
 4423 0520 00       		.byte	0
 4424 0521 00       		.byte	0
 4425 0522 00       		.byte	0
 4426 0523 00       		.byte	0
 4427 0524 00       		.byte	0
 4428 0525 00       		.byte	0
 4429 0526 00       		.byte	0
 4430 0527 00       		.byte	0
 4431 0528 00       		.byte	0
 4432 0529 00       		.byte	0
 4433 052a 00       		.byte	0
 4434 052b 00       		.byte	0
 4435 052c 00       		.byte	0
 4436 052d 00       		.byte	0
 4437 052e 00       		.byte	0
 4438 052f 00       		.byte	0
ARM GAS  C:\Users\USUARIO\AppData\Local\Temp\ccywmqVe.s 			page 95


 4439 0530 00       		.byte	0
 4440 0531 00       		.byte	0
 4441 0532 00       		.byte	0
 4442 0533 00       		.byte	0
 4443 0534 00       		.byte	0
 4444 0535 00       		.byte	0
 4445 0536 00       		.byte	0
 4446 0537 00       		.byte	0
 4447 0538 00       		.byte	0
 4448 0539 00       		.byte	0
 4449 053a 00       		.byte	0
 4450 053b 00       		.byte	0
 4451 053c 00       		.byte	0
 4452 053d 00       		.byte	0
 4453 053e 00       		.byte	0
 4454 053f 00       		.byte	0
 4455 0540 00       		.byte	0
 4456 0541 00       		.byte	0
 4457 0542 00       		.byte	0
 4458 0543 00       		.byte	0
 4459 0544 00       		.byte	0
 4460 0545 00       		.byte	0
 4461 0546 00       		.byte	0
 4462 0547 00       		.byte	0
 4463 0548 00       		.byte	0
 4464 0549 00       		.byte	0
 4465 054a 00       		.byte	0
 4466 054b 00       		.byte	0
 4467 054c 00       		.byte	0
 4468 054d 00       		.byte	0
 4469 054e 00       		.byte	0
 4470 054f 00       		.byte	0
 4471 0550 00       		.byte	0
 4472 0551 00       		.byte	0
 4473 0552 00       		.byte	0
 4474 0553 00       		.byte	0
 4475 0554 00       		.byte	0
 4476 0555 00       		.byte	0
 4477 0556 00       		.byte	0
 4478 0557 00       		.byte	0
 4479 0558 00       		.byte	0
 4480 0559 00       		.byte	0
 4481 055a 00       		.byte	0
 4482 055b 00       		.byte	0
 4483 055c 00       		.byte	0
 4484 055d 00       		.byte	0
 4485 055e 00       		.byte	0
 4486 055f 00       		.byte	0
 4487 0560 00       		.byte	0
 4488 0561 00       		.byte	0
 4489 0562 00       		.byte	0
 4490 0563 00       		.byte	0
 4491 0564 00       		.byte	0
 4492 0565 00       		.byte	0
 4493 0566 00       		.byte	0
 4494 0567 00       		.byte	0
 4495 0568 00       		.byte	0
ARM GAS  C:\Users\USUARIO\AppData\Local\Temp\ccywmqVe.s 			page 96


 4496 0569 00       		.byte	0
 4497 056a 00       		.byte	0
 4498 056b 00       		.byte	0
 4499 056c 00       		.byte	0
 4500 056d 00       		.byte	0
 4501 056e 00       		.byte	0
 4502 056f 00       		.byte	0
 4503 0570 00       		.byte	0
 4504 0571 00       		.byte	0
 4505 0572 00       		.byte	0
 4506 0573 00       		.byte	0
 4507 0574 00       		.byte	0
 4508 0575 00       		.byte	0
 4509 0576 00       		.byte	0
 4510 0577 00       		.byte	0
 4511 0578 00       		.byte	0
 4512 0579 00       		.byte	0
 4513 057a 00       		.byte	0
 4514 057b 00       		.byte	0
 4515 057c 00       		.byte	0
 4516 057d 00       		.byte	0
 4517 057e 00       		.byte	0
 4518 057f 00       		.byte	0
 4519 0580 00       		.byte	0
 4520 0581 00       		.byte	0
 4521 0582 00       		.byte	0
 4522 0583 00       		.byte	0
 4523 0584 00       		.byte	0
 4524 0585 00       		.byte	0
 4525 0586 00       		.byte	0
 4526 0587 00       		.byte	0
 4527 0588 00       		.byte	0
 4528 0589 00       		.byte	0
 4529 058a 00       		.byte	0
 4530 058b 00       		.byte	0
 4531 058c 00       		.byte	0
 4532 058d 00       		.byte	0
 4533 058e 00       		.byte	0
 4534 058f 00       		.byte	0
 4535 0590 00       		.byte	0
 4536 0591 00       		.byte	0
 4537 0592 00       		.byte	0
 4538 0593 00       		.byte	0
 4539 0594 00       		.byte	0
 4540 0595 00       		.byte	0
 4541 0596 00       		.byte	0
 4542 0597 00       		.byte	0
 4543 0598 00       		.byte	0
 4544 0599 00       		.byte	0
 4545 059a 00       		.byte	0
 4546 059b 00       		.byte	0
 4547 059c 00       		.byte	0
 4548 059d 00       		.byte	0
 4549 059e 00       		.byte	0
 4550 059f 00       		.byte	0
 4551 05a0 00       		.byte	0
 4552 05a1 00       		.byte	0
ARM GAS  C:\Users\USUARIO\AppData\Local\Temp\ccywmqVe.s 			page 97


 4553 05a2 00       		.byte	0
 4554 05a3 00       		.byte	0
 4555 05a4 00       		.byte	0
 4556 05a5 00       		.byte	0
 4557 05a6 00       		.byte	0
 4558 05a7 00       		.byte	0
 4559 05a8 00       		.byte	0
 4560 05a9 00       		.byte	0
 4561 05aa 00       		.byte	0
 4562 05ab 00       		.byte	0
 4563 05ac 00       		.byte	0
 4564 05ad 00       		.byte	0
 4565 05ae 00       		.byte	0
 4566 05af 00       		.byte	0
 4567 05b0 00       		.byte	0
 4568 05b1 00       		.byte	0
 4569 05b2 00       		.byte	0
 4570 05b3 00       		.byte	0
 4571 05b4 00       		.byte	0
 4572 05b5 00       		.byte	0
 4573 05b6 00       		.byte	0
 4574 05b7 00       		.byte	0
 4575 05b8 00       		.byte	0
 4576 05b9 00       		.byte	0
 4577 05ba 00       		.byte	0
 4578 05bb 00       		.byte	0
 4579 05bc 00       		.byte	0
 4580 05bd 00       		.byte	0
 4581 05be 00       		.byte	0
 4582 05bf 00       		.byte	0
 4583 05c0 00       		.byte	0
 4584 05c1 00       		.byte	0
 4585 05c2 00       		.byte	0
 4586 05c3 00       		.byte	0
 4587 05c4 00       		.byte	0
 4588 05c5 00       		.byte	0
 4589 05c6 00       		.byte	0
 4590 05c7 00       		.byte	0
 4591 05c8 00       		.byte	0
 4592 05c9 00       		.byte	0
 4593 05ca 00       		.byte	0
 4594 05cb 00       		.byte	0
 4595 05cc 00       		.byte	0
 4596 05cd 00       		.byte	0
 4597 05ce 00       		.byte	0
 4598 05cf 00       		.byte	0
 4599 05d0 00       		.byte	0
 4600 05d1 00       		.byte	0
 4601 05d2 00       		.byte	0
 4602 05d3 00       		.byte	0
 4603 05d4 00       		.byte	0
 4604 05d5 00       		.byte	0
 4605 05d6 00       		.byte	0
 4606 05d7 00       		.byte	0
 4607 05d8 00       		.byte	0
 4608 05d9 00       		.byte	0
 4609 05da 00       		.byte	0
ARM GAS  C:\Users\USUARIO\AppData\Local\Temp\ccywmqVe.s 			page 98


 4610 05db 00       		.byte	0
 4611 05dc 00       		.byte	0
 4612 05dd 00       		.byte	0
 4613 05de 00       		.byte	0
 4614 05df 00       		.byte	0
 4615 05e0 00       		.byte	0
 4616 05e1 00       		.byte	0
 4617 05e2 00       		.byte	0
 4618 05e3 00       		.byte	0
 4619              		.section	.rodata.str1.4,"aMS",%progbits,1
 4620              		.align	2
 4621              	.LC0:
 4622 0000 25303275 		.ascii	"%02u\000"
 4622      00
 4623 0005 000000   		.space	3
 4624              	.LC1:
 4625 0008 25303475 		.ascii	"%04u\000"
 4625      00
 4626 000d 000000   		.space	3
 4627              	.LC2:
 4628 0010 4300     		.ascii	"C\000"
 4629 0012 0000     		.space	2
 4630              	.LC3:
 4631 0014 25303375 		.ascii	"%03u\000"
 4631      00
 4632 0019 000000   		.space	3
 4633              	.LC4:
 4634 001c 257500   		.ascii	"%u\000"
 4635 001f 00       		.space	1
 4636              	.LC5:
 4637 0020 2530332E 		.ascii	"%03.2f\000"
 4637      326600
 4638 0027 00       		.space	1
 4639              	.LC6:
 4640 0028 256900   		.ascii	"%i\000"
 4641 002b 00       		.space	1
 4642              	.LC7:
 4643 002c 25303264 		.ascii	"%02d\000"
 4643      00
 4644              		.text
 4645              	.Letext0:
 4646              		.file 2 "c:\\program files (x86)\\cypress\\psoc creator\\4.3\\psoc creator\\import\\gnu\\arm\\5.4.
 4647              		.file 3 "c:\\program files (x86)\\cypress\\psoc creator\\4.3\\psoc creator\\import\\gnu\\arm\\5.4.
 4648              		.file 4 "Generated_Source\\PSoC5/cytypes.h"
 4649              		.file 5 "./main.h"
 4650              		.file 6 "ks0108.h"
 4651              		.file 7 "Generated_Source\\PSoC5/core_cm3.h"
 4652              		.file 8 "Generated_Source\\PSoC5/DB_0.h"
 4653              		.file 9 "Generated_Source\\PSoC5/DB_1.h"
 4654              		.file 10 "Generated_Source\\PSoC5/DB_2.h"
 4655              		.file 11 "Generated_Source\\PSoC5/DB_3.h"
 4656              		.file 12 "Generated_Source\\PSoC5/DB_4.h"
 4657              		.file 13 "Generated_Source\\PSoC5/DB_5.h"
 4658              		.file 14 "Generated_Source\\PSoC5/DB_6.h"
 4659              		.file 15 "Generated_Source\\PSoC5/DB_7.h"
 4660              		.file 16 "Generated_Source\\PSoC5/CS_2.h"
 4661              		.file 17 "Generated_Source\\PSoC5/CS_1.h"
ARM GAS  C:\Users\USUARIO\AppData\Local\Temp\ccywmqVe.s 			page 99


 4662              		.file 18 "Generated_Source\\PSoC5/R_W.h"
 4663              		.file 19 "Generated_Source\\PSoC5/CyLib.h"
 4664              		.file 20 "Generated_Source\\PSoC5/ENABLE.h"
 4665              		.file 21 "Generated_Source\\PSoC5/D_I.h"
 4666              		.file 22 "Generated_Source\\PSoC5/RESET.h"
 4667              		.file 23 "c:\\program files (x86)\\cypress\\psoc creator\\4.3\\psoc creator\\import\\gnu\\arm\\5.4
 4668              		.file 24 "c:\\program files (x86)\\cypress\\psoc creator\\4.3\\psoc creator\\import\\gnu\\arm\\5.4