ARM GAS  C:\Users\USUARIO\AppData\Local\Temp\ccywmqVe.s 			page 1


   1              		.syntax unified
   2              		.cpu cortex-m3
   3              		.fpu softvfp
   4              		.eabi_attribute 20, 1
   5              		.eabi_attribute 21, 1
   6              		.eabi_attribute 23, 3
   7              		.eabi_attribute 24, 1
   8              		.eabi_attribute 25, 1
   9              		.eabi_attribute 26, 1
  10              		.eabi_attribute 30, 1
  11              		.eabi_attribute 34, 1
  12              		.eabi_attribute 18, 4
  13              		.thumb
  14              		.syntax unified
  15              		.file	"ks0108.c"
  16              		.text
  17              	.Ltext0:
  18              		.cfi_sections	.debug_frame
  19              		.section	.text.vLcdDataWrite,"ax",%progbits
  20              		.align	2
  21              		.global	vLcdDataWrite
  22              		.thumb
  23              		.thumb_func
  24              		.type	vLcdDataWrite, %function
  25              	vLcdDataWrite:
  26              	.LFB64:
  27              		.file 1 "ks0108.c"
   1:ks0108.c      **** #include "ks0108.h"
   2:ks0108.c      **** #include "project.h"
   3:ks0108.c      **** #include <device.h>
   4:ks0108.c      **** #include <stdio.h>
   5:ks0108.c      **** #include <main.h>
   6:ks0108.c      **** 
   7:ks0108.c      **** /////////////////////////////////////////////////////////////////////////
   8:ks0108.c      **** //// Defines a 5x7 font
   9:ks0108.c      **** /////////////////////////////////////////////////////////////////////////
  10:ks0108.c      **** const int8 FONT[51][5] ={0x00, 0x00, 0x00, 0x00, 0x00, // SPACE
  11:ks0108.c      ****                          0x00, 0x00, 0x5F, 0x00, 0x00, // !
  12:ks0108.c      ****                          0x00, 0x03, 0x00, 0x03, 0x00, // "
  13:ks0108.c      ****                          0x14, 0x3E, 0x14, 0x3E, 0x14, // #
  14:ks0108.c      ****                          0x24, 0x2A, 0x7F, 0x2A, 0x12, // $
  15:ks0108.c      ****                          0x43, 0x33, 0x08, 0x66, 0x61, // %
  16:ks0108.c      ****                          0x36, 0x49, 0x55, 0x22, 0x50, // &
  17:ks0108.c      ****                          0x00, 0x05, 0x03, 0x00, 0x00, // '
  18:ks0108.c      ****                          0x00, 0x1C, 0x22, 0x41, 0x00, // (
  19:ks0108.c      ****                          0x00, 0x41, 0x22, 0x1C, 0x00, // )
  20:ks0108.c      ****                          0x14, 0x08, 0x3E, 0x08, 0x14, // *
  21:ks0108.c      ****                          0x08, 0x08, 0x3E, 0x08, 0x08, // +
  22:ks0108.c      ****                          0x00, 0x50, 0x30, 0x00, 0x00, // ,
  23:ks0108.c      ****                          0x08, 0x08, 0x08, 0x08, 0x08, // -
  24:ks0108.c      ****                          0x00, 0x60, 0x60, 0x00, 0x00, // .
  25:ks0108.c      ****                          0x20, 0x10, 0x08, 0x04, 0x02, // /
  26:ks0108.c      ****                          0x3E, 0x51, 0x49, 0x45, 0x3E, // 0
  27:ks0108.c      ****                          0x00, 0x04, 0x02, 0x7F, 0x00, // 1
  28:ks0108.c      ****                          0x42, 0x61, 0x51, 0x49, 0x46, // 2
  29:ks0108.c      ****                          0x22, 0x41, 0x49, 0x49, 0x36, // 3
  30:ks0108.c      ****                          0x18, 0x14, 0x12, 0x7F, 0x10, // 4
ARM GAS  C:\Users\USUARIO\AppData\Local\Temp\ccywmqVe.s 			page 2


  31:ks0108.c      ****                          0x27, 0x45, 0x45, 0x45, 0x39, // 5
  32:ks0108.c      ****                          0x3E, 0x49, 0x49, 0x49, 0x32, // 6
  33:ks0108.c      ****                          0x01, 0x01, 0x71, 0x09, 0x07, // 7
  34:ks0108.c      ****                          0x36, 0x49, 0x49, 0x49, 0x36, // 8
  35:ks0108.c      ****                          0x26, 0x49, 0x49, 0x49, 0x3E, // 9
  36:ks0108.c      ****                          0x00, 0x36, 0x36, 0x00, 0x00, // :
  37:ks0108.c      ****                          0x00, 0x56, 0x36, 0x00, 0x00, // ;
  38:ks0108.c      ****                          0x08, 0x14, 0x22, 0x41, 0x00, // <
  39:ks0108.c      ****                          0x14, 0x14, 0x14, 0x14, 0x14, // =
  40:ks0108.c      ****                          0x00, 0x41, 0x22, 0x14, 0x08, // >
  41:ks0108.c      ****                          0x02, 0x01, 0x51, 0x09, 0x06, // ?
  42:ks0108.c      ****                          0x3E, 0x41, 0x59, 0x55, 0x5E, // @
  43:ks0108.c      ****                          0x7E, 0x09, 0x09, 0x09, 0x7E, // A
  44:ks0108.c      ****                          0x7F, 0x49, 0x49, 0x49, 0x36, // B
  45:ks0108.c      ****                          0x3E, 0x41, 0x41, 0x41, 0x22, // C
  46:ks0108.c      ****                          0x7F, 0x41, 0x41, 0x41, 0x3E, // D
  47:ks0108.c      ****                          0x7F, 0x49, 0x49, 0x49, 0x41, // E
  48:ks0108.c      ****                          0x7F, 0x09, 0x09, 0x09, 0x01, // F
  49:ks0108.c      ****                          0x3E, 0x41, 0x41, 0x49, 0x3A, // G
  50:ks0108.c      ****                          0x7F, 0x08, 0x08, 0x08, 0x7F, // H
  51:ks0108.c      ****                          0x00, 0x41, 0x7F, 0x41, 0x00, // I
  52:ks0108.c      ****                          0x30, 0x40, 0x40, 0x40, 0x3F, // J
  53:ks0108.c      ****                          0x7F, 0x08, 0x14, 0x22, 0x41, // K
  54:ks0108.c      ****                          0x7F, 0x40, 0x40, 0x40, 0x40, // L
  55:ks0108.c      ****                          0x7F, 0x02, 0x0C, 0x02, 0x7F, // M
  56:ks0108.c      ****                          0x7F, 0x02, 0x04, 0x08, 0x7F, // N
  57:ks0108.c      ****                          0x3E, 0x41, 0x41, 0x41, 0x3E, // O
  58:ks0108.c      ****                          0x7F, 0x09, 0x09, 0x09, 0x06, // P
  59:ks0108.c      ****                          0x1E, 0x21, 0x21, 0x21, 0x5E, // Q
  60:ks0108.c      ****                          0x7F, 0x09, 0x09, 0x09, 0x76};// R
  61:ks0108.c      **** 
  62:ks0108.c      **** const int8 FONT2[45][5]={0x26, 0x49, 0x49, 0x49, 0x32, // S
  63:ks0108.c      ****                          0x01, 0x01, 0x7F, 0x01, 0x01, // T
  64:ks0108.c      ****                          0x3F, 0x40, 0x40, 0x40, 0x3F, // U
  65:ks0108.c      ****                          0x1F, 0x20, 0x40, 0x20, 0x1F, // V
  66:ks0108.c      ****                          0x7F, 0x20, 0x10, 0x20, 0x7F, // W
  67:ks0108.c      ****                          0x41, 0x22, 0x1C, 0x22, 0x41, // X
  68:ks0108.c      ****                          0x07, 0x08, 0x70, 0x08, 0x07, // Y
  69:ks0108.c      ****                          0x61, 0x51, 0x49, 0x45, 0x43, // Z
  70:ks0108.c      ****                          0x00, 0x7F, 0x41, 0x00, 0x00, // [
  71:ks0108.c      ****                          0x02, 0x04, 0x08, 0x10, 0x20, // \
  72:ks0108.c      ****                          0x00, 0x00, 0x41, 0x7F, 0x00, // ]
  73:ks0108.c      ****                          0x04, 0x02, 0x01, 0x02, 0x04, // ^
  74:ks0108.c      ****                          0x40, 0x40, 0x40, 0x40, 0x40, // _
  75:ks0108.c      ****                          0x00, 0x01, 0x02, 0x04, 0x00, // `
  76:ks0108.c      ****                          0x00, 0x01, 0x02, 0x04, 0x00, // `
  77:ks0108.c      ****                          0x20, 0x54, 0x54, 0x54, 0x78, // a
  78:ks0108.c      ****                          0x7F, 0x44, 0x44, 0x44, 0x38, // b
  79:ks0108.c      ****                          0x38, 0x44, 0x44, 0x44, 0x44, // c
  80:ks0108.c      ****                          0x38, 0x44, 0x44, 0x44, 0x7F, // d
  81:ks0108.c      ****                          0x38, 0x54, 0x54, 0x54, 0x18, // e
  82:ks0108.c      ****                          0x04, 0x04, 0x7E, 0x05, 0x05, // f
  83:ks0108.c      ****                          0x08, 0x54, 0x54, 0x54, 0x3C, // g
  84:ks0108.c      ****                          0x7F, 0x08, 0x04, 0x04, 0x78, // h
  85:ks0108.c      ****                          0x00, 0x44, 0x7D, 0x40, 0x00, // i
  86:ks0108.c      ****                          0x20, 0x40, 0x44, 0x3D, 0x00, // j
  87:ks0108.c      ****                          0x7F, 0x10, 0x28, 0x44, 0x00, // k
ARM GAS  C:\Users\USUARIO\AppData\Local\Temp\ccywmqVe.s 			page 3


  88:ks0108.c      ****                          0x00, 0x41, 0x7F, 0x40, 0x00, // l
  89:ks0108.c      ****                          0x7C, 0x04, 0x78, 0x04, 0x78, // m
  90:ks0108.c      ****                          0x7C, 0x08, 0x04, 0x04, 0x78, // n
  91:ks0108.c      ****                          0x38, 0x44, 0x44, 0x44, 0x38, // o
  92:ks0108.c      ****                          0x7C, 0x14, 0x14, 0x14, 0x08, // p
  93:ks0108.c      ****                          0x08, 0x14, 0x14, 0x14, 0x7C, // q
  94:ks0108.c      ****                          0x00, 0x7C, 0x08, 0x04, 0x04, // r
  95:ks0108.c      ****                          0x48, 0x54, 0x54, 0x54, 0x20, // s
  96:ks0108.c      ****                          0x04, 0x04, 0x3F, 0x44, 0x44, // t
  97:ks0108.c      ****                          0x3C, 0x40, 0x40, 0x20, 0x7C, // u
  98:ks0108.c      ****                          0x1C, 0x20, 0x40, 0x20, 0x1C, // v
  99:ks0108.c      ****                          0x3C, 0x40, 0x30, 0x40, 0x3C, // w
 100:ks0108.c      ****                          0x44, 0x28, 0x10, 0x28, 0x44, // x
 101:ks0108.c      ****                          0x0C, 0x50, 0x50, 0x50, 0x3C, // y
 102:ks0108.c      ****                          0x44, 0x64, 0x54, 0x4C, 0x44, // z
 103:ks0108.c      ****                          0x00, 0x08, 0x36, 0x41, 0x41, // {
 104:ks0108.c      ****                          0x00, 0x00, 0x7F, 0x00, 0x00, // |
 105:ks0108.c      ****                          0x41, 0x41, 0x36, 0x08, 0x00, // }
 106:ks0108.c      ****                          0x02, 0x01, 0x02, 0x04, 0x02};// ~
 107:ks0108.c      **** /////////////////////////////////////////////////////////////////////////
 108:ks0108.c      **** 
 109:ks0108.c      **** 
 110:ks0108.c      **** const int8 Horno [64][16] = {
 111:ks0108.c      **** 0x00, 0x00, 0x00, 0x00, 0x00, 0x00, 0x00, 0x00, 0x00, 0x00, 0x00, 0x00, 0x00, 0x00, 0x00, 0x00,
 112:ks0108.c      **** 0x01, 0xC0, 0x00, 0x00, 0x00, 0x00, 0x00, 0x00, 0x00, 0x00, 0x00, 0x00, 0x00, 0x00, 0x00, 0x00,
 113:ks0108.c      **** 0x07, 0xF0, 0x00, 0x00, 0x00, 0x00, 0x00, 0x00, 0x00, 0x00, 0x00, 0x00, 0x00, 0x00, 0x00, 0x00,
 114:ks0108.c      **** 0x1C, 0x9C, 0x00, 0x00, 0x00, 0x00, 0x00, 0x00, 0x00, 0x00, 0x00, 0x00, 0x00, 0x00, 0x00, 0x00,
 115:ks0108.c      **** 0x18, 0x0C, 0x00, 0x00, 0x00, 0x00, 0x00, 0x00, 0x00, 0x00, 0x00, 0x00, 0x00, 0x00, 0x00, 0x00,
 116:ks0108.c      **** 0x30, 0x86, 0x00, 0x00, 0x00, 0x00, 0x00, 0x00, 0x00, 0x00, 0x00, 0x00, 0x00, 0x00, 0x00, 0x00,
 117:ks0108.c      **** 0x20, 0x82, 0x00, 0x00, 0x00, 0x00, 0x00, 0x00, 0x00, 0x00, 0x00, 0x00, 0x00, 0x00, 0x00, 0x00,
 118:ks0108.c      **** 0x60, 0x83, 0x00, 0x00, 0x00, 0x00, 0x00, 0x00, 0x00, 0x00, 0x00, 0x00, 0x00, 0x00, 0x00, 0x00,
 119:ks0108.c      **** 0x70, 0x87, 0x00, 0x00, 0x00, 0x00, 0x00, 0x00, 0x00, 0x00, 0x00, 0x00, 0x00, 0x00, 0x00, 0x00,
 120:ks0108.c      **** 0x60, 0xC3, 0x00, 0x00, 0x00, 0x00, 0x00, 0x00, 0x00, 0x00, 0x00, 0x00, 0x00, 0x00, 0x00, 0x00,
 121:ks0108.c      **** 0x20, 0x62, 0x00, 0x00, 0x00, 0x00, 0x00, 0x00, 0x00, 0x00, 0x00, 0x00, 0x00, 0x00, 0x00, 0x00,
 122:ks0108.c      **** 0x30, 0x26, 0x00, 0x00, 0x00, 0x00, 0x00, 0x00, 0x00, 0x00, 0x00, 0x00, 0x00, 0x00, 0x00, 0x00,
 123:ks0108.c      **** 0x18, 0x0C, 0x00, 0x00, 0x00, 0x00, 0x00, 0x00, 0x00, 0x00, 0x00, 0x00, 0x00, 0x00, 0x00, 0x00,
 124:ks0108.c      **** 0x1C, 0x9C, 0x00, 0x00, 0x00, 0x00, 0x00, 0x00, 0x00, 0x00, 0x00, 0x00, 0x00, 0x00, 0x00, 0x00,
 125:ks0108.c      **** 0x07, 0xF0, 0x00, 0x00, 0x00, 0x00, 0x00, 0x00, 0x00, 0x00, 0x00, 0x00, 0x00, 0x00, 0x00, 0x00,
 126:ks0108.c      **** 0x01, 0xC0, 0x00, 0x00, 0x00, 0x00, 0x00, 0x00, 0x00, 0x00, 0x00, 0x00, 0x00, 0x00, 0x00, 0x00,
 127:ks0108.c      **** 0x00, 0x00, 0x00, 0x00, 0x00, 0x00, 0x00, 0x00, 0x00, 0x00, 0x00, 0x00, 0x00, 0x00, 0x00, 0x00,
 128:ks0108.c      **** 0x00, 0x00, 0x00, 0x00, 0x00, 0x00, 0x00, 0x00, 0x00, 0x00, 0x00, 0x00, 0x00, 0x00, 0x00, 0x00,
 129:ks0108.c      **** 0x00, 0x00, 0x00, 0x00, 0x00, 0x00, 0x00, 0x00, 0x00, 0x00, 0x00, 0x00, 0x00, 0x00, 0x00, 0x00,
 130:ks0108.c      **** 0x00, 0x00, 0x00, 0x00, 0x00, 0x00, 0x00, 0x00, 0x00, 0x00, 0x00, 0x00, 0x00, 0x00, 0x00, 0x00,
 131:ks0108.c      **** 0x00, 0x00, 0x00, 0x00, 0x00, 0x00, 0x00, 0x00, 0x00, 0x00, 0x00, 0x00, 0x00, 0x00, 0x00, 0x00,
 132:ks0108.c      **** 0x00, 0x00, 0x00, 0x00, 0x00, 0x00, 0x00, 0x00, 0x00, 0x00, 0x00, 0x00, 0x00, 0x00, 0x00, 0x00,
 133:ks0108.c      **** 0x00, 0x00, 0x00, 0x00, 0x00, 0x00, 0x00, 0x00, 0x00, 0x00, 0x00, 0x00, 0x00, 0x00, 0x00, 0x00,
 134:ks0108.c      **** 0x00, 0x00, 0x00, 0x00, 0x00, 0x00, 0x00, 0x00, 0x00, 0x00, 0x00, 0x00, 0x00, 0x00, 0x00, 0x00,
 135:ks0108.c      **** 0x00, 0x00, 0x00, 0x00, 0x00, 0x00, 0x00, 0x00, 0x00, 0x00, 0x00, 0x00, 0x00, 0x00, 0x00, 0x00,
 136:ks0108.c      **** 0x00, 0x00, 0x00, 0x00, 0x00, 0x00, 0x00, 0x00, 0x00, 0x00, 0x00, 0x00, 0x00, 0x00, 0x00, 0x00,
 137:ks0108.c      **** 0x00, 0x00, 0x00, 0x00, 0x00, 0x00, 0x00, 0x00, 0x00, 0x00, 0x00, 0x00, 0x00, 0x00, 0x00, 0x00,
 138:ks0108.c      **** 0x00, 0x00, 0x00, 0x00, 0x00, 0x00, 0x00, 0x00, 0x00, 0x00, 0x00, 0x00, 0x00, 0x00, 0x00, 0x00,
 139:ks0108.c      **** 0x01, 0x80, 0x00, 0x00, 0x00, 0x00, 0x00, 0x00, 0x00, 0x00, 0x00, 0x00, 0x00, 0x00, 0x00, 0x00,
 140:ks0108.c      **** 0x02, 0x40, 0x00, 0x00, 0x00, 0x00, 0x00, 0x00, 0x00, 0x00, 0x00, 0x00, 0x00, 0x00, 0x00, 0x00,
 141:ks0108.c      **** 0x02, 0x70, 0x00, 0x00, 0x00, 0x00, 0x00, 0x00, 0x00, 0x00, 0x00, 0x00, 0x00, 0x00, 0x00, 0x00,
 142:ks0108.c      **** 0x02, 0x40, 0x00, 0x00, 0x00, 0x00, 0x00, 0x00, 0x00, 0x00, 0x00, 0x00, 0x00, 0x00, 0x00, 0x00,
 143:ks0108.c      **** 0x03, 0xC0, 0x00, 0x00, 0x00, 0x00, 0x00, 0x00, 0x00, 0x00, 0x00, 0x00, 0x00, 0x00, 0x00, 0x00,
 144:ks0108.c      **** 0x03, 0xF0, 0x00, 0x00, 0x00, 0x00, 0x00, 0x00, 0x00, 0x00, 0x00, 0x00, 0x00, 0x00, 0x00, 0x00,
ARM GAS  C:\Users\USUARIO\AppData\Local\Temp\ccywmqVe.s 			page 4


 145:ks0108.c      **** 0x03, 0xC0, 0x00, 0x00, 0x00, 0x00, 0x00, 0x00, 0x00, 0x00, 0x00, 0x00, 0x00, 0x00, 0x00, 0x00,
 146:ks0108.c      **** 0x03, 0xC0, 0x00, 0x00, 0x00, 0x00, 0x00, 0x00, 0x00, 0x00, 0x00, 0x00, 0x00, 0x00, 0x00, 0x00,
 147:ks0108.c      **** 0x07, 0xE0, 0x00, 0x00, 0x00, 0x00, 0x00, 0x00, 0x00, 0x00, 0x00, 0x00, 0x00, 0x00, 0x00, 0x00,
 148:ks0108.c      **** 0x0F, 0xF0, 0x00, 0x00, 0x00, 0x00, 0x00, 0x00, 0x00, 0x00, 0x00, 0x00, 0x00, 0x00, 0x00, 0x00,
 149:ks0108.c      **** 0x0B, 0xF0, 0x00, 0x00, 0x00, 0x00, 0x00, 0x00, 0x00, 0x00, 0x00, 0x00, 0x00, 0x00, 0x00, 0x00,
 150:ks0108.c      **** 0x0B, 0xF0, 0x00, 0x00, 0x00, 0x00, 0x00, 0x00, 0x00, 0x00, 0x00, 0x00, 0x00, 0x00, 0x00, 0x00,
 151:ks0108.c      **** 0x0F, 0xF0, 0x00, 0x00, 0x00, 0x00, 0x00, 0x00, 0x00, 0x00, 0x00, 0x00, 0x00, 0x00, 0x00, 0x00,
 152:ks0108.c      **** 0x0F, 0xF0, 0x00, 0x00, 0x00, 0x00, 0x00, 0x00, 0x00, 0x00, 0x00, 0x00, 0x00, 0x00, 0x00, 0x00,
 153:ks0108.c      **** 0x07, 0xE0, 0x00, 0x00, 0x00, 0x00, 0x00, 0x00, 0x00, 0x00, 0x00, 0x00, 0x00, 0x00, 0x00, 0x00,
 154:ks0108.c      **** 0x03, 0xC0, 0x00, 0x00, 0x00, 0x00, 0x00, 0x00, 0x00, 0x00, 0x00, 0x00, 0x00, 0x00, 0x00, 0x00,
 155:ks0108.c      **** 0x00, 0x00, 0x00, 0x00, 0x00, 0x00, 0x00, 0x00, 0x00, 0x00, 0x00, 0x00, 0x00, 0x00, 0x00, 0x00,
 156:ks0108.c      **** 0x00, 0x00, 0x00, 0x00, 0x00, 0x00, 0x00, 0x00, 0x00, 0x00, 0x00, 0x00, 0x00, 0x00, 0x00, 0x00,
 157:ks0108.c      **** 0x00, 0x00, 0x00, 0x00, 0x00, 0x00, 0x00, 0x00, 0x00, 0x00, 0x00, 0x00, 0x00, 0x00, 0x00, 0x00,
 158:ks0108.c      **** 0x00, 0x00, 0x00, 0x00, 0x00, 0x00, 0x00, 0x00, 0x00, 0x00, 0x00, 0x00, 0x00, 0x00, 0x00, 0x00,
 159:ks0108.c      **** 0x00, 0x00, 0x00, 0x00, 0x00, 0x00, 0x00, 0x00, 0x00, 0x00, 0x00, 0x00, 0x00, 0x00, 0x00, 0x00,
 160:ks0108.c      **** 0x00, 0x00, 0x00, 0x00, 0x00, 0x00, 0x00, 0x00, 0x00, 0x00, 0x00, 0x00, 0x00, 0x00, 0x00, 0x00,
 161:ks0108.c      **** 0x00, 0x00, 0x00, 0x00, 0x00, 0x00, 0x00, 0x00, 0x00, 0x00, 0x00, 0x00, 0x00, 0x00, 0x00, 0x00,
 162:ks0108.c      **** 0x00, 0x00, 0x00, 0x00, 0x00, 0x00, 0x00, 0x00, 0x00, 0x00, 0x00, 0x00, 0x00, 0x00, 0x00, 0x00,
 163:ks0108.c      **** 0x00, 0x00, 0x00, 0x00, 0x00, 0x00, 0x00, 0x00, 0x00, 0x00, 0x00, 0x00, 0x00, 0x00, 0x00, 0x00,
 164:ks0108.c      **** 0x00, 0x00, 0x00, 0x00, 0x00, 0x00, 0x00, 0x00, 0x00, 0x00, 0x00, 0x00, 0x00, 0x00, 0x00, 0x00,
 165:ks0108.c      **** 0x00, 0x00, 0x00, 0x00, 0x00, 0x00, 0x00, 0x00, 0x00, 0x00, 0x00, 0x00, 0x00, 0x00, 0x00, 0x00,
 166:ks0108.c      **** 0x00, 0x00, 0x00, 0x00, 0x00, 0x00, 0x00, 0x00, 0x00, 0x00, 0x00, 0x00, 0x00, 0x00, 0x00, 0x00,
 167:ks0108.c      **** 0x00, 0x00, 0x00, 0x00, 0x00, 0x00, 0x00, 0x00, 0x00, 0x00, 0x00, 0x00, 0x00, 0x00, 0x00, 0x00,
 168:ks0108.c      **** 0x00, 0x00, 0x00, 0x00, 0x00, 0x00, 0x00, 0x00, 0x00, 0x00, 0x00, 0x00, 0x00, 0x00, 0x00, 0x00,
 169:ks0108.c      **** 0x00, 0x00, 0x00, 0x00, 0x00, 0x00, 0x00, 0x00, 0x00, 0x00, 0x00, 0x00, 0x00, 0x00, 0x00, 0x00,
 170:ks0108.c      **** 0x00, 0x00, 0x00, 0x00, 0x00, 0x00, 0x00, 0x00, 0x00, 0x00, 0x00, 0x00, 0x00, 0x00, 0x00, 0x00,
 171:ks0108.c      **** 0x00, 0x00, 0x00, 0x00, 0x00, 0x00, 0x00, 0x00, 0x00, 0x00, 0x00, 0x00, 0x00, 0x00, 0x00, 0x00,
 172:ks0108.c      **** 0x00, 0x00, 0x00, 0x00, 0x00, 0x00, 0x00, 0x00, 0x00, 0x00, 0x00, 0x00, 0x00, 0x00, 0x00, 0x00,
 173:ks0108.c      **** 0x00, 0x00, 0x00, 0x00, 0x00, 0x00, 0x00, 0x00, 0x00, 0x00, 0x00, 0x00, 0x00, 0x00, 0x00, 0x00,
 174:ks0108.c      **** 0x00, 0x00, 0x00, 0x00, 0x00, 0x00, 0x00, 0x00, 0x00, 0x00, 0x00, 0x00, 0x00, 0x00, 0x00, 0x00
 175:ks0108.c      **** };
 176:ks0108.c      **** 
 177:ks0108.c      **** 
 178:ks0108.c      **** 
 179:ks0108.c      **** void vLcdDataWrite(uint8_t ui8Value)
 180:ks0108.c      **** {   
  28              		.loc 1 180 0
  29              		.cfi_startproc
  30              		@ args = 0, pretend = 0, frame = 0
  31              		@ frame_needed = 0, uses_anonymous_args = 0
  32              	.LVL0:
  33 0000 10B5     		push	{r4, lr}
  34              		.cfi_def_cfa_offset 8
  35              		.cfi_offset 4, -8
  36              		.cfi_offset 14, -4
  37 0002 0446     		mov	r4, r0
 181:ks0108.c      ****    
 182:ks0108.c      ****     DB_0_Write(LOW);
  38              		.loc 1 182 0
  39 0004 0020     		movs	r0, #0
  40              	.LVL1:
  41 0006 FFF7FEFF 		bl	DB_0_Write
  42              	.LVL2:
 183:ks0108.c      ****     DB_1_Write(LOW);
  43              		.loc 1 183 0
  44 000a 0020     		movs	r0, #0
  45 000c FFF7FEFF 		bl	DB_1_Write
ARM GAS  C:\Users\USUARIO\AppData\Local\Temp\ccywmqVe.s 			page 5


  46              	.LVL3:
 184:ks0108.c      ****     DB_2_Write(LOW);
  47              		.loc 1 184 0
  48 0010 0020     		movs	r0, #0
  49 0012 FFF7FEFF 		bl	DB_2_Write
  50              	.LVL4:
 185:ks0108.c      ****     DB_3_Write(LOW);
  51              		.loc 1 185 0
  52 0016 0020     		movs	r0, #0
  53 0018 FFF7FEFF 		bl	DB_3_Write
  54              	.LVL5:
 186:ks0108.c      ****     DB_4_Write(LOW);
  55              		.loc 1 186 0
  56 001c 0020     		movs	r0, #0
  57 001e FFF7FEFF 		bl	DB_4_Write
  58              	.LVL6:
 187:ks0108.c      ****     DB_5_Write(LOW);
  59              		.loc 1 187 0
  60 0022 0020     		movs	r0, #0
  61 0024 FFF7FEFF 		bl	DB_5_Write
  62              	.LVL7:
 188:ks0108.c      ****     DB_6_Write(LOW);
  63              		.loc 1 188 0
  64 0028 0020     		movs	r0, #0
  65 002a FFF7FEFF 		bl	DB_6_Write
  66              	.LVL8:
 189:ks0108.c      ****     DB_7_Write(LOW);
  67              		.loc 1 189 0
  68 002e 0020     		movs	r0, #0
  69 0030 FFF7FEFF 		bl	DB_7_Write
  70              	.LVL9:
 190:ks0108.c      **** 
 191:ks0108.c      **** 		if(ui8Value & 0x01)
  71              		.loc 1 191 0
  72 0034 14F0010F 		tst	r4, #1
  73 0038 02D0     		beq	.L2
 192:ks0108.c      **** 			DB_0_Write(HIGH);
  74              		.loc 1 192 0
  75 003a 0120     		movs	r0, #1
  76 003c FFF7FEFF 		bl	DB_0_Write
  77              	.LVL10:
  78              	.L2:
 193:ks0108.c      **** 		if(ui8Value & 0x02)
  79              		.loc 1 193 0
  80 0040 14F0020F 		tst	r4, #2
  81 0044 02D0     		beq	.L3
 194:ks0108.c      **** 			DB_1_Write(HIGH);
  82              		.loc 1 194 0
  83 0046 0120     		movs	r0, #1
  84 0048 FFF7FEFF 		bl	DB_1_Write
  85              	.LVL11:
  86              	.L3:
 195:ks0108.c      **** 		if(ui8Value & 0x04)
  87              		.loc 1 195 0
  88 004c 14F0040F 		tst	r4, #4
  89 0050 02D0     		beq	.L4
 196:ks0108.c      **** 			DB_2_Write(HIGH);
ARM GAS  C:\Users\USUARIO\AppData\Local\Temp\ccywmqVe.s 			page 6


  90              		.loc 1 196 0
  91 0052 0120     		movs	r0, #1
  92 0054 FFF7FEFF 		bl	DB_2_Write
  93              	.LVL12:
  94              	.L4:
 197:ks0108.c      **** 		if(ui8Value & 0x08)
  95              		.loc 1 197 0
  96 0058 14F0080F 		tst	r4, #8
  97 005c 02D0     		beq	.L5
 198:ks0108.c      **** 			DB_3_Write(HIGH);
  98              		.loc 1 198 0
  99 005e 0120     		movs	r0, #1
 100 0060 FFF7FEFF 		bl	DB_3_Write
 101              	.LVL13:
 102              	.L5:
 199:ks0108.c      **** 		if(ui8Value & 0x10)
 103              		.loc 1 199 0
 104 0064 14F0100F 		tst	r4, #16
 105 0068 02D0     		beq	.L6
 200:ks0108.c      **** 			DB_4_Write(HIGH);
 106              		.loc 1 200 0
 107 006a 0120     		movs	r0, #1
 108 006c FFF7FEFF 		bl	DB_4_Write
 109              	.LVL14:
 110              	.L6:
 201:ks0108.c      **** 		if(ui8Value & 0x20)
 111              		.loc 1 201 0
 112 0070 14F0200F 		tst	r4, #32
 113 0074 02D0     		beq	.L7
 202:ks0108.c      **** 			DB_5_Write(HIGH);
 114              		.loc 1 202 0
 115 0076 0120     		movs	r0, #1
 116 0078 FFF7FEFF 		bl	DB_5_Write
 117              	.LVL15:
 118              	.L7:
 203:ks0108.c      **** 		if(ui8Value & 0x40)
 119              		.loc 1 203 0
 120 007c 14F0400F 		tst	r4, #64
 121 0080 02D0     		beq	.L8
 204:ks0108.c      **** 			DB_6_Write(HIGH);
 122              		.loc 1 204 0
 123 0082 0120     		movs	r0, #1
 124 0084 FFF7FEFF 		bl	DB_6_Write
 125              	.LVL16:
 126              	.L8:
 205:ks0108.c      **** 		if(ui8Value & 0x80)
 127              		.loc 1 205 0
 128 0088 14F0800F 		tst	r4, #128
 129 008c 02D0     		beq	.L1
 206:ks0108.c      **** 			DB_7_Write(HIGH);
 130              		.loc 1 206 0
 131 008e 0120     		movs	r0, #1
 132 0090 FFF7FEFF 		bl	DB_7_Write
 133              	.LVL17:
 134              	.L1:
 135 0094 10BD     		pop	{r4, pc}
 136              		.cfi_endproc
ARM GAS  C:\Users\USUARIO\AppData\Local\Temp\ccywmqVe.s 			page 7


 137              	.LFE64:
 138              		.size	vLcdDataWrite, .-vLcdDataWrite
 139 0096 00BF     		.section	.text.vLcdDataRead,"ax",%progbits
 140              		.align	2
 141              		.global	vLcdDataRead
 142              		.thumb
 143              		.thumb_func
 144              		.type	vLcdDataRead, %function
 145              	vLcdDataRead:
 146              	.LFB65:
 207:ks0108.c      ****            
 208:ks0108.c      **** }
 209:ks0108.c      **** 
 210:ks0108.c      **** uint8 vLcdDataRead()
 211:ks0108.c      **** {   
 147              		.loc 1 211 0
 148              		.cfi_startproc
 149              		@ args = 0, pretend = 0, frame = 0
 150              		@ frame_needed = 0, uses_anonymous_args = 0
 151 0000 10B5     		push	{r4, lr}
 152              		.cfi_def_cfa_offset 8
 153              		.cfi_offset 4, -8
 154              		.cfi_offset 14, -4
 155              	.LVL18:
 212:ks0108.c      ****    uint8 val;
 213:ks0108.c      ****     val=0;
 214:ks0108.c      **** 
 215:ks0108.c      **** 		if(DB_0_Read())
 156              		.loc 1 215 0
 157 0002 FFF7FEFF 		bl	DB_0_Read
 158              	.LVL19:
 159 0006 08B9     		cbnz	r0, .L20
 213:ks0108.c      **** 
 160              		.loc 1 213 0
 161 0008 0024     		movs	r4, #0
 162 000a 00E0     		b	.L12
 163              	.L20:
 216:ks0108.c      ****             val+=1;
 164              		.loc 1 216 0
 165 000c 0124     		movs	r4, #1
 166              	.L12:
 167              	.LVL20:
 217:ks0108.c      ****         if(DB_1_Read())
 168              		.loc 1 217 0
 169 000e FFF7FEFF 		bl	DB_1_Read
 170              	.LVL21:
 171 0012 08B1     		cbz	r0, .L13
 218:ks0108.c      ****             val+=2;
 172              		.loc 1 218 0
 173 0014 0234     		adds	r4, r4, #2
 174              	.LVL22:
 175 0016 E4B2     		uxtb	r4, r4
 176              	.LVL23:
 177              	.L13:
 219:ks0108.c      ****         if(DB_2_Read())
 178              		.loc 1 219 0
 179 0018 FFF7FEFF 		bl	DB_2_Read
ARM GAS  C:\Users\USUARIO\AppData\Local\Temp\ccywmqVe.s 			page 8


 180              	.LVL24:
 181 001c 08B1     		cbz	r0, .L14
 220:ks0108.c      ****             val+=4;
 182              		.loc 1 220 0
 183 001e 0434     		adds	r4, r4, #4
 184              	.LVL25:
 185 0020 E4B2     		uxtb	r4, r4
 186              	.LVL26:
 187              	.L14:
 221:ks0108.c      ****         if(DB_3_Read())
 188              		.loc 1 221 0
 189 0022 FFF7FEFF 		bl	DB_3_Read
 190              	.LVL27:
 191 0026 08B1     		cbz	r0, .L15
 222:ks0108.c      ****             val+=8;
 192              		.loc 1 222 0
 193 0028 0834     		adds	r4, r4, #8
 194              	.LVL28:
 195 002a E4B2     		uxtb	r4, r4
 196              	.LVL29:
 197              	.L15:
 223:ks0108.c      ****         if(DB_4_Read())
 198              		.loc 1 223 0
 199 002c FFF7FEFF 		bl	DB_4_Read
 200              	.LVL30:
 201 0030 08B1     		cbz	r0, .L16
 224:ks0108.c      ****             val+=16;
 202              		.loc 1 224 0
 203 0032 1034     		adds	r4, r4, #16
 204              	.LVL31:
 205 0034 E4B2     		uxtb	r4, r4
 206              	.LVL32:
 207              	.L16:
 225:ks0108.c      ****         if(DB_5_Read())
 208              		.loc 1 225 0
 209 0036 FFF7FEFF 		bl	DB_5_Read
 210              	.LVL33:
 211 003a 08B1     		cbz	r0, .L17
 226:ks0108.c      ****             val+=32;
 212              		.loc 1 226 0
 213 003c 2034     		adds	r4, r4, #32
 214              	.LVL34:
 215 003e E4B2     		uxtb	r4, r4
 216              	.LVL35:
 217              	.L17:
 227:ks0108.c      ****         if(DB_6_Read())
 218              		.loc 1 227 0
 219 0040 FFF7FEFF 		bl	DB_6_Read
 220              	.LVL36:
 221 0044 08B1     		cbz	r0, .L18
 228:ks0108.c      ****             val+=64;
 222              		.loc 1 228 0
 223 0046 4034     		adds	r4, r4, #64
 224              	.LVL37:
 225 0048 E4B2     		uxtb	r4, r4
 226              	.LVL38:
 227              	.L18:
ARM GAS  C:\Users\USUARIO\AppData\Local\Temp\ccywmqVe.s 			page 9


 229:ks0108.c      ****         if(DB_7_Read())
 228              		.loc 1 229 0
 229 004a FFF7FEFF 		bl	DB_7_Read
 230              	.LVL39:
 231 004e 08B1     		cbz	r0, .L19
 230:ks0108.c      ****             val+=128;
 232              		.loc 1 230 0
 233 0050 84F08004 		eor	r4, r4, #128
 234              	.LVL40:
 235              	.L19:
 231:ks0108.c      ****         return val;
 232:ks0108.c      **** }
 236              		.loc 1 232 0
 237 0054 2046     		mov	r0, r4
 238 0056 10BD     		pop	{r4, pc}
 239              		.cfi_endproc
 240              	.LFE65:
 241              		.size	vLcdDataRead, .-vLcdDataRead
 242              		.section	.text.glcd_writeByte,"ax",%progbits
 243              		.align	2
 244              		.global	glcd_writeByte
 245              		.thumb
 246              		.thumb_func
 247              		.type	glcd_writeByte, %function
 248              	glcd_writeByte:
 249              	.LFB66:
 233:ks0108.c      **** 
 234:ks0108.c      **** void glcd_writeByte(short side, uint8 data)
 235:ks0108.c      **** {
 250              		.loc 1 235 0
 251              		.cfi_startproc
 252              		@ args = 0, pretend = 0, frame = 0
 253              		@ frame_needed = 0, uses_anonymous_args = 0
 254              	.LVL41:
 255 0000 10B5     		push	{r4, lr}
 256              		.cfi_def_cfa_offset 8
 257              		.cfi_offset 4, -8
 258              		.cfi_offset 14, -4
 259 0002 0C46     		mov	r4, r1
 236:ks0108.c      ****    if(side){                   // Choose which side to write to
 260              		.loc 1 236 0
 261 0004 18B1     		cbz	r0, .L23
 237:ks0108.c      ****       LCD_CHIP_SELECT_2();
 262              		.loc 1 237 0
 263 0006 0120     		movs	r0, #1
 264              	.LVL42:
 265 0008 FFF7FEFF 		bl	CS_2_Write
 266              	.LVL43:
 267 000c 02E0     		b	.L24
 268              	.LVL44:
 269              	.L23:
 238:ks0108.c      ****    }else{
 239:ks0108.c      ****       LCD_CHIP_SELECT_1();
 270              		.loc 1 239 0
 271 000e 0120     		movs	r0, #1
 272              	.LVL45:
 273 0010 FFF7FEFF 		bl	CS_1_Write
ARM GAS  C:\Users\USUARIO\AppData\Local\Temp\ccywmqVe.s 			page 10


 274              	.LVL46:
 275              	.L24:
 240:ks0108.c      ****     }
 241:ks0108.c      **** 
 242:ks0108.c      ****    //output_low(GLCD_RW);       // Set for writing
 243:ks0108.c      ****     R_W_Write(0);
 276              		.loc 1 243 0
 277 0014 0020     		movs	r0, #0
 278 0016 FFF7FEFF 		bl	R_W_Write
 279              	.LVL47:
 244:ks0108.c      ****    vLcdDataWrite(data);            // Put the data on the port
 280              		.loc 1 244 0
 281 001a 2046     		mov	r0, r4
 282 001c FFF7FEFF 		bl	vLcdDataWrite
 283              	.LVL48:
 245:ks0108.c      ****    CyDelayCycles(100);
 284              		.loc 1 245 0
 285 0020 6420     		movs	r0, #100
 286 0022 FFF7FEFF 		bl	CyDelayCycles
 287              	.LVL49:
 246:ks0108.c      ****    //output_high(GLCD_E);       // Pulse the enable pin
 247:ks0108.c      ****     ENABLE_HIGH();
 288              		.loc 1 247 0
 289 0026 0120     		movs	r0, #1
 290 0028 FFF7FEFF 		bl	ENABLE_Write
 291              	.LVL50:
 248:ks0108.c      ****    CyDelayCycles(500);
 292              		.loc 1 248 0
 293 002c 4FF4FA70 		mov	r0, #500
 294 0030 FFF7FEFF 		bl	CyDelayCycles
 295              	.LVL51:
 249:ks0108.c      ****    ENABLE_LOW();
 296              		.loc 1 249 0
 297 0034 0020     		movs	r0, #0
 298 0036 FFF7FEFF 		bl	ENABLE_Write
 299              	.LVL52:
 250:ks0108.c      **** 
 251:ks0108.c      ****    LCD_CHIP_DESELECT_1();
 300              		.loc 1 251 0
 301 003a 0020     		movs	r0, #0
 302 003c FFF7FEFF 		bl	CS_1_Write
 303              	.LVL53:
 252:ks0108.c      ****    LCD_CHIP_DESELECT_2();
 304              		.loc 1 252 0
 305 0040 0020     		movs	r0, #0
 306 0042 FFF7FEFF 		bl	CS_2_Write
 307              	.LVL54:
 308 0046 10BD     		pop	{r4, pc}
 309              		.cfi_endproc
 310              	.LFE66:
 311              		.size	glcd_writeByte, .-glcd_writeByte
 312              		.section	.text.glcd_update,"ax",%progbits
 313              		.align	2
 314              		.global	glcd_update
 315              		.thumb
 316              		.thumb_func
 317              		.type	glcd_update, %function
ARM GAS  C:\Users\USUARIO\AppData\Local\Temp\ccywmqVe.s 			page 11


 318              	glcd_update:
 319              	.LFB67:
 253:ks0108.c      **** }
 254:ks0108.c      **** 
 255:ks0108.c      **** void glcd_update()
 256:ks0108.c      **** {
 320              		.loc 1 256 0
 321              		.cfi_startproc
 322              		@ args = 0, pretend = 0, frame = 0
 323              		@ frame_needed = 0, uses_anonymous_args = 0
 324 0000 2DE9F041 		push	{r4, r5, r6, r7, r8, lr}
 325              		.cfi_def_cfa_offset 24
 326              		.cfi_offset 4, -24
 327              		.cfi_offset 5, -20
 328              		.cfi_offset 6, -16
 329              		.cfi_offset 7, -12
 330              		.cfi_offset 8, -8
 331              		.cfi_offset 14, -4
 332              	.LVL55:
 257:ks0108.c      ****    uint8 i, j;
 258:ks0108.c      ****    uint8 *p1, *p2;
 259:ks0108.c      **** 
 260:ks0108.c      ****    p1 = displayData.left;
 261:ks0108.c      ****    p2 = displayData.right;
 333              		.loc 1 261 0
 334 0004 1C4D     		ldr	r5, .L32
 335              	.LVL56:
 260:ks0108.c      ****    p2 = displayData.right;
 336              		.loc 1 260 0
 337 0006 A5F50076 		sub	r6, r5, #512
 262:ks0108.c      **** 
 263:ks0108.c      ****    // Loop through the vertical pages
 264:ks0108.c      ****    for(i = 0; i < 8; ++i)
 338              		.loc 1 264 0
 339 000a 4FF00008 		mov	r8, #0
 340 000e 2DE0     		b	.L27
 341              	.LVL57:
 342              	.L30:
 265:ks0108.c      ****    {
 266:ks0108.c      ****       //output_low(GLCD_DI);                      // Set for instruction
 267:ks0108.c      ****       D_I_Write(0);
 343              		.loc 1 267 0
 344 0010 0020     		movs	r0, #0
 345 0012 FFF7FEFF 		bl	D_I_Write
 346              	.LVL58:
 268:ks0108.c      ****       //glcd_writeByte(GLCD_LEFT, 0x40);          // Set horizontal address to 0
 269:ks0108.c      ****       glcd_writeByte(GLCD_LEFT, 0x40);          // Set horizontal address to 0
 347              		.loc 1 269 0
 348 0016 4021     		movs	r1, #64
 349 0018 0020     		movs	r0, #0
 350 001a FFF7FEFF 		bl	glcd_writeByte
 351              	.LVL59:
 270:ks0108.c      ****       glcd_writeByte(GLCD_RIGHT, 0x40);
 352              		.loc 1 270 0
 353 001e 4021     		movs	r1, #64
 354 0020 0120     		movs	r0, #1
 355 0022 FFF7FEFF 		bl	glcd_writeByte
ARM GAS  C:\Users\USUARIO\AppData\Local\Temp\ccywmqVe.s 			page 12


 356              	.LVL60:
 271:ks0108.c      ****       glcd_writeByte(GLCD_LEFT, i | 0xB8);      // Set page address
 357              		.loc 1 271 0
 358 0026 48F0B804 		orr	r4, r8, #184
 359 002a 2146     		mov	r1, r4
 360 002c 0020     		movs	r0, #0
 361 002e FFF7FEFF 		bl	glcd_writeByte
 362              	.LVL61:
 272:ks0108.c      ****       glcd_writeByte(GLCD_RIGHT, i | 0xB8);
 363              		.loc 1 272 0
 364 0032 2146     		mov	r1, r4
 365 0034 0120     		movs	r0, #1
 366 0036 FFF7FEFF 		bl	glcd_writeByte
 367              	.LVL62:
 273:ks0108.c      ****       D_I_Write(1);
 368              		.loc 1 273 0
 369 003a 0120     		movs	r0, #1
 370 003c FFF7FEFF 		bl	D_I_Write
 371              	.LVL63:
 274:ks0108.c      **** 
 275:ks0108.c      ****       // Loop through the horizontal sections
 276:ks0108.c      ****       for(j = 0; j < 64; ++j)
 372              		.loc 1 276 0
 373 0040 0024     		movs	r4, #0
 374 0042 0DE0     		b	.L28
 375              	.LVL64:
 376              	.L29:
 277:ks0108.c      ****       {
 278:ks0108.c      ****          glcd_writeByte(GLCD_LEFT, *p1++);      // Turn pixels on or off
 377              		.loc 1 278 0 discriminator 3
 378 0044 771C     		adds	r7, r6, #1
 379              	.LVL65:
 380 0046 3178     		ldrb	r1, [r6]	@ zero_extendqisi2
 381 0048 0020     		movs	r0, #0
 382 004a FFF7FEFF 		bl	glcd_writeByte
 383              	.LVL66:
 279:ks0108.c      ****          glcd_writeByte(GLCD_RIGHT, *p2++);     // Turn pixels on or off
 384              		.loc 1 279 0 discriminator 3
 385 004e 6E1C     		adds	r6, r5, #1
 386              	.LVL67:
 387 0050 2978     		ldrb	r1, [r5]	@ zero_extendqisi2
 388 0052 0120     		movs	r0, #1
 389 0054 FFF7FEFF 		bl	glcd_writeByte
 390              	.LVL68:
 276:ks0108.c      ****       {
 391              		.loc 1 276 0 discriminator 3
 392 0058 0134     		adds	r4, r4, #1
 393              	.LVL69:
 394 005a E4B2     		uxtb	r4, r4
 395              	.LVL70:
 396              		.loc 1 279 0 discriminator 3
 397 005c 3546     		mov	r5, r6
 278:ks0108.c      ****          glcd_writeByte(GLCD_RIGHT, *p2++);     // Turn pixels on or off
 398              		.loc 1 278 0 discriminator 3
 399 005e 3E46     		mov	r6, r7
 400              	.LVL71:
 401              	.L28:
ARM GAS  C:\Users\USUARIO\AppData\Local\Temp\ccywmqVe.s 			page 13


 276:ks0108.c      ****       {
 402              		.loc 1 276 0 discriminator 1
 403 0060 3F2C     		cmp	r4, #63
 404 0062 EFD9     		bls	.L29
 264:ks0108.c      ****    {
 405              		.loc 1 264 0 discriminator 2
 406 0064 08F10108 		add	r8, r8, #1
 407              	.LVL72:
 408 0068 5FFA88F8 		uxtb	r8, r8
 409              	.LVL73:
 410              	.L27:
 264:ks0108.c      ****    {
 411              		.loc 1 264 0 is_stmt 0 discriminator 1
 412 006c B8F1070F 		cmp	r8, #7
 413 0070 CED9     		bls	.L30
 280:ks0108.c      ****       }
 281:ks0108.c      ****    }
 282:ks0108.c      **** }
 414              		.loc 1 282 0 is_stmt 1
 415 0072 BDE8F081 		pop	{r4, r5, r6, r7, r8, pc}
 416              	.LVL74:
 417              	.L33:
 418 0076 00BF     		.align	2
 419              	.L32:
 420 0078 00020000 		.word	displayData+512
 421              		.cfi_endproc
 422              	.LFE67:
 423              		.size	glcd_update, .-glcd_update
 424              		.section	.text.glcd_readByte,"ax",%progbits
 425              		.align	2
 426              		.global	glcd_readByte
 427              		.thumb
 428              		.thumb_func
 429              		.type	glcd_readByte, %function
 430              	glcd_readByte:
 431              	.LFB68:
 283:ks0108.c      **** 
 284:ks0108.c      **** uint8 glcd_readByte(short side)
 285:ks0108.c      **** {
 432              		.loc 1 285 0
 433              		.cfi_startproc
 434              		@ args = 0, pretend = 0, frame = 0
 435              		@ frame_needed = 0, uses_anonymous_args = 0
 436              	.LVL75:
 437 0000 10B5     		push	{r4, lr}
 438              		.cfi_def_cfa_offset 8
 439              		.cfi_offset 4, -8
 440              		.cfi_offset 14, -4
 441 0002 0446     		mov	r4, r0
 286:ks0108.c      ****    uint8 data;                 // Stores the data read from the LCD
 287:ks0108.c      **** 
 288:ks0108.c      ****    //set_tris_d(0xFF);          // Set port d to input
 289:ks0108.c      ****    //output_high(GLCD_RW);      // Set for reading
 290:ks0108.c      ****     R_W_Write(1);
 442              		.loc 1 290 0
 443 0004 0120     		movs	r0, #1
 444              	.LVL76:
ARM GAS  C:\Users\USUARIO\AppData\Local\Temp\ccywmqVe.s 			page 14


 445 0006 FFF7FEFF 		bl	R_W_Write
 446              	.LVL77:
 291:ks0108.c      **** 
 292:ks0108.c      ****    if(side){                   // Choose which side to write to
 447              		.loc 1 292 0
 448 000a 1CB1     		cbz	r4, .L35
 293:ks0108.c      ****       LCD_CHIP_SELECT_2();
 449              		.loc 1 293 0
 450 000c 0120     		movs	r0, #1
 451 000e FFF7FEFF 		bl	CS_2_Write
 452              	.LVL78:
 453 0012 02E0     		b	.L36
 454              	.L35:
 294:ks0108.c      ****    }else{
 295:ks0108.c      ****       LCD_CHIP_SELECT_1();
 455              		.loc 1 295 0
 456 0014 0120     		movs	r0, #1
 457 0016 FFF7FEFF 		bl	CS_1_Write
 458              	.LVL79:
 459              	.L36:
 296:ks0108.c      ****     }
 297:ks0108.c      **** 
 298:ks0108.c      ****    CyDelayCycles(100);
 460              		.loc 1 298 0
 461 001a 6420     		movs	r0, #100
 462 001c FFF7FEFF 		bl	CyDelayCycles
 463              	.LVL80:
 299:ks0108.c      ****    //output_high(GLCD_E);       // Pulse the enable pin
 300:ks0108.c      ****     ENABLE_HIGH();
 464              		.loc 1 300 0
 465 0020 0120     		movs	r0, #1
 466 0022 FFF7FEFF 		bl	ENABLE_Write
 467              	.LVL81:
 301:ks0108.c      ****    CyDelayCycles(400);
 468              		.loc 1 301 0
 469 0026 4FF4C870 		mov	r0, #400
 470 002a FFF7FEFF 		bl	CyDelayCycles
 471              	.LVL82:
 302:ks0108.c      ****    data = vLcdDataRead();          // Get the data from the display's output register
 472              		.loc 1 302 0
 473 002e FFF7FEFF 		bl	vLcdDataRead
 474              	.LVL83:
 475 0032 0446     		mov	r4, r0
 476              	.LVL84:
 303:ks0108.c      ****    //output_low(GLCD_E);
 304:ks0108.c      ****     ENABLE_LOW();
 477              		.loc 1 304 0
 478 0034 0020     		movs	r0, #0
 479 0036 FFF7FEFF 		bl	ENABLE_Write
 480              	.LVL85:
 305:ks0108.c      **** 
 306:ks0108.c      ****    LCD_CHIP_DESELECT_1();
 481              		.loc 1 306 0
 482 003a 0020     		movs	r0, #0
 483 003c FFF7FEFF 		bl	CS_1_Write
 484              	.LVL86:
 307:ks0108.c      ****    LCD_CHIP_DESELECT_2();
ARM GAS  C:\Users\USUARIO\AppData\Local\Temp\ccywmqVe.s 			page 15


 485              		.loc 1 307 0
 486 0040 0020     		movs	r0, #0
 487 0042 FFF7FEFF 		bl	CS_2_Write
 488              	.LVL87:
 308:ks0108.c      ****    return data;               // Return the read data
 309:ks0108.c      **** }
 489              		.loc 1 309 0
 490 0046 2046     		mov	r0, r4
 491 0048 10BD     		pop	{r4, pc}
 492              		.cfi_endproc
 493              	.LFE68:
 494              		.size	glcd_readByte, .-glcd_readByte
 495 004a 00BF     		.section	.text.glcd_fillScreen,"ax",%progbits
 496              		.align	2
 497              		.global	glcd_fillScreen
 498              		.thumb
 499              		.thumb_func
 500              		.type	glcd_fillScreen, %function
 501              	glcd_fillScreen:
 502              	.LFB69:
 310:ks0108.c      **** 
 311:ks0108.c      **** void glcd_fillScreen(short color)
 312:ks0108.c      **** {
 503              		.loc 1 312 0
 504              		.cfi_startproc
 505              		@ args = 0, pretend = 0, frame = 0
 506              		@ frame_needed = 0, uses_anonymous_args = 0
 507              		@ link register save eliminated.
 508              	.LVL88:
 313:ks0108.c      ****    uint8  data;
 314:ks0108.c      ****    uint8  *p1, *p2;
 315:ks0108.c      ****    uint16 i;
 316:ks0108.c      **** 
 317:ks0108.c      ****    p1 = displayData.left;
 318:ks0108.c      ****    p2 = displayData.right;
 319:ks0108.c      ****    data = 0xFF * color;
 509              		.loc 1 319 0
 510 0000 4042     		negs	r0, r0
 511              	.LVL89:
 512 0002 C0B2     		uxtb	r0, r0
 513              	.LVL90:
 320:ks0108.c      **** 
 321:ks0108.c      ****    for(i=0; i<512; ++i)
 514              		.loc 1 321 0
 515 0004 0023     		movs	r3, #0
 318:ks0108.c      ****    data = 0xFF * color;
 516              		.loc 1 318 0
 517 0006 074A     		ldr	r2, .L41
 518              	.LVL91:
 317:ks0108.c      ****    p2 = displayData.right;
 519              		.loc 1 317 0
 520 0008 A2F50071 		sub	r1, r2, #512
 521              		.loc 1 321 0
 522 000c 05E0     		b	.L39
 523              	.LVL92:
 524              	.L40:
 322:ks0108.c      ****    {
ARM GAS  C:\Users\USUARIO\AppData\Local\Temp\ccywmqVe.s 			page 16


 323:ks0108.c      ****       *p1++ = data;
 525              		.loc 1 323 0 discriminator 3
 526 000e 0870     		strb	r0, [r1]
 527              	.LVL93:
 324:ks0108.c      ****       *p2++ = data;
 528              		.loc 1 324 0 discriminator 3
 529 0010 1070     		strb	r0, [r2]
 321:ks0108.c      ****    {
 530              		.loc 1 321 0 discriminator 3
 531 0012 0133     		adds	r3, r3, #1
 532              	.LVL94:
 533 0014 9BB2     		uxth	r3, r3
 534              	.LVL95:
 535              		.loc 1 324 0 discriminator 3
 536 0016 0132     		adds	r2, r2, #1
 537              	.LVL96:
 323:ks0108.c      ****       *p2++ = data;
 538              		.loc 1 323 0 discriminator 3
 539 0018 0131     		adds	r1, r1, #1
 540              	.LVL97:
 541              	.L39:
 321:ks0108.c      ****    {
 542              		.loc 1 321 0 discriminator 1
 543 001a B3F5007F 		cmp	r3, #512
 544 001e F6D3     		bcc	.L40
 325:ks0108.c      ****    }
 326:ks0108.c      ****    
 327:ks0108.c      **** }
 545              		.loc 1 327 0
 546 0020 7047     		bx	lr
 547              	.L42:
 548 0022 00BF     		.align	2
 549              	.L41:
 550 0024 00020000 		.word	displayData+512
 551              		.cfi_endproc
 552              	.LFE69:
 553              		.size	glcd_fillScreen, .-glcd_fillScreen
 554              		.section	.text.glcd_init,"ax",%progbits
 555              		.align	2
 556              		.global	glcd_init
 557              		.thumb
 558              		.thumb_func
 559              		.type	glcd_init, %function
 560              	glcd_init:
 561              	.LFB70:
 328:ks0108.c      **** 
 329:ks0108.c      **** void glcd_init(short mode)
 330:ks0108.c      **** {
 562              		.loc 1 330 0
 563              		.cfi_startproc
 564              		@ args = 0, pretend = 0, frame = 0
 565              		@ frame_needed = 0, uses_anonymous_args = 0
 566              	.LVL98:
 567 0000 10B5     		push	{r4, lr}
 568              		.cfi_def_cfa_offset 8
 569              		.cfi_offset 4, -8
 570              		.cfi_offset 14, -4
ARM GAS  C:\Users\USUARIO\AppData\Local\Temp\ccywmqVe.s 			page 17


 571 0002 0446     		mov	r4, r0
 331:ks0108.c      ****    // Initialze some pins
 332:ks0108.c      ****    //output_high(GLCD_RST);
 333:ks0108.c      ****     RESET_Write(1);
 572              		.loc 1 333 0
 573 0004 0120     		movs	r0, #1
 574              	.LVL99:
 575 0006 FFF7FEFF 		bl	RESET_Write
 576              	.LVL100:
 334:ks0108.c      ****    ENABLE_Write(0);
 577              		.loc 1 334 0
 578 000a 0020     		movs	r0, #0
 579 000c FFF7FEFF 		bl	ENABLE_Write
 580              	.LVL101:
 335:ks0108.c      ****    LCD_CHIP_DESELECT_1();
 581              		.loc 1 335 0
 582 0010 0020     		movs	r0, #0
 583 0012 FFF7FEFF 		bl	CS_1_Write
 584              	.LVL102:
 336:ks0108.c      ****    LCD_CHIP_DESELECT_2();
 585              		.loc 1 336 0
 586 0016 0020     		movs	r0, #0
 587 0018 FFF7FEFF 		bl	CS_2_Write
 588              	.LVL103:
 337:ks0108.c      **** 
 338:ks0108.c      ****    D_I_Write(0);
 589              		.loc 1 338 0
 590 001c 0020     		movs	r0, #0
 591 001e FFF7FEFF 		bl	D_I_Write
 592              	.LVL104:
 339:ks0108.c      ****    glcd_writeByte(GLCD_LEFT,  0xC0);    // Specify first RAM line at the top
 593              		.loc 1 339 0
 594 0022 C021     		movs	r1, #192
 595 0024 0020     		movs	r0, #0
 596 0026 FFF7FEFF 		bl	glcd_writeByte
 597              	.LVL105:
 340:ks0108.c      ****    glcd_writeByte(GLCD_RIGHT, 0xC0);    //   of the screen
 598              		.loc 1 340 0
 599 002a C021     		movs	r1, #192
 600 002c 0120     		movs	r0, #1
 601 002e FFF7FEFF 		bl	glcd_writeByte
 602              	.LVL106:
 341:ks0108.c      ****    glcd_writeByte(GLCD_LEFT,  0x40);    // Set the column address to 0
 603              		.loc 1 341 0
 604 0032 4021     		movs	r1, #64
 605 0034 0020     		movs	r0, #0
 606 0036 FFF7FEFF 		bl	glcd_writeByte
 607              	.LVL107:
 342:ks0108.c      ****    glcd_writeByte(GLCD_RIGHT, 0x40);
 608              		.loc 1 342 0
 609 003a 4021     		movs	r1, #64
 610 003c 0120     		movs	r0, #1
 611 003e FFF7FEFF 		bl	glcd_writeByte
 612              	.LVL108:
 343:ks0108.c      ****    glcd_writeByte(GLCD_LEFT,  0xB8);    // Set the page address to 0
 613              		.loc 1 343 0
 614 0042 B821     		movs	r1, #184
ARM GAS  C:\Users\USUARIO\AppData\Local\Temp\ccywmqVe.s 			page 18


 615 0044 0020     		movs	r0, #0
 616 0046 FFF7FEFF 		bl	glcd_writeByte
 617              	.LVL109:
 344:ks0108.c      ****    glcd_writeByte(GLCD_RIGHT, 0xB8);
 618              		.loc 1 344 0
 619 004a B821     		movs	r1, #184
 620 004c 0120     		movs	r0, #1
 621 004e FFF7FEFF 		bl	glcd_writeByte
 622              	.LVL110:
 345:ks0108.c      **** 
 346:ks0108.c      ****    if(mode == ON)
 623              		.loc 1 346 0
 624 0052 012C     		cmp	r4, #1
 625 0054 08D1     		bne	.L44
 347:ks0108.c      ****    {
 348:ks0108.c      ****       glcd_writeByte(GLCD_LEFT,  0x3F); // Turn the display on
 626              		.loc 1 348 0
 627 0056 3F21     		movs	r1, #63
 628 0058 0020     		movs	r0, #0
 629 005a FFF7FEFF 		bl	glcd_writeByte
 630              	.LVL111:
 349:ks0108.c      ****       glcd_writeByte(GLCD_RIGHT, 0x3F);
 631              		.loc 1 349 0
 632 005e 3F21     		movs	r1, #63
 633 0060 0120     		movs	r0, #1
 634 0062 FFF7FEFF 		bl	glcd_writeByte
 635              	.LVL112:
 636 0066 07E0     		b	.L45
 637              	.L44:
 350:ks0108.c      ****    }
 351:ks0108.c      ****    else
 352:ks0108.c      ****    {
 353:ks0108.c      ****       glcd_writeByte(GLCD_LEFT,  0x3E); // Turn the display off
 638              		.loc 1 353 0
 639 0068 3E21     		movs	r1, #62
 640 006a 0020     		movs	r0, #0
 641 006c FFF7FEFF 		bl	glcd_writeByte
 642              	.LVL113:
 354:ks0108.c      ****       glcd_writeByte(GLCD_RIGHT, 0x3E);
 643              		.loc 1 354 0
 644 0070 3E21     		movs	r1, #62
 645 0072 0120     		movs	r0, #1
 646 0074 FFF7FEFF 		bl	glcd_writeByte
 647              	.LVL114:
 648              	.L45:
 355:ks0108.c      ****    }
 356:ks0108.c      **** 
 357:ks0108.c      ****    glcd_fillScreen(OFF);                // Clear the display
 649              		.loc 1 357 0
 650 0078 0020     		movs	r0, #0
 651 007a FFF7FEFF 		bl	glcd_fillScreen
 652              	.LVL115:
 358:ks0108.c      ****    glcd_update();
 653              		.loc 1 358 0
 654 007e FFF7FEFF 		bl	glcd_update
 655              	.LVL116:
 656 0082 10BD     		pop	{r4, pc}
ARM GAS  C:\Users\USUARIO\AppData\Local\Temp\ccywmqVe.s 			page 19


 657              		.cfi_endproc
 658              	.LFE70:
 659              		.size	glcd_init, .-glcd_init
 660              		.section	.text.glcd_pixel,"ax",%progbits
 661              		.align	2
 662              		.global	glcd_pixel
 663              		.thumb
 664              		.thumb_func
 665              		.type	glcd_pixel, %function
 666              	glcd_pixel:
 667              	.LFB71:
 359:ks0108.c      **** }
 360:ks0108.c      **** 
 361:ks0108.c      **** void glcd_pixel(uint8 x, uint8 y, short color)
 362:ks0108.c      **** {
 668              		.loc 1 362 0
 669              		.cfi_startproc
 670              		@ args = 0, pretend = 0, frame = 0
 671              		@ frame_needed = 0, uses_anonymous_args = 0
 672              		@ link register save eliminated.
 673              	.LVL117:
 363:ks0108.c      ****     
 364:ks0108.c      ****    uint8* p;
 365:ks0108.c      ****    uint16 temp;
 366:ks0108.c      ****    temp =  y/8;
 674              		.loc 1 366 0
 675 0000 CB08     		lsrs	r3, r1, #3
 676              	.LVL118:
 367:ks0108.c      ****    temp *= 64;
 368:ks0108.c      ****    temp += x;
 677              		.loc 1 368 0
 678 0002 00EB8313 		add	r3, r0, r3, lsl #6
 679              	.LVL119:
 369:ks0108.c      **** 
 370:ks0108.c      ****    if(x > 63)
 680              		.loc 1 370 0
 681 0006 3F28     		cmp	r0, #63
 682 0008 03D9     		bls	.L48
 371:ks0108.c      ****    {
 372:ks0108.c      ****       p = displayData.right + temp - 64;
 683              		.loc 1 372 0
 684 000a 403B     		subs	r3, r3, #64
 685              	.LVL120:
 686 000c 0C48     		ldr	r0, .L52
 687              	.LVL121:
 688 000e 0344     		add	r3, r3, r0
 689              	.LVL122:
 690 0010 01E0     		b	.L49
 691              	.LVL123:
 692              	.L48:
 373:ks0108.c      ****    }
 374:ks0108.c      ****    else
 375:ks0108.c      ****    {
 376:ks0108.c      ****       p = displayData.left + temp;
 693              		.loc 1 376 0
 694 0012 0C48     		ldr	r0, .L52+4
 695              	.LVL124:
ARM GAS  C:\Users\USUARIO\AppData\Local\Temp\ccywmqVe.s 			page 20


 696 0014 0344     		add	r3, r3, r0
 697              	.LVL125:
 698              	.L49:
 377:ks0108.c      ****    }
 378:ks0108.c      **** 
 379:ks0108.c      ****    if(color)
 699              		.loc 1 379 0
 700 0016 42B1     		cbz	r2, .L50
 380:ks0108.c      ****    {
 381:ks0108.c      ****       bitSet(*p, y%8);
 701              		.loc 1 381 0
 702 0018 01F00701 		and	r1, r1, #7
 703              	.LVL126:
 704 001c 0122     		movs	r2, #1
 705              	.LVL127:
 706 001e 02FA01F1 		lsl	r1, r2, r1
 707 0022 1A78     		ldrb	r2, [r3]	@ zero_extendqisi2
 708 0024 1143     		orrs	r1, r1, r2
 709 0026 1970     		strb	r1, [r3]
 710 0028 7047     		bx	lr
 711              	.LVL128:
 712              	.L50:
 382:ks0108.c      ****    }
 383:ks0108.c      ****    else
 384:ks0108.c      ****    {
 385:ks0108.c      ****       bitClear(*p, y%8);
 713              		.loc 1 385 0
 714 002a 01F00701 		and	r1, r1, #7
 715              	.LVL129:
 716 002e 0122     		movs	r2, #1
 717              	.LVL130:
 718 0030 02FA01F1 		lsl	r1, r2, r1
 719 0034 1A78     		ldrb	r2, [r3]	@ zero_extendqisi2
 720 0036 22EA0101 		bic	r1, r2, r1
 721 003a 1970     		strb	r1, [r3]
 722 003c 7047     		bx	lr
 723              	.L53:
 724 003e 00BF     		.align	2
 725              	.L52:
 726 0040 00020000 		.word	displayData+512
 727 0044 00000000 		.word	displayData
 728              		.cfi_endproc
 729              	.LFE71:
 730              		.size	glcd_pixel, .-glcd_pixel
 731              		.section	.text.glcd_line,"ax",%progbits
 732              		.align	2
 733              		.global	glcd_line
 734              		.thumb
 735              		.thumb_func
 736              		.type	glcd_line, %function
 737              	glcd_line:
 738              	.LFB72:
 386:ks0108.c      ****    }
 387:ks0108.c      ****     
 388:ks0108.c      **** }
 389:ks0108.c      **** 
 390:ks0108.c      **** void glcd_line(uint8 x1, uint8 y1, uint8 x2, uint8 y2, short color)
ARM GAS  C:\Users\USUARIO\AppData\Local\Temp\ccywmqVe.s 			page 21


 391:ks0108.c      **** {
 739              		.loc 1 391 0
 740              		.cfi_startproc
 741              		@ args = 4, pretend = 0, frame = 8
 742              		@ frame_needed = 0, uses_anonymous_args = 0
 743              	.LVL131:
 744 0000 2DE9F04F 		push	{r4, r5, r6, r7, r8, r9, r10, fp, lr}
 745              		.cfi_def_cfa_offset 36
 746              		.cfi_offset 4, -36
 747              		.cfi_offset 5, -32
 748              		.cfi_offset 6, -28
 749              		.cfi_offset 7, -24
 750              		.cfi_offset 8, -20
 751              		.cfi_offset 9, -16
 752              		.cfi_offset 10, -12
 753              		.cfi_offset 11, -8
 754              		.cfi_offset 14, -4
 755 0004 83B0     		sub	sp, sp, #12
 756              		.cfi_def_cfa_offset 48
 757 0006 0446     		mov	r4, r0
 758 0008 0D46     		mov	r5, r1
 759 000a BDF93010 		ldrsh	r1, [sp, #48]
 760              	.LVL132:
 761 000e 0091     		str	r1, [sp]
 762              	.LVL133:
 392:ks0108.c      ****    uint16        dy, dx;
 393:ks0108.c      ****    uint8  addx=1, addy=1;
 394:ks0108.c      ****    int16 P, diff;
 395:ks0108.c      **** 
 396:ks0108.c      ****    uint8 i=0;
 397:ks0108.c      ****    dx = x2 - x1;
 763              		.loc 1 397 0
 764 0010 C0EB0208 		rsb	r8, r0, r2
 765 0014 1FFA88F8 		uxth	r8, r8
 766              	.LVL134:
 398:ks0108.c      ****    dy = y2 - y1;
 767              		.loc 1 398 0
 768 0018 C5EB030B 		rsb	fp, r5, r3
 769 001c 1FFA8BFB 		uxth	fp, fp
 770              	.LVL135:
 399:ks0108.c      **** 
 400:ks0108.c      ****    if(x1 > x2)
 771              		.loc 1 400 0
 772 0020 8242     		cmp	r2, r0
 773 0022 02D3     		bcc	.L67
 393:ks0108.c      ****    int16 P, diff;
 774              		.loc 1 393 0
 775 0024 4FF00109 		mov	r9, #1
 776 0028 01E0     		b	.L55
 777              	.L67:
 401:ks0108.c      ****       addx = -1;
 778              		.loc 1 401 0
 779 002a 4FF0FF09 		mov	r9, #255
 780              	.L55:
 781              	.LVL136:
 402:ks0108.c      ****    if(y1 > y2)
 782              		.loc 1 402 0
ARM GAS  C:\Users\USUARIO\AppData\Local\Temp\ccywmqVe.s 			page 22


 783 002e AB42     		cmp	r3, r5
 784 0030 02D3     		bcc	.L68
 393:ks0108.c      ****    int16 P, diff;
 785              		.loc 1 393 0
 786 0032 4FF0010A 		mov	r10, #1
 787 0036 01E0     		b	.L56
 788              	.L68:
 403:ks0108.c      ****       addy = -1;
 789              		.loc 1 403 0
 790 0038 4FF0FF0A 		mov	r10, #255
 791              	.L56:
 792              	.LVL137:
 404:ks0108.c      **** 
 405:ks0108.c      ****    if(dx >= dy)
 793              		.loc 1 405 0
 794 003c D845     		cmp	r8, fp
 795 003e 29D3     		bcc	.L57
 406:ks0108.c      ****    {
 407:ks0108.c      ****       dy *= 2;
 796              		.loc 1 407 0
 797 0040 4FEA4B0B 		lsl	fp, fp, #1
 798              	.LVL138:
 799 0044 1FFA8BF3 		uxth	r3, fp
 800              	.LVL139:
 801 0048 0193     		str	r3, [sp, #4]
 802              	.LVL140:
 408:ks0108.c      ****       P = dy - dx;
 803              		.loc 1 408 0
 804 004a C8EB030B 		rsb	fp, r8, r3
 805 004e 1FFA8BFB 		uxth	fp, fp
 806 0052 0FFA8BF7 		sxth	r7, fp
 807              	.LVL141:
 409:ks0108.c      ****       diff = P - dx;
 808              		.loc 1 409 0
 809 0056 C8EB0B0B 		rsb	fp, r8, fp
 810 005a 1FFA8BFB 		uxth	fp, fp
 811              	.LVL142:
 396:ks0108.c      ****    dx = x2 - x1;
 812              		.loc 1 396 0
 813 005e 0026     		movs	r6, #0
 410:ks0108.c      **** 
 411:ks0108.c      ****       for(; i<=dx; ++i)
 814              		.loc 1 411 0
 815 0060 14E0     		b	.L58
 816              	.LVL143:
 817              	.L61:
 412:ks0108.c      ****       {
 413:ks0108.c      ****          glcd_pixel(x1, y1, color);
 818              		.loc 1 413 0
 819 0062 009A     		ldr	r2, [sp]
 820 0064 2946     		mov	r1, r5
 821 0066 2046     		mov	r0, r4
 822 0068 FFF7FEFF 		bl	glcd_pixel
 823              	.LVL144:
 414:ks0108.c      **** 
 415:ks0108.c      ****          if(P < 0)
 824              		.loc 1 415 0
ARM GAS  C:\Users\USUARIO\AppData\Local\Temp\ccywmqVe.s 			page 23


 825 006c 002F     		cmp	r7, #0
 826 006e 05DA     		bge	.L59
 416:ks0108.c      ****          {
 417:ks0108.c      ****             P  += dy;
 827              		.loc 1 417 0
 828 0070 019B     		ldr	r3, [sp, #4]
 829 0072 1F44     		add	r7, r7, r3
 830              	.LVL145:
 831 0074 3FB2     		sxth	r7, r7
 832              	.LVL146:
 418:ks0108.c      ****             x1 += addx;
 833              		.loc 1 418 0
 834 0076 4C44     		add	r4, r4, r9
 835              	.LVL147:
 836 0078 E4B2     		uxtb	r4, r4
 837              	.LVL148:
 838 007a 05E0     		b	.L60
 839              	.L59:
 419:ks0108.c      ****          }
 420:ks0108.c      ****          else
 421:ks0108.c      ****          {
 422:ks0108.c      ****             P  += diff;
 840              		.loc 1 422 0
 841 007c 5F44     		add	r7, r7, fp
 842              	.LVL149:
 843 007e 3FB2     		sxth	r7, r7
 844              	.LVL150:
 423:ks0108.c      ****             x1 += addx;
 845              		.loc 1 423 0
 846 0080 4C44     		add	r4, r4, r9
 847              	.LVL151:
 848 0082 E4B2     		uxtb	r4, r4
 849              	.LVL152:
 424:ks0108.c      ****             y1 += addy;
 850              		.loc 1 424 0
 851 0084 5544     		add	r5, r5, r10
 852              	.LVL153:
 853 0086 EDB2     		uxtb	r5, r5
 854              	.LVL154:
 855              	.L60:
 411:ks0108.c      ****       {
 856              		.loc 1 411 0
 857 0088 0136     		adds	r6, r6, #1
 858              	.LVL155:
 859 008a F6B2     		uxtb	r6, r6
 860              	.LVL156:
 861              	.L58:
 411:ks0108.c      ****       {
 862              		.loc 1 411 0 is_stmt 0 discriminator 1
 863 008c B3B2     		uxth	r3, r6
 864 008e 9845     		cmp	r8, r3
 865 0090 E7D2     		bcs	.L61
 866 0092 28E0     		b	.L54
 867              	.LVL157:
 868              	.L57:
 425:ks0108.c      ****          }
 426:ks0108.c      ****       }
ARM GAS  C:\Users\USUARIO\AppData\Local\Temp\ccywmqVe.s 			page 24


 427:ks0108.c      ****    }
 428:ks0108.c      ****    else
 429:ks0108.c      ****    {
 430:ks0108.c      ****       dx *= 2;
 869              		.loc 1 430 0 is_stmt 1
 870 0094 4FEA4808 		lsl	r8, r8, #1
 871              	.LVL158:
 872 0098 1FFA88F3 		uxth	r3, r8
 873              	.LVL159:
 874 009c 0193     		str	r3, [sp, #4]
 875              	.LVL160:
 431:ks0108.c      ****       P = dx - dy;
 876              		.loc 1 431 0
 877 009e CBEB0308 		rsb	r8, fp, r3
 878 00a2 1FFA88F8 		uxth	r8, r8
 879 00a6 0FFA88F7 		sxth	r7, r8
 880              	.LVL161:
 432:ks0108.c      ****       diff = P - dy;
 881              		.loc 1 432 0
 882 00aa CBEB0808 		rsb	r8, fp, r8
 883 00ae 1FFA88F8 		uxth	r8, r8
 884              	.LVL162:
 396:ks0108.c      ****    dx = x2 - x1;
 885              		.loc 1 396 0
 886 00b2 0026     		movs	r6, #0
 433:ks0108.c      **** 
 434:ks0108.c      ****       for(; i<=dy; ++i)
 887              		.loc 1 434 0
 888 00b4 14E0     		b	.L63
 889              	.LVL163:
 890              	.L66:
 435:ks0108.c      ****       {
 436:ks0108.c      ****          glcd_pixel(x1, y1, color);
 891              		.loc 1 436 0
 892 00b6 009A     		ldr	r2, [sp]
 893 00b8 2946     		mov	r1, r5
 894 00ba 2046     		mov	r0, r4
 895 00bc FFF7FEFF 		bl	glcd_pixel
 896              	.LVL164:
 437:ks0108.c      **** 
 438:ks0108.c      ****          if(P < 0)
 897              		.loc 1 438 0
 898 00c0 002F     		cmp	r7, #0
 899 00c2 05DA     		bge	.L64
 439:ks0108.c      ****          {
 440:ks0108.c      ****             P  += dx;
 900              		.loc 1 440 0
 901 00c4 019B     		ldr	r3, [sp, #4]
 902 00c6 1F44     		add	r7, r7, r3
 903              	.LVL165:
 904 00c8 3FB2     		sxth	r7, r7
 905              	.LVL166:
 441:ks0108.c      ****             y1 += addy;
 906              		.loc 1 441 0
 907 00ca 5544     		add	r5, r5, r10
 908              	.LVL167:
 909 00cc EDB2     		uxtb	r5, r5
ARM GAS  C:\Users\USUARIO\AppData\Local\Temp\ccywmqVe.s 			page 25


 910              	.LVL168:
 911 00ce 05E0     		b	.L65
 912              	.L64:
 442:ks0108.c      ****          }
 443:ks0108.c      ****          else
 444:ks0108.c      ****          {
 445:ks0108.c      ****             P  += diff;
 913              		.loc 1 445 0
 914 00d0 4744     		add	r7, r7, r8
 915              	.LVL169:
 916 00d2 3FB2     		sxth	r7, r7
 917              	.LVL170:
 446:ks0108.c      ****             x1 += addx;
 918              		.loc 1 446 0
 919 00d4 4C44     		add	r4, r4, r9
 920              	.LVL171:
 921 00d6 E4B2     		uxtb	r4, r4
 922              	.LVL172:
 447:ks0108.c      ****             y1 += addy;
 923              		.loc 1 447 0
 924 00d8 5544     		add	r5, r5, r10
 925              	.LVL173:
 926 00da EDB2     		uxtb	r5, r5
 927              	.LVL174:
 928              	.L65:
 434:ks0108.c      ****       {
 929              		.loc 1 434 0
 930 00dc 0136     		adds	r6, r6, #1
 931              	.LVL175:
 932 00de F6B2     		uxtb	r6, r6
 933              	.LVL176:
 934              	.L63:
 434:ks0108.c      ****       {
 935              		.loc 1 434 0 is_stmt 0 discriminator 1
 936 00e0 B3B2     		uxth	r3, r6
 937 00e2 9B45     		cmp	fp, r3
 938 00e4 E7D2     		bcs	.L66
 939              	.LVL177:
 940              	.L54:
 448:ks0108.c      ****          }
 449:ks0108.c      ****       }
 450:ks0108.c      ****    }
 451:ks0108.c      **** }
 941              		.loc 1 451 0 is_stmt 1
 942 00e6 03B0     		add	sp, sp, #12
 943              		.cfi_def_cfa_offset 36
 944              		@ sp needed
 945 00e8 BDE8F08F 		pop	{r4, r5, r6, r7, r8, r9, r10, fp, pc}
 946              		.cfi_endproc
 947              	.LFE72:
 948              		.size	glcd_line, .-glcd_line
 949              		.section	.text.glcd_rect,"ax",%progbits
 950              		.align	2
 951              		.global	glcd_rect
 952              		.thumb
 953              		.thumb_func
 954              		.type	glcd_rect, %function
ARM GAS  C:\Users\USUARIO\AppData\Local\Temp\ccywmqVe.s 			page 26


 955              	glcd_rect:
 956              	.LFB73:
 452:ks0108.c      **** 
 453:ks0108.c      **** void glcd_rect(uint8 x1, uint8 y1, uint8 x2, uint8 y2, short fill, short color)
 454:ks0108.c      **** {
 957              		.loc 1 454 0
 958              		.cfi_startproc
 959              		@ args = 8, pretend = 0, frame = 0
 960              		@ frame_needed = 0, uses_anonymous_args = 0
 961              	.LVL178:
 962 0000 2DE9F043 		push	{r4, r5, r6, r7, r8, r9, lr}
 963              		.cfi_def_cfa_offset 28
 964              		.cfi_offset 4, -28
 965              		.cfi_offset 5, -24
 966              		.cfi_offset 6, -20
 967              		.cfi_offset 7, -16
 968              		.cfi_offset 8, -12
 969              		.cfi_offset 9, -8
 970              		.cfi_offset 14, -4
 971 0004 83B0     		sub	sp, sp, #12
 972              		.cfi_def_cfa_offset 40
 973 0006 0546     		mov	r5, r0
 974 0008 0E46     		mov	r6, r1
 975 000a 9046     		mov	r8, r2
 976 000c 9946     		mov	r9, r3
 977 000e BDF92830 		ldrsh	r3, [sp, #40]
 978              	.LVL179:
 979 0012 BDF92C70 		ldrsh	r7, [sp, #44]
 455:ks0108.c      ****    if(fill)
 980              		.loc 1 455 0
 981 0016 CBB1     		cbz	r3, .L71
 982              	.LBB2:
 456:ks0108.c      ****    {
 457:ks0108.c      ****       uint8  i, xmin, xmax, ymin, ymax;      
 458:ks0108.c      **** 
 459:ks0108.c      ****       if(x1 < x2)                            //  Find x min and max
 983              		.loc 1 459 0
 984 0018 9042     		cmp	r0, r2
 985 001a 01D3     		bcc	.L72
 460:ks0108.c      ****       {
 461:ks0108.c      ****          xmin = x1;
 462:ks0108.c      ****          xmax = x2;
 463:ks0108.c      ****       }
 464:ks0108.c      ****       else
 465:ks0108.c      ****       {
 466:ks0108.c      ****          xmin = x2;
 986              		.loc 1 466 0
 987 001c 1546     		mov	r5, r2
 467:ks0108.c      ****          xmax = x1;
 988              		.loc 1 467 0
 989 001e 8046     		mov	r8, r0
 990              	.L72:
 991              	.LVL180:
 468:ks0108.c      ****       }
 469:ks0108.c      **** 
 470:ks0108.c      ****       if(y1 < y2)                            // Find the y min and max
 992              		.loc 1 470 0
ARM GAS  C:\Users\USUARIO\AppData\Local\Temp\ccywmqVe.s 			page 27


 993 0020 4E45     		cmp	r6, r9
 994 0022 10D2     		bcs	.L74
 995 0024 4B46     		mov	r3, r9
 471:ks0108.c      ****       {
 472:ks0108.c      ****          ymin = y1;
 996              		.loc 1 472 0
 997 0026 B146     		mov	r9, r6
 473:ks0108.c      ****          ymax = y2;
 998              		.loc 1 473 0
 999 0028 1E46     		mov	r6, r3
 1000 002a 0CE0     		b	.L74
 1001              	.LVL181:
 1002              	.L75:
 474:ks0108.c      ****       }
 475:ks0108.c      ****       else
 476:ks0108.c      ****       {
 477:ks0108.c      ****          ymin = y2;
 478:ks0108.c      ****          ymax = y1;
 479:ks0108.c      ****       }
 480:ks0108.c      **** 
 481:ks0108.c      ****       for(; xmin <= xmax; ++xmin)
 482:ks0108.c      ****       {
 483:ks0108.c      ****          for(i=ymin; i<=ymax; ++i)
 484:ks0108.c      ****          {
 485:ks0108.c      ****             glcd_pixel(xmin, i, color);
 1003              		.loc 1 485 0 discriminator 3
 1004 002c 3A46     		mov	r2, r7
 1005 002e 2146     		mov	r1, r4
 1006 0030 2846     		mov	r0, r5
 1007 0032 FFF7FEFF 		bl	glcd_pixel
 1008              	.LVL182:
 483:ks0108.c      ****          {
 1009              		.loc 1 483 0 discriminator 3
 1010 0036 0134     		adds	r4, r4, #1
 1011              	.LVL183:
 1012 0038 E4B2     		uxtb	r4, r4
 1013              	.LVL184:
 1014 003a 00E0     		b	.L76
 1015              	.LVL185:
 1016              	.L79:
 1017 003c 4C46     		mov	r4, r9
 1018              	.L76:
 1019              	.LVL186:
 483:ks0108.c      ****          {
 1020              		.loc 1 483 0 is_stmt 0 discriminator 1
 1021 003e B442     		cmp	r4, r6
 1022 0040 F4D9     		bls	.L75
 481:ks0108.c      ****       {
 1023              		.loc 1 481 0 is_stmt 1
 1024 0042 0135     		adds	r5, r5, #1
 1025              	.LVL187:
 1026 0044 EDB2     		uxtb	r5, r5
 1027              	.LVL188:
 1028              	.L74:
 481:ks0108.c      ****       {
 1029              		.loc 1 481 0 is_stmt 0 discriminator 1
 1030 0046 4545     		cmp	r5, r8
ARM GAS  C:\Users\USUARIO\AppData\Local\Temp\ccywmqVe.s 			page 28


 1031 0048 F8D9     		bls	.L79
 1032 004a 18E0     		b	.L70
 1033              	.LVL189:
 1034              	.L71:
 1035              	.LBE2:
 486:ks0108.c      ****          }
 487:ks0108.c      ****       }
 488:ks0108.c      ****    }
 489:ks0108.c      ****    else
 490:ks0108.c      ****    {
 491:ks0108.c      ****       glcd_line(x1, y1, x2, y1, color);      // Draw the 4 sides
 1036              		.loc 1 491 0 is_stmt 1
 1037 004c 0097     		str	r7, [sp]
 1038 004e 0B46     		mov	r3, r1
 1039 0050 FFF7FEFF 		bl	glcd_line
 1040              	.LVL190:
 492:ks0108.c      ****       glcd_line(x1, y2, x2, y2, color);
 1041              		.loc 1 492 0
 1042 0054 0097     		str	r7, [sp]
 1043 0056 4B46     		mov	r3, r9
 1044 0058 4246     		mov	r2, r8
 1045 005a 4946     		mov	r1, r9
 1046 005c 2846     		mov	r0, r5
 1047 005e FFF7FEFF 		bl	glcd_line
 1048              	.LVL191:
 493:ks0108.c      ****       glcd_line(x1, y1, x1, y2, color);
 1049              		.loc 1 493 0
 1050 0062 0097     		str	r7, [sp]
 1051 0064 4B46     		mov	r3, r9
 1052 0066 2A46     		mov	r2, r5
 1053 0068 3146     		mov	r1, r6
 1054 006a 2846     		mov	r0, r5
 1055 006c FFF7FEFF 		bl	glcd_line
 1056              	.LVL192:
 494:ks0108.c      ****       glcd_line(x2, y1, x2, y2, color);
 1057              		.loc 1 494 0
 1058 0070 0097     		str	r7, [sp]
 1059 0072 4B46     		mov	r3, r9
 1060 0074 4246     		mov	r2, r8
 1061 0076 3146     		mov	r1, r6
 1062 0078 4046     		mov	r0, r8
 1063 007a FFF7FEFF 		bl	glcd_line
 1064              	.LVL193:
 1065              	.L70:
 495:ks0108.c      ****    }
 496:ks0108.c      **** }
 1066              		.loc 1 496 0
 1067 007e 03B0     		add	sp, sp, #12
 1068              		.cfi_def_cfa_offset 28
 1069              		@ sp needed
 1070 0080 BDE8F083 		pop	{r4, r5, r6, r7, r8, r9, pc}
 1071              		.cfi_endproc
 1072              	.LFE73:
 1073              		.size	glcd_rect, .-glcd_rect
 1074              		.section	.text.glcd_bar,"ax",%progbits
 1075              		.align	2
 1076              		.global	glcd_bar
ARM GAS  C:\Users\USUARIO\AppData\Local\Temp\ccywmqVe.s 			page 29


 1077              		.thumb
 1078              		.thumb_func
 1079              		.type	glcd_bar, %function
 1080              	glcd_bar:
 1081              	.LFB74:
 497:ks0108.c      **** 
 498:ks0108.c      **** void glcd_bar(uint8 x1, uint8 y1, uint8 x2, uint8 y2, uint8 width, short color)
 499:ks0108.c      **** {
 1082              		.loc 1 499 0
 1083              		.cfi_startproc
 1084              		@ args = 8, pretend = 0, frame = 32
 1085              		@ frame_needed = 0, uses_anonymous_args = 0
 1086              	.LVL194:
 1087 0000 2DE9F04F 		push	{r4, r5, r6, r7, r8, r9, r10, fp, lr}
 1088              		.cfi_def_cfa_offset 36
 1089              		.cfi_offset 4, -36
 1090              		.cfi_offset 5, -32
 1091              		.cfi_offset 6, -28
 1092              		.cfi_offset 7, -24
 1093              		.cfi_offset 8, -20
 1094              		.cfi_offset 9, -16
 1095              		.cfi_offset 10, -12
 1096              		.cfi_offset 11, -8
 1097              		.cfi_offset 14, -4
 1098 0004 89B0     		sub	sp, sp, #36
 1099              		.cfi_def_cfa_offset 72
 1100 0006 0746     		mov	r7, r0
 1101 0008 8846     		mov	r8, r1
 1102 000a 9646     		mov	lr, r2
 1103 000c 0192     		str	r2, [sp, #4]
 1104 000e 9946     		mov	r9, r3
 1105 0010 9DF84860 		ldrb	r6, [sp, #72]	@ zero_extendqisi2
 1106 0014 BDF94C30 		ldrsh	r3, [sp, #76]
 1107              	.LVL195:
 1108 0018 0393     		str	r3, [sp, #12]
 1109              	.LVL196:
 500:ks0108.c      ****    uint8         half_width;
 501:ks0108.c      ****    uint16 dy, dx;
 502:ks0108.c      ****    uint8  addx=1, addy=1, j;
 503:ks0108.c      ****    uint16 P, diff, c1, c2;
 504:ks0108.c      **** 
 505:ks0108.c      ****    uint8 i=0;
 506:ks0108.c      ****    dx = (x2 - x1);
 1110              		.loc 1 506 0
 1111 001a 91B2     		uxth	r1, r2
 1112              	.LVL197:
 1113 001c 83B2     		uxth	r3, r0
 1114 001e CA1A     		subs	r2, r1, r3
 1115              	.LVL198:
 1116 0020 92B2     		uxth	r2, r2
 1117 0022 0692     		str	r2, [sp, #24]
 1118              	.LVL199:
 507:ks0108.c      ****    dy = (y2 - y1);
 1119              		.loc 1 507 0
 1120 0024 1FFA89F2 		uxth	r2, r9
 1121 0028 1FFA88F0 		uxth	r0, r8
 1122              	.LVL200:
ARM GAS  C:\Users\USUARIO\AppData\Local\Temp\ccywmqVe.s 			page 30


 1123 002c 141A     		subs	r4, r2, r0
 1124 002e A5B2     		uxth	r5, r4
 1125 0030 2C46     		mov	r4, r5
 1126              	.LVL201:
 508:ks0108.c      **** 
 509:ks0108.c      **** 
 510:ks0108.c      ****    half_width = width/2;
 1127              		.loc 1 510 0
 1128 0032 7508     		lsrs	r5, r6, #1
 1129              	.LVL202:
 511:ks0108.c      ****    c1 = -(dx*x1 + dy*y1);
 1130              		.loc 1 511 0
 1131 0034 0794     		str	r4, [sp, #28]
 1132 0036 04FB00F0 		mul	r0, r4, r0
 1133 003a 069C     		ldr	r4, [sp, #24]
 1134              	.LVL203:
 1135 003c 04FB0303 		mla	r3, r4, r3, r0
 1136 0040 5B42     		negs	r3, r3
 1137 0042 9BB2     		uxth	r3, r3
 1138              	.LVL204:
 512:ks0108.c      ****    c2 = -(dx*x2 + dy*y2);
 1139              		.loc 1 512 0
 1140 0044 0798     		ldr	r0, [sp, #28]
 1141 0046 00FB02F2 		mul	r2, r0, r2
 1142 004a 04FB0122 		mla	r2, r4, r1, r2
 1143 004e 5242     		negs	r2, r2
 1144 0050 92B2     		uxth	r2, r2
 1145 0052 0092     		str	r2, [sp]
 1146              	.LVL205:
 513:ks0108.c      **** 
 514:ks0108.c      ****    if(x1 > x2)
 1147              		.loc 1 514 0
 1148 0054 BE45     		cmp	lr, r7
 1149 0056 04D3     		bcc	.L95
 511:ks0108.c      ****    c2 = -(dx*x2 + dy*y2);
 1150              		.loc 1 511 0
 1151 0058 0093     		str	r3, [sp]
 512:ks0108.c      ****    c2 = -(dx*x2 + dy*y2);
 1152              		.loc 1 512 0
 1153 005a 1346     		mov	r3, r2
 1154              	.LVL206:
 502:ks0108.c      ****    uint16 P, diff, c1, c2;
 1155              		.loc 1 502 0
 1156 005c 0122     		movs	r2, #1
 1157              	.LVL207:
 1158 005e 0492     		str	r2, [sp, #16]
 1159 0060 01E0     		b	.L82
 1160              	.LVL208:
 1161              	.L95:
 1162              	.LBB3:
 515:ks0108.c      ****    {
 516:ks0108.c      ****       uint16 temp;
 517:ks0108.c      ****       temp = c1;
 518:ks0108.c      ****       c1 = c2;
 519:ks0108.c      ****       c2 = temp;
 520:ks0108.c      ****       addx = -1;
 1163              		.loc 1 520 0
ARM GAS  C:\Users\USUARIO\AppData\Local\Temp\ccywmqVe.s 			page 31


 1164 0062 FF22     		movs	r2, #255
 1165              	.LVL209:
 1166 0064 0492     		str	r2, [sp, #16]
 1167              	.LVL210:
 1168              	.L82:
 1169              	.LBE3:
 521:ks0108.c      ****    }
 522:ks0108.c      ****    if(y1 > y2)
 1170              		.loc 1 522 0
 1171 0066 C145     		cmp	r9, r8
 1172 0068 03D3     		bcc	.L96
 1173 006a 0093     		str	r3, [sp]
 1174              	.LVL211:
 502:ks0108.c      ****    uint16 P, diff, c1, c2;
 1175              		.loc 1 502 0
 1176 006c 0123     		movs	r3, #1
 1177              	.LVL212:
 1178 006e 0593     		str	r3, [sp, #20]
 1179 0070 01E0     		b	.L83
 1180              	.LVL213:
 1181              	.L96:
 1182              	.LBB4:
 523:ks0108.c      ****    {
 524:ks0108.c      ****       uint16 temp;
 525:ks0108.c      ****       temp = c1;
 526:ks0108.c      ****       c1 = c2;
 527:ks0108.c      ****       c2 = temp;
 528:ks0108.c      ****       addy = -1;
 1183              		.loc 1 528 0
 1184 0072 FF23     		movs	r3, #255
 1185              	.LVL214:
 1186 0074 0593     		str	r3, [sp, #20]
 1187              	.LVL215:
 1188              	.L83:
 1189              	.LBE4:
 529:ks0108.c      ****    }
 530:ks0108.c      **** 
 531:ks0108.c      ****    if(dx >= dy)
 1190              		.loc 1 531 0
 1191 0076 069B     		ldr	r3, [sp, #24]
 1192 0078 079A     		ldr	r2, [sp, #28]
 1193 007a 9342     		cmp	r3, r2
 1194 007c 2FD2     		bcs	.L97
 1195 007e C346     		mov	fp, r8
 1196 0080 BA46     		mov	r10, r7
 1197 0082 0023     		movs	r3, #0
 1198 0084 0293     		str	r3, [sp, #8]
 1199 0086 60E0     		b	.L85
 1200              	.LVL216:
 1201              	.L89:
 532:ks0108.c      ****    {
 533:ks0108.c      ****       P = 2*dy - dx;
 534:ks0108.c      ****       diff = P - dx;
 535:ks0108.c      **** 
 536:ks0108.c      ****       for(i=0; i<=dx; ++i)
 537:ks0108.c      ****       {
 538:ks0108.c      ****          for(j=-half_width; j<half_width+width%2; ++j)
ARM GAS  C:\Users\USUARIO\AppData\Local\Temp\ccywmqVe.s 			page 32


 1202              		.loc 1 538 0
 1203 0088 6C42     		negs	r4, r5
 1204 008a E4B2     		uxtb	r4, r4
 1205              	.LVL217:
 1206 008c 15E0     		b	.L86
 1207              	.L88:
 1208              	.LBB5:
 539:ks0108.c      ****          {
 540:ks0108.c      ****             uint8 temp;            
 541:ks0108.c      **** 
 542:ks0108.c      ****             temp = dx*x1+dy*(y1+j);    // Use more RAM to increase speed
 1209              		.loc 1 542 0
 1210 008e 0BEB0401 		add	r1, fp, r4
 1211 0092 C9B2     		uxtb	r1, r1
 1212 0094 019B     		ldr	r3, [sp, #4]
 1213 0096 DB1B     		subs	r3, r3, r7
 1214 0098 C8EB0902 		rsb	r2, r8, r9
 1215 009c 02FB01F2 		mul	r2, r2, r1
 1216 00a0 03FB0A23 		mla	r3, r3, r10, r2
 1217 00a4 DBB2     		uxtb	r3, r3
 1218              	.LVL218:
 543:ks0108.c      ****             if(temp+c1 >= 0 && temp+c2 <=0)
 1219              		.loc 1 543 0
 1220 00a6 009A     		ldr	r2, [sp]
 1221 00a8 1344     		add	r3, r3, r2
 1222              	.LVL219:
 1223 00aa 002B     		cmp	r3, #0
 1224 00ac 03DC     		bgt	.L87
 544:ks0108.c      ****                glcd_pixel(x1, y1+j, color);
 1225              		.loc 1 544 0
 1226 00ae 039A     		ldr	r2, [sp, #12]
 1227 00b0 5046     		mov	r0, r10
 1228 00b2 FFF7FEFF 		bl	glcd_pixel
 1229              	.LVL220:
 1230              	.L87:
 1231              	.LBE5:
 538:ks0108.c      ****          {
 1232              		.loc 1 538 0 discriminator 2
 1233 00b6 0134     		adds	r4, r4, #1
 1234              	.LVL221:
 1235 00b8 E4B2     		uxtb	r4, r4
 1236              	.LVL222:
 1237              	.L86:
 538:ks0108.c      ****          {
 1238              		.loc 1 538 0 is_stmt 0 discriminator 1
 1239 00ba 06F00103 		and	r3, r6, #1
 1240 00be 2B44     		add	r3, r3, r5
 1241 00c0 9C42     		cmp	r4, r3
 1242 00c2 E4DB     		blt	.L88
 545:ks0108.c      ****          }
 546:ks0108.c      ****          if(P < 0)
 547:ks0108.c      ****          {
 548:ks0108.c      ****             P  += 2*dy;
 549:ks0108.c      ****             x1 += addx;
 550:ks0108.c      ****          }
 551:ks0108.c      ****          else
 552:ks0108.c      ****          {
ARM GAS  C:\Users\USUARIO\AppData\Local\Temp\ccywmqVe.s 			page 33


 553:ks0108.c      ****             P  += diff;
 554:ks0108.c      ****             x1 += addx;
 1243              		.loc 1 554 0 is_stmt 1
 1244 00c4 049B     		ldr	r3, [sp, #16]
 1245 00c6 9A44     		add	r10, r10, r3
 1246              	.LVL223:
 1247 00c8 5FFA8AFA 		uxtb	r10, r10
 1248              	.LVL224:
 555:ks0108.c      ****             y1 += addy;
 1249              		.loc 1 555 0
 1250 00cc 059B     		ldr	r3, [sp, #20]
 1251 00ce 9B44     		add	fp, fp, r3
 1252              	.LVL225:
 1253 00d0 5FFA8BFB 		uxtb	fp, fp
 1254              	.LVL226:
 536:ks0108.c      ****       {
 1255              		.loc 1 536 0
 1256 00d4 029B     		ldr	r3, [sp, #8]
 1257 00d6 0133     		adds	r3, r3, #1
 1258 00d8 DBB2     		uxtb	r3, r3
 1259 00da 0293     		str	r3, [sp, #8]
 1260              	.LVL227:
 1261 00dc 03E0     		b	.L84
 1262              	.LVL228:
 1263              	.L97:
 1264 00de C346     		mov	fp, r8
 1265 00e0 BA46     		mov	r10, r7
 1266 00e2 0023     		movs	r3, #0
 1267 00e4 0293     		str	r3, [sp, #8]
 1268              	.LVL229:
 1269              	.L84:
 536:ks0108.c      ****       {
 1270              		.loc 1 536 0 is_stmt 0 discriminator 1
 1271 00e6 BDF80830 		ldrh	r3, [sp, #8]
 1272 00ea 069A     		ldr	r2, [sp, #24]
 1273 00ec 9A42     		cmp	r2, r3
 1274 00ee CBD2     		bcs	.L89
 1275 00f0 30E0     		b	.L81
 1276              	.L94:
 556:ks0108.c      ****          }
 557:ks0108.c      ****       }
 558:ks0108.c      ****    }
 559:ks0108.c      ****    else
 560:ks0108.c      ****    {
 561:ks0108.c      ****       P = 2*dx - dy;
 562:ks0108.c      ****       diff = P - dy;
 563:ks0108.c      **** 
 564:ks0108.c      ****       for(i=0; i<=dy; ++i)
 565:ks0108.c      ****       {
 566:ks0108.c      ****          if(P < 0)
 567:ks0108.c      ****          {
 568:ks0108.c      ****             P  += 2*dx;
 569:ks0108.c      ****             y1 += addy;
 570:ks0108.c      ****          }
 571:ks0108.c      ****          else
 572:ks0108.c      ****          {
 573:ks0108.c      ****             P  += diff;
ARM GAS  C:\Users\USUARIO\AppData\Local\Temp\ccywmqVe.s 			page 34


 574:ks0108.c      ****             x1 += addx;
 1277              		.loc 1 574 0 is_stmt 1
 1278 00f2 049B     		ldr	r3, [sp, #16]
 1279 00f4 9A44     		add	r10, r10, r3
 1280              	.LVL230:
 1281 00f6 5FFA8AFA 		uxtb	r10, r10
 1282              	.LVL231:
 575:ks0108.c      ****             y1 += addy;
 1283              		.loc 1 575 0
 1284 00fa 059B     		ldr	r3, [sp, #20]
 1285 00fc 9B44     		add	fp, fp, r3
 1286              	.LVL232:
 1287 00fe 5FFA8BFB 		uxtb	fp, fp
 1288              	.LVL233:
 576:ks0108.c      ****          }
 577:ks0108.c      ****          for(j=-half_width; j<half_width+width%2; ++j)
 1289              		.loc 1 577 0
 1290 0102 6C42     		negs	r4, r5
 1291 0104 E4B2     		uxtb	r4, r4
 1292              	.LVL234:
 1293 0106 17E0     		b	.L91
 1294              	.L93:
 1295              	.LBB6:
 578:ks0108.c      ****          {
 579:ks0108.c      ****             uint8 temp;            
 580:ks0108.c      **** 
 581:ks0108.c      ****             temp = dx*x1+dy*(y1+j);    // Use more RAM to increase speed
 1296              		.loc 1 581 0
 1297 0108 C8EB0903 		rsb	r3, r8, r9
 1298 010c 04EB0B02 		add	r2, r4, fp
 1299 0110 0199     		ldr	r1, [sp, #4]
 1300 0112 C91B     		subs	r1, r1, r7
 1301 0114 01FB0AF1 		mul	r1, r1, r10
 1302 0118 03FB0213 		mla	r3, r3, r2, r1
 1303 011c DBB2     		uxtb	r3, r3
 1304              	.LVL235:
 582:ks0108.c      ****             if(temp+c1 >= 0 && temp+c2 <=0)
 1305              		.loc 1 582 0
 1306 011e 009A     		ldr	r2, [sp]
 1307 0120 1344     		add	r3, r3, r2
 1308              	.LVL236:
 1309 0122 002B     		cmp	r3, #0
 1310 0124 06DC     		bgt	.L92
 583:ks0108.c      ****                glcd_pixel(x1+j, y1, color);
 1311              		.loc 1 583 0
 1312 0126 04EB0A00 		add	r0, r4, r10
 1313 012a 039A     		ldr	r2, [sp, #12]
 1314 012c 5946     		mov	r1, fp
 1315              	.LVL237:
 1316 012e C0B2     		uxtb	r0, r0
 1317 0130 FFF7FEFF 		bl	glcd_pixel
 1318              	.LVL238:
 1319              	.L92:
 1320              	.LBE6:
 577:ks0108.c      ****          {
 1321              		.loc 1 577 0 discriminator 2
 1322 0134 0134     		adds	r4, r4, #1
ARM GAS  C:\Users\USUARIO\AppData\Local\Temp\ccywmqVe.s 			page 35


 1323              	.LVL239:
 1324 0136 E4B2     		uxtb	r4, r4
 1325              	.LVL240:
 1326              	.L91:
 577:ks0108.c      ****          {
 1327              		.loc 1 577 0 is_stmt 0 discriminator 1
 1328 0138 06F00103 		and	r3, r6, #1
 1329 013c 2B44     		add	r3, r3, r5
 1330 013e 9C42     		cmp	r4, r3
 1331 0140 E2DB     		blt	.L93
 564:ks0108.c      ****       {
 1332              		.loc 1 564 0 is_stmt 1 discriminator 2
 1333 0142 029B     		ldr	r3, [sp, #8]
 1334 0144 0133     		adds	r3, r3, #1
 1335 0146 DBB2     		uxtb	r3, r3
 1336 0148 0293     		str	r3, [sp, #8]
 1337              	.LVL241:
 1338              	.L85:
 564:ks0108.c      ****       {
 1339              		.loc 1 564 0 is_stmt 0 discriminator 1
 1340 014a BDF80830 		ldrh	r3, [sp, #8]
 1341 014e 079A     		ldr	r2, [sp, #28]
 1342 0150 9A42     		cmp	r2, r3
 1343 0152 CED2     		bcs	.L94
 1344              	.L81:
 584:ks0108.c      ****          }
 585:ks0108.c      ****       }
 586:ks0108.c      ****    }
 587:ks0108.c      **** }
 1345              		.loc 1 587 0 is_stmt 1
 1346 0154 09B0     		add	sp, sp, #36
 1347              		.cfi_def_cfa_offset 36
 1348              	.LVL242:
 1349              		@ sp needed
 1350 0156 BDE8F08F 		pop	{r4, r5, r6, r7, r8, r9, r10, fp, pc}
 1351              		.cfi_endproc
 1352              	.LFE74:
 1353              		.size	glcd_bar, .-glcd_bar
 1354 015a 00BF     		.section	.text.glcd_circle,"ax",%progbits
 1355              		.align	2
 1356              		.global	glcd_circle
 1357              		.thumb
 1358              		.thumb_func
 1359              		.type	glcd_circle, %function
 1360              	glcd_circle:
 1361              	.LFB75:
 588:ks0108.c      **** 
 589:ks0108.c      **** void glcd_circle(uint8 x, uint8 y, uint8 radius, short fill, short color)
 590:ks0108.c      **** {
 1362              		.loc 1 590 0
 1363              		.cfi_startproc
 1364              		@ args = 4, pretend = 0, frame = 16
 1365              		@ frame_needed = 0, uses_anonymous_args = 0
 1366              	.LVL243:
 1367 0000 2DE9F04F 		push	{r4, r5, r6, r7, r8, r9, r10, fp, lr}
 1368              		.cfi_def_cfa_offset 36
 1369              		.cfi_offset 4, -36
ARM GAS  C:\Users\USUARIO\AppData\Local\Temp\ccywmqVe.s 			page 36


 1370              		.cfi_offset 5, -32
 1371              		.cfi_offset 6, -28
 1372              		.cfi_offset 7, -24
 1373              		.cfi_offset 8, -20
 1374              		.cfi_offset 9, -16
 1375              		.cfi_offset 10, -12
 1376              		.cfi_offset 11, -8
 1377              		.cfi_offset 14, -4
 1378 0004 87B0     		sub	sp, sp, #28
 1379              		.cfi_def_cfa_offset 64
 1380 0006 0646     		mov	r6, r0
 1381 0008 8B46     		mov	fp, r1
 1382 000a 1546     		mov	r5, r2
 1383 000c 0393     		str	r3, [sp, #12]
 1384 000e BDF94090 		ldrsh	r9, [sp, #64]
 1385              	.LVL244:
 591:ks0108.c      ****    uint8  a, b, P;
 592:ks0108.c      **** 
 593:ks0108.c      ****    a = 0;
 1386              		.loc 1 593 0
 1387 0012 0024     		movs	r4, #0
 1388 0014 4F46     		mov	r7, r9
 1389              	.LVL245:
 1390              	.L102:
 594:ks0108.c      ****    b = radius;
 595:ks0108.c      ****    P = 1 - radius;
 596:ks0108.c      **** 
 597:ks0108.c      ****    do
 598:ks0108.c      ****    {
 599:ks0108.c      ****       if(fill)
 1391              		.loc 1 599 0
 1392 0016 039B     		ldr	r3, [sp, #12]
 1393 0018 A3B3     		cbz	r3, .L100
 600:ks0108.c      ****       {
 601:ks0108.c      ****          glcd_line(x-a, y+b, x+a, y+b, color);
 1394              		.loc 1 601 0
 1395 001a C4EB0608 		rsb	r8, r4, r6
 1396 001e 5FFA88F8 		uxtb	r8, r8
 1397 0022 04EB0609 		add	r9, r4, r6
 1398 0026 5FFA89F9 		uxtb	r9, r9
 1399 002a 05EB0B01 		add	r1, r5, fp
 1400 002e C9B2     		uxtb	r1, r1
 1401 0030 0097     		str	r7, [sp]
 1402 0032 0B46     		mov	r3, r1
 1403 0034 4A46     		mov	r2, r9
 1404 0036 4046     		mov	r0, r8
 1405 0038 FFF7FEFF 		bl	glcd_line
 1406              	.LVL246:
 602:ks0108.c      ****          glcd_line(x-a, y-b, x+a, y-b, color);
 1407              		.loc 1 602 0
 1408 003c C5EB0B01 		rsb	r1, r5, fp
 1409 0040 C9B2     		uxtb	r1, r1
 1410 0042 0097     		str	r7, [sp]
 1411 0044 0B46     		mov	r3, r1
 1412 0046 4A46     		mov	r2, r9
 1413 0048 4046     		mov	r0, r8
 1414 004a FFF7FEFF 		bl	glcd_line
ARM GAS  C:\Users\USUARIO\AppData\Local\Temp\ccywmqVe.s 			page 37


 1415              	.LVL247:
 603:ks0108.c      ****          glcd_line(x-b, y+a, x+b, y+a, color);
 1416              		.loc 1 603 0
 1417 004e C5EB0608 		rsb	r8, r5, r6
 1418 0052 5FFA88F8 		uxtb	r8, r8
 1419 0056 05EB0609 		add	r9, r5, r6
 1420 005a 5FFA89F9 		uxtb	r9, r9
 1421 005e 04EB0B01 		add	r1, r4, fp
 1422 0062 C9B2     		uxtb	r1, r1
 1423 0064 0097     		str	r7, [sp]
 1424 0066 0B46     		mov	r3, r1
 1425 0068 4A46     		mov	r2, r9
 1426 006a 4046     		mov	r0, r8
 1427 006c FFF7FEFF 		bl	glcd_line
 1428              	.LVL248:
 604:ks0108.c      ****          glcd_line(x-b, y-a, x+b, y-a, color);
 1429              		.loc 1 604 0
 1430 0070 C4EB0B01 		rsb	r1, r4, fp
 1431 0074 C9B2     		uxtb	r1, r1
 1432 0076 0097     		str	r7, [sp]
 1433 0078 0B46     		mov	r3, r1
 1434 007a 4A46     		mov	r2, r9
 1435 007c 4046     		mov	r0, r8
 1436 007e FFF7FEFF 		bl	glcd_line
 1437              	.LVL249:
 1438 0082 45E0     		b	.L101
 1439              	.L100:
 605:ks0108.c      ****       }
 606:ks0108.c      ****       else
 607:ks0108.c      ****       {
 608:ks0108.c      ****          glcd_pixel(a+x, b+y, color);
 1440              		.loc 1 608 0
 1441 0084 A319     		adds	r3, r4, r6
 1442 0086 DBB2     		uxtb	r3, r3
 1443 0088 05EB0B08 		add	r8, r5, fp
 1444 008c 5FFA88F8 		uxtb	r8, r8
 1445 0090 3A46     		mov	r2, r7
 1446 0092 4146     		mov	r1, r8
 1447 0094 0493     		str	r3, [sp, #16]
 1448 0096 1846     		mov	r0, r3
 1449 0098 FFF7FEFF 		bl	glcd_pixel
 1450              	.LVL250:
 609:ks0108.c      ****          glcd_pixel(b+x, a+y, color);
 1451              		.loc 1 609 0
 1452 009c 05EB060A 		add	r10, r5, r6
 1453 00a0 5FFA8AFA 		uxtb	r10, r10
 1454 00a4 04EB0B09 		add	r9, r4, fp
 1455 00a8 5FFA89F9 		uxtb	r9, r9
 1456 00ac 3A46     		mov	r2, r7
 1457 00ae 4946     		mov	r1, r9
 1458 00b0 5046     		mov	r0, r10
 1459 00b2 FFF7FEFF 		bl	glcd_pixel
 1460              	.LVL251:
 610:ks0108.c      ****          glcd_pixel(x-a, b+y, color);
 1461              		.loc 1 610 0
 1462 00b6 331B     		subs	r3, r6, r4
 1463 00b8 DAB2     		uxtb	r2, r3
ARM GAS  C:\Users\USUARIO\AppData\Local\Temp\ccywmqVe.s 			page 38


 1464 00ba 1046     		mov	r0, r2
 1465 00bc 3A46     		mov	r2, r7
 1466 00be 4146     		mov	r1, r8
 1467 00c0 0590     		str	r0, [sp, #20]
 1468 00c2 FFF7FEFF 		bl	glcd_pixel
 1469              	.LVL252:
 611:ks0108.c      ****          glcd_pixel(x-b, a+y, color);
 1470              		.loc 1 611 0
 1471 00c6 C5EB0608 		rsb	r8, r5, r6
 1472 00ca 5FFA88F8 		uxtb	r8, r8
 1473 00ce 3A46     		mov	r2, r7
 1474 00d0 4946     		mov	r1, r9
 1475 00d2 4046     		mov	r0, r8
 1476 00d4 FFF7FEFF 		bl	glcd_pixel
 1477              	.LVL253:
 612:ks0108.c      ****          glcd_pixel(b+x, y-a, color);
 1478              		.loc 1 612 0
 1479 00d8 C4EB0B09 		rsb	r9, r4, fp
 1480 00dc 5FFA89F9 		uxtb	r9, r9
 1481 00e0 3A46     		mov	r2, r7
 1482 00e2 4946     		mov	r1, r9
 1483 00e4 5046     		mov	r0, r10
 1484 00e6 FFF7FEFF 		bl	glcd_pixel
 1485              	.LVL254:
 613:ks0108.c      ****          glcd_pixel(a+x, y-b, color);
 1486              		.loc 1 613 0
 1487 00ea C5EB0B0A 		rsb	r10, r5, fp
 1488 00ee 5FFA8AFA 		uxtb	r10, r10
 1489 00f2 3A46     		mov	r2, r7
 1490 00f4 5146     		mov	r1, r10
 1491 00f6 0498     		ldr	r0, [sp, #16]
 1492 00f8 FFF7FEFF 		bl	glcd_pixel
 1493              	.LVL255:
 614:ks0108.c      ****          glcd_pixel(x-a, y-b, color);
 1494              		.loc 1 614 0
 1495 00fc 3A46     		mov	r2, r7
 1496 00fe 5146     		mov	r1, r10
 1497 0100 0598     		ldr	r0, [sp, #20]
 1498 0102 FFF7FEFF 		bl	glcd_pixel
 1499              	.LVL256:
 615:ks0108.c      ****          glcd_pixel(x-b, y-a, color);
 1500              		.loc 1 615 0
 1501 0106 3A46     		mov	r2, r7
 1502 0108 4946     		mov	r1, r9
 1503 010a 4046     		mov	r0, r8
 1504 010c FFF7FEFF 		bl	glcd_pixel
 1505              	.LVL257:
 1506              	.L101:
 616:ks0108.c      ****       }
 617:ks0108.c      **** 
 618:ks0108.c      ****       if(P < 0)
 619:ks0108.c      ****          P += 3 + 2 * a++;
 620:ks0108.c      ****       else
 621:ks0108.c      ****          P += 5 + 2 * (a++ - b--);
 1507              		.loc 1 621 0
 1508 0110 0134     		adds	r4, r4, #1
 1509              	.LVL258:
ARM GAS  C:\Users\USUARIO\AppData\Local\Temp\ccywmqVe.s 			page 39


 1510 0112 E4B2     		uxtb	r4, r4
 1511              	.LVL259:
 1512 0114 013D     		subs	r5, r5, #1
 1513              	.LVL260:
 1514 0116 EDB2     		uxtb	r5, r5
 1515              	.LVL261:
 622:ks0108.c      ****     } while(a <= b);
 1516              		.loc 1 622 0
 1517 0118 AC42     		cmp	r4, r5
 1518 011a 7FF67CAF 		bls	.L102
 623:ks0108.c      **** }
 1519              		.loc 1 623 0
 1520 011e 07B0     		add	sp, sp, #28
 1521              		.cfi_def_cfa_offset 36
 1522              		@ sp needed
 1523 0120 BDE8F08F 		pop	{r4, r5, r6, r7, r8, r9, r10, fp, pc}
 1524              		.cfi_endproc
 1525              	.LFE75:
 1526              		.size	glcd_circle, .-glcd_circle
 1527              		.section	.text.glcd_text57,"ax",%progbits
 1528              		.align	2
 1529              		.global	glcd_text57
 1530              		.thumb
 1531              		.thumb_func
 1532              		.type	glcd_text57, %function
 1533              	glcd_text57:
 1534              	.LFB76:
 624:ks0108.c      **** 
 625:ks0108.c      **** void glcd_text57(uint8 x, uint8 y, char* textptr, uint8 size, short color)
 626:ks0108.c      **** {
 1535              		.loc 1 626 0
 1536              		.cfi_startproc
 1537              		@ args = 4, pretend = 0, frame = 16
 1538              		@ frame_needed = 0, uses_anonymous_args = 0
 1539              	.LVL262:
 1540 0000 2DE9F04F 		push	{r4, r5, r6, r7, r8, r9, r10, fp, lr}
 1541              		.cfi_def_cfa_offset 36
 1542              		.cfi_offset 4, -36
 1543              		.cfi_offset 5, -32
 1544              		.cfi_offset 6, -28
 1545              		.cfi_offset 7, -24
 1546              		.cfi_offset 8, -20
 1547              		.cfi_offset 9, -16
 1548              		.cfi_offset 10, -12
 1549              		.cfi_offset 11, -8
 1550              		.cfi_offset 14, -4
 1551 0004 85B0     		sub	sp, sp, #20
 1552              		.cfi_def_cfa_offset 56
 1553 0006 8046     		mov	r8, r0
 1554 0008 8946     		mov	r9, r1
 1555 000a 0192     		str	r2, [sp, #4]
 1556 000c 1D46     		mov	r5, r3
 1557 000e BDF938A0 		ldrsh	r10, [sp, #56]
 627:ks0108.c      ****    uint8 j, k, l, m;                       // Loop counters
 628:ks0108.c      ****    uint8 pixelData[5];                     // Stores character data
 629:ks0108.c      **** 
 630:ks0108.c      ****    for(; *textptr != '\0'; ++textptr, ++x)// Loop through the passed string
ARM GAS  C:\Users\USUARIO\AppData\Local\Temp\ccywmqVe.s 			page 40


 1558              		.loc 1 630 0
 1559 0012 7CE0     		b	.L105
 1560              	.LVL263:
 1561              	.L120:
 631:ks0108.c      ****    {
 632:ks0108.c      ****       if(*textptr < 'S') // Checks if the letter is in the first font array
 1562              		.loc 1 632 0
 1563 0014 522B     		cmp	r3, #82
 1564 0016 0BD8     		bhi	.L106
 633:ks0108.c      ****          memcpy(pixelData, FONT[*textptr - ' '], 5);
 1565              		.loc 1 633 0
 1566 0018 A3F12002 		sub	r2, r3, #32
 1567 001c 02EB8202 		add	r2, r2, r2, lsl #2
 1568 0020 3F49     		ldr	r1, .L127
 1569 0022 0A44     		add	r2, r2, r1
 1570 0024 1068     		ldr	r0, [r2]	@ unaligned
 1571 0026 0290     		str	r0, [sp, #8]	@ unaligned
 1572 0028 1279     		ldrb	r2, [r2, #4]	@ zero_extendqisi2
 1573 002a 8DF80C20 		strb	r2, [sp, #12]
 1574 002e 13E0     		b	.L107
 1575              	.L106:
 634:ks0108.c      ****       else if(*textptr <= '~') // Check if the letter is in the second font array
 1576              		.loc 1 634 0
 1577 0030 7E2B     		cmp	r3, #126
 1578 0032 0BD8     		bhi	.L108
 635:ks0108.c      ****          memcpy(pixelData, FONT2[*textptr - 'S'], 5);
 1579              		.loc 1 635 0
 1580 0034 A3F15302 		sub	r2, r3, #83
 1581 0038 02EB8202 		add	r2, r2, r2, lsl #2
 1582 003c 3949     		ldr	r1, .L127+4
 1583 003e 0A44     		add	r2, r2, r1
 1584 0040 1068     		ldr	r0, [r2]	@ unaligned
 1585 0042 0290     		str	r0, [sp, #8]	@ unaligned
 1586 0044 1279     		ldrb	r2, [r2, #4]	@ zero_extendqisi2
 1587 0046 8DF80C20 		strb	r2, [sp, #12]
 1588 004a 05E0     		b	.L107
 1589              	.L108:
 636:ks0108.c      ****       else
 637:ks0108.c      ****          memcpy(pixelData, FONT[0], 5);   // Default to space
 1590              		.loc 1 637 0
 1591 004c 344A     		ldr	r2, .L127
 1592 004e 92E80300 		ldmia	r2, {r0, r1}
 1593 0052 0290     		str	r0, [sp, #8]
 1594 0054 8DF80C10 		strb	r1, [sp, #12]
 1595              	.L107:
 638:ks0108.c      **** 
 639:ks0108.c      ****       // Handles newline and carriage returns
 640:ks0108.c      ****       switch(*textptr)
 1596              		.loc 1 640 0
 1597 0058 0A2B     		cmp	r3, #10
 1598 005a 02D0     		beq	.L110
 1599 005c 0D2B     		cmp	r3, #13
 1600 005e 4DD0     		beq	.L121
 1601 0060 09E0     		b	.L125
 1602              	.L110:
 641:ks0108.c      ****       {
 642:ks0108.c      ****          case '\n':
ARM GAS  C:\Users\USUARIO\AppData\Local\Temp\ccywmqVe.s 			page 41


 643:ks0108.c      ****             y += 7*size + 1;
 1603              		.loc 1 643 0
 1604 0062 C5EBC503 		rsb	r3, r5, r5, lsl #3
 1605 0066 9944     		add	r9, r9, r3
 1606              	.LVL264:
 1607 0068 5FFA89F9 		uxtb	r9, r9
 1608 006c 09F10109 		add	r9, r9, #1
 1609 0070 5FFA89F9 		uxtb	r9, r9
 1610              	.LVL265:
 644:ks0108.c      ****             continue;
 1611              		.loc 1 644 0
 1612 0074 44E0     		b	.L111
 1613              	.L125:
 645:ks0108.c      ****          case '\r':
 646:ks0108.c      ****             x = 0;
 647:ks0108.c      ****             continue;
 648:ks0108.c      ****       }
 649:ks0108.c      **** 
 650:ks0108.c      ****       if(x+5*size >= GLCD_WIDTH)          // Performs character wrapping
 1614              		.loc 1 650 0
 1615 0076 05EB8503 		add	r3, r5, r5, lsl #2
 1616 007a 4344     		add	r3, r3, r8
 1617 007c 7F2B     		cmp	r3, #127
 1618 007e 0ADD     		ble	.L112
 1619              	.LVL266:
 651:ks0108.c      ****       {
 652:ks0108.c      ****          x = 0;                           // Set x at far left position
 653:ks0108.c      ****          y += 7*size + 1;                 // Set y at next position down
 1620              		.loc 1 653 0
 1621 0080 C5EBC503 		rsb	r3, r5, r5, lsl #3
 1622 0084 9944     		add	r9, r9, r3
 1623              	.LVL267:
 1624 0086 5FFA89F9 		uxtb	r9, r9
 1625 008a 09F10109 		add	r9, r9, #1
 1626 008e 5FFA89F9 		uxtb	r9, r9
 1627              	.LVL268:
 652:ks0108.c      ****          y += 7*size + 1;                 // Set y at next position down
 1628              		.loc 1 652 0
 1629 0092 4FF00008 		mov	r8, #0
 1630              	.LVL269:
 1631              	.L112:
 654:ks0108.c      ****       }
 655:ks0108.c      ****       for(j=0; j<5; ++j, x+=size)         // Loop through character byte data
 1632              		.loc 1 655 0
 1633 0096 4FF0000B 		mov	fp, #0
 1634 009a 2BE0     		b	.L113
 1635              	.LVL270:
 1636              	.L118:
 656:ks0108.c      ****       {
 657:ks0108.c      ****          for(k=0; k < 7; ++k)             // Loop through the vertical pixels
 658:ks0108.c      ****          {
 659:ks0108.c      ****             if(bitRead(pixelData[j], k)) // Check if the pixel should be set
 1637              		.loc 1 659 0
 1638 009c 04AB     		add	r3, sp, #16
 1639 009e 5B44     		add	r3, r3, fp
 1640 00a0 13F8083C 		ldrb	r3, [r3, #-8]	@ zero_extendqisi2
 1641 00a4 3B41     		asrs	r3, r3, r7
ARM GAS  C:\Users\USUARIO\AppData\Local\Temp\ccywmqVe.s 			page 42


 1642 00a6 13F0010F 		tst	r3, #1
 1643 00aa 13D1     		bne	.L122
 1644 00ac 15E0     		b	.L115
 1645              	.LVL271:
 1646              	.L116:
 660:ks0108.c      ****             {
 661:ks0108.c      ****                for(l=0; l < size; ++l)    // These two loops change the
 662:ks0108.c      ****                {                          // character's size
 663:ks0108.c      ****                   for(m=0; m < size; ++m)
 664:ks0108.c      ****                   {
 665:ks0108.c      ****                      glcd_pixel(x+m, y+k*size+l, color); // Draws the pixel
 1647              		.loc 1 665 0 discriminator 3
 1648 00ae 05FB0791 		mla	r1, r5, r7, r9
 1649 00b2 3144     		add	r1, r1, r6
 1650 00b4 08EB0400 		add	r0, r8, r4
 1651 00b8 5246     		mov	r2, r10
 1652 00ba C9B2     		uxtb	r1, r1
 1653 00bc C0B2     		uxtb	r0, r0
 1654 00be FFF7FEFF 		bl	glcd_pixel
 1655              	.LVL272:
 663:ks0108.c      ****                   {
 1656              		.loc 1 663 0 discriminator 3
 1657 00c2 0134     		adds	r4, r4, #1
 1658              	.LVL273:
 1659 00c4 E4B2     		uxtb	r4, r4
 1660              	.LVL274:
 1661 00c6 00E0     		b	.L117
 1662              	.LVL275:
 1663              	.L123:
 1664 00c8 0024     		movs	r4, #0
 1665              	.L117:
 1666              	.LVL276:
 663:ks0108.c      ****                   {
 1667              		.loc 1 663 0 is_stmt 0 discriminator 1
 1668 00ca AC42     		cmp	r4, r5
 1669 00cc EFD3     		bcc	.L116
 661:ks0108.c      ****                {                          // character's size
 1670              		.loc 1 661 0 is_stmt 1 discriminator 2
 1671 00ce 0136     		adds	r6, r6, #1
 1672              	.LVL277:
 1673 00d0 F6B2     		uxtb	r6, r6
 1674              	.LVL278:
 1675 00d2 00E0     		b	.L114
 1676              	.LVL279:
 1677              	.L122:
 1678 00d4 0026     		movs	r6, #0
 1679              	.L114:
 1680              	.LVL280:
 661:ks0108.c      ****                {                          // character's size
 1681              		.loc 1 661 0 is_stmt 0 discriminator 1
 1682 00d6 AE42     		cmp	r6, r5
 1683 00d8 F6D3     		bcc	.L123
 1684              	.LVL281:
 1685              	.L115:
 657:ks0108.c      ****          {
 1686              		.loc 1 657 0 is_stmt 1 discriminator 2
 1687 00da 0137     		adds	r7, r7, #1
ARM GAS  C:\Users\USUARIO\AppData\Local\Temp\ccywmqVe.s 			page 43


 1688              	.LVL282:
 1689 00dc FFB2     		uxtb	r7, r7
 1690              	.LVL283:
 1691 00de 00E0     		b	.L119
 1692              	.LVL284:
 1693              	.L124:
 1694 00e0 0027     		movs	r7, #0
 1695              	.L119:
 1696              	.LVL285:
 657:ks0108.c      ****          {
 1697              		.loc 1 657 0 is_stmt 0 discriminator 1
 1698 00e2 062F     		cmp	r7, #6
 1699 00e4 DAD9     		bls	.L118
 655:ks0108.c      ****       {
 1700              		.loc 1 655 0 is_stmt 1 discriminator 2
 1701 00e6 0BF1010B 		add	fp, fp, #1
 1702              	.LVL286:
 1703 00ea 5FFA8BFB 		uxtb	fp, fp
 1704              	.LVL287:
 1705 00ee A844     		add	r8, r8, r5
 1706              	.LVL288:
 1707 00f0 5FFA88F8 		uxtb	r8, r8
 1708              	.LVL289:
 1709              	.L113:
 655:ks0108.c      ****       {
 1710              		.loc 1 655 0 is_stmt 0 discriminator 1
 1711 00f4 BBF1040F 		cmp	fp, #4
 1712 00f8 F2D9     		bls	.L124
 1713 00fa 01E0     		b	.L111
 1714              	.LVL290:
 1715              	.L121:
 646:ks0108.c      ****             continue;
 1716              		.loc 1 646 0 is_stmt 1
 1717 00fc 4FF00008 		mov	r8, #0
 1718              	.LVL291:
 1719              	.L111:
 630:ks0108.c      ****    {
 1720              		.loc 1 630 0
 1721 0100 019B     		ldr	r3, [sp, #4]
 1722 0102 0133     		adds	r3, r3, #1
 1723 0104 0193     		str	r3, [sp, #4]
 1724              	.LVL292:
 1725 0106 08F10108 		add	r8, r8, #1
 1726              	.LVL293:
 1727 010a 5FFA88F8 		uxtb	r8, r8
 1728              	.LVL294:
 1729              	.L105:
 630:ks0108.c      ****    {
 1730              		.loc 1 630 0 is_stmt 0 discriminator 1
 1731 010e 019B     		ldr	r3, [sp, #4]
 1732 0110 1B78     		ldrb	r3, [r3]	@ zero_extendqisi2
 1733 0112 002B     		cmp	r3, #0
 1734 0114 7FF47EAF 		bne	.L120
 666:ks0108.c      ****                   }
 667:ks0108.c      ****                }
 668:ks0108.c      ****             }
 669:ks0108.c      ****          }
ARM GAS  C:\Users\USUARIO\AppData\Local\Temp\ccywmqVe.s 			page 44


 670:ks0108.c      ****       }
 671:ks0108.c      ****    }
 672:ks0108.c      **** }
 1735              		.loc 1 672 0 is_stmt 1
 1736 0118 05B0     		add	sp, sp, #20
 1737              		.cfi_def_cfa_offset 36
 1738              		@ sp needed
 1739 011a BDE8F08F 		pop	{r4, r5, r6, r7, r8, r9, r10, fp, pc}
 1740              	.LVL295:
 1741              	.L128:
 1742 011e 00BF     		.align	2
 1743              	.L127:
 1744 0120 00000000 		.word	.LANCHOR0
 1745 0124 00010000 		.word	.LANCHOR0+256
 1746              		.cfi_endproc
 1747              	.LFE76:
 1748              		.size	glcd_text57, .-glcd_text57
 1749              		.section	.text.displayMenu,"ax",%progbits
 1750              		.align	2
 1751              		.global	displayMenu
 1752              		.thumb
 1753              		.thumb_func
 1754              		.type	displayMenu, %function
 1755              	displayMenu:
 1756              	.LFB77:
 673:ks0108.c      **** 
 674:ks0108.c      **** void displayMenu(char palabra[30], uint8 x, uint8 y, short sombreado, short tamano)
 675:ks0108.c      **** {
 1757              		.loc 1 675 0
 1758              		.cfi_startproc
 1759              		@ args = 4, pretend = 0, frame = 0
 1760              		@ frame_needed = 0, uses_anonymous_args = 0
 1761              	.LVL296:
 1762 0000 2DE9F041 		push	{r4, r5, r6, r7, r8, lr}
 1763              		.cfi_def_cfa_offset 24
 1764              		.cfi_offset 4, -24
 1765              		.cfi_offset 5, -20
 1766              		.cfi_offset 6, -16
 1767              		.cfi_offset 7, -12
 1768              		.cfi_offset 8, -8
 1769              		.cfi_offset 14, -4
 1770 0004 82B0     		sub	sp, sp, #8
 1771              		.cfi_def_cfa_offset 32
 1772 0006 0F46     		mov	r7, r1
 1773 0008 1546     		mov	r5, r2
 1774 000a 1C46     		mov	r4, r3
 1775 000c BDF92060 		ldrsh	r6, [sp, #32]
 676:ks0108.c      ****    strcpy(Menus.Letra,palabra);
 1776              		.loc 1 676 0
 1777 0010 0146     		mov	r1, r0
 1778              	.LVL297:
 1779 0012 2748     		ldr	r0, .L135
 1780              	.LVL298:
 1781 0014 FFF7FEFF 		bl	strcpy
 1782              	.LVL299:
 677:ks0108.c      ****    
 678:ks0108.c      ****    if(sombreado==3)
ARM GAS  C:\Users\USUARIO\AppData\Local\Temp\ccywmqVe.s 			page 45


 1783              		.loc 1 678 0
 1784 0018 032C     		cmp	r4, #3
 1785 001a 09D1     		bne	.L130
 679:ks0108.c      ****       {glcd_text57(x+1, y+1, Menus.Letra, tamano, OFF);}
 1786              		.loc 1 679 0
 1787 001c 691C     		adds	r1, r5, #1
 1788 001e 781C     		adds	r0, r7, #1
 1789 0020 0023     		movs	r3, #0
 1790 0022 0093     		str	r3, [sp]
 1791 0024 F3B2     		uxtb	r3, r6
 1792 0026 224A     		ldr	r2, .L135
 1793 0028 C9B2     		uxtb	r1, r1
 1794 002a C0B2     		uxtb	r0, r0
 1795 002c FFF7FEFF 		bl	glcd_text57
 1796              	.LVL300:
 1797              	.L130:
 680:ks0108.c      ****    if(sombreado==2)
 1798              		.loc 1 680 0
 1799 0030 022C     		cmp	r4, #2
 1800 0032 09D1     		bne	.L131
 681:ks0108.c      ****       {glcd_text57(x+1, y+1, Menus.Letra, tamano, ON);}
 1801              		.loc 1 681 0
 1802 0034 691C     		adds	r1, r5, #1
 1803 0036 781C     		adds	r0, r7, #1
 1804 0038 0123     		movs	r3, #1
 1805 003a 0093     		str	r3, [sp]
 1806 003c F3B2     		uxtb	r3, r6
 1807 003e 1C4A     		ldr	r2, .L135
 1808 0040 C9B2     		uxtb	r1, r1
 1809 0042 C0B2     		uxtb	r0, r0
 1810 0044 FFF7FEFF 		bl	glcd_text57
 1811              	.LVL301:
 1812              	.L131:
 682:ks0108.c      ****    if(sombreado==1)
 1813              		.loc 1 682 0
 1814 0048 012C     		cmp	r4, #1
 1815 004a 16D1     		bne	.L132
 683:ks0108.c      ****       {glcd_rect(0, y, 127, y+(tamano*8), YES, ON);glcd_text57(x+1, y+1, Menus.Letra, tamano, OFF);
 1816              		.loc 1 683 0
 1817 004c 5FFA86F8 		uxtb	r8, r6
 1818 0050 05EBC803 		add	r3, r5, r8, lsl #3
 1819 0054 0122     		movs	r2, #1
 1820 0056 0192     		str	r2, [sp, #4]
 1821 0058 0092     		str	r2, [sp]
 1822 005a DBB2     		uxtb	r3, r3
 1823 005c 7F22     		movs	r2, #127
 1824 005e 2946     		mov	r1, r5
 1825 0060 0020     		movs	r0, #0
 1826 0062 FFF7FEFF 		bl	glcd_rect
 1827              	.LVL302:
 1828 0066 691C     		adds	r1, r5, #1
 1829 0068 781C     		adds	r0, r7, #1
 1830 006a 0023     		movs	r3, #0
 1831 006c 0093     		str	r3, [sp]
 1832 006e 4346     		mov	r3, r8
 1833 0070 0F4A     		ldr	r2, .L135
 1834 0072 C9B2     		uxtb	r1, r1
ARM GAS  C:\Users\USUARIO\AppData\Local\Temp\ccywmqVe.s 			page 46


 1835 0074 C0B2     		uxtb	r0, r0
 1836 0076 FFF7FEFF 		bl	glcd_text57
 1837              	.LVL303:
 1838              	.L132:
 684:ks0108.c      ****    if(sombreado==0)
 1839              		.loc 1 684 0
 1840 007a A4B9     		cbnz	r4, .L133
 685:ks0108.c      ****       {glcd_rect(0, y, 127, y+(tamano*8), YES, OFF);glcd_text57(x+1, y+1, Menus.Letra, tamano, ON);
 1841              		.loc 1 685 0
 1842 007c F6B2     		uxtb	r6, r6
 1843 007e 05EBC603 		add	r3, r5, r6, lsl #3
 1844 0082 0020     		movs	r0, #0
 1845 0084 0190     		str	r0, [sp, #4]
 1846 0086 0124     		movs	r4, #1
 1847 0088 0094     		str	r4, [sp]
 1848 008a DBB2     		uxtb	r3, r3
 1849 008c 7F22     		movs	r2, #127
 1850 008e 2946     		mov	r1, r5
 1851 0090 FFF7FEFF 		bl	glcd_rect
 1852              	.LVL304:
 1853 0094 2919     		adds	r1, r5, r4
 1854 0096 3819     		adds	r0, r7, r4
 1855 0098 0094     		str	r4, [sp]
 1856 009a 3346     		mov	r3, r6
 1857 009c 044A     		ldr	r2, .L135
 1858 009e C9B2     		uxtb	r1, r1
 1859 00a0 C0B2     		uxtb	r0, r0
 1860 00a2 FFF7FEFF 		bl	glcd_text57
 1861              	.LVL305:
 1862              	.L133:
 686:ks0108.c      ****    glcd_update();
 1863              		.loc 1 686 0
 1864 00a6 FFF7FEFF 		bl	glcd_update
 1865              	.LVL306:
 687:ks0108.c      **** }
 1866              		.loc 1 687 0
 1867 00aa 02B0     		add	sp, sp, #8
 1868              		.cfi_def_cfa_offset 24
 1869              		@ sp needed
 1870 00ac BDE8F081 		pop	{r4, r5, r6, r7, r8, pc}
 1871              	.LVL307:
 1872              	.L136:
 1873              		.align	2
 1874              	.L135:
 1875 00b0 00000000 		.word	Menus
 1876              		.cfi_endproc
 1877              	.LFE77:
 1878              		.size	displayMenu, .-displayMenu
 1879              		.section	.text.displayTemps,"ax",%progbits
 1880              		.align	2
 1881              		.global	displayTemps
 1882              		.thumb
 1883              		.thumb_func
 1884              		.type	displayTemps, %function
 1885              	displayTemps:
 1886              	.LFB78:
 688:ks0108.c      **** 
ARM GAS  C:\Users\USUARIO\AppData\Local\Temp\ccywmqVe.s 			page 47


 689:ks0108.c      **** void displayTemps(char palabra[30], uint16 digito, uint8 x, uint8 y, short sombreado, short tamano)
 690:ks0108.c      **** {
 1887              		.loc 1 690 0
 1888              		.cfi_startproc
 1889              		@ args = 8, pretend = 0, frame = 32
 1890              		@ frame_needed = 0, uses_anonymous_args = 0
 1891              	.LVL308:
 1892 0000 2DE9F04F 		push	{r4, r5, r6, r7, r8, r9, r10, fp, lr}
 1893              		.cfi_def_cfa_offset 36
 1894              		.cfi_offset 4, -36
 1895              		.cfi_offset 5, -32
 1896              		.cfi_offset 6, -28
 1897              		.cfi_offset 7, -24
 1898              		.cfi_offset 8, -20
 1899              		.cfi_offset 9, -16
 1900              		.cfi_offset 10, -12
 1901              		.cfi_offset 11, -8
 1902              		.cfi_offset 14, -4
 1903 0004 8BB0     		sub	sp, sp, #44
 1904              		.cfi_def_cfa_offset 80
 1905 0006 0390     		str	r0, [sp, #12]
 1906 0008 0491     		str	r1, [sp, #16]
 1907 000a 1646     		mov	r6, r2
 1908 000c 1D46     		mov	r5, r3
 1909 000e BDF95040 		ldrsh	r4, [sp, #80]
 1910 0012 BDF95470 		ldrsh	r7, [sp, #84]
 691:ks0108.c      ****    char voltage[9];
 692:ks0108.c      ****    
 693:ks0108.c      ****    if(sombreado==11)
 1911              		.loc 1 693 0
 1912 0016 0B2C     		cmp	r4, #11
 1913 0018 31D1     		bne	.L138
 694:ks0108.c      ****    {
 695:ks0108.c      ****       sprintf(voltage, "%02u", digito);
 1914              		.loc 1 695 0
 1915 001a 0A46     		mov	r2, r1
 1916              	.LVL309:
 1917 001c 8149     		ldr	r1, .L143
 1918              	.LVL310:
 1919 001e 07A8     		add	r0, sp, #28
 1920              	.LVL311:
 1921 0020 FFF7FEFF 		bl	sprintf
 1922              	.LVL312:
 696:ks0108.c      ****       glcd_rect(0, y-2, 127, y+(tamano*8), YES, ON);
 1923              		.loc 1 696 0
 1924 0024 5FFA87F9 		uxtb	r9, r7
 1925 0028 05EBC903 		add	r3, r5, r9, lsl #3
 1926 002c A91E     		subs	r1, r5, #2
 1927 002e 0122     		movs	r2, #1
 1928 0030 0192     		str	r2, [sp, #4]
 1929 0032 0092     		str	r2, [sp]
 1930 0034 DBB2     		uxtb	r3, r3
 1931 0036 7F22     		movs	r2, #127
 1932 0038 C9B2     		uxtb	r1, r1
 1933 003a 0020     		movs	r0, #0
 1934 003c FFF7FEFF 		bl	glcd_rect
 1935              	.LVL313:
ARM GAS  C:\Users\USUARIO\AppData\Local\Temp\ccywmqVe.s 			page 48


 697:ks0108.c      ****       strcpy(Menus.Letra,palabra);
 1936              		.loc 1 697 0
 1937 0040 DFF8ECA1 		ldr	r10, .L143+12
 1938 0044 0399     		ldr	r1, [sp, #12]
 1939 0046 5046     		mov	r0, r10
 1940 0048 FFF7FEFF 		bl	strcpy
 1941              	.LVL314:
 698:ks0108.c      ****       glcd_text57(x+90, y+1, voltage, tamano, OFF);
 1942              		.loc 1 698 0
 1943 004c 05F10108 		add	r8, r5, #1
 1944 0050 5FFA88F8 		uxtb	r8, r8
 1945 0054 06F15A00 		add	r0, r6, #90
 1946 0058 4FF0000B 		mov	fp, #0
 1947 005c CDF800B0 		str	fp, [sp]
 1948 0060 4B46     		mov	r3, r9
 1949 0062 07AA     		add	r2, sp, #28
 1950 0064 4146     		mov	r1, r8
 1951 0066 C0B2     		uxtb	r0, r0
 1952 0068 FFF7FEFF 		bl	glcd_text57
 1953              	.LVL315:
 699:ks0108.c      ****       glcd_text57(x+1, y+1, Menus.Letra, tamano, OFF);
 1954              		.loc 1 699 0
 1955 006c 701C     		adds	r0, r6, #1
 1956 006e CDF800B0 		str	fp, [sp]
 1957 0072 4B46     		mov	r3, r9
 1958 0074 5246     		mov	r2, r10
 1959 0076 4146     		mov	r1, r8
 1960 0078 C0B2     		uxtb	r0, r0
 1961 007a FFF7FEFF 		bl	glcd_text57
 1962              	.LVL316:
 1963              	.L138:
 700:ks0108.c      ****    }
 701:ks0108.c      ****    if(sombreado==10)
 1964              		.loc 1 701 0
 1965 007e 0A2C     		cmp	r4, #10
 1966 0080 32D1     		bne	.L139
 702:ks0108.c      ****    {
 703:ks0108.c      ****       sprintf(voltage, "%02u", digito);
 1967              		.loc 1 703 0
 1968 0082 049A     		ldr	r2, [sp, #16]
 1969 0084 6749     		ldr	r1, .L143
 1970 0086 07A8     		add	r0, sp, #28
 1971 0088 FFF7FEFF 		bl	sprintf
 1972              	.LVL317:
 704:ks0108.c      ****       glcd_rect(0, y-2, 127, y+(tamano*8), YES, OFF);
 1973              		.loc 1 704 0
 1974 008c 5FFA87F9 		uxtb	r9, r7
 1975 0090 05EBC903 		add	r3, r5, r9, lsl #3
 1976 0094 A91E     		subs	r1, r5, #2
 1977 0096 0020     		movs	r0, #0
 1978 0098 0190     		str	r0, [sp, #4]
 1979 009a 4FF0010A 		mov	r10, #1
 1980 009e CDF800A0 		str	r10, [sp]
 1981 00a2 DBB2     		uxtb	r3, r3
 1982 00a4 7F22     		movs	r2, #127
 1983 00a6 C9B2     		uxtb	r1, r1
 1984 00a8 FFF7FEFF 		bl	glcd_rect
ARM GAS  C:\Users\USUARIO\AppData\Local\Temp\ccywmqVe.s 			page 49


 1985              	.LVL318:
 705:ks0108.c      ****       strcpy(Menus.Letra,palabra);
 1986              		.loc 1 705 0
 1987 00ac DFF880B1 		ldr	fp, .L143+12
 1988 00b0 0399     		ldr	r1, [sp, #12]
 1989 00b2 5846     		mov	r0, fp
 1990 00b4 FFF7FEFF 		bl	strcpy
 1991              	.LVL319:
 706:ks0108.c      ****       glcd_text57(x+90, y+1, voltage, tamano, ON);
 1992              		.loc 1 706 0
 1993 00b8 05EB0A08 		add	r8, r5, r10
 1994 00bc 5FFA88F8 		uxtb	r8, r8
 1995 00c0 06F15A00 		add	r0, r6, #90
 1996 00c4 CDF800A0 		str	r10, [sp]
 1997 00c8 4B46     		mov	r3, r9
 1998 00ca 07AA     		add	r2, sp, #28
 1999 00cc 4146     		mov	r1, r8
 2000 00ce C0B2     		uxtb	r0, r0
 2001 00d0 FFF7FEFF 		bl	glcd_text57
 2002              	.LVL320:
 707:ks0108.c      ****       glcd_text57(x+1, y+1, Menus.Letra, tamano, ON);
 2003              		.loc 1 707 0
 2004 00d4 06EB0A00 		add	r0, r6, r10
 2005 00d8 CDF800A0 		str	r10, [sp]
 2006 00dc 4B46     		mov	r3, r9
 2007 00de 5A46     		mov	r2, fp
 2008 00e0 4146     		mov	r1, r8
 2009 00e2 C0B2     		uxtb	r0, r0
 2010 00e4 FFF7FEFF 		bl	glcd_text57
 2011              	.LVL321:
 2012              	.L139:
 708:ks0108.c      ****    }
 709:ks0108.c      ****    
 710:ks0108.c      ****    if(sombreado==1)
 2013              		.loc 1 710 0
 2014 00e8 012C     		cmp	r4, #1
 2015 00ea 4ED1     		bne	.L140
 711:ks0108.c      ****    {
 712:ks0108.c      ****       sprintf(voltage, "%04u", digito);
 2016              		.loc 1 712 0
 2017 00ec 049A     		ldr	r2, [sp, #16]
 2018 00ee 4E49     		ldr	r1, .L143+4
 2019 00f0 07A8     		add	r0, sp, #28
 2020 00f2 FFF7FEFF 		bl	sprintf
 2021              	.LVL322:
 713:ks0108.c      ****       glcd_rect(0, y-2, 127, y+(tamano*8), YES, ON);
 2022              		.loc 1 713 0
 2023 00f6 5FFA87F9 		uxtb	r9, r7
 2024 00fa 05EBC903 		add	r3, r5, r9, lsl #3
 2025 00fe A91E     		subs	r1, r5, #2
 2026 0100 4FF0010A 		mov	r10, #1
 2027 0104 CDF804A0 		str	r10, [sp, #4]
 2028 0108 CDF800A0 		str	r10, [sp]
 2029 010c DBB2     		uxtb	r3, r3
 2030 010e 7F22     		movs	r2, #127
 2031 0110 C9B2     		uxtb	r1, r1
 2032 0112 0020     		movs	r0, #0
ARM GAS  C:\Users\USUARIO\AppData\Local\Temp\ccywmqVe.s 			page 50


 2033 0114 FFF7FEFF 		bl	glcd_rect
 2034              	.LVL323:
 714:ks0108.c      ****       strcpy(Menus.Letra,palabra);
 2035              		.loc 1 714 0
 2036 0118 DFF814B1 		ldr	fp, .L143+12
 2037 011c 0399     		ldr	r1, [sp, #12]
 2038 011e 5846     		mov	r0, fp
 2039 0120 FFF7FEFF 		bl	strcpy
 2040              	.LVL324:
 715:ks0108.c      ****       glcd_text57(x+90, y+1, voltage, tamano, OFF);
 2041              		.loc 1 715 0
 2042 0124 05EB0A03 		add	r3, r5, r10
 2043 0128 DBB2     		uxtb	r3, r3
 2044 012a 1946     		mov	r1, r3
 2045 012c 06F15A00 		add	r0, r6, #90
 2046 0130 4FF00008 		mov	r8, #0
 2047 0134 CDF80080 		str	r8, [sp]
 2048 0138 4B46     		mov	r3, r9
 2049 013a 07AA     		add	r2, sp, #28
 2050 013c 0591     		str	r1, [sp, #20]
 2051 013e C0B2     		uxtb	r0, r0
 2052 0140 FFF7FEFF 		bl	glcd_text57
 2053              	.LVL325:
 716:ks0108.c      ****       glcd_text57(x+1, y+1, Menus.Letra, tamano, OFF);
 2054              		.loc 1 716 0
 2055 0144 06EB0A00 		add	r0, r6, r10
 2056 0148 CDF80080 		str	r8, [sp]
 2057 014c 4B46     		mov	r3, r9
 2058 014e 5A46     		mov	r2, fp
 2059 0150 0599     		ldr	r1, [sp, #20]
 2060 0152 C0B2     		uxtb	r0, r0
 2061 0154 FFF7FEFF 		bl	glcd_text57
 2062              	.LVL326:
 717:ks0108.c      ****       strcpy(Menus.Letra,"C");
 2063              		.loc 1 717 0
 2064 0158 344B     		ldr	r3, .L143+8
 2065 015a 1B88     		ldrh	r3, [r3]	@ unaligned
 2066 015c ABF80030 		strh	r3, [fp]	@ unaligned
 718:ks0108.c      ****       glcd_text57(x+120, y+1, Menus.Letra, tamano, OFF);
 2067              		.loc 1 718 0
 2068 0160 06F17800 		add	r0, r6, #120
 2069 0164 CDF80080 		str	r8, [sp]
 2070 0168 4B46     		mov	r3, r9
 2071 016a 5A46     		mov	r2, fp
 2072 016c 0599     		ldr	r1, [sp, #20]
 2073 016e C0B2     		uxtb	r0, r0
 2074 0170 FFF7FEFF 		bl	glcd_text57
 2075              	.LVL327:
 719:ks0108.c      ****       glcd_circle(x+115,y-1,1,NO,OFF);
 2076              		.loc 1 719 0
 2077 0174 691E     		subs	r1, r5, #1
 2078 0176 06F17300 		add	r0, r6, #115
 2079 017a CDF80080 		str	r8, [sp]
 2080 017e 4346     		mov	r3, r8
 2081 0180 5246     		mov	r2, r10
 2082 0182 C9B2     		uxtb	r1, r1
 2083 0184 C0B2     		uxtb	r0, r0
ARM GAS  C:\Users\USUARIO\AppData\Local\Temp\ccywmqVe.s 			page 51


 2084 0186 FFF7FEFF 		bl	glcd_circle
 2085              	.LVL328:
 2086              	.L140:
 720:ks0108.c      ****    }
 721:ks0108.c      ****    if(sombreado==0)
 2087              		.loc 1 721 0
 2088 018a 002C     		cmp	r4, #0
 2089 018c 45D1     		bne	.L141
 722:ks0108.c      ****    {
 723:ks0108.c      ****       sprintf(voltage, "%04u", digito);
 2090              		.loc 1 723 0
 2091 018e 049A     		ldr	r2, [sp, #16]
 2092 0190 2549     		ldr	r1, .L143+4
 2093 0192 07A8     		add	r0, sp, #28
 2094 0194 FFF7FEFF 		bl	sprintf
 2095              	.LVL329:
 724:ks0108.c      ****       glcd_rect(0, y-2, 127, y+(tamano*8), YES, OFF);
 2096              		.loc 1 724 0
 2097 0198 5FFA87FA 		uxtb	r10, r7
 2098 019c 05EBCA03 		add	r3, r5, r10, lsl #3
 2099 01a0 A91E     		subs	r1, r5, #2
 2100 01a2 0027     		movs	r7, #0
 2101 01a4 0197     		str	r7, [sp, #4]
 2102 01a6 0124     		movs	r4, #1
 2103 01a8 0094     		str	r4, [sp]
 2104 01aa DBB2     		uxtb	r3, r3
 2105 01ac 7F22     		movs	r2, #127
 2106 01ae C9B2     		uxtb	r1, r1
 2107 01b0 3846     		mov	r0, r7
 2108 01b2 FFF7FEFF 		bl	glcd_rect
 2109              	.LVL330:
 725:ks0108.c      ****       strcpy(Menus.Letra,palabra);
 2110              		.loc 1 725 0
 2111 01b6 DFF87890 		ldr	r9, .L143+12
 2112 01ba 0399     		ldr	r1, [sp, #12]
 2113 01bc 4846     		mov	r0, r9
 2114 01be FFF7FEFF 		bl	strcpy
 2115              	.LVL331:
 726:ks0108.c      ****       glcd_text57(x+90, y+1, voltage, tamano, ON);
 2116              		.loc 1 726 0
 2117 01c2 05EB0408 		add	r8, r5, r4
 2118 01c6 5FFA88F8 		uxtb	r8, r8
 2119 01ca 06F15A00 		add	r0, r6, #90
 2120 01ce 0094     		str	r4, [sp]
 2121 01d0 5346     		mov	r3, r10
 2122 01d2 07AA     		add	r2, sp, #28
 2123 01d4 4146     		mov	r1, r8
 2124 01d6 C0B2     		uxtb	r0, r0
 2125 01d8 FFF7FEFF 		bl	glcd_text57
 2126              	.LVL332:
 727:ks0108.c      ****       glcd_text57(x+1, y+1, Menus.Letra, tamano, ON);
 2127              		.loc 1 727 0
 2128 01dc 3019     		adds	r0, r6, r4
 2129 01de 0094     		str	r4, [sp]
 2130 01e0 5346     		mov	r3, r10
 2131 01e2 4A46     		mov	r2, r9
 2132 01e4 4146     		mov	r1, r8
ARM GAS  C:\Users\USUARIO\AppData\Local\Temp\ccywmqVe.s 			page 52


 2133 01e6 C0B2     		uxtb	r0, r0
 2134 01e8 FFF7FEFF 		bl	glcd_text57
 2135              	.LVL333:
 728:ks0108.c      ****       strcpy(Menus.Letra,"C");
 2136              		.loc 1 728 0
 2137 01ec 0F4B     		ldr	r3, .L143+8
 2138 01ee 1B88     		ldrh	r3, [r3]	@ unaligned
 2139 01f0 A9F80030 		strh	r3, [r9]	@ unaligned
 729:ks0108.c      ****       glcd_text57(x+120, y+1, Menus.Letra, tamano, ON);
 2140              		.loc 1 729 0
 2141 01f4 06F17800 		add	r0, r6, #120
 2142 01f8 0094     		str	r4, [sp]
 2143 01fa 5346     		mov	r3, r10
 2144 01fc 4A46     		mov	r2, r9
 2145 01fe 4146     		mov	r1, r8
 2146 0200 C0B2     		uxtb	r0, r0
 2147 0202 FFF7FEFF 		bl	glcd_text57
 2148              	.LVL334:
 730:ks0108.c      ****       glcd_circle(x+115,y-1,1,NO,ON);
 2149              		.loc 1 730 0
 2150 0206 691E     		subs	r1, r5, #1
 2151 0208 06F17300 		add	r0, r6, #115
 2152 020c 0094     		str	r4, [sp]
 2153 020e 3B46     		mov	r3, r7
 2154 0210 2246     		mov	r2, r4
 2155 0212 C9B2     		uxtb	r1, r1
 2156 0214 C0B2     		uxtb	r0, r0
 2157 0216 FFF7FEFF 		bl	glcd_circle
 2158              	.LVL335:
 2159              	.L141:
 731:ks0108.c      ****    }
 732:ks0108.c      ****    glcd_update();
 2160              		.loc 1 732 0
 2161 021a FFF7FEFF 		bl	glcd_update
 2162              	.LVL336:
 733:ks0108.c      **** }
 2163              		.loc 1 733 0
 2164 021e 0BB0     		add	sp, sp, #44
 2165              		.cfi_def_cfa_offset 36
 2166              		@ sp needed
 2167 0220 BDE8F08F 		pop	{r4, r5, r6, r7, r8, r9, r10, fp, pc}
 2168              	.LVL337:
 2169              	.L144:
 2170              		.align	2
 2171              	.L143:
 2172 0224 00000000 		.word	.LC0
 2173 0228 08000000 		.word	.LC1
 2174 022c 10000000 		.word	.LC2
 2175 0230 00000000 		.word	Menus
 2176              		.cfi_endproc
 2177              	.LFE78:
 2178              		.size	displayTemps, .-displayTemps
 2179              		.section	.text.displayTiempo,"ax",%progbits
 2180              		.align	2
 2181              		.global	displayTiempo
 2182              		.thumb
 2183              		.thumb_func
ARM GAS  C:\Users\USUARIO\AppData\Local\Temp\ccywmqVe.s 			page 53


 2184              		.type	displayTiempo, %function
 2185              	displayTiempo:
 2186              	.LFB79:
 734:ks0108.c      **** 
 735:ks0108.c      **** void displayTiempo(uint8 digito, uint8 x, uint8 y, short sombreado, short tamano)
 736:ks0108.c      **** {
 2187              		.loc 1 736 0
 2188              		.cfi_startproc
 2189              		@ args = 4, pretend = 0, frame = 16
 2190              		@ frame_needed = 0, uses_anonymous_args = 0
 2191              	.LVL338:
 2192 0000 2DE9F047 		push	{r4, r5, r6, r7, r8, r9, r10, lr}
 2193              		.cfi_def_cfa_offset 32
 2194              		.cfi_offset 4, -32
 2195              		.cfi_offset 5, -28
 2196              		.cfi_offset 6, -24
 2197              		.cfi_offset 7, -20
 2198              		.cfi_offset 8, -16
 2199              		.cfi_offset 9, -12
 2200              		.cfi_offset 10, -8
 2201              		.cfi_offset 14, -4
 2202 0004 86B0     		sub	sp, sp, #24
 2203              		.cfi_def_cfa_offset 56
 2204 0006 8046     		mov	r8, r0
 2205 0008 0D46     		mov	r5, r1
 2206 000a 1646     		mov	r6, r2
 2207 000c BDF93870 		ldrsh	r7, [sp, #56]
 737:ks0108.c      ****    char voltage[9];
 738:ks0108.c      ****    
 739:ks0108.c      ****    if(sombreado==2)
 2208              		.loc 1 739 0
 2209 0010 022B     		cmp	r3, #2
 2210 0012 1FD1     		bne	.L146
 740:ks0108.c      ****    {
 741:ks0108.c      ****       sprintf(voltage, "%03u", digito);
 2211              		.loc 1 741 0
 2212 0014 0246     		mov	r2, r0
 2213              	.LVL339:
 2214 0016 4349     		ldr	r1, .L151
 2215              	.LVL340:
 2216 0018 03A8     		add	r0, sp, #12
 2217              	.LVL341:
 2218 001a FFF7FEFF 		bl	sprintf
 2219              	.LVL342:
 742:ks0108.c      ****       glcd_rect(x, y, x+(tamano*18), y+(tamano*8), YES, ON);
 2220              		.loc 1 742 0
 2221 001e FCB2     		uxtb	r4, r7
 2222 0020 06EBC403 		add	r3, r6, r4, lsl #3
 2223 0024 04EBC401 		add	r1, r4, r4, lsl #3
 2224 0028 4A00     		lsls	r2, r1, #1
 2225 002a 2A44     		add	r2, r2, r5
 2226 002c 0121     		movs	r1, #1
 2227 002e 0191     		str	r1, [sp, #4]
 2228 0030 0091     		str	r1, [sp]
 2229 0032 DBB2     		uxtb	r3, r3
 2230 0034 D2B2     		uxtb	r2, r2
 2231 0036 3146     		mov	r1, r6
ARM GAS  C:\Users\USUARIO\AppData\Local\Temp\ccywmqVe.s 			page 54


 2232 0038 2846     		mov	r0, r5
 2233 003a FFF7FEFF 		bl	glcd_rect
 2234              	.LVL343:
 743:ks0108.c      ****       glcd_text57(x+1, y+1, voltage, tamano, OFF);
 2235              		.loc 1 743 0
 2236 003e 711C     		adds	r1, r6, #1
 2237 0040 681C     		adds	r0, r5, #1
 2238 0042 0023     		movs	r3, #0
 2239 0044 0093     		str	r3, [sp]
 2240 0046 2346     		mov	r3, r4
 2241 0048 03AA     		add	r2, sp, #12
 2242 004a C9B2     		uxtb	r1, r1
 2243 004c C0B2     		uxtb	r0, r0
 2244 004e FFF7FEFF 		bl	glcd_text57
 2245              	.LVL344:
 2246 0052 62E0     		b	.L147
 2247              	.LVL345:
 2248              	.L146:
 2249 0054 1C46     		mov	r4, r3
 744:ks0108.c      ****    }
 745:ks0108.c      ****    else
 746:ks0108.c      ****    {
 747:ks0108.c      ****       if(sombreado==3)
 2250              		.loc 1 747 0
 2251 0056 032B     		cmp	r3, #3
 2252 0058 24D1     		bne	.L148
 748:ks0108.c      ****       {
 749:ks0108.c      ****          sprintf(voltage, "%03u", digito);
 2253              		.loc 1 749 0
 2254 005a 0246     		mov	r2, r0
 2255              	.LVL346:
 2256 005c 3149     		ldr	r1, .L151
 2257              	.LVL347:
 2258 005e 03A8     		add	r0, sp, #12
 2259              	.LVL348:
 2260 0060 FFF7FEFF 		bl	sprintf
 2261              	.LVL349:
 750:ks0108.c      ****          glcd_rect(x, y, x+(tamano*18), y+(tamano*8), YES, OFF);
 2262              		.loc 1 750 0
 2263 0064 5FFA87F9 		uxtb	r9, r7
 2264 0068 06EBC903 		add	r3, r6, r9, lsl #3
 2265 006c 09EBC901 		add	r1, r9, r9, lsl #3
 2266 0070 4A00     		lsls	r2, r1, #1
 2267 0072 2A44     		add	r2, r2, r5
 2268 0074 0021     		movs	r1, #0
 2269 0076 0191     		str	r1, [sp, #4]
 2270 0078 4FF0010A 		mov	r10, #1
 2271 007c CDF800A0 		str	r10, [sp]
 2272 0080 DBB2     		uxtb	r3, r3
 2273 0082 D2B2     		uxtb	r2, r2
 2274 0084 3146     		mov	r1, r6
 2275 0086 2846     		mov	r0, r5
 2276 0088 FFF7FEFF 		bl	glcd_rect
 2277              	.LVL350:
 751:ks0108.c      ****          glcd_text57(x+1, y+1, voltage, tamano, ON);
 2278              		.loc 1 751 0
 2279 008c 06EB0A01 		add	r1, r6, r10
ARM GAS  C:\Users\USUARIO\AppData\Local\Temp\ccywmqVe.s 			page 55


 2280 0090 05EB0A00 		add	r0, r5, r10
 2281 0094 CDF800A0 		str	r10, [sp]
 2282 0098 4B46     		mov	r3, r9
 2283 009a 03AA     		add	r2, sp, #12
 2284 009c C9B2     		uxtb	r1, r1
 2285 009e C0B2     		uxtb	r0, r0
 2286 00a0 FFF7FEFF 		bl	glcd_text57
 2287              	.LVL351:
 2288              	.L148:
 752:ks0108.c      ****       }
 753:ks0108.c      ****       sprintf(voltage, "%u", digito);
 2289              		.loc 1 753 0
 2290 00a4 4246     		mov	r2, r8
 2291 00a6 2049     		ldr	r1, .L151+4
 2292 00a8 03A8     		add	r0, sp, #12
 2293 00aa FFF7FEFF 		bl	sprintf
 2294              	.LVL352:
 754:ks0108.c      ****       if(sombreado==1)
 2295              		.loc 1 754 0
 2296 00ae 012C     		cmp	r4, #1
 2297 00b0 19D1     		bne	.L149
 755:ks0108.c      ****          {glcd_rect(x, y, x+(tamano*5), y+(tamano*8), YES, ON);glcd_text57(x+1, y+1, voltage, taman
 2298              		.loc 1 755 0
 2299 00b2 5FFA87F8 		uxtb	r8, r7
 2300 00b6 06EBC803 		add	r3, r6, r8, lsl #3
 2301 00ba 08EB8802 		add	r2, r8, r8, lsl #2
 2302 00be 2A44     		add	r2, r2, r5
 2303 00c0 0121     		movs	r1, #1
 2304 00c2 0191     		str	r1, [sp, #4]
 2305 00c4 0091     		str	r1, [sp]
 2306 00c6 DBB2     		uxtb	r3, r3
 2307 00c8 D2B2     		uxtb	r2, r2
 2308 00ca 3146     		mov	r1, r6
 2309 00cc 2846     		mov	r0, r5
 2310 00ce FFF7FEFF 		bl	glcd_rect
 2311              	.LVL353:
 2312 00d2 711C     		adds	r1, r6, #1
 2313 00d4 681C     		adds	r0, r5, #1
 2314 00d6 0023     		movs	r3, #0
 2315 00d8 0093     		str	r3, [sp]
 2316 00da 4346     		mov	r3, r8
 2317 00dc 03AA     		add	r2, sp, #12
 2318 00de C9B2     		uxtb	r1, r1
 2319 00e0 C0B2     		uxtb	r0, r0
 2320 00e2 FFF7FEFF 		bl	glcd_text57
 2321              	.LVL354:
 2322              	.L149:
 756:ks0108.c      ****       if(sombreado==0)
 2323              		.loc 1 756 0
 2324 00e6 C4B9     		cbnz	r4, .L147
 757:ks0108.c      ****          {glcd_rect(x, y, x+(tamano*5), y+(tamano*8), YES, OFF);glcd_text57(x+1, y+1, voltage, tama
 2325              		.loc 1 757 0
 2326 00e8 FCB2     		uxtb	r4, r7
 2327 00ea 06EBC403 		add	r3, r6, r4, lsl #3
 2328 00ee 04EB8402 		add	r2, r4, r4, lsl #2
 2329 00f2 2A44     		add	r2, r2, r5
 2330 00f4 0021     		movs	r1, #0
ARM GAS  C:\Users\USUARIO\AppData\Local\Temp\ccywmqVe.s 			page 56


 2331 00f6 0191     		str	r1, [sp, #4]
 2332 00f8 0127     		movs	r7, #1
 2333 00fa 0097     		str	r7, [sp]
 2334 00fc DBB2     		uxtb	r3, r3
 2335 00fe D2B2     		uxtb	r2, r2
 2336 0100 3146     		mov	r1, r6
 2337 0102 2846     		mov	r0, r5
 2338 0104 FFF7FEFF 		bl	glcd_rect
 2339              	.LVL355:
 2340 0108 F119     		adds	r1, r6, r7
 2341 010a E819     		adds	r0, r5, r7
 2342 010c 0097     		str	r7, [sp]
 2343 010e 2346     		mov	r3, r4
 2344 0110 03AA     		add	r2, sp, #12
 2345 0112 C9B2     		uxtb	r1, r1
 2346 0114 C0B2     		uxtb	r0, r0
 2347 0116 FFF7FEFF 		bl	glcd_text57
 2348              	.LVL356:
 2349              	.L147:
 758:ks0108.c      ****    }
 759:ks0108.c      ****    glcd_update();
 2350              		.loc 1 759 0
 2351 011a FFF7FEFF 		bl	glcd_update
 2352              	.LVL357:
 760:ks0108.c      **** }
 2353              		.loc 1 760 0
 2354 011e 06B0     		add	sp, sp, #24
 2355              		.cfi_def_cfa_offset 32
 2356              		@ sp needed
 2357 0120 BDE8F087 		pop	{r4, r5, r6, r7, r8, r9, r10, pc}
 2358              	.LVL358:
 2359              	.L152:
 2360              		.align	2
 2361              	.L151:
 2362 0124 14000000 		.word	.LC3
 2363 0128 1C000000 		.word	.LC4
 2364              		.cfi_endproc
 2365              	.LFE79:
 2366              		.size	displayTiempo, .-displayTiempo
 2367              		.section	.text.displayTemperatura,"ax",%progbits
 2368              		.align	2
 2369              		.global	displayTemperatura
 2370              		.thumb
 2371              		.thumb_func
 2372              		.type	displayTemperatura, %function
 2373              	displayTemperatura:
 2374              	.LFB80:
 761:ks0108.c      **** 
 762:ks0108.c      **** void displayTemperatura(int16 digito, uint8 x, uint8 y, short sombreado, short tamano)
 763:ks0108.c      **** {
 2375              		.loc 1 763 0
 2376              		.cfi_startproc
 2377              		@ args = 4, pretend = 0, frame = 16
 2378              		@ frame_needed = 0, uses_anonymous_args = 0
 2379              	.LVL359:
 2380 0000 2DE9F043 		push	{r4, r5, r6, r7, r8, r9, lr}
 2381              		.cfi_def_cfa_offset 28
ARM GAS  C:\Users\USUARIO\AppData\Local\Temp\ccywmqVe.s 			page 57


 2382              		.cfi_offset 4, -28
 2383              		.cfi_offset 5, -24
 2384              		.cfi_offset 6, -20
 2385              		.cfi_offset 7, -16
 2386              		.cfi_offset 8, -12
 2387              		.cfi_offset 9, -8
 2388              		.cfi_offset 14, -4
 2389 0004 87B0     		sub	sp, sp, #28
 2390              		.cfi_def_cfa_offset 56
 2391 0006 0E46     		mov	r6, r1
 2392 0008 1746     		mov	r7, r2
 2393 000a BDF93850 		ldrsh	r5, [sp, #56]
 764:ks0108.c      ****    char voltage[9];
 765:ks0108.c      ****    
 766:ks0108.c      ****    if(sombreado==2)
 2394              		.loc 1 766 0
 2395 000e 022B     		cmp	r3, #2
 2396 0010 1FD1     		bne	.L154
 767:ks0108.c      ****    {
 768:ks0108.c      ****       sprintf(voltage, "%04u", digito);
 2397              		.loc 1 768 0
 2398 0012 0246     		mov	r2, r0
 2399              	.LVL360:
 2400 0014 3F49     		ldr	r1, .L159
 2401              	.LVL361:
 2402 0016 03A8     		add	r0, sp, #12
 2403              	.LVL362:
 2404 0018 FFF7FEFF 		bl	sprintf
 2405              	.LVL363:
 769:ks0108.c      ****       glcd_rect(x, y, x+(tamano*18), y+(tamano*8), YES, ON);
 2406              		.loc 1 769 0
 2407 001c EDB2     		uxtb	r5, r5
 2408 001e 07EBC503 		add	r3, r7, r5, lsl #3
 2409 0022 05EBC501 		add	r1, r5, r5, lsl #3
 2410 0026 4A00     		lsls	r2, r1, #1
 2411 0028 3244     		add	r2, r2, r6
 2412 002a 0121     		movs	r1, #1
 2413 002c 0191     		str	r1, [sp, #4]
 2414 002e 0091     		str	r1, [sp]
 2415 0030 DBB2     		uxtb	r3, r3
 2416 0032 D2B2     		uxtb	r2, r2
 2417 0034 3946     		mov	r1, r7
 2418 0036 3046     		mov	r0, r6
 2419 0038 FFF7FEFF 		bl	glcd_rect
 2420              	.LVL364:
 770:ks0108.c      ****       glcd_text57(x+1, y+1, voltage, tamano, OFF);
 2421              		.loc 1 770 0
 2422 003c 791C     		adds	r1, r7, #1
 2423 003e 701C     		adds	r0, r6, #1
 2424 0040 0023     		movs	r3, #0
 2425 0042 0093     		str	r3, [sp]
 2426 0044 2B46     		mov	r3, r5
 2427 0046 03AA     		add	r2, sp, #12
 2428 0048 C9B2     		uxtb	r1, r1
 2429 004a C0B2     		uxtb	r0, r0
 2430 004c FFF7FEFF 		bl	glcd_text57
 2431              	.LVL365:
ARM GAS  C:\Users\USUARIO\AppData\Local\Temp\ccywmqVe.s 			page 58


 2432 0050 5BE0     		b	.L155
 2433              	.LVL366:
 2434              	.L154:
 2435 0052 1C46     		mov	r4, r3
 771:ks0108.c      ****    }
 772:ks0108.c      ****    else
 773:ks0108.c      ****    {
 774:ks0108.c      ****       sprintf(voltage, "%04u", digito);
 2436              		.loc 1 774 0
 2437 0054 0246     		mov	r2, r0
 2438              	.LVL367:
 2439 0056 2F49     		ldr	r1, .L159
 2440              	.LVL368:
 2441 0058 03A8     		add	r0, sp, #12
 2442              	.LVL369:
 2443 005a FFF7FEFF 		bl	sprintf
 2444              	.LVL370:
 775:ks0108.c      ****    
 776:ks0108.c      ****       if(sombreado==4)
 2445              		.loc 1 776 0
 2446 005e 042C     		cmp	r4, #4
 2447 0060 1DD1     		bne	.L156
 777:ks0108.c      ****       {
 778:ks0108.c      ****          glcd_rect(x, y, x+(tamano*16), y+(tamano*8), YES, OFF);
 2448              		.loc 1 778 0
 2449 0062 5FFA85F8 		uxtb	r8, r5
 2450 0066 07EBC803 		add	r3, r7, r8, lsl #3
 2451 006a 06EB0812 		add	r2, r6, r8, lsl #4
 2452 006e 0021     		movs	r1, #0
 2453 0070 0191     		str	r1, [sp, #4]
 2454 0072 4FF00109 		mov	r9, #1
 2455 0076 CDF80090 		str	r9, [sp]
 2456 007a DBB2     		uxtb	r3, r3
 2457 007c D2B2     		uxtb	r2, r2
 2458 007e 3946     		mov	r1, r7
 2459 0080 3046     		mov	r0, r6
 2460 0082 FFF7FEFF 		bl	glcd_rect
 2461              	.LVL371:
 779:ks0108.c      ****          glcd_text57(x+1, y+1, voltage, tamano, ON);
 2462              		.loc 1 779 0
 2463 0086 07EB0901 		add	r1, r7, r9
 2464 008a 06EB0900 		add	r0, r6, r9
 2465 008e CDF80090 		str	r9, [sp]
 2466 0092 4346     		mov	r3, r8
 2467 0094 03AA     		add	r2, sp, #12
 2468 0096 C9B2     		uxtb	r1, r1
 2469 0098 C0B2     		uxtb	r0, r0
 2470 009a FFF7FEFF 		bl	glcd_text57
 2471              	.LVL372:
 2472              	.L156:
 780:ks0108.c      ****       }
 781:ks0108.c      ****       if(sombreado==1)
 2473              		.loc 1 781 0
 2474 009e 012C     		cmp	r4, #1
 2475 00a0 19D1     		bne	.L157
 782:ks0108.c      ****          {glcd_rect(x, y, x+(tamano*5), y+(tamano*8), YES, ON);glcd_text57(x+1, y+1, voltage, taman
 2476              		.loc 1 782 0
ARM GAS  C:\Users\USUARIO\AppData\Local\Temp\ccywmqVe.s 			page 59


 2477 00a2 5FFA85F8 		uxtb	r8, r5
 2478 00a6 07EBC803 		add	r3, r7, r8, lsl #3
 2479 00aa 08EB8802 		add	r2, r8, r8, lsl #2
 2480 00ae 3244     		add	r2, r2, r6
 2481 00b0 0121     		movs	r1, #1
 2482 00b2 0191     		str	r1, [sp, #4]
 2483 00b4 0091     		str	r1, [sp]
 2484 00b6 DBB2     		uxtb	r3, r3
 2485 00b8 D2B2     		uxtb	r2, r2
 2486 00ba 3946     		mov	r1, r7
 2487 00bc 3046     		mov	r0, r6
 2488 00be FFF7FEFF 		bl	glcd_rect
 2489              	.LVL373:
 2490 00c2 791C     		adds	r1, r7, #1
 2491 00c4 701C     		adds	r0, r6, #1
 2492 00c6 0023     		movs	r3, #0
 2493 00c8 0093     		str	r3, [sp]
 2494 00ca 4346     		mov	r3, r8
 2495 00cc 03AA     		add	r2, sp, #12
 2496 00ce C9B2     		uxtb	r1, r1
 2497 00d0 C0B2     		uxtb	r0, r0
 2498 00d2 FFF7FEFF 		bl	glcd_text57
 2499              	.LVL374:
 2500              	.L157:
 783:ks0108.c      ****       if(sombreado==0)
 2501              		.loc 1 783 0
 2502 00d6 C4B9     		cbnz	r4, .L155
 784:ks0108.c      ****          {glcd_rect(x, y, x+(tamano*5), y+(tamano*8), YES, OFF);glcd_text57(x+1, y+1, voltage, tama
 2503              		.loc 1 784 0
 2504 00d8 EDB2     		uxtb	r5, r5
 2505 00da 07EBC503 		add	r3, r7, r5, lsl #3
 2506 00de 05EB8502 		add	r2, r5, r5, lsl #2
 2507 00e2 3244     		add	r2, r2, r6
 2508 00e4 0021     		movs	r1, #0
 2509 00e6 0191     		str	r1, [sp, #4]
 2510 00e8 0124     		movs	r4, #1
 2511 00ea 0094     		str	r4, [sp]
 2512 00ec DBB2     		uxtb	r3, r3
 2513 00ee D2B2     		uxtb	r2, r2
 2514 00f0 3946     		mov	r1, r7
 2515 00f2 3046     		mov	r0, r6
 2516 00f4 FFF7FEFF 		bl	glcd_rect
 2517              	.LVL375:
 2518 00f8 3919     		adds	r1, r7, r4
 2519 00fa 3019     		adds	r0, r6, r4
 2520 00fc 0094     		str	r4, [sp]
 2521 00fe 2B46     		mov	r3, r5
 2522 0100 03AA     		add	r2, sp, #12
 2523 0102 C9B2     		uxtb	r1, r1
 2524 0104 C0B2     		uxtb	r0, r0
 2525 0106 FFF7FEFF 		bl	glcd_text57
 2526              	.LVL376:
 2527              	.L155:
 785:ks0108.c      ****    }
 786:ks0108.c      ****    glcd_update();
 2528              		.loc 1 786 0
 2529 010a FFF7FEFF 		bl	glcd_update
ARM GAS  C:\Users\USUARIO\AppData\Local\Temp\ccywmqVe.s 			page 60


 2530              	.LVL377:
 787:ks0108.c      **** }
 2531              		.loc 1 787 0
 2532 010e 07B0     		add	sp, sp, #28
 2533              		.cfi_def_cfa_offset 28
 2534              		@ sp needed
 2535 0110 BDE8F083 		pop	{r4, r5, r6, r7, r8, r9, pc}
 2536              	.LVL378:
 2537              	.L160:
 2538              		.align	2
 2539              	.L159:
 2540 0114 08000000 		.word	.LC1
 2541              		.cfi_endproc
 2542              	.LFE80:
 2543              		.size	displayTemperatura, .-displayTemperatura
 2544              		.section	.text.glcd_imagen,"ax",%progbits
 2545              		.align	2
 2546              		.global	glcd_imagen
 2547              		.thumb
 2548              		.thumb_func
 2549              		.type	glcd_imagen, %function
 2550              	glcd_imagen:
 2551              	.LFB81:
 788:ks0108.c      **** 
 789:ks0108.c      **** void glcd_imagen(uint8 x)
 790:ks0108.c      **** {
 2552              		.loc 1 790 0
 2553              		.cfi_startproc
 2554              		@ args = 0, pretend = 0, frame = 0
 2555              		@ frame_needed = 0, uses_anonymous_args = 0
 2556              	.LVL379:
 2557 0000 70B5     		push	{r4, r5, r6, lr}
 2558              		.cfi_def_cfa_offset 16
 2559              		.cfi_offset 4, -16
 2560              		.cfi_offset 5, -12
 2561              		.cfi_offset 6, -8
 2562              		.cfi_offset 14, -4
 791:ks0108.c      ****    char i,j;
 792:ks0108.c      ****    signed char k; 
 793:ks0108.c      ****    
 794:ks0108.c      ****    if(x==5){
 2563              		.loc 1 794 0
 2564 0002 0528     		cmp	r0, #5
 2565 0004 25D1     		bne	.L163
 2566 0006 21E0     		b	.L168
 2567              	.LVL380:
 2568              	.L165:
 795:ks0108.c      ****    for( i = 0 ; i < 64 ; i ++ )
 796:ks0108.c      ****    {  
 797:ks0108.c      ****       for( j = 0 ; j < 16 ; j ++)
 798:ks0108.c      ****       {    
 799:ks0108.c      ****          for(k=7;k>-1;k--)
 800:ks0108.c      ****          {      
 801:ks0108.c      ****             if( bitRead(Horno[i][j] ,7-k )) 
 2569              		.loc 1 801 0
 2570 0008 134B     		ldr	r3, .L172
 2571 000a 03EB0613 		add	r3, r3, r6, lsl #4
ARM GAS  C:\Users\USUARIO\AppData\Local\Temp\ccywmqVe.s 			page 61


 2572 000e 2B44     		add	r3, r3, r5
 2573 0010 93F9E431 		ldrsb	r3, [r3, #484]
 2574 0014 C4F10702 		rsb	r2, r4, #7
 2575 0018 1341     		asrs	r3, r3, r2
 2576 001a 13F0010F 		tst	r3, #1
 2577 001e 06D0     		beq	.L164
 802:ks0108.c      ****                glcd_pixel( j*8+k,i, ON );
 2578              		.loc 1 802 0
 2579 0020 04EBC500 		add	r0, r4, r5, lsl #3
 2580 0024 0122     		movs	r2, #1
 2581 0026 3146     		mov	r1, r6
 2582 0028 C0B2     		uxtb	r0, r0
 2583 002a FFF7FEFF 		bl	glcd_pixel
 2584              	.LVL381:
 2585              	.L164:
 799:ks0108.c      ****          {      
 2586              		.loc 1 799 0 discriminator 2
 2587 002e 013C     		subs	r4, r4, #1
 2588              	.LVL382:
 2589 0030 64B2     		sxtb	r4, r4
 2590              	.LVL383:
 2591 0032 00E0     		b	.L166
 2592              	.LVL384:
 2593              	.L169:
 2594 0034 0724     		movs	r4, #7
 2595              	.L166:
 2596              	.LVL385:
 799:ks0108.c      ****          {      
 2597              		.loc 1 799 0 is_stmt 0 discriminator 1
 2598 0036 002C     		cmp	r4, #0
 2599 0038 E6DA     		bge	.L165
 797:ks0108.c      ****       {    
 2600              		.loc 1 797 0 is_stmt 1 discriminator 2
 2601 003a 0135     		adds	r5, r5, #1
 2602              	.LVL386:
 2603 003c EDB2     		uxtb	r5, r5
 2604              	.LVL387:
 2605 003e 00E0     		b	.L167
 2606              	.LVL388:
 2607              	.L170:
 2608 0040 0025     		movs	r5, #0
 2609              	.L167:
 2610              	.LVL389:
 797:ks0108.c      ****       {    
 2611              		.loc 1 797 0 is_stmt 0 discriminator 1
 2612 0042 0F2D     		cmp	r5, #15
 2613 0044 F6D9     		bls	.L169
 795:ks0108.c      ****    {  
 2614              		.loc 1 795 0 is_stmt 1 discriminator 2
 2615 0046 0136     		adds	r6, r6, #1
 2616              	.LVL390:
 2617 0048 F6B2     		uxtb	r6, r6
 2618              	.LVL391:
 2619 004a 00E0     		b	.L162
 2620              	.LVL392:
 2621              	.L168:
 2622 004c 0026     		movs	r6, #0
ARM GAS  C:\Users\USUARIO\AppData\Local\Temp\ccywmqVe.s 			page 62


 2623              	.LVL393:
 2624              	.L162:
 795:ks0108.c      ****    {  
 2625              		.loc 1 795 0 is_stmt 0 discriminator 1
 2626 004e 3F2E     		cmp	r6, #63
 2627 0050 F6D9     		bls	.L170
 2628              	.LVL394:
 2629              	.L163:
 803:ks0108.c      ****          }  
 804:ks0108.c      ****       }
 805:ks0108.c      ****    }
 806:ks0108.c      ****    }
 807:ks0108.c      ****     glcd_update();   
 2630              		.loc 1 807 0 is_stmt 1
 2631 0052 FFF7FEFF 		bl	glcd_update
 2632              	.LVL395:
 2633 0056 70BD     		pop	{r4, r5, r6, pc}
 2634              	.L173:
 2635              		.align	2
 2636              	.L172:
 2637 0058 00000000 		.word	.LANCHOR0
 2638              		.cfi_endproc
 2639              	.LFE81:
 2640              		.size	glcd_imagen, .-glcd_imagen
 2641              		.section	.text.Limpia,"ax",%progbits
 2642              		.align	2
 2643              		.global	Limpia
 2644              		.thumb
 2645              		.thumb_func
 2646              		.type	Limpia, %function
 2647              	Limpia:
 2648              	.LFB82:
 808:ks0108.c      **** }
 809:ks0108.c      ****    
 810:ks0108.c      **** void Limpia(uint8 x1,uint8 x2,uint8 y){
 2649              		.loc 1 810 0
 2650              		.cfi_startproc
 2651              		@ args = 0, pretend = 0, frame = 0
 2652              		@ frame_needed = 0, uses_anonymous_args = 0
 2653              	.LVL396:
 2654 0000 10B5     		push	{r4, lr}
 2655              		.cfi_def_cfa_offset 8
 2656              		.cfi_offset 4, -8
 2657              		.cfi_offset 14, -4
 2658 0002 82B0     		sub	sp, sp, #8
 2659              		.cfi_def_cfa_offset 16
 2660 0004 1446     		mov	r4, r2
 811:ks0108.c      ****    glcd_rect(x1, y, x2, y+7, YES, OFF);
 2661              		.loc 1 811 0
 2662 0006 D31D     		adds	r3, r2, #7
 2663 0008 0022     		movs	r2, #0
 2664              	.LVL397:
 2665 000a 0192     		str	r2, [sp, #4]
 2666 000c 0122     		movs	r2, #1
 2667 000e 0092     		str	r2, [sp]
 2668 0010 DBB2     		uxtb	r3, r3
 2669 0012 0A46     		mov	r2, r1
ARM GAS  C:\Users\USUARIO\AppData\Local\Temp\ccywmqVe.s 			page 63


 2670 0014 2146     		mov	r1, r4
 2671              	.LVL398:
 2672 0016 FFF7FEFF 		bl	glcd_rect
 2673              	.LVL399:
 812:ks0108.c      **** }
 2674              		.loc 1 812 0
 2675 001a 02B0     		add	sp, sp, #8
 2676              		.cfi_def_cfa_offset 8
 2677              		@ sp needed
 2678 001c 10BD     		pop	{r4, pc}
 2679              		.cfi_endproc
 2680              	.LFE82:
 2681              		.size	Limpia, .-Limpia
 2682 001e 00BF     		.section	.text.displayT,"ax",%progbits
 2683              		.align	2
 2684              		.global	displayT
 2685              		.thumb
 2686              		.thumb_func
 2687              		.type	displayT, %function
 2688              	displayT:
 2689              	.LFB83:
 813:ks0108.c      **** 
 814:ks0108.c      **** void displayT(uint16 adc,uint8 x,uint8 y,uint8 w) {
 2690              		.loc 1 814 0
 2691              		.cfi_startproc
 2692              		@ args = 0, pretend = 0, frame = 16
 2693              		@ frame_needed = 0, uses_anonymous_args = 0
 2694              	.LVL400:
 2695 0000 F0B5     		push	{r4, r5, r6, r7, lr}
 2696              		.cfi_def_cfa_offset 20
 2697              		.cfi_offset 4, -20
 2698              		.cfi_offset 5, -16
 2699              		.cfi_offset 6, -12
 2700              		.cfi_offset 7, -8
 2701              		.cfi_offset 14, -4
 2702 0002 87B0     		sub	sp, sp, #28
 2703              		.cfi_def_cfa_offset 48
 2704 0004 0D46     		mov	r5, r1
 2705 0006 1646     		mov	r6, r2
 2706 0008 1C46     		mov	r4, r3
 815:ks0108.c      ****    char voltage[9];    
 816:ks0108.c      ****    sprintf(voltage, "%04u",adc); // Converts adc to text
 2707              		.loc 1 816 0
 2708 000a 0246     		mov	r2, r0
 2709              	.LVL401:
 2710 000c 0E49     		ldr	r1, .L178
 2711              	.LVL402:
 2712 000e 03A8     		add	r0, sp, #12
 2713              	.LVL403:
 2714 0010 FFF7FEFF 		bl	sprintf
 2715              	.LVL404:
 817:ks0108.c      ****    glcd_rect(x, y, x+(w*27), y+(w*8), YES, OFF);
 2716              		.loc 1 817 0
 2717 0014 06EBC403 		add	r3, r6, r4, lsl #3
 2718 0018 04EB4402 		add	r2, r4, r4, lsl #1
 2719 001c 02EBC202 		add	r2, r2, r2, lsl #3
 2720 0020 2A44     		add	r2, r2, r5
ARM GAS  C:\Users\USUARIO\AppData\Local\Temp\ccywmqVe.s 			page 64


 2721 0022 0021     		movs	r1, #0
 2722 0024 0191     		str	r1, [sp, #4]
 2723 0026 0127     		movs	r7, #1
 2724 0028 0097     		str	r7, [sp]
 2725 002a DBB2     		uxtb	r3, r3
 2726 002c D2B2     		uxtb	r2, r2
 2727 002e 3146     		mov	r1, r6
 2728 0030 2846     		mov	r0, r5
 2729 0032 FFF7FEFF 		bl	glcd_rect
 2730              	.LVL405:
 818:ks0108.c      ****    glcd_text57(x, y, voltage, w, ON);
 2731              		.loc 1 818 0
 2732 0036 0097     		str	r7, [sp]
 2733 0038 2346     		mov	r3, r4
 2734 003a 03AA     		add	r2, sp, #12
 2735 003c 3146     		mov	r1, r6
 2736 003e 2846     		mov	r0, r5
 2737 0040 FFF7FEFF 		bl	glcd_text57
 2738              	.LVL406:
 819:ks0108.c      **** }
 2739              		.loc 1 819 0
 2740 0044 07B0     		add	sp, sp, #28
 2741              		.cfi_def_cfa_offset 20
 2742              		@ sp needed
 2743 0046 F0BD     		pop	{r4, r5, r6, r7, pc}
 2744              	.L179:
 2745              		.align	2
 2746              	.L178:
 2747 0048 08000000 		.word	.LC1
 2748              		.cfi_endproc
 2749              	.LFE83:
 2750              		.size	displayT, .-displayT
 2751              		.global	__aeabi_f2d
 2752              		.section	.text.displayFloat,"ax",%progbits
 2753              		.align	2
 2754              		.global	displayFloat
 2755              		.thumb
 2756              		.thumb_func
 2757              		.type	displayFloat, %function
 2758              	displayFloat:
 2759              	.LFB84:
 820:ks0108.c      **** 
 821:ks0108.c      **** void displayFloat(float adc,uint8 x,uint8 y,uint8 w) {
 2760              		.loc 1 821 0
 2761              		.cfi_startproc
 2762              		@ args = 0, pretend = 0, frame = 16
 2763              		@ frame_needed = 0, uses_anonymous_args = 0
 2764              	.LVL407:
 2765 0000 F0B5     		push	{r4, r5, r6, r7, lr}
 2766              		.cfi_def_cfa_offset 20
 2767              		.cfi_offset 4, -20
 2768              		.cfi_offset 5, -16
 2769              		.cfi_offset 6, -12
 2770              		.cfi_offset 7, -8
 2771              		.cfi_offset 14, -4
 2772 0002 87B0     		sub	sp, sp, #28
 2773              		.cfi_def_cfa_offset 48
ARM GAS  C:\Users\USUARIO\AppData\Local\Temp\ccywmqVe.s 			page 65


 2774 0004 0D46     		mov	r5, r1
 2775 0006 1646     		mov	r6, r2
 2776 0008 1C46     		mov	r4, r3
 822:ks0108.c      ****    char voltage[9];    
 823:ks0108.c      ****    sprintf(voltage, "%03.2f",adc); // Converts adc to text
 2777              		.loc 1 823 0
 2778 000a FFF7FEFF 		bl	__aeabi_f2d
 2779              	.LVL408:
 2780 000e 0246     		mov	r2, r0
 2781 0010 0B46     		mov	r3, r1
 2782 0012 0F49     		ldr	r1, .L182
 2783 0014 03A8     		add	r0, sp, #12
 2784 0016 FFF7FEFF 		bl	sprintf
 2785              	.LVL409:
 824:ks0108.c      ****    glcd_rect(x, y, x+(w*27), y+(w*8), YES, OFF);
 2786              		.loc 1 824 0
 2787 001a 06EBC403 		add	r3, r6, r4, lsl #3
 2788 001e 04EB4402 		add	r2, r4, r4, lsl #1
 2789 0022 02EBC202 		add	r2, r2, r2, lsl #3
 2790 0026 2A44     		add	r2, r2, r5
 2791 0028 0021     		movs	r1, #0
 2792 002a 0191     		str	r1, [sp, #4]
 2793 002c 0127     		movs	r7, #1
 2794 002e 0097     		str	r7, [sp]
 2795 0030 DBB2     		uxtb	r3, r3
 2796 0032 D2B2     		uxtb	r2, r2
 2797 0034 3146     		mov	r1, r6
 2798 0036 2846     		mov	r0, r5
 2799 0038 FFF7FEFF 		bl	glcd_rect
 2800              	.LVL410:
 825:ks0108.c      ****    glcd_text57(x, y, voltage, w, ON);
 2801              		.loc 1 825 0
 2802 003c 0097     		str	r7, [sp]
 2803 003e 2346     		mov	r3, r4
 2804 0040 03AA     		add	r2, sp, #12
 2805 0042 3146     		mov	r1, r6
 2806 0044 2846     		mov	r0, r5
 2807 0046 FFF7FEFF 		bl	glcd_text57
 2808              	.LVL411:
 826:ks0108.c      **** }
 2809              		.loc 1 826 0
 2810 004a 07B0     		add	sp, sp, #28
 2811              		.cfi_def_cfa_offset 20
 2812              		@ sp needed
 2813 004c F0BD     		pop	{r4, r5, r6, r7, pc}
 2814              	.L183:
 2815 004e 00BF     		.align	2
 2816              	.L182:
 2817 0050 20000000 		.word	.LC5
 2818              		.cfi_endproc
 2819              	.LFE84:
 2820              		.size	displayFloat, .-displayFloat
 2821              		.section	.text.displayContrasena,"ax",%progbits
 2822              		.align	2
 2823              		.global	displayContrasena
 2824              		.thumb
 2825              		.thumb_func
ARM GAS  C:\Users\USUARIO\AppData\Local\Temp\ccywmqVe.s 			page 66


 2826              		.type	displayContrasena, %function
 2827              	displayContrasena:
 2828              	.LFB85:
 827:ks0108.c      **** 
 828:ks0108.c      **** void displayContrasena(uint8 digito, uint8 x, uint8 y, uint8 sombreado)
 829:ks0108.c      **** {
 2829              		.loc 1 829 0
 2830              		.cfi_startproc
 2831              		@ args = 0, pretend = 0, frame = 16
 2832              		@ frame_needed = 0, uses_anonymous_args = 0
 2833              	.LVL412:
 2834 0000 70B5     		push	{r4, r5, r6, lr}
 2835              		.cfi_def_cfa_offset 16
 2836              		.cfi_offset 4, -16
 2837              		.cfi_offset 5, -12
 2838              		.cfi_offset 6, -8
 2839              		.cfi_offset 14, -4
 2840 0002 86B0     		sub	sp, sp, #24
 2841              		.cfi_def_cfa_offset 40
 2842 0004 0C46     		mov	r4, r1
 2843 0006 1546     		mov	r5, r2
 2844 0008 1E46     		mov	r6, r3
 830:ks0108.c      ****    char voltage[9];
 831:ks0108.c      ****    sprintf(voltage, "%i", digito);
 2845              		.loc 1 831 0
 2846 000a 0246     		mov	r2, r0
 2847              	.LVL413:
 2848 000c 1B49     		ldr	r1, .L188
 2849              	.LVL414:
 2850 000e 03A8     		add	r0, sp, #12
 2851              	.LVL415:
 2852 0010 FFF7FEFF 		bl	sprintf
 2853              	.LVL416:
 832:ks0108.c      ****    
 833:ks0108.c      ****    if(sombreado==1)
 2854              		.loc 1 833 0
 2855 0014 012E     		cmp	r6, #1
 2856 0016 17D1     		bne	.L185
 834:ks0108.c      ****       {glcd_rect(x, y, x+18, y+24, YES, ON);glcd_text57(x+2, y+1, voltage, 2, OFF);}
 2857              		.loc 1 834 0
 2858 0018 05F11803 		add	r3, r5, #24
 2859 001c 04F11202 		add	r2, r4, #18
 2860 0020 0121     		movs	r1, #1
 2861 0022 0191     		str	r1, [sp, #4]
 2862 0024 0091     		str	r1, [sp]
 2863 0026 DBB2     		uxtb	r3, r3
 2864 0028 D2B2     		uxtb	r2, r2
 2865 002a 2946     		mov	r1, r5
 2866 002c 2046     		mov	r0, r4
 2867 002e FFF7FEFF 		bl	glcd_rect
 2868              	.LVL417:
 2869 0032 691C     		adds	r1, r5, #1
 2870 0034 A01C     		adds	r0, r4, #2
 2871 0036 0023     		movs	r3, #0
 2872 0038 0093     		str	r3, [sp]
 2873 003a 0223     		movs	r3, #2
 2874 003c 03AA     		add	r2, sp, #12
ARM GAS  C:\Users\USUARIO\AppData\Local\Temp\ccywmqVe.s 			page 67


 2875 003e C9B2     		uxtb	r1, r1
 2876 0040 C0B2     		uxtb	r0, r0
 2877 0042 FFF7FEFF 		bl	glcd_text57
 2878              	.LVL418:
 2879 0046 16E0     		b	.L184
 2880              	.L185:
 835:ks0108.c      ****    else   
 836:ks0108.c      ****       {glcd_rect(x, y, x+18, y+24, NO, OFF);glcd_text57(x+2, y+1, voltage, 2, ON);}
 2881              		.loc 1 836 0
 2882 0048 05F11803 		add	r3, r5, #24
 2883 004c 04F11202 		add	r2, r4, #18
 2884 0050 0021     		movs	r1, #0
 2885 0052 0191     		str	r1, [sp, #4]
 2886 0054 0091     		str	r1, [sp]
 2887 0056 DBB2     		uxtb	r3, r3
 2888 0058 D2B2     		uxtb	r2, r2
 2889 005a 2946     		mov	r1, r5
 2890 005c 2046     		mov	r0, r4
 2891 005e FFF7FEFF 		bl	glcd_rect
 2892              	.LVL419:
 2893 0062 691C     		adds	r1, r5, #1
 2894 0064 A01C     		adds	r0, r4, #2
 2895 0066 0123     		movs	r3, #1
 2896 0068 0093     		str	r3, [sp]
 2897 006a 0223     		movs	r3, #2
 2898 006c 03AA     		add	r2, sp, #12
 2899 006e C9B2     		uxtb	r1, r1
 2900 0070 C0B2     		uxtb	r0, r0
 2901 0072 FFF7FEFF 		bl	glcd_text57
 2902              	.LVL420:
 2903              	.L184:
 837:ks0108.c      **** 
 838:ks0108.c      **** }
 2904              		.loc 1 838 0
 2905 0076 06B0     		add	sp, sp, #24
 2906              		.cfi_def_cfa_offset 16
 2907              		@ sp needed
 2908 0078 70BD     		pop	{r4, r5, r6, pc}
 2909              	.L189:
 2910 007a 00BF     		.align	2
 2911              	.L188:
 2912 007c 28000000 		.word	.LC6
 2913              		.cfi_endproc
 2914              	.LFE85:
 2915              		.size	displayContrasena, .-displayContrasena
 2916              		.section	.text.displayTiempos,"ax",%progbits
 2917              		.align	2
 2918              		.global	displayTiempos
 2919              		.thumb
 2920              		.thumb_func
 2921              		.type	displayTiempos, %function
 2922              	displayTiempos:
 2923              	.LFB86:
 839:ks0108.c      **** 
 840:ks0108.c      **** void displayTiempos(uint8 digito, uint8 x, uint8 y, uint8 sombreado, uint8 tamano)
 841:ks0108.c      **** {
 2924              		.loc 1 841 0
ARM GAS  C:\Users\USUARIO\AppData\Local\Temp\ccywmqVe.s 			page 68


 2925              		.cfi_startproc
 2926              		@ args = 4, pretend = 0, frame = 16
 2927              		@ frame_needed = 0, uses_anonymous_args = 0
 2928              	.LVL421:
 2929 0000 2DE9F043 		push	{r4, r5, r6, r7, r8, r9, lr}
 2930              		.cfi_def_cfa_offset 28
 2931              		.cfi_offset 4, -28
 2932              		.cfi_offset 5, -24
 2933              		.cfi_offset 6, -20
 2934              		.cfi_offset 7, -16
 2935              		.cfi_offset 8, -12
 2936              		.cfi_offset 9, -8
 2937              		.cfi_offset 14, -4
 2938 0004 87B0     		sub	sp, sp, #28
 2939              		.cfi_def_cfa_offset 56
 2940 0006 8046     		mov	r8, r0
 2941 0008 0D46     		mov	r5, r1
 2942 000a 1646     		mov	r6, r2
 2943 000c 9DF83870 		ldrb	r7, [sp, #56]	@ zero_extendqisi2
 842:ks0108.c      ****    char voltage[9];
 843:ks0108.c      ****    
 844:ks0108.c      ****    if(sombreado==2)
 2944              		.loc 1 844 0
 2945 0010 022B     		cmp	r3, #2
 2946 0012 1ED1     		bne	.L191
 845:ks0108.c      ****    {
 846:ks0108.c      ****       sprintf(voltage, "%02d", digito);
 2947              		.loc 1 846 0
 2948 0014 0246     		mov	r2, r0
 2949              	.LVL422:
 2950 0016 4049     		ldr	r1, .L196
 2951              	.LVL423:
 2952 0018 03A8     		add	r0, sp, #12
 2953              	.LVL424:
 2954 001a FFF7FEFF 		bl	sprintf
 2955              	.LVL425:
 847:ks0108.c      ****       glcd_rect(x, y, x+(tamano*12), y+(tamano*8), YES, OFF);
 2956              		.loc 1 847 0
 2957 001e 06EBC703 		add	r3, r6, r7, lsl #3
 2958 0022 07EB4701 		add	r1, r7, r7, lsl #1
 2959 0026 8A00     		lsls	r2, r1, #2
 2960 0028 2A44     		add	r2, r2, r5
 2961 002a 0021     		movs	r1, #0
 2962 002c 0191     		str	r1, [sp, #4]
 2963 002e 0124     		movs	r4, #1
 2964 0030 0094     		str	r4, [sp]
 2965 0032 DBB2     		uxtb	r3, r3
 2966 0034 D2B2     		uxtb	r2, r2
 2967 0036 3146     		mov	r1, r6
 2968 0038 2846     		mov	r0, r5
 2969 003a FFF7FEFF 		bl	glcd_rect
 2970              	.LVL426:
 848:ks0108.c      ****       glcd_text57(x+1, y+1, voltage, tamano, ON);
 2971              		.loc 1 848 0
 2972 003e 3119     		adds	r1, r6, r4
 2973 0040 2819     		adds	r0, r5, r4
 2974 0042 0094     		str	r4, [sp]
ARM GAS  C:\Users\USUARIO\AppData\Local\Temp\ccywmqVe.s 			page 69


 2975 0044 3B46     		mov	r3, r7
 2976 0046 03AA     		add	r2, sp, #12
 2977 0048 C9B2     		uxtb	r1, r1
 2978 004a C0B2     		uxtb	r0, r0
 2979 004c FFF7FEFF 		bl	glcd_text57
 2980              	.LVL427:
 2981 0050 5DE0     		b	.L192
 2982              	.LVL428:
 2983              	.L191:
 2984 0052 1C46     		mov	r4, r3
 849:ks0108.c      ****    }
 850:ks0108.c      ****    else
 851:ks0108.c      ****    {
 852:ks0108.c      ****       if(sombreado==3)
 2985              		.loc 1 852 0
 2986 0054 032B     		cmp	r3, #3
 2987 0056 22D1     		bne	.L193
 853:ks0108.c      ****       {
 854:ks0108.c      ****          sprintf(voltage, "%03u", digito);
 2988              		.loc 1 854 0
 2989 0058 0246     		mov	r2, r0
 2990              	.LVL429:
 2991 005a 3049     		ldr	r1, .L196+4
 2992              	.LVL430:
 2993 005c 03A8     		add	r0, sp, #12
 2994              	.LVL431:
 2995 005e FFF7FEFF 		bl	sprintf
 2996              	.LVL432:
 855:ks0108.c      ****          glcd_rect(x, y, x+(tamano*18), y+(tamano*8), YES, OFF);
 2997              		.loc 1 855 0
 2998 0062 06EBC703 		add	r3, r6, r7, lsl #3
 2999 0066 07EBC701 		add	r1, r7, r7, lsl #3
 3000 006a 4A00     		lsls	r2, r1, #1
 3001 006c 2A44     		add	r2, r2, r5
 3002 006e 0021     		movs	r1, #0
 3003 0070 0191     		str	r1, [sp, #4]
 3004 0072 4FF00109 		mov	r9, #1
 3005 0076 CDF80090 		str	r9, [sp]
 3006 007a DBB2     		uxtb	r3, r3
 3007 007c D2B2     		uxtb	r2, r2
 3008 007e 3146     		mov	r1, r6
 3009 0080 2846     		mov	r0, r5
 3010 0082 FFF7FEFF 		bl	glcd_rect
 3011              	.LVL433:
 856:ks0108.c      ****          glcd_text57(x+1, y+1, voltage, tamano, ON);
 3012              		.loc 1 856 0
 3013 0086 06EB0901 		add	r1, r6, r9
 3014 008a 05EB0900 		add	r0, r5, r9
 3015 008e CDF80090 		str	r9, [sp]
 3016 0092 3B46     		mov	r3, r7
 3017 0094 03AA     		add	r2, sp, #12
 3018 0096 C9B2     		uxtb	r1, r1
 3019 0098 C0B2     		uxtb	r0, r0
 3020 009a FFF7FEFF 		bl	glcd_text57
 3021              	.LVL434:
 3022              	.L193:
 857:ks0108.c      ****       }
ARM GAS  C:\Users\USUARIO\AppData\Local\Temp\ccywmqVe.s 			page 70


 858:ks0108.c      ****       sprintf(voltage, "%u", digito);
 3023              		.loc 1 858 0
 3024 009e 4246     		mov	r2, r8
 3025 00a0 1F49     		ldr	r1, .L196+8
 3026 00a2 03A8     		add	r0, sp, #12
 3027 00a4 FFF7FEFF 		bl	sprintf
 3028              	.LVL435:
 859:ks0108.c      ****       if(sombreado==1)
 3029              		.loc 1 859 0
 3030 00a8 012C     		cmp	r4, #1
 3031 00aa 17D1     		bne	.L194
 860:ks0108.c      ****          {glcd_rect(x, y, x+(tamano*5), y+(tamano*8), YES, ON);glcd_text57(x+1, y+1, voltage, taman
 3032              		.loc 1 860 0
 3033 00ac 06EBC703 		add	r3, r6, r7, lsl #3
 3034 00b0 07EB8702 		add	r2, r7, r7, lsl #2
 3035 00b4 2A44     		add	r2, r2, r5
 3036 00b6 0121     		movs	r1, #1
 3037 00b8 0191     		str	r1, [sp, #4]
 3038 00ba 0091     		str	r1, [sp]
 3039 00bc DBB2     		uxtb	r3, r3
 3040 00be D2B2     		uxtb	r2, r2
 3041 00c0 3146     		mov	r1, r6
 3042 00c2 2846     		mov	r0, r5
 3043 00c4 FFF7FEFF 		bl	glcd_rect
 3044              	.LVL436:
 3045 00c8 711C     		adds	r1, r6, #1
 3046 00ca 681C     		adds	r0, r5, #1
 3047 00cc 0023     		movs	r3, #0
 3048 00ce 0093     		str	r3, [sp]
 3049 00d0 3B46     		mov	r3, r7
 3050 00d2 03AA     		add	r2, sp, #12
 3051 00d4 C9B2     		uxtb	r1, r1
 3052 00d6 C0B2     		uxtb	r0, r0
 3053 00d8 FFF7FEFF 		bl	glcd_text57
 3054              	.LVL437:
 3055              	.L194:
 861:ks0108.c      ****       if(sombreado==0)
 3056              		.loc 1 861 0
 3057 00dc BCB9     		cbnz	r4, .L192
 862:ks0108.c      ****          {glcd_rect(x, y, x+(tamano*5), y+(tamano*8), YES, OFF);glcd_text57(x+1, y+1, voltage, tama
 3058              		.loc 1 862 0
 3059 00de 06EBC703 		add	r3, r6, r7, lsl #3
 3060 00e2 07EB8702 		add	r2, r7, r7, lsl #2
 3061 00e6 2A44     		add	r2, r2, r5
 3062 00e8 0021     		movs	r1, #0
 3063 00ea 0191     		str	r1, [sp, #4]
 3064 00ec 0124     		movs	r4, #1
 3065 00ee 0094     		str	r4, [sp]
 3066 00f0 DBB2     		uxtb	r3, r3
 3067 00f2 D2B2     		uxtb	r2, r2
 3068 00f4 3146     		mov	r1, r6
 3069 00f6 2846     		mov	r0, r5
 3070 00f8 FFF7FEFF 		bl	glcd_rect
 3071              	.LVL438:
 3072 00fc 3119     		adds	r1, r6, r4
 3073 00fe 2819     		adds	r0, r5, r4
 3074 0100 0094     		str	r4, [sp]
ARM GAS  C:\Users\USUARIO\AppData\Local\Temp\ccywmqVe.s 			page 71


 3075 0102 3B46     		mov	r3, r7
 3076 0104 03AA     		add	r2, sp, #12
 3077 0106 C9B2     		uxtb	r1, r1
 3078 0108 C0B2     		uxtb	r0, r0
 3079 010a FFF7FEFF 		bl	glcd_text57
 3080              	.LVL439:
 3081              	.L192:
 863:ks0108.c      ****    }
 864:ks0108.c      ****    glcd_update();
 3082              		.loc 1 864 0
 3083 010e FFF7FEFF 		bl	glcd_update
 3084              	.LVL440:
 865:ks0108.c      **** }
 3085              		.loc 1 865 0
 3086 0112 07B0     		add	sp, sp, #28
 3087              		.cfi_def_cfa_offset 28
 3088              		@ sp needed
 3089 0114 BDE8F083 		pop	{r4, r5, r6, r7, r8, r9, pc}
 3090              	.LVL441:
 3091              	.L197:
 3092              		.align	2
 3093              	.L196:
 3094 0118 2C000000 		.word	.LC7
 3095 011c 14000000 		.word	.LC3
 3096 0120 1C000000 		.word	.LC4
 3097              		.cfi_endproc
 3098              	.LFE86:
 3099              		.size	displayTiempos, .-displayTiempos
 3100              		.global	Horno
 3101              		.global	FONT2
 3102              		.global	FONT
 3103              		.comm	displayData,1024,4
 3104              		.comm	Menus,30,4
 3105              		.section	.rodata
 3106              		.align	2
 3107              		.set	.LANCHOR0,. + 0
 3108              		.type	FONT, %object
 3109              		.size	FONT, 255
 3110              	FONT:
 3111 0000 00       		.byte	0
 3112 0001 00       		.byte	0
 3113 0002 00       		.byte	0
 3114 0003 00       		.byte	0
 3115 0004 00       		.byte	0
 3116 0005 00       		.byte	0
 3117 0006 00       		.byte	0
 3118 0007 5F       		.byte	95
 3119 0008 00       		.byte	0
 3120 0009 00       		.byte	0
 3121 000a 00       		.byte	0
 3122 000b 03       		.byte	3
 3123 000c 00       		.byte	0
 3124 000d 03       		.byte	3
 3125 000e 00       		.byte	0
 3126 000f 14       		.byte	20
 3127 0010 3E       		.byte	62
 3128 0011 14       		.byte	20
ARM GAS  C:\Users\USUARIO\AppData\Local\Temp\ccywmqVe.s 			page 72


 3129 0012 3E       		.byte	62
 3130 0013 14       		.byte	20
 3131 0014 24       		.byte	36
 3132 0015 2A       		.byte	42
 3133 0016 7F       		.byte	127
 3134 0017 2A       		.byte	42
 3135 0018 12       		.byte	18
 3136 0019 43       		.byte	67
 3137 001a 33       		.byte	51
 3138 001b 08       		.byte	8
 3139 001c 66       		.byte	102
 3140 001d 61       		.byte	97
 3141 001e 36       		.byte	54
 3142 001f 49       		.byte	73
 3143 0020 55       		.byte	85
 3144 0021 22       		.byte	34
 3145 0022 50       		.byte	80
 3146 0023 00       		.byte	0
 3147 0024 05       		.byte	5
 3148 0025 03       		.byte	3
 3149 0026 00       		.byte	0
 3150 0027 00       		.byte	0
 3151 0028 00       		.byte	0
 3152 0029 1C       		.byte	28
 3153 002a 22       		.byte	34
 3154 002b 41       		.byte	65
 3155 002c 00       		.byte	0
 3156 002d 00       		.byte	0
 3157 002e 41       		.byte	65
 3158 002f 22       		.byte	34
 3159 0030 1C       		.byte	28
 3160 0031 00       		.byte	0
 3161 0032 14       		.byte	20
 3162 0033 08       		.byte	8
 3163 0034 3E       		.byte	62
 3164 0035 08       		.byte	8
 3165 0036 14       		.byte	20
 3166 0037 08       		.byte	8
 3167 0038 08       		.byte	8
 3168 0039 3E       		.byte	62
 3169 003a 08       		.byte	8
 3170 003b 08       		.byte	8
 3171 003c 00       		.byte	0
 3172 003d 50       		.byte	80
 3173 003e 30       		.byte	48
 3174 003f 00       		.byte	0
 3175 0040 00       		.byte	0
 3176 0041 08       		.byte	8
 3177 0042 08       		.byte	8
 3178 0043 08       		.byte	8
 3179 0044 08       		.byte	8
 3180 0045 08       		.byte	8
 3181 0046 00       		.byte	0
 3182 0047 60       		.byte	96
 3183 0048 60       		.byte	96
 3184 0049 00       		.byte	0
 3185 004a 00       		.byte	0
ARM GAS  C:\Users\USUARIO\AppData\Local\Temp\ccywmqVe.s 			page 73


 3186 004b 20       		.byte	32
 3187 004c 10       		.byte	16
 3188 004d 08       		.byte	8
 3189 004e 04       		.byte	4
 3190 004f 02       		.byte	2
 3191 0050 3E       		.byte	62
 3192 0051 51       		.byte	81
 3193 0052 49       		.byte	73
 3194 0053 45       		.byte	69
 3195 0054 3E       		.byte	62
 3196 0055 00       		.byte	0
 3197 0056 04       		.byte	4
 3198 0057 02       		.byte	2
 3199 0058 7F       		.byte	127
 3200 0059 00       		.byte	0
 3201 005a 42       		.byte	66
 3202 005b 61       		.byte	97
 3203 005c 51       		.byte	81
 3204 005d 49       		.byte	73
 3205 005e 46       		.byte	70
 3206 005f 22       		.byte	34
 3207 0060 41       		.byte	65
 3208 0061 49       		.byte	73
 3209 0062 49       		.byte	73
 3210 0063 36       		.byte	54
 3211 0064 18       		.byte	24
 3212 0065 14       		.byte	20
 3213 0066 12       		.byte	18
 3214 0067 7F       		.byte	127
 3215 0068 10       		.byte	16
 3216 0069 27       		.byte	39
 3217 006a 45       		.byte	69
 3218 006b 45       		.byte	69
 3219 006c 45       		.byte	69
 3220 006d 39       		.byte	57
 3221 006e 3E       		.byte	62
 3222 006f 49       		.byte	73
 3223 0070 49       		.byte	73
 3224 0071 49       		.byte	73
 3225 0072 32       		.byte	50
 3226 0073 01       		.byte	1
 3227 0074 01       		.byte	1
 3228 0075 71       		.byte	113
 3229 0076 09       		.byte	9
 3230 0077 07       		.byte	7
 3231 0078 36       		.byte	54
 3232 0079 49       		.byte	73
 3233 007a 49       		.byte	73
 3234 007b 49       		.byte	73
 3235 007c 36       		.byte	54
 3236 007d 26       		.byte	38
 3237 007e 49       		.byte	73
 3238 007f 49       		.byte	73
 3239 0080 49       		.byte	73
 3240 0081 3E       		.byte	62
 3241 0082 00       		.byte	0
 3242 0083 36       		.byte	54
ARM GAS  C:\Users\USUARIO\AppData\Local\Temp\ccywmqVe.s 			page 74


 3243 0084 36       		.byte	54
 3244 0085 00       		.byte	0
 3245 0086 00       		.byte	0
 3246 0087 00       		.byte	0
 3247 0088 56       		.byte	86
 3248 0089 36       		.byte	54
 3249 008a 00       		.byte	0
 3250 008b 00       		.byte	0
 3251 008c 08       		.byte	8
 3252 008d 14       		.byte	20
 3253 008e 22       		.byte	34
 3254 008f 41       		.byte	65
 3255 0090 00       		.byte	0
 3256 0091 14       		.byte	20
 3257 0092 14       		.byte	20
 3258 0093 14       		.byte	20
 3259 0094 14       		.byte	20
 3260 0095 14       		.byte	20
 3261 0096 00       		.byte	0
 3262 0097 41       		.byte	65
 3263 0098 22       		.byte	34
 3264 0099 14       		.byte	20
 3265 009a 08       		.byte	8
 3266 009b 02       		.byte	2
 3267 009c 01       		.byte	1
 3268 009d 51       		.byte	81
 3269 009e 09       		.byte	9
 3270 009f 06       		.byte	6
 3271 00a0 3E       		.byte	62
 3272 00a1 41       		.byte	65
 3273 00a2 59       		.byte	89
 3274 00a3 55       		.byte	85
 3275 00a4 5E       		.byte	94
 3276 00a5 7E       		.byte	126
 3277 00a6 09       		.byte	9
 3278 00a7 09       		.byte	9
 3279 00a8 09       		.byte	9
 3280 00a9 7E       		.byte	126
 3281 00aa 7F       		.byte	127
 3282 00ab 49       		.byte	73
 3283 00ac 49       		.byte	73
 3284 00ad 49       		.byte	73
 3285 00ae 36       		.byte	54
 3286 00af 3E       		.byte	62
 3287 00b0 41       		.byte	65
 3288 00b1 41       		.byte	65
 3289 00b2 41       		.byte	65
 3290 00b3 22       		.byte	34
 3291 00b4 7F       		.byte	127
 3292 00b5 41       		.byte	65
 3293 00b6 41       		.byte	65
 3294 00b7 41       		.byte	65
 3295 00b8 3E       		.byte	62
 3296 00b9 7F       		.byte	127
 3297 00ba 49       		.byte	73
 3298 00bb 49       		.byte	73
 3299 00bc 49       		.byte	73
ARM GAS  C:\Users\USUARIO\AppData\Local\Temp\ccywmqVe.s 			page 75


 3300 00bd 41       		.byte	65
 3301 00be 7F       		.byte	127
 3302 00bf 09       		.byte	9
 3303 00c0 09       		.byte	9
 3304 00c1 09       		.byte	9
 3305 00c2 01       		.byte	1
 3306 00c3 3E       		.byte	62
 3307 00c4 41       		.byte	65
 3308 00c5 41       		.byte	65
 3309 00c6 49       		.byte	73
 3310 00c7 3A       		.byte	58
 3311 00c8 7F       		.byte	127
 3312 00c9 08       		.byte	8
 3313 00ca 08       		.byte	8
 3314 00cb 08       		.byte	8
 3315 00cc 7F       		.byte	127
 3316 00cd 00       		.byte	0
 3317 00ce 41       		.byte	65
 3318 00cf 7F       		.byte	127
 3319 00d0 41       		.byte	65
 3320 00d1 00       		.byte	0
 3321 00d2 30       		.byte	48
 3322 00d3 40       		.byte	64
 3323 00d4 40       		.byte	64
 3324 00d5 40       		.byte	64
 3325 00d6 3F       		.byte	63
 3326 00d7 7F       		.byte	127
 3327 00d8 08       		.byte	8
 3328 00d9 14       		.byte	20
 3329 00da 22       		.byte	34
 3330 00db 41       		.byte	65
 3331 00dc 7F       		.byte	127
 3332 00dd 40       		.byte	64
 3333 00de 40       		.byte	64
 3334 00df 40       		.byte	64
 3335 00e0 40       		.byte	64
 3336 00e1 7F       		.byte	127
 3337 00e2 02       		.byte	2
 3338 00e3 0C       		.byte	12
 3339 00e4 02       		.byte	2
 3340 00e5 7F       		.byte	127
 3341 00e6 7F       		.byte	127
 3342 00e7 02       		.byte	2
 3343 00e8 04       		.byte	4
 3344 00e9 08       		.byte	8
 3345 00ea 7F       		.byte	127
 3346 00eb 3E       		.byte	62
 3347 00ec 41       		.byte	65
 3348 00ed 41       		.byte	65
 3349 00ee 41       		.byte	65
 3350 00ef 3E       		.byte	62
 3351 00f0 7F       		.byte	127
 3352 00f1 09       		.byte	9
 3353 00f2 09       		.byte	9
 3354 00f3 09       		.byte	9
 3355 00f4 06       		.byte	6
 3356 00f5 1E       		.byte	30
ARM GAS  C:\Users\USUARIO\AppData\Local\Temp\ccywmqVe.s 			page 76


 3357 00f6 21       		.byte	33
 3358 00f7 21       		.byte	33
 3359 00f8 21       		.byte	33
 3360 00f9 5E       		.byte	94
 3361 00fa 7F       		.byte	127
 3362 00fb 09       		.byte	9
 3363 00fc 09       		.byte	9
 3364 00fd 09       		.byte	9
 3365 00fe 76       		.byte	118
 3366 00ff 00       		.space	1
 3367              		.type	FONT2, %object
 3368              		.size	FONT2, 225
 3369              	FONT2:
 3370 0100 26       		.byte	38
 3371 0101 49       		.byte	73
 3372 0102 49       		.byte	73
 3373 0103 49       		.byte	73
 3374 0104 32       		.byte	50
 3375 0105 01       		.byte	1
 3376 0106 01       		.byte	1
 3377 0107 7F       		.byte	127
 3378 0108 01       		.byte	1
 3379 0109 01       		.byte	1
 3380 010a 3F       		.byte	63
 3381 010b 40       		.byte	64
 3382 010c 40       		.byte	64
 3383 010d 40       		.byte	64
 3384 010e 3F       		.byte	63
 3385 010f 1F       		.byte	31
 3386 0110 20       		.byte	32
 3387 0111 40       		.byte	64
 3388 0112 20       		.byte	32
 3389 0113 1F       		.byte	31
 3390 0114 7F       		.byte	127
 3391 0115 20       		.byte	32
 3392 0116 10       		.byte	16
 3393 0117 20       		.byte	32
 3394 0118 7F       		.byte	127
 3395 0119 41       		.byte	65
 3396 011a 22       		.byte	34
 3397 011b 1C       		.byte	28
 3398 011c 22       		.byte	34
 3399 011d 41       		.byte	65
 3400 011e 07       		.byte	7
 3401 011f 08       		.byte	8
 3402 0120 70       		.byte	112
 3403 0121 08       		.byte	8
 3404 0122 07       		.byte	7
 3405 0123 61       		.byte	97
 3406 0124 51       		.byte	81
 3407 0125 49       		.byte	73
 3408 0126 45       		.byte	69
 3409 0127 43       		.byte	67
 3410 0128 00       		.byte	0
 3411 0129 7F       		.byte	127
 3412 012a 41       		.byte	65
 3413 012b 00       		.byte	0
ARM GAS  C:\Users\USUARIO\AppData\Local\Temp\ccywmqVe.s 			page 77


 3414 012c 00       		.byte	0
 3415 012d 02       		.byte	2
 3416 012e 04       		.byte	4
 3417 012f 08       		.byte	8
 3418 0130 10       		.byte	16
 3419 0131 20       		.byte	32
 3420 0132 04       		.byte	4
 3421 0133 02       		.byte	2
 3422 0134 01       		.byte	1
 3423 0135 02       		.byte	2
 3424 0136 04       		.byte	4
 3425 0137 40       		.byte	64
 3426 0138 40       		.byte	64
 3427 0139 40       		.byte	64
 3428 013a 40       		.byte	64
 3429 013b 40       		.byte	64
 3430 013c 00       		.byte	0
 3431 013d 01       		.byte	1
 3432 013e 02       		.byte	2
 3433 013f 04       		.byte	4
 3434 0140 00       		.byte	0
 3435 0141 00       		.byte	0
 3436 0142 01       		.byte	1
 3437 0143 02       		.byte	2
 3438 0144 04       		.byte	4
 3439 0145 00       		.byte	0
 3440 0146 20       		.byte	32
 3441 0147 54       		.byte	84
 3442 0148 54       		.byte	84
 3443 0149 54       		.byte	84
 3444 014a 78       		.byte	120
 3445 014b 7F       		.byte	127
 3446 014c 44       		.byte	68
 3447 014d 44       		.byte	68
 3448 014e 44       		.byte	68
 3449 014f 38       		.byte	56
 3450 0150 38       		.byte	56
 3451 0151 44       		.byte	68
 3452 0152 44       		.byte	68
 3453 0153 44       		.byte	68
 3454 0154 44       		.byte	68
 3455 0155 38       		.byte	56
 3456 0156 44       		.byte	68
 3457 0157 44       		.byte	68
 3458 0158 44       		.byte	68
 3459 0159 7F       		.byte	127
 3460 015a 38       		.byte	56
 3461 015b 54       		.byte	84
 3462 015c 54       		.byte	84
 3463 015d 54       		.byte	84
 3464 015e 18       		.byte	24
 3465 015f 04       		.byte	4
 3466 0160 04       		.byte	4
 3467 0161 7E       		.byte	126
 3468 0162 05       		.byte	5
 3469 0163 05       		.byte	5
 3470 0164 08       		.byte	8
ARM GAS  C:\Users\USUARIO\AppData\Local\Temp\ccywmqVe.s 			page 78


 3471 0165 54       		.byte	84
 3472 0166 54       		.byte	84
 3473 0167 54       		.byte	84
 3474 0168 3C       		.byte	60
 3475 0169 7F       		.byte	127
 3476 016a 08       		.byte	8
 3477 016b 04       		.byte	4
 3478 016c 04       		.byte	4
 3479 016d 78       		.byte	120
 3480 016e 00       		.byte	0
 3481 016f 44       		.byte	68
 3482 0170 7D       		.byte	125
 3483 0171 40       		.byte	64
 3484 0172 00       		.byte	0
 3485 0173 20       		.byte	32
 3486 0174 40       		.byte	64
 3487 0175 44       		.byte	68
 3488 0176 3D       		.byte	61
 3489 0177 00       		.byte	0
 3490 0178 7F       		.byte	127
 3491 0179 10       		.byte	16
 3492 017a 28       		.byte	40
 3493 017b 44       		.byte	68
 3494 017c 00       		.byte	0
 3495 017d 00       		.byte	0
 3496 017e 41       		.byte	65
 3497 017f 7F       		.byte	127
 3498 0180 40       		.byte	64
 3499 0181 00       		.byte	0
 3500 0182 7C       		.byte	124
 3501 0183 04       		.byte	4
 3502 0184 78       		.byte	120
 3503 0185 04       		.byte	4
 3504 0186 78       		.byte	120
 3505 0187 7C       		.byte	124
 3506 0188 08       		.byte	8
 3507 0189 04       		.byte	4
 3508 018a 04       		.byte	4
 3509 018b 78       		.byte	120
 3510 018c 38       		.byte	56
 3511 018d 44       		.byte	68
 3512 018e 44       		.byte	68
 3513 018f 44       		.byte	68
 3514 0190 38       		.byte	56
 3515 0191 7C       		.byte	124
 3516 0192 14       		.byte	20
 3517 0193 14       		.byte	20
 3518 0194 14       		.byte	20
 3519 0195 08       		.byte	8
 3520 0196 08       		.byte	8
 3521 0197 14       		.byte	20
 3522 0198 14       		.byte	20
 3523 0199 14       		.byte	20
 3524 019a 7C       		.byte	124
 3525 019b 00       		.byte	0
 3526 019c 7C       		.byte	124
 3527 019d 08       		.byte	8
ARM GAS  C:\Users\USUARIO\AppData\Local\Temp\ccywmqVe.s 			page 79


 3528 019e 04       		.byte	4
 3529 019f 04       		.byte	4
 3530 01a0 48       		.byte	72
 3531 01a1 54       		.byte	84
 3532 01a2 54       		.byte	84
 3533 01a3 54       		.byte	84
 3534 01a4 20       		.byte	32
 3535 01a5 04       		.byte	4
 3536 01a6 04       		.byte	4
 3537 01a7 3F       		.byte	63
 3538 01a8 44       		.byte	68
 3539 01a9 44       		.byte	68
 3540 01aa 3C       		.byte	60
 3541 01ab 40       		.byte	64
 3542 01ac 40       		.byte	64
 3543 01ad 20       		.byte	32
 3544 01ae 7C       		.byte	124
 3545 01af 1C       		.byte	28
 3546 01b0 20       		.byte	32
 3547 01b1 40       		.byte	64
 3548 01b2 20       		.byte	32
 3549 01b3 1C       		.byte	28
 3550 01b4 3C       		.byte	60
 3551 01b5 40       		.byte	64
 3552 01b6 30       		.byte	48
 3553 01b7 40       		.byte	64
 3554 01b8 3C       		.byte	60
 3555 01b9 44       		.byte	68
 3556 01ba 28       		.byte	40
 3557 01bb 10       		.byte	16
 3558 01bc 28       		.byte	40
 3559 01bd 44       		.byte	68
 3560 01be 0C       		.byte	12
 3561 01bf 50       		.byte	80
 3562 01c0 50       		.byte	80
 3563 01c1 50       		.byte	80
 3564 01c2 3C       		.byte	60
 3565 01c3 44       		.byte	68
 3566 01c4 64       		.byte	100
 3567 01c5 54       		.byte	84
 3568 01c6 4C       		.byte	76
 3569 01c7 44       		.byte	68
 3570 01c8 00       		.byte	0
 3571 01c9 08       		.byte	8
 3572 01ca 36       		.byte	54
 3573 01cb 41       		.byte	65
 3574 01cc 41       		.byte	65
 3575 01cd 00       		.byte	0
 3576 01ce 00       		.byte	0
 3577 01cf 7F       		.byte	127
 3578 01d0 00       		.byte	0
 3579 01d1 00       		.byte	0
 3580 01d2 41       		.byte	65
 3581 01d3 41       		.byte	65
 3582 01d4 36       		.byte	54
 3583 01d5 08       		.byte	8
 3584 01d6 00       		.byte	0
ARM GAS  C:\Users\USUARIO\AppData\Local\Temp\ccywmqVe.s 			page 80


 3585 01d7 02       		.byte	2
 3586 01d8 01       		.byte	1
 3587 01d9 02       		.byte	2
 3588 01da 04       		.byte	4
 3589 01db 02       		.byte	2
 3590 01dc 00000000 		.space	5
 3590      00
 3591 01e1 000000   		.space	3
 3592              		.type	Horno, %object
 3593              		.size	Horno, 1024
 3594              	Horno:
 3595 01e4 00       		.byte	0
 3596 01e5 00       		.byte	0
 3597 01e6 00       		.byte	0
 3598 01e7 00       		.byte	0
 3599 01e8 00       		.byte	0
 3600 01e9 00       		.byte	0
 3601 01ea 00       		.byte	0
 3602 01eb 00       		.byte	0
 3603 01ec 00       		.byte	0
 3604 01ed 00       		.byte	0
 3605 01ee 00       		.byte	0
 3606 01ef 00       		.byte	0
 3607 01f0 00       		.byte	0
 3608 01f1 00       		.byte	0
 3609 01f2 00       		.byte	0
 3610 01f3 00       		.byte	0
 3611 01f4 01       		.byte	1
 3612 01f5 C0       		.byte	-64
 3613 01f6 00       		.byte	0
 3614 01f7 00       		.byte	0
 3615 01f8 00       		.byte	0
 3616 01f9 00       		.byte	0
 3617 01fa 00       		.byte	0
 3618 01fb 00       		.byte	0
 3619 01fc 00       		.byte	0
 3620 01fd 00       		.byte	0
 3621 01fe 00       		.byte	0
 3622 01ff 00       		.byte	0
 3623 0200 00       		.byte	0
 3624 0201 00       		.byte	0
 3625 0202 00       		.byte	0
 3626 0203 00       		.byte	0
 3627 0204 07       		.byte	7
 3628 0205 F0       		.byte	-16
 3629 0206 00       		.byte	0
 3630 0207 00       		.byte	0
 3631 0208 00       		.byte	0
 3632 0209 00       		.byte	0
 3633 020a 00       		.byte	0
 3634 020b 00       		.byte	0
 3635 020c 00       		.byte	0
 3636 020d 00       		.byte	0
 3637 020e 00       		.byte	0
 3638 020f 00       		.byte	0
 3639 0210 00       		.byte	0
 3640 0211 00       		.byte	0
ARM GAS  C:\Users\USUARIO\AppData\Local\Temp\ccywmqVe.s 			page 81


 3641 0212 00       		.byte	0
 3642 0213 00       		.byte	0
 3643 0214 1C       		.byte	28
 3644 0215 9C       		.byte	-100
 3645 0216 00       		.byte	0
 3646 0217 00       		.byte	0
 3647 0218 00       		.byte	0
 3648 0219 00       		.byte	0
 3649 021a 00       		.byte	0
 3650 021b 00       		.byte	0
 3651 021c 00       		.byte	0
 3652 021d 00       		.byte	0
 3653 021e 00       		.byte	0
 3654 021f 00       		.byte	0
 3655 0220 00       		.byte	0
 3656 0221 00       		.byte	0
 3657 0222 00       		.byte	0
 3658 0223 00       		.byte	0
 3659 0224 18       		.byte	24
 3660 0225 0C       		.byte	12
 3661 0226 00       		.byte	0
 3662 0227 00       		.byte	0
 3663 0228 00       		.byte	0
 3664 0229 00       		.byte	0
 3665 022a 00       		.byte	0
 3666 022b 00       		.byte	0
 3667 022c 00       		.byte	0
 3668 022d 00       		.byte	0
 3669 022e 00       		.byte	0
 3670 022f 00       		.byte	0
 3671 0230 00       		.byte	0
 3672 0231 00       		.byte	0
 3673 0232 00       		.byte	0
 3674 0233 00       		.byte	0
 3675 0234 30       		.byte	48
 3676 0235 86       		.byte	-122
 3677 0236 00       		.byte	0
 3678 0237 00       		.byte	0
 3679 0238 00       		.byte	0
 3680 0239 00       		.byte	0
 3681 023a 00       		.byte	0
 3682 023b 00       		.byte	0
 3683 023c 00       		.byte	0
 3684 023d 00       		.byte	0
 3685 023e 00       		.byte	0
 3686 023f 00       		.byte	0
 3687 0240 00       		.byte	0
 3688 0241 00       		.byte	0
 3689 0242 00       		.byte	0
 3690 0243 00       		.byte	0
 3691 0244 20       		.byte	32
 3692 0245 82       		.byte	-126
 3693 0246 00       		.byte	0
 3694 0247 00       		.byte	0
 3695 0248 00       		.byte	0
 3696 0249 00       		.byte	0
 3697 024a 00       		.byte	0
ARM GAS  C:\Users\USUARIO\AppData\Local\Temp\ccywmqVe.s 			page 82


 3698 024b 00       		.byte	0
 3699 024c 00       		.byte	0
 3700 024d 00       		.byte	0
 3701 024e 00       		.byte	0
 3702 024f 00       		.byte	0
 3703 0250 00       		.byte	0
 3704 0251 00       		.byte	0
 3705 0252 00       		.byte	0
 3706 0253 00       		.byte	0
 3707 0254 60       		.byte	96
 3708 0255 83       		.byte	-125
 3709 0256 00       		.byte	0
 3710 0257 00       		.byte	0
 3711 0258 00       		.byte	0
 3712 0259 00       		.byte	0
 3713 025a 00       		.byte	0
 3714 025b 00       		.byte	0
 3715 025c 00       		.byte	0
 3716 025d 00       		.byte	0
 3717 025e 00       		.byte	0
 3718 025f 00       		.byte	0
 3719 0260 00       		.byte	0
 3720 0261 00       		.byte	0
 3721 0262 00       		.byte	0
 3722 0263 00       		.byte	0
 3723 0264 70       		.byte	112
 3724 0265 87       		.byte	-121
 3725 0266 00       		.byte	0
 3726 0267 00       		.byte	0
 3727 0268 00       		.byte	0
 3728 0269 00       		.byte	0
 3729 026a 00       		.byte	0
 3730 026b 00       		.byte	0
 3731 026c 00       		.byte	0
 3732 026d 00       		.byte	0
 3733 026e 00       		.byte	0
 3734 026f 00       		.byte	0
 3735 0270 00       		.byte	0
 3736 0271 00       		.byte	0
 3737 0272 00       		.byte	0
 3738 0273 00       		.byte	0
 3739 0274 60       		.byte	96
 3740 0275 C3       		.byte	-61
 3741 0276 00       		.byte	0
 3742 0277 00       		.byte	0
 3743 0278 00       		.byte	0
 3744 0279 00       		.byte	0
 3745 027a 00       		.byte	0
 3746 027b 00       		.byte	0
 3747 027c 00       		.byte	0
 3748 027d 00       		.byte	0
 3749 027e 00       		.byte	0
 3750 027f 00       		.byte	0
 3751 0280 00       		.byte	0
 3752 0281 00       		.byte	0
 3753 0282 00       		.byte	0
 3754 0283 00       		.byte	0
ARM GAS  C:\Users\USUARIO\AppData\Local\Temp\ccywmqVe.s 			page 83


 3755 0284 20       		.byte	32
 3756 0285 62       		.byte	98
 3757 0286 00       		.byte	0
 3758 0287 00       		.byte	0
 3759 0288 00       		.byte	0
 3760 0289 00       		.byte	0
 3761 028a 00       		.byte	0
 3762 028b 00       		.byte	0
 3763 028c 00       		.byte	0
 3764 028d 00       		.byte	0
 3765 028e 00       		.byte	0
 3766 028f 00       		.byte	0
 3767 0290 00       		.byte	0
 3768 0291 00       		.byte	0
 3769 0292 00       		.byte	0
 3770 0293 00       		.byte	0
 3771 0294 30       		.byte	48
 3772 0295 26       		.byte	38
 3773 0296 00       		.byte	0
 3774 0297 00       		.byte	0
 3775 0298 00       		.byte	0
 3776 0299 00       		.byte	0
 3777 029a 00       		.byte	0
 3778 029b 00       		.byte	0
 3779 029c 00       		.byte	0
 3780 029d 00       		.byte	0
 3781 029e 00       		.byte	0
 3782 029f 00       		.byte	0
 3783 02a0 00       		.byte	0
 3784 02a1 00       		.byte	0
 3785 02a2 00       		.byte	0
 3786 02a3 00       		.byte	0
 3787 02a4 18       		.byte	24
 3788 02a5 0C       		.byte	12
 3789 02a6 00       		.byte	0
 3790 02a7 00       		.byte	0
 3791 02a8 00       		.byte	0
 3792 02a9 00       		.byte	0
 3793 02aa 00       		.byte	0
 3794 02ab 00       		.byte	0
 3795 02ac 00       		.byte	0
 3796 02ad 00       		.byte	0
 3797 02ae 00       		.byte	0
 3798 02af 00       		.byte	0
 3799 02b0 00       		.byte	0
 3800 02b1 00       		.byte	0
 3801 02b2 00       		.byte	0
 3802 02b3 00       		.byte	0
 3803 02b4 1C       		.byte	28
 3804 02b5 9C       		.byte	-100
 3805 02b6 00       		.byte	0
 3806 02b7 00       		.byte	0
 3807 02b8 00       		.byte	0
 3808 02b9 00       		.byte	0
 3809 02ba 00       		.byte	0
 3810 02bb 00       		.byte	0
 3811 02bc 00       		.byte	0
ARM GAS  C:\Users\USUARIO\AppData\Local\Temp\ccywmqVe.s 			page 84


 3812 02bd 00       		.byte	0
 3813 02be 00       		.byte	0
 3814 02bf 00       		.byte	0
 3815 02c0 00       		.byte	0
 3816 02c1 00       		.byte	0
 3817 02c2 00       		.byte	0
 3818 02c3 00       		.byte	0
 3819 02c4 07       		.byte	7
 3820 02c5 F0       		.byte	-16
 3821 02c6 00       		.byte	0
 3822 02c7 00       		.byte	0
 3823 02c8 00       		.byte	0
 3824 02c9 00       		.byte	0
 3825 02ca 00       		.byte	0
 3826 02cb 00       		.byte	0
 3827 02cc 00       		.byte	0
 3828 02cd 00       		.byte	0
 3829 02ce 00       		.byte	0
 3830 02cf 00       		.byte	0
 3831 02d0 00       		.byte	0
 3832 02d1 00       		.byte	0
 3833 02d2 00       		.byte	0
 3834 02d3 00       		.byte	0
 3835 02d4 01       		.byte	1
 3836 02d5 C0       		.byte	-64
 3837 02d6 00       		.byte	0
 3838 02d7 00       		.byte	0
 3839 02d8 00       		.byte	0
 3840 02d9 00       		.byte	0
 3841 02da 00       		.byte	0
 3842 02db 00       		.byte	0
 3843 02dc 00       		.byte	0
 3844 02dd 00       		.byte	0
 3845 02de 00       		.byte	0
 3846 02df 00       		.byte	0
 3847 02e0 00       		.byte	0
 3848 02e1 00       		.byte	0
 3849 02e2 00       		.byte	0
 3850 02e3 00       		.byte	0
 3851 02e4 00       		.byte	0
 3852 02e5 00       		.byte	0
 3853 02e6 00       		.byte	0
 3854 02e7 00       		.byte	0
 3855 02e8 00       		.byte	0
 3856 02e9 00       		.byte	0
 3857 02ea 00       		.byte	0
 3858 02eb 00       		.byte	0
 3859 02ec 00       		.byte	0
 3860 02ed 00       		.byte	0
 3861 02ee 00       		.byte	0
 3862 02ef 00       		.byte	0
 3863 02f0 00       		.byte	0
 3864 02f1 00       		.byte	0
 3865 02f2 00       		.byte	0
 3866 02f3 00       		.byte	0
 3867 02f4 00       		.byte	0
 3868 02f5 00       		.byte	0
ARM GAS  C:\Users\USUARIO\AppData\Local\Temp\ccywmqVe.s 			page 85


 3869 02f6 00       		.byte	0
 3870 02f7 00       		.byte	0
 3871 02f8 00       		.byte	0
 3872 02f9 00       		.byte	0
 3873 02fa 00       		.byte	0
 3874 02fb 00       		.byte	0
 3875 02fc 00       		.byte	0
 3876 02fd 00       		.byte	0
 3877 02fe 00       		.byte	0
 3878 02ff 00       		.byte	0
 3879 0300 00       		.byte	0
 3880 0301 00       		.byte	0
 3881 0302 00       		.byte	0
 3882 0303 00       		.byte	0
 3883 0304 00       		.byte	0
 3884 0305 00       		.byte	0
 3885 0306 00       		.byte	0
 3886 0307 00       		.byte	0
 3887 0308 00       		.byte	0
 3888 0309 00       		.byte	0
 3889 030a 00       		.byte	0
 3890 030b 00       		.byte	0
 3891 030c 00       		.byte	0
 3892 030d 00       		.byte	0
 3893 030e 00       		.byte	0
 3894 030f 00       		.byte	0
 3895 0310 00       		.byte	0
 3896 0311 00       		.byte	0
 3897 0312 00       		.byte	0
 3898 0313 00       		.byte	0
 3899 0314 00       		.byte	0
 3900 0315 00       		.byte	0
 3901 0316 00       		.byte	0
 3902 0317 00       		.byte	0
 3903 0318 00       		.byte	0
 3904 0319 00       		.byte	0
 3905 031a 00       		.byte	0
 3906 031b 00       		.byte	0
 3907 031c 00       		.byte	0
 3908 031d 00       		.byte	0
 3909 031e 00       		.byte	0
 3910 031f 00       		.byte	0
 3911 0320 00       		.byte	0
 3912 0321 00       		.byte	0
 3913 0322 00       		.byte	0
 3914 0323 00       		.byte	0
 3915 0324 00       		.byte	0
 3916 0325 00       		.byte	0
 3917 0326 00       		.byte	0
 3918 0327 00       		.byte	0
 3919 0328 00       		.byte	0
 3920 0329 00       		.byte	0
 3921 032a 00       		.byte	0
 3922 032b 00       		.byte	0
 3923 032c 00       		.byte	0
 3924 032d 00       		.byte	0
 3925 032e 00       		.byte	0
ARM GAS  C:\Users\USUARIO\AppData\Local\Temp\ccywmqVe.s 			page 86


 3926 032f 00       		.byte	0
 3927 0330 00       		.byte	0
 3928 0331 00       		.byte	0
 3929 0332 00       		.byte	0
 3930 0333 00       		.byte	0
 3931 0334 00       		.byte	0
 3932 0335 00       		.byte	0
 3933 0336 00       		.byte	0
 3934 0337 00       		.byte	0
 3935 0338 00       		.byte	0
 3936 0339 00       		.byte	0
 3937 033a 00       		.byte	0
 3938 033b 00       		.byte	0
 3939 033c 00       		.byte	0
 3940 033d 00       		.byte	0
 3941 033e 00       		.byte	0
 3942 033f 00       		.byte	0
 3943 0340 00       		.byte	0
 3944 0341 00       		.byte	0
 3945 0342 00       		.byte	0
 3946 0343 00       		.byte	0
 3947 0344 00       		.byte	0
 3948 0345 00       		.byte	0
 3949 0346 00       		.byte	0
 3950 0347 00       		.byte	0
 3951 0348 00       		.byte	0
 3952 0349 00       		.byte	0
 3953 034a 00       		.byte	0
 3954 034b 00       		.byte	0
 3955 034c 00       		.byte	0
 3956 034d 00       		.byte	0
 3957 034e 00       		.byte	0
 3958 034f 00       		.byte	0
 3959 0350 00       		.byte	0
 3960 0351 00       		.byte	0
 3961 0352 00       		.byte	0
 3962 0353 00       		.byte	0
 3963 0354 00       		.byte	0
 3964 0355 00       		.byte	0
 3965 0356 00       		.byte	0
 3966 0357 00       		.byte	0
 3967 0358 00       		.byte	0
 3968 0359 00       		.byte	0
 3969 035a 00       		.byte	0
 3970 035b 00       		.byte	0
 3971 035c 00       		.byte	0
 3972 035d 00       		.byte	0
 3973 035e 00       		.byte	0
 3974 035f 00       		.byte	0
 3975 0360 00       		.byte	0
 3976 0361 00       		.byte	0
 3977 0362 00       		.byte	0
 3978 0363 00       		.byte	0
 3979 0364 00       		.byte	0
 3980 0365 00       		.byte	0
 3981 0366 00       		.byte	0
 3982 0367 00       		.byte	0
ARM GAS  C:\Users\USUARIO\AppData\Local\Temp\ccywmqVe.s 			page 87


 3983 0368 00       		.byte	0
 3984 0369 00       		.byte	0
 3985 036a 00       		.byte	0
 3986 036b 00       		.byte	0
 3987 036c 00       		.byte	0
 3988 036d 00       		.byte	0
 3989 036e 00       		.byte	0
 3990 036f 00       		.byte	0
 3991 0370 00       		.byte	0
 3992 0371 00       		.byte	0
 3993 0372 00       		.byte	0
 3994 0373 00       		.byte	0
 3995 0374 00       		.byte	0
 3996 0375 00       		.byte	0
 3997 0376 00       		.byte	0
 3998 0377 00       		.byte	0
 3999 0378 00       		.byte	0
 4000 0379 00       		.byte	0
 4001 037a 00       		.byte	0
 4002 037b 00       		.byte	0
 4003 037c 00       		.byte	0
 4004 037d 00       		.byte	0
 4005 037e 00       		.byte	0
 4006 037f 00       		.byte	0
 4007 0380 00       		.byte	0
 4008 0381 00       		.byte	0
 4009 0382 00       		.byte	0
 4010 0383 00       		.byte	0
 4011 0384 00       		.byte	0
 4012 0385 00       		.byte	0
 4013 0386 00       		.byte	0
 4014 0387 00       		.byte	0
 4015 0388 00       		.byte	0
 4016 0389 00       		.byte	0
 4017 038a 00       		.byte	0
 4018 038b 00       		.byte	0
 4019 038c 00       		.byte	0
 4020 038d 00       		.byte	0
 4021 038e 00       		.byte	0
 4022 038f 00       		.byte	0
 4023 0390 00       		.byte	0
 4024 0391 00       		.byte	0
 4025 0392 00       		.byte	0
 4026 0393 00       		.byte	0
 4027 0394 00       		.byte	0
 4028 0395 00       		.byte	0
 4029 0396 00       		.byte	0
 4030 0397 00       		.byte	0
 4031 0398 00       		.byte	0
 4032 0399 00       		.byte	0
 4033 039a 00       		.byte	0
 4034 039b 00       		.byte	0
 4035 039c 00       		.byte	0
 4036 039d 00       		.byte	0
 4037 039e 00       		.byte	0
 4038 039f 00       		.byte	0
 4039 03a0 00       		.byte	0
ARM GAS  C:\Users\USUARIO\AppData\Local\Temp\ccywmqVe.s 			page 88


 4040 03a1 00       		.byte	0
 4041 03a2 00       		.byte	0
 4042 03a3 00       		.byte	0
 4043 03a4 01       		.byte	1
 4044 03a5 80       		.byte	-128
 4045 03a6 00       		.byte	0
 4046 03a7 00       		.byte	0
 4047 03a8 00       		.byte	0
 4048 03a9 00       		.byte	0
 4049 03aa 00       		.byte	0
 4050 03ab 00       		.byte	0
 4051 03ac 00       		.byte	0
 4052 03ad 00       		.byte	0
 4053 03ae 00       		.byte	0
 4054 03af 00       		.byte	0
 4055 03b0 00       		.byte	0
 4056 03b1 00       		.byte	0
 4057 03b2 00       		.byte	0
 4058 03b3 00       		.byte	0
 4059 03b4 02       		.byte	2
 4060 03b5 40       		.byte	64
 4061 03b6 00       		.byte	0
 4062 03b7 00       		.byte	0
 4063 03b8 00       		.byte	0
 4064 03b9 00       		.byte	0
 4065 03ba 00       		.byte	0
 4066 03bb 00       		.byte	0
 4067 03bc 00       		.byte	0
 4068 03bd 00       		.byte	0
 4069 03be 00       		.byte	0
 4070 03bf 00       		.byte	0
 4071 03c0 00       		.byte	0
 4072 03c1 00       		.byte	0
 4073 03c2 00       		.byte	0
 4074 03c3 00       		.byte	0
 4075 03c4 02       		.byte	2
 4076 03c5 70       		.byte	112
 4077 03c6 00       		.byte	0
 4078 03c7 00       		.byte	0
 4079 03c8 00       		.byte	0
 4080 03c9 00       		.byte	0
 4081 03ca 00       		.byte	0
 4082 03cb 00       		.byte	0
 4083 03cc 00       		.byte	0
 4084 03cd 00       		.byte	0
 4085 03ce 00       		.byte	0
 4086 03cf 00       		.byte	0
 4087 03d0 00       		.byte	0
 4088 03d1 00       		.byte	0
 4089 03d2 00       		.byte	0
 4090 03d3 00       		.byte	0
 4091 03d4 02       		.byte	2
 4092 03d5 40       		.byte	64
 4093 03d6 00       		.byte	0
 4094 03d7 00       		.byte	0
 4095 03d8 00       		.byte	0
 4096 03d9 00       		.byte	0
ARM GAS  C:\Users\USUARIO\AppData\Local\Temp\ccywmqVe.s 			page 89


 4097 03da 00       		.byte	0
 4098 03db 00       		.byte	0
 4099 03dc 00       		.byte	0
 4100 03dd 00       		.byte	0
 4101 03de 00       		.byte	0
 4102 03df 00       		.byte	0
 4103 03e0 00       		.byte	0
 4104 03e1 00       		.byte	0
 4105 03e2 00       		.byte	0
 4106 03e3 00       		.byte	0
 4107 03e4 03       		.byte	3
 4108 03e5 C0       		.byte	-64
 4109 03e6 00       		.byte	0
 4110 03e7 00       		.byte	0
 4111 03e8 00       		.byte	0
 4112 03e9 00       		.byte	0
 4113 03ea 00       		.byte	0
 4114 03eb 00       		.byte	0
 4115 03ec 00       		.byte	0
 4116 03ed 00       		.byte	0
 4117 03ee 00       		.byte	0
 4118 03ef 00       		.byte	0
 4119 03f0 00       		.byte	0
 4120 03f1 00       		.byte	0
 4121 03f2 00       		.byte	0
 4122 03f3 00       		.byte	0
 4123 03f4 03       		.byte	3
 4124 03f5 F0       		.byte	-16
 4125 03f6 00       		.byte	0
 4126 03f7 00       		.byte	0
 4127 03f8 00       		.byte	0
 4128 03f9 00       		.byte	0
 4129 03fa 00       		.byte	0
 4130 03fb 00       		.byte	0
 4131 03fc 00       		.byte	0
 4132 03fd 00       		.byte	0
 4133 03fe 00       		.byte	0
 4134 03ff 00       		.byte	0
 4135 0400 00       		.byte	0
 4136 0401 00       		.byte	0
 4137 0402 00       		.byte	0
 4138 0403 00       		.byte	0
 4139 0404 03       		.byte	3
 4140 0405 C0       		.byte	-64
 4141 0406 00       		.byte	0
 4142 0407 00       		.byte	0
 4143 0408 00       		.byte	0
 4144 0409 00       		.byte	0
 4145 040a 00       		.byte	0
 4146 040b 00       		.byte	0
 4147 040c 00       		.byte	0
 4148 040d 00       		.byte	0
 4149 040e 00       		.byte	0
 4150 040f 00       		.byte	0
 4151 0410 00       		.byte	0
 4152 0411 00       		.byte	0
 4153 0412 00       		.byte	0
ARM GAS  C:\Users\USUARIO\AppData\Local\Temp\ccywmqVe.s 			page 90


 4154 0413 00       		.byte	0
 4155 0414 03       		.byte	3
 4156 0415 C0       		.byte	-64
 4157 0416 00       		.byte	0
 4158 0417 00       		.byte	0
 4159 0418 00       		.byte	0
 4160 0419 00       		.byte	0
 4161 041a 00       		.byte	0
 4162 041b 00       		.byte	0
 4163 041c 00       		.byte	0
 4164 041d 00       		.byte	0
 4165 041e 00       		.byte	0
 4166 041f 00       		.byte	0
 4167 0420 00       		.byte	0
 4168 0421 00       		.byte	0
 4169 0422 00       		.byte	0
 4170 0423 00       		.byte	0
 4171 0424 07       		.byte	7
 4172 0425 E0       		.byte	-32
 4173 0426 00       		.byte	0
 4174 0427 00       		.byte	0
 4175 0428 00       		.byte	0
 4176 0429 00       		.byte	0
 4177 042a 00       		.byte	0
 4178 042b 00       		.byte	0
 4179 042c 00       		.byte	0
 4180 042d 00       		.byte	0
 4181 042e 00       		.byte	0
 4182 042f 00       		.byte	0
 4183 0430 00       		.byte	0
 4184 0431 00       		.byte	0
 4185 0432 00       		.byte	0
 4186 0433 00       		.byte	0
 4187 0434 0F       		.byte	15
 4188 0435 F0       		.byte	-16
 4189 0436 00       		.byte	0
 4190 0437 00       		.byte	0
 4191 0438 00       		.byte	0
 4192 0439 00       		.byte	0
 4193 043a 00       		.byte	0
 4194 043b 00       		.byte	0
 4195 043c 00       		.byte	0
 4196 043d 00       		.byte	0
 4197 043e 00       		.byte	0
 4198 043f 00       		.byte	0
 4199 0440 00       		.byte	0
 4200 0441 00       		.byte	0
 4201 0442 00       		.byte	0
 4202 0443 00       		.byte	0
 4203 0444 0B       		.byte	11
 4204 0445 F0       		.byte	-16
 4205 0446 00       		.byte	0
 4206 0447 00       		.byte	0
 4207 0448 00       		.byte	0
 4208 0449 00       		.byte	0
 4209 044a 00       		.byte	0
 4210 044b 00       		.byte	0
ARM GAS  C:\Users\USUARIO\AppData\Local\Temp\ccywmqVe.s 			page 91


 4211 044c 00       		.byte	0
 4212 044d 00       		.byte	0
 4213 044e 00       		.byte	0
 4214 044f 00       		.byte	0
 4215 0450 00       		.byte	0
 4216 0451 00       		.byte	0
 4217 0452 00       		.byte	0
 4218 0453 00       		.byte	0
 4219 0454 0B       		.byte	11
 4220 0455 F0       		.byte	-16
 4221 0456 00       		.byte	0
 4222 0457 00       		.byte	0
 4223 0458 00       		.byte	0
 4224 0459 00       		.byte	0
 4225 045a 00       		.byte	0
 4226 045b 00       		.byte	0
 4227 045c 00       		.byte	0
 4228 045d 00       		.byte	0
 4229 045e 00       		.byte	0
 4230 045f 00       		.byte	0
 4231 0460 00       		.byte	0
 4232 0461 00       		.byte	0
 4233 0462 00       		.byte	0
 4234 0463 00       		.byte	0
 4235 0464 0F       		.byte	15
 4236 0465 F0       		.byte	-16
 4237 0466 00       		.byte	0
 4238 0467 00       		.byte	0
 4239 0468 00       		.byte	0
 4240 0469 00       		.byte	0
 4241 046a 00       		.byte	0
 4242 046b 00       		.byte	0
 4243 046c 00       		.byte	0
 4244 046d 00       		.byte	0
 4245 046e 00       		.byte	0
 4246 046f 00       		.byte	0
 4247 0470 00       		.byte	0
 4248 0471 00       		.byte	0
 4249 0472 00       		.byte	0
 4250 0473 00       		.byte	0
 4251 0474 0F       		.byte	15
 4252 0475 F0       		.byte	-16
 4253 0476 00       		.byte	0
 4254 0477 00       		.byte	0
 4255 0478 00       		.byte	0
 4256 0479 00       		.byte	0
 4257 047a 00       		.byte	0
 4258 047b 00       		.byte	0
 4259 047c 00       		.byte	0
 4260 047d 00       		.byte	0
 4261 047e 00       		.byte	0
 4262 047f 00       		.byte	0
 4263 0480 00       		.byte	0
 4264 0481 00       		.byte	0
 4265 0482 00       		.byte	0
 4266 0483 00       		.byte	0
 4267 0484 07       		.byte	7
ARM GAS  C:\Users\USUARIO\AppData\Local\Temp\ccywmqVe.s 			page 92


 4268 0485 E0       		.byte	-32
 4269 0486 00       		.byte	0
 4270 0487 00       		.byte	0
 4271 0488 00       		.byte	0
 4272 0489 00       		.byte	0
 4273 048a 00       		.byte	0
 4274 048b 00       		.byte	0
 4275 048c 00       		.byte	0
 4276 048d 00       		.byte	0
 4277 048e 00       		.byte	0
 4278 048f 00       		.byte	0
 4279 0490 00       		.byte	0
 4280 0491 00       		.byte	0
 4281 0492 00       		.byte	0
 4282 0493 00       		.byte	0
 4283 0494 03       		.byte	3
 4284 0495 C0       		.byte	-64
 4285 0496 00       		.byte	0
 4286 0497 00       		.byte	0
 4287 0498 00       		.byte	0
 4288 0499 00       		.byte	0
 4289 049a 00       		.byte	0
 4290 049b 00       		.byte	0
 4291 049c 00       		.byte	0
 4292 049d 00       		.byte	0
 4293 049e 00       		.byte	0
 4294 049f 00       		.byte	0
 4295 04a0 00       		.byte	0
 4296 04a1 00       		.byte	0
 4297 04a2 00       		.byte	0
 4298 04a3 00       		.byte	0
 4299 04a4 00       		.byte	0
 4300 04a5 00       		.byte	0
 4301 04a6 00       		.byte	0
 4302 04a7 00       		.byte	0
 4303 04a8 00       		.byte	0
 4304 04a9 00       		.byte	0
 4305 04aa 00       		.byte	0
 4306 04ab 00       		.byte	0
 4307 04ac 00       		.byte	0
 4308 04ad 00       		.byte	0
 4309 04ae 00       		.byte	0
 4310 04af 00       		.byte	0
 4311 04b0 00       		.byte	0
 4312 04b1 00       		.byte	0
 4313 04b2 00       		.byte	0
 4314 04b3 00       		.byte	0
 4315 04b4 00       		.byte	0
 4316 04b5 00       		.byte	0
 4317 04b6 00       		.byte	0
 4318 04b7 00       		.byte	0
 4319 04b8 00       		.byte	0
 4320 04b9 00       		.byte	0
 4321 04ba 00       		.byte	0
 4322 04bb 00       		.byte	0
 4323 04bc 00       		.byte	0
 4324 04bd 00       		.byte	0
ARM GAS  C:\Users\USUARIO\AppData\Local\Temp\ccywmqVe.s 			page 93


 4325 04be 00       		.byte	0
 4326 04bf 00       		.byte	0
 4327 04c0 00       		.byte	0
 4328 04c1 00       		.byte	0
 4329 04c2 00       		.byte	0
 4330 04c3 00       		.byte	0
 4331 04c4 00       		.byte	0
 4332 04c5 00       		.byte	0
 4333 04c6 00       		.byte	0
 4334 04c7 00       		.byte	0
 4335 04c8 00       		.byte	0
 4336 04c9 00       		.byte	0
 4337 04ca 00       		.byte	0
 4338 04cb 00       		.byte	0
 4339 04cc 00       		.byte	0
 4340 04cd 00       		.byte	0
 4341 04ce 00       		.byte	0
 4342 04cf 00       		.byte	0
 4343 04d0 00       		.byte	0
 4344 04d1 00       		.byte	0
 4345 04d2 00       		.byte	0
 4346 04d3 00       		.byte	0
 4347 04d4 00       		.byte	0
 4348 04d5 00       		.byte	0
 4349 04d6 00       		.byte	0
 4350 04d7 00       		.byte	0
 4351 04d8 00       		.byte	0
 4352 04d9 00       		.byte	0
 4353 04da 00       		.byte	0
 4354 04db 00       		.byte	0
 4355 04dc 00       		.byte	0
 4356 04dd 00       		.byte	0
 4357 04de 00       		.byte	0
 4358 04df 00       		.byte	0
 4359 04e0 00       		.byte	0
 4360 04e1 00       		.byte	0
 4361 04e2 00       		.byte	0
 4362 04e3 00       		.byte	0
 4363 04e4 00       		.byte	0
 4364 04e5 00       		.byte	0
 4365 04e6 00       		.byte	0
 4366 04e7 00       		.byte	0
 4367 04e8 00       		.byte	0
 4368 04e9 00       		.byte	0
 4369 04ea 00       		.byte	0
 4370 04eb 00       		.byte	0
 4371 04ec 00       		.byte	0
 4372 04ed 00       		.byte	0
 4373 04ee 00       		.byte	0
 4374 04ef 00       		.byte	0
 4375 04f0 00       		.byte	0
 4376 04f1 00       		.byte	0
 4377 04f2 00       		.byte	0
 4378 04f3 00       		.byte	0
 4379 04f4 00       		.byte	0
 4380 04f5 00       		.byte	0
 4381 04f6 00       		.byte	0
ARM GAS  C:\Users\USUARIO\AppData\Local\Temp\ccywmqVe.s 			page 94


 4382 04f7 00       		.byte	0
 4383 04f8 00       		.byte	0
 4384 04f9 00       		.byte	0
 4385 04fa 00       		.byte	0
 4386 04fb 00       		.byte	0
 4387 04fc 00       		.byte	0
 4388 04fd 00       		.byte	0
 4389 04fe 00       		.byte	0
 4390 04ff 00       		.byte	0
 4391 0500 00       		.byte	0
 4392 0501 00       		.byte	0
 4393 0502 00       		.byte	0
 4394 0503 00       		.byte	0
 4395 0504 00       		.byte	0
 4396 0505 00       		.byte	0
 4397 0506 00       		.byte	0
 4398 0507 00       		.byte	0
 4399 0508 00       		.byte	0
 4400 0509 00       		.byte	0
 4401 050a 00       		.byte	0
 4402 050b 00       		.byte	0
 4403 050c 00       		.byte	0
 4404 050d 00       		.byte	0
 4405 050e 00       		.byte	0
 4406 050f 00       		.byte	0
 4407 0510 00       		.byte	0
 4408 0511 00       		.byte	0
 4409 0512 00       		.byte	0
 4410 0513 00       		.byte	0
 4411 0514 00       		.byte	0
 4412 0515 00       		.byte	0
 4413 0516 00       		.byte	0
 4414 0517 00       		.byte	0
 4415 0518 00       		.byte	0
 4416 0519 00       		.byte	0
 4417 051a 00       		.byte	0
 4418 051b 00       		.byte	0
 4419 051c 00       		.byte	0
 4420 051d 00       		.byte	0
 4421 051e 00       		.byte	0
 4422 051f 00       		.byte	0
 4423 0520 00       		.byte	0
 4424 0521 00       		.byte	0
 4425 0522 00       		.byte	0
 4426 0523 00       		.byte	0
 4427 0524 00       		.byte	0
 4428 0525 00       		.byte	0
 4429 0526 00       		.byte	0
 4430 0527 00       		.byte	0
 4431 0528 00       		.byte	0
 4432 0529 00       		.byte	0
 4433 052a 00       		.byte	0
 4434 052b 00       		.byte	0
 4435 052c 00       		.byte	0
 4436 052d 00       		.byte	0
 4437 052e 00       		.byte	0
 4438 052f 00       		.byte	0
ARM GAS  C:\Users\USUARIO\AppData\Local\Temp\ccywmqVe.s 			page 95


 4439 0530 00       		.byte	0
 4440 0531 00       		.byte	0
 4441 0532 00       		.byte	0
 4442 0533 00       		.byte	0
 4443 0534 00       		.byte	0
 4444 0535 00       		.byte	0
 4445 0536 00       		.byte	0
 4446 0537 00       		.byte	0
 4447 0538 00       		.byte	0
 4448 0539 00       		.byte	0
 4449 053a 00       		.byte	0
 4450 053b 00       		.byte	0
 4451 053c 00       		.byte	0
 4452 053d 00       		.byte	0
 4453 053e 00       		.byte	0
 4454 053f 00       		.byte	0
 4455 0540 00       		.byte	0
 4456 0541 00       		.byte	0
 4457 0542 00       		.byte	0
 4458 0543 00       		.byte	0
 4459 0544 00       		.byte	0
 4460 0545 00       		.byte	0
 4461 0546 00       		.byte	0
 4462 0547 00       		.byte	0
 4463 0548 00       		.byte	0
 4464 0549 00       		.byte	0
 4465 054a 00       		.byte	0
 4466 054b 00       		.byte	0
 4467 054c 00       		.byte	0
 4468 054d 00       		.byte	0
 4469 054e 00       		.byte	0
 4470 054f 00       		.byte	0
 4471 0550 00       		.byte	0
 4472 0551 00       		.byte	0
 4473 0552 00       		.byte	0
 4474 0553 00       		.byte	0
 4475 0554 00       		.byte	0
 4476 0555 00       		.byte	0
 4477 0556 00       		.byte	0
 4478 0557 00       		.byte	0
 4479 0558 00       		.byte	0
 4480 0559 00       		.byte	0
 4481 055a 00       		.byte	0
 4482 055b 00       		.byte	0
 4483 055c 00       		.byte	0
 4484 055d 00       		.byte	0
 4485 055e 00       		.byte	0
 4486 055f 00       		.byte	0
 4487 0560 00       		.byte	0
 4488 0561 00       		.byte	0
 4489 0562 00       		.byte	0
 4490 0563 00       		.byte	0
 4491 0564 00       		.byte	0
 4492 0565 00       		.byte	0
 4493 0566 00       		.byte	0
 4494 0567 00       		.byte	0
 4495 0568 00       		.byte	0
ARM GAS  C:\Users\USUARIO\AppData\Local\Temp\ccywmqVe.s 			page 96


 4496 0569 00       		.byte	0
 4497 056a 00       		.byte	0
 4498 056b 00       		.byte	0
 4499 056c 00       		.byte	0
 4500 056d 00       		.byte	0
 4501 056e 00       		.byte	0
 4502 056f 00       		.byte	0
 4503 0570 00       		.byte	0
 4504 0571 00       		.byte	0
 4505 0572 00       		.byte	0
 4506 0573 00       		.byte	0
 4507 0574 00       		.byte	0
 4508 0575 00       		.byte	0
 4509 0576 00       		.byte	0
 4510 0577 00       		.byte	0
 4511 0578 00       		.byte	0
 4512 0579 00       		.byte	0
 4513 057a 00       		.byte	0
 4514 057b 00       		.byte	0
 4515 057c 00       		.byte	0
 4516 057d 00       		.byte	0
 4517 057e 00       		.byte	0
 4518 057f 00       		.byte	0
 4519 0580 00       		.byte	0
 4520 0581 00       		.byte	0
 4521 0582 00       		.byte	0
 4522 0583 00       		.byte	0
 4523 0584 00       		.byte	0
 4524 0585 00       		.byte	0
 4525 0586 00       		.byte	0
 4526 0587 00       		.byte	0
 4527 0588 00       		.byte	0
 4528 0589 00       		.byte	0
 4529 058a 00       		.byte	0
 4530 058b 00       		.byte	0
 4531 058c 00       		.byte	0
 4532 058d 00       		.byte	0
 4533 058e 00       		.byte	0
 4534 058f 00       		.byte	0
 4535 0590 00       		.byte	0
 4536 0591 00       		.byte	0
 4537 0592 00       		.byte	0
 4538 0593 00       		.byte	0
 4539 0594 00       		.byte	0
 4540 0595 00       		.byte	0
 4541 0596 00       		.byte	0
 4542 0597 00       		.byte	0
 4543 0598 00       		.byte	0
 4544 0599 00       		.byte	0
 4545 059a 00       		.byte	0
 4546 059b 00       		.byte	0
 4547 059c 00       		.byte	0
 4548 059d 00       		.byte	0
 4549 059e 00       		.byte	0
 4550 059f 00       		.byte	0
 4551 05a0 00       		.byte	0
 4552 05a1 00       		.byte	0
ARM GAS  C:\Users\USUARIO\AppData\Local\Temp\ccywmqVe.s 			page 97


 4553 05a2 00       		.byte	0
 4554 05a3 00       		.byte	0
 4555 05a4 00       		.byte	0
 4556 05a5 00       		.byte	0
 4557 05a6 00       		.byte	0
 4558 05a7 00       		.byte	0
 4559 05a8 00       		.byte	0
 4560 05a9 00       		.byte	0
 4561 05aa 00       		.byte	0
 4562 05ab 00       		.byte	0
 4563 05ac 00       		.byte	0
 4564 05ad 00       		.byte	0
 4565 05ae 00       		.byte	0
 4566 05af 00       		.byte	0
 4567 05b0 00       		.byte	0
 4568 05b1 00       		.byte	0
 4569 05b2 00       		.byte	0
 4570 05b3 00       		.byte	0
 4571 05b4 00       		.byte	0
 4572 05b5 00       		.byte	0
 4573 05b6 00       		.byte	0
 4574 05b7 00       		.byte	0
 4575 05b8 00       		.byte	0
 4576 05b9 00       		.byte	0
 4577 05ba 00       		.byte	0
 4578 05bb 00       		.byte	0
 4579 05bc 00       		.byte	0
 4580 05bd 00       		.byte	0
 4581 05be 00       		.byte	0
 4582 05bf 00       		.byte	0
 4583 05c0 00       		.byte	0
 4584 05c1 00       		.byte	0
 4585 05c2 00       		.byte	0
 4586 05c3 00       		.byte	0
 4587 05c4 00       		.byte	0
 4588 05c5 00       		.byte	0
 4589 05c6 00       		.byte	0
 4590 05c7 00       		.byte	0
 4591 05c8 00       		.byte	0
 4592 05c9 00       		.byte	0
 4593 05ca 00       		.byte	0
 4594 05cb 00       		.byte	0
 4595 05cc 00       		.byte	0
 4596 05cd 00       		.byte	0
 4597 05ce 00       		.byte	0
 4598 05cf 00       		.byte	0
 4599 05d0 00       		.byte	0
 4600 05d1 00       		.byte	0
 4601 05d2 00       		.byte	0
 4602 05d3 00       		.byte	0
 4603 05d4 00       		.byte	0
 4604 05d5 00       		.byte	0
 4605 05d6 00       		.byte	0
 4606 05d7 00       		.byte	0
 4607 05d8 00       		.byte	0
 4608 05d9 00       		.byte	0
 4609 05da 00       		.byte	0
ARM GAS  C:\Users\USUARIO\AppData\Local\Temp\ccywmqVe.s 			page 98


 4610 05db 00       		.byte	0
 4611 05dc 00       		.byte	0
 4612 05dd 00       		.byte	0
 4613 05de 00       		.byte	0
 4614 05df 00       		.byte	0
 4615 05e0 00       		.byte	0
 4616 05e1 00       		.byte	0
 4617 05e2 00       		.byte	0
 4618 05e3 00       		.byte	0
 4619              		.section	.rodata.str1.4,"aMS",%progbits,1
 4620              		.align	2
 4621              	.LC0:
 4622 0000 25303275 		.ascii	"%02u\000"
 4622      00
 4623 0005 000000   		.space	3
 4624              	.LC1:
 4625 0008 25303475 		.ascii	"%04u\000"
 4625      00
 4626 000d 000000   		.space	3
 4627              	.LC2:
 4628 0010 4300     		.ascii	"C\000"
 4629 0012 0000     		.space	2
 4630              	.LC3:
 4631 0014 25303375 		.ascii	"%03u\000"
 4631      00
 4632 0019 000000   		.space	3
 4633              	.LC4:
 4634 001c 257500   		.ascii	"%u\000"
 4635 001f 00       		.space	1
 4636              	.LC5:
 4637 0020 2530332E 		.ascii	"%03.2f\000"
 4637      326600
 4638 0027 00       		.space	1
 4639              	.LC6:
 4640 0028 256900   		.ascii	"%i\000"
 4641 002b 00       		.space	1
 4642              	.LC7:
 4643 002c 25303264 		.ascii	"%02d\000"
 4643      00
 4644              		.text
 4645              	.Letext0:
 4646              		.file 2 "c:\\program files (x86)\\cypress\\psoc creator\\4.3\\psoc creator\\import\\gnu\\arm\\5.4.
 4647              		.file 3 "c:\\program files (x86)\\cypress\\psoc creator\\4.3\\psoc creator\\import\\gnu\\arm\\5.4.
 4648              		.file 4 "Generated_Source\\PSoC5/cytypes.h"
 4649              		.file 5 "./main.h"
 4650              		.file 6 "ks0108.h"
 4651              		.file 7 "Generated_Source\\PSoC5/core_cm3.h"
 4652              		.file 8 "Generated_Source\\PSoC5/DB_0.h"
 4653              		.file 9 "Generated_Source\\PSoC5/DB_1.h"
 4654              		.file 10 "Generated_Source\\PSoC5/DB_2.h"
 4655              		.file 11 "Generated_Source\\PSoC5/DB_3.h"
 4656              		.file 12 "Generated_Source\\PSoC5/DB_4.h"
 4657              		.file 13 "Generated_Source\\PSoC5/DB_5.h"
 4658              		.file 14 "Generated_Source\\PSoC5/DB_6.h"
 4659              		.file 15 "Generated_Source\\PSoC5/DB_7.h"
 4660              		.file 16 "Generated_Source\\PSoC5/CS_2.h"
 4661              		.file 17 "Generated_Source\\PSoC5/CS_1.h"
ARM GAS  C:\Users\USUARIO\AppData\Local\Temp\ccywmqVe.s 			page 99


 4662              		.file 18 "Generated_Source\\PSoC5/R_W.h"
 4663              		.file 19 "Generated_Source\\PSoC5/CyLib.h"
 4664              		.file 20 "Generated_Source\\PSoC5/ENABLE.h"
 4665              		.file 21 "Generated_Source\\PSoC5/D_I.h"
 4666              		.file 22 "Generated_Source\\PSoC5/RESET.h"
 4667              		.file 23 "c:\\program files (x86)\\cypress\\psoc creator\\4.3\\psoc creator\\import\\gnu\\arm\\5.4
 4668              		.file 24 "c:\\program files (x86)\\cypress\\psoc creator\\4.3\\psoc creator\\import\\gnu\\arm\\5.4
 4669              		.section	.debug_info,"",%progbits
 4670              	.Ldebug_info0:
 4671 0000 BD230000 		.4byte	0x23bd
 4672 0004 0400     		.2byte	0x4
 4673 0006 00000000 		.4byte	.Ldebug_abbrev0
 4674 000a 04       		.byte	0x4
 4675 000b 01       		.uleb128 0x1
 4676 000c 5A010000 		.4byte	.LASF103
 4677 0010 0C       		.byte	0xc
 4678 0011 92020000 		.4byte	.LASF104
 4679 0015 6E000000 		.4byte	.LASF105
 4680 0019 00000000 		.4byte	.Ldebug_ranges0+0
 4681 001d 00000000 		.4byte	0
 4682 0021 00000000 		.4byte	.Ldebug_line0
 4683 0025 02       		.uleb128 0x2
 4684 0026 04       		.byte	0x4
 4685 0027 04       		.byte	0x4
 4686 0028 1D010000 		.4byte	.LASF0
 4687 002c 02       		.uleb128 0x2
 4688 002d 01       		.byte	0x1
 4689 002e 06       		.byte	0x6
 4690 002f 96040000 		.4byte	.LASF1
 4691 0033 03       		.uleb128 0x3
 4692 0034 AF030000 		.4byte	.LASF5
 4693 0038 02       		.byte	0x2
 4694 0039 1D       		.byte	0x1d
 4695 003a 3E000000 		.4byte	0x3e
 4696 003e 02       		.uleb128 0x2
 4697 003f 01       		.byte	0x1
 4698 0040 08       		.byte	0x8
 4699 0041 55040000 		.4byte	.LASF2
 4700 0045 02       		.uleb128 0x2
 4701 0046 02       		.byte	0x2
 4702 0047 05       		.byte	0x5
 4703 0048 40030000 		.4byte	.LASF3
 4704 004c 02       		.uleb128 0x2
 4705 004d 02       		.byte	0x2
 4706 004e 07       		.byte	0x7
 4707 004f A2040000 		.4byte	.LASF4
 4708 0053 03       		.uleb128 0x3
 4709 0054 43000000 		.4byte	.LASF6
 4710 0058 02       		.byte	0x2
 4711 0059 3F       		.byte	0x3f
 4712 005a 5E000000 		.4byte	0x5e
 4713 005e 02       		.uleb128 0x2
 4714 005f 04       		.byte	0x4
 4715 0060 05       		.byte	0x5
 4716 0061 66030000 		.4byte	.LASF7
 4717 0065 02       		.uleb128 0x2
 4718 0066 04       		.byte	0x4
ARM GAS  C:\Users\USUARIO\AppData\Local\Temp\ccywmqVe.s 			page 100


 4719 0067 07       		.byte	0x7
 4720 0068 09040000 		.4byte	.LASF8
 4721 006c 02       		.uleb128 0x2
 4722 006d 08       		.byte	0x8
 4723 006e 05       		.byte	0x5
 4724 006f 4C020000 		.4byte	.LASF9
 4725 0073 02       		.uleb128 0x2
 4726 0074 08       		.byte	0x8
 4727 0075 07       		.byte	0x7
 4728 0076 23010000 		.4byte	.LASF10
 4729 007a 04       		.uleb128 0x4
 4730 007b 04       		.byte	0x4
 4731 007c 05       		.byte	0x5
 4732 007d 696E7400 		.ascii	"int\000"
 4733 0081 02       		.uleb128 0x2
 4734 0082 04       		.byte	0x4
 4735 0083 07       		.byte	0x7
 4736 0084 1F000000 		.4byte	.LASF11
 4737 0088 03       		.uleb128 0x3
 4738 0089 60020000 		.4byte	.LASF12
 4739 008d 03       		.byte	0x3
 4740 008e 18       		.byte	0x18
 4741 008f 33000000 		.4byte	0x33
 4742 0093 03       		.uleb128 0x3
 4743 0094 1B040000 		.4byte	.LASF13
 4744 0098 03       		.byte	0x3
 4745 0099 2C       		.byte	0x2c
 4746 009a 53000000 		.4byte	0x53
 4747 009e 05       		.uleb128 0x5
 4748 009f BA040000 		.4byte	.LASF14
 4749 00a3 04       		.byte	0x4
 4750 00a4 E801     		.2byte	0x1e8
 4751 00a6 3E000000 		.4byte	0x3e
 4752 00aa 05       		.uleb128 0x5
 4753 00ab 3B020000 		.4byte	.LASF15
 4754 00af 04       		.byte	0x4
 4755 00b0 E901     		.2byte	0x1e9
 4756 00b2 4C000000 		.4byte	0x4c
 4757 00b6 05       		.uleb128 0x5
 4758 00b7 47020000 		.4byte	.LASF16
 4759 00bb 04       		.byte	0x4
 4760 00bc EB01     		.2byte	0x1eb
 4761 00be 2C000000 		.4byte	0x2c
 4762 00c2 05       		.uleb128 0x5
 4763 00c3 4D000000 		.4byte	.LASF17
 4764 00c7 04       		.byte	0x4
 4765 00c8 EC01     		.2byte	0x1ec
 4766 00ca 45000000 		.4byte	0x45
 4767 00ce 02       		.uleb128 0x2
 4768 00cf 08       		.byte	0x8
 4769 00d0 04       		.byte	0x4
 4770 00d1 C0040000 		.4byte	.LASF18
 4771 00d5 02       		.uleb128 0x2
 4772 00d6 01       		.byte	0x1
 4773 00d7 08       		.byte	0x8
 4774 00d8 1D020000 		.4byte	.LASF19
 4775 00dc 02       		.uleb128 0x2
ARM GAS  C:\Users\USUARIO\AppData\Local\Temp\ccywmqVe.s 			page 101


 4776 00dd 08       		.byte	0x8
 4777 00de 04       		.byte	0x4
 4778 00df E3020000 		.4byte	.LASF20
 4779 00e3 02       		.uleb128 0x2
 4780 00e4 04       		.byte	0x4
 4781 00e5 07       		.byte	0x7
 4782 00e6 EE030000 		.4byte	.LASF21
 4783 00ea 06       		.uleb128 0x6
 4784 00eb 04       		.byte	0x4
 4785 00ec D5000000 		.4byte	0xd5
 4786 00f0 07       		.uleb128 0x7
 4787 00f1 1E       		.byte	0x1e
 4788 00f2 05       		.byte	0x5
 4789 00f3 99       		.byte	0x99
 4790 00f4 05010000 		.4byte	0x105
 4791 00f8 08       		.uleb128 0x8
 4792 00f9 F2010000 		.4byte	.LASF23
 4793 00fd 05       		.byte	0x5
 4794 00fe 9A       		.byte	0x9a
 4795 00ff 05010000 		.4byte	0x105
 4796 0103 00       		.byte	0
 4797 0104 00       		.byte	0
 4798 0105 09       		.uleb128 0x9
 4799 0106 D5000000 		.4byte	0xd5
 4800 010a 15010000 		.4byte	0x115
 4801 010e 0A       		.uleb128 0xa
 4802 010f E3000000 		.4byte	0xe3
 4803 0113 1D       		.byte	0x1d
 4804 0114 00       		.byte	0
 4805 0115 03       		.uleb128 0x3
 4806 0116 AA020000 		.4byte	.LASF22
 4807 011a 05       		.byte	0x5
 4808 011b 9B       		.byte	0x9b
 4809 011c F0000000 		.4byte	0xf0
 4810 0120 0B       		.uleb128 0xb
 4811 0121 0004     		.2byte	0x400
 4812 0123 06       		.byte	0x6
 4813 0124 5C       		.byte	0x5c
 4814 0125 43010000 		.4byte	0x143
 4815 0129 08       		.uleb128 0x8
 4816 012a AA030000 		.4byte	.LASF24
 4817 012e 06       		.byte	0x6
 4818 012f 5E       		.byte	0x5e
 4819 0130 43010000 		.4byte	0x143
 4820 0134 00       		.byte	0
 4821 0135 0C       		.uleb128 0xc
 4822 0136 7A020000 		.4byte	.LASF25
 4823 013a 06       		.byte	0x6
 4824 013b 5F       		.byte	0x5f
 4825 013c 43010000 		.4byte	0x143
 4826 0140 0002     		.2byte	0x200
 4827 0142 00       		.byte	0
 4828 0143 09       		.uleb128 0x9
 4829 0144 9E000000 		.4byte	0x9e
 4830 0148 54010000 		.4byte	0x154
 4831 014c 0D       		.uleb128 0xd
 4832 014d E3000000 		.4byte	0xe3
ARM GAS  C:\Users\USUARIO\AppData\Local\Temp\ccywmqVe.s 			page 102


 4833 0151 FF01     		.2byte	0x1ff
 4834 0153 00       		.byte	0
 4835 0154 0E       		.uleb128 0xe
 4836 0155 30040000 		.4byte	.LASF26
 4837 0159 01       		.byte	0x1
 4838 015a B3       		.byte	0xb3
 4839 015b 00000000 		.4byte	.LFB64
 4840 015f 96000000 		.4byte	.LFE64-.LFB64
 4841 0163 01       		.uleb128 0x1
 4842 0164 9C       		.byte	0x9c
 4843 0165 A5020000 		.4byte	0x2a5
 4844 0169 0F       		.uleb128 0xf
 4845 016a 0A000000 		.4byte	.LASF29
 4846 016e 01       		.byte	0x1
 4847 016f B3       		.byte	0xb3
 4848 0170 88000000 		.4byte	0x88
 4849 0174 00000000 		.4byte	.LLST0
 4850 0178 10       		.uleb128 0x10
 4851 0179 0A000000 		.4byte	.LVL2
 4852 017d AD220000 		.4byte	0x22ad
 4853 0181 8B010000 		.4byte	0x18b
 4854 0185 11       		.uleb128 0x11
 4855 0186 01       		.uleb128 0x1
 4856 0187 50       		.byte	0x50
 4857 0188 01       		.uleb128 0x1
 4858 0189 30       		.byte	0x30
 4859 018a 00       		.byte	0
 4860 018b 10       		.uleb128 0x10
 4861 018c 10000000 		.4byte	.LVL3
 4862 0190 B8220000 		.4byte	0x22b8
 4863 0194 9E010000 		.4byte	0x19e
 4864 0198 11       		.uleb128 0x11
 4865 0199 01       		.uleb128 0x1
 4866 019a 50       		.byte	0x50
 4867 019b 01       		.uleb128 0x1
 4868 019c 30       		.byte	0x30
 4869 019d 00       		.byte	0
 4870 019e 10       		.uleb128 0x10
 4871 019f 16000000 		.4byte	.LVL4
 4872 01a3 C3220000 		.4byte	0x22c3
 4873 01a7 B1010000 		.4byte	0x1b1
 4874 01ab 11       		.uleb128 0x11
 4875 01ac 01       		.uleb128 0x1
 4876 01ad 50       		.byte	0x50
 4877 01ae 01       		.uleb128 0x1
 4878 01af 30       		.byte	0x30
 4879 01b0 00       		.byte	0
 4880 01b1 10       		.uleb128 0x10
 4881 01b2 1C000000 		.4byte	.LVL5
 4882 01b6 CE220000 		.4byte	0x22ce
 4883 01ba C4010000 		.4byte	0x1c4
 4884 01be 11       		.uleb128 0x11
 4885 01bf 01       		.uleb128 0x1
 4886 01c0 50       		.byte	0x50
 4887 01c1 01       		.uleb128 0x1
 4888 01c2 30       		.byte	0x30
 4889 01c3 00       		.byte	0
ARM GAS  C:\Users\USUARIO\AppData\Local\Temp\ccywmqVe.s 			page 103


 4890 01c4 10       		.uleb128 0x10
 4891 01c5 22000000 		.4byte	.LVL6
 4892 01c9 D9220000 		.4byte	0x22d9
 4893 01cd D7010000 		.4byte	0x1d7
 4894 01d1 11       		.uleb128 0x11
 4895 01d2 01       		.uleb128 0x1
 4896 01d3 50       		.byte	0x50
 4897 01d4 01       		.uleb128 0x1
 4898 01d5 30       		.byte	0x30
 4899 01d6 00       		.byte	0
 4900 01d7 10       		.uleb128 0x10
 4901 01d8 28000000 		.4byte	.LVL7
 4902 01dc E4220000 		.4byte	0x22e4
 4903 01e0 EA010000 		.4byte	0x1ea
 4904 01e4 11       		.uleb128 0x11
 4905 01e5 01       		.uleb128 0x1
 4906 01e6 50       		.byte	0x50
 4907 01e7 01       		.uleb128 0x1
 4908 01e8 30       		.byte	0x30
 4909 01e9 00       		.byte	0
 4910 01ea 10       		.uleb128 0x10
 4911 01eb 2E000000 		.4byte	.LVL8
 4912 01ef EF220000 		.4byte	0x22ef
 4913 01f3 FD010000 		.4byte	0x1fd
 4914 01f7 11       		.uleb128 0x11
 4915 01f8 01       		.uleb128 0x1
 4916 01f9 50       		.byte	0x50
 4917 01fa 01       		.uleb128 0x1
 4918 01fb 30       		.byte	0x30
 4919 01fc 00       		.byte	0
 4920 01fd 10       		.uleb128 0x10
 4921 01fe 34000000 		.4byte	.LVL9
 4922 0202 FA220000 		.4byte	0x22fa
 4923 0206 10020000 		.4byte	0x210
 4924 020a 11       		.uleb128 0x11
 4925 020b 01       		.uleb128 0x1
 4926 020c 50       		.byte	0x50
 4927 020d 01       		.uleb128 0x1
 4928 020e 30       		.byte	0x30
 4929 020f 00       		.byte	0
 4930 0210 10       		.uleb128 0x10
 4931 0211 40000000 		.4byte	.LVL10
 4932 0215 AD220000 		.4byte	0x22ad
 4933 0219 23020000 		.4byte	0x223
 4934 021d 11       		.uleb128 0x11
 4935 021e 01       		.uleb128 0x1
 4936 021f 50       		.byte	0x50
 4937 0220 01       		.uleb128 0x1
 4938 0221 31       		.byte	0x31
 4939 0222 00       		.byte	0
 4940 0223 10       		.uleb128 0x10
 4941 0224 4C000000 		.4byte	.LVL11
 4942 0228 B8220000 		.4byte	0x22b8
 4943 022c 36020000 		.4byte	0x236
 4944 0230 11       		.uleb128 0x11
 4945 0231 01       		.uleb128 0x1
 4946 0232 50       		.byte	0x50
ARM GAS  C:\Users\USUARIO\AppData\Local\Temp\ccywmqVe.s 			page 104


 4947 0233 01       		.uleb128 0x1
 4948 0234 31       		.byte	0x31
 4949 0235 00       		.byte	0
 4950 0236 10       		.uleb128 0x10
 4951 0237 58000000 		.4byte	.LVL12
 4952 023b C3220000 		.4byte	0x22c3
 4953 023f 49020000 		.4byte	0x249
 4954 0243 11       		.uleb128 0x11
 4955 0244 01       		.uleb128 0x1
 4956 0245 50       		.byte	0x50
 4957 0246 01       		.uleb128 0x1
 4958 0247 31       		.byte	0x31
 4959 0248 00       		.byte	0
 4960 0249 10       		.uleb128 0x10
 4961 024a 64000000 		.4byte	.LVL13
 4962 024e CE220000 		.4byte	0x22ce
 4963 0252 5C020000 		.4byte	0x25c
 4964 0256 11       		.uleb128 0x11
 4965 0257 01       		.uleb128 0x1
 4966 0258 50       		.byte	0x50
 4967 0259 01       		.uleb128 0x1
 4968 025a 31       		.byte	0x31
 4969 025b 00       		.byte	0
 4970 025c 10       		.uleb128 0x10
 4971 025d 70000000 		.4byte	.LVL14
 4972 0261 D9220000 		.4byte	0x22d9
 4973 0265 6F020000 		.4byte	0x26f
 4974 0269 11       		.uleb128 0x11
 4975 026a 01       		.uleb128 0x1
 4976 026b 50       		.byte	0x50
 4977 026c 01       		.uleb128 0x1
 4978 026d 31       		.byte	0x31
 4979 026e 00       		.byte	0
 4980 026f 10       		.uleb128 0x10
 4981 0270 7C000000 		.4byte	.LVL15
 4982 0274 E4220000 		.4byte	0x22e4
 4983 0278 82020000 		.4byte	0x282
 4984 027c 11       		.uleb128 0x11
 4985 027d 01       		.uleb128 0x1
 4986 027e 50       		.byte	0x50
 4987 027f 01       		.uleb128 0x1
 4988 0280 31       		.byte	0x31
 4989 0281 00       		.byte	0
 4990 0282 10       		.uleb128 0x10
 4991 0283 88000000 		.4byte	.LVL16
 4992 0287 EF220000 		.4byte	0x22ef
 4993 028b 95020000 		.4byte	0x295
 4994 028f 11       		.uleb128 0x11
 4995 0290 01       		.uleb128 0x1
 4996 0291 50       		.byte	0x50
 4997 0292 01       		.uleb128 0x1
 4998 0293 31       		.byte	0x31
 4999 0294 00       		.byte	0
 5000 0295 12       		.uleb128 0x12
 5001 0296 94000000 		.4byte	.LVL17
 5002 029a FA220000 		.4byte	0x22fa
 5003 029e 11       		.uleb128 0x11
ARM GAS  C:\Users\USUARIO\AppData\Local\Temp\ccywmqVe.s 			page 105


 5004 029f 01       		.uleb128 0x1
 5005 02a0 50       		.byte	0x50
 5006 02a1 01       		.uleb128 0x1
 5007 02a2 31       		.byte	0x31
 5008 02a3 00       		.byte	0
 5009 02a4 00       		.byte	0
 5010 02a5 13       		.uleb128 0x13
 5011 02a6 F7020000 		.4byte	.LASF27
 5012 02aa 01       		.byte	0x1
 5013 02ab D2       		.byte	0xd2
 5014 02ac 9E000000 		.4byte	0x9e
 5015 02b0 00000000 		.4byte	.LFB65
 5016 02b4 58000000 		.4byte	.LFE65-.LFB65
 5017 02b8 01       		.uleb128 0x1
 5018 02b9 9C       		.byte	0x9c
 5019 02ba 16030000 		.4byte	0x316
 5020 02be 14       		.uleb128 0x14
 5021 02bf 76616C00 		.ascii	"val\000"
 5022 02c3 01       		.byte	0x1
 5023 02c4 D4       		.byte	0xd4
 5024 02c5 9E000000 		.4byte	0x9e
 5025 02c9 21000000 		.4byte	.LLST1
 5026 02cd 15       		.uleb128 0x15
 5027 02ce 06000000 		.4byte	.LVL19
 5028 02d2 05230000 		.4byte	0x2305
 5029 02d6 15       		.uleb128 0x15
 5030 02d7 12000000 		.4byte	.LVL21
 5031 02db 10230000 		.4byte	0x2310
 5032 02df 15       		.uleb128 0x15
 5033 02e0 1C000000 		.4byte	.LVL24
 5034 02e4 1B230000 		.4byte	0x231b
 5035 02e8 15       		.uleb128 0x15
 5036 02e9 26000000 		.4byte	.LVL27
 5037 02ed 26230000 		.4byte	0x2326
 5038 02f1 15       		.uleb128 0x15
 5039 02f2 30000000 		.4byte	.LVL30
 5040 02f6 31230000 		.4byte	0x2331
 5041 02fa 15       		.uleb128 0x15
 5042 02fb 3A000000 		.4byte	.LVL33
 5043 02ff 3C230000 		.4byte	0x233c
 5044 0303 15       		.uleb128 0x15
 5045 0304 44000000 		.4byte	.LVL36
 5046 0308 47230000 		.4byte	0x2347
 5047 030c 15       		.uleb128 0x15
 5048 030d 4E000000 		.4byte	.LVL39
 5049 0311 52230000 		.4byte	0x2352
 5050 0315 00       		.byte	0
 5051 0316 0E       		.uleb128 0xe
 5052 0317 4A030000 		.4byte	.LASF28
 5053 031b 01       		.byte	0x1
 5054 031c EA       		.byte	0xea
 5055 031d 00000000 		.4byte	.LFB66
 5056 0321 48000000 		.4byte	.LFE66-.LFB66
 5057 0325 01       		.uleb128 0x1
 5058 0326 9C       		.byte	0x9c
 5059 0327 08040000 		.4byte	0x408
 5060 032b 0F       		.uleb128 0xf
ARM GAS  C:\Users\USUARIO\AppData\Local\Temp\ccywmqVe.s 			page 106


 5061 032c 69000000 		.4byte	.LASF30
 5062 0330 01       		.byte	0x1
 5063 0331 EA       		.byte	0xea
 5064 0332 45000000 		.4byte	0x45
 5065 0336 82000000 		.4byte	.LLST2
 5066 033a 0F       		.uleb128 0xf
 5067 033b 42020000 		.4byte	.LASF31
 5068 033f 01       		.byte	0x1
 5069 0340 EA       		.byte	0xea
 5070 0341 9E000000 		.4byte	0x9e
 5071 0345 BC000000 		.4byte	.LLST3
 5072 0349 10       		.uleb128 0x10
 5073 034a 0C000000 		.4byte	.LVL43
 5074 034e 5D230000 		.4byte	0x235d
 5075 0352 5C030000 		.4byte	0x35c
 5076 0356 11       		.uleb128 0x11
 5077 0357 01       		.uleb128 0x1
 5078 0358 50       		.byte	0x50
 5079 0359 01       		.uleb128 0x1
 5080 035a 31       		.byte	0x31
 5081 035b 00       		.byte	0
 5082 035c 10       		.uleb128 0x10
 5083 035d 14000000 		.4byte	.LVL46
 5084 0361 68230000 		.4byte	0x2368
 5085 0365 6F030000 		.4byte	0x36f
 5086 0369 11       		.uleb128 0x11
 5087 036a 01       		.uleb128 0x1
 5088 036b 50       		.byte	0x50
 5089 036c 01       		.uleb128 0x1
 5090 036d 31       		.byte	0x31
 5091 036e 00       		.byte	0
 5092 036f 10       		.uleb128 0x10
 5093 0370 1A000000 		.4byte	.LVL47
 5094 0374 73230000 		.4byte	0x2373
 5095 0378 82030000 		.4byte	0x382
 5096 037c 11       		.uleb128 0x11
 5097 037d 01       		.uleb128 0x1
 5098 037e 50       		.byte	0x50
 5099 037f 01       		.uleb128 0x1
 5100 0380 30       		.byte	0x30
 5101 0381 00       		.byte	0
 5102 0382 10       		.uleb128 0x10
 5103 0383 20000000 		.4byte	.LVL48
 5104 0387 54010000 		.4byte	0x154
 5105 038b 96030000 		.4byte	0x396
 5106 038f 11       		.uleb128 0x11
 5107 0390 01       		.uleb128 0x1
 5108 0391 50       		.byte	0x50
 5109 0392 02       		.uleb128 0x2
 5110 0393 74       		.byte	0x74
 5111 0394 00       		.sleb128 0
 5112 0395 00       		.byte	0
 5113 0396 10       		.uleb128 0x10
 5114 0397 26000000 		.4byte	.LVL49
 5115 039b 7E230000 		.4byte	0x237e
 5116 039f AA030000 		.4byte	0x3aa
 5117 03a3 11       		.uleb128 0x11
ARM GAS  C:\Users\USUARIO\AppData\Local\Temp\ccywmqVe.s 			page 107


 5118 03a4 01       		.uleb128 0x1
 5119 03a5 50       		.byte	0x50
 5120 03a6 02       		.uleb128 0x2
 5121 03a7 08       		.byte	0x8
 5122 03a8 64       		.byte	0x64
 5123 03a9 00       		.byte	0
 5124 03aa 10       		.uleb128 0x10
 5125 03ab 2C000000 		.4byte	.LVL50
 5126 03af 89230000 		.4byte	0x2389
 5127 03b3 BD030000 		.4byte	0x3bd
 5128 03b7 11       		.uleb128 0x11
 5129 03b8 01       		.uleb128 0x1
 5130 03b9 50       		.byte	0x50
 5131 03ba 01       		.uleb128 0x1
 5132 03bb 31       		.byte	0x31
 5133 03bc 00       		.byte	0
 5134 03bd 10       		.uleb128 0x10
 5135 03be 34000000 		.4byte	.LVL51
 5136 03c2 7E230000 		.4byte	0x237e
 5137 03c6 D2030000 		.4byte	0x3d2
 5138 03ca 11       		.uleb128 0x11
 5139 03cb 01       		.uleb128 0x1
 5140 03cc 50       		.byte	0x50
 5141 03cd 03       		.uleb128 0x3
 5142 03ce 0A       		.byte	0xa
 5143 03cf F401     		.2byte	0x1f4
 5144 03d1 00       		.byte	0
 5145 03d2 10       		.uleb128 0x10
 5146 03d3 3A000000 		.4byte	.LVL52
 5147 03d7 89230000 		.4byte	0x2389
 5148 03db E5030000 		.4byte	0x3e5
 5149 03df 11       		.uleb128 0x11
 5150 03e0 01       		.uleb128 0x1
 5151 03e1 50       		.byte	0x50
 5152 03e2 01       		.uleb128 0x1
 5153 03e3 30       		.byte	0x30
 5154 03e4 00       		.byte	0
 5155 03e5 10       		.uleb128 0x10
 5156 03e6 40000000 		.4byte	.LVL53
 5157 03ea 68230000 		.4byte	0x2368
 5158 03ee F8030000 		.4byte	0x3f8
 5159 03f2 11       		.uleb128 0x11
 5160 03f3 01       		.uleb128 0x1
 5161 03f4 50       		.byte	0x50
 5162 03f5 01       		.uleb128 0x1
 5163 03f6 30       		.byte	0x30
 5164 03f7 00       		.byte	0
 5165 03f8 12       		.uleb128 0x12
 5166 03f9 46000000 		.4byte	.LVL54
 5167 03fd 5D230000 		.4byte	0x235d
 5168 0401 11       		.uleb128 0x11
 5169 0402 01       		.uleb128 0x1
 5170 0403 50       		.byte	0x50
 5171 0404 01       		.uleb128 0x1
 5172 0405 30       		.byte	0x30
 5173 0406 00       		.byte	0
 5174 0407 00       		.byte	0
ARM GAS  C:\Users\USUARIO\AppData\Local\Temp\ccywmqVe.s 			page 108


 5175 0408 16       		.uleb128 0x16
 5176 0409 E1040000 		.4byte	.LASF106
 5177 040d 01       		.byte	0x1
 5178 040e FF       		.byte	0xff
 5179 040f 00000000 		.4byte	.LFB67
 5180 0413 7C000000 		.4byte	.LFE67-.LFB67
 5181 0417 01       		.uleb128 0x1
 5182 0418 9C       		.byte	0x9c
 5183 0419 04050000 		.4byte	0x504
 5184 041d 17       		.uleb128 0x17
 5185 041e 6900     		.ascii	"i\000"
 5186 0420 01       		.byte	0x1
 5187 0421 0101     		.2byte	0x101
 5188 0423 9E000000 		.4byte	0x9e
 5189 0427 F6000000 		.4byte	.LLST4
 5190 042b 17       		.uleb128 0x17
 5191 042c 6A00     		.ascii	"j\000"
 5192 042e 01       		.byte	0x1
 5193 042f 0101     		.2byte	0x101
 5194 0431 9E000000 		.4byte	0x9e
 5195 0435 20010000 		.4byte	.LLST5
 5196 0439 17       		.uleb128 0x17
 5197 043a 703100   		.ascii	"p1\000"
 5198 043d 01       		.byte	0x1
 5199 043e 0201     		.2byte	0x102
 5200 0440 04050000 		.4byte	0x504
 5201 0444 4A010000 		.4byte	.LLST6
 5202 0448 17       		.uleb128 0x17
 5203 0449 703200   		.ascii	"p2\000"
 5204 044c 01       		.byte	0x1
 5205 044d 0201     		.2byte	0x102
 5206 044f 04050000 		.4byte	0x504
 5207 0453 83010000 		.4byte	.LLST7
 5208 0457 10       		.uleb128 0x10
 5209 0458 16000000 		.4byte	.LVL58
 5210 045c 94230000 		.4byte	0x2394
 5211 0460 6A040000 		.4byte	0x46a
 5212 0464 11       		.uleb128 0x11
 5213 0465 01       		.uleb128 0x1
 5214 0466 50       		.byte	0x50
 5215 0467 01       		.uleb128 0x1
 5216 0468 30       		.byte	0x30
 5217 0469 00       		.byte	0
 5218 046a 10       		.uleb128 0x10
 5219 046b 1E000000 		.4byte	.LVL59
 5220 046f 16030000 		.4byte	0x316
 5221 0473 83040000 		.4byte	0x483
 5222 0477 11       		.uleb128 0x11
 5223 0478 01       		.uleb128 0x1
 5224 0479 50       		.byte	0x50
 5225 047a 01       		.uleb128 0x1
 5226 047b 30       		.byte	0x30
 5227 047c 11       		.uleb128 0x11
 5228 047d 01       		.uleb128 0x1
 5229 047e 51       		.byte	0x51
 5230 047f 02       		.uleb128 0x2
 5231 0480 08       		.byte	0x8
ARM GAS  C:\Users\USUARIO\AppData\Local\Temp\ccywmqVe.s 			page 109


 5232 0481 40       		.byte	0x40
 5233 0482 00       		.byte	0
 5234 0483 10       		.uleb128 0x10
 5235 0484 26000000 		.4byte	.LVL60
 5236 0488 16030000 		.4byte	0x316
 5237 048c 9C040000 		.4byte	0x49c
 5238 0490 11       		.uleb128 0x11
 5239 0491 01       		.uleb128 0x1
 5240 0492 50       		.byte	0x50
 5241 0493 01       		.uleb128 0x1
 5242 0494 31       		.byte	0x31
 5243 0495 11       		.uleb128 0x11
 5244 0496 01       		.uleb128 0x1
 5245 0497 51       		.byte	0x51
 5246 0498 02       		.uleb128 0x2
 5247 0499 08       		.byte	0x8
 5248 049a 40       		.byte	0x40
 5249 049b 00       		.byte	0
 5250 049c 10       		.uleb128 0x10
 5251 049d 32000000 		.4byte	.LVL61
 5252 04a1 16030000 		.4byte	0x316
 5253 04a5 B5040000 		.4byte	0x4b5
 5254 04a9 11       		.uleb128 0x11
 5255 04aa 01       		.uleb128 0x1
 5256 04ab 50       		.byte	0x50
 5257 04ac 01       		.uleb128 0x1
 5258 04ad 30       		.byte	0x30
 5259 04ae 11       		.uleb128 0x11
 5260 04af 01       		.uleb128 0x1
 5261 04b0 51       		.byte	0x51
 5262 04b1 02       		.uleb128 0x2
 5263 04b2 74       		.byte	0x74
 5264 04b3 00       		.sleb128 0
 5265 04b4 00       		.byte	0
 5266 04b5 10       		.uleb128 0x10
 5267 04b6 3A000000 		.4byte	.LVL62
 5268 04ba 16030000 		.4byte	0x316
 5269 04be CE040000 		.4byte	0x4ce
 5270 04c2 11       		.uleb128 0x11
 5271 04c3 01       		.uleb128 0x1
 5272 04c4 50       		.byte	0x50
 5273 04c5 01       		.uleb128 0x1
 5274 04c6 31       		.byte	0x31
 5275 04c7 11       		.uleb128 0x11
 5276 04c8 01       		.uleb128 0x1
 5277 04c9 51       		.byte	0x51
 5278 04ca 02       		.uleb128 0x2
 5279 04cb 74       		.byte	0x74
 5280 04cc 00       		.sleb128 0
 5281 04cd 00       		.byte	0
 5282 04ce 10       		.uleb128 0x10
 5283 04cf 40000000 		.4byte	.LVL63
 5284 04d3 94230000 		.4byte	0x2394
 5285 04d7 E1040000 		.4byte	0x4e1
 5286 04db 11       		.uleb128 0x11
 5287 04dc 01       		.uleb128 0x1
 5288 04dd 50       		.byte	0x50
ARM GAS  C:\Users\USUARIO\AppData\Local\Temp\ccywmqVe.s 			page 110


 5289 04de 01       		.uleb128 0x1
 5290 04df 31       		.byte	0x31
 5291 04e0 00       		.byte	0
 5292 04e1 10       		.uleb128 0x10
 5293 04e2 4E000000 		.4byte	.LVL66
 5294 04e6 16030000 		.4byte	0x316
 5295 04ea F4040000 		.4byte	0x4f4
 5296 04ee 11       		.uleb128 0x11
 5297 04ef 01       		.uleb128 0x1
 5298 04f0 50       		.byte	0x50
 5299 04f1 01       		.uleb128 0x1
 5300 04f2 30       		.byte	0x30
 5301 04f3 00       		.byte	0
 5302 04f4 12       		.uleb128 0x12
 5303 04f5 58000000 		.4byte	.LVL68
 5304 04f9 16030000 		.4byte	0x316
 5305 04fd 11       		.uleb128 0x11
 5306 04fe 01       		.uleb128 0x1
 5307 04ff 50       		.byte	0x50
 5308 0500 01       		.uleb128 0x1
 5309 0501 31       		.byte	0x31
 5310 0502 00       		.byte	0
 5311 0503 00       		.byte	0
 5312 0504 06       		.uleb128 0x6
 5313 0505 04       		.byte	0x4
 5314 0506 9E000000 		.4byte	0x9e
 5315 050a 18       		.uleb128 0x18
 5316 050b FE010000 		.4byte	.LASF107
 5317 050f 01       		.byte	0x1
 5318 0510 1C01     		.2byte	0x11c
 5319 0512 9E000000 		.4byte	0x9e
 5320 0516 00000000 		.4byte	.LFB68
 5321 051a 4A000000 		.4byte	.LFE68-.LFB68
 5322 051e 01       		.uleb128 0x1
 5323 051f 9C       		.byte	0x9c
 5324 0520 F6050000 		.4byte	0x5f6
 5325 0524 19       		.uleb128 0x19
 5326 0525 69000000 		.4byte	.LASF30
 5327 0529 01       		.byte	0x1
 5328 052a 1C01     		.2byte	0x11c
 5329 052c 45000000 		.4byte	0x45
 5330 0530 BC010000 		.4byte	.LLST8
 5331 0534 1A       		.uleb128 0x1a
 5332 0535 42020000 		.4byte	.LASF31
 5333 0539 01       		.byte	0x1
 5334 053a 1E01     		.2byte	0x11e
 5335 053c 9E000000 		.4byte	0x9e
 5336 0540 01       		.uleb128 0x1
 5337 0541 54       		.byte	0x54
 5338 0542 10       		.uleb128 0x10
 5339 0543 0A000000 		.4byte	.LVL77
 5340 0547 73230000 		.4byte	0x2373
 5341 054b 55050000 		.4byte	0x555
 5342 054f 11       		.uleb128 0x11
 5343 0550 01       		.uleb128 0x1
 5344 0551 50       		.byte	0x50
 5345 0552 01       		.uleb128 0x1
ARM GAS  C:\Users\USUARIO\AppData\Local\Temp\ccywmqVe.s 			page 111


 5346 0553 31       		.byte	0x31
 5347 0554 00       		.byte	0
 5348 0555 10       		.uleb128 0x10
 5349 0556 12000000 		.4byte	.LVL78
 5350 055a 5D230000 		.4byte	0x235d
 5351 055e 68050000 		.4byte	0x568
 5352 0562 11       		.uleb128 0x11
 5353 0563 01       		.uleb128 0x1
 5354 0564 50       		.byte	0x50
 5355 0565 01       		.uleb128 0x1
 5356 0566 31       		.byte	0x31
 5357 0567 00       		.byte	0
 5358 0568 10       		.uleb128 0x10
 5359 0569 1A000000 		.4byte	.LVL79
 5360 056d 68230000 		.4byte	0x2368
 5361 0571 7B050000 		.4byte	0x57b
 5362 0575 11       		.uleb128 0x11
 5363 0576 01       		.uleb128 0x1
 5364 0577 50       		.byte	0x50
 5365 0578 01       		.uleb128 0x1
 5366 0579 31       		.byte	0x31
 5367 057a 00       		.byte	0
 5368 057b 10       		.uleb128 0x10
 5369 057c 20000000 		.4byte	.LVL80
 5370 0580 7E230000 		.4byte	0x237e
 5371 0584 8F050000 		.4byte	0x58f
 5372 0588 11       		.uleb128 0x11
 5373 0589 01       		.uleb128 0x1
 5374 058a 50       		.byte	0x50
 5375 058b 02       		.uleb128 0x2
 5376 058c 08       		.byte	0x8
 5377 058d 64       		.byte	0x64
 5378 058e 00       		.byte	0
 5379 058f 10       		.uleb128 0x10
 5380 0590 26000000 		.4byte	.LVL81
 5381 0594 89230000 		.4byte	0x2389
 5382 0598 A2050000 		.4byte	0x5a2
 5383 059c 11       		.uleb128 0x11
 5384 059d 01       		.uleb128 0x1
 5385 059e 50       		.byte	0x50
 5386 059f 01       		.uleb128 0x1
 5387 05a0 31       		.byte	0x31
 5388 05a1 00       		.byte	0
 5389 05a2 10       		.uleb128 0x10
 5390 05a3 2E000000 		.4byte	.LVL82
 5391 05a7 7E230000 		.4byte	0x237e
 5392 05ab B7050000 		.4byte	0x5b7
 5393 05af 11       		.uleb128 0x11
 5394 05b0 01       		.uleb128 0x1
 5395 05b1 50       		.byte	0x50
 5396 05b2 03       		.uleb128 0x3
 5397 05b3 0A       		.byte	0xa
 5398 05b4 9001     		.2byte	0x190
 5399 05b6 00       		.byte	0
 5400 05b7 15       		.uleb128 0x15
 5401 05b8 32000000 		.4byte	.LVL83
 5402 05bc A5020000 		.4byte	0x2a5
ARM GAS  C:\Users\USUARIO\AppData\Local\Temp\ccywmqVe.s 			page 112


 5403 05c0 10       		.uleb128 0x10
 5404 05c1 3A000000 		.4byte	.LVL85
 5405 05c5 89230000 		.4byte	0x2389
 5406 05c9 D3050000 		.4byte	0x5d3
 5407 05cd 11       		.uleb128 0x11
 5408 05ce 01       		.uleb128 0x1
 5409 05cf 50       		.byte	0x50
 5410 05d0 01       		.uleb128 0x1
 5411 05d1 30       		.byte	0x30
 5412 05d2 00       		.byte	0
 5413 05d3 10       		.uleb128 0x10
 5414 05d4 40000000 		.4byte	.LVL86
 5415 05d8 68230000 		.4byte	0x2368
 5416 05dc E6050000 		.4byte	0x5e6
 5417 05e0 11       		.uleb128 0x11
 5418 05e1 01       		.uleb128 0x1
 5419 05e2 50       		.byte	0x50
 5420 05e3 01       		.uleb128 0x1
 5421 05e4 30       		.byte	0x30
 5422 05e5 00       		.byte	0
 5423 05e6 12       		.uleb128 0x12
 5424 05e7 46000000 		.4byte	.LVL87
 5425 05eb 5D230000 		.4byte	0x235d
 5426 05ef 11       		.uleb128 0x11
 5427 05f0 01       		.uleb128 0x1
 5428 05f1 50       		.byte	0x50
 5429 05f2 01       		.uleb128 0x1
 5430 05f3 30       		.byte	0x30
 5431 05f4 00       		.byte	0
 5432 05f5 00       		.byte	0
 5433 05f6 1B       		.uleb128 0x1b
 5434 05f7 04030000 		.4byte	.LASF32
 5435 05fb 01       		.byte	0x1
 5436 05fc 3701     		.2byte	0x137
 5437 05fe 00000000 		.4byte	.LFB69
 5438 0602 28000000 		.4byte	.LFE69-.LFB69
 5439 0606 01       		.uleb128 0x1
 5440 0607 9C       		.byte	0x9c
 5441 0608 57060000 		.4byte	0x657
 5442 060c 19       		.uleb128 0x19
 5443 060d A4030000 		.4byte	.LASF33
 5444 0611 01       		.byte	0x1
 5445 0612 3701     		.2byte	0x137
 5446 0614 45000000 		.4byte	0x45
 5447 0618 DD010000 		.4byte	.LLST9
 5448 061c 1A       		.uleb128 0x1a
 5449 061d 42020000 		.4byte	.LASF31
 5450 0621 01       		.byte	0x1
 5451 0622 3901     		.2byte	0x139
 5452 0624 9E000000 		.4byte	0x9e
 5453 0628 01       		.uleb128 0x1
 5454 0629 50       		.byte	0x50
 5455 062a 17       		.uleb128 0x17
 5456 062b 703100   		.ascii	"p1\000"
 5457 062e 01       		.byte	0x1
 5458 062f 3A01     		.2byte	0x13a
 5459 0631 04050000 		.4byte	0x504
ARM GAS  C:\Users\USUARIO\AppData\Local\Temp\ccywmqVe.s 			page 113


 5460 0635 FE010000 		.4byte	.LLST10
 5461 0639 17       		.uleb128 0x17
 5462 063a 703200   		.ascii	"p2\000"
 5463 063d 01       		.byte	0x1
 5464 063e 3A01     		.2byte	0x13a
 5465 0640 04050000 		.4byte	0x504
 5466 0644 2E020000 		.4byte	.LLST11
 5467 0648 17       		.uleb128 0x17
 5468 0649 6900     		.ascii	"i\000"
 5469 064b 01       		.byte	0x1
 5470 064c 3B01     		.2byte	0x13b
 5471 064e AA000000 		.4byte	0xaa
 5472 0652 69020000 		.4byte	.LLST12
 5473 0656 00       		.byte	0
 5474 0657 1B       		.uleb128 0x1b
 5475 0658 1A030000 		.4byte	.LASF34
 5476 065c 01       		.byte	0x1
 5477 065d 4901     		.2byte	0x149
 5478 065f 00000000 		.4byte	.LFB70
 5479 0663 84000000 		.4byte	.LFE70-.LFB70
 5480 0667 01       		.uleb128 0x1
 5481 0668 9C       		.byte	0x9c
 5482 0669 F3070000 		.4byte	0x7f3
 5483 066d 19       		.uleb128 0x19
 5484 066e EA000000 		.4byte	.LASF35
 5485 0672 01       		.byte	0x1
 5486 0673 4901     		.2byte	0x149
 5487 0675 45000000 		.4byte	0x45
 5488 0679 93020000 		.4byte	.LLST13
 5489 067d 10       		.uleb128 0x10
 5490 067e 0A000000 		.4byte	.LVL100
 5491 0682 9F230000 		.4byte	0x239f
 5492 0686 90060000 		.4byte	0x690
 5493 068a 11       		.uleb128 0x11
 5494 068b 01       		.uleb128 0x1
 5495 068c 50       		.byte	0x50
 5496 068d 01       		.uleb128 0x1
 5497 068e 31       		.byte	0x31
 5498 068f 00       		.byte	0
 5499 0690 10       		.uleb128 0x10
 5500 0691 10000000 		.4byte	.LVL101
 5501 0695 89230000 		.4byte	0x2389
 5502 0699 A3060000 		.4byte	0x6a3
 5503 069d 11       		.uleb128 0x11
 5504 069e 01       		.uleb128 0x1
 5505 069f 50       		.byte	0x50
 5506 06a0 01       		.uleb128 0x1
 5507 06a1 30       		.byte	0x30
 5508 06a2 00       		.byte	0
 5509 06a3 10       		.uleb128 0x10
 5510 06a4 16000000 		.4byte	.LVL102
 5511 06a8 68230000 		.4byte	0x2368
 5512 06ac B6060000 		.4byte	0x6b6
 5513 06b0 11       		.uleb128 0x11
 5514 06b1 01       		.uleb128 0x1
 5515 06b2 50       		.byte	0x50
 5516 06b3 01       		.uleb128 0x1
ARM GAS  C:\Users\USUARIO\AppData\Local\Temp\ccywmqVe.s 			page 114


 5517 06b4 30       		.byte	0x30
 5518 06b5 00       		.byte	0
 5519 06b6 10       		.uleb128 0x10
 5520 06b7 1C000000 		.4byte	.LVL103
 5521 06bb 5D230000 		.4byte	0x235d
 5522 06bf C9060000 		.4byte	0x6c9
 5523 06c3 11       		.uleb128 0x11
 5524 06c4 01       		.uleb128 0x1
 5525 06c5 50       		.byte	0x50
 5526 06c6 01       		.uleb128 0x1
 5527 06c7 30       		.byte	0x30
 5528 06c8 00       		.byte	0
 5529 06c9 10       		.uleb128 0x10
 5530 06ca 22000000 		.4byte	.LVL104
 5531 06ce 94230000 		.4byte	0x2394
 5532 06d2 DC060000 		.4byte	0x6dc
 5533 06d6 11       		.uleb128 0x11
 5534 06d7 01       		.uleb128 0x1
 5535 06d8 50       		.byte	0x50
 5536 06d9 01       		.uleb128 0x1
 5537 06da 30       		.byte	0x30
 5538 06db 00       		.byte	0
 5539 06dc 10       		.uleb128 0x10
 5540 06dd 2A000000 		.4byte	.LVL105
 5541 06e1 16030000 		.4byte	0x316
 5542 06e5 F5060000 		.4byte	0x6f5
 5543 06e9 11       		.uleb128 0x11
 5544 06ea 01       		.uleb128 0x1
 5545 06eb 50       		.byte	0x50
 5546 06ec 01       		.uleb128 0x1
 5547 06ed 30       		.byte	0x30
 5548 06ee 11       		.uleb128 0x11
 5549 06ef 01       		.uleb128 0x1
 5550 06f0 51       		.byte	0x51
 5551 06f1 02       		.uleb128 0x2
 5552 06f2 09       		.byte	0x9
 5553 06f3 C0       		.byte	0xc0
 5554 06f4 00       		.byte	0
 5555 06f5 10       		.uleb128 0x10
 5556 06f6 32000000 		.4byte	.LVL106
 5557 06fa 16030000 		.4byte	0x316
 5558 06fe 0E070000 		.4byte	0x70e
 5559 0702 11       		.uleb128 0x11
 5560 0703 01       		.uleb128 0x1
 5561 0704 50       		.byte	0x50
 5562 0705 01       		.uleb128 0x1
 5563 0706 31       		.byte	0x31
 5564 0707 11       		.uleb128 0x11
 5565 0708 01       		.uleb128 0x1
 5566 0709 51       		.byte	0x51
 5567 070a 02       		.uleb128 0x2
 5568 070b 09       		.byte	0x9
 5569 070c C0       		.byte	0xc0
 5570 070d 00       		.byte	0
 5571 070e 10       		.uleb128 0x10
 5572 070f 3A000000 		.4byte	.LVL107
 5573 0713 16030000 		.4byte	0x316
ARM GAS  C:\Users\USUARIO\AppData\Local\Temp\ccywmqVe.s 			page 115


 5574 0717 27070000 		.4byte	0x727
 5575 071b 11       		.uleb128 0x11
 5576 071c 01       		.uleb128 0x1
 5577 071d 50       		.byte	0x50
 5578 071e 01       		.uleb128 0x1
 5579 071f 30       		.byte	0x30
 5580 0720 11       		.uleb128 0x11
 5581 0721 01       		.uleb128 0x1
 5582 0722 51       		.byte	0x51
 5583 0723 02       		.uleb128 0x2
 5584 0724 08       		.byte	0x8
 5585 0725 40       		.byte	0x40
 5586 0726 00       		.byte	0
 5587 0727 10       		.uleb128 0x10
 5588 0728 42000000 		.4byte	.LVL108
 5589 072c 16030000 		.4byte	0x316
 5590 0730 40070000 		.4byte	0x740
 5591 0734 11       		.uleb128 0x11
 5592 0735 01       		.uleb128 0x1
 5593 0736 50       		.byte	0x50
 5594 0737 01       		.uleb128 0x1
 5595 0738 31       		.byte	0x31
 5596 0739 11       		.uleb128 0x11
 5597 073a 01       		.uleb128 0x1
 5598 073b 51       		.byte	0x51
 5599 073c 02       		.uleb128 0x2
 5600 073d 08       		.byte	0x8
 5601 073e 40       		.byte	0x40
 5602 073f 00       		.byte	0
 5603 0740 10       		.uleb128 0x10
 5604 0741 4A000000 		.4byte	.LVL109
 5605 0745 16030000 		.4byte	0x316
 5606 0749 59070000 		.4byte	0x759
 5607 074d 11       		.uleb128 0x11
 5608 074e 01       		.uleb128 0x1
 5609 074f 50       		.byte	0x50
 5610 0750 01       		.uleb128 0x1
 5611 0751 30       		.byte	0x30
 5612 0752 11       		.uleb128 0x11
 5613 0753 01       		.uleb128 0x1
 5614 0754 51       		.byte	0x51
 5615 0755 02       		.uleb128 0x2
 5616 0756 09       		.byte	0x9
 5617 0757 B8       		.byte	0xb8
 5618 0758 00       		.byte	0
 5619 0759 10       		.uleb128 0x10
 5620 075a 52000000 		.4byte	.LVL110
 5621 075e 16030000 		.4byte	0x316
 5622 0762 72070000 		.4byte	0x772
 5623 0766 11       		.uleb128 0x11
 5624 0767 01       		.uleb128 0x1
 5625 0768 50       		.byte	0x50
 5626 0769 01       		.uleb128 0x1
 5627 076a 31       		.byte	0x31
 5628 076b 11       		.uleb128 0x11
 5629 076c 01       		.uleb128 0x1
 5630 076d 51       		.byte	0x51
ARM GAS  C:\Users\USUARIO\AppData\Local\Temp\ccywmqVe.s 			page 116


 5631 076e 02       		.uleb128 0x2
 5632 076f 09       		.byte	0x9
 5633 0770 B8       		.byte	0xb8
 5634 0771 00       		.byte	0
 5635 0772 10       		.uleb128 0x10
 5636 0773 5E000000 		.4byte	.LVL111
 5637 0777 16030000 		.4byte	0x316
 5638 077b 8B070000 		.4byte	0x78b
 5639 077f 11       		.uleb128 0x11
 5640 0780 01       		.uleb128 0x1
 5641 0781 50       		.byte	0x50
 5642 0782 01       		.uleb128 0x1
 5643 0783 30       		.byte	0x30
 5644 0784 11       		.uleb128 0x11
 5645 0785 01       		.uleb128 0x1
 5646 0786 51       		.byte	0x51
 5647 0787 02       		.uleb128 0x2
 5648 0788 08       		.byte	0x8
 5649 0789 3F       		.byte	0x3f
 5650 078a 00       		.byte	0
 5651 078b 10       		.uleb128 0x10
 5652 078c 66000000 		.4byte	.LVL112
 5653 0790 16030000 		.4byte	0x316
 5654 0794 A4070000 		.4byte	0x7a4
 5655 0798 11       		.uleb128 0x11
 5656 0799 01       		.uleb128 0x1
 5657 079a 50       		.byte	0x50
 5658 079b 01       		.uleb128 0x1
 5659 079c 31       		.byte	0x31
 5660 079d 11       		.uleb128 0x11
 5661 079e 01       		.uleb128 0x1
 5662 079f 51       		.byte	0x51
 5663 07a0 02       		.uleb128 0x2
 5664 07a1 08       		.byte	0x8
 5665 07a2 3F       		.byte	0x3f
 5666 07a3 00       		.byte	0
 5667 07a4 10       		.uleb128 0x10
 5668 07a5 70000000 		.4byte	.LVL113
 5669 07a9 16030000 		.4byte	0x316
 5670 07ad BD070000 		.4byte	0x7bd
 5671 07b1 11       		.uleb128 0x11
 5672 07b2 01       		.uleb128 0x1
 5673 07b3 50       		.byte	0x50
 5674 07b4 01       		.uleb128 0x1
 5675 07b5 30       		.byte	0x30
 5676 07b6 11       		.uleb128 0x11
 5677 07b7 01       		.uleb128 0x1
 5678 07b8 51       		.byte	0x51
 5679 07b9 02       		.uleb128 0x2
 5680 07ba 08       		.byte	0x8
 5681 07bb 3E       		.byte	0x3e
 5682 07bc 00       		.byte	0
 5683 07bd 10       		.uleb128 0x10
 5684 07be 78000000 		.4byte	.LVL114
 5685 07c2 16030000 		.4byte	0x316
 5686 07c6 D6070000 		.4byte	0x7d6
 5687 07ca 11       		.uleb128 0x11
ARM GAS  C:\Users\USUARIO\AppData\Local\Temp\ccywmqVe.s 			page 117


 5688 07cb 01       		.uleb128 0x1
 5689 07cc 50       		.byte	0x50
 5690 07cd 01       		.uleb128 0x1
 5691 07ce 31       		.byte	0x31
 5692 07cf 11       		.uleb128 0x11
 5693 07d0 01       		.uleb128 0x1
 5694 07d1 51       		.byte	0x51
 5695 07d2 02       		.uleb128 0x2
 5696 07d3 08       		.byte	0x8
 5697 07d4 3E       		.byte	0x3e
 5698 07d5 00       		.byte	0
 5699 07d6 10       		.uleb128 0x10
 5700 07d7 7E000000 		.4byte	.LVL115
 5701 07db F6050000 		.4byte	0x5f6
 5702 07df E9070000 		.4byte	0x7e9
 5703 07e3 11       		.uleb128 0x11
 5704 07e4 01       		.uleb128 0x1
 5705 07e5 50       		.byte	0x50
 5706 07e6 01       		.uleb128 0x1
 5707 07e7 30       		.byte	0x30
 5708 07e8 00       		.byte	0
 5709 07e9 15       		.uleb128 0x15
 5710 07ea 82000000 		.4byte	.LVL116
 5711 07ee 08040000 		.4byte	0x408
 5712 07f2 00       		.byte	0
 5713 07f3 1B       		.uleb128 0x1b
 5714 07f4 E3030000 		.4byte	.LASF36
 5715 07f8 01       		.byte	0x1
 5716 07f9 6901     		.2byte	0x169
 5717 07fb 00000000 		.4byte	.LFB71
 5718 07ff 48000000 		.4byte	.LFE71-.LFB71
 5719 0803 01       		.uleb128 0x1
 5720 0804 9C       		.byte	0x9c
 5721 0805 54080000 		.4byte	0x854
 5722 0809 1C       		.uleb128 0x1c
 5723 080a 7800     		.ascii	"x\000"
 5724 080c 01       		.byte	0x1
 5725 080d 6901     		.2byte	0x169
 5726 080f 9E000000 		.4byte	0x9e
 5727 0813 B4020000 		.4byte	.LLST14
 5728 0817 1C       		.uleb128 0x1c
 5729 0818 7900     		.ascii	"y\000"
 5730 081a 01       		.byte	0x1
 5731 081b 6901     		.2byte	0x169
 5732 081d 9E000000 		.4byte	0x9e
 5733 0821 EE020000 		.4byte	.LLST15
 5734 0825 19       		.uleb128 0x19
 5735 0826 A4030000 		.4byte	.LASF33
 5736 082a 01       		.byte	0x1
 5737 082b 6901     		.2byte	0x169
 5738 082d 45000000 		.4byte	0x45
 5739 0831 28030000 		.4byte	.LLST16
 5740 0835 17       		.uleb128 0x17
 5741 0836 7000     		.ascii	"p\000"
 5742 0838 01       		.byte	0x1
 5743 0839 6C01     		.2byte	0x16c
 5744 083b 04050000 		.4byte	0x504
ARM GAS  C:\Users\USUARIO\AppData\Local\Temp\ccywmqVe.s 			page 118


 5745 083f 62030000 		.4byte	.LLST17
 5746 0843 1D       		.uleb128 0x1d
 5747 0844 96030000 		.4byte	.LASF37
 5748 0848 01       		.byte	0x1
 5749 0849 6D01     		.2byte	0x16d
 5750 084b AA000000 		.4byte	0xaa
 5751 084f 80030000 		.4byte	.LLST18
 5752 0853 00       		.byte	0
 5753 0854 1B       		.uleb128 0x1b
 5754 0855 87030000 		.4byte	.LASF38
 5755 0859 01       		.byte	0x1
 5756 085a 8601     		.2byte	0x186
 5757 085c 00000000 		.4byte	.LFB72
 5758 0860 EC000000 		.4byte	.LFE72-.LFB72
 5759 0864 01       		.uleb128 0x1
 5760 0865 9C       		.byte	0x9c
 5761 0866 60090000 		.4byte	0x960
 5762 086a 1C       		.uleb128 0x1c
 5763 086b 783100   		.ascii	"x1\000"
 5764 086e 01       		.byte	0x1
 5765 086f 8601     		.2byte	0x186
 5766 0871 9E000000 		.4byte	0x9e
 5767 0875 BB030000 		.4byte	.LLST19
 5768 0879 1C       		.uleb128 0x1c
 5769 087a 793100   		.ascii	"y1\000"
 5770 087d 01       		.byte	0x1
 5771 087e 8601     		.2byte	0x186
 5772 0880 9E000000 		.4byte	0x9e
 5773 0884 10040000 		.4byte	.LLST20
 5774 0888 1C       		.uleb128 0x1c
 5775 0889 783200   		.ascii	"x2\000"
 5776 088c 01       		.byte	0x1
 5777 088d 8601     		.2byte	0x186
 5778 088f 9E000000 		.4byte	0x9e
 5779 0893 76040000 		.4byte	.LLST21
 5780 0897 1C       		.uleb128 0x1c
 5781 0898 793200   		.ascii	"y2\000"
 5782 089b 01       		.byte	0x1
 5783 089c 8601     		.2byte	0x186
 5784 089e 9E000000 		.4byte	0x9e
 5785 08a2 B0040000 		.4byte	.LLST22
 5786 08a6 1E       		.uleb128 0x1e
 5787 08a7 A4030000 		.4byte	.LASF33
 5788 08ab 01       		.byte	0x1
 5789 08ac 8601     		.2byte	0x186
 5790 08ae 45000000 		.4byte	0x45
 5791 08b2 02       		.uleb128 0x2
 5792 08b3 91       		.byte	0x91
 5793 08b4 00       		.sleb128 0
 5794 08b5 17       		.uleb128 0x17
 5795 08b6 647900   		.ascii	"dy\000"
 5796 08b9 01       		.byte	0x1
 5797 08ba 8801     		.2byte	0x188
 5798 08bc AA000000 		.4byte	0xaa
 5799 08c0 EA040000 		.4byte	.LLST23
 5800 08c4 17       		.uleb128 0x17
 5801 08c5 647800   		.ascii	"dx\000"
ARM GAS  C:\Users\USUARIO\AppData\Local\Temp\ccywmqVe.s 			page 119


 5802 08c8 01       		.byte	0x1
 5803 08c9 8801     		.2byte	0x188
 5804 08cb AA000000 		.4byte	0xaa
 5805 08cf 2F050000 		.4byte	.LLST24
 5806 08d3 1D       		.uleb128 0x1d
 5807 08d4 82040000 		.4byte	.LASF39
 5808 08d8 01       		.byte	0x1
 5809 08d9 8901     		.2byte	0x189
 5810 08db 9E000000 		.4byte	0x9e
 5811 08df 69050000 		.4byte	.LLST25
 5812 08e3 1D       		.uleb128 0x1d
 5813 08e4 87040000 		.4byte	.LASF40
 5814 08e8 01       		.byte	0x1
 5815 08e9 8901     		.2byte	0x189
 5816 08eb 9E000000 		.4byte	0x9e
 5817 08ef 88050000 		.4byte	.LLST26
 5818 08f3 17       		.uleb128 0x17
 5819 08f4 5000     		.ascii	"P\000"
 5820 08f6 01       		.byte	0x1
 5821 08f7 8A01     		.2byte	0x18a
 5822 08f9 C2000000 		.4byte	0xc2
 5823 08fd A7050000 		.4byte	.LLST27
 5824 0901 1D       		.uleb128 0x1d
 5825 0902 91030000 		.4byte	.LASF41
 5826 0906 01       		.byte	0x1
 5827 0907 8A01     		.2byte	0x18a
 5828 0909 C2000000 		.4byte	0xc2
 5829 090d F1050000 		.4byte	.LLST28
 5830 0911 17       		.uleb128 0x17
 5831 0912 6900     		.ascii	"i\000"
 5832 0914 01       		.byte	0x1
 5833 0915 8C01     		.2byte	0x18c
 5834 0917 9E000000 		.4byte	0x9e
 5835 091b 0F060000 		.4byte	.LLST29
 5836 091f 10       		.uleb128 0x10
 5837 0920 6C000000 		.4byte	.LVL144
 5838 0924 F3070000 		.4byte	0x7f3
 5839 0928 41090000 		.4byte	0x941
 5840 092c 11       		.uleb128 0x11
 5841 092d 01       		.uleb128 0x1
 5842 092e 50       		.byte	0x50
 5843 092f 02       		.uleb128 0x2
 5844 0930 74       		.byte	0x74
 5845 0931 00       		.sleb128 0
 5846 0932 11       		.uleb128 0x11
 5847 0933 01       		.uleb128 0x1
 5848 0934 51       		.byte	0x51
 5849 0935 02       		.uleb128 0x2
 5850 0936 75       		.byte	0x75
 5851 0937 00       		.sleb128 0
 5852 0938 11       		.uleb128 0x11
 5853 0939 01       		.uleb128 0x1
 5854 093a 52       		.byte	0x52
 5855 093b 04       		.uleb128 0x4
 5856 093c 7D       		.byte	0x7d
 5857 093d 00       		.sleb128 0
 5858 093e 94       		.byte	0x94
ARM GAS  C:\Users\USUARIO\AppData\Local\Temp\ccywmqVe.s 			page 120


 5859 093f 02       		.byte	0x2
 5860 0940 00       		.byte	0
 5861 0941 12       		.uleb128 0x12
 5862 0942 C0000000 		.4byte	.LVL164
 5863 0946 F3070000 		.4byte	0x7f3
 5864 094a 11       		.uleb128 0x11
 5865 094b 01       		.uleb128 0x1
 5866 094c 50       		.byte	0x50
 5867 094d 02       		.uleb128 0x2
 5868 094e 74       		.byte	0x74
 5869 094f 00       		.sleb128 0
 5870 0950 11       		.uleb128 0x11
 5871 0951 01       		.uleb128 0x1
 5872 0952 51       		.byte	0x51
 5873 0953 02       		.uleb128 0x2
 5874 0954 75       		.byte	0x75
 5875 0955 00       		.sleb128 0
 5876 0956 11       		.uleb128 0x11
 5877 0957 01       		.uleb128 0x1
 5878 0958 52       		.byte	0x52
 5879 0959 04       		.uleb128 0x4
 5880 095a 7D       		.byte	0x7d
 5881 095b 00       		.sleb128 0
 5882 095c 94       		.byte	0x94
 5883 095d 02       		.byte	0x2
 5884 095e 00       		.byte	0
 5885 095f 00       		.byte	0
 5886 0960 1B       		.uleb128 0x1b
 5887 0961 78040000 		.4byte	.LASF42
 5888 0965 01       		.byte	0x1
 5889 0966 C501     		.2byte	0x1c5
 5890 0968 00000000 		.4byte	.LFB73
 5891 096c 84000000 		.4byte	.LFE73-.LFB73
 5892 0970 01       		.uleb128 0x1
 5893 0971 9C       		.byte	0x9c
 5894 0972 ED0A0000 		.4byte	0xaed
 5895 0976 1C       		.uleb128 0x1c
 5896 0977 783100   		.ascii	"x1\000"
 5897 097a 01       		.byte	0x1
 5898 097b C501     		.2byte	0x1c5
 5899 097d 9E000000 		.4byte	0x9e
 5900 0981 5B060000 		.4byte	.LLST30
 5901 0985 1C       		.uleb128 0x1c
 5902 0986 793100   		.ascii	"y1\000"
 5903 0989 01       		.byte	0x1
 5904 098a C501     		.2byte	0x1c5
 5905 098c 9E000000 		.4byte	0x9e
 5906 0990 95060000 		.4byte	.LLST31
 5907 0994 1C       		.uleb128 0x1c
 5908 0995 783200   		.ascii	"x2\000"
 5909 0998 01       		.byte	0x1
 5910 0999 C501     		.2byte	0x1c5
 5911 099b 9E000000 		.4byte	0x9e
 5912 099f CF060000 		.4byte	.LLST32
 5913 09a3 1C       		.uleb128 0x1c
 5914 09a4 793200   		.ascii	"y2\000"
 5915 09a7 01       		.byte	0x1
ARM GAS  C:\Users\USUARIO\AppData\Local\Temp\ccywmqVe.s 			page 121


 5916 09a8 C501     		.2byte	0x1c5
 5917 09aa 9E000000 		.4byte	0x9e
 5918 09ae 09070000 		.4byte	.LLST33
 5919 09b2 1E       		.uleb128 0x1e
 5920 09b3 3A010000 		.4byte	.LASF43
 5921 09b7 01       		.byte	0x1
 5922 09b8 C501     		.2byte	0x1c5
 5923 09ba 45000000 		.4byte	0x45
 5924 09be 02       		.uleb128 0x2
 5925 09bf 91       		.byte	0x91
 5926 09c0 00       		.sleb128 0
 5927 09c1 1E       		.uleb128 0x1e
 5928 09c2 A4030000 		.4byte	.LASF33
 5929 09c6 01       		.byte	0x1
 5930 09c7 C501     		.2byte	0x1c5
 5931 09c9 45000000 		.4byte	0x45
 5932 09cd 02       		.uleb128 0x2
 5933 09ce 91       		.byte	0x91
 5934 09cf 04       		.sleb128 4
 5935 09d0 1F       		.uleb128 0x1f
 5936 09d1 18000000 		.4byte	.LBB2
 5937 09d5 34000000 		.4byte	.LBE2-.LBB2
 5938 09d9 480A0000 		.4byte	0xa48
 5939 09dd 17       		.uleb128 0x17
 5940 09de 6900     		.ascii	"i\000"
 5941 09e0 01       		.byte	0x1
 5942 09e1 C901     		.2byte	0x1c9
 5943 09e3 9E000000 		.4byte	0x9e
 5944 09e7 2A070000 		.4byte	.LLST34
 5945 09eb 1D       		.uleb128 0x1d
 5946 09ec B5040000 		.4byte	.LASF44
 5947 09f0 01       		.byte	0x1
 5948 09f1 C901     		.2byte	0x1c9
 5949 09f3 9E000000 		.4byte	0x9e
 5950 09f7 53070000 		.4byte	.LLST35
 5951 09fb 1D       		.uleb128 0x1d
 5952 09fc 18020000 		.4byte	.LASF45
 5953 0a00 01       		.byte	0x1
 5954 0a01 C901     		.2byte	0x1c9
 5955 0a03 9E000000 		.4byte	0x9e
 5956 0a07 71070000 		.4byte	.LLST36
 5957 0a0b 1D       		.uleb128 0x1d
 5958 0a0c A5020000 		.4byte	.LASF46
 5959 0a10 01       		.byte	0x1
 5960 0a11 C901     		.2byte	0x1c9
 5961 0a13 9E000000 		.4byte	0x9e
 5962 0a17 84070000 		.4byte	.LLST37
 5963 0a1b 1D       		.uleb128 0x1d
 5964 0a1c DC040000 		.4byte	.LASF47
 5965 0a20 01       		.byte	0x1
 5966 0a21 C901     		.2byte	0x1c9
 5967 0a23 9E000000 		.4byte	0x9e
 5968 0a27 97070000 		.4byte	.LLST38
 5969 0a2b 12       		.uleb128 0x12
 5970 0a2c 36000000 		.4byte	.LVL182
 5971 0a30 F3070000 		.4byte	0x7f3
 5972 0a34 11       		.uleb128 0x11
ARM GAS  C:\Users\USUARIO\AppData\Local\Temp\ccywmqVe.s 			page 122


 5973 0a35 01       		.uleb128 0x1
 5974 0a36 50       		.byte	0x50
 5975 0a37 02       		.uleb128 0x2
 5976 0a38 75       		.byte	0x75
 5977 0a39 00       		.sleb128 0
 5978 0a3a 11       		.uleb128 0x11
 5979 0a3b 01       		.uleb128 0x1
 5980 0a3c 51       		.byte	0x51
 5981 0a3d 02       		.uleb128 0x2
 5982 0a3e 74       		.byte	0x74
 5983 0a3f 00       		.sleb128 0
 5984 0a40 11       		.uleb128 0x11
 5985 0a41 01       		.uleb128 0x1
 5986 0a42 52       		.byte	0x52
 5987 0a43 02       		.uleb128 0x2
 5988 0a44 77       		.byte	0x77
 5989 0a45 00       		.sleb128 0
 5990 0a46 00       		.byte	0
 5991 0a47 00       		.byte	0
 5992 0a48 10       		.uleb128 0x10
 5993 0a49 54000000 		.4byte	.LVL190
 5994 0a4d 54080000 		.4byte	0x854
 5995 0a51 690A0000 		.4byte	0xa69
 5996 0a55 11       		.uleb128 0x11
 5997 0a56 01       		.uleb128 0x1
 5998 0a57 51       		.byte	0x51
 5999 0a58 02       		.uleb128 0x2
 6000 0a59 76       		.byte	0x76
 6001 0a5a 00       		.sleb128 0
 6002 0a5b 11       		.uleb128 0x11
 6003 0a5c 01       		.uleb128 0x1
 6004 0a5d 53       		.byte	0x53
 6005 0a5e 02       		.uleb128 0x2
 6006 0a5f 76       		.byte	0x76
 6007 0a60 00       		.sleb128 0
 6008 0a61 11       		.uleb128 0x11
 6009 0a62 02       		.uleb128 0x2
 6010 0a63 7D       		.byte	0x7d
 6011 0a64 00       		.sleb128 0
 6012 0a65 02       		.uleb128 0x2
 6013 0a66 77       		.byte	0x77
 6014 0a67 00       		.sleb128 0
 6015 0a68 00       		.byte	0
 6016 0a69 10       		.uleb128 0x10
 6017 0a6a 62000000 		.4byte	.LVL191
 6018 0a6e 54080000 		.4byte	0x854
 6019 0a72 960A0000 		.4byte	0xa96
 6020 0a76 11       		.uleb128 0x11
 6021 0a77 01       		.uleb128 0x1
 6022 0a78 50       		.byte	0x50
 6023 0a79 02       		.uleb128 0x2
 6024 0a7a 75       		.byte	0x75
 6025 0a7b 00       		.sleb128 0
 6026 0a7c 11       		.uleb128 0x11
 6027 0a7d 01       		.uleb128 0x1
 6028 0a7e 51       		.byte	0x51
 6029 0a7f 02       		.uleb128 0x2
ARM GAS  C:\Users\USUARIO\AppData\Local\Temp\ccywmqVe.s 			page 123


 6030 0a80 79       		.byte	0x79
 6031 0a81 00       		.sleb128 0
 6032 0a82 11       		.uleb128 0x11
 6033 0a83 01       		.uleb128 0x1
 6034 0a84 52       		.byte	0x52
 6035 0a85 02       		.uleb128 0x2
 6036 0a86 78       		.byte	0x78
 6037 0a87 00       		.sleb128 0
 6038 0a88 11       		.uleb128 0x11
 6039 0a89 01       		.uleb128 0x1
 6040 0a8a 53       		.byte	0x53
 6041 0a8b 02       		.uleb128 0x2
 6042 0a8c 79       		.byte	0x79
 6043 0a8d 00       		.sleb128 0
 6044 0a8e 11       		.uleb128 0x11
 6045 0a8f 02       		.uleb128 0x2
 6046 0a90 7D       		.byte	0x7d
 6047 0a91 00       		.sleb128 0
 6048 0a92 02       		.uleb128 0x2
 6049 0a93 77       		.byte	0x77
 6050 0a94 00       		.sleb128 0
 6051 0a95 00       		.byte	0
 6052 0a96 10       		.uleb128 0x10
 6053 0a97 70000000 		.4byte	.LVL192
 6054 0a9b 54080000 		.4byte	0x854
 6055 0a9f C30A0000 		.4byte	0xac3
 6056 0aa3 11       		.uleb128 0x11
 6057 0aa4 01       		.uleb128 0x1
 6058 0aa5 50       		.byte	0x50
 6059 0aa6 02       		.uleb128 0x2
 6060 0aa7 75       		.byte	0x75
 6061 0aa8 00       		.sleb128 0
 6062 0aa9 11       		.uleb128 0x11
 6063 0aaa 01       		.uleb128 0x1
 6064 0aab 51       		.byte	0x51
 6065 0aac 02       		.uleb128 0x2
 6066 0aad 76       		.byte	0x76
 6067 0aae 00       		.sleb128 0
 6068 0aaf 11       		.uleb128 0x11
 6069 0ab0 01       		.uleb128 0x1
 6070 0ab1 52       		.byte	0x52
 6071 0ab2 02       		.uleb128 0x2
 6072 0ab3 75       		.byte	0x75
 6073 0ab4 00       		.sleb128 0
 6074 0ab5 11       		.uleb128 0x11
 6075 0ab6 01       		.uleb128 0x1
 6076 0ab7 53       		.byte	0x53
 6077 0ab8 02       		.uleb128 0x2
 6078 0ab9 79       		.byte	0x79
 6079 0aba 00       		.sleb128 0
 6080 0abb 11       		.uleb128 0x11
 6081 0abc 02       		.uleb128 0x2
 6082 0abd 7D       		.byte	0x7d
 6083 0abe 00       		.sleb128 0
 6084 0abf 02       		.uleb128 0x2
 6085 0ac0 77       		.byte	0x77
 6086 0ac1 00       		.sleb128 0
ARM GAS  C:\Users\USUARIO\AppData\Local\Temp\ccywmqVe.s 			page 124


 6087 0ac2 00       		.byte	0
 6088 0ac3 12       		.uleb128 0x12
 6089 0ac4 7E000000 		.4byte	.LVL193
 6090 0ac8 54080000 		.4byte	0x854
 6091 0acc 11       		.uleb128 0x11
 6092 0acd 01       		.uleb128 0x1
 6093 0ace 50       		.byte	0x50
 6094 0acf 02       		.uleb128 0x2
 6095 0ad0 78       		.byte	0x78
 6096 0ad1 00       		.sleb128 0
 6097 0ad2 11       		.uleb128 0x11
 6098 0ad3 01       		.uleb128 0x1
 6099 0ad4 51       		.byte	0x51
 6100 0ad5 02       		.uleb128 0x2
 6101 0ad6 76       		.byte	0x76
 6102 0ad7 00       		.sleb128 0
 6103 0ad8 11       		.uleb128 0x11
 6104 0ad9 01       		.uleb128 0x1
 6105 0ada 52       		.byte	0x52
 6106 0adb 02       		.uleb128 0x2
 6107 0adc 78       		.byte	0x78
 6108 0add 00       		.sleb128 0
 6109 0ade 11       		.uleb128 0x11
 6110 0adf 01       		.uleb128 0x1
 6111 0ae0 53       		.byte	0x53
 6112 0ae1 02       		.uleb128 0x2
 6113 0ae2 79       		.byte	0x79
 6114 0ae3 00       		.sleb128 0
 6115 0ae4 11       		.uleb128 0x11
 6116 0ae5 02       		.uleb128 0x2
 6117 0ae6 7D       		.byte	0x7d
 6118 0ae7 00       		.sleb128 0
 6119 0ae8 02       		.uleb128 0x2
 6120 0ae9 77       		.byte	0x77
 6121 0aea 00       		.sleb128 0
 6122 0aeb 00       		.byte	0
 6123 0aec 00       		.byte	0
 6124 0aed 1B       		.uleb128 0x1b
 6125 0aee 51010000 		.4byte	.LASF48
 6126 0af2 01       		.byte	0x1
 6127 0af3 F201     		.2byte	0x1f2
 6128 0af5 00000000 		.4byte	.LFB74
 6129 0af9 5A010000 		.4byte	.LFE74-.LFB74
 6130 0afd 01       		.uleb128 0x1
 6131 0afe 9C       		.byte	0x9c
 6132 0aff A70C0000 		.4byte	0xca7
 6133 0b03 1C       		.uleb128 0x1c
 6134 0b04 783100   		.ascii	"x1\000"
 6135 0b07 01       		.byte	0x1
 6136 0b08 F201     		.2byte	0x1f2
 6137 0b0a 9E000000 		.4byte	0x9e
 6138 0b0e AA070000 		.4byte	.LLST39
 6139 0b12 1C       		.uleb128 0x1c
 6140 0b13 793100   		.ascii	"y1\000"
 6141 0b16 01       		.byte	0x1
 6142 0b17 F201     		.2byte	0x1f2
 6143 0b19 9E000000 		.4byte	0x9e
ARM GAS  C:\Users\USUARIO\AppData\Local\Temp\ccywmqVe.s 			page 125


 6144 0b1d 05080000 		.4byte	.LLST40
 6145 0b21 1C       		.uleb128 0x1c
 6146 0b22 783200   		.ascii	"x2\000"
 6147 0b25 01       		.byte	0x1
 6148 0b26 F201     		.2byte	0x1f2
 6149 0b28 9E000000 		.4byte	0x9e
 6150 0b2c 60080000 		.4byte	.LLST41
 6151 0b30 1C       		.uleb128 0x1c
 6152 0b31 793200   		.ascii	"y2\000"
 6153 0b34 01       		.byte	0x1
 6154 0b35 F201     		.2byte	0x1f2
 6155 0b37 9E000000 		.4byte	0x9e
 6156 0b3b 81080000 		.4byte	.LLST42
 6157 0b3f 1E       		.uleb128 0x1e
 6158 0b40 F8010000 		.4byte	.LASF49
 6159 0b44 01       		.byte	0x1
 6160 0b45 F201     		.2byte	0x1f2
 6161 0b47 9E000000 		.4byte	0x9e
 6162 0b4b 02       		.uleb128 0x2
 6163 0b4c 91       		.byte	0x91
 6164 0b4d 00       		.sleb128 0
 6165 0b4e 1E       		.uleb128 0x1e
 6166 0b4f A4030000 		.4byte	.LASF33
 6167 0b53 01       		.byte	0x1
 6168 0b54 F201     		.2byte	0x1f2
 6169 0b56 45000000 		.4byte	0x45
 6170 0b5a 02       		.uleb128 0x2
 6171 0b5b 91       		.byte	0x91
 6172 0b5c 04       		.sleb128 4
 6173 0b5d 1A       		.uleb128 0x1a
 6174 0b5e 63040000 		.4byte	.LASF50
 6175 0b62 01       		.byte	0x1
 6176 0b63 F401     		.2byte	0x1f4
 6177 0b65 9E000000 		.4byte	0x9e
 6178 0b69 01       		.uleb128 0x1
 6179 0b6a 55       		.byte	0x55
 6180 0b6b 17       		.uleb128 0x17
 6181 0b6c 647900   		.ascii	"dy\000"
 6182 0b6f 01       		.byte	0x1
 6183 0b70 F501     		.2byte	0x1f5
 6184 0b72 AA000000 		.4byte	0xaa
 6185 0b76 A2080000 		.4byte	.LLST43
 6186 0b7a 20       		.uleb128 0x20
 6187 0b7b 647800   		.ascii	"dx\000"
 6188 0b7e 01       		.byte	0x1
 6189 0b7f F501     		.2byte	0x1f5
 6190 0b81 AA000000 		.4byte	0xaa
 6191 0b85 02       		.uleb128 0x2
 6192 0b86 91       		.byte	0x91
 6193 0b87 50       		.sleb128 -48
 6194 0b88 1D       		.uleb128 0x1d
 6195 0b89 82040000 		.4byte	.LASF39
 6196 0b8d 01       		.byte	0x1
 6197 0b8e F601     		.2byte	0x1f6
 6198 0b90 9E000000 		.4byte	0x9e
 6199 0b94 D8080000 		.4byte	.LLST44
 6200 0b98 1D       		.uleb128 0x1d
ARM GAS  C:\Users\USUARIO\AppData\Local\Temp\ccywmqVe.s 			page 126


 6201 0b99 87040000 		.4byte	.LASF40
 6202 0b9d 01       		.byte	0x1
 6203 0b9e F601     		.2byte	0x1f6
 6204 0ba0 9E000000 		.4byte	0x9e
 6205 0ba4 F8080000 		.4byte	.LLST45
 6206 0ba8 17       		.uleb128 0x17
 6207 0ba9 6A00     		.ascii	"j\000"
 6208 0bab 01       		.byte	0x1
 6209 0bac F601     		.2byte	0x1f6
 6210 0bae 9E000000 		.4byte	0x9e
 6211 0bb2 18090000 		.4byte	.LLST46
 6212 0bb6 21       		.uleb128 0x21
 6213 0bb7 5000     		.ascii	"P\000"
 6214 0bb9 01       		.byte	0x1
 6215 0bba F701     		.2byte	0x1f7
 6216 0bbc AA000000 		.4byte	0xaa
 6217 0bc0 22       		.uleb128 0x22
 6218 0bc1 91030000 		.4byte	.LASF41
 6219 0bc5 01       		.byte	0x1
 6220 0bc6 F701     		.2byte	0x1f7
 6221 0bc8 AA000000 		.4byte	0xaa
 6222 0bcc 17       		.uleb128 0x17
 6223 0bcd 633100   		.ascii	"c1\000"
 6224 0bd0 01       		.byte	0x1
 6225 0bd1 F701     		.2byte	0x1f7
 6226 0bd3 AA000000 		.4byte	0xaa
 6227 0bd7 4C090000 		.4byte	.LLST47
 6228 0bdb 17       		.uleb128 0x17
 6229 0bdc 633200   		.ascii	"c2\000"
 6230 0bdf 01       		.byte	0x1
 6231 0be0 F701     		.2byte	0x1f7
 6232 0be2 AA000000 		.4byte	0xaa
 6233 0be6 8E090000 		.4byte	.LLST48
 6234 0bea 17       		.uleb128 0x17
 6235 0beb 6900     		.ascii	"i\000"
 6236 0bed 01       		.byte	0x1
 6237 0bee F901     		.2byte	0x1f9
 6238 0bf0 9E000000 		.4byte	0x9e
 6239 0bf4 F2090000 		.4byte	.LLST49
 6240 0bf8 1F       		.uleb128 0x1f
 6241 0bf9 62000000 		.4byte	.LBB3
 6242 0bfd 04000000 		.4byte	.LBE3-.LBB3
 6243 0c01 120C0000 		.4byte	0xc12
 6244 0c05 22       		.uleb128 0x22
 6245 0c06 96030000 		.4byte	.LASF37
 6246 0c0a 01       		.byte	0x1
 6247 0c0b 0402     		.2byte	0x204
 6248 0c0d AA000000 		.4byte	0xaa
 6249 0c11 00       		.byte	0
 6250 0c12 1F       		.uleb128 0x1f
 6251 0c13 72000000 		.4byte	.LBB4
 6252 0c17 04000000 		.4byte	.LBE4-.LBB4
 6253 0c1b 2C0C0000 		.4byte	0xc2c
 6254 0c1f 22       		.uleb128 0x22
 6255 0c20 96030000 		.4byte	.LASF37
 6256 0c24 01       		.byte	0x1
 6257 0c25 0C02     		.2byte	0x20c
ARM GAS  C:\Users\USUARIO\AppData\Local\Temp\ccywmqVe.s 			page 127


 6258 0c27 AA000000 		.4byte	0xaa
 6259 0c2b 00       		.byte	0
 6260 0c2c 1F       		.uleb128 0x1f
 6261 0c2d 8E000000 		.4byte	.LBB5
 6262 0c31 28000000 		.4byte	.LBE5-.LBB5
 6263 0c35 6B0C0000 		.4byte	0xc6b
 6264 0c39 1D       		.uleb128 0x1d
 6265 0c3a 96030000 		.4byte	.LASF37
 6266 0c3e 01       		.byte	0x1
 6267 0c3f 1C02     		.2byte	0x21c
 6268 0c41 9E000000 		.4byte	0x9e
 6269 0c45 2A0A0000 		.4byte	.LLST50
 6270 0c49 12       		.uleb128 0x12
 6271 0c4a B6000000 		.4byte	.LVL220
 6272 0c4e F3070000 		.4byte	0x7f3
 6273 0c52 11       		.uleb128 0x11
 6274 0c53 01       		.uleb128 0x1
 6275 0c54 50       		.byte	0x50
 6276 0c55 02       		.uleb128 0x2
 6277 0c56 7A       		.byte	0x7a
 6278 0c57 00       		.sleb128 0
 6279 0c58 11       		.uleb128 0x11
 6280 0c59 01       		.uleb128 0x1
 6281 0c5a 51       		.byte	0x51
 6282 0c5b 05       		.uleb128 0x5
 6283 0c5c 7B       		.byte	0x7b
 6284 0c5d 00       		.sleb128 0
 6285 0c5e 74       		.byte	0x74
 6286 0c5f 00       		.sleb128 0
 6287 0c60 22       		.byte	0x22
 6288 0c61 11       		.uleb128 0x11
 6289 0c62 01       		.uleb128 0x1
 6290 0c63 52       		.byte	0x52
 6291 0c64 04       		.uleb128 0x4
 6292 0c65 91       		.byte	0x91
 6293 0c66 44       		.sleb128 -60
 6294 0c67 94       		.byte	0x94
 6295 0c68 02       		.byte	0x2
 6296 0c69 00       		.byte	0
 6297 0c6a 00       		.byte	0
 6298 0c6b 23       		.uleb128 0x23
 6299 0c6c 08010000 		.4byte	.LBB6
 6300 0c70 2C000000 		.4byte	.LBE6-.LBB6
 6301 0c74 1D       		.uleb128 0x1d
 6302 0c75 96030000 		.4byte	.LASF37
 6303 0c79 01       		.byte	0x1
 6304 0c7a 4302     		.2byte	0x243
 6305 0c7c 9E000000 		.4byte	0x9e
 6306 0c80 A50A0000 		.4byte	.LLST51
 6307 0c84 12       		.uleb128 0x12
 6308 0c85 34010000 		.4byte	.LVL238
 6309 0c89 F3070000 		.4byte	0x7f3
 6310 0c8d 11       		.uleb128 0x11
 6311 0c8e 01       		.uleb128 0x1
 6312 0c8f 50       		.byte	0x50
 6313 0c90 05       		.uleb128 0x5
 6314 0c91 74       		.byte	0x74
ARM GAS  C:\Users\USUARIO\AppData\Local\Temp\ccywmqVe.s 			page 128


 6315 0c92 00       		.sleb128 0
 6316 0c93 7A       		.byte	0x7a
 6317 0c94 00       		.sleb128 0
 6318 0c95 22       		.byte	0x22
 6319 0c96 11       		.uleb128 0x11
 6320 0c97 01       		.uleb128 0x1
 6321 0c98 51       		.byte	0x51
 6322 0c99 02       		.uleb128 0x2
 6323 0c9a 7B       		.byte	0x7b
 6324 0c9b 00       		.sleb128 0
 6325 0c9c 11       		.uleb128 0x11
 6326 0c9d 01       		.uleb128 0x1
 6327 0c9e 52       		.byte	0x52
 6328 0c9f 04       		.uleb128 0x4
 6329 0ca0 91       		.byte	0x91
 6330 0ca1 44       		.sleb128 -60
 6331 0ca2 94       		.byte	0x94
 6332 0ca3 02       		.byte	0x2
 6333 0ca4 00       		.byte	0
 6334 0ca5 00       		.byte	0
 6335 0ca6 00       		.byte	0
 6336 0ca7 1B       		.uleb128 0x1b
 6337 0ca8 3E040000 		.4byte	.LASF51
 6338 0cac 01       		.byte	0x1
 6339 0cad 4D02     		.2byte	0x24d
 6340 0caf 00000000 		.4byte	.LFB75
 6341 0cb3 24010000 		.4byte	.LFE75-.LFB75
 6342 0cb7 01       		.uleb128 0x1
 6343 0cb8 9C       		.byte	0x9c
 6344 0cb9 030F0000 		.4byte	0xf03
 6345 0cbd 1C       		.uleb128 0x1c
 6346 0cbe 7800     		.ascii	"x\000"
 6347 0cc0 01       		.byte	0x1
 6348 0cc1 4D02     		.2byte	0x24d
 6349 0cc3 9E000000 		.4byte	0x9e
 6350 0cc7 150B0000 		.4byte	.LLST52
 6351 0ccb 1C       		.uleb128 0x1c
 6352 0ccc 7900     		.ascii	"y\000"
 6353 0cce 01       		.byte	0x1
 6354 0ccf 4D02     		.2byte	0x24d
 6355 0cd1 9E000000 		.4byte	0x9e
 6356 0cd5 360B0000 		.4byte	.LLST53
 6357 0cd9 19       		.uleb128 0x19
 6358 0cda 23040000 		.4byte	.LASF52
 6359 0cde 01       		.byte	0x1
 6360 0cdf 4D02     		.2byte	0x24d
 6361 0ce1 9E000000 		.4byte	0x9e
 6362 0ce5 570B0000 		.4byte	.LLST54
 6363 0ce9 19       		.uleb128 0x19
 6364 0cea 3A010000 		.4byte	.LASF43
 6365 0cee 01       		.byte	0x1
 6366 0cef 4D02     		.2byte	0x24d
 6367 0cf1 45000000 		.4byte	0x45
 6368 0cf5 780B0000 		.4byte	.LLST55
 6369 0cf9 1E       		.uleb128 0x1e
 6370 0cfa A4030000 		.4byte	.LASF33
 6371 0cfe 01       		.byte	0x1
ARM GAS  C:\Users\USUARIO\AppData\Local\Temp\ccywmqVe.s 			page 129


 6372 0cff 4D02     		.2byte	0x24d
 6373 0d01 45000000 		.4byte	0x45
 6374 0d05 02       		.uleb128 0x2
 6375 0d06 91       		.byte	0x91
 6376 0d07 00       		.sleb128 0
 6377 0d08 17       		.uleb128 0x17
 6378 0d09 6100     		.ascii	"a\000"
 6379 0d0b 01       		.byte	0x1
 6380 0d0c 4F02     		.2byte	0x24f
 6381 0d0e 9E000000 		.4byte	0x9e
 6382 0d12 990B0000 		.4byte	.LLST56
 6383 0d16 17       		.uleb128 0x17
 6384 0d17 6200     		.ascii	"b\000"
 6385 0d19 01       		.byte	0x1
 6386 0d1a 4F02     		.2byte	0x24f
 6387 0d1c 9E000000 		.4byte	0x9e
 6388 0d20 C30B0000 		.4byte	.LLST57
 6389 0d24 17       		.uleb128 0x17
 6390 0d25 5000     		.ascii	"P\000"
 6391 0d27 01       		.byte	0x1
 6392 0d28 4F02     		.2byte	0x24f
 6393 0d2a 9E000000 		.4byte	0x9e
 6394 0d2e E10B0000 		.4byte	.LLST58
 6395 0d32 10       		.uleb128 0x10
 6396 0d33 3C000000 		.4byte	.LVL246
 6397 0d37 54080000 		.4byte	0x854
 6398 0d3b 650D0000 		.4byte	0xd65
 6399 0d3f 11       		.uleb128 0x11
 6400 0d40 01       		.uleb128 0x1
 6401 0d41 50       		.byte	0x50
 6402 0d42 02       		.uleb128 0x2
 6403 0d43 78       		.byte	0x78
 6404 0d44 00       		.sleb128 0
 6405 0d45 11       		.uleb128 0x11
 6406 0d46 01       		.uleb128 0x1
 6407 0d47 51       		.byte	0x51
 6408 0d48 05       		.uleb128 0x5
 6409 0d49 75       		.byte	0x75
 6410 0d4a 00       		.sleb128 0
 6411 0d4b 7B       		.byte	0x7b
 6412 0d4c 00       		.sleb128 0
 6413 0d4d 22       		.byte	0x22
 6414 0d4e 11       		.uleb128 0x11
 6415 0d4f 01       		.uleb128 0x1
 6416 0d50 52       		.byte	0x52
 6417 0d51 02       		.uleb128 0x2
 6418 0d52 79       		.byte	0x79
 6419 0d53 00       		.sleb128 0
 6420 0d54 11       		.uleb128 0x11
 6421 0d55 01       		.uleb128 0x1
 6422 0d56 53       		.byte	0x53
 6423 0d57 05       		.uleb128 0x5
 6424 0d58 75       		.byte	0x75
 6425 0d59 00       		.sleb128 0
 6426 0d5a 7B       		.byte	0x7b
 6427 0d5b 00       		.sleb128 0
 6428 0d5c 22       		.byte	0x22
ARM GAS  C:\Users\USUARIO\AppData\Local\Temp\ccywmqVe.s 			page 130


 6429 0d5d 11       		.uleb128 0x11
 6430 0d5e 02       		.uleb128 0x2
 6431 0d5f 7D       		.byte	0x7d
 6432 0d60 00       		.sleb128 0
 6433 0d61 02       		.uleb128 0x2
 6434 0d62 77       		.byte	0x77
 6435 0d63 00       		.sleb128 0
 6436 0d64 00       		.byte	0
 6437 0d65 10       		.uleb128 0x10
 6438 0d66 4E000000 		.4byte	.LVL247
 6439 0d6a 54080000 		.4byte	0x854
 6440 0d6e 980D0000 		.4byte	0xd98
 6441 0d72 11       		.uleb128 0x11
 6442 0d73 01       		.uleb128 0x1
 6443 0d74 50       		.byte	0x50
 6444 0d75 02       		.uleb128 0x2
 6445 0d76 78       		.byte	0x78
 6446 0d77 00       		.sleb128 0
 6447 0d78 11       		.uleb128 0x11
 6448 0d79 01       		.uleb128 0x1
 6449 0d7a 51       		.byte	0x51
 6450 0d7b 05       		.uleb128 0x5
 6451 0d7c 7B       		.byte	0x7b
 6452 0d7d 00       		.sleb128 0
 6453 0d7e 75       		.byte	0x75
 6454 0d7f 00       		.sleb128 0
 6455 0d80 1C       		.byte	0x1c
 6456 0d81 11       		.uleb128 0x11
 6457 0d82 01       		.uleb128 0x1
 6458 0d83 52       		.byte	0x52
 6459 0d84 02       		.uleb128 0x2
 6460 0d85 79       		.byte	0x79
 6461 0d86 00       		.sleb128 0
 6462 0d87 11       		.uleb128 0x11
 6463 0d88 01       		.uleb128 0x1
 6464 0d89 53       		.byte	0x53
 6465 0d8a 05       		.uleb128 0x5
 6466 0d8b 7B       		.byte	0x7b
 6467 0d8c 00       		.sleb128 0
 6468 0d8d 75       		.byte	0x75
 6469 0d8e 00       		.sleb128 0
 6470 0d8f 1C       		.byte	0x1c
 6471 0d90 11       		.uleb128 0x11
 6472 0d91 02       		.uleb128 0x2
 6473 0d92 7D       		.byte	0x7d
 6474 0d93 00       		.sleb128 0
 6475 0d94 02       		.uleb128 0x2
 6476 0d95 77       		.byte	0x77
 6477 0d96 00       		.sleb128 0
 6478 0d97 00       		.byte	0
 6479 0d98 10       		.uleb128 0x10
 6480 0d99 70000000 		.4byte	.LVL248
 6481 0d9d 54080000 		.4byte	0x854
 6482 0da1 CB0D0000 		.4byte	0xdcb
 6483 0da5 11       		.uleb128 0x11
 6484 0da6 01       		.uleb128 0x1
 6485 0da7 50       		.byte	0x50
ARM GAS  C:\Users\USUARIO\AppData\Local\Temp\ccywmqVe.s 			page 131


 6486 0da8 02       		.uleb128 0x2
 6487 0da9 78       		.byte	0x78
 6488 0daa 00       		.sleb128 0
 6489 0dab 11       		.uleb128 0x11
 6490 0dac 01       		.uleb128 0x1
 6491 0dad 51       		.byte	0x51
 6492 0dae 05       		.uleb128 0x5
 6493 0daf 74       		.byte	0x74
 6494 0db0 00       		.sleb128 0
 6495 0db1 7B       		.byte	0x7b
 6496 0db2 00       		.sleb128 0
 6497 0db3 22       		.byte	0x22
 6498 0db4 11       		.uleb128 0x11
 6499 0db5 01       		.uleb128 0x1
 6500 0db6 52       		.byte	0x52
 6501 0db7 02       		.uleb128 0x2
 6502 0db8 79       		.byte	0x79
 6503 0db9 00       		.sleb128 0
 6504 0dba 11       		.uleb128 0x11
 6505 0dbb 01       		.uleb128 0x1
 6506 0dbc 53       		.byte	0x53
 6507 0dbd 05       		.uleb128 0x5
 6508 0dbe 74       		.byte	0x74
 6509 0dbf 00       		.sleb128 0
 6510 0dc0 7B       		.byte	0x7b
 6511 0dc1 00       		.sleb128 0
 6512 0dc2 22       		.byte	0x22
 6513 0dc3 11       		.uleb128 0x11
 6514 0dc4 02       		.uleb128 0x2
 6515 0dc5 7D       		.byte	0x7d
 6516 0dc6 00       		.sleb128 0
 6517 0dc7 02       		.uleb128 0x2
 6518 0dc8 77       		.byte	0x77
 6519 0dc9 00       		.sleb128 0
 6520 0dca 00       		.byte	0
 6521 0dcb 10       		.uleb128 0x10
 6522 0dcc 82000000 		.4byte	.LVL249
 6523 0dd0 54080000 		.4byte	0x854
 6524 0dd4 FE0D0000 		.4byte	0xdfe
 6525 0dd8 11       		.uleb128 0x11
 6526 0dd9 01       		.uleb128 0x1
 6527 0dda 50       		.byte	0x50
 6528 0ddb 02       		.uleb128 0x2
 6529 0ddc 78       		.byte	0x78
 6530 0ddd 00       		.sleb128 0
 6531 0dde 11       		.uleb128 0x11
 6532 0ddf 01       		.uleb128 0x1
 6533 0de0 51       		.byte	0x51
 6534 0de1 05       		.uleb128 0x5
 6535 0de2 7B       		.byte	0x7b
 6536 0de3 00       		.sleb128 0
 6537 0de4 74       		.byte	0x74
 6538 0de5 00       		.sleb128 0
 6539 0de6 1C       		.byte	0x1c
 6540 0de7 11       		.uleb128 0x11
 6541 0de8 01       		.uleb128 0x1
 6542 0de9 52       		.byte	0x52
ARM GAS  C:\Users\USUARIO\AppData\Local\Temp\ccywmqVe.s 			page 132


 6543 0dea 02       		.uleb128 0x2
 6544 0deb 79       		.byte	0x79
 6545 0dec 00       		.sleb128 0
 6546 0ded 11       		.uleb128 0x11
 6547 0dee 01       		.uleb128 0x1
 6548 0def 53       		.byte	0x53
 6549 0df0 05       		.uleb128 0x5
 6550 0df1 7B       		.byte	0x7b
 6551 0df2 00       		.sleb128 0
 6552 0df3 74       		.byte	0x74
 6553 0df4 00       		.sleb128 0
 6554 0df5 1C       		.byte	0x1c
 6555 0df6 11       		.uleb128 0x11
 6556 0df7 02       		.uleb128 0x2
 6557 0df8 7D       		.byte	0x7d
 6558 0df9 00       		.sleb128 0
 6559 0dfa 02       		.uleb128 0x2
 6560 0dfb 77       		.byte	0x77
 6561 0dfc 00       		.sleb128 0
 6562 0dfd 00       		.byte	0
 6563 0dfe 10       		.uleb128 0x10
 6564 0dff 9C000000 		.4byte	.LVL250
 6565 0e03 F3070000 		.4byte	0x7f3
 6566 0e07 200E0000 		.4byte	0xe20
 6567 0e0b 11       		.uleb128 0x11
 6568 0e0c 01       		.uleb128 0x1
 6569 0e0d 50       		.byte	0x50
 6570 0e0e 04       		.uleb128 0x4
 6571 0e0f 91       		.byte	0x91
 6572 0e10 50       		.sleb128 -48
 6573 0e11 94       		.byte	0x94
 6574 0e12 01       		.byte	0x1
 6575 0e13 11       		.uleb128 0x11
 6576 0e14 01       		.uleb128 0x1
 6577 0e15 51       		.byte	0x51
 6578 0e16 02       		.uleb128 0x2
 6579 0e17 78       		.byte	0x78
 6580 0e18 00       		.sleb128 0
 6581 0e19 11       		.uleb128 0x11
 6582 0e1a 01       		.uleb128 0x1
 6583 0e1b 52       		.byte	0x52
 6584 0e1c 02       		.uleb128 0x2
 6585 0e1d 77       		.byte	0x77
 6586 0e1e 00       		.sleb128 0
 6587 0e1f 00       		.byte	0
 6588 0e20 10       		.uleb128 0x10
 6589 0e21 B6000000 		.4byte	.LVL251
 6590 0e25 F3070000 		.4byte	0x7f3
 6591 0e29 400E0000 		.4byte	0xe40
 6592 0e2d 11       		.uleb128 0x11
 6593 0e2e 01       		.uleb128 0x1
 6594 0e2f 50       		.byte	0x50
 6595 0e30 02       		.uleb128 0x2
 6596 0e31 7A       		.byte	0x7a
 6597 0e32 00       		.sleb128 0
 6598 0e33 11       		.uleb128 0x11
 6599 0e34 01       		.uleb128 0x1
ARM GAS  C:\Users\USUARIO\AppData\Local\Temp\ccywmqVe.s 			page 133


 6600 0e35 51       		.byte	0x51
 6601 0e36 02       		.uleb128 0x2
 6602 0e37 79       		.byte	0x79
 6603 0e38 00       		.sleb128 0
 6604 0e39 11       		.uleb128 0x11
 6605 0e3a 01       		.uleb128 0x1
 6606 0e3b 52       		.byte	0x52
 6607 0e3c 02       		.uleb128 0x2
 6608 0e3d 77       		.byte	0x77
 6609 0e3e 00       		.sleb128 0
 6610 0e3f 00       		.byte	0
 6611 0e40 10       		.uleb128 0x10
 6612 0e41 C6000000 		.4byte	.LVL252
 6613 0e45 F3070000 		.4byte	0x7f3
 6614 0e49 620E0000 		.4byte	0xe62
 6615 0e4d 11       		.uleb128 0x11
 6616 0e4e 01       		.uleb128 0x1
 6617 0e4f 50       		.byte	0x50
 6618 0e50 04       		.uleb128 0x4
 6619 0e51 91       		.byte	0x91
 6620 0e52 54       		.sleb128 -44
 6621 0e53 94       		.byte	0x94
 6622 0e54 01       		.byte	0x1
 6623 0e55 11       		.uleb128 0x11
 6624 0e56 01       		.uleb128 0x1
 6625 0e57 51       		.byte	0x51
 6626 0e58 02       		.uleb128 0x2
 6627 0e59 78       		.byte	0x78
 6628 0e5a 00       		.sleb128 0
 6629 0e5b 11       		.uleb128 0x11
 6630 0e5c 01       		.uleb128 0x1
 6631 0e5d 52       		.byte	0x52
 6632 0e5e 02       		.uleb128 0x2
 6633 0e5f 77       		.byte	0x77
 6634 0e60 00       		.sleb128 0
 6635 0e61 00       		.byte	0
 6636 0e62 10       		.uleb128 0x10
 6637 0e63 D8000000 		.4byte	.LVL253
 6638 0e67 F3070000 		.4byte	0x7f3
 6639 0e6b 820E0000 		.4byte	0xe82
 6640 0e6f 11       		.uleb128 0x11
 6641 0e70 01       		.uleb128 0x1
 6642 0e71 50       		.byte	0x50
 6643 0e72 02       		.uleb128 0x2
 6644 0e73 78       		.byte	0x78
 6645 0e74 00       		.sleb128 0
 6646 0e75 11       		.uleb128 0x11
 6647 0e76 01       		.uleb128 0x1
 6648 0e77 51       		.byte	0x51
 6649 0e78 02       		.uleb128 0x2
 6650 0e79 79       		.byte	0x79
 6651 0e7a 00       		.sleb128 0
 6652 0e7b 11       		.uleb128 0x11
 6653 0e7c 01       		.uleb128 0x1
 6654 0e7d 52       		.byte	0x52
 6655 0e7e 02       		.uleb128 0x2
 6656 0e7f 77       		.byte	0x77
ARM GAS  C:\Users\USUARIO\AppData\Local\Temp\ccywmqVe.s 			page 134


 6657 0e80 00       		.sleb128 0
 6658 0e81 00       		.byte	0
 6659 0e82 10       		.uleb128 0x10
 6660 0e83 EA000000 		.4byte	.LVL254
 6661 0e87 F3070000 		.4byte	0x7f3
 6662 0e8b A20E0000 		.4byte	0xea2
 6663 0e8f 11       		.uleb128 0x11
 6664 0e90 01       		.uleb128 0x1
 6665 0e91 50       		.byte	0x50
 6666 0e92 02       		.uleb128 0x2
 6667 0e93 7A       		.byte	0x7a
 6668 0e94 00       		.sleb128 0
 6669 0e95 11       		.uleb128 0x11
 6670 0e96 01       		.uleb128 0x1
 6671 0e97 51       		.byte	0x51
 6672 0e98 02       		.uleb128 0x2
 6673 0e99 79       		.byte	0x79
 6674 0e9a 00       		.sleb128 0
 6675 0e9b 11       		.uleb128 0x11
 6676 0e9c 01       		.uleb128 0x1
 6677 0e9d 52       		.byte	0x52
 6678 0e9e 02       		.uleb128 0x2
 6679 0e9f 77       		.byte	0x77
 6680 0ea0 00       		.sleb128 0
 6681 0ea1 00       		.byte	0
 6682 0ea2 10       		.uleb128 0x10
 6683 0ea3 FC000000 		.4byte	.LVL255
 6684 0ea7 F3070000 		.4byte	0x7f3
 6685 0eab C40E0000 		.4byte	0xec4
 6686 0eaf 11       		.uleb128 0x11
 6687 0eb0 01       		.uleb128 0x1
 6688 0eb1 50       		.byte	0x50
 6689 0eb2 04       		.uleb128 0x4
 6690 0eb3 91       		.byte	0x91
 6691 0eb4 50       		.sleb128 -48
 6692 0eb5 94       		.byte	0x94
 6693 0eb6 01       		.byte	0x1
 6694 0eb7 11       		.uleb128 0x11
 6695 0eb8 01       		.uleb128 0x1
 6696 0eb9 51       		.byte	0x51
 6697 0eba 02       		.uleb128 0x2
 6698 0ebb 7A       		.byte	0x7a
 6699 0ebc 00       		.sleb128 0
 6700 0ebd 11       		.uleb128 0x11
 6701 0ebe 01       		.uleb128 0x1
 6702 0ebf 52       		.byte	0x52
 6703 0ec0 02       		.uleb128 0x2
 6704 0ec1 77       		.byte	0x77
 6705 0ec2 00       		.sleb128 0
 6706 0ec3 00       		.byte	0
 6707 0ec4 10       		.uleb128 0x10
 6708 0ec5 06010000 		.4byte	.LVL256
 6709 0ec9 F3070000 		.4byte	0x7f3
 6710 0ecd E60E0000 		.4byte	0xee6
 6711 0ed1 11       		.uleb128 0x11
 6712 0ed2 01       		.uleb128 0x1
 6713 0ed3 50       		.byte	0x50
ARM GAS  C:\Users\USUARIO\AppData\Local\Temp\ccywmqVe.s 			page 135


 6714 0ed4 04       		.uleb128 0x4
 6715 0ed5 91       		.byte	0x91
 6716 0ed6 54       		.sleb128 -44
 6717 0ed7 94       		.byte	0x94
 6718 0ed8 01       		.byte	0x1
 6719 0ed9 11       		.uleb128 0x11
 6720 0eda 01       		.uleb128 0x1
 6721 0edb 51       		.byte	0x51
 6722 0edc 02       		.uleb128 0x2
 6723 0edd 7A       		.byte	0x7a
 6724 0ede 00       		.sleb128 0
 6725 0edf 11       		.uleb128 0x11
 6726 0ee0 01       		.uleb128 0x1
 6727 0ee1 52       		.byte	0x52
 6728 0ee2 02       		.uleb128 0x2
 6729 0ee3 77       		.byte	0x77
 6730 0ee4 00       		.sleb128 0
 6731 0ee5 00       		.byte	0
 6732 0ee6 12       		.uleb128 0x12
 6733 0ee7 10010000 		.4byte	.LVL257
 6734 0eeb F3070000 		.4byte	0x7f3
 6735 0eef 11       		.uleb128 0x11
 6736 0ef0 01       		.uleb128 0x1
 6737 0ef1 50       		.byte	0x50
 6738 0ef2 02       		.uleb128 0x2
 6739 0ef3 78       		.byte	0x78
 6740 0ef4 00       		.sleb128 0
 6741 0ef5 11       		.uleb128 0x11
 6742 0ef6 01       		.uleb128 0x1
 6743 0ef7 51       		.byte	0x51
 6744 0ef8 02       		.uleb128 0x2
 6745 0ef9 79       		.byte	0x79
 6746 0efa 00       		.sleb128 0
 6747 0efb 11       		.uleb128 0x11
 6748 0efc 01       		.uleb128 0x1
 6749 0efd 52       		.byte	0x52
 6750 0efe 02       		.uleb128 0x2
 6751 0eff 77       		.byte	0x77
 6752 0f00 00       		.sleb128 0
 6753 0f01 00       		.byte	0
 6754 0f02 00       		.byte	0
 6755 0f03 1B       		.uleb128 0x1b
 6756 0f04 37000000 		.4byte	.LASF53
 6757 0f08 01       		.byte	0x1
 6758 0f09 7102     		.2byte	0x271
 6759 0f0b 00000000 		.4byte	.LFB76
 6760 0f0f 28010000 		.4byte	.LFE76-.LFB76
 6761 0f13 01       		.uleb128 0x1
 6762 0f14 9C       		.byte	0x9c
 6763 0f15 D50F0000 		.4byte	0xfd5
 6764 0f19 1C       		.uleb128 0x1c
 6765 0f1a 7800     		.ascii	"x\000"
 6766 0f1c 01       		.byte	0x1
 6767 0f1d 7102     		.2byte	0x271
 6768 0f1f 9E000000 		.4byte	0x9e
 6769 0f23 F80B0000 		.4byte	.LLST59
 6770 0f27 1C       		.uleb128 0x1c
ARM GAS  C:\Users\USUARIO\AppData\Local\Temp\ccywmqVe.s 			page 136


 6771 0f28 7900     		.ascii	"y\000"
 6772 0f2a 01       		.byte	0x1
 6773 0f2b 7102     		.2byte	0x271
 6774 0f2d 9E000000 		.4byte	0x9e
 6775 0f31 430C0000 		.4byte	.LLST60
 6776 0f35 19       		.uleb128 0x19
 6777 0f36 B0020000 		.4byte	.LASF54
 6778 0f3a 01       		.byte	0x1
 6779 0f3b 7102     		.2byte	0x271
 6780 0f3d EA000000 		.4byte	0xea
 6781 0f41 770C0000 		.4byte	.LLST61
 6782 0f45 19       		.uleb128 0x19
 6783 0f46 B8020000 		.4byte	.LASF55
 6784 0f4a 01       		.byte	0x1
 6785 0f4b 7102     		.2byte	0x271
 6786 0f4d 9E000000 		.4byte	0x9e
 6787 0f51 B90C0000 		.4byte	.LLST62
 6788 0f55 19       		.uleb128 0x19
 6789 0f56 A4030000 		.4byte	.LASF33
 6790 0f5a 01       		.byte	0x1
 6791 0f5b 7102     		.2byte	0x271
 6792 0f5d 45000000 		.4byte	0x45
 6793 0f61 DA0C0000 		.4byte	.LLST63
 6794 0f65 17       		.uleb128 0x17
 6795 0f66 6A00     		.ascii	"j\000"
 6796 0f68 01       		.byte	0x1
 6797 0f69 7302     		.2byte	0x273
 6798 0f6b 9E000000 		.4byte	0x9e
 6799 0f6f FA0C0000 		.4byte	.LLST64
 6800 0f73 17       		.uleb128 0x17
 6801 0f74 6B00     		.ascii	"k\000"
 6802 0f76 01       		.byte	0x1
 6803 0f77 7302     		.2byte	0x273
 6804 0f79 9E000000 		.4byte	0x9e
 6805 0f7d 240D0000 		.4byte	.LLST65
 6806 0f81 17       		.uleb128 0x17
 6807 0f82 6C00     		.ascii	"l\000"
 6808 0f84 01       		.byte	0x1
 6809 0f85 7302     		.2byte	0x273
 6810 0f87 9E000000 		.4byte	0x9e
 6811 0f8b 4D0D0000 		.4byte	.LLST66
 6812 0f8f 17       		.uleb128 0x17
 6813 0f90 6D00     		.ascii	"m\000"
 6814 0f92 01       		.byte	0x1
 6815 0f93 7302     		.2byte	0x273
 6816 0f95 9E000000 		.4byte	0x9e
 6817 0f99 760D0000 		.4byte	.LLST67
 6818 0f9d 1A       		.uleb128 0x1a
 6819 0f9e EF000000 		.4byte	.LASF56
 6820 0fa2 01       		.byte	0x1
 6821 0fa3 7402     		.2byte	0x274
 6822 0fa5 D50F0000 		.4byte	0xfd5
 6823 0fa9 02       		.uleb128 0x2
 6824 0faa 91       		.byte	0x91
 6825 0fab 50       		.sleb128 -48
 6826 0fac 12       		.uleb128 0x12
 6827 0fad C2000000 		.4byte	.LVL272
ARM GAS  C:\Users\USUARIO\AppData\Local\Temp\ccywmqVe.s 			page 137


 6828 0fb1 F3070000 		.4byte	0x7f3
 6829 0fb5 11       		.uleb128 0x11
 6830 0fb6 01       		.uleb128 0x1
 6831 0fb7 50       		.byte	0x50
 6832 0fb8 05       		.uleb128 0x5
 6833 0fb9 78       		.byte	0x78
 6834 0fba 00       		.sleb128 0
 6835 0fbb 74       		.byte	0x74
 6836 0fbc 00       		.sleb128 0
 6837 0fbd 22       		.byte	0x22
 6838 0fbe 11       		.uleb128 0x11
 6839 0fbf 01       		.uleb128 0x1
 6840 0fc0 51       		.byte	0x51
 6841 0fc1 0B       		.uleb128 0xb
 6842 0fc2 75       		.byte	0x75
 6843 0fc3 00       		.sleb128 0
 6844 0fc4 77       		.byte	0x77
 6845 0fc5 00       		.sleb128 0
 6846 0fc6 1E       		.byte	0x1e
 6847 0fc7 76       		.byte	0x76
 6848 0fc8 00       		.sleb128 0
 6849 0fc9 22       		.byte	0x22
 6850 0fca 79       		.byte	0x79
 6851 0fcb 00       		.sleb128 0
 6852 0fcc 22       		.byte	0x22
 6853 0fcd 11       		.uleb128 0x11
 6854 0fce 01       		.uleb128 0x1
 6855 0fcf 52       		.byte	0x52
 6856 0fd0 02       		.uleb128 0x2
 6857 0fd1 7A       		.byte	0x7a
 6858 0fd2 00       		.sleb128 0
 6859 0fd3 00       		.byte	0
 6860 0fd4 00       		.byte	0
 6861 0fd5 09       		.uleb128 0x9
 6862 0fd6 9E000000 		.4byte	0x9e
 6863 0fda E50F0000 		.4byte	0xfe5
 6864 0fde 0A       		.uleb128 0xa
 6865 0fdf E3000000 		.4byte	0xe3
 6866 0fe3 04       		.byte	0x4
 6867 0fe4 00       		.byte	0
 6868 0fe5 1B       		.uleb128 0x1b
 6869 0fe6 C8020000 		.4byte	.LASF57
 6870 0fea 01       		.byte	0x1
 6871 0feb A202     		.2byte	0x2a2
 6872 0fed 00000000 		.4byte	.LFB77
 6873 0ff1 B4000000 		.4byte	.LFE77-.LFB77
 6874 0ff5 01       		.uleb128 0x1
 6875 0ff6 9C       		.byte	0x9c
 6876 0ff7 9F110000 		.4byte	0x119f
 6877 0ffb 19       		.uleb128 0x19
 6878 0ffc 68020000 		.4byte	.LASF58
 6879 1000 01       		.byte	0x1
 6880 1001 A202     		.2byte	0x2a2
 6881 1003 EA000000 		.4byte	0xea
 6882 1007 9F0D0000 		.4byte	.LLST68
 6883 100b 1C       		.uleb128 0x1c
 6884 100c 7800     		.ascii	"x\000"
ARM GAS  C:\Users\USUARIO\AppData\Local\Temp\ccywmqVe.s 			page 138


 6885 100e 01       		.byte	0x1
 6886 100f A202     		.2byte	0x2a2
 6887 1011 9E000000 		.4byte	0x9e
 6888 1015 CB0D0000 		.4byte	.LLST69
 6889 1019 1C       		.uleb128 0x1c
 6890 101a 7900     		.ascii	"y\000"
 6891 101c 01       		.byte	0x1
 6892 101d A202     		.2byte	0x2a2
 6893 101f 9E000000 		.4byte	0x9e
 6894 1023 EC0D0000 		.4byte	.LLST70
 6895 1027 19       		.uleb128 0x19
 6896 1028 F9000000 		.4byte	.LASF59
 6897 102c 01       		.byte	0x1
 6898 102d A202     		.2byte	0x2a2
 6899 102f 45000000 		.4byte	0x45
 6900 1033 0D0E0000 		.4byte	.LLST71
 6901 1037 19       		.uleb128 0x19
 6902 1038 24030000 		.4byte	.LASF60
 6903 103c 01       		.byte	0x1
 6904 103d A202     		.2byte	0x2a2
 6905 103f 45000000 		.4byte	0x45
 6906 1043 2E0E0000 		.4byte	.LLST72
 6907 1047 10       		.uleb128 0x10
 6908 1048 18000000 		.4byte	.LVL299
 6909 104c AA230000 		.4byte	0x23aa
 6910 1050 65100000 		.4byte	0x1065
 6911 1054 11       		.uleb128 0x11
 6912 1055 01       		.uleb128 0x1
 6913 1056 50       		.byte	0x50
 6914 1057 05       		.uleb128 0x5
 6915 1058 03       		.byte	0x3
 6916 1059 00000000 		.4byte	Menus
 6917 105d 11       		.uleb128 0x11
 6918 105e 01       		.uleb128 0x1
 6919 105f 51       		.byte	0x51
 6920 1060 03       		.uleb128 0x3
 6921 1061 F3       		.byte	0xf3
 6922 1062 01       		.uleb128 0x1
 6923 1063 50       		.byte	0x50
 6924 1064 00       		.byte	0
 6925 1065 10       		.uleb128 0x10
 6926 1066 30000000 		.4byte	.LVL300
 6927 106a 030F0000 		.4byte	0xf03
 6928 106e 94100000 		.4byte	0x1094
 6929 1072 11       		.uleb128 0x11
 6930 1073 01       		.uleb128 0x1
 6931 1074 50       		.byte	0x50
 6932 1075 02       		.uleb128 0x2
 6933 1076 77       		.byte	0x77
 6934 1077 01       		.sleb128 1
 6935 1078 11       		.uleb128 0x11
 6936 1079 01       		.uleb128 0x1
 6937 107a 51       		.byte	0x51
 6938 107b 02       		.uleb128 0x2
 6939 107c 75       		.byte	0x75
 6940 107d 01       		.sleb128 1
 6941 107e 11       		.uleb128 0x11
ARM GAS  C:\Users\USUARIO\AppData\Local\Temp\ccywmqVe.s 			page 139


 6942 107f 01       		.uleb128 0x1
 6943 1080 52       		.byte	0x52
 6944 1081 05       		.uleb128 0x5
 6945 1082 03       		.byte	0x3
 6946 1083 00000000 		.4byte	Menus
 6947 1087 11       		.uleb128 0x11
 6948 1088 01       		.uleb128 0x1
 6949 1089 53       		.byte	0x53
 6950 108a 02       		.uleb128 0x2
 6951 108b 76       		.byte	0x76
 6952 108c 00       		.sleb128 0
 6953 108d 11       		.uleb128 0x11
 6954 108e 02       		.uleb128 0x2
 6955 108f 7D       		.byte	0x7d
 6956 1090 00       		.sleb128 0
 6957 1091 01       		.uleb128 0x1
 6958 1092 30       		.byte	0x30
 6959 1093 00       		.byte	0
 6960 1094 10       		.uleb128 0x10
 6961 1095 48000000 		.4byte	.LVL301
 6962 1099 030F0000 		.4byte	0xf03
 6963 109d C3100000 		.4byte	0x10c3
 6964 10a1 11       		.uleb128 0x11
 6965 10a2 01       		.uleb128 0x1
 6966 10a3 50       		.byte	0x50
 6967 10a4 02       		.uleb128 0x2
 6968 10a5 77       		.byte	0x77
 6969 10a6 01       		.sleb128 1
 6970 10a7 11       		.uleb128 0x11
 6971 10a8 01       		.uleb128 0x1
 6972 10a9 51       		.byte	0x51
 6973 10aa 02       		.uleb128 0x2
 6974 10ab 75       		.byte	0x75
 6975 10ac 01       		.sleb128 1
 6976 10ad 11       		.uleb128 0x11
 6977 10ae 01       		.uleb128 0x1
 6978 10af 52       		.byte	0x52
 6979 10b0 05       		.uleb128 0x5
 6980 10b1 03       		.byte	0x3
 6981 10b2 00000000 		.4byte	Menus
 6982 10b6 11       		.uleb128 0x11
 6983 10b7 01       		.uleb128 0x1
 6984 10b8 53       		.byte	0x53
 6985 10b9 02       		.uleb128 0x2
 6986 10ba 76       		.byte	0x76
 6987 10bb 00       		.sleb128 0
 6988 10bc 11       		.uleb128 0x11
 6989 10bd 02       		.uleb128 0x2
 6990 10be 7D       		.byte	0x7d
 6991 10bf 00       		.sleb128 0
 6992 10c0 01       		.uleb128 0x1
 6993 10c1 31       		.byte	0x31
 6994 10c2 00       		.byte	0
 6995 10c3 10       		.uleb128 0x10
 6996 10c4 66000000 		.4byte	.LVL302
 6997 10c8 60090000 		.4byte	0x960
 6998 10cc F9100000 		.4byte	0x10f9
ARM GAS  C:\Users\USUARIO\AppData\Local\Temp\ccywmqVe.s 			page 140


 6999 10d0 11       		.uleb128 0x11
 7000 10d1 01       		.uleb128 0x1
 7001 10d2 50       		.byte	0x50
 7002 10d3 01       		.uleb128 0x1
 7003 10d4 30       		.byte	0x30
 7004 10d5 11       		.uleb128 0x11
 7005 10d6 01       		.uleb128 0x1
 7006 10d7 51       		.byte	0x51
 7007 10d8 02       		.uleb128 0x2
 7008 10d9 75       		.byte	0x75
 7009 10da 00       		.sleb128 0
 7010 10db 11       		.uleb128 0x11
 7011 10dc 01       		.uleb128 0x1
 7012 10dd 52       		.byte	0x52
 7013 10de 02       		.uleb128 0x2
 7014 10df 08       		.byte	0x8
 7015 10e0 7F       		.byte	0x7f
 7016 10e1 11       		.uleb128 0x11
 7017 10e2 01       		.uleb128 0x1
 7018 10e3 53       		.byte	0x53
 7019 10e4 07       		.uleb128 0x7
 7020 10e5 78       		.byte	0x78
 7021 10e6 00       		.sleb128 0
 7022 10e7 33       		.byte	0x33
 7023 10e8 24       		.byte	0x24
 7024 10e9 75       		.byte	0x75
 7025 10ea 00       		.sleb128 0
 7026 10eb 22       		.byte	0x22
 7027 10ec 11       		.uleb128 0x11
 7028 10ed 02       		.uleb128 0x2
 7029 10ee 7D       		.byte	0x7d
 7030 10ef 00       		.sleb128 0
 7031 10f0 01       		.uleb128 0x1
 7032 10f1 31       		.byte	0x31
 7033 10f2 11       		.uleb128 0x11
 7034 10f3 02       		.uleb128 0x2
 7035 10f4 7D       		.byte	0x7d
 7036 10f5 04       		.sleb128 4
 7037 10f6 01       		.uleb128 0x1
 7038 10f7 31       		.byte	0x31
 7039 10f8 00       		.byte	0
 7040 10f9 10       		.uleb128 0x10
 7041 10fa 7A000000 		.4byte	.LVL303
 7042 10fe 030F0000 		.4byte	0xf03
 7043 1102 28110000 		.4byte	0x1128
 7044 1106 11       		.uleb128 0x11
 7045 1107 01       		.uleb128 0x1
 7046 1108 50       		.byte	0x50
 7047 1109 02       		.uleb128 0x2
 7048 110a 77       		.byte	0x77
 7049 110b 01       		.sleb128 1
 7050 110c 11       		.uleb128 0x11
 7051 110d 01       		.uleb128 0x1
 7052 110e 51       		.byte	0x51
 7053 110f 02       		.uleb128 0x2
 7054 1110 75       		.byte	0x75
 7055 1111 01       		.sleb128 1
ARM GAS  C:\Users\USUARIO\AppData\Local\Temp\ccywmqVe.s 			page 141


 7056 1112 11       		.uleb128 0x11
 7057 1113 01       		.uleb128 0x1
 7058 1114 52       		.byte	0x52
 7059 1115 05       		.uleb128 0x5
 7060 1116 03       		.byte	0x3
 7061 1117 00000000 		.4byte	Menus
 7062 111b 11       		.uleb128 0x11
 7063 111c 01       		.uleb128 0x1
 7064 111d 53       		.byte	0x53
 7065 111e 02       		.uleb128 0x2
 7066 111f 78       		.byte	0x78
 7067 1120 00       		.sleb128 0
 7068 1121 11       		.uleb128 0x11
 7069 1122 02       		.uleb128 0x2
 7070 1123 7D       		.byte	0x7d
 7071 1124 00       		.sleb128 0
 7072 1125 01       		.uleb128 0x1
 7073 1126 30       		.byte	0x30
 7074 1127 00       		.byte	0
 7075 1128 10       		.uleb128 0x10
 7076 1129 94000000 		.4byte	.LVL304
 7077 112d 60090000 		.4byte	0x960
 7078 1131 5F110000 		.4byte	0x115f
 7079 1135 11       		.uleb128 0x11
 7080 1136 01       		.uleb128 0x1
 7081 1137 50       		.byte	0x50
 7082 1138 01       		.uleb128 0x1
 7083 1139 30       		.byte	0x30
 7084 113a 11       		.uleb128 0x11
 7085 113b 01       		.uleb128 0x1
 7086 113c 51       		.byte	0x51
 7087 113d 02       		.uleb128 0x2
 7088 113e 75       		.byte	0x75
 7089 113f 00       		.sleb128 0
 7090 1140 11       		.uleb128 0x11
 7091 1141 01       		.uleb128 0x1
 7092 1142 52       		.byte	0x52
 7093 1143 02       		.uleb128 0x2
 7094 1144 08       		.byte	0x8
 7095 1145 7F       		.byte	0x7f
 7096 1146 11       		.uleb128 0x11
 7097 1147 01       		.uleb128 0x1
 7098 1148 53       		.byte	0x53
 7099 1149 07       		.uleb128 0x7
 7100 114a 76       		.byte	0x76
 7101 114b 00       		.sleb128 0
 7102 114c 33       		.byte	0x33
 7103 114d 24       		.byte	0x24
 7104 114e 75       		.byte	0x75
 7105 114f 00       		.sleb128 0
 7106 1150 22       		.byte	0x22
 7107 1151 11       		.uleb128 0x11
 7108 1152 02       		.uleb128 0x2
 7109 1153 7D       		.byte	0x7d
 7110 1154 00       		.sleb128 0
 7111 1155 02       		.uleb128 0x2
 7112 1156 74       		.byte	0x74
ARM GAS  C:\Users\USUARIO\AppData\Local\Temp\ccywmqVe.s 			page 142


 7113 1157 00       		.sleb128 0
 7114 1158 11       		.uleb128 0x11
 7115 1159 02       		.uleb128 0x2
 7116 115a 7D       		.byte	0x7d
 7117 115b 04       		.sleb128 4
 7118 115c 01       		.uleb128 0x1
 7119 115d 30       		.byte	0x30
 7120 115e 00       		.byte	0
 7121 115f 10       		.uleb128 0x10
 7122 1160 A6000000 		.4byte	.LVL305
 7123 1164 030F0000 		.4byte	0xf03
 7124 1168 95110000 		.4byte	0x1195
 7125 116c 11       		.uleb128 0x11
 7126 116d 01       		.uleb128 0x1
 7127 116e 50       		.byte	0x50
 7128 116f 05       		.uleb128 0x5
 7129 1170 77       		.byte	0x77
 7130 1171 00       		.sleb128 0
 7131 1172 74       		.byte	0x74
 7132 1173 00       		.sleb128 0
 7133 1174 22       		.byte	0x22
 7134 1175 11       		.uleb128 0x11
 7135 1176 01       		.uleb128 0x1
 7136 1177 51       		.byte	0x51
 7137 1178 05       		.uleb128 0x5
 7138 1179 75       		.byte	0x75
 7139 117a 00       		.sleb128 0
 7140 117b 74       		.byte	0x74
 7141 117c 00       		.sleb128 0
 7142 117d 22       		.byte	0x22
 7143 117e 11       		.uleb128 0x11
 7144 117f 01       		.uleb128 0x1
 7145 1180 52       		.byte	0x52
 7146 1181 05       		.uleb128 0x5
 7147 1182 03       		.byte	0x3
 7148 1183 00000000 		.4byte	Menus
 7149 1187 11       		.uleb128 0x11
 7150 1188 01       		.uleb128 0x1
 7151 1189 53       		.byte	0x53
 7152 118a 02       		.uleb128 0x2
 7153 118b 76       		.byte	0x76
 7154 118c 00       		.sleb128 0
 7155 118d 11       		.uleb128 0x11
 7156 118e 02       		.uleb128 0x2
 7157 118f 7D       		.byte	0x7d
 7158 1190 00       		.sleb128 0
 7159 1191 02       		.uleb128 0x2
 7160 1192 74       		.byte	0x74
 7161 1193 00       		.sleb128 0
 7162 1194 00       		.byte	0
 7163 1195 15       		.uleb128 0x15
 7164 1196 AA000000 		.4byte	.LVL306
 7165 119a 08040000 		.4byte	0x408
 7166 119e 00       		.byte	0
 7167 119f 1B       		.uleb128 0x1b
 7168 11a0 CC030000 		.4byte	.LASF61
 7169 11a4 01       		.byte	0x1
ARM GAS  C:\Users\USUARIO\AppData\Local\Temp\ccywmqVe.s 			page 143


 7170 11a5 B102     		.2byte	0x2b1
 7171 11a7 00000000 		.4byte	.LFB78
 7172 11ab 34020000 		.4byte	.LFE78-.LFB78
 7173 11af 01       		.uleb128 0x1
 7174 11b0 9C       		.byte	0x9c
 7175 11b1 3B160000 		.4byte	0x163b
 7176 11b5 19       		.uleb128 0x19
 7177 11b6 68020000 		.4byte	.LASF58
 7178 11ba 01       		.byte	0x1
 7179 11bb B102     		.2byte	0x2b1
 7180 11bd EA000000 		.4byte	0xea
 7181 11c1 4E0E0000 		.4byte	.LLST73
 7182 11c5 19       		.uleb128 0x19
 7183 11c6 4A010000 		.4byte	.LASF62
 7184 11ca 01       		.byte	0x1
 7185 11cb B102     		.2byte	0x2b1
 7186 11cd AA000000 		.4byte	0xaa
 7187 11d1 7B0E0000 		.4byte	.LLST74
 7188 11d5 1C       		.uleb128 0x1c
 7189 11d6 7800     		.ascii	"x\000"
 7190 11d8 01       		.byte	0x1
 7191 11d9 B102     		.2byte	0x2b1
 7192 11db 9E000000 		.4byte	0x9e
 7193 11df 9C0E0000 		.4byte	.LLST75
 7194 11e3 1C       		.uleb128 0x1c
 7195 11e4 7900     		.ascii	"y\000"
 7196 11e6 01       		.byte	0x1
 7197 11e7 B102     		.2byte	0x2b1
 7198 11e9 9E000000 		.4byte	0x9e
 7199 11ed BD0E0000 		.4byte	.LLST76
 7200 11f1 19       		.uleb128 0x19
 7201 11f2 F9000000 		.4byte	.LASF59
 7202 11f6 01       		.byte	0x1
 7203 11f7 B102     		.2byte	0x2b1
 7204 11f9 45000000 		.4byte	0x45
 7205 11fd DE0E0000 		.4byte	.LLST77
 7206 1201 19       		.uleb128 0x19
 7207 1202 24030000 		.4byte	.LASF60
 7208 1206 01       		.byte	0x1
 7209 1207 B102     		.2byte	0x2b1
 7210 1209 45000000 		.4byte	0x45
 7211 120d FE0E0000 		.4byte	.LLST78
 7212 1211 1A       		.uleb128 0x1a
 7213 1212 53000000 		.4byte	.LASF63
 7214 1216 01       		.byte	0x1
 7215 1217 B302     		.2byte	0x2b3
 7216 1219 3B160000 		.4byte	0x163b
 7217 121d 02       		.uleb128 0x2
 7218 121e 91       		.byte	0x91
 7219 121f 4C       		.sleb128 -52
 7220 1220 10       		.uleb128 0x10
 7221 1221 24000000 		.4byte	.LVL312
 7222 1225 B5230000 		.4byte	0x23b5
 7223 1229 44120000 		.4byte	0x1244
 7224 122d 11       		.uleb128 0x11
 7225 122e 01       		.uleb128 0x1
 7226 122f 50       		.byte	0x50
ARM GAS  C:\Users\USUARIO\AppData\Local\Temp\ccywmqVe.s 			page 144


 7227 1230 02       		.uleb128 0x2
 7228 1231 91       		.byte	0x91
 7229 1232 4C       		.sleb128 -52
 7230 1233 11       		.uleb128 0x11
 7231 1234 01       		.uleb128 0x1
 7232 1235 51       		.byte	0x51
 7233 1236 05       		.uleb128 0x5
 7234 1237 03       		.byte	0x3
 7235 1238 00000000 		.4byte	.LC0
 7236 123c 11       		.uleb128 0x11
 7237 123d 01       		.uleb128 0x1
 7238 123e 52       		.byte	0x52
 7239 123f 03       		.uleb128 0x3
 7240 1240 91       		.byte	0x91
 7241 1241 40       		.sleb128 -64
 7242 1242 06       		.byte	0x6
 7243 1243 00       		.byte	0
 7244 1244 10       		.uleb128 0x10
 7245 1245 40000000 		.4byte	.LVL313
 7246 1249 60090000 		.4byte	0x960
 7247 124d 7A120000 		.4byte	0x127a
 7248 1251 11       		.uleb128 0x11
 7249 1252 01       		.uleb128 0x1
 7250 1253 50       		.byte	0x50
 7251 1254 01       		.uleb128 0x1
 7252 1255 30       		.byte	0x30
 7253 1256 11       		.uleb128 0x11
 7254 1257 01       		.uleb128 0x1
 7255 1258 51       		.byte	0x51
 7256 1259 02       		.uleb128 0x2
 7257 125a 75       		.byte	0x75
 7258 125b 7E       		.sleb128 -2
 7259 125c 11       		.uleb128 0x11
 7260 125d 01       		.uleb128 0x1
 7261 125e 52       		.byte	0x52
 7262 125f 02       		.uleb128 0x2
 7263 1260 08       		.byte	0x8
 7264 1261 7F       		.byte	0x7f
 7265 1262 11       		.uleb128 0x11
 7266 1263 01       		.uleb128 0x1
 7267 1264 53       		.byte	0x53
 7268 1265 07       		.uleb128 0x7
 7269 1266 79       		.byte	0x79
 7270 1267 00       		.sleb128 0
 7271 1268 33       		.byte	0x33
 7272 1269 24       		.byte	0x24
 7273 126a 75       		.byte	0x75
 7274 126b 00       		.sleb128 0
 7275 126c 22       		.byte	0x22
 7276 126d 11       		.uleb128 0x11
 7277 126e 02       		.uleb128 0x2
 7278 126f 7D       		.byte	0x7d
 7279 1270 00       		.sleb128 0
 7280 1271 01       		.uleb128 0x1
 7281 1272 31       		.byte	0x31
 7282 1273 11       		.uleb128 0x11
 7283 1274 02       		.uleb128 0x2
ARM GAS  C:\Users\USUARIO\AppData\Local\Temp\ccywmqVe.s 			page 145


 7284 1275 7D       		.byte	0x7d
 7285 1276 04       		.sleb128 4
 7286 1277 01       		.uleb128 0x1
 7287 1278 31       		.byte	0x31
 7288 1279 00       		.byte	0
 7289 127a 10       		.uleb128 0x10
 7290 127b 4C000000 		.4byte	.LVL314
 7291 127f AA230000 		.4byte	0x23aa
 7292 1283 96120000 		.4byte	0x1296
 7293 1287 11       		.uleb128 0x11
 7294 1288 01       		.uleb128 0x1
 7295 1289 50       		.byte	0x50
 7296 128a 02       		.uleb128 0x2
 7297 128b 7A       		.byte	0x7a
 7298 128c 00       		.sleb128 0
 7299 128d 11       		.uleb128 0x11
 7300 128e 01       		.uleb128 0x1
 7301 128f 51       		.byte	0x51
 7302 1290 04       		.uleb128 0x4
 7303 1291 91       		.byte	0x91
 7304 1292 BC7F     		.sleb128 -68
 7305 1294 06       		.byte	0x6
 7306 1295 00       		.byte	0
 7307 1296 10       		.uleb128 0x10
 7308 1297 6C000000 		.4byte	.LVL315
 7309 129b 030F0000 		.4byte	0xf03
 7310 129f C4120000 		.4byte	0x12c4
 7311 12a3 11       		.uleb128 0x11
 7312 12a4 01       		.uleb128 0x1
 7313 12a5 50       		.byte	0x50
 7314 12a6 03       		.uleb128 0x3
 7315 12a7 76       		.byte	0x76
 7316 12a8 DA00     		.sleb128 90
 7317 12aa 11       		.uleb128 0x11
 7318 12ab 01       		.uleb128 0x1
 7319 12ac 51       		.byte	0x51
 7320 12ad 02       		.uleb128 0x2
 7321 12ae 78       		.byte	0x78
 7322 12af 00       		.sleb128 0
 7323 12b0 11       		.uleb128 0x11
 7324 12b1 01       		.uleb128 0x1
 7325 12b2 52       		.byte	0x52
 7326 12b3 02       		.uleb128 0x2
 7327 12b4 91       		.byte	0x91
 7328 12b5 4C       		.sleb128 -52
 7329 12b6 11       		.uleb128 0x11
 7330 12b7 01       		.uleb128 0x1
 7331 12b8 53       		.byte	0x53
 7332 12b9 02       		.uleb128 0x2
 7333 12ba 79       		.byte	0x79
 7334 12bb 00       		.sleb128 0
 7335 12bc 11       		.uleb128 0x11
 7336 12bd 02       		.uleb128 0x2
 7337 12be 7D       		.byte	0x7d
 7338 12bf 00       		.sleb128 0
 7339 12c0 02       		.uleb128 0x2
 7340 12c1 7B       		.byte	0x7b
ARM GAS  C:\Users\USUARIO\AppData\Local\Temp\ccywmqVe.s 			page 146


 7341 12c2 00       		.sleb128 0
 7342 12c3 00       		.byte	0
 7343 12c4 10       		.uleb128 0x10
 7344 12c5 7E000000 		.4byte	.LVL316
 7345 12c9 030F0000 		.4byte	0xf03
 7346 12cd F1120000 		.4byte	0x12f1
 7347 12d1 11       		.uleb128 0x11
 7348 12d2 01       		.uleb128 0x1
 7349 12d3 50       		.byte	0x50
 7350 12d4 02       		.uleb128 0x2
 7351 12d5 76       		.byte	0x76
 7352 12d6 01       		.sleb128 1
 7353 12d7 11       		.uleb128 0x11
 7354 12d8 01       		.uleb128 0x1
 7355 12d9 51       		.byte	0x51
 7356 12da 02       		.uleb128 0x2
 7357 12db 78       		.byte	0x78
 7358 12dc 00       		.sleb128 0
 7359 12dd 11       		.uleb128 0x11
 7360 12de 01       		.uleb128 0x1
 7361 12df 52       		.byte	0x52
 7362 12e0 02       		.uleb128 0x2
 7363 12e1 7A       		.byte	0x7a
 7364 12e2 00       		.sleb128 0
 7365 12e3 11       		.uleb128 0x11
 7366 12e4 01       		.uleb128 0x1
 7367 12e5 53       		.byte	0x53
 7368 12e6 02       		.uleb128 0x2
 7369 12e7 79       		.byte	0x79
 7370 12e8 00       		.sleb128 0
 7371 12e9 11       		.uleb128 0x11
 7372 12ea 02       		.uleb128 0x2
 7373 12eb 7D       		.byte	0x7d
 7374 12ec 00       		.sleb128 0
 7375 12ed 02       		.uleb128 0x2
 7376 12ee 7B       		.byte	0x7b
 7377 12ef 00       		.sleb128 0
 7378 12f0 00       		.byte	0
 7379 12f1 10       		.uleb128 0x10
 7380 12f2 8C000000 		.4byte	.LVL317
 7381 12f6 B5230000 		.4byte	0x23b5
 7382 12fa 15130000 		.4byte	0x1315
 7383 12fe 11       		.uleb128 0x11
 7384 12ff 01       		.uleb128 0x1
 7385 1300 50       		.byte	0x50
 7386 1301 02       		.uleb128 0x2
 7387 1302 91       		.byte	0x91
 7388 1303 4C       		.sleb128 -52
 7389 1304 11       		.uleb128 0x11
 7390 1305 01       		.uleb128 0x1
 7391 1306 51       		.byte	0x51
 7392 1307 05       		.uleb128 0x5
 7393 1308 03       		.byte	0x3
 7394 1309 00000000 		.4byte	.LC0
 7395 130d 11       		.uleb128 0x11
 7396 130e 01       		.uleb128 0x1
 7397 130f 52       		.byte	0x52
ARM GAS  C:\Users\USUARIO\AppData\Local\Temp\ccywmqVe.s 			page 147


 7398 1310 03       		.uleb128 0x3
 7399 1311 91       		.byte	0x91
 7400 1312 40       		.sleb128 -64
 7401 1313 06       		.byte	0x6
 7402 1314 00       		.byte	0
 7403 1315 10       		.uleb128 0x10
 7404 1316 AC000000 		.4byte	.LVL318
 7405 131a 60090000 		.4byte	0x960
 7406 131e 4C130000 		.4byte	0x134c
 7407 1322 11       		.uleb128 0x11
 7408 1323 01       		.uleb128 0x1
 7409 1324 50       		.byte	0x50
 7410 1325 01       		.uleb128 0x1
 7411 1326 30       		.byte	0x30
 7412 1327 11       		.uleb128 0x11
 7413 1328 01       		.uleb128 0x1
 7414 1329 51       		.byte	0x51
 7415 132a 02       		.uleb128 0x2
 7416 132b 75       		.byte	0x75
 7417 132c 7E       		.sleb128 -2
 7418 132d 11       		.uleb128 0x11
 7419 132e 01       		.uleb128 0x1
 7420 132f 52       		.byte	0x52
 7421 1330 02       		.uleb128 0x2
 7422 1331 08       		.byte	0x8
 7423 1332 7F       		.byte	0x7f
 7424 1333 11       		.uleb128 0x11
 7425 1334 01       		.uleb128 0x1
 7426 1335 53       		.byte	0x53
 7427 1336 07       		.uleb128 0x7
 7428 1337 79       		.byte	0x79
 7429 1338 00       		.sleb128 0
 7430 1339 33       		.byte	0x33
 7431 133a 24       		.byte	0x24
 7432 133b 75       		.byte	0x75
 7433 133c 00       		.sleb128 0
 7434 133d 22       		.byte	0x22
 7435 133e 11       		.uleb128 0x11
 7436 133f 02       		.uleb128 0x2
 7437 1340 7D       		.byte	0x7d
 7438 1341 00       		.sleb128 0
 7439 1342 02       		.uleb128 0x2
 7440 1343 7A       		.byte	0x7a
 7441 1344 00       		.sleb128 0
 7442 1345 11       		.uleb128 0x11
 7443 1346 02       		.uleb128 0x2
 7444 1347 7D       		.byte	0x7d
 7445 1348 04       		.sleb128 4
 7446 1349 01       		.uleb128 0x1
 7447 134a 30       		.byte	0x30
 7448 134b 00       		.byte	0
 7449 134c 10       		.uleb128 0x10
 7450 134d B8000000 		.4byte	.LVL319
 7451 1351 AA230000 		.4byte	0x23aa
 7452 1355 68130000 		.4byte	0x1368
 7453 1359 11       		.uleb128 0x11
 7454 135a 01       		.uleb128 0x1
ARM GAS  C:\Users\USUARIO\AppData\Local\Temp\ccywmqVe.s 			page 148


 7455 135b 50       		.byte	0x50
 7456 135c 02       		.uleb128 0x2
 7457 135d 7B       		.byte	0x7b
 7458 135e 00       		.sleb128 0
 7459 135f 11       		.uleb128 0x11
 7460 1360 01       		.uleb128 0x1
 7461 1361 51       		.byte	0x51
 7462 1362 04       		.uleb128 0x4
 7463 1363 91       		.byte	0x91
 7464 1364 BC7F     		.sleb128 -68
 7465 1366 06       		.byte	0x6
 7466 1367 00       		.byte	0
 7467 1368 10       		.uleb128 0x10
 7468 1369 D4000000 		.4byte	.LVL320
 7469 136d 030F0000 		.4byte	0xf03
 7470 1371 96130000 		.4byte	0x1396
 7471 1375 11       		.uleb128 0x11
 7472 1376 01       		.uleb128 0x1
 7473 1377 50       		.byte	0x50
 7474 1378 03       		.uleb128 0x3
 7475 1379 76       		.byte	0x76
 7476 137a DA00     		.sleb128 90
 7477 137c 11       		.uleb128 0x11
 7478 137d 01       		.uleb128 0x1
 7479 137e 51       		.byte	0x51
 7480 137f 02       		.uleb128 0x2
 7481 1380 78       		.byte	0x78
 7482 1381 00       		.sleb128 0
 7483 1382 11       		.uleb128 0x11
 7484 1383 01       		.uleb128 0x1
 7485 1384 52       		.byte	0x52
 7486 1385 02       		.uleb128 0x2
 7487 1386 91       		.byte	0x91
 7488 1387 4C       		.sleb128 -52
 7489 1388 11       		.uleb128 0x11
 7490 1389 01       		.uleb128 0x1
 7491 138a 53       		.byte	0x53
 7492 138b 02       		.uleb128 0x2
 7493 138c 79       		.byte	0x79
 7494 138d 00       		.sleb128 0
 7495 138e 11       		.uleb128 0x11
 7496 138f 02       		.uleb128 0x2
 7497 1390 7D       		.byte	0x7d
 7498 1391 00       		.sleb128 0
 7499 1392 02       		.uleb128 0x2
 7500 1393 7A       		.byte	0x7a
 7501 1394 00       		.sleb128 0
 7502 1395 00       		.byte	0
 7503 1396 10       		.uleb128 0x10
 7504 1397 E8000000 		.4byte	.LVL321
 7505 139b 030F0000 		.4byte	0xf03
 7506 139f C6130000 		.4byte	0x13c6
 7507 13a3 11       		.uleb128 0x11
 7508 13a4 01       		.uleb128 0x1
 7509 13a5 50       		.byte	0x50
 7510 13a6 05       		.uleb128 0x5
 7511 13a7 76       		.byte	0x76
ARM GAS  C:\Users\USUARIO\AppData\Local\Temp\ccywmqVe.s 			page 149


 7512 13a8 00       		.sleb128 0
 7513 13a9 7A       		.byte	0x7a
 7514 13aa 00       		.sleb128 0
 7515 13ab 22       		.byte	0x22
 7516 13ac 11       		.uleb128 0x11
 7517 13ad 01       		.uleb128 0x1
 7518 13ae 51       		.byte	0x51
 7519 13af 02       		.uleb128 0x2
 7520 13b0 78       		.byte	0x78
 7521 13b1 00       		.sleb128 0
 7522 13b2 11       		.uleb128 0x11
 7523 13b3 01       		.uleb128 0x1
 7524 13b4 52       		.byte	0x52
 7525 13b5 02       		.uleb128 0x2
 7526 13b6 7B       		.byte	0x7b
 7527 13b7 00       		.sleb128 0
 7528 13b8 11       		.uleb128 0x11
 7529 13b9 01       		.uleb128 0x1
 7530 13ba 53       		.byte	0x53
 7531 13bb 02       		.uleb128 0x2
 7532 13bc 79       		.byte	0x79
 7533 13bd 00       		.sleb128 0
 7534 13be 11       		.uleb128 0x11
 7535 13bf 02       		.uleb128 0x2
 7536 13c0 7D       		.byte	0x7d
 7537 13c1 00       		.sleb128 0
 7538 13c2 02       		.uleb128 0x2
 7539 13c3 7A       		.byte	0x7a
 7540 13c4 00       		.sleb128 0
 7541 13c5 00       		.byte	0
 7542 13c6 10       		.uleb128 0x10
 7543 13c7 F6000000 		.4byte	.LVL322
 7544 13cb B5230000 		.4byte	0x23b5
 7545 13cf EA130000 		.4byte	0x13ea
 7546 13d3 11       		.uleb128 0x11
 7547 13d4 01       		.uleb128 0x1
 7548 13d5 50       		.byte	0x50
 7549 13d6 02       		.uleb128 0x2
 7550 13d7 91       		.byte	0x91
 7551 13d8 4C       		.sleb128 -52
 7552 13d9 11       		.uleb128 0x11
 7553 13da 01       		.uleb128 0x1
 7554 13db 51       		.byte	0x51
 7555 13dc 05       		.uleb128 0x5
 7556 13dd 03       		.byte	0x3
 7557 13de 08000000 		.4byte	.LC1
 7558 13e2 11       		.uleb128 0x11
 7559 13e3 01       		.uleb128 0x1
 7560 13e4 52       		.byte	0x52
 7561 13e5 03       		.uleb128 0x3
 7562 13e6 91       		.byte	0x91
 7563 13e7 40       		.sleb128 -64
 7564 13e8 06       		.byte	0x6
 7565 13e9 00       		.byte	0
 7566 13ea 10       		.uleb128 0x10
 7567 13eb 18010000 		.4byte	.LVL323
 7568 13ef 60090000 		.4byte	0x960
ARM GAS  C:\Users\USUARIO\AppData\Local\Temp\ccywmqVe.s 			page 150


 7569 13f3 22140000 		.4byte	0x1422
 7570 13f7 11       		.uleb128 0x11
 7571 13f8 01       		.uleb128 0x1
 7572 13f9 50       		.byte	0x50
 7573 13fa 01       		.uleb128 0x1
 7574 13fb 30       		.byte	0x30
 7575 13fc 11       		.uleb128 0x11
 7576 13fd 01       		.uleb128 0x1
 7577 13fe 51       		.byte	0x51
 7578 13ff 02       		.uleb128 0x2
 7579 1400 75       		.byte	0x75
 7580 1401 7E       		.sleb128 -2
 7581 1402 11       		.uleb128 0x11
 7582 1403 01       		.uleb128 0x1
 7583 1404 52       		.byte	0x52
 7584 1405 02       		.uleb128 0x2
 7585 1406 08       		.byte	0x8
 7586 1407 7F       		.byte	0x7f
 7587 1408 11       		.uleb128 0x11
 7588 1409 01       		.uleb128 0x1
 7589 140a 53       		.byte	0x53
 7590 140b 07       		.uleb128 0x7
 7591 140c 79       		.byte	0x79
 7592 140d 00       		.sleb128 0
 7593 140e 33       		.byte	0x33
 7594 140f 24       		.byte	0x24
 7595 1410 75       		.byte	0x75
 7596 1411 00       		.sleb128 0
 7597 1412 22       		.byte	0x22
 7598 1413 11       		.uleb128 0x11
 7599 1414 02       		.uleb128 0x2
 7600 1415 7D       		.byte	0x7d
 7601 1416 00       		.sleb128 0
 7602 1417 02       		.uleb128 0x2
 7603 1418 7A       		.byte	0x7a
 7604 1419 00       		.sleb128 0
 7605 141a 11       		.uleb128 0x11
 7606 141b 02       		.uleb128 0x2
 7607 141c 7D       		.byte	0x7d
 7608 141d 04       		.sleb128 4
 7609 141e 02       		.uleb128 0x2
 7610 141f 7A       		.byte	0x7a
 7611 1420 00       		.sleb128 0
 7612 1421 00       		.byte	0
 7613 1422 10       		.uleb128 0x10
 7614 1423 24010000 		.4byte	.LVL324
 7615 1427 AA230000 		.4byte	0x23aa
 7616 142b 3E140000 		.4byte	0x143e
 7617 142f 11       		.uleb128 0x11
 7618 1430 01       		.uleb128 0x1
 7619 1431 50       		.byte	0x50
 7620 1432 02       		.uleb128 0x2
 7621 1433 7B       		.byte	0x7b
 7622 1434 00       		.sleb128 0
 7623 1435 11       		.uleb128 0x11
 7624 1436 01       		.uleb128 0x1
 7625 1437 51       		.byte	0x51
ARM GAS  C:\Users\USUARIO\AppData\Local\Temp\ccywmqVe.s 			page 151


 7626 1438 04       		.uleb128 0x4
 7627 1439 91       		.byte	0x91
 7628 143a BC7F     		.sleb128 -68
 7629 143c 06       		.byte	0x6
 7630 143d 00       		.byte	0
 7631 143e 10       		.uleb128 0x10
 7632 143f 44010000 		.4byte	.LVL325
 7633 1443 030F0000 		.4byte	0xf03
 7634 1447 6E140000 		.4byte	0x146e
 7635 144b 11       		.uleb128 0x11
 7636 144c 01       		.uleb128 0x1
 7637 144d 50       		.byte	0x50
 7638 144e 03       		.uleb128 0x3
 7639 144f 76       		.byte	0x76
 7640 1450 DA00     		.sleb128 90
 7641 1452 11       		.uleb128 0x11
 7642 1453 01       		.uleb128 0x1
 7643 1454 51       		.byte	0x51
 7644 1455 04       		.uleb128 0x4
 7645 1456 91       		.byte	0x91
 7646 1457 44       		.sleb128 -60
 7647 1458 94       		.byte	0x94
 7648 1459 01       		.byte	0x1
 7649 145a 11       		.uleb128 0x11
 7650 145b 01       		.uleb128 0x1
 7651 145c 52       		.byte	0x52
 7652 145d 02       		.uleb128 0x2
 7653 145e 91       		.byte	0x91
 7654 145f 4C       		.sleb128 -52
 7655 1460 11       		.uleb128 0x11
 7656 1461 01       		.uleb128 0x1
 7657 1462 53       		.byte	0x53
 7658 1463 02       		.uleb128 0x2
 7659 1464 79       		.byte	0x79
 7660 1465 00       		.sleb128 0
 7661 1466 11       		.uleb128 0x11
 7662 1467 02       		.uleb128 0x2
 7663 1468 7D       		.byte	0x7d
 7664 1469 00       		.sleb128 0
 7665 146a 02       		.uleb128 0x2
 7666 146b 78       		.byte	0x78
 7667 146c 00       		.sleb128 0
 7668 146d 00       		.byte	0
 7669 146e 10       		.uleb128 0x10
 7670 146f 58010000 		.4byte	.LVL326
 7671 1473 030F0000 		.4byte	0xf03
 7672 1477 A0140000 		.4byte	0x14a0
 7673 147b 11       		.uleb128 0x11
 7674 147c 01       		.uleb128 0x1
 7675 147d 50       		.byte	0x50
 7676 147e 05       		.uleb128 0x5
 7677 147f 76       		.byte	0x76
 7678 1480 00       		.sleb128 0
 7679 1481 7A       		.byte	0x7a
 7680 1482 00       		.sleb128 0
 7681 1483 22       		.byte	0x22
 7682 1484 11       		.uleb128 0x11
ARM GAS  C:\Users\USUARIO\AppData\Local\Temp\ccywmqVe.s 			page 152


 7683 1485 01       		.uleb128 0x1
 7684 1486 51       		.byte	0x51
 7685 1487 04       		.uleb128 0x4
 7686 1488 91       		.byte	0x91
 7687 1489 44       		.sleb128 -60
 7688 148a 94       		.byte	0x94
 7689 148b 01       		.byte	0x1
 7690 148c 11       		.uleb128 0x11
 7691 148d 01       		.uleb128 0x1
 7692 148e 52       		.byte	0x52
 7693 148f 02       		.uleb128 0x2
 7694 1490 7B       		.byte	0x7b
 7695 1491 00       		.sleb128 0
 7696 1492 11       		.uleb128 0x11
 7697 1493 01       		.uleb128 0x1
 7698 1494 53       		.byte	0x53
 7699 1495 02       		.uleb128 0x2
 7700 1496 79       		.byte	0x79
 7701 1497 00       		.sleb128 0
 7702 1498 11       		.uleb128 0x11
 7703 1499 02       		.uleb128 0x2
 7704 149a 7D       		.byte	0x7d
 7705 149b 00       		.sleb128 0
 7706 149c 02       		.uleb128 0x2
 7707 149d 78       		.byte	0x78
 7708 149e 00       		.sleb128 0
 7709 149f 00       		.byte	0
 7710 14a0 10       		.uleb128 0x10
 7711 14a1 74010000 		.4byte	.LVL327
 7712 14a5 030F0000 		.4byte	0xf03
 7713 14a9 D0140000 		.4byte	0x14d0
 7714 14ad 11       		.uleb128 0x11
 7715 14ae 01       		.uleb128 0x1
 7716 14af 50       		.byte	0x50
 7717 14b0 03       		.uleb128 0x3
 7718 14b1 76       		.byte	0x76
 7719 14b2 F800     		.sleb128 120
 7720 14b4 11       		.uleb128 0x11
 7721 14b5 01       		.uleb128 0x1
 7722 14b6 51       		.byte	0x51
 7723 14b7 04       		.uleb128 0x4
 7724 14b8 91       		.byte	0x91
 7725 14b9 44       		.sleb128 -60
 7726 14ba 94       		.byte	0x94
 7727 14bb 01       		.byte	0x1
 7728 14bc 11       		.uleb128 0x11
 7729 14bd 01       		.uleb128 0x1
 7730 14be 52       		.byte	0x52
 7731 14bf 02       		.uleb128 0x2
 7732 14c0 7B       		.byte	0x7b
 7733 14c1 00       		.sleb128 0
 7734 14c2 11       		.uleb128 0x11
 7735 14c3 01       		.uleb128 0x1
 7736 14c4 53       		.byte	0x53
 7737 14c5 02       		.uleb128 0x2
 7738 14c6 79       		.byte	0x79
 7739 14c7 00       		.sleb128 0
ARM GAS  C:\Users\USUARIO\AppData\Local\Temp\ccywmqVe.s 			page 153


 7740 14c8 11       		.uleb128 0x11
 7741 14c9 02       		.uleb128 0x2
 7742 14ca 7D       		.byte	0x7d
 7743 14cb 00       		.sleb128 0
 7744 14cc 02       		.uleb128 0x2
 7745 14cd 78       		.byte	0x78
 7746 14ce 00       		.sleb128 0
 7747 14cf 00       		.byte	0
 7748 14d0 10       		.uleb128 0x10
 7749 14d1 8A010000 		.4byte	.LVL328
 7750 14d5 A70C0000 		.4byte	0xca7
 7751 14d9 FE140000 		.4byte	0x14fe
 7752 14dd 11       		.uleb128 0x11
 7753 14de 01       		.uleb128 0x1
 7754 14df 50       		.byte	0x50
 7755 14e0 03       		.uleb128 0x3
 7756 14e1 76       		.byte	0x76
 7757 14e2 F300     		.sleb128 115
 7758 14e4 11       		.uleb128 0x11
 7759 14e5 01       		.uleb128 0x1
 7760 14e6 51       		.byte	0x51
 7761 14e7 02       		.uleb128 0x2
 7762 14e8 75       		.byte	0x75
 7763 14e9 7F       		.sleb128 -1
 7764 14ea 11       		.uleb128 0x11
 7765 14eb 01       		.uleb128 0x1
 7766 14ec 52       		.byte	0x52
 7767 14ed 02       		.uleb128 0x2
 7768 14ee 7A       		.byte	0x7a
 7769 14ef 00       		.sleb128 0
 7770 14f0 11       		.uleb128 0x11
 7771 14f1 01       		.uleb128 0x1
 7772 14f2 53       		.byte	0x53
 7773 14f3 02       		.uleb128 0x2
 7774 14f4 78       		.byte	0x78
 7775 14f5 00       		.sleb128 0
 7776 14f6 11       		.uleb128 0x11
 7777 14f7 02       		.uleb128 0x2
 7778 14f8 7D       		.byte	0x7d
 7779 14f9 00       		.sleb128 0
 7780 14fa 02       		.uleb128 0x2
 7781 14fb 78       		.byte	0x78
 7782 14fc 00       		.sleb128 0
 7783 14fd 00       		.byte	0
 7784 14fe 10       		.uleb128 0x10
 7785 14ff 98010000 		.4byte	.LVL329
 7786 1503 B5230000 		.4byte	0x23b5
 7787 1507 22150000 		.4byte	0x1522
 7788 150b 11       		.uleb128 0x11
 7789 150c 01       		.uleb128 0x1
 7790 150d 50       		.byte	0x50
 7791 150e 02       		.uleb128 0x2
 7792 150f 91       		.byte	0x91
 7793 1510 4C       		.sleb128 -52
 7794 1511 11       		.uleb128 0x11
 7795 1512 01       		.uleb128 0x1
 7796 1513 51       		.byte	0x51
ARM GAS  C:\Users\USUARIO\AppData\Local\Temp\ccywmqVe.s 			page 154


 7797 1514 05       		.uleb128 0x5
 7798 1515 03       		.byte	0x3
 7799 1516 08000000 		.4byte	.LC1
 7800 151a 11       		.uleb128 0x11
 7801 151b 01       		.uleb128 0x1
 7802 151c 52       		.byte	0x52
 7803 151d 03       		.uleb128 0x3
 7804 151e 91       		.byte	0x91
 7805 151f 40       		.sleb128 -64
 7806 1520 06       		.byte	0x6
 7807 1521 00       		.byte	0
 7808 1522 10       		.uleb128 0x10
 7809 1523 B6010000 		.4byte	.LVL330
 7810 1527 60090000 		.4byte	0x960
 7811 152b 5B150000 		.4byte	0x155b
 7812 152f 11       		.uleb128 0x11
 7813 1530 01       		.uleb128 0x1
 7814 1531 50       		.byte	0x50
 7815 1532 02       		.uleb128 0x2
 7816 1533 77       		.byte	0x77
 7817 1534 00       		.sleb128 0
 7818 1535 11       		.uleb128 0x11
 7819 1536 01       		.uleb128 0x1
 7820 1537 51       		.byte	0x51
 7821 1538 02       		.uleb128 0x2
 7822 1539 75       		.byte	0x75
 7823 153a 7E       		.sleb128 -2
 7824 153b 11       		.uleb128 0x11
 7825 153c 01       		.uleb128 0x1
 7826 153d 52       		.byte	0x52
 7827 153e 02       		.uleb128 0x2
 7828 153f 08       		.byte	0x8
 7829 1540 7F       		.byte	0x7f
 7830 1541 11       		.uleb128 0x11
 7831 1542 01       		.uleb128 0x1
 7832 1543 53       		.byte	0x53
 7833 1544 07       		.uleb128 0x7
 7834 1545 7A       		.byte	0x7a
 7835 1546 00       		.sleb128 0
 7836 1547 33       		.byte	0x33
 7837 1548 24       		.byte	0x24
 7838 1549 75       		.byte	0x75
 7839 154a 00       		.sleb128 0
 7840 154b 22       		.byte	0x22
 7841 154c 11       		.uleb128 0x11
 7842 154d 02       		.uleb128 0x2
 7843 154e 7D       		.byte	0x7d
 7844 154f 00       		.sleb128 0
 7845 1550 02       		.uleb128 0x2
 7846 1551 74       		.byte	0x74
 7847 1552 00       		.sleb128 0
 7848 1553 11       		.uleb128 0x11
 7849 1554 02       		.uleb128 0x2
 7850 1555 7D       		.byte	0x7d
 7851 1556 04       		.sleb128 4
 7852 1557 02       		.uleb128 0x2
 7853 1558 77       		.byte	0x77
ARM GAS  C:\Users\USUARIO\AppData\Local\Temp\ccywmqVe.s 			page 155


 7854 1559 00       		.sleb128 0
 7855 155a 00       		.byte	0
 7856 155b 10       		.uleb128 0x10
 7857 155c C2010000 		.4byte	.LVL331
 7858 1560 AA230000 		.4byte	0x23aa
 7859 1564 77150000 		.4byte	0x1577
 7860 1568 11       		.uleb128 0x11
 7861 1569 01       		.uleb128 0x1
 7862 156a 50       		.byte	0x50
 7863 156b 02       		.uleb128 0x2
 7864 156c 79       		.byte	0x79
 7865 156d 00       		.sleb128 0
 7866 156e 11       		.uleb128 0x11
 7867 156f 01       		.uleb128 0x1
 7868 1570 51       		.byte	0x51
 7869 1571 04       		.uleb128 0x4
 7870 1572 91       		.byte	0x91
 7871 1573 BC7F     		.sleb128 -68
 7872 1575 06       		.byte	0x6
 7873 1576 00       		.byte	0
 7874 1577 10       		.uleb128 0x10
 7875 1578 DC010000 		.4byte	.LVL332
 7876 157c 030F0000 		.4byte	0xf03
 7877 1580 A5150000 		.4byte	0x15a5
 7878 1584 11       		.uleb128 0x11
 7879 1585 01       		.uleb128 0x1
 7880 1586 50       		.byte	0x50
 7881 1587 03       		.uleb128 0x3
 7882 1588 76       		.byte	0x76
 7883 1589 DA00     		.sleb128 90
 7884 158b 11       		.uleb128 0x11
 7885 158c 01       		.uleb128 0x1
 7886 158d 51       		.byte	0x51
 7887 158e 02       		.uleb128 0x2
 7888 158f 78       		.byte	0x78
 7889 1590 00       		.sleb128 0
 7890 1591 11       		.uleb128 0x11
 7891 1592 01       		.uleb128 0x1
 7892 1593 52       		.byte	0x52
 7893 1594 02       		.uleb128 0x2
 7894 1595 91       		.byte	0x91
 7895 1596 4C       		.sleb128 -52
 7896 1597 11       		.uleb128 0x11
 7897 1598 01       		.uleb128 0x1
 7898 1599 53       		.byte	0x53
 7899 159a 02       		.uleb128 0x2
 7900 159b 7A       		.byte	0x7a
 7901 159c 00       		.sleb128 0
 7902 159d 11       		.uleb128 0x11
 7903 159e 02       		.uleb128 0x2
 7904 159f 7D       		.byte	0x7d
 7905 15a0 00       		.sleb128 0
 7906 15a1 02       		.uleb128 0x2
 7907 15a2 74       		.byte	0x74
 7908 15a3 00       		.sleb128 0
 7909 15a4 00       		.byte	0
 7910 15a5 10       		.uleb128 0x10
ARM GAS  C:\Users\USUARIO\AppData\Local\Temp\ccywmqVe.s 			page 156


 7911 15a6 EC010000 		.4byte	.LVL333
 7912 15aa 030F0000 		.4byte	0xf03
 7913 15ae D5150000 		.4byte	0x15d5
 7914 15b2 11       		.uleb128 0x11
 7915 15b3 01       		.uleb128 0x1
 7916 15b4 50       		.byte	0x50
 7917 15b5 05       		.uleb128 0x5
 7918 15b6 76       		.byte	0x76
 7919 15b7 00       		.sleb128 0
 7920 15b8 74       		.byte	0x74
 7921 15b9 00       		.sleb128 0
 7922 15ba 22       		.byte	0x22
 7923 15bb 11       		.uleb128 0x11
 7924 15bc 01       		.uleb128 0x1
 7925 15bd 51       		.byte	0x51
 7926 15be 02       		.uleb128 0x2
 7927 15bf 78       		.byte	0x78
 7928 15c0 00       		.sleb128 0
 7929 15c1 11       		.uleb128 0x11
 7930 15c2 01       		.uleb128 0x1
 7931 15c3 52       		.byte	0x52
 7932 15c4 02       		.uleb128 0x2
 7933 15c5 79       		.byte	0x79
 7934 15c6 00       		.sleb128 0
 7935 15c7 11       		.uleb128 0x11
 7936 15c8 01       		.uleb128 0x1
 7937 15c9 53       		.byte	0x53
 7938 15ca 02       		.uleb128 0x2
 7939 15cb 7A       		.byte	0x7a
 7940 15cc 00       		.sleb128 0
 7941 15cd 11       		.uleb128 0x11
 7942 15ce 02       		.uleb128 0x2
 7943 15cf 7D       		.byte	0x7d
 7944 15d0 00       		.sleb128 0
 7945 15d1 02       		.uleb128 0x2
 7946 15d2 74       		.byte	0x74
 7947 15d3 00       		.sleb128 0
 7948 15d4 00       		.byte	0
 7949 15d5 10       		.uleb128 0x10
 7950 15d6 06020000 		.4byte	.LVL334
 7951 15da 030F0000 		.4byte	0xf03
 7952 15de 03160000 		.4byte	0x1603
 7953 15e2 11       		.uleb128 0x11
 7954 15e3 01       		.uleb128 0x1
 7955 15e4 50       		.byte	0x50
 7956 15e5 03       		.uleb128 0x3
 7957 15e6 76       		.byte	0x76
 7958 15e7 F800     		.sleb128 120
 7959 15e9 11       		.uleb128 0x11
 7960 15ea 01       		.uleb128 0x1
 7961 15eb 51       		.byte	0x51
 7962 15ec 02       		.uleb128 0x2
 7963 15ed 78       		.byte	0x78
 7964 15ee 00       		.sleb128 0
 7965 15ef 11       		.uleb128 0x11
 7966 15f0 01       		.uleb128 0x1
 7967 15f1 52       		.byte	0x52
ARM GAS  C:\Users\USUARIO\AppData\Local\Temp\ccywmqVe.s 			page 157


 7968 15f2 02       		.uleb128 0x2
 7969 15f3 79       		.byte	0x79
 7970 15f4 00       		.sleb128 0
 7971 15f5 11       		.uleb128 0x11
 7972 15f6 01       		.uleb128 0x1
 7973 15f7 53       		.byte	0x53
 7974 15f8 02       		.uleb128 0x2
 7975 15f9 7A       		.byte	0x7a
 7976 15fa 00       		.sleb128 0
 7977 15fb 11       		.uleb128 0x11
 7978 15fc 02       		.uleb128 0x2
 7979 15fd 7D       		.byte	0x7d
 7980 15fe 00       		.sleb128 0
 7981 15ff 02       		.uleb128 0x2
 7982 1600 74       		.byte	0x74
 7983 1601 00       		.sleb128 0
 7984 1602 00       		.byte	0
 7985 1603 10       		.uleb128 0x10
 7986 1604 1A020000 		.4byte	.LVL335
 7987 1608 A70C0000 		.4byte	0xca7
 7988 160c 31160000 		.4byte	0x1631
 7989 1610 11       		.uleb128 0x11
 7990 1611 01       		.uleb128 0x1
 7991 1612 50       		.byte	0x50
 7992 1613 03       		.uleb128 0x3
 7993 1614 76       		.byte	0x76
 7994 1615 F300     		.sleb128 115
 7995 1617 11       		.uleb128 0x11
 7996 1618 01       		.uleb128 0x1
 7997 1619 51       		.byte	0x51
 7998 161a 02       		.uleb128 0x2
 7999 161b 75       		.byte	0x75
 8000 161c 7F       		.sleb128 -1
 8001 161d 11       		.uleb128 0x11
 8002 161e 01       		.uleb128 0x1
 8003 161f 52       		.byte	0x52
 8004 1620 02       		.uleb128 0x2
 8005 1621 74       		.byte	0x74
 8006 1622 00       		.sleb128 0
 8007 1623 11       		.uleb128 0x11
 8008 1624 01       		.uleb128 0x1
 8009 1625 53       		.byte	0x53
 8010 1626 02       		.uleb128 0x2
 8011 1627 77       		.byte	0x77
 8012 1628 00       		.sleb128 0
 8013 1629 11       		.uleb128 0x11
 8014 162a 02       		.uleb128 0x2
 8015 162b 7D       		.byte	0x7d
 8016 162c 00       		.sleb128 0
 8017 162d 02       		.uleb128 0x2
 8018 162e 74       		.byte	0x74
 8019 162f 00       		.sleb128 0
 8020 1630 00       		.byte	0
 8021 1631 15       		.uleb128 0x15
 8022 1632 1E020000 		.4byte	.LVL336
 8023 1636 08040000 		.4byte	0x408
 8024 163a 00       		.byte	0
ARM GAS  C:\Users\USUARIO\AppData\Local\Temp\ccywmqVe.s 			page 158


 8025 163b 09       		.uleb128 0x9
 8026 163c D5000000 		.4byte	0xd5
 8027 1640 4B160000 		.4byte	0x164b
 8028 1644 0A       		.uleb128 0xa
 8029 1645 E3000000 		.4byte	0xe3
 8030 1649 08       		.byte	0x8
 8031 164a 00       		.byte	0
 8032 164b 1B       		.uleb128 0x1b
 8033 164c 5B000000 		.4byte	.LASF64
 8034 1650 01       		.byte	0x1
 8035 1651 DF02     		.2byte	0x2df
 8036 1653 00000000 		.4byte	.LFB79
 8037 1657 2C010000 		.4byte	.LFE79-.LFB79
 8038 165b 01       		.uleb128 0x1
 8039 165c 9C       		.byte	0x9c
 8040 165d EF180000 		.4byte	0x18ef
 8041 1661 19       		.uleb128 0x19
 8042 1662 4A010000 		.4byte	.LASF62
 8043 1666 01       		.byte	0x1
 8044 1667 DF02     		.2byte	0x2df
 8045 1669 9E000000 		.4byte	0x9e
 8046 166d 1E0F0000 		.4byte	.LLST79
 8047 1671 1C       		.uleb128 0x1c
 8048 1672 7800     		.ascii	"x\000"
 8049 1674 01       		.byte	0x1
 8050 1675 DF02     		.2byte	0x2df
 8051 1677 9E000000 		.4byte	0x9e
 8052 167b 580F0000 		.4byte	.LLST80
 8053 167f 1C       		.uleb128 0x1c
 8054 1680 7900     		.ascii	"y\000"
 8055 1682 01       		.byte	0x1
 8056 1683 DF02     		.2byte	0x2df
 8057 1685 9E000000 		.4byte	0x9e
 8058 1689 920F0000 		.4byte	.LLST81
 8059 168d 19       		.uleb128 0x19
 8060 168e F9000000 		.4byte	.LASF59
 8061 1692 01       		.byte	0x1
 8062 1693 DF02     		.2byte	0x2df
 8063 1695 45000000 		.4byte	0x45
 8064 1699 CC0F0000 		.4byte	.LLST82
 8065 169d 19       		.uleb128 0x19
 8066 169e 24030000 		.4byte	.LASF60
 8067 16a2 01       		.byte	0x1
 8068 16a3 DF02     		.2byte	0x2df
 8069 16a5 45000000 		.4byte	0x45
 8070 16a9 06100000 		.4byte	.LLST83
 8071 16ad 1A       		.uleb128 0x1a
 8072 16ae 53000000 		.4byte	.LASF63
 8073 16b2 01       		.byte	0x1
 8074 16b3 E102     		.2byte	0x2e1
 8075 16b5 3B160000 		.4byte	0x163b
 8076 16b9 02       		.uleb128 0x2
 8077 16ba 91       		.byte	0x91
 8078 16bb 54       		.sleb128 -44
 8079 16bc 10       		.uleb128 0x10
 8080 16bd 1E000000 		.4byte	.LVL342
 8081 16c1 B5230000 		.4byte	0x23b5
ARM GAS  C:\Users\USUARIO\AppData\Local\Temp\ccywmqVe.s 			page 159


 8082 16c5 DF160000 		.4byte	0x16df
 8083 16c9 11       		.uleb128 0x11
 8084 16ca 01       		.uleb128 0x1
 8085 16cb 50       		.byte	0x50
 8086 16cc 02       		.uleb128 0x2
 8087 16cd 91       		.byte	0x91
 8088 16ce 54       		.sleb128 -44
 8089 16cf 11       		.uleb128 0x11
 8090 16d0 01       		.uleb128 0x1
 8091 16d1 51       		.byte	0x51
 8092 16d2 05       		.uleb128 0x5
 8093 16d3 03       		.byte	0x3
 8094 16d4 14000000 		.4byte	.LC3
 8095 16d8 11       		.uleb128 0x11
 8096 16d9 01       		.uleb128 0x1
 8097 16da 52       		.byte	0x52
 8098 16db 02       		.uleb128 0x2
 8099 16dc 78       		.byte	0x78
 8100 16dd 00       		.sleb128 0
 8101 16de 00       		.byte	0
 8102 16df 10       		.uleb128 0x10
 8103 16e0 3E000000 		.4byte	.LVL343
 8104 16e4 60090000 		.4byte	0x960
 8105 16e8 20170000 		.4byte	0x1720
 8106 16ec 11       		.uleb128 0x11
 8107 16ed 01       		.uleb128 0x1
 8108 16ee 50       		.byte	0x50
 8109 16ef 02       		.uleb128 0x2
 8110 16f0 75       		.byte	0x75
 8111 16f1 00       		.sleb128 0
 8112 16f2 11       		.uleb128 0x11
 8113 16f3 01       		.uleb128 0x1
 8114 16f4 51       		.byte	0x51
 8115 16f5 02       		.uleb128 0x2
 8116 16f6 76       		.byte	0x76
 8117 16f7 00       		.sleb128 0
 8118 16f8 11       		.uleb128 0x11
 8119 16f9 01       		.uleb128 0x1
 8120 16fa 52       		.byte	0x52
 8121 16fb 0C       		.uleb128 0xc
 8122 16fc 74       		.byte	0x74
 8123 16fd 00       		.sleb128 0
 8124 16fe 33       		.byte	0x33
 8125 16ff 24       		.byte	0x24
 8126 1700 74       		.byte	0x74
 8127 1701 00       		.sleb128 0
 8128 1702 22       		.byte	0x22
 8129 1703 31       		.byte	0x31
 8130 1704 24       		.byte	0x24
 8131 1705 75       		.byte	0x75
 8132 1706 00       		.sleb128 0
 8133 1707 22       		.byte	0x22
 8134 1708 11       		.uleb128 0x11
 8135 1709 01       		.uleb128 0x1
 8136 170a 53       		.byte	0x53
 8137 170b 07       		.uleb128 0x7
 8138 170c 74       		.byte	0x74
ARM GAS  C:\Users\USUARIO\AppData\Local\Temp\ccywmqVe.s 			page 160


 8139 170d 00       		.sleb128 0
 8140 170e 33       		.byte	0x33
 8141 170f 24       		.byte	0x24
 8142 1710 76       		.byte	0x76
 8143 1711 00       		.sleb128 0
 8144 1712 22       		.byte	0x22
 8145 1713 11       		.uleb128 0x11
 8146 1714 02       		.uleb128 0x2
 8147 1715 7D       		.byte	0x7d
 8148 1716 00       		.sleb128 0
 8149 1717 01       		.uleb128 0x1
 8150 1718 31       		.byte	0x31
 8151 1719 11       		.uleb128 0x11
 8152 171a 02       		.uleb128 0x2
 8153 171b 7D       		.byte	0x7d
 8154 171c 04       		.sleb128 4
 8155 171d 01       		.uleb128 0x1
 8156 171e 31       		.byte	0x31
 8157 171f 00       		.byte	0
 8158 1720 10       		.uleb128 0x10
 8159 1721 52000000 		.4byte	.LVL344
 8160 1725 030F0000 		.4byte	0xf03
 8161 1729 4C170000 		.4byte	0x174c
 8162 172d 11       		.uleb128 0x11
 8163 172e 01       		.uleb128 0x1
 8164 172f 50       		.byte	0x50
 8165 1730 02       		.uleb128 0x2
 8166 1731 75       		.byte	0x75
 8167 1732 01       		.sleb128 1
 8168 1733 11       		.uleb128 0x11
 8169 1734 01       		.uleb128 0x1
 8170 1735 51       		.byte	0x51
 8171 1736 02       		.uleb128 0x2
 8172 1737 76       		.byte	0x76
 8173 1738 01       		.sleb128 1
 8174 1739 11       		.uleb128 0x11
 8175 173a 01       		.uleb128 0x1
 8176 173b 52       		.byte	0x52
 8177 173c 02       		.uleb128 0x2
 8178 173d 91       		.byte	0x91
 8179 173e 54       		.sleb128 -44
 8180 173f 11       		.uleb128 0x11
 8181 1740 01       		.uleb128 0x1
 8182 1741 53       		.byte	0x53
 8183 1742 02       		.uleb128 0x2
 8184 1743 74       		.byte	0x74
 8185 1744 00       		.sleb128 0
 8186 1745 11       		.uleb128 0x11
 8187 1746 02       		.uleb128 0x2
 8188 1747 7D       		.byte	0x7d
 8189 1748 00       		.sleb128 0
 8190 1749 01       		.uleb128 0x1
 8191 174a 30       		.byte	0x30
 8192 174b 00       		.byte	0
 8193 174c 10       		.uleb128 0x10
 8194 174d 64000000 		.4byte	.LVL349
 8195 1751 B5230000 		.4byte	0x23b5
ARM GAS  C:\Users\USUARIO\AppData\Local\Temp\ccywmqVe.s 			page 161


 8196 1755 6F170000 		.4byte	0x176f
 8197 1759 11       		.uleb128 0x11
 8198 175a 01       		.uleb128 0x1
 8199 175b 50       		.byte	0x50
 8200 175c 02       		.uleb128 0x2
 8201 175d 91       		.byte	0x91
 8202 175e 54       		.sleb128 -44
 8203 175f 11       		.uleb128 0x11
 8204 1760 01       		.uleb128 0x1
 8205 1761 51       		.byte	0x51
 8206 1762 05       		.uleb128 0x5
 8207 1763 03       		.byte	0x3
 8208 1764 14000000 		.4byte	.LC3
 8209 1768 11       		.uleb128 0x11
 8210 1769 01       		.uleb128 0x1
 8211 176a 52       		.byte	0x52
 8212 176b 02       		.uleb128 0x2
 8213 176c 78       		.byte	0x78
 8214 176d 00       		.sleb128 0
 8215 176e 00       		.byte	0
 8216 176f 10       		.uleb128 0x10
 8217 1770 8C000000 		.4byte	.LVL350
 8218 1774 60090000 		.4byte	0x960
 8219 1778 B1170000 		.4byte	0x17b1
 8220 177c 11       		.uleb128 0x11
 8221 177d 01       		.uleb128 0x1
 8222 177e 50       		.byte	0x50
 8223 177f 02       		.uleb128 0x2
 8224 1780 75       		.byte	0x75
 8225 1781 00       		.sleb128 0
 8226 1782 11       		.uleb128 0x11
 8227 1783 01       		.uleb128 0x1
 8228 1784 51       		.byte	0x51
 8229 1785 02       		.uleb128 0x2
 8230 1786 76       		.byte	0x76
 8231 1787 00       		.sleb128 0
 8232 1788 11       		.uleb128 0x11
 8233 1789 01       		.uleb128 0x1
 8234 178a 52       		.byte	0x52
 8235 178b 0C       		.uleb128 0xc
 8236 178c 79       		.byte	0x79
 8237 178d 00       		.sleb128 0
 8238 178e 33       		.byte	0x33
 8239 178f 24       		.byte	0x24
 8240 1790 79       		.byte	0x79
 8241 1791 00       		.sleb128 0
 8242 1792 22       		.byte	0x22
 8243 1793 31       		.byte	0x31
 8244 1794 24       		.byte	0x24
 8245 1795 75       		.byte	0x75
 8246 1796 00       		.sleb128 0
 8247 1797 22       		.byte	0x22
 8248 1798 11       		.uleb128 0x11
 8249 1799 01       		.uleb128 0x1
 8250 179a 53       		.byte	0x53
 8251 179b 07       		.uleb128 0x7
 8252 179c 79       		.byte	0x79
ARM GAS  C:\Users\USUARIO\AppData\Local\Temp\ccywmqVe.s 			page 162


 8253 179d 00       		.sleb128 0
 8254 179e 33       		.byte	0x33
 8255 179f 24       		.byte	0x24
 8256 17a0 76       		.byte	0x76
 8257 17a1 00       		.sleb128 0
 8258 17a2 22       		.byte	0x22
 8259 17a3 11       		.uleb128 0x11
 8260 17a4 02       		.uleb128 0x2
 8261 17a5 7D       		.byte	0x7d
 8262 17a6 00       		.sleb128 0
 8263 17a7 02       		.uleb128 0x2
 8264 17a8 7A       		.byte	0x7a
 8265 17a9 00       		.sleb128 0
 8266 17aa 11       		.uleb128 0x11
 8267 17ab 02       		.uleb128 0x2
 8268 17ac 7D       		.byte	0x7d
 8269 17ad 04       		.sleb128 4
 8270 17ae 01       		.uleb128 0x1
 8271 17af 30       		.byte	0x30
 8272 17b0 00       		.byte	0
 8273 17b1 10       		.uleb128 0x10
 8274 17b2 A4000000 		.4byte	.LVL351
 8275 17b6 030F0000 		.4byte	0xf03
 8276 17ba E4170000 		.4byte	0x17e4
 8277 17be 11       		.uleb128 0x11
 8278 17bf 01       		.uleb128 0x1
 8279 17c0 50       		.byte	0x50
 8280 17c1 05       		.uleb128 0x5
 8281 17c2 75       		.byte	0x75
 8282 17c3 00       		.sleb128 0
 8283 17c4 7A       		.byte	0x7a
 8284 17c5 00       		.sleb128 0
 8285 17c6 22       		.byte	0x22
 8286 17c7 11       		.uleb128 0x11
 8287 17c8 01       		.uleb128 0x1
 8288 17c9 51       		.byte	0x51
 8289 17ca 05       		.uleb128 0x5
 8290 17cb 76       		.byte	0x76
 8291 17cc 00       		.sleb128 0
 8292 17cd 7A       		.byte	0x7a
 8293 17ce 00       		.sleb128 0
 8294 17cf 22       		.byte	0x22
 8295 17d0 11       		.uleb128 0x11
 8296 17d1 01       		.uleb128 0x1
 8297 17d2 52       		.byte	0x52
 8298 17d3 02       		.uleb128 0x2
 8299 17d4 91       		.byte	0x91
 8300 17d5 54       		.sleb128 -44
 8301 17d6 11       		.uleb128 0x11
 8302 17d7 01       		.uleb128 0x1
 8303 17d8 53       		.byte	0x53
 8304 17d9 02       		.uleb128 0x2
 8305 17da 79       		.byte	0x79
 8306 17db 00       		.sleb128 0
 8307 17dc 11       		.uleb128 0x11
 8308 17dd 02       		.uleb128 0x2
 8309 17de 7D       		.byte	0x7d
ARM GAS  C:\Users\USUARIO\AppData\Local\Temp\ccywmqVe.s 			page 163


 8310 17df 00       		.sleb128 0
 8311 17e0 02       		.uleb128 0x2
 8312 17e1 7A       		.byte	0x7a
 8313 17e2 00       		.sleb128 0
 8314 17e3 00       		.byte	0
 8315 17e4 10       		.uleb128 0x10
 8316 17e5 AE000000 		.4byte	.LVL352
 8317 17e9 B5230000 		.4byte	0x23b5
 8318 17ed 07180000 		.4byte	0x1807
 8319 17f1 11       		.uleb128 0x11
 8320 17f2 01       		.uleb128 0x1
 8321 17f3 50       		.byte	0x50
 8322 17f4 02       		.uleb128 0x2
 8323 17f5 91       		.byte	0x91
 8324 17f6 54       		.sleb128 -44
 8325 17f7 11       		.uleb128 0x11
 8326 17f8 01       		.uleb128 0x1
 8327 17f9 51       		.byte	0x51
 8328 17fa 05       		.uleb128 0x5
 8329 17fb 03       		.byte	0x3
 8330 17fc 1C000000 		.4byte	.LC4
 8331 1800 11       		.uleb128 0x11
 8332 1801 01       		.uleb128 0x1
 8333 1802 52       		.byte	0x52
 8334 1803 02       		.uleb128 0x2
 8335 1804 78       		.byte	0x78
 8336 1805 00       		.sleb128 0
 8337 1806 00       		.byte	0
 8338 1807 10       		.uleb128 0x10
 8339 1808 D2000000 		.4byte	.LVL353
 8340 180c 60090000 		.4byte	0x960
 8341 1810 46180000 		.4byte	0x1846
 8342 1814 11       		.uleb128 0x11
 8343 1815 01       		.uleb128 0x1
 8344 1816 50       		.byte	0x50
 8345 1817 02       		.uleb128 0x2
 8346 1818 75       		.byte	0x75
 8347 1819 00       		.sleb128 0
 8348 181a 11       		.uleb128 0x11
 8349 181b 01       		.uleb128 0x1
 8350 181c 51       		.byte	0x51
 8351 181d 02       		.uleb128 0x2
 8352 181e 76       		.byte	0x76
 8353 181f 00       		.sleb128 0
 8354 1820 11       		.uleb128 0x11
 8355 1821 01       		.uleb128 0x1
 8356 1822 52       		.byte	0x52
 8357 1823 0A       		.uleb128 0xa
 8358 1824 78       		.byte	0x78
 8359 1825 00       		.sleb128 0
 8360 1826 32       		.byte	0x32
 8361 1827 24       		.byte	0x24
 8362 1828 75       		.byte	0x75
 8363 1829 00       		.sleb128 0
 8364 182a 22       		.byte	0x22
 8365 182b 78       		.byte	0x78
 8366 182c 00       		.sleb128 0
ARM GAS  C:\Users\USUARIO\AppData\Local\Temp\ccywmqVe.s 			page 164


 8367 182d 22       		.byte	0x22
 8368 182e 11       		.uleb128 0x11
 8369 182f 01       		.uleb128 0x1
 8370 1830 53       		.byte	0x53
 8371 1831 07       		.uleb128 0x7
 8372 1832 78       		.byte	0x78
 8373 1833 00       		.sleb128 0
 8374 1834 33       		.byte	0x33
 8375 1835 24       		.byte	0x24
 8376 1836 76       		.byte	0x76
 8377 1837 00       		.sleb128 0
 8378 1838 22       		.byte	0x22
 8379 1839 11       		.uleb128 0x11
 8380 183a 02       		.uleb128 0x2
 8381 183b 7D       		.byte	0x7d
 8382 183c 00       		.sleb128 0
 8383 183d 01       		.uleb128 0x1
 8384 183e 31       		.byte	0x31
 8385 183f 11       		.uleb128 0x11
 8386 1840 02       		.uleb128 0x2
 8387 1841 7D       		.byte	0x7d
 8388 1842 04       		.sleb128 4
 8389 1843 01       		.uleb128 0x1
 8390 1844 31       		.byte	0x31
 8391 1845 00       		.byte	0
 8392 1846 10       		.uleb128 0x10
 8393 1847 E6000000 		.4byte	.LVL354
 8394 184b 030F0000 		.4byte	0xf03
 8395 184f 72180000 		.4byte	0x1872
 8396 1853 11       		.uleb128 0x11
 8397 1854 01       		.uleb128 0x1
 8398 1855 50       		.byte	0x50
 8399 1856 02       		.uleb128 0x2
 8400 1857 75       		.byte	0x75
 8401 1858 01       		.sleb128 1
 8402 1859 11       		.uleb128 0x11
 8403 185a 01       		.uleb128 0x1
 8404 185b 51       		.byte	0x51
 8405 185c 02       		.uleb128 0x2
 8406 185d 76       		.byte	0x76
 8407 185e 01       		.sleb128 1
 8408 185f 11       		.uleb128 0x11
 8409 1860 01       		.uleb128 0x1
 8410 1861 52       		.byte	0x52
 8411 1862 02       		.uleb128 0x2
 8412 1863 91       		.byte	0x91
 8413 1864 54       		.sleb128 -44
 8414 1865 11       		.uleb128 0x11
 8415 1866 01       		.uleb128 0x1
 8416 1867 53       		.byte	0x53
 8417 1868 02       		.uleb128 0x2
 8418 1869 78       		.byte	0x78
 8419 186a 00       		.sleb128 0
 8420 186b 11       		.uleb128 0x11
 8421 186c 02       		.uleb128 0x2
 8422 186d 7D       		.byte	0x7d
 8423 186e 00       		.sleb128 0
ARM GAS  C:\Users\USUARIO\AppData\Local\Temp\ccywmqVe.s 			page 165


 8424 186f 01       		.uleb128 0x1
 8425 1870 30       		.byte	0x30
 8426 1871 00       		.byte	0
 8427 1872 10       		.uleb128 0x10
 8428 1873 08010000 		.4byte	.LVL355
 8429 1877 60090000 		.4byte	0x960
 8430 187b B2180000 		.4byte	0x18b2
 8431 187f 11       		.uleb128 0x11
 8432 1880 01       		.uleb128 0x1
 8433 1881 50       		.byte	0x50
 8434 1882 02       		.uleb128 0x2
 8435 1883 75       		.byte	0x75
 8436 1884 00       		.sleb128 0
 8437 1885 11       		.uleb128 0x11
 8438 1886 01       		.uleb128 0x1
 8439 1887 51       		.byte	0x51
 8440 1888 02       		.uleb128 0x2
 8441 1889 76       		.byte	0x76
 8442 188a 00       		.sleb128 0
 8443 188b 11       		.uleb128 0x11
 8444 188c 01       		.uleb128 0x1
 8445 188d 52       		.byte	0x52
 8446 188e 0A       		.uleb128 0xa
 8447 188f 74       		.byte	0x74
 8448 1890 00       		.sleb128 0
 8449 1891 32       		.byte	0x32
 8450 1892 24       		.byte	0x24
 8451 1893 74       		.byte	0x74
 8452 1894 00       		.sleb128 0
 8453 1895 22       		.byte	0x22
 8454 1896 75       		.byte	0x75
 8455 1897 00       		.sleb128 0
 8456 1898 22       		.byte	0x22
 8457 1899 11       		.uleb128 0x11
 8458 189a 01       		.uleb128 0x1
 8459 189b 53       		.byte	0x53
 8460 189c 07       		.uleb128 0x7
 8461 189d 74       		.byte	0x74
 8462 189e 00       		.sleb128 0
 8463 189f 33       		.byte	0x33
 8464 18a0 24       		.byte	0x24
 8465 18a1 76       		.byte	0x76
 8466 18a2 00       		.sleb128 0
 8467 18a3 22       		.byte	0x22
 8468 18a4 11       		.uleb128 0x11
 8469 18a5 02       		.uleb128 0x2
 8470 18a6 7D       		.byte	0x7d
 8471 18a7 00       		.sleb128 0
 8472 18a8 02       		.uleb128 0x2
 8473 18a9 77       		.byte	0x77
 8474 18aa 00       		.sleb128 0
 8475 18ab 11       		.uleb128 0x11
 8476 18ac 02       		.uleb128 0x2
 8477 18ad 7D       		.byte	0x7d
 8478 18ae 04       		.sleb128 4
 8479 18af 01       		.uleb128 0x1
 8480 18b0 30       		.byte	0x30
ARM GAS  C:\Users\USUARIO\AppData\Local\Temp\ccywmqVe.s 			page 166


 8481 18b1 00       		.byte	0
 8482 18b2 10       		.uleb128 0x10
 8483 18b3 1A010000 		.4byte	.LVL356
 8484 18b7 030F0000 		.4byte	0xf03
 8485 18bb E5180000 		.4byte	0x18e5
 8486 18bf 11       		.uleb128 0x11
 8487 18c0 01       		.uleb128 0x1
 8488 18c1 50       		.byte	0x50
 8489 18c2 05       		.uleb128 0x5
 8490 18c3 75       		.byte	0x75
 8491 18c4 00       		.sleb128 0
 8492 18c5 77       		.byte	0x77
 8493 18c6 00       		.sleb128 0
 8494 18c7 22       		.byte	0x22
 8495 18c8 11       		.uleb128 0x11
 8496 18c9 01       		.uleb128 0x1
 8497 18ca 51       		.byte	0x51
 8498 18cb 05       		.uleb128 0x5
 8499 18cc 76       		.byte	0x76
 8500 18cd 00       		.sleb128 0
 8501 18ce 77       		.byte	0x77
 8502 18cf 00       		.sleb128 0
 8503 18d0 22       		.byte	0x22
 8504 18d1 11       		.uleb128 0x11
 8505 18d2 01       		.uleb128 0x1
 8506 18d3 52       		.byte	0x52
 8507 18d4 02       		.uleb128 0x2
 8508 18d5 91       		.byte	0x91
 8509 18d6 54       		.sleb128 -44
 8510 18d7 11       		.uleb128 0x11
 8511 18d8 01       		.uleb128 0x1
 8512 18d9 53       		.byte	0x53
 8513 18da 02       		.uleb128 0x2
 8514 18db 74       		.byte	0x74
 8515 18dc 00       		.sleb128 0
 8516 18dd 11       		.uleb128 0x11
 8517 18de 02       		.uleb128 0x2
 8518 18df 7D       		.byte	0x7d
 8519 18e0 00       		.sleb128 0
 8520 18e1 02       		.uleb128 0x2
 8521 18e2 77       		.byte	0x77
 8522 18e3 00       		.sleb128 0
 8523 18e4 00       		.byte	0
 8524 18e5 15       		.uleb128 0x15
 8525 18e6 1E010000 		.4byte	.LVL357
 8526 18ea 08040000 		.4byte	0x408
 8527 18ee 00       		.byte	0
 8528 18ef 1B       		.uleb128 0x1b
 8529 18f0 B9030000 		.4byte	.LASF65
 8530 18f4 01       		.byte	0x1
 8531 18f5 FA02     		.2byte	0x2fa
 8532 18f7 00000000 		.4byte	.LFB80
 8533 18fb 18010000 		.4byte	.LFE80-.LFB80
 8534 18ff 01       		.uleb128 0x1
 8535 1900 9C       		.byte	0x9c
 8536 1901 5F1B0000 		.4byte	0x1b5f
 8537 1905 19       		.uleb128 0x19
ARM GAS  C:\Users\USUARIO\AppData\Local\Temp\ccywmqVe.s 			page 167


 8538 1906 4A010000 		.4byte	.LASF62
 8539 190a 01       		.byte	0x1
 8540 190b FA02     		.2byte	0x2fa
 8541 190d C2000000 		.4byte	0xc2
 8542 1911 26100000 		.4byte	.LLST84
 8543 1915 1C       		.uleb128 0x1c
 8544 1916 7800     		.ascii	"x\000"
 8545 1918 01       		.byte	0x1
 8546 1919 FA02     		.2byte	0x2fa
 8547 191b 9E000000 		.4byte	0x9e
 8548 191f 60100000 		.4byte	.LLST85
 8549 1923 1C       		.uleb128 0x1c
 8550 1924 7900     		.ascii	"y\000"
 8551 1926 01       		.byte	0x1
 8552 1927 FA02     		.2byte	0x2fa
 8553 1929 9E000000 		.4byte	0x9e
 8554 192d 9A100000 		.4byte	.LLST86
 8555 1931 19       		.uleb128 0x19
 8556 1932 F9000000 		.4byte	.LASF59
 8557 1936 01       		.byte	0x1
 8558 1937 FA02     		.2byte	0x2fa
 8559 1939 45000000 		.4byte	0x45
 8560 193d D4100000 		.4byte	.LLST87
 8561 1941 19       		.uleb128 0x19
 8562 1942 24030000 		.4byte	.LASF60
 8563 1946 01       		.byte	0x1
 8564 1947 FA02     		.2byte	0x2fa
 8565 1949 45000000 		.4byte	0x45
 8566 194d 0E110000 		.4byte	.LLST88
 8567 1951 1A       		.uleb128 0x1a
 8568 1952 53000000 		.4byte	.LASF63
 8569 1956 01       		.byte	0x1
 8570 1957 FC02     		.2byte	0x2fc
 8571 1959 3B160000 		.4byte	0x163b
 8572 195d 02       		.uleb128 0x2
 8573 195e 91       		.byte	0x91
 8574 195f 54       		.sleb128 -44
 8575 1960 10       		.uleb128 0x10
 8576 1961 1C000000 		.4byte	.LVL363
 8577 1965 B5230000 		.4byte	0x23b5
 8578 1969 7D190000 		.4byte	0x197d
 8579 196d 11       		.uleb128 0x11
 8580 196e 01       		.uleb128 0x1
 8581 196f 50       		.byte	0x50
 8582 1970 02       		.uleb128 0x2
 8583 1971 91       		.byte	0x91
 8584 1972 54       		.sleb128 -44
 8585 1973 11       		.uleb128 0x11
 8586 1974 01       		.uleb128 0x1
 8587 1975 51       		.byte	0x51
 8588 1976 05       		.uleb128 0x5
 8589 1977 03       		.byte	0x3
 8590 1978 08000000 		.4byte	.LC1
 8591 197c 00       		.byte	0
 8592 197d 10       		.uleb128 0x10
 8593 197e 3C000000 		.4byte	.LVL364
 8594 1982 60090000 		.4byte	0x960
ARM GAS  C:\Users\USUARIO\AppData\Local\Temp\ccywmqVe.s 			page 168


 8595 1986 BE190000 		.4byte	0x19be
 8596 198a 11       		.uleb128 0x11
 8597 198b 01       		.uleb128 0x1
 8598 198c 50       		.byte	0x50
 8599 198d 02       		.uleb128 0x2
 8600 198e 76       		.byte	0x76
 8601 198f 00       		.sleb128 0
 8602 1990 11       		.uleb128 0x11
 8603 1991 01       		.uleb128 0x1
 8604 1992 51       		.byte	0x51
 8605 1993 02       		.uleb128 0x2
 8606 1994 77       		.byte	0x77
 8607 1995 00       		.sleb128 0
 8608 1996 11       		.uleb128 0x11
 8609 1997 01       		.uleb128 0x1
 8610 1998 52       		.byte	0x52
 8611 1999 0C       		.uleb128 0xc
 8612 199a 75       		.byte	0x75
 8613 199b 00       		.sleb128 0
 8614 199c 33       		.byte	0x33
 8615 199d 24       		.byte	0x24
 8616 199e 75       		.byte	0x75
 8617 199f 00       		.sleb128 0
 8618 19a0 22       		.byte	0x22
 8619 19a1 31       		.byte	0x31
 8620 19a2 24       		.byte	0x24
 8621 19a3 76       		.byte	0x76
 8622 19a4 00       		.sleb128 0
 8623 19a5 22       		.byte	0x22
 8624 19a6 11       		.uleb128 0x11
 8625 19a7 01       		.uleb128 0x1
 8626 19a8 53       		.byte	0x53
 8627 19a9 07       		.uleb128 0x7
 8628 19aa 75       		.byte	0x75
 8629 19ab 00       		.sleb128 0
 8630 19ac 33       		.byte	0x33
 8631 19ad 24       		.byte	0x24
 8632 19ae 77       		.byte	0x77
 8633 19af 00       		.sleb128 0
 8634 19b0 22       		.byte	0x22
 8635 19b1 11       		.uleb128 0x11
 8636 19b2 02       		.uleb128 0x2
 8637 19b3 7D       		.byte	0x7d
 8638 19b4 00       		.sleb128 0
 8639 19b5 01       		.uleb128 0x1
 8640 19b6 31       		.byte	0x31
 8641 19b7 11       		.uleb128 0x11
 8642 19b8 02       		.uleb128 0x2
 8643 19b9 7D       		.byte	0x7d
 8644 19ba 04       		.sleb128 4
 8645 19bb 01       		.uleb128 0x1
 8646 19bc 31       		.byte	0x31
 8647 19bd 00       		.byte	0
 8648 19be 10       		.uleb128 0x10
 8649 19bf 50000000 		.4byte	.LVL365
 8650 19c3 030F0000 		.4byte	0xf03
 8651 19c7 EA190000 		.4byte	0x19ea
ARM GAS  C:\Users\USUARIO\AppData\Local\Temp\ccywmqVe.s 			page 169


 8652 19cb 11       		.uleb128 0x11
 8653 19cc 01       		.uleb128 0x1
 8654 19cd 50       		.byte	0x50
 8655 19ce 02       		.uleb128 0x2
 8656 19cf 76       		.byte	0x76
 8657 19d0 01       		.sleb128 1
 8658 19d1 11       		.uleb128 0x11
 8659 19d2 01       		.uleb128 0x1
 8660 19d3 51       		.byte	0x51
 8661 19d4 02       		.uleb128 0x2
 8662 19d5 77       		.byte	0x77
 8663 19d6 01       		.sleb128 1
 8664 19d7 11       		.uleb128 0x11
 8665 19d8 01       		.uleb128 0x1
 8666 19d9 52       		.byte	0x52
 8667 19da 02       		.uleb128 0x2
 8668 19db 91       		.byte	0x91
 8669 19dc 54       		.sleb128 -44
 8670 19dd 11       		.uleb128 0x11
 8671 19de 01       		.uleb128 0x1
 8672 19df 53       		.byte	0x53
 8673 19e0 02       		.uleb128 0x2
 8674 19e1 75       		.byte	0x75
 8675 19e2 00       		.sleb128 0
 8676 19e3 11       		.uleb128 0x11
 8677 19e4 02       		.uleb128 0x2
 8678 19e5 7D       		.byte	0x7d
 8679 19e6 00       		.sleb128 0
 8680 19e7 01       		.uleb128 0x1
 8681 19e8 30       		.byte	0x30
 8682 19e9 00       		.byte	0
 8683 19ea 10       		.uleb128 0x10
 8684 19eb 5E000000 		.4byte	.LVL370
 8685 19ef B5230000 		.4byte	0x23b5
 8686 19f3 071A0000 		.4byte	0x1a07
 8687 19f7 11       		.uleb128 0x11
 8688 19f8 01       		.uleb128 0x1
 8689 19f9 50       		.byte	0x50
 8690 19fa 02       		.uleb128 0x2
 8691 19fb 91       		.byte	0x91
 8692 19fc 54       		.sleb128 -44
 8693 19fd 11       		.uleb128 0x11
 8694 19fe 01       		.uleb128 0x1
 8695 19ff 51       		.byte	0x51
 8696 1a00 05       		.uleb128 0x5
 8697 1a01 03       		.byte	0x3
 8698 1a02 08000000 		.4byte	.LC1
 8699 1a06 00       		.byte	0
 8700 1a07 10       		.uleb128 0x10
 8701 1a08 86000000 		.4byte	.LVL371
 8702 1a0c 60090000 		.4byte	0x960
 8703 1a10 441A0000 		.4byte	0x1a44
 8704 1a14 11       		.uleb128 0x11
 8705 1a15 01       		.uleb128 0x1
 8706 1a16 50       		.byte	0x50
 8707 1a17 02       		.uleb128 0x2
 8708 1a18 76       		.byte	0x76
ARM GAS  C:\Users\USUARIO\AppData\Local\Temp\ccywmqVe.s 			page 170


 8709 1a19 00       		.sleb128 0
 8710 1a1a 11       		.uleb128 0x11
 8711 1a1b 01       		.uleb128 0x1
 8712 1a1c 51       		.byte	0x51
 8713 1a1d 02       		.uleb128 0x2
 8714 1a1e 77       		.byte	0x77
 8715 1a1f 00       		.sleb128 0
 8716 1a20 11       		.uleb128 0x11
 8717 1a21 01       		.uleb128 0x1
 8718 1a22 52       		.byte	0x52
 8719 1a23 07       		.uleb128 0x7
 8720 1a24 78       		.byte	0x78
 8721 1a25 00       		.sleb128 0
 8722 1a26 34       		.byte	0x34
 8723 1a27 24       		.byte	0x24
 8724 1a28 76       		.byte	0x76
 8725 1a29 00       		.sleb128 0
 8726 1a2a 22       		.byte	0x22
 8727 1a2b 11       		.uleb128 0x11
 8728 1a2c 01       		.uleb128 0x1
 8729 1a2d 53       		.byte	0x53
 8730 1a2e 07       		.uleb128 0x7
 8731 1a2f 78       		.byte	0x78
 8732 1a30 00       		.sleb128 0
 8733 1a31 33       		.byte	0x33
 8734 1a32 24       		.byte	0x24
 8735 1a33 77       		.byte	0x77
 8736 1a34 00       		.sleb128 0
 8737 1a35 22       		.byte	0x22
 8738 1a36 11       		.uleb128 0x11
 8739 1a37 02       		.uleb128 0x2
 8740 1a38 7D       		.byte	0x7d
 8741 1a39 00       		.sleb128 0
 8742 1a3a 02       		.uleb128 0x2
 8743 1a3b 79       		.byte	0x79
 8744 1a3c 00       		.sleb128 0
 8745 1a3d 11       		.uleb128 0x11
 8746 1a3e 02       		.uleb128 0x2
 8747 1a3f 7D       		.byte	0x7d
 8748 1a40 04       		.sleb128 4
 8749 1a41 01       		.uleb128 0x1
 8750 1a42 30       		.byte	0x30
 8751 1a43 00       		.byte	0
 8752 1a44 10       		.uleb128 0x10
 8753 1a45 9E000000 		.4byte	.LVL372
 8754 1a49 030F0000 		.4byte	0xf03
 8755 1a4d 771A0000 		.4byte	0x1a77
 8756 1a51 11       		.uleb128 0x11
 8757 1a52 01       		.uleb128 0x1
 8758 1a53 50       		.byte	0x50
 8759 1a54 05       		.uleb128 0x5
 8760 1a55 76       		.byte	0x76
 8761 1a56 00       		.sleb128 0
 8762 1a57 79       		.byte	0x79
 8763 1a58 00       		.sleb128 0
 8764 1a59 22       		.byte	0x22
 8765 1a5a 11       		.uleb128 0x11
ARM GAS  C:\Users\USUARIO\AppData\Local\Temp\ccywmqVe.s 			page 171


 8766 1a5b 01       		.uleb128 0x1
 8767 1a5c 51       		.byte	0x51
 8768 1a5d 05       		.uleb128 0x5
 8769 1a5e 77       		.byte	0x77
 8770 1a5f 00       		.sleb128 0
 8771 1a60 79       		.byte	0x79
 8772 1a61 00       		.sleb128 0
 8773 1a62 22       		.byte	0x22
 8774 1a63 11       		.uleb128 0x11
 8775 1a64 01       		.uleb128 0x1
 8776 1a65 52       		.byte	0x52
 8777 1a66 02       		.uleb128 0x2
 8778 1a67 91       		.byte	0x91
 8779 1a68 54       		.sleb128 -44
 8780 1a69 11       		.uleb128 0x11
 8781 1a6a 01       		.uleb128 0x1
 8782 1a6b 53       		.byte	0x53
 8783 1a6c 02       		.uleb128 0x2
 8784 1a6d 78       		.byte	0x78
 8785 1a6e 00       		.sleb128 0
 8786 1a6f 11       		.uleb128 0x11
 8787 1a70 02       		.uleb128 0x2
 8788 1a71 7D       		.byte	0x7d
 8789 1a72 00       		.sleb128 0
 8790 1a73 02       		.uleb128 0x2
 8791 1a74 79       		.byte	0x79
 8792 1a75 00       		.sleb128 0
 8793 1a76 00       		.byte	0
 8794 1a77 10       		.uleb128 0x10
 8795 1a78 C2000000 		.4byte	.LVL373
 8796 1a7c 60090000 		.4byte	0x960
 8797 1a80 B61A0000 		.4byte	0x1ab6
 8798 1a84 11       		.uleb128 0x11
 8799 1a85 01       		.uleb128 0x1
 8800 1a86 50       		.byte	0x50
 8801 1a87 02       		.uleb128 0x2
 8802 1a88 76       		.byte	0x76
 8803 1a89 00       		.sleb128 0
 8804 1a8a 11       		.uleb128 0x11
 8805 1a8b 01       		.uleb128 0x1
 8806 1a8c 51       		.byte	0x51
 8807 1a8d 02       		.uleb128 0x2
 8808 1a8e 77       		.byte	0x77
 8809 1a8f 00       		.sleb128 0
 8810 1a90 11       		.uleb128 0x11
 8811 1a91 01       		.uleb128 0x1
 8812 1a92 52       		.byte	0x52
 8813 1a93 0A       		.uleb128 0xa
 8814 1a94 78       		.byte	0x78
 8815 1a95 00       		.sleb128 0
 8816 1a96 32       		.byte	0x32
 8817 1a97 24       		.byte	0x24
 8818 1a98 76       		.byte	0x76
 8819 1a99 00       		.sleb128 0
 8820 1a9a 22       		.byte	0x22
 8821 1a9b 78       		.byte	0x78
 8822 1a9c 00       		.sleb128 0
ARM GAS  C:\Users\USUARIO\AppData\Local\Temp\ccywmqVe.s 			page 172


 8823 1a9d 22       		.byte	0x22
 8824 1a9e 11       		.uleb128 0x11
 8825 1a9f 01       		.uleb128 0x1
 8826 1aa0 53       		.byte	0x53
 8827 1aa1 07       		.uleb128 0x7
 8828 1aa2 78       		.byte	0x78
 8829 1aa3 00       		.sleb128 0
 8830 1aa4 33       		.byte	0x33
 8831 1aa5 24       		.byte	0x24
 8832 1aa6 77       		.byte	0x77
 8833 1aa7 00       		.sleb128 0
 8834 1aa8 22       		.byte	0x22
 8835 1aa9 11       		.uleb128 0x11
 8836 1aaa 02       		.uleb128 0x2
 8837 1aab 7D       		.byte	0x7d
 8838 1aac 00       		.sleb128 0
 8839 1aad 01       		.uleb128 0x1
 8840 1aae 31       		.byte	0x31
 8841 1aaf 11       		.uleb128 0x11
 8842 1ab0 02       		.uleb128 0x2
 8843 1ab1 7D       		.byte	0x7d
 8844 1ab2 04       		.sleb128 4
 8845 1ab3 01       		.uleb128 0x1
 8846 1ab4 31       		.byte	0x31
 8847 1ab5 00       		.byte	0
 8848 1ab6 10       		.uleb128 0x10
 8849 1ab7 D6000000 		.4byte	.LVL374
 8850 1abb 030F0000 		.4byte	0xf03
 8851 1abf E21A0000 		.4byte	0x1ae2
 8852 1ac3 11       		.uleb128 0x11
 8853 1ac4 01       		.uleb128 0x1
 8854 1ac5 50       		.byte	0x50
 8855 1ac6 02       		.uleb128 0x2
 8856 1ac7 76       		.byte	0x76
 8857 1ac8 01       		.sleb128 1
 8858 1ac9 11       		.uleb128 0x11
 8859 1aca 01       		.uleb128 0x1
 8860 1acb 51       		.byte	0x51
 8861 1acc 02       		.uleb128 0x2
 8862 1acd 77       		.byte	0x77
 8863 1ace 01       		.sleb128 1
 8864 1acf 11       		.uleb128 0x11
 8865 1ad0 01       		.uleb128 0x1
 8866 1ad1 52       		.byte	0x52
 8867 1ad2 02       		.uleb128 0x2
 8868 1ad3 91       		.byte	0x91
 8869 1ad4 54       		.sleb128 -44
 8870 1ad5 11       		.uleb128 0x11
 8871 1ad6 01       		.uleb128 0x1
 8872 1ad7 53       		.byte	0x53
 8873 1ad8 02       		.uleb128 0x2
 8874 1ad9 78       		.byte	0x78
 8875 1ada 00       		.sleb128 0
 8876 1adb 11       		.uleb128 0x11
 8877 1adc 02       		.uleb128 0x2
 8878 1add 7D       		.byte	0x7d
 8879 1ade 00       		.sleb128 0
ARM GAS  C:\Users\USUARIO\AppData\Local\Temp\ccywmqVe.s 			page 173


 8880 1adf 01       		.uleb128 0x1
 8881 1ae0 30       		.byte	0x30
 8882 1ae1 00       		.byte	0
 8883 1ae2 10       		.uleb128 0x10
 8884 1ae3 F8000000 		.4byte	.LVL375
 8885 1ae7 60090000 		.4byte	0x960
 8886 1aeb 221B0000 		.4byte	0x1b22
 8887 1aef 11       		.uleb128 0x11
 8888 1af0 01       		.uleb128 0x1
 8889 1af1 50       		.byte	0x50
 8890 1af2 02       		.uleb128 0x2
 8891 1af3 76       		.byte	0x76
 8892 1af4 00       		.sleb128 0
 8893 1af5 11       		.uleb128 0x11
 8894 1af6 01       		.uleb128 0x1
 8895 1af7 51       		.byte	0x51
 8896 1af8 02       		.uleb128 0x2
 8897 1af9 77       		.byte	0x77
 8898 1afa 00       		.sleb128 0
 8899 1afb 11       		.uleb128 0x11
 8900 1afc 01       		.uleb128 0x1
 8901 1afd 52       		.byte	0x52
 8902 1afe 0A       		.uleb128 0xa
 8903 1aff 75       		.byte	0x75
 8904 1b00 00       		.sleb128 0
 8905 1b01 32       		.byte	0x32
 8906 1b02 24       		.byte	0x24
 8907 1b03 75       		.byte	0x75
 8908 1b04 00       		.sleb128 0
 8909 1b05 22       		.byte	0x22
 8910 1b06 76       		.byte	0x76
 8911 1b07 00       		.sleb128 0
 8912 1b08 22       		.byte	0x22
 8913 1b09 11       		.uleb128 0x11
 8914 1b0a 01       		.uleb128 0x1
 8915 1b0b 53       		.byte	0x53
 8916 1b0c 07       		.uleb128 0x7
 8917 1b0d 75       		.byte	0x75
 8918 1b0e 00       		.sleb128 0
 8919 1b0f 33       		.byte	0x33
 8920 1b10 24       		.byte	0x24
 8921 1b11 77       		.byte	0x77
 8922 1b12 00       		.sleb128 0
 8923 1b13 22       		.byte	0x22
 8924 1b14 11       		.uleb128 0x11
 8925 1b15 02       		.uleb128 0x2
 8926 1b16 7D       		.byte	0x7d
 8927 1b17 00       		.sleb128 0
 8928 1b18 02       		.uleb128 0x2
 8929 1b19 74       		.byte	0x74
 8930 1b1a 00       		.sleb128 0
 8931 1b1b 11       		.uleb128 0x11
 8932 1b1c 02       		.uleb128 0x2
 8933 1b1d 7D       		.byte	0x7d
 8934 1b1e 04       		.sleb128 4
 8935 1b1f 01       		.uleb128 0x1
 8936 1b20 30       		.byte	0x30
ARM GAS  C:\Users\USUARIO\AppData\Local\Temp\ccywmqVe.s 			page 174


 8937 1b21 00       		.byte	0
 8938 1b22 10       		.uleb128 0x10
 8939 1b23 0A010000 		.4byte	.LVL376
 8940 1b27 030F0000 		.4byte	0xf03
 8941 1b2b 551B0000 		.4byte	0x1b55
 8942 1b2f 11       		.uleb128 0x11
 8943 1b30 01       		.uleb128 0x1
 8944 1b31 50       		.byte	0x50
 8945 1b32 05       		.uleb128 0x5
 8946 1b33 76       		.byte	0x76
 8947 1b34 00       		.sleb128 0
 8948 1b35 74       		.byte	0x74
 8949 1b36 00       		.sleb128 0
 8950 1b37 22       		.byte	0x22
 8951 1b38 11       		.uleb128 0x11
 8952 1b39 01       		.uleb128 0x1
 8953 1b3a 51       		.byte	0x51
 8954 1b3b 05       		.uleb128 0x5
 8955 1b3c 77       		.byte	0x77
 8956 1b3d 00       		.sleb128 0
 8957 1b3e 74       		.byte	0x74
 8958 1b3f 00       		.sleb128 0
 8959 1b40 22       		.byte	0x22
 8960 1b41 11       		.uleb128 0x11
 8961 1b42 01       		.uleb128 0x1
 8962 1b43 52       		.byte	0x52
 8963 1b44 02       		.uleb128 0x2
 8964 1b45 91       		.byte	0x91
 8965 1b46 54       		.sleb128 -44
 8966 1b47 11       		.uleb128 0x11
 8967 1b48 01       		.uleb128 0x1
 8968 1b49 53       		.byte	0x53
 8969 1b4a 02       		.uleb128 0x2
 8970 1b4b 75       		.byte	0x75
 8971 1b4c 00       		.sleb128 0
 8972 1b4d 11       		.uleb128 0x11
 8973 1b4e 02       		.uleb128 0x2
 8974 1b4f 7D       		.byte	0x7d
 8975 1b50 00       		.sleb128 0
 8976 1b51 02       		.uleb128 0x2
 8977 1b52 74       		.byte	0x74
 8978 1b53 00       		.sleb128 0
 8979 1b54 00       		.byte	0
 8980 1b55 15       		.uleb128 0x15
 8981 1b56 0E010000 		.4byte	.LVL377
 8982 1b5a 08040000 		.4byte	0x408
 8983 1b5e 00       		.byte	0
 8984 1b5f 1B       		.uleb128 0x1b
 8985 1b60 0C020000 		.4byte	.LASF66
 8986 1b64 01       		.byte	0x1
 8987 1b65 1503     		.2byte	0x315
 8988 1b67 00000000 		.4byte	.LFB81
 8989 1b6b 5C000000 		.4byte	.LFE81-.LFB81
 8990 1b6f 01       		.uleb128 0x1
 8991 1b70 9C       		.byte	0x9c
 8992 1b71 DB1B0000 		.4byte	0x1bdb
 8993 1b75 1C       		.uleb128 0x1c
ARM GAS  C:\Users\USUARIO\AppData\Local\Temp\ccywmqVe.s 			page 175


 8994 1b76 7800     		.ascii	"x\000"
 8995 1b78 01       		.byte	0x1
 8996 1b79 1503     		.2byte	0x315
 8997 1b7b 9E000000 		.4byte	0x9e
 8998 1b7f 2E110000 		.4byte	.LLST89
 8999 1b83 17       		.uleb128 0x17
 9000 1b84 6900     		.ascii	"i\000"
 9001 1b86 01       		.byte	0x1
 9002 1b87 1703     		.2byte	0x317
 9003 1b89 D5000000 		.4byte	0xd5
 9004 1b8d 68110000 		.4byte	.LLST90
 9005 1b91 17       		.uleb128 0x17
 9006 1b92 6A00     		.ascii	"j\000"
 9007 1b94 01       		.byte	0x1
 9008 1b95 1703     		.2byte	0x317
 9009 1b97 D5000000 		.4byte	0xd5
 9010 1b9b 91110000 		.4byte	.LLST91
 9011 1b9f 17       		.uleb128 0x17
 9012 1ba0 6B00     		.ascii	"k\000"
 9013 1ba2 01       		.byte	0x1
 9014 1ba3 1803     		.2byte	0x318
 9015 1ba5 2C000000 		.4byte	0x2c
 9016 1ba9 BA110000 		.4byte	.LLST92
 9017 1bad 10       		.uleb128 0x10
 9018 1bae 2E000000 		.4byte	.LVL381
 9019 1bb2 F3070000 		.4byte	0x7f3
 9020 1bb6 D11B0000 		.4byte	0x1bd1
 9021 1bba 11       		.uleb128 0x11
 9022 1bbb 01       		.uleb128 0x1
 9023 1bbc 50       		.byte	0x50
 9024 1bbd 07       		.uleb128 0x7
 9025 1bbe 75       		.byte	0x75
 9026 1bbf 00       		.sleb128 0
 9027 1bc0 33       		.byte	0x33
 9028 1bc1 24       		.byte	0x24
 9029 1bc2 74       		.byte	0x74
 9030 1bc3 00       		.sleb128 0
 9031 1bc4 22       		.byte	0x22
 9032 1bc5 11       		.uleb128 0x11
 9033 1bc6 01       		.uleb128 0x1
 9034 1bc7 51       		.byte	0x51
 9035 1bc8 02       		.uleb128 0x2
 9036 1bc9 76       		.byte	0x76
 9037 1bca 00       		.sleb128 0
 9038 1bcb 11       		.uleb128 0x11
 9039 1bcc 01       		.uleb128 0x1
 9040 1bcd 52       		.byte	0x52
 9041 1bce 01       		.uleb128 0x1
 9042 1bcf 31       		.byte	0x31
 9043 1bd0 00       		.byte	0
 9044 1bd1 15       		.uleb128 0x15
 9045 1bd2 56000000 		.4byte	.LVL395
 9046 1bd6 08040000 		.4byte	0x408
 9047 1bda 00       		.byte	0
 9048 1bdb 1B       		.uleb128 0x1b
 9049 1bdc 03010000 		.4byte	.LASF67
 9050 1be0 01       		.byte	0x1
ARM GAS  C:\Users\USUARIO\AppData\Local\Temp\ccywmqVe.s 			page 176


 9051 1be1 2A03     		.2byte	0x32a
 9052 1be3 00000000 		.4byte	.LFB82
 9053 1be7 1E000000 		.4byte	.LFE82-.LFB82
 9054 1beb 01       		.uleb128 0x1
 9055 1bec 9C       		.byte	0x9c
 9056 1bed 401C0000 		.4byte	0x1c40
 9057 1bf1 1C       		.uleb128 0x1c
 9058 1bf2 783100   		.ascii	"x1\000"
 9059 1bf5 01       		.byte	0x1
 9060 1bf6 2A03     		.2byte	0x32a
 9061 1bf8 9E000000 		.4byte	0x9e
 9062 1bfc E3110000 		.4byte	.LLST93
 9063 1c00 1C       		.uleb128 0x1c
 9064 1c01 783200   		.ascii	"x2\000"
 9065 1c04 01       		.byte	0x1
 9066 1c05 2A03     		.2byte	0x32a
 9067 1c07 9E000000 		.4byte	0x9e
 9068 1c0b 04120000 		.4byte	.LLST94
 9069 1c0f 1C       		.uleb128 0x1c
 9070 1c10 7900     		.ascii	"y\000"
 9071 1c12 01       		.byte	0x1
 9072 1c13 2A03     		.2byte	0x32a
 9073 1c15 9E000000 		.4byte	0x9e
 9074 1c19 25120000 		.4byte	.LLST95
 9075 1c1d 12       		.uleb128 0x12
 9076 1c1e 1A000000 		.4byte	.LVL399
 9077 1c22 60090000 		.4byte	0x960
 9078 1c26 11       		.uleb128 0x11
 9079 1c27 01       		.uleb128 0x1
 9080 1c28 51       		.byte	0x51
 9081 1c29 02       		.uleb128 0x2
 9082 1c2a 74       		.byte	0x74
 9083 1c2b 00       		.sleb128 0
 9084 1c2c 11       		.uleb128 0x11
 9085 1c2d 01       		.uleb128 0x1
 9086 1c2e 53       		.byte	0x53
 9087 1c2f 02       		.uleb128 0x2
 9088 1c30 74       		.byte	0x74
 9089 1c31 07       		.sleb128 7
 9090 1c32 11       		.uleb128 0x11
 9091 1c33 02       		.uleb128 0x2
 9092 1c34 7D       		.byte	0x7d
 9093 1c35 00       		.sleb128 0
 9094 1c36 01       		.uleb128 0x1
 9095 1c37 31       		.byte	0x31
 9096 1c38 11       		.uleb128 0x11
 9097 1c39 02       		.uleb128 0x2
 9098 1c3a 7D       		.byte	0x7d
 9099 1c3b 04       		.sleb128 4
 9100 1c3c 01       		.uleb128 0x1
 9101 1c3d 30       		.byte	0x30
 9102 1c3e 00       		.byte	0
 9103 1c3f 00       		.byte	0
 9104 1c40 1B       		.uleb128 0x1b
 9105 1c41 9B030000 		.4byte	.LASF68
 9106 1c45 01       		.byte	0x1
 9107 1c46 2E03     		.2byte	0x32e
ARM GAS  C:\Users\USUARIO\AppData\Local\Temp\ccywmqVe.s 			page 177


 9108 1c48 00000000 		.4byte	.LFB83
 9109 1c4c 4C000000 		.4byte	.LFE83-.LFB83
 9110 1c50 01       		.uleb128 0x1
 9111 1c51 9C       		.byte	0x9c
 9112 1c52 281D0000 		.4byte	0x1d28
 9113 1c56 1C       		.uleb128 0x1c
 9114 1c57 61646300 		.ascii	"adc\000"
 9115 1c5b 01       		.byte	0x1
 9116 1c5c 2E03     		.2byte	0x32e
 9117 1c5e AA000000 		.4byte	0xaa
 9118 1c62 46120000 		.4byte	.LLST96
 9119 1c66 1C       		.uleb128 0x1c
 9120 1c67 7800     		.ascii	"x\000"
 9121 1c69 01       		.byte	0x1
 9122 1c6a 2E03     		.2byte	0x32e
 9123 1c6c 9E000000 		.4byte	0x9e
 9124 1c70 67120000 		.4byte	.LLST97
 9125 1c74 1C       		.uleb128 0x1c
 9126 1c75 7900     		.ascii	"y\000"
 9127 1c77 01       		.byte	0x1
 9128 1c78 2E03     		.2byte	0x32e
 9129 1c7a 9E000000 		.4byte	0x9e
 9130 1c7e 88120000 		.4byte	.LLST98
 9131 1c82 1C       		.uleb128 0x1c
 9132 1c83 7700     		.ascii	"w\000"
 9133 1c85 01       		.byte	0x1
 9134 1c86 2E03     		.2byte	0x32e
 9135 1c88 9E000000 		.4byte	0x9e
 9136 1c8c A9120000 		.4byte	.LLST99
 9137 1c90 1A       		.uleb128 0x1a
 9138 1c91 53000000 		.4byte	.LASF63
 9139 1c95 01       		.byte	0x1
 9140 1c96 2F03     		.2byte	0x32f
 9141 1c98 3B160000 		.4byte	0x163b
 9142 1c9c 02       		.uleb128 0x2
 9143 1c9d 91       		.byte	0x91
 9144 1c9e 5C       		.sleb128 -36
 9145 1c9f 10       		.uleb128 0x10
 9146 1ca0 14000000 		.4byte	.LVL404
 9147 1ca4 B5230000 		.4byte	0x23b5
 9148 1ca8 BC1C0000 		.4byte	0x1cbc
 9149 1cac 11       		.uleb128 0x11
 9150 1cad 01       		.uleb128 0x1
 9151 1cae 50       		.byte	0x50
 9152 1caf 02       		.uleb128 0x2
 9153 1cb0 91       		.byte	0x91
 9154 1cb1 5C       		.sleb128 -36
 9155 1cb2 11       		.uleb128 0x11
 9156 1cb3 01       		.uleb128 0x1
 9157 1cb4 51       		.byte	0x51
 9158 1cb5 05       		.uleb128 0x5
 9159 1cb6 03       		.byte	0x3
 9160 1cb7 08000000 		.4byte	.LC1
 9161 1cbb 00       		.byte	0
 9162 1cbc 10       		.uleb128 0x10
 9163 1cbd 36000000 		.4byte	.LVL405
 9164 1cc1 60090000 		.4byte	0x960
ARM GAS  C:\Users\USUARIO\AppData\Local\Temp\ccywmqVe.s 			page 178


 9165 1cc5 FE1C0000 		.4byte	0x1cfe
 9166 1cc9 11       		.uleb128 0x11
 9167 1cca 01       		.uleb128 0x1
 9168 1ccb 50       		.byte	0x50
 9169 1ccc 02       		.uleb128 0x2
 9170 1ccd 75       		.byte	0x75
 9171 1cce 00       		.sleb128 0
 9172 1ccf 11       		.uleb128 0x11
 9173 1cd0 01       		.uleb128 0x1
 9174 1cd1 51       		.byte	0x51
 9175 1cd2 02       		.uleb128 0x2
 9176 1cd3 76       		.byte	0x76
 9177 1cd4 00       		.sleb128 0
 9178 1cd5 11       		.uleb128 0x11
 9179 1cd6 01       		.uleb128 0x1
 9180 1cd7 52       		.byte	0x52
 9181 1cd8 0C       		.uleb128 0xc
 9182 1cd9 74       		.byte	0x74
 9183 1cda 00       		.sleb128 0
 9184 1cdb 31       		.byte	0x31
 9185 1cdc 24       		.byte	0x24
 9186 1cdd 74       		.byte	0x74
 9187 1cde 00       		.sleb128 0
 9188 1cdf 22       		.byte	0x22
 9189 1ce0 39       		.byte	0x39
 9190 1ce1 1E       		.byte	0x1e
 9191 1ce2 75       		.byte	0x75
 9192 1ce3 00       		.sleb128 0
 9193 1ce4 22       		.byte	0x22
 9194 1ce5 11       		.uleb128 0x11
 9195 1ce6 01       		.uleb128 0x1
 9196 1ce7 53       		.byte	0x53
 9197 1ce8 07       		.uleb128 0x7
 9198 1ce9 74       		.byte	0x74
 9199 1cea 00       		.sleb128 0
 9200 1ceb 33       		.byte	0x33
 9201 1cec 24       		.byte	0x24
 9202 1ced 76       		.byte	0x76
 9203 1cee 00       		.sleb128 0
 9204 1cef 22       		.byte	0x22
 9205 1cf0 11       		.uleb128 0x11
 9206 1cf1 02       		.uleb128 0x2
 9207 1cf2 7D       		.byte	0x7d
 9208 1cf3 00       		.sleb128 0
 9209 1cf4 02       		.uleb128 0x2
 9210 1cf5 77       		.byte	0x77
 9211 1cf6 00       		.sleb128 0
 9212 1cf7 11       		.uleb128 0x11
 9213 1cf8 02       		.uleb128 0x2
 9214 1cf9 7D       		.byte	0x7d
 9215 1cfa 04       		.sleb128 4
 9216 1cfb 01       		.uleb128 0x1
 9217 1cfc 30       		.byte	0x30
 9218 1cfd 00       		.byte	0
 9219 1cfe 12       		.uleb128 0x12
 9220 1cff 44000000 		.4byte	.LVL406
 9221 1d03 030F0000 		.4byte	0xf03
ARM GAS  C:\Users\USUARIO\AppData\Local\Temp\ccywmqVe.s 			page 179


 9222 1d07 11       		.uleb128 0x11
 9223 1d08 01       		.uleb128 0x1
 9224 1d09 50       		.byte	0x50
 9225 1d0a 02       		.uleb128 0x2
 9226 1d0b 75       		.byte	0x75
 9227 1d0c 00       		.sleb128 0
 9228 1d0d 11       		.uleb128 0x11
 9229 1d0e 01       		.uleb128 0x1
 9230 1d0f 51       		.byte	0x51
 9231 1d10 02       		.uleb128 0x2
 9232 1d11 76       		.byte	0x76
 9233 1d12 00       		.sleb128 0
 9234 1d13 11       		.uleb128 0x11
 9235 1d14 01       		.uleb128 0x1
 9236 1d15 52       		.byte	0x52
 9237 1d16 02       		.uleb128 0x2
 9238 1d17 91       		.byte	0x91
 9239 1d18 5C       		.sleb128 -36
 9240 1d19 11       		.uleb128 0x11
 9241 1d1a 01       		.uleb128 0x1
 9242 1d1b 53       		.byte	0x53
 9243 1d1c 02       		.uleb128 0x2
 9244 1d1d 74       		.byte	0x74
 9245 1d1e 00       		.sleb128 0
 9246 1d1f 11       		.uleb128 0x11
 9247 1d20 02       		.uleb128 0x2
 9248 1d21 7D       		.byte	0x7d
 9249 1d22 00       		.sleb128 0
 9250 1d23 02       		.uleb128 0x2
 9251 1d24 77       		.byte	0x77
 9252 1d25 00       		.sleb128 0
 9253 1d26 00       		.byte	0
 9254 1d27 00       		.byte	0
 9255 1d28 24       		.uleb128 0x24
 9256 1d29 85020000 		.4byte	.LASF69
 9257 1d2d 01       		.byte	0x1
 9258 1d2e 3503     		.2byte	0x335
 9259 1d30 00000000 		.4byte	.LFB84
 9260 1d34 54000000 		.4byte	.LFE84-.LFB84
 9261 1d38 01       		.uleb128 0x1
 9262 1d39 9C       		.byte	0x9c
 9263 1d3a 101E0000 		.4byte	0x1e10
 9264 1d3e 1C       		.uleb128 0x1c
 9265 1d3f 61646300 		.ascii	"adc\000"
 9266 1d43 01       		.byte	0x1
 9267 1d44 3503     		.2byte	0x335
 9268 1d46 25000000 		.4byte	0x25
 9269 1d4a CA120000 		.4byte	.LLST100
 9270 1d4e 1C       		.uleb128 0x1c
 9271 1d4f 7800     		.ascii	"x\000"
 9272 1d51 01       		.byte	0x1
 9273 1d52 3503     		.2byte	0x335
 9274 1d54 9E000000 		.4byte	0x9e
 9275 1d58 ED120000 		.4byte	.LLST101
 9276 1d5c 1C       		.uleb128 0x1c
 9277 1d5d 7900     		.ascii	"y\000"
 9278 1d5f 01       		.byte	0x1
ARM GAS  C:\Users\USUARIO\AppData\Local\Temp\ccywmqVe.s 			page 180


 9279 1d60 3503     		.2byte	0x335
 9280 1d62 9E000000 		.4byte	0x9e
 9281 1d66 0E130000 		.4byte	.LLST102
 9282 1d6a 1C       		.uleb128 0x1c
 9283 1d6b 7700     		.ascii	"w\000"
 9284 1d6d 01       		.byte	0x1
 9285 1d6e 3503     		.2byte	0x335
 9286 1d70 9E000000 		.4byte	0x9e
 9287 1d74 2F130000 		.4byte	.LLST103
 9288 1d78 1A       		.uleb128 0x1a
 9289 1d79 53000000 		.4byte	.LASF63
 9290 1d7d 01       		.byte	0x1
 9291 1d7e 3603     		.2byte	0x336
 9292 1d80 3B160000 		.4byte	0x163b
 9293 1d84 02       		.uleb128 0x2
 9294 1d85 91       		.byte	0x91
 9295 1d86 5C       		.sleb128 -36
 9296 1d87 10       		.uleb128 0x10
 9297 1d88 1A000000 		.4byte	.LVL409
 9298 1d8c B5230000 		.4byte	0x23b5
 9299 1d90 A41D0000 		.4byte	0x1da4
 9300 1d94 11       		.uleb128 0x11
 9301 1d95 01       		.uleb128 0x1
 9302 1d96 50       		.byte	0x50
 9303 1d97 02       		.uleb128 0x2
 9304 1d98 91       		.byte	0x91
 9305 1d99 5C       		.sleb128 -36
 9306 1d9a 11       		.uleb128 0x11
 9307 1d9b 01       		.uleb128 0x1
 9308 1d9c 51       		.byte	0x51
 9309 1d9d 05       		.uleb128 0x5
 9310 1d9e 03       		.byte	0x3
 9311 1d9f 20000000 		.4byte	.LC5
 9312 1da3 00       		.byte	0
 9313 1da4 10       		.uleb128 0x10
 9314 1da5 3C000000 		.4byte	.LVL410
 9315 1da9 60090000 		.4byte	0x960
 9316 1dad E61D0000 		.4byte	0x1de6
 9317 1db1 11       		.uleb128 0x11
 9318 1db2 01       		.uleb128 0x1
 9319 1db3 50       		.byte	0x50
 9320 1db4 02       		.uleb128 0x2
 9321 1db5 75       		.byte	0x75
 9322 1db6 00       		.sleb128 0
 9323 1db7 11       		.uleb128 0x11
 9324 1db8 01       		.uleb128 0x1
 9325 1db9 51       		.byte	0x51
 9326 1dba 02       		.uleb128 0x2
 9327 1dbb 76       		.byte	0x76
 9328 1dbc 00       		.sleb128 0
 9329 1dbd 11       		.uleb128 0x11
 9330 1dbe 01       		.uleb128 0x1
 9331 1dbf 52       		.byte	0x52
 9332 1dc0 0C       		.uleb128 0xc
 9333 1dc1 74       		.byte	0x74
 9334 1dc2 00       		.sleb128 0
 9335 1dc3 31       		.byte	0x31
ARM GAS  C:\Users\USUARIO\AppData\Local\Temp\ccywmqVe.s 			page 181


 9336 1dc4 24       		.byte	0x24
 9337 1dc5 74       		.byte	0x74
 9338 1dc6 00       		.sleb128 0
 9339 1dc7 22       		.byte	0x22
 9340 1dc8 39       		.byte	0x39
 9341 1dc9 1E       		.byte	0x1e
 9342 1dca 75       		.byte	0x75
 9343 1dcb 00       		.sleb128 0
 9344 1dcc 22       		.byte	0x22
 9345 1dcd 11       		.uleb128 0x11
 9346 1dce 01       		.uleb128 0x1
 9347 1dcf 53       		.byte	0x53
 9348 1dd0 07       		.uleb128 0x7
 9349 1dd1 74       		.byte	0x74
 9350 1dd2 00       		.sleb128 0
 9351 1dd3 33       		.byte	0x33
 9352 1dd4 24       		.byte	0x24
 9353 1dd5 76       		.byte	0x76
 9354 1dd6 00       		.sleb128 0
 9355 1dd7 22       		.byte	0x22
 9356 1dd8 11       		.uleb128 0x11
 9357 1dd9 02       		.uleb128 0x2
 9358 1dda 7D       		.byte	0x7d
 9359 1ddb 00       		.sleb128 0
 9360 1ddc 02       		.uleb128 0x2
 9361 1ddd 77       		.byte	0x77
 9362 1dde 00       		.sleb128 0
 9363 1ddf 11       		.uleb128 0x11
 9364 1de0 02       		.uleb128 0x2
 9365 1de1 7D       		.byte	0x7d
 9366 1de2 04       		.sleb128 4
 9367 1de3 01       		.uleb128 0x1
 9368 1de4 30       		.byte	0x30
 9369 1de5 00       		.byte	0
 9370 1de6 12       		.uleb128 0x12
 9371 1de7 4A000000 		.4byte	.LVL411
 9372 1deb 030F0000 		.4byte	0xf03
 9373 1def 11       		.uleb128 0x11
 9374 1df0 01       		.uleb128 0x1
 9375 1df1 50       		.byte	0x50
 9376 1df2 02       		.uleb128 0x2
 9377 1df3 75       		.byte	0x75
 9378 1df4 00       		.sleb128 0
 9379 1df5 11       		.uleb128 0x11
 9380 1df6 01       		.uleb128 0x1
 9381 1df7 51       		.byte	0x51
 9382 1df8 02       		.uleb128 0x2
 9383 1df9 76       		.byte	0x76
 9384 1dfa 00       		.sleb128 0
 9385 1dfb 11       		.uleb128 0x11
 9386 1dfc 01       		.uleb128 0x1
 9387 1dfd 52       		.byte	0x52
 9388 1dfe 02       		.uleb128 0x2
 9389 1dff 91       		.byte	0x91
 9390 1e00 5C       		.sleb128 -36
 9391 1e01 11       		.uleb128 0x11
 9392 1e02 01       		.uleb128 0x1
ARM GAS  C:\Users\USUARIO\AppData\Local\Temp\ccywmqVe.s 			page 182


 9393 1e03 53       		.byte	0x53
 9394 1e04 02       		.uleb128 0x2
 9395 1e05 74       		.byte	0x74
 9396 1e06 00       		.sleb128 0
 9397 1e07 11       		.uleb128 0x11
 9398 1e08 02       		.uleb128 0x2
 9399 1e09 7D       		.byte	0x7d
 9400 1e0a 00       		.sleb128 0
 9401 1e0b 02       		.uleb128 0x2
 9402 1e0c 77       		.byte	0x77
 9403 1e0d 00       		.sleb128 0
 9404 1e0e 00       		.byte	0
 9405 1e0f 00       		.byte	0
 9406 1e10 1B       		.uleb128 0x1b
 9407 1e11 F7030000 		.4byte	.LASF70
 9408 1e15 01       		.byte	0x1
 9409 1e16 3C03     		.2byte	0x33c
 9410 1e18 00000000 		.4byte	.LFB85
 9411 1e1c 80000000 		.4byte	.LFE85-.LFB85
 9412 1e20 01       		.uleb128 0x1
 9413 1e21 9C       		.byte	0x9c
 9414 1e22 451F0000 		.4byte	0x1f45
 9415 1e26 19       		.uleb128 0x19
 9416 1e27 4A010000 		.4byte	.LASF62
 9417 1e2b 01       		.byte	0x1
 9418 1e2c 3C03     		.2byte	0x33c
 9419 1e2e 9E000000 		.4byte	0x9e
 9420 1e32 50130000 		.4byte	.LLST104
 9421 1e36 1C       		.uleb128 0x1c
 9422 1e37 7800     		.ascii	"x\000"
 9423 1e39 01       		.byte	0x1
 9424 1e3a 3C03     		.2byte	0x33c
 9425 1e3c 9E000000 		.4byte	0x9e
 9426 1e40 71130000 		.4byte	.LLST105
 9427 1e44 1C       		.uleb128 0x1c
 9428 1e45 7900     		.ascii	"y\000"
 9429 1e47 01       		.byte	0x1
 9430 1e48 3C03     		.2byte	0x33c
 9431 1e4a 9E000000 		.4byte	0x9e
 9432 1e4e 92130000 		.4byte	.LLST106
 9433 1e52 19       		.uleb128 0x19
 9434 1e53 F9000000 		.4byte	.LASF59
 9435 1e57 01       		.byte	0x1
 9436 1e58 3C03     		.2byte	0x33c
 9437 1e5a 9E000000 		.4byte	0x9e
 9438 1e5e B3130000 		.4byte	.LLST107
 9439 1e62 1A       		.uleb128 0x1a
 9440 1e63 53000000 		.4byte	.LASF63
 9441 1e67 01       		.byte	0x1
 9442 1e68 3E03     		.2byte	0x33e
 9443 1e6a 3B160000 		.4byte	0x163b
 9444 1e6e 02       		.uleb128 0x2
 9445 1e6f 91       		.byte	0x91
 9446 1e70 64       		.sleb128 -28
 9447 1e71 10       		.uleb128 0x10
 9448 1e72 14000000 		.4byte	.LVL416
 9449 1e76 B5230000 		.4byte	0x23b5
ARM GAS  C:\Users\USUARIO\AppData\Local\Temp\ccywmqVe.s 			page 183


 9450 1e7a 8E1E0000 		.4byte	0x1e8e
 9451 1e7e 11       		.uleb128 0x11
 9452 1e7f 01       		.uleb128 0x1
 9453 1e80 50       		.byte	0x50
 9454 1e81 02       		.uleb128 0x2
 9455 1e82 91       		.byte	0x91
 9456 1e83 64       		.sleb128 -28
 9457 1e84 11       		.uleb128 0x11
 9458 1e85 01       		.uleb128 0x1
 9459 1e86 51       		.byte	0x51
 9460 1e87 05       		.uleb128 0x5
 9461 1e88 03       		.byte	0x3
 9462 1e89 28000000 		.4byte	.LC6
 9463 1e8d 00       		.byte	0
 9464 1e8e 10       		.uleb128 0x10
 9465 1e8f 32000000 		.4byte	.LVL417
 9466 1e93 60090000 		.4byte	0x960
 9467 1e97 C01E0000 		.4byte	0x1ec0
 9468 1e9b 11       		.uleb128 0x11
 9469 1e9c 01       		.uleb128 0x1
 9470 1e9d 50       		.byte	0x50
 9471 1e9e 02       		.uleb128 0x2
 9472 1e9f 74       		.byte	0x74
 9473 1ea0 00       		.sleb128 0
 9474 1ea1 11       		.uleb128 0x11
 9475 1ea2 01       		.uleb128 0x1
 9476 1ea3 51       		.byte	0x51
 9477 1ea4 02       		.uleb128 0x2
 9478 1ea5 75       		.byte	0x75
 9479 1ea6 00       		.sleb128 0
 9480 1ea7 11       		.uleb128 0x11
 9481 1ea8 01       		.uleb128 0x1
 9482 1ea9 52       		.byte	0x52
 9483 1eaa 02       		.uleb128 0x2
 9484 1eab 74       		.byte	0x74
 9485 1eac 12       		.sleb128 18
 9486 1ead 11       		.uleb128 0x11
 9487 1eae 01       		.uleb128 0x1
 9488 1eaf 53       		.byte	0x53
 9489 1eb0 02       		.uleb128 0x2
 9490 1eb1 75       		.byte	0x75
 9491 1eb2 18       		.sleb128 24
 9492 1eb3 11       		.uleb128 0x11
 9493 1eb4 02       		.uleb128 0x2
 9494 1eb5 7D       		.byte	0x7d
 9495 1eb6 00       		.sleb128 0
 9496 1eb7 01       		.uleb128 0x1
 9497 1eb8 31       		.byte	0x31
 9498 1eb9 11       		.uleb128 0x11
 9499 1eba 02       		.uleb128 0x2
 9500 1ebb 7D       		.byte	0x7d
 9501 1ebc 04       		.sleb128 4
 9502 1ebd 01       		.uleb128 0x1
 9503 1ebe 31       		.byte	0x31
 9504 1ebf 00       		.byte	0
 9505 1ec0 10       		.uleb128 0x10
 9506 1ec1 46000000 		.4byte	.LVL418
ARM GAS  C:\Users\USUARIO\AppData\Local\Temp\ccywmqVe.s 			page 184


 9507 1ec5 030F0000 		.4byte	0xf03
 9508 1ec9 EB1E0000 		.4byte	0x1eeb
 9509 1ecd 11       		.uleb128 0x11
 9510 1ece 01       		.uleb128 0x1
 9511 1ecf 50       		.byte	0x50
 9512 1ed0 02       		.uleb128 0x2
 9513 1ed1 74       		.byte	0x74
 9514 1ed2 02       		.sleb128 2
 9515 1ed3 11       		.uleb128 0x11
 9516 1ed4 01       		.uleb128 0x1
 9517 1ed5 51       		.byte	0x51
 9518 1ed6 02       		.uleb128 0x2
 9519 1ed7 75       		.byte	0x75
 9520 1ed8 01       		.sleb128 1
 9521 1ed9 11       		.uleb128 0x11
 9522 1eda 01       		.uleb128 0x1
 9523 1edb 52       		.byte	0x52
 9524 1edc 02       		.uleb128 0x2
 9525 1edd 91       		.byte	0x91
 9526 1ede 64       		.sleb128 -28
 9527 1edf 11       		.uleb128 0x11
 9528 1ee0 01       		.uleb128 0x1
 9529 1ee1 53       		.byte	0x53
 9530 1ee2 01       		.uleb128 0x1
 9531 1ee3 32       		.byte	0x32
 9532 1ee4 11       		.uleb128 0x11
 9533 1ee5 02       		.uleb128 0x2
 9534 1ee6 7D       		.byte	0x7d
 9535 1ee7 00       		.sleb128 0
 9536 1ee8 01       		.uleb128 0x1
 9537 1ee9 30       		.byte	0x30
 9538 1eea 00       		.byte	0
 9539 1eeb 10       		.uleb128 0x10
 9540 1eec 62000000 		.4byte	.LVL419
 9541 1ef0 60090000 		.4byte	0x960
 9542 1ef4 1D1F0000 		.4byte	0x1f1d
 9543 1ef8 11       		.uleb128 0x11
 9544 1ef9 01       		.uleb128 0x1
 9545 1efa 50       		.byte	0x50
 9546 1efb 02       		.uleb128 0x2
 9547 1efc 74       		.byte	0x74
 9548 1efd 00       		.sleb128 0
 9549 1efe 11       		.uleb128 0x11
 9550 1eff 01       		.uleb128 0x1
 9551 1f00 51       		.byte	0x51
 9552 1f01 02       		.uleb128 0x2
 9553 1f02 75       		.byte	0x75
 9554 1f03 00       		.sleb128 0
 9555 1f04 11       		.uleb128 0x11
 9556 1f05 01       		.uleb128 0x1
 9557 1f06 52       		.byte	0x52
 9558 1f07 02       		.uleb128 0x2
 9559 1f08 74       		.byte	0x74
 9560 1f09 12       		.sleb128 18
 9561 1f0a 11       		.uleb128 0x11
 9562 1f0b 01       		.uleb128 0x1
 9563 1f0c 53       		.byte	0x53
ARM GAS  C:\Users\USUARIO\AppData\Local\Temp\ccywmqVe.s 			page 185


 9564 1f0d 02       		.uleb128 0x2
 9565 1f0e 75       		.byte	0x75
 9566 1f0f 18       		.sleb128 24
 9567 1f10 11       		.uleb128 0x11
 9568 1f11 02       		.uleb128 0x2
 9569 1f12 7D       		.byte	0x7d
 9570 1f13 00       		.sleb128 0
 9571 1f14 01       		.uleb128 0x1
 9572 1f15 30       		.byte	0x30
 9573 1f16 11       		.uleb128 0x11
 9574 1f17 02       		.uleb128 0x2
 9575 1f18 7D       		.byte	0x7d
 9576 1f19 04       		.sleb128 4
 9577 1f1a 01       		.uleb128 0x1
 9578 1f1b 30       		.byte	0x30
 9579 1f1c 00       		.byte	0
 9580 1f1d 12       		.uleb128 0x12
 9581 1f1e 76000000 		.4byte	.LVL420
 9582 1f22 030F0000 		.4byte	0xf03
 9583 1f26 11       		.uleb128 0x11
 9584 1f27 01       		.uleb128 0x1
 9585 1f28 50       		.byte	0x50
 9586 1f29 02       		.uleb128 0x2
 9587 1f2a 74       		.byte	0x74
 9588 1f2b 02       		.sleb128 2
 9589 1f2c 11       		.uleb128 0x11
 9590 1f2d 01       		.uleb128 0x1
 9591 1f2e 51       		.byte	0x51
 9592 1f2f 02       		.uleb128 0x2
 9593 1f30 75       		.byte	0x75
 9594 1f31 01       		.sleb128 1
 9595 1f32 11       		.uleb128 0x11
 9596 1f33 01       		.uleb128 0x1
 9597 1f34 52       		.byte	0x52
 9598 1f35 02       		.uleb128 0x2
 9599 1f36 91       		.byte	0x91
 9600 1f37 64       		.sleb128 -28
 9601 1f38 11       		.uleb128 0x11
 9602 1f39 01       		.uleb128 0x1
 9603 1f3a 53       		.byte	0x53
 9604 1f3b 01       		.uleb128 0x1
 9605 1f3c 32       		.byte	0x32
 9606 1f3d 11       		.uleb128 0x11
 9607 1f3e 02       		.uleb128 0x2
 9608 1f3f 7D       		.byte	0x7d
 9609 1f40 00       		.sleb128 0
 9610 1f41 01       		.uleb128 0x1
 9611 1f42 31       		.byte	0x31
 9612 1f43 00       		.byte	0
 9613 1f44 00       		.byte	0
 9614 1f45 1B       		.uleb128 0x1b
 9615 1f46 D4020000 		.4byte	.LASF71
 9616 1f4a 01       		.byte	0x1
 9617 1f4b 4803     		.2byte	0x348
 9618 1f4d 00000000 		.4byte	.LFB86
 9619 1f51 24010000 		.4byte	.LFE86-.LFB86
 9620 1f55 01       		.uleb128 0x1
ARM GAS  C:\Users\USUARIO\AppData\Local\Temp\ccywmqVe.s 			page 186


 9621 1f56 9C       		.byte	0x9c
 9622 1f57 F1210000 		.4byte	0x21f1
 9623 1f5b 19       		.uleb128 0x19
 9624 1f5c 4A010000 		.4byte	.LASF62
 9625 1f60 01       		.byte	0x1
 9626 1f61 4803     		.2byte	0x348
 9627 1f63 9E000000 		.4byte	0x9e
 9628 1f67 D4130000 		.4byte	.LLST108
 9629 1f6b 1C       		.uleb128 0x1c
 9630 1f6c 7800     		.ascii	"x\000"
 9631 1f6e 01       		.byte	0x1
 9632 1f6f 4803     		.2byte	0x348
 9633 1f71 9E000000 		.4byte	0x9e
 9634 1f75 0E140000 		.4byte	.LLST109
 9635 1f79 1C       		.uleb128 0x1c
 9636 1f7a 7900     		.ascii	"y\000"
 9637 1f7c 01       		.byte	0x1
 9638 1f7d 4803     		.2byte	0x348
 9639 1f7f 9E000000 		.4byte	0x9e
 9640 1f83 48140000 		.4byte	.LLST110
 9641 1f87 19       		.uleb128 0x19
 9642 1f88 F9000000 		.4byte	.LASF59
 9643 1f8c 01       		.byte	0x1
 9644 1f8d 4803     		.2byte	0x348
 9645 1f8f 9E000000 		.4byte	0x9e
 9646 1f93 82140000 		.4byte	.LLST111
 9647 1f97 19       		.uleb128 0x19
 9648 1f98 24030000 		.4byte	.LASF60
 9649 1f9c 01       		.byte	0x1
 9650 1f9d 4803     		.2byte	0x348
 9651 1f9f 9E000000 		.4byte	0x9e
 9652 1fa3 BC140000 		.4byte	.LLST112
 9653 1fa7 1A       		.uleb128 0x1a
 9654 1fa8 53000000 		.4byte	.LASF63
 9655 1fac 01       		.byte	0x1
 9656 1fad 4A03     		.2byte	0x34a
 9657 1faf 3B160000 		.4byte	0x163b
 9658 1fb3 02       		.uleb128 0x2
 9659 1fb4 91       		.byte	0x91
 9660 1fb5 54       		.sleb128 -44
 9661 1fb6 10       		.uleb128 0x10
 9662 1fb7 1E000000 		.4byte	.LVL425
 9663 1fbb B5230000 		.4byte	0x23b5
 9664 1fbf D91F0000 		.4byte	0x1fd9
 9665 1fc3 11       		.uleb128 0x11
 9666 1fc4 01       		.uleb128 0x1
 9667 1fc5 50       		.byte	0x50
 9668 1fc6 02       		.uleb128 0x2
 9669 1fc7 91       		.byte	0x91
 9670 1fc8 54       		.sleb128 -44
 9671 1fc9 11       		.uleb128 0x11
 9672 1fca 01       		.uleb128 0x1
 9673 1fcb 51       		.byte	0x51
 9674 1fcc 05       		.uleb128 0x5
 9675 1fcd 03       		.byte	0x3
 9676 1fce 2C000000 		.4byte	.LC7
 9677 1fd2 11       		.uleb128 0x11
ARM GAS  C:\Users\USUARIO\AppData\Local\Temp\ccywmqVe.s 			page 187


 9678 1fd3 01       		.uleb128 0x1
 9679 1fd4 52       		.byte	0x52
 9680 1fd5 02       		.uleb128 0x2
 9681 1fd6 78       		.byte	0x78
 9682 1fd7 00       		.sleb128 0
 9683 1fd8 00       		.byte	0
 9684 1fd9 10       		.uleb128 0x10
 9685 1fda 3E000000 		.4byte	.LVL426
 9686 1fde 60090000 		.4byte	0x960
 9687 1fe2 1B200000 		.4byte	0x201b
 9688 1fe6 11       		.uleb128 0x11
 9689 1fe7 01       		.uleb128 0x1
 9690 1fe8 50       		.byte	0x50
 9691 1fe9 02       		.uleb128 0x2
 9692 1fea 75       		.byte	0x75
 9693 1feb 00       		.sleb128 0
 9694 1fec 11       		.uleb128 0x11
 9695 1fed 01       		.uleb128 0x1
 9696 1fee 51       		.byte	0x51
 9697 1fef 02       		.uleb128 0x2
 9698 1ff0 76       		.byte	0x76
 9699 1ff1 00       		.sleb128 0
 9700 1ff2 11       		.uleb128 0x11
 9701 1ff3 01       		.uleb128 0x1
 9702 1ff4 52       		.byte	0x52
 9703 1ff5 0C       		.uleb128 0xc
 9704 1ff6 77       		.byte	0x77
 9705 1ff7 00       		.sleb128 0
 9706 1ff8 31       		.byte	0x31
 9707 1ff9 24       		.byte	0x24
 9708 1ffa 77       		.byte	0x77
 9709 1ffb 00       		.sleb128 0
 9710 1ffc 22       		.byte	0x22
 9711 1ffd 32       		.byte	0x32
 9712 1ffe 24       		.byte	0x24
 9713 1fff 75       		.byte	0x75
 9714 2000 00       		.sleb128 0
 9715 2001 22       		.byte	0x22
 9716 2002 11       		.uleb128 0x11
 9717 2003 01       		.uleb128 0x1
 9718 2004 53       		.byte	0x53
 9719 2005 07       		.uleb128 0x7
 9720 2006 77       		.byte	0x77
 9721 2007 00       		.sleb128 0
 9722 2008 33       		.byte	0x33
 9723 2009 24       		.byte	0x24
 9724 200a 76       		.byte	0x76
 9725 200b 00       		.sleb128 0
 9726 200c 22       		.byte	0x22
 9727 200d 11       		.uleb128 0x11
 9728 200e 02       		.uleb128 0x2
 9729 200f 7D       		.byte	0x7d
 9730 2010 00       		.sleb128 0
 9731 2011 02       		.uleb128 0x2
 9732 2012 74       		.byte	0x74
 9733 2013 00       		.sleb128 0
 9734 2014 11       		.uleb128 0x11
ARM GAS  C:\Users\USUARIO\AppData\Local\Temp\ccywmqVe.s 			page 188


 9735 2015 02       		.uleb128 0x2
 9736 2016 7D       		.byte	0x7d
 9737 2017 04       		.sleb128 4
 9738 2018 01       		.uleb128 0x1
 9739 2019 30       		.byte	0x30
 9740 201a 00       		.byte	0
 9741 201b 10       		.uleb128 0x10
 9742 201c 50000000 		.4byte	.LVL427
 9743 2020 030F0000 		.4byte	0xf03
 9744 2024 4E200000 		.4byte	0x204e
 9745 2028 11       		.uleb128 0x11
 9746 2029 01       		.uleb128 0x1
 9747 202a 50       		.byte	0x50
 9748 202b 05       		.uleb128 0x5
 9749 202c 75       		.byte	0x75
 9750 202d 00       		.sleb128 0
 9751 202e 74       		.byte	0x74
 9752 202f 00       		.sleb128 0
 9753 2030 22       		.byte	0x22
 9754 2031 11       		.uleb128 0x11
 9755 2032 01       		.uleb128 0x1
 9756 2033 51       		.byte	0x51
 9757 2034 05       		.uleb128 0x5
 9758 2035 76       		.byte	0x76
 9759 2036 00       		.sleb128 0
 9760 2037 74       		.byte	0x74
 9761 2038 00       		.sleb128 0
 9762 2039 22       		.byte	0x22
 9763 203a 11       		.uleb128 0x11
 9764 203b 01       		.uleb128 0x1
 9765 203c 52       		.byte	0x52
 9766 203d 02       		.uleb128 0x2
 9767 203e 91       		.byte	0x91
 9768 203f 54       		.sleb128 -44
 9769 2040 11       		.uleb128 0x11
 9770 2041 01       		.uleb128 0x1
 9771 2042 53       		.byte	0x53
 9772 2043 02       		.uleb128 0x2
 9773 2044 77       		.byte	0x77
 9774 2045 00       		.sleb128 0
 9775 2046 11       		.uleb128 0x11
 9776 2047 02       		.uleb128 0x2
 9777 2048 7D       		.byte	0x7d
 9778 2049 00       		.sleb128 0
 9779 204a 02       		.uleb128 0x2
 9780 204b 74       		.byte	0x74
 9781 204c 00       		.sleb128 0
 9782 204d 00       		.byte	0
 9783 204e 10       		.uleb128 0x10
 9784 204f 62000000 		.4byte	.LVL432
 9785 2053 B5230000 		.4byte	0x23b5
 9786 2057 71200000 		.4byte	0x2071
 9787 205b 11       		.uleb128 0x11
 9788 205c 01       		.uleb128 0x1
 9789 205d 50       		.byte	0x50
 9790 205e 02       		.uleb128 0x2
 9791 205f 91       		.byte	0x91
ARM GAS  C:\Users\USUARIO\AppData\Local\Temp\ccywmqVe.s 			page 189


 9792 2060 54       		.sleb128 -44
 9793 2061 11       		.uleb128 0x11
 9794 2062 01       		.uleb128 0x1
 9795 2063 51       		.byte	0x51
 9796 2064 05       		.uleb128 0x5
 9797 2065 03       		.byte	0x3
 9798 2066 14000000 		.4byte	.LC3
 9799 206a 11       		.uleb128 0x11
 9800 206b 01       		.uleb128 0x1
 9801 206c 52       		.byte	0x52
 9802 206d 02       		.uleb128 0x2
 9803 206e 78       		.byte	0x78
 9804 206f 00       		.sleb128 0
 9805 2070 00       		.byte	0
 9806 2071 10       		.uleb128 0x10
 9807 2072 86000000 		.4byte	.LVL433
 9808 2076 60090000 		.4byte	0x960
 9809 207a B3200000 		.4byte	0x20b3
 9810 207e 11       		.uleb128 0x11
 9811 207f 01       		.uleb128 0x1
 9812 2080 50       		.byte	0x50
 9813 2081 02       		.uleb128 0x2
 9814 2082 75       		.byte	0x75
 9815 2083 00       		.sleb128 0
 9816 2084 11       		.uleb128 0x11
 9817 2085 01       		.uleb128 0x1
 9818 2086 51       		.byte	0x51
 9819 2087 02       		.uleb128 0x2
 9820 2088 76       		.byte	0x76
 9821 2089 00       		.sleb128 0
 9822 208a 11       		.uleb128 0x11
 9823 208b 01       		.uleb128 0x1
 9824 208c 52       		.byte	0x52
 9825 208d 0C       		.uleb128 0xc
 9826 208e 77       		.byte	0x77
 9827 208f 00       		.sleb128 0
 9828 2090 33       		.byte	0x33
 9829 2091 24       		.byte	0x24
 9830 2092 77       		.byte	0x77
 9831 2093 00       		.sleb128 0
 9832 2094 22       		.byte	0x22
 9833 2095 31       		.byte	0x31
 9834 2096 24       		.byte	0x24
 9835 2097 75       		.byte	0x75
 9836 2098 00       		.sleb128 0
 9837 2099 22       		.byte	0x22
 9838 209a 11       		.uleb128 0x11
 9839 209b 01       		.uleb128 0x1
 9840 209c 53       		.byte	0x53
 9841 209d 07       		.uleb128 0x7
 9842 209e 77       		.byte	0x77
 9843 209f 00       		.sleb128 0
 9844 20a0 33       		.byte	0x33
 9845 20a1 24       		.byte	0x24
 9846 20a2 76       		.byte	0x76
 9847 20a3 00       		.sleb128 0
 9848 20a4 22       		.byte	0x22
ARM GAS  C:\Users\USUARIO\AppData\Local\Temp\ccywmqVe.s 			page 190


 9849 20a5 11       		.uleb128 0x11
 9850 20a6 02       		.uleb128 0x2
 9851 20a7 7D       		.byte	0x7d
 9852 20a8 00       		.sleb128 0
 9853 20a9 02       		.uleb128 0x2
 9854 20aa 79       		.byte	0x79
 9855 20ab 00       		.sleb128 0
 9856 20ac 11       		.uleb128 0x11
 9857 20ad 02       		.uleb128 0x2
 9858 20ae 7D       		.byte	0x7d
 9859 20af 04       		.sleb128 4
 9860 20b0 01       		.uleb128 0x1
 9861 20b1 30       		.byte	0x30
 9862 20b2 00       		.byte	0
 9863 20b3 10       		.uleb128 0x10
 9864 20b4 9E000000 		.4byte	.LVL434
 9865 20b8 030F0000 		.4byte	0xf03
 9866 20bc E6200000 		.4byte	0x20e6
 9867 20c0 11       		.uleb128 0x11
 9868 20c1 01       		.uleb128 0x1
 9869 20c2 50       		.byte	0x50
 9870 20c3 05       		.uleb128 0x5
 9871 20c4 75       		.byte	0x75
 9872 20c5 00       		.sleb128 0
 9873 20c6 79       		.byte	0x79
 9874 20c7 00       		.sleb128 0
 9875 20c8 22       		.byte	0x22
 9876 20c9 11       		.uleb128 0x11
 9877 20ca 01       		.uleb128 0x1
 9878 20cb 51       		.byte	0x51
 9879 20cc 05       		.uleb128 0x5
 9880 20cd 76       		.byte	0x76
 9881 20ce 00       		.sleb128 0
 9882 20cf 79       		.byte	0x79
 9883 20d0 00       		.sleb128 0
 9884 20d1 22       		.byte	0x22
 9885 20d2 11       		.uleb128 0x11
 9886 20d3 01       		.uleb128 0x1
 9887 20d4 52       		.byte	0x52
 9888 20d5 02       		.uleb128 0x2
 9889 20d6 91       		.byte	0x91
 9890 20d7 54       		.sleb128 -44
 9891 20d8 11       		.uleb128 0x11
 9892 20d9 01       		.uleb128 0x1
 9893 20da 53       		.byte	0x53
 9894 20db 02       		.uleb128 0x2
 9895 20dc 77       		.byte	0x77
 9896 20dd 00       		.sleb128 0
 9897 20de 11       		.uleb128 0x11
 9898 20df 02       		.uleb128 0x2
 9899 20e0 7D       		.byte	0x7d
 9900 20e1 00       		.sleb128 0
 9901 20e2 02       		.uleb128 0x2
 9902 20e3 79       		.byte	0x79
 9903 20e4 00       		.sleb128 0
 9904 20e5 00       		.byte	0
 9905 20e6 10       		.uleb128 0x10
ARM GAS  C:\Users\USUARIO\AppData\Local\Temp\ccywmqVe.s 			page 191


 9906 20e7 A8000000 		.4byte	.LVL435
 9907 20eb B5230000 		.4byte	0x23b5
 9908 20ef 09210000 		.4byte	0x2109
 9909 20f3 11       		.uleb128 0x11
 9910 20f4 01       		.uleb128 0x1
 9911 20f5 50       		.byte	0x50
 9912 20f6 02       		.uleb128 0x2
 9913 20f7 91       		.byte	0x91
 9914 20f8 54       		.sleb128 -44
 9915 20f9 11       		.uleb128 0x11
 9916 20fa 01       		.uleb128 0x1
 9917 20fb 51       		.byte	0x51
 9918 20fc 05       		.uleb128 0x5
 9919 20fd 03       		.byte	0x3
 9920 20fe 1C000000 		.4byte	.LC4
 9921 2102 11       		.uleb128 0x11
 9922 2103 01       		.uleb128 0x1
 9923 2104 52       		.byte	0x52
 9924 2105 02       		.uleb128 0x2
 9925 2106 78       		.byte	0x78
 9926 2107 00       		.sleb128 0
 9927 2108 00       		.byte	0
 9928 2109 10       		.uleb128 0x10
 9929 210a C8000000 		.4byte	.LVL436
 9930 210e 60090000 		.4byte	0x960
 9931 2112 48210000 		.4byte	0x2148
 9932 2116 11       		.uleb128 0x11
 9933 2117 01       		.uleb128 0x1
 9934 2118 50       		.byte	0x50
 9935 2119 02       		.uleb128 0x2
 9936 211a 75       		.byte	0x75
 9937 211b 00       		.sleb128 0
 9938 211c 11       		.uleb128 0x11
 9939 211d 01       		.uleb128 0x1
 9940 211e 51       		.byte	0x51
 9941 211f 02       		.uleb128 0x2
 9942 2120 76       		.byte	0x76
 9943 2121 00       		.sleb128 0
 9944 2122 11       		.uleb128 0x11
 9945 2123 01       		.uleb128 0x1
 9946 2124 52       		.byte	0x52
 9947 2125 0A       		.uleb128 0xa
 9948 2126 77       		.byte	0x77
 9949 2127 00       		.sleb128 0
 9950 2128 32       		.byte	0x32
 9951 2129 24       		.byte	0x24
 9952 212a 75       		.byte	0x75
 9953 212b 00       		.sleb128 0
 9954 212c 22       		.byte	0x22
 9955 212d 77       		.byte	0x77
 9956 212e 00       		.sleb128 0
 9957 212f 22       		.byte	0x22
 9958 2130 11       		.uleb128 0x11
 9959 2131 01       		.uleb128 0x1
 9960 2132 53       		.byte	0x53
 9961 2133 07       		.uleb128 0x7
 9962 2134 77       		.byte	0x77
ARM GAS  C:\Users\USUARIO\AppData\Local\Temp\ccywmqVe.s 			page 192


 9963 2135 00       		.sleb128 0
 9964 2136 33       		.byte	0x33
 9965 2137 24       		.byte	0x24
 9966 2138 76       		.byte	0x76
 9967 2139 00       		.sleb128 0
 9968 213a 22       		.byte	0x22
 9969 213b 11       		.uleb128 0x11
 9970 213c 02       		.uleb128 0x2
 9971 213d 7D       		.byte	0x7d
 9972 213e 00       		.sleb128 0
 9973 213f 01       		.uleb128 0x1
 9974 2140 31       		.byte	0x31
 9975 2141 11       		.uleb128 0x11
 9976 2142 02       		.uleb128 0x2
 9977 2143 7D       		.byte	0x7d
 9978 2144 04       		.sleb128 4
 9979 2145 01       		.uleb128 0x1
 9980 2146 31       		.byte	0x31
 9981 2147 00       		.byte	0
 9982 2148 10       		.uleb128 0x10
 9983 2149 DC000000 		.4byte	.LVL437
 9984 214d 030F0000 		.4byte	0xf03
 9985 2151 74210000 		.4byte	0x2174
 9986 2155 11       		.uleb128 0x11
 9987 2156 01       		.uleb128 0x1
 9988 2157 50       		.byte	0x50
 9989 2158 02       		.uleb128 0x2
 9990 2159 75       		.byte	0x75
 9991 215a 01       		.sleb128 1
 9992 215b 11       		.uleb128 0x11
 9993 215c 01       		.uleb128 0x1
 9994 215d 51       		.byte	0x51
 9995 215e 02       		.uleb128 0x2
 9996 215f 76       		.byte	0x76
 9997 2160 01       		.sleb128 1
 9998 2161 11       		.uleb128 0x11
 9999 2162 01       		.uleb128 0x1
 10000 2163 52       		.byte	0x52
 10001 2164 02       		.uleb128 0x2
 10002 2165 91       		.byte	0x91
 10003 2166 54       		.sleb128 -44
 10004 2167 11       		.uleb128 0x11
 10005 2168 01       		.uleb128 0x1
 10006 2169 53       		.byte	0x53
 10007 216a 02       		.uleb128 0x2
 10008 216b 77       		.byte	0x77
 10009 216c 00       		.sleb128 0
 10010 216d 11       		.uleb128 0x11
 10011 216e 02       		.uleb128 0x2
 10012 216f 7D       		.byte	0x7d
 10013 2170 00       		.sleb128 0
 10014 2171 01       		.uleb128 0x1
 10015 2172 30       		.byte	0x30
 10016 2173 00       		.byte	0
 10017 2174 10       		.uleb128 0x10
 10018 2175 FC000000 		.4byte	.LVL438
 10019 2179 60090000 		.4byte	0x960
ARM GAS  C:\Users\USUARIO\AppData\Local\Temp\ccywmqVe.s 			page 193


 10020 217d B4210000 		.4byte	0x21b4
 10021 2181 11       		.uleb128 0x11
 10022 2182 01       		.uleb128 0x1
 10023 2183 50       		.byte	0x50
 10024 2184 02       		.uleb128 0x2
 10025 2185 75       		.byte	0x75
 10026 2186 00       		.sleb128 0
 10027 2187 11       		.uleb128 0x11
 10028 2188 01       		.uleb128 0x1
 10029 2189 51       		.byte	0x51
 10030 218a 02       		.uleb128 0x2
 10031 218b 76       		.byte	0x76
 10032 218c 00       		.sleb128 0
 10033 218d 11       		.uleb128 0x11
 10034 218e 01       		.uleb128 0x1
 10035 218f 52       		.byte	0x52
 10036 2190 0A       		.uleb128 0xa
 10037 2191 77       		.byte	0x77
 10038 2192 00       		.sleb128 0
 10039 2193 32       		.byte	0x32
 10040 2194 24       		.byte	0x24
 10041 2195 75       		.byte	0x75
 10042 2196 00       		.sleb128 0
 10043 2197 22       		.byte	0x22
 10044 2198 77       		.byte	0x77
 10045 2199 00       		.sleb128 0
 10046 219a 22       		.byte	0x22
 10047 219b 11       		.uleb128 0x11
 10048 219c 01       		.uleb128 0x1
 10049 219d 53       		.byte	0x53
 10050 219e 07       		.uleb128 0x7
 10051 219f 77       		.byte	0x77
 10052 21a0 00       		.sleb128 0
 10053 21a1 33       		.byte	0x33
 10054 21a2 24       		.byte	0x24
 10055 21a3 76       		.byte	0x76
 10056 21a4 00       		.sleb128 0
 10057 21a5 22       		.byte	0x22
 10058 21a6 11       		.uleb128 0x11
 10059 21a7 02       		.uleb128 0x2
 10060 21a8 7D       		.byte	0x7d
 10061 21a9 00       		.sleb128 0
 10062 21aa 02       		.uleb128 0x2
 10063 21ab 74       		.byte	0x74
 10064 21ac 00       		.sleb128 0
 10065 21ad 11       		.uleb128 0x11
 10066 21ae 02       		.uleb128 0x2
 10067 21af 7D       		.byte	0x7d
 10068 21b0 04       		.sleb128 4
 10069 21b1 01       		.uleb128 0x1
 10070 21b2 30       		.byte	0x30
 10071 21b3 00       		.byte	0
 10072 21b4 10       		.uleb128 0x10
 10073 21b5 0E010000 		.4byte	.LVL439
 10074 21b9 030F0000 		.4byte	0xf03
 10075 21bd E7210000 		.4byte	0x21e7
 10076 21c1 11       		.uleb128 0x11
ARM GAS  C:\Users\USUARIO\AppData\Local\Temp\ccywmqVe.s 			page 194


 10077 21c2 01       		.uleb128 0x1
 10078 21c3 50       		.byte	0x50
 10079 21c4 05       		.uleb128 0x5
 10080 21c5 75       		.byte	0x75
 10081 21c6 00       		.sleb128 0
 10082 21c7 74       		.byte	0x74
 10083 21c8 00       		.sleb128 0
 10084 21c9 22       		.byte	0x22
 10085 21ca 11       		.uleb128 0x11
 10086 21cb 01       		.uleb128 0x1
 10087 21cc 51       		.byte	0x51
 10088 21cd 05       		.uleb128 0x5
 10089 21ce 76       		.byte	0x76
 10090 21cf 00       		.sleb128 0
 10091 21d0 74       		.byte	0x74
 10092 21d1 00       		.sleb128 0
 10093 21d2 22       		.byte	0x22
 10094 21d3 11       		.uleb128 0x11
 10095 21d4 01       		.uleb128 0x1
 10096 21d5 52       		.byte	0x52
 10097 21d6 02       		.uleb128 0x2
 10098 21d7 91       		.byte	0x91
 10099 21d8 54       		.sleb128 -44
 10100 21d9 11       		.uleb128 0x11
 10101 21da 01       		.uleb128 0x1
 10102 21db 53       		.byte	0x53
 10103 21dc 02       		.uleb128 0x2
 10104 21dd 77       		.byte	0x77
 10105 21de 00       		.sleb128 0
 10106 21df 11       		.uleb128 0x11
 10107 21e0 02       		.uleb128 0x2
 10108 21e1 7D       		.byte	0x7d
 10109 21e2 00       		.sleb128 0
 10110 21e3 02       		.uleb128 0x2
 10111 21e4 74       		.byte	0x74
 10112 21e5 00       		.sleb128 0
 10113 21e6 00       		.byte	0
 10114 21e7 15       		.uleb128 0x15
 10115 21e8 12010000 		.4byte	.LVL440
 10116 21ec 08040000 		.4byte	0x408
 10117 21f0 00       		.byte	0
 10118 21f1 25       		.uleb128 0x25
 10119 21f2 6F030000 		.4byte	.LASF72
 10120 21f6 07       		.byte	0x7
 10121 21f7 1207     		.2byte	0x712
 10122 21f9 FD210000 		.4byte	0x21fd
 10123 21fd 26       		.uleb128 0x26
 10124 21fe 93000000 		.4byte	0x93
 10125 2202 27       		.uleb128 0x27
 10126 2203 2A040000 		.4byte	.LASF73
 10127 2207 05       		.byte	0x5
 10128 2208 9F       		.byte	0x9f
 10129 2209 15010000 		.4byte	0x115
 10130 220d 05       		.uleb128 0x5
 10131 220e 03       		.byte	0x3
 10132 220f 00000000 		.4byte	Menus
 10133 2213 27       		.uleb128 0x27
ARM GAS  C:\Users\USUARIO\AppData\Local\Temp\ccywmqVe.s 			page 195


 10134 2214 11010000 		.4byte	.LASF74
 10135 2218 06       		.byte	0x6
 10136 2219 60       		.byte	0x60
 10137 221a 20010000 		.4byte	0x120
 10138 221e 05       		.uleb128 0x5
 10139 221f 03       		.byte	0x3
 10140 2220 00000000 		.4byte	displayData
 10141 2224 09       		.uleb128 0x9
 10142 2225 3A220000 		.4byte	0x223a
 10143 2229 3A220000 		.4byte	0x223a
 10144 222d 0A       		.uleb128 0xa
 10145 222e E3000000 		.4byte	0xe3
 10146 2232 32       		.byte	0x32
 10147 2233 0A       		.uleb128 0xa
 10148 2234 E3000000 		.4byte	0xe3
 10149 2238 04       		.byte	0x4
 10150 2239 00       		.byte	0
 10151 223a 28       		.uleb128 0x28
 10152 223b B6000000 		.4byte	0xb6
 10153 223f 27       		.uleb128 0x27
 10154 2240 80020000 		.4byte	.LASF75
 10155 2244 01       		.byte	0x1
 10156 2245 0A       		.byte	0xa
 10157 2246 50220000 		.4byte	0x2250
 10158 224a 05       		.uleb128 0x5
 10159 224b 03       		.byte	0x3
 10160 224c 00000000 		.4byte	FONT
 10161 2250 28       		.uleb128 0x28
 10162 2251 24220000 		.4byte	0x2224
 10163 2255 09       		.uleb128 0x9
 10164 2256 3A220000 		.4byte	0x223a
 10165 225a 6B220000 		.4byte	0x226b
 10166 225e 0A       		.uleb128 0xa
 10167 225f E3000000 		.4byte	0xe3
 10168 2263 2C       		.byte	0x2c
 10169 2264 0A       		.uleb128 0xa
 10170 2265 E3000000 		.4byte	0xe3
 10171 2269 04       		.byte	0x4
 10172 226a 00       		.byte	0
 10173 226b 27       		.uleb128 0x27
 10174 226c 14030000 		.4byte	.LASF76
 10175 2270 01       		.byte	0x1
 10176 2271 3E       		.byte	0x3e
 10177 2272 7C220000 		.4byte	0x227c
 10178 2276 05       		.uleb128 0x5
 10179 2277 03       		.byte	0x3
 10180 2278 00000000 		.4byte	FONT2
 10181 227c 28       		.uleb128 0x28
 10182 227d 55220000 		.4byte	0x2255
 10183 2281 09       		.uleb128 0x9
 10184 2282 3A220000 		.4byte	0x223a
 10185 2286 97220000 		.4byte	0x2297
 10186 228a 0A       		.uleb128 0xa
 10187 228b E3000000 		.4byte	0xe3
 10188 228f 3F       		.byte	0x3f
 10189 2290 0A       		.uleb128 0xa
 10190 2291 E3000000 		.4byte	0xe3
ARM GAS  C:\Users\USUARIO\AppData\Local\Temp\ccywmqVe.s 			page 196


 10191 2295 0F       		.byte	0xf
 10192 2296 00       		.byte	0
 10193 2297 27       		.uleb128 0x27
 10194 2298 5A020000 		.4byte	.LASF77
 10195 229c 01       		.byte	0x1
 10196 229d 6E       		.byte	0x6e
 10197 229e A8220000 		.4byte	0x22a8
 10198 22a2 05       		.uleb128 0x5
 10199 22a3 03       		.byte	0x3
 10200 22a4 00000000 		.4byte	Horno
 10201 22a8 28       		.uleb128 0x28
 10202 22a9 81220000 		.4byte	0x2281
 10203 22ad 29       		.uleb128 0x29
 10204 22ae D1040000 		.4byte	.LASF78
 10205 22b2 D1040000 		.4byte	.LASF78
 10206 22b6 08       		.byte	0x8
 10207 22b7 26       		.byte	0x26
 10208 22b8 29       		.uleb128 0x29
 10209 22b9 30020000 		.4byte	.LASF79
 10210 22bd 30020000 		.4byte	.LASF79
 10211 22c1 09       		.byte	0x9
 10212 22c2 26       		.byte	0x26
 10213 22c3 29       		.uleb128 0x29
 10214 22c4 ED040000 		.4byte	.LASF80
 10215 22c8 ED040000 		.4byte	.LASF80
 10216 22cc 0A       		.byte	0xa
 10217 22cd 26       		.byte	0x26
 10218 22ce 29       		.uleb128 0x29
 10219 22cf BD020000 		.4byte	.LASF81
 10220 22d3 BD020000 		.4byte	.LASF81
 10221 22d7 0B       		.byte	0xb
 10222 22d8 26       		.byte	0x26
 10223 22d9 29       		.uleb128 0x29
 10224 22da D5000000 		.4byte	.LASF82
 10225 22de D5000000 		.4byte	.LASF82
 10226 22e2 0C       		.byte	0xc
 10227 22e3 26       		.byte	0x26
 10228 22e4 29       		.uleb128 0x29
 10229 22e5 7C030000 		.4byte	.LASF83
 10230 22e9 7C030000 		.4byte	.LASF83
 10231 22ed 0D       		.byte	0xd
 10232 22ee 26       		.byte	0x26
 10233 22ef 29       		.uleb128 0x29
 10234 22f0 3F010000 		.4byte	.LASF84
 10235 22f4 3F010000 		.4byte	.LASF84
 10236 22f8 0E       		.byte	0xe
 10237 22f9 26       		.byte	0x26
 10238 22fa 29       		.uleb128 0x29
 10239 22fb 4A040000 		.4byte	.LASF85
 10240 22ff 4A040000 		.4byte	.LASF85
 10241 2303 0F       		.byte	0xf
 10242 2304 26       		.byte	0x26
 10243 2305 29       		.uleb128 0x29
 10244 2306 D9030000 		.4byte	.LASF86
 10245 230a D9030000 		.4byte	.LASF86
 10246 230e 08       		.byte	0x8
 10247 230f 29       		.byte	0x29
ARM GAS  C:\Users\USUARIO\AppData\Local\Temp\ccywmqVe.s 			page 197


 10248 2310 29       		.uleb128 0x29
 10249 2311 6E040000 		.4byte	.LASF87
 10250 2315 6E040000 		.4byte	.LASF87
 10251 2319 09       		.byte	0x9
 10252 231a 29       		.byte	0x29
 10253 231b 29       		.uleb128 0x29
 10254 231c 9B020000 		.4byte	.LASF88
 10255 2320 9B020000 		.4byte	.LASF88
 10256 2324 0A       		.byte	0xa
 10257 2325 29       		.byte	0x29
 10258 2326 29       		.uleb128 0x29
 10259 2327 E0000000 		.4byte	.LASF89
 10260 232b E0000000 		.4byte	.LASF89
 10261 232f 0B       		.byte	0xb
 10262 2330 29       		.byte	0x29
 10263 2331 29       		.uleb128 0x29
 10264 2332 36030000 		.4byte	.LASF90
 10265 2336 36030000 		.4byte	.LASF90
 10266 233a 0C       		.byte	0xc
 10267 233b 29       		.byte	0x29
 10268 233c 29       		.uleb128 0x29
 10269 233d E8010000 		.4byte	.LASF91
 10270 2341 E8010000 		.4byte	.LASF91
 10271 2345 0D       		.byte	0xd
 10272 2346 29       		.byte	0x29
 10273 2347 29       		.uleb128 0x29
 10274 2348 C7040000 		.4byte	.LASF92
 10275 234c C7040000 		.4byte	.LASF92
 10276 2350 0E       		.byte	0xe
 10277 2351 29       		.byte	0x29
 10278 2352 29       		.uleb128 0x29
 10279 2353 70020000 		.4byte	.LASF93
 10280 2357 70020000 		.4byte	.LASF93
 10281 235b 0F       		.byte	0xf
 10282 235c 29       		.byte	0x29
 10283 235d 29       		.uleb128 0x29
 10284 235e 2B030000 		.4byte	.LASF94
 10285 2362 2B030000 		.4byte	.LASF94
 10286 2366 10       		.byte	0x10
 10287 2367 26       		.byte	0x26
 10288 2368 29       		.uleb128 0x29
 10289 2369 2C000000 		.4byte	.LASF95
 10290 236d 2C000000 		.4byte	.LASF95
 10291 2371 11       		.byte	0x11
 10292 2372 26       		.byte	0x26
 10293 2373 29       		.uleb128 0x29
 10294 2374 8C040000 		.4byte	.LASF96
 10295 2378 8C040000 		.4byte	.LASF96
 10296 237c 12       		.byte	0x12
 10297 237d 26       		.byte	0x26
 10298 237e 29       		.uleb128 0x29
 10299 237f 22020000 		.4byte	.LASF97
 10300 2383 22020000 		.4byte	.LASF97
 10301 2387 13       		.byte	0x13
 10302 2388 79       		.byte	0x79
 10303 2389 29       		.uleb128 0x29
 10304 238a 59030000 		.4byte	.LASF98
ARM GAS  C:\Users\USUARIO\AppData\Local\Temp\ccywmqVe.s 			page 198


 10305 238e 59030000 		.4byte	.LASF98
 10306 2392 14       		.byte	0x14
 10307 2393 26       		.byte	0x26
 10308 2394 29       		.uleb128 0x29
 10309 2395 00000000 		.4byte	.LASF99
 10310 2399 00000000 		.4byte	.LASF99
 10311 239d 15       		.byte	0x15
 10312 239e 26       		.byte	0x26
 10313 239f 29       		.uleb128 0x29
 10314 23a0 13000000 		.4byte	.LASF100
 10315 23a4 13000000 		.4byte	.LASF100
 10316 23a8 16       		.byte	0x16
 10317 23a9 26       		.byte	0x26
 10318 23aa 29       		.uleb128 0x29
 10319 23ab 0A010000 		.4byte	.LASF101
 10320 23af 0A010000 		.4byte	.LASF101
 10321 23b3 17       		.byte	0x17
 10322 23b4 1E       		.byte	0x1e
 10323 23b5 29       		.uleb128 0x29
 10324 23b6 EF020000 		.4byte	.LASF102
 10325 23ba EF020000 		.4byte	.LASF102
 10326 23be 18       		.byte	0x18
 10327 23bf E7       		.byte	0xe7
 10328 23c0 00       		.byte	0
 10329              		.section	.debug_abbrev,"",%progbits
 10330              	.Ldebug_abbrev0:
 10331 0000 01       		.uleb128 0x1
 10332 0001 11       		.uleb128 0x11
 10333 0002 01       		.byte	0x1
 10334 0003 25       		.uleb128 0x25
 10335 0004 0E       		.uleb128 0xe
 10336 0005 13       		.uleb128 0x13
 10337 0006 0B       		.uleb128 0xb
 10338 0007 03       		.uleb128 0x3
 10339 0008 0E       		.uleb128 0xe
 10340 0009 1B       		.uleb128 0x1b
 10341 000a 0E       		.uleb128 0xe
 10342 000b 55       		.uleb128 0x55
 10343 000c 17       		.uleb128 0x17
 10344 000d 11       		.uleb128 0x11
 10345 000e 01       		.uleb128 0x1
 10346 000f 10       		.uleb128 0x10
 10347 0010 17       		.uleb128 0x17
 10348 0011 00       		.byte	0
 10349 0012 00       		.byte	0
 10350 0013 02       		.uleb128 0x2
 10351 0014 24       		.uleb128 0x24
 10352 0015 00       		.byte	0
 10353 0016 0B       		.uleb128 0xb
 10354 0017 0B       		.uleb128 0xb
 10355 0018 3E       		.uleb128 0x3e
 10356 0019 0B       		.uleb128 0xb
 10357 001a 03       		.uleb128 0x3
 10358 001b 0E       		.uleb128 0xe
 10359 001c 00       		.byte	0
 10360 001d 00       		.byte	0
 10361 001e 03       		.uleb128 0x3
ARM GAS  C:\Users\USUARIO\AppData\Local\Temp\ccywmqVe.s 			page 199


 10362 001f 16       		.uleb128 0x16
 10363 0020 00       		.byte	0
 10364 0021 03       		.uleb128 0x3
 10365 0022 0E       		.uleb128 0xe
 10366 0023 3A       		.uleb128 0x3a
 10367 0024 0B       		.uleb128 0xb
 10368 0025 3B       		.uleb128 0x3b
 10369 0026 0B       		.uleb128 0xb
 10370 0027 49       		.uleb128 0x49
 10371 0028 13       		.uleb128 0x13
 10372 0029 00       		.byte	0
 10373 002a 00       		.byte	0
 10374 002b 04       		.uleb128 0x4
 10375 002c 24       		.uleb128 0x24
 10376 002d 00       		.byte	0
 10377 002e 0B       		.uleb128 0xb
 10378 002f 0B       		.uleb128 0xb
 10379 0030 3E       		.uleb128 0x3e
 10380 0031 0B       		.uleb128 0xb
 10381 0032 03       		.uleb128 0x3
 10382 0033 08       		.uleb128 0x8
 10383 0034 00       		.byte	0
 10384 0035 00       		.byte	0
 10385 0036 05       		.uleb128 0x5
 10386 0037 16       		.uleb128 0x16
 10387 0038 00       		.byte	0
 10388 0039 03       		.uleb128 0x3
 10389 003a 0E       		.uleb128 0xe
 10390 003b 3A       		.uleb128 0x3a
 10391 003c 0B       		.uleb128 0xb
 10392 003d 3B       		.uleb128 0x3b
 10393 003e 05       		.uleb128 0x5
 10394 003f 49       		.uleb128 0x49
 10395 0040 13       		.uleb128 0x13
 10396 0041 00       		.byte	0
 10397 0042 00       		.byte	0
 10398 0043 06       		.uleb128 0x6
 10399 0044 0F       		.uleb128 0xf
 10400 0045 00       		.byte	0
 10401 0046 0B       		.uleb128 0xb
 10402 0047 0B       		.uleb128 0xb
 10403 0048 49       		.uleb128 0x49
 10404 0049 13       		.uleb128 0x13
 10405 004a 00       		.byte	0
 10406 004b 00       		.byte	0
 10407 004c 07       		.uleb128 0x7
 10408 004d 13       		.uleb128 0x13
 10409 004e 01       		.byte	0x1
 10410 004f 0B       		.uleb128 0xb
 10411 0050 0B       		.uleb128 0xb
 10412 0051 3A       		.uleb128 0x3a
 10413 0052 0B       		.uleb128 0xb
 10414 0053 3B       		.uleb128 0x3b
 10415 0054 0B       		.uleb128 0xb
 10416 0055 01       		.uleb128 0x1
 10417 0056 13       		.uleb128 0x13
 10418 0057 00       		.byte	0
ARM GAS  C:\Users\USUARIO\AppData\Local\Temp\ccywmqVe.s 			page 200


 10419 0058 00       		.byte	0
 10420 0059 08       		.uleb128 0x8
 10421 005a 0D       		.uleb128 0xd
 10422 005b 00       		.byte	0
 10423 005c 03       		.uleb128 0x3
 10424 005d 0E       		.uleb128 0xe
 10425 005e 3A       		.uleb128 0x3a
 10426 005f 0B       		.uleb128 0xb
 10427 0060 3B       		.uleb128 0x3b
 10428 0061 0B       		.uleb128 0xb
 10429 0062 49       		.uleb128 0x49
 10430 0063 13       		.uleb128 0x13
 10431 0064 38       		.uleb128 0x38
 10432 0065 0B       		.uleb128 0xb
 10433 0066 00       		.byte	0
 10434 0067 00       		.byte	0
 10435 0068 09       		.uleb128 0x9
 10436 0069 01       		.uleb128 0x1
 10437 006a 01       		.byte	0x1
 10438 006b 49       		.uleb128 0x49
 10439 006c 13       		.uleb128 0x13
 10440 006d 01       		.uleb128 0x1
 10441 006e 13       		.uleb128 0x13
 10442 006f 00       		.byte	0
 10443 0070 00       		.byte	0
 10444 0071 0A       		.uleb128 0xa
 10445 0072 21       		.uleb128 0x21
 10446 0073 00       		.byte	0
 10447 0074 49       		.uleb128 0x49
 10448 0075 13       		.uleb128 0x13
 10449 0076 2F       		.uleb128 0x2f
 10450 0077 0B       		.uleb128 0xb
 10451 0078 00       		.byte	0
 10452 0079 00       		.byte	0
 10453 007a 0B       		.uleb128 0xb
 10454 007b 13       		.uleb128 0x13
 10455 007c 01       		.byte	0x1
 10456 007d 0B       		.uleb128 0xb
 10457 007e 05       		.uleb128 0x5
 10458 007f 3A       		.uleb128 0x3a
 10459 0080 0B       		.uleb128 0xb
 10460 0081 3B       		.uleb128 0x3b
 10461 0082 0B       		.uleb128 0xb
 10462 0083 01       		.uleb128 0x1
 10463 0084 13       		.uleb128 0x13
 10464 0085 00       		.byte	0
 10465 0086 00       		.byte	0
 10466 0087 0C       		.uleb128 0xc
 10467 0088 0D       		.uleb128 0xd
 10468 0089 00       		.byte	0
 10469 008a 03       		.uleb128 0x3
 10470 008b 0E       		.uleb128 0xe
 10471 008c 3A       		.uleb128 0x3a
 10472 008d 0B       		.uleb128 0xb
 10473 008e 3B       		.uleb128 0x3b
 10474 008f 0B       		.uleb128 0xb
 10475 0090 49       		.uleb128 0x49
ARM GAS  C:\Users\USUARIO\AppData\Local\Temp\ccywmqVe.s 			page 201


 10476 0091 13       		.uleb128 0x13
 10477 0092 38       		.uleb128 0x38
 10478 0093 05       		.uleb128 0x5
 10479 0094 00       		.byte	0
 10480 0095 00       		.byte	0
 10481 0096 0D       		.uleb128 0xd
 10482 0097 21       		.uleb128 0x21
 10483 0098 00       		.byte	0
 10484 0099 49       		.uleb128 0x49
 10485 009a 13       		.uleb128 0x13
 10486 009b 2F       		.uleb128 0x2f
 10487 009c 05       		.uleb128 0x5
 10488 009d 00       		.byte	0
 10489 009e 00       		.byte	0
 10490 009f 0E       		.uleb128 0xe
 10491 00a0 2E       		.uleb128 0x2e
 10492 00a1 01       		.byte	0x1
 10493 00a2 3F       		.uleb128 0x3f
 10494 00a3 19       		.uleb128 0x19
 10495 00a4 03       		.uleb128 0x3
 10496 00a5 0E       		.uleb128 0xe
 10497 00a6 3A       		.uleb128 0x3a
 10498 00a7 0B       		.uleb128 0xb
 10499 00a8 3B       		.uleb128 0x3b
 10500 00a9 0B       		.uleb128 0xb
 10501 00aa 27       		.uleb128 0x27
 10502 00ab 19       		.uleb128 0x19
 10503 00ac 11       		.uleb128 0x11
 10504 00ad 01       		.uleb128 0x1
 10505 00ae 12       		.uleb128 0x12
 10506 00af 06       		.uleb128 0x6
 10507 00b0 40       		.uleb128 0x40
 10508 00b1 18       		.uleb128 0x18
 10509 00b2 9742     		.uleb128 0x2117
 10510 00b4 19       		.uleb128 0x19
 10511 00b5 01       		.uleb128 0x1
 10512 00b6 13       		.uleb128 0x13
 10513 00b7 00       		.byte	0
 10514 00b8 00       		.byte	0
 10515 00b9 0F       		.uleb128 0xf
 10516 00ba 05       		.uleb128 0x5
 10517 00bb 00       		.byte	0
 10518 00bc 03       		.uleb128 0x3
 10519 00bd 0E       		.uleb128 0xe
 10520 00be 3A       		.uleb128 0x3a
 10521 00bf 0B       		.uleb128 0xb
 10522 00c0 3B       		.uleb128 0x3b
 10523 00c1 0B       		.uleb128 0xb
 10524 00c2 49       		.uleb128 0x49
 10525 00c3 13       		.uleb128 0x13
 10526 00c4 02       		.uleb128 0x2
 10527 00c5 17       		.uleb128 0x17
 10528 00c6 00       		.byte	0
 10529 00c7 00       		.byte	0
 10530 00c8 10       		.uleb128 0x10
 10531 00c9 898201   		.uleb128 0x4109
 10532 00cc 01       		.byte	0x1
ARM GAS  C:\Users\USUARIO\AppData\Local\Temp\ccywmqVe.s 			page 202


 10533 00cd 11       		.uleb128 0x11
 10534 00ce 01       		.uleb128 0x1
 10535 00cf 31       		.uleb128 0x31
 10536 00d0 13       		.uleb128 0x13
 10537 00d1 01       		.uleb128 0x1
 10538 00d2 13       		.uleb128 0x13
 10539 00d3 00       		.byte	0
 10540 00d4 00       		.byte	0
 10541 00d5 11       		.uleb128 0x11
 10542 00d6 8A8201   		.uleb128 0x410a
 10543 00d9 00       		.byte	0
 10544 00da 02       		.uleb128 0x2
 10545 00db 18       		.uleb128 0x18
 10546 00dc 9142     		.uleb128 0x2111
 10547 00de 18       		.uleb128 0x18
 10548 00df 00       		.byte	0
 10549 00e0 00       		.byte	0
 10550 00e1 12       		.uleb128 0x12
 10551 00e2 898201   		.uleb128 0x4109
 10552 00e5 01       		.byte	0x1
 10553 00e6 11       		.uleb128 0x11
 10554 00e7 01       		.uleb128 0x1
 10555 00e8 31       		.uleb128 0x31
 10556 00e9 13       		.uleb128 0x13
 10557 00ea 00       		.byte	0
 10558 00eb 00       		.byte	0
 10559 00ec 13       		.uleb128 0x13
 10560 00ed 2E       		.uleb128 0x2e
 10561 00ee 01       		.byte	0x1
 10562 00ef 3F       		.uleb128 0x3f
 10563 00f0 19       		.uleb128 0x19
 10564 00f1 03       		.uleb128 0x3
 10565 00f2 0E       		.uleb128 0xe
 10566 00f3 3A       		.uleb128 0x3a
 10567 00f4 0B       		.uleb128 0xb
 10568 00f5 3B       		.uleb128 0x3b
 10569 00f6 0B       		.uleb128 0xb
 10570 00f7 49       		.uleb128 0x49
 10571 00f8 13       		.uleb128 0x13
 10572 00f9 11       		.uleb128 0x11
 10573 00fa 01       		.uleb128 0x1
 10574 00fb 12       		.uleb128 0x12
 10575 00fc 06       		.uleb128 0x6
 10576 00fd 40       		.uleb128 0x40
 10577 00fe 18       		.uleb128 0x18
 10578 00ff 9742     		.uleb128 0x2117
 10579 0101 19       		.uleb128 0x19
 10580 0102 01       		.uleb128 0x1
 10581 0103 13       		.uleb128 0x13
 10582 0104 00       		.byte	0
 10583 0105 00       		.byte	0
 10584 0106 14       		.uleb128 0x14
 10585 0107 34       		.uleb128 0x34
 10586 0108 00       		.byte	0
 10587 0109 03       		.uleb128 0x3
 10588 010a 08       		.uleb128 0x8
 10589 010b 3A       		.uleb128 0x3a
ARM GAS  C:\Users\USUARIO\AppData\Local\Temp\ccywmqVe.s 			page 203


 10590 010c 0B       		.uleb128 0xb
 10591 010d 3B       		.uleb128 0x3b
 10592 010e 0B       		.uleb128 0xb
 10593 010f 49       		.uleb128 0x49
 10594 0110 13       		.uleb128 0x13
 10595 0111 02       		.uleb128 0x2
 10596 0112 17       		.uleb128 0x17
 10597 0113 00       		.byte	0
 10598 0114 00       		.byte	0
 10599 0115 15       		.uleb128 0x15
 10600 0116 898201   		.uleb128 0x4109
 10601 0119 00       		.byte	0
 10602 011a 11       		.uleb128 0x11
 10603 011b 01       		.uleb128 0x1
 10604 011c 31       		.uleb128 0x31
 10605 011d 13       		.uleb128 0x13
 10606 011e 00       		.byte	0
 10607 011f 00       		.byte	0
 10608 0120 16       		.uleb128 0x16
 10609 0121 2E       		.uleb128 0x2e
 10610 0122 01       		.byte	0x1
 10611 0123 3F       		.uleb128 0x3f
 10612 0124 19       		.uleb128 0x19
 10613 0125 03       		.uleb128 0x3
 10614 0126 0E       		.uleb128 0xe
 10615 0127 3A       		.uleb128 0x3a
 10616 0128 0B       		.uleb128 0xb
 10617 0129 3B       		.uleb128 0x3b
 10618 012a 0B       		.uleb128 0xb
 10619 012b 11       		.uleb128 0x11
 10620 012c 01       		.uleb128 0x1
 10621 012d 12       		.uleb128 0x12
 10622 012e 06       		.uleb128 0x6
 10623 012f 40       		.uleb128 0x40
 10624 0130 18       		.uleb128 0x18
 10625 0131 9742     		.uleb128 0x2117
 10626 0133 19       		.uleb128 0x19
 10627 0134 01       		.uleb128 0x1
 10628 0135 13       		.uleb128 0x13
 10629 0136 00       		.byte	0
 10630 0137 00       		.byte	0
 10631 0138 17       		.uleb128 0x17
 10632 0139 34       		.uleb128 0x34
 10633 013a 00       		.byte	0
 10634 013b 03       		.uleb128 0x3
 10635 013c 08       		.uleb128 0x8
 10636 013d 3A       		.uleb128 0x3a
 10637 013e 0B       		.uleb128 0xb
 10638 013f 3B       		.uleb128 0x3b
 10639 0140 05       		.uleb128 0x5
 10640 0141 49       		.uleb128 0x49
 10641 0142 13       		.uleb128 0x13
 10642 0143 02       		.uleb128 0x2
 10643 0144 17       		.uleb128 0x17
 10644 0145 00       		.byte	0
 10645 0146 00       		.byte	0
 10646 0147 18       		.uleb128 0x18
ARM GAS  C:\Users\USUARIO\AppData\Local\Temp\ccywmqVe.s 			page 204


 10647 0148 2E       		.uleb128 0x2e
 10648 0149 01       		.byte	0x1
 10649 014a 3F       		.uleb128 0x3f
 10650 014b 19       		.uleb128 0x19
 10651 014c 03       		.uleb128 0x3
 10652 014d 0E       		.uleb128 0xe
 10653 014e 3A       		.uleb128 0x3a
 10654 014f 0B       		.uleb128 0xb
 10655 0150 3B       		.uleb128 0x3b
 10656 0151 05       		.uleb128 0x5
 10657 0152 27       		.uleb128 0x27
 10658 0153 19       		.uleb128 0x19
 10659 0154 49       		.uleb128 0x49
 10660 0155 13       		.uleb128 0x13
 10661 0156 11       		.uleb128 0x11
 10662 0157 01       		.uleb128 0x1
 10663 0158 12       		.uleb128 0x12
 10664 0159 06       		.uleb128 0x6
 10665 015a 40       		.uleb128 0x40
 10666 015b 18       		.uleb128 0x18
 10667 015c 9742     		.uleb128 0x2117
 10668 015e 19       		.uleb128 0x19
 10669 015f 01       		.uleb128 0x1
 10670 0160 13       		.uleb128 0x13
 10671 0161 00       		.byte	0
 10672 0162 00       		.byte	0
 10673 0163 19       		.uleb128 0x19
 10674 0164 05       		.uleb128 0x5
 10675 0165 00       		.byte	0
 10676 0166 03       		.uleb128 0x3
 10677 0167 0E       		.uleb128 0xe
 10678 0168 3A       		.uleb128 0x3a
 10679 0169 0B       		.uleb128 0xb
 10680 016a 3B       		.uleb128 0x3b
 10681 016b 05       		.uleb128 0x5
 10682 016c 49       		.uleb128 0x49
 10683 016d 13       		.uleb128 0x13
 10684 016e 02       		.uleb128 0x2
 10685 016f 17       		.uleb128 0x17
 10686 0170 00       		.byte	0
 10687 0171 00       		.byte	0
 10688 0172 1A       		.uleb128 0x1a
 10689 0173 34       		.uleb128 0x34
 10690 0174 00       		.byte	0
 10691 0175 03       		.uleb128 0x3
 10692 0176 0E       		.uleb128 0xe
 10693 0177 3A       		.uleb128 0x3a
 10694 0178 0B       		.uleb128 0xb
 10695 0179 3B       		.uleb128 0x3b
 10696 017a 05       		.uleb128 0x5
 10697 017b 49       		.uleb128 0x49
 10698 017c 13       		.uleb128 0x13
 10699 017d 02       		.uleb128 0x2
 10700 017e 18       		.uleb128 0x18
 10701 017f 00       		.byte	0
 10702 0180 00       		.byte	0
 10703 0181 1B       		.uleb128 0x1b
ARM GAS  C:\Users\USUARIO\AppData\Local\Temp\ccywmqVe.s 			page 205


 10704 0182 2E       		.uleb128 0x2e
 10705 0183 01       		.byte	0x1
 10706 0184 3F       		.uleb128 0x3f
 10707 0185 19       		.uleb128 0x19
 10708 0186 03       		.uleb128 0x3
 10709 0187 0E       		.uleb128 0xe
 10710 0188 3A       		.uleb128 0x3a
 10711 0189 0B       		.uleb128 0xb
 10712 018a 3B       		.uleb128 0x3b
 10713 018b 05       		.uleb128 0x5
 10714 018c 27       		.uleb128 0x27
 10715 018d 19       		.uleb128 0x19
 10716 018e 11       		.uleb128 0x11
 10717 018f 01       		.uleb128 0x1
 10718 0190 12       		.uleb128 0x12
 10719 0191 06       		.uleb128 0x6
 10720 0192 40       		.uleb128 0x40
 10721 0193 18       		.uleb128 0x18
 10722 0194 9742     		.uleb128 0x2117
 10723 0196 19       		.uleb128 0x19
 10724 0197 01       		.uleb128 0x1
 10725 0198 13       		.uleb128 0x13
 10726 0199 00       		.byte	0
 10727 019a 00       		.byte	0
 10728 019b 1C       		.uleb128 0x1c
 10729 019c 05       		.uleb128 0x5
 10730 019d 00       		.byte	0
 10731 019e 03       		.uleb128 0x3
 10732 019f 08       		.uleb128 0x8
 10733 01a0 3A       		.uleb128 0x3a
 10734 01a1 0B       		.uleb128 0xb
 10735 01a2 3B       		.uleb128 0x3b
 10736 01a3 05       		.uleb128 0x5
 10737 01a4 49       		.uleb128 0x49
 10738 01a5 13       		.uleb128 0x13
 10739 01a6 02       		.uleb128 0x2
 10740 01a7 17       		.uleb128 0x17
 10741 01a8 00       		.byte	0
 10742 01a9 00       		.byte	0
 10743 01aa 1D       		.uleb128 0x1d
 10744 01ab 34       		.uleb128 0x34
 10745 01ac 00       		.byte	0
 10746 01ad 03       		.uleb128 0x3
 10747 01ae 0E       		.uleb128 0xe
 10748 01af 3A       		.uleb128 0x3a
 10749 01b0 0B       		.uleb128 0xb
 10750 01b1 3B       		.uleb128 0x3b
 10751 01b2 05       		.uleb128 0x5
 10752 01b3 49       		.uleb128 0x49
 10753 01b4 13       		.uleb128 0x13
 10754 01b5 02       		.uleb128 0x2
 10755 01b6 17       		.uleb128 0x17
 10756 01b7 00       		.byte	0
 10757 01b8 00       		.byte	0
 10758 01b9 1E       		.uleb128 0x1e
 10759 01ba 05       		.uleb128 0x5
 10760 01bb 00       		.byte	0
ARM GAS  C:\Users\USUARIO\AppData\Local\Temp\ccywmqVe.s 			page 206


 10761 01bc 03       		.uleb128 0x3
 10762 01bd 0E       		.uleb128 0xe
 10763 01be 3A       		.uleb128 0x3a
 10764 01bf 0B       		.uleb128 0xb
 10765 01c0 3B       		.uleb128 0x3b
 10766 01c1 05       		.uleb128 0x5
 10767 01c2 49       		.uleb128 0x49
 10768 01c3 13       		.uleb128 0x13
 10769 01c4 02       		.uleb128 0x2
 10770 01c5 18       		.uleb128 0x18
 10771 01c6 00       		.byte	0
 10772 01c7 00       		.byte	0
 10773 01c8 1F       		.uleb128 0x1f
 10774 01c9 0B       		.uleb128 0xb
 10775 01ca 01       		.byte	0x1
 10776 01cb 11       		.uleb128 0x11
 10777 01cc 01       		.uleb128 0x1
 10778 01cd 12       		.uleb128 0x12
 10779 01ce 06       		.uleb128 0x6
 10780 01cf 01       		.uleb128 0x1
 10781 01d0 13       		.uleb128 0x13
 10782 01d1 00       		.byte	0
 10783 01d2 00       		.byte	0
 10784 01d3 20       		.uleb128 0x20
 10785 01d4 34       		.uleb128 0x34
 10786 01d5 00       		.byte	0
 10787 01d6 03       		.uleb128 0x3
 10788 01d7 08       		.uleb128 0x8
 10789 01d8 3A       		.uleb128 0x3a
 10790 01d9 0B       		.uleb128 0xb
 10791 01da 3B       		.uleb128 0x3b
 10792 01db 05       		.uleb128 0x5
 10793 01dc 49       		.uleb128 0x49
 10794 01dd 13       		.uleb128 0x13
 10795 01de 02       		.uleb128 0x2
 10796 01df 18       		.uleb128 0x18
 10797 01e0 00       		.byte	0
 10798 01e1 00       		.byte	0
 10799 01e2 21       		.uleb128 0x21
 10800 01e3 34       		.uleb128 0x34
 10801 01e4 00       		.byte	0
 10802 01e5 03       		.uleb128 0x3
 10803 01e6 08       		.uleb128 0x8
 10804 01e7 3A       		.uleb128 0x3a
 10805 01e8 0B       		.uleb128 0xb
 10806 01e9 3B       		.uleb128 0x3b
 10807 01ea 05       		.uleb128 0x5
 10808 01eb 49       		.uleb128 0x49
 10809 01ec 13       		.uleb128 0x13
 10810 01ed 00       		.byte	0
 10811 01ee 00       		.byte	0
 10812 01ef 22       		.uleb128 0x22
 10813 01f0 34       		.uleb128 0x34
 10814 01f1 00       		.byte	0
 10815 01f2 03       		.uleb128 0x3
 10816 01f3 0E       		.uleb128 0xe
 10817 01f4 3A       		.uleb128 0x3a
ARM GAS  C:\Users\USUARIO\AppData\Local\Temp\ccywmqVe.s 			page 207


 10818 01f5 0B       		.uleb128 0xb
 10819 01f6 3B       		.uleb128 0x3b
 10820 01f7 05       		.uleb128 0x5
 10821 01f8 49       		.uleb128 0x49
 10822 01f9 13       		.uleb128 0x13
 10823 01fa 00       		.byte	0
 10824 01fb 00       		.byte	0
 10825 01fc 23       		.uleb128 0x23
 10826 01fd 0B       		.uleb128 0xb
 10827 01fe 01       		.byte	0x1
 10828 01ff 11       		.uleb128 0x11
 10829 0200 01       		.uleb128 0x1
 10830 0201 12       		.uleb128 0x12
 10831 0202 06       		.uleb128 0x6
 10832 0203 00       		.byte	0
 10833 0204 00       		.byte	0
 10834 0205 24       		.uleb128 0x24
 10835 0206 2E       		.uleb128 0x2e
 10836 0207 01       		.byte	0x1
 10837 0208 3F       		.uleb128 0x3f
 10838 0209 19       		.uleb128 0x19
 10839 020a 03       		.uleb128 0x3
 10840 020b 0E       		.uleb128 0xe
 10841 020c 3A       		.uleb128 0x3a
 10842 020d 0B       		.uleb128 0xb
 10843 020e 3B       		.uleb128 0x3b
 10844 020f 05       		.uleb128 0x5
 10845 0210 27       		.uleb128 0x27
 10846 0211 19       		.uleb128 0x19
 10847 0212 11       		.uleb128 0x11
 10848 0213 01       		.uleb128 0x1
 10849 0214 12       		.uleb128 0x12
 10850 0215 06       		.uleb128 0x6
 10851 0216 40       		.uleb128 0x40
 10852 0217 18       		.uleb128 0x18
 10853 0218 9642     		.uleb128 0x2116
 10854 021a 19       		.uleb128 0x19
 10855 021b 01       		.uleb128 0x1
 10856 021c 13       		.uleb128 0x13
 10857 021d 00       		.byte	0
 10858 021e 00       		.byte	0
 10859 021f 25       		.uleb128 0x25
 10860 0220 34       		.uleb128 0x34
 10861 0221 00       		.byte	0
 10862 0222 03       		.uleb128 0x3
 10863 0223 0E       		.uleb128 0xe
 10864 0224 3A       		.uleb128 0x3a
 10865 0225 0B       		.uleb128 0xb
 10866 0226 3B       		.uleb128 0x3b
 10867 0227 05       		.uleb128 0x5
 10868 0228 49       		.uleb128 0x49
 10869 0229 13       		.uleb128 0x13
 10870 022a 3F       		.uleb128 0x3f
 10871 022b 19       		.uleb128 0x19
 10872 022c 3C       		.uleb128 0x3c
 10873 022d 19       		.uleb128 0x19
 10874 022e 00       		.byte	0
ARM GAS  C:\Users\USUARIO\AppData\Local\Temp\ccywmqVe.s 			page 208


 10875 022f 00       		.byte	0
 10876 0230 26       		.uleb128 0x26
 10877 0231 35       		.uleb128 0x35
 10878 0232 00       		.byte	0
 10879 0233 49       		.uleb128 0x49
 10880 0234 13       		.uleb128 0x13
 10881 0235 00       		.byte	0
 10882 0236 00       		.byte	0
 10883 0237 27       		.uleb128 0x27
 10884 0238 34       		.uleb128 0x34
 10885 0239 00       		.byte	0
 10886 023a 03       		.uleb128 0x3
 10887 023b 0E       		.uleb128 0xe
 10888 023c 3A       		.uleb128 0x3a
 10889 023d 0B       		.uleb128 0xb
 10890 023e 3B       		.uleb128 0x3b
 10891 023f 0B       		.uleb128 0xb
 10892 0240 49       		.uleb128 0x49
 10893 0241 13       		.uleb128 0x13
 10894 0242 3F       		.uleb128 0x3f
 10895 0243 19       		.uleb128 0x19
 10896 0244 02       		.uleb128 0x2
 10897 0245 18       		.uleb128 0x18
 10898 0246 00       		.byte	0
 10899 0247 00       		.byte	0
 10900 0248 28       		.uleb128 0x28
 10901 0249 26       		.uleb128 0x26
 10902 024a 00       		.byte	0
 10903 024b 49       		.uleb128 0x49
 10904 024c 13       		.uleb128 0x13
 10905 024d 00       		.byte	0
 10906 024e 00       		.byte	0
 10907 024f 29       		.uleb128 0x29
 10908 0250 2E       		.uleb128 0x2e
 10909 0251 00       		.byte	0
 10910 0252 3F       		.uleb128 0x3f
 10911 0253 19       		.uleb128 0x19
 10912 0254 3C       		.uleb128 0x3c
 10913 0255 19       		.uleb128 0x19
 10914 0256 6E       		.uleb128 0x6e
 10915 0257 0E       		.uleb128 0xe
 10916 0258 03       		.uleb128 0x3
 10917 0259 0E       		.uleb128 0xe
 10918 025a 3A       		.uleb128 0x3a
 10919 025b 0B       		.uleb128 0xb
 10920 025c 3B       		.uleb128 0x3b
 10921 025d 0B       		.uleb128 0xb
 10922 025e 00       		.byte	0
 10923 025f 00       		.byte	0
 10924 0260 00       		.byte	0
 10925              		.section	.debug_loc,"",%progbits
 10926              	.Ldebug_loc0:
 10927              	.LLST0:
 10928 0000 00000000 		.4byte	.LVL0
 10929 0004 06000000 		.4byte	.LVL1
 10930 0008 0100     		.2byte	0x1
 10931 000a 50       		.byte	0x50
ARM GAS  C:\Users\USUARIO\AppData\Local\Temp\ccywmqVe.s 			page 209


 10932 000b 06000000 		.4byte	.LVL1
 10933 000f 96000000 		.4byte	.LFE64
 10934 0013 0400     		.2byte	0x4
 10935 0015 F3       		.byte	0xf3
 10936 0016 01       		.uleb128 0x1
 10937 0017 50       		.byte	0x50
 10938 0018 9F       		.byte	0x9f
 10939 0019 00000000 		.4byte	0
 10940 001d 00000000 		.4byte	0
 10941              	.LLST1:
 10942 0021 02000000 		.4byte	.LVL18
 10943 0025 0E000000 		.4byte	.LVL20
 10944 0029 0200     		.2byte	0x2
 10945 002b 30       		.byte	0x30
 10946 002c 9F       		.byte	0x9f
 10947 002d 0E000000 		.4byte	.LVL20
 10948 0031 16000000 		.4byte	.LVL22
 10949 0035 0100     		.2byte	0x1
 10950 0037 54       		.byte	0x54
 10951 0038 18000000 		.4byte	.LVL23
 10952 003c 20000000 		.4byte	.LVL25
 10953 0040 0100     		.2byte	0x1
 10954 0042 54       		.byte	0x54
 10955 0043 22000000 		.4byte	.LVL26
 10956 0047 2A000000 		.4byte	.LVL28
 10957 004b 0100     		.2byte	0x1
 10958 004d 54       		.byte	0x54
 10959 004e 2C000000 		.4byte	.LVL29
 10960 0052 34000000 		.4byte	.LVL31
 10961 0056 0100     		.2byte	0x1
 10962 0058 54       		.byte	0x54
 10963 0059 36000000 		.4byte	.LVL32
 10964 005d 3E000000 		.4byte	.LVL34
 10965 0061 0100     		.2byte	0x1
 10966 0063 54       		.byte	0x54
 10967 0064 40000000 		.4byte	.LVL35
 10968 0068 48000000 		.4byte	.LVL37
 10969 006c 0100     		.2byte	0x1
 10970 006e 54       		.byte	0x54
 10971 006f 4A000000 		.4byte	.LVL38
 10972 0073 58000000 		.4byte	.LFE65
 10973 0077 0100     		.2byte	0x1
 10974 0079 54       		.byte	0x54
 10975 007a 00000000 		.4byte	0
 10976 007e 00000000 		.4byte	0
 10977              	.LLST2:
 10978 0082 00000000 		.4byte	.LVL41
 10979 0086 08000000 		.4byte	.LVL42
 10980 008a 0100     		.2byte	0x1
 10981 008c 50       		.byte	0x50
 10982 008d 08000000 		.4byte	.LVL42
 10983 0091 0E000000 		.4byte	.LVL44
 10984 0095 0400     		.2byte	0x4
 10985 0097 F3       		.byte	0xf3
 10986 0098 01       		.uleb128 0x1
 10987 0099 50       		.byte	0x50
 10988 009a 9F       		.byte	0x9f
ARM GAS  C:\Users\USUARIO\AppData\Local\Temp\ccywmqVe.s 			page 210


 10989 009b 0E000000 		.4byte	.LVL44
 10990 009f 10000000 		.4byte	.LVL45
 10991 00a3 0100     		.2byte	0x1
 10992 00a5 50       		.byte	0x50
 10993 00a6 10000000 		.4byte	.LVL45
 10994 00aa 48000000 		.4byte	.LFE66
 10995 00ae 0400     		.2byte	0x4
 10996 00b0 F3       		.byte	0xf3
 10997 00b1 01       		.uleb128 0x1
 10998 00b2 50       		.byte	0x50
 10999 00b3 9F       		.byte	0x9f
 11000 00b4 00000000 		.4byte	0
 11001 00b8 00000000 		.4byte	0
 11002              	.LLST3:
 11003 00bc 00000000 		.4byte	.LVL41
 11004 00c0 0B000000 		.4byte	.LVL43-1
 11005 00c4 0100     		.2byte	0x1
 11006 00c6 51       		.byte	0x51
 11007 00c7 0B000000 		.4byte	.LVL43-1
 11008 00cb 0E000000 		.4byte	.LVL44
 11009 00cf 0400     		.2byte	0x4
 11010 00d1 F3       		.byte	0xf3
 11011 00d2 01       		.uleb128 0x1
 11012 00d3 51       		.byte	0x51
 11013 00d4 9F       		.byte	0x9f
 11014 00d5 0E000000 		.4byte	.LVL44
 11015 00d9 13000000 		.4byte	.LVL46-1
 11016 00dd 0100     		.2byte	0x1
 11017 00df 51       		.byte	0x51
 11018 00e0 13000000 		.4byte	.LVL46-1
 11019 00e4 48000000 		.4byte	.LFE66
 11020 00e8 0400     		.2byte	0x4
 11021 00ea F3       		.byte	0xf3
 11022 00eb 01       		.uleb128 0x1
 11023 00ec 51       		.byte	0x51
 11024 00ed 9F       		.byte	0x9f
 11025 00ee 00000000 		.4byte	0
 11026 00f2 00000000 		.4byte	0
 11027              	.LLST4:
 11028 00f6 04000000 		.4byte	.LVL55
 11029 00fa 10000000 		.4byte	.LVL57
 11030 00fe 0200     		.2byte	0x2
 11031 0100 30       		.byte	0x30
 11032 0101 9F       		.byte	0x9f
 11033 0102 10000000 		.4byte	.LVL57
 11034 0106 68000000 		.4byte	.LVL72
 11035 010a 0100     		.2byte	0x1
 11036 010c 58       		.byte	0x58
 11037 010d 6C000000 		.4byte	.LVL73
 11038 0111 76000000 		.4byte	.LVL74
 11039 0115 0100     		.2byte	0x1
 11040 0117 58       		.byte	0x58
 11041 0118 00000000 		.4byte	0
 11042 011c 00000000 		.4byte	0
 11043              	.LLST5:
 11044 0120 40000000 		.4byte	.LVL63
 11045 0124 44000000 		.4byte	.LVL64
ARM GAS  C:\Users\USUARIO\AppData\Local\Temp\ccywmqVe.s 			page 211


 11046 0128 0200     		.2byte	0x2
 11047 012a 30       		.byte	0x30
 11048 012b 9F       		.byte	0x9f
 11049 012c 44000000 		.4byte	.LVL64
 11050 0130 5A000000 		.4byte	.LVL69
 11051 0134 0100     		.2byte	0x1
 11052 0136 54       		.byte	0x54
 11053 0137 5C000000 		.4byte	.LVL70
 11054 013b 6C000000 		.4byte	.LVL73
 11055 013f 0100     		.2byte	0x1
 11056 0141 54       		.byte	0x54
 11057 0142 00000000 		.4byte	0
 11058 0146 00000000 		.4byte	0
 11059              	.LLST6:
 11060 014a 04000000 		.4byte	.LVL55
 11061 014e 10000000 		.4byte	.LVL57
 11062 0152 0600     		.2byte	0x6
 11063 0154 03       		.byte	0x3
 11064 0155 00000000 		.4byte	displayData
 11065 0159 9F       		.byte	0x9f
 11066 015a 10000000 		.4byte	.LVL57
 11067 015e 46000000 		.4byte	.LVL65
 11068 0162 0100     		.2byte	0x1
 11069 0164 56       		.byte	0x56
 11070 0165 46000000 		.4byte	.LVL65
 11071 0169 60000000 		.4byte	.LVL71
 11072 016d 0100     		.2byte	0x1
 11073 016f 57       		.byte	0x57
 11074 0170 60000000 		.4byte	.LVL71
 11075 0174 76000000 		.4byte	.LVL74
 11076 0178 0100     		.2byte	0x1
 11077 017a 56       		.byte	0x56
 11078 017b 00000000 		.4byte	0
 11079 017f 00000000 		.4byte	0
 11080              	.LLST7:
 11081 0183 04000000 		.4byte	.LVL55
 11082 0187 06000000 		.4byte	.LVL56
 11083 018b 0600     		.2byte	0x6
 11084 018d 03       		.byte	0x3
 11085 018e 00020000 		.4byte	displayData+512
 11086 0192 9F       		.byte	0x9f
 11087 0193 06000000 		.4byte	.LVL56
 11088 0197 50000000 		.4byte	.LVL67
 11089 019b 0100     		.2byte	0x1
 11090 019d 55       		.byte	0x55
 11091 019e 50000000 		.4byte	.LVL67
 11092 01a2 60000000 		.4byte	.LVL71
 11093 01a6 0100     		.2byte	0x1
 11094 01a8 56       		.byte	0x56
 11095 01a9 60000000 		.4byte	.LVL71
 11096 01ad 76000000 		.4byte	.LVL74
 11097 01b1 0100     		.2byte	0x1
 11098 01b3 55       		.byte	0x55
 11099 01b4 00000000 		.4byte	0
 11100 01b8 00000000 		.4byte	0
 11101              	.LLST8:
 11102 01bc 00000000 		.4byte	.LVL75
ARM GAS  C:\Users\USUARIO\AppData\Local\Temp\ccywmqVe.s 			page 212


 11103 01c0 06000000 		.4byte	.LVL76
 11104 01c4 0100     		.2byte	0x1
 11105 01c6 50       		.byte	0x50
 11106 01c7 06000000 		.4byte	.LVL76
 11107 01cb 4A000000 		.4byte	.LFE68
 11108 01cf 0400     		.2byte	0x4
 11109 01d1 F3       		.byte	0xf3
 11110 01d2 01       		.uleb128 0x1
 11111 01d3 50       		.byte	0x50
 11112 01d4 9F       		.byte	0x9f
 11113 01d5 00000000 		.4byte	0
 11114 01d9 00000000 		.4byte	0
 11115              	.LLST9:
 11116 01dd 00000000 		.4byte	.LVL88
 11117 01e1 02000000 		.4byte	.LVL89
 11118 01e5 0100     		.2byte	0x1
 11119 01e7 50       		.byte	0x50
 11120 01e8 02000000 		.4byte	.LVL89
 11121 01ec 28000000 		.4byte	.LFE69
 11122 01f0 0400     		.2byte	0x4
 11123 01f2 F3       		.byte	0xf3
 11124 01f3 01       		.uleb128 0x1
 11125 01f4 50       		.byte	0x50
 11126 01f5 9F       		.byte	0x9f
 11127 01f6 00000000 		.4byte	0
 11128 01fa 00000000 		.4byte	0
 11129              	.LLST10:
 11130 01fe 00000000 		.4byte	.LVL88
 11131 0202 0E000000 		.4byte	.LVL92
 11132 0206 0600     		.2byte	0x6
 11133 0208 03       		.byte	0x3
 11134 0209 00000000 		.4byte	displayData
 11135 020d 9F       		.byte	0x9f
 11136 020e 0E000000 		.4byte	.LVL92
 11137 0212 1A000000 		.4byte	.LVL97
 11138 0216 0300     		.2byte	0x3
 11139 0218 71       		.byte	0x71
 11140 0219 01       		.sleb128 1
 11141 021a 9F       		.byte	0x9f
 11142 021b 1A000000 		.4byte	.LVL97
 11143 021f 28000000 		.4byte	.LFE69
 11144 0223 0100     		.2byte	0x1
 11145 0225 51       		.byte	0x51
 11146 0226 00000000 		.4byte	0
 11147 022a 00000000 		.4byte	0
 11148              	.LLST11:
 11149 022e 00000000 		.4byte	.LVL88
 11150 0232 08000000 		.4byte	.LVL91
 11151 0236 0600     		.2byte	0x6
 11152 0238 03       		.byte	0x3
 11153 0239 00020000 		.4byte	displayData+512
 11154 023d 9F       		.byte	0x9f
 11155 023e 08000000 		.4byte	.LVL91
 11156 0242 10000000 		.4byte	.LVL93
 11157 0246 0100     		.2byte	0x1
 11158 0248 52       		.byte	0x52
 11159 0249 10000000 		.4byte	.LVL93
ARM GAS  C:\Users\USUARIO\AppData\Local\Temp\ccywmqVe.s 			page 213


 11160 024d 18000000 		.4byte	.LVL96
 11161 0251 0300     		.2byte	0x3
 11162 0253 72       		.byte	0x72
 11163 0254 01       		.sleb128 1
 11164 0255 9F       		.byte	0x9f
 11165 0256 18000000 		.4byte	.LVL96
 11166 025a 28000000 		.4byte	.LFE69
 11167 025e 0100     		.2byte	0x1
 11168 0260 52       		.byte	0x52
 11169 0261 00000000 		.4byte	0
 11170 0265 00000000 		.4byte	0
 11171              	.LLST12:
 11172 0269 04000000 		.4byte	.LVL90
 11173 026d 0E000000 		.4byte	.LVL92
 11174 0271 0200     		.2byte	0x2
 11175 0273 30       		.byte	0x30
 11176 0274 9F       		.byte	0x9f
 11177 0275 0E000000 		.4byte	.LVL92
 11178 0279 14000000 		.4byte	.LVL94
 11179 027d 0100     		.2byte	0x1
 11180 027f 53       		.byte	0x53
 11181 0280 16000000 		.4byte	.LVL95
 11182 0284 28000000 		.4byte	.LFE69
 11183 0288 0100     		.2byte	0x1
 11184 028a 53       		.byte	0x53
 11185 028b 00000000 		.4byte	0
 11186 028f 00000000 		.4byte	0
 11187              	.LLST13:
 11188 0293 00000000 		.4byte	.LVL98
 11189 0297 06000000 		.4byte	.LVL99
 11190 029b 0100     		.2byte	0x1
 11191 029d 50       		.byte	0x50
 11192 029e 06000000 		.4byte	.LVL99
 11193 02a2 84000000 		.4byte	.LFE70
 11194 02a6 0400     		.2byte	0x4
 11195 02a8 F3       		.byte	0xf3
 11196 02a9 01       		.uleb128 0x1
 11197 02aa 50       		.byte	0x50
 11198 02ab 9F       		.byte	0x9f
 11199 02ac 00000000 		.4byte	0
 11200 02b0 00000000 		.4byte	0
 11201              	.LLST14:
 11202 02b4 00000000 		.4byte	.LVL117
 11203 02b8 0E000000 		.4byte	.LVL121
 11204 02bc 0100     		.2byte	0x1
 11205 02be 50       		.byte	0x50
 11206 02bf 0E000000 		.4byte	.LVL121
 11207 02c3 12000000 		.4byte	.LVL123
 11208 02c7 0400     		.2byte	0x4
 11209 02c9 F3       		.byte	0xf3
 11210 02ca 01       		.uleb128 0x1
 11211 02cb 50       		.byte	0x50
 11212 02cc 9F       		.byte	0x9f
 11213 02cd 12000000 		.4byte	.LVL123
 11214 02d1 14000000 		.4byte	.LVL124
 11215 02d5 0100     		.2byte	0x1
 11216 02d7 50       		.byte	0x50
ARM GAS  C:\Users\USUARIO\AppData\Local\Temp\ccywmqVe.s 			page 214


 11217 02d8 14000000 		.4byte	.LVL124
 11218 02dc 48000000 		.4byte	.LFE71
 11219 02e0 0400     		.2byte	0x4
 11220 02e2 F3       		.byte	0xf3
 11221 02e3 01       		.uleb128 0x1
 11222 02e4 50       		.byte	0x50
 11223 02e5 9F       		.byte	0x9f
 11224 02e6 00000000 		.4byte	0
 11225 02ea 00000000 		.4byte	0
 11226              	.LLST15:
 11227 02ee 00000000 		.4byte	.LVL117
 11228 02f2 1C000000 		.4byte	.LVL126
 11229 02f6 0100     		.2byte	0x1
 11230 02f8 51       		.byte	0x51
 11231 02f9 1C000000 		.4byte	.LVL126
 11232 02fd 2A000000 		.4byte	.LVL128
 11233 0301 0400     		.2byte	0x4
 11234 0303 F3       		.byte	0xf3
 11235 0304 01       		.uleb128 0x1
 11236 0305 51       		.byte	0x51
 11237 0306 9F       		.byte	0x9f
 11238 0307 2A000000 		.4byte	.LVL128
 11239 030b 2E000000 		.4byte	.LVL129
 11240 030f 0100     		.2byte	0x1
 11241 0311 51       		.byte	0x51
 11242 0312 2E000000 		.4byte	.LVL129
 11243 0316 48000000 		.4byte	.LFE71
 11244 031a 0400     		.2byte	0x4
 11245 031c F3       		.byte	0xf3
 11246 031d 01       		.uleb128 0x1
 11247 031e 51       		.byte	0x51
 11248 031f 9F       		.byte	0x9f
 11249 0320 00000000 		.4byte	0
 11250 0324 00000000 		.4byte	0
 11251              	.LLST16:
 11252 0328 00000000 		.4byte	.LVL117
 11253 032c 1E000000 		.4byte	.LVL127
 11254 0330 0100     		.2byte	0x1
 11255 0332 52       		.byte	0x52
 11256 0333 1E000000 		.4byte	.LVL127
 11257 0337 2A000000 		.4byte	.LVL128
 11258 033b 0400     		.2byte	0x4
 11259 033d F3       		.byte	0xf3
 11260 033e 01       		.uleb128 0x1
 11261 033f 52       		.byte	0x52
 11262 0340 9F       		.byte	0x9f
 11263 0341 2A000000 		.4byte	.LVL128
 11264 0345 30000000 		.4byte	.LVL130
 11265 0349 0100     		.2byte	0x1
 11266 034b 52       		.byte	0x52
 11267 034c 30000000 		.4byte	.LVL130
 11268 0350 48000000 		.4byte	.LFE71
 11269 0354 0400     		.2byte	0x4
 11270 0356 F3       		.byte	0xf3
 11271 0357 01       		.uleb128 0x1
 11272 0358 52       		.byte	0x52
 11273 0359 9F       		.byte	0x9f
ARM GAS  C:\Users\USUARIO\AppData\Local\Temp\ccywmqVe.s 			page 215


 11274 035a 00000000 		.4byte	0
 11275 035e 00000000 		.4byte	0
 11276              	.LLST17:
 11277 0362 10000000 		.4byte	.LVL122
 11278 0366 12000000 		.4byte	.LVL123
 11279 036a 0100     		.2byte	0x1
 11280 036c 53       		.byte	0x53
 11281 036d 16000000 		.4byte	.LVL125
 11282 0371 48000000 		.4byte	.LFE71
 11283 0375 0100     		.2byte	0x1
 11284 0377 53       		.byte	0x53
 11285 0378 00000000 		.4byte	0
 11286 037c 00000000 		.4byte	0
 11287              	.LLST18:
 11288 0380 02000000 		.4byte	.LVL118
 11289 0384 06000000 		.4byte	.LVL119
 11290 0388 0500     		.2byte	0x5
 11291 038a 73       		.byte	0x73
 11292 038b 00       		.sleb128 0
 11293 038c 36       		.byte	0x36
 11294 038d 24       		.byte	0x24
 11295 038e 9F       		.byte	0x9f
 11296 038f 06000000 		.4byte	.LVL119
 11297 0393 0C000000 		.4byte	.LVL120
 11298 0397 0100     		.2byte	0x1
 11299 0399 53       		.byte	0x53
 11300 039a 0C000000 		.4byte	.LVL120
 11301 039e 10000000 		.4byte	.LVL122
 11302 03a2 0400     		.2byte	0x4
 11303 03a4 73       		.byte	0x73
 11304 03a5 C000     		.sleb128 64
 11305 03a7 9F       		.byte	0x9f
 11306 03a8 12000000 		.4byte	.LVL123
 11307 03ac 16000000 		.4byte	.LVL125
 11308 03b0 0100     		.2byte	0x1
 11309 03b2 53       		.byte	0x53
 11310 03b3 00000000 		.4byte	0
 11311 03b7 00000000 		.4byte	0
 11312              	.LLST19:
 11313 03bb 00000000 		.4byte	.LVL131
 11314 03bf 62000000 		.4byte	.LVL143
 11315 03c3 0100     		.2byte	0x1
 11316 03c5 50       		.byte	0x50
 11317 03c6 62000000 		.4byte	.LVL143
 11318 03ca 78000000 		.4byte	.LVL147
 11319 03ce 0100     		.2byte	0x1
 11320 03d0 54       		.byte	0x54
 11321 03d1 7A000000 		.4byte	.LVL148
 11322 03d5 82000000 		.4byte	.LVL151
 11323 03d9 0100     		.2byte	0x1
 11324 03db 54       		.byte	0x54
 11325 03dc 84000000 		.4byte	.LVL152
 11326 03e0 94000000 		.4byte	.LVL157
 11327 03e4 0100     		.2byte	0x1
 11328 03e6 54       		.byte	0x54
 11329 03e7 94000000 		.4byte	.LVL157
 11330 03eb B6000000 		.4byte	.LVL163
ARM GAS  C:\Users\USUARIO\AppData\Local\Temp\ccywmqVe.s 			page 216


 11331 03ef 0100     		.2byte	0x1
 11332 03f1 50       		.byte	0x50
 11333 03f2 B6000000 		.4byte	.LVL163
 11334 03f6 D6000000 		.4byte	.LVL171
 11335 03fa 0100     		.2byte	0x1
 11336 03fc 54       		.byte	0x54
 11337 03fd D8000000 		.4byte	.LVL172
 11338 0401 EC000000 		.4byte	.LFE72
 11339 0405 0100     		.2byte	0x1
 11340 0407 54       		.byte	0x54
 11341 0408 00000000 		.4byte	0
 11342 040c 00000000 		.4byte	0
 11343              	.LLST20:
 11344 0410 00000000 		.4byte	.LVL131
 11345 0414 0E000000 		.4byte	.LVL132
 11346 0418 0100     		.2byte	0x1
 11347 041a 51       		.byte	0x51
 11348 041b 0E000000 		.4byte	.LVL132
 11349 041f 62000000 		.4byte	.LVL143
 11350 0423 0400     		.2byte	0x4
 11351 0425 F3       		.byte	0xf3
 11352 0426 01       		.uleb128 0x1
 11353 0427 51       		.byte	0x51
 11354 0428 9F       		.byte	0x9f
 11355 0429 62000000 		.4byte	.LVL143
 11356 042d 86000000 		.4byte	.LVL153
 11357 0431 0100     		.2byte	0x1
 11358 0433 55       		.byte	0x55
 11359 0434 88000000 		.4byte	.LVL154
 11360 0438 94000000 		.4byte	.LVL157
 11361 043c 0100     		.2byte	0x1
 11362 043e 55       		.byte	0x55
 11363 043f 94000000 		.4byte	.LVL157
 11364 0443 B6000000 		.4byte	.LVL163
 11365 0447 0400     		.2byte	0x4
 11366 0449 F3       		.byte	0xf3
 11367 044a 01       		.uleb128 0x1
 11368 044b 51       		.byte	0x51
 11369 044c 9F       		.byte	0x9f
 11370 044d B6000000 		.4byte	.LVL163
 11371 0451 CC000000 		.4byte	.LVL167
 11372 0455 0100     		.2byte	0x1
 11373 0457 55       		.byte	0x55
 11374 0458 CE000000 		.4byte	.LVL168
 11375 045c DA000000 		.4byte	.LVL173
 11376 0460 0100     		.2byte	0x1
 11377 0462 55       		.byte	0x55
 11378 0463 DC000000 		.4byte	.LVL174
 11379 0467 EC000000 		.4byte	.LFE72
 11380 046b 0100     		.2byte	0x1
 11381 046d 55       		.byte	0x55
 11382 046e 00000000 		.4byte	0
 11383 0472 00000000 		.4byte	0
 11384              	.LLST21:
 11385 0476 00000000 		.4byte	.LVL131
 11386 047a 62000000 		.4byte	.LVL143
 11387 047e 0100     		.2byte	0x1
ARM GAS  C:\Users\USUARIO\AppData\Local\Temp\ccywmqVe.s 			page 217


 11388 0480 52       		.byte	0x52
 11389 0481 62000000 		.4byte	.LVL143
 11390 0485 94000000 		.4byte	.LVL157
 11391 0489 0400     		.2byte	0x4
 11392 048b F3       		.byte	0xf3
 11393 048c 01       		.uleb128 0x1
 11394 048d 52       		.byte	0x52
 11395 048e 9F       		.byte	0x9f
 11396 048f 94000000 		.4byte	.LVL157
 11397 0493 B6000000 		.4byte	.LVL163
 11398 0497 0100     		.2byte	0x1
 11399 0499 52       		.byte	0x52
 11400 049a B6000000 		.4byte	.LVL163
 11401 049e EC000000 		.4byte	.LFE72
 11402 04a2 0400     		.2byte	0x4
 11403 04a4 F3       		.byte	0xf3
 11404 04a5 01       		.uleb128 0x1
 11405 04a6 52       		.byte	0x52
 11406 04a7 9F       		.byte	0x9f
 11407 04a8 00000000 		.4byte	0
 11408 04ac 00000000 		.4byte	0
 11409              	.LLST22:
 11410 04b0 00000000 		.4byte	.LVL131
 11411 04b4 48000000 		.4byte	.LVL139
 11412 04b8 0100     		.2byte	0x1
 11413 04ba 53       		.byte	0x53
 11414 04bb 48000000 		.4byte	.LVL139
 11415 04bf 94000000 		.4byte	.LVL157
 11416 04c3 0400     		.2byte	0x4
 11417 04c5 F3       		.byte	0xf3
 11418 04c6 01       		.uleb128 0x1
 11419 04c7 53       		.byte	0x53
 11420 04c8 9F       		.byte	0x9f
 11421 04c9 94000000 		.4byte	.LVL157
 11422 04cd 9C000000 		.4byte	.LVL159
 11423 04d1 0100     		.2byte	0x1
 11424 04d3 53       		.byte	0x53
 11425 04d4 9C000000 		.4byte	.LVL159
 11426 04d8 EC000000 		.4byte	.LFE72
 11427 04dc 0400     		.2byte	0x4
 11428 04de F3       		.byte	0xf3
 11429 04df 01       		.uleb128 0x1
 11430 04e0 53       		.byte	0x53
 11431 04e1 9F       		.byte	0x9f
 11432 04e2 00000000 		.4byte	0
 11433 04e6 00000000 		.4byte	0
 11434              	.LLST23:
 11435 04ea 20000000 		.4byte	.LVL135
 11436 04ee 44000000 		.4byte	.LVL138
 11437 04f2 0100     		.2byte	0x1
 11438 04f4 5B       		.byte	0x5b
 11439 04f5 44000000 		.4byte	.LVL138
 11440 04f9 48000000 		.4byte	.LVL139
 11441 04fd 0600     		.2byte	0x6
 11442 04ff 73       		.byte	0x73
 11443 0500 00       		.sleb128 0
 11444 0501 75       		.byte	0x75
ARM GAS  C:\Users\USUARIO\AppData\Local\Temp\ccywmqVe.s 			page 218


 11445 0502 00       		.sleb128 0
 11446 0503 1C       		.byte	0x1c
 11447 0504 9F       		.byte	0x9f
 11448 0505 4A000000 		.4byte	.LVL140
 11449 0509 62000000 		.4byte	.LVL143
 11450 050d 0100     		.2byte	0x1
 11451 050f 53       		.byte	0x53
 11452 0510 62000000 		.4byte	.LVL143
 11453 0514 94000000 		.4byte	.LVL157
 11454 0518 0200     		.2byte	0x2
 11455 051a 91       		.byte	0x91
 11456 051b 54       		.sleb128 -44
 11457 051c 94000000 		.4byte	.LVL157
 11458 0520 E6000000 		.4byte	.LVL177
 11459 0524 0100     		.2byte	0x1
 11460 0526 5B       		.byte	0x5b
 11461 0527 00000000 		.4byte	0
 11462 052b 00000000 		.4byte	0
 11463              	.LLST24:
 11464 052f 18000000 		.4byte	.LVL134
 11465 0533 98000000 		.4byte	.LVL158
 11466 0537 0100     		.2byte	0x1
 11467 0539 58       		.byte	0x58
 11468 053a 98000000 		.4byte	.LVL158
 11469 053e 9E000000 		.4byte	.LVL160
 11470 0542 0600     		.2byte	0x6
 11471 0544 72       		.byte	0x72
 11472 0545 00       		.sleb128 0
 11473 0546 70       		.byte	0x70
 11474 0547 00       		.sleb128 0
 11475 0548 1C       		.byte	0x1c
 11476 0549 9F       		.byte	0x9f
 11477 054a 9E000000 		.4byte	.LVL160
 11478 054e B6000000 		.4byte	.LVL163
 11479 0552 0100     		.2byte	0x1
 11480 0554 53       		.byte	0x53
 11481 0555 B6000000 		.4byte	.LVL163
 11482 0559 E6000000 		.4byte	.LVL177
 11483 055d 0200     		.2byte	0x2
 11484 055f 91       		.byte	0x91
 11485 0560 54       		.sleb128 -44
 11486 0561 00000000 		.4byte	0
 11487 0565 00000000 		.4byte	0
 11488              	.LLST25:
 11489 0569 10000000 		.4byte	.LVL133
 11490 056d 2E000000 		.4byte	.LVL136
 11491 0571 0200     		.2byte	0x2
 11492 0573 31       		.byte	0x31
 11493 0574 9F       		.byte	0x9f
 11494 0575 2E000000 		.4byte	.LVL136
 11495 0579 EC000000 		.4byte	.LFE72
 11496 057d 0100     		.2byte	0x1
 11497 057f 59       		.byte	0x59
 11498 0580 00000000 		.4byte	0
 11499 0584 00000000 		.4byte	0
 11500              	.LLST26:
 11501 0588 10000000 		.4byte	.LVL133
ARM GAS  C:\Users\USUARIO\AppData\Local\Temp\ccywmqVe.s 			page 219


 11502 058c 3C000000 		.4byte	.LVL137
 11503 0590 0200     		.2byte	0x2
 11504 0592 31       		.byte	0x31
 11505 0593 9F       		.byte	0x9f
 11506 0594 3C000000 		.4byte	.LVL137
 11507 0598 EC000000 		.4byte	.LFE72
 11508 059c 0100     		.2byte	0x1
 11509 059e 5A       		.byte	0x5a
 11510 059f 00000000 		.4byte	0
 11511 05a3 00000000 		.4byte	0
 11512              	.LLST27:
 11513 05a7 56000000 		.4byte	.LVL141
 11514 05ab 74000000 		.4byte	.LVL145
 11515 05af 0100     		.2byte	0x1
 11516 05b1 57       		.byte	0x57
 11517 05b2 76000000 		.4byte	.LVL146
 11518 05b6 7E000000 		.4byte	.LVL149
 11519 05ba 0100     		.2byte	0x1
 11520 05bc 57       		.byte	0x57
 11521 05bd 80000000 		.4byte	.LVL150
 11522 05c1 94000000 		.4byte	.LVL157
 11523 05c5 0100     		.2byte	0x1
 11524 05c7 57       		.byte	0x57
 11525 05c8 AA000000 		.4byte	.LVL161
 11526 05cc C8000000 		.4byte	.LVL165
 11527 05d0 0100     		.2byte	0x1
 11528 05d2 57       		.byte	0x57
 11529 05d3 CA000000 		.4byte	.LVL166
 11530 05d7 D2000000 		.4byte	.LVL169
 11531 05db 0100     		.2byte	0x1
 11532 05dd 57       		.byte	0x57
 11533 05de D4000000 		.4byte	.LVL170
 11534 05e2 EC000000 		.4byte	.LFE72
 11535 05e6 0100     		.2byte	0x1
 11536 05e8 57       		.byte	0x57
 11537 05e9 00000000 		.4byte	0
 11538 05ed 00000000 		.4byte	0
 11539              	.LLST28:
 11540 05f1 5E000000 		.4byte	.LVL142
 11541 05f5 94000000 		.4byte	.LVL157
 11542 05f9 0100     		.2byte	0x1
 11543 05fb 5B       		.byte	0x5b
 11544 05fc B2000000 		.4byte	.LVL162
 11545 0600 E6000000 		.4byte	.LVL177
 11546 0604 0100     		.2byte	0x1
 11547 0606 58       		.byte	0x58
 11548 0607 00000000 		.4byte	0
 11549 060b 00000000 		.4byte	0
 11550              	.LLST29:
 11551 060f 10000000 		.4byte	.LVL133
 11552 0613 62000000 		.4byte	.LVL143
 11553 0617 0200     		.2byte	0x2
 11554 0619 30       		.byte	0x30
 11555 061a 9F       		.byte	0x9f
 11556 061b 62000000 		.4byte	.LVL143
 11557 061f 8A000000 		.4byte	.LVL155
 11558 0623 0100     		.2byte	0x1
ARM GAS  C:\Users\USUARIO\AppData\Local\Temp\ccywmqVe.s 			page 220


 11559 0625 56       		.byte	0x56
 11560 0626 8C000000 		.4byte	.LVL156
 11561 062a 94000000 		.4byte	.LVL157
 11562 062e 0100     		.2byte	0x1
 11563 0630 56       		.byte	0x56
 11564 0631 94000000 		.4byte	.LVL157
 11565 0635 B6000000 		.4byte	.LVL163
 11566 0639 0200     		.2byte	0x2
 11567 063b 30       		.byte	0x30
 11568 063c 9F       		.byte	0x9f
 11569 063d B6000000 		.4byte	.LVL163
 11570 0641 DE000000 		.4byte	.LVL175
 11571 0645 0100     		.2byte	0x1
 11572 0647 56       		.byte	0x56
 11573 0648 E0000000 		.4byte	.LVL176
 11574 064c EC000000 		.4byte	.LFE72
 11575 0650 0100     		.2byte	0x1
 11576 0652 56       		.byte	0x56
 11577 0653 00000000 		.4byte	0
 11578 0657 00000000 		.4byte	0
 11579              	.LLST30:
 11580 065b 00000000 		.4byte	.LVL178
 11581 065f 2C000000 		.4byte	.LVL181
 11582 0663 0100     		.2byte	0x1
 11583 0665 50       		.byte	0x50
 11584 0666 2C000000 		.4byte	.LVL181
 11585 066a 4C000000 		.4byte	.LVL189
 11586 066e 0400     		.2byte	0x4
 11587 0670 F3       		.byte	0xf3
 11588 0671 01       		.uleb128 0x1
 11589 0672 50       		.byte	0x50
 11590 0673 9F       		.byte	0x9f
 11591 0674 4C000000 		.4byte	.LVL189
 11592 0678 53000000 		.4byte	.LVL190-1
 11593 067c 0100     		.2byte	0x1
 11594 067e 50       		.byte	0x50
 11595 067f 53000000 		.4byte	.LVL190-1
 11596 0683 84000000 		.4byte	.LFE73
 11597 0687 0400     		.2byte	0x4
 11598 0689 F3       		.byte	0xf3
 11599 068a 01       		.uleb128 0x1
 11600 068b 50       		.byte	0x50
 11601 068c 9F       		.byte	0x9f
 11602 068d 00000000 		.4byte	0
 11603 0691 00000000 		.4byte	0
 11604              	.LLST31:
 11605 0695 00000000 		.4byte	.LVL178
 11606 0699 2C000000 		.4byte	.LVL181
 11607 069d 0100     		.2byte	0x1
 11608 069f 51       		.byte	0x51
 11609 06a0 2C000000 		.4byte	.LVL181
 11610 06a4 4C000000 		.4byte	.LVL189
 11611 06a8 0400     		.2byte	0x4
 11612 06aa F3       		.byte	0xf3
 11613 06ab 01       		.uleb128 0x1
 11614 06ac 51       		.byte	0x51
 11615 06ad 9F       		.byte	0x9f
ARM GAS  C:\Users\USUARIO\AppData\Local\Temp\ccywmqVe.s 			page 221


 11616 06ae 4C000000 		.4byte	.LVL189
 11617 06b2 53000000 		.4byte	.LVL190-1
 11618 06b6 0100     		.2byte	0x1
 11619 06b8 51       		.byte	0x51
 11620 06b9 53000000 		.4byte	.LVL190-1
 11621 06bd 84000000 		.4byte	.LFE73
 11622 06c1 0400     		.2byte	0x4
 11623 06c3 F3       		.byte	0xf3
 11624 06c4 01       		.uleb128 0x1
 11625 06c5 51       		.byte	0x51
 11626 06c6 9F       		.byte	0x9f
 11627 06c7 00000000 		.4byte	0
 11628 06cb 00000000 		.4byte	0
 11629              	.LLST32:
 11630 06cf 00000000 		.4byte	.LVL178
 11631 06d3 2C000000 		.4byte	.LVL181
 11632 06d7 0100     		.2byte	0x1
 11633 06d9 52       		.byte	0x52
 11634 06da 2C000000 		.4byte	.LVL181
 11635 06de 4C000000 		.4byte	.LVL189
 11636 06e2 0400     		.2byte	0x4
 11637 06e4 F3       		.byte	0xf3
 11638 06e5 01       		.uleb128 0x1
 11639 06e6 52       		.byte	0x52
 11640 06e7 9F       		.byte	0x9f
 11641 06e8 4C000000 		.4byte	.LVL189
 11642 06ec 53000000 		.4byte	.LVL190-1
 11643 06f0 0100     		.2byte	0x1
 11644 06f2 52       		.byte	0x52
 11645 06f3 53000000 		.4byte	.LVL190-1
 11646 06f7 84000000 		.4byte	.LFE73
 11647 06fb 0400     		.2byte	0x4
 11648 06fd F3       		.byte	0xf3
 11649 06fe 01       		.uleb128 0x1
 11650 06ff 52       		.byte	0x52
 11651 0700 9F       		.byte	0x9f
 11652 0701 00000000 		.4byte	0
 11653 0705 00000000 		.4byte	0
 11654              	.LLST33:
 11655 0709 00000000 		.4byte	.LVL178
 11656 070d 12000000 		.4byte	.LVL179
 11657 0711 0100     		.2byte	0x1
 11658 0713 53       		.byte	0x53
 11659 0714 12000000 		.4byte	.LVL179
 11660 0718 84000000 		.4byte	.LFE73
 11661 071c 0400     		.2byte	0x4
 11662 071e F3       		.byte	0xf3
 11663 071f 01       		.uleb128 0x1
 11664 0720 53       		.byte	0x53
 11665 0721 9F       		.byte	0x9f
 11666 0722 00000000 		.4byte	0
 11667 0726 00000000 		.4byte	0
 11668              	.LLST34:
 11669 072a 2C000000 		.4byte	.LVL181
 11670 072e 38000000 		.4byte	.LVL183
 11671 0732 0100     		.2byte	0x1
 11672 0734 54       		.byte	0x54
ARM GAS  C:\Users\USUARIO\AppData\Local\Temp\ccywmqVe.s 			page 222


 11673 0735 3A000000 		.4byte	.LVL184
 11674 0739 3C000000 		.4byte	.LVL185
 11675 073d 0100     		.2byte	0x1
 11676 073f 54       		.byte	0x54
 11677 0740 3E000000 		.4byte	.LVL186
 11678 0744 46000000 		.4byte	.LVL188
 11679 0748 0100     		.2byte	0x1
 11680 074a 54       		.byte	0x54
 11681 074b 00000000 		.4byte	0
 11682 074f 00000000 		.4byte	0
 11683              	.LLST35:
 11684 0753 20000000 		.4byte	.LVL180
 11685 0757 44000000 		.4byte	.LVL187
 11686 075b 0100     		.2byte	0x1
 11687 075d 55       		.byte	0x55
 11688 075e 46000000 		.4byte	.LVL188
 11689 0762 4C000000 		.4byte	.LVL189
 11690 0766 0100     		.2byte	0x1
 11691 0768 55       		.byte	0x55
 11692 0769 00000000 		.4byte	0
 11693 076d 00000000 		.4byte	0
 11694              	.LLST36:
 11695 0771 20000000 		.4byte	.LVL180
 11696 0775 4C000000 		.4byte	.LVL189
 11697 0779 0100     		.2byte	0x1
 11698 077b 58       		.byte	0x58
 11699 077c 00000000 		.4byte	0
 11700 0780 00000000 		.4byte	0
 11701              	.LLST37:
 11702 0784 2C000000 		.4byte	.LVL181
 11703 0788 4C000000 		.4byte	.LVL189
 11704 078c 0100     		.2byte	0x1
 11705 078e 59       		.byte	0x59
 11706 078f 00000000 		.4byte	0
 11707 0793 00000000 		.4byte	0
 11708              	.LLST38:
 11709 0797 2C000000 		.4byte	.LVL181
 11710 079b 4C000000 		.4byte	.LVL189
 11711 079f 0100     		.2byte	0x1
 11712 07a1 56       		.byte	0x56
 11713 07a2 00000000 		.4byte	0
 11714 07a6 00000000 		.4byte	0
 11715              	.LLST39:
 11716 07aa 00000000 		.4byte	.LVL194
 11717 07ae 2C000000 		.4byte	.LVL200
 11718 07b2 0100     		.2byte	0x1
 11719 07b4 50       		.byte	0x50
 11720 07b5 2C000000 		.4byte	.LVL200
 11721 07b9 88000000 		.4byte	.LVL216
 11722 07bd 0400     		.2byte	0x4
 11723 07bf F3       		.byte	0xf3
 11724 07c0 01       		.uleb128 0x1
 11725 07c1 50       		.byte	0x50
 11726 07c2 9F       		.byte	0x9f
 11727 07c3 88000000 		.4byte	.LVL216
 11728 07c7 C8000000 		.4byte	.LVL223
 11729 07cb 0100     		.2byte	0x1
ARM GAS  C:\Users\USUARIO\AppData\Local\Temp\ccywmqVe.s 			page 223


 11730 07cd 5A       		.byte	0x5a
 11731 07ce CC000000 		.4byte	.LVL224
 11732 07d2 DE000000 		.4byte	.LVL228
 11733 07d6 0100     		.2byte	0x1
 11734 07d8 5A       		.byte	0x5a
 11735 07d9 DE000000 		.4byte	.LVL228
 11736 07dd E6000000 		.4byte	.LVL229
 11737 07e1 0400     		.2byte	0x4
 11738 07e3 F3       		.byte	0xf3
 11739 07e4 01       		.uleb128 0x1
 11740 07e5 50       		.byte	0x50
 11741 07e6 9F       		.byte	0x9f
 11742 07e7 E6000000 		.4byte	.LVL229
 11743 07eb F6000000 		.4byte	.LVL230
 11744 07ef 0100     		.2byte	0x1
 11745 07f1 5A       		.byte	0x5a
 11746 07f2 FA000000 		.4byte	.LVL231
 11747 07f6 5A010000 		.4byte	.LFE74
 11748 07fa 0100     		.2byte	0x1
 11749 07fc 5A       		.byte	0x5a
 11750 07fd 00000000 		.4byte	0
 11751 0801 00000000 		.4byte	0
 11752              	.LLST40:
 11753 0805 00000000 		.4byte	.LVL194
 11754 0809 1C000000 		.4byte	.LVL197
 11755 080d 0100     		.2byte	0x1
 11756 080f 51       		.byte	0x51
 11757 0810 1C000000 		.4byte	.LVL197
 11758 0814 88000000 		.4byte	.LVL216
 11759 0818 0400     		.2byte	0x4
 11760 081a F3       		.byte	0xf3
 11761 081b 01       		.uleb128 0x1
 11762 081c 51       		.byte	0x51
 11763 081d 9F       		.byte	0x9f
 11764 081e 88000000 		.4byte	.LVL216
 11765 0822 D0000000 		.4byte	.LVL225
 11766 0826 0100     		.2byte	0x1
 11767 0828 5B       		.byte	0x5b
 11768 0829 D4000000 		.4byte	.LVL226
 11769 082d DE000000 		.4byte	.LVL228
 11770 0831 0100     		.2byte	0x1
 11771 0833 5B       		.byte	0x5b
 11772 0834 DE000000 		.4byte	.LVL228
 11773 0838 E6000000 		.4byte	.LVL229
 11774 083c 0400     		.2byte	0x4
 11775 083e F3       		.byte	0xf3
 11776 083f 01       		.uleb128 0x1
 11777 0840 51       		.byte	0x51
 11778 0841 9F       		.byte	0x9f
 11779 0842 E6000000 		.4byte	.LVL229
 11780 0846 FE000000 		.4byte	.LVL232
 11781 084a 0100     		.2byte	0x1
 11782 084c 5B       		.byte	0x5b
 11783 084d 02010000 		.4byte	.LVL233
 11784 0851 5A010000 		.4byte	.LFE74
 11785 0855 0100     		.2byte	0x1
 11786 0857 5B       		.byte	0x5b
ARM GAS  C:\Users\USUARIO\AppData\Local\Temp\ccywmqVe.s 			page 224


 11787 0858 00000000 		.4byte	0
 11788 085c 00000000 		.4byte	0
 11789              	.LLST41:
 11790 0860 00000000 		.4byte	.LVL194
 11791 0864 20000000 		.4byte	.LVL198
 11792 0868 0100     		.2byte	0x1
 11793 086a 52       		.byte	0x52
 11794 086b 20000000 		.4byte	.LVL198
 11795 086f 5A010000 		.4byte	.LFE74
 11796 0873 0400     		.2byte	0x4
 11797 0875 F3       		.byte	0xf3
 11798 0876 01       		.uleb128 0x1
 11799 0877 52       		.byte	0x52
 11800 0878 9F       		.byte	0x9f
 11801 0879 00000000 		.4byte	0
 11802 087d 00000000 		.4byte	0
 11803              	.LLST42:
 11804 0881 00000000 		.4byte	.LVL194
 11805 0885 18000000 		.4byte	.LVL195
 11806 0889 0100     		.2byte	0x1
 11807 088b 53       		.byte	0x53
 11808 088c 18000000 		.4byte	.LVL195
 11809 0890 5A010000 		.4byte	.LFE74
 11810 0894 0400     		.2byte	0x4
 11811 0896 F3       		.byte	0xf3
 11812 0897 01       		.uleb128 0x1
 11813 0898 53       		.byte	0x53
 11814 0899 9F       		.byte	0x9f
 11815 089a 00000000 		.4byte	0
 11816 089e 00000000 		.4byte	0
 11817              	.LLST43:
 11818 08a2 32000000 		.4byte	.LVL201
 11819 08a6 3C000000 		.4byte	.LVL203
 11820 08aa 0100     		.2byte	0x1
 11821 08ac 54       		.byte	0x54
 11822 08ad 3C000000 		.4byte	.LVL203
 11823 08b1 DE000000 		.4byte	.LVL228
 11824 08b5 0200     		.2byte	0x2
 11825 08b7 91       		.byte	0x91
 11826 08b8 54       		.sleb128 -44
 11827 08b9 DE000000 		.4byte	.LVL228
 11828 08bd E6000000 		.4byte	.LVL229
 11829 08c1 0100     		.2byte	0x1
 11830 08c3 50       		.byte	0x50
 11831 08c4 E6000000 		.4byte	.LVL229
 11832 08c8 5A010000 		.4byte	.LFE74
 11833 08cc 0200     		.2byte	0x2
 11834 08ce 91       		.byte	0x91
 11835 08cf 54       		.sleb128 -44
 11836 08d0 00000000 		.4byte	0
 11837 08d4 00000000 		.4byte	0
 11838              	.LLST44:
 11839 08d8 1A000000 		.4byte	.LVL196
 11840 08dc 66000000 		.4byte	.LVL210
 11841 08e0 0200     		.2byte	0x2
 11842 08e2 31       		.byte	0x31
 11843 08e3 9F       		.byte	0x9f
ARM GAS  C:\Users\USUARIO\AppData\Local\Temp\ccywmqVe.s 			page 225


 11844 08e4 66000000 		.4byte	.LVL210
 11845 08e8 5A010000 		.4byte	.LFE74
 11846 08ec 0200     		.2byte	0x2
 11847 08ee 91       		.byte	0x91
 11848 08ef 48       		.sleb128 -56
 11849 08f0 00000000 		.4byte	0
 11850 08f4 00000000 		.4byte	0
 11851              	.LLST45:
 11852 08f8 1A000000 		.4byte	.LVL196
 11853 08fc 76000000 		.4byte	.LVL215
 11854 0900 0200     		.2byte	0x2
 11855 0902 31       		.byte	0x31
 11856 0903 9F       		.byte	0x9f
 11857 0904 76000000 		.4byte	.LVL215
 11858 0908 5A010000 		.4byte	.LFE74
 11859 090c 0200     		.2byte	0x2
 11860 090e 91       		.byte	0x91
 11861 090f 4C       		.sleb128 -52
 11862 0910 00000000 		.4byte	0
 11863 0914 00000000 		.4byte	0
 11864              	.LLST46:
 11865 0918 8C000000 		.4byte	.LVL217
 11866 091c B8000000 		.4byte	.LVL221
 11867 0920 0100     		.2byte	0x1
 11868 0922 54       		.byte	0x54
 11869 0923 BA000000 		.4byte	.LVL222
 11870 0927 DE000000 		.4byte	.LVL228
 11871 092b 0100     		.2byte	0x1
 11872 092d 54       		.byte	0x54
 11873 092e 06010000 		.4byte	.LVL234
 11874 0932 36010000 		.4byte	.LVL239
 11875 0936 0100     		.2byte	0x1
 11876 0938 54       		.byte	0x54
 11877 0939 38010000 		.4byte	.LVL240
 11878 093d 4A010000 		.4byte	.LVL241
 11879 0941 0100     		.2byte	0x1
 11880 0943 54       		.byte	0x54
 11881 0944 00000000 		.4byte	0
 11882 0948 00000000 		.4byte	0
 11883              	.LLST47:
 11884 094c 44000000 		.4byte	.LVL204
 11885 0950 5C000000 		.4byte	.LVL206
 11886 0954 0100     		.2byte	0x1
 11887 0956 53       		.byte	0x53
 11888 0957 5C000000 		.4byte	.LVL206
 11889 095b 62000000 		.4byte	.LVL208
 11890 095f 0200     		.2byte	0x2
 11891 0961 7D       		.byte	0x7d
 11892 0962 00       		.sleb128 0
 11893 0963 62000000 		.4byte	.LVL208
 11894 0967 66000000 		.4byte	.LVL210
 11895 096b 0100     		.2byte	0x1
 11896 096d 53       		.byte	0x53
 11897 096e 66000000 		.4byte	.LVL210
 11898 0972 6C000000 		.4byte	.LVL211
 11899 0976 0200     		.2byte	0x2
 11900 0978 7D       		.byte	0x7d
ARM GAS  C:\Users\USUARIO\AppData\Local\Temp\ccywmqVe.s 			page 226


 11901 0979 00       		.sleb128 0
 11902 097a 72000000 		.4byte	.LVL213
 11903 097e 76000000 		.4byte	.LVL215
 11904 0982 0200     		.2byte	0x2
 11905 0984 7D       		.byte	0x7d
 11906 0985 00       		.sleb128 0
 11907 0986 00000000 		.4byte	0
 11908 098a 00000000 		.4byte	0
 11909              	.LLST48:
 11910 098e 54000000 		.4byte	.LVL205
 11911 0992 5E000000 		.4byte	.LVL207
 11912 0996 0100     		.2byte	0x1
 11913 0998 52       		.byte	0x52
 11914 0999 5E000000 		.4byte	.LVL207
 11915 099d 62000000 		.4byte	.LVL208
 11916 09a1 0100     		.2byte	0x1
 11917 09a3 53       		.byte	0x53
 11918 09a4 62000000 		.4byte	.LVL208
 11919 09a8 64000000 		.4byte	.LVL209
 11920 09ac 0100     		.2byte	0x1
 11921 09ae 52       		.byte	0x52
 11922 09af 64000000 		.4byte	.LVL209
 11923 09b3 66000000 		.4byte	.LVL210
 11924 09b7 0200     		.2byte	0x2
 11925 09b9 7D       		.byte	0x7d
 11926 09ba 00       		.sleb128 0
 11927 09bb 66000000 		.4byte	.LVL210
 11928 09bf 6E000000 		.4byte	.LVL212
 11929 09c3 0100     		.2byte	0x1
 11930 09c5 53       		.byte	0x53
 11931 09c6 72000000 		.4byte	.LVL213
 11932 09ca 74000000 		.4byte	.LVL214
 11933 09ce 0100     		.2byte	0x1
 11934 09d0 53       		.byte	0x53
 11935 09d1 76000000 		.4byte	.LVL215
 11936 09d5 56010000 		.4byte	.LVL242
 11937 09d9 0200     		.2byte	0x2
 11938 09db 7D       		.byte	0x7d
 11939 09dc 00       		.sleb128 0
 11940 09dd 56010000 		.4byte	.LVL242
 11941 09e1 5A010000 		.4byte	.LFE74
 11942 09e5 0300     		.2byte	0x3
 11943 09e7 91       		.byte	0x91
 11944 09e8 B87F     		.sleb128 -72
 11945 09ea 00000000 		.4byte	0
 11946 09ee 00000000 		.4byte	0
 11947              	.LLST49:
 11948 09f2 1A000000 		.4byte	.LVL196
 11949 09f6 88000000 		.4byte	.LVL216
 11950 09fa 0200     		.2byte	0x2
 11951 09fc 30       		.byte	0x30
 11952 09fd 9F       		.byte	0x9f
 11953 09fe 88000000 		.4byte	.LVL216
 11954 0a02 DE000000 		.4byte	.LVL228
 11955 0a06 0200     		.2byte	0x2
 11956 0a08 91       		.byte	0x91
 11957 0a09 40       		.sleb128 -64
ARM GAS  C:\Users\USUARIO\AppData\Local\Temp\ccywmqVe.s 			page 227


 11958 0a0a DE000000 		.4byte	.LVL228
 11959 0a0e E6000000 		.4byte	.LVL229
 11960 0a12 0200     		.2byte	0x2
 11961 0a14 30       		.byte	0x30
 11962 0a15 9F       		.byte	0x9f
 11963 0a16 E6000000 		.4byte	.LVL229
 11964 0a1a 5A010000 		.4byte	.LFE74
 11965 0a1e 0200     		.2byte	0x2
 11966 0a20 91       		.byte	0x91
 11967 0a21 40       		.sleb128 -64
 11968 0a22 00000000 		.4byte	0
 11969 0a26 00000000 		.4byte	0
 11970              	.LLST50:
 11971 0a2a A6000000 		.4byte	.LVL218
 11972 0a2e AA000000 		.4byte	.LVL219
 11973 0a32 0100     		.2byte	0x1
 11974 0a34 53       		.byte	0x53
 11975 0a35 AA000000 		.4byte	.LVL219
 11976 0a39 B5000000 		.4byte	.LVL220-1
 11977 0a3d 1400     		.2byte	0x14
 11978 0a3f 91       		.byte	0x91
 11979 0a40 BC7F     		.sleb128 -68
 11980 0a42 06       		.byte	0x6
 11981 0a43 77       		.byte	0x77
 11982 0a44 00       		.sleb128 0
 11983 0a45 1C       		.byte	0x1c
 11984 0a46 7A       		.byte	0x7a
 11985 0a47 00       		.sleb128 0
 11986 0a48 1E       		.byte	0x1e
 11987 0a49 79       		.byte	0x79
 11988 0a4a 00       		.sleb128 0
 11989 0a4b 78       		.byte	0x78
 11990 0a4c 00       		.sleb128 0
 11991 0a4d 1C       		.byte	0x1c
 11992 0a4e 71       		.byte	0x71
 11993 0a4f 00       		.sleb128 0
 11994 0a50 1E       		.byte	0x1e
 11995 0a51 22       		.byte	0x22
 11996 0a52 9F       		.byte	0x9f
 11997 0a53 B5000000 		.4byte	.LVL220-1
 11998 0a57 B8000000 		.4byte	.LVL221
 11999 0a5b 1A00     		.2byte	0x1a
 12000 0a5d 91       		.byte	0x91
 12001 0a5e BC7F     		.sleb128 -68
 12002 0a60 06       		.byte	0x6
 12003 0a61 77       		.byte	0x77
 12004 0a62 00       		.sleb128 0
 12005 0a63 1C       		.byte	0x1c
 12006 0a64 7A       		.byte	0x7a
 12007 0a65 00       		.sleb128 0
 12008 0a66 1E       		.byte	0x1e
 12009 0a67 79       		.byte	0x79
 12010 0a68 00       		.sleb128 0
 12011 0a69 78       		.byte	0x78
 12012 0a6a 00       		.sleb128 0
 12013 0a6b 1C       		.byte	0x1c
 12014 0a6c 7B       		.byte	0x7b
ARM GAS  C:\Users\USUARIO\AppData\Local\Temp\ccywmqVe.s 			page 228


 12015 0a6d 00       		.sleb128 0
 12016 0a6e 74       		.byte	0x74
 12017 0a6f 00       		.sleb128 0
 12018 0a70 22       		.byte	0x22
 12019 0a71 08       		.byte	0x8
 12020 0a72 FF       		.byte	0xff
 12021 0a73 1A       		.byte	0x1a
 12022 0a74 1E       		.byte	0x1e
 12023 0a75 22       		.byte	0x22
 12024 0a76 9F       		.byte	0x9f
 12025 0a77 B8000000 		.4byte	.LVL221
 12026 0a7b BA000000 		.4byte	.LVL222
 12027 0a7f 1C00     		.2byte	0x1c
 12028 0a81 91       		.byte	0x91
 12029 0a82 BC7F     		.sleb128 -68
 12030 0a84 06       		.byte	0x6
 12031 0a85 77       		.byte	0x77
 12032 0a86 00       		.sleb128 0
 12033 0a87 1C       		.byte	0x1c
 12034 0a88 7A       		.byte	0x7a
 12035 0a89 00       		.sleb128 0
 12036 0a8a 1E       		.byte	0x1e
 12037 0a8b 79       		.byte	0x79
 12038 0a8c 00       		.sleb128 0
 12039 0a8d 78       		.byte	0x78
 12040 0a8e 00       		.sleb128 0
 12041 0a8f 1C       		.byte	0x1c
 12042 0a90 74       		.byte	0x74
 12043 0a91 00       		.sleb128 0
 12044 0a92 7B       		.byte	0x7b
 12045 0a93 00       		.sleb128 0
 12046 0a94 22       		.byte	0x22
 12047 0a95 31       		.byte	0x31
 12048 0a96 1C       		.byte	0x1c
 12049 0a97 08       		.byte	0x8
 12050 0a98 FF       		.byte	0xff
 12051 0a99 1A       		.byte	0x1a
 12052 0a9a 1E       		.byte	0x1e
 12053 0a9b 22       		.byte	0x22
 12054 0a9c 9F       		.byte	0x9f
 12055 0a9d 00000000 		.4byte	0
 12056 0aa1 00000000 		.4byte	0
 12057              	.LLST51:
 12058 0aa5 1E010000 		.4byte	.LVL235
 12059 0aa9 22010000 		.4byte	.LVL236
 12060 0aad 0100     		.2byte	0x1
 12061 0aaf 53       		.byte	0x53
 12062 0ab0 22010000 		.4byte	.LVL236
 12063 0ab4 2E010000 		.4byte	.LVL237
 12064 0ab8 0F00     		.2byte	0xf
 12065 0aba 74       		.byte	0x74
 12066 0abb 00       		.sleb128 0
 12067 0abc 7B       		.byte	0x7b
 12068 0abd 00       		.sleb128 0
 12069 0abe 22       		.byte	0x22
 12070 0abf 79       		.byte	0x79
 12071 0ac0 00       		.sleb128 0
ARM GAS  C:\Users\USUARIO\AppData\Local\Temp\ccywmqVe.s 			page 229


 12072 0ac1 78       		.byte	0x78
 12073 0ac2 00       		.sleb128 0
 12074 0ac3 1C       		.byte	0x1c
 12075 0ac4 1E       		.byte	0x1e
 12076 0ac5 71       		.byte	0x71
 12077 0ac6 00       		.sleb128 0
 12078 0ac7 22       		.byte	0x22
 12079 0ac8 9F       		.byte	0x9f
 12080 0ac9 2E010000 		.4byte	.LVL237
 12081 0acd 36010000 		.4byte	.LVL239
 12082 0ad1 1700     		.2byte	0x17
 12083 0ad3 74       		.byte	0x74
 12084 0ad4 00       		.sleb128 0
 12085 0ad5 7B       		.byte	0x7b
 12086 0ad6 00       		.sleb128 0
 12087 0ad7 22       		.byte	0x22
 12088 0ad8 79       		.byte	0x79
 12089 0ad9 00       		.sleb128 0
 12090 0ada 78       		.byte	0x78
 12091 0adb 00       		.sleb128 0
 12092 0adc 1C       		.byte	0x1c
 12093 0add 1E       		.byte	0x1e
 12094 0ade 91       		.byte	0x91
 12095 0adf BC7F     		.sleb128 -68
 12096 0ae1 06       		.byte	0x6
 12097 0ae2 77       		.byte	0x77
 12098 0ae3 00       		.sleb128 0
 12099 0ae4 1C       		.byte	0x1c
 12100 0ae5 7A       		.byte	0x7a
 12101 0ae6 00       		.sleb128 0
 12102 0ae7 1E       		.byte	0x1e
 12103 0ae8 22       		.byte	0x22
 12104 0ae9 9F       		.byte	0x9f
 12105 0aea 36010000 		.4byte	.LVL239
 12106 0aee 38010000 		.4byte	.LVL240
 12107 0af2 1900     		.2byte	0x19
 12108 0af4 74       		.byte	0x74
 12109 0af5 00       		.sleb128 0
 12110 0af6 7B       		.byte	0x7b
 12111 0af7 00       		.sleb128 0
 12112 0af8 22       		.byte	0x22
 12113 0af9 31       		.byte	0x31
 12114 0afa 1C       		.byte	0x1c
 12115 0afb 79       		.byte	0x79
 12116 0afc 00       		.sleb128 0
 12117 0afd 78       		.byte	0x78
 12118 0afe 00       		.sleb128 0
 12119 0aff 1C       		.byte	0x1c
 12120 0b00 1E       		.byte	0x1e
 12121 0b01 91       		.byte	0x91
 12122 0b02 BC7F     		.sleb128 -68
 12123 0b04 06       		.byte	0x6
 12124 0b05 77       		.byte	0x77
 12125 0b06 00       		.sleb128 0
 12126 0b07 1C       		.byte	0x1c
 12127 0b08 7A       		.byte	0x7a
 12128 0b09 00       		.sleb128 0
ARM GAS  C:\Users\USUARIO\AppData\Local\Temp\ccywmqVe.s 			page 230


 12129 0b0a 1E       		.byte	0x1e
 12130 0b0b 22       		.byte	0x22
 12131 0b0c 9F       		.byte	0x9f
 12132 0b0d 00000000 		.4byte	0
 12133 0b11 00000000 		.4byte	0
 12134              	.LLST52:
 12135 0b15 00000000 		.4byte	.LVL243
 12136 0b19 16000000 		.4byte	.LVL245
 12137 0b1d 0100     		.2byte	0x1
 12138 0b1f 50       		.byte	0x50
 12139 0b20 16000000 		.4byte	.LVL245
 12140 0b24 24010000 		.4byte	.LFE75
 12141 0b28 0400     		.2byte	0x4
 12142 0b2a F3       		.byte	0xf3
 12143 0b2b 01       		.uleb128 0x1
 12144 0b2c 50       		.byte	0x50
 12145 0b2d 9F       		.byte	0x9f
 12146 0b2e 00000000 		.4byte	0
 12147 0b32 00000000 		.4byte	0
 12148              	.LLST53:
 12149 0b36 00000000 		.4byte	.LVL243
 12150 0b3a 16000000 		.4byte	.LVL245
 12151 0b3e 0100     		.2byte	0x1
 12152 0b40 51       		.byte	0x51
 12153 0b41 16000000 		.4byte	.LVL245
 12154 0b45 24010000 		.4byte	.LFE75
 12155 0b49 0400     		.2byte	0x4
 12156 0b4b F3       		.byte	0xf3
 12157 0b4c 01       		.uleb128 0x1
 12158 0b4d 51       		.byte	0x51
 12159 0b4e 9F       		.byte	0x9f
 12160 0b4f 00000000 		.4byte	0
 12161 0b53 00000000 		.4byte	0
 12162              	.LLST54:
 12163 0b57 00000000 		.4byte	.LVL243
 12164 0b5b 16000000 		.4byte	.LVL245
 12165 0b5f 0100     		.2byte	0x1
 12166 0b61 52       		.byte	0x52
 12167 0b62 16000000 		.4byte	.LVL245
 12168 0b66 24010000 		.4byte	.LFE75
 12169 0b6a 0400     		.2byte	0x4
 12170 0b6c F3       		.byte	0xf3
 12171 0b6d 01       		.uleb128 0x1
 12172 0b6e 52       		.byte	0x52
 12173 0b6f 9F       		.byte	0x9f
 12174 0b70 00000000 		.4byte	0
 12175 0b74 00000000 		.4byte	0
 12176              	.LLST55:
 12177 0b78 00000000 		.4byte	.LVL243
 12178 0b7c 16000000 		.4byte	.LVL245
 12179 0b80 0100     		.2byte	0x1
 12180 0b82 53       		.byte	0x53
 12181 0b83 16000000 		.4byte	.LVL245
 12182 0b87 24010000 		.4byte	.LFE75
 12183 0b8b 0400     		.2byte	0x4
 12184 0b8d F3       		.byte	0xf3
 12185 0b8e 01       		.uleb128 0x1
ARM GAS  C:\Users\USUARIO\AppData\Local\Temp\ccywmqVe.s 			page 231


 12186 0b8f 53       		.byte	0x53
 12187 0b90 9F       		.byte	0x9f
 12188 0b91 00000000 		.4byte	0
 12189 0b95 00000000 		.4byte	0
 12190              	.LLST56:
 12191 0b99 12000000 		.4byte	.LVL244
 12192 0b9d 16000000 		.4byte	.LVL245
 12193 0ba1 0200     		.2byte	0x2
 12194 0ba3 30       		.byte	0x30
 12195 0ba4 9F       		.byte	0x9f
 12196 0ba5 16000000 		.4byte	.LVL245
 12197 0ba9 12010000 		.4byte	.LVL258
 12198 0bad 0100     		.2byte	0x1
 12199 0baf 54       		.byte	0x54
 12200 0bb0 14010000 		.4byte	.LVL259
 12201 0bb4 24010000 		.4byte	.LFE75
 12202 0bb8 0100     		.2byte	0x1
 12203 0bba 54       		.byte	0x54
 12204 0bbb 00000000 		.4byte	0
 12205 0bbf 00000000 		.4byte	0
 12206              	.LLST57:
 12207 0bc3 12000000 		.4byte	.LVL244
 12208 0bc7 16010000 		.4byte	.LVL260
 12209 0bcb 0100     		.2byte	0x1
 12210 0bcd 55       		.byte	0x55
 12211 0bce 18010000 		.4byte	.LVL261
 12212 0bd2 24010000 		.4byte	.LFE75
 12213 0bd6 0100     		.2byte	0x1
 12214 0bd8 55       		.byte	0x55
 12215 0bd9 00000000 		.4byte	0
 12216 0bdd 00000000 		.4byte	0
 12217              	.LLST58:
 12218 0be1 12000000 		.4byte	.LVL244
 12219 0be5 16000000 		.4byte	.LVL245
 12220 0be9 0500     		.2byte	0x5
 12221 0beb 31       		.byte	0x31
 12222 0bec 75       		.byte	0x75
 12223 0bed 00       		.sleb128 0
 12224 0bee 1C       		.byte	0x1c
 12225 0bef 9F       		.byte	0x9f
 12226 0bf0 00000000 		.4byte	0
 12227 0bf4 00000000 		.4byte	0
 12228              	.LLST59:
 12229 0bf8 00000000 		.4byte	.LVL262
 12230 0bfc 14000000 		.4byte	.LVL263
 12231 0c00 0100     		.2byte	0x1
 12232 0c02 50       		.byte	0x50
 12233 0c03 14000000 		.4byte	.LVL263
 12234 0c07 80000000 		.4byte	.LVL266
 12235 0c0b 0100     		.2byte	0x1
 12236 0c0d 58       		.byte	0x58
 12237 0c0e 80000000 		.4byte	.LVL266
 12238 0c12 96000000 		.4byte	.LVL269
 12239 0c16 0200     		.2byte	0x2
 12240 0c18 30       		.byte	0x30
 12241 0c19 9F       		.byte	0x9f
 12242 0c1a 96000000 		.4byte	.LVL269
ARM GAS  C:\Users\USUARIO\AppData\Local\Temp\ccywmqVe.s 			page 232


 12243 0c1e F0000000 		.4byte	.LVL288
 12244 0c22 0100     		.2byte	0x1
 12245 0c24 58       		.byte	0x58
 12246 0c25 F4000000 		.4byte	.LVL289
 12247 0c29 0A010000 		.4byte	.LVL293
 12248 0c2d 0100     		.2byte	0x1
 12249 0c2f 58       		.byte	0x58
 12250 0c30 0E010000 		.4byte	.LVL294
 12251 0c34 1E010000 		.4byte	.LVL295
 12252 0c38 0100     		.2byte	0x1
 12253 0c3a 58       		.byte	0x58
 12254 0c3b 00000000 		.4byte	0
 12255 0c3f 00000000 		.4byte	0
 12256              	.LLST60:
 12257 0c43 00000000 		.4byte	.LVL262
 12258 0c47 14000000 		.4byte	.LVL263
 12259 0c4b 0100     		.2byte	0x1
 12260 0c4d 51       		.byte	0x51
 12261 0c4e 14000000 		.4byte	.LVL263
 12262 0c52 68000000 		.4byte	.LVL264
 12263 0c56 0100     		.2byte	0x1
 12264 0c58 59       		.byte	0x59
 12265 0c59 74000000 		.4byte	.LVL265
 12266 0c5d 86000000 		.4byte	.LVL267
 12267 0c61 0100     		.2byte	0x1
 12268 0c63 59       		.byte	0x59
 12269 0c64 92000000 		.4byte	.LVL268
 12270 0c68 1E010000 		.4byte	.LVL295
 12271 0c6c 0100     		.2byte	0x1
 12272 0c6e 59       		.byte	0x59
 12273 0c6f 00000000 		.4byte	0
 12274 0c73 00000000 		.4byte	0
 12275              	.LLST61:
 12276 0c77 00000000 		.4byte	.LVL262
 12277 0c7b 14000000 		.4byte	.LVL263
 12278 0c7f 0100     		.2byte	0x1
 12279 0c81 52       		.byte	0x52
 12280 0c82 14000000 		.4byte	.LVL263
 12281 0c86 06010000 		.4byte	.LVL292
 12282 0c8a 0200     		.2byte	0x2
 12283 0c8c 91       		.byte	0x91
 12284 0c8d 4C       		.sleb128 -52
 12285 0c8e 06010000 		.4byte	.LVL292
 12286 0c92 0E010000 		.4byte	.LVL294
 12287 0c96 0100     		.2byte	0x1
 12288 0c98 53       		.byte	0x53
 12289 0c99 0E010000 		.4byte	.LVL294
 12290 0c9d 1E010000 		.4byte	.LVL295
 12291 0ca1 0200     		.2byte	0x2
 12292 0ca3 91       		.byte	0x91
 12293 0ca4 4C       		.sleb128 -52
 12294 0ca5 1E010000 		.4byte	.LVL295
 12295 0ca9 28010000 		.4byte	.LFE76
 12296 0cad 0200     		.2byte	0x2
 12297 0caf 7D       		.byte	0x7d
 12298 0cb0 4C       		.sleb128 -52
 12299 0cb1 00000000 		.4byte	0
ARM GAS  C:\Users\USUARIO\AppData\Local\Temp\ccywmqVe.s 			page 233


 12300 0cb5 00000000 		.4byte	0
 12301              	.LLST62:
 12302 0cb9 00000000 		.4byte	.LVL262
 12303 0cbd 14000000 		.4byte	.LVL263
 12304 0cc1 0100     		.2byte	0x1
 12305 0cc3 53       		.byte	0x53
 12306 0cc4 14000000 		.4byte	.LVL263
 12307 0cc8 28010000 		.4byte	.LFE76
 12308 0ccc 0400     		.2byte	0x4
 12309 0cce F3       		.byte	0xf3
 12310 0ccf 01       		.uleb128 0x1
 12311 0cd0 53       		.byte	0x53
 12312 0cd1 9F       		.byte	0x9f
 12313 0cd2 00000000 		.4byte	0
 12314 0cd6 00000000 		.4byte	0
 12315              	.LLST63:
 12316 0cda 00000000 		.4byte	.LVL262
 12317 0cde 1E010000 		.4byte	.LVL295
 12318 0ce2 0200     		.2byte	0x2
 12319 0ce4 91       		.byte	0x91
 12320 0ce5 00       		.sleb128 0
 12321 0ce6 1E010000 		.4byte	.LVL295
 12322 0cea 28010000 		.4byte	.LFE76
 12323 0cee 0200     		.2byte	0x2
 12324 0cf0 7D       		.byte	0x7d
 12325 0cf1 00       		.sleb128 0
 12326 0cf2 00000000 		.4byte	0
 12327 0cf6 00000000 		.4byte	0
 12328              	.LLST64:
 12329 0cfa 96000000 		.4byte	.LVL269
 12330 0cfe 9C000000 		.4byte	.LVL270
 12331 0d02 0200     		.2byte	0x2
 12332 0d04 30       		.byte	0x30
 12333 0d05 9F       		.byte	0x9f
 12334 0d06 9C000000 		.4byte	.LVL270
 12335 0d0a EA000000 		.4byte	.LVL286
 12336 0d0e 0100     		.2byte	0x1
 12337 0d10 5B       		.byte	0x5b
 12338 0d11 EE000000 		.4byte	.LVL287
 12339 0d15 FC000000 		.4byte	.LVL290
 12340 0d19 0100     		.2byte	0x1
 12341 0d1b 5B       		.byte	0x5b
 12342 0d1c 00000000 		.4byte	0
 12343 0d20 00000000 		.4byte	0
 12344              	.LLST65:
 12345 0d24 9C000000 		.4byte	.LVL270
 12346 0d28 DC000000 		.4byte	.LVL282
 12347 0d2c 0100     		.2byte	0x1
 12348 0d2e 57       		.byte	0x57
 12349 0d2f DE000000 		.4byte	.LVL283
 12350 0d33 E0000000 		.4byte	.LVL284
 12351 0d37 0100     		.2byte	0x1
 12352 0d39 57       		.byte	0x57
 12353 0d3a E2000000 		.4byte	.LVL285
 12354 0d3e F4000000 		.4byte	.LVL289
 12355 0d42 0100     		.2byte	0x1
 12356 0d44 57       		.byte	0x57
ARM GAS  C:\Users\USUARIO\AppData\Local\Temp\ccywmqVe.s 			page 234


 12357 0d45 00000000 		.4byte	0
 12358 0d49 00000000 		.4byte	0
 12359              	.LLST66:
 12360 0d4d AE000000 		.4byte	.LVL271
 12361 0d51 D0000000 		.4byte	.LVL277
 12362 0d55 0100     		.2byte	0x1
 12363 0d57 56       		.byte	0x56
 12364 0d58 D2000000 		.4byte	.LVL278
 12365 0d5c D4000000 		.4byte	.LVL279
 12366 0d60 0100     		.2byte	0x1
 12367 0d62 56       		.byte	0x56
 12368 0d63 D6000000 		.4byte	.LVL280
 12369 0d67 DA000000 		.4byte	.LVL281
 12370 0d6b 0100     		.2byte	0x1
 12371 0d6d 56       		.byte	0x56
 12372 0d6e 00000000 		.4byte	0
 12373 0d72 00000000 		.4byte	0
 12374              	.LLST67:
 12375 0d76 AE000000 		.4byte	.LVL271
 12376 0d7a C4000000 		.4byte	.LVL273
 12377 0d7e 0100     		.2byte	0x1
 12378 0d80 54       		.byte	0x54
 12379 0d81 C6000000 		.4byte	.LVL274
 12380 0d85 C8000000 		.4byte	.LVL275
 12381 0d89 0100     		.2byte	0x1
 12382 0d8b 54       		.byte	0x54
 12383 0d8c CA000000 		.4byte	.LVL276
 12384 0d90 D4000000 		.4byte	.LVL279
 12385 0d94 0100     		.2byte	0x1
 12386 0d96 54       		.byte	0x54
 12387 0d97 00000000 		.4byte	0
 12388 0d9b 00000000 		.4byte	0
 12389              	.LLST68:
 12390 0d9f 00000000 		.4byte	.LVL296
 12391 0da3 14000000 		.4byte	.LVL298
 12392 0da7 0100     		.2byte	0x1
 12393 0da9 50       		.byte	0x50
 12394 0daa 14000000 		.4byte	.LVL298
 12395 0dae 17000000 		.4byte	.LVL299-1
 12396 0db2 0100     		.2byte	0x1
 12397 0db4 51       		.byte	0x51
 12398 0db5 17000000 		.4byte	.LVL299-1
 12399 0db9 B4000000 		.4byte	.LFE77
 12400 0dbd 0400     		.2byte	0x4
 12401 0dbf F3       		.byte	0xf3
 12402 0dc0 01       		.uleb128 0x1
 12403 0dc1 50       		.byte	0x50
 12404 0dc2 9F       		.byte	0x9f
 12405 0dc3 00000000 		.4byte	0
 12406 0dc7 00000000 		.4byte	0
 12407              	.LLST69:
 12408 0dcb 00000000 		.4byte	.LVL296
 12409 0dcf 12000000 		.4byte	.LVL297
 12410 0dd3 0100     		.2byte	0x1
 12411 0dd5 51       		.byte	0x51
 12412 0dd6 12000000 		.4byte	.LVL297
 12413 0dda B4000000 		.4byte	.LFE77
ARM GAS  C:\Users\USUARIO\AppData\Local\Temp\ccywmqVe.s 			page 235


 12414 0dde 0400     		.2byte	0x4
 12415 0de0 F3       		.byte	0xf3
 12416 0de1 01       		.uleb128 0x1
 12417 0de2 51       		.byte	0x51
 12418 0de3 9F       		.byte	0x9f
 12419 0de4 00000000 		.4byte	0
 12420 0de8 00000000 		.4byte	0
 12421              	.LLST70:
 12422 0dec 00000000 		.4byte	.LVL296
 12423 0df0 17000000 		.4byte	.LVL299-1
 12424 0df4 0100     		.2byte	0x1
 12425 0df6 52       		.byte	0x52
 12426 0df7 17000000 		.4byte	.LVL299-1
 12427 0dfb B4000000 		.4byte	.LFE77
 12428 0dff 0400     		.2byte	0x4
 12429 0e01 F3       		.byte	0xf3
 12430 0e02 01       		.uleb128 0x1
 12431 0e03 52       		.byte	0x52
 12432 0e04 9F       		.byte	0x9f
 12433 0e05 00000000 		.4byte	0
 12434 0e09 00000000 		.4byte	0
 12435              	.LLST71:
 12436 0e0d 00000000 		.4byte	.LVL296
 12437 0e11 17000000 		.4byte	.LVL299-1
 12438 0e15 0100     		.2byte	0x1
 12439 0e17 53       		.byte	0x53
 12440 0e18 17000000 		.4byte	.LVL299-1
 12441 0e1c B4000000 		.4byte	.LFE77
 12442 0e20 0400     		.2byte	0x4
 12443 0e22 F3       		.byte	0xf3
 12444 0e23 01       		.uleb128 0x1
 12445 0e24 53       		.byte	0x53
 12446 0e25 9F       		.byte	0x9f
 12447 0e26 00000000 		.4byte	0
 12448 0e2a 00000000 		.4byte	0
 12449              	.LLST72:
 12450 0e2e 00000000 		.4byte	.LVL296
 12451 0e32 B0000000 		.4byte	.LVL307
 12452 0e36 0200     		.2byte	0x2
 12453 0e38 91       		.byte	0x91
 12454 0e39 00       		.sleb128 0
 12455 0e3a B0000000 		.4byte	.LVL307
 12456 0e3e B4000000 		.4byte	.LFE77
 12457 0e42 0200     		.2byte	0x2
 12458 0e44 7D       		.byte	0x7d
 12459 0e45 00       		.sleb128 0
 12460 0e46 00000000 		.4byte	0
 12461 0e4a 00000000 		.4byte	0
 12462              	.LLST73:
 12463 0e4e 00000000 		.4byte	.LVL308
 12464 0e52 20000000 		.4byte	.LVL311
 12465 0e56 0100     		.2byte	0x1
 12466 0e58 50       		.byte	0x50
 12467 0e59 20000000 		.4byte	.LVL311
 12468 0e5d 24020000 		.4byte	.LVL337
 12469 0e61 0300     		.2byte	0x3
 12470 0e63 91       		.byte	0x91
ARM GAS  C:\Users\USUARIO\AppData\Local\Temp\ccywmqVe.s 			page 236


 12471 0e64 BC7F     		.sleb128 -68
 12472 0e66 24020000 		.4byte	.LVL337
 12473 0e6a 34020000 		.4byte	.LFE78
 12474 0e6e 0300     		.2byte	0x3
 12475 0e70 7D       		.byte	0x7d
 12476 0e71 BC7F     		.sleb128 -68
 12477 0e73 00000000 		.4byte	0
 12478 0e77 00000000 		.4byte	0
 12479              	.LLST74:
 12480 0e7b 00000000 		.4byte	.LVL308
 12481 0e7f 1E000000 		.4byte	.LVL310
 12482 0e83 0100     		.2byte	0x1
 12483 0e85 51       		.byte	0x51
 12484 0e86 1E000000 		.4byte	.LVL310
 12485 0e8a 34020000 		.4byte	.LFE78
 12486 0e8e 0400     		.2byte	0x4
 12487 0e90 F3       		.byte	0xf3
 12488 0e91 01       		.uleb128 0x1
 12489 0e92 51       		.byte	0x51
 12490 0e93 9F       		.byte	0x9f
 12491 0e94 00000000 		.4byte	0
 12492 0e98 00000000 		.4byte	0
 12493              	.LLST75:
 12494 0e9c 00000000 		.4byte	.LVL308
 12495 0ea0 1C000000 		.4byte	.LVL309
 12496 0ea4 0100     		.2byte	0x1
 12497 0ea6 52       		.byte	0x52
 12498 0ea7 1C000000 		.4byte	.LVL309
 12499 0eab 34020000 		.4byte	.LFE78
 12500 0eaf 0400     		.2byte	0x4
 12501 0eb1 F3       		.byte	0xf3
 12502 0eb2 01       		.uleb128 0x1
 12503 0eb3 52       		.byte	0x52
 12504 0eb4 9F       		.byte	0x9f
 12505 0eb5 00000000 		.4byte	0
 12506 0eb9 00000000 		.4byte	0
 12507              	.LLST76:
 12508 0ebd 00000000 		.4byte	.LVL308
 12509 0ec1 23000000 		.4byte	.LVL312-1
 12510 0ec5 0100     		.2byte	0x1
 12511 0ec7 53       		.byte	0x53
 12512 0ec8 23000000 		.4byte	.LVL312-1
 12513 0ecc 34020000 		.4byte	.LFE78
 12514 0ed0 0400     		.2byte	0x4
 12515 0ed2 F3       		.byte	0xf3
 12516 0ed3 01       		.uleb128 0x1
 12517 0ed4 53       		.byte	0x53
 12518 0ed5 9F       		.byte	0x9f
 12519 0ed6 00000000 		.4byte	0
 12520 0eda 00000000 		.4byte	0
 12521              	.LLST77:
 12522 0ede 00000000 		.4byte	.LVL308
 12523 0ee2 24020000 		.4byte	.LVL337
 12524 0ee6 0200     		.2byte	0x2
 12525 0ee8 91       		.byte	0x91
 12526 0ee9 00       		.sleb128 0
 12527 0eea 24020000 		.4byte	.LVL337
ARM GAS  C:\Users\USUARIO\AppData\Local\Temp\ccywmqVe.s 			page 237


 12528 0eee 34020000 		.4byte	.LFE78
 12529 0ef2 0200     		.2byte	0x2
 12530 0ef4 7D       		.byte	0x7d
 12531 0ef5 00       		.sleb128 0
 12532 0ef6 00000000 		.4byte	0
 12533 0efa 00000000 		.4byte	0
 12534              	.LLST78:
 12535 0efe 00000000 		.4byte	.LVL308
 12536 0f02 24020000 		.4byte	.LVL337
 12537 0f06 0200     		.2byte	0x2
 12538 0f08 91       		.byte	0x91
 12539 0f09 04       		.sleb128 4
 12540 0f0a 24020000 		.4byte	.LVL337
 12541 0f0e 34020000 		.4byte	.LFE78
 12542 0f12 0200     		.2byte	0x2
 12543 0f14 7D       		.byte	0x7d
 12544 0f15 04       		.sleb128 4
 12545 0f16 00000000 		.4byte	0
 12546 0f1a 00000000 		.4byte	0
 12547              	.LLST79:
 12548 0f1e 00000000 		.4byte	.LVL338
 12549 0f22 1A000000 		.4byte	.LVL341
 12550 0f26 0100     		.2byte	0x1
 12551 0f28 50       		.byte	0x50
 12552 0f29 1A000000 		.4byte	.LVL341
 12553 0f2d 54000000 		.4byte	.LVL345
 12554 0f31 0400     		.2byte	0x4
 12555 0f33 F3       		.byte	0xf3
 12556 0f34 01       		.uleb128 0x1
 12557 0f35 50       		.byte	0x50
 12558 0f36 9F       		.byte	0x9f
 12559 0f37 54000000 		.4byte	.LVL345
 12560 0f3b 60000000 		.4byte	.LVL348
 12561 0f3f 0100     		.2byte	0x1
 12562 0f41 50       		.byte	0x50
 12563 0f42 60000000 		.4byte	.LVL348
 12564 0f46 2C010000 		.4byte	.LFE79
 12565 0f4a 0400     		.2byte	0x4
 12566 0f4c F3       		.byte	0xf3
 12567 0f4d 01       		.uleb128 0x1
 12568 0f4e 50       		.byte	0x50
 12569 0f4f 9F       		.byte	0x9f
 12570 0f50 00000000 		.4byte	0
 12571 0f54 00000000 		.4byte	0
 12572              	.LLST80:
 12573 0f58 00000000 		.4byte	.LVL338
 12574 0f5c 18000000 		.4byte	.LVL340
 12575 0f60 0100     		.2byte	0x1
 12576 0f62 51       		.byte	0x51
 12577 0f63 18000000 		.4byte	.LVL340
 12578 0f67 54000000 		.4byte	.LVL345
 12579 0f6b 0400     		.2byte	0x4
 12580 0f6d F3       		.byte	0xf3
 12581 0f6e 01       		.uleb128 0x1
 12582 0f6f 51       		.byte	0x51
 12583 0f70 9F       		.byte	0x9f
 12584 0f71 54000000 		.4byte	.LVL345
ARM GAS  C:\Users\USUARIO\AppData\Local\Temp\ccywmqVe.s 			page 238


 12585 0f75 5E000000 		.4byte	.LVL347
 12586 0f79 0100     		.2byte	0x1
 12587 0f7b 51       		.byte	0x51
 12588 0f7c 5E000000 		.4byte	.LVL347
 12589 0f80 2C010000 		.4byte	.LFE79
 12590 0f84 0400     		.2byte	0x4
 12591 0f86 F3       		.byte	0xf3
 12592 0f87 01       		.uleb128 0x1
 12593 0f88 51       		.byte	0x51
 12594 0f89 9F       		.byte	0x9f
 12595 0f8a 00000000 		.4byte	0
 12596 0f8e 00000000 		.4byte	0
 12597              	.LLST81:
 12598 0f92 00000000 		.4byte	.LVL338
 12599 0f96 16000000 		.4byte	.LVL339
 12600 0f9a 0100     		.2byte	0x1
 12601 0f9c 52       		.byte	0x52
 12602 0f9d 16000000 		.4byte	.LVL339
 12603 0fa1 54000000 		.4byte	.LVL345
 12604 0fa5 0400     		.2byte	0x4
 12605 0fa7 F3       		.byte	0xf3
 12606 0fa8 01       		.uleb128 0x1
 12607 0fa9 52       		.byte	0x52
 12608 0faa 9F       		.byte	0x9f
 12609 0fab 54000000 		.4byte	.LVL345
 12610 0faf 5C000000 		.4byte	.LVL346
 12611 0fb3 0100     		.2byte	0x1
 12612 0fb5 52       		.byte	0x52
 12613 0fb6 5C000000 		.4byte	.LVL346
 12614 0fba 2C010000 		.4byte	.LFE79
 12615 0fbe 0400     		.2byte	0x4
 12616 0fc0 F3       		.byte	0xf3
 12617 0fc1 01       		.uleb128 0x1
 12618 0fc2 52       		.byte	0x52
 12619 0fc3 9F       		.byte	0x9f
 12620 0fc4 00000000 		.4byte	0
 12621 0fc8 00000000 		.4byte	0
 12622              	.LLST82:
 12623 0fcc 00000000 		.4byte	.LVL338
 12624 0fd0 1D000000 		.4byte	.LVL342-1
 12625 0fd4 0100     		.2byte	0x1
 12626 0fd6 53       		.byte	0x53
 12627 0fd7 1D000000 		.4byte	.LVL342-1
 12628 0fdb 54000000 		.4byte	.LVL345
 12629 0fdf 0400     		.2byte	0x4
 12630 0fe1 F3       		.byte	0xf3
 12631 0fe2 01       		.uleb128 0x1
 12632 0fe3 53       		.byte	0x53
 12633 0fe4 9F       		.byte	0x9f
 12634 0fe5 54000000 		.4byte	.LVL345
 12635 0fe9 63000000 		.4byte	.LVL349-1
 12636 0fed 0100     		.2byte	0x1
 12637 0fef 53       		.byte	0x53
 12638 0ff0 63000000 		.4byte	.LVL349-1
 12639 0ff4 2C010000 		.4byte	.LFE79
 12640 0ff8 0400     		.2byte	0x4
 12641 0ffa F3       		.byte	0xf3
ARM GAS  C:\Users\USUARIO\AppData\Local\Temp\ccywmqVe.s 			page 239


 12642 0ffb 01       		.uleb128 0x1
 12643 0ffc 53       		.byte	0x53
 12644 0ffd 9F       		.byte	0x9f
 12645 0ffe 00000000 		.4byte	0
 12646 1002 00000000 		.4byte	0
 12647              	.LLST83:
 12648 1006 00000000 		.4byte	.LVL338
 12649 100a 24010000 		.4byte	.LVL358
 12650 100e 0200     		.2byte	0x2
 12651 1010 91       		.byte	0x91
 12652 1011 00       		.sleb128 0
 12653 1012 24010000 		.4byte	.LVL358
 12654 1016 2C010000 		.4byte	.LFE79
 12655 101a 0200     		.2byte	0x2
 12656 101c 7D       		.byte	0x7d
 12657 101d 00       		.sleb128 0
 12658 101e 00000000 		.4byte	0
 12659 1022 00000000 		.4byte	0
 12660              	.LLST84:
 12661 1026 00000000 		.4byte	.LVL359
 12662 102a 18000000 		.4byte	.LVL362
 12663 102e 0100     		.2byte	0x1
 12664 1030 50       		.byte	0x50
 12665 1031 18000000 		.4byte	.LVL362
 12666 1035 52000000 		.4byte	.LVL366
 12667 1039 0400     		.2byte	0x4
 12668 103b F3       		.byte	0xf3
 12669 103c 01       		.uleb128 0x1
 12670 103d 50       		.byte	0x50
 12671 103e 9F       		.byte	0x9f
 12672 103f 52000000 		.4byte	.LVL366
 12673 1043 5A000000 		.4byte	.LVL369
 12674 1047 0100     		.2byte	0x1
 12675 1049 50       		.byte	0x50
 12676 104a 5A000000 		.4byte	.LVL369
 12677 104e 18010000 		.4byte	.LFE80
 12678 1052 0400     		.2byte	0x4
 12679 1054 F3       		.byte	0xf3
 12680 1055 01       		.uleb128 0x1
 12681 1056 50       		.byte	0x50
 12682 1057 9F       		.byte	0x9f
 12683 1058 00000000 		.4byte	0
 12684 105c 00000000 		.4byte	0
 12685              	.LLST85:
 12686 1060 00000000 		.4byte	.LVL359
 12687 1064 16000000 		.4byte	.LVL361
 12688 1068 0100     		.2byte	0x1
 12689 106a 51       		.byte	0x51
 12690 106b 16000000 		.4byte	.LVL361
 12691 106f 52000000 		.4byte	.LVL366
 12692 1073 0400     		.2byte	0x4
 12693 1075 F3       		.byte	0xf3
 12694 1076 01       		.uleb128 0x1
 12695 1077 51       		.byte	0x51
 12696 1078 9F       		.byte	0x9f
 12697 1079 52000000 		.4byte	.LVL366
 12698 107d 58000000 		.4byte	.LVL368
ARM GAS  C:\Users\USUARIO\AppData\Local\Temp\ccywmqVe.s 			page 240


 12699 1081 0100     		.2byte	0x1
 12700 1083 51       		.byte	0x51
 12701 1084 58000000 		.4byte	.LVL368
 12702 1088 18010000 		.4byte	.LFE80
 12703 108c 0400     		.2byte	0x4
 12704 108e F3       		.byte	0xf3
 12705 108f 01       		.uleb128 0x1
 12706 1090 51       		.byte	0x51
 12707 1091 9F       		.byte	0x9f
 12708 1092 00000000 		.4byte	0
 12709 1096 00000000 		.4byte	0
 12710              	.LLST86:
 12711 109a 00000000 		.4byte	.LVL359
 12712 109e 14000000 		.4byte	.LVL360
 12713 10a2 0100     		.2byte	0x1
 12714 10a4 52       		.byte	0x52
 12715 10a5 14000000 		.4byte	.LVL360
 12716 10a9 52000000 		.4byte	.LVL366
 12717 10ad 0400     		.2byte	0x4
 12718 10af F3       		.byte	0xf3
 12719 10b0 01       		.uleb128 0x1
 12720 10b1 52       		.byte	0x52
 12721 10b2 9F       		.byte	0x9f
 12722 10b3 52000000 		.4byte	.LVL366
 12723 10b7 56000000 		.4byte	.LVL367
 12724 10bb 0100     		.2byte	0x1
 12725 10bd 52       		.byte	0x52
 12726 10be 56000000 		.4byte	.LVL367
 12727 10c2 18010000 		.4byte	.LFE80
 12728 10c6 0400     		.2byte	0x4
 12729 10c8 F3       		.byte	0xf3
 12730 10c9 01       		.uleb128 0x1
 12731 10ca 52       		.byte	0x52
 12732 10cb 9F       		.byte	0x9f
 12733 10cc 00000000 		.4byte	0
 12734 10d0 00000000 		.4byte	0
 12735              	.LLST87:
 12736 10d4 00000000 		.4byte	.LVL359
 12737 10d8 1B000000 		.4byte	.LVL363-1
 12738 10dc 0100     		.2byte	0x1
 12739 10de 53       		.byte	0x53
 12740 10df 1B000000 		.4byte	.LVL363-1
 12741 10e3 52000000 		.4byte	.LVL366
 12742 10e7 0400     		.2byte	0x4
 12743 10e9 F3       		.byte	0xf3
 12744 10ea 01       		.uleb128 0x1
 12745 10eb 53       		.byte	0x53
 12746 10ec 9F       		.byte	0x9f
 12747 10ed 52000000 		.4byte	.LVL366
 12748 10f1 5D000000 		.4byte	.LVL370-1
 12749 10f5 0100     		.2byte	0x1
 12750 10f7 53       		.byte	0x53
 12751 10f8 5D000000 		.4byte	.LVL370-1
 12752 10fc 18010000 		.4byte	.LFE80
 12753 1100 0400     		.2byte	0x4
 12754 1102 F3       		.byte	0xf3
 12755 1103 01       		.uleb128 0x1
ARM GAS  C:\Users\USUARIO\AppData\Local\Temp\ccywmqVe.s 			page 241


 12756 1104 53       		.byte	0x53
 12757 1105 9F       		.byte	0x9f
 12758 1106 00000000 		.4byte	0
 12759 110a 00000000 		.4byte	0
 12760              	.LLST88:
 12761 110e 00000000 		.4byte	.LVL359
 12762 1112 14010000 		.4byte	.LVL378
 12763 1116 0200     		.2byte	0x2
 12764 1118 91       		.byte	0x91
 12765 1119 00       		.sleb128 0
 12766 111a 14010000 		.4byte	.LVL378
 12767 111e 18010000 		.4byte	.LFE80
 12768 1122 0200     		.2byte	0x2
 12769 1124 7D       		.byte	0x7d
 12770 1125 00       		.sleb128 0
 12771 1126 00000000 		.4byte	0
 12772 112a 00000000 		.4byte	0
 12773              	.LLST89:
 12774 112e 00000000 		.4byte	.LVL379
 12775 1132 08000000 		.4byte	.LVL380
 12776 1136 0100     		.2byte	0x1
 12777 1138 50       		.byte	0x50
 12778 1139 08000000 		.4byte	.LVL380
 12779 113d 4C000000 		.4byte	.LVL392
 12780 1141 0400     		.2byte	0x4
 12781 1143 F3       		.byte	0xf3
 12782 1144 01       		.uleb128 0x1
 12783 1145 50       		.byte	0x50
 12784 1146 9F       		.byte	0x9f
 12785 1147 4C000000 		.4byte	.LVL392
 12786 114b 4E000000 		.4byte	.LVL393
 12787 114f 0100     		.2byte	0x1
 12788 1151 50       		.byte	0x50
 12789 1152 4E000000 		.4byte	.LVL393
 12790 1156 5C000000 		.4byte	.LFE81
 12791 115a 0400     		.2byte	0x4
 12792 115c F3       		.byte	0xf3
 12793 115d 01       		.uleb128 0x1
 12794 115e 50       		.byte	0x50
 12795 115f 9F       		.byte	0x9f
 12796 1160 00000000 		.4byte	0
 12797 1164 00000000 		.4byte	0
 12798              	.LLST90:
 12799 1168 08000000 		.4byte	.LVL380
 12800 116c 48000000 		.4byte	.LVL390
 12801 1170 0100     		.2byte	0x1
 12802 1172 56       		.byte	0x56
 12803 1173 4A000000 		.4byte	.LVL391
 12804 1177 4C000000 		.4byte	.LVL392
 12805 117b 0100     		.2byte	0x1
 12806 117d 56       		.byte	0x56
 12807 117e 4E000000 		.4byte	.LVL393
 12808 1182 52000000 		.4byte	.LVL394
 12809 1186 0100     		.2byte	0x1
 12810 1188 56       		.byte	0x56
 12811 1189 00000000 		.4byte	0
 12812 118d 00000000 		.4byte	0
ARM GAS  C:\Users\USUARIO\AppData\Local\Temp\ccywmqVe.s 			page 242


 12813              	.LLST91:
 12814 1191 08000000 		.4byte	.LVL380
 12815 1195 3C000000 		.4byte	.LVL386
 12816 1199 0100     		.2byte	0x1
 12817 119b 55       		.byte	0x55
 12818 119c 3E000000 		.4byte	.LVL387
 12819 11a0 40000000 		.4byte	.LVL388
 12820 11a4 0100     		.2byte	0x1
 12821 11a6 55       		.byte	0x55
 12822 11a7 42000000 		.4byte	.LVL389
 12823 11ab 4C000000 		.4byte	.LVL392
 12824 11af 0100     		.2byte	0x1
 12825 11b1 55       		.byte	0x55
 12826 11b2 00000000 		.4byte	0
 12827 11b6 00000000 		.4byte	0
 12828              	.LLST92:
 12829 11ba 08000000 		.4byte	.LVL380
 12830 11be 30000000 		.4byte	.LVL382
 12831 11c2 0100     		.2byte	0x1
 12832 11c4 54       		.byte	0x54
 12833 11c5 32000000 		.4byte	.LVL383
 12834 11c9 34000000 		.4byte	.LVL384
 12835 11cd 0100     		.2byte	0x1
 12836 11cf 54       		.byte	0x54
 12837 11d0 36000000 		.4byte	.LVL385
 12838 11d4 40000000 		.4byte	.LVL388
 12839 11d8 0100     		.2byte	0x1
 12840 11da 54       		.byte	0x54
 12841 11db 00000000 		.4byte	0
 12842 11df 00000000 		.4byte	0
 12843              	.LLST93:
 12844 11e3 00000000 		.4byte	.LVL396
 12845 11e7 19000000 		.4byte	.LVL399-1
 12846 11eb 0100     		.2byte	0x1
 12847 11ed 50       		.byte	0x50
 12848 11ee 19000000 		.4byte	.LVL399-1
 12849 11f2 1E000000 		.4byte	.LFE82
 12850 11f6 0400     		.2byte	0x4
 12851 11f8 F3       		.byte	0xf3
 12852 11f9 01       		.uleb128 0x1
 12853 11fa 50       		.byte	0x50
 12854 11fb 9F       		.byte	0x9f
 12855 11fc 00000000 		.4byte	0
 12856 1200 00000000 		.4byte	0
 12857              	.LLST94:
 12858 1204 00000000 		.4byte	.LVL396
 12859 1208 16000000 		.4byte	.LVL398
 12860 120c 0100     		.2byte	0x1
 12861 120e 51       		.byte	0x51
 12862 120f 16000000 		.4byte	.LVL398
 12863 1213 1E000000 		.4byte	.LFE82
 12864 1217 0400     		.2byte	0x4
 12865 1219 F3       		.byte	0xf3
 12866 121a 01       		.uleb128 0x1
 12867 121b 51       		.byte	0x51
 12868 121c 9F       		.byte	0x9f
 12869 121d 00000000 		.4byte	0
ARM GAS  C:\Users\USUARIO\AppData\Local\Temp\ccywmqVe.s 			page 243


 12870 1221 00000000 		.4byte	0
 12871              	.LLST95:
 12872 1225 00000000 		.4byte	.LVL396
 12873 1229 0A000000 		.4byte	.LVL397
 12874 122d 0100     		.2byte	0x1
 12875 122f 52       		.byte	0x52
 12876 1230 0A000000 		.4byte	.LVL397
 12877 1234 1E000000 		.4byte	.LFE82
 12878 1238 0400     		.2byte	0x4
 12879 123a F3       		.byte	0xf3
 12880 123b 01       		.uleb128 0x1
 12881 123c 52       		.byte	0x52
 12882 123d 9F       		.byte	0x9f
 12883 123e 00000000 		.4byte	0
 12884 1242 00000000 		.4byte	0
 12885              	.LLST96:
 12886 1246 00000000 		.4byte	.LVL400
 12887 124a 10000000 		.4byte	.LVL403
 12888 124e 0100     		.2byte	0x1
 12889 1250 50       		.byte	0x50
 12890 1251 10000000 		.4byte	.LVL403
 12891 1255 4C000000 		.4byte	.LFE83
 12892 1259 0400     		.2byte	0x4
 12893 125b F3       		.byte	0xf3
 12894 125c 01       		.uleb128 0x1
 12895 125d 50       		.byte	0x50
 12896 125e 9F       		.byte	0x9f
 12897 125f 00000000 		.4byte	0
 12898 1263 00000000 		.4byte	0
 12899              	.LLST97:
 12900 1267 00000000 		.4byte	.LVL400
 12901 126b 0E000000 		.4byte	.LVL402
 12902 126f 0100     		.2byte	0x1
 12903 1271 51       		.byte	0x51
 12904 1272 0E000000 		.4byte	.LVL402
 12905 1276 4C000000 		.4byte	.LFE83
 12906 127a 0400     		.2byte	0x4
 12907 127c F3       		.byte	0xf3
 12908 127d 01       		.uleb128 0x1
 12909 127e 51       		.byte	0x51
 12910 127f 9F       		.byte	0x9f
 12911 1280 00000000 		.4byte	0
 12912 1284 00000000 		.4byte	0
 12913              	.LLST98:
 12914 1288 00000000 		.4byte	.LVL400
 12915 128c 0C000000 		.4byte	.LVL401
 12916 1290 0100     		.2byte	0x1
 12917 1292 52       		.byte	0x52
 12918 1293 0C000000 		.4byte	.LVL401
 12919 1297 4C000000 		.4byte	.LFE83
 12920 129b 0400     		.2byte	0x4
 12921 129d F3       		.byte	0xf3
 12922 129e 01       		.uleb128 0x1
 12923 129f 52       		.byte	0x52
 12924 12a0 9F       		.byte	0x9f
 12925 12a1 00000000 		.4byte	0
 12926 12a5 00000000 		.4byte	0
ARM GAS  C:\Users\USUARIO\AppData\Local\Temp\ccywmqVe.s 			page 244


 12927              	.LLST99:
 12928 12a9 00000000 		.4byte	.LVL400
 12929 12ad 13000000 		.4byte	.LVL404-1
 12930 12b1 0100     		.2byte	0x1
 12931 12b3 53       		.byte	0x53
 12932 12b4 13000000 		.4byte	.LVL404-1
 12933 12b8 4C000000 		.4byte	.LFE83
 12934 12bc 0400     		.2byte	0x4
 12935 12be F3       		.byte	0xf3
 12936 12bf 01       		.uleb128 0x1
 12937 12c0 53       		.byte	0x53
 12938 12c1 9F       		.byte	0x9f
 12939 12c2 00000000 		.4byte	0
 12940 12c6 00000000 		.4byte	0
 12941              	.LLST100:
 12942 12ca 00000000 		.4byte	.LVL407
 12943 12ce 0D000000 		.4byte	.LVL408-1
 12944 12d2 0100     		.2byte	0x1
 12945 12d4 50       		.byte	0x50
 12946 12d5 0D000000 		.4byte	.LVL408-1
 12947 12d9 54000000 		.4byte	.LFE84
 12948 12dd 0600     		.2byte	0x6
 12949 12df F3       		.byte	0xf3
 12950 12e0 03       		.uleb128 0x3
 12951 12e1 F5       		.byte	0xf5
 12952 12e2 00       		.uleb128 0
 12953 12e3 25       		.uleb128 0x25
 12954 12e4 9F       		.byte	0x9f
 12955 12e5 00000000 		.4byte	0
 12956 12e9 00000000 		.4byte	0
 12957              	.LLST101:
 12958 12ed 00000000 		.4byte	.LVL407
 12959 12f1 0D000000 		.4byte	.LVL408-1
 12960 12f5 0100     		.2byte	0x1
 12961 12f7 51       		.byte	0x51
 12962 12f8 0D000000 		.4byte	.LVL408-1
 12963 12fc 54000000 		.4byte	.LFE84
 12964 1300 0400     		.2byte	0x4
 12965 1302 F3       		.byte	0xf3
 12966 1303 01       		.uleb128 0x1
 12967 1304 51       		.byte	0x51
 12968 1305 9F       		.byte	0x9f
 12969 1306 00000000 		.4byte	0
 12970 130a 00000000 		.4byte	0
 12971              	.LLST102:
 12972 130e 00000000 		.4byte	.LVL407
 12973 1312 0D000000 		.4byte	.LVL408-1
 12974 1316 0100     		.2byte	0x1
 12975 1318 52       		.byte	0x52
 12976 1319 0D000000 		.4byte	.LVL408-1
 12977 131d 54000000 		.4byte	.LFE84
 12978 1321 0400     		.2byte	0x4
 12979 1323 F3       		.byte	0xf3
 12980 1324 01       		.uleb128 0x1
 12981 1325 52       		.byte	0x52
 12982 1326 9F       		.byte	0x9f
 12983 1327 00000000 		.4byte	0
ARM GAS  C:\Users\USUARIO\AppData\Local\Temp\ccywmqVe.s 			page 245


 12984 132b 00000000 		.4byte	0
 12985              	.LLST103:
 12986 132f 00000000 		.4byte	.LVL407
 12987 1333 0D000000 		.4byte	.LVL408-1
 12988 1337 0100     		.2byte	0x1
 12989 1339 53       		.byte	0x53
 12990 133a 0D000000 		.4byte	.LVL408-1
 12991 133e 54000000 		.4byte	.LFE84
 12992 1342 0400     		.2byte	0x4
 12993 1344 F3       		.byte	0xf3
 12994 1345 01       		.uleb128 0x1
 12995 1346 53       		.byte	0x53
 12996 1347 9F       		.byte	0x9f
 12997 1348 00000000 		.4byte	0
 12998 134c 00000000 		.4byte	0
 12999              	.LLST104:
 13000 1350 00000000 		.4byte	.LVL412
 13001 1354 10000000 		.4byte	.LVL415
 13002 1358 0100     		.2byte	0x1
 13003 135a 50       		.byte	0x50
 13004 135b 10000000 		.4byte	.LVL415
 13005 135f 80000000 		.4byte	.LFE85
 13006 1363 0400     		.2byte	0x4
 13007 1365 F3       		.byte	0xf3
 13008 1366 01       		.uleb128 0x1
 13009 1367 50       		.byte	0x50
 13010 1368 9F       		.byte	0x9f
 13011 1369 00000000 		.4byte	0
 13012 136d 00000000 		.4byte	0
 13013              	.LLST105:
 13014 1371 00000000 		.4byte	.LVL412
 13015 1375 0E000000 		.4byte	.LVL414
 13016 1379 0100     		.2byte	0x1
 13017 137b 51       		.byte	0x51
 13018 137c 0E000000 		.4byte	.LVL414
 13019 1380 80000000 		.4byte	.LFE85
 13020 1384 0400     		.2byte	0x4
 13021 1386 F3       		.byte	0xf3
 13022 1387 01       		.uleb128 0x1
 13023 1388 51       		.byte	0x51
 13024 1389 9F       		.byte	0x9f
 13025 138a 00000000 		.4byte	0
 13026 138e 00000000 		.4byte	0
 13027              	.LLST106:
 13028 1392 00000000 		.4byte	.LVL412
 13029 1396 0C000000 		.4byte	.LVL413
 13030 139a 0100     		.2byte	0x1
 13031 139c 52       		.byte	0x52
 13032 139d 0C000000 		.4byte	.LVL413
 13033 13a1 80000000 		.4byte	.LFE85
 13034 13a5 0400     		.2byte	0x4
 13035 13a7 F3       		.byte	0xf3
 13036 13a8 01       		.uleb128 0x1
 13037 13a9 52       		.byte	0x52
 13038 13aa 9F       		.byte	0x9f
 13039 13ab 00000000 		.4byte	0
 13040 13af 00000000 		.4byte	0
ARM GAS  C:\Users\USUARIO\AppData\Local\Temp\ccywmqVe.s 			page 246


 13041              	.LLST107:
 13042 13b3 00000000 		.4byte	.LVL412
 13043 13b7 13000000 		.4byte	.LVL416-1
 13044 13bb 0100     		.2byte	0x1
 13045 13bd 53       		.byte	0x53
 13046 13be 13000000 		.4byte	.LVL416-1
 13047 13c2 80000000 		.4byte	.LFE85
 13048 13c6 0400     		.2byte	0x4
 13049 13c8 F3       		.byte	0xf3
 13050 13c9 01       		.uleb128 0x1
 13051 13ca 53       		.byte	0x53
 13052 13cb 9F       		.byte	0x9f
 13053 13cc 00000000 		.4byte	0
 13054 13d0 00000000 		.4byte	0
 13055              	.LLST108:
 13056 13d4 00000000 		.4byte	.LVL421
 13057 13d8 1A000000 		.4byte	.LVL424
 13058 13dc 0100     		.2byte	0x1
 13059 13de 50       		.byte	0x50
 13060 13df 1A000000 		.4byte	.LVL424
 13061 13e3 52000000 		.4byte	.LVL428
 13062 13e7 0400     		.2byte	0x4
 13063 13e9 F3       		.byte	0xf3
 13064 13ea 01       		.uleb128 0x1
 13065 13eb 50       		.byte	0x50
 13066 13ec 9F       		.byte	0x9f
 13067 13ed 52000000 		.4byte	.LVL428
 13068 13f1 5E000000 		.4byte	.LVL431
 13069 13f5 0100     		.2byte	0x1
 13070 13f7 50       		.byte	0x50
 13071 13f8 5E000000 		.4byte	.LVL431
 13072 13fc 24010000 		.4byte	.LFE86
 13073 1400 0400     		.2byte	0x4
 13074 1402 F3       		.byte	0xf3
 13075 1403 01       		.uleb128 0x1
 13076 1404 50       		.byte	0x50
 13077 1405 9F       		.byte	0x9f
 13078 1406 00000000 		.4byte	0
 13079 140a 00000000 		.4byte	0
 13080              	.LLST109:
 13081 140e 00000000 		.4byte	.LVL421
 13082 1412 18000000 		.4byte	.LVL423
 13083 1416 0100     		.2byte	0x1
 13084 1418 51       		.byte	0x51
 13085 1419 18000000 		.4byte	.LVL423
 13086 141d 52000000 		.4byte	.LVL428
 13087 1421 0400     		.2byte	0x4
 13088 1423 F3       		.byte	0xf3
 13089 1424 01       		.uleb128 0x1
 13090 1425 51       		.byte	0x51
 13091 1426 9F       		.byte	0x9f
 13092 1427 52000000 		.4byte	.LVL428
 13093 142b 5C000000 		.4byte	.LVL430
 13094 142f 0100     		.2byte	0x1
 13095 1431 51       		.byte	0x51
 13096 1432 5C000000 		.4byte	.LVL430
 13097 1436 24010000 		.4byte	.LFE86
ARM GAS  C:\Users\USUARIO\AppData\Local\Temp\ccywmqVe.s 			page 247


 13098 143a 0400     		.2byte	0x4
 13099 143c F3       		.byte	0xf3
 13100 143d 01       		.uleb128 0x1
 13101 143e 51       		.byte	0x51
 13102 143f 9F       		.byte	0x9f
 13103 1440 00000000 		.4byte	0
 13104 1444 00000000 		.4byte	0
 13105              	.LLST110:
 13106 1448 00000000 		.4byte	.LVL421
 13107 144c 16000000 		.4byte	.LVL422
 13108 1450 0100     		.2byte	0x1
 13109 1452 52       		.byte	0x52
 13110 1453 16000000 		.4byte	.LVL422
 13111 1457 52000000 		.4byte	.LVL428
 13112 145b 0400     		.2byte	0x4
 13113 145d F3       		.byte	0xf3
 13114 145e 01       		.uleb128 0x1
 13115 145f 52       		.byte	0x52
 13116 1460 9F       		.byte	0x9f
 13117 1461 52000000 		.4byte	.LVL428
 13118 1465 5A000000 		.4byte	.LVL429
 13119 1469 0100     		.2byte	0x1
 13120 146b 52       		.byte	0x52
 13121 146c 5A000000 		.4byte	.LVL429
 13122 1470 24010000 		.4byte	.LFE86
 13123 1474 0400     		.2byte	0x4
 13124 1476 F3       		.byte	0xf3
 13125 1477 01       		.uleb128 0x1
 13126 1478 52       		.byte	0x52
 13127 1479 9F       		.byte	0x9f
 13128 147a 00000000 		.4byte	0
 13129 147e 00000000 		.4byte	0
 13130              	.LLST111:
 13131 1482 00000000 		.4byte	.LVL421
 13132 1486 1D000000 		.4byte	.LVL425-1
 13133 148a 0100     		.2byte	0x1
 13134 148c 53       		.byte	0x53
 13135 148d 1D000000 		.4byte	.LVL425-1
 13136 1491 52000000 		.4byte	.LVL428
 13137 1495 0400     		.2byte	0x4
 13138 1497 F3       		.byte	0xf3
 13139 1498 01       		.uleb128 0x1
 13140 1499 53       		.byte	0x53
 13141 149a 9F       		.byte	0x9f
 13142 149b 52000000 		.4byte	.LVL428
 13143 149f 61000000 		.4byte	.LVL432-1
 13144 14a3 0100     		.2byte	0x1
 13145 14a5 53       		.byte	0x53
 13146 14a6 61000000 		.4byte	.LVL432-1
 13147 14aa 24010000 		.4byte	.LFE86
 13148 14ae 0400     		.2byte	0x4
 13149 14b0 F3       		.byte	0xf3
 13150 14b1 01       		.uleb128 0x1
 13151 14b2 53       		.byte	0x53
 13152 14b3 9F       		.byte	0x9f
 13153 14b4 00000000 		.4byte	0
 13154 14b8 00000000 		.4byte	0
ARM GAS  C:\Users\USUARIO\AppData\Local\Temp\ccywmqVe.s 			page 248


 13155              	.LLST112:
 13156 14bc 00000000 		.4byte	.LVL421
 13157 14c0 18010000 		.4byte	.LVL441
 13158 14c4 0200     		.2byte	0x2
 13159 14c6 91       		.byte	0x91
 13160 14c7 00       		.sleb128 0
 13161 14c8 18010000 		.4byte	.LVL441
 13162 14cc 24010000 		.4byte	.LFE86
 13163 14d0 0200     		.2byte	0x2
 13164 14d2 7D       		.byte	0x7d
 13165 14d3 00       		.sleb128 0
 13166 14d4 00000000 		.4byte	0
 13167 14d8 00000000 		.4byte	0
 13168              		.section	.debug_aranges,"",%progbits
 13169 0000 CC000000 		.4byte	0xcc
 13170 0004 0200     		.2byte	0x2
 13171 0006 00000000 		.4byte	.Ldebug_info0
 13172 000a 04       		.byte	0x4
 13173 000b 00       		.byte	0
 13174 000c 0000     		.2byte	0
 13175 000e 0000     		.2byte	0
 13176 0010 00000000 		.4byte	.LFB64
 13177 0014 96000000 		.4byte	.LFE64-.LFB64
 13178 0018 00000000 		.4byte	.LFB65
 13179 001c 58000000 		.4byte	.LFE65-.LFB65
 13180 0020 00000000 		.4byte	.LFB66
 13181 0024 48000000 		.4byte	.LFE66-.LFB66
 13182 0028 00000000 		.4byte	.LFB67
 13183 002c 7C000000 		.4byte	.LFE67-.LFB67
 13184 0030 00000000 		.4byte	.LFB68
 13185 0034 4A000000 		.4byte	.LFE68-.LFB68
 13186 0038 00000000 		.4byte	.LFB69
 13187 003c 28000000 		.4byte	.LFE69-.LFB69
 13188 0040 00000000 		.4byte	.LFB70
 13189 0044 84000000 		.4byte	.LFE70-.LFB70
 13190 0048 00000000 		.4byte	.LFB71
 13191 004c 48000000 		.4byte	.LFE71-.LFB71
 13192 0050 00000000 		.4byte	.LFB72
 13193 0054 EC000000 		.4byte	.LFE72-.LFB72
 13194 0058 00000000 		.4byte	.LFB73
 13195 005c 84000000 		.4byte	.LFE73-.LFB73
 13196 0060 00000000 		.4byte	.LFB74
 13197 0064 5A010000 		.4byte	.LFE74-.LFB74
 13198 0068 00000000 		.4byte	.LFB75
 13199 006c 24010000 		.4byte	.LFE75-.LFB75
 13200 0070 00000000 		.4byte	.LFB76
 13201 0074 28010000 		.4byte	.LFE76-.LFB76
 13202 0078 00000000 		.4byte	.LFB77
 13203 007c B4000000 		.4byte	.LFE77-.LFB77
 13204 0080 00000000 		.4byte	.LFB78
 13205 0084 34020000 		.4byte	.LFE78-.LFB78
 13206 0088 00000000 		.4byte	.LFB79
 13207 008c 2C010000 		.4byte	.LFE79-.LFB79
 13208 0090 00000000 		.4byte	.LFB80
 13209 0094 18010000 		.4byte	.LFE80-.LFB80
 13210 0098 00000000 		.4byte	.LFB81
 13211 009c 5C000000 		.4byte	.LFE81-.LFB81
ARM GAS  C:\Users\USUARIO\AppData\Local\Temp\ccywmqVe.s 			page 249


 13212 00a0 00000000 		.4byte	.LFB82
 13213 00a4 1E000000 		.4byte	.LFE82-.LFB82
 13214 00a8 00000000 		.4byte	.LFB83
 13215 00ac 4C000000 		.4byte	.LFE83-.LFB83
 13216 00b0 00000000 		.4byte	.LFB84
 13217 00b4 54000000 		.4byte	.LFE84-.LFB84
 13218 00b8 00000000 		.4byte	.LFB85
 13219 00bc 80000000 		.4byte	.LFE85-.LFB85
 13220 00c0 00000000 		.4byte	.LFB86
 13221 00c4 24010000 		.4byte	.LFE86-.LFB86
 13222 00c8 00000000 		.4byte	0
 13223 00cc 00000000 		.4byte	0
 13224              		.section	.debug_ranges,"",%progbits
 13225              	.Ldebug_ranges0:
 13226 0000 00000000 		.4byte	.LFB64
 13227 0004 96000000 		.4byte	.LFE64
 13228 0008 00000000 		.4byte	.LFB65
 13229 000c 58000000 		.4byte	.LFE65
 13230 0010 00000000 		.4byte	.LFB66
 13231 0014 48000000 		.4byte	.LFE66
 13232 0018 00000000 		.4byte	.LFB67
 13233 001c 7C000000 		.4byte	.LFE67
 13234 0020 00000000 		.4byte	.LFB68
 13235 0024 4A000000 		.4byte	.LFE68
 13236 0028 00000000 		.4byte	.LFB69
 13237 002c 28000000 		.4byte	.LFE69
 13238 0030 00000000 		.4byte	.LFB70
 13239 0034 84000000 		.4byte	.LFE70
 13240 0038 00000000 		.4byte	.LFB71
 13241 003c 48000000 		.4byte	.LFE71
 13242 0040 00000000 		.4byte	.LFB72
 13243 0044 EC000000 		.4byte	.LFE72
 13244 0048 00000000 		.4byte	.LFB73
 13245 004c 84000000 		.4byte	.LFE73
 13246 0050 00000000 		.4byte	.LFB74
 13247 0054 5A010000 		.4byte	.LFE74
 13248 0058 00000000 		.4byte	.LFB75
 13249 005c 24010000 		.4byte	.LFE75
 13250 0060 00000000 		.4byte	.LFB76
 13251 0064 28010000 		.4byte	.LFE76
 13252 0068 00000000 		.4byte	.LFB77
 13253 006c B4000000 		.4byte	.LFE77
 13254 0070 00000000 		.4byte	.LFB78
 13255 0074 34020000 		.4byte	.LFE78
 13256 0078 00000000 		.4byte	.LFB79
 13257 007c 2C010000 		.4byte	.LFE79
 13258 0080 00000000 		.4byte	.LFB80
 13259 0084 18010000 		.4byte	.LFE80
 13260 0088 00000000 		.4byte	.LFB81
 13261 008c 5C000000 		.4byte	.LFE81
 13262 0090 00000000 		.4byte	.LFB82
 13263 0094 1E000000 		.4byte	.LFE82
 13264 0098 00000000 		.4byte	.LFB83
 13265 009c 4C000000 		.4byte	.LFE83
 13266 00a0 00000000 		.4byte	.LFB84
 13267 00a4 54000000 		.4byte	.LFE84
 13268 00a8 00000000 		.4byte	.LFB85
ARM GAS  C:\Users\USUARIO\AppData\Local\Temp\ccywmqVe.s 			page 250


 13269 00ac 80000000 		.4byte	.LFE85
 13270 00b0 00000000 		.4byte	.LFB86
 13271 00b4 24010000 		.4byte	.LFE86
 13272 00b8 00000000 		.4byte	0
 13273 00bc 00000000 		.4byte	0
 13274              		.section	.debug_line,"",%progbits
 13275              	.Ldebug_line0:
 13276 0000 7F060000 		.section	.debug_str,"MS",%progbits,1
 13276      02007D02 
 13276      00000201 
 13276      FB0E0D00 
 13276      01010101 
 13277              	.LASF99:
 13278 0000 445F495F 		.ascii	"D_I_Write\000"
 13278      57726974 
 13278      6500
 13279              	.LASF29:
 13280 000a 75693856 		.ascii	"ui8Value\000"
 13280      616C7565 
 13280      00
 13281              	.LASF100:
 13282 0013 52455345 		.ascii	"RESET_Write\000"
 13282      545F5772 
 13282      69746500 
 13283              	.LASF11:
 13284 001f 756E7369 		.ascii	"unsigned int\000"
 13284      676E6564 
 13284      20696E74 
 13284      00
 13285              	.LASF95:
 13286 002c 43535F31 		.ascii	"CS_1_Write\000"
 13286      5F577269 
 13286      746500
 13287              	.LASF53:
 13288 0037 676C6364 		.ascii	"glcd_text57\000"
 13288      5F746578 
 13288      74353700 
 13289              	.LASF6:
 13290 0043 5F5F696E 		.ascii	"__int32_t\000"
 13290      7433325F 
 13290      7400
 13291              	.LASF17:
 13292 004d 696E7431 		.ascii	"int16\000"
 13292      3600
 13293              	.LASF63:
 13294 0053 766F6C74 		.ascii	"voltage\000"
 13294      61676500 
 13295              	.LASF64:
 13296 005b 64697370 		.ascii	"displayTiempo\000"
 13296      6C617954 
 13296      69656D70 
 13296      6F00
 13297              	.LASF30:
 13298 0069 73696465 		.ascii	"side\000"
 13298      00
 13299              	.LASF105:
 13300 006e 443A5C4C 		.ascii	"D:\\Laboratorio\\Mufla\\2021\\Mufla 9L Psoc Artilab"
ARM GAS  C:\Users\USUARIO\AppData\Local\Temp\ccywmqVe.s 			page 251


 13300      61626F72 
 13300      61746F72 
 13300      696F5C4D 
 13300      75666C61 
 13301 009d 20233030 		.ascii	" #0045884XX OP202139\\Firmware Psoc\\LCD2\\MuflaGLC"
 13301      34353838 
 13301      34585820 
 13301      4F503230 
 13301      32313339 
 13302 00cd 442E6379 		.ascii	"D.cydsn\000"
 13302      64736E00 
 13303              	.LASF82:
 13304 00d5 44425F34 		.ascii	"DB_4_Write\000"
 13304      5F577269 
 13304      746500
 13305              	.LASF89:
 13306 00e0 44425F33 		.ascii	"DB_3_Read\000"
 13306      5F526561 
 13306      6400
 13307              	.LASF35:
 13308 00ea 6D6F6465 		.ascii	"mode\000"
 13308      00
 13309              	.LASF56:
 13310 00ef 70697865 		.ascii	"pixelData\000"
 13310      6C446174 
 13310      6100
 13311              	.LASF59:
 13312 00f9 736F6D62 		.ascii	"sombreado\000"
 13312      72656164 
 13312      6F00
 13313              	.LASF67:
 13314 0103 4C696D70 		.ascii	"Limpia\000"
 13314      696100
 13315              	.LASF101:
 13316 010a 73747263 		.ascii	"strcpy\000"
 13316      707900
 13317              	.LASF74:
 13318 0111 64697370 		.ascii	"displayData\000"
 13318      6C617944 
 13318      61746100 
 13319              	.LASF0:
 13320 011d 666C6F61 		.ascii	"float\000"
 13320      7400
 13321              	.LASF10:
 13322 0123 6C6F6E67 		.ascii	"long long unsigned int\000"
 13322      206C6F6E 
 13322      6720756E 
 13322      7369676E 
 13322      65642069 
 13323              	.LASF43:
 13324 013a 66696C6C 		.ascii	"fill\000"
 13324      00
 13325              	.LASF84:
 13326 013f 44425F36 		.ascii	"DB_6_Write\000"
 13326      5F577269 
 13326      746500
 13327              	.LASF62:
ARM GAS  C:\Users\USUARIO\AppData\Local\Temp\ccywmqVe.s 			page 252


 13328 014a 64696769 		.ascii	"digito\000"
 13328      746F00
 13329              	.LASF48:
 13330 0151 676C6364 		.ascii	"glcd_bar\000"
 13330      5F626172 
 13330      00
 13331              	.LASF103:
 13332 015a 474E5520 		.ascii	"GNU C11 5.4.1 20160609 (release) [ARM/embedded-5-br"
 13332      43313120 
 13332      352E342E 
 13332      31203230 
 13332      31363036 
 13333 018d 616E6368 		.ascii	"anch revision 237715] -mcpu=cortex-m3 -mthumb -g -O"
 13333      20726576 
 13333      6973696F 
 13333      6E203233 
 13333      37373135 
 13334 01c0 67202D66 		.ascii	"g -ffunction-sections -ffat-lto-objects\000"
 13334      66756E63 
 13334      74696F6E 
 13334      2D736563 
 13334      74696F6E 
 13335              	.LASF91:
 13336 01e8 44425F35 		.ascii	"DB_5_Read\000"
 13336      5F526561 
 13336      6400
 13337              	.LASF23:
 13338 01f2 4C657472 		.ascii	"Letra\000"
 13338      6100
 13339              	.LASF49:
 13340 01f8 77696474 		.ascii	"width\000"
 13340      6800
 13341              	.LASF107:
 13342 01fe 676C6364 		.ascii	"glcd_readByte\000"
 13342      5F726561 
 13342      64427974 
 13342      6500
 13343              	.LASF66:
 13344 020c 676C6364 		.ascii	"glcd_imagen\000"
 13344      5F696D61 
 13344      67656E00 
 13345              	.LASF45:
 13346 0218 786D6178 		.ascii	"xmax\000"
 13346      00
 13347              	.LASF19:
 13348 021d 63686172 		.ascii	"char\000"
 13348      00
 13349              	.LASF97:
 13350 0222 43794465 		.ascii	"CyDelayCycles\000"
 13350      6C617943 
 13350      79636C65 
 13350      7300
 13351              	.LASF79:
 13352 0230 44425F31 		.ascii	"DB_1_Write\000"
 13352      5F577269 
 13352      746500
 13353              	.LASF15:
ARM GAS  C:\Users\USUARIO\AppData\Local\Temp\ccywmqVe.s 			page 253


 13354 023b 75696E74 		.ascii	"uint16\000"
 13354      313600
 13355              	.LASF31:
 13356 0242 64617461 		.ascii	"data\000"
 13356      00
 13357              	.LASF16:
 13358 0247 696E7438 		.ascii	"int8\000"
 13358      00
 13359              	.LASF9:
 13360 024c 6C6F6E67 		.ascii	"long long int\000"
 13360      206C6F6E 
 13360      6720696E 
 13360      7400
 13361              	.LASF77:
 13362 025a 486F726E 		.ascii	"Horno\000"
 13362      6F00
 13363              	.LASF12:
 13364 0260 75696E74 		.ascii	"uint8_t\000"
 13364      385F7400 
 13365              	.LASF58:
 13366 0268 70616C61 		.ascii	"palabra\000"
 13366      62726100 
 13367              	.LASF93:
 13368 0270 44425F37 		.ascii	"DB_7_Read\000"
 13368      5F526561 
 13368      6400
 13369              	.LASF25:
 13370 027a 72696768 		.ascii	"right\000"
 13370      7400
 13371              	.LASF75:
 13372 0280 464F4E54 		.ascii	"FONT\000"
 13372      00
 13373              	.LASF69:
 13374 0285 64697370 		.ascii	"displayFloat\000"
 13374      6C617946 
 13374      6C6F6174 
 13374      00
 13375              	.LASF104:
 13376 0292 6B733031 		.ascii	"ks0108.c\000"
 13376      30382E63 
 13376      00
 13377              	.LASF88:
 13378 029b 44425F32 		.ascii	"DB_2_Read\000"
 13378      5F526561 
 13378      6400
 13379              	.LASF46:
 13380 02a5 796D696E 		.ascii	"ymin\000"
 13380      00
 13381              	.LASF22:
 13382 02aa 4D454E55 		.ascii	"MENUU\000"
 13382      5500
 13383              	.LASF54:
 13384 02b0 74657874 		.ascii	"textptr\000"
 13384      70747200 
 13385              	.LASF55:
 13386 02b8 73697A65 		.ascii	"size\000"
 13386      00
ARM GAS  C:\Users\USUARIO\AppData\Local\Temp\ccywmqVe.s 			page 254


 13387              	.LASF81:
 13388 02bd 44425F33 		.ascii	"DB_3_Write\000"
 13388      5F577269 
 13388      746500
 13389              	.LASF57:
 13390 02c8 64697370 		.ascii	"displayMenu\000"
 13390      6C61794D 
 13390      656E7500 
 13391              	.LASF71:
 13392 02d4 64697370 		.ascii	"displayTiempos\000"
 13392      6C617954 
 13392      69656D70 
 13392      6F7300
 13393              	.LASF20:
 13394 02e3 6C6F6E67 		.ascii	"long double\000"
 13394      20646F75 
 13394      626C6500 
 13395              	.LASF102:
 13396 02ef 73707269 		.ascii	"sprintf\000"
 13396      6E746600 
 13397              	.LASF27:
 13398 02f7 764C6364 		.ascii	"vLcdDataRead\000"
 13398      44617461 
 13398      52656164 
 13398      00
 13399              	.LASF32:
 13400 0304 676C6364 		.ascii	"glcd_fillScreen\000"
 13400      5F66696C 
 13400      6C536372 
 13400      65656E00 
 13401              	.LASF76:
 13402 0314 464F4E54 		.ascii	"FONT2\000"
 13402      3200
 13403              	.LASF34:
 13404 031a 676C6364 		.ascii	"glcd_init\000"
 13404      5F696E69 
 13404      7400
 13405              	.LASF60:
 13406 0324 74616D61 		.ascii	"tamano\000"
 13406      6E6F00
 13407              	.LASF94:
 13408 032b 43535F32 		.ascii	"CS_2_Write\000"
 13408      5F577269 
 13408      746500
 13409              	.LASF90:
 13410 0336 44425F34 		.ascii	"DB_4_Read\000"
 13410      5F526561 
 13410      6400
 13411              	.LASF3:
 13412 0340 73686F72 		.ascii	"short int\000"
 13412      7420696E 
 13412      7400
 13413              	.LASF28:
 13414 034a 676C6364 		.ascii	"glcd_writeByte\000"
 13414      5F777269 
 13414      74654279 
 13414      746500
ARM GAS  C:\Users\USUARIO\AppData\Local\Temp\ccywmqVe.s 			page 255


 13415              	.LASF98:
 13416 0359 454E4142 		.ascii	"ENABLE_Write\000"
 13416      4C455F57 
 13416      72697465 
 13416      00
 13417              	.LASF7:
 13418 0366 6C6F6E67 		.ascii	"long int\000"
 13418      20696E74 
 13418      00
 13419              	.LASF72:
 13420 036f 49544D5F 		.ascii	"ITM_RxBuffer\000"
 13420      52784275 
 13420      66666572 
 13420      00
 13421              	.LASF83:
 13422 037c 44425F35 		.ascii	"DB_5_Write\000"
 13422      5F577269 
 13422      746500
 13423              	.LASF38:
 13424 0387 676C6364 		.ascii	"glcd_line\000"
 13424      5F6C696E 
 13424      6500
 13425              	.LASF41:
 13426 0391 64696666 		.ascii	"diff\000"
 13426      00
 13427              	.LASF37:
 13428 0396 74656D70 		.ascii	"temp\000"
 13428      00
 13429              	.LASF68:
 13430 039b 64697370 		.ascii	"displayT\000"
 13430      6C617954 
 13430      00
 13431              	.LASF33:
 13432 03a4 636F6C6F 		.ascii	"color\000"
 13432      7200
 13433              	.LASF24:
 13434 03aa 6C656674 		.ascii	"left\000"
 13434      00
 13435              	.LASF5:
 13436 03af 5F5F7569 		.ascii	"__uint8_t\000"
 13436      6E74385F 
 13436      7400
 13437              	.LASF65:
 13438 03b9 64697370 		.ascii	"displayTemperatura\000"
 13438      6C617954 
 13438      656D7065 
 13438      72617475 
 13438      726100
 13439              	.LASF61:
 13440 03cc 64697370 		.ascii	"displayTemps\000"
 13440      6C617954 
 13440      656D7073 
 13440      00
 13441              	.LASF86:
 13442 03d9 44425F30 		.ascii	"DB_0_Read\000"
 13442      5F526561 
 13442      6400
ARM GAS  C:\Users\USUARIO\AppData\Local\Temp\ccywmqVe.s 			page 256


 13443              	.LASF36:
 13444 03e3 676C6364 		.ascii	"glcd_pixel\000"
 13444      5F706978 
 13444      656C00
 13445              	.LASF21:
 13446 03ee 73697A65 		.ascii	"sizetype\000"
 13446      74797065 
 13446      00
 13447              	.LASF70:
 13448 03f7 64697370 		.ascii	"displayContrasena\000"
 13448      6C617943 
 13448      6F6E7472 
 13448      6173656E 
 13448      6100
 13449              	.LASF8:
 13450 0409 6C6F6E67 		.ascii	"long unsigned int\000"
 13450      20756E73 
 13450      69676E65 
 13450      6420696E 
 13450      7400
 13451              	.LASF13:
 13452 041b 696E7433 		.ascii	"int32_t\000"
 13452      325F7400 
 13453              	.LASF52:
 13454 0423 72616469 		.ascii	"radius\000"
 13454      757300
 13455              	.LASF73:
 13456 042a 4D656E75 		.ascii	"Menus\000"
 13456      7300
 13457              	.LASF26:
 13458 0430 764C6364 		.ascii	"vLcdDataWrite\000"
 13458      44617461 
 13458      57726974 
 13458      6500
 13459              	.LASF51:
 13460 043e 676C6364 		.ascii	"glcd_circle\000"
 13460      5F636972 
 13460      636C6500 
 13461              	.LASF85:
 13462 044a 44425F37 		.ascii	"DB_7_Write\000"
 13462      5F577269 
 13462      746500
 13463              	.LASF2:
 13464 0455 756E7369 		.ascii	"unsigned char\000"
 13464      676E6564 
 13464      20636861 
 13464      7200
 13465              	.LASF50:
 13466 0463 68616C66 		.ascii	"half_width\000"
 13466      5F776964 
 13466      746800
 13467              	.LASF87:
 13468 046e 44425F31 		.ascii	"DB_1_Read\000"
 13468      5F526561 
 13468      6400
 13469              	.LASF42:
 13470 0478 676C6364 		.ascii	"glcd_rect\000"
ARM GAS  C:\Users\USUARIO\AppData\Local\Temp\ccywmqVe.s 			page 257


 13470      5F726563 
 13470      7400
 13471              	.LASF39:
 13472 0482 61646478 		.ascii	"addx\000"
 13472      00
 13473              	.LASF40:
 13474 0487 61646479 		.ascii	"addy\000"
 13474      00
 13475              	.LASF96:
 13476 048c 525F575F 		.ascii	"R_W_Write\000"
 13476      57726974 
 13476      6500
 13477              	.LASF1:
 13478 0496 7369676E 		.ascii	"signed char\000"
 13478      65642063 
 13478      68617200 
 13479              	.LASF4:
 13480 04a2 73686F72 		.ascii	"short unsigned int\000"
 13480      7420756E 
 13480      7369676E 
 13480      65642069 
 13480      6E7400
 13481              	.LASF44:
 13482 04b5 786D696E 		.ascii	"xmin\000"
 13482      00
 13483              	.LASF14:
 13484 04ba 75696E74 		.ascii	"uint8\000"
 13484      3800
 13485              	.LASF18:
 13486 04c0 646F7562 		.ascii	"double\000"
 13486      6C6500
 13487              	.LASF92:
 13488 04c7 44425F36 		.ascii	"DB_6_Read\000"
 13488      5F526561 
 13488      6400
 13489              	.LASF78:
 13490 04d1 44425F30 		.ascii	"DB_0_Write\000"
 13490      5F577269 
 13490      746500
 13491              	.LASF47:
 13492 04dc 796D6178 		.ascii	"ymax\000"
 13492      00
 13493              	.LASF106:
 13494 04e1 676C6364 		.ascii	"glcd_update\000"
 13494      5F757064 
 13494      61746500 
 13495              	.LASF80:
 13496 04ed 44425F32 		.ascii	"DB_2_Write\000"
 13496      5F577269 
 13496      746500
 13497              		.ident	"GCC: (GNU Tools for ARM Embedded Processors) 5.4.1 20160609 (release) [ARM/embedded-5-bran
