ARM GAS  C:\Users\USUARIO\AppData\Local\Temp\ccfDwbds.s 			page 1


   1              		.syntax unified
   2              		.cpu cortex-m3
   3              		.fpu softvfp
   4              		.eabi_attribute 20, 1
   5              		.eabi_attribute 21, 1
   6              		.eabi_attribute 23, 3
   7              		.eabi_attribute 24, 1
   8              		.eabi_attribute 25, 1
   9              		.eabi_attribute 26, 1
  10              		.eabi_attribute 30, 1
  11              		.eabi_attribute 34, 1
  12              		.eabi_attribute 18, 4
  13              		.thumb
  14              		.syntax unified
  15              		.file	"main.c"
  16              		.text
  17              	.Ltext0:
  18              		.cfi_sections	.debug_frame
  19              		.syntax unified
  20              		.global _printf_float
  21              		.thumb
  22              		.syntax unified
  23              		.section	.text.ADC_SAR_ISR_LOC,"ax",%progbits
  24              		.align	2
  25              		.global	ADC_SAR_ISR_LOC
  26              		.thumb
  27              		.thumb_func
  28              		.type	ADC_SAR_ISR_LOC, %function
  29              	ADC_SAR_ISR_LOC:
  30              	.LFB64:
  31              		.file 1 "main.c"
   1:main.c        **** 
   2:main.c        **** /* ========================================
   3:main.c        ****  *
   4:main.c        ****  * Copyright JP Bioingenieria SAS, 2020
   5:main.c        ****  * All Rights Reserved
   6:main.c        ****  * UNPUBLISHED, LICENSED SOFTWARE.
   7:main.c        ****  *
   8:main.c        ****  * Para calibrar la temperatura de la mufla de acuerdo a un patron de temperatura se debe realizar 
   9:main.c        ****  * Se mide con el patron la temperatura en dos puntos y se registran las diferencias con respecto a
  10:main.c        ****  * Se dibuja una grafica XY, donde en el eje Y este la temperatura del control y en el eje X la tem
  11:main.c        ****  * Se traza la recta con los valores obtenidos y se calcula la pendiente m y el punto de corte b, e
  12:main.c        ****  * a  la lectura de la termocupla de acuerdo a la siguiente ecuacion: T=(Tcontrol-b)/m;
  13:main.c        ****  *
  14:main.c        ****  * Este programa activa el extractor de una campana externa. El extractor estara activado durante t
  15:main.c        ****  * funcionamiento (Menu==20), una vez termine todas las rampas, comenzara a correr el tiempo config
  16:main.c        ****  * vez acabe el tiempo apagara automaticamente el extractor.
  17:main.c        ****  * ========================================
  18:main.c        **** */
  19:main.c        **** #include <device.h>
  20:main.c        **** #include <stdio.h>
  21:main.c        **** #include <main.h>
  22:main.c        **** #include <math.h>
  23:main.c        **** #include <stdlib.h>
  24:main.c        **** #include <string.h>
  25:main.c        **** #include <Funciones.h>
  26:main.c        **** #include "ks0108.h"
ARM GAS  C:\Users\USUARIO\AppData\Local\Temp\ccfDwbds.s 			page 2


  27:main.c        **** 
  28:main.c        **** #if defined (__GNUC__)
  29:main.c        ****     /* Add an explicit reference to the floating point printf library */
  30:main.c        ****     /* to allow the usage of floating point conversion specifiers. */
  31:main.c        ****     /* This is not linked in by default with the newlib-nano library. */
  32:main.c        ****     asm (".global _printf_float");
  33:main.c        **** #endif
  34:main.c        **** 
  35:main.c        **** #define OFF 0
  36:main.c        **** #define ON  1
  37:main.c        **** 
  38:main.c        **** int8  Testerilizacion[4]={0,0,0,0};   // Tiempo transcurrido
  39:main.c        **** int8  Testerilizacionp[4]={0,0,0,0};   // Tiempo transcurrido
  40:main.c        **** int8  Contrasena[4]={0,0,0,0};      // Contrasena de 4 digitos
  41:main.c        **** 
  42:main.c        **** int16 offset;
  43:main.c        **** int16 coldJnTemp;
  44:main.c        **** int32 tcColdJnuVolt;
  45:main.c        **** int32 hotJnCount;
  46:main.c        **** int32 filHotJnCount;
  47:main.c        **** int32 tcHotJnuVolt;
  48:main.c        **** int32 tcuVolt;
  49:main.c        **** int32 tcTemp;
  50:main.c        **** char displayStr[100];	
  51:main.c        **** uint8 first = 0;
  52:main.c        **** extern uint8 const CYCODE LCD_customFonts[];  
  53:main.c        **** uint8_t i,pwm1,pwm2,n,PantallaPrincipal,Programa,Opcion2,Derivativo,Integral,MediaMovil,Tciclo,Ajus
  54:main.c        **** uint16 ctr,Setpoint;
  55:main.c        **** uint32_t output,tGrafica;
  56:main.c        **** short flagButton0,flagButton1,flagButton2,flagButton3,dibujo,pulsoAumentar,pulsoDisminuir,flagBorra
  57:main.c        **** short Flanco,Flanco1,Flanco2,Flanco3,flagFinalizo,visual;
  58:main.c        **** float valor,pendiente,b,Ganancia,GananciaIn;
  59:main.c        **** 
  60:main.c        **** #define RX_BUFFER_SIZE  10
  61:main.c        **** char Rx_Buffer[RX_BUFFER_SIZE+1];
  62:main.c        **** char Rx_Buffer2[RX_BUFFER_SIZE+1];
  63:main.c        **** uint8 RX_Wr_Index=0;
  64:main.c        **** uint8 RX_Rd_Index=0;
  65:main.c        **** uint8 RX_Counter=0;
  66:main.c        **** 
  67:main.c        **** char Rx_Buffer3[RX_BUFFER_SIZE+1];
  68:main.c        **** char Rx_Buffer4[RX_BUFFER_SIZE+1];
  69:main.c        **** uint8 RX_Wr_Index2=0;
  70:main.c        **** uint8 RX_Rd_Index2=0;
  71:main.c        **** uint8 RX_Counter2=0;
  72:main.c        **** 
  73:main.c        **** int8  Tempoc[4];
  74:main.c        **** int8  Tempocp[4];
  75:main.c        **** char Dos_puntos[]=":";
  76:main.c        **** uint8 i2cbuf[4];
  77:main.c        **** float promedio[90];
  78:main.c        **** 
  79:main.c        **** uint8 Dato2,Dato3,Dato_Exitoso,Dato_Exitoso2,Menu,MenuAntt,MenuAnt,Menu2,MenuAntt2,z,TipoClave,Segm
  80:main.c        **** short Inicio,Inicio2,EstadoPaso,entro,GuardaEEPROM,rampa,Minutos,Horas,flagTemperatura,Test,x1,x10,
  81:main.c        **** uint8 Password[4];
  82:main.c        **** uint8 tiempo_esterilizacion,y,hEst,mEst,hEstp,mEstp,Segmento,conteo,unidad,Pausa,controlT;
  83:main.c        **** uint16 tiempos,tiempos3,tiempoctrl,Tc,Tp,tiemporeset,TiempoControl,tiemporecta,tiemposetpoint,tinic
ARM GAS  C:\Users\USUARIO\AppData\Local\Temp\ccfDwbds.s 			page 3


  84:main.c        **** short mensaje,Lectura2,flag_setpoint,flag_tiempocalentamiento,Lectura,flagup,flagdn,flagRampa,flag_
  85:main.c        **** short Finalizo,conteoPregunta,grafica,imprime,flag_display,Dibuja,Desconectado,flag_clear3,flag_gan
  86:main.c        **** float X[2]={0.0,0.0};
  87:main.c        **** float Temperatura,Aumento,PendienteActual,DifPendiente,TempeInicial,Pendiente,TemperaturaIdeal,Pote
  88:main.c        **** float error,Potencia,Tpulsomin,TpulsoMax;
  89:main.c        **** uint16 TiempoActual,MinutosActual,HorasActual,Tiempo,TiempoRampa,tPregunta,b16,tup,tdown,tright,tle
  90:main.c        **** uint8 dataReady = 0u,Alarma,gananciaIn,segundosCampana;
  91:main.c        **** uint16 result;
  92:main.c        **** float Prom,V0,Temperature,m;
  93:main.c        **** int16 Temperatura1[Pasos*5];
  94:main.c        **** int16 Horas1[Pasos*5];
  95:main.c        **** int16 Minutos1[Pasos*5];
  96:main.c        **** uint8 m_int,m_dec,b_dec;
  97:main.c        **** 
  98:main.c        **** CY_ISR(ADC_SAR_ISR_LOC)
  99:main.c        **** {
  32              		.loc 1 99 0
  33              		.cfi_startproc
  34              		@ args = 0, pretend = 0, frame = 0
  35              		@ frame_needed = 0, uses_anonymous_args = 0
  36              		@ link register save eliminated.
 100:main.c        ****         result = CY_GET_REG16(ADC_SAR_SAR_WRK_PTR);
  37              		.loc 1 100 0
  38 0000 034B     		ldr	r3, .L2
  39 0002 1A88     		ldrh	r2, [r3]
  40 0004 034B     		ldr	r3, .L2+4
  41 0006 1A80     		strh	r2, [r3]	@ movhi
 101:main.c        ****         dataReady = 1u;
  42              		.loc 1 101 0
  43 0008 0122     		movs	r2, #1
  44 000a 034B     		ldr	r3, .L2+8
  45 000c 1A70     		strb	r2, [r3]
  46 000e 7047     		bx	lr
  47              	.L3:
  48              		.align	2
  49              	.L2:
  50 0010 A05B0040 		.word	1073765280
  51 0014 00000000 		.word	result
  52 0018 00000000 		.word	.LANCHOR0
  53              		.cfi_endproc
  54              	.LFE64:
  55              		.size	ADC_SAR_ISR_LOC, .-ADC_SAR_ISR_LOC
  56              		.section	.text.Reloj2,"ax",%progbits
  57              		.align	2
  58              		.global	Reloj2
  59              		.thumb
  60              		.thumb_func
  61              		.type	Reloj2, %function
  62              	Reloj2:
  63              	.LFB70:
 102:main.c        **** }
 103:main.c        **** 
 104:main.c        **** void ActualizaRecta(){
 105:main.c        ****    X[y]=Temperatura;
 106:main.c        ****    y++;
 107:main.c        ****    if(y>=2){
 108:main.c        ****       y=0;
ARM GAS  C:\Users\USUARIO\AppData\Local\Temp\ccfDwbds.s 			page 4


 109:main.c        ****       Aumento=X[1]-X[0];
 110:main.c        ****       HorasActual=(Testerilizacion[3]*10)+Testerilizacion[2];
 111:main.c        ****       MinutosActual=(Testerilizacion[1]*10)+Testerilizacion[0];
 112:main.c        ****       TiempoActual=Tiempo-((HorasActual*3600)+(MinutosActual*60)+tinicio);
 113:main.c        ****       PendienteActual=((Setpoint-Temperatura)/TiempoActual);
 114:main.c        ****       DifPendiente=(PendienteActual*20)-Aumento;
 115:main.c        ****       DifPendiente=DifPendiente*5;
 116:main.c        ****    }
 117:main.c        **** }
 118:main.c        **** 
 119:main.c        **** void Controla(){
 120:main.c        **** //-------------------------------Control de Calentamiento------------------------------------------
 121:main.c        ****    float tmp=0.0;
 122:main.c        ****       
 123:main.c        ****       if(Pendiente!=0){
 124:main.c        ****         if(tiemporecta>=10){
 125:main.c        ****             ActualizaRecta();
 126:main.c        ****             tiemporecta=0;
 127:main.c        ****         }
 128:main.c        ****       }else{
 129:main.c        ****         if(tiemporecta>=Derivativo/2){
 130:main.c        ****             ActualizaRecta();
 131:main.c        ****             tiemporecta=0;
 132:main.c        ****         }   
 133:main.c        ****       }
 134:main.c        ****     
 135:main.c        ****       if(Segmento==0){
 136:main.c        ****          if(flag_calcula==0){
 137:main.c        ****             Tiempo=(Horas1[ProgramaSeleccionado*Pasos]*3600)+(Minutos1[ProgramaSeleccionado*Pasos]*
 138:main.c        ****             Setpoint=Temperatura1[(ProgramaSeleccionado*Pasos)+Segmento];
 139:main.c        ****             Pendiente=(((float)Setpoint-TempeInicial)/(float)Tiempo);
 140:main.c        ****             Testerilizacionp[3]=(uint8)Horas1[(ProgramaSeleccionado*Pasos)+Segmento]/10;
 141:main.c        ****             Testerilizacionp[2]=Horas1[(ProgramaSeleccionado*Pasos)+Segmento]-(Testerilizacionp[3]*
 142:main.c        ****             Testerilizacionp[1]=Minutos1[(ProgramaSeleccionado*Pasos)+Segmento]/10;
 143:main.c        ****             Testerilizacionp[0]=Minutos1[(ProgramaSeleccionado*Pasos)+Segmento]-(Testerilizacionp[1
 144:main.c        ****             flag_calcula=1;
 145:main.c        ****             Ganancia=GananciaIn*(Setpoint/Coeficiente);
 146:main.c        ****          }
 147:main.c        ****       }else{
 148:main.c        ****          if(flag_calcula==0){
 149:main.c        ****             Tiempo=(Horas1[(ProgramaSeleccionado*Pasos)+Segmento]*3600)+(Minutos1[(ProgramaSeleccio
 150:main.c        ****             Pendiente=((float)(Temperatura1[(ProgramaSeleccionado*Pasos)+Segmento]-Temperatura1[(Pr
 151:main.c        ****             Setpoint=Temperatura1[(ProgramaSeleccionado*Pasos)+Segmento];
 152:main.c        ****             Testerilizacionp[3]=(uint8)Horas1[(ProgramaSeleccionado*Pasos)+Segmento]/10;
 153:main.c        ****             Testerilizacionp[2]=Horas1[(ProgramaSeleccionado*Pasos)+Segmento]-(Testerilizacionp[3]*
 154:main.c        ****             Testerilizacionp[1]=Minutos1[(ProgramaSeleccionado*Pasos)+Segmento]/10;
 155:main.c        ****             Testerilizacionp[0]=Minutos1[(ProgramaSeleccionado*Pasos)+Segmento]-(Testerilizacionp[1
 156:main.c        ****             flag_calcula=1;
 157:main.c        ****             Ganancia=GananciaIn*(Setpoint/Coeficiente);
 158:main.c        ****          }
 159:main.c        ****       }
 160:main.c        ****    
 161:main.c        ****   
 162:main.c        ****    if(Pendiente!=0){// Si Esta realizando una Rampa debe realizar el control de acuerdo a la pendie
 163:main.c        ****       //TiempoRampa=((HorasActual*3600)+(MinutosActual*60)+tinicio);
 164:main.c        ****     TiempoRampa=(((Testerilizacion[3]*10)+Testerilizacion[2])*3600)+(((Testerilizacion[1]*10)+Teste
 165:main.c        ****       if(Segmento==0){
ARM GAS  C:\Users\USUARIO\AppData\Local\Temp\ccfDwbds.s 			page 5


 166:main.c        ****          TemperaturaIdeal=(Pendiente*TiempoRampa)+TempeInicial;
 167:main.c        ****       }else{
 168:main.c        ****          TemperaturaIdeal=(Pendiente*TiempoRampa)+Temperatura1[(ProgramaSeleccionado*Pasos)+Segment
 169:main.c        ****       }
 170:main.c        ****       PotenciaEntregada=((TemperaturaIdeal-Temperatura)*100)/penMufla;
 171:main.c        **** // Pendiente determinar si el comportamiento de la mufla es lineal 10°C/min o si tiene un comporta
 172:main.c        ****       
 173:main.c        ****       if(Temperatura<450 && Temperatura>=200)
 174:main.c        ****          penMufla=penInicial*0.9;
 175:main.c        ****          
 176:main.c        ****       if(Temperatura<600 && Temperatura>=450)
 177:main.c        ****          penMufla=penInicial*0.8;
 178:main.c        ****          
 179:main.c        ****       if(Temperatura<900 && Temperatura>=600)
 180:main.c        ****          penMufla=penInicial*0.7;  
 181:main.c        ****          
 182:main.c        ****       if(Temperatura<=1200 && Temperatura>=900)
 183:main.c        ****          penMufla=penInicial*0.6;   
 184:main.c        ****       
 185:main.c        ****       if(PotenciaEntregada>100.0){
 186:main.c        ****          PotenciaEntregada=100.0;
 187:main.c        ****       }
 188:main.c        ****       
 189:main.c        ****       if(PotenciaEntregada<0){
 190:main.c        ****          PotenciaEntregada=0;
 191:main.c        ****       }
 192:main.c        ****       
 193:main.c        ****       Tpulso=(PotenciaEntregada*Tciclo)/100;  
 194:main.c        ****    }else{
 195:main.c        ****                
 196:main.c        ****       error=desvio+Setpoint-Temperatura;      // Cálculo del error ******
 197:main.c        ****       
 198:main.c        ****       if(error>=(desvio+3) && Aumento<1){
 199:main.c        ****          flag_ajuste=0;
 200:main.c        ****          flag_ajuste2=0;
 201:main.c        ****          if(Potencia<90.0){
 202:main.c        ****             if(TiempoControl>=Derivativo){
 203:main.c        ****                TiempoControl=0;
 204:main.c        ****                if(Aumento<-2){
 205:main.c        ****                   Ganancia+=Integral+1;
 206:main.c        ****                }else{
 207:main.c        ****                   if(Aumento<-1){
 208:main.c        ****                      Ganancia+=Integral;
 209:main.c        ****                   }else{
 210:main.c        ****                      Ganancia+=Integral-0.5;
 211:main.c        ****                   }
 212:main.c        ****                }
 213:main.c        ****             }
 214:main.c        ****          }
 215:main.c        ****       }
 216:main.c        ****       
 217:main.c        ****       if(Ganancia<0.5){
 218:main.c        ****          Ganancia=0.5;
 219:main.c        ****       }
 220:main.c        ****       
 221:main.c        ****       
 222:main.c        ****       //if(error<0.0)     // Anti Wind_DOWN    
ARM GAS  C:\Users\USUARIO\AppData\Local\Temp\ccfDwbds.s 			page 6


 223:main.c        ****          //error=0.0;
 224:main.c        ****    
 225:main.c        ****       tmp=error*Ganancia;  // Control Proporcional.
 226:main.c        ****             
 227:main.c        ****       if(tmp>Setpoint)   // Anti Wind-UP_Read()==0      
 228:main.c        ****          tmp=Setpoint;
 229:main.c        ****                   
 230:main.c        ****       if(tmp<0.0)     // Anti Wind_DOWN    
 231:main.c        ****          tmp=0.0;
 232:main.c        ****       
 233:main.c        ****       // Tpulso(t)= Tciclo*(y(t)-ymin)/(ymax - ymin); calculo de ciclo util para control de resiste
 234:main.c        ****       // Tpulso es float, hay que pasar ese ciclo a una salida de un puerto usando el TMR1.
 235:main.c        ****       Tpulso=(tmp/Setpoint)*Tciclo; 
 236:main.c        ****       
 237:main.c        ****         if(error<(desvio+1) && error>0){
 238:main.c        ****          if(error<=(desvio+1) && error>0){   
 239:main.c        ****             if(flag_ajuste==0){
 240:main.c        ****                TpulsoMax=Tpulso;
 241:main.c        ****                flag_ajuste=1;  
 242:main.c        ****             }
 243:main.c        ****          }
 244:main.c        ****          
 245:main.c        ****          if(error<=desvio-1 && error>0){   
 246:main.c        ****             if(flag_ajuste2==0){
 247:main.c        ****                Tpulsomin=Tpulso;
 248:main.c        ****                flag_ajuste2=1;           
 249:main.c        ****             }
 250:main.c        ****          }
 251:main.c        ****          
 252:main.c        ****          if(flag_ajuste2==1){
 253:main.c        ****             if(Tpulso<Tpulsomin){
 254:main.c        ****                Tpulso=Tpulsomin;
 255:main.c        ****             }
 256:main.c        ****          }
 257:main.c        ****          if(flag_ajuste==1){   
 258:main.c        ****             if(Tpulso>TpulsoMax){
 259:main.c        ****                Tpulso=TpulsoMax;
 260:main.c        ****             } 
 261:main.c        ****          }
 262:main.c        ****       }
 263:main.c        ****       
 264:main.c        ****       if(error<0){
 265:main.c        ****          sobrepaso=1;
 266:main.c        ****          Tpulso=Tpulsomin/2;
 267:main.c        ****          if(tSobrepaso>300){
 268:main.c        ****             Tpulsomin-=0.1;
 269:main.c        ****             tSobrepaso=0;
 270:main.c        ****          }
 271:main.c        ****       }else{
 272:main.c        ****          sobrepaso=0;
 273:main.c        ****          tSobrepaso=0;
 274:main.c        ****       }
 275:main.c        ****       
 276:main.c        ****       if(Tpulso<0)Tpulso=0;
 277:main.c        ****       if(Tpulso>Tciclo)Tpulso=0;
 278:main.c        ****    }
 279:main.c        ****    Tp=(Tpulso/0.002);
ARM GAS  C:\Users\USUARIO\AppData\Local\Temp\ccfDwbds.s 			page 7


 280:main.c        ****    Tc=(Tciclo/0.002);
 281:main.c        ****    Control=1;     
 282:main.c        **** //-------------------------------------------------------------------------------------------------
 283:main.c        ****   
 284:main.c        **** }
 285:main.c        **** 
 286:main.c        **** void CuentaTiempo(){
 287:main.c        ****       if(tinicio>=60){
 288:main.c        ****          tinicio=0;
 289:main.c        ****          mEst+=1.0;
 290:main.c        ****          if(mEst>59){
 291:main.c        ****             mEst=0;
 292:main.c        ****             hEst+=1.0;
 293:main.c        ****          }
 294:main.c        ****       }
 295:main.c        **** }
 296:main.c        **** 
 297:main.c        **** void iniciaConteo(){
 298:main.c        ****    if(Pendiente!=0){
 299:main.c        ****         if(flagRampa)
 300:main.c        ****             tiempo_esterilizacion=1;
 301:main.c        ****         else
 302:main.c        ****             tiempo_esterilizacion=0;
 303:main.c        ****    }else if(Pendiente==0){
 304:main.c        ****       if(flagTemperatura && flagRampa)
 305:main.c        ****          tiempo_esterilizacion=1;
 306:main.c        ****       else
 307:main.c        ****          tiempo_esterilizacion=0;
 308:main.c        ****    }
 309:main.c        **** }
 310:main.c        **** 
 311:main.c        **** float leeTermocupla(uint8 media){
 312:main.c        ****     float Tref;
 313:main.c        ****     Tref=0.0;
 314:main.c        ****     Prom=0.0;
 315:main.c        ****     /* Measure cold junction temperature */
 316:main.c        **** 	coldJnTemp = MeasureColdJnSensorTemp();
 317:main.c        **** 	/* Convert cold junction temp to cold junction compensation voltage */
 318:main.c        **** 	tcColdJnuVolt = Thermocouple_1_GetVoltage(coldJnTemp);
 319:main.c        **** 	/* Read thermocouple hot junction voltage */
 320:main.c        **** 	//ADCMux_FastSelect(TC_HOT_JN_CHANNEL);
 321:main.c        **** 	ADC_SelectConfiguration(ADC_TC_Config,1);
 322:main.c        **** 	ADC_StartConvert();
 323:main.c        ****     /*Note in this example a blocking call is used, this can be replaced
 324:main.c        ****     with a polling method is required in your application*/
 325:main.c        **** 	ADC_IsEndConversion(ADC_WAIT_FOR_RESULT); 
 326:main.c        **** 	ADC_StopConvert();
 327:main.c        **** 	hotJnCount = ADC_GetResult32();
 328:main.c        **** 	/* Read ground reference voltage */
 329:main.c        **** 	offset = 0;//MeasureOffset();
 330:main.c        **** 	/* Correlated double sampling to remove ADC offset */
 331:main.c        **** 	hotJnCount -= offset;
 332:main.c        **** 	/* Filter signal */
 333:main.c        **** 	filHotJnCount = FilterSignal(hotJnCount);
 334:main.c        **** 	/* Find thermo-emf in microvolts */
 335:main.c        **** 	tcHotJnuVolt = ADC_CountsTo_uVolts(filHotJnCount);
 336:main.c        **** 	/* Perform Cold junction compensation */
ARM GAS  C:\Users\USUARIO\AppData\Local\Temp\ccfDwbds.s 			page 8


 337:main.c        **** 	tcuVolt = tcColdJnuVolt + tcHotJnuVolt;
 338:main.c        **** 	/* Convert thermo-emf to temperature */
 339:main.c        **** 	tcTemp = Thermocouple_1_GetTemperature(tcuVolt);
 340:main.c        ****     V0=(float)(tcTemp/100)+(float)(tcTemp-((tcTemp/100)*100))/100;
 341:main.c        ****             
 342:main.c        ****     if(l>(media-1))
 343:main.c        ****         l=0;
 344:main.c        ****    //promedio[l]=Temperature;l++;
 345:main.c        ****     promedio[l]=V0;l++;
 346:main.c        ****          
 347:main.c        ****     for(h=0;h<media;h++){
 348:main.c        ****         Prom+=promedio[h];
 349:main.c        ****     } 
 350:main.c        ****     Prom=Prom/media;   
 351:main.c        ****    
 352:main.c        ****     Prom+=((float)Ajuste-(float)Ajusten);
 353:main.c        ****     Tref=(Prom-b)/m;
 354:main.c        ****    
 355:main.c        ****     return Tref;
 356:main.c        ****     //return Temperature;
 357:main.c        **** }
 358:main.c        **** 
 359:main.c        **** CY_ISR(Reloj2){ 
  64              		.loc 1 359 0
  65              		.cfi_startproc
  66              		@ args = 0, pretend = 0, frame = 0
  67              		@ frame_needed = 0, uses_anonymous_args = 0
  68 0000 08B5     		push	{r3, lr}
  69              		.cfi_def_cfa_offset 8
  70              		.cfi_offset 3, -8
  71              		.cfi_offset 14, -4
 360:main.c        ****     tiempos++;
  72              		.loc 1 360 0
  73 0002 364A     		ldr	r2, .L34
  74 0004 1388     		ldrh	r3, [r2]
  75 0006 0133     		adds	r3, r3, #1
  76 0008 1380     		strh	r3, [r2]	@ movhi
 361:main.c        ****     tiempos3++;
  77              		.loc 1 361 0
  78 000a 354A     		ldr	r2, .L34+4
  79 000c 1388     		ldrh	r3, [r2]
  80 000e 0133     		adds	r3, r3, #1
  81 0010 1380     		strh	r3, [r2]	@ movhi
 362:main.c        ****     tiempoctrl++;
  82              		.loc 1 362 0
  83 0012 344A     		ldr	r2, .L34+8
  84 0014 1388     		ldrh	r3, [r2]
  85 0016 0133     		adds	r3, r3, #1
  86 0018 9BB2     		uxth	r3, r3
  87 001a 1380     		strh	r3, [r2]	@ movhi
 363:main.c        ****     
 364:main.c        ****     if(Control==1 && tcHotJnuVolt > BROKEN_TC_THRESHOLD){
  88              		.loc 1 364 0
  89 001c 324A     		ldr	r2, .L34+12
  90 001e B2F90020 		ldrsh	r2, [r2]
  91 0022 012A     		cmp	r2, #1
  92 0024 19D1     		bne	.L5
ARM GAS  C:\Users\USUARIO\AppData\Local\Temp\ccfDwbds.s 			page 9


  93              		.loc 1 364 0 is_stmt 0 discriminator 1
  94 0026 314A     		ldr	r2, .L34+16
  95 0028 1168     		ldr	r1, [r2]
  96 002a 314A     		ldr	r2, .L34+20
  97 002c 9142     		cmp	r1, r2
  98 002e 14DB     		blt	.L5
 365:main.c        ****         if(tiempoctrl>=Tc) // Si el tiempo de control es mayor al tiempo de ciclo se reinicia tiemp
  99              		.loc 1 365 0 is_stmt 1
 100 0030 304A     		ldr	r2, .L34+24
 101 0032 1288     		ldrh	r2, [r2]
 102 0034 9342     		cmp	r3, r2
 103 0036 02D3     		bcc	.L6
 366:main.c        ****             tiempoctrl=0;
 104              		.loc 1 366 0
 105 0038 0022     		movs	r2, #0
 106 003a 2A4B     		ldr	r3, .L34+8
 107 003c 1A80     		strh	r2, [r3]	@ movhi
 108              	.L6:
 367:main.c        ****         // tiempoctrl incrementa una unidad cada 5ms, por eso se dividen los tiempos por 0.005.
 368:main.c        ****       
 369:main.c        ****         if(tiempoctrl<=Tp) // Si el tiempo es menor o igual al tiempo de control se enciende la res
 109              		.loc 1 369 0
 110 003e 294B     		ldr	r3, .L34+8
 111 0040 1A88     		ldrh	r2, [r3]
 112 0042 2D4B     		ldr	r3, .L34+28
 113 0044 1B88     		ldrh	r3, [r3]
 114 0046 9A42     		cmp	r2, r3
 115 0048 03D8     		bhi	.L7
 370:main.c        ****             SSR_Write(1);
 116              		.loc 1 370 0
 117 004a 0120     		movs	r0, #1
 118 004c FFF7FEFF 		bl	SSR_Write
 119              	.LVL0:
 120 0050 0AE0     		b	.L8
 121              	.L7:
 371:main.c        ****         else         
 372:main.c        ****             SSR_Write(0);
 122              		.loc 1 372 0
 123 0052 0020     		movs	r0, #0
 124 0054 FFF7FEFF 		bl	SSR_Write
 125              	.LVL1:
 126 0058 06E0     		b	.L8
 127              	.L5:
 373:main.c        ****     }else{
 374:main.c        ****         if(!Test)
 128              		.loc 1 374 0
 129 005a 284B     		ldr	r3, .L34+32
 130 005c B3F90030 		ldrsh	r3, [r3]
 131 0060 13B9     		cbnz	r3, .L8
 375:main.c        ****             SSR_Write(0);
 132              		.loc 1 375 0
 133 0062 0020     		movs	r0, #0
 134 0064 FFF7FEFF 		bl	SSR_Write
 135              	.LVL2:
 136              	.L8:
 376:main.c        ****     }
 377:main.c        ****    
ARM GAS  C:\Users\USUARIO\AppData\Local\Temp\ccfDwbds.s 			page 10


 378:main.c        ****     if(UP_Read()==0){
 137              		.loc 1 378 0
 138 0068 FFF7FEFF 		bl	UP_Read
 139              	.LVL3:
 140 006c 40B9     		cbnz	r0, .L9
 379:main.c        ****         if(tup<2000)
 141              		.loc 1 379 0
 142 006e 244B     		ldr	r3, .L34+36
 143 0070 1B88     		ldrh	r3, [r3]
 144 0072 B3F5FA6F 		cmp	r3, #2000
 145 0076 06D2     		bcs	.L10
 380:main.c        ****             tup++;
 146              		.loc 1 380 0
 147 0078 0133     		adds	r3, r3, #1
 148 007a 214A     		ldr	r2, .L34+36
 149 007c 1380     		strh	r3, [r2]	@ movhi
 150 007e 02E0     		b	.L10
 151              	.L9:
 381:main.c        ****     }else{
 382:main.c        ****         tup=0;
 152              		.loc 1 382 0
 153 0080 0022     		movs	r2, #0
 154 0082 1F4B     		ldr	r3, .L34+36
 155 0084 1A80     		strh	r2, [r3]	@ movhi
 156              	.L10:
 383:main.c        ****     }
 384:main.c        ****     
 385:main.c        ****     if(DOWN_Read()==0){
 157              		.loc 1 385 0
 158 0086 FFF7FEFF 		bl	DOWN_Read
 159              	.LVL4:
 160 008a 40B9     		cbnz	r0, .L11
 386:main.c        ****         if(tdown<2000)
 161              		.loc 1 386 0
 162 008c 1D4B     		ldr	r3, .L34+40
 163 008e 1B88     		ldrh	r3, [r3]
 164 0090 B3F5FA6F 		cmp	r3, #2000
 165 0094 06D2     		bcs	.L12
 387:main.c        ****             tdown++;
 166              		.loc 1 387 0
 167 0096 0133     		adds	r3, r3, #1
 168 0098 1A4A     		ldr	r2, .L34+40
 169 009a 1380     		strh	r3, [r2]	@ movhi
 170 009c 02E0     		b	.L12
 171              	.L11:
 388:main.c        ****     }else{
 389:main.c        ****         tdown=0;
 172              		.loc 1 389 0
 173 009e 0022     		movs	r2, #0
 174 00a0 184B     		ldr	r3, .L34+40
 175 00a2 1A80     		strh	r2, [r3]	@ movhi
 176              	.L12:
 390:main.c        ****     }
 391:main.c        ****     
 392:main.c        ****     if(RIGHT_Read()==0){
 177              		.loc 1 392 0
 178 00a4 FFF7FEFF 		bl	RIGHT_Read
ARM GAS  C:\Users\USUARIO\AppData\Local\Temp\ccfDwbds.s 			page 11


 179              	.LVL5:
 180 00a8 40B9     		cbnz	r0, .L13
 393:main.c        ****         if(tright<2000)
 181              		.loc 1 393 0
 182 00aa 174B     		ldr	r3, .L34+44
 183 00ac 1B88     		ldrh	r3, [r3]
 184 00ae B3F5FA6F 		cmp	r3, #2000
 185 00b2 06D2     		bcs	.L14
 394:main.c        ****             tright++;
 186              		.loc 1 394 0
 187 00b4 0133     		adds	r3, r3, #1
 188 00b6 144A     		ldr	r2, .L34+44
 189 00b8 1380     		strh	r3, [r2]	@ movhi
 190 00ba 02E0     		b	.L14
 191              	.L13:
 395:main.c        ****     }else{
 396:main.c        ****         tright=0;
 192              		.loc 1 396 0
 193 00bc 0022     		movs	r2, #0
 194 00be 124B     		ldr	r3, .L34+44
 195 00c0 1A80     		strh	r2, [r3]	@ movhi
 196              	.L14:
 397:main.c        ****     }
 398:main.c        ****     
 399:main.c        ****     if(LEFT_Read()==0){
 197              		.loc 1 399 0
 198 00c2 FFF7FEFF 		bl	LEFT_Read
 199              	.LVL6:
 200 00c6 18BB     		cbnz	r0, .L15
 400:main.c        ****         if(tleft<2000)
 201              		.loc 1 400 0
 202 00c8 104B     		ldr	r3, .L34+48
 203 00ca 1B88     		ldrh	r3, [r3]
 204 00cc B3F5FA6F 		cmp	r3, #2000
 205 00d0 21D2     		bcs	.L16
 401:main.c        ****             tleft++;
 206              		.loc 1 401 0
 207 00d2 0133     		adds	r3, r3, #1
 208 00d4 0D4A     		ldr	r2, .L34+48
 209 00d6 1380     		strh	r3, [r2]	@ movhi
 210 00d8 1DE0     		b	.L16
 211              	.L35:
 212 00da 00BF     		.align	2
 213              	.L34:
 214 00dc 00000000 		.word	tiempos
 215 00e0 00000000 		.word	tiempos3
 216 00e4 00000000 		.word	tiempoctrl
 217 00e8 00000000 		.word	Control
 218 00ec 00000000 		.word	tcHotJnuVolt
 219 00f0 F1D8FFFF 		.word	-9999
 220 00f4 00000000 		.word	Tc
 221 00f8 00000000 		.word	Tp
 222 00fc 00000000 		.word	Test
 223 0100 00000000 		.word	tup
 224 0104 00000000 		.word	tdown
 225 0108 00000000 		.word	tright
 226 010c 00000000 		.word	tleft
ARM GAS  C:\Users\USUARIO\AppData\Local\Temp\ccfDwbds.s 			page 12


 227              	.L15:
 402:main.c        ****     }else{
 403:main.c        ****         tleft=0;
 228              		.loc 1 403 0
 229 0110 0022     		movs	r2, #0
 230 0112 714B     		ldr	r3, .L36
 231 0114 1A80     		strh	r2, [r3]	@ movhi
 232              	.L16:
 404:main.c        ****     }
 405:main.c        ****     
 406:main.c        ****     if(tiempos3>=500){
 233              		.loc 1 406 0
 234 0116 714B     		ldr	r3, .L36+4
 235 0118 1B88     		ldrh	r3, [r3]
 236 011a B3F5FA7F 		cmp	r3, #500
 237 011e 15D3     		bcc	.L17
 407:main.c        ****         Lectura2=1;
 238              		.loc 1 407 0
 239 0120 0122     		movs	r2, #1
 240 0122 6F4B     		ldr	r3, .L36+8
 241 0124 1A80     		strh	r2, [r3]	@ movhi
 408:main.c        ****         if(flagup)
 242              		.loc 1 408 0
 243 0126 6F4B     		ldr	r3, .L36+12
 244 0128 B3F90030 		ldrsh	r3, [r3]
 245 012c 1BB1     		cbz	r3, .L18
 409:main.c        ****             tiempoup++;
 246              		.loc 1 409 0
 247 012e 6E4A     		ldr	r2, .L36+16
 248 0130 1388     		ldrh	r3, [r2]
 249 0132 0133     		adds	r3, r3, #1
 250 0134 1380     		strh	r3, [r2]	@ movhi
 251              	.L18:
 410:main.c        ****         if(flagdn)
 252              		.loc 1 410 0
 253 0136 6D4B     		ldr	r3, .L36+20
 254 0138 B3F90030 		ldrsh	r3, [r3]
 255 013c 1BB1     		cbz	r3, .L19
 411:main.c        ****             tiempodn++;   
 256              		.loc 1 411 0
 257 013e 6C4A     		ldr	r2, .L36+24
 258 0140 1388     		ldrh	r3, [r2]
 259 0142 0133     		adds	r3, r3, #1
 260 0144 1380     		strh	r3, [r2]	@ movhi
 261              	.L19:
 412:main.c        ****         tiempos3=0;
 262              		.loc 1 412 0
 263 0146 0022     		movs	r2, #0
 264 0148 644B     		ldr	r3, .L36+4
 265 014a 1A80     		strh	r2, [r3]	@ movhi
 266              	.L17:
 413:main.c        ****     }
 414:main.c        ****     
 415:main.c        ****     if(tiempos>=500){  // Cuenta cada 2ms        
 267              		.loc 1 415 0
 268 014c 694B     		ldr	r3, .L36+28
 269 014e 1B88     		ldrh	r3, [r3]
ARM GAS  C:\Users\USUARIO\AppData\Local\Temp\ccfDwbds.s 			page 13


 270 0150 B3F5FA7F 		cmp	r3, #500
 271 0154 C0F0BE80 		bcc	.L4
 416:main.c        ****         tiempos=0;Lectura=1;tiemporeset++;TiempoControl++;tiemporecta++;mensaje=!mensaje;
 272              		.loc 1 416 0
 273 0158 0022     		movs	r2, #0
 274 015a 664B     		ldr	r3, .L36+28
 275 015c 1A80     		strh	r2, [r3]	@ movhi
 276 015e 0122     		movs	r2, #1
 277 0160 654B     		ldr	r3, .L36+32
 278 0162 1A80     		strh	r2, [r3]	@ movhi
 279 0164 654A     		ldr	r2, .L36+36
 280 0166 1388     		ldrh	r3, [r2]
 281 0168 0133     		adds	r3, r3, #1
 282 016a 1380     		strh	r3, [r2]	@ movhi
 283 016c 644A     		ldr	r2, .L36+40
 284 016e 1388     		ldrh	r3, [r2]
 285 0170 0133     		adds	r3, r3, #1
 286 0172 1380     		strh	r3, [r2]	@ movhi
 287 0174 634A     		ldr	r2, .L36+44
 288 0176 1388     		ldrh	r3, [r2]
 289 0178 0133     		adds	r3, r3, #1
 290 017a 1380     		strh	r3, [r2]	@ movhi
 291 017c 624A     		ldr	r2, .L36+48
 292 017e B2F90030 		ldrsh	r3, [r2]
 293 0182 B3FA83F3 		clz	r3, r3
 294 0186 5B09     		lsrs	r3, r3, #5
 295 0188 1380     		strh	r3, [r2]	@ movhi
 417:main.c        ****    
 418:main.c        ****         if(finalizoCiclo){
 296              		.loc 1 418 0
 297 018a 604B     		ldr	r3, .L36+52
 298 018c B3F90030 		ldrsh	r3, [r3]
 299 0190 002B     		cmp	r3, #0
 300 0192 38D0     		beq	.L21
 419:main.c        ****             segundosCampana++;
 301              		.loc 1 419 0
 302 0194 5E4A     		ldr	r2, .L36+56
 303 0196 1378     		ldrb	r3, [r2]	@ zero_extendqisi2
 304 0198 0133     		adds	r3, r3, #1
 305 019a DBB2     		uxtb	r3, r3
 306 019c 1370     		strb	r3, [r2]
 420:main.c        ****             if(segundosCampana>=60){
 307              		.loc 1 420 0
 308 019e 3B2B     		cmp	r3, #59
 309 01a0 31D9     		bls	.L21
 421:main.c        ****                 segundosCampana=0;
 310              		.loc 1 421 0
 311 01a2 0022     		movs	r2, #0
 312 01a4 5A4B     		ldr	r3, .L36+56
 313 01a6 1A70     		strb	r2, [r3]
 422:main.c        ****                 Tempoc[0]++;
 314              		.loc 1 422 0
 315 01a8 5A4A     		ldr	r2, .L36+60
 316 01aa 92F90030 		ldrsb	r3, [r2]
 317 01ae 0133     		adds	r3, r3, #1
 318 01b0 5BB2     		sxtb	r3, r3
 319 01b2 1370     		strb	r3, [r2]
ARM GAS  C:\Users\USUARIO\AppData\Local\Temp\ccfDwbds.s 			page 14


 423:main.c        ****                 if(Tempoc[0]>9){
 320              		.loc 1 423 0
 321 01b4 092B     		cmp	r3, #9
 322 01b6 06DD     		ble	.L22
 424:main.c        ****                     Tempoc[0]=0;
 323              		.loc 1 424 0
 324 01b8 1346     		mov	r3, r2
 325 01ba 0022     		movs	r2, #0
 326 01bc 1A70     		strb	r2, [r3]
 425:main.c        ****                     Tempoc[1]++;
 327              		.loc 1 425 0
 328 01be 93F90120 		ldrsb	r2, [r3, #1]
 329 01c2 0132     		adds	r2, r2, #1
 330 01c4 5A70     		strb	r2, [r3, #1]
 331              	.L22:
 426:main.c        ****                 }
 427:main.c        ****                 if(Tempoc[1]>5){
 332              		.loc 1 427 0
 333 01c6 534B     		ldr	r3, .L36+60
 334 01c8 93F90130 		ldrsb	r3, [r3, #1]
 335 01cc 052B     		cmp	r3, #5
 336 01ce 06DD     		ble	.L23
 428:main.c        ****                     Tempoc[1]=0;
 337              		.loc 1 428 0
 338 01d0 504B     		ldr	r3, .L36+60
 339 01d2 0022     		movs	r2, #0
 340 01d4 5A70     		strb	r2, [r3, #1]
 429:main.c        ****                     Tempoc[2]++;
 341              		.loc 1 429 0
 342 01d6 93F90220 		ldrsb	r2, [r3, #2]
 343 01da 0132     		adds	r2, r2, #1
 344 01dc 9A70     		strb	r2, [r3, #2]
 345              	.L23:
 430:main.c        ****                 }
 431:main.c        ****                 if(Tempoc[2]>9){
 346              		.loc 1 431 0
 347 01de 4D4B     		ldr	r3, .L36+60
 348 01e0 93F90230 		ldrsb	r3, [r3, #2]
 349 01e4 092B     		cmp	r3, #9
 350 01e6 06DD     		ble	.L24
 432:main.c        ****                     Tempoc[2]=0;
 351              		.loc 1 432 0
 352 01e8 4A4B     		ldr	r3, .L36+60
 353 01ea 0022     		movs	r2, #0
 354 01ec 9A70     		strb	r2, [r3, #2]
 433:main.c        ****                     Tempoc[3]++;
 355              		.loc 1 433 0
 356 01ee 93F90320 		ldrsb	r2, [r3, #3]
 357 01f2 0132     		adds	r2, r2, #1
 358 01f4 DA70     		strb	r2, [r3, #3]
 359              	.L24:
 434:main.c        ****                 }
 435:main.c        ****                 if(Tempoc[3]>5){
 360              		.loc 1 435 0
 361 01f6 474B     		ldr	r3, .L36+60
 362 01f8 93F90330 		ldrsb	r3, [r3, #3]
 363 01fc 052B     		cmp	r3, #5
ARM GAS  C:\Users\USUARIO\AppData\Local\Temp\ccfDwbds.s 			page 15


 364 01fe 02DD     		ble	.L21
 436:main.c        ****                     Tempoc[3]=0;
 365              		.loc 1 436 0
 366 0200 0022     		movs	r2, #0
 367 0202 444B     		ldr	r3, .L36+60
 368 0204 DA70     		strb	r2, [r3, #3]
 369              	.L21:
 437:main.c        ****                 }     
 438:main.c        ****             }
 439:main.c        ****         }
 440:main.c        ****         
 441:main.c        ****         if(conteoPregunta)tPregunta++;
 370              		.loc 1 441 0
 371 0206 444B     		ldr	r3, .L36+64
 372 0208 B3F90030 		ldrsh	r3, [r3]
 373 020c 1BB1     		cbz	r3, .L25
 374              		.loc 1 441 0 is_stmt 0 discriminator 1
 375 020e 434A     		ldr	r2, .L36+68
 376 0210 1388     		ldrh	r3, [r2]
 377 0212 0133     		adds	r3, r3, #1
 378 0214 1380     		strh	r3, [r2]	@ movhi
 379              	.L25:
 442:main.c        ****         
 443:main.c        ****         if(sobrepaso==1)
 380              		.loc 1 443 0 is_stmt 1
 381 0216 424B     		ldr	r3, .L36+72
 382 0218 B3F90030 		ldrsh	r3, [r3]
 383 021c 012B     		cmp	r3, #1
 384 021e 03D1     		bne	.L26
 444:main.c        ****          tSobrepaso++;
 385              		.loc 1 444 0
 386 0220 404A     		ldr	r2, .L36+76
 387 0222 1388     		ldrh	r3, [r2]
 388 0224 0133     		adds	r3, r3, #1
 389 0226 1380     		strh	r3, [r2]	@ movhi
 390              	.L26:
 445:main.c        ****         
 446:main.c        ****         if(flag_setpoint==1)
 391              		.loc 1 446 0
 392 0228 3F4B     		ldr	r3, .L36+80
 393 022a B3F90030 		ldrsh	r3, [r3]
 394 022e 012B     		cmp	r3, #1
 395 0230 03D1     		bne	.L27
 447:main.c        ****             tiemposetpoint++;
 396              		.loc 1 447 0
 397 0232 3E4A     		ldr	r2, .L36+84
 398 0234 1388     		ldrh	r3, [r2]
 399 0236 0133     		adds	r3, r3, #1
 400 0238 1380     		strh	r3, [r2]	@ movhi
 401              	.L27:
 448:main.c        ****       
 449:main.c        ****         if(tiempo_esterilizacion==1 || tiempo_esterilizacion==2){               
 402              		.loc 1 449 0
 403 023a 3D4B     		ldr	r3, .L36+88
 404 023c 1B78     		ldrb	r3, [r3]	@ zero_extendqisi2
 405 023e 013B     		subs	r3, r3, #1
 406 0240 DBB2     		uxtb	r3, r3
ARM GAS  C:\Users\USUARIO\AppData\Local\Temp\ccfDwbds.s 			page 16


 407 0242 012B     		cmp	r3, #1
 408 0244 07D8     		bhi	.L28
 450:main.c        ****             tinicio++;
 409              		.loc 1 450 0
 410 0246 3B4A     		ldr	r2, .L36+92
 411 0248 1388     		ldrh	r3, [r2]
 412 024a 0133     		adds	r3, r3, #1
 413 024c 1380     		strh	r3, [r2]	@ movhi
 451:main.c        ****             tGrafica++;
 414              		.loc 1 451 0
 415 024e 3A4A     		ldr	r2, .L36+96
 416 0250 1368     		ldr	r3, [r2]
 417 0252 0133     		adds	r3, r3, #1
 418 0254 1360     		str	r3, [r2]
 419              	.L28:
 452:main.c        ****         }
 453:main.c        ****              
 454:main.c        ****         if(flag_tiempocalentamiento==1)
 420              		.loc 1 454 0
 421 0256 394B     		ldr	r3, .L36+100
 422 0258 B3F90030 		ldrsh	r3, [r3]
 423 025c 012B     		cmp	r3, #1
 424 025e 03D1     		bne	.L29
 455:main.c        ****             tiempocalentamiento++;
 425              		.loc 1 455 0
 426 0260 374A     		ldr	r2, .L36+104
 427 0262 1388     		ldrh	r3, [r2]
 428 0264 0133     		adds	r3, r3, #1
 429 0266 1380     		strh	r3, [r2]	@ movhi
 430              	.L29:
 456:main.c        ****         
 457:main.c        ****         if(tinicio>=60){
 431              		.loc 1 457 0
 432 0268 324B     		ldr	r3, .L36+92
 433 026a 1B88     		ldrh	r3, [r3]
 434 026c 3B2B     		cmp	r3, #59
 435 026e 31D9     		bls	.L4
 458:main.c        ****             tinicio=0;   
 436              		.loc 1 458 0
 437 0270 0022     		movs	r2, #0
 438 0272 304B     		ldr	r3, .L36+92
 439 0274 1A80     		strh	r2, [r3]	@ movhi
 459:main.c        ****             Testerilizacion[0]++;
 440              		.loc 1 459 0
 441 0276 334A     		ldr	r2, .L36+108
 442 0278 92F90430 		ldrsb	r3, [r2, #4]
 443 027c 0133     		adds	r3, r3, #1
 444 027e 5BB2     		sxtb	r3, r3
 445 0280 1371     		strb	r3, [r2, #4]
 460:main.c        ****             if(Testerilizacion[0]>9){
 446              		.loc 1 460 0
 447 0282 092B     		cmp	r3, #9
 448 0284 06DD     		ble	.L30
 461:main.c        ****                 Testerilizacion[0]=0;
 449              		.loc 1 461 0
 450 0286 1346     		mov	r3, r2
 451 0288 0022     		movs	r2, #0
ARM GAS  C:\Users\USUARIO\AppData\Local\Temp\ccfDwbds.s 			page 17


 452 028a 1A71     		strb	r2, [r3, #4]
 462:main.c        ****                 Testerilizacion[1]++;
 453              		.loc 1 462 0
 454 028c 93F90520 		ldrsb	r2, [r3, #5]
 455 0290 0132     		adds	r2, r2, #1
 456 0292 5A71     		strb	r2, [r3, #5]
 457              	.L30:
 463:main.c        ****             }
 464:main.c        ****             if(Testerilizacion[1]>5){
 458              		.loc 1 464 0
 459 0294 2B4B     		ldr	r3, .L36+108
 460 0296 93F90530 		ldrsb	r3, [r3, #5]
 461 029a 052B     		cmp	r3, #5
 462 029c 06DD     		ble	.L31
 465:main.c        ****                 Testerilizacion[1]=0;
 463              		.loc 1 465 0
 464 029e 294B     		ldr	r3, .L36+108
 465 02a0 0022     		movs	r2, #0
 466 02a2 5A71     		strb	r2, [r3, #5]
 466:main.c        ****                 Testerilizacion[2]++;
 467              		.loc 1 466 0
 468 02a4 93F90620 		ldrsb	r2, [r3, #6]
 469 02a8 0132     		adds	r2, r2, #1
 470 02aa 9A71     		strb	r2, [r3, #6]
 471              	.L31:
 467:main.c        ****             }
 468:main.c        ****             if(Testerilizacion[2]>9){
 472              		.loc 1 468 0
 473 02ac 254B     		ldr	r3, .L36+108
 474 02ae 93F90630 		ldrsb	r3, [r3, #6]
 475 02b2 092B     		cmp	r3, #9
 476 02b4 06DD     		ble	.L32
 469:main.c        ****                 Testerilizacion[2]=0;
 477              		.loc 1 469 0
 478 02b6 234B     		ldr	r3, .L36+108
 479 02b8 0022     		movs	r2, #0
 480 02ba 9A71     		strb	r2, [r3, #6]
 470:main.c        ****                 Testerilizacion[3]++;
 481              		.loc 1 470 0
 482 02bc 93F90720 		ldrsb	r2, [r3, #7]
 483 02c0 0132     		adds	r2, r2, #1
 484 02c2 DA71     		strb	r2, [r3, #7]
 485              	.L32:
 471:main.c        ****             }
 472:main.c        ****             if(Testerilizacion[3]>9){
 486              		.loc 1 472 0
 487 02c4 1F4B     		ldr	r3, .L36+108
 488 02c6 93F90730 		ldrsb	r3, [r3, #7]
 489 02ca 092B     		cmp	r3, #9
 490 02cc 02DD     		ble	.L4
 473:main.c        ****                 Testerilizacion[3]=0;
 491              		.loc 1 473 0
 492 02ce 0022     		movs	r2, #0
 493 02d0 1C4B     		ldr	r3, .L36+108
 494 02d2 DA71     		strb	r2, [r3, #7]
 495              	.L4:
 496 02d4 08BD     		pop	{r3, pc}
ARM GAS  C:\Users\USUARIO\AppData\Local\Temp\ccfDwbds.s 			page 18


 497              	.L37:
 498 02d6 00BF     		.align	2
 499              	.L36:
 500 02d8 00000000 		.word	tleft
 501 02dc 00000000 		.word	tiempos3
 502 02e0 00000000 		.word	Lectura2
 503 02e4 00000000 		.word	flagup
 504 02e8 00000000 		.word	tiempoup
 505 02ec 00000000 		.word	flagdn
 506 02f0 00000000 		.word	tiempodn
 507 02f4 00000000 		.word	tiempos
 508 02f8 00000000 		.word	Lectura
 509 02fc 00000000 		.word	tiemporeset
 510 0300 00000000 		.word	TiempoControl
 511 0304 00000000 		.word	tiemporecta
 512 0308 00000000 		.word	mensaje
 513 030c 00000000 		.word	finalizoCiclo
 514 0310 00000000 		.word	segundosCampana
 515 0314 00000000 		.word	Tempoc
 516 0318 00000000 		.word	conteoPregunta
 517 031c 00000000 		.word	tPregunta
 518 0320 00000000 		.word	sobrepaso
 519 0324 00000000 		.word	tSobrepaso
 520 0328 00000000 		.word	flag_setpoint
 521 032c 00000000 		.word	tiemposetpoint
 522 0330 00000000 		.word	tiempo_esterilizacion
 523 0334 00000000 		.word	tinicio
 524 0338 00000000 		.word	tGrafica
 525 033c 00000000 		.word	flag_tiempocalentamiento
 526 0340 00000000 		.word	tiempocalentamiento
 527 0344 00000000 		.word	.LANCHOR0
 528              		.cfi_endproc
 529              	.LFE70:
 530              		.size	Reloj2, .-Reloj2
 531              		.section	.text.inteRX1,"ax",%progbits
 532              		.align	2
 533              		.global	inteRX1
 534              		.thumb
 535              		.thumb_func
 536              		.type	inteRX1, %function
 537              	inteRX1:
 538              	.LFB71:
 474:main.c        ****             }
 475:main.c        ****         }
 476:main.c        ****     }     
 477:main.c        **** }
 478:main.c        **** 
 479:main.c        **** CY_ISR(inteRX1){
 539              		.loc 1 479 0
 540              		.cfi_startproc
 541              		@ args = 0, pretend = 0, frame = 0
 542              		@ frame_needed = 0, uses_anonymous_args = 0
 543 0000 08B5     		push	{r3, lr}
 544              		.cfi_def_cfa_offset 8
 545              		.cfi_offset 3, -8
 546              		.cfi_offset 14, -4
 480:main.c        ****     Dato3=UART_1_GetByte();
ARM GAS  C:\Users\USUARIO\AppData\Local\Temp\ccfDwbds.s 			page 19


 547              		.loc 1 480 0
 548 0002 FFF7FEFF 		bl	UART_1_GetByte
 549              	.LVL7:
 550 0006 C0B2     		uxtb	r0, r0
 551 0008 1D4B     		ldr	r3, .L45
 552 000a 1870     		strb	r0, [r3]
 481:main.c        ****    if(Dato3==0x65){//Inicio Comunicacion
 553              		.loc 1 481 0
 554 000c 6528     		cmp	r0, #101
 555 000e 05D1     		bne	.L39
 482:main.c        ****       Inicio2=1;
 556              		.loc 1 482 0
 557 0010 0122     		movs	r2, #1
 558 0012 1C4B     		ldr	r3, .L45+4
 559 0014 1A80     		strh	r2, [r3]	@ movhi
 483:main.c        ****       RX_Wr_Index2 =0;
 560              		.loc 1 483 0
 561 0016 0022     		movs	r2, #0
 562 0018 1B4B     		ldr	r3, .L45+8
 563 001a 1A72     		strb	r2, [r3, #8]
 564              	.L39:
 484:main.c        ****    }
 485:main.c        ****    if(Inicio2==1){
 565              		.loc 1 485 0
 566 001c 194B     		ldr	r3, .L45+4
 567 001e B3F90030 		ldrsh	r3, [r3]
 568 0022 012B     		cmp	r3, #1
 569 0024 05D1     		bne	.L40
 486:main.c        ****       Rx_Buffer4[RX_Wr_Index2] = Dato3;
 570              		.loc 1 486 0
 571 0026 184A     		ldr	r2, .L45+8
 572 0028 137A     		ldrb	r3, [r2, #8]	@ zero_extendqisi2
 573 002a 1849     		ldr	r1, .L45+12
 574 002c C854     		strb	r0, [r1, r3]
 487:main.c        ****       RX_Wr_Index2++;
 575              		.loc 1 487 0
 576 002e 0133     		adds	r3, r3, #1
 577 0030 1372     		strb	r3, [r2, #8]
 578              	.L40:
 488:main.c        ****    }
 489:main.c        ****    if(RX_Wr_Index2 >= RX_BUFFER_SIZE){
 579              		.loc 1 489 0
 580 0032 154B     		ldr	r3, .L45+8
 581 0034 1B7A     		ldrb	r3, [r3, #8]	@ zero_extendqisi2
 582 0036 092B     		cmp	r3, #9
 583 0038 04D9     		bls	.L41
 490:main.c        ****       RX_Wr_Index2 =0;
 584              		.loc 1 490 0
 585 003a 0023     		movs	r3, #0
 586 003c 124A     		ldr	r2, .L45+8
 587 003e 1372     		strb	r3, [r2, #8]
 491:main.c        ****       Inicio2=0;
 588              		.loc 1 491 0
 589 0040 104A     		ldr	r2, .L45+4
 590 0042 1380     		strh	r3, [r2]	@ movhi
 591              	.L41:
 492:main.c        ****    }
ARM GAS  C:\Users\USUARIO\AppData\Local\Temp\ccfDwbds.s 			page 20


 493:main.c        ****    if(RX_Wr_Index2==0){
 592              		.loc 1 493 0
 593 0044 104B     		ldr	r3, .L45+8
 594 0046 1B7A     		ldrb	r3, [r3, #8]	@ zero_extendqisi2
 595 0048 CBB9     		cbnz	r3, .L38
 494:main.c        ****       if(Rx_Buffer4[0]==0x65 && Rx_Buffer4[1]==0xff && Rx_Buffer4[2]==0xff && Rx_Buffer4[8]==0x00 &
 596              		.loc 1 494 0
 597 004a 104B     		ldr	r3, .L45+12
 598 004c 1B78     		ldrb	r3, [r3]	@ zero_extendqisi2
 599 004e 652B     		cmp	r3, #101
 600 0050 12D1     		bne	.L43
 601              		.loc 1 494 0 is_stmt 0 discriminator 1
 602 0052 0E4B     		ldr	r3, .L45+12
 603 0054 5B78     		ldrb	r3, [r3, #1]	@ zero_extendqisi2
 604 0056 FF2B     		cmp	r3, #255
 605 0058 0ED1     		bne	.L43
 606              		.loc 1 494 0 discriminator 2
 607 005a 0C4B     		ldr	r3, .L45+12
 608 005c 9B78     		ldrb	r3, [r3, #2]	@ zero_extendqisi2
 609 005e FF2B     		cmp	r3, #255
 610 0060 0AD1     		bne	.L43
 611              		.loc 1 494 0 discriminator 3
 612 0062 0A4B     		ldr	r3, .L45+12
 613 0064 1B7A     		ldrb	r3, [r3, #8]	@ zero_extendqisi2
 614 0066 3BB9     		cbnz	r3, .L43
 615              		.loc 1 494 0 discriminator 4
 616 0068 084B     		ldr	r3, .L45+12
 617 006a 5B7A     		ldrb	r3, [r3, #9]	@ zero_extendqisi2
 618 006c FF2B     		cmp	r3, #255
 619 006e 03D1     		bne	.L43
 495:main.c        ****          Dato_Exitoso2=5;
 620              		.loc 1 495 0 is_stmt 1
 621 0070 0522     		movs	r2, #5
 622 0072 074B     		ldr	r3, .L45+16
 623 0074 1A70     		strb	r2, [r3]
 624 0076 08BD     		pop	{r3, pc}
 625              	.L43:
 496:main.c        ****       else
 497:main.c        ****          Dato_Exitoso2=10;
 626              		.loc 1 497 0
 627 0078 0A22     		movs	r2, #10
 628 007a 054B     		ldr	r3, .L45+16
 629 007c 1A70     		strb	r2, [r3]
 630              	.L38:
 631 007e 08BD     		pop	{r3, pc}
 632              	.L46:
 633              		.align	2
 634              	.L45:
 635 0080 00000000 		.word	Dato3
 636 0084 00000000 		.word	Inicio2
 637 0088 00000000 		.word	.LANCHOR0
 638 008c 00000000 		.word	Rx_Buffer4
 639 0090 00000000 		.word	Dato_Exitoso2
 640              		.cfi_endproc
 641              	.LFE71:
 642              		.size	inteRX1, .-inteRX1
 643              		.global	__aeabi_fsub
ARM GAS  C:\Users\USUARIO\AppData\Local\Temp\ccfDwbds.s 			page 21


 644              		.global	__aeabi_i2f
 645              		.global	__aeabi_fdiv
 646              		.global	__aeabi_fmul
 647              		.section	.text.ActualizaRecta,"ax",%progbits
 648              		.align	2
 649              		.global	ActualizaRecta
 650              		.thumb
 651              		.thumb_func
 652              		.type	ActualizaRecta, %function
 653              	ActualizaRecta:
 654              	.LFB65:
 104:main.c        ****    X[y]=Temperatura;
 655              		.loc 1 104 0
 656              		.cfi_startproc
 657              		@ args = 0, pretend = 0, frame = 0
 658              		@ frame_needed = 0, uses_anonymous_args = 0
 659 0000 70B5     		push	{r4, r5, r6, lr}
 660              		.cfi_def_cfa_offset 16
 661              		.cfi_offset 4, -16
 662              		.cfi_offset 5, -12
 663              		.cfi_offset 6, -8
 664              		.cfi_offset 14, -4
 105:main.c        ****    y++;
 665              		.loc 1 105 0
 666 0002 2E49     		ldr	r1, .L50
 667 0004 0B78     		ldrb	r3, [r1]	@ zero_extendqisi2
 668 0006 2E4A     		ldr	r2, .L50+4
 669 0008 1468     		ldr	r4, [r2]	@ float
 670 000a 2E4A     		ldr	r2, .L50+8
 671 000c 02EB8302 		add	r2, r2, r3, lsl #2
 672 0010 D460     		str	r4, [r2, #12]	@ float
 106:main.c        ****    if(y>=2){
 673              		.loc 1 106 0
 674 0012 0133     		adds	r3, r3, #1
 675 0014 DBB2     		uxtb	r3, r3
 676 0016 0B70     		strb	r3, [r1]
 107:main.c        ****       y=0;
 677              		.loc 1 107 0
 678 0018 012B     		cmp	r3, #1
 679 001a 4DD9     		bls	.L47
 108:main.c        ****       Aumento=X[1]-X[0];
 680              		.loc 1 108 0
 681 001c 0022     		movs	r2, #0
 682 001e 0A70     		strb	r2, [r1]
 109:main.c        ****       HorasActual=(Testerilizacion[3]*10)+Testerilizacion[2];
 683              		.loc 1 109 0
 684 0020 284E     		ldr	r6, .L50+8
 685 0022 F168     		ldr	r1, [r6, #12]	@ float
 686 0024 3069     		ldr	r0, [r6, #16]	@ float
 687 0026 FFF7FEFF 		bl	__aeabi_fsub
 688              	.LVL8:
 689 002a 0546     		mov	r5, r0
 690 002c 264B     		ldr	r3, .L50+12
 691 002e 1860     		str	r0, [r3]	@ float
 110:main.c        ****       MinutosActual=(Testerilizacion[1]*10)+Testerilizacion[0];
 692              		.loc 1 110 0
 693 0030 96F90710 		ldrsb	r1, [r6, #7]
ARM GAS  C:\Users\USUARIO\AppData\Local\Temp\ccfDwbds.s 			page 22


 694 0034 96F90620 		ldrsb	r2, [r6, #6]
 695 0038 01EB8101 		add	r1, r1, r1, lsl #2
 696 003c 02EB4101 		add	r1, r2, r1, lsl #1
 697 0040 89B2     		uxth	r1, r1
 698 0042 224B     		ldr	r3, .L50+16
 699 0044 1980     		strh	r1, [r3]	@ movhi
 111:main.c        ****       TiempoActual=Tiempo-((HorasActual*3600)+(MinutosActual*60)+tinicio);
 700              		.loc 1 111 0
 701 0046 96F90530 		ldrsb	r3, [r6, #5]
 702 004a 96F90420 		ldrsb	r2, [r6, #4]
 703 004e 03EB8303 		add	r3, r3, r3, lsl #2
 704 0052 02EB4303 		add	r3, r2, r3, lsl #1
 705 0056 9BB2     		uxth	r3, r3
 706 0058 1D4A     		ldr	r2, .L50+20
 707 005a 1380     		strh	r3, [r2]	@ movhi
 112:main.c        ****       PendienteActual=((Setpoint-Temperatura)/TiempoActual);
 708              		.loc 1 112 0
 709 005c C1EB0111 		rsb	r1, r1, r1, lsl #4
 710 0060 C1EB0111 		rsb	r1, r1, r1, lsl #4
 711 0064 C3EB0313 		rsb	r3, r3, r3, lsl #4
 712 0068 9B00     		lsls	r3, r3, #2
 713 006a 03EB0113 		add	r3, r3, r1, lsl #4
 714 006e 194A     		ldr	r2, .L50+24
 715 0070 1688     		ldrh	r6, [r2]
 716 0072 1E44     		add	r6, r6, r3
 717 0074 184B     		ldr	r3, .L50+28
 718 0076 1A88     		ldrh	r2, [r3]
 719 0078 961B     		subs	r6, r2, r6
 720 007a B6B2     		uxth	r6, r6
 721 007c 174B     		ldr	r3, .L50+32
 722 007e 1E80     		strh	r6, [r3]	@ movhi
 113:main.c        ****       DifPendiente=(PendienteActual*20)-Aumento;
 723              		.loc 1 113 0
 724 0080 174B     		ldr	r3, .L50+36
 725 0082 1888     		ldrh	r0, [r3]
 726 0084 FFF7FEFF 		bl	__aeabi_i2f
 727              	.LVL9:
 728 0088 2146     		mov	r1, r4
 729 008a FFF7FEFF 		bl	__aeabi_fsub
 730              	.LVL10:
 731 008e 0446     		mov	r4, r0
 732 0090 3046     		mov	r0, r6
 733 0092 FFF7FEFF 		bl	__aeabi_i2f
 734              	.LVL11:
 735 0096 0146     		mov	r1, r0
 736 0098 2046     		mov	r0, r4
 737 009a FFF7FEFF 		bl	__aeabi_fdiv
 738              	.LVL12:
 739 009e 114B     		ldr	r3, .L50+40
 740 00a0 1860     		str	r0, [r3]	@ float
 114:main.c        ****       DifPendiente=DifPendiente*5;
 741              		.loc 1 114 0
 742 00a2 1149     		ldr	r1, .L50+44
 743 00a4 FFF7FEFF 		bl	__aeabi_fmul
 744              	.LVL13:
 745 00a8 2946     		mov	r1, r5
 746 00aa FFF7FEFF 		bl	__aeabi_fsub
ARM GAS  C:\Users\USUARIO\AppData\Local\Temp\ccfDwbds.s 			page 23


 747              	.LVL14:
 115:main.c        ****    }
 748              		.loc 1 115 0
 749 00ae 0F49     		ldr	r1, .L50+48
 750 00b0 FFF7FEFF 		bl	__aeabi_fmul
 751              	.LVL15:
 752 00b4 0E4B     		ldr	r3, .L50+52
 753 00b6 1860     		str	r0, [r3]	@ float
 754              	.L47:
 755 00b8 70BD     		pop	{r4, r5, r6, pc}
 756              	.L51:
 757 00ba 00BF     		.align	2
 758              	.L50:
 759 00bc 00000000 		.word	y
 760 00c0 00000000 		.word	Temperatura
 761 00c4 00000000 		.word	.LANCHOR0
 762 00c8 00000000 		.word	Aumento
 763 00cc 00000000 		.word	HorasActual
 764 00d0 00000000 		.word	MinutosActual
 765 00d4 00000000 		.word	tinicio
 766 00d8 00000000 		.word	Tiempo
 767 00dc 00000000 		.word	TiempoActual
 768 00e0 00000000 		.word	Setpoint
 769 00e4 00000000 		.word	PendienteActual
 770 00e8 0000A041 		.word	1101004800
 771 00ec 0000A040 		.word	1084227584
 772 00f0 00000000 		.word	DifPendiente
 773              		.cfi_endproc
 774              	.LFE65:
 775              		.size	ActualizaRecta, .-ActualizaRecta
 776              		.global	__aeabi_fcmpeq
 777              		.global	__aeabi_ui2f
 778              		.global	__aeabi_fadd
 779              		.global	__aeabi_fcmplt
 780              		.global	__aeabi_fcmpge
 781              		.global	__aeabi_f2d
 782              		.global	__aeabi_dmul
 783              		.global	__aeabi_d2f
 784              		.global	__aeabi_fcmple
 785              		.global	__aeabi_fcmpgt
 786              		.global	__aeabi_i2d
 787              		.global	__aeabi_dadd
 788              		.global	__aeabi_dsub
 789              		.global	__aeabi_ddiv
 790              		.global	__aeabi_d2uiz
 791              		.section	.text.Controla,"ax",%progbits
 792              		.align	2
 793              		.global	Controla
 794              		.thumb
 795              		.thumb_func
 796              		.type	Controla, %function
 797              	Controla:
 798              	.LFB66:
 119:main.c        **** //-------------------------------Control de Calentamiento------------------------------------------
 799              		.loc 1 119 0
 800              		.cfi_startproc
 801              		@ args = 0, pretend = 0, frame = 0
ARM GAS  C:\Users\USUARIO\AppData\Local\Temp\ccfDwbds.s 			page 24


 802              		@ frame_needed = 0, uses_anonymous_args = 0
 803 0000 2DE9F047 		push	{r4, r5, r6, r7, r8, r9, r10, lr}
 804              		.cfi_def_cfa_offset 32
 805              		.cfi_offset 4, -32
 806              		.cfi_offset 5, -28
 807              		.cfi_offset 6, -24
 808              		.cfi_offset 7, -20
 809              		.cfi_offset 8, -16
 810              		.cfi_offset 9, -12
 811              		.cfi_offset 10, -8
 812              		.cfi_offset 14, -4
 813              	.LVL16:
 123:main.c        ****         if(tiemporecta>=10){
 814              		.loc 1 123 0
 815 0004 0021     		movs	r1, #0
 816 0006 8D4B     		ldr	r3, .L147
 817 0008 1868     		ldr	r0, [r3]	@ float
 818 000a FFF7FEFF 		bl	__aeabi_fcmpeq
 819              	.LVL17:
 820 000e 48B9     		cbnz	r0, .L141
 124:main.c        ****             ActualizaRecta();
 821              		.loc 1 124 0
 822 0010 8B4B     		ldr	r3, .L147+4
 823 0012 1B88     		ldrh	r3, [r3]
 824 0014 092B     		cmp	r3, #9
 825 0016 11D9     		bls	.L55
 125:main.c        ****             tiemporecta=0;
 826              		.loc 1 125 0
 827 0018 FFF7FEFF 		bl	ActualizaRecta
 828              	.LVL18:
 126:main.c        ****         }
 829              		.loc 1 126 0
 830 001c 0022     		movs	r2, #0
 831 001e 884B     		ldr	r3, .L147+4
 832 0020 1A80     		strh	r2, [r3]	@ movhi
 833 0022 0BE0     		b	.L55
 834              	.L141:
 129:main.c        ****             ActualizaRecta();
 835              		.loc 1 129 0
 836 0024 874B     		ldr	r3, .L147+8
 837 0026 1A78     		ldrb	r2, [r3]	@ zero_extendqisi2
 838 0028 854B     		ldr	r3, .L147+4
 839 002a 1B88     		ldrh	r3, [r3]
 840 002c B3EB520F 		cmp	r3, r2, lsr #1
 841 0030 04D3     		bcc	.L55
 130:main.c        ****             tiemporecta=0;
 842              		.loc 1 130 0
 843 0032 FFF7FEFF 		bl	ActualizaRecta
 844              	.LVL19:
 131:main.c        ****         }   
 845              		.loc 1 131 0
 846 0036 0022     		movs	r2, #0
 847 0038 814B     		ldr	r3, .L147+4
 848 003a 1A80     		strh	r2, [r3]	@ movhi
 849              	.L55:
 135:main.c        ****          if(flag_calcula==0){
 850              		.loc 1 135 0
ARM GAS  C:\Users\USUARIO\AppData\Local\Temp\ccfDwbds.s 			page 25


 851 003c 824B     		ldr	r3, .L147+12
 852 003e 1C78     		ldrb	r4, [r3]	@ zero_extendqisi2
 853 0040 002C     		cmp	r4, #0
 854 0042 65D1     		bne	.L56
 136:main.c        ****             Tiempo=(Horas1[ProgramaSeleccionado*Pasos]*3600)+(Minutos1[ProgramaSeleccionado*Pasos]*
 855              		.loc 1 136 0
 856 0044 814B     		ldr	r3, .L147+16
 857 0046 B3F90030 		ldrsh	r3, [r3]
 858 004a 002B     		cmp	r3, #0
 859 004c 40F0BF80 		bne	.L57
 137:main.c        ****             Setpoint=Temperatura1[(ProgramaSeleccionado*Pasos)+Segmento];
 860              		.loc 1 137 0
 861 0050 7F4B     		ldr	r3, .L147+20
 862 0052 1E78     		ldrb	r6, [r3]	@ zero_extendqisi2
 863 0054 3601     		lsls	r6, r6, #4
 864 0056 DFF82882 		ldr	r8, .L147+68
 865 005a 38F91630 		ldrsh	r3, [r8, r6, lsl #1]
 866 005e 7D4F     		ldr	r7, .L147+24
 867 0060 37F91620 		ldrsh	r2, [r7, r6, lsl #1]
 868 0064 C3EB0313 		rsb	r3, r3, r3, lsl #4
 869 0068 C3EB0313 		rsb	r3, r3, r3, lsl #4
 870 006c 4FEA0319 		lsl	r9, r3, #4
 871 0070 C2EB0213 		rsb	r3, r2, r2, lsl #4
 872 0074 9A00     		lsls	r2, r3, #2
 873 0076 9144     		add	r9, r9, r2
 874 0078 1FFA89F9 		uxth	r9, r9
 875 007c 764B     		ldr	r3, .L147+28
 876 007e A3F80090 		strh	r9, [r3]	@ movhi
 138:main.c        ****             Pendiente=(((float)Setpoint-TempeInicial)/(float)Tiempo);
 877              		.loc 1 138 0
 878 0082 2644     		add	r6, r6, r4
 879 0084 754B     		ldr	r3, .L147+32
 880 0086 33F81650 		ldrh	r5, [r3, r6, lsl #1]
 881 008a 754B     		ldr	r3, .L147+36
 882 008c 1D80     		strh	r5, [r3]	@ movhi
 139:main.c        ****             Testerilizacionp[3]=(uint8)Horas1[(ProgramaSeleccionado*Pasos)+Segmento]/10;
 883              		.loc 1 139 0
 884 008e 2846     		mov	r0, r5
 885 0090 FFF7FEFF 		bl	__aeabi_ui2f
 886              	.LVL20:
 887 0094 734B     		ldr	r3, .L147+40
 888 0096 1968     		ldr	r1, [r3]	@ float
 889 0098 FFF7FEFF 		bl	__aeabi_fsub
 890              	.LVL21:
 891 009c 8246     		mov	r10, r0
 892 009e 4846     		mov	r0, r9
 893 00a0 FFF7FEFF 		bl	__aeabi_ui2f
 894              	.LVL22:
 895 00a4 0146     		mov	r1, r0
 896 00a6 5046     		mov	r0, r10
 897 00a8 FFF7FEFF 		bl	__aeabi_fdiv
 898              	.LVL23:
 899 00ac 634B     		ldr	r3, .L147
 900 00ae 1860     		str	r0, [r3]	@ float
 140:main.c        ****             Testerilizacionp[2]=Horas1[(ProgramaSeleccionado*Pasos)+Segmento]-(Testerilizacionp[3]*
 901              		.loc 1 140 0
 902 00b0 18F81600 		ldrb	r0, [r8, r6, lsl #1]	@ zero_extendqisi2
ARM GAS  C:\Users\USUARIO\AppData\Local\Temp\ccfDwbds.s 			page 26


 903 00b4 6C4B     		ldr	r3, .L147+44
 904 00b6 A3FB0023 		umull	r2, r3, r3, r0
 905 00ba DB08     		lsrs	r3, r3, #3
 906 00bc 6B49     		ldr	r1, .L147+48
 907 00be CB75     		strb	r3, [r1, #23]
 141:main.c        ****             Testerilizacionp[1]=Minutos1[(ProgramaSeleccionado*Pasos)+Segmento]/10;
 908              		.loc 1 141 0
 909 00c0 C3EB4312 		rsb	r2, r3, r3, lsl #5
 910 00c4 C3EB8203 		rsb	r3, r3, r2, lsl #2
 911 00c8 5A00     		lsls	r2, r3, #1
 912 00ca 0244     		add	r2, r2, r0
 913 00cc 8A75     		strb	r2, [r1, #22]
 142:main.c        ****             Testerilizacionp[0]=Minutos1[(ProgramaSeleccionado*Pasos)+Segmento]-(Testerilizacionp[1
 914              		.loc 1 142 0
 915 00ce 37F91620 		ldrsh	r2, [r7, r6, lsl #1]
 916 00d2 674B     		ldr	r3, .L147+52
 917 00d4 83FB0230 		smull	r3, r0, r3, r2
 918 00d8 D317     		asrs	r3, r2, #31
 919 00da C3EBA003 		rsb	r3, r3, r0, asr #2
 920 00de 5BB2     		sxtb	r3, r3
 921 00e0 4B75     		strb	r3, [r1, #21]
 143:main.c        ****             flag_calcula=1;
 922              		.loc 1 143 0
 923 00e2 C3EB4310 		rsb	r0, r3, r3, lsl #5
 924 00e6 C3EB8003 		rsb	r3, r3, r0, lsl #2
 925 00ea 5800     		lsls	r0, r3, #1
 926 00ec 0244     		add	r2, r2, r0
 927 00ee 0A75     		strb	r2, [r1, #20]
 144:main.c        ****             Ganancia=GananciaIn*(Setpoint/Coeficiente);
 928              		.loc 1 144 0
 929 00f0 0122     		movs	r2, #1
 930 00f2 564B     		ldr	r3, .L147+16
 931 00f4 1A80     		strh	r2, [r3]	@ movhi
 145:main.c        ****          }
 932              		.loc 1 145 0
 933 00f6 5F4B     		ldr	r3, .L147+56
 934 00f8 1888     		ldrh	r0, [r3]
 935 00fa B5FBF0F0 		udiv	r0, r5, r0
 936 00fe FFF7FEFF 		bl	__aeabi_i2f
 937              	.LVL24:
 938 0102 5D4B     		ldr	r3, .L147+60
 939 0104 1968     		ldr	r1, [r3]	@ float
 940 0106 FFF7FEFF 		bl	__aeabi_fmul
 941              	.LVL25:
 942 010a 5C4B     		ldr	r3, .L147+64
 943 010c 1860     		str	r0, [r3]	@ float
 944 010e 5EE0     		b	.L57
 945              	.L56:
 148:main.c        ****             Tiempo=(Horas1[(ProgramaSeleccionado*Pasos)+Segmento]*3600)+(Minutos1[(ProgramaSeleccio
 946              		.loc 1 148 0
 947 0110 4E4B     		ldr	r3, .L147+16
 948 0112 B3F90030 		ldrsh	r3, [r3]
 949 0116 002B     		cmp	r3, #0
 950 0118 59D1     		bne	.L57
 149:main.c        ****             Pendiente=((float)(Temperatura1[(ProgramaSeleccionado*Pasos)+Segmento]-Temperatura1[(Pr
 951              		.loc 1 149 0
 952 011a 4D4B     		ldr	r3, .L147+20
ARM GAS  C:\Users\USUARIO\AppData\Local\Temp\ccfDwbds.s 			page 27


 953 011c 1B78     		ldrb	r3, [r3]	@ zero_extendqisi2
 954 011e 04EB0313 		add	r3, r4, r3, lsl #4
 955 0122 574A     		ldr	r2, .L147+68
 956 0124 32F91370 		ldrsh	r7, [r2, r3, lsl #1]
 957 0128 4A4A     		ldr	r2, .L147+24
 958 012a 32F91350 		ldrsh	r5, [r2, r3, lsl #1]
 959 012e C7EB0712 		rsb	r2, r7, r7, lsl #4
 960 0132 C2EB0212 		rsb	r2, r2, r2, lsl #4
 961 0136 1601     		lsls	r6, r2, #4
 962 0138 C5EB0511 		rsb	r1, r5, r5, lsl #4
 963 013c 8A00     		lsls	r2, r1, #2
 964 013e 1644     		add	r6, r6, r2
 965 0140 B6B2     		uxth	r6, r6
 966 0142 454A     		ldr	r2, .L147+28
 967 0144 1680     		strh	r6, [r2]	@ movhi
 150:main.c        ****             Setpoint=Temperatura1[(ProgramaSeleccionado*Pasos)+Segmento];
 968              		.loc 1 150 0
 969 0146 454A     		ldr	r2, .L147+32
 970 0148 32F91380 		ldrsh	r8, [r2, r3, lsl #1]
 971 014c 013B     		subs	r3, r3, #1
 972 014e 32F91300 		ldrsh	r0, [r2, r3, lsl #1]
 973 0152 C0EB0800 		rsb	r0, r0, r8
 974 0156 FFF7FEFF 		bl	__aeabi_i2f
 975              	.LVL26:
 976 015a 8146     		mov	r9, r0
 977 015c 3046     		mov	r0, r6
 978 015e FFF7FEFF 		bl	__aeabi_ui2f
 979              	.LVL27:
 980 0162 0146     		mov	r1, r0
 981 0164 4846     		mov	r0, r9
 982 0166 FFF7FEFF 		bl	__aeabi_fdiv
 983              	.LVL28:
 984 016a 344B     		ldr	r3, .L147
 985 016c 1860     		str	r0, [r3]	@ float
 151:main.c        ****             Testerilizacionp[3]=(uint8)Horas1[(ProgramaSeleccionado*Pasos)+Segmento]/10;
 986              		.loc 1 151 0
 987 016e 1FFA88F1 		uxth	r1, r8
 988 0172 3B4B     		ldr	r3, .L147+36
 989 0174 1980     		strh	r1, [r3]	@ movhi
 152:main.c        ****             Testerilizacionp[2]=Horas1[(ProgramaSeleccionado*Pasos)+Segmento]-(Testerilizacionp[3]*
 990              		.loc 1 152 0
 991 0176 FAB2     		uxtb	r2, r7
 992 0178 3B4B     		ldr	r3, .L147+44
 993 017a A3FB0203 		umull	r0, r3, r3, r2
 994 017e DB08     		lsrs	r3, r3, #3
 995 0180 3A4E     		ldr	r6, .L147+48
 996 0182 F375     		strb	r3, [r6, #23]
 153:main.c        ****             Testerilizacionp[1]=Minutos1[(ProgramaSeleccionado*Pasos)+Segmento]/10;
 997              		.loc 1 153 0
 998 0184 C3EB4310 		rsb	r0, r3, r3, lsl #5
 999 0188 C3EB8003 		rsb	r3, r3, r0, lsl #2
 1000 018c 5800     		lsls	r0, r3, #1
 1001 018e 0244     		add	r2, r2, r0
 1002 0190 B275     		strb	r2, [r6, #22]
 154:main.c        ****             Testerilizacionp[0]=Minutos1[(ProgramaSeleccionado*Pasos)+Segmento]-(Testerilizacionp[1
 1003              		.loc 1 154 0
 1004 0192 374B     		ldr	r3, .L147+52
ARM GAS  C:\Users\USUARIO\AppData\Local\Temp\ccfDwbds.s 			page 28


 1005 0194 83FB0532 		smull	r3, r2, r3, r5
 1006 0198 EB17     		asrs	r3, r5, #31
 1007 019a C3EBA203 		rsb	r3, r3, r2, asr #2
 1008 019e 5BB2     		sxtb	r3, r3
 1009 01a0 7375     		strb	r3, [r6, #21]
 155:main.c        ****             flag_calcula=1;
 1010              		.loc 1 155 0
 1011 01a2 C3EB4312 		rsb	r2, r3, r3, lsl #5
 1012 01a6 C3EB8203 		rsb	r3, r3, r2, lsl #2
 1013 01aa 5A00     		lsls	r2, r3, #1
 1014 01ac 1544     		add	r5, r5, r2
 1015 01ae 3575     		strb	r5, [r6, #20]
 156:main.c        ****             Ganancia=GananciaIn*(Setpoint/Coeficiente);
 1016              		.loc 1 156 0
 1017 01b0 0122     		movs	r2, #1
 1018 01b2 264B     		ldr	r3, .L147+16
 1019 01b4 1A80     		strh	r2, [r3]	@ movhi
 157:main.c        ****          }
 1020              		.loc 1 157 0
 1021 01b6 2F4B     		ldr	r3, .L147+56
 1022 01b8 1888     		ldrh	r0, [r3]
 1023 01ba B1FBF0F0 		udiv	r0, r1, r0
 1024 01be FFF7FEFF 		bl	__aeabi_i2f
 1025              	.LVL29:
 1026 01c2 2D4B     		ldr	r3, .L147+60
 1027 01c4 1968     		ldr	r1, [r3]	@ float
 1028 01c6 FFF7FEFF 		bl	__aeabi_fmul
 1029              	.LVL30:
 1030 01ca 2C4B     		ldr	r3, .L147+64
 1031 01cc 1860     		str	r0, [r3]	@ float
 1032              	.L57:
 162:main.c        ****       //TiempoRampa=((HorasActual*3600)+(MinutosActual*60)+tinicio);
 1033              		.loc 1 162 0
 1034 01ce 1B4B     		ldr	r3, .L147
 1035 01d0 1D68     		ldr	r5, [r3]	@ float
 1036 01d2 0021     		movs	r1, #0
 1037 01d4 2846     		mov	r0, r5
 1038 01d6 FFF7FEFF 		bl	__aeabi_fcmpeq
 1039              	.LVL31:
 1040 01da 0028     		cmp	r0, #0
 1041 01dc 40F0F980 		bne	.L142
 164:main.c        ****       if(Segmento==0){
 1042              		.loc 1 164 0
 1043 01e0 2248     		ldr	r0, .L147+48
 1044 01e2 90F90720 		ldrsb	r2, [r0, #7]
 1045 01e6 02EB8202 		add	r2, r2, r2, lsl #2
 1046 01ea 5300     		lsls	r3, r2, #1
 1047 01ec 90F90620 		ldrsb	r2, [r0, #6]
 1048 01f0 1344     		add	r3, r3, r2
 1049 01f2 90F90510 		ldrsb	r1, [r0, #5]
 1050 01f6 01EB8101 		add	r1, r1, r1, lsl #2
 1051 01fa 4A00     		lsls	r2, r1, #1
 1052 01fc 90F90410 		ldrsb	r1, [r0, #4]
 1053 0200 0A44     		add	r2, r2, r1
 1054 0202 C3EB0313 		rsb	r3, r3, r3, lsl #4
 1055 0206 C3EB0313 		rsb	r3, r3, r3, lsl #4
 1056 020a 1801     		lsls	r0, r3, #4
ARM GAS  C:\Users\USUARIO\AppData\Local\Temp\ccfDwbds.s 			page 29


 1057 020c C2EB0213 		rsb	r3, r2, r2, lsl #4
 1058 0210 9A00     		lsls	r2, r3, #2
 1059 0212 1044     		add	r0, r0, r2
 1060 0214 1B4B     		ldr	r3, .L147+72
 1061 0216 1B88     		ldrh	r3, [r3]
 1062 0218 1844     		add	r0, r0, r3
 1063 021a 80B2     		uxth	r0, r0
 1064 021c 1A4B     		ldr	r3, .L147+76
 1065 021e 1880     		strh	r0, [r3]	@ movhi
 165:main.c        ****          TemperaturaIdeal=(Pendiente*TiempoRampa)+TempeInicial;
 1066              		.loc 1 165 0
 1067 0220 B4BB     		cbnz	r4, .L60
 166:main.c        ****       }else{
 1068              		.loc 1 166 0
 1069 0222 FFF7FEFF 		bl	__aeabi_i2f
 1070              	.LVL32:
 1071 0226 2946     		mov	r1, r5
 1072 0228 FFF7FEFF 		bl	__aeabi_fmul
 1073              	.LVL33:
 1074 022c 0D4B     		ldr	r3, .L147+40
 1075 022e 1968     		ldr	r1, [r3]	@ float
 1076 0230 FFF7FEFF 		bl	__aeabi_fadd
 1077              	.LVL34:
 1078 0234 154B     		ldr	r3, .L147+80
 1079 0236 1860     		str	r0, [r3]	@ float
 1080 0238 3FE0     		b	.L61
 1081              	.L148:
 1082 023a 00BF     		.align	2
 1083              	.L147:
 1084 023c 00000000 		.word	Pendiente
 1085 0240 00000000 		.word	tiemporecta
 1086 0244 00000000 		.word	Derivativo
 1087 0248 00000000 		.word	Segmento
 1088 024c 00000000 		.word	flag_calcula
 1089 0250 00000000 		.word	ProgramaSeleccionado
 1090 0254 00000000 		.word	Minutos1
 1091 0258 00000000 		.word	Tiempo
 1092 025c 00000000 		.word	Temperatura1
 1093 0260 00000000 		.word	Setpoint
 1094 0264 00000000 		.word	TempeInicial
 1095 0268 CDCCCCCC 		.word	-858993459
 1096 026c 00000000 		.word	.LANCHOR0
 1097 0270 67666666 		.word	1717986919
 1098 0274 00000000 		.word	Coeficiente
 1099 0278 00000000 		.word	GananciaIn
 1100 027c 00000000 		.word	Ganancia
 1101 0280 00000000 		.word	Horas1
 1102 0284 00000000 		.word	tinicio
 1103 0288 00000000 		.word	TiempoRampa
 1104 028c 00000000 		.word	TemperaturaIdeal
 1105              	.L60:
 168:main.c        ****       }
 1106              		.loc 1 168 0
 1107 0290 FFF7FEFF 		bl	__aeabi_i2f
 1108              	.LVL35:
 1109 0294 2946     		mov	r1, r5
 1110 0296 FFF7FEFF 		bl	__aeabi_fmul
ARM GAS  C:\Users\USUARIO\AppData\Local\Temp\ccfDwbds.s 			page 30


 1111              	.LVL36:
 1112 029a 0546     		mov	r5, r0
 1113 029c 864B     		ldr	r3, .L149+32
 1114 029e 1B78     		ldrb	r3, [r3]	@ zero_extendqisi2
 1115 02a0 04EB0314 		add	r4, r4, r3, lsl #4
 1116 02a4 013C     		subs	r4, r4, #1
 1117 02a6 854B     		ldr	r3, .L149+36
 1118 02a8 33F91400 		ldrsh	r0, [r3, r4, lsl #1]
 1119 02ac FFF7FEFF 		bl	__aeabi_i2f
 1120              	.LVL37:
 1121 02b0 2946     		mov	r1, r5
 1122 02b2 FFF7FEFF 		bl	__aeabi_fadd
 1123              	.LVL38:
 1124 02b6 824B     		ldr	r3, .L149+40
 1125 02b8 1860     		str	r0, [r3]	@ float
 1126              	.L61:
 170:main.c        **** // Pendiente determinar si el comportamiento de la mufla es lineal 10°C/min o si tiene un comporta
 1127              		.loc 1 170 0
 1128 02ba 824B     		ldr	r3, .L149+44
 1129 02bc 1C68     		ldr	r4, [r3]	@ float
 1130 02be 2146     		mov	r1, r4
 1131 02c0 7F4B     		ldr	r3, .L149+40
 1132 02c2 1868     		ldr	r0, [r3]	@ float
 1133 02c4 FFF7FEFF 		bl	__aeabi_fsub
 1134              	.LVL39:
 1135 02c8 7F49     		ldr	r1, .L149+48
 1136 02ca FFF7FEFF 		bl	__aeabi_fmul
 1137              	.LVL40:
 1138 02ce 7F4B     		ldr	r3, .L149+52
 1139 02d0 1968     		ldr	r1, [r3]	@ float
 1140 02d2 FFF7FEFF 		bl	__aeabi_fdiv
 1141              	.LVL41:
 1142 02d6 0546     		mov	r5, r0
 1143 02d8 7D4B     		ldr	r3, .L149+56
 1144 02da 1860     		str	r0, [r3]	@ float
 173:main.c        ****          penMufla=penInicial*0.9;
 1145              		.loc 1 173 0
 1146 02dc 7D49     		ldr	r1, .L149+60
 1147 02de 2046     		mov	r0, r4
 1148 02e0 FFF7FEFF 		bl	__aeabi_fcmplt
 1149              	.LVL42:
 1150 02e4 88B1     		cbz	r0, .L62
 173:main.c        ****          penMufla=penInicial*0.9;
 1151              		.loc 1 173 0 is_stmt 0 discriminator 1
 1152 02e6 7C49     		ldr	r1, .L149+64
 1153 02e8 2046     		mov	r0, r4
 1154 02ea FFF7FEFF 		bl	__aeabi_fcmpge
 1155              	.LVL43:
 1156 02ee 60B1     		cbz	r0, .L62
 174:main.c        ****          
 1157              		.loc 1 174 0 is_stmt 1
 1158 02f0 7A4B     		ldr	r3, .L149+68
 1159 02f2 1868     		ldr	r0, [r3]	@ float
 1160 02f4 FFF7FEFF 		bl	__aeabi_f2d
 1161              	.LVL44:
 1162 02f8 67A3     		adr	r3, .L149
 1163 02fa D3E90023 		ldrd	r2, [r3]
ARM GAS  C:\Users\USUARIO\AppData\Local\Temp\ccfDwbds.s 			page 31


 1164 02fe FFF7FEFF 		bl	__aeabi_dmul
 1165              	.LVL45:
 1166 0302 FFF7FEFF 		bl	__aeabi_d2f
 1167              	.LVL46:
 1168 0306 714B     		ldr	r3, .L149+52
 1169 0308 1860     		str	r0, [r3]	@ float
 1170              	.L62:
 176:main.c        ****          penMufla=penInicial*0.8;
 1171              		.loc 1 176 0
 1172 030a 7549     		ldr	r1, .L149+72
 1173 030c 2046     		mov	r0, r4
 1174 030e FFF7FEFF 		bl	__aeabi_fcmplt
 1175              	.LVL47:
 1176 0312 88B1     		cbz	r0, .L65
 176:main.c        ****          penMufla=penInicial*0.8;
 1177              		.loc 1 176 0 is_stmt 0 discriminator 1
 1178 0314 6F49     		ldr	r1, .L149+60
 1179 0316 2046     		mov	r0, r4
 1180 0318 FFF7FEFF 		bl	__aeabi_fcmpge
 1181              	.LVL48:
 1182 031c 60B1     		cbz	r0, .L65
 177:main.c        ****          
 1183              		.loc 1 177 0 is_stmt 1
 1184 031e 6F4B     		ldr	r3, .L149+68
 1185 0320 1868     		ldr	r0, [r3]	@ float
 1186 0322 FFF7FEFF 		bl	__aeabi_f2d
 1187              	.LVL49:
 1188 0326 5EA3     		adr	r3, .L149+8
 1189 0328 D3E90023 		ldrd	r2, [r3]
 1190 032c FFF7FEFF 		bl	__aeabi_dmul
 1191              	.LVL50:
 1192 0330 FFF7FEFF 		bl	__aeabi_d2f
 1193              	.LVL51:
 1194 0334 654B     		ldr	r3, .L149+52
 1195 0336 1860     		str	r0, [r3]	@ float
 1196              	.L65:
 179:main.c        ****          penMufla=penInicial*0.7;  
 1197              		.loc 1 179 0
 1198 0338 6A49     		ldr	r1, .L149+76
 1199 033a 2046     		mov	r0, r4
 1200 033c FFF7FEFF 		bl	__aeabi_fcmplt
 1201              	.LVL52:
 1202 0340 88B1     		cbz	r0, .L68
 179:main.c        ****          penMufla=penInicial*0.7;  
 1203              		.loc 1 179 0 is_stmt 0 discriminator 1
 1204 0342 6749     		ldr	r1, .L149+72
 1205 0344 2046     		mov	r0, r4
 1206 0346 FFF7FEFF 		bl	__aeabi_fcmpge
 1207              	.LVL53:
 1208 034a 60B1     		cbz	r0, .L68
 180:main.c        ****          
 1209              		.loc 1 180 0 is_stmt 1
 1210 034c 634B     		ldr	r3, .L149+68
 1211 034e 1868     		ldr	r0, [r3]	@ float
 1212 0350 FFF7FEFF 		bl	__aeabi_f2d
 1213              	.LVL54:
 1214 0354 54A3     		adr	r3, .L149+16
ARM GAS  C:\Users\USUARIO\AppData\Local\Temp\ccfDwbds.s 			page 32


 1215 0356 D3E90023 		ldrd	r2, [r3]
 1216 035a FFF7FEFF 		bl	__aeabi_dmul
 1217              	.LVL55:
 1218 035e FFF7FEFF 		bl	__aeabi_d2f
 1219              	.LVL56:
 1220 0362 5A4B     		ldr	r3, .L149+52
 1221 0364 1860     		str	r0, [r3]	@ float
 1222              	.L68:
 182:main.c        ****          penMufla=penInicial*0.6;   
 1223              		.loc 1 182 0
 1224 0366 6049     		ldr	r1, .L149+80
 1225 0368 2046     		mov	r0, r4
 1226 036a FFF7FEFF 		bl	__aeabi_fcmple
 1227              	.LVL57:
 1228 036e 88B1     		cbz	r0, .L71
 182:main.c        ****          penMufla=penInicial*0.6;   
 1229              		.loc 1 182 0 is_stmt 0 discriminator 1
 1230 0370 5C49     		ldr	r1, .L149+76
 1231 0372 2046     		mov	r0, r4
 1232 0374 FFF7FEFF 		bl	__aeabi_fcmpge
 1233              	.LVL58:
 1234 0378 60B1     		cbz	r0, .L71
 183:main.c        ****       
 1235              		.loc 1 183 0 is_stmt 1
 1236 037a 584B     		ldr	r3, .L149+68
 1237 037c 1868     		ldr	r0, [r3]	@ float
 1238 037e FFF7FEFF 		bl	__aeabi_f2d
 1239              	.LVL59:
 1240 0382 4BA3     		adr	r3, .L149+24
 1241 0384 D3E90023 		ldrd	r2, [r3]
 1242 0388 FFF7FEFF 		bl	__aeabi_dmul
 1243              	.LVL60:
 1244 038c FFF7FEFF 		bl	__aeabi_d2f
 1245              	.LVL61:
 1246 0390 4E4B     		ldr	r3, .L149+52
 1247 0392 1860     		str	r0, [r3]	@ float
 1248              	.L71:
 185:main.c        ****          PotenciaEntregada=100.0;
 1249              		.loc 1 185 0
 1250 0394 4C49     		ldr	r1, .L149+48
 1251 0396 2846     		mov	r0, r5
 1252 0398 FFF7FEFF 		bl	__aeabi_fcmpgt
 1253              	.LVL62:
 1254 039c 10B1     		cbz	r0, .L74
 186:main.c        ****       }
 1255              		.loc 1 186 0
 1256 039e 4A4A     		ldr	r2, .L149+48
 1257 03a0 4B4B     		ldr	r3, .L149+56
 1258 03a2 1A60     		str	r2, [r3]	@ float
 1259              	.L74:
 189:main.c        ****          PotenciaEntregada=0;
 1260              		.loc 1 189 0
 1261 03a4 0021     		movs	r1, #0
 1262 03a6 4A4B     		ldr	r3, .L149+56
 1263 03a8 1868     		ldr	r0, [r3]	@ float
 1264 03aa FFF7FEFF 		bl	__aeabi_fcmplt
 1265              	.LVL63:
ARM GAS  C:\Users\USUARIO\AppData\Local\Temp\ccfDwbds.s 			page 33


 1266 03ae 10B1     		cbz	r0, .L76
 190:main.c        ****       }
 1267              		.loc 1 190 0
 1268 03b0 0022     		movs	r2, #0
 1269 03b2 474B     		ldr	r3, .L149+56
 1270 03b4 1A60     		str	r2, [r3]	@ float
 1271              	.L76:
 193:main.c        ****    }else{
 1272              		.loc 1 193 0
 1273 03b6 4D4B     		ldr	r3, .L149+84
 1274 03b8 1878     		ldrb	r0, [r3]	@ zero_extendqisi2
 1275 03ba FFF7FEFF 		bl	__aeabi_i2f
 1276              	.LVL64:
 1277 03be 444B     		ldr	r3, .L149+56
 1278 03c0 1968     		ldr	r1, [r3]	@ float
 1279 03c2 FFF7FEFF 		bl	__aeabi_fmul
 1280              	.LVL65:
 1281 03c6 4049     		ldr	r1, .L149+48
 1282 03c8 FFF7FEFF 		bl	__aeabi_fdiv
 1283              	.LVL66:
 1284 03cc 484B     		ldr	r3, .L149+88
 1285 03ce 1860     		str	r0, [r3]	@ float
 1286 03d0 82E1     		b	.L78
 1287              	.L142:
 196:main.c        ****       
 1288              		.loc 1 196 0
 1289 03d2 484B     		ldr	r3, .L149+92
 1290 03d4 1F88     		ldrh	r7, [r3]
 1291 03d6 3846     		mov	r0, r7
 1292 03d8 FFF7FEFF 		bl	__aeabi_i2d
 1293              	.LVL67:
 1294 03dc 0022     		movs	r2, #0
 1295 03de 464B     		ldr	r3, .L149+96
 1296 03e0 FFF7FEFF 		bl	__aeabi_dadd
 1297              	.LVL68:
 1298 03e4 0446     		mov	r4, r0
 1299 03e6 0D46     		mov	r5, r1
 1300 03e8 364B     		ldr	r3, .L149+44
 1301 03ea 1868     		ldr	r0, [r3]	@ float
 1302 03ec FFF7FEFF 		bl	__aeabi_f2d
 1303              	.LVL69:
 1304 03f0 0246     		mov	r2, r0
 1305 03f2 0B46     		mov	r3, r1
 1306 03f4 2046     		mov	r0, r4
 1307 03f6 2946     		mov	r1, r5
 1308 03f8 FFF7FEFF 		bl	__aeabi_dsub
 1309              	.LVL70:
 1310 03fc FFF7FEFF 		bl	__aeabi_d2f
 1311              	.LVL71:
 1312 0400 0446     		mov	r4, r0
 1313 0402 3E4B     		ldr	r3, .L149+100
 1314 0404 1860     		str	r0, [r3]	@ float
 198:main.c        ****          flag_ajuste=0;
 1315              		.loc 1 198 0
 1316 0406 4FF08241 		mov	r1, #1090519040
 1317 040a FFF7FEFF 		bl	__aeabi_fcmpge
 1318              	.LVL72:
ARM GAS  C:\Users\USUARIO\AppData\Local\Temp\ccfDwbds.s 			page 34


 1319 040e 0028     		cmp	r0, #0
 1320 0410 00F09F80 		beq	.L79
 198:main.c        ****          flag_ajuste=0;
 1321              		.loc 1 198 0 is_stmt 0 discriminator 1
 1322 0414 3A4B     		ldr	r3, .L149+104
 1323 0416 1D68     		ldr	r5, [r3]	@ float
 1324 0418 4FF07E51 		mov	r1, #1065353216
 1325 041c 2846     		mov	r0, r5
 1326 041e FFF7FEFF 		bl	__aeabi_fcmplt
 1327              	.LVL73:
 1328 0422 0028     		cmp	r0, #0
 1329 0424 00F09580 		beq	.L79
 199:main.c        ****          flag_ajuste2=0;
 1330              		.loc 1 199 0 is_stmt 1
 1331 0428 0023     		movs	r3, #0
 1332 042a 364A     		ldr	r2, .L149+108
 1333 042c 1380     		strh	r3, [r2]	@ movhi
 200:main.c        ****          if(Potencia<90.0){
 1334              		.loc 1 200 0
 1335 042e 364A     		ldr	r2, .L149+112
 1336 0430 1380     		strh	r3, [r2]	@ movhi
 201:main.c        ****             if(TiempoControl>=Derivativo){
 1337              		.loc 1 201 0
 1338 0432 3649     		ldr	r1, .L149+116
 1339 0434 364B     		ldr	r3, .L149+120
 1340 0436 1868     		ldr	r0, [r3]	@ float
 1341 0438 FFF7FEFF 		bl	__aeabi_fcmplt
 1342              	.LVL74:
 1343 043c 0028     		cmp	r0, #0
 1344 043e 00F08880 		beq	.L79
 202:main.c        ****                TiempoControl=0;
 1345              		.loc 1 202 0
 1346 0442 344B     		ldr	r3, .L149+124
 1347 0444 1A78     		ldrb	r2, [r3]	@ zero_extendqisi2
 1348 0446 344B     		ldr	r3, .L149+128
 1349 0448 1B88     		ldrh	r3, [r3]
 1350 044a 9A42     		cmp	r2, r3
 1351 044c 00F28180 		bhi	.L79
 203:main.c        ****                if(Aumento<-2){
 1352              		.loc 1 203 0
 1353 0450 0022     		movs	r2, #0
 1354 0452 314B     		ldr	r3, .L149+128
 1355 0454 1A80     		strh	r2, [r3]	@ movhi
 204:main.c        ****                   Ganancia+=Integral+1;
 1356              		.loc 1 204 0
 1357 0456 4FF04041 		mov	r1, #-1073741824
 1358 045a 2846     		mov	r0, r5
 1359 045c FFF7FEFF 		bl	__aeabi_fcmplt
 1360              	.LVL75:
 1361 0460 50B1     		cbz	r0, .L143
 205:main.c        ****                }else{
 1362              		.loc 1 205 0
 1363 0462 2E4B     		ldr	r3, .L149+132
 1364 0464 1878     		ldrb	r0, [r3]	@ zero_extendqisi2
 1365 0466 2E4D     		ldr	r5, .L149+136
 1366 0468 0130     		adds	r0, r0, #1
 1367 046a FFF7FEFF 		bl	__aeabi_i2f
ARM GAS  C:\Users\USUARIO\AppData\Local\Temp\ccfDwbds.s 			page 35


 1368              	.LVL76:
 1369 046e 2968     		ldr	r1, [r5]	@ float
 1370 0470 FFF7FEFF 		bl	__aeabi_fadd
 1371              	.LVL77:
 1372 0474 2860     		str	r0, [r5]	@ float
 1373 0476 6CE0     		b	.L79
 1374              	.L143:
 207:main.c        ****                      Ganancia+=Integral;
 1375              		.loc 1 207 0
 1376 0478 2A49     		ldr	r1, .L149+140
 1377 047a 2846     		mov	r0, r5
 1378 047c FFF7FEFF 		bl	__aeabi_fcmplt
 1379              	.LVL78:
 1380 0480 0028     		cmp	r0, #0
 1381 0482 51D0     		beq	.L144
 208:main.c        ****                   }else{
 1382              		.loc 1 208 0
 1383 0484 264D     		ldr	r5, .L149+136
 1384 0486 254B     		ldr	r3, .L149+132
 1385 0488 1878     		ldrb	r0, [r3]	@ zero_extendqisi2
 1386 048a FFF7FEFF 		bl	__aeabi_i2f
 1387              	.LVL79:
 1388 048e 2968     		ldr	r1, [r5]	@ float
 1389 0490 FFF7FEFF 		bl	__aeabi_fadd
 1390              	.LVL80:
 1391 0494 2860     		str	r0, [r5]	@ float
 1392 0496 5CE0     		b	.L79
 1393              	.L150:
 1394              		.align	3
 1395              	.L149:
 1396 0498 CDCCCCCC 		.word	-858993459
 1397 049c CCCCEC3F 		.word	1072483532
 1398 04a0 9A999999 		.word	-1717986918
 1399 04a4 9999E93F 		.word	1072273817
 1400 04a8 66666666 		.word	1717986918
 1401 04ac 6666E63F 		.word	1072064102
 1402 04b0 33333333 		.word	858993459
 1403 04b4 3333E33F 		.word	1071854387
 1404 04b8 00000000 		.word	ProgramaSeleccionado
 1405 04bc 00000000 		.word	Temperatura1
 1406 04c0 00000000 		.word	TemperaturaIdeal
 1407 04c4 00000000 		.word	Temperatura
 1408 04c8 0000C842 		.word	1120403456
 1409 04cc 00000000 		.word	.LANCHOR1
 1410 04d0 00000000 		.word	PotenciaEntregada
 1411 04d4 0000E143 		.word	1138819072
 1412 04d8 00004843 		.word	1128792064
 1413 04dc 00000000 		.word	penInicial
 1414 04e0 00001644 		.word	1142292480
 1415 04e4 00006144 		.word	1147207680
 1416 04e8 00009644 		.word	1150681088
 1417 04ec 00000000 		.word	Tciclo
 1418 04f0 00000000 		.word	Tpulso
 1419 04f4 00000000 		.word	Setpoint
 1420 04f8 00001440 		.word	1075052544
 1421 04fc 00000000 		.word	error
 1422 0500 00000000 		.word	Aumento
ARM GAS  C:\Users\USUARIO\AppData\Local\Temp\ccfDwbds.s 			page 36


 1423 0504 00000000 		.word	flag_ajuste
 1424 0508 00000000 		.word	flag_ajuste2
 1425 050c 0000B442 		.word	1119092736
 1426 0510 00000000 		.word	Potencia
 1427 0514 00000000 		.word	Derivativo
 1428 0518 00000000 		.word	TiempoControl
 1429 051c 00000000 		.word	Integral
 1430 0520 00000000 		.word	Ganancia
 1431 0524 000080BF 		.word	-1082130432
 1432              	.L144:
 210:main.c        ****                   }
 1433              		.loc 1 210 0
 1434 0528 7F4B     		ldr	r3, .L151+16
 1435 052a 1878     		ldrb	r0, [r3]	@ zero_extendqisi2
 1436 052c FFF7FEFF 		bl	__aeabi_i2d
 1437              	.LVL81:
 1438 0530 0022     		movs	r2, #0
 1439 0532 7E4B     		ldr	r3, .L151+20
 1440 0534 FFF7FEFF 		bl	__aeabi_dsub
 1441              	.LVL82:
 1442 0538 8046     		mov	r8, r0
 1443 053a 8946     		mov	r9, r1
 1444 053c 7C4D     		ldr	r5, .L151+24
 1445 053e 2868     		ldr	r0, [r5]	@ float
 1446 0540 FFF7FEFF 		bl	__aeabi_f2d
 1447              	.LVL83:
 1448 0544 4246     		mov	r2, r8
 1449 0546 4B46     		mov	r3, r9
 1450 0548 FFF7FEFF 		bl	__aeabi_dadd
 1451              	.LVL84:
 1452 054c FFF7FEFF 		bl	__aeabi_d2f
 1453              	.LVL85:
 1454 0550 2860     		str	r0, [r5]	@ float
 1455              	.L79:
 217:main.c        ****          Ganancia=0.5;
 1456              		.loc 1 217 0
 1457 0552 4FF07C51 		mov	r1, #1056964608
 1458 0556 764B     		ldr	r3, .L151+24
 1459 0558 1868     		ldr	r0, [r3]	@ float
 1460 055a FFF7FEFF 		bl	__aeabi_fcmplt
 1461              	.LVL86:
 1462 055e 18B1     		cbz	r0, .L87
 218:main.c        ****       }
 1463              		.loc 1 218 0
 1464 0560 4FF07C52 		mov	r2, #1056964608
 1465 0564 724B     		ldr	r3, .L151+24
 1466 0566 1A60     		str	r2, [r3]	@ float
 1467              	.L87:
 225:main.c        ****             
 1468              		.loc 1 225 0
 1469 0568 714B     		ldr	r3, .L151+24
 1470 056a 1968     		ldr	r1, [r3]	@ float
 1471 056c 2046     		mov	r0, r4
 1472 056e FFF7FEFF 		bl	__aeabi_fmul
 1473              	.LVL87:
 1474 0572 0546     		mov	r5, r0
 1475              	.LVL88:
ARM GAS  C:\Users\USUARIO\AppData\Local\Temp\ccfDwbds.s 			page 37


 227:main.c        ****          tmp=Setpoint;
 1476              		.loc 1 227 0
 1477 0574 3846     		mov	r0, r7
 1478              	.LVL89:
 1479 0576 FFF7FEFF 		bl	__aeabi_i2f
 1480              	.LVL90:
 1481 057a 0646     		mov	r6, r0
 1482 057c 0146     		mov	r1, r0
 1483 057e 2846     		mov	r0, r5
 1484 0580 FFF7FEFF 		bl	__aeabi_fcmpgt
 1485              	.LVL91:
 1486 0584 18B1     		cbz	r0, .L89
 228:main.c        ****                   
 1487              		.loc 1 228 0
 1488 0586 3846     		mov	r0, r7
 1489 0588 FFF7FEFF 		bl	__aeabi_ui2f
 1490              	.LVL92:
 1491 058c 0546     		mov	r5, r0
 1492              	.LVL93:
 1493              	.L89:
 230:main.c        ****          tmp=0.0;
 1494              		.loc 1 230 0
 1495 058e 0021     		movs	r1, #0
 1496 0590 2846     		mov	r0, r5
 1497 0592 FFF7FEFF 		bl	__aeabi_fcmplt
 1498              	.LVL94:
 1499 0596 00B1     		cbz	r0, .L91
 231:main.c        ****       
 1500              		.loc 1 231 0
 1501 0598 0025     		movs	r5, #0
 1502              	.LVL95:
 1503              	.L91:
 235:main.c        ****       
 1504              		.loc 1 235 0
 1505 059a 3146     		mov	r1, r6
 1506 059c 2846     		mov	r0, r5
 1507 059e FFF7FEFF 		bl	__aeabi_fdiv
 1508              	.LVL96:
 1509 05a2 0546     		mov	r5, r0
 1510              	.LVL97:
 1511 05a4 634B     		ldr	r3, .L151+28
 1512 05a6 1878     		ldrb	r0, [r3]	@ zero_extendqisi2
 1513 05a8 FFF7FEFF 		bl	__aeabi_i2f
 1514              	.LVL98:
 1515 05ac 2946     		mov	r1, r5
 1516 05ae FFF7FEFF 		bl	__aeabi_fmul
 1517              	.LVL99:
 1518 05b2 0546     		mov	r5, r0
 1519 05b4 604B     		ldr	r3, .L151+32
 1520 05b6 1860     		str	r0, [r3]	@ float
 237:main.c        ****          if(error<=(desvio+1) && error>0){   
 1521              		.loc 1 237 0
 1522 05b8 6049     		ldr	r1, .L151+36
 1523 05ba 2046     		mov	r0, r4
 1524 05bc FFF7FEFF 		bl	__aeabi_fcmplt
 1525              	.LVL100:
 1526 05c0 0028     		cmp	r0, #0
ARM GAS  C:\Users\USUARIO\AppData\Local\Temp\ccfDwbds.s 			page 38


 1527 05c2 49D0     		beq	.L92
 237:main.c        ****          if(error<=(desvio+1) && error>0){   
 1528              		.loc 1 237 0 is_stmt 0 discriminator 1
 1529 05c4 0021     		movs	r1, #0
 1530 05c6 2046     		mov	r0, r4
 1531 05c8 FFF7FEFF 		bl	__aeabi_fcmpgt
 1532              	.LVL101:
 1533 05cc 0028     		cmp	r0, #0
 1534 05ce 43D0     		beq	.L92
 238:main.c        ****             if(flag_ajuste==0){
 1535              		.loc 1 238 0 is_stmt 1
 1536 05d0 5A49     		ldr	r1, .L151+36
 1537 05d2 2046     		mov	r0, r4
 1538 05d4 FFF7FEFF 		bl	__aeabi_fcmple
 1539              	.LVL102:
 1540 05d8 68B1     		cbz	r0, .L95
 238:main.c        ****             if(flag_ajuste==0){
 1541              		.loc 1 238 0 is_stmt 0 discriminator 1
 1542 05da 0021     		movs	r1, #0
 1543 05dc 2046     		mov	r0, r4
 1544 05de FFF7FEFF 		bl	__aeabi_fcmpgt
 1545              	.LVL103:
 1546 05e2 40B1     		cbz	r0, .L95
 239:main.c        ****                TpulsoMax=Tpulso;
 1547              		.loc 1 239 0 is_stmt 1
 1548 05e4 564B     		ldr	r3, .L151+40
 1549 05e6 B3F90030 		ldrsh	r3, [r3]
 1550 05ea 23B9     		cbnz	r3, .L95
 240:main.c        ****                flag_ajuste=1;  
 1551              		.loc 1 240 0
 1552 05ec 554B     		ldr	r3, .L151+44
 1553 05ee 1D60     		str	r5, [r3]	@ float
 241:main.c        ****             }
 1554              		.loc 1 241 0
 1555 05f0 0122     		movs	r2, #1
 1556 05f2 534B     		ldr	r3, .L151+40
 1557 05f4 1A80     		strh	r2, [r3]	@ movhi
 1558              	.L95:
 245:main.c        ****             if(flag_ajuste2==0){
 1559              		.loc 1 245 0
 1560 05f6 4FF08141 		mov	r1, #1082130432
 1561 05fa 2046     		mov	r0, r4
 1562 05fc FFF7FEFF 		bl	__aeabi_fcmple
 1563              	.LVL104:
 1564 0600 68B1     		cbz	r0, .L98
 245:main.c        ****             if(flag_ajuste2==0){
 1565              		.loc 1 245 0 is_stmt 0 discriminator 1
 1566 0602 0021     		movs	r1, #0
 1567 0604 2046     		mov	r0, r4
 1568 0606 FFF7FEFF 		bl	__aeabi_fcmpgt
 1569              	.LVL105:
 1570 060a 40B1     		cbz	r0, .L98
 246:main.c        ****                Tpulsomin=Tpulso;
 1571              		.loc 1 246 0 is_stmt 1
 1572 060c 4E4B     		ldr	r3, .L151+48
 1573 060e B3F90030 		ldrsh	r3, [r3]
 1574 0612 23B9     		cbnz	r3, .L98
ARM GAS  C:\Users\USUARIO\AppData\Local\Temp\ccfDwbds.s 			page 39


 247:main.c        ****                flag_ajuste2=1;           
 1575              		.loc 1 247 0
 1576 0614 4D4B     		ldr	r3, .L151+52
 1577 0616 1D60     		str	r5, [r3]	@ float
 248:main.c        ****             }
 1578              		.loc 1 248 0
 1579 0618 0122     		movs	r2, #1
 1580 061a 4B4B     		ldr	r3, .L151+48
 1581 061c 1A80     		strh	r2, [r3]	@ movhi
 1582              	.L98:
 252:main.c        ****             if(Tpulso<Tpulsomin){
 1583              		.loc 1 252 0
 1584 061e 4A4B     		ldr	r3, .L151+48
 1585 0620 B3F90030 		ldrsh	r3, [r3]
 1586 0624 012B     		cmp	r3, #1
 1587 0626 08D1     		bne	.L101
 253:main.c        ****                Tpulso=Tpulsomin;
 1588              		.loc 1 253 0
 1589 0628 484B     		ldr	r3, .L151+52
 1590 062a 1E68     		ldr	r6, [r3]	@ float
 1591 062c 3146     		mov	r1, r6
 1592 062e 2846     		mov	r0, r5
 1593 0630 FFF7FEFF 		bl	__aeabi_fcmplt
 1594              	.LVL106:
 1595 0634 08B1     		cbz	r0, .L101
 254:main.c        ****             }
 1596              		.loc 1 254 0
 1597 0636 404B     		ldr	r3, .L151+32
 1598 0638 1E60     		str	r6, [r3]	@ float
 1599              	.L101:
 257:main.c        ****             if(Tpulso>TpulsoMax){
 1600              		.loc 1 257 0
 1601 063a 414B     		ldr	r3, .L151+40
 1602 063c B3F90030 		ldrsh	r3, [r3]
 1603 0640 012B     		cmp	r3, #1
 1604 0642 09D1     		bne	.L92
 258:main.c        ****                Tpulso=TpulsoMax;
 1605              		.loc 1 258 0
 1606 0644 3F4B     		ldr	r3, .L151+44
 1607 0646 1D68     		ldr	r5, [r3]	@ float
 1608 0648 2946     		mov	r1, r5
 1609 064a 3B4B     		ldr	r3, .L151+32
 1610 064c 1868     		ldr	r0, [r3]	@ float
 1611 064e FFF7FEFF 		bl	__aeabi_fcmpgt
 1612              	.LVL107:
 1613 0652 08B1     		cbz	r0, .L92
 259:main.c        ****             } 
 1614              		.loc 1 259 0
 1615 0654 384B     		ldr	r3, .L151+32
 1616 0656 1D60     		str	r5, [r3]	@ float
 1617              	.L92:
 264:main.c        ****          sobrepaso=1;
 1618              		.loc 1 264 0
 1619 0658 0021     		movs	r1, #0
 1620 065a 2046     		mov	r0, r4
 1621 065c FFF7FEFF 		bl	__aeabi_fcmplt
 1622              	.LVL108:
ARM GAS  C:\Users\USUARIO\AppData\Local\Temp\ccfDwbds.s 			page 40


 1623 0660 00B3     		cbz	r0, .L145
 265:main.c        ****          Tpulso=Tpulsomin/2;
 1624              		.loc 1 265 0
 1625 0662 0122     		movs	r2, #1
 1626 0664 3A4B     		ldr	r3, .L151+56
 1627 0666 1A80     		strh	r2, [r3]	@ movhi
 266:main.c        ****          if(tSobrepaso>300){
 1628              		.loc 1 266 0
 1629 0668 384B     		ldr	r3, .L151+52
 1630 066a 1C68     		ldr	r4, [r3]	@ float
 1631 066c 4FF07C51 		mov	r1, #1056964608
 1632 0670 2046     		mov	r0, r4
 1633 0672 FFF7FEFF 		bl	__aeabi_fmul
 1634              	.LVL109:
 1635 0676 304B     		ldr	r3, .L151+32
 1636 0678 1860     		str	r0, [r3]	@ float
 267:main.c        ****             Tpulsomin-=0.1;
 1637              		.loc 1 267 0
 1638 067a 364B     		ldr	r3, .L151+60
 1639 067c 1B88     		ldrh	r3, [r3]
 1640 067e B3F5967F 		cmp	r3, #300
 1641 0682 14D9     		bls	.L106
 268:main.c        ****             tSobrepaso=0;
 1642              		.loc 1 268 0
 1643 0684 2046     		mov	r0, r4
 1644 0686 FFF7FEFF 		bl	__aeabi_f2d
 1645              	.LVL110:
 1646 068a 23A3     		adr	r3, .L151
 1647 068c D3E90023 		ldrd	r2, [r3]
 1648 0690 FFF7FEFF 		bl	__aeabi_dsub
 1649              	.LVL111:
 1650 0694 FFF7FEFF 		bl	__aeabi_d2f
 1651              	.LVL112:
 1652 0698 2C4B     		ldr	r3, .L151+52
 1653 069a 1860     		str	r0, [r3]	@ float
 269:main.c        ****          }
 1654              		.loc 1 269 0
 1655 069c 0022     		movs	r2, #0
 1656 069e 2D4B     		ldr	r3, .L151+60
 1657 06a0 1A80     		strh	r2, [r3]	@ movhi
 1658 06a2 04E0     		b	.L106
 1659              	.L145:
 272:main.c        ****          tSobrepaso=0;
 1660              		.loc 1 272 0
 1661 06a4 0023     		movs	r3, #0
 1662 06a6 2A4A     		ldr	r2, .L151+56
 1663 06a8 1380     		strh	r3, [r2]	@ movhi
 273:main.c        ****       }
 1664              		.loc 1 273 0
 1665 06aa 2A4A     		ldr	r2, .L151+60
 1666 06ac 1380     		strh	r3, [r2]	@ movhi
 1667              	.L106:
 276:main.c        ****       if(Tpulso>Tciclo)Tpulso=0;
 1668              		.loc 1 276 0
 1669 06ae 0021     		movs	r1, #0
 1670 06b0 214B     		ldr	r3, .L151+32
 1671 06b2 1868     		ldr	r0, [r3]	@ float
ARM GAS  C:\Users\USUARIO\AppData\Local\Temp\ccfDwbds.s 			page 41


 1672 06b4 FFF7FEFF 		bl	__aeabi_fcmplt
 1673              	.LVL113:
 1674 06b8 10B1     		cbz	r0, .L107
 276:main.c        ****       if(Tpulso>Tciclo)Tpulso=0;
 1675              		.loc 1 276 0 is_stmt 0 discriminator 1
 1676 06ba 0022     		movs	r2, #0
 1677 06bc 1E4B     		ldr	r3, .L151+32
 1678 06be 1A60     		str	r2, [r3]	@ float
 1679              	.L107:
 277:main.c        ****    }
 1680              		.loc 1 277 0 is_stmt 1
 1681 06c0 1C4B     		ldr	r3, .L151+28
 1682 06c2 1878     		ldrb	r0, [r3]	@ zero_extendqisi2
 1683 06c4 FFF7FEFF 		bl	__aeabi_i2f
 1684              	.LVL114:
 1685 06c8 1B4B     		ldr	r3, .L151+32
 1686 06ca 1968     		ldr	r1, [r3]	@ float
 1687 06cc FFF7FEFF 		bl	__aeabi_fcmplt
 1688              	.LVL115:
 1689 06d0 10B1     		cbz	r0, .L78
 277:main.c        ****    }
 1690              		.loc 1 277 0 is_stmt 0 discriminator 1
 1691 06d2 0022     		movs	r2, #0
 1692 06d4 184B     		ldr	r3, .L151+32
 1693 06d6 1A60     		str	r2, [r3]	@ float
 1694              	.L78:
 279:main.c        ****    Tc=(Tciclo/0.002);
 1695              		.loc 1 279 0 is_stmt 1
 1696 06d8 174B     		ldr	r3, .L151+32
 1697 06da 1868     		ldr	r0, [r3]	@ float
 1698 06dc FFF7FEFF 		bl	__aeabi_f2d
 1699              	.LVL116:
 1700 06e0 0FA3     		adr	r3, .L151+8
 1701 06e2 D3E90023 		ldrd	r2, [r3]
 1702 06e6 FFF7FEFF 		bl	__aeabi_ddiv
 1703              	.LVL117:
 1704 06ea FFF7FEFF 		bl	__aeabi_d2uiz
 1705              	.LVL118:
 1706 06ee 1A4B     		ldr	r3, .L151+64
 1707 06f0 1880     		strh	r0, [r3]	@ movhi
 280:main.c        ****    Control=1;     
 1708              		.loc 1 280 0
 1709 06f2 104B     		ldr	r3, .L151+28
 1710 06f4 1878     		ldrb	r0, [r3]	@ zero_extendqisi2
 1711 06f6 FFF7FEFF 		bl	__aeabi_i2d
 1712              	.LVL119:
 1713 06fa 09A3     		adr	r3, .L151+8
 1714 06fc D3E90023 		ldrd	r2, [r3]
 1715 0700 FFF7FEFF 		bl	__aeabi_ddiv
 1716              	.LVL120:
 1717 0704 FFF7FEFF 		bl	__aeabi_d2uiz
 1718              	.LVL121:
 1719 0708 144B     		ldr	r3, .L151+68
 1720 070a 1880     		strh	r0, [r3]	@ movhi
 281:main.c        **** //-------------------------------------------------------------------------------------------------
 1721              		.loc 1 281 0
 1722 070c 0122     		movs	r2, #1
ARM GAS  C:\Users\USUARIO\AppData\Local\Temp\ccfDwbds.s 			page 42


 1723 070e 144B     		ldr	r3, .L151+72
 1724 0710 1A80     		strh	r2, [r3]	@ movhi
 1725 0712 BDE8F087 		pop	{r4, r5, r6, r7, r8, r9, r10, pc}
 1726              	.L152:
 1727 0716 00BF     		.align	3
 1728              	.L151:
 1729 0718 9A999999 		.word	-1717986918
 1730 071c 9999B93F 		.word	1069128089
 1731 0720 FCA9F1D2 		.word	-755914244
 1732 0724 4D62603F 		.word	1063281229
 1733 0728 00000000 		.word	Integral
 1734 072c 0000E03F 		.word	1071644672
 1735 0730 00000000 		.word	Ganancia
 1736 0734 00000000 		.word	Tciclo
 1737 0738 00000000 		.word	Tpulso
 1738 073c 0000C040 		.word	1086324736
 1739 0740 00000000 		.word	flag_ajuste
 1740 0744 00000000 		.word	TpulsoMax
 1741 0748 00000000 		.word	flag_ajuste2
 1742 074c 00000000 		.word	Tpulsomin
 1743 0750 00000000 		.word	sobrepaso
 1744 0754 00000000 		.word	tSobrepaso
 1745 0758 00000000 		.word	Tp
 1746 075c 00000000 		.word	Tc
 1747 0760 00000000 		.word	Control
 1748              		.cfi_endproc
 1749              	.LFE66:
 1750              		.size	Controla, .-Controla
 1751              		.section	.text.CuentaTiempo,"ax",%progbits
 1752              		.align	2
 1753              		.global	CuentaTiempo
 1754              		.thumb
 1755              		.thumb_func
 1756              		.type	CuentaTiempo, %function
 1757              	CuentaTiempo:
 1758              	.LFB67:
 286:main.c        ****       if(tinicio>=60){
 1759              		.loc 1 286 0
 1760              		.cfi_startproc
 1761              		@ args = 0, pretend = 0, frame = 0
 1762              		@ frame_needed = 0, uses_anonymous_args = 0
 287:main.c        ****          tinicio=0;
 1763              		.loc 1 287 0
 1764 0000 124B     		ldr	r3, .L157
 1765 0002 1B88     		ldrh	r3, [r3]
 1766 0004 3B2B     		cmp	r3, #59
 1767 0006 1FD9     		bls	.L156
 286:main.c        ****       if(tinicio>=60){
 1768              		.loc 1 286 0
 1769 0008 10B5     		push	{r4, lr}
 1770              		.cfi_def_cfa_offset 8
 1771              		.cfi_offset 4, -8
 1772              		.cfi_offset 14, -4
 288:main.c        ****          mEst+=1.0;
 1773              		.loc 1 288 0
 1774 000a 0022     		movs	r2, #0
 1775 000c 0F4B     		ldr	r3, .L157
ARM GAS  C:\Users\USUARIO\AppData\Local\Temp\ccfDwbds.s 			page 43


 1776 000e 1A80     		strh	r2, [r3]	@ movhi
 289:main.c        ****          if(mEst>59){
 1777              		.loc 1 289 0
 1778 0010 0F4C     		ldr	r4, .L157+4
 1779 0012 2078     		ldrb	r0, [r4]	@ zero_extendqisi2
 1780 0014 FFF7FEFF 		bl	__aeabi_i2d
 1781              	.LVL122:
 1782 0018 0022     		movs	r2, #0
 1783 001a 0E4B     		ldr	r3, .L157+8
 1784 001c FFF7FEFF 		bl	__aeabi_dadd
 1785              	.LVL123:
 1786 0020 FFF7FEFF 		bl	__aeabi_d2uiz
 1787              	.LVL124:
 1788 0024 C0B2     		uxtb	r0, r0
 1789 0026 2070     		strb	r0, [r4]
 290:main.c        ****             mEst=0;
 1790              		.loc 1 290 0
 1791 0028 3B28     		cmp	r0, #59
 1792 002a 0CD9     		bls	.L153
 291:main.c        ****             hEst+=1.0;
 1793              		.loc 1 291 0
 1794 002c 0022     		movs	r2, #0
 1795 002e 2270     		strb	r2, [r4]
 292:main.c        ****          }
 1796              		.loc 1 292 0
 1797 0030 094C     		ldr	r4, .L157+12
 1798 0032 2078     		ldrb	r0, [r4]	@ zero_extendqisi2
 1799 0034 FFF7FEFF 		bl	__aeabi_i2d
 1800              	.LVL125:
 1801 0038 0022     		movs	r2, #0
 1802 003a 064B     		ldr	r3, .L157+8
 1803 003c FFF7FEFF 		bl	__aeabi_dadd
 1804              	.LVL126:
 1805 0040 FFF7FEFF 		bl	__aeabi_d2uiz
 1806              	.LVL127:
 1807 0044 2070     		strb	r0, [r4]
 1808              	.L153:
 1809 0046 10BD     		pop	{r4, pc}
 1810              	.L156:
 1811              		.cfi_def_cfa_offset 0
 1812              		.cfi_restore 4
 1813              		.cfi_restore 14
 1814 0048 7047     		bx	lr
 1815              	.L158:
 1816 004a 00BF     		.align	2
 1817              	.L157:
 1818 004c 00000000 		.word	tinicio
 1819 0050 00000000 		.word	mEst
 1820 0054 0000F03F 		.word	1072693248
 1821 0058 00000000 		.word	hEst
 1822              		.cfi_endproc
 1823              	.LFE67:
 1824              		.size	CuentaTiempo, .-CuentaTiempo
 1825              		.section	.text.iniciaConteo,"ax",%progbits
 1826              		.align	2
 1827              		.global	iniciaConteo
 1828              		.thumb
ARM GAS  C:\Users\USUARIO\AppData\Local\Temp\ccfDwbds.s 			page 44


 1829              		.thumb_func
 1830              		.type	iniciaConteo, %function
 1831              	iniciaConteo:
 1832              	.LFB68:
 297:main.c        ****    if(Pendiente!=0){
 1833              		.loc 1 297 0
 1834              		.cfi_startproc
 1835              		@ args = 0, pretend = 0, frame = 0
 1836              		@ frame_needed = 0, uses_anonymous_args = 0
 1837 0000 10B5     		push	{r4, lr}
 1838              		.cfi_def_cfa_offset 8
 1839              		.cfi_offset 4, -8
 1840              		.cfi_offset 14, -4
 298:main.c        ****         if(flagRampa)
 1841              		.loc 1 298 0
 1842 0002 144B     		ldr	r3, .L170
 1843 0004 1C68     		ldr	r4, [r3]	@ float
 1844 0006 0021     		movs	r1, #0
 1845 0008 2046     		mov	r0, r4
 1846 000a FFF7FEFF 		bl	__aeabi_fcmpeq
 1847              	.LVL128:
 1848 000e 58B9     		cbnz	r0, .L168
 299:main.c        ****             tiempo_esterilizacion=1;
 1849              		.loc 1 299 0
 1850 0010 114B     		ldr	r3, .L170+4
 1851 0012 B3F90030 		ldrsh	r3, [r3]
 1852 0016 1BB1     		cbz	r3, .L162
 300:main.c        ****         else
 1853              		.loc 1 300 0
 1854 0018 0122     		movs	r2, #1
 1855 001a 104B     		ldr	r3, .L170+8
 1856 001c 1A70     		strb	r2, [r3]
 1857 001e 10BD     		pop	{r4, pc}
 1858              	.L162:
 302:main.c        ****    }else if(Pendiente==0){
 1859              		.loc 1 302 0
 1860 0020 0022     		movs	r2, #0
 1861 0022 0E4B     		ldr	r3, .L170+8
 1862 0024 1A70     		strb	r2, [r3]
 1863 0026 10BD     		pop	{r4, pc}
 1864              	.L168:
 303:main.c        ****       if(flagTemperatura && flagRampa)
 1865              		.loc 1 303 0
 1866 0028 0021     		movs	r1, #0
 1867 002a 2046     		mov	r0, r4
 1868 002c FFF7FEFF 		bl	__aeabi_fcmpeq
 1869              	.LVL129:
 1870 0030 70B1     		cbz	r0, .L159
 304:main.c        ****          tiempo_esterilizacion=1;
 1871              		.loc 1 304 0
 1872 0032 0B4B     		ldr	r3, .L170+12
 1873 0034 B3F90030 		ldrsh	r3, [r3]
 1874 0038 3BB1     		cbz	r3, .L165
 304:main.c        ****          tiempo_esterilizacion=1;
 1875              		.loc 1 304 0 is_stmt 0 discriminator 1
 1876 003a 074B     		ldr	r3, .L170+4
 1877 003c B3F90030 		ldrsh	r3, [r3]
ARM GAS  C:\Users\USUARIO\AppData\Local\Temp\ccfDwbds.s 			page 45


 1878 0040 1BB1     		cbz	r3, .L165
 305:main.c        ****       else
 1879              		.loc 1 305 0 is_stmt 1
 1880 0042 0122     		movs	r2, #1
 1881 0044 054B     		ldr	r3, .L170+8
 1882 0046 1A70     		strb	r2, [r3]
 1883 0048 10BD     		pop	{r4, pc}
 1884              	.L165:
 307:main.c        ****    }
 1885              		.loc 1 307 0
 1886 004a 0022     		movs	r2, #0
 1887 004c 034B     		ldr	r3, .L170+8
 1888 004e 1A70     		strb	r2, [r3]
 1889              	.L159:
 1890 0050 10BD     		pop	{r4, pc}
 1891              	.L171:
 1892 0052 00BF     		.align	2
 1893              	.L170:
 1894 0054 00000000 		.word	Pendiente
 1895 0058 00000000 		.word	flagRampa
 1896 005c 00000000 		.word	tiempo_esterilizacion
 1897 0060 00000000 		.word	flagTemperatura
 1898              		.cfi_endproc
 1899              	.LFE68:
 1900              		.size	iniciaConteo, .-iniciaConteo
 1901              		.section	.text.leeTermocupla,"ax",%progbits
 1902              		.align	2
 1903              		.global	leeTermocupla
 1904              		.thumb
 1905              		.thumb_func
 1906              		.type	leeTermocupla, %function
 1907              	leeTermocupla:
 1908              	.LFB69:
 311:main.c        ****     float Tref;
 1909              		.loc 1 311 0
 1910              		.cfi_startproc
 1911              		@ args = 0, pretend = 0, frame = 0
 1912              		@ frame_needed = 0, uses_anonymous_args = 0
 1913              	.LVL130:
 1914 0000 F8B5     		push	{r3, r4, r5, r6, r7, lr}
 1915              		.cfi_def_cfa_offset 24
 1916              		.cfi_offset 3, -24
 1917              		.cfi_offset 4, -20
 1918              		.cfi_offset 5, -16
 1919              		.cfi_offset 6, -12
 1920              		.cfi_offset 7, -8
 1921              		.cfi_offset 14, -4
 1922 0002 0646     		mov	r6, r0
 1923              	.LVL131:
 314:main.c        ****     /* Measure cold junction temperature */
 1924              		.loc 1 314 0
 1925 0004 0022     		movs	r2, #0
 1926 0006 464B     		ldr	r3, .L177
 1927 0008 1A60     		str	r2, [r3]	@ float
 316:main.c        **** 	/* Convert cold junction temp to cold junction compensation voltage */
 1928              		.loc 1 316 0
 1929 000a FFF7FEFF 		bl	MeasureColdJnSensorTemp
ARM GAS  C:\Users\USUARIO\AppData\Local\Temp\ccfDwbds.s 			page 46


 1930              	.LVL132:
 1931 000e 00B2     		sxth	r0, r0
 1932 0010 444B     		ldr	r3, .L177+4
 1933 0012 1880     		strh	r0, [r3]	@ movhi
 318:main.c        **** 	/* Read thermocouple hot junction voltage */
 1934              		.loc 1 318 0
 1935 0014 FFF7FEFF 		bl	Thermocouple_1_GetVoltage
 1936              	.LVL133:
 1937 0018 434C     		ldr	r4, .L177+8
 1938 001a 2060     		str	r0, [r4]
 321:main.c        **** 	ADC_StartConvert();
 1939              		.loc 1 321 0
 1940 001c 0121     		movs	r1, #1
 1941 001e 0220     		movs	r0, #2
 1942 0020 FFF7FEFF 		bl	ADC_SelectConfiguration
 1943              	.LVL134:
 322:main.c        ****     /*Note in this example a blocking call is used, this can be replaced
 1944              		.loc 1 322 0
 1945 0024 FFF7FEFF 		bl	ADC_StartConvert
 1946              	.LVL135:
 325:main.c        **** 	ADC_StopConvert();
 1947              		.loc 1 325 0
 1948 0028 0020     		movs	r0, #0
 1949 002a FFF7FEFF 		bl	ADC_IsEndConversion
 1950              	.LVL136:
 326:main.c        **** 	hotJnCount = ADC_GetResult32();
 1951              		.loc 1 326 0
 1952 002e FFF7FEFF 		bl	ADC_StopConvert
 1953              	.LVL137:
 327:main.c        **** 	/* Read ground reference voltage */
 1954              		.loc 1 327 0
 1955 0032 FFF7FEFF 		bl	ADC_GetResult32
 1956              	.LVL138:
 1957 0036 3D4B     		ldr	r3, .L177+12
 1958 0038 1860     		str	r0, [r3]
 329:main.c        **** 	/* Correlated double sampling to remove ADC offset */
 1959              		.loc 1 329 0
 1960 003a 0022     		movs	r2, #0
 1961 003c 3C4B     		ldr	r3, .L177+16
 1962 003e 1A80     		strh	r2, [r3]	@ movhi
 333:main.c        **** 	/* Find thermo-emf in microvolts */
 1963              		.loc 1 333 0
 1964 0040 FFF7FEFF 		bl	FilterSignal
 1965              	.LVL139:
 1966 0044 3B4B     		ldr	r3, .L177+20
 1967 0046 1860     		str	r0, [r3]
 335:main.c        **** 	/* Perform Cold junction compensation */
 1968              		.loc 1 335 0
 1969 0048 FFF7FEFF 		bl	ADC_CountsTo_uVolts
 1970              	.LVL140:
 1971 004c 3A4B     		ldr	r3, .L177+24
 1972 004e 1860     		str	r0, [r3]
 337:main.c        **** 	/* Convert thermo-emf to temperature */
 1973              		.loc 1 337 0
 1974 0050 2368     		ldr	r3, [r4]
 1975 0052 1844     		add	r0, r0, r3
 1976 0054 394B     		ldr	r3, .L177+28
ARM GAS  C:\Users\USUARIO\AppData\Local\Temp\ccfDwbds.s 			page 47


 1977 0056 1860     		str	r0, [r3]
 339:main.c        ****     V0=(float)(tcTemp/100)+(float)(tcTemp-((tcTemp/100)*100))/100;
 1978              		.loc 1 339 0
 1979 0058 FFF7FEFF 		bl	Thermocouple_1_GetTemperature
 1980              	.LVL141:
 1981 005c 0546     		mov	r5, r0
 1982 005e 384B     		ldr	r3, .L177+32
 1983 0060 1860     		str	r0, [r3]
 340:main.c        ****             
 1984              		.loc 1 340 0
 1985 0062 384C     		ldr	r4, .L177+36
 1986 0064 84FB0034 		smull	r3, r4, r4, r0
 1987 0068 C317     		asrs	r3, r0, #31
 1988 006a C3EB6414 		rsb	r4, r3, r4, asr #5
 1989 006e 2046     		mov	r0, r4
 1990 0070 FFF7FEFF 		bl	__aeabi_i2f
 1991              	.LVL142:
 1992 0074 0746     		mov	r7, r0
 1993 0076 6420     		movs	r0, #100
 1994 0078 00FB1450 		mls	r0, r0, r4, r5
 1995 007c FFF7FEFF 		bl	__aeabi_i2f
 1996              	.LVL143:
 1997 0080 3149     		ldr	r1, .L177+40
 1998 0082 FFF7FEFF 		bl	__aeabi_fdiv
 1999              	.LVL144:
 2000 0086 0146     		mov	r1, r0
 2001 0088 3846     		mov	r0, r7
 2002 008a FFF7FEFF 		bl	__aeabi_fadd
 2003              	.LVL145:
 2004 008e 2F4B     		ldr	r3, .L177+44
 2005 0090 1860     		str	r0, [r3]	@ float
 342:main.c        ****         l=0;
 2006              		.loc 1 342 0
 2007 0092 2F4B     		ldr	r3, .L177+48
 2008 0094 1A78     		ldrb	r2, [r3]	@ zero_extendqisi2
 2009 0096 731E     		subs	r3, r6, #1
 2010 0098 9A42     		cmp	r2, r3
 2011 009a 02DD     		ble	.L173
 343:main.c        ****    //promedio[l]=Temperature;l++;
 2012              		.loc 1 343 0
 2013 009c 0022     		movs	r2, #0
 2014 009e 2C4B     		ldr	r3, .L177+48
 2015 00a0 1A70     		strb	r2, [r3]
 2016              	.L173:
 345:main.c        ****          
 2017              		.loc 1 345 0
 2018 00a2 2B4A     		ldr	r2, .L177+48
 2019 00a4 1378     		ldrb	r3, [r2]	@ zero_extendqisi2
 2020 00a6 2B49     		ldr	r1, .L177+52
 2021 00a8 41F82300 		str	r0, [r1, r3, lsl #2]	@ float
 2022 00ac 0133     		adds	r3, r3, #1
 2023 00ae 1370     		strb	r3, [r2]
 347:main.c        ****         Prom+=promedio[h];
 2024              		.loc 1 347 0
 2025 00b0 0022     		movs	r2, #0
 2026 00b2 294B     		ldr	r3, .L177+56
 2027 00b4 1A70     		strb	r2, [r3]
ARM GAS  C:\Users\USUARIO\AppData\Local\Temp\ccfDwbds.s 			page 48


 2028 00b6 0AE0     		b	.L174
 2029              	.L175:
 348:main.c        ****     } 
 2030              		.loc 1 348 0 discriminator 3
 2031 00b8 194D     		ldr	r5, .L177
 2032 00ba 264B     		ldr	r3, .L177+52
 2033 00bc 53F82410 		ldr	r1, [r3, r4, lsl #2]	@ float
 2034 00c0 2868     		ldr	r0, [r5]	@ float
 2035 00c2 FFF7FEFF 		bl	__aeabi_fadd
 2036              	.LVL146:
 2037 00c6 2860     		str	r0, [r5]	@ float
 347:main.c        ****         Prom+=promedio[h];
 2038              		.loc 1 347 0 discriminator 3
 2039 00c8 0134     		adds	r4, r4, #1
 2040 00ca 234B     		ldr	r3, .L177+56
 2041 00cc 1C70     		strb	r4, [r3]
 2042              	.L174:
 347:main.c        ****         Prom+=promedio[h];
 2043              		.loc 1 347 0 is_stmt 0 discriminator 1
 2044 00ce 224B     		ldr	r3, .L177+56
 2045 00d0 1C78     		ldrb	r4, [r3]	@ zero_extendqisi2
 2046 00d2 A642     		cmp	r6, r4
 2047 00d4 F0D8     		bhi	.L175
 350:main.c        ****    
 2048              		.loc 1 350 0 is_stmt 1
 2049 00d6 124C     		ldr	r4, .L177
 2050 00d8 3046     		mov	r0, r6
 2051 00da FFF7FEFF 		bl	__aeabi_i2f
 2052              	.LVL147:
 2053 00de 0146     		mov	r1, r0
 2054 00e0 2068     		ldr	r0, [r4]	@ float
 2055 00e2 FFF7FEFF 		bl	__aeabi_fdiv
 2056              	.LVL148:
 2057 00e6 0546     		mov	r5, r0
 352:main.c        ****     Tref=(Prom-b)/m;
 2058              		.loc 1 352 0
 2059 00e8 1C4B     		ldr	r3, .L177+60
 2060 00ea 1878     		ldrb	r0, [r3]	@ zero_extendqisi2
 2061 00ec FFF7FEFF 		bl	__aeabi_ui2f
 2062              	.LVL149:
 2063 00f0 0646     		mov	r6, r0
 2064 00f2 1B4B     		ldr	r3, .L177+64
 2065 00f4 1878     		ldrb	r0, [r3]	@ zero_extendqisi2
 2066 00f6 FFF7FEFF 		bl	__aeabi_ui2f
 2067              	.LVL150:
 2068 00fa 0146     		mov	r1, r0
 2069 00fc 3046     		mov	r0, r6
 2070 00fe FFF7FEFF 		bl	__aeabi_fsub
 2071              	.LVL151:
 2072 0102 0146     		mov	r1, r0
 2073 0104 2846     		mov	r0, r5
 2074 0106 FFF7FEFF 		bl	__aeabi_fadd
 2075              	.LVL152:
 2076 010a 2060     		str	r0, [r4]	@ float
 353:main.c        ****    
 2077              		.loc 1 353 0
 2078 010c 154B     		ldr	r3, .L177+68
ARM GAS  C:\Users\USUARIO\AppData\Local\Temp\ccfDwbds.s 			page 49


 2079 010e 1968     		ldr	r1, [r3]	@ float
 2080 0110 FFF7FEFF 		bl	__aeabi_fsub
 2081              	.LVL153:
 2082 0114 144B     		ldr	r3, .L177+72
 2083 0116 1968     		ldr	r1, [r3]	@ float
 2084 0118 FFF7FEFF 		bl	__aeabi_fdiv
 2085              	.LVL154:
 357:main.c        **** 
 2086              		.loc 1 357 0
 2087 011c F8BD     		pop	{r3, r4, r5, r6, r7, pc}
 2088              	.L178:
 2089 011e 00BF     		.align	2
 2090              	.L177:
 2091 0120 00000000 		.word	Prom
 2092 0124 00000000 		.word	coldJnTemp
 2093 0128 00000000 		.word	tcColdJnuVolt
 2094 012c 00000000 		.word	hotJnCount
 2095 0130 00000000 		.word	offset
 2096 0134 00000000 		.word	filHotJnCount
 2097 0138 00000000 		.word	tcHotJnuVolt
 2098 013c 00000000 		.word	tcuVolt
 2099 0140 00000000 		.word	tcTemp
 2100 0144 1F85EB51 		.word	1374389535
 2101 0148 0000C842 		.word	1120403456
 2102 014c 00000000 		.word	V0
 2103 0150 00000000 		.word	l
 2104 0154 00000000 		.word	promedio
 2105 0158 00000000 		.word	h
 2106 015c 00000000 		.word	Ajuste
 2107 0160 00000000 		.word	Ajusten
 2108 0164 00000000 		.word	b
 2109 0168 00000000 		.word	m
 2110              		.cfi_endproc
 2111              	.LFE69:
 2112              		.size	leeTermocupla, .-leeTermocupla
 2113              		.global	__aeabi_f2uiz
 2114              		.global	__aeabi_f2iz
 2115              		.global	__aeabi_dcmplt
 2116              		.section	.text.main,"ax",%progbits
 2117              		.align	2
 2118              		.global	main
 2119              		.thumb
 2120              		.thumb_func
 2121              		.type	main, %function
 2122              	main:
 2123              	.LFB72:
 498:main.c        ****    }
 499:main.c        **** }
 500:main.c        **** 
 501:main.c        **** 
 502:main.c        **** int main(void)
 503:main.c        **** { 
 2124              		.loc 1 503 0
 2125              		.cfi_startproc
 2126              		@ Volatile: function does not return.
 2127              		@ args = 0, pretend = 0, frame = 0
 2128              		@ frame_needed = 0, uses_anonymous_args = 0
ARM GAS  C:\Users\USUARIO\AppData\Local\Temp\ccfDwbds.s 			page 50


 2129 0000 80B5     		push	{r7, lr}
 2130              		.cfi_def_cfa_offset 8
 2131              		.cfi_offset 7, -8
 2132              		.cfi_offset 14, -4
 2133 0002 84B0     		sub	sp, sp, #16
 2134              		.cfi_def_cfa_offset 24
 504:main.c        ****     CyGlobalIntEnable; /* Enable global interrupts. */    
 2135              		.loc 1 504 0
 2136              		.syntax unified
 2137              	@ 504 "main.c" 1
 2138 0004 62B6     		CPSIE   i
 2139              	@ 0 "" 2
 505:main.c        ****     
 506:main.c        ****     Reloj_StartEx(Reloj2);
 2140              		.loc 1 506 0
 2141              		.thumb
 2142              		.syntax unified
 2143 0006 B048     		ldr	r0, .L549
 2144 0008 FFF7FEFF 		bl	Reloj_StartEx
 2145              	.LVL155:
 507:main.c        ****     UART_1_Start();
 2146              		.loc 1 507 0
 2147 000c FFF7FEFF 		bl	UART_1_Start
 2148              	.LVL156:
 508:main.c        ****     RX1_StartEx(inteRX1);  
 2149              		.loc 1 508 0
 2150 0010 AE48     		ldr	r0, .L549+4
 2151 0012 FFF7FEFF 		bl	RX1_StartEx
 2152              	.LVL157:
 509:main.c        ****     Timer_Start();  
 2153              		.loc 1 509 0
 2154 0016 FFF7FEFF 		bl	Timer_Start
 2155              	.LVL158:
 510:main.c        ****     EEPROM_Start(); 
 2156              		.loc 1 510 0
 2157 001a FFF7FEFF 		bl	EEPROM_Start
 2158              	.LVL159:
 511:main.c        ****     ADC_Start();
 2159              		.loc 1 511 0
 2160 001e FFF7FEFF 		bl	ADC_Start
 2161              	.LVL160:
 512:main.c        ****     ADC_SAR_Start();
 2162              		.loc 1 512 0
 2163 0022 FFF7FEFF 		bl	ADC_SAR_Start
 2164              	.LVL161:
 513:main.c        ****     ADC_SAR_IRQ_StartEx(ADC_SAR_ISR_LOC);
 2165              		.loc 1 513 0
 2166 0026 AA48     		ldr	r0, .L549+8
 2167 0028 FFF7FEFF 		bl	ADC_SAR_IRQ_StartEx
 2168              	.LVL162:
 514:main.c        ****     ADC_SAR_StartConvert();
 2169              		.loc 1 514 0
 2170 002c FFF7FEFF 		bl	ADC_SAR_StartConvert
 2171              	.LVL163:
 515:main.c        ****     
 516:main.c        ****     LCD2_Write(1);
 2172              		.loc 1 516 0
ARM GAS  C:\Users\USUARIO\AppData\Local\Temp\ccfDwbds.s 			page 51


 2173 0030 0120     		movs	r0, #1
 2174 0032 FFF7FEFF 		bl	LCD2_Write
 2175              	.LVL164:
 517:main.c        ****     LCD1_Write(1);
 2176              		.loc 1 517 0
 2177 0036 0120     		movs	r0, #1
 2178 0038 FFF7FEFF 		bl	LCD1_Write
 2179              	.LVL165:
 518:main.c        ****     LCD3_Write(1);
 2180              		.loc 1 518 0
 2181 003c 0120     		movs	r0, #1
 2182 003e FFF7FEFF 		bl	LCD3_Write
 2183              	.LVL166:
 519:main.c        ****     
 520:main.c        ****     glcd_init(ON);             //Inicializa la glcd
 2184              		.loc 1 520 0
 2185 0042 0120     		movs	r0, #1
 2186 0044 FFF7FEFF 		bl	glcd_init
 2187              	.LVL167:
 521:main.c        ****     glcd_fillScreen(OFF);      //Limpia la pantalla
 2188              		.loc 1 521 0
 2189 0048 0020     		movs	r0, #0
 2190 004a FFF7FEFF 		bl	glcd_fillScreen
 2191              	.LVL168:
 522:main.c        ****     glcd_rect(0,61,127,63,YES,ON);
 2192              		.loc 1 522 0
 2193 004e 0126     		movs	r6, #1
 2194 0050 0196     		str	r6, [sp, #4]
 2195 0052 0096     		str	r6, [sp]
 2196 0054 3F23     		movs	r3, #63
 2197 0056 7F22     		movs	r2, #127
 2198 0058 3D21     		movs	r1, #61
 2199 005a 0020     		movs	r0, #0
 2200 005c FFF7FEFF 		bl	glcd_rect
 2201              	.LVL169:
 523:main.c        ****     strcpy(Menus.Letra,"JP Inglobal");
 2202              		.loc 1 523 0
 2203 0060 9C4C     		ldr	r4, .L549+12
 2204 0062 9D4B     		ldr	r3, .L549+16
 2205 0064 07CB     		ldmia	r3!, {r0, r1, r2}
 2206 0066 2060     		str	r0, [r4]	@ unaligned
 2207 0068 6160     		str	r1, [r4, #4]	@ unaligned
 2208 006a A260     		str	r2, [r4, #8]	@ unaligned
 524:main.c        ****     displayMenu(Menus.Letra,0,0,0,2);     
 2209              		.loc 1 524 0
 2210 006c 0227     		movs	r7, #2
 2211 006e 0097     		str	r7, [sp]
 2212 0070 0023     		movs	r3, #0
 2213 0072 1A46     		mov	r2, r3
 2214 0074 1946     		mov	r1, r3
 2215 0076 2046     		mov	r0, r4
 2216 0078 FFF7FEFF 		bl	displayMenu
 2217              	.LVL170:
 525:main.c        ****     strcpy(Menus.Letra,"    Mufla Digital");
 2218              		.loc 1 525 0
 2219 007c 974D     		ldr	r5, .L549+20
 2220 007e 0FCD     		ldmia	r5!, {r0, r1, r2, r3}
ARM GAS  C:\Users\USUARIO\AppData\Local\Temp\ccfDwbds.s 			page 52


 2221 0080 2060     		str	r0, [r4]	@ unaligned
 2222 0082 6160     		str	r1, [r4, #4]	@ unaligned
 2223 0084 A260     		str	r2, [r4, #8]	@ unaligned
 2224 0086 E360     		str	r3, [r4, #12]	@ unaligned
 2225 0088 2B88     		ldrh	r3, [r5]	@ unaligned
 2226 008a 2382     		strh	r3, [r4, #16]	@ unaligned
 526:main.c        ****     displayMenu(Menus.Letra,0,20,0,1);       
 2227              		.loc 1 526 0
 2228 008c 0096     		str	r6, [sp]
 2229 008e 0023     		movs	r3, #0
 2230 0090 1422     		movs	r2, #20
 2231 0092 1946     		mov	r1, r3
 2232 0094 2046     		mov	r0, r4
 2233 0096 FFF7FEFF 		bl	displayMenu
 2234              	.LVL171:
 527:main.c        ****     strcpy(Menus.Letra,"     con Rampas");
 2235              		.loc 1 527 0
 2236 009a 914D     		ldr	r5, .L549+24
 2237 009c 0FCD     		ldmia	r5!, {r0, r1, r2, r3}
 2238 009e 2060     		str	r0, [r4]	@ unaligned
 2239 00a0 6160     		str	r1, [r4, #4]	@ unaligned
 2240 00a2 A260     		str	r2, [r4, #8]	@ unaligned
 2241 00a4 E360     		str	r3, [r4, #12]	@ unaligned
 528:main.c        ****     displayMenu(Menus.Letra,0,29,0,1);       
 2242              		.loc 1 528 0
 2243 00a6 0096     		str	r6, [sp]
 2244 00a8 0023     		movs	r3, #0
 2245 00aa 1D22     		movs	r2, #29
 2246 00ac 1946     		mov	r1, r3
 2247 00ae 2046     		mov	r0, r4
 2248 00b0 FFF7FEFF 		bl	displayMenu
 2249              	.LVL172:
 529:main.c        ****     strcpy(Menus.Letra,"     9L");
 2250              		.loc 1 529 0
 2251 00b4 8B4B     		ldr	r3, .L549+28
 2252 00b6 03CB     		ldmia	r3!, {r0, r1}
 2253 00b8 2060     		str	r0, [r4]	@ unaligned
 2254 00ba 6160     		str	r1, [r4, #4]	@ unaligned
 530:main.c        ****     displayMenu(Menus.Letra,0,45,0,2);
 2255              		.loc 1 530 0
 2256 00bc 0097     		str	r7, [sp]
 2257 00be 0023     		movs	r3, #0
 2258 00c0 2D22     		movs	r2, #45
 2259 00c2 1946     		mov	r1, r3
 2260 00c4 2046     		mov	r0, r4
 2261 00c6 FFF7FEFF 		bl	displayMenu
 2262              	.LVL173:
 531:main.c        **** 
 532:main.c        ****     leeEEPROM();
 2263              		.loc 1 532 0
 2264 00ca FFF7FEFF 		bl	leeEEPROM
 2265              	.LVL174:
 533:main.c        ****     glcd_fillScreen(OFF);      //Limpia la pantalla
 2266              		.loc 1 533 0
 2267 00ce 0020     		movs	r0, #0
 2268 00d0 FFF7FEFF 		bl	glcd_fillScreen
 2269              	.LVL175:
ARM GAS  C:\Users\USUARIO\AppData\Local\Temp\ccfDwbds.s 			page 53


 534:main.c        ****     displayContrasena(Contrasena[0],20,30,1);
 2270              		.loc 1 534 0
 2271 00d4 844C     		ldr	r4, .L549+32
 2272 00d6 3346     		mov	r3, r6
 2273 00d8 1E22     		movs	r2, #30
 2274 00da 1421     		movs	r1, #20
 2275 00dc 207E     		ldrb	r0, [r4, #24]	@ zero_extendqisi2
 2276 00de FFF7FEFF 		bl	displayContrasena
 2277              	.LVL176:
 535:main.c        ****     displayContrasena(Contrasena[1],40,30,0);
 2278              		.loc 1 535 0
 2279 00e2 0023     		movs	r3, #0
 2280 00e4 1E22     		movs	r2, #30
 2281 00e6 2821     		movs	r1, #40
 2282 00e8 607E     		ldrb	r0, [r4, #25]	@ zero_extendqisi2
 2283 00ea FFF7FEFF 		bl	displayContrasena
 2284              	.LVL177:
 536:main.c        ****     displayContrasena(Contrasena[2],60,30,0);
 2285              		.loc 1 536 0
 2286 00ee 0023     		movs	r3, #0
 2287 00f0 1E22     		movs	r2, #30
 2288 00f2 3C21     		movs	r1, #60
 2289 00f4 A07E     		ldrb	r0, [r4, #26]	@ zero_extendqisi2
 2290 00f6 FFF7FEFF 		bl	displayContrasena
 2291              	.LVL178:
 537:main.c        ****     displayContrasena(Contrasena[3],80,30,0); 
 2292              		.loc 1 537 0
 2293 00fa 0023     		movs	r3, #0
 2294 00fc 1E22     		movs	r2, #30
 2295 00fe 5021     		movs	r1, #80
 2296 0100 E07E     		ldrb	r0, [r4, #27]	@ zero_extendqisi2
 2297 0102 FFF7FEFF 		bl	displayContrasena
 2298              	.LVL179:
 538:main.c        ****     
 539:main.c        ****     for(i=0;i<80;i++){
 2299              		.loc 1 539 0
 2300 0106 0022     		movs	r2, #0
 2301 0108 784B     		ldr	r3, .L549+36
 2302 010a 1A70     		strb	r2, [r3]
 2303 010c 09E0     		b	.L180
 2304              	.L181:
 540:main.c        ****         Temperatura=leeTermocupla(MediaMovil);
 2305              		.loc 1 540 0 discriminator 3
 2306 010e 784B     		ldr	r3, .L549+40
 2307 0110 1878     		ldrb	r0, [r3]	@ zero_extendqisi2
 2308 0112 FFF7FEFF 		bl	leeTermocupla
 2309              	.LVL180:
 2310 0116 774B     		ldr	r3, .L549+44
 2311 0118 1860     		str	r0, [r3]	@ float
 539:main.c        ****         Temperatura=leeTermocupla(MediaMovil);
 2312              		.loc 1 539 0 discriminator 3
 2313 011a 744A     		ldr	r2, .L549+36
 2314 011c 1378     		ldrb	r3, [r2]	@ zero_extendqisi2
 2315 011e 0133     		adds	r3, r3, #1
 2316 0120 1370     		strb	r3, [r2]
 2317              	.L180:
 539:main.c        ****         Temperatura=leeTermocupla(MediaMovil);
ARM GAS  C:\Users\USUARIO\AppData\Local\Temp\ccfDwbds.s 			page 54


 2318              		.loc 1 539 0 is_stmt 0 discriminator 1
 2319 0122 724B     		ldr	r3, .L549+36
 2320 0124 1B78     		ldrb	r3, [r3]	@ zero_extendqisi2
 2321 0126 4F2B     		cmp	r3, #79
 2322 0128 F1D9     		bls	.L181
 541:main.c        ****     }
 542:main.c        ****     penInicial=penMufla;
 2323              		.loc 1 542 0 is_stmt 1
 2324 012a 734B     		ldr	r3, .L549+48
 2325 012c 1A68     		ldr	r2, [r3]	@ float
 2326 012e 734B     		ldr	r3, .L549+52
 2327 0130 1A60     		str	r2, [r3]	@ float
 543:main.c        ****     Opcion=1;Control=0;    
 2328              		.loc 1 543 0
 2329 0132 0125     		movs	r5, #1
 2330 0134 724B     		ldr	r3, .L549+56
 2331 0136 1D70     		strb	r5, [r3]
 2332 0138 0024     		movs	r4, #0
 2333 013a 724B     		ldr	r3, .L549+60
 2334 013c 1C80     		strh	r4, [r3]	@ movhi
 544:main.c        ****     
 545:main.c        ****     BUZZER_Write(1);
 2335              		.loc 1 545 0
 2336 013e 2846     		mov	r0, r5
 2337 0140 FFF7FEFF 		bl	BUZZER_Write
 2338              	.LVL181:
 546:main.c        ****     CyDelay(100);
 2339              		.loc 1 546 0
 2340 0144 6420     		movs	r0, #100
 2341 0146 FFF7FEFF 		bl	CyDelay
 2342              	.LVL182:
 547:main.c        ****     BUZZER_Write(0); 
 2343              		.loc 1 547 0
 2344 014a 2046     		mov	r0, r4
 2345 014c FFF7FEFF 		bl	BUZZER_Write
 2346              	.LVL183:
 548:main.c        ****     Menu=0;  
 2347              		.loc 1 548 0
 2348 0150 6D4B     		ldr	r3, .L549+64
 2349 0152 1C70     		strb	r4, [r3]
 549:main.c        ****     unidad=1;
 2350              		.loc 1 549 0
 2351 0154 6D4B     		ldr	r3, .L549+68
 2352 0156 1D70     		strb	r5, [r3]
 550:main.c        ****     finalizoCiclo=OFF;
 2353              		.loc 1 550 0
 2354 0158 6D4B     		ldr	r3, .L549+72
 2355 015a 1C80     		strh	r4, [r3]	@ movhi
 551:main.c        ****     flagGuardaEstado=OFF;
 2356              		.loc 1 551 0
 2357 015c 6D4B     		ldr	r3, .L549+76
 2358 015e 1C80     		strh	r4, [r3]	@ movhi
 552:main.c        ****     
 553:main.c        ****     if(controlT==0){
 2359              		.loc 1 553 0
 2360 0160 6D4B     		ldr	r3, .L549+80
 2361 0162 1B78     		ldrb	r3, [r3]	@ zero_extendqisi2
ARM GAS  C:\Users\USUARIO\AppData\Local\Temp\ccfDwbds.s 			page 55


 2362 0164 002B     		cmp	r3, #0
 2363 0166 00F0FC80 		beq	.L182
 554:main.c        ****         Menu=0;      
 555:main.c        ****     }else{
 556:main.c        ****         Menu=20;glcd_fillScreen(OFF);
 2364              		.loc 1 556 0
 2365 016a 1422     		movs	r2, #20
 2366 016c 664B     		ldr	r3, .L549+64
 2367 016e 1A70     		strb	r2, [r3]
 2368 0170 2046     		mov	r0, r4
 2369 0172 FFF7FEFF 		bl	glcd_fillScreen
 2370              	.LVL184:
 557:main.c        ****          for(i=0;i<Pasos;i++){
 2371              		.loc 1 557 0
 2372 0176 5D4B     		ldr	r3, .L549+36
 2373 0178 1C70     		strb	r4, [r3]
 2374 017a 10E0     		b	.L183
 2375              	.L186:
 558:main.c        ****             if(Temperatura1[i+((ProgramaSeleccionado)*Pasos)]==0){
 2376              		.loc 1 558 0
 2377 017c 674A     		ldr	r2, .L549+84
 2378 017e 1278     		ldrb	r2, [r2]	@ zero_extendqisi2
 2379 0180 03EB0212 		add	r2, r3, r2, lsl #4
 2380 0184 6649     		ldr	r1, .L549+88
 2381 0186 31F91220 		ldrsh	r2, [r1, r2, lsl #1]
 2382 018a 12B9     		cbnz	r2, .L184
 559:main.c        ****                Segmentos=i;
 2383              		.loc 1 559 0
 2384 018c 654A     		ldr	r2, .L549+92
 2385 018e 1370     		strb	r3, [r2]
 560:main.c        ****                break;
 2386              		.loc 1 560 0
 2387 0190 09E0     		b	.L185
 2388              	.L184:
 561:main.c        ****             }
 562:main.c        ****             else{
 563:main.c        ****                Segmentos=Pasos-1;
 2389              		.loc 1 563 0 discriminator 2
 2390 0192 0F21     		movs	r1, #15
 2391 0194 634A     		ldr	r2, .L549+92
 2392 0196 1170     		strb	r1, [r2]
 557:main.c        ****             if(Temperatura1[i+((ProgramaSeleccionado)*Pasos)]==0){
 2393              		.loc 1 557 0 discriminator 2
 2394 0198 0133     		adds	r3, r3, #1
 2395 019a 544A     		ldr	r2, .L549+36
 2396 019c 1370     		strb	r3, [r2]
 2397              	.L183:
 557:main.c        ****             if(Temperatura1[i+((ProgramaSeleccionado)*Pasos)]==0){
 2398              		.loc 1 557 0 is_stmt 0 discriminator 1
 2399 019e 534B     		ldr	r3, .L549+36
 2400 01a0 1B78     		ldrb	r3, [r3]	@ zero_extendqisi2
 2401 01a2 0F2B     		cmp	r3, #15
 2402 01a4 EAD9     		bls	.L186
 2403              	.L185:
 564:main.c        ****             }
 565:main.c        ****             //Horas1[i+((Opcion-1)*10)]=0;
 566:main.c        ****             //Minutos1[i+((Opcion-1)*10)]=0;
ARM GAS  C:\Users\USUARIO\AppData\Local\Temp\ccfDwbds.s 			page 56


 567:main.c        ****          }
 568:main.c        ****          if(Segmentos>0){
 2404              		.loc 1 568 0 is_stmt 1
 2405 01a6 5F4B     		ldr	r3, .L549+92
 2406 01a8 1B78     		ldrb	r3, [r3]	@ zero_extendqisi2
 2407 01aa 002B     		cmp	r3, #0
 2408 01ac 00F0D680 		beq	.L187
 569:main.c        ****             glcd_fillScreen(OFF);
 2409              		.loc 1 569 0
 2410 01b0 0020     		movs	r0, #0
 2411 01b2 FFF7FEFF 		bl	glcd_fillScreen
 2412              	.LVL185:
 570:main.c        ****             
 571:main.c        ****             strcpy(Menus.Letra," Segmentos");
 2413              		.loc 1 571 0
 2414 01b6 474C     		ldr	r4, .L549+12
 2415 01b8 5B4B     		ldr	r3, .L549+96
 2416 01ba 03CB     		ldmia	r3!, {r0, r1}
 2417 01bc 2060     		str	r0, [r4]	@ unaligned
 2418 01be 6160     		str	r1, [r4, #4]	@ unaligned
 2419 01c0 1A88     		ldrh	r2, [r3]	@ unaligned
 2420 01c2 9B78     		ldrb	r3, [r3, #2]	@ zero_extendqisi2
 2421 01c4 2281     		strh	r2, [r4, #8]	@ unaligned
 2422 01c6 A372     		strb	r3, [r4, #10]
 572:main.c        ****             displayMenu(Menus.Letra,0,0,0,2);
 2423              		.loc 1 572 0
 2424 01c8 0225     		movs	r5, #2
 2425 01ca 0095     		str	r5, [sp]
 2426 01cc 0023     		movs	r3, #0
 2427 01ce 1A46     		mov	r2, r3
 2428 01d0 1946     		mov	r1, r3
 2429 01d2 2046     		mov	r0, r4
 2430 01d4 FFF7FEFF 		bl	displayMenu
 2431              	.LVL186:
 573:main.c        ****             
 574:main.c        ****             displayTiempo(Segmentos,63,30,3,2);
 2432              		.loc 1 574 0
 2433 01d8 524B     		ldr	r3, .L549+92
 2434 01da 1878     		ldrb	r0, [r3]	@ zero_extendqisi2
 2435 01dc 0095     		str	r5, [sp]
 2436 01de 0323     		movs	r3, #3
 2437 01e0 1E22     		movs	r2, #30
 2438 01e2 3F21     		movs	r1, #63
 2439 01e4 FFF7FEFF 		bl	displayTiempo
 2440              	.LVL187:
 575:main.c        ****             CyDelay(2000);
 2441              		.loc 1 575 0
 2442 01e8 4FF4FA60 		mov	r0, #2000
 2443 01ec FFF7FEFF 		bl	CyDelay
 2444              	.LVL188:
 576:main.c        ****             glcd_fillScreen(OFF);
 2445              		.loc 1 576 0
 2446 01f0 0020     		movs	r0, #0
 2447 01f2 FFF7FEFF 		bl	glcd_fillScreen
 2448              	.LVL189:
 577:main.c        ****             Opcion=1;visual=1;//Faltaa cuadrar esta parte
 2449              		.loc 1 577 0
ARM GAS  C:\Users\USUARIO\AppData\Local\Temp\ccfDwbds.s 			page 57


 2450 01f6 0123     		movs	r3, #1
 2451 01f8 414A     		ldr	r2, .L549+56
 2452 01fa 1370     		strb	r3, [r2]
 2453 01fc 4B4A     		ldr	r2, .L549+100
 2454 01fe 1380     		strh	r3, [r2]	@ movhi
 578:main.c        ****             TempeInicial=Temperatura;
 2455              		.loc 1 578 0
 2456 0200 3C4B     		ldr	r3, .L549+44
 2457 0202 D3F80090 		ldr	r9, [r3]	@ float
 2458 0206 4A4B     		ldr	r3, .L549+104
 2459 0208 C3F80090 		str	r9, [r3]	@ float
 579:main.c        ****             
 580:main.c        ****             Tiempo=(Horas1[ProgramaSeleccionado*Pasos]*3600)+(Minutos1[ProgramaSeleccionado*Pasos]*
 2460              		.loc 1 580 0
 2461 020c 434B     		ldr	r3, .L549+84
 2462 020e 1A78     		ldrb	r2, [r3]	@ zero_extendqisi2
 2463 0210 1201     		lsls	r2, r2, #4
 2464 0212 DFF84481 		ldr	r8, .L549+144
 2465 0216 38F91270 		ldrsh	r7, [r8, r2, lsl #1]
 2466 021a 464E     		ldr	r6, .L549+108
 2467 021c 36F91230 		ldrsh	r3, [r6, r2, lsl #1]
 2468 0220 C7EB0717 		rsb	r7, r7, r7, lsl #4
 2469 0224 C7EB0717 		rsb	r7, r7, r7, lsl #4
 2470 0228 C3EB0313 		rsb	r3, r3, r3, lsl #4
 2471 022c AB40     		lsls	r3, r3, r5
 2472 022e 03EB0717 		add	r7, r3, r7, lsl #4
 2473 0232 BFB2     		uxth	r7, r7
 2474 0234 404B     		ldr	r3, .L549+112
 2475 0236 1F80     		strh	r7, [r3]	@ movhi
 581:main.c        ****             Setpoint=Temperatura1[(ProgramaSeleccionado*Pasos)+Segmento];
 2476              		.loc 1 581 0
 2477 0238 404B     		ldr	r3, .L549+116
 2478 023a 1C78     		ldrb	r4, [r3]	@ zero_extendqisi2
 2479 023c 1444     		add	r4, r4, r2
 2480 023e 384B     		ldr	r3, .L549+88
 2481 0240 33F81450 		ldrh	r5, [r3, r4, lsl #1]
 2482 0244 3E4B     		ldr	r3, .L549+120
 2483 0246 1D80     		strh	r5, [r3]	@ movhi
 582:main.c        ****             Pendiente=((Setpoint-TempeInicial)/Tiempo);
 2484              		.loc 1 582 0
 2485 0248 2846     		mov	r0, r5
 2486 024a FFF7FEFF 		bl	__aeabi_i2f
 2487              	.LVL190:
 2488 024e 4946     		mov	r1, r9
 2489 0250 FFF7FEFF 		bl	__aeabi_fsub
 2490              	.LVL191:
 2491 0254 8146     		mov	r9, r0
 2492 0256 3846     		mov	r0, r7
 2493 0258 FFF7FEFF 		bl	__aeabi_i2f
 2494              	.LVL192:
 2495 025c 0146     		mov	r1, r0
 2496 025e 4846     		mov	r0, r9
 2497 0260 FFF7FEFF 		bl	__aeabi_fdiv
 2498              	.LVL193:
 2499 0264 374B     		ldr	r3, .L549+124
 2500 0266 1860     		str	r0, [r3]	@ float
 583:main.c        ****             Testerilizacionp[3]=(int8)Horas1[(ProgramaSeleccionado*Pasos)+Segmento]/10;
ARM GAS  C:\Users\USUARIO\AppData\Local\Temp\ccfDwbds.s 			page 58


 2501              		.loc 1 583 0
 2502 0268 38F91420 		ldrsh	r2, [r8, r4, lsl #1]
 2503 026c 53B2     		sxtb	r3, r2
 2504 026e 3648     		ldr	r0, .L549+128
 2505 0270 80FB0371 		smull	r7, r1, r0, r3
 2506 0274 DB17     		asrs	r3, r3, #31
 2507 0276 C3EBA103 		rsb	r3, r3, r1, asr #2
 2508 027a 5BB2     		sxtb	r3, r3
 2509 027c 1A49     		ldr	r1, .L549+32
 2510 027e CB75     		strb	r3, [r1, #23]
 584:main.c        ****             Testerilizacionp[2]=Horas1[(ProgramaSeleccionado*Pasos)+Segmento]-(Testerilizacionp[3]*
 2511              		.loc 1 584 0
 2512 0280 C3EB4317 		rsb	r7, r3, r3, lsl #5
 2513 0284 C3EB8703 		rsb	r3, r3, r7, lsl #2
 2514 0288 02EB4303 		add	r3, r2, r3, lsl #1
 2515 028c 8B75     		strb	r3, [r1, #22]
 585:main.c        ****             Testerilizacionp[1]=Minutos1[(ProgramaSeleccionado*Pasos)+Segmento]/10;
 2516              		.loc 1 585 0
 2517 028e 36F91420 		ldrsh	r2, [r6, r4, lsl #1]
 2518 0292 80FB0230 		smull	r3, r0, r0, r2
 2519 0296 D317     		asrs	r3, r2, #31
 2520 0298 C3EBA003 		rsb	r3, r3, r0, asr #2
 2521 029c 5BB2     		sxtb	r3, r3
 2522 029e 4B75     		strb	r3, [r1, #21]
 586:main.c        ****             Testerilizacionp[0]=Minutos1[(ProgramaSeleccionado*Pasos)+Segmento]-(Testerilizacionp[1
 2523              		.loc 1 586 0
 2524 02a0 C3EB4310 		rsb	r0, r3, r3, lsl #5
 2525 02a4 C3EB8003 		rsb	r3, r3, r0, lsl #2
 2526 02a8 02EB4303 		add	r3, r2, r3, lsl #1
 2527 02ac 0B75     		strb	r3, [r1, #20]
 587:main.c        ****             Ganancia=GananciaIn*(Setpoint/Coeficiente);
 2528              		.loc 1 587 0
 2529 02ae 274B     		ldr	r3, .L549+132
 2530 02b0 1888     		ldrh	r0, [r3]
 2531 02b2 B5FBF0F0 		udiv	r0, r5, r0
 2532 02b6 FFF7FEFF 		bl	__aeabi_i2f
 2533              	.LVL194:
 2534 02ba 254B     		ldr	r3, .L549+136
 2535 02bc 1968     		ldr	r1, [r3]	@ float
 2536 02be FFF7FEFF 		bl	__aeabi_fmul
 2537              	.LVL195:
 2538 02c2 244B     		ldr	r3, .L549+140
 2539 02c4 1860     		str	r0, [r3]	@ float
 2540 02c6 4CE0     		b	.L182
 2541              	.L550:
 2542              		.align	2
 2543              	.L549:
 2544 02c8 00000000 		.word	Reloj2
 2545 02cc 00000000 		.word	inteRX1
 2546 02d0 00000000 		.word	ADC_SAR_ISR_LOC
 2547 02d4 00000000 		.word	Menus
 2548 02d8 00000000 		.word	.LC0
 2549 02dc 0C000000 		.word	.LC1
 2550 02e0 20000000 		.word	.LC2
 2551 02e4 30000000 		.word	.LC3
 2552 02e8 00000000 		.word	.LANCHOR0
 2553 02ec 00000000 		.word	i
ARM GAS  C:\Users\USUARIO\AppData\Local\Temp\ccfDwbds.s 			page 59


 2554 02f0 00000000 		.word	MediaMovil
 2555 02f4 00000000 		.word	Temperatura
 2556 02f8 00000000 		.word	.LANCHOR1
 2557 02fc 00000000 		.word	penInicial
 2558 0300 00000000 		.word	Opcion
 2559 0304 00000000 		.word	Control
 2560 0308 00000000 		.word	Menu
 2561 030c 00000000 		.word	unidad
 2562 0310 00000000 		.word	finalizoCiclo
 2563 0314 00000000 		.word	flagGuardaEstado
 2564 0318 00000000 		.word	controlT
 2565 031c 00000000 		.word	ProgramaSeleccionado
 2566 0320 00000000 		.word	Temperatura1
 2567 0324 00000000 		.word	Segmentos
 2568 0328 38000000 		.word	.LC4
 2569 032c 00000000 		.word	visual
 2570 0330 00000000 		.word	TempeInicial
 2571 0334 00000000 		.word	Minutos1
 2572 0338 00000000 		.word	Tiempo
 2573 033c 00000000 		.word	Segmento
 2574 0340 00000000 		.word	Setpoint
 2575 0344 00000000 		.word	Pendiente
 2576 0348 67666666 		.word	1717986919
 2577 034c 00000000 		.word	Coeficiente
 2578 0350 00000000 		.word	GananciaIn
 2579 0354 00000000 		.word	Ganancia
 2580 0358 00000000 		.word	Horas1
 2581              	.L187:
 588:main.c        ****          }else{
 589:main.c        ****             Menu=0;             
 2582              		.loc 1 589 0
 2583 035c 0022     		movs	r2, #0
 2584 035e A64B     		ldr	r3, .L551
 2585 0360 1A70     		strb	r2, [r3]
 2586              	.L182:
 590:main.c        ****          }
 591:main.c        ****     }
 592:main.c        ****     
 593:main.c        ****     if(UP_Read()==0 && DOWN_Read()==0){
 2587              		.loc 1 593 0
 2588 0362 FFF7FEFF 		bl	UP_Read
 2589              	.LVL196:
 2590 0366 0028     		cmp	r0, #0
 2591 0368 4DD1     		bne	.L190
 2592              		.loc 1 593 0 is_stmt 0 discriminator 1
 2593 036a FFF7FEFF 		bl	DOWN_Read
 2594              	.LVL197:
 2595 036e 0028     		cmp	r0, #0
 2596 0370 49D1     		bne	.L190
 2597              	.L191:
 594:main.c        ****         for(;;){ 
 595:main.c        ****             displayTemperatura((uint16)leeTermocupla(MediaMovil),30,45,0,1);
 2598              		.loc 1 595 0 is_stmt 1
 2599 0372 A24B     		ldr	r3, .L551+4
 2600 0374 1878     		ldrb	r0, [r3]	@ zero_extendqisi2
 2601 0376 FFF7FEFF 		bl	leeTermocupla
 2602              	.LVL198:
ARM GAS  C:\Users\USUARIO\AppData\Local\Temp\ccfDwbds.s 			page 60


 2603 037a FFF7FEFF 		bl	__aeabi_f2uiz
 2604              	.LVL199:
 2605 037e 0124     		movs	r4, #1
 2606 0380 0094     		str	r4, [sp]
 2607 0382 0023     		movs	r3, #0
 2608 0384 2D22     		movs	r2, #45
 2609 0386 1E21     		movs	r1, #30
 2610 0388 00B2     		sxth	r0, r0
 2611 038a FFF7FEFF 		bl	displayTemperatura
 2612              	.LVL200:
 596:main.c        ****             displayFloat(Temperatura,30,15,1);
 2613              		.loc 1 596 0
 2614 038e 2346     		mov	r3, r4
 2615 0390 0F22     		movs	r2, #15
 2616 0392 1E21     		movs	r1, #30
 2617 0394 9A48     		ldr	r0, .L551+8
 2618 0396 0068     		ldr	r0, [r0]	@ float
 2619 0398 FFF7FEFF 		bl	displayFloat
 2620              	.LVL201:
 597:main.c        ****             displayTemperatura((uint16)coldJnTemp,30,0,0,1);
 2621              		.loc 1 597 0
 2622 039c 994B     		ldr	r3, .L551+12
 2623 039e B3F90000 		ldrsh	r0, [r3]
 2624 03a2 0094     		str	r4, [sp]
 2625 03a4 0023     		movs	r3, #0
 2626 03a6 1A46     		mov	r2, r3
 2627 03a8 1E21     		movs	r1, #30
 2628 03aa FFF7FEFF 		bl	displayTemperatura
 2629              	.LVL202:
 598:main.c        ****             glcd_fillScreen(OFF);
 2630              		.loc 1 598 0
 2631 03ae 0020     		movs	r0, #0
 2632 03b0 FFF7FEFF 		bl	glcd_fillScreen
 2633              	.LVL203:
 599:main.c        ****             glcd_update();  
 2634              		.loc 1 599 0
 2635 03b4 FFF7FEFF 		bl	glcd_update
 2636              	.LVL204:
 600:main.c        ****             //Temperatura=leeTermocupla(20);
 601:main.c        ****             if(Lectura2){
 2637              		.loc 1 601 0
 2638 03b8 934B     		ldr	r3, .L551+16
 2639 03ba B3F90030 		ldrsh	r3, [r3]
 2640 03be 002B     		cmp	r3, #0
 2641 03c0 D7D0     		beq	.L191
 602:main.c        ****                 grafica=ON;
 2642              		.loc 1 602 0
 2643 03c2 924B     		ldr	r3, .L551+20
 2644 03c4 1C80     		strh	r4, [r3]	@ movhi
 603:main.c        ****                 Lectura2=0;
 2645              		.loc 1 603 0
 2646 03c6 0022     		movs	r2, #0
 2647 03c8 8F4B     		ldr	r3, .L551+16
 2648 03ca 1A80     		strh	r2, [r3]	@ movhi
 604:main.c        ****                 Temperatura=leeTermocupla(20);
 2649              		.loc 1 604 0
 2650 03cc 1420     		movs	r0, #20
ARM GAS  C:\Users\USUARIO\AppData\Local\Temp\ccfDwbds.s 			page 61


 2651 03ce FFF7FEFF 		bl	leeTermocupla
 2652              	.LVL205:
 2653 03d2 8B4B     		ldr	r3, .L551+8
 2654 03d4 1860     		str	r0, [r3]	@ float
 605:main.c        ****                 
 606:main.c        ****                 if(!Test){
 2655              		.loc 1 606 0
 2656 03d6 8E4B     		ldr	r3, .L551+24
 2657 03d8 B3F90030 		ldrsh	r3, [r3]
 2658 03dc 002B     		cmp	r3, #0
 2659 03de C8D1     		bne	.L191
 607:main.c        ****                     if(coldJnTemp>=3000){
 2660              		.loc 1 607 0
 2661 03e0 884B     		ldr	r3, .L551+12
 2662 03e2 B3F90030 		ldrsh	r3, [r3]
 2663 03e6 40F6B732 		movw	r2, #2999
 2664 03ea 9342     		cmp	r3, r2
 2665 03ec 03DD     		ble	.L193
 608:main.c        ****                         VENT1_Write(0);    
 2666              		.loc 1 608 0
 2667 03ee 0020     		movs	r0, #0
 2668 03f0 FFF7FEFF 		bl	VENT1_Write
 2669              	.LVL206:
 2670 03f4 BDE7     		b	.L191
 2671              	.L193:
 609:main.c        ****                     }else if(coldJnTemp<2500){
 2672              		.loc 1 609 0
 2673 03f6 40F6C312 		movw	r2, #2499
 2674 03fa 9342     		cmp	r3, r2
 2675 03fc B9DC     		bgt	.L191
 610:main.c        ****                         VENT1_Write(1);   
 2676              		.loc 1 610 0
 2677 03fe 0120     		movs	r0, #1
 2678 0400 FFF7FEFF 		bl	VENT1_Write
 2679              	.LVL207:
 2680 0404 B5E7     		b	.L191
 2681              	.L190:
 611:main.c        ****                     }
 612:main.c        ****                 }
 613:main.c        ****             }
 614:main.c        ****         }
 615:main.c        ****     }
 616:main.c        ****     
 617:main.c        ****     for(;;)
 618:main.c        ****     {   
 619:main.c        ****         if(Lectura2){
 2682              		.loc 1 619 0
 2683 0406 804B     		ldr	r3, .L551+16
 2684 0408 B3F90030 		ldrsh	r3, [r3]
 2685 040c 3BB3     		cbz	r3, .L194
 620:main.c        ****             grafica=ON;
 2686              		.loc 1 620 0
 2687 040e 0122     		movs	r2, #1
 2688 0410 7E4B     		ldr	r3, .L551+20
 2689 0412 1A80     		strh	r2, [r3]	@ movhi
 621:main.c        ****             Lectura2=0;
 2690              		.loc 1 621 0
ARM GAS  C:\Users\USUARIO\AppData\Local\Temp\ccfDwbds.s 			page 62


 2691 0414 0022     		movs	r2, #0
 2692 0416 7C4B     		ldr	r3, .L551+16
 2693 0418 1A80     		strh	r2, [r3]	@ movhi
 622:main.c        ****             Temperatura=leeTermocupla(MediaMovil);
 2694              		.loc 1 622 0
 2695 041a 784B     		ldr	r3, .L551+4
 2696 041c 1878     		ldrb	r0, [r3]	@ zero_extendqisi2
 2697 041e FFF7FEFF 		bl	leeTermocupla
 2698              	.LVL208:
 2699 0422 774B     		ldr	r3, .L551+8
 2700 0424 1860     		str	r0, [r3]	@ float
 623:main.c        ****             if(coldJnTemp>=3000 || Temperatura>150){
 2701              		.loc 1 623 0
 2702 0426 774B     		ldr	r3, .L551+12
 2703 0428 B3F90040 		ldrsh	r4, [r3]
 2704 042c 40F6B733 		movw	r3, #2999
 2705 0430 9C42     		cmp	r4, r3
 2706 0432 03DC     		bgt	.L195
 2707              		.loc 1 623 0 is_stmt 0 discriminator 1
 2708 0434 7749     		ldr	r1, .L551+28
 2709 0436 FFF7FEFF 		bl	__aeabi_fcmpgt
 2710              	.LVL209:
 2711 043a 30B1     		cbz	r0, .L543
 2712              	.L195:
 624:main.c        ****                 VENT1_Write(0);    
 2713              		.loc 1 624 0 is_stmt 1
 2714 043c 0020     		movs	r0, #0
 2715 043e FFF7FEFF 		bl	VENT1_Write
 2716              	.LVL210:
 625:main.c        ****                 VENT2_Write(0); 
 2717              		.loc 1 625 0
 2718 0442 0020     		movs	r0, #0
 2719 0444 FFF7FEFF 		bl	VENT2_Write
 2720              	.LVL211:
 2721 0448 09E0     		b	.L194
 2722              	.L543:
 626:main.c        ****             }else if(coldJnTemp<2500){
 2723              		.loc 1 626 0
 2724 044a 40F6C313 		movw	r3, #2499
 2725 044e 9C42     		cmp	r4, r3
 2726 0450 05DC     		bgt	.L194
 627:main.c        ****                 VENT1_Write(1);   
 2727              		.loc 1 627 0
 2728 0452 0120     		movs	r0, #1
 2729 0454 FFF7FEFF 		bl	VENT1_Write
 2730              	.LVL212:
 628:main.c        ****                 VENT2_Write(1); 
 2731              		.loc 1 628 0
 2732 0458 0120     		movs	r0, #1
 2733 045a FFF7FEFF 		bl	VENT2_Write
 2734              	.LVL213:
 2735              	.L194:
 629:main.c        ****             }
 630:main.c        ****             
 631:main.c        ****         }
 632:main.c        ****         
 633:main.c        ****     glcd_update();            
ARM GAS  C:\Users\USUARIO\AppData\Local\Temp\ccfDwbds.s 			page 63


 2736              		.loc 1 633 0
 2737 045e FFF7FEFF 		bl	glcd_update
 2738              	.LVL214:
 634:main.c        ****       
 635:main.c        **** //_------------------------------------------------------------------------------------------------
 636:main.c        ****       if(Menu==0){ //Menu de Contraseña.
 2739              		.loc 1 636 0
 2740 0462 654B     		ldr	r3, .L551
 2741 0464 1B78     		ldrb	r3, [r3]	@ zero_extendqisi2
 2742 0466 002B     		cmp	r3, #0
 2743 0468 40F0D681 		bne	.L198
 637:main.c        ****       
 638:main.c        ****       strcpy(Menus.Letra,"Clave");
 2744              		.loc 1 638 0
 2745 046c 6A4C     		ldr	r4, .L551+32
 2746 046e 6B4B     		ldr	r3, .L551+36
 2747 0470 1868     		ldr	r0, [r3]	@ unaligned
 2748 0472 2060     		str	r0, [r4]	@ unaligned
 2749 0474 9B88     		ldrh	r3, [r3, #4]	@ unaligned
 2750 0476 A380     		strh	r3, [r4, #4]	@ unaligned
 639:main.c        ****       displayMenu(Menus.Letra,30,0,1,2);     
 2751              		.loc 1 639 0
 2752 0478 0223     		movs	r3, #2
 2753 047a 0093     		str	r3, [sp]
 2754 047c 0123     		movs	r3, #1
 2755 047e 0022     		movs	r2, #0
 2756 0480 1E21     		movs	r1, #30
 2757 0482 2046     		mov	r0, r4
 2758 0484 FFF7FEFF 		bl	displayMenu
 2759              	.LVL215:
 640:main.c        ****       
 641:main.c        ****       if(tup>30){
 2760              		.loc 1 641 0
 2761 0488 654B     		ldr	r3, .L551+40
 2762 048a 1B88     		ldrh	r3, [r3]
 2763 048c 1E2B     		cmp	r3, #30
 2764 048e 42D9     		bls	.L199
 642:main.c        ****          BUZZER_Write(1);CyDelay(10);BUZZER_Write(0);
 2765              		.loc 1 642 0
 2766 0490 0120     		movs	r0, #1
 2767 0492 FFF7FEFF 		bl	BUZZER_Write
 2768              	.LVL216:
 2769 0496 0A20     		movs	r0, #10
 2770 0498 FFF7FEFF 		bl	CyDelay
 2771              	.LVL217:
 2772 049c 0020     		movs	r0, #0
 2773 049e FFF7FEFF 		bl	BUZZER_Write
 2774              	.LVL218:
 643:main.c        ****          CyDelay(200);
 2775              		.loc 1 643 0
 2776 04a2 C820     		movs	r0, #200
 2777 04a4 FFF7FEFF 		bl	CyDelay
 2778              	.LVL219:
 644:main.c        ****          for(i=1;i<=4;i++){
 2779              		.loc 1 644 0
 2780 04a8 0122     		movs	r2, #1
 2781 04aa 5E4B     		ldr	r3, .L551+44
ARM GAS  C:\Users\USUARIO\AppData\Local\Temp\ccfDwbds.s 			page 64


 2782 04ac 1A70     		strb	r2, [r3]
 2783 04ae 2EE0     		b	.L200
 2784              	.L204:
 645:main.c        ****             if(unidad==i){
 2785              		.loc 1 645 0
 2786 04b0 5D4B     		ldr	r3, .L551+48
 2787 04b2 1B78     		ldrb	r3, [r3]	@ zero_extendqisi2
 2788 04b4 9942     		cmp	r1, r3
 2789 04b6 19D1     		bne	.L201
 646:main.c        ****                Contrasena[i-1]++;
 2790              		.loc 1 646 0
 2791 04b8 4A1E     		subs	r2, r1, #1
 2792 04ba 5C48     		ldr	r0, .L551+52
 2793 04bc 1044     		add	r0, r0, r2
 2794 04be 90F91830 		ldrsb	r3, [r0, #24]
 2795 04c2 0133     		adds	r3, r3, #1
 2796 04c4 5BB2     		sxtb	r3, r3
 2797 04c6 0376     		strb	r3, [r0, #24]
 647:main.c        ****                if(Contrasena[i-1]>9)   
 2798              		.loc 1 647 0
 2799 04c8 092B     		cmp	r3, #9
 2800 04ca 02DD     		ble	.L202
 648:main.c        ****                   Contrasena[i-1]=0;
 2801              		.loc 1 648 0
 2802 04cc 0346     		mov	r3, r0
 2803 04ce 0020     		movs	r0, #0
 2804 04d0 1876     		strb	r0, [r3, #24]
 2805              	.L202:
 649:main.c        ****                displayContrasena(Contrasena[i-1],i*20,30,1);
 2806              		.loc 1 649 0
 2807 04d2 5648     		ldr	r0, .L551+52
 2808 04d4 1044     		add	r0, r0, r2
 2809 04d6 01EB8101 		add	r1, r1, r1, lsl #2
 2810 04da 8900     		lsls	r1, r1, #2
 2811 04dc 0123     		movs	r3, #1
 2812 04de 1E22     		movs	r2, #30
 2813 04e0 01F0FC01 		and	r1, r1, #252
 2814 04e4 007E     		ldrb	r0, [r0, #24]	@ zero_extendqisi2
 2815 04e6 FFF7FEFF 		bl	displayContrasena
 2816              	.LVL220:
 2817 04ea 0CE0     		b	.L203
 2818              	.L201:
 650:main.c        ****             }else{
 651:main.c        ****                displayContrasena(Contrasena[i-1],i*20,30,0);
 2819              		.loc 1 651 0
 2820 04ec 4B1E     		subs	r3, r1, #1
 2821 04ee 4F48     		ldr	r0, .L551+52
 2822 04f0 1844     		add	r0, r0, r3
 2823 04f2 01EB8101 		add	r1, r1, r1, lsl #2
 2824 04f6 8900     		lsls	r1, r1, #2
 2825 04f8 0023     		movs	r3, #0
 2826 04fa 1E22     		movs	r2, #30
 2827 04fc 01F0FC01 		and	r1, r1, #252
 2828 0500 007E     		ldrb	r0, [r0, #24]	@ zero_extendqisi2
 2829 0502 FFF7FEFF 		bl	displayContrasena
 2830              	.LVL221:
 2831              	.L203:
ARM GAS  C:\Users\USUARIO\AppData\Local\Temp\ccfDwbds.s 			page 65


 644:main.c        ****             if(unidad==i){
 2832              		.loc 1 644 0 discriminator 2
 2833 0506 474A     		ldr	r2, .L551+44
 2834 0508 1378     		ldrb	r3, [r2]	@ zero_extendqisi2
 2835 050a 0133     		adds	r3, r3, #1
 2836 050c 1370     		strb	r3, [r2]
 2837              	.L200:
 644:main.c        ****             if(unidad==i){
 2838              		.loc 1 644 0 is_stmt 0 discriminator 1
 2839 050e 454B     		ldr	r3, .L551+44
 2840 0510 1978     		ldrb	r1, [r3]	@ zero_extendqisi2
 2841 0512 0429     		cmp	r1, #4
 2842 0514 CCD9     		bls	.L204
 2843              	.L199:
 652:main.c        ****             }
 653:main.c        ****          }
 654:main.c        ****       }
 655:main.c        ****             
 656:main.c        ****       if(tdown>30){
 2844              		.loc 1 656 0 is_stmt 1
 2845 0516 464B     		ldr	r3, .L551+56
 2846 0518 1B88     		ldrh	r3, [r3]
 2847 051a 1E2B     		cmp	r3, #30
 2848 051c 42D9     		bls	.L205
 657:main.c        ****          BUZZER_Write(1);CyDelay(10);BUZZER_Write(0);
 2849              		.loc 1 657 0
 2850 051e 0120     		movs	r0, #1
 2851 0520 FFF7FEFF 		bl	BUZZER_Write
 2852              	.LVL222:
 2853 0524 0A20     		movs	r0, #10
 2854 0526 FFF7FEFF 		bl	CyDelay
 2855              	.LVL223:
 2856 052a 0020     		movs	r0, #0
 2857 052c FFF7FEFF 		bl	BUZZER_Write
 2858              	.LVL224:
 658:main.c        ****          CyDelay(200);
 2859              		.loc 1 658 0
 2860 0530 C820     		movs	r0, #200
 2861 0532 FFF7FEFF 		bl	CyDelay
 2862              	.LVL225:
 659:main.c        ****          for(i=1;i<=4;i++){
 2863              		.loc 1 659 0
 2864 0536 0122     		movs	r2, #1
 2865 0538 3A4B     		ldr	r3, .L551+44
 2866 053a 1A70     		strb	r2, [r3]
 2867 053c 2EE0     		b	.L206
 2868              	.L210:
 660:main.c        ****             if(unidad==i){
 2869              		.loc 1 660 0
 2870 053e 3A4B     		ldr	r3, .L551+48
 2871 0540 1B78     		ldrb	r3, [r3]	@ zero_extendqisi2
 2872 0542 9942     		cmp	r1, r3
 2873 0544 19D1     		bne	.L207
 661:main.c        ****                Contrasena[i-1]--;
 2874              		.loc 1 661 0
 2875 0546 4A1E     		subs	r2, r1, #1
 2876 0548 3848     		ldr	r0, .L551+52
ARM GAS  C:\Users\USUARIO\AppData\Local\Temp\ccfDwbds.s 			page 66


 2877 054a 1044     		add	r0, r0, r2
 2878 054c 90F91830 		ldrsb	r3, [r0, #24]
 2879 0550 013B     		subs	r3, r3, #1
 2880 0552 5BB2     		sxtb	r3, r3
 2881 0554 0376     		strb	r3, [r0, #24]
 662:main.c        ****                if(Contrasena[i-1]<0)
 2882              		.loc 1 662 0
 2883 0556 002B     		cmp	r3, #0
 2884 0558 02DA     		bge	.L208
 663:main.c        ****                   Contrasena[i-1]=9;
 2885              		.loc 1 663 0
 2886 055a 0346     		mov	r3, r0
 2887 055c 0920     		movs	r0, #9
 2888 055e 1876     		strb	r0, [r3, #24]
 2889              	.L208:
 664:main.c        ****                displayContrasena(Contrasena[i-1],i*20,30,1);}
 2890              		.loc 1 664 0
 2891 0560 3248     		ldr	r0, .L551+52
 2892 0562 1044     		add	r0, r0, r2
 2893 0564 01EB8101 		add	r1, r1, r1, lsl #2
 2894 0568 8900     		lsls	r1, r1, #2
 2895 056a 0123     		movs	r3, #1
 2896 056c 1E22     		movs	r2, #30
 2897 056e 01F0FC01 		and	r1, r1, #252
 2898 0572 007E     		ldrb	r0, [r0, #24]	@ zero_extendqisi2
 2899 0574 FFF7FEFF 		bl	displayContrasena
 2900              	.LVL226:
 2901 0578 0CE0     		b	.L209
 2902              	.L207:
 665:main.c        ****             else
 666:main.c        ****             displayContrasena(Contrasena[i-1],i*20,30,0);
 2903              		.loc 1 666 0
 2904 057a 4B1E     		subs	r3, r1, #1
 2905 057c 2B48     		ldr	r0, .L551+52
 2906 057e 1844     		add	r0, r0, r3
 2907 0580 01EB8101 		add	r1, r1, r1, lsl #2
 2908 0584 8900     		lsls	r1, r1, #2
 2909 0586 0023     		movs	r3, #0
 2910 0588 1E22     		movs	r2, #30
 2911 058a 01F0FC01 		and	r1, r1, #252
 2912 058e 007E     		ldrb	r0, [r0, #24]	@ zero_extendqisi2
 2913 0590 FFF7FEFF 		bl	displayContrasena
 2914              	.LVL227:
 2915              	.L209:
 659:main.c        ****             if(unidad==i){
 2916              		.loc 1 659 0 discriminator 2
 2917 0594 234A     		ldr	r2, .L551+44
 2918 0596 1378     		ldrb	r3, [r2]	@ zero_extendqisi2
 2919 0598 0133     		adds	r3, r3, #1
 2920 059a 1370     		strb	r3, [r2]
 2921              	.L206:
 659:main.c        ****             if(unidad==i){
 2922              		.loc 1 659 0 is_stmt 0 discriminator 1
 2923 059c 214B     		ldr	r3, .L551+44
 2924 059e 1978     		ldrb	r1, [r3]	@ zero_extendqisi2
 2925 05a0 0429     		cmp	r1, #4
 2926 05a2 CCD9     		bls	.L210
ARM GAS  C:\Users\USUARIO\AppData\Local\Temp\ccfDwbds.s 			page 67


 2927              	.L205:
 667:main.c        ****          }        
 668:main.c        ****       }
 669:main.c        ****             
 670:main.c        ****       if(tright>30){
 2928              		.loc 1 670 0 is_stmt 1
 2929 05a4 234B     		ldr	r3, .L551+60
 2930 05a6 1B88     		ldrh	r3, [r3]
 2931 05a8 1E2B     		cmp	r3, #30
 2932 05aa 5AD9     		bls	.L211
 671:main.c        ****          BUZZER_Write(1);CyDelay(10);BUZZER_Write(0);
 2933              		.loc 1 671 0
 2934 05ac 0120     		movs	r0, #1
 2935 05ae FFF7FEFF 		bl	BUZZER_Write
 2936              	.LVL228:
 2937 05b2 0A20     		movs	r0, #10
 2938 05b4 FFF7FEFF 		bl	CyDelay
 2939              	.LVL229:
 2940 05b8 0020     		movs	r0, #0
 2941 05ba FFF7FEFF 		bl	BUZZER_Write
 2942              	.LVL230:
 672:main.c        ****          CyDelay(200);unidad++;
 2943              		.loc 1 672 0
 2944 05be C820     		movs	r0, #200
 2945 05c0 FFF7FEFF 		bl	CyDelay
 2946              	.LVL231:
 2947 05c4 184A     		ldr	r2, .L551+48
 2948 05c6 1378     		ldrb	r3, [r2]	@ zero_extendqisi2
 2949 05c8 0133     		adds	r3, r3, #1
 2950 05ca 1370     		strb	r3, [r2]
 673:main.c        ****          for(i=1;i<=4;i++){
 2951              		.loc 1 673 0
 2952 05cc 0122     		movs	r2, #1
 2953 05ce 154B     		ldr	r3, .L551+44
 2954 05d0 1A70     		strb	r2, [r3]
 2955 05d2 42E0     		b	.L212
 2956              	.L215:
 674:main.c        ****             if(unidad==i)
 2957              		.loc 1 674 0
 2958 05d4 144B     		ldr	r3, .L551+48
 2959 05d6 1B78     		ldrb	r3, [r3]	@ zero_extendqisi2
 2960 05d8 9942     		cmp	r1, r3
 2961 05da 2DD1     		bne	.L213
 675:main.c        ****             {displayContrasena(Contrasena[i-1],i*20,30,1);}
 2962              		.loc 1 675 0
 2963 05dc 4B1E     		subs	r3, r1, #1
 2964 05de 1348     		ldr	r0, .L551+52
 2965 05e0 1844     		add	r0, r0, r3
 2966 05e2 01EB8101 		add	r1, r1, r1, lsl #2
 2967 05e6 8900     		lsls	r1, r1, #2
 2968 05e8 0123     		movs	r3, #1
 2969 05ea 1E22     		movs	r2, #30
 2970 05ec 01F0FC01 		and	r1, r1, #252
 2971 05f0 007E     		ldrb	r0, [r0, #24]	@ zero_extendqisi2
 2972 05f2 FFF7FEFF 		bl	displayContrasena
 2973              	.LVL232:
 2974 05f6 2CE0     		b	.L214
ARM GAS  C:\Users\USUARIO\AppData\Local\Temp\ccfDwbds.s 			page 68


 2975              	.L552:
 2976              		.align	2
 2977              	.L551:
 2978 05f8 00000000 		.word	Menu
 2979 05fc 00000000 		.word	MediaMovil
 2980 0600 00000000 		.word	Temperatura
 2981 0604 00000000 		.word	coldJnTemp
 2982 0608 00000000 		.word	Lectura2
 2983 060c 00000000 		.word	grafica
 2984 0610 00000000 		.word	Test
 2985 0614 00001643 		.word	1125515264
 2986 0618 00000000 		.word	Menus
 2987 061c 44000000 		.word	.LC5
 2988 0620 00000000 		.word	tup
 2989 0624 00000000 		.word	i
 2990 0628 00000000 		.word	unidad
 2991 062c 00000000 		.word	.LANCHOR0
 2992 0630 00000000 		.word	tdown
 2993 0634 00000000 		.word	tright
 2994              	.L213:
 676:main.c        ****             else
 677:main.c        ****             {displayContrasena(Contrasena[i-1],i*20,30,0);}
 2995              		.loc 1 677 0
 2996 0638 4B1E     		subs	r3, r1, #1
 2997 063a B548     		ldr	r0, .L553
 2998 063c 1844     		add	r0, r0, r3
 2999 063e 01EB8101 		add	r1, r1, r1, lsl #2
 3000 0642 8900     		lsls	r1, r1, #2
 3001 0644 0023     		movs	r3, #0
 3002 0646 1E22     		movs	r2, #30
 3003 0648 01F0FC01 		and	r1, r1, #252
 3004 064c 007E     		ldrb	r0, [r0, #24]	@ zero_extendqisi2
 3005 064e FFF7FEFF 		bl	displayContrasena
 3006              	.LVL233:
 3007              	.L214:
 673:main.c        ****             if(unidad==i)
 3008              		.loc 1 673 0 discriminator 2
 3009 0652 B04A     		ldr	r2, .L553+4
 3010 0654 1378     		ldrb	r3, [r2]	@ zero_extendqisi2
 3011 0656 0133     		adds	r3, r3, #1
 3012 0658 1370     		strb	r3, [r2]
 3013              	.L212:
 673:main.c        ****             if(unidad==i)
 3014              		.loc 1 673 0 is_stmt 0 discriminator 1
 3015 065a AE4B     		ldr	r3, .L553+4
 3016 065c 1978     		ldrb	r1, [r3]	@ zero_extendqisi2
 3017 065e 0429     		cmp	r1, #4
 3018 0660 B8D9     		bls	.L215
 3019              	.L211:
 678:main.c        ****          }
 679:main.c        ****       }
 680:main.c        ****     
 681:main.c        ****       if(unidad>4){
 3020              		.loc 1 681 0 is_stmt 1
 3021 0662 AD4B     		ldr	r3, .L553+8
 3022 0664 1B78     		ldrb	r3, [r3]	@ zero_extendqisi2
 3023 0666 042B     		cmp	r3, #4
ARM GAS  C:\Users\USUARIO\AppData\Local\Temp\ccfDwbds.s 			page 69


 3024 0668 40F2D680 		bls	.L198
 682:main.c        ****         glcd_fillScreen(OFF);unidad=4;
 3025              		.loc 1 682 0
 3026 066c 0020     		movs	r0, #0
 3027 066e FFF7FEFF 		bl	glcd_fillScreen
 3028              	.LVL234:
 3029 0672 0422     		movs	r2, #4
 3030 0674 A84B     		ldr	r3, .L553+8
 3031 0676 1A70     		strb	r2, [r3]
 683:main.c        ****          if(Contrasena[0]==3&&Contrasena[1]==8&&Contrasena[2]==9&&Contrasena[3]==2) // Si Ingresa c
 3032              		.loc 1 683 0
 3033 0678 A54B     		ldr	r3, .L553
 3034 067a 93F91830 		ldrsb	r3, [r3, #24]
 3035 067e 032B     		cmp	r3, #3
 3036 0680 30D1     		bne	.L216
 3037              		.loc 1 683 0 is_stmt 0 discriminator 1
 3038 0682 A34B     		ldr	r3, .L553
 3039 0684 93F91930 		ldrsb	r3, [r3, #25]
 3040 0688 082B     		cmp	r3, #8
 3041 068a 2BD1     		bne	.L216
 3042              		.loc 1 683 0 discriminator 2
 3043 068c A04B     		ldr	r3, .L553
 3044 068e 93F91A30 		ldrsb	r3, [r3, #26]
 3045 0692 092B     		cmp	r3, #9
 3046 0694 26D1     		bne	.L216
 3047              		.loc 1 683 0 discriminator 3
 3048 0696 9E4B     		ldr	r3, .L553
 3049 0698 93F91B30 		ldrsb	r3, [r3, #27]
 3050 069c 022B     		cmp	r3, #2
 3051 069e 21D1     		bne	.L216
 684:main.c        ****             {EEPROM_WriteByte(0,460);CyDelay(20);EEPROM_WriteByte(0,461);CyDelay(20);// Reestablece
 3052              		.loc 1 684 0 is_stmt 1
 3053 06a0 4FF4E671 		mov	r1, #460
 3054 06a4 0020     		movs	r0, #0
 3055 06a6 FFF7FEFF 		bl	EEPROM_WriteByte
 3056              	.LVL235:
 3057 06aa 1420     		movs	r0, #20
 3058 06ac FFF7FEFF 		bl	CyDelay
 3059              	.LVL236:
 3060 06b0 40F2CD11 		movw	r1, #461
 3061 06b4 0020     		movs	r0, #0
 3062 06b6 FFF7FEFF 		bl	EEPROM_WriteByte
 3063              	.LVL237:
 3064 06ba 1420     		movs	r0, #20
 3065 06bc FFF7FEFF 		bl	CyDelay
 3066              	.LVL238:
 685:main.c        ****              EEPROM_WriteByte(0,462);CyDelay(20);EEPROM_WriteByte(0,463);CyDelay(20);
 3067              		.loc 1 685 0
 3068 06c0 4FF4E771 		mov	r1, #462
 3069 06c4 0020     		movs	r0, #0
 3070 06c6 FFF7FEFF 		bl	EEPROM_WriteByte
 3071              	.LVL239:
 3072 06ca 1420     		movs	r0, #20
 3073 06cc FFF7FEFF 		bl	CyDelay
 3074              	.LVL240:
 3075 06d0 40F2CF11 		movw	r1, #463
 3076 06d4 0020     		movs	r0, #0
ARM GAS  C:\Users\USUARIO\AppData\Local\Temp\ccfDwbds.s 			page 70


 3077 06d6 FFF7FEFF 		bl	EEPROM_WriteByte
 3078              	.LVL241:
 3079 06da 1420     		movs	r0, #20
 3080 06dc FFF7FEFF 		bl	CyDelay
 3081              	.LVL242:
 686:main.c        ****              CySoftwareReset();}        
 3082              		.loc 1 686 0
 3083 06e0 FFF7FEFF 		bl	CySoftwareReset
 3084              	.LVL243:
 3085              	.L216:
 687:main.c        ****          
 688:main.c        ****          if((Contrasena[0]==Password[0])&&(Contrasena[1]==Password[1])&&(Contrasena[2]==Password[2]
 3086              		.loc 1 688 0
 3087 06e4 8A4B     		ldr	r3, .L553
 3088 06e6 93F91820 		ldrsb	r2, [r3, #24]
 3089 06ea 8C4B     		ldr	r3, .L553+12
 3090 06ec 1B78     		ldrb	r3, [r3]	@ zero_extendqisi2
 3091 06ee 9A42     		cmp	r2, r3
 3092 06f0 47D1     		bne	.L217
 3093              		.loc 1 688 0 is_stmt 0 discriminator 1
 3094 06f2 874B     		ldr	r3, .L553
 3095 06f4 93F91920 		ldrsb	r2, [r3, #25]
 3096 06f8 884B     		ldr	r3, .L553+12
 3097 06fa 5B78     		ldrb	r3, [r3, #1]	@ zero_extendqisi2
 3098 06fc 9A42     		cmp	r2, r3
 3099 06fe 40D1     		bne	.L217
 3100              		.loc 1 688 0 discriminator 2
 3101 0700 834B     		ldr	r3, .L553
 3102 0702 93F91A20 		ldrsb	r2, [r3, #26]
 3103 0706 854B     		ldr	r3, .L553+12
 3104 0708 9B78     		ldrb	r3, [r3, #2]	@ zero_extendqisi2
 3105 070a 9A42     		cmp	r2, r3
 3106 070c 39D1     		bne	.L217
 3107              		.loc 1 688 0 discriminator 3
 3108 070e 804B     		ldr	r3, .L553
 3109 0710 93F91B20 		ldrsb	r2, [r3, #27]
 3110 0714 814B     		ldr	r3, .L553+12
 3111 0716 DB78     		ldrb	r3, [r3, #3]	@ zero_extendqisi2
 3112 0718 9A42     		cmp	r2, r3
 3113 071a 32D1     		bne	.L217
 689:main.c        ****             glcd_fillScreen(OFF);
 3114              		.loc 1 689 0 is_stmt 1
 3115 071c 0020     		movs	r0, #0
 3116 071e FFF7FEFF 		bl	glcd_fillScreen
 3117              	.LVL244:
 690:main.c        ****             strcpy(Menus.Letra,"Clave");
 3118              		.loc 1 690 0
 3119 0722 7F4C     		ldr	r4, .L553+16
 3120 0724 7F4B     		ldr	r3, .L553+20
 3121 0726 1868     		ldr	r0, [r3]	@ unaligned
 3122 0728 2060     		str	r0, [r4]	@ unaligned
 3123 072a 9B88     		ldrh	r3, [r3, #4]	@ unaligned
 3124 072c A380     		strh	r3, [r4, #4]	@ unaligned
 691:main.c        ****             displayMenu(Menus.Letra,30,0,0,2);
 3125              		.loc 1 691 0
 3126 072e 0225     		movs	r5, #2
 3127 0730 0095     		str	r5, [sp]
ARM GAS  C:\Users\USUARIO\AppData\Local\Temp\ccfDwbds.s 			page 71


 3128 0732 0023     		movs	r3, #0
 3129 0734 1A46     		mov	r2, r3
 3130 0736 1E21     		movs	r1, #30
 3131 0738 2046     		mov	r0, r4
 3132 073a FFF7FEFF 		bl	displayMenu
 3133              	.LVL245:
 692:main.c        ****             strcpy(Menus.Letra,"Correcta");
 3134              		.loc 1 692 0
 3135 073e 7A4B     		ldr	r3, .L553+24
 3136 0740 03CB     		ldmia	r3!, {r0, r1}
 3137 0742 2060     		str	r0, [r4]	@ unaligned
 3138 0744 6160     		str	r1, [r4, #4]	@ unaligned
 3139 0746 1B78     		ldrb	r3, [r3]	@ zero_extendqisi2
 3140 0748 2372     		strb	r3, [r4, #8]
 693:main.c        ****             displayMenu(Menus.Letra,15,30,0,2);
 3141              		.loc 1 693 0
 3142 074a 0095     		str	r5, [sp]
 3143 074c 0023     		movs	r3, #0
 3144 074e 1E22     		movs	r2, #30
 3145 0750 0F21     		movs	r1, #15
 3146 0752 2046     		mov	r0, r4
 3147 0754 FFF7FEFF 		bl	displayMenu
 3148              	.LVL246:
 694:main.c        ****             Menu=1;glcd_update();CyDelay(1000);
 3149              		.loc 1 694 0
 3150 0758 0124     		movs	r4, #1
 3151 075a 744B     		ldr	r3, .L553+28
 3152 075c 1C70     		strb	r4, [r3]
 3153 075e FFF7FEFF 		bl	glcd_update
 3154              	.LVL247:
 3155 0762 4FF47A70 		mov	r0, #1000
 3156 0766 FFF7FEFF 		bl	CyDelay
 3157              	.LVL248:
 695:main.c        ****             glcd_fillScreen(OFF);unidad=1;
 3158              		.loc 1 695 0
 3159 076a 0020     		movs	r0, #0
 3160 076c FFF7FEFF 		bl	glcd_fillScreen
 3161              	.LVL249:
 3162 0770 694B     		ldr	r3, .L553+8
 3163 0772 1C70     		strb	r4, [r3]
 696:main.c        ****             Contrasena[0]=0;Contrasena[1]=0;Contrasena[2]=0;Contrasena[3]=0;
 3164              		.loc 1 696 0
 3165 0774 664B     		ldr	r3, .L553
 3166 0776 0022     		movs	r2, #0
 3167 0778 1A76     		strb	r2, [r3, #24]
 3168 077a 5A76     		strb	r2, [r3, #25]
 3169 077c 9A76     		strb	r2, [r3, #26]
 3170 077e DA76     		strb	r2, [r3, #27]
 3171 0780 4AE0     		b	.L198
 3172              	.L217:
 697:main.c        ****          }else{
 698:main.c        ****             glcd_fillScreen(OFF);
 3173              		.loc 1 698 0
 3174 0782 0020     		movs	r0, #0
 3175 0784 FFF7FEFF 		bl	glcd_fillScreen
 3176              	.LVL250:
 699:main.c        ****             strcpy(Menus.Letra,"Clave");
ARM GAS  C:\Users\USUARIO\AppData\Local\Temp\ccfDwbds.s 			page 72


 3177              		.loc 1 699 0
 3178 0788 654C     		ldr	r4, .L553+16
 3179 078a 664B     		ldr	r3, .L553+20
 3180 078c 1868     		ldr	r0, [r3]	@ unaligned
 3181 078e 2060     		str	r0, [r4]	@ unaligned
 3182 0790 9B88     		ldrh	r3, [r3, #4]	@ unaligned
 3183 0792 A380     		strh	r3, [r4, #4]	@ unaligned
 700:main.c        ****             displayMenu(Menus.Letra,30,0,0,2);
 3184              		.loc 1 700 0
 3185 0794 0225     		movs	r5, #2
 3186 0796 0095     		str	r5, [sp]
 3187 0798 0023     		movs	r3, #0
 3188 079a 1A46     		mov	r2, r3
 3189 079c 1E21     		movs	r1, #30
 3190 079e 2046     		mov	r0, r4
 3191 07a0 FFF7FEFF 		bl	displayMenu
 3192              	.LVL251:
 701:main.c        ****             strcpy(Menus.Letra,"Incorrecta");
 3193              		.loc 1 701 0
 3194 07a4 624B     		ldr	r3, .L553+32
 3195 07a6 03CB     		ldmia	r3!, {r0, r1}
 3196 07a8 2060     		str	r0, [r4]	@ unaligned
 3197 07aa 6160     		str	r1, [r4, #4]	@ unaligned
 3198 07ac 1A88     		ldrh	r2, [r3]	@ unaligned
 3199 07ae 9B78     		ldrb	r3, [r3, #2]	@ zero_extendqisi2
 3200 07b0 2281     		strh	r2, [r4, #8]	@ unaligned
 3201 07b2 A372     		strb	r3, [r4, #10]
 702:main.c        ****             displayMenu(Menus.Letra,0,30,0,2);
 3202              		.loc 1 702 0
 3203 07b4 0095     		str	r5, [sp]
 3204 07b6 0023     		movs	r3, #0
 3205 07b8 1E22     		movs	r2, #30
 3206 07ba 1946     		mov	r1, r3
 3207 07bc 2046     		mov	r0, r4
 3208 07be FFF7FEFF 		bl	displayMenu
 3209              	.LVL252:
 703:main.c        ****             Menu=0;glcd_update();CyDelay(1000);
 3210              		.loc 1 703 0
 3211 07c2 0024     		movs	r4, #0
 3212 07c4 594B     		ldr	r3, .L553+28
 3213 07c6 1C70     		strb	r4, [r3]
 3214 07c8 FFF7FEFF 		bl	glcd_update
 3215              	.LVL253:
 3216 07cc 4FF47A70 		mov	r0, #1000
 3217 07d0 FFF7FEFF 		bl	CyDelay
 3218              	.LVL254:
 704:main.c        ****             glcd_fillScreen(OFF);unidad=1;
 3219              		.loc 1 704 0
 3220 07d4 2046     		mov	r0, r4
 3221 07d6 FFF7FEFF 		bl	glcd_fillScreen
 3222              	.LVL255:
 3223 07da 0123     		movs	r3, #1
 3224 07dc 4E4A     		ldr	r2, .L553+8
 3225 07de 1370     		strb	r3, [r2]
 705:main.c        ****             Contrasena[0]=0;Contrasena[1]=0;Contrasena[2]=0;Contrasena[3]=0;
 3226              		.loc 1 705 0
 3227 07e0 4B4D     		ldr	r5, .L553
ARM GAS  C:\Users\USUARIO\AppData\Local\Temp\ccfDwbds.s 			page 73


 3228 07e2 2C76     		strb	r4, [r5, #24]
 3229 07e4 6C76     		strb	r4, [r5, #25]
 3230 07e6 AC76     		strb	r4, [r5, #26]
 3231 07e8 EC76     		strb	r4, [r5, #27]
 706:main.c        ****             displayContrasena(Contrasena[0],20,30,1);
 3232              		.loc 1 706 0
 3233 07ea 1E22     		movs	r2, #30
 3234 07ec 1421     		movs	r1, #20
 3235 07ee 2046     		mov	r0, r4
 3236 07f0 FFF7FEFF 		bl	displayContrasena
 3237              	.LVL256:
 707:main.c        ****             displayContrasena(Contrasena[1],40,30,0);
 3238              		.loc 1 707 0
 3239 07f4 2346     		mov	r3, r4
 3240 07f6 1E22     		movs	r2, #30
 3241 07f8 2821     		movs	r1, #40
 3242 07fa 687E     		ldrb	r0, [r5, #25]	@ zero_extendqisi2
 3243 07fc FFF7FEFF 		bl	displayContrasena
 3244              	.LVL257:
 708:main.c        ****             displayContrasena(Contrasena[2],60,30,0);
 3245              		.loc 1 708 0
 3246 0800 2346     		mov	r3, r4
 3247 0802 1E22     		movs	r2, #30
 3248 0804 3C21     		movs	r1, #60
 3249 0806 A87E     		ldrb	r0, [r5, #26]	@ zero_extendqisi2
 3250 0808 FFF7FEFF 		bl	displayContrasena
 3251              	.LVL258:
 709:main.c        ****             displayContrasena(Contrasena[3],80,30,0);
 3252              		.loc 1 709 0
 3253 080c 2346     		mov	r3, r4
 3254 080e 1E22     		movs	r2, #30
 3255 0810 5021     		movs	r1, #80
 3256 0812 E87E     		ldrb	r0, [r5, #27]	@ zero_extendqisi2
 3257 0814 FFF7FEFF 		bl	displayContrasena
 3258              	.LVL259:
 3259              	.L198:
 710:main.c        ****          }
 711:main.c        ****       }
 712:main.c        ****     }//Clave OK
 713:main.c        **** //_------------------------------------------------------------------------------------------------
 714:main.c        **** 
 715:main.c        **** //_------------------------------------------------------------------------------------------------
 716:main.c        ****       if(Menu==1){ //Menu Principal.      
 3260              		.loc 1 716 0
 3261 0818 444B     		ldr	r3, .L553+28
 3262 081a 1B78     		ldrb	r3, [r3]	@ zero_extendqisi2
 3263 081c 012B     		cmp	r3, #1
 3264 081e 40F08781 		bne	.L218
 717:main.c        ****          Control=0;
 3265              		.loc 1 717 0
 3266 0822 0024     		movs	r4, #0
 3267 0824 434B     		ldr	r3, .L553+36
 3268 0826 1C80     		strh	r4, [r3]	@ movhi
 718:main.c        ****          SSR_Write(0);
 3269              		.loc 1 718 0
 3270 0828 2046     		mov	r0, r4
 3271 082a FFF7FEFF 		bl	SSR_Write
ARM GAS  C:\Users\USUARIO\AppData\Local\Temp\ccfDwbds.s 			page 74


 3272              	.LVL260:
 719:main.c        ****          Testerilizacion[0]=0;
 3273              		.loc 1 719 0
 3274 082e 384B     		ldr	r3, .L553
 3275 0830 1C71     		strb	r4, [r3, #4]
 720:main.c        ****          Testerilizacion[1]=0;
 3276              		.loc 1 720 0
 3277 0832 5C71     		strb	r4, [r3, #5]
 721:main.c        ****          Testerilizacion[2]=0;
 3278              		.loc 1 721 0
 3279 0834 9C71     		strb	r4, [r3, #6]
 722:main.c        ****          Testerilizacion[3]=0;
 3280              		.loc 1 722 0
 3281 0836 DC71     		strb	r4, [r3, #7]
 723:main.c        ****          Segmento=0;
 3282              		.loc 1 723 0
 3283 0838 3F4B     		ldr	r3, .L553+40
 3284 083a 1C70     		strb	r4, [r3]
 724:main.c        ****          Ganancia=GananciaIn;
 3285              		.loc 1 724 0
 3286 083c 3F4B     		ldr	r3, .L553+44
 3287 083e 1A68     		ldr	r2, [r3]	@ float
 3288 0840 3F4B     		ldr	r3, .L553+48
 3289 0842 1A60     		str	r2, [r3]	@ float
 725:main.c        ****          if(flagGuardaEstado){
 3290              		.loc 1 725 0
 3291 0844 3F4B     		ldr	r3, .L553+52
 3292 0846 B3F90030 		ldrsh	r3, [r3]
 3293 084a 4BB1     		cbz	r3, .L219
 726:main.c        ****             EEPROM_WriteByte(0,495);CyDelay(20);
 3294              		.loc 1 726 0
 3295 084c 40F2EF11 		movw	r1, #495
 3296 0850 2046     		mov	r0, r4
 3297 0852 FFF7FEFF 		bl	EEPROM_WriteByte
 3298              	.LVL261:
 3299 0856 1420     		movs	r0, #20
 3300 0858 FFF7FEFF 		bl	CyDelay
 3301              	.LVL262:
 727:main.c        ****             flagGuardaEstado=OFF;
 3302              		.loc 1 727 0
 3303 085c 394B     		ldr	r3, .L553+52
 3304 085e 1C80     		strh	r4, [r3]	@ movhi
 3305              	.L219:
 728:main.c        ****          }
 729:main.c        ****          if(Opcion>5)
 3306              		.loc 1 729 0
 3307 0860 394B     		ldr	r3, .L553+56
 3308 0862 1B78     		ldrb	r3, [r3]	@ zero_extendqisi2
 3309 0864 052B     		cmp	r3, #5
 3310 0866 02D9     		bls	.L220
 730:main.c        ****          {Opcion=1;}
 3311              		.loc 1 730 0
 3312 0868 0122     		movs	r2, #1
 3313 086a 374B     		ldr	r3, .L553+56
 3314 086c 1A70     		strb	r2, [r3]
 3315              	.L220:
 731:main.c        ****          if(Opcion<1)
ARM GAS  C:\Users\USUARIO\AppData\Local\Temp\ccfDwbds.s 			page 75


 3316              		.loc 1 731 0
 3317 086e 364B     		ldr	r3, .L553+56
 3318 0870 1B78     		ldrb	r3, [r3]	@ zero_extendqisi2
 3319 0872 13B9     		cbnz	r3, .L221
 732:main.c        ****          {Opcion=5;}
 3320              		.loc 1 732 0
 3321 0874 0522     		movs	r2, #5
 3322 0876 344B     		ldr	r3, .L553+56
 3323 0878 1A70     		strb	r2, [r3]
 3324              	.L221:
 733:main.c        ****          
 734:main.c        ****          strcpy(Menus.Letra,"Menu");
 3325              		.loc 1 734 0
 3326 087a 294C     		ldr	r4, .L553+16
 3327 087c 334B     		ldr	r3, .L553+60
 3328 087e 1868     		ldr	r0, [r3]	@ unaligned
 3329 0880 2060     		str	r0, [r4]	@ unaligned
 3330 0882 1B79     		ldrb	r3, [r3, #4]	@ zero_extendqisi2
 3331 0884 2371     		strb	r3, [r4, #4]
 735:main.c        ****          displayMenu(Menus.Letra,30,0,1,2);
 3332              		.loc 1 735 0
 3333 0886 0223     		movs	r3, #2
 3334 0888 0093     		str	r3, [sp]
 3335 088a 0123     		movs	r3, #1
 3336 088c 0022     		movs	r2, #0
 3337 088e 1E21     		movs	r1, #30
 3338 0890 2046     		mov	r0, r4
 3339 0892 FFF7FEFF 		bl	displayMenu
 3340              	.LVL263:
 736:main.c        ****       
 737:main.c        ****          if(Opcion<=5){
 3341              		.loc 1 737 0
 3342 0896 2C4B     		ldr	r3, .L553+56
 3343 0898 1B78     		ldrb	r3, [r3]	@ zero_extendqisi2
 3344 089a 052B     		cmp	r3, #5
 3345 089c 00F2CF80 		bhi	.L222
 738:main.c        ****             if(Opcion==1)   
 3346              		.loc 1 738 0
 3347 08a0 012B     		cmp	r3, #1
 3348 08a2 10D1     		bne	.L223
 739:main.c        ****                 {strcpy(Menus.Letra,"Iniciar Programa");
 3349              		.loc 1 739 0
 3350 08a4 2546     		mov	r5, r4
 3351 08a6 2A4C     		ldr	r4, .L553+64
 3352 08a8 0FCC     		ldmia	r4!, {r0, r1, r2, r3}
 3353 08aa 2860     		str	r0, [r5]	@ unaligned
 3354 08ac 6960     		str	r1, [r5, #4]	@ unaligned
 3355 08ae AA60     		str	r2, [r5, #8]	@ unaligned
 3356 08b0 EB60     		str	r3, [r5, #12]	@ unaligned
 3357 08b2 2378     		ldrb	r3, [r4]	@ zero_extendqisi2
 3358 08b4 2B74     		strb	r3, [r5, #16]
 740:main.c        ****                 displayMenu(Menus.Letra,0,18,1,1);}
 3359              		.loc 1 740 0
 3360 08b6 0123     		movs	r3, #1
 3361 08b8 0093     		str	r3, [sp]
 3362 08ba 1222     		movs	r2, #18
 3363 08bc 0021     		movs	r1, #0
ARM GAS  C:\Users\USUARIO\AppData\Local\Temp\ccfDwbds.s 			page 76


 3364 08be 2846     		mov	r0, r5
 3365 08c0 FFF7FEFF 		bl	displayMenu
 3366              	.LVL264:
 3367 08c4 10E0     		b	.L224
 3368              	.L223:
 741:main.c        ****             else
 742:main.c        ****                 {strcpy(Menus.Letra,"Iniciar Programa");
 3369              		.loc 1 742 0
 3370 08c6 164D     		ldr	r5, .L553+16
 3371 08c8 214C     		ldr	r4, .L553+64
 3372 08ca 0FCC     		ldmia	r4!, {r0, r1, r2, r3}
 3373 08cc 2860     		str	r0, [r5]	@ unaligned
 3374 08ce 6960     		str	r1, [r5, #4]	@ unaligned
 3375 08d0 AA60     		str	r2, [r5, #8]	@ unaligned
 3376 08d2 EB60     		str	r3, [r5, #12]	@ unaligned
 3377 08d4 2378     		ldrb	r3, [r4]	@ zero_extendqisi2
 3378 08d6 2B74     		strb	r3, [r5, #16]
 743:main.c        ****                 displayMenu(Menus.Letra,0,18,0,1);}
 3379              		.loc 1 743 0
 3380 08d8 0123     		movs	r3, #1
 3381 08da 0093     		str	r3, [sp]
 3382 08dc 0023     		movs	r3, #0
 3383 08de 1222     		movs	r2, #18
 3384 08e0 1946     		mov	r1, r3
 3385 08e2 2846     		mov	r0, r5
 3386 08e4 FFF7FEFF 		bl	displayMenu
 3387              	.LVL265:
 3388              	.L224:
 744:main.c        ****              
 745:main.c        ****             if(Opcion==2)   
 3389              		.loc 1 745 0
 3390 08e8 174B     		ldr	r3, .L553+56
 3391 08ea 1B78     		ldrb	r3, [r3]	@ zero_extendqisi2
 3392 08ec 022B     		cmp	r3, #2
 3393 08ee 33D1     		bne	.L225
 746:main.c        ****                 {strcpy(Menus.Letra,"Editar Programa");
 3394              		.loc 1 746 0
 3395 08f0 0B4D     		ldr	r5, .L553+16
 3396 08f2 184C     		ldr	r4, .L553+68
 3397 08f4 0FCC     		ldmia	r4!, {r0, r1, r2, r3}
 3398 08f6 2860     		str	r0, [r5]	@ unaligned
 3399 08f8 6960     		str	r1, [r5, #4]	@ unaligned
 3400 08fa AA60     		str	r2, [r5, #8]	@ unaligned
 3401 08fc EB60     		str	r3, [r5, #12]	@ unaligned
 747:main.c        ****                 displayMenu(Menus.Letra,0,27,1,1);}
 3402              		.loc 1 747 0
 3403 08fe 0123     		movs	r3, #1
 3404 0900 0093     		str	r3, [sp]
 3405 0902 1B22     		movs	r2, #27
 3406 0904 0021     		movs	r1, #0
 3407 0906 2846     		mov	r0, r5
 3408 0908 FFF7FEFF 		bl	displayMenu
 3409              	.LVL266:
 3410 090c 33E0     		b	.L226
 3411              	.L554:
 3412 090e 00BF     		.align	2
 3413              	.L553:
ARM GAS  C:\Users\USUARIO\AppData\Local\Temp\ccfDwbds.s 			page 77


 3414 0910 00000000 		.word	.LANCHOR0
 3415 0914 00000000 		.word	i
 3416 0918 00000000 		.word	unidad
 3417 091c 00000000 		.word	Password
 3418 0920 00000000 		.word	Menus
 3419 0924 44000000 		.word	.LC5
 3420 0928 4C000000 		.word	.LC6
 3421 092c 00000000 		.word	Menu
 3422 0930 58000000 		.word	.LC7
 3423 0934 00000000 		.word	Control
 3424 0938 00000000 		.word	Segmento
 3425 093c 00000000 		.word	GananciaIn
 3426 0940 00000000 		.word	Ganancia
 3427 0944 00000000 		.word	flagGuardaEstado
 3428 0948 00000000 		.word	Opcion
 3429 094c 64000000 		.word	.LC8
 3430 0950 6C000000 		.word	.LC9
 3431 0954 80000000 		.word	.LC10
 3432              	.L225:
 748:main.c        ****             else
 749:main.c        ****                 {strcpy(Menus.Letra,"Editar Programa");
 3433              		.loc 1 749 0
 3434 0958 5A4D     		ldr	r5, .L555
 3435 095a 5B4C     		ldr	r4, .L555+4
 3436 095c 0FCC     		ldmia	r4!, {r0, r1, r2, r3}
 3437 095e 2860     		str	r0, [r5]	@ unaligned
 3438 0960 6960     		str	r1, [r5, #4]	@ unaligned
 3439 0962 AA60     		str	r2, [r5, #8]	@ unaligned
 3440 0964 EB60     		str	r3, [r5, #12]	@ unaligned
 750:main.c        ****                 displayMenu(Menus.Letra,0,27,0,1);}
 3441              		.loc 1 750 0
 3442 0966 0123     		movs	r3, #1
 3443 0968 0093     		str	r3, [sp]
 3444 096a 0023     		movs	r3, #0
 3445 096c 1B22     		movs	r2, #27
 3446 096e 1946     		mov	r1, r3
 3447 0970 2846     		mov	r0, r5
 3448 0972 FFF7FEFF 		bl	displayMenu
 3449              	.LVL267:
 3450              	.L226:
 751:main.c        ****                 
 752:main.c        ****              if(Opcion==3)   
 3451              		.loc 1 752 0
 3452 0976 554B     		ldr	r3, .L555+8
 3453 0978 1B78     		ldrb	r3, [r3]	@ zero_extendqisi2
 3454 097a 032B     		cmp	r3, #3
 3455 097c 0ED1     		bne	.L227
 753:main.c        ****                 {strcpy(Menus.Letra,"Borrar Programa");
 3456              		.loc 1 753 0
 3457 097e 514D     		ldr	r5, .L555
 3458 0980 534C     		ldr	r4, .L555+12
 3459 0982 0FCC     		ldmia	r4!, {r0, r1, r2, r3}
 3460 0984 2860     		str	r0, [r5]	@ unaligned
 3461 0986 6960     		str	r1, [r5, #4]	@ unaligned
 3462 0988 AA60     		str	r2, [r5, #8]	@ unaligned
 3463 098a EB60     		str	r3, [r5, #12]	@ unaligned
 754:main.c        ****                 displayMenu(Menus.Letra,0,36,1,1);}
ARM GAS  C:\Users\USUARIO\AppData\Local\Temp\ccfDwbds.s 			page 78


 3464              		.loc 1 754 0
 3465 098c 0123     		movs	r3, #1
 3466 098e 0093     		str	r3, [sp]
 3467 0990 2422     		movs	r2, #36
 3468 0992 0021     		movs	r1, #0
 3469 0994 2846     		mov	r0, r5
 3470 0996 FFF7FEFF 		bl	displayMenu
 3471              	.LVL268:
 3472 099a 0EE0     		b	.L228
 3473              	.L227:
 755:main.c        ****             else
 756:main.c        ****                 {strcpy(Menus.Letra,"Borrar Programa");
 3474              		.loc 1 756 0
 3475 099c 494D     		ldr	r5, .L555
 3476 099e 4C4C     		ldr	r4, .L555+12
 3477 09a0 0FCC     		ldmia	r4!, {r0, r1, r2, r3}
 3478 09a2 2860     		str	r0, [r5]	@ unaligned
 3479 09a4 6960     		str	r1, [r5, #4]	@ unaligned
 3480 09a6 AA60     		str	r2, [r5, #8]	@ unaligned
 3481 09a8 EB60     		str	r3, [r5, #12]	@ unaligned
 757:main.c        ****                 displayMenu(Menus.Letra,0,36,0,1);}   
 3482              		.loc 1 757 0
 3483 09aa 0123     		movs	r3, #1
 3484 09ac 0093     		str	r3, [sp]
 3485 09ae 0023     		movs	r3, #0
 3486 09b0 2422     		movs	r2, #36
 3487 09b2 1946     		mov	r1, r3
 3488 09b4 2846     		mov	r0, r5
 3489 09b6 FFF7FEFF 		bl	displayMenu
 3490              	.LVL269:
 3491              	.L228:
 758:main.c        ****                             
 759:main.c        ****              if(Opcion==4)   
 3492              		.loc 1 759 0
 3493 09ba 444B     		ldr	r3, .L555+8
 3494 09bc 1B78     		ldrb	r3, [r3]	@ zero_extendqisi2
 3495 09be 042B     		cmp	r3, #4
 3496 09c0 0CD1     		bne	.L229
 760:main.c        ****                 {strcpy(Menus.Letra,"Ajustes");
 3497              		.loc 1 760 0
 3498 09c2 404C     		ldr	r4, .L555
 3499 09c4 434B     		ldr	r3, .L555+16
 3500 09c6 03CB     		ldmia	r3!, {r0, r1}
 3501 09c8 2060     		str	r0, [r4]	@ unaligned
 3502 09ca 6160     		str	r1, [r4, #4]	@ unaligned
 761:main.c        ****                 displayMenu(Menus.Letra,0,45,1,1);}
 3503              		.loc 1 761 0
 3504 09cc 0123     		movs	r3, #1
 3505 09ce 0093     		str	r3, [sp]
 3506 09d0 2D22     		movs	r2, #45
 3507 09d2 0021     		movs	r1, #0
 3508 09d4 2046     		mov	r0, r4
 3509 09d6 FFF7FEFF 		bl	displayMenu
 3510              	.LVL270:
 3511 09da 0CE0     		b	.L230
 3512              	.L229:
 762:main.c        ****             else
ARM GAS  C:\Users\USUARIO\AppData\Local\Temp\ccfDwbds.s 			page 79


 763:main.c        ****                 {strcpy(Menus.Letra,"Ajustes");
 3513              		.loc 1 763 0
 3514 09dc 394C     		ldr	r4, .L555
 3515 09de 3D4B     		ldr	r3, .L555+16
 3516 09e0 03CB     		ldmia	r3!, {r0, r1}
 3517 09e2 2060     		str	r0, [r4]	@ unaligned
 3518 09e4 6160     		str	r1, [r4, #4]	@ unaligned
 764:main.c        ****                 displayMenu(Menus.Letra,0,45,0,1);}     
 3519              		.loc 1 764 0
 3520 09e6 0123     		movs	r3, #1
 3521 09e8 0093     		str	r3, [sp]
 3522 09ea 0023     		movs	r3, #0
 3523 09ec 2D22     		movs	r2, #45
 3524 09ee 1946     		mov	r1, r3
 3525 09f0 2046     		mov	r0, r4
 3526 09f2 FFF7FEFF 		bl	displayMenu
 3527              	.LVL271:
 3528              	.L230:
 765:main.c        ****              
 766:main.c        ****             if(Opcion==5)   
 3529              		.loc 1 766 0
 3530 09f6 354B     		ldr	r3, .L555+8
 3531 09f8 1B78     		ldrb	r3, [r3]	@ zero_extendqisi2
 3532 09fa 052B     		cmp	r3, #5
 3533 09fc 0FD1     		bne	.L231
 767:main.c        ****                 {strcpy(Menus.Letra,"Cambio Clave");
 3534              		.loc 1 767 0
 3535 09fe 314C     		ldr	r4, .L555
 3536 0a00 354B     		ldr	r3, .L555+20
 3537 0a02 07CB     		ldmia	r3!, {r0, r1, r2}
 3538 0a04 2060     		str	r0, [r4]	@ unaligned
 3539 0a06 6160     		str	r1, [r4, #4]	@ unaligned
 3540 0a08 A260     		str	r2, [r4, #8]	@ unaligned
 3541 0a0a 1B78     		ldrb	r3, [r3]	@ zero_extendqisi2
 3542 0a0c 2373     		strb	r3, [r4, #12]
 768:main.c        ****                 displayMenu(Menus.Letra,0,54,1,1);}
 3543              		.loc 1 768 0
 3544 0a0e 0123     		movs	r3, #1
 3545 0a10 0093     		str	r3, [sp]
 3546 0a12 3622     		movs	r2, #54
 3547 0a14 0021     		movs	r1, #0
 3548 0a16 2046     		mov	r0, r4
 3549 0a18 FFF7FEFF 		bl	displayMenu
 3550              	.LVL272:
 3551 0a1c 0FE0     		b	.L222
 3552              	.L231:
 769:main.c        ****             else
 770:main.c        ****                 {strcpy(Menus.Letra,"Cambio Clave");
 3553              		.loc 1 770 0
 3554 0a1e 294C     		ldr	r4, .L555
 3555 0a20 2D4B     		ldr	r3, .L555+20
 3556 0a22 07CB     		ldmia	r3!, {r0, r1, r2}
 3557 0a24 2060     		str	r0, [r4]	@ unaligned
 3558 0a26 6160     		str	r1, [r4, #4]	@ unaligned
 3559 0a28 A260     		str	r2, [r4, #8]	@ unaligned
 3560 0a2a 1B78     		ldrb	r3, [r3]	@ zero_extendqisi2
 3561 0a2c 2373     		strb	r3, [r4, #12]
ARM GAS  C:\Users\USUARIO\AppData\Local\Temp\ccfDwbds.s 			page 80


 771:main.c        ****                 displayMenu(Menus.Letra,0,54,0,1);}     
 3562              		.loc 1 771 0
 3563 0a2e 0123     		movs	r3, #1
 3564 0a30 0093     		str	r3, [sp]
 3565 0a32 0023     		movs	r3, #0
 3566 0a34 3622     		movs	r2, #54
 3567 0a36 1946     		mov	r1, r3
 3568 0a38 2046     		mov	r0, r4
 3569 0a3a FFF7FEFF 		bl	displayMenu
 3570              	.LVL273:
 3571              	.L222:
 772:main.c        ****          }
 773:main.c        ****          
 774:main.c        ****          if(tup>30)//Si oprime hacia arriba
 3572              		.loc 1 774 0
 3573 0a3e 274B     		ldr	r3, .L555+24
 3574 0a40 1B88     		ldrh	r3, [r3]
 3575 0a42 1E2B     		cmp	r3, #30
 3576 0a44 0CD9     		bls	.L232
 775:main.c        ****          {
 776:main.c        ****             BUZZER_Write(1);CyDelay(30);Opcion--;BUZZER_Write(0);
 3577              		.loc 1 776 0
 3578 0a46 0120     		movs	r0, #1
 3579 0a48 FFF7FEFF 		bl	BUZZER_Write
 3580              	.LVL274:
 3581 0a4c 1E20     		movs	r0, #30
 3582 0a4e FFF7FEFF 		bl	CyDelay
 3583              	.LVL275:
 3584 0a52 1E4A     		ldr	r2, .L555+8
 3585 0a54 1378     		ldrb	r3, [r2]	@ zero_extendqisi2
 3586 0a56 013B     		subs	r3, r3, #1
 3587 0a58 1370     		strb	r3, [r2]
 3588 0a5a 0020     		movs	r0, #0
 3589 0a5c FFF7FEFF 		bl	BUZZER_Write
 3590              	.LVL276:
 3591              	.L232:
 777:main.c        ****          }
 778:main.c        ****                   
 779:main.c        ****          if(tdown>30)//Si oprime hacia abajo
 3592              		.loc 1 779 0
 3593 0a60 1F4B     		ldr	r3, .L555+28
 3594 0a62 1B88     		ldrh	r3, [r3]
 3595 0a64 1E2B     		cmp	r3, #30
 3596 0a66 0CD9     		bls	.L233
 780:main.c        ****          {
 781:main.c        ****             BUZZER_Write(1);CyDelay(30);Opcion++; BUZZER_Write(0);
 3597              		.loc 1 781 0
 3598 0a68 0120     		movs	r0, #1
 3599 0a6a FFF7FEFF 		bl	BUZZER_Write
 3600              	.LVL277:
 3601 0a6e 1E20     		movs	r0, #30
 3602 0a70 FFF7FEFF 		bl	CyDelay
 3603              	.LVL278:
 3604 0a74 154A     		ldr	r2, .L555+8
 3605 0a76 1378     		ldrb	r3, [r2]	@ zero_extendqisi2
 3606 0a78 0133     		adds	r3, r3, #1
 3607 0a7a 1370     		strb	r3, [r2]
ARM GAS  C:\Users\USUARIO\AppData\Local\Temp\ccfDwbds.s 			page 81


 3608 0a7c 0020     		movs	r0, #0
 3609 0a7e FFF7FEFF 		bl	BUZZER_Write
 3610              	.LVL279:
 3611              	.L233:
 782:main.c        ****          }
 783:main.c        ****                
 784:main.c        ****          if(tright>30)//Si oprime SET
 3612              		.loc 1 784 0
 3613 0a82 184B     		ldr	r3, .L555+32
 3614 0a84 1B88     		ldrh	r3, [r3]
 3615 0a86 1E2B     		cmp	r3, #30
 3616 0a88 52D9     		bls	.L218
 785:main.c        ****          { 
 786:main.c        ****             BUZZER_Write(1);CyDelay(50);Menu=Opcion+3;Opcion=1;glcd_fillScreen(OFF);BUZZER_Write(0)
 3617              		.loc 1 786 0
 3618 0a8a 0120     		movs	r0, #1
 3619 0a8c FFF7FEFF 		bl	BUZZER_Write
 3620              	.LVL280:
 3621 0a90 3220     		movs	r0, #50
 3622 0a92 FFF7FEFF 		bl	CyDelay
 3623              	.LVL281:
 3624 0a96 144C     		ldr	r4, .L555+36
 3625 0a98 0C4A     		ldr	r2, .L555+8
 3626 0a9a 1378     		ldrb	r3, [r2]	@ zero_extendqisi2
 3627 0a9c 0333     		adds	r3, r3, #3
 3628 0a9e 2370     		strb	r3, [r4]
 3629 0aa0 0123     		movs	r3, #1
 3630 0aa2 1370     		strb	r3, [r2]
 3631 0aa4 0020     		movs	r0, #0
 3632 0aa6 FFF7FEFF 		bl	glcd_fillScreen
 3633              	.LVL282:
 3634 0aaa 0020     		movs	r0, #0
 3635 0aac FFF7FEFF 		bl	BUZZER_Write
 3636              	.LVL283:
 787:main.c        ****             if(Menu==7){
 3637              		.loc 1 787 0
 3638 0ab0 2378     		ldrb	r3, [r4]	@ zero_extendqisi2
 3639 0ab2 072B     		cmp	r3, #7
 3640 0ab4 3CD1     		bne	.L218
 788:main.c        ****                //Menu=100;
 789:main.c        ****             CyDelay(100);
 3641              		.loc 1 789 0
 3642 0ab6 6420     		movs	r0, #100
 3643 0ab8 FFF7FEFF 		bl	CyDelay
 3644              	.LVL284:
 790:main.c        ****             glcd_fillScreen(OFF);
 3645              		.loc 1 790 0
 3646 0abc 0020     		movs	r0, #0
 3647 0abe FFF7FEFF 		bl	glcd_fillScreen
 3648              	.LVL285:
 791:main.c        ****             while(!PidePassword(1,1,100,4,4,4,4)){
 3649              		.loc 1 791 0
 3650 0ac2 1EE0     		b	.L234
 3651              	.L556:
 3652              		.align	2
 3653              	.L555:
 3654 0ac4 00000000 		.word	Menus
ARM GAS  C:\Users\USUARIO\AppData\Local\Temp\ccfDwbds.s 			page 82


 3655 0ac8 80000000 		.word	.LC10
 3656 0acc 00000000 		.word	Opcion
 3657 0ad0 90000000 		.word	.LC11
 3658 0ad4 A0000000 		.word	.LC12
 3659 0ad8 A8000000 		.word	.LC13
 3660 0adc 00000000 		.word	tup
 3661 0ae0 00000000 		.word	tdown
 3662 0ae4 00000000 		.word	tright
 3663 0ae8 00000000 		.word	Menu
 3664              	.L235:
 792:main.c        ****                PidePassword(1,1,100,4,4,4,4);glcd_update();
 3665              		.loc 1 792 0
 3666 0aec 0423     		movs	r3, #4
 3667 0aee 0293     		str	r3, [sp, #8]
 3668 0af0 0193     		str	r3, [sp, #4]
 3669 0af2 0093     		str	r3, [sp]
 3670 0af4 6422     		movs	r2, #100
 3671 0af6 0121     		movs	r1, #1
 3672 0af8 0846     		mov	r0, r1
 3673 0afa FFF7FEFF 		bl	PidePassword
 3674              	.LVL286:
 3675 0afe FFF7FEFF 		bl	glcd_update
 3676              	.LVL287:
 3677              	.L234:
 791:main.c        ****             while(!PidePassword(1,1,100,4,4,4,4)){
 3678              		.loc 1 791 0
 3679 0b02 0423     		movs	r3, #4
 3680 0b04 0293     		str	r3, [sp, #8]
 3681 0b06 0193     		str	r3, [sp, #4]
 3682 0b08 0093     		str	r3, [sp]
 3683 0b0a 6422     		movs	r2, #100
 3684 0b0c 0121     		movs	r1, #1
 3685 0b0e 0846     		mov	r0, r1
 3686 0b10 FFF7FEFF 		bl	PidePassword
 3687              	.LVL288:
 3688 0b14 0028     		cmp	r0, #0
 3689 0b16 E9D0     		beq	.L235
 793:main.c        ****             }            
 794:main.c        ****             glcd_fillScreen(OFF);Opcion=1;unidad=1;
 3690              		.loc 1 794 0
 3691 0b18 0020     		movs	r0, #0
 3692 0b1a FFF7FEFF 		bl	glcd_fillScreen
 3693              	.LVL289:
 3694 0b1e 0123     		movs	r3, #1
 3695 0b20 704A     		ldr	r2, .L557
 3696 0b22 1370     		strb	r3, [r2]
 3697 0b24 704A     		ldr	r2, .L557+4
 3698 0b26 1370     		strb	r3, [r2]
 795:main.c        ****             CyDelay(500);
 3699              		.loc 1 795 0
 3700 0b28 4FF4FA70 		mov	r0, #500
 3701 0b2c FFF7FEFF 		bl	CyDelay
 3702              	.LVL290:
 3703              	.L218:
 796:main.c        ****       
 797:main.c        ****             }
 798:main.c        ****          }
ARM GAS  C:\Users\USUARIO\AppData\Local\Temp\ccfDwbds.s 			page 83


 799:main.c        ****       
 800:main.c        **** 
 801:main.c        ****    }
 802:main.c        **** //_------------------------------------------------------------------------------------------------
 803:main.c        **** 
 804:main.c        **** //_------------------------------------------------------------------------------------------------
 805:main.c        ****       if(Menu==4){ //Menu de Continuar
 3704              		.loc 1 805 0
 3705 0b30 6E4B     		ldr	r3, .L557+8
 3706 0b32 1B78     		ldrb	r3, [r3]	@ zero_extendqisi2
 3707 0b34 042B     		cmp	r3, #4
 3708 0b36 40F0F581 		bne	.L236
 806:main.c        ****       
 807:main.c        ****       if(Opcion>5)
 3709              		.loc 1 807 0
 3710 0b3a 6A4B     		ldr	r3, .L557
 3711 0b3c 1B78     		ldrb	r3, [r3]	@ zero_extendqisi2
 3712 0b3e 052B     		cmp	r3, #5
 3713 0b40 02D9     		bls	.L237
 808:main.c        ****          Opcion=1;
 3714              		.loc 1 808 0
 3715 0b42 0122     		movs	r2, #1
 3716 0b44 674B     		ldr	r3, .L557
 3717 0b46 1A70     		strb	r2, [r3]
 3718              	.L237:
 809:main.c        ****          
 810:main.c        ****       if(Opcion<1)
 3719              		.loc 1 810 0
 3720 0b48 664B     		ldr	r3, .L557
 3721 0b4a 1B78     		ldrb	r3, [r3]	@ zero_extendqisi2
 3722 0b4c 13B9     		cbnz	r3, .L238
 811:main.c        ****          Opcion=5;
 3723              		.loc 1 811 0
 3724 0b4e 0522     		movs	r2, #5
 3725 0b50 644B     		ldr	r3, .L557
 3726 0b52 1A70     		strb	r2, [r3]
 3727              	.L238:
 812:main.c        ****       
 813:main.c        ****          strcpy(Menus.Letra,"Seleccione");
 3728              		.loc 1 813 0
 3729 0b54 664C     		ldr	r4, .L557+12
 3730 0b56 674B     		ldr	r3, .L557+16
 3731 0b58 03CB     		ldmia	r3!, {r0, r1}
 3732 0b5a 2060     		str	r0, [r4]	@ unaligned
 3733 0b5c 6160     		str	r1, [r4, #4]	@ unaligned
 3734 0b5e 1A88     		ldrh	r2, [r3]	@ unaligned
 3735 0b60 9B78     		ldrb	r3, [r3, #2]	@ zero_extendqisi2
 3736 0b62 2281     		strh	r2, [r4, #8]	@ unaligned
 3737 0b64 A372     		strb	r3, [r4, #10]
 814:main.c        ****          displayMenu(Menus.Letra,0,0,1,2);
 3738              		.loc 1 814 0
 3739 0b66 0225     		movs	r5, #2
 3740 0b68 0095     		str	r5, [sp]
 3741 0b6a 0123     		movs	r3, #1
 3742 0b6c 0022     		movs	r2, #0
 3743 0b6e 1146     		mov	r1, r2
 3744 0b70 2046     		mov	r0, r4
ARM GAS  C:\Users\USUARIO\AppData\Local\Temp\ccfDwbds.s 			page 84


 3745 0b72 FFF7FEFF 		bl	displayMenu
 3746              	.LVL291:
 815:main.c        ****          
 816:main.c        ****          strcpy(Menus.Letra," Programa");
 3747              		.loc 1 816 0
 3748 0b76 604B     		ldr	r3, .L557+20
 3749 0b78 03CB     		ldmia	r3!, {r0, r1}
 3750 0b7a 2060     		str	r0, [r4]	@ unaligned
 3751 0b7c 6160     		str	r1, [r4, #4]	@ unaligned
 3752 0b7e 1B88     		ldrh	r3, [r3]	@ unaligned
 3753 0b80 2381     		strh	r3, [r4, #8]	@ unaligned
 817:main.c        ****          displayMenu(Menus.Letra,0,16,1,2);
 3754              		.loc 1 817 0
 3755 0b82 0095     		str	r5, [sp]
 3756 0b84 0123     		movs	r3, #1
 3757 0b86 1022     		movs	r2, #16
 3758 0b88 0021     		movs	r1, #0
 3759 0b8a 2046     		mov	r0, r4
 3760 0b8c FFF7FEFF 		bl	displayMenu
 3761              	.LVL292:
 818:main.c        ****           
 819:main.c        ****          
 820:main.c        ****          if(Opcion==1)
 3762              		.loc 1 820 0
 3763 0b90 544B     		ldr	r3, .L557
 3764 0b92 1B78     		ldrb	r3, [r3]	@ zero_extendqisi2
 3765 0b94 012B     		cmp	r3, #1
 3766 0b96 0BD1     		bne	.L239
 821:main.c        ****          {
 822:main.c        ****             strcpy(Menus.Letra,"Programa 01");
 3767              		.loc 1 822 0
 3768 0b98 584B     		ldr	r3, .L557+24
 3769 0b9a 07CB     		ldmia	r3!, {r0, r1, r2}
 3770 0b9c 2060     		str	r0, [r4]	@ unaligned
 3771 0b9e 6160     		str	r1, [r4, #4]	@ unaligned
 3772 0ba0 A260     		str	r2, [r4, #8]	@ unaligned
 823:main.c        ****             displayMenu(Menus.Letra,0,38,0,2);
 3773              		.loc 1 823 0
 3774 0ba2 0095     		str	r5, [sp]
 3775 0ba4 0023     		movs	r3, #0
 3776 0ba6 2622     		movs	r2, #38
 3777 0ba8 1946     		mov	r1, r3
 3778 0baa 2046     		mov	r0, r4
 3779 0bac FFF7FEFF 		bl	displayMenu
 3780              	.LVL293:
 3781              	.L239:
 824:main.c        ****          }
 825:main.c        ****          
 826:main.c        ****          if(Opcion==2)
 3782              		.loc 1 826 0
 3783 0bb0 4C4B     		ldr	r3, .L557
 3784 0bb2 1B78     		ldrb	r3, [r3]	@ zero_extendqisi2
 3785 0bb4 022B     		cmp	r3, #2
 3786 0bb6 0DD1     		bne	.L240
 827:main.c        ****          {
 828:main.c        ****             strcpy(Menus.Letra,"Programa 02");
 3787              		.loc 1 828 0
ARM GAS  C:\Users\USUARIO\AppData\Local\Temp\ccfDwbds.s 			page 85


 3788 0bb8 4D4C     		ldr	r4, .L557+12
 3789 0bba 514B     		ldr	r3, .L557+28
 3790 0bbc 07CB     		ldmia	r3!, {r0, r1, r2}
 3791 0bbe 2060     		str	r0, [r4]	@ unaligned
 3792 0bc0 6160     		str	r1, [r4, #4]	@ unaligned
 3793 0bc2 A260     		str	r2, [r4, #8]	@ unaligned
 829:main.c        ****             displayMenu(Menus.Letra,0,38,0,2);
 3794              		.loc 1 829 0
 3795 0bc4 0223     		movs	r3, #2
 3796 0bc6 0093     		str	r3, [sp]
 3797 0bc8 0023     		movs	r3, #0
 3798 0bca 2622     		movs	r2, #38
 3799 0bcc 1946     		mov	r1, r3
 3800 0bce 2046     		mov	r0, r4
 3801 0bd0 FFF7FEFF 		bl	displayMenu
 3802              	.LVL294:
 3803              	.L240:
 830:main.c        ****          }
 831:main.c        ****          
 832:main.c        ****          if(Opcion==3)
 3804              		.loc 1 832 0
 3805 0bd4 434B     		ldr	r3, .L557
 3806 0bd6 1B78     		ldrb	r3, [r3]	@ zero_extendqisi2
 3807 0bd8 032B     		cmp	r3, #3
 3808 0bda 0DD1     		bne	.L241
 833:main.c        ****          {
 834:main.c        ****             strcpy(Menus.Letra,"Programa 03");
 3809              		.loc 1 834 0
 3810 0bdc 444C     		ldr	r4, .L557+12
 3811 0bde 494B     		ldr	r3, .L557+32
 3812 0be0 07CB     		ldmia	r3!, {r0, r1, r2}
 3813 0be2 2060     		str	r0, [r4]	@ unaligned
 3814 0be4 6160     		str	r1, [r4, #4]	@ unaligned
 3815 0be6 A260     		str	r2, [r4, #8]	@ unaligned
 835:main.c        ****             displayMenu(Menus.Letra,0,38,0,2);
 3816              		.loc 1 835 0
 3817 0be8 0223     		movs	r3, #2
 3818 0bea 0093     		str	r3, [sp]
 3819 0bec 0023     		movs	r3, #0
 3820 0bee 2622     		movs	r2, #38
 3821 0bf0 1946     		mov	r1, r3
 3822 0bf2 2046     		mov	r0, r4
 3823 0bf4 FFF7FEFF 		bl	displayMenu
 3824              	.LVL295:
 3825              	.L241:
 836:main.c        ****          }
 837:main.c        ****          
 838:main.c        ****          if(Opcion==4)
 3826              		.loc 1 838 0
 3827 0bf8 3A4B     		ldr	r3, .L557
 3828 0bfa 1B78     		ldrb	r3, [r3]	@ zero_extendqisi2
 3829 0bfc 042B     		cmp	r3, #4
 3830 0bfe 0DD1     		bne	.L242
 839:main.c        ****          {
 840:main.c        ****             strcpy(Menus.Letra,"Programa 04");
 3831              		.loc 1 840 0
 3832 0c00 3B4C     		ldr	r4, .L557+12
ARM GAS  C:\Users\USUARIO\AppData\Local\Temp\ccfDwbds.s 			page 86


 3833 0c02 414B     		ldr	r3, .L557+36
 3834 0c04 07CB     		ldmia	r3!, {r0, r1, r2}
 3835 0c06 2060     		str	r0, [r4]	@ unaligned
 3836 0c08 6160     		str	r1, [r4, #4]	@ unaligned
 3837 0c0a A260     		str	r2, [r4, #8]	@ unaligned
 841:main.c        ****             displayMenu(Menus.Letra,0,38,0,2);
 3838              		.loc 1 841 0
 3839 0c0c 0223     		movs	r3, #2
 3840 0c0e 0093     		str	r3, [sp]
 3841 0c10 0023     		movs	r3, #0
 3842 0c12 2622     		movs	r2, #38
 3843 0c14 1946     		mov	r1, r3
 3844 0c16 2046     		mov	r0, r4
 3845 0c18 FFF7FEFF 		bl	displayMenu
 3846              	.LVL296:
 3847              	.L242:
 842:main.c        ****          }
 843:main.c        ****          
 844:main.c        ****          if(Opcion==5)
 3848              		.loc 1 844 0
 3849 0c1c 314B     		ldr	r3, .L557
 3850 0c1e 1B78     		ldrb	r3, [r3]	@ zero_extendqisi2
 3851 0c20 052B     		cmp	r3, #5
 3852 0c22 0DD1     		bne	.L243
 845:main.c        ****          {
 846:main.c        ****             strcpy(Menus.Letra,"Programa 05");
 3853              		.loc 1 846 0
 3854 0c24 324C     		ldr	r4, .L557+12
 3855 0c26 394B     		ldr	r3, .L557+40
 3856 0c28 07CB     		ldmia	r3!, {r0, r1, r2}
 3857 0c2a 2060     		str	r0, [r4]	@ unaligned
 3858 0c2c 6160     		str	r1, [r4, #4]	@ unaligned
 3859 0c2e A260     		str	r2, [r4, #8]	@ unaligned
 847:main.c        ****             displayMenu(Menus.Letra,0,38,0,2);
 3860              		.loc 1 847 0
 3861 0c30 0223     		movs	r3, #2
 3862 0c32 0093     		str	r3, [sp]
 3863 0c34 0023     		movs	r3, #0
 3864 0c36 2622     		movs	r2, #38
 3865 0c38 1946     		mov	r1, r3
 3866 0c3a 2046     		mov	r0, r4
 3867 0c3c FFF7FEFF 		bl	displayMenu
 3868              	.LVL297:
 3869              	.L243:
 848:main.c        ****          }
 849:main.c        ****          
 850:main.c        ****         
 851:main.c        ****       if(tup>30)//Si oprime hacia arriba
 3870              		.loc 1 851 0
 3871 0c40 334B     		ldr	r3, .L557+44
 3872 0c42 1B88     		ldrh	r3, [r3]
 3873 0c44 1E2B     		cmp	r3, #30
 3874 0c46 16D9     		bls	.L244
 852:main.c        ****       {
 853:main.c        ****          BUZZER_Write(1);CyDelay(30);Opcion++;BUZZER_Write(0);
 3875              		.loc 1 853 0
 3876 0c48 0120     		movs	r0, #1
ARM GAS  C:\Users\USUARIO\AppData\Local\Temp\ccfDwbds.s 			page 87


 3877 0c4a FFF7FEFF 		bl	BUZZER_Write
 3878              	.LVL298:
 3879 0c4e 1E20     		movs	r0, #30
 3880 0c50 FFF7FEFF 		bl	CyDelay
 3881              	.LVL299:
 3882 0c54 234A     		ldr	r2, .L557
 3883 0c56 1378     		ldrb	r3, [r2]	@ zero_extendqisi2
 3884 0c58 0133     		adds	r3, r3, #1
 3885 0c5a 1370     		strb	r3, [r2]
 3886 0c5c 0020     		movs	r0, #0
 3887 0c5e FFF7FEFF 		bl	BUZZER_Write
 3888              	.LVL300:
 854:main.c        ****          glcd_rect(40, 35, 85, 60, YES, OFF);
 3889              		.loc 1 854 0
 3890 0c62 0023     		movs	r3, #0
 3891 0c64 0193     		str	r3, [sp, #4]
 3892 0c66 0123     		movs	r3, #1
 3893 0c68 0093     		str	r3, [sp]
 3894 0c6a 3C23     		movs	r3, #60
 3895 0c6c 5522     		movs	r2, #85
 3896 0c6e 2321     		movs	r1, #35
 3897 0c70 2820     		movs	r0, #40
 3898 0c72 FFF7FEFF 		bl	glcd_rect
 3899              	.LVL301:
 3900              	.L244:
 855:main.c        ****       }
 856:main.c        ****             
 857:main.c        ****       if(tdown>30)//Si oprime hacia abajo
 3901              		.loc 1 857 0
 3902 0c76 274B     		ldr	r3, .L557+48
 3903 0c78 1B88     		ldrh	r3, [r3]
 3904 0c7a 1E2B     		cmp	r3, #30
 3905 0c7c 16D9     		bls	.L245
 858:main.c        ****       {  
 859:main.c        ****          BUZZER_Write(1);CyDelay(30);Opcion--;BUZZER_Write(0);
 3906              		.loc 1 859 0
 3907 0c7e 0120     		movs	r0, #1
 3908 0c80 FFF7FEFF 		bl	BUZZER_Write
 3909              	.LVL302:
 3910 0c84 1E20     		movs	r0, #30
 3911 0c86 FFF7FEFF 		bl	CyDelay
 3912              	.LVL303:
 3913 0c8a 164A     		ldr	r2, .L557
 3914 0c8c 1378     		ldrb	r3, [r2]	@ zero_extendqisi2
 3915 0c8e 013B     		subs	r3, r3, #1
 3916 0c90 1370     		strb	r3, [r2]
 3917 0c92 0020     		movs	r0, #0
 3918 0c94 FFF7FEFF 		bl	BUZZER_Write
 3919              	.LVL304:
 860:main.c        ****          glcd_rect(40, 35, 85, 60, YES, OFF);
 3920              		.loc 1 860 0
 3921 0c98 0023     		movs	r3, #0
 3922 0c9a 0193     		str	r3, [sp, #4]
 3923 0c9c 0123     		movs	r3, #1
 3924 0c9e 0093     		str	r3, [sp]
 3925 0ca0 3C23     		movs	r3, #60
 3926 0ca2 5522     		movs	r2, #85
ARM GAS  C:\Users\USUARIO\AppData\Local\Temp\ccfDwbds.s 			page 88


 3927 0ca4 2321     		movs	r1, #35
 3928 0ca6 2820     		movs	r0, #40
 3929 0ca8 FFF7FEFF 		bl	glcd_rect
 3930              	.LVL305:
 3931              	.L245:
 861:main.c        ****       }
 862:main.c        ****             
 863:main.c        ****       if(tright>30)//Si oprime SET
 3932              		.loc 1 863 0
 3933 0cac 1A4B     		ldr	r3, .L557+52
 3934 0cae 1B88     		ldrh	r3, [r3]
 3935 0cb0 1E2B     		cmp	r3, #30
 3936 0cb2 40F21F81 		bls	.L246
 864:main.c        ****       {  
 865:main.c        ****          Menu=20;glcd_fillScreen(OFF);
 3937              		.loc 1 865 0
 3938 0cb6 1422     		movs	r2, #20
 3939 0cb8 0C4B     		ldr	r3, .L557+8
 3940 0cba 1A70     		strb	r2, [r3]
 3941 0cbc 0020     		movs	r0, #0
 3942 0cbe FFF7FEFF 		bl	glcd_fillScreen
 3943              	.LVL306:
 866:main.c        ****          for(i=0;i<Pasos;i++){
 3944              		.loc 1 866 0
 3945 0cc2 0022     		movs	r2, #0
 3946 0cc4 154B     		ldr	r3, .L557+56
 3947 0cc6 1A70     		strb	r2, [r3]
 3948 0cc8 34E0     		b	.L247
 3949              	.L250:
 867:main.c        ****             if(Temperatura1[i+((Opcion-1)*Pasos)]==0){
 3950              		.loc 1 867 0
 3951 0cca 064A     		ldr	r2, .L557
 3952 0ccc 1278     		ldrb	r2, [r2]	@ zero_extendqisi2
 3953 0cce 013A     		subs	r2, r2, #1
 3954 0cd0 03EB0212 		add	r2, r3, r2, lsl #4
 3955 0cd4 1249     		ldr	r1, .L557+60
 3956 0cd6 31F91220 		ldrsh	r2, [r1, r2, lsl #1]
 3957 0cda 2ABB     		cbnz	r2, .L248
 868:main.c        ****                Segmentos=i;
 3958              		.loc 1 868 0
 3959 0cdc 114A     		ldr	r2, .L557+64
 3960 0cde 1370     		strb	r3, [r2]
 869:main.c        ****                break;
 3961              		.loc 1 869 0
 3962 0ce0 2CE0     		b	.L249
 3963              	.L558:
 3964 0ce2 00BF     		.align	2
 3965              	.L557:
 3966 0ce4 00000000 		.word	Opcion
 3967 0ce8 00000000 		.word	unidad
 3968 0cec 00000000 		.word	Menu
 3969 0cf0 00000000 		.word	Menus
 3970 0cf4 B8000000 		.word	.LC14
 3971 0cf8 C4000000 		.word	.LC15
 3972 0cfc D0000000 		.word	.LC16
 3973 0d00 DC000000 		.word	.LC17
 3974 0d04 E8000000 		.word	.LC18
ARM GAS  C:\Users\USUARIO\AppData\Local\Temp\ccfDwbds.s 			page 89


 3975 0d08 F4000000 		.word	.LC19
 3976 0d0c 00010000 		.word	.LC20
 3977 0d10 00000000 		.word	tup
 3978 0d14 00000000 		.word	tdown
 3979 0d18 00000000 		.word	tright
 3980 0d1c 00000000 		.word	i
 3981 0d20 00000000 		.word	Temperatura1
 3982 0d24 00000000 		.word	Segmentos
 3983              	.L248:
 870:main.c        ****             }
 871:main.c        ****             else{
 872:main.c        ****                Segmentos=Pasos-1;
 3984              		.loc 1 872 0 discriminator 2
 3985 0d28 0F21     		movs	r1, #15
 3986 0d2a B84A     		ldr	r2, .L559
 3987 0d2c 1170     		strb	r1, [r2]
 866:main.c        ****             if(Temperatura1[i+((Opcion-1)*Pasos)]==0){
 3988              		.loc 1 866 0 discriminator 2
 3989 0d2e 0133     		adds	r3, r3, #1
 3990 0d30 B74A     		ldr	r2, .L559+4
 3991 0d32 1370     		strb	r3, [r2]
 3992              	.L247:
 866:main.c        ****             if(Temperatura1[i+((Opcion-1)*Pasos)]==0){
 3993              		.loc 1 866 0 is_stmt 0 discriminator 1
 3994 0d34 B64B     		ldr	r3, .L559+4
 3995 0d36 1B78     		ldrb	r3, [r3]	@ zero_extendqisi2
 3996 0d38 0F2B     		cmp	r3, #15
 3997 0d3a C6D9     		bls	.L250
 3998              	.L249:
 873:main.c        ****             }
 874:main.c        ****             //Horas1[i+((Opcion-1)*10)]=0;
 875:main.c        ****             //Minutos1[i+((Opcion-1)*10)]=0;
 876:main.c        ****          }
 877:main.c        ****          if(Segmentos>0){
 3999              		.loc 1 877 0 is_stmt 1
 4000 0d3c B34B     		ldr	r3, .L559
 4001 0d3e 1B78     		ldrb	r3, [r3]	@ zero_extendqisi2
 4002 0d40 002B     		cmp	r3, #0
 4003 0d42 00F0A280 		beq	.L251
 878:main.c        ****             ProgramaSeleccionado=Opcion-1;
 4004              		.loc 1 878 0
 4005 0d46 B34E     		ldr	r6, .L559+8
 4006 0d48 B34F     		ldr	r7, .L559+12
 4007 0d4a 3B78     		ldrb	r3, [r7]	@ zero_extendqisi2
 4008 0d4c 013B     		subs	r3, r3, #1
 4009 0d4e 3370     		strb	r3, [r6]
 879:main.c        ****             glcd_fillScreen(OFF);
 4010              		.loc 1 879 0
 4011 0d50 0020     		movs	r0, #0
 4012 0d52 FFF7FEFF 		bl	glcd_fillScreen
 4013              	.LVL307:
 880:main.c        ****             EEPROM_WriteByte(ProgramaSeleccionado,496);CyDelay(20);
 4014              		.loc 1 880 0
 4015 0d56 4FF4F871 		mov	r1, #496
 4016 0d5a 3078     		ldrb	r0, [r6]	@ zero_extendqisi2
 4017 0d5c FFF7FEFF 		bl	EEPROM_WriteByte
 4018              	.LVL308:
ARM GAS  C:\Users\USUARIO\AppData\Local\Temp\ccfDwbds.s 			page 90


 4019 0d60 1420     		movs	r0, #20
 4020 0d62 FFF7FEFF 		bl	CyDelay
 4021              	.LVL309:
 881:main.c        ****             EEPROM_WriteByte(Segmento,497);CyDelay(20);
 4022              		.loc 1 881 0
 4023 0d66 AD4D     		ldr	r5, .L559+16
 4024 0d68 40F2F111 		movw	r1, #497
 4025 0d6c 2878     		ldrb	r0, [r5]	@ zero_extendqisi2
 4026 0d6e FFF7FEFF 		bl	EEPROM_WriteByte
 4027              	.LVL310:
 4028 0d72 1420     		movs	r0, #20
 4029 0d74 FFF7FEFF 		bl	CyDelay
 4030              	.LVL311:
 882:main.c        ****             strcpy(Menus.Letra," Segmentos");
 4031              		.loc 1 882 0
 4032 0d78 A94C     		ldr	r4, .L559+20
 4033 0d7a AA4B     		ldr	r3, .L559+24
 4034 0d7c 03CB     		ldmia	r3!, {r0, r1}
 4035 0d7e 2060     		str	r0, [r4]	@ unaligned
 4036 0d80 6160     		str	r1, [r4, #4]	@ unaligned
 4037 0d82 1A88     		ldrh	r2, [r3]	@ unaligned
 4038 0d84 9B78     		ldrb	r3, [r3, #2]	@ zero_extendqisi2
 4039 0d86 2281     		strh	r2, [r4, #8]	@ unaligned
 4040 0d88 A372     		strb	r3, [r4, #10]
 883:main.c        ****             displayMenu(Menus.Letra,0,0,0,2);
 4041              		.loc 1 883 0
 4042 0d8a 4FF00208 		mov	r8, #2
 4043 0d8e CDF80080 		str	r8, [sp]
 4044 0d92 0023     		movs	r3, #0
 4045 0d94 1A46     		mov	r2, r3
 4046 0d96 1946     		mov	r1, r3
 4047 0d98 2046     		mov	r0, r4
 4048 0d9a FFF7FEFF 		bl	displayMenu
 4049              	.LVL312:
 884:main.c        ****             
 885:main.c        ****             displayTiempo(Segmentos,63,30,3,2);
 4050              		.loc 1 885 0
 4051 0d9e 9B4B     		ldr	r3, .L559
 4052 0da0 1878     		ldrb	r0, [r3]	@ zero_extendqisi2
 4053 0da2 CDF80080 		str	r8, [sp]
 4054 0da6 0323     		movs	r3, #3
 4055 0da8 1E22     		movs	r2, #30
 4056 0daa 3F21     		movs	r1, #63
 4057 0dac FFF7FEFF 		bl	displayTiempo
 4058              	.LVL313:
 886:main.c        ****             CyDelay(2000);
 4059              		.loc 1 886 0
 4060 0db0 4FF4FA60 		mov	r0, #2000
 4061 0db4 FFF7FEFF 		bl	CyDelay
 4062              	.LVL314:
 887:main.c        ****             glcd_fillScreen(OFF);
 4063              		.loc 1 887 0
 4064 0db8 0020     		movs	r0, #0
 4065 0dba FFF7FEFF 		bl	glcd_fillScreen
 4066              	.LVL315:
 888:main.c        ****             Opcion=1;visual=1;//Faltaa cuadrar esta parte
 4067              		.loc 1 888 0
ARM GAS  C:\Users\USUARIO\AppData\Local\Temp\ccfDwbds.s 			page 91


 4068 0dbe 0123     		movs	r3, #1
 4069 0dc0 3B70     		strb	r3, [r7]
 4070 0dc2 994A     		ldr	r2, .L559+28
 4071 0dc4 1380     		strh	r3, [r2]	@ movhi
 889:main.c        ****             TempeInicial=Temperatura;
 4072              		.loc 1 889 0
 4073 0dc6 994B     		ldr	r3, .L559+32
 4074 0dc8 D3F80090 		ldr	r9, [r3]	@ float
 4075 0dcc 984B     		ldr	r3, .L559+36
 4076 0dce C3F80090 		str	r9, [r3]	@ float
 890:main.c        ****             
 891:main.c        ****             Tiempo=(Horas1[ProgramaSeleccionado*Pasos]*3600)+(Minutos1[ProgramaSeleccionado*Pasos]*
 4077              		.loc 1 891 0
 4078 0dd2 3278     		ldrb	r2, [r6]	@ zero_extendqisi2
 4079 0dd4 1201     		lsls	r2, r2, #4
 4080 0dd6 DFF8A482 		ldr	r8, .L559+112
 4081 0dda 38F91270 		ldrsh	r7, [r8, r2, lsl #1]
 4082 0dde 954E     		ldr	r6, .L559+40
 4083 0de0 36F91230 		ldrsh	r3, [r6, r2, lsl #1]
 4084 0de4 C7EB0717 		rsb	r7, r7, r7, lsl #4
 4085 0de8 C7EB0717 		rsb	r7, r7, r7, lsl #4
 4086 0dec C3EB0313 		rsb	r3, r3, r3, lsl #4
 4087 0df0 9B00     		lsls	r3, r3, #2
 4088 0df2 03EB0717 		add	r7, r3, r7, lsl #4
 4089 0df6 BFB2     		uxth	r7, r7
 4090 0df8 8F4B     		ldr	r3, .L559+44
 4091 0dfa 1F80     		strh	r7, [r3]	@ movhi
 892:main.c        ****             Setpoint=Temperatura1[(ProgramaSeleccionado*Pasos)+Segmento];
 4092              		.loc 1 892 0
 4093 0dfc 2C78     		ldrb	r4, [r5]	@ zero_extendqisi2
 4094 0dfe 1444     		add	r4, r4, r2
 4095 0e00 8E4B     		ldr	r3, .L559+48
 4096 0e02 33F81450 		ldrh	r5, [r3, r4, lsl #1]
 4097 0e06 8E4B     		ldr	r3, .L559+52
 4098 0e08 1D80     		strh	r5, [r3]	@ movhi
 893:main.c        ****             Pendiente=((Setpoint-TempeInicial)/Tiempo);
 4099              		.loc 1 893 0
 4100 0e0a 2846     		mov	r0, r5
 4101 0e0c FFF7FEFF 		bl	__aeabi_i2f
 4102              	.LVL316:
 4103 0e10 4946     		mov	r1, r9
 4104 0e12 FFF7FEFF 		bl	__aeabi_fsub
 4105              	.LVL317:
 4106 0e16 8146     		mov	r9, r0
 4107 0e18 3846     		mov	r0, r7
 4108 0e1a FFF7FEFF 		bl	__aeabi_i2f
 4109              	.LVL318:
 4110 0e1e 0146     		mov	r1, r0
 4111 0e20 4846     		mov	r0, r9
 4112 0e22 FFF7FEFF 		bl	__aeabi_fdiv
 4113              	.LVL319:
 4114 0e26 874B     		ldr	r3, .L559+56
 4115 0e28 1860     		str	r0, [r3]	@ float
 894:main.c        ****             Testerilizacionp[3]=(int8)Horas1[(ProgramaSeleccionado*Pasos)+Segmento]/10;
 4116              		.loc 1 894 0
 4117 0e2a 38F91420 		ldrsh	r2, [r8, r4, lsl #1]
 4118 0e2e 53B2     		sxtb	r3, r2
ARM GAS  C:\Users\USUARIO\AppData\Local\Temp\ccfDwbds.s 			page 92


 4119 0e30 8548     		ldr	r0, .L559+60
 4120 0e32 80FB0371 		smull	r7, r1, r0, r3
 4121 0e36 DB17     		asrs	r3, r3, #31
 4122 0e38 C3EBA103 		rsb	r3, r3, r1, asr #2
 4123 0e3c 5BB2     		sxtb	r3, r3
 4124 0e3e 8349     		ldr	r1, .L559+64
 4125 0e40 CB75     		strb	r3, [r1, #23]
 895:main.c        ****             Testerilizacionp[2]=Horas1[(ProgramaSeleccionado*Pasos)+Segmento]-(Testerilizacionp[3]*
 4126              		.loc 1 895 0
 4127 0e42 C3EB4317 		rsb	r7, r3, r3, lsl #5
 4128 0e46 C3EB8703 		rsb	r3, r3, r7, lsl #2
 4129 0e4a 02EB4303 		add	r3, r2, r3, lsl #1
 4130 0e4e 8B75     		strb	r3, [r1, #22]
 896:main.c        ****             Testerilizacionp[1]=Minutos1[(ProgramaSeleccionado*Pasos)+Segmento]/10;
 4131              		.loc 1 896 0
 4132 0e50 36F91420 		ldrsh	r2, [r6, r4, lsl #1]
 4133 0e54 80FB0230 		smull	r3, r0, r0, r2
 4134 0e58 D317     		asrs	r3, r2, #31
 4135 0e5a C3EBA003 		rsb	r3, r3, r0, asr #2
 4136 0e5e 5BB2     		sxtb	r3, r3
 4137 0e60 4B75     		strb	r3, [r1, #21]
 897:main.c        ****             Testerilizacionp[0]=Minutos1[(ProgramaSeleccionado*Pasos)+Segmento]-(Testerilizacionp[1
 4138              		.loc 1 897 0
 4139 0e62 C3EB4310 		rsb	r0, r3, r3, lsl #5
 4140 0e66 C3EB8003 		rsb	r3, r3, r0, lsl #2
 4141 0e6a 02EB4303 		add	r3, r2, r3, lsl #1
 4142 0e6e 0B75     		strb	r3, [r1, #20]
 898:main.c        ****             Ganancia=GananciaIn*(Setpoint/Coeficiente);
 4143              		.loc 1 898 0
 4144 0e70 774B     		ldr	r3, .L559+68
 4145 0e72 1888     		ldrh	r0, [r3]
 4146 0e74 B5FBF0F0 		udiv	r0, r5, r0
 4147 0e78 FFF7FEFF 		bl	__aeabi_i2f
 4148              	.LVL320:
 4149 0e7c 754B     		ldr	r3, .L559+72
 4150 0e7e 1968     		ldr	r1, [r3]	@ float
 4151 0e80 FFF7FEFF 		bl	__aeabi_fmul
 4152              	.LVL321:
 4153 0e84 744B     		ldr	r3, .L559+76
 4154 0e86 1860     		str	r0, [r3]	@ float
 4155 0e88 34E0     		b	.L246
 4156              	.L251:
 899:main.c        ****          }
 900:main.c        ****          else{
 901:main.c        ****             glcd_fillScreen(OFF);
 4157              		.loc 1 901 0
 4158 0e8a 0020     		movs	r0, #0
 4159 0e8c FFF7FEFF 		bl	glcd_fillScreen
 4160              	.LVL322:
 902:main.c        ****             strcpy(Menus.Letra," !Programa");
 4161              		.loc 1 902 0
 4162 0e90 634C     		ldr	r4, .L559+20
 4163 0e92 724B     		ldr	r3, .L559+80
 4164 0e94 03CB     		ldmia	r3!, {r0, r1}
 4165 0e96 2060     		str	r0, [r4]	@ unaligned
 4166 0e98 6160     		str	r1, [r4, #4]	@ unaligned
 4167 0e9a 1A88     		ldrh	r2, [r3]	@ unaligned
ARM GAS  C:\Users\USUARIO\AppData\Local\Temp\ccfDwbds.s 			page 93


 4168 0e9c 9B78     		ldrb	r3, [r3, #2]	@ zero_extendqisi2
 4169 0e9e 2281     		strh	r2, [r4, #8]	@ unaligned
 4170 0ea0 A372     		strb	r3, [r4, #10]
 903:main.c        ****             displayMenu(Menus.Letra,0,0,0,2);
 4171              		.loc 1 903 0
 4172 0ea2 0225     		movs	r5, #2
 4173 0ea4 0095     		str	r5, [sp]
 4174 0ea6 0023     		movs	r3, #0
 4175 0ea8 1A46     		mov	r2, r3
 4176 0eaa 1946     		mov	r1, r3
 4177 0eac 2046     		mov	r0, r4
 4178 0eae FFF7FEFF 		bl	displayMenu
 4179              	.LVL323:
 904:main.c        ****             strcpy(Menus.Letra,"    Vacio!");
 4180              		.loc 1 904 0
 4181 0eb2 6B4B     		ldr	r3, .L559+84
 4182 0eb4 03CB     		ldmia	r3!, {r0, r1}
 4183 0eb6 2060     		str	r0, [r4]	@ unaligned
 4184 0eb8 6160     		str	r1, [r4, #4]	@ unaligned
 4185 0eba 1A88     		ldrh	r2, [r3]	@ unaligned
 4186 0ebc 9B78     		ldrb	r3, [r3, #2]	@ zero_extendqisi2
 4187 0ebe 2281     		strh	r2, [r4, #8]	@ unaligned
 4188 0ec0 A372     		strb	r3, [r4, #10]
 905:main.c        ****             displayMenu(Menus.Letra,0,20,0,2);
 4189              		.loc 1 905 0
 4190 0ec2 0095     		str	r5, [sp]
 4191 0ec4 0023     		movs	r3, #0
 4192 0ec6 1422     		movs	r2, #20
 4193 0ec8 1946     		mov	r1, r3
 4194 0eca 2046     		mov	r0, r4
 4195 0ecc FFF7FEFF 		bl	displayMenu
 4196              	.LVL324:
 906:main.c        ****             Opcion=1;BUZZER_Write(0);CyDelay(2000);Menu=1;glcd_fillScreen(OFF);Opcion=1;visual=1;
 4197              		.loc 1 906 0
 4198 0ed0 514D     		ldr	r5, .L559+12
 4199 0ed2 0124     		movs	r4, #1
 4200 0ed4 2C70     		strb	r4, [r5]
 4201 0ed6 0020     		movs	r0, #0
 4202 0ed8 FFF7FEFF 		bl	BUZZER_Write
 4203              	.LVL325:
 4204 0edc 4FF4FA60 		mov	r0, #2000
 4205 0ee0 FFF7FEFF 		bl	CyDelay
 4206              	.LVL326:
 4207 0ee4 5F4B     		ldr	r3, .L559+88
 4208 0ee6 1C70     		strb	r4, [r3]
 4209 0ee8 0020     		movs	r0, #0
 4210 0eea FFF7FEFF 		bl	glcd_fillScreen
 4211              	.LVL327:
 4212 0eee 2C70     		strb	r4, [r5]
 4213 0ef0 4D4B     		ldr	r3, .L559+28
 4214 0ef2 1C80     		strh	r4, [r3]	@ movhi
 4215              	.L246:
 907:main.c        ****          }
 908:main.c        ****       } 
 909:main.c        ****                   
 910:main.c        ****       if(tleft>30)//Si oprime boton de Toma.
 4216              		.loc 1 910 0
ARM GAS  C:\Users\USUARIO\AppData\Local\Temp\ccfDwbds.s 			page 94


 4217 0ef4 5C4B     		ldr	r3, .L559+92
 4218 0ef6 1B88     		ldrh	r3, [r3]
 4219 0ef8 1E2B     		cmp	r3, #30
 4220 0efa 13D9     		bls	.L236
 911:main.c        ****       {
 912:main.c        ****          BUZZER_Write(1);Opcion=1;BUZZER_Write(0);CyDelay(50);Menu=1;glcd_fillScreen(OFF);Opcion=1;
 4221              		.loc 1 912 0
 4222 0efc 0120     		movs	r0, #1
 4223 0efe FFF7FEFF 		bl	BUZZER_Write
 4224              	.LVL328:
 4225 0f02 454D     		ldr	r5, .L559+12
 4226 0f04 0124     		movs	r4, #1
 4227 0f06 2C70     		strb	r4, [r5]
 4228 0f08 0020     		movs	r0, #0
 4229 0f0a FFF7FEFF 		bl	BUZZER_Write
 4230              	.LVL329:
 4231 0f0e 3220     		movs	r0, #50
 4232 0f10 FFF7FEFF 		bl	CyDelay
 4233              	.LVL330:
 4234 0f14 534B     		ldr	r3, .L559+88
 4235 0f16 1C70     		strb	r4, [r3]
 4236 0f18 0020     		movs	r0, #0
 4237 0f1a FFF7FEFF 		bl	glcd_fillScreen
 4238              	.LVL331:
 4239 0f1e 2C70     		strb	r4, [r5]
 4240 0f20 414B     		ldr	r3, .L559+28
 4241 0f22 1C80     		strh	r4, [r3]	@ movhi
 4242              	.L236:
 913:main.c        ****       } 
 914:main.c        ****     }
 915:main.c        **** //_------------------------------------------------------------------------------------------------
 916:main.c        **** 
 917:main.c        **** //_------------------------------------------------------------------------------------------------
 918:main.c        ****       if(Menu==5){ //Menu Editar Programa
 4243              		.loc 1 918 0
 4244 0f24 4F4B     		ldr	r3, .L559+88
 4245 0f26 1B78     		ldrb	r3, [r3]	@ zero_extendqisi2
 4246 0f28 052B     		cmp	r3, #5
 4247 0f2a 40F04881 		bne	.L252
 919:main.c        ****       
 920:main.c        ****          if(Opcion>5)
 4248              		.loc 1 920 0
 4249 0f2e 3A4B     		ldr	r3, .L559+12
 4250 0f30 1B78     		ldrb	r3, [r3]	@ zero_extendqisi2
 4251 0f32 052B     		cmp	r3, #5
 4252 0f34 02D9     		bls	.L253
 921:main.c        ****          {Opcion=1;}
 4253              		.loc 1 921 0
 4254 0f36 0122     		movs	r2, #1
 4255 0f38 374B     		ldr	r3, .L559+12
 4256 0f3a 1A70     		strb	r2, [r3]
 4257              	.L253:
 922:main.c        ****          if(Opcion<1)
 4258              		.loc 1 922 0
 4259 0f3c 364B     		ldr	r3, .L559+12
 4260 0f3e 1B78     		ldrb	r3, [r3]	@ zero_extendqisi2
 4261 0f40 13B9     		cbnz	r3, .L254
ARM GAS  C:\Users\USUARIO\AppData\Local\Temp\ccfDwbds.s 			page 95


 923:main.c        ****          {Opcion=5;}
 4262              		.loc 1 923 0
 4263 0f42 0522     		movs	r2, #5
 4264 0f44 344B     		ldr	r3, .L559+12
 4265 0f46 1A70     		strb	r2, [r3]
 4266              	.L254:
 924:main.c        ****          
 925:main.c        ****          strcpy(Menus.Letra,"Editar");
 4267              		.loc 1 925 0
 4268 0f48 354C     		ldr	r4, .L559+20
 4269 0f4a 484B     		ldr	r3, .L559+96
 4270 0f4c 1868     		ldr	r0, [r3]	@ unaligned
 4271 0f4e 2060     		str	r0, [r4]	@ unaligned
 4272 0f50 9A88     		ldrh	r2, [r3, #4]	@ unaligned
 4273 0f52 9B79     		ldrb	r3, [r3, #6]	@ zero_extendqisi2
 4274 0f54 A280     		strh	r2, [r4, #4]	@ unaligned
 4275 0f56 A371     		strb	r3, [r4, #6]
 926:main.c        ****          displayMenu(Menus.Letra,30,0,1,2);
 4276              		.loc 1 926 0
 4277 0f58 0223     		movs	r3, #2
 4278 0f5a 0093     		str	r3, [sp]
 4279 0f5c 0123     		movs	r3, #1
 4280 0f5e 0022     		movs	r2, #0
 4281 0f60 1E21     		movs	r1, #30
 4282 0f62 2046     		mov	r0, r4
 4283 0f64 FFF7FEFF 		bl	displayMenu
 4284              	.LVL332:
 927:main.c        ****       
 928:main.c        ****          if(Opcion==1)   
 4285              		.loc 1 928 0
 4286 0f68 2B4B     		ldr	r3, .L559+12
 4287 0f6a 1B78     		ldrb	r3, [r3]	@ zero_extendqisi2
 4288 0f6c 012B     		cmp	r3, #1
 4289 0f6e 0CD1     		bne	.L255
 929:main.c        ****             {strcpy(Menus.Letra,"Programa 01");
 4290              		.loc 1 929 0
 4291 0f70 3F4B     		ldr	r3, .L559+100
 4292 0f72 07CB     		ldmia	r3!, {r0, r1, r2}
 4293 0f74 2060     		str	r0, [r4]	@ unaligned
 4294 0f76 6160     		str	r1, [r4, #4]	@ unaligned
 4295 0f78 A260     		str	r2, [r4, #8]	@ unaligned
 930:main.c        ****             displayMenu(Menus.Letra,0,18,1,1);}
 4296              		.loc 1 930 0
 4297 0f7a 0123     		movs	r3, #1
 4298 0f7c 0093     		str	r3, [sp]
 4299 0f7e 1222     		movs	r2, #18
 4300 0f80 0021     		movs	r1, #0
 4301 0f82 2046     		mov	r0, r4
 4302 0f84 FFF7FEFF 		bl	displayMenu
 4303              	.LVL333:
 4304 0f88 0DE0     		b	.L256
 4305              	.L255:
 931:main.c        ****          else
 932:main.c        ****             {strcpy(Menus.Letra,"Programa 01");
 4306              		.loc 1 932 0
 4307 0f8a 254C     		ldr	r4, .L559+20
 4308 0f8c 384B     		ldr	r3, .L559+100
ARM GAS  C:\Users\USUARIO\AppData\Local\Temp\ccfDwbds.s 			page 96


 4309 0f8e 07CB     		ldmia	r3!, {r0, r1, r2}
 4310 0f90 2060     		str	r0, [r4]	@ unaligned
 4311 0f92 6160     		str	r1, [r4, #4]	@ unaligned
 4312 0f94 A260     		str	r2, [r4, #8]	@ unaligned
 933:main.c        ****             displayMenu(Menus.Letra,0,18,0,1);}
 4313              		.loc 1 933 0
 4314 0f96 0123     		movs	r3, #1
 4315 0f98 0093     		str	r3, [sp]
 4316 0f9a 0023     		movs	r3, #0
 4317 0f9c 1222     		movs	r2, #18
 4318 0f9e 1946     		mov	r1, r3
 4319 0fa0 2046     		mov	r0, r4
 4320 0fa2 FFF7FEFF 		bl	displayMenu
 4321              	.LVL334:
 4322              	.L256:
 934:main.c        ****          
 935:main.c        ****          if(Opcion==2)   
 4323              		.loc 1 935 0
 4324 0fa6 1C4B     		ldr	r3, .L559+12
 4325 0fa8 1B78     		ldrb	r3, [r3]	@ zero_extendqisi2
 4326 0faa 022B     		cmp	r3, #2
 4327 0fac 0DD1     		bne	.L257
 936:main.c        ****             {strcpy(Menus.Letra,"Programa 02");
 4328              		.loc 1 936 0
 4329 0fae 1C4C     		ldr	r4, .L559+20
 4330 0fb0 304B     		ldr	r3, .L559+104
 4331 0fb2 07CB     		ldmia	r3!, {r0, r1, r2}
 4332 0fb4 2060     		str	r0, [r4]	@ unaligned
 4333 0fb6 6160     		str	r1, [r4, #4]	@ unaligned
 4334 0fb8 A260     		str	r2, [r4, #8]	@ unaligned
 937:main.c        ****             displayMenu(Menus.Letra,0,27,1,1);}
 4335              		.loc 1 937 0
 4336 0fba 0123     		movs	r3, #1
 4337 0fbc 0093     		str	r3, [sp]
 4338 0fbe 1B22     		movs	r2, #27
 4339 0fc0 0021     		movs	r1, #0
 4340 0fc2 2046     		mov	r0, r4
 4341 0fc4 FFF7FEFF 		bl	displayMenu
 4342              	.LVL335:
 4343 0fc8 0DE0     		b	.L258
 4344              	.L257:
 938:main.c        ****          else
 939:main.c        ****             {strcpy(Menus.Letra,"Programa 02");
 4345              		.loc 1 939 0
 4346 0fca 154C     		ldr	r4, .L559+20
 4347 0fcc 294B     		ldr	r3, .L559+104
 4348 0fce 07CB     		ldmia	r3!, {r0, r1, r2}
 4349 0fd0 2060     		str	r0, [r4]	@ unaligned
 4350 0fd2 6160     		str	r1, [r4, #4]	@ unaligned
 4351 0fd4 A260     		str	r2, [r4, #8]	@ unaligned
 940:main.c        ****             displayMenu(Menus.Letra,0,27,0,1);}
 4352              		.loc 1 940 0
 4353 0fd6 0123     		movs	r3, #1
 4354 0fd8 0093     		str	r3, [sp]
 4355 0fda 0023     		movs	r3, #0
 4356 0fdc 1B22     		movs	r2, #27
 4357 0fde 1946     		mov	r1, r3
ARM GAS  C:\Users\USUARIO\AppData\Local\Temp\ccfDwbds.s 			page 97


 4358 0fe0 2046     		mov	r0, r4
 4359 0fe2 FFF7FEFF 		bl	displayMenu
 4360              	.LVL336:
 4361              	.L258:
 941:main.c        ****             
 942:main.c        ****          if(Opcion==3)   
 4362              		.loc 1 942 0
 4363 0fe6 0C4B     		ldr	r3, .L559+12
 4364 0fe8 1B78     		ldrb	r3, [r3]	@ zero_extendqisi2
 4365 0fea 032B     		cmp	r3, #3
 4366 0fec 48D1     		bne	.L259
 943:main.c        ****             {strcpy(Menus.Letra,"Programa 03");
 4367              		.loc 1 943 0
 4368 0fee 0C4C     		ldr	r4, .L559+20
 4369 0ff0 214B     		ldr	r3, .L559+108
 4370 0ff2 07CB     		ldmia	r3!, {r0, r1, r2}
 4371 0ff4 2060     		str	r0, [r4]	@ unaligned
 4372 0ff6 6160     		str	r1, [r4, #4]	@ unaligned
 4373 0ff8 A260     		str	r2, [r4, #8]	@ unaligned
 944:main.c        ****             displayMenu(Menus.Letra,0,36,1,1);}
 4374              		.loc 1 944 0
 4375 0ffa 0123     		movs	r3, #1
 4376 0ffc 0093     		str	r3, [sp]
 4377 0ffe 2422     		movs	r2, #36
 4378 1000 0021     		movs	r1, #0
 4379 1002 2046     		mov	r0, r4
 4380 1004 FFF7FEFF 		bl	displayMenu
 4381              	.LVL337:
 4382 1008 48E0     		b	.L260
 4383              	.L560:
 4384 100a 00BF     		.align	2
 4385              	.L559:
 4386 100c 00000000 		.word	Segmentos
 4387 1010 00000000 		.word	i
 4388 1014 00000000 		.word	ProgramaSeleccionado
 4389 1018 00000000 		.word	Opcion
 4390 101c 00000000 		.word	Segmento
 4391 1020 00000000 		.word	Menus
 4392 1024 38000000 		.word	.LC4
 4393 1028 00000000 		.word	visual
 4394 102c 00000000 		.word	Temperatura
 4395 1030 00000000 		.word	TempeInicial
 4396 1034 00000000 		.word	Minutos1
 4397 1038 00000000 		.word	Tiempo
 4398 103c 00000000 		.word	Temperatura1
 4399 1040 00000000 		.word	Setpoint
 4400 1044 00000000 		.word	Pendiente
 4401 1048 67666666 		.word	1717986919
 4402 104c 00000000 		.word	.LANCHOR0
 4403 1050 00000000 		.word	Coeficiente
 4404 1054 00000000 		.word	GananciaIn
 4405 1058 00000000 		.word	Ganancia
 4406 105c 0C010000 		.word	.LC21
 4407 1060 18010000 		.word	.LC22
 4408 1064 00000000 		.word	Menu
 4409 1068 00000000 		.word	tleft
 4410 106c 24010000 		.word	.LC23
ARM GAS  C:\Users\USUARIO\AppData\Local\Temp\ccfDwbds.s 			page 98


 4411 1070 D0000000 		.word	.LC16
 4412 1074 DC000000 		.word	.LC17
 4413 1078 E8000000 		.word	.LC18
 4414 107c 00000000 		.word	Horas1
 4415              	.L259:
 945:main.c        ****          else
 946:main.c        ****             {strcpy(Menus.Letra,"Programa 03");
 4416              		.loc 1 946 0
 4417 1080 B34C     		ldr	r4, .L561
 4418 1082 B44B     		ldr	r3, .L561+4
 4419 1084 07CB     		ldmia	r3!, {r0, r1, r2}
 4420 1086 2060     		str	r0, [r4]	@ unaligned
 4421 1088 6160     		str	r1, [r4, #4]	@ unaligned
 4422 108a A260     		str	r2, [r4, #8]	@ unaligned
 947:main.c        ****             displayMenu(Menus.Letra,0,36,0,1);}   
 4423              		.loc 1 947 0
 4424 108c 0123     		movs	r3, #1
 4425 108e 0093     		str	r3, [sp]
 4426 1090 0023     		movs	r3, #0
 4427 1092 2422     		movs	r2, #36
 4428 1094 1946     		mov	r1, r3
 4429 1096 2046     		mov	r0, r4
 4430 1098 FFF7FEFF 		bl	displayMenu
 4431              	.LVL338:
 4432              	.L260:
 948:main.c        ****                         
 949:main.c        ****          if(Opcion==4)   
 4433              		.loc 1 949 0
 4434 109c AE4B     		ldr	r3, .L561+8
 4435 109e 1B78     		ldrb	r3, [r3]	@ zero_extendqisi2
 4436 10a0 042B     		cmp	r3, #4
 4437 10a2 0DD1     		bne	.L261
 950:main.c        ****             {strcpy(Menus.Letra,"Programa 04");
 4438              		.loc 1 950 0
 4439 10a4 AA4C     		ldr	r4, .L561
 4440 10a6 AD4B     		ldr	r3, .L561+12
 4441 10a8 07CB     		ldmia	r3!, {r0, r1, r2}
 4442 10aa 2060     		str	r0, [r4]	@ unaligned
 4443 10ac 6160     		str	r1, [r4, #4]	@ unaligned
 4444 10ae A260     		str	r2, [r4, #8]	@ unaligned
 951:main.c        ****             displayMenu(Menus.Letra,0,45,1,1);}
 4445              		.loc 1 951 0
 4446 10b0 0123     		movs	r3, #1
 4447 10b2 0093     		str	r3, [sp]
 4448 10b4 2D22     		movs	r2, #45
 4449 10b6 0021     		movs	r1, #0
 4450 10b8 2046     		mov	r0, r4
 4451 10ba FFF7FEFF 		bl	displayMenu
 4452              	.LVL339:
 4453 10be 0DE0     		b	.L262
 4454              	.L261:
 952:main.c        ****          else
 953:main.c        ****             {strcpy(Menus.Letra,"Programa 04");
 4455              		.loc 1 953 0
 4456 10c0 A34C     		ldr	r4, .L561
 4457 10c2 A64B     		ldr	r3, .L561+12
 4458 10c4 07CB     		ldmia	r3!, {r0, r1, r2}
ARM GAS  C:\Users\USUARIO\AppData\Local\Temp\ccfDwbds.s 			page 99


 4459 10c6 2060     		str	r0, [r4]	@ unaligned
 4460 10c8 6160     		str	r1, [r4, #4]	@ unaligned
 4461 10ca A260     		str	r2, [r4, #8]	@ unaligned
 954:main.c        ****             displayMenu(Menus.Letra,0,45,0,1);}     
 4462              		.loc 1 954 0
 4463 10cc 0123     		movs	r3, #1
 4464 10ce 0093     		str	r3, [sp]
 4465 10d0 0023     		movs	r3, #0
 4466 10d2 2D22     		movs	r2, #45
 4467 10d4 1946     		mov	r1, r3
 4468 10d6 2046     		mov	r0, r4
 4469 10d8 FFF7FEFF 		bl	displayMenu
 4470              	.LVL340:
 4471              	.L262:
 955:main.c        ****          
 956:main.c        ****          if(Opcion==5)   
 4472              		.loc 1 956 0
 4473 10dc 9E4B     		ldr	r3, .L561+8
 4474 10de 1B78     		ldrb	r3, [r3]	@ zero_extendqisi2
 4475 10e0 052B     		cmp	r3, #5
 4476 10e2 0DD1     		bne	.L263
 957:main.c        ****             {strcpy(Menus.Letra,"Programa 05");
 4477              		.loc 1 957 0
 4478 10e4 9A4C     		ldr	r4, .L561
 4479 10e6 9E4B     		ldr	r3, .L561+16
 4480 10e8 07CB     		ldmia	r3!, {r0, r1, r2}
 4481 10ea 2060     		str	r0, [r4]	@ unaligned
 4482 10ec 6160     		str	r1, [r4, #4]	@ unaligned
 4483 10ee A260     		str	r2, [r4, #8]	@ unaligned
 958:main.c        ****             displayMenu(Menus.Letra,0,54,1,1);}
 4484              		.loc 1 958 0
 4485 10f0 0123     		movs	r3, #1
 4486 10f2 0093     		str	r3, [sp]
 4487 10f4 3622     		movs	r2, #54
 4488 10f6 0021     		movs	r1, #0
 4489 10f8 2046     		mov	r0, r4
 4490 10fa FFF7FEFF 		bl	displayMenu
 4491              	.LVL341:
 4492 10fe 0DE0     		b	.L264
 4493              	.L263:
 959:main.c        ****          else
 960:main.c        ****             {strcpy(Menus.Letra,"Programa 05");
 4494              		.loc 1 960 0
 4495 1100 934C     		ldr	r4, .L561
 4496 1102 974B     		ldr	r3, .L561+16
 4497 1104 07CB     		ldmia	r3!, {r0, r1, r2}
 4498 1106 2060     		str	r0, [r4]	@ unaligned
 4499 1108 6160     		str	r1, [r4, #4]	@ unaligned
 4500 110a A260     		str	r2, [r4, #8]	@ unaligned
 961:main.c        ****             displayMenu(Menus.Letra,0,54,0,1);}     
 4501              		.loc 1 961 0
 4502 110c 0123     		movs	r3, #1
 4503 110e 0093     		str	r3, [sp]
 4504 1110 0023     		movs	r3, #0
 4505 1112 3622     		movs	r2, #54
 4506 1114 1946     		mov	r1, r3
 4507 1116 2046     		mov	r0, r4
ARM GAS  C:\Users\USUARIO\AppData\Local\Temp\ccfDwbds.s 			page 100


 4508 1118 FFF7FEFF 		bl	displayMenu
 4509              	.LVL342:
 4510              	.L264:
 962:main.c        ****          
 963:main.c        ****          if(tup>30)//Si oprime hacia arriba
 4511              		.loc 1 963 0
 4512 111c 914B     		ldr	r3, .L561+20
 4513 111e 1B88     		ldrh	r3, [r3]
 4514 1120 1E2B     		cmp	r3, #30
 4515 1122 0CD9     		bls	.L265
 964:main.c        ****          {
 965:main.c        ****             BUZZER_Write(1);CyDelay(30);Opcion--;BUZZER_Write(0);
 4516              		.loc 1 965 0
 4517 1124 0120     		movs	r0, #1
 4518 1126 FFF7FEFF 		bl	BUZZER_Write
 4519              	.LVL343:
 4520 112a 1E20     		movs	r0, #30
 4521 112c FFF7FEFF 		bl	CyDelay
 4522              	.LVL344:
 4523 1130 894A     		ldr	r2, .L561+8
 4524 1132 1378     		ldrb	r3, [r2]	@ zero_extendqisi2
 4525 1134 013B     		subs	r3, r3, #1
 4526 1136 1370     		strb	r3, [r2]
 4527 1138 0020     		movs	r0, #0
 4528 113a FFF7FEFF 		bl	BUZZER_Write
 4529              	.LVL345:
 4530              	.L265:
 966:main.c        ****          }
 967:main.c        ****                   
 968:main.c        ****          if(tdown>30)//Si oprime hacia abajo
 4531              		.loc 1 968 0
 4532 113e 8A4B     		ldr	r3, .L561+24
 4533 1140 1B88     		ldrh	r3, [r3]
 4534 1142 1E2B     		cmp	r3, #30
 4535 1144 0CD9     		bls	.L266
 969:main.c        ****          {
 970:main.c        ****             BUZZER_Write(1);CyDelay(30);Opcion++; BUZZER_Write(0);
 4536              		.loc 1 970 0
 4537 1146 0120     		movs	r0, #1
 4538 1148 FFF7FEFF 		bl	BUZZER_Write
 4539              	.LVL346:
 4540 114c 1E20     		movs	r0, #30
 4541 114e FFF7FEFF 		bl	CyDelay
 4542              	.LVL347:
 4543 1152 814A     		ldr	r2, .L561+8
 4544 1154 1378     		ldrb	r3, [r2]	@ zero_extendqisi2
 4545 1156 0133     		adds	r3, r3, #1
 4546 1158 1370     		strb	r3, [r2]
 4547 115a 0020     		movs	r0, #0
 4548 115c FFF7FEFF 		bl	BUZZER_Write
 4549              	.LVL348:
 4550              	.L266:
 971:main.c        ****          }
 972:main.c        ****                
 973:main.c        ****          if(tright>30)//Si oprime SET
 4551              		.loc 1 973 0
 4552 1160 824B     		ldr	r3, .L561+28
ARM GAS  C:\Users\USUARIO\AppData\Local\Temp\ccfDwbds.s 			page 101


 4553 1162 1B88     		ldrh	r3, [r3]
 4554 1164 1E2B     		cmp	r3, #30
 4555 1166 15D9     		bls	.L267
 974:main.c        ****          { 
 975:main.c        ****             BUZZER_Write(1);CyDelay(50);Menu=Opcion+10;Opcion=1;glcd_fillScreen(OFF);BUZZER_Write(0
 4556              		.loc 1 975 0
 4557 1168 0120     		movs	r0, #1
 4558 116a FFF7FEFF 		bl	BUZZER_Write
 4559              	.LVL349:
 4560 116e 3220     		movs	r0, #50
 4561 1170 FFF7FEFF 		bl	CyDelay
 4562              	.LVL350:
 4563 1174 784A     		ldr	r2, .L561+8
 4564 1176 1378     		ldrb	r3, [r2]	@ zero_extendqisi2
 4565 1178 0A33     		adds	r3, r3, #10
 4566 117a 7D49     		ldr	r1, .L561+32
 4567 117c 0B70     		strb	r3, [r1]
 4568 117e 0123     		movs	r3, #1
 4569 1180 1370     		strb	r3, [r2]
 4570 1182 0020     		movs	r0, #0
 4571 1184 FFF7FEFF 		bl	glcd_fillScreen
 4572              	.LVL351:
 4573 1188 0020     		movs	r0, #0
 4574 118a FFF7FEFF 		bl	BUZZER_Write
 4575              	.LVL352:
 4576 118e 0022     		movs	r2, #0
 4577 1190 784B     		ldr	r3, .L561+36
 4578 1192 1A70     		strb	r2, [r3]
 4579              	.L267:
 976:main.c        ****          }
 977:main.c        ****          
 978:main.c        ****          if(tleft>30){
 4580              		.loc 1 978 0
 4581 1194 784B     		ldr	r3, .L561+40
 4582 1196 1B88     		ldrh	r3, [r3]
 4583 1198 1E2B     		cmp	r3, #30
 4584 119a 10D9     		bls	.L252
 979:main.c        ****             BUZZER_Write(1);CyDelay(50);Menu=1;Opcion=1;glcd_fillScreen(OFF);BUZZER_Write(0);
 4585              		.loc 1 979 0
 4586 119c 0120     		movs	r0, #1
 4587 119e FFF7FEFF 		bl	BUZZER_Write
 4588              	.LVL353:
 4589 11a2 3220     		movs	r0, #50
 4590 11a4 FFF7FEFF 		bl	CyDelay
 4591              	.LVL354:
 4592 11a8 0123     		movs	r3, #1
 4593 11aa 714A     		ldr	r2, .L561+32
 4594 11ac 1370     		strb	r3, [r2]
 4595 11ae 6A4A     		ldr	r2, .L561+8
 4596 11b0 1370     		strb	r3, [r2]
 4597 11b2 0020     		movs	r0, #0
 4598 11b4 FFF7FEFF 		bl	glcd_fillScreen
 4599              	.LVL355:
 4600 11b8 0020     		movs	r0, #0
 4601 11ba FFF7FEFF 		bl	BUZZER_Write
 4602              	.LVL356:
 4603              	.L252:
ARM GAS  C:\Users\USUARIO\AppData\Local\Temp\ccfDwbds.s 			page 102


 980:main.c        ****          }
 981:main.c        ****    }
 982:main.c        **** //_------------------------------------------------------------------------------------------------
 983:main.c        **** 
 984:main.c        **** //_------------------------------------------------------------------------------------------------
 985:main.c        ****       if(Menu==6){ //Menu de Borrar Programa
 4604              		.loc 1 985 0
 4605 11be 6C4B     		ldr	r3, .L561+32
 4606 11c0 1B78     		ldrb	r3, [r3]	@ zero_extendqisi2
 4607 11c2 062B     		cmp	r3, #6
 4608 11c4 40F08B81 		bne	.L268
 986:main.c        ****       
 987:main.c        ****       if(Opcion>5)
 4609              		.loc 1 987 0
 4610 11c8 634B     		ldr	r3, .L561+8
 4611 11ca 1B78     		ldrb	r3, [r3]	@ zero_extendqisi2
 4612 11cc 052B     		cmp	r3, #5
 4613 11ce 02D9     		bls	.L269
 988:main.c        ****          Opcion=1;
 4614              		.loc 1 988 0
 4615 11d0 0122     		movs	r2, #1
 4616 11d2 614B     		ldr	r3, .L561+8
 4617 11d4 1A70     		strb	r2, [r3]
 4618              	.L269:
 989:main.c        ****          
 990:main.c        ****       if(Opcion<1)
 4619              		.loc 1 990 0
 4620 11d6 604B     		ldr	r3, .L561+8
 4621 11d8 1B78     		ldrb	r3, [r3]	@ zero_extendqisi2
 4622 11da 13B9     		cbnz	r3, .L270
 991:main.c        ****          Opcion=5;
 4623              		.loc 1 991 0
 4624 11dc 0522     		movs	r2, #5
 4625 11de 5E4B     		ldr	r3, .L561+8
 4626 11e0 1A70     		strb	r2, [r3]
 4627              	.L270:
 992:main.c        ****       
 993:main.c        ****          strcpy(Menus.Letra,"  Elimine");
 4628              		.loc 1 993 0
 4629 11e2 5B4C     		ldr	r4, .L561
 4630 11e4 654B     		ldr	r3, .L561+44
 4631 11e6 03CB     		ldmia	r3!, {r0, r1}
 4632 11e8 2060     		str	r0, [r4]	@ unaligned
 4633 11ea 6160     		str	r1, [r4, #4]	@ unaligned
 4634 11ec 1B88     		ldrh	r3, [r3]	@ unaligned
 4635 11ee 2381     		strh	r3, [r4, #8]	@ unaligned
 994:main.c        ****          displayMenu(Menus.Letra,0,0,1,2);
 4636              		.loc 1 994 0
 4637 11f0 0225     		movs	r5, #2
 4638 11f2 0095     		str	r5, [sp]
 4639 11f4 0123     		movs	r3, #1
 4640 11f6 0022     		movs	r2, #0
 4641 11f8 1146     		mov	r1, r2
 4642 11fa 2046     		mov	r0, r4
 4643 11fc FFF7FEFF 		bl	displayMenu
 4644              	.LVL357:
 995:main.c        ****          
ARM GAS  C:\Users\USUARIO\AppData\Local\Temp\ccfDwbds.s 			page 103


 996:main.c        ****          strcpy(Menus.Letra," Programa");
 4645              		.loc 1 996 0
 4646 1200 5F4B     		ldr	r3, .L561+48
 4647 1202 03CB     		ldmia	r3!, {r0, r1}
 4648 1204 2060     		str	r0, [r4]	@ unaligned
 4649 1206 6160     		str	r1, [r4, #4]	@ unaligned
 4650 1208 1B88     		ldrh	r3, [r3]	@ unaligned
 4651 120a 2381     		strh	r3, [r4, #8]	@ unaligned
 997:main.c        ****          displayMenu(Menus.Letra,0,16,1,2);
 4652              		.loc 1 997 0
 4653 120c 0095     		str	r5, [sp]
 4654 120e 0123     		movs	r3, #1
 4655 1210 1022     		movs	r2, #16
 4656 1212 0021     		movs	r1, #0
 4657 1214 2046     		mov	r0, r4
 4658 1216 FFF7FEFF 		bl	displayMenu
 4659              	.LVL358:
 998:main.c        ****           
 999:main.c        ****          
1000:main.c        ****          if(Opcion==1)
 4660              		.loc 1 1000 0
 4661 121a 4F4B     		ldr	r3, .L561+8
 4662 121c 1B78     		ldrb	r3, [r3]	@ zero_extendqisi2
 4663 121e 012B     		cmp	r3, #1
 4664 1220 0BD1     		bne	.L271
1001:main.c        ****          {
1002:main.c        ****             strcpy(Menus.Letra,"Programa 01");
 4665              		.loc 1 1002 0
 4666 1222 584B     		ldr	r3, .L561+52
 4667 1224 07CB     		ldmia	r3!, {r0, r1, r2}
 4668 1226 2060     		str	r0, [r4]	@ unaligned
 4669 1228 6160     		str	r1, [r4, #4]	@ unaligned
 4670 122a A260     		str	r2, [r4, #8]	@ unaligned
1003:main.c        ****             displayMenu(Menus.Letra,0,38,0,2);
 4671              		.loc 1 1003 0
 4672 122c 0095     		str	r5, [sp]
 4673 122e 0023     		movs	r3, #0
 4674 1230 2622     		movs	r2, #38
 4675 1232 1946     		mov	r1, r3
 4676 1234 2046     		mov	r0, r4
 4677 1236 FFF7FEFF 		bl	displayMenu
 4678              	.LVL359:
 4679              	.L271:
1004:main.c        ****          }
1005:main.c        ****          
1006:main.c        ****          if(Opcion==2)
 4680              		.loc 1 1006 0
 4681 123a 474B     		ldr	r3, .L561+8
 4682 123c 1B78     		ldrb	r3, [r3]	@ zero_extendqisi2
 4683 123e 022B     		cmp	r3, #2
 4684 1240 0DD1     		bne	.L272
1007:main.c        ****          {
1008:main.c        ****             strcpy(Menus.Letra,"Programa 02");
 4685              		.loc 1 1008 0
 4686 1242 434C     		ldr	r4, .L561
 4687 1244 504B     		ldr	r3, .L561+56
 4688 1246 07CB     		ldmia	r3!, {r0, r1, r2}
ARM GAS  C:\Users\USUARIO\AppData\Local\Temp\ccfDwbds.s 			page 104


 4689 1248 2060     		str	r0, [r4]	@ unaligned
 4690 124a 6160     		str	r1, [r4, #4]	@ unaligned
 4691 124c A260     		str	r2, [r4, #8]	@ unaligned
1009:main.c        ****             displayMenu(Menus.Letra,0,38,0,2);
 4692              		.loc 1 1009 0
 4693 124e 0223     		movs	r3, #2
 4694 1250 0093     		str	r3, [sp]
 4695 1252 0023     		movs	r3, #0
 4696 1254 2622     		movs	r2, #38
 4697 1256 1946     		mov	r1, r3
 4698 1258 2046     		mov	r0, r4
 4699 125a FFF7FEFF 		bl	displayMenu
 4700              	.LVL360:
 4701              	.L272:
1010:main.c        ****          }
1011:main.c        ****          
1012:main.c        ****          if(Opcion==3)
 4702              		.loc 1 1012 0
 4703 125e 3E4B     		ldr	r3, .L561+8
 4704 1260 1B78     		ldrb	r3, [r3]	@ zero_extendqisi2
 4705 1262 032B     		cmp	r3, #3
 4706 1264 0DD1     		bne	.L273
1013:main.c        ****          {
1014:main.c        ****             strcpy(Menus.Letra,"Programa 03");
 4707              		.loc 1 1014 0
 4708 1266 3A4C     		ldr	r4, .L561
 4709 1268 3A4B     		ldr	r3, .L561+4
 4710 126a 07CB     		ldmia	r3!, {r0, r1, r2}
 4711 126c 2060     		str	r0, [r4]	@ unaligned
 4712 126e 6160     		str	r1, [r4, #4]	@ unaligned
 4713 1270 A260     		str	r2, [r4, #8]	@ unaligned
1015:main.c        ****             displayMenu(Menus.Letra,0,38,0,2);
 4714              		.loc 1 1015 0
 4715 1272 0223     		movs	r3, #2
 4716 1274 0093     		str	r3, [sp]
 4717 1276 0023     		movs	r3, #0
 4718 1278 2622     		movs	r2, #38
 4719 127a 1946     		mov	r1, r3
 4720 127c 2046     		mov	r0, r4
 4721 127e FFF7FEFF 		bl	displayMenu
 4722              	.LVL361:
 4723              	.L273:
1016:main.c        ****          }
1017:main.c        ****          
1018:main.c        ****          if(Opcion==4)
 4724              		.loc 1 1018 0
 4725 1282 354B     		ldr	r3, .L561+8
 4726 1284 1B78     		ldrb	r3, [r3]	@ zero_extendqisi2
 4727 1286 042B     		cmp	r3, #4
 4728 1288 0DD1     		bne	.L274
1019:main.c        ****          {
1020:main.c        ****             strcpy(Menus.Letra,"Programa 04");
 4729              		.loc 1 1020 0
 4730 128a 314C     		ldr	r4, .L561
 4731 128c 334B     		ldr	r3, .L561+12
 4732 128e 07CB     		ldmia	r3!, {r0, r1, r2}
 4733 1290 2060     		str	r0, [r4]	@ unaligned
ARM GAS  C:\Users\USUARIO\AppData\Local\Temp\ccfDwbds.s 			page 105


 4734 1292 6160     		str	r1, [r4, #4]	@ unaligned
 4735 1294 A260     		str	r2, [r4, #8]	@ unaligned
1021:main.c        ****             displayMenu(Menus.Letra,0,38,0,2);
 4736              		.loc 1 1021 0
 4737 1296 0223     		movs	r3, #2
 4738 1298 0093     		str	r3, [sp]
 4739 129a 0023     		movs	r3, #0
 4740 129c 2622     		movs	r2, #38
 4741 129e 1946     		mov	r1, r3
 4742 12a0 2046     		mov	r0, r4
 4743 12a2 FFF7FEFF 		bl	displayMenu
 4744              	.LVL362:
 4745              	.L274:
1022:main.c        ****          }
1023:main.c        ****          
1024:main.c        ****          if(Opcion==5)
 4746              		.loc 1 1024 0
 4747 12a6 2C4B     		ldr	r3, .L561+8
 4748 12a8 1B78     		ldrb	r3, [r3]	@ zero_extendqisi2
 4749 12aa 052B     		cmp	r3, #5
 4750 12ac 0DD1     		bne	.L275
1025:main.c        ****          {
1026:main.c        ****             strcpy(Menus.Letra,"Programa 05");
 4751              		.loc 1 1026 0
 4752 12ae 284C     		ldr	r4, .L561
 4753 12b0 2B4B     		ldr	r3, .L561+16
 4754 12b2 07CB     		ldmia	r3!, {r0, r1, r2}
 4755 12b4 2060     		str	r0, [r4]	@ unaligned
 4756 12b6 6160     		str	r1, [r4, #4]	@ unaligned
 4757 12b8 A260     		str	r2, [r4, #8]	@ unaligned
