CCS PCH C Compiler, Version 4.104, 5967               03-oct.-19 08:10

               Filename: H:\JP\JP\Laboratorio\Mufla\2019\Mufla 9L Artilab #004588000 OP2019109\Firmware Ajustado\Mufla.lst

               ROM used: 65184 bytes (66%)
                         Largest free fragment is 32768
               RAM used: 2017 (61%) at main() level
                         2075 (62%) worst case
               Stack:    6 worst case (5 in main + 1 for interrupts)

*
00000:  GOTO   7CE6
*
00008:  MOVWF  04
0000A:  MOVFF  FD8,05
0000E:  MOVFF  FE0,06
00012:  MOVLB  0
00014:  MOVFF  FE9,0C
00018:  MOVFF  FEA,07
0001C:  MOVFF  FE1,08
00020:  MOVFF  FE2,09
00024:  MOVFF  FD9,0A
00028:  MOVFF  FDA,0B
0002C:  MOVFF  FF3,12
00030:  MOVFF  FF4,13
00034:  MOVFF  FFA,14
00038:  MOVFF  FFB,15
0003C:  MOVFF  00,0E
00040:  MOVFF  01,0F
00044:  MOVFF  02,10
00048:  MOVFF  03,11
0004C:  BTFSS  F9D.0
0004E:  GOTO   0058
00052:  BTFSC  F9E.0
00054:  GOTO   1600
00058:  MOVFF  0E,00
0005C:  MOVFF  0F,01
00060:  MOVFF  10,02
00064:  MOVFF  11,03
00068:  MOVFF  0C,FE9
0006C:  MOVFF  07,FEA
00070:  BSF    07.7
00072:  MOVFF  08,FE1
00076:  MOVFF  09,FE2
0007A:  MOVFF  0A,FD9
0007E:  MOVFF  0B,FDA
00082:  MOVFF  12,FF3
00086:  MOVFF  13,FF4
0008A:  MOVFF  14,FFA
0008E:  MOVFF  15,FFB
00092:  MOVF   04,W
00094:  MOVFF  06,FE0
00098:  MOVFF  05,FD8
0009C:  RETFIE 0
.................... // Control para mufla con rampas  
.................... // Se pueden programar 5 Programas de 10 Segmentos cada Uno. 
.................... // En un segmento se puede programar una rampa o una meseta. 
....................  
....................  
.................... #include <18F4685.h> 
.................... //////// Standard Header file for the PIC18F4685 device //////////////// 
.................... #device PIC18F4685 
.................... #list 
....................  
.................... #device adc=10 
.................... #fuses HS,NOWDT,NOPROTECT,NOLVP,NODEBUG,NOSTVREN,NOPUT,NOCPD,NOWRT,NOIESO,NOFCMEN,NOPBADEN,NOWRTC,NOWRTB,NOEBTR,NOEBTRB,NOCPB,NOXINST,NOLPT1OSC,NOMCLR 
.................... #use delay(clock=20000000) 
*
01800:  MOVLW  07
01802:  MOVWF  FEA
01804:  MOVLW  E3
01806:  MOVWF  FE9
01808:  MOVF   FEF,W
0180A:  BZ    1826
0180C:  MOVLW  06
0180E:  MOVWF  01
01810:  CLRF   00
01812:  DECFSZ 00,F
01814:  BRA    1812
01816:  DECFSZ 01,F
01818:  BRA    1810
0181A:  MOVLW  7B
0181C:  MOVWF  00
0181E:  DECFSZ 00,F
01820:  BRA    181E
01822:  DECFSZ FEF,F
01824:  BRA    180C
01826:  RETLW  00
.................... #use RS232(BAUD=19200, BITS=8, PARITY=N, XMIT=PIN_C6, RCV=PIN_C7, stream=Printer) 
*
037B2:  BTFSS  F9E.4
037B4:  BRA    37B2
037B6:  MOVWF  FAD
037B8:  RETLW  00
.................... #include "HDM64GS12.c" 
.................... ///////////////////////////////////////////////////////////////////////// 
.................... ////                           HDM64GS12.c                           //// 
.................... ////                                                                 //// 
.................... //// This file contains drivers for using a Hantronix HDM64GS12 with //// 
.................... //// a KS0108 display controller. The HDM64GS12 is 128 by 64 pixels. //// 
.................... //// The driver treats the upper left pixel as (0,0).                //// 
.................... ////                                                                 //// 
.................... //// Use #define FAST_GLCD if the target chip has at least 1k of RAM //// 
.................... //// to decrease the time it takes to update the display.            //// 
.................... //// glcd_update() must then be called to update the display after   //// 
.................... //// changing the pixel information.                                 //// 
.................... //// See ex_glcd.c for suggested usage.                              //// 
.................... //// See KS0108.c for controlling a single 64 by 64 display          //// 
.................... ///////////////////////////////////////////////////////////////////////// 
.................... ////                                                                 //// 
.................... //// LCD Pin connections:                                            //// 
.................... //// (These can be changed as needed in the following defines).      //// 
.................... ////  * 1: VSS is connected to GND                                   //// 
.................... ////  * 2: VDD is connected to +5V                                   //// 
.................... ////  * 3: V0  - LCD operating voltage (Constrast adjustment)        //// 
.................... ////  * 4: D/I - Data or Instruction is connected to B2              //// 
.................... ////  * 5: R/W - Read or Write is connected to B4                    //// 
.................... ////  * 6: Enable is connected to B5                                 //// 
.................... ////  *7-14: Data Bus 0 to 7 is connected to port d                  //// 
.................... ////  *15: Chip Select 1 is connected to B0                          //// 
.................... ////  *16: Chip Select 2 is connected to B1                          //// 
.................... ////  *17: Reset is connected to C0                                  //// 
.................... ////  *18: Negative voltage is also connected to the 20k Ohm POT     //// 
.................... ////  *19: Positive voltage for LED backlight is connected to +5V    //// 
.................... ////  *20: Negavtive voltage for LED backlight is connected to GND   //// 
.................... ////                                                                 //// 
.................... ///////////////////////////////////////////////////////////////////////// 
.................... ////                                                                 //// 
.................... ////  glcd_init(mode)                                                //// 
.................... ////     * Must be called before any other function.                 //// 
.................... ////       - mode can be ON or OFF to turn the LCD on or off         //// 
.................... ////                                                                 //// 
.................... ////  glcd_pixel(x,y,color)                                          //// 
.................... ////     * Sets the pixel to the given color.                        //// 
.................... ////       - color can be ON or OFF                                  //// 
.................... ////                                                                 //// 
.................... ////  glcd_fillScreen(color)                                         //// 
.................... ////     * Fills the entire LCD with the given color.                //// 
.................... ////       - color can be ON or OFF                                  //// 
.................... ////                                                                 //// 
.................... ////  glcd_update()                                                  //// 
.................... ////     * Write the display data stored in RAM to the LCD           //// 
.................... ////     * Only available if FAST_GLCD is defined                    //// 
.................... ////                                                                 //// 
.................... ///////////////////////////////////////////////////////////////////////// 
.................... ////        (C) Copyright 1996, 2004 Custom Computer Services        //// 
.................... //// This source code may only be used by licensed users of the CCS  //// 
.................... //// C compiler.  This source code may only be distributed to other  //// 
.................... //// licensed users of the CCS C compiler.  No other use,            //// 
.................... //// reproduction or distribution is permitted without written       //// 
.................... //// permission.  Derivative programs created using this software    //// 
.................... //// in object code form are not restricted in any way.              //// 
.................... ///////////////////////////////////////////////////////////////////////// 
....................  
....................  
....................  
.................... #ifndef HDM64GS12 
.................... #define HDM64GS12 
....................  
.................... #ifndef FAST_GLCD 
.................... #define FAST_GLCD 
....................  
.................... #ifndef GLCD_WIDTH 
.................... #define GLCD_WIDTH   128 
.................... #endif 
....................  
.................... #ifndef GLCD_CS1 
.................... #define GLCD_CS1     PIN_B2   // Chip Selection 1 
.................... #endif 
....................  
.................... #ifndef GLCD_CS2 
.................... #define GLCD_CS2     PIN_B3   // Chip Selection 2 
.................... #endif 
....................  
.................... #ifndef GLCD_DI 
.................... #define GLCD_DI      PIN_B5   // Data or Instruction input 
.................... #endif 
....................  
.................... #ifndef GLCD_RW 
.................... #define GLCD_RW      PIN_B6   // Read/Write 
.................... #endif 
....................  
.................... #ifndef GLCD_E 
.................... #define GLCD_E       PIN_B7   // Enable 
.................... #endif 
....................  
.................... #ifndef GLCD_RST 
.................... #define GLCD_RST     PIN_B4   // Reset 
.................... #endif 
....................  
.................... #define GLCD_LEFT    0 
.................... #define GLCD_RIGHT   1 
....................  
.................... #ifndef ON 
.................... #define ON           1 
.................... #endif 
....................  
.................... #ifndef OFF 
.................... #define OFF          0 
.................... #endif 
....................  
.................... ///////////////////////////////////////////////////////////////////////// 
.................... // Function Prototypes 
.................... ///////////////////////////////////////////////////////////////////////// 
.................... void glcd_init(int1 mode); 
.................... void glcd_pixel(int8 x, int8 y, int1 color); 
.................... void glcd_fillScreen(int1 color); 
.................... void glcd_writeByte(int1 side, BYTE data); 
.................... BYTE glcd_readByte(int1 side); 
.................... void glcd_update(); 
.................... ///////////////////////////////////////////////////////////////////////// 
....................  
.................... #ifdef FAST_GLCD 
.................... struct 
.................... { 
....................    int8 left[512]; 
....................    int8 right[512]; 
.................... } displayData; 
.................... #endif 
....................  
....................  
.................... // Purpose:       Initialize the LCD. 
.................... //                Call before using any other LCD function. 
.................... // Inputs:        OFF - Turns the LCD off 
.................... //                ON  - Turns the LCD on 
.................... void glcd_init(int1 mode) 
.................... { 
....................    // Initialze some pins 
....................    output_high(GLCD_RST); 
*
01992:  BCF    F93.4
01994:  BSF    F8A.4
....................    output_low(GLCD_E); 
01996:  BCF    F93.7
01998:  BCF    F8A.7
....................    output_low(GLCD_CS1); 
0199A:  BCF    F93.2
0199C:  BCF    F8A.2
....................    output_low(GLCD_CS2); 
0199E:  BCF    F93.3
019A0:  BCF    F8A.3
....................  
....................    output_low(GLCD_DI);                 // Set for instruction 
019A2:  BCF    F93.5
019A4:  BCF    F8A.5
....................    glcd_writeByte(GLCD_LEFT,  0xC0);    // Specify first RAM line at the top 
019A6:  MOVLB  7
019A8:  CLRF   xFA
019AA:  MOVLW  C0
019AC:  MOVWF  xFB
019AE:  MOVLB  0
019B0:  RCALL  184A
....................    glcd_writeByte(GLCD_RIGHT, 0xC0);    //   of the screen 
019B2:  MOVLW  01
019B4:  MOVLB  7
019B6:  MOVWF  xFA
019B8:  MOVLW  C0
019BA:  MOVWF  xFB
019BC:  MOVLB  0
019BE:  RCALL  184A
....................    glcd_writeByte(GLCD_LEFT,  0x40);    // Set the column address to 0 
019C0:  MOVLB  7
019C2:  CLRF   xFA
019C4:  MOVLW  40
019C6:  MOVWF  xFB
019C8:  MOVLB  0
019CA:  RCALL  184A
....................    glcd_writeByte(GLCD_RIGHT, 0x40); 
019CC:  MOVLW  01
019CE:  MOVLB  7
019D0:  MOVWF  xFA
019D2:  MOVLW  40
019D4:  MOVWF  xFB
019D6:  MOVLB  0
019D8:  RCALL  184A
....................    glcd_writeByte(GLCD_LEFT,  0xB8);    // Set the page address to 0 
019DA:  MOVLB  7
019DC:  CLRF   xFA
019DE:  MOVLW  B8
019E0:  MOVWF  xFB
019E2:  MOVLB  0
019E4:  RCALL  184A
....................    glcd_writeByte(GLCD_RIGHT, 0xB8); 
019E6:  MOVLW  01
019E8:  MOVLB  7
019EA:  MOVWF  xFA
019EC:  MOVLW  B8
019EE:  MOVWF  xFB
019F0:  MOVLB  0
019F2:  RCALL  184A
....................  
....................    if(mode == ON) 
019F4:  MOVLB  7
019F6:  DECFSZ xDD,W
019F8:  BRA    1A16
....................    { 
....................       glcd_writeByte(GLCD_LEFT,  0x3F); // Turn the display on 
019FA:  CLRF   xFA
019FC:  MOVLW  3F
019FE:  MOVWF  xFB
01A00:  MOVLB  0
01A02:  RCALL  184A
....................       glcd_writeByte(GLCD_RIGHT, 0x3F); 
01A04:  MOVLW  01
01A06:  MOVLB  7
01A08:  MOVWF  xFA
01A0A:  MOVLW  3F
01A0C:  MOVWF  xFB
01A0E:  MOVLB  0
01A10:  RCALL  184A
....................    } 
....................    else 
01A12:  BRA    1A2E
01A14:  MOVLB  7
....................    { 
....................       glcd_writeByte(GLCD_LEFT,  0x3E); // Turn the display off 
01A16:  CLRF   xFA
01A18:  MOVLW  3E
01A1A:  MOVWF  xFB
01A1C:  MOVLB  0
01A1E:  RCALL  184A
....................       glcd_writeByte(GLCD_RIGHT, 0x3E); 
01A20:  MOVLW  01
01A22:  MOVLB  7
01A24:  MOVWF  xFA
01A26:  MOVLW  3E
01A28:  MOVWF  xFB
01A2A:  MOVLB  0
01A2C:  RCALL  184A
....................    } 
....................  
....................    glcd_fillScreen(OFF);                // Clear the display 
01A2E:  MOVLB  7
01A30:  CLRF   xDE
01A32:  MOVLB  0
01A34:  RCALL  1880
....................  
....................    #ifdef FAST_GLCD 
....................    glcd_update(); 
01A36:  RCALL  18DA
....................    #endif 
.................... } 
01A38:  RETLW  00
....................  
....................  
.................... // Purpose:    Update the LCD with data from the display arrays 
.................... #ifdef FAST_GLCD 
.................... void glcd_update() 
.................... { 
....................    int8 i, j; 
....................    int8 *p1, *p2; 
....................  
....................    p1 = displayData.left; 
*
018DA:  MOVLB  7
018DC:  CLRF   xF6
018DE:  MOVLW  17
018E0:  MOVWF  xF5
....................    p2 = displayData.right; 
018E2:  MOVLW  02
018E4:  MOVWF  xF8
018E6:  MOVLW  17
018E8:  MOVWF  xF7
....................  
....................    // Loop through the vertical pages 
....................    for(i = 0; i < 8; ++i) 
018EA:  CLRF   xF3
018EC:  MOVF   xF3,W
018EE:  SUBLW  07
018F0:  BNC   198E
....................    { 
....................       output_low(GLCD_DI);                      // Set for instruction 
018F2:  BCF    F93.5
018F4:  BCF    F8A.5
....................       glcd_writeByte(GLCD_LEFT, 0x40);          // Set horizontal address to 0 
018F6:  CLRF   xFA
018F8:  MOVLW  40
018FA:  MOVWF  xFB
018FC:  MOVLB  0
018FE:  RCALL  184A
....................       glcd_writeByte(GLCD_RIGHT, 0x40); 
01900:  MOVLW  01
01902:  MOVLB  7
01904:  MOVWF  xFA
01906:  MOVLW  40
01908:  MOVWF  xFB
0190A:  MOVLB  0
0190C:  RCALL  184A
....................       glcd_writeByte(GLCD_LEFT, i | 0xB8);      // Set page address 
0190E:  MOVLB  7
01910:  MOVF   xF3,W
01912:  IORLW  B8
01914:  MOVWF  xF9
01916:  CLRF   xFA
01918:  MOVWF  xFB
0191A:  MOVLB  0
0191C:  RCALL  184A
....................       glcd_writeByte(GLCD_RIGHT, i | 0xB8); 
0191E:  MOVLB  7
01920:  MOVF   xF3,W
01922:  IORLW  B8
01924:  MOVWF  xF9
01926:  MOVLW  01
01928:  MOVWF  xFA
0192A:  MOVFF  7F9,7FB
0192E:  MOVLB  0
01930:  RCALL  184A
....................       output_high(GLCD_DI);                     // Set for data 
01932:  BCF    F93.5
01934:  BSF    F8A.5
....................  
....................       // Loop through the horizontal sections 
....................       for(j = 0; j < 64; ++j) 
01936:  MOVLB  7
01938:  CLRF   xF4
0193A:  MOVF   xF4,W
0193C:  SUBLW  3F
0193E:  BNC   198A
....................       { 
....................          glcd_writeByte(GLCD_LEFT, *p1++);      // Turn pixels on or off 
01940:  MOVFF  7F6,03
01944:  MOVF   xF5,W
01946:  INCF   xF5,F
01948:  BTFSC  FD8.2
0194A:  INCF   xF6,F
0194C:  MOVWF  FE9
0194E:  MOVFF  03,FEA
01952:  MOVFF  FEF,7F9
01956:  CLRF   xFA
01958:  MOVFF  7F9,7FB
0195C:  MOVLB  0
0195E:  RCALL  184A
....................          glcd_writeByte(GLCD_RIGHT, *p2++);     // Turn pixels on or off 
01960:  MOVLB  7
01962:  MOVFF  7F8,03
01966:  MOVF   xF7,W
01968:  INCF   xF7,F
0196A:  BTFSC  FD8.2
0196C:  INCF   xF8,F
0196E:  MOVWF  FE9
01970:  MOVFF  03,FEA
01974:  MOVFF  FEF,7F9
01978:  MOVLW  01
0197A:  MOVWF  xFA
0197C:  MOVFF  7F9,7FB
01980:  MOVLB  0
01982:  RCALL  184A
....................       } 
01984:  MOVLB  7
01986:  INCF   xF4,F
01988:  BRA    193A
....................    } 
0198A:  INCF   xF3,F
0198C:  BRA    18EC
.................... } 
0198E:  MOVLB  0
01990:  RETLW  00
.................... #endif 
....................  
....................  
.................... // Purpose:    Turn a pixel on a graphic LCD on or off 
.................... // Inputs:     1) x - the x coordinate of the pixel 
.................... //             2) y - the y coordinate of the pixel 
.................... //             3) color - ON or OFF 
.................... void glcd_pixel(int8 x, int8 y, int1 color) 
.................... #ifdef FAST_GLCD 
.................... { 
....................    int8* p; 
....................    int16 temp; 
....................    temp =  y/8; 
*
01A3A:  MOVLB  8
01A3C:  CLRF   x17
01A3E:  RRCF   x12,W
01A40:  MOVWF  x16
01A42:  RRCF   x16,F
01A44:  RRCF   x16,F
01A46:  MOVLW  1F
01A48:  ANDWF  x16,F
....................    temp *= 64; 
01A4A:  RLCF   x16,F
01A4C:  RLCF   x17,F
01A4E:  RLCF   x16,F
01A50:  RLCF   x17,F
01A52:  RLCF   x16,F
01A54:  RLCF   x17,F
01A56:  RLCF   x16,F
01A58:  RLCF   x17,F
01A5A:  RLCF   x16,F
01A5C:  RLCF   x17,F
01A5E:  RLCF   x16,F
01A60:  RLCF   x17,F
01A62:  MOVLW  C0
01A64:  ANDWF  x16,F
....................    temp += x; 
01A66:  MOVF   x11,W
01A68:  ADDWF  x16,F
01A6A:  MOVLW  00
01A6C:  ADDWFC x17,F
....................  
....................    if(x > 63) 
01A6E:  MOVF   x11,W
01A70:  SUBLW  3F
01A72:  BC    1A8E
....................    { 
....................       p = displayData.right + temp - 64; 
01A74:  MOVLW  17
01A76:  ADDWF  x16,W
01A78:  MOVWF  x18
01A7A:  MOVLW  02
01A7C:  ADDWFC x17,W
01A7E:  MOVWF  x19
01A80:  MOVLW  40
01A82:  SUBWF  x18,W
01A84:  MOVWF  x14
01A86:  MOVLW  00
01A88:  SUBWFB x19,W
01A8A:  MOVWF  x15
....................    } 
....................    else 
01A8C:  BRA    1A9A
....................    { 
....................       p = displayData.left + temp; 
01A8E:  MOVLW  17
01A90:  ADDWF  x16,W
01A92:  MOVWF  x14
01A94:  MOVLW  00
01A96:  ADDWFC x17,W
01A98:  MOVWF  x15
....................    } 
....................  
....................    if(color) 
01A9A:  MOVF   x13,F
01A9C:  BZ    1AC8
....................    { 
....................       bit_set(*p, y%8); 
01A9E:  MOVFF  815,03
01AA2:  MOVFF  814,FE9
01AA6:  MOVFF  815,FEA
01AAA:  MOVF   x12,W
01AAC:  ANDLW  07
01AAE:  MOVWF  x18
01AB0:  MOVLW  01
01AB2:  MOVWF  00
01AB4:  MOVF   x18,W
01AB6:  MOVWF  01
01AB8:  BZ    1AC2
01ABA:  BCF    FD8.0
01ABC:  RLCF   00,F
01ABE:  DECFSZ 01,F
01AC0:  BRA    1ABA
01AC2:  MOVF   00,W
01AC4:  IORWF  FEF,F
....................    } 
....................    else 
01AC6:  BRA    1AF2
....................    { 
....................       bit_clear(*p, y%8); 
01AC8:  MOVFF  815,03
01ACC:  MOVFF  814,FE9
01AD0:  MOVFF  815,FEA
01AD4:  MOVF   x12,W
01AD6:  ANDLW  07
01AD8:  MOVWF  x18
01ADA:  MOVLW  01
01ADC:  MOVWF  00
01ADE:  MOVF   x18,W
01AE0:  MOVWF  01
01AE2:  BZ    1AEC
01AE4:  BCF    FD8.0
01AE6:  RLCF   00,F
01AE8:  DECFSZ 01,F
01AEA:  BRA    1AE4
01AEC:  MOVF   00,W
01AEE:  XORLW  FF
01AF0:  ANDWF  FEF,F
....................    } 
.................... } 
01AF2:  MOVLB  0
01AF4:  RETLW  00
.................... #else 
.................... { 
....................    BYTE data; 
....................    int1 side = GLCD_LEFT;  // Stores which chip to use on the LCD 
....................  
....................    if(x > 63)              // Check for first or second display area 
....................    { 
....................       x -= 64; 
....................       side = GLCD_RIGHT; 
....................    } 
....................  
....................    output_low(GLCD_DI);                         // Set for instruction 
....................    bit_clear(x,7);                              // Clear the MSB. Part of an instruction code 
....................    bit_set(x,6);                                // Set bit 6. Also part of an instruction code 
....................    glcd_writeByte(side, x);                     // Set the horizontal address 
....................    glcd_writeByte(side, (y/8 & 0xBF) | 0xB8);   // Set the vertical page address 
....................    output_high(GLCD_DI);                        // Set for data 
....................    glcd_readByte(side);                         // Need two reads to get data 
....................    data = glcd_readByte(side);                  //  at new address 
....................  
....................    if(color == ON) 
....................       bit_set(data, y%8);        // Turn the pixel on 
....................    else                          // or 
....................       bit_clear(data, y%8);      // turn the pixel off 
....................  
....................    output_low(GLCD_DI);          // Set for instruction 
....................    glcd_writeByte(side, x);      // Set the horizontal address 
....................    output_high(GLCD_DI);         // Set for data 
....................    glcd_writeByte(side, data);   // Write the pixel data 
.................... } 
.................... #endif 
....................  
....................  
.................... // Purpose:    Fill the LCD screen with the passed in color 
.................... // Inputs:     ON  - turn all the pixels on 
.................... //             OFF - turn all the pixels off 
.................... void glcd_fillScreen(int1 color) 
.................... #ifdef FAST_GLCD 
.................... { 
....................    int8  data; 
....................    int8  *p1, *p2; 
....................    int16 i; 
....................  
....................    p1 = displayData.left; 
*
01880:  MOVLB  7
01882:  CLRF   xE1
01884:  MOVLW  17
01886:  MOVWF  xE0
....................    p2 = displayData.right; 
01888:  MOVLW  02
0188A:  MOVWF  xE3
0188C:  MOVLW  17
0188E:  MOVWF  xE2
....................    data = 0xFF * color; 
01890:  MOVF   xDE,W
01892:  MULLW  FF
01894:  MOVFF  FF3,7DF
....................  
....................    for(i=0; i<512; ++i) 
01898:  CLRF   xE5
0189A:  CLRF   xE4
0189C:  MOVF   xE5,W
0189E:  SUBLW  01
018A0:  BNC   18D6
....................    { 
....................       *p1++ = data; 
018A2:  MOVFF  7E1,03
018A6:  MOVF   xE0,W
018A8:  INCF   xE0,F
018AA:  BTFSC  FD8.2
018AC:  INCF   xE1,F
018AE:  MOVWF  FE9
018B0:  MOVFF  03,FEA
018B4:  MOVFF  7DF,FEF
....................       *p2++ = data; 
018B8:  MOVFF  7E3,03
018BC:  MOVF   xE2,W
018BE:  INCF   xE2,F
018C0:  BTFSC  FD8.2
018C2:  INCF   xE3,F
018C4:  MOVWF  FE9
018C6:  MOVFF  03,FEA
018CA:  MOVFF  7DF,FEF
....................    } 
018CE:  INCF   xE4,F
018D0:  BTFSC  FD8.2
018D2:  INCF   xE5,F
018D4:  BRA    189C
.................... } 
018D6:  MOVLB  0
018D8:  RETLW  00
.................... #else 
.................... { 
....................    int8 i, j; 
....................  
....................    // Loop through the vertical pages 
....................    for(i = 0; i < 8; ++i) 
....................    { 
....................       output_low(GLCD_DI);                      // Set for instruction 
....................       glcd_writeByte(GLCD_LEFT, 0b01000000);    // Set horizontal address to 0 
....................       glcd_writeByte(GLCD_RIGHT, 0b01000000); 
....................       glcd_writeByte(GLCD_LEFT, i | 0b10111000);// Set page address 
....................       glcd_writeByte(GLCD_RIGHT, i | 0b10111000); 
....................       output_high(GLCD_DI);                     // Set for data 
....................  
....................       // Loop through the horizontal sections 
....................       for(j = 0; j < 64; ++j) 
....................       { 
....................          glcd_writeByte(GLCD_LEFT, 0xFF*color);  // Turn pixels on or off 
....................          glcd_writeByte(GLCD_RIGHT, 0xFF*color); // Turn pixels on or off 
....................       } 
....................    } 
.................... } 
.................... #endif 
....................  
....................  
.................... // Purpose:    Write a byte of data to the specified chip 
.................... // Inputs:     1) chipSelect - which chip to write the data to 
.................... //             2) data - the byte of data to write 
.................... void glcd_writeByte(int1 side, BYTE data) 
.................... { 
....................    if(side)                   // Choose which side to write to 
*
0184A:  MOVLB  7
0184C:  MOVF   xFA,F
0184E:  BZ    1856
....................       output_high(GLCD_CS2); 
01850:  BCF    F93.3
01852:  BSF    F8A.3
....................    else 
01854:  BRA    185A
....................       output_high(GLCD_CS1); 
01856:  BCF    F93.2
01858:  BSF    F8A.2
....................  
....................    output_low(GLCD_RW);       // Set for writing 
0185A:  BCF    F93.6
0185C:  BCF    F8A.6
....................    output_d(data);            // Put the data on the port 
0185E:  CLRF   F95
01860:  MOVFF  7FB,F8C
....................    delay_cycles(1); 
01864:  NOP   
....................    output_high(GLCD_E);       // Pulse the enable pin 
01866:  BCF    F93.7
01868:  BSF    F8A.7
....................    delay_cycles(5); 
0186A:  BRA    186C
0186C:  BRA    186E
0186E:  NOP   
....................    output_low(GLCD_E); 
01870:  BCF    F93.7
01872:  BCF    F8A.7
....................  
....................    output_low(GLCD_CS1);      // Reset the chip select lines 
01874:  BCF    F93.2
01876:  BCF    F8A.2
....................    output_low(GLCD_CS2); 
01878:  BCF    F93.3
0187A:  BCF    F8A.3
.................... } 
0187C:  MOVLB  0
0187E:  RETLW  00
....................  
....................  
.................... // Purpose:    Reads a byte of data from the specified chip 
.................... // Ouputs:     A byte of data read from the chip 
.................... BYTE glcd_readByte(int1 side) 
.................... { 
....................    BYTE data;                 // Stores the data read from the LCD 
....................  
....................    set_tris_d(0xFF);          // Set port d to input 
....................    output_high(GLCD_RW);      // Set for reading 
....................  
....................    if(side)                   // Choose which side to write to 
....................       output_high(GLCD_CS2); 
....................    else 
....................       output_high(GLCD_CS1); 
....................  
....................    delay_cycles(1); 
....................    output_high(GLCD_E);       // Pulse the enable pin 
....................    delay_cycles(4); 
....................    data = input_d();          // Get the data from the display's output register 
....................    output_low(GLCD_E); 
....................  
....................    output_low(GLCD_CS1);      // Reset the chip select lines 
....................    output_low(GLCD_CS2); 
....................    return data;               // Return the read data 
.................... } 
....................  
.................... #endif 
....................  
.................... #include "GRAPHICS.c" 
.................... ///////////////////////////////////////////////////////////////////////// 
.................... ////                          graphics.c                             //// 
.................... ////                                                                 //// 
.................... ////   This file contains functions to draw lines, rectangles, bars, //// 
.................... ////   circles and text to a display. A function which draws a       //// 
.................... ////   single pixel must be defined before calling the functions in  //// 
.................... ////   this file. Call it glcd_pixel(x, y, color) where x is the     //// 
.................... ////   horizontal coordinate, y is the vertical coordinate, and      //// 
.................... ////   color is 1 bit to turn the pixel on or off.                   //// 
.................... ////                                                                 //// 
.................... ////   * Note: (0, 0) is treated as the upper left corner            //// 
.................... ////                                                                 //// 
.................... ///////////////////////////////////////////////////////////////////////// 
.................... ////                                                                 //// 
.................... ////  glcd_line(x1, y1, x2, y2, color)                               //// 
.................... ////     * Draws a line from the first point to the second point     //// 
.................... ////       with the given color                                      //// 
.................... ////       - color can be ON or OFF                                  //// 
.................... ////                                                                 //// 
.................... ////  glcd_rect(x1, y1, x2, y2, fill, color)                         //// 
.................... ////     * Draws a rectangle with one corner at point (x1,y1) and    //// 
.................... ////       the other corner at point (x2,y2)                         //// 
.................... ////       - fill can be YES or NO                                   //// 
.................... ////       - color can be ON or OFF                                  //// 
.................... ////                                                                 //// 
.................... ////  glcd_bar(x1, y1, x2, y2, width, color)                         //// 
.................... ////     * Draws a bar (wide line) from the first point to the       //// 
.................... ////       second point                                              //// 
.................... ////       - width is the number of pixels wide                      //// 
.................... ////       - color is ON or OFF                                      //// 
.................... ////                                                                 //// 
.................... ////  glcd_circle(x, y, radius, fill, color)                         //// 
.................... ////     * Draws a circle with center at (x,y)                       //// 
.................... ////       - fill can be YES or NO                                   //// 
.................... ////       - color can be ON or OFF                                  //// 
.................... ////                                                                 //// 
.................... ////  glcd_text57(x, y, textptr, size, color)                        //// 
.................... ////     * Write the null terminated text pointed to by textptr with //// 
.................... ////       the upper left coordinate of the first character at (x,y) //// 
.................... ////       Characters are 5 pixels wide and 7 pixels tall            //// 
.................... ////       - size is an integer that scales the size of the text     //// 
.................... ////       - color is ON or OFF                                      //// 
.................... ////     * Note - This function wraps characters to the next line    //// 
.................... ////              use #define GLCD_WIDTH to specify a display width  //// 
.................... ////                                                                 //// 
.................... ///////////////////////////////////////////////////////////////////////// 
.................... ////        (C) Copyright 1996, 2004 Custom Computer Services        //// 
.................... //// This source code may only be used by licensed users of the CCS  //// 
.................... //// C compiler.  This source code may only be distributed to other  //// 
.................... //// licensed users of the CCS C compiler.  No other use,            //// 
.................... //// reproduction or distribution is permitted without written       //// 
.................... //// permission.  Derivative programs created using this software    //// 
.................... //// in object code form are not restricted in any way.              //// 
.................... ///////////////////////////////////////////////////////////////////////// 
....................  
....................  
.................... ///////////////////////////////////////////////////////////////////////// 
.................... #ifndef GRAPHICS_DRAWING_FUNCTIONS 
.................... #define GRAPHICS_DRAWING_FUNCTIONS 
.................... ///////////////////////////////////////////////////////////////////////// 
....................  
....................  
.................... ///////////////////////////////////////////////////////////////////////// 
.................... #ifndef ON 
.................... #define ON  1 
.................... #endif 
....................  
.................... #ifndef OFF 
.................... #define OFF 0 
.................... #endif 
....................  
.................... #ifndef YES 
.................... #define YES 1 
.................... #endif 
....................  
.................... #ifndef NO 
.................... #define NO  0 
.................... #endif 
.................... ///////////////////////////////////////////////////////////////////////// 
....................  
....................  
.................... ///////////////////////////////////////////////////////////////////////// 
.................... //// Defines a 5x7 font 
.................... ///////////////////////////////////////////////////////////////////////// 
.................... const int8 FONT[51][5] ={0x00, 0x00, 0x00, 0x00, 0x00, // SPACE 
....................                          0x00, 0x00, 0x5F, 0x00, 0x00, // ! 
....................                          0x00, 0x03, 0x00, 0x03, 0x00, // " 
....................                          0x14, 0x3E, 0x14, 0x3E, 0x14, // # 
....................                          0x24, 0x2A, 0x7F, 0x2A, 0x12, // $ 
....................                          0x43, 0x33, 0x08, 0x66, 0x61, // % 
....................                          0x36, 0x49, 0x55, 0x22, 0x50, // & 
....................                          0x00, 0x05, 0x03, 0x00, 0x00, // ' 
....................                          0x00, 0x1C, 0x22, 0x41, 0x00, // ( 
....................                          0x00, 0x41, 0x22, 0x1C, 0x00, // ) 
....................                          0x14, 0x08, 0x3E, 0x08, 0x14, // * 
....................                          0x08, 0x08, 0x3E, 0x08, 0x08, // + 
....................                          0x00, 0x50, 0x30, 0x00, 0x00, // , 
....................                          0x08, 0x08, 0x08, 0x08, 0x08, // - 
....................                          0x00, 0x60, 0x60, 0x00, 0x00, // . 
....................                          0x20, 0x10, 0x08, 0x04, 0x02, // / 
....................                          0x3E, 0x51, 0x49, 0x45, 0x3E, // 0 
....................                          0x00, 0x04, 0x02, 0x7F, 0x00, // 1 
....................                          0x42, 0x61, 0x51, 0x49, 0x46, // 2 
....................                          0x22, 0x41, 0x49, 0x49, 0x36, // 3 
....................                          0x18, 0x14, 0x12, 0x7F, 0x10, // 4 
....................                          0x27, 0x45, 0x45, 0x45, 0x39, // 5 
....................                          0x3E, 0x49, 0x49, 0x49, 0x32, // 6 
....................                          0x01, 0x01, 0x71, 0x09, 0x07, // 7 
....................                          0x36, 0x49, 0x49, 0x49, 0x36, // 8 
....................                          0x26, 0x49, 0x49, 0x49, 0x3E, // 9 
....................                          0x00, 0x36, 0x36, 0x00, 0x00, // : 
....................                          0x00, 0x56, 0x36, 0x00, 0x00, // ; 
....................                          0x08, 0x14, 0x22, 0x41, 0x00, // < 
....................                          0x14, 0x14, 0x14, 0x14, 0x14, // = 
....................                          0x00, 0x41, 0x22, 0x14, 0x08, // > 
....................                          0x02, 0x01, 0x51, 0x09, 0x06, // ? 
....................                          0x3E, 0x41, 0x59, 0x55, 0x5E, // @ 
....................                          0x7E, 0x09, 0x09, 0x09, 0x7E, // A 
....................                          0x7F, 0x49, 0x49, 0x49, 0x36, // B 
....................                          0x3E, 0x41, 0x41, 0x41, 0x22, // C 
....................                          0x7F, 0x41, 0x41, 0x41, 0x3E, // D 
....................                          0x7F, 0x49, 0x49, 0x49, 0x41, // E 
....................                          0x7F, 0x09, 0x09, 0x09, 0x01, // F 
....................                          0x3E, 0x41, 0x41, 0x49, 0x3A, // G 
....................                          0x7F, 0x08, 0x08, 0x08, 0x7F, // H 
....................                          0x00, 0x41, 0x7F, 0x41, 0x00, // I 
....................                          0x30, 0x40, 0x40, 0x40, 0x3F, // J 
....................                          0x7F, 0x08, 0x14, 0x22, 0x41, // K 
....................                          0x7F, 0x40, 0x40, 0x40, 0x40, // L 
....................                          0x7F, 0x02, 0x0C, 0x02, 0x7F, // M 
....................                          0x7F, 0x02, 0x04, 0x08, 0x7F, // N 
....................                          0x3E, 0x41, 0x41, 0x41, 0x3E, // O 
....................                          0x7F, 0x09, 0x09, 0x09, 0x06, // P 
....................                          0x1E, 0x21, 0x21, 0x21, 0x5E, // Q 
....................                          0x7F, 0x09, 0x09, 0x09, 0x76};// R 
....................  
.................... const int8 FONT2[44][5]={0x26, 0x49, 0x49, 0x49, 0x32, // S 
....................                          0x01, 0x01, 0x7F, 0x01, 0x01, // T 
....................                          0x3F, 0x40, 0x40, 0x40, 0x3F, // U 
....................                          0x1F, 0x20, 0x40, 0x20, 0x1F, // V 
....................                          0x7F, 0x20, 0x10, 0x20, 0x7F, // W 
....................                          0x41, 0x22, 0x1C, 0x22, 0x41, // X 
....................                          0x07, 0x08, 0x70, 0x08, 0x07, // Y 
....................                          0x61, 0x51, 0x49, 0x45, 0x43, // Z 
....................                          0x00, 0x7F, 0x41, 0x00, 0x00, // [ 
....................                          0x02, 0x04, 0x08, 0x10, 0x20, // \ 
....................                          0x00, 0x00, 0x41, 0x7F, 0x00, // ] 
....................                          0x04, 0x02, 0x01, 0x02, 0x04, // ^ 
....................                          0x40, 0x40, 0x40, 0x40, 0x40, // _ 
....................                          0x00, 0x01, 0x02, 0x04, 0x00, // ` 
....................                          0x20, 0x54, 0x54, 0x54, 0x78, // a 
....................                          0x7F, 0x44, 0x44, 0x44, 0x38, // b 
....................                          0x38, 0x44, 0x44, 0x44, 0x44, // c 
....................                          0x38, 0x44, 0x44, 0x44, 0x7F, // d 
....................                          0x38, 0x54, 0x54, 0x54, 0x18, // e 
....................                          0x04, 0x04, 0x7E, 0x05, 0x05, // f 
....................                          0x08, 0x54, 0x54, 0x54, 0x3C, // g 
....................                          0x7F, 0x08, 0x04, 0x04, 0x78, // h 
....................                          0x00, 0x44, 0x7D, 0x40, 0x00, // i 
....................                          0x20, 0x40, 0x44, 0x3D, 0x00, // j 
....................                          0x7F, 0x10, 0x28, 0x44, 0x00, // k 
....................                          0x00, 0x41, 0x7F, 0x40, 0x00, // l 
....................                          0x7C, 0x04, 0x78, 0x04, 0x78, // m 
....................                          0x7C, 0x08, 0x04, 0x04, 0x78, // n 
....................                          0x38, 0x44, 0x44, 0x44, 0x38, // o 
....................                          0x7C, 0x14, 0x14, 0x14, 0x08, // p 
....................                          0x08, 0x14, 0x14, 0x14, 0x7C, // q 
....................                          0x00, 0x7C, 0x08, 0x04, 0x04, // r 
....................                          0x48, 0x54, 0x54, 0x54, 0x20, // s 
....................                          0x04, 0x04, 0x3F, 0x44, 0x44, // t 
....................                          0x3C, 0x40, 0x40, 0x20, 0x7C, // u 
....................                          0x1C, 0x20, 0x40, 0x20, 0x1C, // v 
....................                          0x3C, 0x40, 0x30, 0x40, 0x3C, // w 
....................                          0x44, 0x28, 0x10, 0x28, 0x44, // x 
....................                          0x0C, 0x50, 0x50, 0x50, 0x3C, // y 
....................                          0x44, 0x64, 0x54, 0x4C, 0x44, // z 
....................                          0x00, 0x08, 0x36, 0x41, 0x41, // { 
....................                          0x00, 0x00, 0x7F, 0x00, 0x00, // | 
....................                          0x41, 0x41, 0x36, 0x08, 0x00, // } 
....................                          0x02, 0x01, 0x02, 0x04, 0x02};// ~ 
.................... ///////////////////////////////////////////////////////////////////////// 
....................  
....................  
.................... ///////////////////////////////////////////////////////////////////////// 
.................... // Purpose:       Draw a line on a graphic LCD using Bresenham's 
.................... //                line drawing algorithm 
.................... // Inputs:        (x1, y1) - the start coordinate 
.................... //                (x2, y2) - the end coordinate 
.................... //                color - ON or OFF 
.................... // Dependencies:  glcd_pixel() 
.................... ///////////////////////////////////////////////////////////////////////// 
.................... #ifdef LARGE_LCD 
.................... void glcd_line(int16 x1, int16 y1, int16 x2, int16 y2, int1 color) 
.................... #else 
.................... void glcd_line(int8 x1, int8 y1, int8 x2, int8 y2, int1 color) 
.................... #endif 
.................... { 
*
01CC0:  MOVLW  01
01CC2:  MOVLB  8
01CC4:  MOVWF  x0A
01CC6:  MOVWF  x0B
01CC8:  CLRF   x10
....................    int16        dy, dx; 
....................    signed int8  addx=1, addy=1; 
....................    signed int16 P, diff; 
....................  
....................    #ifdef LARGE_LCD 
....................    int16 i=0; 
....................    dx = abs((signed int16)(x2 - x1)); 
....................    dy = abs((signed int16)(y2 - y1)); 
....................    #else 
....................    int8 i=0; 
....................    dx = abs((signed int8)(x2 - x1)); 
01CCA:  MOVF   x01,W
01CCC:  SUBWF  x03,W
01CCE:  MOVWF  x11
01CD0:  MOVF   x11,W
01CD2:  BTFSS  x11.7
01CD4:  BRA    1CDC
01CD6:  MOVLW  00
01CD8:  BSF    FD8.0
01CDA:  SUBFWB x11,W
01CDC:  CLRF   03
01CDE:  MOVWF  x08
01CE0:  MOVFF  03,809
....................    dy = abs((signed int8)(y2 - y1)); 
01CE4:  MOVF   x02,W
01CE6:  SUBWF  x04,W
01CE8:  MOVWF  x11
01CEA:  MOVF   x11,W
01CEC:  BTFSS  x11.7
01CEE:  BRA    1CF6
01CF0:  MOVLW  00
01CF2:  BSF    FD8.0
01CF4:  SUBFWB x11,W
01CF6:  CLRF   03
01CF8:  MOVWF  x06
01CFA:  MOVFF  03,807
....................    #endif 
....................  
....................    if(x1 > x2) 
01CFE:  MOVF   x01,W
01D00:  SUBWF  x03,W
01D02:  BC    1D08
....................       addx = -1; 
01D04:  MOVLW  FF
01D06:  MOVWF  x0A
....................    if(y1 > y2) 
01D08:  MOVF   x02,W
01D0A:  SUBWF  x04,W
01D0C:  BC    1D12
....................       addy = -1; 
01D0E:  MOVLW  FF
01D10:  MOVWF  x0B
....................  
....................    if(dx >= dy) 
01D12:  MOVF   x07,W
01D14:  SUBWF  x09,W
01D16:  BNC   1D8E
01D18:  BNZ   1D20
01D1A:  MOVF   x06,W
01D1C:  SUBWF  x08,W
01D1E:  BNC   1D8E
....................    { 
....................       dy *= 2; 
01D20:  BCF    FD8.0
01D22:  RLCF   x06,F
01D24:  RLCF   x07,F
....................       P = dy - dx; 
01D26:  MOVF   x08,W
01D28:  SUBWF  x06,W
01D2A:  MOVWF  00
01D2C:  MOVF   x09,W
01D2E:  SUBWFB x07,W
01D30:  MOVFF  00,80C
01D34:  MOVWF  x0D
....................       diff = P - dx; 
01D36:  MOVF   x08,W
01D38:  SUBWF  x0C,W
01D3A:  MOVWF  x0E
01D3C:  MOVF   x09,W
01D3E:  SUBWFB x0D,W
01D40:  MOVWF  x0F
....................  
....................       for(; i<=dx; ++i) 
01D42:  MOVF   x09,F
01D44:  BNZ   1D4C
01D46:  MOVF   x10,W
01D48:  SUBWF  x08,W
01D4A:  BNC   1D8C
....................       { 
....................          glcd_pixel(x1, y1, color); 
01D4C:  MOVFF  801,811
01D50:  MOVFF  802,812
01D54:  MOVFF  805,813
01D58:  MOVLB  0
01D5A:  RCALL  1A3A
....................  
....................          if(P < 0) 
01D5C:  MOVLB  8
01D5E:  BTFSC  x0D.7
01D60:  BRA    1D64
01D62:  BRA    1D74
....................          { 
....................             P  += dy; 
01D64:  MOVF   x06,W
01D66:  ADDWF  x0C,F
01D68:  MOVF   x07,W
01D6A:  ADDWFC x0D,F
....................             x1 += addx; 
01D6C:  MOVF   x0A,W
01D6E:  ADDWF  x01,W
01D70:  MOVWF  x01
....................          } 
....................          else 
01D72:  BRA    1D88
....................          { 
....................             P  += diff; 
01D74:  MOVF   x0E,W
01D76:  ADDWF  x0C,F
01D78:  MOVF   x0F,W
01D7A:  ADDWFC x0D,F
....................             x1 += addx; 
01D7C:  MOVF   x0A,W
01D7E:  ADDWF  x01,W
01D80:  MOVWF  x01
....................             y1 += addy; 
01D82:  MOVF   x0B,W
01D84:  ADDWF  x02,W
01D86:  MOVWF  x02
....................          } 
....................       } 
01D88:  INCF   x10,F
01D8A:  BRA    1D42
....................    } 
....................    else 
01D8C:  BRA    1DFA
....................    { 
....................       dx *= 2; 
01D8E:  BCF    FD8.0
01D90:  RLCF   x08,F
01D92:  RLCF   x09,F
....................       P = dx - dy; 
01D94:  MOVF   x06,W
01D96:  SUBWF  x08,W
01D98:  MOVWF  00
01D9A:  MOVF   x07,W
01D9C:  SUBWFB x09,W
01D9E:  MOVFF  00,80C
01DA2:  MOVWF  x0D
....................       diff = P - dy; 
01DA4:  MOVF   x06,W
01DA6:  SUBWF  x0C,W
01DA8:  MOVWF  x0E
01DAA:  MOVF   x07,W
01DAC:  SUBWFB x0D,W
01DAE:  MOVWF  x0F
....................  
....................       for(; i<=dy; ++i) 
01DB0:  MOVF   x07,F
01DB2:  BNZ   1DBA
01DB4:  MOVF   x10,W
01DB6:  SUBWF  x06,W
01DB8:  BNC   1DFA
....................       { 
....................          glcd_pixel(x1, y1, color); 
01DBA:  MOVFF  801,811
01DBE:  MOVFF  802,812
01DC2:  MOVFF  805,813
01DC6:  MOVLB  0
01DC8:  RCALL  1A3A
....................  
....................          if(P < 0) 
01DCA:  MOVLB  8
01DCC:  BTFSC  x0D.7
01DCE:  BRA    1DD2
01DD0:  BRA    1DE2
....................          { 
....................             P  += dx; 
01DD2:  MOVF   x08,W
01DD4:  ADDWF  x0C,F
01DD6:  MOVF   x09,W
01DD8:  ADDWFC x0D,F
....................             y1 += addy; 
01DDA:  MOVF   x0B,W
01DDC:  ADDWF  x02,W
01DDE:  MOVWF  x02
....................          } 
....................          else 
01DE0:  BRA    1DF6
....................          { 
....................             P  += diff; 
01DE2:  MOVF   x0E,W
01DE4:  ADDWF  x0C,F
01DE6:  MOVF   x0F,W
01DE8:  ADDWFC x0D,F
....................             x1 += addx; 
01DEA:  MOVF   x0A,W
01DEC:  ADDWF  x01,W
01DEE:  MOVWF  x01
....................             y1 += addy; 
01DF0:  MOVF   x0B,W
01DF2:  ADDWF  x02,W
01DF4:  MOVWF  x02
....................          } 
....................       } 
01DF6:  INCF   x10,F
01DF8:  BRA    1DB0
....................    } 
.................... } 
01DFA:  MOVLB  0
01DFC:  RETLW  00
....................  
....................  
.................... ///////////////////////////////////////////////////////////////////////// 
.................... // Purpose:       Draw a rectangle on a graphic LCD 
.................... // Inputs:        (x1, y1) - the start coordinate 
.................... //                (x2, y2) - the end coordinate 
.................... //                fill  - YES or NO 
.................... //                color - ON or OFF 
.................... // Dependencies:  glcd_pixel(), glcd_line() 
.................... ///////////////////////////////////////////////////////////////////////// 
.................... #ifdef LARGE_LCD 
.................... void glcd_rect(int16 x1, int16 y1, int16 x2, int16 y2, int1 fill, int1 color) 
.................... #else 
.................... void glcd_rect(int8 x1, int8 y1, int8 x2, int8 y2, int1 fill, int1 color) 
.................... #endif 
.................... { 
....................    if(fill) 
01DFE:  MOVLB  7
01E00:  MOVF   xF9,F
01E02:  BZ    1E60
....................    { 
....................       #ifdef LARGE_LCD 
....................       int16 i, xmin, xmax, ymin, ymax; 
....................       #else 
....................       int8  i, xmin, xmax, ymin, ymax; 
....................       #endif 
....................  
....................       if(x1 < x2)                            //  Find x min and max 
01E04:  MOVF   xF7,W
01E06:  SUBWF  xF5,W
01E08:  BC    1E14
....................       { 
....................          xmin = x1; 
01E0A:  MOVFF  7F5,7FC
....................          xmax = x2; 
01E0E:  MOVFF  7F7,7FD
....................       } 
....................       else 
01E12:  BRA    1E1C
....................       { 
....................          xmin = x2; 
01E14:  MOVFF  7F7,7FC
....................          xmax = x1; 
01E18:  MOVFF  7F5,7FD
....................       } 
....................  
....................       if(y1 < y2)                            // Find the y min and max 
01E1C:  MOVF   xF8,W
01E1E:  SUBWF  xF6,W
01E20:  BC    1E2C
....................       { 
....................          ymin = y1; 
01E22:  MOVFF  7F6,7FE
....................          ymax = y2; 
01E26:  MOVFF  7F8,7FF
....................       } 
....................       else 
01E2A:  BRA    1E34
....................       { 
....................          ymin = y2; 
01E2C:  MOVFF  7F8,7FE
....................          ymax = y1; 
01E30:  MOVFF  7F6,7FF
....................       } 
....................  
....................       for(; xmin <= xmax; ++xmin) 
01E34:  MOVF   xFC,W
01E36:  SUBWF  xFD,W
01E38:  BNC   1E5E
....................       { 
....................          for(i=ymin; i<=ymax; ++i) 
01E3A:  MOVFF  7FE,7FB
01E3E:  MOVF   xFB,W
01E40:  SUBWF  xFF,W
01E42:  BNC   1E5A
....................          { 
....................             glcd_pixel(xmin, i, color); 
01E44:  MOVFF  7FC,811
01E48:  MOVFF  7FB,812
01E4C:  MOVFF  7FA,813
01E50:  MOVLB  0
01E52:  RCALL  1A3A
....................          } 
01E54:  MOVLB  7
01E56:  INCF   xFB,F
01E58:  BRA    1E3E
....................       } 
01E5A:  INCF   xFC,F
01E5C:  BRA    1E34
....................    } 
....................    else 
01E5E:  BRA    1EBC
....................    { 
....................       glcd_line(x1, y1, x2, y1, color);      // Draw the 4 sides 
01E60:  MOVFF  7F5,801
01E64:  MOVFF  7F6,802
01E68:  MOVFF  7F7,803
01E6C:  MOVFF  7F6,804
01E70:  MOVFF  7FA,805
01E74:  MOVLB  0
01E76:  RCALL  1CC0
....................       glcd_line(x1, y2, x2, y2, color); 
01E78:  MOVFF  7F5,801
01E7C:  MOVFF  7F8,802
01E80:  MOVFF  7F7,803
01E84:  MOVFF  7F8,804
01E88:  MOVFF  7FA,805
01E8C:  RCALL  1CC0
....................       glcd_line(x1, y1, x1, y2, color); 
01E8E:  MOVFF  7F5,801
01E92:  MOVFF  7F6,802
01E96:  MOVFF  7F5,803
01E9A:  MOVFF  7F8,804
01E9E:  MOVFF  7FA,805
01EA2:  RCALL  1CC0
....................       glcd_line(x2, y1, x2, y2, color); 
01EA4:  MOVFF  7F7,801
01EA8:  MOVFF  7F6,802
01EAC:  MOVFF  7F7,803
01EB0:  MOVFF  7F8,804
01EB4:  MOVFF  7FA,805
01EB8:  RCALL  1CC0
01EBA:  MOVLB  7
....................    } 
.................... } 
01EBC:  MOVLB  0
01EBE:  RETLW  00
....................  
.................... ///////////////////////////////////////////////////////////////////////// 
.................... // Purpose:       Draw a bar (wide line) on a graphic LCD 
.................... // Inputs:        (x1, y1) - the start coordinate 
.................... //                (x2, y2) - the end coordinate 
.................... //                width  - The number of pixels wide 
.................... //                color - ON or OFF 
.................... ///////////////////////////////////////////////////////////////////////// 
.................... #ifdef LARGE_LCD 
.................... void glcd_bar(int16 x1, int16 y1, int16 x2, int16 y2, int8 width, int1 color) 
.................... #else 
.................... void glcd_bar(int8 x1, int8 y1, int8 x2, int8 y2, int8 width, int1 color) 
.................... #endif 
.................... { 
....................    int8         half_width; 
....................    signed int16 dy, dx; 
....................    signed int8  addx=1, addy=1, j; 
....................    signed int16 P, diff, c1, c2; 
....................  
....................    #ifdef LARGE_LCD 
....................    int16 i=0; 
....................    dx = abs((signed int16)(x2 - x1)); 
....................    dy = abs((signed int16)(y2 - y1)); 
....................    #else 
....................    int8 i=0; 
....................    dx = abs((signed int8)(x2 - x1)); 
....................    dy = abs((signed int8)(y2 - y1)); 
....................    #endif 
....................  
....................    half_width = width/2; 
....................    c1 = -(dx*x1 + dy*y1); 
....................    c2 = -(dx*x2 + dy*y2); 
....................  
....................    if(x1 > x2) 
....................    { 
....................       signed int16 temp; 
....................       temp = c1; 
....................       c1 = c2; 
....................       c2 = temp; 
....................       addx = -1; 
....................    } 
....................    if(y1 > y2) 
....................    { 
....................       signed int16 temp; 
....................       temp = c1; 
....................       c1 = c2; 
....................       c2 = temp; 
....................       addy = -1; 
....................    } 
....................  
....................    if(dx >= dy) 
....................    { 
....................       P = 2*dy - dx; 
....................       diff = P - dx; 
....................  
....................       for(i=0; i<=dx; ++i) 
....................       { 
....................          for(j=-half_width; j<half_width+width%2; ++j) 
....................          { 
....................             #ifdef LARGE_LCD 
....................             int16 temp; 
....................             #else 
....................             int8 temp; 
....................             #endif 
....................  
....................             temp = dx*x1+dy*(y1+j);    // Use more RAM to increase speed 
....................             if(temp+c1 >= 0 && temp+c2 <=0) 
....................                glcd_pixel(x1, y1+j, color); 
....................          } 
....................          if(P < 0) 
....................          { 
....................             P  += 2*dy; 
....................             x1 += addx; 
....................          } 
....................          else 
....................          { 
....................             P  += diff; 
....................             x1 += addx; 
....................             y1 += addy; 
....................          } 
....................       } 
....................    } 
....................    else 
....................    { 
....................       P = 2*dx - dy; 
....................       diff = P - dy; 
....................  
....................       for(i=0; i<=dy; ++i) 
....................       { 
....................          if(P < 0) 
....................          { 
....................             P  += 2*dx; 
....................             y1 += addy; 
....................          } 
....................          else 
....................          { 
....................             P  += diff; 
....................             x1 += addx; 
....................             y1 += addy; 
....................          } 
....................          for(j=-half_width; j<half_width+width%2; ++j) 
....................          { 
....................             #ifdef LARGE_LCD 
....................             int16 temp; 
....................             #else 
....................             int8 temp; 
....................             #endif 
....................  
....................             temp = dx*x1+dy*(y1+j);    // Use more RAM to increase speed 
....................             if(temp+c1 >= 0 && temp+c2 <=0) 
....................                glcd_pixel(x1+j, y1, color); 
....................          } 
....................       } 
....................    } 
.................... } 
....................  
....................  
.................... ///////////////////////////////////////////////////////////////////////// 
.................... // Purpose:       Draw a circle on a graphic LCD 
.................... // Inputs:        (x,y) - the center of the circle 
.................... //                radius - the radius of the circle 
.................... //                fill - YES or NO 
.................... //                color - ON or OFF 
.................... ///////////////////////////////////////////////////////////////////////// 
.................... #ifdef LARGE_LCD 
.................... void glcd_circle(int16 x, int16 y, int16 radius, int1 fill, int1 color) 
.................... #else 
.................... void glcd_circle(int8 x, int8 y, int8 radius, int1 fill, int1 color) 
.................... #endif 
.................... { 
....................    #ifdef LARGE_LCD 
....................    signed int16 a, b, P; 
....................    #else 
....................    signed int8  a, b, P; 
....................    #endif 
....................  
....................    a = 0; 
*
04D22:  MOVLB  7
04D24:  CLRF   xFA
....................    b = radius; 
04D26:  MOVFF  7F7,7FB
....................    P = 1 - radius; 
04D2A:  MOVLW  01
04D2C:  BSF    FD8.0
04D2E:  SUBFWB xF7,W
04D30:  MOVWF  xFC
....................  
....................    do 
....................    { 
....................       if(fill) 
04D32:  MOVF   xF8,F
04D34:  BZ    4E08
....................       { 
....................          glcd_line(x-a, y+b, x+a, y+b, color); 
04D36:  MOVF   xFA,W
04D38:  SUBWF  xF5,W
04D3A:  MOVWF  xFD
04D3C:  MOVF   xFB,W
04D3E:  ADDWF  xF6,W
04D40:  MOVWF  xFE
04D42:  MOVF   xFA,W
04D44:  ADDWF  xF5,W
04D46:  MOVWF  xFF
04D48:  MOVF   xFB,W
04D4A:  ADDWF  xF6,W
04D4C:  MOVLB  8
04D4E:  MOVWF  x00
04D50:  MOVFF  7FD,801
04D54:  MOVFF  7FE,802
04D58:  MOVFF  7FF,803
04D5C:  MOVWF  x04
04D5E:  MOVFF  7F9,805
04D62:  MOVLB  0
04D64:  CALL   1CC0
....................          glcd_line(x-a, y-b, x+a, y-b, color); 
04D68:  MOVLB  7
04D6A:  MOVF   xFA,W
04D6C:  SUBWF  xF5,W
04D6E:  MOVWF  xFD
04D70:  MOVF   xFB,W
04D72:  SUBWF  xF6,W
04D74:  MOVWF  xFE
04D76:  MOVF   xFA,W
04D78:  ADDWF  xF5,W
04D7A:  MOVWF  xFF
04D7C:  MOVF   xFB,W
04D7E:  SUBWF  xF6,W
04D80:  MOVLB  8
04D82:  MOVWF  x00
04D84:  MOVFF  7FD,801
04D88:  MOVFF  7FE,802
04D8C:  MOVFF  7FF,803
04D90:  MOVWF  x04
04D92:  MOVFF  7F9,805
04D96:  MOVLB  0
04D98:  CALL   1CC0
....................          glcd_line(x-b, y+a, x+b, y+a, color); 
04D9C:  MOVLB  7
04D9E:  MOVF   xFB,W
04DA0:  SUBWF  xF5,W
04DA2:  MOVWF  xFD
04DA4:  MOVF   xFA,W
04DA6:  ADDWF  xF6,W
04DA8:  MOVWF  xFE
04DAA:  MOVF   xFB,W
04DAC:  ADDWF  xF5,W
04DAE:  MOVWF  xFF
04DB0:  MOVF   xFA,W
04DB2:  ADDWF  xF6,W
04DB4:  MOVLB  8
04DB6:  MOVWF  x00
04DB8:  MOVFF  7FD,801
04DBC:  MOVFF  7FE,802
04DC0:  MOVFF  7FF,803
04DC4:  MOVWF  x04
04DC6:  MOVFF  7F9,805
04DCA:  MOVLB  0
04DCC:  CALL   1CC0
....................          glcd_line(x-b, y-a, x+b, y-a, color); 
04DD0:  MOVLB  7
04DD2:  MOVF   xFB,W
04DD4:  SUBWF  xF5,W
04DD6:  MOVWF  xFD
04DD8:  MOVF   xFA,W
04DDA:  SUBWF  xF6,W
04DDC:  MOVWF  xFE
04DDE:  MOVF   xFB,W
04DE0:  ADDWF  xF5,W
04DE2:  MOVWF  xFF
04DE4:  MOVF   xFA,W
04DE6:  SUBWF  xF6,W
04DE8:  MOVLB  8
04DEA:  MOVWF  x00
04DEC:  MOVFF  7FD,801
04DF0:  MOVFF  7FE,802
04DF4:  MOVFF  7FF,803
04DF8:  MOVWF  x04
04DFA:  MOVFF  7F9,805
04DFE:  MOVLB  0
04E00:  CALL   1CC0
....................       } 
....................       else 
04E04:  BRA    4F06
04E06:  MOVLB  7
....................       { 
....................          glcd_pixel(a+x, b+y, color); 
04E08:  MOVF   xF5,W
04E0A:  ADDWF  xFA,W
04E0C:  MOVWF  xFD
04E0E:  MOVF   xF6,W
04E10:  ADDWF  xFB,W
04E12:  MOVWF  xFE
04E14:  MOVFF  7FD,811
04E18:  MOVFF  FE8,812
04E1C:  MOVFF  7F9,813
04E20:  MOVLB  0
04E22:  CALL   1A3A
....................          glcd_pixel(b+x, a+y, color); 
04E26:  MOVLB  7
04E28:  MOVF   xF5,W
04E2A:  ADDWF  xFB,W
04E2C:  MOVWF  xFD
04E2E:  MOVF   xF6,W
04E30:  ADDWF  xFA,W
04E32:  MOVWF  xFE
04E34:  MOVFF  7FD,811
04E38:  MOVFF  FE8,812
04E3C:  MOVFF  7F9,813
04E40:  MOVLB  0
04E42:  CALL   1A3A
....................          glcd_pixel(x-a, b+y, color); 
04E46:  MOVLB  7
04E48:  MOVF   xFA,W
04E4A:  SUBWF  xF5,W
04E4C:  MOVWF  xFD
04E4E:  MOVF   xF6,W
04E50:  ADDWF  xFB,W
04E52:  MOVWF  xFE
04E54:  MOVFF  7FD,811
04E58:  MOVFF  FE8,812
04E5C:  MOVFF  7F9,813
04E60:  MOVLB  0
04E62:  CALL   1A3A
....................          glcd_pixel(x-b, a+y, color); 
04E66:  MOVLB  7
04E68:  MOVF   xFB,W
04E6A:  SUBWF  xF5,W
04E6C:  MOVWF  xFD
04E6E:  MOVF   xF6,W
04E70:  ADDWF  xFA,W
04E72:  MOVWF  xFE
04E74:  MOVFF  7FD,811
04E78:  MOVFF  FE8,812
04E7C:  MOVFF  7F9,813
04E80:  MOVLB  0
04E82:  CALL   1A3A
....................          glcd_pixel(b+x, y-a, color); 
04E86:  MOVLB  7
04E88:  MOVF   xF5,W
04E8A:  ADDWF  xFB,W
04E8C:  MOVWF  xFD
04E8E:  MOVF   xFA,W
04E90:  SUBWF  xF6,W
04E92:  MOVWF  xFE
04E94:  MOVFF  7FD,811
04E98:  MOVFF  FE8,812
04E9C:  MOVFF  7F9,813
04EA0:  MOVLB  0
04EA2:  CALL   1A3A
....................          glcd_pixel(a+x, y-b, color); 
04EA6:  MOVLB  7
04EA8:  MOVF   xF5,W
04EAA:  ADDWF  xFA,W
04EAC:  MOVWF  xFD
04EAE:  MOVF   xFB,W
04EB0:  SUBWF  xF6,W
04EB2:  MOVWF  xFE
04EB4:  MOVFF  7FD,811
04EB8:  MOVFF  FE8,812
04EBC:  MOVFF  7F9,813
04EC0:  MOVLB  0
04EC2:  CALL   1A3A
....................          glcd_pixel(x-a, y-b, color); 
04EC6:  MOVLB  7
04EC8:  MOVF   xFA,W
04ECA:  SUBWF  xF5,W
04ECC:  MOVWF  xFD
04ECE:  MOVF   xFB,W
04ED0:  SUBWF  xF6,W
04ED2:  MOVWF  xFE
04ED4:  MOVFF  7FD,811
04ED8:  MOVFF  FE8,812
04EDC:  MOVFF  7F9,813
04EE0:  MOVLB  0
04EE2:  CALL   1A3A
....................          glcd_pixel(x-b, y-a, color); 
04EE6:  MOVLB  7
04EE8:  MOVF   xFB,W
04EEA:  SUBWF  xF5,W
04EEC:  MOVWF  xFD
04EEE:  MOVF   xFA,W
04EF0:  SUBWF  xF6,W
04EF2:  MOVWF  xFE
04EF4:  MOVFF  7FD,811
04EF8:  MOVFF  FE8,812
04EFC:  MOVFF  7F9,813
04F00:  MOVLB  0
04F02:  CALL   1A3A
....................       } 
....................  
....................       if(P < 0) 
04F06:  MOVLB  7
04F08:  BTFSC  xFC.7
04F0A:  BRA    4F0E
04F0C:  BRA    4F2C
....................          P += 3 + 2 * a++; 
04F0E:  MOVF   xFA,W
04F10:  INCF   xFA,F
04F12:  MOVWF  xFD
04F14:  MOVLW  02
04F16:  MOVWF  xFE
04F18:  MOVFF  7FD,7FF
04F1C:  MOVLB  0
04F1E:  CALL   3BBA
04F22:  MOVF   01,W
04F24:  ADDLW  03
04F26:  MOVLB  7
04F28:  ADDWF  xFC,F
....................       else 
04F2A:  BRA    4F50
....................          P += 5 + 2 * (a++ - b--); 
04F2C:  MOVF   xFA,W
04F2E:  INCF   xFA,F
04F30:  MOVWF  xFD
04F32:  MOVF   xFB,W
04F34:  DECF   xFB,F
04F36:  SUBWF  xFD,W
04F38:  MOVWF  xFD
04F3A:  MOVLW  02
04F3C:  MOVWF  xFE
04F3E:  MOVFF  7FD,7FF
04F42:  MOVLB  0
04F44:  CALL   3BBA
04F48:  MOVF   01,W
04F4A:  ADDLW  05
04F4C:  MOVLB  7
04F4E:  ADDWF  xFC,F
....................     } while(a <= b); 
04F50:  MOVF   xFA,W
04F52:  XORLW  80
04F54:  MOVWF  00
04F56:  MOVF   xFB,W
04F58:  XORLW  80
04F5A:  SUBWF  00,W
04F5C:  BTFSC  FD8.2
04F5E:  BRA    4D32
04F60:  BTFSS  FD8.0
04F62:  BRA    4D32
.................... } 
04F64:  MOVLB  0
04F66:  RETLW  00
....................  
....................  
.................... ///////////////////////////////////////////////////////////////////////// 
.................... // Purpose:       Write text on a graphic LCD 
.................... // Inputs:        (x,y) - The upper left coordinate of the first letter 
.................... //                textptr - A pointer to an array of text to display 
.................... //                size - The size of the text: 1 = 5x7, 2 = 10x14, ... 
.................... //                color - ON or OFF 
.................... ///////////////////////////////////////////////////////////////////////// 
.................... #ifdef LARGE_LCD 
.................... void glcd_text57(int16 x, int16 y, char* textptr, int8 size, int1 color) 
.................... #else 
.................... void glcd_text57(int8 x, int8 y, char* textptr, int8 size, int1 color) 
.................... #endif 
.................... { 
....................    int8 j, k, l, m;                       // Loop counters 
....................    int8 pixelData[5];                     // Stores character data 
....................  
....................    for(; *textptr != '\0'; ++textptr, ++x)// Loop through the passed string 
*
01AF6:  MOVFF  7F8,03
01AFA:  MOVLB  7
01AFC:  MOVFF  7F7,FE9
01B00:  MOVFF  7F8,FEA
01B04:  MOVF   FEF,F
01B06:  BTFSC  FD8.2
01B08:  BRA    1CBC
....................    { 
....................       if(*textptr < 'S') // Checks if the letter is in the first font array 
01B0A:  MOVFF  7F8,03
01B0E:  MOVFF  7F7,FE9
01B12:  MOVFF  7F8,FEA
01B16:  MOVF   FEF,W
01B18:  SUBLW  52
01B1A:  BNC   1B6E
....................          memcpy(pixelData, FONT[*textptr - ' '], 5); 
01B1C:  MOVFF  7F8,03
01B20:  MOVFF  7F7,FE9
01B24:  MOVFF  7F8,FEA
01B28:  MOVLW  20
01B2A:  SUBWF  FEF,W
01B2C:  MULLW  05
01B2E:  MOVF   FF3,W
01B30:  CLRF   03
01B32:  MOVLB  8
01B34:  MOVWF  x04
01B36:  MOVLW  07
01B38:  MOVWF  FEA
01B3A:  MOVLW  FF
01B3C:  MOVWF  FE9
01B3E:  CLRF   x08
01B40:  MOVFF  804,807
01B44:  MOVFF  FF2,805
01B48:  BCF    FF2.7
01B4A:  MOVLW  05
01B4C:  MOVWF  01
01B4E:  CLRF   FF7
01B50:  MOVF   x04,W
01B52:  MOVLB  0
01B54:  CALL   009E
01B58:  TBLRD*-
01B5A:  TBLRD*+
01B5C:  MOVFF  FF5,FEE
01B60:  DECFSZ 01,F
01B62:  BRA    1B5A
01B64:  MOVLB  8
01B66:  BTFSC  x05.7
01B68:  BSF    FF2.7
....................       else if(*textptr <= '~') // Check if the letter is in the second font array 
01B6A:  BRA    1BDE
01B6C:  MOVLB  7
01B6E:  MOVFF  7F8,03
01B72:  MOVFF  7F7,FE9
01B76:  MOVFF  7F8,FEA
01B7A:  MOVF   FEF,W
01B7C:  SUBLW  7E
01B7E:  BNC   1BD2
....................          memcpy(pixelData, FONT2[*textptr - 'S'], 5); 
01B80:  MOVFF  7F8,03
01B84:  MOVFF  7F7,FE9
01B88:  MOVFF  7F8,FEA
01B8C:  MOVLW  53
01B8E:  SUBWF  FEF,W
01B90:  MULLW  05
01B92:  MOVF   FF3,W
01B94:  CLRF   03
01B96:  MOVLB  8
01B98:  MOVWF  x04
01B9A:  MOVLW  07
01B9C:  MOVWF  FEA
01B9E:  MOVLW  FF
01BA0:  MOVWF  FE9
01BA2:  CLRF   x08
01BA4:  MOVFF  804,807
01BA8:  MOVFF  FF2,805
01BAC:  BCF    FF2.7
01BAE:  MOVLW  05
01BB0:  MOVWF  01
01BB2:  CLRF   FF7
01BB4:  MOVF   x04,W
01BB6:  MOVLB  0
01BB8:  CALL   01BC
01BBC:  TBLRD*-
01BBE:  TBLRD*+
01BC0:  MOVFF  FF5,FEE
01BC4:  DECFSZ 01,F
01BC6:  BRA    1BBE
01BC8:  MOVLB  8
01BCA:  BTFSC  x05.7
01BCC:  BSF    FF2.7
....................       else 
01BCE:  BRA    1BDE
01BD0:  MOVLB  7
....................          memcpy(pixelData, FONT[0], 5);   // Default to space 
01BD2:  CLRF   xFF
01BD4:  MOVLB  8
01BD6:  CLRF   x00
01BD8:  CLRF   x01
01BDA:  CLRF   x02
01BDC:  CLRF   x03
....................  
....................       // Handles newline and carriage returns 
....................       switch(*textptr) 
....................       { 
01BDE:  MOVFF  7F8,03
01BE2:  MOVLB  7
01BE4:  MOVF   xF7,W
01BE6:  MOVWF  FE9
01BE8:  MOVFF  03,FEA
01BEC:  MOVF   FEF,W
01BEE:  XORLW  0A
01BF0:  MOVLB  0
01BF2:  BZ    1BFA
01BF4:  XORLW  07
01BF6:  BZ    1C0A
01BF8:  BRA    1C10
....................          case '\n': 
....................             y += 7*size + 1; 
01BFA:  MOVLB  7
01BFC:  MOVF   xF9,W
01BFE:  MULLW  07
01C00:  MOVF   FF3,W
01C02:  ADDLW  01
01C04:  ADDWF  xF6,F
....................             continue; 
01C06:  BRA    1CAE
01C08:  MOVLB  0
....................          case '\r': 
....................             x = 0; 
01C0A:  MOVLB  7
01C0C:  CLRF   xF5
....................             continue; 
01C0E:  BRA    1CAE
....................       } 
....................  
....................       if(x+5*size >= GLCD_WIDTH)          // Performs character wrapping 
01C10:  MOVLB  7
01C12:  MOVF   xF9,W
01C14:  MULLW  05
01C16:  MOVF   FF3,W
01C18:  ADDWF  xF5,W
01C1A:  SUBLW  7F
01C1C:  BC    1C2A
....................       { 
....................          x = 0;                           // Set x at far left position 
01C1E:  CLRF   xF5
....................          y += 7*size + 1;                 // Set y at next position down 
01C20:  MOVF   xF9,W
01C22:  MULLW  07
01C24:  MOVF   FF3,W
01C26:  ADDLW  01
01C28:  ADDWF  xF6,F
....................       } 
....................       for(j=0; j<5; ++j, x+=size)         // Loop through character byte data 
01C2A:  CLRF   xFB
01C2C:  MOVF   xFB,W
01C2E:  SUBLW  04
01C30:  BNC   1CAE
....................       { 
....................          for(k=0; k < 7; ++k)             // Loop through the vertical pixels 
01C32:  CLRF   xFC
01C34:  MOVF   xFC,W
01C36:  SUBLW  06
01C38:  BNC   1CA6
....................          { 
....................             if(bit_test(pixelData[j], k)) // Check if the pixel should be set 
01C3A:  CLRF   03
01C3C:  MOVF   xFB,W
01C3E:  ADDLW  FF
01C40:  MOVWF  FE9
01C42:  MOVLW  07
01C44:  ADDWFC 03,W
01C46:  MOVWF  FEA
01C48:  MOVFF  FEF,804
01C4C:  MOVFF  804,00
01C50:  MOVF   xFC,W
01C52:  MOVWF  01
01C54:  BZ    1C5E
01C56:  BCF    FD8.0
01C58:  RRCF   00,F
01C5A:  DECFSZ 01,F
01C5C:  BRA    1C56
01C5E:  BTFSS  00.0
01C60:  BRA    1CA2
....................             { 
....................                for(l=0; l < size; ++l)    // These two loops change the 
01C62:  CLRF   xFD
01C64:  MOVF   xF9,W
01C66:  SUBWF  xFD,W
01C68:  BC    1CA2
....................                {                          // character's size 
....................                   for(m=0; m < size; ++m) 
01C6A:  CLRF   xFE
01C6C:  MOVF   xF9,W
01C6E:  SUBWF  xFE,W
01C70:  BC    1C9E
....................                   { 
....................                      glcd_pixel(x+m, y+k*size+l, color); // Draws the pixel 
01C72:  MOVF   xFE,W
01C74:  ADDWF  xF5,W
01C76:  MOVLB  8
01C78:  MOVWF  x04
01C7A:  MOVLB  7
01C7C:  MOVF   xFC,W
01C7E:  MULWF  xF9
01C80:  MOVF   FF3,W
01C82:  ADDWF  xF6,W
01C84:  ADDWF  xFD,W
01C86:  MOVLB  8
01C88:  MOVWF  x05
01C8A:  MOVFF  804,811
01C8E:  MOVWF  x12
01C90:  MOVFF  7FA,813
01C94:  MOVLB  0
01C96:  RCALL  1A3A
....................                   } 
01C98:  MOVLB  7
01C9A:  INCF   xFE,F
01C9C:  BRA    1C6C
....................                } 
01C9E:  INCF   xFD,F
01CA0:  BRA    1C64
....................             } 
....................          } 
01CA2:  INCF   xFC,F
01CA4:  BRA    1C34
....................       } 
01CA6:  INCF   xFB,F
01CA8:  MOVF   xF9,W
01CAA:  ADDWF  xF5,F
01CAC:  BRA    1C2C
....................    } 
01CAE:  INCF   xF7,F
01CB0:  BTFSC  FD8.2
01CB2:  INCF   xF8,F
01CB4:  INCF   xF5,F
01CB6:  MOVLB  0
01CB8:  BRA    1AF6
01CBA:  MOVLB  7
.................... } 
01CBC:  MOVLB  0
01CBE:  RETLW  00
....................  
.................... #endif 
....................  
.................... #include "imagen.h" 
.................... const int8 Horno [64][16] = { 
.................... 0x00, 0x00, 0x00, 0x00, 0x00, 0x00, 0x00, 0x00, 0x00, 0x00, 0x00, 0x00, 0x00, 0x00, 0x00, 0x00, 
.................... 0x01, 0xC0, 0x00, 0x00, 0x00, 0x00, 0x00, 0x00, 0x00, 0x00, 0x00, 0x00, 0x00, 0x00, 0x00, 0x00, 
.................... 0x07, 0xF0, 0x00, 0x00, 0x00, 0x00, 0x00, 0x00, 0x00, 0x00, 0x00, 0x00, 0x00, 0x00, 0x00, 0x00, 
.................... 0x1C, 0x9C, 0x00, 0x00, 0x00, 0x00, 0x00, 0x00, 0x00, 0x00, 0x00, 0x00, 0x00, 0x00, 0x00, 0x00, 
.................... 0x18, 0x0C, 0x00, 0x00, 0x00, 0x00, 0x00, 0x00, 0x00, 0x00, 0x00, 0x00, 0x00, 0x00, 0x00, 0x00, 
.................... 0x30, 0x86, 0x00, 0x00, 0x00, 0x00, 0x00, 0x00, 0x00, 0x00, 0x00, 0x00, 0x00, 0x00, 0x00, 0x00, 
.................... 0x20, 0x82, 0x00, 0x00, 0x00, 0x00, 0x00, 0x00, 0x00, 0x00, 0x00, 0x00, 0x00, 0x00, 0x00, 0x00, 
.................... 0x60, 0x83, 0x00, 0x00, 0x00, 0x00, 0x00, 0x00, 0x00, 0x00, 0x00, 0x00, 0x00, 0x00, 0x00, 0x00, 
.................... 0x70, 0x87, 0x00, 0x00, 0x00, 0x00, 0x00, 0x00, 0x00, 0x00, 0x00, 0x00, 0x00, 0x00, 0x00, 0x00, 
.................... 0x60, 0xC3, 0x00, 0x00, 0x00, 0x00, 0x00, 0x00, 0x00, 0x00, 0x00, 0x00, 0x00, 0x00, 0x00, 0x00, 
.................... 0x20, 0x62, 0x00, 0x00, 0x00, 0x00, 0x00, 0x00, 0x00, 0x00, 0x00, 0x00, 0x00, 0x00, 0x00, 0x00, 
.................... 0x30, 0x26, 0x00, 0x00, 0x00, 0x00, 0x00, 0x00, 0x00, 0x00, 0x00, 0x00, 0x00, 0x00, 0x00, 0x00, 
.................... 0x18, 0x0C, 0x00, 0x00, 0x00, 0x00, 0x00, 0x00, 0x00, 0x00, 0x00, 0x00, 0x00, 0x00, 0x00, 0x00, 
.................... 0x1C, 0x9C, 0x00, 0x00, 0x00, 0x00, 0x00, 0x00, 0x00, 0x00, 0x00, 0x00, 0x00, 0x00, 0x00, 0x00, 
.................... 0x07, 0xF0, 0x00, 0x00, 0x00, 0x00, 0x00, 0x00, 0x00, 0x00, 0x00, 0x00, 0x00, 0x00, 0x00, 0x00, 
.................... 0x01, 0xC0, 0x00, 0x00, 0x00, 0x00, 0x00, 0x00, 0x00, 0x00, 0x00, 0x00, 0x00, 0x00, 0x00, 0x00, 
.................... 0x00, 0x00, 0x00, 0x00, 0x00, 0x00, 0x00, 0x00, 0x00, 0x00, 0x00, 0x00, 0x00, 0x00, 0x00, 0x00, 
.................... 0x00, 0x00, 0x00, 0x00, 0x00, 0x00, 0x00, 0x00, 0x00, 0x00, 0x00, 0x00, 0x00, 0x00, 0x00, 0x00, 
.................... 0x00, 0x00, 0x00, 0x00, 0x00, 0x00, 0x00, 0x00, 0x00, 0x00, 0x00, 0x00, 0x00, 0x00, 0x00, 0x00, 
.................... 0x00, 0x00, 0x00, 0x00, 0x00, 0x00, 0x00, 0x00, 0x00, 0x00, 0x00, 0x00, 0x00, 0x00, 0x00, 0x00, 
.................... 0x00, 0x00, 0x00, 0x00, 0x00, 0x00, 0x00, 0x00, 0x00, 0x00, 0x00, 0x00, 0x00, 0x00, 0x00, 0x00, 
.................... 0x00, 0x00, 0x00, 0x00, 0x00, 0x00, 0x00, 0x00, 0x00, 0x00, 0x00, 0x00, 0x00, 0x00, 0x00, 0x00, 
.................... 0x00, 0x00, 0x00, 0x00, 0x00, 0x00, 0x00, 0x00, 0x00, 0x00, 0x00, 0x00, 0x00, 0x00, 0x00, 0x00, 
.................... 0x00, 0x00, 0x00, 0x00, 0x00, 0x00, 0x00, 0x00, 0x00, 0x00, 0x00, 0x00, 0x00, 0x00, 0x00, 0x00, 
.................... 0x00, 0x00, 0x00, 0x00, 0x00, 0x00, 0x00, 0x00, 0x00, 0x00, 0x00, 0x00, 0x00, 0x00, 0x00, 0x00, 
.................... 0x00, 0x00, 0x00, 0x00, 0x00, 0x00, 0x00, 0x00, 0x00, 0x00, 0x00, 0x00, 0x00, 0x00, 0x00, 0x00, 
.................... 0x00, 0x00, 0x00, 0x00, 0x00, 0x00, 0x00, 0x00, 0x00, 0x00, 0x00, 0x00, 0x00, 0x00, 0x00, 0x00, 
.................... 0x00, 0x00, 0x00, 0x00, 0x00, 0x00, 0x00, 0x00, 0x00, 0x00, 0x00, 0x00, 0x00, 0x00, 0x00, 0x00, 
.................... 0x01, 0x80, 0x00, 0x00, 0x00, 0x00, 0x00, 0x00, 0x00, 0x00, 0x00, 0x00, 0x00, 0x00, 0x00, 0x00, 
.................... 0x02, 0x40, 0x00, 0x00, 0x00, 0x00, 0x00, 0x00, 0x00, 0x00, 0x00, 0x00, 0x00, 0x00, 0x00, 0x00, 
.................... 0x02, 0x70, 0x00, 0x00, 0x00, 0x00, 0x00, 0x00, 0x00, 0x00, 0x00, 0x00, 0x00, 0x00, 0x00, 0x00, 
.................... 0x02, 0x40, 0x00, 0x00, 0x00, 0x00, 0x00, 0x00, 0x00, 0x00, 0x00, 0x00, 0x00, 0x00, 0x00, 0x00, 
.................... 0x03, 0xC0, 0x00, 0x00, 0x00, 0x00, 0x00, 0x00, 0x00, 0x00, 0x00, 0x00, 0x00, 0x00, 0x00, 0x00, 
.................... 0x03, 0xF0, 0x00, 0x00, 0x00, 0x00, 0x00, 0x00, 0x00, 0x00, 0x00, 0x00, 0x00, 0x00, 0x00, 0x00, 
.................... 0x03, 0xC0, 0x00, 0x00, 0x00, 0x00, 0x00, 0x00, 0x00, 0x00, 0x00, 0x00, 0x00, 0x00, 0x00, 0x00, 
.................... 0x03, 0xC0, 0x00, 0x00, 0x00, 0x00, 0x00, 0x00, 0x00, 0x00, 0x00, 0x00, 0x00, 0x00, 0x00, 0x00, 
.................... 0x07, 0xE0, 0x00, 0x00, 0x00, 0x00, 0x00, 0x00, 0x00, 0x00, 0x00, 0x00, 0x00, 0x00, 0x00, 0x00, 
.................... 0x0F, 0xF0, 0x00, 0x00, 0x00, 0x00, 0x00, 0x00, 0x00, 0x00, 0x00, 0x00, 0x00, 0x00, 0x00, 0x00, 
.................... 0x0B, 0xF0, 0x00, 0x00, 0x00, 0x00, 0x00, 0x00, 0x00, 0x00, 0x00, 0x00, 0x00, 0x00, 0x00, 0x00, 
.................... 0x0B, 0xF0, 0x00, 0x00, 0x00, 0x00, 0x00, 0x00, 0x00, 0x00, 0x00, 0x00, 0x00, 0x00, 0x00, 0x00, 
.................... 0x0F, 0xF0, 0x00, 0x00, 0x00, 0x00, 0x00, 0x00, 0x00, 0x00, 0x00, 0x00, 0x00, 0x00, 0x00, 0x00, 
.................... 0x0F, 0xF0, 0x00, 0x00, 0x00, 0x00, 0x00, 0x00, 0x00, 0x00, 0x00, 0x00, 0x00, 0x00, 0x00, 0x00, 
.................... 0x07, 0xE0, 0x00, 0x00, 0x00, 0x00, 0x00, 0x00, 0x00, 0x00, 0x00, 0x00, 0x00, 0x00, 0x00, 0x00, 
.................... 0x03, 0xC0, 0x00, 0x00, 0x00, 0x00, 0x00, 0x00, 0x00, 0x00, 0x00, 0x00, 0x00, 0x00, 0x00, 0x00, 
.................... 0x00, 0x00, 0x00, 0x00, 0x00, 0x00, 0x00, 0x00, 0x00, 0x00, 0x00, 0x00, 0x00, 0x00, 0x00, 0x00, 
.................... 0x00, 0x00, 0x00, 0x00, 0x00, 0x00, 0x00, 0x00, 0x00, 0x00, 0x00, 0x00, 0x00, 0x00, 0x00, 0x00, 
.................... 0x00, 0x00, 0x00, 0x00, 0x00, 0x00, 0x00, 0x00, 0x00, 0x00, 0x00, 0x00, 0x00, 0x00, 0x00, 0x00, 
.................... 0x00, 0x00, 0x00, 0x00, 0x00, 0x00, 0x00, 0x00, 0x00, 0x00, 0x00, 0x00, 0x00, 0x00, 0x00, 0x00, 
.................... 0x00, 0x00, 0x00, 0x00, 0x00, 0x00, 0x00, 0x00, 0x00, 0x00, 0x00, 0x00, 0x00, 0x00, 0x00, 0x00, 
.................... 0x00, 0x00, 0x00, 0x00, 0x00, 0x00, 0x00, 0x00, 0x00, 0x00, 0x00, 0x00, 0x00, 0x00, 0x00, 0x00, 
.................... 0x00, 0x00, 0x00, 0x00, 0x00, 0x00, 0x00, 0x00, 0x00, 0x00, 0x00, 0x00, 0x00, 0x00, 0x00, 0x00, 
.................... 0x00, 0x00, 0x00, 0x00, 0x00, 0x00, 0x00, 0x00, 0x00, 0x00, 0x00, 0x00, 0x00, 0x00, 0x00, 0x00, 
.................... 0x00, 0x00, 0x00, 0x00, 0x00, 0x00, 0x00, 0x00, 0x00, 0x00, 0x00, 0x00, 0x00, 0x00, 0x00, 0x00, 
.................... 0x00, 0x00, 0x00, 0x00, 0x00, 0x00, 0x00, 0x00, 0x00, 0x00, 0x00, 0x00, 0x00, 0x00, 0x00, 0x00, 
.................... 0x00, 0x00, 0x00, 0x00, 0x00, 0x00, 0x00, 0x00, 0x00, 0x00, 0x00, 0x00, 0x00, 0x00, 0x00, 0x00, 
.................... 0x00, 0x00, 0x00, 0x00, 0x00, 0x00, 0x00, 0x00, 0x00, 0x00, 0x00, 0x00, 0x00, 0x00, 0x00, 0x00, 
.................... 0x00, 0x00, 0x00, 0x00, 0x00, 0x00, 0x00, 0x00, 0x00, 0x00, 0x00, 0x00, 0x00, 0x00, 0x00, 0x00, 
.................... 0x00, 0x00, 0x00, 0x00, 0x00, 0x00, 0x00, 0x00, 0x00, 0x00, 0x00, 0x00, 0x00, 0x00, 0x00, 0x00, 
.................... 0x00, 0x00, 0x00, 0x00, 0x00, 0x00, 0x00, 0x00, 0x00, 0x00, 0x00, 0x00, 0x00, 0x00, 0x00, 0x00, 
.................... 0x00, 0x00, 0x00, 0x00, 0x00, 0x00, 0x00, 0x00, 0x00, 0x00, 0x00, 0x00, 0x00, 0x00, 0x00, 0x00, 
.................... 0x00, 0x00, 0x00, 0x00, 0x00, 0x00, 0x00, 0x00, 0x00, 0x00, 0x00, 0x00, 0x00, 0x00, 0x00, 0x00, 
.................... 0x00, 0x00, 0x00, 0x00, 0x00, 0x00, 0x00, 0x00, 0x00, 0x00, 0x00, 0x00, 0x00, 0x00, 0x00, 0x00, 
.................... 0x00, 0x00, 0x00, 0x00, 0x00, 0x00, 0x00, 0x00, 0x00, 0x00, 0x00, 0x00, 0x00, 0x00, 0x00, 0x00, 
.................... 0x00, 0x00, 0x00, 0x00, 0x00, 0x00, 0x00, 0x00, 0x00, 0x00, 0x00, 0x00, 0x00, 0x00, 0x00, 0x00 
.................... }; 
....................  
....................  
.................... #include <MATH.h> 
.................... //////////////////////////////////////////////////////////////////////////// 
.................... ////        (C) Copyright 1996,2008 Custom Computer Services            //// 
.................... //// This source code may only be used by licensed users of the CCS C   //// 
.................... //// compiler.  This source code may only be distributed to other       //// 
.................... //// licensed users of the CCS C compiler.  No other use, reproduction  //// 
.................... //// or distribution is permitted without written permission.           //// 
.................... //// Derivative programs created using this software in object code     //// 
.................... //// form are not restricted in any way.                                //// 
.................... //////////////////////////////////////////////////////////////////////////// 
.................... ////                                                                    //// 
.................... //// History:                                                           //// 
.................... ////  * 9/20/2001 :  Improvments are made to sin/cos code.              //// 
.................... ////                 The code now is small, much faster,                //// 
.................... ////                 and more accurate.                                 //// 
.................... ////  * 2/21/2007 :  Compiler handles & operator differently and does 
.................... ////                 not return generic (int8 *) so type cast is done   //// 
.................... ////                                                                    //// 
.................... //////////////////////////////////////////////////////////////////////////// 
....................  
.................... #ifndef MATH_H 
.................... #define MATH_H 
....................  
.................... #ifdef PI 
.................... #undef  PI 
.................... #endif 
.................... #define PI     3.1415926535897932 
....................  
....................  
.................... #define SQRT2  1.4142135623730950 
....................  
.................... //float const ps[4] = {5.9304945, 21.125224, 8.9403076, 0.29730279}; 
.................... //float const qs[4] = {1.0000000, 15.035723, 17.764134, 2.4934718}; 
....................  
.................... ///////////////////////////// Round Functions ////////////////////////////// 
....................  
.................... float32 CEIL_FLOOR(float32 x, unsigned int8 n) 
.................... { 
....................    float32 y, res; 
....................    unsigned int16 l; 
....................    int1 s; 
....................  
....................    s = 0; 
....................    y = x; 
....................  
....................    if (x < 0) 
....................    { 
....................       s = 1; 
....................       y = -y; 
....................    } 
....................  
....................    if (y <= 32768.0) 
....................   res = (float32)(unsigned int16)y; 
....................  
....................  else if (y < 10000000.0) 
....................    { 
....................   l = (unsigned int16)(y/32768.0); 
....................       y = 32768.0*(y/32768.0 - (float32)l); 
....................   res = 32768.0*(float32)l; 
....................   res += (float32)(unsigned int16)y; 
....................  } 
....................  
....................  else 
....................   res = y; 
....................  
....................  y = y - (float32)(unsigned int16)y; 
....................  
....................  if (s) 
....................   res = -res; 
....................  
....................  if (y != 0) 
....................  { 
....................   if (s == 1 && n == 0) 
....................    res -= 1.0; 
....................  
....................   if (s == 0 && n == 1) 
....................    res += 1.0; 
....................  } 
....................  if (x == 0) 
....................     res = 0; 
....................  
....................  return (res); 
.................... } 
....................  
.................... // Overloaded Functions to take care for new Data types in PCD 
.................... // Overloaded function CEIL_FLOOR() for data type - Float48 
.................... #if defined(__PCD__) 
.................... float48 CEIL_FLOOR(float48 x, unsigned int8 n) 
.................... { 
....................    float48 y, res; 
....................    unsigned int16 l; 
....................    int1 s; 
....................  
....................    s = 0; 
....................    y = x; 
....................  
....................    if (x < 0) 
....................    { 
....................       s = 1; 
....................       y = -y; 
....................    } 
....................  
....................    if (y <= 32768.0) 
....................   res = (float48)(unsigned int16)y; 
....................  
....................  else if (y < 10000000.0) 
....................    { 
....................   l = (unsigned int16)(y/32768.0); 
....................       y = 32768.0*(y/32768.0 - (float48)l); 
....................   res = 32768.0*(float32)l; 
....................   res += (float48)(unsigned int16)y; 
....................  } 
....................  
....................  else 
....................   res = y; 
....................  
....................  y = y - (float48)(unsigned int16)y; 
....................  
....................  if (s) 
....................   res = -res; 
....................  
....................  if (y != 0) 
....................  { 
....................   if (s == 1 && n == 0) 
....................    res -= 1.0; 
....................  
....................   if (s == 0 && n == 1) 
....................    res += 1.0; 
....................  } 
....................  if (x == 0) 
....................     res = 0; 
....................  
....................  return (res); 
.................... } 
....................  
....................  
.................... // Overloaded function CEIL_FLOOR() for data type - Float64 
.................... float64 CEIL_FLOOR(float64 x, unsigned int8 n) 
.................... { 
....................    float64 y, res; 
....................    unsigned int16 l; 
....................    int1 s; 
....................  
....................    s = 0; 
....................    y = x; 
....................  
....................    if (x < 0) 
....................    { 
....................       s = 1; 
....................       y = -y; 
....................    } 
....................  
....................    if (y <= 32768.0) 
....................   res = (float64)(unsigned int16)y; 
....................  
....................  else if (y < 10000000.0) 
....................    { 
....................   l = (unsigned int16)(y/32768.0); 
....................       y = 32768.0*(y/32768.0 - (float64)l); 
....................   res = 32768.0*(float64)l; 
....................   res += (float64)(unsigned int16)y; 
....................  } 
....................  
....................  else 
....................   res = y; 
....................  
....................  y = y - (float64)(unsigned int16)y; 
....................  
....................  if (s) 
....................   res = -res; 
....................  
....................  if (y != 0) 
....................  { 
....................   if (s == 1 && n == 0) 
....................    res -= 1.0; 
....................  
....................   if (s == 0 && n == 1) 
....................    res += 1.0; 
....................  } 
....................  if (x == 0) 
....................     res = 0; 
....................  
....................  return (res); 
.................... } 
.................... #endif 
....................  
.................... //////////////////////////////////////////////////////////////////////////// 
.................... //   float floor(float x) 
.................... //////////////////////////////////////////////////////////////////////////// 
.................... // Description : rounds down the number x. 
.................... // Date : N/A 
.................... // 
.................... float32 floor(float32 x) 
.................... { 
....................    return CEIL_FLOOR(x, 0); 
.................... } 
.................... // Following 2 functions are overloaded functions of floor() for PCD 
.................... // Overloaded function floor() for data type - Float48 
.................... #if defined(__PCD__) 
.................... float48 floor(float48 x) 
.................... { 
....................    return CEIL_FLOOR(x, 0); 
.................... } 
....................  
.................... // Overloaded function floor() for data type - Float64 
.................... float64 floor(float64 x) 
.................... { 
....................    return CEIL_FLOOR(x, 0); 
.................... } 
.................... #endif 
....................  
....................  
.................... //////////////////////////////////////////////////////////////////////////// 
.................... //   float ceil(float x) 
.................... //////////////////////////////////////////////////////////////////////////// 
.................... // Description : rounds up the number x. 
.................... // Date : N/A 
.................... // 
.................... float32 ceil(float32 x) 
.................... { 
....................    return CEIL_FLOOR(x, 1); 
.................... } 
.................... // Following 2 functions are overloaded functions of ceil() for PCD 
.................... // Overloaded function ceil() for data type - Float48 
.................... #if defined(__PCD__) 
.................... float48 ceil(float48 x) 
.................... { 
....................    return CEIL_FLOOR(x, 1); 
.................... } 
....................  
.................... // Overloaded function ceil() for data type - Float64 
.................... float64 ceil(float64 x) 
.................... { 
....................    return CEIL_FLOOR(x, 1); 
.................... } 
.................... #endif 
....................  
....................  //////////////////////////////////////////////////////////////////////////// 
.................... //   float fabs(float x) 
.................... //////////////////////////////////////////////////////////////////////////// 
.................... // Description : Computes the absolute value of floating point number x 
.................... // Returns : returns the absolute value of x 
.................... // Date : N/A 
.................... // 
.................... #define fabs abs 
....................  
.................... //////////////////////////////////////////////////////////////////////////// 
.................... //   float fmod(float x) 
.................... //////////////////////////////////////////////////////////////////////////// 
.................... // Description : Computes the floating point remainder of x/y 
.................... // Returns : returns the value of x= i*y, for some integer i such that, if y 
.................... // is non zero, the result has the same isgn of x na dmagnitude less than the 
.................... // magnitude of y. If y is zero then a domain error occurs. 
.................... // Date : N/A 
.................... // 
....................  
.................... float fmod(float32 x,float32 y) 
.................... { 
....................    float32 i; 
....................    if (y!=0.0) 
....................    { 
....................       i=(x/y < 0.0)? ceil(x/y): floor(x/y); 
....................       return(x-(i*y)); 
....................    } 
....................    else 
....................    { 
....................    #ifdef _ERRNO 
....................    { 
....................       errno=EDOM; 
....................    } 
....................    #endif 
....................    } 
.................... } 
.................... //Overloaded function for fmod() for PCD 
.................... // Overloaded function fmod() for data type - Float48 
.................... #if defined(__PCD__) 
.................... float48 fmod(float48 x,float48 y) 
.................... { 
....................    float48 i; 
....................    if (y!=0.0) 
....................    { 
....................       i=(x/y < 0.0)? ceil(x/y): floor(x/y); 
....................       return(x-(i*y)); 
....................    } 
....................    else 
....................    { 
....................    #ifdef _ERRNO 
....................    { 
....................       errno=EDOM; 
....................    } 
....................    #endif 
....................    } 
.................... } 
.................... // Overloaded function fmod() for data type - Float64 
.................... float64 fmod(float64 x,float64 y) 
.................... { 
....................    float64 i; 
....................    if (y!=0.0) 
....................    { 
....................       i=(x/y < 0.0)? ceil(x/y): floor(x/y); 
....................       return(x-(i*y)); 
....................    } 
....................    else 
....................    { 
....................    #ifdef _ERRNO 
....................    { 
....................       errno=EDOM; 
....................    } 
....................    #endif 
....................    } 
.................... } 
.................... #endif 
.................... //////////////////// Exponential and logarithmic functions //////////////////// 
.................... //////////////////////////////////////////////////////////////////////////// 
.................... //   float exp(float x) 
.................... //////////////////////////////////////////////////////////////////////////// 
.................... // Description : returns the value (e^x) 
.................... // Date : N/A 
.................... // 
.................... #define LN2 0.6931471805599453 
....................  
.................... float const pe[6] = {0.000207455774, 0.00127100575, 0.00965065093, 
....................                      0.0554965651,  0.240227138,  0.693147172}; 
....................  
....................  
.................... float32 exp(float32 x) 
.................... { 
....................    float32 y, res, r; 
....................    #if defined(__PCD__) 
....................    int8 data1; 
....................    #endif 
....................    signed int8 n; 
....................    int1 s; 
....................    #ifdef _ERRNO 
....................    if(x > 88.722838) 
....................    { 
....................       errno=ERANGE; 
....................       return(0); 
....................    } 
....................    #endif 
....................    n = (signed int16)(x/LN2); 
....................    s = 0; 
....................    y = x; 
....................  
....................    if (x < 0) 
....................    { 
....................       s = 1; 
....................       n = -n; 
....................       y = -y; 
....................    } 
....................  
....................    res = 0.0; 
.................... #if !defined(__PCD__) 
....................    *((unsigned int8 *)(&res)) = n + 0x7F; 
.................... #endif 
....................  
.................... #if defined(__PCD__)  // Takes care of IEEE format for PCD 
....................    data1 = n+0x7F; 
....................    if(bit_test(data1,0)) 
....................    bit_set(*(((unsigned int8 *)(&res)+2)),7); 
....................    rotate_right(&data1,1); 
....................    bit_clear(data1,7); 
....................    *(((unsigned int8 *)(&res)+3)) = data1; 
.................... #endif 
....................  
....................    y = y/LN2 - (float32)n; 
....................  
....................    r = pe[0]*y + pe[1]; 
....................    r = r*y + pe[2]; 
....................    r = r*y + pe[3]; 
....................    r = r*y + pe[4]; 
....................    r = r*y + pe[5]; 
....................  
....................    res = res*(1.0 + y*r); 
....................  
....................    if (s) 
....................       res = 1.0/res; 
....................    return(res); 
.................... } 
....................  
....................  
.................... //Overloaded function for exp() for PCD 
.................... // Overloaded function exp() for data type - Float48 
.................... #if defined(__PCD__) 
.................... float48 exp(float48 x) 
.................... { 
....................    float48 y, res, r; 
....................    int8 data1; 
....................    signed int8 n; 
....................    int1 s; 
....................    #ifdef _ERRNO 
....................    if(x > 88.722838) 
....................    { 
....................       errno=ERANGE; 
....................       return(0); 
....................    } 
....................    #endif 
....................    n = (signed int16)(x/LN2); 
....................    s = 0; 
....................    y = x; 
....................  
....................    if (x < 0) 
....................    { 
....................       s = 1; 
....................       n = -n; 
....................       y = -y; 
....................    } 
....................  
....................    res = 0.0; 
....................  
....................    data1 = n+0x7F; 
....................    if(bit_test(data1,0)) 
....................    bit_set(*(((unsigned int8 *)(&res)+4)),7); 
....................    rotate_right(&data1,1); 
....................    bit_clear(data1,7); 
....................    *(((unsigned int8 *)(&res)+5)) = data1; 
....................  
....................    y = y/LN2 - (float48)n; 
....................  
....................    r = pe[0]*y + pe[1]; 
....................    r = r*y + pe[2]; 
....................    r = r*y + pe[3]; 
....................    r = r*y + pe[4]; 
....................    r = r*y + pe[5]; 
....................  
....................    res = res*(1.0 + y*r); 
....................  
....................    if (s) 
....................       res = 1.0/res; 
....................    return(res); 
.................... } 
....................  
.................... // Overloaded function exp() for data type - Float64 
.................... float64 exp(float64 x) 
.................... { 
....................    float64 y, res, r; 
....................    unsigned int16 data1, data2; 
....................    unsigned int16 *p; 
....................    signed int16 n; 
....................    int1 s; 
....................    #ifdef _ERRNO 
....................    if(x > 709.7827128) 
....................    { 
....................       errno=ERANGE; 
....................       return(0); 
....................    } 
....................    #endif 
....................    n = (signed int16)(x/LN2); 
....................    s = 0; 
....................    y = x; 
....................  
....................    if (x < 0) 
....................    { 
....................       s = 1; 
....................       n = -n; 
....................       y = -y; 
....................    } 
....................  
....................    res = 0.0; 
....................  
.................... #if !defined(__PCD__) 
....................    *((unsigned int16 *)(&res)) = n + 0x7F; 
.................... #endif 
....................    p= (((unsigned int16 *)(&res))+3); 
....................    data1 = *p; 
....................    data2 = *p;    
....................    data1 = n + 0x3FF; 
....................    data1 = data1 <<4; 
....................    if(bit_test(data2,15)) 
....................    bit_set(data1,15); 
....................    data2 = data2 & 0x000F; 
....................    data1 ^= data2; 
....................  
....................    *(((unsigned int16 *)(&res)+3)) = data1; 
....................  
....................  
....................    y = y/LN2 - (float64)n; 
....................  
....................    r = pe[0]*y + pe[1]; 
....................    r = r*y + pe[2]; 
....................    r = r*y + pe[3]; 
....................    r = r*y + pe[4]; 
....................    r = r*y + pe[5]; 
....................  
....................    res = res*(1.0 + y*r); 
....................  
....................    if (s) 
....................       res = 1.0/res; 
....................    return(res); 
.................... } 
....................  
.................... #ENDIF 
....................  
....................  
.................... /************************************************************/ 
....................  
.................... float32 const pl[4] = {0.45145214, -9.0558803, 26.940971, -19.860189}; 
.................... float32 const ql[4] = {1.0000000,  -8.1354259, 16.780517, -9.9300943}; 
....................  
.................... //////////////////////////////////////////////////////////////////////////// 
.................... //   float log(float x) 
.................... //////////////////////////////////////////////////////////////////////////// 
.................... // Description : returns the the natural log of x 
.................... // Date : N/A 
.................... // 
.................... float32 log(float32 x) 
.................... { 
....................    float32 y, res, r, y2; 
....................    #if defined(__PCD__) 
....................    unsigned int8  data1,data2; 
....................    #endif 
....................    signed int8 n; 
....................    #ifdef _ERRNO 
....................    if(x <0) 
....................    { 
....................       errno=EDOM; 
....................    } 
....................    if(x ==0) 
....................    { 
....................       errno=ERANGE; 
....................       return(0); 
....................    } 
....................    #endif 
....................    y = x; 
....................  
....................    if (y != 1.0) 
....................    { 
.................... #if !defined(__PCD__) 
....................     *((unsigned int8 *)(&y)) = 0x7E;  
.................... #endif 
....................  
.................... #if defined(__PCD__) // Takes care of IEEE format 
....................    data2 = *(((unsigned int8 *)(&y))+3); 
....................    *(((unsigned int8 *)(&y))+3) = 0x3F; 
....................    data1 = *(((unsigned int8 *)(&y))+2); 
....................    bit_clear(data1,7); 
....................    *(((unsigned int8 *)(&y))+2) = data1; 
....................    if(bit_test(data2,7)) 
....................    bit_set(*(((unsigned int8 *)(&y))+3),7); 
.................... #endif 
....................  
....................       y = (y - 1.0)/(y + 1.0); 
....................  
....................       y2=y*y; 
....................  
....................       res = pl[0]*y2 + pl[1]; 
....................       res = res*y2 + pl[2]; 
....................       res = res*y2 + pl[3]; 
....................  
....................       r = ql[0]*y2 + ql[1]; 
....................       r = r*y2 + ql[2]; 
....................       r = r*y2 + ql[3]; 
....................  
....................       res = y*res/r; 
.................... #if !defined(__PCD__) 
....................       n = *((unsigned int8 *)(&x)) - 0x7E; 
.................... #endif 
.................... #if defined(__PCD__)  
....................     data1 = *(((unsigned int8 *)(&x)+3)); 
....................     rotate_left(&data1,1); 
....................     data2 = *(((unsigned int8 *)(&x)+2)); 
....................     if(bit_test (data2,7)) 
....................       bit_set(data1,0); 
....................     n = data1 - 0x7E; 
.................... #endif 
....................  
....................       if (n<0)  
....................          r = -(float32)-n; 
....................       else 
....................          r = (float32)n; 
....................  
....................       res += r*LN2; 
....................    } 
....................  
....................    else 
....................       res = 0.0; 
....................  
....................    return(res); 
.................... } 
....................  
.................... //Overloaded function for log() for PCD 
.................... // Overloaded function log() for data type - Float48 
.................... #if defined(__PCD__) 
.................... float48 log(float48 x) 
.................... { 
....................    float48 y, res, r, y2; 
....................    unsigned int8  data1,data2; 
....................    signed int8 n; 
....................    #ifdef _ERRNO 
....................    if(x <0) 
....................    { 
....................       errno=EDOM; 
....................    } 
....................    if(x ==0) 
....................    { 
....................       errno=ERANGE; 
....................       return(0); 
....................    } 
....................    #endif 
....................    y = x; 
....................  
....................    if (y != 1.0) 
....................    { 
....................     
....................    #if !defined(__PCD__) 
....................        *((unsigned int8 *)(&y)) = 0x7E;  
....................    #endif 
....................       data2 = *(((unsigned int8 *)(&y))+5); 
....................       *(((unsigned int8 *)(&y))+5) = 0x3F; 
....................       data1 = *(((unsigned int8 *)(&y))+4); 
....................       bit_clear(data1,7); 
....................       *(((unsigned int8 *)(&y))+4) = data1; 
....................    
....................       if(bit_test(data2,7)) 
....................          bit_set(*(((unsigned int8 *)(&y))+4),7); 
....................       y = (y - 1.0)/(y + 1.0); 
....................  
....................       y2=y*y; 
....................  
....................       res = pl[0]*y2 + pl[1]; 
....................       res = res*y2 + pl[2]; 
....................       res = res*y2 + pl[3]; 
....................  
....................       r = ql[0]*y2 + ql[1]; 
....................       r = r*y2 + ql[2]; 
....................       r = r*y2 + ql[3]; 
....................  
....................       res = y*res/r; 
....................  
....................     data1 = *(((unsigned int8 *)(&x)+5)); 
....................     rotate_left(&data1,1); 
....................     data2 = *(((unsigned int8 *)(&x)+4)); 
....................     if(bit_test (data2,7)) 
....................        bit_set(data1,0); 
....................       
....................     n = data1 - 0x7E; 
....................  
....................       if (n<0) 
....................          r = -(float48)-n; 
....................       else 
....................          r = (float48)n; 
....................  
....................       res += r*LN2; 
....................    } 
....................  
....................    else 
....................       res = 0.0; 
....................  
....................    return(res); 
.................... } 
....................  
.................... // Overloaded function log() for data type - Float48 
.................... #if defined(__PCD__) 
.................... float32 const pl_64[4] = {0.45145214, -9.0558803, 26.940971, -19.860189}; 
.................... float32 const ql_64[4] = {1.0000000,  -8.1354259, 16.780517, -9.9300943}; 
.................... #endif 
.................... float64 log(float64 x) 
.................... { 
....................    float64 y, res, r, y2; 
....................    unsigned int16  data1,data2; 
....................    unsigned int16 *p; 
....................    signed int16 n; 
....................    #ifdef _ERRNO 
....................    if(x <0) 
....................    { 
....................       errno=EDOM; 
....................    } 
....................    if(x ==0) 
....................    { 
....................       errno=ERANGE; 
....................       return(0); 
....................    } 
....................    #endif 
....................    y = x; 
....................  
....................    if (y != 1.0) 
....................    { 
....................    #if !defined(__PCD__) 
....................        *((unsigned int8 *)(&y)) = 0x7E;  
....................    #endif 
....................       p= (((unsigned int16 *)(&y))+3); 
....................       data1 = *p; 
....................       data2 = *p; 
....................       data1 = 0x3FE; 
....................       data1 = data1 <<4; 
....................       if(bit_test (data2,15)) 
....................       bit_set(data1,15); 
....................       data2 = data2 & 0x000F; 
....................       data1 ^=data2; 
....................  
....................       *p = data1; 
....................  
....................       y = (y - 1.0)/(y + 1.0); 
....................  
....................       y2=y*y; 
....................  
....................       res = pl_64[0]*y2 + pl_64[1]; 
....................       res = res*y2 + pl_64[2]; 
....................       res = res*y2 + pl_64[3]; 
....................  
....................       r = ql_64[0]*y2 + ql_64[1]; 
....................       r = r*y2 + ql_64[2]; 
....................       r = r*y2 + ql_64[3]; 
....................  
....................       res = y*res/r; 
....................   
....................       p= (((unsigned int16 *)(&x))+3); 
....................       data1 = *p; 
....................       bit_clear(data1,15); 
....................       data1 = data1 >>4;     
....................       n = data1 - 0x3FE; 
....................  
....................  
....................       if (n<0) 
....................          r = -(float64)-n; 
....................       else 
....................          r = (float64)n; 
....................  
....................       res += r*LN2; 
....................    } 
....................  
....................    else 
....................       res = 0.0; 
....................  
....................    return(res); 
.................... } 
.................... #endif 
....................  
....................  
.................... #define LN10 2.3025850929940456 
....................  
.................... //////////////////////////////////////////////////////////////////////////// 
.................... //   float log10(float x) 
.................... //////////////////////////////////////////////////////////////////////////// 
.................... // Description : returns the the log base 10 of x 
.................... // Date : N/A 
.................... // 
.................... float32 log10(float32 x) 
.................... { 
....................    float32 r; 
....................  
....................    r = log(x); 
....................    r = r/LN10; 
....................    return(r); 
.................... } 
....................  
.................... //Overloaded functions for log10() for PCD 
.................... // Overloaded function log10() for data type - Float48 
.................... #if defined(__PCD__) 
.................... float48 log10(float48 x) 
.................... { 
....................    float48 r; 
....................  
....................    r = log(x); 
....................    r = r/LN10; 
....................    return(r); 
.................... } 
....................  
.................... // Overloaded function log10() for data type - Float64 
.................... float64 log10(float64 x) 
.................... { 
....................    float64 r; 
....................  
....................    r = log(x); 
....................    r = r/LN10; 
....................    return(r); 
.................... } 
.................... #endif 
.................... //////////////////////////////////////////////////////////////////////////// 
.................... //   float modf(float x) 
.................... //////////////////////////////////////////////////////////////////////////// 
.................... // Description :breaks the argument value int integral and fractional parts, 
.................... // ach of which have the same sign as the argument.  It stores the integral part 
.................... // as a float in the object pointed to by the iptr 
.................... // Returns : returns the signed fractional part of value. 
.................... // Date : N/A 
.................... // 
....................  
.................... float32 modf(float32 value,float32 *iptr) 
.................... { 
....................    *iptr=(value < 0.0)? ceil(value): floor(value); 
....................    return(value - *iptr); 
.................... } 
.................... //Overloaded functions for modf() for PCD 
.................... // Overloaded function modf() for data type - Float48 
.................... #if defined(__PCD__) 
.................... float48 modf(float48 value,float48 *iptr) 
.................... { 
....................    *iptr=(value < 0.0)? ceil(value): floor(value); 
....................    return(value - *iptr); 
.................... } 
.................... // Overloaded function modf() for data type - Float64 
.................... float64 modf(float64 value,float64 *iptr) 
.................... { 
....................    *iptr=(value < 0.0)? ceil(value): floor(value); 
....................    return(value - *iptr); 
.................... } 
.................... #endif 
....................  
.................... //////////////////////////////////////////////////////////////////////////// 
.................... //   float pwr(float x,float y) 
.................... //////////////////////////////////////////////////////////////////////////// 
.................... // Description : returns the value (x^y) 
.................... // Date : N/A 
.................... // Note : 0 is returned when the function will generate an imaginary number 
.................... // 
.................... float32 pwr(float32 x,float32 y) 
.................... { 
....................    if(0 > x && fmod(y, 1) == 0) { 
....................       if(fmod(y, 2) == 0) { 
....................          return (exp(log(-x) * y)); 
....................       } else { 
....................          return (-exp(log(-x) * y)); 
....................       } 
....................    } else if(0 > x && fmod(y, 1) != 0) { 
....................       return 0; 
....................    } else { 
....................       if(x != 0 || 0 >= y) { 
....................          return (exp(log(x) * y)); 
....................       } 
....................    } 
.................... } 
.................... //Overloaded functions for pwr() for PCD 
.................... // Overloaded function pwr() for data type - Float48 
.................... #if defined(__PCD__) 
.................... float48 pwr(float48 x,float48 y) 
.................... { 
....................    if(0 > x && fmod(y, 1) == 0) { 
....................       if(fmod(y, 2) == 0) { 
....................          return (exp(log(-x) * y)); 
....................       } else { 
....................          return (-exp(log(-x) * y)); 
....................       } 
....................    } else if(0 > x && fmod(y, 1) != 0) { 
....................       return 0; 
....................    } else { 
....................       if(x != 0 || 0 >= y) { 
....................          return (exp(log(x) * y)); 
....................       } 
....................    } 
.................... } 
.................... // Overloaded function pwr() for data type - Float64 
.................... float64 pwr(float64 x,float64 y) 
.................... { 
....................    if(0 > x && fmod(y, 1) == 0) { 
....................       if(fmod(y, 2) == 0) { 
....................          return (exp(log(-x) * y)); 
....................       } else { 
....................          return (-exp(log(-x) * y)); 
....................       } 
....................    } else if(0 > x && fmod(y, 1) != 0) { 
....................       return 0; 
....................    } else { 
....................       if(x != 0 || 0 >= y) { 
....................          return (exp(log(x) * y)); 
....................       } 
....................    } 
.................... } 
.................... #endif 
....................  
.................... //////////////////// Power functions //////////////////// 
....................  
.................... //////////////////////////////////////////////////////////////////////////// 
.................... //   float pow(float x,float y) 
.................... //////////////////////////////////////////////////////////////////////////// 
.................... // Description : returns the value (x^y) 
.................... // Date : N/A 
.................... // Note : 0 is returned when the function will generate an imaginary number 
.................... // 
.................... float32 pow(float32 x,float32 y) 
.................... { 
....................    if(0 > x && fmod(y, 1) == 0) { 
....................       if(fmod(y, 2) == 0) { 
....................          return (exp(log(-x) * y)); 
....................       } else { 
....................          return (-exp(log(-x) * y)); 
....................       } 
....................    } else if(0 > x && fmod(y, 1) != 0) { 
....................       return 0; 
....................    } else { 
....................       if(x != 0 || 0 >= y) { 
....................          return (exp(log(x) * y)); 
....................       } 
....................    } 
.................... } 
.................... //Overloaded functions for pow() for PCD 
.................... // Overloaded function for pow() data type - Float48 
.................... #if defined(__PCD__) 
.................... float48 pow(float48 x,float48 y) 
.................... { 
....................    if(0 > x && fmod(y, 1) == 0) { 
....................       if(fmod(y, 2) == 0) { 
....................          return (exp(log(-x) * y)); 
....................       } else { 
....................          return (-exp(log(-x) * y)); 
....................       } 
....................    } else if(0 > x && fmod(y, 1) != 0) { 
....................       return 0; 
....................    } else { 
....................       if(x != 0 || 0 >= y) { 
....................          return (exp(log(x) * y)); 
....................       } 
....................    } 
.................... } 
....................  
.................... // Overloaded function pow() for data type - Float64 
.................... float64 pow(float64 x,float64 y) 
.................... { 
....................    if(0 > x && fmod(y, 1) == 0) { 
....................       if(fmod(y, 2) == 0) { 
....................          return (exp(log(-x) * y)); 
....................       } else { 
....................          return (-exp(log(-x) * y)); 
....................       } 
....................    } else if(0 > x && fmod(y, 1) != 0) { 
....................       return 0; 
....................    } else { 
....................       if(x != 0 || 0 >= y) { 
....................          return (exp(log(x) * y)); 
....................       } 
....................    } 
.................... } 
.................... #endif 
....................  
.................... //////////////////////////////////////////////////////////////////////////// 
.................... //   float sqrt(float x) 
.................... //////////////////////////////////////////////////////////////////////////// 
.................... // Description : returns the square root of x 
.................... // Date : N/A 
.................... // 
.................... float32 sqrt(float32 x) 
.................... { 
....................    float32 y, res; 
....................    #if defined(__PCD__) 
....................    unsigned int16 data1,data2; 
....................    #endif 
....................    BYTE *p; 
....................  
....................    #ifdef _ERRNO 
....................    if(x < 0) 
....................    { 
....................       errno=EDOM; 
....................    } 
....................    #endif 
....................  
....................    if( x<=0.0) 
....................       return(0.0); 
....................  
....................    y=x; 
....................     
....................    #if !defined(__PCD__) 
....................     p=&y; 
....................    (*p)=(BYTE)((((unsigned int16)(*p)) + 127) >> 1); 
....................    #endif 
....................     
....................    #if defined(__PCD__) 
....................     p = (((unsigned int8 *)(&y))+3); 
....................     data1 = *(((unsigned int8 *)(&y))+3); 
....................     data2 = *(((unsigned int8 *)(&y))+2); 
....................     rotate_left(&data1,1);     
....................     if(bit_test(data2,7))     
....................     bit_set(data1,0);     
....................     data1 = ((data1+127) >>1); 
....................     bit_clear(data2,7); 
....................     if(bit_test(data1,0)) 
....................     bit_set(data2,7); 
....................     data1 = data1 >>1; 
....................     *(((unsigned int8 *)(&y))+3) = data1; 
....................     *(((unsigned int8 *)(&y))+2) = data2; 
....................      
....................   #endif 
....................  
....................    do { 
....................       res=y; 
....................       y+=(x/y); 
....................  
....................       #if !defined(__PCD__) 
....................      (*p)--; 
....................    #endif 
....................     
....................    #if defined(__PCD__) 
....................     data1 = *(((unsigned int8 *)(&y))+3); 
....................     data2 = *(((unsigned int8 *)(&y))+2); 
....................     rotate_left(&data1,1); 
....................     if(bit_test(data2,7)) 
....................     bit_set(data1,0);     
....................     data1--; 
....................     bit_clear(data2,7); 
....................     if(bit_test(data1,0)) 
....................     bit_set(data2,7); 
....................     data1 = data1 >>1; 
....................     *(((unsigned int8 *)(&y))+3) = data1; 
....................     *(((unsigned int8 *)(&y))+2) = data2; 
....................      
....................   #endif 
....................    } while(res != y); 
....................  
....................    return(res); 
.................... } 
.................... //Overloaded functions for sqrt() for PCD 
.................... // Overloaded function sqrt() for data type - Float48 
.................... #if defined(__PCD__) 
.................... float48 sqrt(float48 x) 
.................... { 
....................    float48 y, res; 
....................    unsigned int16 data1,data2; 
....................    BYTE *p; 
....................  
....................    #ifdef _ERRNO 
....................    if(x < 0) 
....................    { 
....................       errno=EDOM; 
....................    } 
....................    #endif 
....................  
....................    if( x<=0.0) 
....................       return(0.0); 
....................  
....................    y=x; 
....................     
....................    #if !defined(__PCD__) 
....................     p=&y; 
....................    (*p)=(BYTE)((((unsigned int16)(*p)) + 127) >> 1); 
....................    #endif 
....................     
....................    #if defined(__PCD__) 
....................     p = (((unsigned int8 *)(&y))+5); 
....................     data1 = *(((unsigned int8 *)(&y))+5); 
....................     data2 = *(((unsigned int8 *)(&y))+4); 
....................     rotate_left(&data1,1); 
....................     if(bit_test(data2,7)) 
....................     bit_set(data1,0);     
....................     data1 = ((data1+127) >>1); 
....................     bit_clear(data2,7); 
....................     if(bit_test(data1,0)) 
....................     bit_set(data2,7); 
....................     data1 = data1 >>1; 
....................     *(((unsigned int8 *)(&y))+5) = data1; 
....................     *(((unsigned int8 *)(&y))+4) = data2; 
....................      
....................   #endif 
....................  
....................    do { 
....................       res=y; 
....................       y+=(x/y); 
....................  
....................       #if !defined(__PCD__) 
....................      (*p)--; 
....................    #endif 
....................     
....................     data1 = *(((unsigned int8 *)(&y))+5); 
....................     data2 = *(((unsigned int8 *)(&y))+4); 
....................     rotate_left(&data1,1); 
....................     if(bit_test(data2,7)) 
....................     bit_set(data1,0);     
....................     data1--; 
....................     bit_clear(data2,7); 
....................     if(bit_test(data1,0)) 
....................     bit_set(data2,7); 
....................     data1 = data1 >>1; 
....................     *(((unsigned int8 *)(&y))+5) = data1; 
....................     *(((unsigned int8 *)(&y))+4) = data2; 
....................      
....................    } while(res != y); 
....................  
....................    return(res); 
.................... } 
....................  
.................... // Overloaded function sqrt() for data type - Float64 
.................... float64 sqrt(float64 x) 
.................... { 
....................    float64 y, res; 
....................    unsigned int16 *p; 
....................    unsigned int16 temp1,temp2; 
....................  
....................    #ifdef _ERRNO 
....................    if(x < 0) 
....................    { 
....................       errno=EDOM; 
....................    } 
....................    #endif 
....................  
....................    if( x<=0.0) 
....................       return(0.0); 
....................  
....................    y=x; 
....................    p= (((unsigned int16 *)(&y))+3); 
....................    temp1 = *p; 
....................    temp2 = *p; 
....................    bit_clear(temp1,15); 
....................    temp1 = (temp1>>4)+1023; 
....................    temp1 = temp1 >> 1; 
....................    temp1 = (temp1<<4) & 0xFFF0; 
....................    if(bit_test(temp2,15)) 
....................    bit_set(temp1,15); 
....................    temp2 = temp2 & 0x000F; 
....................    temp1 ^= temp2; 
....................     
....................    (*p) = temp1; 
....................     
....................    do { 
....................       res=y; 
....................       y+=(x/y); 
....................      temp1 = *p; 
....................      temp2 = *p; 
....................      bit_clear(temp1,15); 
....................      temp1 = (temp1>>4); 
....................      temp1--; 
....................      temp1 = (temp1<<4) & 0xFFF0; 
....................      if(bit_test(temp2,15)) 
....................      bit_set(temp1,15); 
....................      temp2 = temp2 & 0x000F; 
....................      temp1 ^= temp2; 
....................      (*p) = temp1; 
....................  
....................    } while(res != y); 
....................  
....................    return(res); 
.................... } 
.................... #endif 
....................  
.................... ////////////////////////////// Trig Functions ////////////////////////////// 
.................... #ifdef PI_DIV_BY_TWO 
.................... #undef PI_DIV_BY_TWO 
.................... #endif 
.................... #define PI_DIV_BY_TWO   1.5707963267948966 
.................... #ifdef TWOBYPI 
.................... #undef TWOBYPI 
.................... #define TWOBYPI          0.6366197723675813 
.................... #endif 
.................... //////////////////////////////////////////////////////////////////////////// 
.................... //   float cos(float x) 
.................... //////////////////////////////////////////////////////////////////////////// 
.................... // Description : returns the cosine value of the angle x, which is in radian 
.................... // Date : 9/20/2001 
.................... // 
.................... float32 cos(float32 x) 
.................... { 
....................    float32 y, t, t2 = 1.0; 
....................    unsigned int8 quad, i; 
....................    float32 frac; 
....................    float32 p[6] = {                    //by the series definition for cosine 
....................       -0.5,                            // sum ( ( (-1)^n * x^2n )/(2n)! ) 
....................        0.04166666666667, 
....................       -0.00138888888889, 
....................        0.00002480158730, 
....................       -0.00000027557319, 
....................        0.00000000208767, 
....................       //-0.00000000001147, 
....................       // 0.00000000000005 
....................    }; 
....................  
....................    if (x < 0) x = -x;                  // absolute value of input 
....................  
....................    quad = (unsigned int8)(x / PI_DIV_BY_TWO);    // quadrant 
....................    frac = (x / PI_DIV_BY_TWO) - quad;  // fractional part of input 
....................    quad = quad % 4;                    // quadrant (0 to 3) 
....................  
....................    if (quad == 0 || quad == 2) 
....................       t = frac * PI_DIV_BY_TWO; 
....................    else if (quad == 1) 
....................       t = (1-frac) * PI_DIV_BY_TWO; 
....................    else // should be 3 
....................       t = (frac-1) * PI_DIV_BY_TWO; 
....................  
....................    y = 1.0; 
....................    t = t * t; 
....................    for (i = 0; i <= 5; i++) 
....................    { 
....................       t2 = t2 * t; 
....................       y = y + p[i] * t2; 
....................    } 
....................  
....................    if (quad == 2 || quad == 1) 
....................       y = -y;  // correct sign 
....................  
....................    return (y); 
.................... } 
....................  
....................  
.................... //Overloaded functions for cos() for PCD 
.................... // Overloaded function cos() for data type - Float48 
.................... #if defined(__PCD__) 
.................... float48 cos(float48 x) 
.................... { 
....................    float48 y, t, t2 = 1.0; 
....................    unsigned int8 quad, i; 
....................    float48 frac; 
....................    float48 p[6] = {                    //by the series definition for cosine 
....................       -0.5,                            // sum ( ( (-1)^n * x^2n )/(2n)! ) 
....................        0.04166666666667, 
....................       -0.00138888888889, 
....................        0.00002480158730, 
....................       -0.00000027557319, 
....................        0.00000000208767, 
....................       //-0.00000000001147, 
....................       // 0.00000000000005 
....................    }; 
....................  
....................    if (x < 0) x = -x;                  // absolute value of input 
....................  
....................    quad = (unsigned int8)(x / PI_DIV_BY_TWO);    // quadrant 
....................    frac = (x / PI_DIV_BY_TWO) - quad;  // fractional part of input 
....................    quad = quad % 4;                    // quadrant (0 to 3) 
....................  
....................    if (quad == 0 || quad == 2) 
....................       t = frac * PI_DIV_BY_TWO; 
....................    else if (quad == 1) 
....................       t = (1-frac) * PI_DIV_BY_TWO; 
....................    else // should be 3 
....................       t = (frac-1) * PI_DIV_BY_TWO; 
....................  
....................    y = 0.999999999781; 
....................    t = t * t; 
....................    for (i = 0; i <= 5; i++) 
....................    { 
....................       t2 = t2 * t; 
....................       y = y + p[i] * t2; 
....................    } 
....................  
....................    if (quad == 2 || quad == 1) 
....................       y = -y;  // correct sign 
....................  
....................    return (y); 
.................... } 
....................  
.................... // Overloaded function cos() for data type - Float48 
.................... float64 cos(float64 x) 
.................... { 
....................    float64 y, t, t2 = 1.0; 
....................    unsigned int8 quad, i; 
....................    float64 frac; 
....................    float64 p[6] = {                    //by the series definition for cosine 
....................       -0.5,                            // sum ( ( (-1)^n * x^2n )/(2n)! ) 
....................        0.04166666666667, 
....................       -0.00138888888889, 
....................        0.00002480158730, 
....................       -0.00000027557319, 
....................        0.00000000208767, 
....................       //-0.00000000001147, 
....................       // 0.00000000000005 
....................    }; 
....................  
....................    if (x < 0) x = -x;                  // absolute value of input 
....................  
....................    quad = (unsigned int8)(x / PI_DIV_BY_TWO);    // quadrant 
....................    frac = (x / PI_DIV_BY_TWO) - quad;  // fractional part of input 
....................    quad = quad % 4;                    // quadrant (0 to 3) 
....................  
....................    if (quad == 0 || quad == 2) 
....................       t = frac * PI_DIV_BY_TWO; 
....................    else if (quad == 1) 
....................       t = (1-frac) * PI_DIV_BY_TWO; 
....................    else // should be 3 
....................       t = (frac-1) * PI_DIV_BY_TWO; 
....................  
....................    y = 0.999999999781; 
....................    t = t * t; 
....................    for (i = 0; i <= 5; i++) 
....................    { 
....................       t2 = t2 * t; 
....................       y = y + p[i] * t2; 
....................    } 
....................  
....................    if (quad == 2 || quad == 1) 
....................       y = -y;  // correct sign 
....................  
....................    return (y); 
.................... } 
....................  
.................... #endif 
....................  
.................... //////////////////////////////////////////////////////////////////////////// 
.................... //   float sin(float x) 
.................... //////////////////////////////////////////////////////////////////////////// 
.................... // Description : returns the sine value of the angle x, which is in radian 
.................... // Date : 9/20/2001 
.................... // 
.................... float32 sin(float32 x) 
.................... { 
....................    return cos(x - PI_DIV_BY_TWO); 
.................... } 
....................  
.................... //Overloaded functions for sin() for PCD 
.................... // Overloaded function sin() for data type - Float48 
.................... #if defined(__PCD__) 
.................... float48 sin(float48 x) 
.................... { 
....................    return cos(x - PI_DIV_BY_TWO); 
.................... } 
....................  
.................... // Overloaded function sin() for data type - Float48 
.................... float64 sin(float64 x) 
.................... { 
....................    return cos(x - PI_DIV_BY_TWO); 
.................... } 
.................... #endif 
....................  
.................... //////////////////////////////////////////////////////////////////////////// 
.................... //   float tan(float x) 
.................... //////////////////////////////////////////////////////////////////////////// 
.................... // Description : returns the tangent value of the angle x, which is in radian 
.................... // Date : 9/20/2001 
.................... // 
.................... float32 tan(float32 x) 
.................... { 
....................    float32 c, s; 
....................  
....................    c = cos(x); 
....................    if (c == 0.0) 
....................       return (1.0e+36); 
....................  
....................    s = sin(x); 
....................    return(s/c); 
.................... } 
.................... //Overloaded functions for tan() for PCD 
.................... // Overloaded function tan() for data type - Float48 
.................... #if defined(__PCD__) 
.................... float48 tan(float48 x) 
.................... { 
....................    float48 c, s; 
....................  
....................    c = cos(x); 
....................    if (c == 0.0) 
....................       return (1.0e+36); 
....................  
....................    s = sin(x); 
....................    return(s/c); 
.................... } 
....................  
.................... // Overloaded function tan() for data type - Float48 
.................... float64 tan(float64 x) 
.................... { 
....................    float64 c, s; 
....................  
....................    c = cos(x); 
....................    if (c == 0.0) 
....................       return (1.0e+36); 
....................  
....................    s = sin(x); 
....................    return(s/c); 
.................... } 
.................... #endif 
....................  
.................... float32 const pas[3] = {0.49559947, -4.6145309, 5.6036290}; 
.................... float32 const qas[3] = {1.0000000,  -5.5484666, 5.6036290}; 
....................  
.................... float32 ASIN_COS(float32 x, unsigned int8 n) 
.................... { 
....................    float32 y, res, r, y2; 
....................    int1 s; 
....................    #ifdef _ERRNO 
....................    if(x <-1 || x > 1) 
....................    { 
....................       errno=EDOM; 
....................    } 
....................    #endif 
....................    s = 0; 
....................    y = x; 
....................  
....................    if (x < 0) 
....................    { 
....................       s = 1; 
....................       y = -y; 
....................    } 
....................  
....................    if (y > 0.5) 
....................    { 
....................       y = sqrt((1.0 - y)/2.0); 
....................       n += 2; 
....................    } 
....................  
....................    y2=y*y; 
....................  
....................    res = pas[0]*y2 + pas[1]; 
....................    res = res*y2 + pas[2]; 
....................  
....................    r = qas[0]*y2 + qas[1]; 
....................    r = r*y2 + qas[2]; 
....................  
....................    res = y*res/r; 
....................  
....................    if (n & 2)     // |x| > 0.5 
....................       res = PI_DIV_BY_TWO - 2.0*res; 
....................    if (s) 
....................       res = -res; 
....................    if (n & 1)           // take arccos 
....................       res = PI_DIV_BY_TWO - res; 
....................  
....................    return(res); 
.................... } 
....................  
.................... //Overloaded functions for ASIN_COS() for PCD 
.................... // Overloaded function ASIN_COS() for data type - Float48 
.................... #if defined(__PCD__) 
.................... float48 ASIN_COS(float48 x, unsigned int8 n) 
.................... { 
....................    float48 y, res, r, y2; 
....................    int1 s; 
....................    #ifdef _ERRNO 
....................    if(x <-1 || x > 1) 
....................    { 
....................       errno=EDOM; 
....................    } 
....................    #endif 
....................    s = 0; 
....................    y = x; 
....................  
....................    if (x < 0) 
....................    { 
....................       s = 1; 
....................       y = -y; 
....................    } 
....................  
....................    if (y > 0.5) 
....................    { 
....................       y = sqrt((1.0 - y)/2.0); 
....................       n += 2; 
....................    } 
....................  
....................    y2=y*y; 
....................  
....................    res = pas[0]*y2 + pas[1]; 
....................    res = res*y2 + pas[2]; 
....................  
....................    r = qas[0]*y2 + qas[1]; 
....................    r = r*y2 + qas[2]; 
....................  
....................    res = y*res/r; 
....................  
....................    if (n & 2)     // |x| > 0.5 
....................       res = PI_DIV_BY_TWO - 2.0*res; 
....................    if (s) 
....................       res = -res; 
....................    if (n & 1)           // take arccos 
....................       res = PI_DIV_BY_TWO - res; 
....................  
....................    return(res); 
.................... } 
....................  
.................... // Overloaded function ASIN_COS() for data type - Float64 
.................... float64 ASIN_COS(float64 x, unsigned int8 n) 
.................... { 
....................    float64 y, res, r, y2; 
....................    int1 s; 
....................    #ifdef _ERRNO 
....................    if(x <-1 || x > 1) 
....................    { 
....................       errno=EDOM; 
....................    } 
....................    #endif 
....................    s = 0; 
....................    y = x; 
....................  
....................    if (x < 0) 
....................    { 
....................       s = 1; 
....................       y = -y; 
....................    } 
....................  
....................    if (y > 0.5) 
....................    { 
....................       y = sqrt((1.0 - y)/2.0); 
....................       n += 2; 
....................    } 
....................  
....................    y2=y*y; 
....................  
....................    res = pas[0]*y2 + pas[1]; 
....................    res = res*y2 + pas[2]; 
....................  
....................    r = qas[0]*y2 + qas[1]; 
....................    r = r*y2 + qas[2]; 
....................  
....................    res = y*res/r; 
....................  
....................    if (n & 2)     // |x| > 0.5 
....................       res = PI_DIV_BY_TWO - 2.0*res; 
....................    if (s) 
....................       res = -res; 
....................    if (n & 1)           // take arccos 
....................       res = PI_DIV_BY_TWO - res; 
....................  
....................    return(res); 
.................... } 
.................... #endif 
....................  
.................... //////////////////////////////////////////////////////////////////////////// 
.................... //   float asin(float x) 
.................... //////////////////////////////////////////////////////////////////////////// 
.................... // Description : returns the arcsine value of the value x. 
.................... // Date : N/A 
.................... // 
.................... float32 asin(float32 x) 
.................... { 
....................    float32 r; 
....................  
....................    r = ASIN_COS(x, 0); 
....................    return(r); 
.................... } 
.................... //Overloaded functions for asin() for PCD 
.................... // Overloaded function asin() for data type - Float48 
.................... #if defined(__PCD__) 
.................... float48 asin(float48 x) 
.................... { 
....................    float48 r; 
....................  
....................    r = ASIN_COS(x, 0); 
....................    return(r); 
.................... } 
....................  
.................... // Overloaded function asin() for data type - Float64 
.................... float64 asin(float64 x) 
.................... { 
....................    float64 r; 
....................  
....................    r = ASIN_COS(x, 0); 
....................    return(r); 
.................... } 
.................... #endif 
....................  
.................... //////////////////////////////////////////////////////////////////////////// 
.................... //   float acos(float x) 
.................... //////////////////////////////////////////////////////////////////////////// 
.................... // Description : returns the arccosine value of the value x. 
.................... // Date : N/A 
.................... // 
.................... float32 acos(float32 x) 
.................... { 
....................    float32 r; 
....................  
....................    r = ASIN_COS(x, 1); 
....................    return(r); 
.................... } 
.................... //Overloaded functions for acos() for PCD 
.................... // Overloaded function acos() for data type - Float48 
.................... #if defined(__PCD__) 
.................... float48 acos(float48 x) 
.................... { 
....................    float48 r; 
....................  
....................    r = ASIN_COS(x, 1); 
....................    return(r); 
.................... } 
....................  
.................... // Overloaded function acos() for data type - Float64 
.................... float64 acos(float64 x) 
.................... { 
....................    float64 r; 
....................  
....................    r = ASIN_COS(x, 1); 
....................    return(r); 
.................... } 
.................... #endif 
....................  
.................... float32 const pat[4] = {0.17630401, 5.6710795, 22.376096, 19.818457}; 
.................... float32 const qat[4] = {1.0000000,  11.368190, 28.982246, 19.818457}; 
....................  
.................... //////////////////////////////////////////////////////////////////////////// 
.................... //   float atan(float x) 
.................... //////////////////////////////////////////////////////////////////////////// 
.................... // Description : returns the arctangent value of the value x. 
.................... // Date : N/A 
.................... // 
.................... float32 atan(float32 x) 
.................... { 
....................    float32 y, res, r; 
....................    int1 s, flag; 
....................  
....................    s = 0; 
....................    flag = 0; 
....................    y = x; 
....................  
....................    if (x < 0) 
....................    { 
....................       s = 1; 
....................       y = -y; 
....................    } 
....................  
....................    if (y > 1.0) 
....................    { 
....................       y = 1.0/y; 
....................       flag = 1; 
....................    } 
....................  
....................    res = pat[0]*y*y + pat[1]; 
....................    res = res*y*y + pat[2]; 
....................    res = res*y*y + pat[3]; 
....................  
....................    r = qat[0]*y*y + qat[1]; 
....................    r = r*y*y + qat[2]; 
....................    r = r*y*y + qat[3]; 
....................  
....................    res = y*res/r; 
....................  
....................  
....................    if (flag)                              // for |x| > 1 
....................       res = PI_DIV_BY_TWO - res; 
....................    if (s) 
....................       res = -res; 
....................  
....................    return(res); 
.................... } 
.................... //Overloaded functions for atan() for PCD 
.................... // Overloaded function atan() for data type - Float48 
.................... #if defined(__PCD__) 
.................... float48 atan(float48 x) 
.................... { 
....................    float48 y, res, r; 
....................    int1 s, flag; 
....................  
....................    s = 0; 
....................    flag = 0; 
....................    y = x; 
....................  
....................    if (x < 0) 
....................    { 
....................       s = 1; 
....................       y = -y; 
....................    } 
....................  
....................    if (y > 1.0) 
....................    { 
....................       y = 1.0/y; 
....................       flag = 1; 
....................    } 
....................  
....................    res = pat[0]*y*y + pat[1]; 
....................    res = res*y*y + pat[2]; 
....................    res = res*y*y + pat[3]; 
....................  
....................    r = qat[0]*y*y + qat[1]; 
....................    r = r*y*y + qat[2]; 
....................    r = r*y*y + qat[3]; 
....................  
....................    res = y*res/r; 
....................  
....................  
....................    if (flag)                              // for |x| > 1 
....................       res = PI_DIV_BY_TWO - res; 
....................    if (s) 
....................       res = -res; 
....................  
....................    return(res); 
.................... } 
....................  
.................... // Overloaded function atan() for data type - Float64 
.................... float64 atan(float64 x) 
.................... { 
....................    float64 y, res, r; 
....................    int1 s, flag; 
....................  
....................    s = 0; 
....................    flag = 0; 
....................    y = x; 
....................  
....................    if (x < 0) 
....................    { 
....................       s = 1; 
....................       y = -y; 
....................    } 
....................  
....................    if (y > 1.0) 
....................    { 
....................       y = 1.0/y; 
....................       flag = 1; 
....................    } 
....................  
....................    res = pat[0]*y*y + pat[1]; 
....................    res = res*y*y + pat[2]; 
....................    res = res*y*y + pat[3]; 
....................  
....................    r = qat[0]*y*y + qat[1]; 
....................    r = r*y*y + qat[2]; 
....................    r = r*y*y + qat[3]; 
....................  
....................    res = y*res/r; 
....................  
....................  
....................    if (flag)                              // for |x| > 1 
....................       res = PI_DIV_BY_TWO - res; 
....................    if (s) 
....................       res = -res; 
....................  
....................    return(res); 
.................... } 
.................... #endif 
....................  
.................... ///////////////////////////////////////////////////////////////////////////// 
.................... //   float atan2(float y, float x) 
.................... ///////////////////////////////////////////////////////////////////////////// 
.................... // Description :computes the principal value of arc tangent of y/x, using the 
.................... // signs of both the arguments to determine the quadrant of the return value 
.................... // Returns : returns the arc tangent of y/x. 
.................... // Date : N/A 
.................... // 
....................  
.................... float32 atan2(float32 y,float32 x) 
.................... { 
....................    float32 z; 
....................    int1 sign; 
....................    unsigned int8 quad; 
....................    sign=0; 
....................    quad=0; //quadrant 
....................    quad=((y<=0.0)?((x<=0.0)?3:4):((x<0.0)?2:1)); 
....................    if(y<0.0) 
....................    { 
....................       sign=1; 
....................       y=-y; 
....................    } 
....................    if(x<0.0) 
....................    { 
....................       x=-x; 
....................    } 
....................    if (x==0.0) 
....................    { 
....................       if(y==0.0) 
....................       { 
....................       #ifdef _ERRNO 
....................       { 
....................          errno=EDOM; 
....................       } 
....................       #endif 
....................       } 
....................       else 
....................       { 
....................          if(sign) 
....................          { 
....................          return (-(PI_DIV_BY_TWO)); 
....................          } 
....................          else 
....................          { 
....................          return (PI_DIV_BY_TWO); 
....................          } 
....................       } 
....................    } 
....................    else 
....................    { 
....................       z=y/x; 
....................       switch(quad) 
....................       { 
....................          case 1: 
....................          { 
....................             return atan(z); 
....................             break; 
....................          } 
....................          case 2: 
....................          { 
.................... //            return (atan(z)+PI_DIV_BY_TWO);  //2L3122 
....................             return (PI-atan(z)); 
....................             break; 
....................          } 
....................          case 3: 
....................          { 
....................             return (atan(z)-PI); 
....................             break; 
....................          } 
....................          case 4: 
....................          { 
....................             return (-atan(z)); 
....................             break; 
....................          } 
....................       } 
....................    } 
.................... } 
....................  
.................... //Overloaded functions for atan2() for PCD 
.................... // Overloaded function atan2() for data type - Float48 
.................... #if defined(__PCD__) 
.................... float48 atan2(float48 y,float48 x) 
.................... { 
....................    float48 z; 
....................    int1 sign; 
....................    unsigned int8 quad; 
....................    sign=0; 
....................    quad=0; //quadrant 
....................    quad=((y<=0.0)?((x<=0.0)?3:4):((x<0.0)?2:1)); 
....................    if(y<0.0) 
....................    { 
....................       sign=1; 
....................       y=-y; 
....................    } 
....................    if(x<0.0) 
....................    { 
....................       x=-x; 
....................    } 
....................    if (x==0.0) 
....................    { 
....................       if(y==0.0) 
....................       { 
....................       #ifdef _ERRNO 
....................       { 
....................          errno=EDOM; 
....................       } 
....................       #endif 
....................       } 
....................       else 
....................       { 
....................          if(sign) 
....................          { 
....................          return (-(PI_DIV_BY_TWO)); 
....................          } 
....................          else 
....................          { 
....................          return (PI_DIV_BY_TWO); 
....................          } 
....................       } 
....................    } 
....................    else 
....................    { 
....................       z=y/x; 
....................       switch(quad) 
....................       { 
....................          case 1: 
....................          { 
....................             return atan(z); 
....................             break; 
....................          } 
....................          case 2: 
....................          { 
.................... //            return (atan(z)+PI_DIV_BY_TWO);  //2L3122 
....................             return (PI-atan(z)); 
....................             break; 
....................          } 
....................          case 3: 
....................          { 
....................             return (atan(z)-PI); 
....................             break; 
....................          } 
....................          case 4: 
....................          { 
....................             return (-atan(z)); 
....................             break; 
....................          } 
....................       } 
....................    } 
.................... } 
....................  
.................... // Overloaded function atan2() for data type - Float64 
.................... float64 atan2(float64 y,float64 x) 
.................... { 
....................    float64 z; 
....................    int1 sign; 
....................    unsigned int8 quad; 
....................    sign=0; 
....................    quad=0; //quadrant 
....................    quad=((y<=0.0)?((x<=0.0)?3:4):((x<0.0)?2:1)); 
....................    if(y<0.0) 
....................    { 
....................       sign=1; 
....................       y=-y; 
....................    } 
....................    if(x<0.0) 
....................    { 
....................       x=-x; 
....................    } 
....................    if (x==0.0) 
....................    { 
....................       if(y==0.0) 
....................       { 
....................       #ifdef _ERRNO 
....................       { 
....................          errno=EDOM; 
....................       } 
....................       #endif 
....................       } 
....................       else 
....................       { 
....................          if(sign) 
....................          { 
....................          return (-(PI_DIV_BY_TWO)); 
....................          } 
....................          else 
....................          { 
....................          return (PI_DIV_BY_TWO); 
....................          } 
....................       } 
....................    } 
....................    else 
....................    { 
....................       z=y/x; 
....................       switch(quad) 
....................       { 
....................          case 1: 
....................          { 
....................             return atan(z); 
....................             break; 
....................          } 
....................          case 2: 
....................          { 
.................... //            return (atan(z)+PI_DIV_BY_TWO);  //2L3122 
....................             return (PI-atan(z)); 
....................             break; 
....................          } 
....................          case 3: 
....................          { 
....................             return (atan(z)-PI); 
....................             break; 
....................          } 
....................          case 4: 
....................          { 
....................             return (-atan(z)); 
....................             break; 
....................          } 
....................       } 
....................    } 
.................... } 
.................... #endif 
....................  
.................... //////////////////// Hyperbolic functions //////////////////// 
....................  
.................... //////////////////////////////////////////////////////////////////////////// 
.................... //   float cosh(float x) 
.................... //////////////////////////////////////////////////////////////////////////// 
.................... // Description : Computes the hyperbolic cosine value of x 
.................... // Returns : returns the hyperbolic cosine value of x 
.................... // Date : N/A 
.................... // 
....................  
.................... float32 cosh(float32 x) 
.................... { 
....................    return ((exp(x)+exp(-x))/2); 
.................... } 
.................... //Overloaded functions for cosh() for PCD 
.................... // Overloaded function cosh() for data type - Float48 
.................... #if defined(__PCD__) 
.................... float48 cosh(float48 x) 
.................... { 
....................    return ((exp(x)+exp(-x))/2); 
.................... } 
....................  
.................... // Overloaded function cosh() for data type - Float64 
.................... float64 cosh(float64 x) 
.................... { 
....................    return ((exp(x)+exp(-x))/2); 
.................... } 
.................... #endif 
....................  
.................... //////////////////////////////////////////////////////////////////////////// 
.................... //   float sinh(float x) 
.................... //////////////////////////////////////////////////////////////////////////// 
.................... // Description : Computes the hyperbolic sine value of x 
.................... // Returns : returns the hyperbolic sine value of x 
.................... // Date : N/A 
.................... // 
....................  
.................... float32 sinh(float32 x) 
.................... { 
....................  
....................    return ((exp(x) - exp(-x))/2); 
.................... } 
.................... //Overloaded functions for sinh() for PCD 
.................... // Overloaded function sinh() for data type - Float48 
.................... #if defined(__PCD__) 
.................... float48 sinh(float48 x) 
.................... { 
....................  
....................    return ((exp(x) - exp(-x))/2); 
.................... } 
....................  
.................... // Overloaded function sinh() for data type - Float48 
.................... float64 sinh(float64 x) 
.................... { 
....................  
....................    return ((exp(x) - exp(-x))/2); 
.................... } 
.................... #endif 
....................  
.................... //////////////////////////////////////////////////////////////////////////// 
.................... //   float tanh(float x) 
.................... //////////////////////////////////////////////////////////////////////////// 
.................... // Description : Computes the hyperbolic tangent value of x 
.................... // Returns : returns the hyperbolic tangent value of x 
.................... // Date : N/A 
.................... // 
....................  
.................... float32 tanh(float32 x) 
.................... { 
....................    return(sinh(x)/cosh(x)); 
.................... } 
.................... //Overloaded functions for tanh() for PCD 
.................... // Overloaded function tanh() for data type - Float48 
.................... #if defined(__PCD__) 
.................... float48 tanh(float48 x) 
.................... { 
....................    return(sinh(x)/cosh(x)); 
.................... } 
....................  
.................... // Overloaded function tanh() for data type - Float64 
.................... float64 tanh(float64 x) 
.................... { 
....................    return(sinh(x)/cosh(x)); 
.................... } 
.................... #endif 
....................  
.................... //////////////////////////////////////////////////////////////////////////// 
.................... //   float frexp(float x, signed int *exp) 
.................... //////////////////////////////////////////////////////////////////////////// 
.................... // Description : breaks a floating point number into a normalized fraction and an integral 
.................... // power of 2. It stores the integer in the signed int object pointed to by exp. 
.................... // Returns : returns the value x, such that x is a double with magnitude in the interval 
.................... // [1/2,1) or zero, and value equals x times 2 raised to the power *exp.If value is zero, 
.................... // both parts of the result are zero. 
.................... // Date : N/A 
.................... // 
....................  
.................... #define LOG2 .30102999566398119521 
.................... float32 frexp(float32 x, signed int8 *exp) 
.................... { 
....................    float32 res; 
....................    int1 sign = 0; 
....................    if(x == 0.0) 
....................    { 
....................       *exp=0; 
....................       return (0.0); 
....................    } 
....................    if(x < 0.0) 
....................    { 
....................      x=-x; 
....................      sign=1; 
....................    } 
....................    if (x > 1.0) 
....................    { 
....................       *exp=(ceil(log10(x)/LOG2)); 
....................       res=x/(pow(2, *exp)); 
....................       if (res == 1) 
....................       { 
....................          *exp=*exp+1; 
....................           res=.5; 
....................       } 
....................    } 
....................    else 
....................    { 
....................       if(x < 0.5) 
....................       { 
....................          *exp=-1; 
....................          res=x*2; 
....................       } 
....................       else 
....................       { 
....................          *exp=0; 
....................           res=x; 
....................       } 
....................    } 
....................    if(sign) 
....................    { 
....................       res=-res; 
....................    } 
....................    return res; 
.................... } 
....................  
.................... //Overloaded functions for frexp() for PCD 
.................... // Overloaded function frexp() for data type - Float48 
.................... #if defined(__PCD__) 
.................... float48 frexp(float48 x, signed int8 *exp) 
.................... { 
....................    float48 res; 
....................    int1 sign = 0; 
....................    if(x == 0.0) 
....................    { 
....................       *exp=0; 
....................       return (0.0); 
....................    } 
....................    if(x < 0.0) 
....................    { 
....................      x=-x; 
....................      sign=1; 
....................    } 
....................    if (x > 1.0) 
....................    { 
....................       *exp=(ceil(log10(x)/LOG2)); 
....................       res=x/(pow(2, *exp)); 
....................       if (res == 1) 
....................       { 
....................          *exp=*exp+1; 
....................           res=.5; 
....................       } 
....................    } 
....................    else 
....................    { 
....................       if(x < 0.5) 
....................       { 
....................          *exp=-1; 
....................          res=x*2; 
....................       } 
....................       else 
....................       { 
....................          *exp=0; 
....................           res=x; 
....................       } 
....................    } 
....................    if(sign) 
....................    { 
....................       res=-res; 
....................    } 
....................    return res; 
.................... } 
....................  
.................... // Overloaded function frexp() for data type - Float64 
.................... float64 frexp(float64 x, signed int8 *exp) 
.................... { 
....................    float64 res; 
....................    int1 sign = 0; 
....................    if(x == 0.0) 
....................    { 
....................       *exp=0; 
....................       return (0.0); 
....................    } 
....................    if(x < 0.0) 
....................    { 
....................      x=-x; 
....................      sign=1; 
....................    } 
....................    if (x > 1.0) 
....................    { 
....................       *exp=(ceil(log10(x)/LOG2)); 
....................       res=x/(pow(2, *exp)); 
....................       if (res == 1) 
....................       { 
....................          *exp=*exp+1; 
....................           res=.5; 
....................       } 
....................    } 
....................    else 
....................    { 
....................       if(x < 0.5) 
....................       { 
....................          *exp=-1; 
....................          res=x*2; 
....................       } 
....................       else 
....................       { 
....................          *exp=0; 
....................           res=x; 
....................       } 
....................    } 
....................    if(sign) 
....................    { 
....................       res=-res; 
....................    } 
....................    return res; 
.................... } 
.................... #endif 
....................  
.................... ////////////////////////////////////////////////////////////////////////////// 
.................... //   float ldexp(float x, signed int *exp) 
.................... ////////////////////////////////////////////////////////////////////////////// 
.................... // Description : multiplies a floating point number by an integral power of 2. 
.................... // Returns : returns the value of x times 2 raised to the power exp. 
.................... // Date : N/A 
.................... // 
....................  
.................... float32 ldexp(float32 value, signed int8 exp) 
.................... { 
....................    return (value * pow(2,exp)); 
.................... } 
.................... //Overloaded functions for ldexp() for PCD 
.................... // Overloaded function ldexp() for data type - Float48 
....................  
.................... #if defined(__PCD__) 
.................... float48 ldexp(float48 value, signed int8 exp) 
.................... { 
....................    return (value * pow(2,exp)); 
.................... } 
.................... // Overloaded function ldexp() for data type - Float64 
.................... float64 ldexp(float64 value, signed int8 exp) 
.................... { 
....................    return (value * pow(2,exp)); 
.................... } 
.................... #endif 
....................  
.................... #endif 
....................  
.................... #include <DS1302.c> 
.................... ////////////////////////////////////////////////////////////////////////// 
.................... ////                               DS1302.C                           //// 
.................... ////                     Driver for Real Time Clock                   //// 
.................... ////                                                                  //// 
.................... ////  rtc_init()                                   Call after power up//// 
.................... ////                                                                  //// 
.................... ////  rtc_set_datetime(day,mth,year,dow,hour,min)  Set the date/time  //// 
.................... ////                                                                  //// 
.................... ////  rtc_get_date(day,mth,year,dow)               Get the date       //// 
.................... ////                                                                  //// 
.................... ////  rtc_get_time(hr,min,sec)                     Get the time       //// 
.................... ////                                                                  //// 
.................... ////  rtc_write_nvr(address,data)                  Write to NVR       //// 
.................... ////                                                                  //// 
.................... ////  data = rtc_read_nvr(address)                 Read from NVR      //// 
.................... ////                                                                  //// 
.................... ////  get_bcd(data)                              Convert data to BCD  //// 
.................... ////                                                                  //// 
.................... ////  rm_bcd(data)                               Convert data to int  //// 
.................... ////                                                                  //// 
.................... ////////////////////////////////////////////////////////////////////////// 
.................... ////        (C) Copyright 1996,2003 Custom Computer Services          //// 
.................... //// This source code may only be used by licensed users of the CCS C //// 
.................... //// compiler.  This source code may only be distributed to other     //// 
.................... //// licensed users of the CCS C compiler.  No other use, reproduction//// 
.................... //// or distribution is permitted without written permission.         //// 
.................... //// Derivative programs created using this software in object code   //// 
.................... //// form are not restricted in any way.                              //// 
.................... ////////////////////////////////////////////////////////////////////////// 
....................  
.................... //#ifndef RTC_SCLK 
....................  
.................... #define RTC_SCLK PIN_C3 
.................... #define RTC_IO   PIN_C2 
.................... #define RTC_RST  PIN_C1 
....................  
.................... //#endif 
....................  
.................... void write_ds1302_byte(BYTE cmd) { 
....................    BYTE i; 
....................  
....................    for(i=0;i<=7;++i) { 
*
036CC:  MOVLB  7
036CE:  CLRF   xE7
036D0:  MOVF   xE7,W
036D2:  SUBLW  07
036D4:  BNC   36F0
....................       output_bit(RTC_IO, shift_right(&cmd,1,0) ); 
036D6:  BCF    FD8.0
036D8:  RRCF   xE6,F
036DA:  BC    36E0
036DC:  BCF    F8B.2
036DE:  BRA    36E2
036E0:  BSF    F8B.2
036E2:  BCF    F94.2
....................       output_high(RTC_SCLK); 
036E4:  BCF    F94.3
036E6:  BSF    F8B.3
....................       output_low(RTC_SCLK); 
036E8:  BCF    F94.3
036EA:  BCF    F8B.3
....................    } 
036EC:  INCF   xE7,F
036EE:  BRA    36D0
.................... } 
036F0:  MOVLB  0
036F2:  RETLW  00
....................  
.................... void write_ds1302(BYTE cmd, BYTE data) { 
....................  
....................    output_high(RTC_RST); 
036F4:  BCF    F94.1
036F6:  BSF    F8B.1
....................    write_ds1302_byte(cmd); 
036F8:  MOVFF  7E4,7E6
036FC:  RCALL  36CC
....................    write_ds1302_byte(data); 
036FE:  MOVFF  7E5,7E6
03702:  RCALL  36CC
....................    output_low(RTC_RST); 
03704:  BCF    F94.1
03706:  BCF    F8B.1
.................... } 
03708:  RETLW  00
....................  
.................... BYTE read_ds1302(BYTE cmd) { 
....................    BYTE i,data; 
....................  
....................    output_high(RTC_RST); 
0370A:  BCF    F94.1
0370C:  BSF    F8B.1
....................    write_ds1302_byte(cmd); 
0370E:  MOVFF  7E1,7E6
03712:  RCALL  36CC
....................     
....................    input(RTC_IO); 
03714:  BSF    F94.2
....................    delay_us(10); 
03716:  MOVLW  10
03718:  MOVWF  00
0371A:  DECFSZ 00,F
0371C:  BRA    371A
0371E:  NOP   
....................           
....................    for(i=0;i<=7;++i) { 
03720:  MOVLB  7
03722:  CLRF   xE2
03724:  MOVF   xE2,W
03726:  SUBLW  07
03728:  BNC   3754
....................       shift_right(&data,1,input(RTC_IO)); 
0372A:  BSF    F94.2
0372C:  BTFSC  F82.2
0372E:  BRA    3734
03730:  BCF    FD8.0
03732:  BRA    3736
03734:  BSF    FD8.0
03736:  RRCF   xE3,F
....................       output_high(RTC_SCLK); 
03738:  BCF    F94.3
0373A:  BSF    F8B.3
....................       delay_us(20); 
0373C:  MOVLW  21
0373E:  MOVWF  00
03740:  DECFSZ 00,F
03742:  BRA    3740
....................       output_low(RTC_SCLK); 
03744:  BCF    F94.3
03746:  BCF    F8B.3
....................       delay_us(20); 
03748:  MOVLW  21
0374A:  MOVWF  00
0374C:  DECFSZ 00,F
0374E:  BRA    374C
....................    } 
03750:  INCF   xE2,F
03752:  BRA    3724
....................    output_low(RTC_RST); 
03754:  BCF    F94.1
03756:  BCF    F8B.1
....................  
....................    return(data); 
03758:  MOVFF  7E3,01
.................... } 
0375C:  MOVLB  0
0375E:  RETLW  00
....................  
.................... void rtc_init() { 
....................    BYTE x; 
....................    output_low(RTC_RST); 
03760:  BCF    F94.1
03762:  BCF    F8B.1
....................    delay_us(20); 
03764:  MOVLW  21
03766:  MOVWF  00
03768:  DECFSZ 00,F
0376A:  BRA    3768
....................    output_low(RTC_SCLK); 
0376C:  BCF    F94.3
0376E:  BCF    F8B.3
....................    write_ds1302(0x8e,0); 
03770:  MOVLW  8E
03772:  MOVLB  7
03774:  MOVWF  xE4
03776:  CLRF   xE5
03778:  MOVLB  0
0377A:  RCALL  36F4
....................    write_ds1302(0x90,0xa4); 
0377C:  MOVLW  90
0377E:  MOVLB  7
03780:  MOVWF  xE4
03782:  MOVLW  A4
03784:  MOVWF  xE5
03786:  MOVLB  0
03788:  RCALL  36F4
....................    x=read_ds1302(0x81); 
0378A:  MOVLW  81
0378C:  MOVLB  7
0378E:  MOVWF  xE1
03790:  MOVLB  0
03792:  RCALL  370A
03794:  MOVFF  01,7DD
....................    if((x & 0x80)!=0) 
03798:  MOVLB  7
0379A:  MOVF   xDD,W
0379C:  ANDLW  80
0379E:  BZ    37AC
....................      write_ds1302(0x80,0); 
037A0:  MOVLW  80
037A2:  MOVWF  xE4
037A4:  CLRF   xE5
037A6:  MOVLB  0
037A8:  RCALL  36F4
037AA:  MOVLB  7
.................... } 
037AC:  MOVLB  0
037AE:  GOTO   8674 (RETURN)
....................  
.................... byte get_bcd(BYTE data) 
.................... { 
....................    byte nibh; 
....................    byte nibl; 
....................  
....................    nibh=data/10; 
*
0472E:  MOVFF  7E3,7F2
04732:  MOVLW  0A
04734:  MOVLB  7
04736:  MOVWF  xF3
04738:  MOVLB  0
0473A:  CALL   1FE6
0473E:  MOVFF  01,7E4
....................    nibl=data-(nibh*10); 
04742:  MOVLB  7
04744:  MOVF   xE4,W
04746:  MULLW  0A
04748:  MOVF   FF3,W
0474A:  SUBWF  xE3,W
0474C:  MOVWF  xE5
....................  
....................    return((nibh<<4)|nibl); 
0474E:  SWAPF  xE4,W
04750:  MOVWF  00
04752:  MOVLW  F0
04754:  ANDWF  00,F
04756:  MOVF   00,W
04758:  IORWF  xE5,W
0475A:  MOVWF  01
.................... } 
0475C:  MOVLB  0
0475E:  RETLW  00
....................  
.................... byte rm_bcd(BYTE data) 
.................... { 
....................    byte i; 
....................  
....................    i=data; 
*
037BA:  MOVFF  7E2,7E3
....................    data=(i>>4)*10; 
037BE:  MOVLB  7
037C0:  SWAPF  xE3,W
037C2:  MOVWF  00
037C4:  MOVLW  0F
037C6:  ANDWF  00,F
037C8:  MOVF   00,W
037CA:  MULLW  0A
037CC:  MOVFF  FF3,7E2
....................    data=data+(i<<4>>4); 
037D0:  SWAPF  xE3,W
037D2:  MOVWF  00
037D4:  MOVLW  F0
037D6:  ANDWF  00,F
037D8:  MOVF   00,W
037DA:  SWAPF  00,F
037DC:  MOVLW  0F
037DE:  ANDWF  00,F
037E0:  MOVF   00,W
037E2:  ADDWF  xE2,F
....................  
....................    return data; 
037E4:  MOVFF  7E2,01
.................... } 
037E8:  MOVLB  0
037EA:  RETLW  00
....................  
.................... void rtc_set_datetime(BYTE day, BYTE mth, BYTE year, BYTE dow, BYTE hr, BYTE min) { 
....................  
....................    write_ds1302(0x86,get_bcd(day)); 
*
04760:  MOVFF  7DD,7E3
04764:  RCALL  472E
04766:  MOVFF  01,7E3
0476A:  MOVLW  86
0476C:  MOVLB  7
0476E:  MOVWF  xE4
04770:  MOVFF  01,7E5
04774:  MOVLB  0
04776:  CALL   36F4
....................    write_ds1302(0x88,get_bcd(mth)); 
0477A:  MOVFF  7DE,7E3
0477E:  RCALL  472E
04780:  MOVFF  01,7E3
04784:  MOVLW  88
04786:  MOVLB  7
04788:  MOVWF  xE4
0478A:  MOVFF  01,7E5
0478E:  MOVLB  0
04790:  CALL   36F4
....................    write_ds1302(0x8c,get_bcd(year)); 
04794:  MOVFF  7DF,7E3
04798:  RCALL  472E
0479A:  MOVFF  01,7E3
0479E:  MOVLW  8C
047A0:  MOVLB  7
047A2:  MOVWF  xE4
047A4:  MOVFF  01,7E5
047A8:  MOVLB  0
047AA:  CALL   36F4
....................    write_ds1302(0x8a,get_bcd(dow)); 
047AE:  MOVFF  7E0,7E3
047B2:  RCALL  472E
047B4:  MOVFF  01,7E3
047B8:  MOVLW  8A
047BA:  MOVLB  7
047BC:  MOVWF  xE4
047BE:  MOVFF  01,7E5
047C2:  MOVLB  0
047C4:  CALL   36F4
....................    write_ds1302(0x84,get_bcd(hr)); 
047C8:  MOVFF  7E1,7E3
047CC:  RCALL  472E
047CE:  MOVFF  01,7E3
047D2:  MOVLW  84
047D4:  MOVLB  7
047D6:  MOVWF  xE4
047D8:  MOVFF  01,7E5
047DC:  MOVLB  0
047DE:  CALL   36F4
....................    write_ds1302(0x82,get_bcd(min)); 
047E2:  MOVFF  7E2,7E3
047E6:  RCALL  472E
047E8:  MOVFF  01,7E3
047EC:  MOVLW  82
047EE:  MOVLB  7
047F0:  MOVWF  xE4
047F2:  MOVFF  01,7E5
047F6:  MOVLB  0
047F8:  CALL   36F4
....................    write_ds1302(0x80,get_bcd(0)); 
047FC:  MOVLB  7
047FE:  CLRF   xE3
04800:  MOVLB  0
04802:  RCALL  472E
04804:  MOVFF  01,7E3
04808:  MOVLW  80
0480A:  MOVLB  7
0480C:  MOVWF  xE4
0480E:  MOVFF  01,7E5
04812:  MOVLB  0
04814:  CALL   36F4
.................... } 
04818:  GOTO   B22C (RETURN)
....................  
.................... void rtc_get_date(BYTE& day, BYTE& mth, BYTE& year, BYTE& dow) { 
....................    day = rm_bcd(read_ds1302(0x87)); 
*
086AE:  MOVLW  87
086B0:  MOVLB  7
086B2:  MOVWF  xE1
086B4:  MOVLB  0
086B6:  CALL   370A
086BA:  MOVFF  01,7DD
086BE:  MOVFF  01,7E2
086C2:  CALL   37BA
086C6:  MOVFF  01,795
*
08804:  MOVLW  87
08806:  MOVLB  7
08808:  MOVWF  xE1
0880A:  MOVLB  0
0880C:  CALL   370A
08810:  MOVFF  01,7DD
08814:  MOVFF  01,7E2
08818:  CALL   37BA
0881C:  MOVFF  01,795
*
0B278:  MOVLW  87
0B27A:  MOVLB  7
0B27C:  MOVWF  xE1
0B27E:  MOVLB  0
0B280:  CALL   370A
0B284:  MOVFF  01,7DD
0B288:  MOVFF  01,7E2
0B28C:  CALL   37BA
0B290:  MOVFF  01,795
....................    mth = rm_bcd(read_ds1302(0x89)); 
*
086CA:  MOVLW  89
086CC:  MOVLB  7
086CE:  MOVWF  xE1
086D0:  MOVLB  0
086D2:  CALL   370A
086D6:  MOVFF  01,7DD
086DA:  MOVFF  01,7E2
086DE:  CALL   37BA
086E2:  MOVFF  01,79A
*
08820:  MOVLW  89
08822:  MOVLB  7
08824:  MOVWF  xE1
08826:  MOVLB  0
08828:  CALL   370A
0882C:  MOVFF  01,7DD
08830:  MOVFF  01,7E2
08834:  CALL   37BA
08838:  MOVFF  01,79A
*
0B294:  MOVLW  89
0B296:  MOVLB  7
0B298:  MOVWF  xE1
0B29A:  MOVLB  0
0B29C:  CALL   370A
0B2A0:  MOVFF  01,7DD
0B2A4:  MOVFF  01,7E2
0B2A8:  CALL   37BA
0B2AC:  MOVFF  01,79A
....................    year = rm_bcd(read_ds1302(0x8d)); 
*
086E6:  MOVLW  8D
086E8:  MOVLB  7
086EA:  MOVWF  xE1
086EC:  MOVLB  0
086EE:  CALL   370A
086F2:  MOVFF  01,7DD
086F6:  MOVFF  01,7E2
086FA:  CALL   37BA
086FE:  MOVFF  01,793
*
0883C:  MOVLW  8D
0883E:  MOVLB  7
08840:  MOVWF  xE1
08842:  MOVLB  0
08844:  CALL   370A
08848:  MOVFF  01,7DD
0884C:  MOVFF  01,7E2
08850:  CALL   37BA
08854:  MOVFF  01,793
*
0B2B0:  MOVLW  8D
0B2B2:  MOVLB  7
0B2B4:  MOVWF  xE1
0B2B6:  MOVLB  0
0B2B8:  CALL   370A
0B2BC:  MOVFF  01,7DD
0B2C0:  MOVFF  01,7E2
0B2C4:  CALL   37BA
0B2C8:  MOVFF  01,793
....................    dow = rm_bcd(read_ds1302(0x8b)); 
*
08702:  MOVLW  8B
08704:  MOVLB  7
08706:  MOVWF  xE1
08708:  MOVLB  0
0870A:  CALL   370A
0870E:  MOVFF  01,7DD
08712:  MOVFF  01,7E2
08716:  CALL   37BA
0871A:  MOVFF  01,799
*
08858:  MOVLW  8B
0885A:  MOVLB  7
0885C:  MOVWF  xE1
0885E:  MOVLB  0
08860:  CALL   370A
08864:  MOVFF  01,7DD
08868:  MOVFF  01,7E2
0886C:  CALL   37BA
08870:  MOVFF  01,799
*
0B2CC:  MOVLW  8B
0B2CE:  MOVLB  7
0B2D0:  MOVWF  xE1
0B2D2:  MOVLB  0
0B2D4:  CALL   370A
0B2D8:  MOVFF  01,7DD
0B2DC:  MOVFF  01,7E2
0B2E0:  CALL   37BA
0B2E4:  MOVFF  01,799
.................... } 
....................  
.................... void rtc_get_time(BYTE& hr, BYTE& min, BYTE& sec) { 
....................    hr = rm_bcd(read_ds1302(0x85)); 
*
0871E:  MOVLW  85
08720:  MOVLB  7
08722:  MOVWF  xE1
08724:  MOVLB  0
08726:  CALL   370A
0872A:  MOVFF  01,7DD
0872E:  MOVFF  01,7E2
08732:  CALL   37BA
08736:  MOVFF  01,796
*
08874:  MOVLW  85
08876:  MOVLB  7
08878:  MOVWF  xE1
0887A:  MOVLB  0
0887C:  CALL   370A
08880:  MOVFF  01,7DD
08884:  MOVFF  01,7E2
08888:  CALL   37BA
0888C:  MOVFF  01,796
*
0B2E8:  MOVLW  85
0B2EA:  MOVLB  7
0B2EC:  MOVWF  xE1
0B2EE:  MOVLB  0
0B2F0:  CALL   370A
0B2F4:  MOVFF  01,7DD
0B2F8:  MOVFF  01,7E2
0B2FC:  CALL   37BA
0B300:  MOVFF  01,796
....................    min = rm_bcd(read_ds1302(0x83)); 
*
0873A:  MOVLW  83
0873C:  MOVLB  7
0873E:  MOVWF  xE1
08740:  MOVLB  0
08742:  CALL   370A
08746:  MOVFF  01,7DD
0874A:  MOVFF  01,7E2
0874E:  CALL   37BA
08752:  MOVFF  01,797
*
08890:  MOVLW  83
08892:  MOVLB  7
08894:  MOVWF  xE1
08896:  MOVLB  0
08898:  CALL   370A
0889C:  MOVFF  01,7DD
088A0:  MOVFF  01,7E2
088A4:  CALL   37BA
088A8:  MOVFF  01,797
*
0B304:  MOVLW  83
0B306:  MOVLB  7
0B308:  MOVWF  xE1
0B30A:  MOVLB  0
0B30C:  CALL   370A
0B310:  MOVFF  01,7DD
0B314:  MOVFF  01,7E2
0B318:  CALL   37BA
0B31C:  MOVFF  01,797
....................    sec = rm_bcd(read_ds1302(0x81)); 
*
08756:  MOVLW  81
08758:  MOVLB  7
0875A:  MOVWF  xE1
0875C:  MOVLB  0
0875E:  CALL   370A
08762:  MOVFF  01,7DD
08766:  MOVFF  01,7E2
0876A:  CALL   37BA
0876E:  MOVFF  01,798
*
088AC:  MOVLW  81
088AE:  MOVLB  7
088B0:  MOVWF  xE1
088B2:  MOVLB  0
088B4:  CALL   370A
088B8:  MOVFF  01,7DD
088BC:  MOVFF  01,7E2
088C0:  CALL   37BA
088C4:  MOVFF  01,798
*
0B320:  MOVLW  81
0B322:  MOVLB  7
0B324:  MOVWF  xE1
0B326:  MOVLB  0
0B328:  CALL   370A
0B32C:  MOVFF  01,7DD
0B330:  MOVFF  01,7E2
0B334:  CALL   37BA
0B338:  MOVFF  01,798
.................... } 
....................  
.................... void rtc_write_nvr(BYTE address, BYTE data) { 
....................    write_ds1302(address|0xc0,data); 
.................... } 
....................  
.................... BYTE rtc_read_nvr(BYTE address) { 
....................     return(read_ds1302(address|0xc1)); 
.................... } 
....................  
....................  
.................... // Definicin de teclado - NO 
.................... #define   UP               !input(PIN_A5) 
.................... #define   DOWN             !input(PIN_E0) 
.................... #define   RIGHT            !input(PIN_E1) 
.................... #define   LEFT             !input(PIN_E2) 
....................  
.................... #define   DOOR             input(PIN_A4) 
.................... #define   TERM             input(PIN_A3) 
....................  
.................... #define   Resistencia_on   output_bit(PIN_C0,1) 
.................... #define   Resistencia_off  output_bit(PIN_C0,0) 
.................... #define   Buzz_on          output_bit(PIN_C4,1) 
.................... #define   Buzz_off         output_bit(PIN_C4,0) 
....................  
.................... float promedio[90]={0.0,0.0,0.0,0.0,0.0,0.0,0.0,0.0,0.0,0.0,0.0,0.0,0.0,0.0,0.0,0.0,0.0,0.0,0.0,0.0,0.0,0.0,0.0,0.0,0.0,0.0,0.0,0.0,0.0,0.0,0.0,0.0,0.0,0.0,0.0,0.0,0.0,0.0,0.0,0.0,0.0,0.0,0.0,0.0,0.0,0.0,0.0,0.0,0.0,0.0,0.0,0.0,0.0,0.0,0.0,0.0,0.0,0.0,0.0,0.0,0.0,0.0,0.0,0.0,0.0,0.0,0.0,0.0,0.0,0.0,0.0,0.0,0.0,0.0}; 
.................... float X[2]={0.0,0.0}; 
.................... short flagup=0,flagdn=0,Desconectado=0,ActivaImpresion=0,flagImprime=0; 
.................... int8 h=0,l=0,Ajuste=0,Ajusten=0,MediaMovil=10,tiemporecta=0,flag_ganancia=0,Lectura2=0,tiempoup=0,tiempodn=0,Segmentos=0,Segmento=0,Modo=5; 
.................... short Flanco=0,Flanco1=0,Flanco2=0,visual=1,Lectura=0,flag_calcula=0; 
.................... short flag_clear2=0,flag_tiempocalentamiento=0,flag_display=0,flag_setpoint=0,Dibuja=0; 
.................... int8 y=0,tiemporeset=0,Programa=1,Control=0; 
.................... int8 Menu=0, unidad=1,i=0,j=1,Pausa=0,Pausa_ant=0,TiempoControl=0; 
.................... int8 Opcion=1,tiempo_esterilizacion=0,ProgramaSeleccionado=0,Alarma=10; 
.................... int16 tiempos=0,tiempos3=0,tiempoctrl=0,tinicio=0,tiempocalentamiento=0,tiemposetpoint=0,Tp=0,Tc=0,CalculoImpresion=0,tiempoImpresion=0,timpresion=0; 
.................... float PendienteMinutos=0,TempeInicial=20,Tiempo=0,TiempoActual=0,PendienteActual=0,HorasActual=0,MinutosActual=0,TiempoRampa=0; 
.................... float Potencia=0.0,PotenciaEntregada=0.0; 
.................... signed int  Testerilizacion[4]={0,0,0,0};   // Tiempo transcurrido 
.................... signed int  Testerilizacionp[4]={0,0,0,0};   // Tiempo transcurrido 
.................... signed int  Contrasena[4]={0,0,0,0};      // Contrasena de 4 digitos 
.................... signed int  Password[4]={0,0,0,0};        // Contrasena Almacenada de 4 digitos 
.................... float V0=0.0,Tciclo=10.0,Tpulso=0.0,error=0.0,Prom=0.0,Temperature=0.0,tmp=0.0,GananciaIn=0,Ganancia=3.0,desvio=3.0,Coeficiente=150.0,AlTem=20.0,resistencia=240.0; 
.................... float Aumento=0.0,Temperatura=0.0,Pendiente=0.0,DifPendiente=0.0,Setpoint=0,Integral=0,Derivativo=0,m=0,b=0,adcSup=0,adcInf=0,Tsup=1250,Tinf=0,penMufla=50; 
.................... float TemperaturaIdeal=0,penInicial=0; 
.................... signed int16 Temperatura1[50]; 
.................... signed int16 Horas1[50]; 
.................... signed int16 Minutos1[50]; 
.................... int8 Year=18,Mess=9,Dia=13,Hora=0,Minuto=0,Segundo=0,dow=0,Mes=9,Modulo=0; 
.................... int8 YearTx=0,MesTx=0,DiaTx=0,HoraTx=0,MinutoTx=0,SegundoTx=0,dowTx=0,SetTime=0,Imprime=0; 
.................... /* Tabla de Modulos, Primera Fila Ao Regular y el siguiente ao Bisiesto 
.................... E   F   M   A   M   J   J   A   S   O   N   D 
.................... 0   3   3   6   1   4   6   2   5   0   3   5 
.................... 0   3   4   0   2   5   0   3   6   1   4   6 
.................... */ 
.................... int8 Regular[12]={0,3,3,6,1,4,6,2,5,0,3,5}; 
.................... int8 Bisiesto[12]={0,3,4,0,2,5,0,3,6,1,4,6}; 
....................  
.................... #include <Funciones.h> 
.................... //Funciones utilizadas en la Mufla 
....................  
.................... typedef struct{ 
....................    char Letra[30]; 
.................... }MENUU; 
....................  
.................... MENUU Menus; 
....................  
.................... void ActualizaRecta(){ 
....................    X[y]=Temperatura; 
*
0607A:  MOVLB  5
0607C:  MOVF   x96,W
0607E:  MULLW  04
06080:  MOVF   FF3,W
06082:  CLRF   03
06084:  ADDLW  7F
06086:  MOVWF  FE9
06088:  MOVLW  05
0608A:  ADDWFC 03,W
0608C:  MOVWF  FEA
0608E:  MOVFF  62B,FEF
06092:  MOVFF  62C,FEC
06096:  MOVFF  62D,FEC
0609A:  MOVFF  62E,FEC
....................    y++; 
0609E:  INCF   x96,F
....................    if(y>=2) 
060A0:  MOVF   x96,W
060A2:  SUBLW  01
060A4:  BTFSC  FD8.0
060A6:  BRA    6356
....................    { 
....................       y=0; 
060A8:  CLRF   x96
....................       Aumento=X[1]-X[0]; 
060AA:  BSF    FD8.1
060AC:  MOVFF  586,7E6
060B0:  MOVFF  585,7E5
060B4:  MOVFF  584,7E4
060B8:  MOVFF  583,7E3
060BC:  MOVFF  582,7EA
060C0:  MOVFF  581,7E9
060C4:  MOVFF  580,7E8
060C8:  MOVFF  57F,7E7
060CC:  MOVLB  0
060CE:  CALL   2FB0
060D2:  MOVFF  03,62A
060D6:  MOVFF  02,629
060DA:  MOVFF  01,628
060DE:  MOVFF  00,627
....................       HorasActual=(Testerilizacion[3]*10)+Testerilizacion[2]; 
060E2:  MOVFF  5E6,7FE
060E6:  MOVLW  0A
060E8:  MOVLB  7
060EA:  MOVWF  xFF
060EC:  MOVLB  0
060EE:  CALL   3BBA
060F2:  MOVLB  5
060F4:  MOVF   xE5,W
060F6:  ADDWF  01,W
060F8:  MOVLB  7
060FA:  CLRF   xE2
060FC:  MOVWF  xE1
060FE:  BTFSC  xE1.7
06100:  DECF   xE2,F
06102:  MOVLB  0
06104:  CALL   3B6A
06108:  MOVFF  03,5D2
0610C:  MOVFF  02,5D1
06110:  MOVFF  01,5D0
06114:  MOVFF  00,5CF
....................       MinutosActual=(Testerilizacion[1]*10)+Testerilizacion[0]; 
06118:  MOVFF  5E4,7FE
0611C:  MOVLW  0A
0611E:  MOVLB  7
06120:  MOVWF  xFF
06122:  MOVLB  0
06124:  CALL   3BBA
06128:  MOVLB  5
0612A:  MOVF   xE3,W
0612C:  ADDWF  01,W
0612E:  MOVLB  7
06130:  CLRF   xE2
06132:  MOVWF  xE1
06134:  BTFSC  xE1.7
06136:  DECF   xE2,F
06138:  MOVLB  0
0613A:  CALL   3B6A
0613E:  MOVFF  03,5D6
06142:  MOVFF  02,5D5
06146:  MOVFF  01,5D4
0614A:  MOVFF  00,5D3
....................       TiempoActual=Tiempo-((HorasActual*3600)+(MinutosActual*60)+tinicio); 
0614E:  MOVFF  5D2,7FD
06152:  MOVFF  5D1,7FC
06156:  MOVFF  5D0,7FB
0615A:  MOVFF  5CF,7FA
0615E:  MOVLB  8
06160:  CLRF   x01
06162:  CLRF   x00
06164:  MOVLW  61
06166:  MOVLB  7
06168:  MOVWF  xFF
0616A:  MOVLW  8A
0616C:  MOVWF  xFE
0616E:  MOVLB  0
06170:  CALL   3386
06174:  MOVFF  00,7DD
06178:  MOVFF  01,7DE
0617C:  MOVFF  02,7DF
06180:  MOVFF  03,7E0
06184:  MOVFF  5D6,7FD
06188:  MOVFF  5D5,7FC
0618C:  MOVFF  5D4,7FB
06190:  MOVFF  5D3,7FA
06194:  MOVLB  8
06196:  CLRF   x01
06198:  CLRF   x00
0619A:  MOVLW  70
0619C:  MOVLB  7
0619E:  MOVWF  xFF
061A0:  MOVLW  84
061A2:  MOVWF  xFE
061A4:  MOVLB  0
061A6:  CALL   3386
061AA:  BCF    FD8.1
061AC:  MOVFF  7E0,7E6
061B0:  MOVFF  7DF,7E5
061B4:  MOVFF  7DE,7E4
061B8:  MOVFF  7DD,7E3
061BC:  MOVFF  03,7EA
061C0:  MOVFF  02,7E9
061C4:  MOVFF  01,7E8
061C8:  MOVFF  00,7E7
061CC:  CALL   2FB0
061D0:  MOVFF  00,7DD
061D4:  MOVFF  01,7DE
061D8:  MOVFF  02,7DF
061DC:  MOVFF  03,7E0
061E0:  MOVFF  5AC,7E4
061E4:  MOVFF  5AB,7E3
061E8:  CALL   21C8
061EC:  BCF    FD8.1
061EE:  MOVFF  7E0,7E6
061F2:  MOVFF  7DF,7E5
061F6:  MOVFF  7DE,7E4
061FA:  MOVFF  7DD,7E3
061FE:  MOVFF  03,7EA
06202:  MOVFF  02,7E9
06206:  MOVFF  01,7E8
0620A:  MOVFF  00,7E7
0620E:  CALL   2FB0
06212:  BSF    FD8.1
06214:  MOVFF  5C6,7E6
06218:  MOVFF  5C5,7E5
0621C:  MOVFF  5C4,7E4
06220:  MOVFF  5C3,7E3
06224:  MOVFF  03,7EA
06228:  MOVFF  02,7E9
0622C:  MOVFF  01,7E8
06230:  MOVFF  00,7E7
06234:  CALL   2FB0
06238:  MOVFF  03,5CA
0623C:  MOVFF  02,5C9
06240:  MOVFF  01,5C8
06244:  MOVFF  00,5C7
....................       PendienteActual=((Setpoint-Temperatura)/TiempoActual); 
06248:  BSF    FD8.1
0624A:  MOVFF  63A,7E6
0624E:  MOVFF  639,7E5
06252:  MOVFF  638,7E4
06256:  MOVFF  637,7E3
0625A:  MOVFF  62E,7EA
0625E:  MOVFF  62D,7E9
06262:  MOVFF  62C,7E8
06266:  MOVFF  62B,7E7
0626A:  CALL   2FB0
0626E:  MOVFF  00,7DD
06272:  MOVFF  01,7DE
06276:  MOVFF  02,7DF
0627A:  MOVFF  03,7E0
0627E:  MOVFF  03,7E4
06282:  MOVFF  02,7E3
06286:  MOVFF  01,7E2
0628A:  MOVFF  00,7E1
0628E:  MOVFF  5CA,7E8
06292:  MOVFF  5C9,7E7
06296:  MOVFF  5C8,7E6
0629A:  MOVFF  5C7,7E5
0629E:  CALL   3228
062A2:  MOVFF  03,5CE
062A6:  MOVFF  02,5CD
062AA:  MOVFF  01,5CC
062AE:  MOVFF  00,5CB
....................       DifPendiente=(PendienteActual*20)-Aumento; 
062B2:  MOVFF  5CE,7FD
062B6:  MOVFF  5CD,7FC
062BA:  MOVFF  5CC,7FB
062BE:  MOVFF  5CB,7FA
062C2:  MOVLB  8
062C4:  CLRF   x01
062C6:  CLRF   x00
062C8:  MOVLW  20
062CA:  MOVLB  7
062CC:  MOVWF  xFF
062CE:  MOVLW  83
062D0:  MOVWF  xFE
062D2:  MOVLB  0
062D4:  CALL   3386
062D8:  MOVFF  00,7DD
062DC:  MOVFF  01,7DE
062E0:  MOVFF  02,7DF
062E4:  MOVFF  03,7E0
062E8:  BSF    FD8.1
062EA:  MOVFF  03,7E6
062EE:  MOVFF  02,7E5
062F2:  MOVFF  01,7E4
062F6:  MOVFF  00,7E3
062FA:  MOVFF  62A,7EA
062FE:  MOVFF  629,7E9
06302:  MOVFF  628,7E8
06306:  MOVFF  627,7E7
0630A:  CALL   2FB0
0630E:  MOVFF  03,636
06312:  MOVFF  02,635
06316:  MOVFF  01,634
0631A:  MOVFF  00,633
....................       DifPendiente=DifPendiente*5; 
0631E:  MOVFF  636,7FD
06322:  MOVFF  635,7FC
06326:  MOVFF  634,7FB
0632A:  MOVFF  633,7FA
0632E:  MOVLB  8
06330:  CLRF   x01
06332:  CLRF   x00
06334:  MOVLW  20
06336:  MOVLB  7
06338:  MOVWF  xFF
0633A:  MOVLW  81
0633C:  MOVWF  xFE
0633E:  MOVLB  0
06340:  CALL   3386
06344:  MOVFF  03,636
06348:  MOVFF  02,635
0634C:  MOVFF  01,634
06350:  MOVFF  00,633
06354:  MOVLB  5
....................       //penMufla=(6000*(Aumento/20))/PotenciaEntregada; 
....................    } 
.................... } 
06356:  MOVLB  0
06358:  GOTO   63A4 (RETURN)
....................  
.................... // Funcion para conversor analogo-digital 
.................... float sensores(int x){ 
.................... float y;set_adc_channel(x);delay_ms(1);y=read_adc();return (y); 
*
02F36:  MOVLB  7
02F38:  RLCF   xDE,W
02F3A:  MOVWF  00
02F3C:  RLCF   00,F
02F3E:  MOVLW  FC
02F40:  ANDWF  00,F
02F42:  MOVFF  00,01
02F46:  MOVF   FC2,W
02F48:  ANDLW  C3
02F4A:  IORWF  00,W
02F4C:  MOVWF  FC2
02F4E:  MOVLW  01
02F50:  MOVWF  xE3
02F52:  MOVLB  0
02F54:  CALL   1800
02F58:  BSF    FC2.1
02F5A:  BTFSC  FC2.1
02F5C:  BRA    2F5A
02F5E:  MOVFF  FC4,7E4
02F62:  MOVFF  FC3,7E3
02F66:  MOVLB  0
02F68:  CALL   21C8
02F6C:  MOVFF  03,7E2
02F70:  MOVFF  02,7E1
02F74:  MOVFF  01,7E0
02F78:  MOVFF  00,7DF
02F7C:  MOVFF  7DF,00
02F80:  MOVFF  7E0,01
02F84:  MOVFF  7E1,02
02F88:  MOVFF  7E2,03
.................... } 
02F8C:  RETLW  00
.................... float Leer_Sensor(int media) 
.................... { 
....................    Prom=0.0; 
*
034A4:  MOVLB  6
034A6:  CLRF   x06
034A8:  CLRF   x05
034AA:  CLRF   x04
034AC:  CLRF   x03
....................    V0 = sensores(0);   //Lectura de Divisor de Voltaje de PT100 con resistencia de 6.18k (+-2%)    
034AE:  MOVLB  7
034B0:  CLRF   xDE
034B2:  MOVLB  0
034B4:  RCALL  2F36
034B6:  MOVFF  03,5F6
034BA:  MOVFF  02,5F5
034BE:  MOVFF  01,5F4
034C2:  MOVFF  00,5F3
....................              
....................    if(l>(media-1)) 
034C6:  MOVLW  01
034C8:  MOVLB  7
034CA:  SUBWF  xDD,W
034CC:  MOVLB  5
034CE:  SUBWF  x89,W
034D0:  BZ    34D6
034D2:  BNC   34D6
....................    {l=0;} 
034D4:  CLRF   x89
....................    //promedio[l]=Temperature;l++; 
....................    promedio[l]=V0;l++; 
034D6:  MOVLB  7
034D8:  CLRF   xE2
034DA:  MOVFF  589,7E1
034DE:  CLRF   xE4
034E0:  MOVLW  04
034E2:  MOVWF  xE3
034E4:  MOVLB  0
034E6:  RCALL  2F8E
034E8:  MOVF   01,W
034EA:  ADDLW  17
034EC:  MOVWF  FE9
034EE:  MOVLW  04
034F0:  ADDWFC 02,W
034F2:  MOVWF  FEA
034F4:  MOVFF  5F3,FEF
034F8:  MOVFF  5F4,FEC
034FC:  MOVFF  5F5,FEC
03500:  MOVFF  5F6,FEC
03504:  MOVLB  5
03506:  INCF   x89,F
....................           
....................    for(h=0;h<media;h++) 
03508:  CLRF   x88
0350A:  MOVLB  7
0350C:  MOVF   xDD,W
0350E:  MOVLB  5
03510:  SUBWF  x88,W
03512:  BC    3590
....................    { 
....................       Prom+=promedio[h]; 
03514:  MOVLB  7
03516:  CLRF   xE2
03518:  MOVFF  588,7E1
0351C:  CLRF   xE4
0351E:  MOVLW  04
03520:  MOVWF  xE3
03522:  MOVLB  0
03524:  RCALL  2F8E
03526:  MOVFF  02,03
0352A:  MOVF   01,W
0352C:  ADDLW  17
0352E:  MOVWF  FE9
03530:  MOVLW  04
03532:  ADDWFC 02,W
03534:  MOVWF  FEA
03536:  MOVFF  FEF,00
0353A:  MOVFF  FEC,01
0353E:  MOVFF  FEC,02
03542:  MOVFF  FEC,03
03546:  MOVFF  FEA,7DF
0354A:  MOVFF  FE9,7DE
0354E:  BCF    FD8.1
03550:  MOVFF  606,7E6
03554:  MOVFF  605,7E5
03558:  MOVFF  604,7E4
0355C:  MOVFF  603,7E3
03560:  MOVFF  03,7EA
03564:  MOVFF  02,7E9
03568:  MOVFF  01,7E8
0356C:  MOVFF  00,7E7
03570:  RCALL  2FB0
03572:  MOVFF  7DF,FEA
03576:  MOVFF  7DE,FE9
0357A:  MOVFF  03,606
0357E:  MOVFF  02,605
03582:  MOVFF  01,604
03586:  MOVFF  00,603
....................    }  
0358A:  MOVLB  5
0358C:  INCF   x88,F
0358E:  BRA    350A
....................    Prom=Prom/media;    
03590:  MOVLB  7
03592:  CLRF   xE4
03594:  MOVFF  7DD,7E3
03598:  MOVLB  0
0359A:  CALL   21C8
0359E:  MOVFF  606,7E4
035A2:  MOVFF  605,7E3
035A6:  MOVFF  604,7E2
035AA:  MOVFF  603,7E1
035AE:  MOVFF  03,7E8
035B2:  MOVFF  02,7E7
035B6:  MOVFF  01,7E6
035BA:  MOVFF  00,7E5
035BE:  RCALL  3228
035C0:  MOVFF  03,606
035C4:  MOVFF  02,605
035C8:  MOVFF  01,604
035CC:  MOVFF  00,603
....................    //Temperature=(Prom-100.0)/(0.385);  // Ecuacin determinada por linealizacin en Matlab. Revisar este polinomio.   
....................    //Temperature=(1.5275*Prom)-299.23; // Recta dada por T 0C-1200C y ADC Modo Real    
....................    Temperature=(m*Prom)+b; // Recta dada por T 0C-1200C y ADC Modo Real 
035D0:  MOVFF  646,7FD
035D4:  MOVFF  645,7FC
035D8:  MOVFF  644,7FB
035DC:  MOVFF  643,7FA
035E0:  MOVFF  606,801
035E4:  MOVFF  605,800
035E8:  MOVFF  604,7FF
035EC:  MOVFF  603,7FE
035F0:  RCALL  3386
035F2:  MOVFF  00,7DE
035F6:  MOVFF  01,7DF
035FA:  MOVFF  02,7E0
035FE:  MOVFF  03,7E1
03602:  BCF    FD8.1
03604:  MOVFF  03,7E6
03608:  MOVFF  02,7E5
0360C:  MOVFF  01,7E4
03610:  MOVFF  00,7E3
03614:  MOVFF  64A,7EA
03618:  MOVFF  649,7E9
0361C:  MOVFF  648,7E8
03620:  MOVFF  647,7E7
03624:  RCALL  2FB0
03626:  MOVFF  03,60A
0362A:  MOVFF  02,609
0362E:  MOVFF  01,608
03632:  MOVFF  00,607
....................     
....................    Temperature+=((float)Ajuste-(float)Ajusten); 
03636:  MOVLB  7
03638:  CLRF   xE4
0363A:  MOVFF  58A,7E3
0363E:  MOVLB  0
03640:  CALL   21C8
03644:  MOVFF  00,7DE
03648:  MOVFF  01,7DF
0364C:  MOVFF  02,7E0
03650:  MOVFF  03,7E1
03654:  MOVLB  7
03656:  CLRF   xE4
03658:  MOVFF  58B,7E3
0365C:  MOVLB  0
0365E:  CALL   21C8
03662:  BSF    FD8.1
03664:  MOVFF  7E1,7E6
03668:  MOVFF  7E0,7E5
0366C:  MOVFF  7DF,7E4
03670:  MOVFF  7DE,7E3
03674:  MOVFF  03,7EA
03678:  MOVFF  02,7E9
0367C:  MOVFF  01,7E8
03680:  MOVFF  00,7E7
03684:  RCALL  2FB0
03686:  BCF    FD8.1
03688:  MOVFF  60A,7E6
0368C:  MOVFF  609,7E5
03690:  MOVFF  608,7E4
03694:  MOVFF  607,7E3
03698:  MOVFF  03,7EA
0369C:  MOVFF  02,7E9
036A0:  MOVFF  01,7E8
036A4:  MOVFF  00,7E7
036A8:  RCALL  2FB0
036AA:  MOVFF  03,60A
036AE:  MOVFF  02,609
036B2:  MOVFF  01,608
036B6:  MOVFF  00,607
....................     
....................    //return Prom; 
....................    return Temperature; 
036BA:  MOVFF  607,00
036BE:  MOVFF  608,01
036C2:  MOVFF  609,02
036C6:  MOVFF  60A,03
.................... } 
036CA:  RETLW  00
....................  
.................... void Controla(){ 
.................... //-------------------------------Control de Calentamiento------------------------------------------------------------//          
....................    if(tiemporecta>=10) 
*
06398:  MOVLB  5
0639A:  MOVF   x8D,W
0639C:  SUBLW  09
0639E:  BC    63A8
....................    { 
....................       ActualizaRecta(); 
063A0:  MOVLB  0
063A2:  BRA    607A
....................       tiemporecta=0; 
063A4:  MOVLB  5
063A6:  CLRF   x8D
....................    } 
....................    
....................    if(Segmento==0){ 
063A8:  MOVF   x93,F
063AA:  BTFSS  FD8.2
063AC:  BRA    66C0
....................       if(flag_calcula==0){ 
063AE:  BTFSC  x95.2
063B0:  BRA    66BE
....................          Tiempo=(Horas1[ProgramaSeleccionado*10]*3600)+(Minutos1[ProgramaSeleccionado*10]*60);          
063B2:  MOVF   xA3,W
063B4:  MULLW  0A
063B6:  MOVFF  FF3,00
063BA:  BCF    FD8.0
063BC:  RLCF   00,F
063BE:  MOVF   00,W
063C0:  CLRF   03
063C2:  ADDLW  CB
063C4:  MOVWF  FE9
063C6:  MOVLW  06
063C8:  ADDWFC 03,W
063CA:  MOVWF  FEA
063CC:  MOVFF  FEC,7DE
063D0:  MOVF   FED,F
063D2:  MOVFF  FEF,7DD
063D6:  MOVFF  7DE,7E2
063DA:  MOVFF  7DD,7E1
063DE:  MOVLW  0E
063E0:  MOVLB  7
063E2:  MOVWF  xE4
063E4:  MOVLW  10
063E6:  MOVWF  xE3
063E8:  MOVLB  0
063EA:  CALL   3B16
063EE:  MOVFF  02,7DE
063F2:  MOVFF  01,7DD
063F6:  MOVLB  5
063F8:  MOVF   xA3,W
063FA:  MULLW  0A
063FC:  MOVFF  FF3,00
06400:  BCF    FD8.0
06402:  RLCF   00,F
06404:  MOVF   00,W
06406:  CLRF   03
06408:  ADDLW  2F
0640A:  MOVWF  FE9
0640C:  MOVLW  07
0640E:  ADDWFC 03,W
06410:  MOVWF  FEA
06412:  MOVFF  FEC,7E0
06416:  MOVF   FED,F
06418:  MOVFF  FEF,7DF
0641C:  MOVFF  7E0,7E2
06420:  MOVFF  7DF,7E1
06424:  MOVLB  7
06426:  CLRF   xE4
06428:  MOVLW  3C
0642A:  MOVWF  xE3
0642C:  MOVLB  0
0642E:  CALL   3B16
06432:  MOVFF  02,03
06436:  MOVF   01,W
06438:  MOVLB  7
0643A:  ADDWF  xDD,W
0643C:  MOVWF  01
0643E:  MOVF   xDE,W
06440:  ADDWFC 03,F
06442:  MOVFF  01,7E1
06446:  MOVFF  03,7E2
0644A:  MOVLB  0
0644C:  CALL   3B6A
06450:  MOVFF  03,5C6
06454:  MOVFF  02,5C5
06458:  MOVFF  01,5C4
0645C:  MOVFF  00,5C3
....................          Setpoint=Temperatura1[(ProgramaSeleccionado*10)+Segmento]; 
06460:  MOVLB  5
06462:  MOVF   xA3,W
06464:  MULLW  0A
06466:  MOVF   FF3,W
06468:  ADDWF  x93,W
0646A:  MOVWF  00
0646C:  BCF    FD8.0
0646E:  RLCF   00,F
06470:  MOVF   00,W
06472:  CLRF   03
06474:  ADDLW  67
06476:  MOVWF  FE9
06478:  MOVLW  06
0647A:  ADDWFC 03,W
0647C:  MOVWF  FEA
0647E:  MOVFF  FEC,03
06482:  MOVF   FED,F
06484:  MOVFF  FEF,7E1
06488:  MOVFF  03,7E2
0648C:  MOVLB  0
0648E:  CALL   3B6A
06492:  MOVFF  03,63A
06496:  MOVFF  02,639
0649A:  MOVFF  01,638
0649E:  MOVFF  00,637
....................          Pendiente=((Setpoint-TempeInicial)/Tiempo); 
064A2:  BSF    FD8.1
064A4:  MOVFF  63A,7E6
064A8:  MOVFF  639,7E5
064AC:  MOVFF  638,7E4
064B0:  MOVFF  637,7E3
064B4:  MOVFF  5C2,7EA
064B8:  MOVFF  5C1,7E9
064BC:  MOVFF  5C0,7E8
064C0:  MOVFF  5BF,7E7
064C4:  CALL   2FB0
064C8:  MOVFF  00,7DD
064CC:  MOVFF  01,7DE
064D0:  MOVFF  02,7DF
064D4:  MOVFF  03,7E0
064D8:  MOVFF  03,7E4
064DC:  MOVFF  02,7E3
064E0:  MOVFF  01,7E2
064E4:  MOVFF  00,7E1
064E8:  MOVFF  5C6,7E8
064EC:  MOVFF  5C5,7E7
064F0:  MOVFF  5C4,7E6
064F4:  MOVFF  5C3,7E5
064F8:  CALL   3228
064FC:  MOVFF  03,632
06500:  MOVFF  02,631
06504:  MOVFF  01,630
06508:  MOVFF  00,62F
....................          Testerilizacionp[3]=(int8)Horas1[(ProgramaSeleccionado*10)+Segmento]/10; 
0650C:  MOVLB  5
0650E:  MOVF   xA3,W
06510:  MULLW  0A
06512:  MOVF   FF3,W
06514:  ADDWF  x93,W
06516:  MOVWF  00
06518:  BCF    FD8.0
0651A:  RLCF   00,F
0651C:  MOVF   00,W
0651E:  CLRF   03
06520:  ADDLW  CB
06522:  MOVWF  FE9
06524:  MOVLW  06
06526:  ADDWFC 03,W
06528:  MOVWF  FEA
0652A:  MOVFF  FEF,7F2
0652E:  MOVLW  0A
06530:  MOVLB  7
06532:  MOVWF  xF3
06534:  MOVLB  0
06536:  CALL   1FE6
0653A:  MOVFF  01,5EA
0653E:  MOVLB  5
....................          Testerilizacionp[2]=Horas1[(ProgramaSeleccionado*10)+Segmento]-(Testerilizacionp[3]*10); 
06540:  MOVF   xA3,W
06542:  MULLW  0A
06544:  MOVF   FF3,W
06546:  ADDWF  x93,W
06548:  MOVWF  00
0654A:  BCF    FD8.0
0654C:  RLCF   00,F
0654E:  MOVF   00,W
06550:  CLRF   03
06552:  ADDLW  CB
06554:  MOVWF  FE9
06556:  MOVLW  06
06558:  ADDWFC 03,W
0655A:  MOVWF  FEA
0655C:  MOVFF  FEC,7DE
06560:  MOVF   FED,F
06562:  MOVFF  FEF,7DD
06566:  MOVFF  5EA,7FE
0656A:  MOVLW  0A
0656C:  MOVLB  7
0656E:  MOVWF  xFF
06570:  MOVLB  0
06572:  CALL   3BBA
06576:  MOVF   01,W
06578:  CLRF   03
0657A:  MOVWF  00
0657C:  BTFSC  FE8.7
0657E:  DECF   03,F
06580:  MOVLB  7
06582:  SUBWF  xDD,W
06584:  MOVWF  00
06586:  MOVF   03,W
06588:  SUBWFB xDE,W
0658A:  MOVFF  00,5E9
0658E:  MOVLB  5
....................          Testerilizacionp[1]=Minutos1[(ProgramaSeleccionado*10)+Segmento]/10; 
06590:  MOVF   xA3,W
06592:  MULLW  0A
06594:  MOVF   FF3,W
06596:  ADDWF  x93,W
06598:  MOVWF  00
0659A:  BCF    FD8.0
0659C:  RLCF   00,F
0659E:  MOVF   00,W
065A0:  CLRF   03
065A2:  ADDLW  2F
065A4:  MOVWF  FE9
065A6:  MOVLW  07
065A8:  ADDWFC 03,W
065AA:  MOVWF  FEA
065AC:  MOVFF  FEC,7DE
065B0:  MOVF   FED,F
065B2:  MOVFF  FEF,7DD
065B6:  MOVFF  7DE,7E2
065BA:  MOVFF  7DD,7E1
065BE:  MOVLB  7
065C0:  CLRF   xE4
065C2:  MOVLW  0A
065C4:  MOVWF  xE3
065C6:  MOVLB  0
065C8:  CALL   3C08
065CC:  MOVFF  01,5E8
065D0:  MOVLB  5
....................          Testerilizacionp[0]=Minutos1[(ProgramaSeleccionado*10)+Segmento]-(Testerilizacionp[1]*10); 
065D2:  MOVF   xA3,W
065D4:  MULLW  0A
065D6:  MOVF   FF3,W
065D8:  ADDWF  x93,W
065DA:  MOVWF  00
065DC:  BCF    FD8.0
065DE:  RLCF   00,F
065E0:  MOVF   00,W
065E2:  CLRF   03
065E4:  ADDLW  2F
065E6:  MOVWF  FE9
065E8:  MOVLW  07
065EA:  ADDWFC 03,W
065EC:  MOVWF  FEA
065EE:  MOVFF  FEC,7DE
065F2:  MOVF   FED,F
065F4:  MOVFF  FEF,7DD
065F8:  MOVFF  5E8,7FE
065FC:  MOVLW  0A
065FE:  MOVLB  7
06600:  MOVWF  xFF
06602:  MOVLB  0
06604:  CALL   3BBA
06608:  MOVF   01,W
0660A:  CLRF   03
0660C:  MOVWF  00
0660E:  BTFSC  FE8.7
06610:  DECF   03,F
06612:  MOVLB  7
06614:  SUBWF  xDD,W
06616:  MOVWF  00
06618:  MOVF   03,W
0661A:  SUBWFB xDE,W
0661C:  MOVFF  00,5E7
06620:  MOVLB  5
....................          flag_calcula=1; 
06622:  BSF    x95.2
....................          Ganancia=read_eeprom(250); 
06624:  MOVFF  FF2,7DD
06628:  BCF    FF2.7
0662A:  CLRF   FAA
0662C:  MOVLW  FA
0662E:  MOVWF  FA9
06630:  BCF    FA6.6
06632:  BCF    FA6.7
06634:  BSF    FA6.0
06636:  MOVF   FA8,W
06638:  MOVLB  7
0663A:  BTFSC  xDD.7
0663C:  BSF    FF2.7
0663E:  CLRF   xE4
06640:  MOVWF  xE3
06642:  MOVLB  0
06644:  CALL   21C8
06648:  MOVFF  03,616
0664C:  MOVFF  02,615
06650:  MOVFF  01,614
06654:  MOVFF  00,613
....................          delay_ms(10); 
06658:  MOVLW  0A
0665A:  MOVLB  7
0665C:  MOVWF  xE3
0665E:  MOVLB  0
06660:  CALL   1800
....................          Ganancia=Ganancia*(Setpoint/Coeficiente); 
06664:  MOVFF  63A,7E4
06668:  MOVFF  639,7E3
0666C:  MOVFF  638,7E2
06670:  MOVFF  637,7E1
06674:  MOVFF  61E,7E8
06678:  MOVFF  61D,7E7
0667C:  MOVFF  61C,7E6
06680:  MOVFF  61B,7E5
06684:  CALL   3228
06688:  MOVFF  616,7FD
0668C:  MOVFF  615,7FC
06690:  MOVFF  614,7FB
06694:  MOVFF  613,7FA
06698:  MOVFF  03,801
0669C:  MOVFF  02,800
066A0:  MOVFF  01,7FF
066A4:  MOVFF  00,7FE
066A8:  CALL   3386
066AC:  MOVFF  03,616
066B0:  MOVFF  02,615
066B4:  MOVFF  01,614
066B8:  MOVFF  00,613
066BC:  MOVLB  5
....................       } 
....................    } 
....................    else{ 
066BE:  BRA    6A02
....................       if(flag_calcula==0){ 
066C0:  BTFSC  x95.2
066C2:  BRA    6A02
....................          Tiempo=(Horas1[(ProgramaSeleccionado*10)+Segmento]*3600)+(Minutos1[(ProgramaSeleccionado*10)+Segmento]*60); 
066C4:  MOVF   xA3,W
066C6:  MULLW  0A
066C8:  MOVF   FF3,W
066CA:  ADDWF  x93,W
066CC:  MOVWF  00
066CE:  BCF    FD8.0
066D0:  RLCF   00,F
066D2:  MOVF   00,W
066D4:  CLRF   03
066D6:  ADDLW  CB
066D8:  MOVWF  FE9
066DA:  MOVLW  06
066DC:  ADDWFC 03,W
066DE:  MOVWF  FEA
066E0:  MOVFF  FEC,7DE
066E4:  MOVF   FED,F
066E6:  MOVFF  FEF,7DD
066EA:  MOVFF  7DE,7E2
066EE:  MOVFF  7DD,7E1
066F2:  MOVLW  0E
066F4:  MOVLB  7
066F6:  MOVWF  xE4
066F8:  MOVLW  10
066FA:  MOVWF  xE3
066FC:  MOVLB  0
066FE:  CALL   3B16
06702:  MOVFF  02,7DE
06706:  MOVFF  01,7DD
0670A:  MOVLB  5
0670C:  MOVF   xA3,W
0670E:  MULLW  0A
06710:  MOVF   FF3,W
06712:  ADDWF  x93,W
06714:  MOVWF  00
06716:  BCF    FD8.0
06718:  RLCF   00,F
0671A:  MOVF   00,W
0671C:  CLRF   03
0671E:  ADDLW  2F
06720:  MOVWF  FE9
06722:  MOVLW  07
06724:  ADDWFC 03,W
06726:  MOVWF  FEA
06728:  MOVFF  FEC,7E0
0672C:  MOVF   FED,F
0672E:  MOVFF  FEF,7DF
06732:  MOVFF  7E0,7E2
06736:  MOVFF  7DF,7E1
0673A:  MOVLB  7
0673C:  CLRF   xE4
0673E:  MOVLW  3C
06740:  MOVWF  xE3
06742:  MOVLB  0
06744:  CALL   3B16
06748:  MOVFF  02,03
0674C:  MOVF   01,W
0674E:  MOVLB  7
06750:  ADDWF  xDD,W
06752:  MOVWF  01
06754:  MOVF   xDE,W
06756:  ADDWFC 03,F
06758:  MOVFF  01,7E1
0675C:  MOVFF  03,7E2
06760:  MOVLB  0
06762:  CALL   3B6A
06766:  MOVFF  03,5C6
0676A:  MOVFF  02,5C5
0676E:  MOVFF  01,5C4
06772:  MOVFF  00,5C3
....................          Pendiente=((Temperatura1[(ProgramaSeleccionado*10)+Segmento]-Temperatura1[(ProgramaSeleccionado*10)+Segmento-1])/Tiempo); 
06776:  MOVLB  5
06778:  MOVF   xA3,W
0677A:  MULLW  0A
0677C:  MOVF   FF3,W
0677E:  ADDWF  x93,W
06780:  MOVWF  00
06782:  BCF    FD8.0
06784:  RLCF   00,F
06786:  MOVF   00,W
06788:  CLRF   03
0678A:  ADDLW  67
0678C:  MOVWF  FE9
0678E:  MOVLW  06
06790:  ADDWFC 03,W
06792:  MOVWF  FEA
06794:  MOVFF  FEC,7DE
06798:  MOVF   FED,F
0679A:  MOVFF  FEF,7DD
0679E:  MOVF   xA3,W
067A0:  MULLW  0A
067A2:  MOVF   FF3,W
067A4:  ADDWF  x93,W
067A6:  ADDLW  FF
067A8:  MOVWF  00
067AA:  BCF    FD8.0
067AC:  RLCF   00,F
067AE:  MOVF   00,W
067B0:  CLRF   03
067B2:  ADDLW  67
067B4:  MOVWF  FE9
067B6:  MOVLW  06
067B8:  ADDWFC 03,W
067BA:  MOVWF  FEA
067BC:  MOVFF  FEC,03
067C0:  MOVF   FED,F
067C2:  MOVF   FEF,W
067C4:  MOVLB  7
067C6:  SUBWF  xDD,F
067C8:  MOVF   03,W
067CA:  SUBWFB xDE,F
067CC:  MOVFF  7DE,7E2
067D0:  MOVFF  7DD,7E1
067D4:  MOVLB  0
067D6:  CALL   3B6A
067DA:  MOVFF  03,7E4
067DE:  MOVFF  02,7E3
067E2:  MOVFF  01,7E2
067E6:  MOVFF  00,7E1
067EA:  MOVFF  5C6,7E8
067EE:  MOVFF  5C5,7E7
067F2:  MOVFF  5C4,7E6
067F6:  MOVFF  5C3,7E5
067FA:  CALL   3228
067FE:  MOVFF  03,632
06802:  MOVFF  02,631
06806:  MOVFF  01,630
0680A:  MOVFF  00,62F
....................          Setpoint=Temperatura1[(ProgramaSeleccionado*10)+Segmento]; 
0680E:  MOVLB  5
06810:  MOVF   xA3,W
06812:  MULLW  0A
06814:  MOVF   FF3,W
06816:  ADDWF  x93,W
06818:  MOVWF  00
0681A:  BCF    FD8.0
0681C:  RLCF   00,F
0681E:  MOVF   00,W
06820:  CLRF   03
06822:  ADDLW  67
06824:  MOVWF  FE9
06826:  MOVLW  06
06828:  ADDWFC 03,W
0682A:  MOVWF  FEA
0682C:  MOVFF  FEC,03
06830:  MOVF   FED,F
06832:  MOVFF  FEF,7E1
06836:  MOVFF  03,7E2
0683A:  MOVLB  0
0683C:  CALL   3B6A
06840:  MOVFF  03,63A
06844:  MOVFF  02,639
06848:  MOVFF  01,638
0684C:  MOVFF  00,637
....................          Testerilizacionp[3]=(int8)Horas1[(ProgramaSeleccionado*10)+Segmento]/10; 
06850:  MOVLB  5
06852:  MOVF   xA3,W
06854:  MULLW  0A
06856:  MOVF   FF3,W
06858:  ADDWF  x93,W
0685A:  MOVWF  00
0685C:  BCF    FD8.0
0685E:  RLCF   00,F
06860:  MOVF   00,W
06862:  CLRF   03
06864:  ADDLW  CB
06866:  MOVWF  FE9
06868:  MOVLW  06
0686A:  ADDWFC 03,W
0686C:  MOVWF  FEA
0686E:  MOVFF  FEF,7F2
06872:  MOVLW  0A
06874:  MOVLB  7
06876:  MOVWF  xF3
06878:  MOVLB  0
0687A:  CALL   1FE6
0687E:  MOVFF  01,5EA
06882:  MOVLB  5
....................          Testerilizacionp[2]=Horas1[(ProgramaSeleccionado*10)+Segmento]-(Testerilizacionp[3]*10); 
06884:  MOVF   xA3,W
06886:  MULLW  0A
06888:  MOVF   FF3,W
0688A:  ADDWF  x93,W
0688C:  MOVWF  00
0688E:  BCF    FD8.0
06890:  RLCF   00,F
06892:  MOVF   00,W
06894:  CLRF   03
06896:  ADDLW  CB
06898:  MOVWF  FE9
0689A:  MOVLW  06
0689C:  ADDWFC 03,W
0689E:  MOVWF  FEA
068A0:  MOVFF  FEC,7DE
068A4:  MOVF   FED,F
068A6:  MOVFF  FEF,7DD
068AA:  MOVFF  5EA,7FE
068AE:  MOVLW  0A
068B0:  MOVLB  7
068B2:  MOVWF  xFF
068B4:  MOVLB  0
068B6:  CALL   3BBA
068BA:  MOVF   01,W
068BC:  CLRF   03
068BE:  MOVWF  00
068C0:  BTFSC  FE8.7
068C2:  DECF   03,F
068C4:  MOVLB  7
068C6:  SUBWF  xDD,W
068C8:  MOVWF  00
068CA:  MOVF   03,W
068CC:  SUBWFB xDE,W
068CE:  MOVFF  00,5E9
068D2:  MOVLB  5
....................          Testerilizacionp[1]=Minutos1[(ProgramaSeleccionado*10)+Segmento]/10; 
068D4:  MOVF   xA3,W
068D6:  MULLW  0A
068D8:  MOVF   FF3,W
068DA:  ADDWF  x93,W
068DC:  MOVWF  00
068DE:  BCF    FD8.0
068E0:  RLCF   00,F
068E2:  MOVF   00,W
068E4:  CLRF   03
068E6:  ADDLW  2F
068E8:  MOVWF  FE9
068EA:  MOVLW  07
068EC:  ADDWFC 03,W
068EE:  MOVWF  FEA
068F0:  MOVFF  FEC,7DE
068F4:  MOVF   FED,F
068F6:  MOVFF  FEF,7DD
068FA:  MOVFF  7DE,7E2
068FE:  MOVFF  7DD,7E1
06902:  MOVLB  7
06904:  CLRF   xE4
06906:  MOVLW  0A
06908:  MOVWF  xE3
0690A:  MOVLB  0
0690C:  CALL   3C08
06910:  MOVFF  01,5E8
06914:  MOVLB  5
....................          Testerilizacionp[0]=Minutos1[(ProgramaSeleccionado*10)+Segmento]-(Testerilizacionp[1]*10); 
06916:  MOVF   xA3,W
06918:  MULLW  0A
0691A:  MOVF   FF3,W
0691C:  ADDWF  x93,W
0691E:  MOVWF  00
06920:  BCF    FD8.0
06922:  RLCF   00,F
06924:  MOVF   00,W
06926:  CLRF   03
06928:  ADDLW  2F
0692A:  MOVWF  FE9
0692C:  MOVLW  07
0692E:  ADDWFC 03,W
06930:  MOVWF  FEA
06932:  MOVFF  FEC,7DE
06936:  MOVF   FED,F
06938:  MOVFF  FEF,7DD
0693C:  MOVFF  5E8,7FE
06940:  MOVLW  0A
06942:  MOVLB  7
06944:  MOVWF  xFF
06946:  MOVLB  0
06948:  CALL   3BBA
0694C:  MOVF   01,W
0694E:  CLRF   03
06950:  MOVWF  00
06952:  BTFSC  FE8.7
06954:  DECF   03,F
06956:  MOVLB  7
06958:  SUBWF  xDD,W
0695A:  MOVWF  00
0695C:  MOVF   03,W
0695E:  SUBWFB xDE,W
06960:  MOVFF  00,5E7
06964:  MOVLB  5
....................          flag_calcula=1; 
06966:  BSF    x95.2
....................          Ganancia=read_eeprom(250); 
06968:  MOVFF  FF2,7DD
0696C:  BCF    FF2.7
0696E:  CLRF   FAA
06970:  MOVLW  FA
06972:  MOVWF  FA9
06974:  BCF    FA6.6
06976:  BCF    FA6.7
06978:  BSF    FA6.0
0697A:  MOVF   FA8,W
0697C:  MOVLB  7
0697E:  BTFSC  xDD.7
06980:  BSF    FF2.7
06982:  CLRF   xE4
06984:  MOVWF  xE3
06986:  MOVLB  0
06988:  CALL   21C8
0698C:  MOVFF  03,616
06990:  MOVFF  02,615
06994:  MOVFF  01,614
06998:  MOVFF  00,613
....................          delay_ms(10); 
0699C:  MOVLW  0A
0699E:  MOVLB  7
069A0:  MOVWF  xE3
069A2:  MOVLB  0
069A4:  CALL   1800
....................          Ganancia=Ganancia*(Setpoint/Coeficiente); 
069A8:  MOVFF  63A,7E4
069AC:  MOVFF  639,7E3
069B0:  MOVFF  638,7E2
069B4:  MOVFF  637,7E1
069B8:  MOVFF  61E,7E8
069BC:  MOVFF  61D,7E7
069C0:  MOVFF  61C,7E6
069C4:  MOVFF  61B,7E5
069C8:  CALL   3228
069CC:  MOVFF  616,7FD
069D0:  MOVFF  615,7FC
069D4:  MOVFF  614,7FB
069D8:  MOVFF  613,7FA
069DC:  MOVFF  03,801
069E0:  MOVFF  02,800
069E4:  MOVFF  01,7FF
069E8:  MOVFF  00,7FE
069EC:  CALL   3386
069F0:  MOVFF  03,616
069F4:  MOVFF  02,615
069F8:  MOVFF  01,614
069FC:  MOVFF  00,613
06A00:  MOVLB  5
....................       } 
....................    } 
....................     
....................    if(Pendiente==0){// Si Esta realizando una Meseta debe realizar el control JuDifuso 
06A02:  MOVFF  632,7E0
06A06:  MOVFF  631,7DF
06A0A:  MOVFF  630,7DE
06A0E:  MOVFF  62F,7DD
06A12:  MOVLB  7
06A14:  CLRF   xE4
06A16:  CLRF   xE3
06A18:  CLRF   xE2
06A1A:  CLRF   xE1
06A1C:  MOVLB  0
06A1E:  CALL   21FE
06A22:  BTFSS  FD8.2
06A24:  BRA    6DDE
....................       error=desvio+Setpoint-Temperatura;      // Clculo del error ****** 
06A26:  BCF    FD8.1
06A28:  MOVFF  61A,7E6
06A2C:  MOVFF  619,7E5
06A30:  MOVFF  618,7E4
06A34:  MOVFF  617,7E3
06A38:  MOVFF  63A,7EA
06A3C:  MOVFF  639,7E9
06A40:  MOVFF  638,7E8
06A44:  MOVFF  637,7E7
06A48:  CALL   2FB0
06A4C:  MOVFF  00,7DD
06A50:  MOVFF  01,7DE
06A54:  MOVFF  02,7DF
06A58:  MOVFF  03,7E0
06A5C:  BSF    FD8.1
06A5E:  MOVFF  03,7E6
06A62:  MOVFF  02,7E5
06A66:  MOVFF  01,7E4
06A6A:  MOVFF  00,7E3
06A6E:  MOVFF  62E,7EA
06A72:  MOVFF  62D,7E9
06A76:  MOVFF  62C,7E8
06A7A:  MOVFF  62B,7E7
06A7E:  CALL   2FB0
06A82:  MOVFF  03,602
06A86:  MOVFF  02,601
06A8A:  MOVFF  01,600
06A8E:  MOVFF  00,5FF
....................        
....................       if(error>3.0 && Aumento<1) 
06A92:  MOVLB  7
06A94:  CLRF   xE0
06A96:  CLRF   xDF
06A98:  MOVLW  40
06A9A:  MOVWF  xDE
06A9C:  MOVLW  80
06A9E:  MOVWF  xDD
06AA0:  MOVFF  602,7E4
06AA4:  MOVFF  601,7E3
06AA8:  MOVFF  600,7E2
06AAC:  MOVFF  5FF,7E1
06AB0:  MOVLB  0
06AB2:  CALL   21FE
06AB6:  BTFSS  FD8.0
06AB8:  BRA    6C7C
06ABA:  MOVFF  62A,7E0
06ABE:  MOVFF  629,7DF
06AC2:  MOVFF  628,7DE
06AC6:  MOVFF  627,7DD
06ACA:  MOVLB  7
06ACC:  CLRF   xE4
06ACE:  CLRF   xE3
06AD0:  CLRF   xE2
06AD2:  MOVLW  7F
06AD4:  MOVWF  xE1
06AD6:  MOVLB  0
06AD8:  CALL   21FE
06ADC:  BTFSS  FD8.0
06ADE:  BRA    6C7C
....................       { 
....................          if(Potencia<90.0) 
06AE0:  MOVFF  5DE,7E0
06AE4:  MOVFF  5DD,7DF
06AE8:  MOVFF  5DC,7DE
06AEC:  MOVFF  5DB,7DD
06AF0:  MOVLB  7
06AF2:  CLRF   xE4
06AF4:  CLRF   xE3
06AF6:  MOVLW  34
06AF8:  MOVWF  xE2
06AFA:  MOVLW  85
06AFC:  MOVWF  xE1
06AFE:  MOVLB  0
06B00:  CALL   21FE
06B04:  BTFSS  FD8.0
06B06:  BRA    6C7C
....................          { 
....................             if(TiempoControl>=Derivativo) 
06B08:  MOVLB  7
06B0A:  CLRF   xE4
06B0C:  MOVFF  5A0,7E3
06B10:  MOVLB  0
06B12:  CALL   21C8
06B16:  MOVFF  642,7E0
06B1A:  MOVFF  641,7DF
06B1E:  MOVFF  640,7DE
06B22:  MOVFF  63F,7DD
06B26:  MOVFF  03,7E4
06B2A:  MOVFF  02,7E3
06B2E:  MOVFF  01,7E2
06B32:  MOVFF  00,7E1
06B36:  CALL   21FE
06B3A:  BC    6B40
06B3C:  BTFSS  FD8.2
06B3E:  BRA    6C7C
....................             { 
....................                TiempoControl=0; 
06B40:  MOVLB  5
06B42:  CLRF   xA0
....................                if(Aumento<-2) 
06B44:  MOVFF  62A,7E0
06B48:  MOVFF  629,7DF
06B4C:  MOVFF  628,7DE
06B50:  MOVFF  627,7DD
06B54:  MOVLB  7
06B56:  CLRF   xE4
06B58:  CLRF   xE3
06B5A:  MOVLW  80
06B5C:  MOVWF  xE2
06B5E:  MOVWF  xE1
06B60:  MOVLB  0
06B62:  CALL   21FE
06B66:  BNC   6BC4
....................                { 
....................                   Ganancia+=Integral+1; 
06B68:  BCF    FD8.1
06B6A:  MOVFF  63E,7E6
06B6E:  MOVFF  63D,7E5
06B72:  MOVFF  63C,7E4
06B76:  MOVFF  63B,7E3
06B7A:  MOVLB  7
06B7C:  CLRF   xEA
06B7E:  CLRF   xE9
06B80:  CLRF   xE8
06B82:  MOVLW  7F
06B84:  MOVWF  xE7
06B86:  MOVLB  0
06B88:  CALL   2FB0
06B8C:  BCF    FD8.1
06B8E:  MOVFF  616,7E6
06B92:  MOVFF  615,7E5
06B96:  MOVFF  614,7E4
06B9A:  MOVFF  613,7E3
06B9E:  MOVFF  03,7EA
06BA2:  MOVFF  02,7E9
06BA6:  MOVFF  01,7E8
06BAA:  MOVFF  00,7E7
06BAE:  CALL   2FB0
06BB2:  MOVFF  03,616
06BB6:  MOVFF  02,615
06BBA:  MOVFF  01,614
06BBE:  MOVFF  00,613
....................                } 
....................                else 
06BC2:  BRA    6C7C
....................                { 
....................                   if(Aumento<-1) 
06BC4:  MOVFF  62A,7E0
06BC8:  MOVFF  629,7DF
06BCC:  MOVFF  628,7DE
06BD0:  MOVFF  627,7DD
06BD4:  MOVLB  7
06BD6:  CLRF   xE4
06BD8:  CLRF   xE3
06BDA:  MOVLW  80
06BDC:  MOVWF  xE2
06BDE:  MOVLW  7F
06BE0:  MOVWF  xE1
06BE2:  MOVLB  0
06BE4:  CALL   21FE
06BE8:  BNC   6C22
....................                   { 
....................                      Ganancia+=Integral; 
06BEA:  BCF    FD8.1
06BEC:  MOVFF  616,7E6
06BF0:  MOVFF  615,7E5
06BF4:  MOVFF  614,7E4
06BF8:  MOVFF  613,7E3
06BFC:  MOVFF  63E,7EA
06C00:  MOVFF  63D,7E9
06C04:  MOVFF  63C,7E8
06C08:  MOVFF  63B,7E7
06C0C:  CALL   2FB0
06C10:  MOVFF  03,616
06C14:  MOVFF  02,615
06C18:  MOVFF  01,614
06C1C:  MOVFF  00,613
....................                   }    
....................                   else 
06C20:  BRA    6C7C
....................                   { 
....................                      Ganancia+=Integral-0.5; 
06C22:  BSF    FD8.1
06C24:  MOVFF  63E,7E6
06C28:  MOVFF  63D,7E5
06C2C:  MOVFF  63C,7E4
06C30:  MOVFF  63B,7E3
06C34:  MOVLB  7
06C36:  CLRF   xEA
06C38:  CLRF   xE9
06C3A:  CLRF   xE8
06C3C:  MOVLW  7E
06C3E:  MOVWF  xE7
06C40:  MOVLB  0
06C42:  CALL   2FB0
06C46:  BCF    FD8.1
06C48:  MOVFF  616,7E6
06C4C:  MOVFF  615,7E5
06C50:  MOVFF  614,7E4
06C54:  MOVFF  613,7E3
06C58:  MOVFF  03,7EA
06C5C:  MOVFF  02,7E9
06C60:  MOVFF  01,7E8
06C64:  MOVFF  00,7E7
06C68:  CALL   2FB0
06C6C:  MOVFF  03,616
06C70:  MOVFF  02,615
06C74:  MOVFF  01,614
06C78:  MOVFF  00,613
....................                   } 
....................                } 
....................             } 
....................          } 
....................       } 
....................        
....................       //if(error<-5) 
....................       //{ 
....................       //   Ganancia=6*(Setpoint/100); 
....................       //} 
....................        
....................       if(Ganancia<0.5) 
06C7C:  MOVFF  616,7E0
06C80:  MOVFF  615,7DF
06C84:  MOVFF  614,7DE
06C88:  MOVFF  613,7DD
06C8C:  MOVLB  7
06C8E:  CLRF   xE4
06C90:  CLRF   xE3
06C92:  CLRF   xE2
06C94:  MOVLW  7E
06C96:  MOVWF  xE1
06C98:  MOVLB  0
06C9A:  CALL   21FE
06C9E:  BNC   6CAC
....................       { 
....................          Ganancia=0.5; 
06CA0:  MOVLB  6
06CA2:  CLRF   x16
06CA4:  CLRF   x15
06CA6:  CLRF   x14
06CA8:  MOVLW  7E
06CAA:  MOVWF  x13
....................       } 
....................        
....................        
....................       if(error<0.0)     // Anti Wind_DOWN     
06CAC:  MOVFF  602,7E0
06CB0:  MOVFF  601,7DF
06CB4:  MOVFF  600,7DE
06CB8:  MOVFF  5FF,7DD
06CBC:  MOVLB  7
06CBE:  CLRF   xE4
06CC0:  CLRF   xE3
06CC2:  CLRF   xE2
06CC4:  CLRF   xE1
06CC6:  MOVLB  0
06CC8:  CALL   21FE
06CCC:  BNC   6CDC
....................       { 
....................          error=0.0; 
06CCE:  MOVLB  6
06CD0:  CLRF   x02
06CD2:  CLRF   x01
06CD4:  CLRF   x00
06CD6:  MOVLB  5
06CD8:  CLRF   xFF
06CDA:  MOVLB  0
....................       } 
....................     
....................       tmp=error*Ganancia;  // Control Proporcional. 
06CDC:  MOVFF  602,7FD
06CE0:  MOVFF  601,7FC
06CE4:  MOVFF  600,7FB
06CE8:  MOVFF  5FF,7FA
06CEC:  MOVFF  616,801
06CF0:  MOVFF  615,800
06CF4:  MOVFF  614,7FF
06CF8:  MOVFF  613,7FE
06CFC:  CALL   3386
06D00:  MOVFF  03,60E
06D04:  MOVFF  02,60D
06D08:  MOVFF  01,60C
06D0C:  MOVFF  00,60B
....................              
....................       if(tmp>Setpoint)   // Anti Wind-UP       
06D10:  MOVFF  63A,7E0
06D14:  MOVFF  639,7DF
06D18:  MOVFF  638,7DE
06D1C:  MOVFF  637,7DD
06D20:  MOVFF  60E,7E4
06D24:  MOVFF  60D,7E3
06D28:  MOVFF  60C,7E2
06D2C:  MOVFF  60B,7E1
06D30:  CALL   21FE
06D34:  BNC   6D46
....................       { 
....................          tmp=Setpoint; 
06D36:  MOVFF  63A,60E
06D3A:  MOVFF  639,60D
06D3E:  MOVFF  638,60C
06D42:  MOVFF  637,60B
....................       } 
....................                    
....................       if(tmp<0.0)     // Anti Wind_DOWN     
06D46:  MOVFF  60E,7E0
06D4A:  MOVFF  60D,7DF
06D4E:  MOVFF  60C,7DE
06D52:  MOVFF  60B,7DD
06D56:  MOVLB  7
06D58:  CLRF   xE4
06D5A:  CLRF   xE3
06D5C:  CLRF   xE2
06D5E:  CLRF   xE1
06D60:  MOVLB  0
06D62:  CALL   21FE
06D66:  BNC   6D74
....................       { 
....................          tmp=0.0; 
06D68:  MOVLB  6
06D6A:  CLRF   x0E
06D6C:  CLRF   x0D
06D6E:  CLRF   x0C
06D70:  CLRF   x0B
06D72:  MOVLB  0
....................       } 
....................        
....................       // Tpulso(t)= Tciclo*(y(t)-ymin)/(ymax - ymin); calculo de ciclo util para control de resistencia.ymax=140.ymin=0; 
....................       // Tpulso es float, hay que pasar ese ciclo a una salida de un puerto usando el TMR1. 
....................       Tpulso=(tmp/Setpoint)*Tciclo;  
06D74:  MOVFF  60E,7E4
06D78:  MOVFF  60D,7E3
06D7C:  MOVFF  60C,7E2
06D80:  MOVFF  60B,7E1
06D84:  MOVFF  63A,7E8
06D88:  MOVFF  639,7E7
06D8C:  MOVFF  638,7E6
06D90:  MOVFF  637,7E5
06D94:  CALL   3228
06D98:  MOVFF  00,7DD
06D9C:  MOVFF  01,7DE
06DA0:  MOVFF  02,7DF
06DA4:  MOVFF  03,7E0
06DA8:  MOVFF  03,7FD
06DAC:  MOVFF  02,7FC
06DB0:  MOVFF  01,7FB
06DB4:  MOVFF  00,7FA
06DB8:  MOVFF  5FA,801
06DBC:  MOVFF  5F9,800
06DC0:  MOVFF  5F8,7FF
06DC4:  MOVFF  5F7,7FE
06DC8:  CALL   3386
06DCC:  MOVFF  03,5FE
06DD0:  MOVFF  02,5FD
06DD4:  MOVFF  01,5FC
06DD8:  MOVFF  00,5FB
....................    } 
....................    else{// Si Esta realizando una Rampa debe realizar el control de acuerdo a la pendiente de Temperatura. Aprox 10C * min Maximo Valor de Pendiente. 
06DDC:  BRA    7392
....................       PendienteMinutos=PendienteActual*60; 
06DDE:  MOVFF  5CE,7FD
06DE2:  MOVFF  5CD,7FC
06DE6:  MOVFF  5CC,7FB
06DEA:  MOVFF  5CB,7FA
06DEE:  MOVLB  8
06DF0:  CLRF   x01
06DF2:  CLRF   x00
06DF4:  MOVLW  70
06DF6:  MOVLB  7
06DF8:  MOVWF  xFF
06DFA:  MOVLW  84
06DFC:  MOVWF  xFE
06DFE:  MOVLB  0
06E00:  CALL   3386
06E04:  MOVFF  03,5BE
06E08:  MOVFF  02,5BD
06E0C:  MOVFF  01,5BC
06E10:  MOVFF  00,5BB
....................       //PotenciaEntregada=((PendienteMinutos+DifPendiente)*100)/penMufla; 
....................       //HorasActual=(Testerilizacion[3]*10)+Testerilizacion[2]; 
....................       //MinutosActual=(Testerilizacion[1]*10)+Testerilizacion[0]; 
....................       TiempoRampa=((HorasActual*3600)+(MinutosActual*60)+tinicio); 
06E14:  MOVFF  5D2,7FD
06E18:  MOVFF  5D1,7FC
06E1C:  MOVFF  5D0,7FB
06E20:  MOVFF  5CF,7FA
06E24:  MOVLB  8
06E26:  CLRF   x01
06E28:  CLRF   x00
06E2A:  MOVLW  61
06E2C:  MOVLB  7
06E2E:  MOVWF  xFF
06E30:  MOVLW  8A
06E32:  MOVWF  xFE
06E34:  MOVLB  0
06E36:  CALL   3386
06E3A:  MOVFF  00,7DD
06E3E:  MOVFF  01,7DE
06E42:  MOVFF  02,7DF
06E46:  MOVFF  03,7E0
06E4A:  MOVFF  5D6,7FD
06E4E:  MOVFF  5D5,7FC
06E52:  MOVFF  5D4,7FB
06E56:  MOVFF  5D3,7FA
06E5A:  MOVLB  8
06E5C:  CLRF   x01
06E5E:  CLRF   x00
06E60:  MOVLW  70
06E62:  MOVLB  7
06E64:  MOVWF  xFF
06E66:  MOVLW  84
06E68:  MOVWF  xFE
06E6A:  MOVLB  0
06E6C:  CALL   3386
06E70:  BCF    FD8.1
06E72:  MOVFF  7E0,7E6
06E76:  MOVFF  7DF,7E5
06E7A:  MOVFF  7DE,7E4
06E7E:  MOVFF  7DD,7E3
06E82:  MOVFF  03,7EA
06E86:  MOVFF  02,7E9
06E8A:  MOVFF  01,7E8
06E8E:  MOVFF  00,7E7
06E92:  CALL   2FB0
06E96:  MOVFF  00,7DD
06E9A:  MOVFF  01,7DE
06E9E:  MOVFF  02,7DF
06EA2:  MOVFF  03,7E0
06EA6:  MOVFF  5AC,7E4
06EAA:  MOVFF  5AB,7E3
06EAE:  CALL   21C8
06EB2:  BCF    FD8.1
06EB4:  MOVFF  7E0,7E6
06EB8:  MOVFF  7DF,7E5
06EBC:  MOVFF  7DE,7E4
06EC0:  MOVFF  7DD,7E3
06EC4:  MOVFF  03,7EA
06EC8:  MOVFF  02,7E9
06ECC:  MOVFF  01,7E8
06ED0:  MOVFF  00,7E7
06ED4:  CALL   2FB0
06ED8:  MOVFF  03,5DA
06EDC:  MOVFF  02,5D9
06EE0:  MOVFF  01,5D8
06EE4:  MOVFF  00,5D7
....................       if(Segmento==0){ 
06EE8:  MOVLB  5
06EEA:  MOVF   x93,F
06EEC:  BNZ   6F5E
....................          TemperaturaIdeal=(Pendiente*TiempoRampa)+TempeInicial; 
06EEE:  MOVFF  632,7FD
06EF2:  MOVFF  631,7FC
06EF6:  MOVFF  630,7FB
06EFA:  MOVFF  62F,7FA
06EFE:  MOVFF  5DA,801
06F02:  MOVFF  5D9,800
06F06:  MOVFF  5D8,7FF
06F0A:  MOVFF  5D7,7FE
06F0E:  MOVLB  0
06F10:  CALL   3386
06F14:  MOVFF  00,7DD
06F18:  MOVFF  01,7DE
06F1C:  MOVFF  02,7DF
06F20:  MOVFF  03,7E0
06F24:  BCF    FD8.1
06F26:  MOVFF  03,7E6
06F2A:  MOVFF  02,7E5
06F2E:  MOVFF  01,7E4
06F32:  MOVFF  00,7E3
06F36:  MOVFF  5C2,7EA
06F3A:  MOVFF  5C1,7E9
06F3E:  MOVFF  5C0,7E8
06F42:  MOVFF  5BF,7E7
06F46:  CALL   2FB0
06F4A:  MOVFF  03,662
06F4E:  MOVFF  02,661
06F52:  MOVFF  01,660
06F56:  MOVFF  00,65F
....................       }else{ 
06F5A:  BRA    700E
06F5C:  MOVLB  5
....................          TemperaturaIdeal=(Pendiente*TiempoRampa)+Temperatura1[(ProgramaSeleccionado*10)+Segmento-1]; 
06F5E:  MOVFF  632,7FD
06F62:  MOVFF  631,7FC
06F66:  MOVFF  630,7FB
06F6A:  MOVFF  62F,7FA
06F6E:  MOVFF  5DA,801
06F72:  MOVFF  5D9,800
06F76:  MOVFF  5D8,7FF
06F7A:  MOVFF  5D7,7FE
06F7E:  MOVLB  0
06F80:  CALL   3386
06F84:  MOVFF  00,7DD
06F88:  MOVFF  01,7DE
06F8C:  MOVFF  02,7DF
06F90:  MOVFF  03,7E0
06F94:  MOVLB  5
06F96:  MOVF   xA3,W
06F98:  MULLW  0A
06F9A:  MOVF   FF3,W
06F9C:  ADDWF  x93,W
06F9E:  ADDLW  FF
06FA0:  MOVWF  00
06FA2:  BCF    FD8.0
06FA4:  RLCF   00,F
06FA6:  MOVF   00,W
06FA8:  CLRF   03
06FAA:  ADDLW  67
06FAC:  MOVWF  FE9
06FAE:  MOVLW  06
06FB0:  ADDWFC 03,W
06FB2:  MOVWF  FEA
06FB4:  MOVFF  FEC,03
06FB8:  MOVF   FED,F
06FBA:  MOVFF  FEF,7E1
06FBE:  MOVFF  03,7E2
06FC2:  MOVLB  0
06FC4:  CALL   3B6A
06FC8:  MOVFF  FEA,7E2
06FCC:  MOVFF  FE9,7E1
06FD0:  BCF    FD8.1
06FD2:  MOVFF  7E0,7E6
06FD6:  MOVFF  7DF,7E5
06FDA:  MOVFF  7DE,7E4
06FDE:  MOVFF  7DD,7E3
06FE2:  MOVFF  03,7EA
06FE6:  MOVFF  02,7E9
06FEA:  MOVFF  01,7E8
06FEE:  MOVFF  00,7E7
06FF2:  CALL   2FB0
06FF6:  MOVFF  7E2,FEA
06FFA:  MOVFF  7E1,FE9
06FFE:  MOVFF  03,662
07002:  MOVFF  02,661
07006:  MOVFF  01,660
0700A:  MOVFF  00,65F
....................       } 
....................       PotenciaEntregada=((TemperaturaIdeal-Temperatura)*100)/penMufla; 
0700E:  BSF    FD8.1
07010:  MOVFF  662,7E6
07014:  MOVFF  661,7E5
07018:  MOVFF  660,7E4
0701C:  MOVFF  65F,7E3
07020:  MOVFF  62E,7EA
07024:  MOVFF  62D,7E9
07028:  MOVFF  62C,7E8
0702C:  MOVFF  62B,7E7
07030:  CALL   2FB0
07034:  MOVFF  00,7DD
07038:  MOVFF  01,7DE
0703C:  MOVFF  02,7DF
07040:  MOVFF  03,7E0
07044:  MOVFF  03,7FD
07048:  MOVFF  02,7FC
0704C:  MOVFF  01,7FB
07050:  MOVFF  00,7FA
07054:  MOVLB  8
07056:  CLRF   x01
07058:  CLRF   x00
0705A:  MOVLW  48
0705C:  MOVLB  7
0705E:  MOVWF  xFF
07060:  MOVLW  85
07062:  MOVWF  xFE
07064:  MOVLB  0
07066:  CALL   3386
0706A:  MOVFF  00,7DD
0706E:  MOVFF  01,7DE
07072:  MOVFF  02,7DF
07076:  MOVFF  03,7E0
0707A:  MOVFF  03,7E4
0707E:  MOVFF  02,7E3
07082:  MOVFF  01,7E2
07086:  MOVFF  00,7E1
0708A:  MOVFF  65E,7E8
0708E:  MOVFF  65D,7E7
07092:  MOVFF  65C,7E6
07096:  MOVFF  65B,7E5
0709A:  CALL   3228
0709E:  MOVFF  03,5E2
070A2:  MOVFF  02,5E1
070A6:  MOVFF  01,5E0
070AA:  MOVFF  00,5DF
.................... // Pendiente determinar si el comportamiento de la mufla es lineal 10C/min o si tiene un comportamiento diferente. 
....................           
....................       if(Temperatura<450 && Temperatura>=200) 
070AE:  MOVFF  62E,7E0
070B2:  MOVFF  62D,7DF
070B6:  MOVFF  62C,7DE
070BA:  MOVFF  62B,7DD
070BE:  MOVLB  7
070C0:  CLRF   xE4
070C2:  CLRF   xE3
070C4:  MOVLW  61
070C6:  MOVWF  xE2
070C8:  MOVLW  87
070CA:  MOVWF  xE1
070CC:  MOVLB  0
070CE:  CALL   21FE
070D2:  BNC   7132
070D4:  MOVLB  7
070D6:  CLRF   xE0
070D8:  CLRF   xDF
070DA:  MOVLW  48
070DC:  MOVWF  xDE
070DE:  MOVLW  86
070E0:  MOVWF  xDD
070E2:  MOVFF  62E,7E4
070E6:  MOVFF  62D,7E3
070EA:  MOVFF  62C,7E2
070EE:  MOVFF  62B,7E1
070F2:  MOVLB  0
070F4:  CALL   21FE
070F8:  BC    70FC
070FA:  BNZ   7132
....................          penMufla=penInicial*0.9; 
070FC:  MOVFF  666,7FD
07100:  MOVFF  665,7FC
07104:  MOVFF  664,7FB
07108:  MOVFF  663,7FA
0710C:  MOVLW  66
0710E:  MOVLB  8
07110:  MOVWF  x01
07112:  MOVWF  x00
07114:  MOVLB  7
07116:  MOVWF  xFF
07118:  MOVLW  7E
0711A:  MOVWF  xFE
0711C:  MOVLB  0
0711E:  CALL   3386
07122:  MOVFF  03,65E
07126:  MOVFF  02,65D
0712A:  MOVFF  01,65C
0712E:  MOVFF  00,65B
....................           
....................       if(Temperatura<600 && Temperatura>=450) 
07132:  MOVFF  62E,7E0
07136:  MOVFF  62D,7DF
0713A:  MOVFF  62C,7DE
0713E:  MOVFF  62B,7DD
07142:  MOVLB  7
07144:  CLRF   xE4
07146:  CLRF   xE3
07148:  MOVLW  16
0714A:  MOVWF  xE2
0714C:  MOVLW  88
0714E:  MOVWF  xE1
07150:  MOVLB  0
07152:  CALL   21FE
07156:  BNC   71BA
07158:  MOVLB  7
0715A:  CLRF   xE0
0715C:  CLRF   xDF
0715E:  MOVLW  61
07160:  MOVWF  xDE
07162:  MOVLW  87
07164:  MOVWF  xDD
07166:  MOVFF  62E,7E4
0716A:  MOVFF  62D,7E3
0716E:  MOVFF  62C,7E2
07172:  MOVFF  62B,7E1
07176:  MOVLB  0
07178:  CALL   21FE
0717C:  BC    7180
0717E:  BNZ   71BA
....................          penMufla=penInicial*0.8; 
07180:  MOVFF  666,7FD
07184:  MOVFF  665,7FC
07188:  MOVFF  664,7FB
0718C:  MOVFF  663,7FA
07190:  MOVLW  CD
07192:  MOVLB  8
07194:  MOVWF  x01
07196:  MOVLW  CC
07198:  MOVWF  x00
0719A:  MOVLW  4C
0719C:  MOVLB  7
0719E:  MOVWF  xFF
071A0:  MOVLW  7E
071A2:  MOVWF  xFE
071A4:  MOVLB  0
071A6:  CALL   3386
071AA:  MOVFF  03,65E
071AE:  MOVFF  02,65D
071B2:  MOVFF  01,65C
071B6:  MOVFF  00,65B
....................           
....................       if(Temperatura<900 && Temperatura>=600) 
071BA:  MOVFF  62E,7E0
071BE:  MOVFF  62D,7DF
071C2:  MOVFF  62C,7DE
071C6:  MOVFF  62B,7DD
071CA:  MOVLB  7
071CC:  CLRF   xE4
071CE:  CLRF   xE3
071D0:  MOVLW  61
071D2:  MOVWF  xE2
071D4:  MOVLW  88
071D6:  MOVWF  xE1
071D8:  MOVLB  0
071DA:  CALL   21FE
071DE:  BNC   723E
071E0:  MOVLB  7
071E2:  CLRF   xE0
071E4:  CLRF   xDF
071E6:  MOVLW  16
071E8:  MOVWF  xDE
071EA:  MOVLW  88
071EC:  MOVWF  xDD
071EE:  MOVFF  62E,7E4
071F2:  MOVFF  62D,7E3
071F6:  MOVFF  62C,7E2
071FA:  MOVFF  62B,7E1
071FE:  MOVLB  0
07200:  CALL   21FE
07204:  BC    7208
07206:  BNZ   723E
....................          penMufla=penInicial*0.7;   
07208:  MOVFF  666,7FD
0720C:  MOVFF  665,7FC
07210:  MOVFF  664,7FB
07214:  MOVFF  663,7FA
07218:  MOVLW  33
0721A:  MOVLB  8
0721C:  MOVWF  x01
0721E:  MOVWF  x00
07220:  MOVLB  7
07222:  MOVWF  xFF
07224:  MOVLW  7E
07226:  MOVWF  xFE
07228:  MOVLB  0
0722A:  CALL   3386
0722E:  MOVFF  03,65E
07232:  MOVFF  02,65D
07236:  MOVFF  01,65C
0723A:  MOVFF  00,65B
....................           
....................       if(Temperatura<=1200 && Temperatura>=900) 
0723E:  MOVFF  62E,7E0
07242:  MOVFF  62D,7DF
07246:  MOVFF  62C,7DE
0724A:  MOVFF  62B,7DD
0724E:  MOVLB  7
07250:  CLRF   xE4
07252:  CLRF   xE3
07254:  MOVLW  16
07256:  MOVWF  xE2
07258:  MOVLW  89
0725A:  MOVWF  xE1
0725C:  MOVLB  0
0725E:  CALL   21FE
07262:  BC    7266
07264:  BNZ   72C8
07266:  MOVLB  7
07268:  CLRF   xE0
0726A:  CLRF   xDF
0726C:  MOVLW  61
0726E:  MOVWF  xDE
07270:  MOVLW  88
07272:  MOVWF  xDD
07274:  MOVFF  62E,7E4
07278:  MOVFF  62D,7E3
0727C:  MOVFF  62C,7E2
07280:  MOVFF  62B,7E1
07284:  MOVLB  0
07286:  CALL   21FE
0728A:  BC    728E
0728C:  BNZ   72C8
....................          penMufla=penInicial*0.6;    
0728E:  MOVFF  666,7FD
07292:  MOVFF  665,7FC
07296:  MOVFF  664,7FB
0729A:  MOVFF  663,7FA
0729E:  MOVLW  9A
072A0:  MOVLB  8
072A2:  MOVWF  x01
072A4:  MOVLW  99
072A6:  MOVWF  x00
072A8:  MOVLW  19
072AA:  MOVLB  7
072AC:  MOVWF  xFF
072AE:  MOVLW  7E
072B0:  MOVWF  xFE
072B2:  MOVLB  0
072B4:  CALL   3386
072B8:  MOVFF  03,65E
072BC:  MOVFF  02,65D
072C0:  MOVFF  01,65C
072C4:  MOVFF  00,65B
....................        
....................       if(PotenciaEntregada>100.0){ 
072C8:  MOVLB  7
072CA:  CLRF   xE0
072CC:  CLRF   xDF
072CE:  MOVLW  48
072D0:  MOVWF  xDE
072D2:  MOVLW  85
072D4:  MOVWF  xDD
072D6:  MOVFF  5E2,7E4
072DA:  MOVFF  5E1,7E3
072DE:  MOVFF  5E0,7E2
072E2:  MOVFF  5DF,7E1
072E6:  MOVLB  0
072E8:  CALL   21FE
072EC:  BNC   72FC
....................          PotenciaEntregada=100.0; 
072EE:  MOVLB  5
072F0:  CLRF   xE2
072F2:  CLRF   xE1
072F4:  MOVLW  48
072F6:  MOVWF  xE0
072F8:  MOVLW  85
072FA:  MOVWF  xDF
....................       } 
....................        
....................       if(PotenciaEntregada<0){ 
072FC:  MOVFF  5E2,7E0
07300:  MOVFF  5E1,7DF
07304:  MOVFF  5E0,7DE
07308:  MOVFF  5DF,7DD
0730C:  MOVLB  7
0730E:  CLRF   xE4
07310:  CLRF   xE3
07312:  CLRF   xE2
07314:  CLRF   xE1
07316:  MOVLB  0
07318:  CALL   21FE
0731C:  BNC   732A
....................          PotenciaEntregada=0; 
0731E:  MOVLB  5
07320:  CLRF   xE2
07322:  CLRF   xE1
07324:  CLRF   xE0
07326:  CLRF   xDF
07328:  MOVLB  0
....................       } 
....................        
....................       Tpulso=(PotenciaEntregada*Tciclo)/100; 
0732A:  MOVFF  5E2,7FD
0732E:  MOVFF  5E1,7FC
07332:  MOVFF  5E0,7FB
07336:  MOVFF  5DF,7FA
0733A:  MOVFF  5FA,801
0733E:  MOVFF  5F9,800
07342:  MOVFF  5F8,7FF
07346:  MOVFF  5F7,7FE
0734A:  CALL   3386
0734E:  MOVFF  00,7DD
07352:  MOVFF  01,7DE
07356:  MOVFF  02,7DF
0735A:  MOVFF  03,7E0
0735E:  MOVFF  03,7E4
07362:  MOVFF  02,7E3
07366:  MOVFF  01,7E2
0736A:  MOVFF  00,7E1
0736E:  MOVLB  7
07370:  CLRF   xE8
07372:  CLRF   xE7
07374:  MOVLW  48
07376:  MOVWF  xE6
07378:  MOVLW  85
0737A:  MOVWF  xE5
0737C:  MOVLB  0
0737E:  CALL   3228
07382:  MOVFF  03,5FE
07386:  MOVFF  02,5FD
0738A:  MOVFF  01,5FC
0738E:  MOVFF  00,5FB
....................    } 
....................    Tp=(int16)(Tpulso/0.005); 
07392:  MOVFF  5FE,7E4
07396:  MOVFF  5FD,7E3
0739A:  MOVFF  5FC,7E2
0739E:  MOVFF  5FB,7E1
073A2:  MOVLW  0A
073A4:  MOVLB  7
073A6:  MOVWF  xE8
073A8:  MOVLW  D7
073AA:  MOVWF  xE7
073AC:  MOVLW  23
073AE:  MOVWF  xE6
073B0:  MOVLW  77
073B2:  MOVWF  xE5
073B4:  MOVLB  0
073B6:  CALL   3228
073BA:  MOVFF  03,7E0
073BE:  MOVFF  02,7DF
073C2:  MOVFF  01,7DE
073C6:  MOVFF  00,7DD
073CA:  CALL   635C
073CE:  MOVFF  02,5B2
073D2:  MOVFF  01,5B1
....................    Tc=(int16)(Tciclo/0.005); 
073D6:  MOVFF  5FA,7E4
073DA:  MOVFF  5F9,7E3
073DE:  MOVFF  5F8,7E2
073E2:  MOVFF  5F7,7E1
073E6:  MOVLW  0A
073E8:  MOVLB  7
073EA:  MOVWF  xE8
073EC:  MOVLW  D7
073EE:  MOVWF  xE7
073F0:  MOVLW  23
073F2:  MOVWF  xE6
073F4:  MOVLW  77
073F6:  MOVWF  xE5
073F8:  MOVLB  0
073FA:  CALL   3228
073FE:  MOVFF  03,7E0
07402:  MOVFF  02,7DF
07406:  MOVFF  01,7DE
0740A:  MOVFF  00,7DD
0740E:  CALL   635C
07412:  MOVFF  02,5B4
07416:  MOVFF  01,5B3
....................           
.................... //--------------------------------------------------------------------------------------------------------------------//    
.................... } 
0741A:  RETLW  00
....................  
.................... void displayMenu(char palabra[30], int x, int y, int sombreado, int tamano) 
.................... { 
....................    strcpy(Menus.Letra,palabra); 
*
01EC0:  MOVLB  7
01EC2:  MOVFF  7E0,01
01EC6:  MOVFF  7E1,03
01ECA:  MOVFF  7E0,7E6
01ECE:  MOVFF  7E1,7E7
01ED2:  MOVLW  07
01ED4:  MOVWF  FEA
01ED6:  MOVLW  BD
01ED8:  MOVWF  FE9
01EDA:  MOVFF  7E1,FE2
01EDE:  MOVFF  7E0,FE1
01EE2:  MOVF   FE7,F
01EE4:  MOVFF  FE6,FEE
01EE8:  BNZ   1EE2
....................     
....................    if(sombreado==3) 
01EEA:  MOVF   xE4,W
01EEC:  SUBLW  03
01EEE:  BNZ   1F16
....................       {glcd_text57(x+1, y+1, Menus.Letra, tamano, OFF);} 
01EF0:  MOVLW  01
01EF2:  ADDWF  xE2,W
01EF4:  MOVWF  xE6
01EF6:  MOVLW  01
01EF8:  ADDWF  xE3,W
01EFA:  MOVWF  xE7
01EFC:  MOVFF  7E6,7F5
01F00:  MOVWF  xF6
01F02:  MOVLW  07
01F04:  MOVWF  xF8
01F06:  MOVLW  BD
01F08:  MOVWF  xF7
01F0A:  MOVFF  7E5,7F9
01F0E:  CLRF   xFA
01F10:  MOVLB  0
01F12:  RCALL  1AF6
01F14:  MOVLB  7
....................    if(sombreado==2) 
01F16:  MOVF   xE4,W
01F18:  SUBLW  02
01F1A:  BNZ   1F44
....................       {glcd_text57(x+1, y+1, Menus.Letra, tamano, ON);} 
01F1C:  MOVLW  01
01F1E:  ADDWF  xE2,W
01F20:  MOVWF  xE6
01F22:  MOVLW  01
01F24:  ADDWF  xE3,W
01F26:  MOVWF  xE7
01F28:  MOVFF  7E6,7F5
01F2C:  MOVWF  xF6
01F2E:  MOVLW  07
01F30:  MOVWF  xF8
01F32:  MOVLW  BD
01F34:  MOVWF  xF7
01F36:  MOVFF  7E5,7F9
01F3A:  MOVLW  01
01F3C:  MOVWF  xFA
01F3E:  MOVLB  0
01F40:  RCALL  1AF6
01F42:  MOVLB  7
....................    if(sombreado==1) 
01F44:  DECFSZ xE4,W
01F46:  BRA    1F92
....................       {glcd_rect(0, y, 127, y+(tamano*8), YES, ON);glcd_text57(x+1, y+1, Menus.Letra, tamano, OFF);} 
01F48:  MOVF   xE5,W
01F4A:  MULLW  08
01F4C:  MOVF   FF3,W
01F4E:  ADDWF  xE3,W
01F50:  MOVWF  xE6
01F52:  CLRF   xF5
01F54:  MOVFF  7E3,7F6
01F58:  MOVLW  7F
01F5A:  MOVWF  xF7
01F5C:  MOVFF  7E6,7F8
01F60:  MOVLW  01
01F62:  MOVWF  xF9
01F64:  MOVWF  xFA
01F66:  MOVLB  0
01F68:  RCALL  1DFE
01F6A:  MOVLW  01
01F6C:  MOVLB  7
01F6E:  ADDWF  xE2,W
01F70:  MOVWF  xE6
01F72:  MOVLW  01
01F74:  ADDWF  xE3,W
01F76:  MOVWF  xE7
01F78:  MOVFF  7E6,7F5
01F7C:  MOVWF  xF6
01F7E:  MOVLW  07
01F80:  MOVWF  xF8
01F82:  MOVLW  BD
01F84:  MOVWF  xF7
01F86:  MOVFF  7E5,7F9
01F8A:  CLRF   xFA
01F8C:  MOVLB  0
01F8E:  RCALL  1AF6
01F90:  MOVLB  7
....................    if(sombreado==0) 
01F92:  MOVF   xE4,F
01F94:  BNZ   1FE0
....................       {glcd_rect(0, y, 127, y+(tamano*8), YES, OFF);glcd_text57(x+1, y+1, Menus.Letra, tamano, ON);} 
01F96:  MOVF   xE5,W
01F98:  MULLW  08
01F9A:  MOVF   FF3,W
01F9C:  ADDWF  xE3,W
01F9E:  MOVWF  xE6
01FA0:  CLRF   xF5
01FA2:  MOVFF  7E3,7F6
01FA6:  MOVLW  7F
01FA8:  MOVWF  xF7
01FAA:  MOVFF  7E6,7F8
01FAE:  MOVLW  01
01FB0:  MOVWF  xF9
01FB2:  CLRF   xFA
01FB4:  MOVLB  0
01FB6:  RCALL  1DFE
01FB8:  MOVLW  01
01FBA:  MOVLB  7
01FBC:  ADDWF  xE2,W
01FBE:  MOVWF  xE6
01FC0:  MOVLW  01
01FC2:  ADDWF  xE3,W
01FC4:  MOVWF  xE7
01FC6:  MOVFF  7E6,7F5
01FCA:  MOVWF  xF6
01FCC:  MOVLW  07
01FCE:  MOVWF  xF8
01FD0:  MOVLW  BD
01FD2:  MOVWF  xF7
01FD4:  MOVFF  7E5,7F9
01FD8:  MOVLW  01
01FDA:  MOVWF  xFA
01FDC:  MOVLB  0
01FDE:  RCALL  1AF6
....................    glcd_update(); 
01FE0:  MOVLB  0
01FE2:  RCALL  18DA
.................... } 
01FE4:  RETLW  00
....................  
.................... void displayTemps(char palabra[30], int16 digito, int x, int y, int sombreado, int tamano) 
.................... { 
....................    char voltage[9]; 
....................     
....................    if(sombreado==11) 
*
04F68:  MOVLB  7
04F6A:  MOVF   xE8,W
04F6C:  SUBLW  0B
04F6E:  BNZ   502E
....................    { 
....................       sprintf(voltage, "%02Lu", digito); 
04F70:  MOVLW  07
04F72:  MOVWF  xDC
04F74:  MOVLW  EA
04F76:  MOVWF  xDB
04F78:  MOVLW  0B
04F7A:  MOVWF  FE9
04F7C:  MOVFF  7E5,7F4
04F80:  MOVFF  7E4,7F3
04F84:  MOVLB  0
04F86:  RCALL  4AAC
....................       glcd_rect(0, y-2, 127, y+(tamano*8), YES, ON); 
04F88:  MOVLW  02
04F8A:  MOVLB  7
04F8C:  SUBWF  xE7,W
04F8E:  MOVWF  xF3
04F90:  MOVF   xE9,W
04F92:  MULLW  08
04F94:  MOVF   FF3,W
04F96:  ADDWF  xE7,W
04F98:  MOVWF  xF4
04F9A:  CLRF   xF5
04F9C:  MOVFF  7F3,7F6
04FA0:  MOVLW  7F
04FA2:  MOVWF  xF7
04FA4:  MOVFF  7F4,7F8
04FA8:  MOVLW  01
04FAA:  MOVWF  xF9
04FAC:  MOVWF  xFA
04FAE:  MOVLB  0
04FB0:  CALL   1DFE
....................       strcpy(Menus.Letra,palabra); 
04FB4:  MOVLB  7
04FB6:  MOVFF  7E2,01
04FBA:  MOVFF  7E3,03
04FBE:  MOVFF  7E2,7F3
04FC2:  MOVFF  7E3,7F4
04FC6:  MOVLW  07
04FC8:  MOVWF  FEA
04FCA:  MOVLW  BD
04FCC:  MOVWF  FE9
04FCE:  MOVFF  7E3,FE2
04FD2:  MOVFF  7E2,FE1
04FD6:  MOVF   FE7,F
04FD8:  MOVFF  FE6,FEE
04FDC:  BNZ   4FD6
....................       glcd_text57(x+90, y+1, voltage, tamano, OFF); 
04FDE:  MOVLW  5A
04FE0:  ADDWF  xE6,W
04FE2:  MOVWF  xF3
04FE4:  MOVLW  01
04FE6:  ADDWF  xE7,W
04FE8:  MOVWF  xF4
04FEA:  MOVFF  7F3,7F5
04FEE:  MOVWF  xF6
04FF0:  MOVLW  07
04FF2:  MOVWF  xF8
04FF4:  MOVLW  EA
04FF6:  MOVWF  xF7
04FF8:  MOVFF  7E9,7F9
04FFC:  CLRF   xFA
04FFE:  MOVLB  0
05000:  CALL   1AF6
....................       glcd_text57(x+1, y+1, Menus.Letra, tamano, OFF); 
05004:  MOVLW  01
05006:  MOVLB  7
05008:  ADDWF  xE6,W
0500A:  MOVWF  xF3
0500C:  MOVLW  01
0500E:  ADDWF  xE7,W
05010:  MOVWF  xF4
05012:  MOVFF  7F3,7F5
05016:  MOVWF  xF6
05018:  MOVLW  07
0501A:  MOVWF  xF8
0501C:  MOVLW  BD
0501E:  MOVWF  xF7
05020:  MOVFF  7E9,7F9
05024:  CLRF   xFA
05026:  MOVLB  0
05028:  CALL   1AF6
0502C:  MOVLB  7
....................    } 
....................    if(sombreado==10) 
0502E:  MOVF   xE8,W
05030:  SUBLW  0A
05032:  BNZ   50F6
....................    { 
....................       sprintf(voltage, "%02Lu", digito); 
05034:  MOVLW  07
05036:  MOVWF  xDC
05038:  MOVLW  EA
0503A:  MOVWF  xDB
0503C:  MOVLW  0B
0503E:  MOVWF  FE9
05040:  MOVFF  7E5,7F4
05044:  MOVFF  7E4,7F3
05048:  MOVLB  0
0504A:  RCALL  4AAC
....................       glcd_rect(0, y-2, 127, y+(tamano*8), YES, OFF); 
0504C:  MOVLW  02
0504E:  MOVLB  7
05050:  SUBWF  xE7,W
05052:  MOVWF  xF3
05054:  MOVF   xE9,W
05056:  MULLW  08
05058:  MOVF   FF3,W
0505A:  ADDWF  xE7,W
0505C:  MOVWF  xF4
0505E:  CLRF   xF5
05060:  MOVFF  7F3,7F6
05064:  MOVLW  7F
05066:  MOVWF  xF7
05068:  MOVFF  7F4,7F8
0506C:  MOVLW  01
0506E:  MOVWF  xF9
05070:  CLRF   xFA
05072:  MOVLB  0
05074:  CALL   1DFE
....................       strcpy(Menus.Letra,palabra); 
05078:  MOVLB  7
0507A:  MOVFF  7E2,01
0507E:  MOVFF  7E3,03
05082:  MOVFF  7E2,7F3
05086:  MOVFF  7E3,7F4
0508A:  MOVLW  07
0508C:  MOVWF  FEA
0508E:  MOVLW  BD
05090:  MOVWF  FE9
05092:  MOVFF  7E3,FE2
05096:  MOVFF  7E2,FE1
0509A:  MOVF   FE7,F
0509C:  MOVFF  FE6,FEE
050A0:  BNZ   509A
....................       glcd_text57(x+90, y+1, voltage, tamano, ON); 
050A2:  MOVLW  5A
050A4:  ADDWF  xE6,W
050A6:  MOVWF  xF3
050A8:  MOVLW  01
050AA:  ADDWF  xE7,W
050AC:  MOVWF  xF4
050AE:  MOVFF  7F3,7F5
050B2:  MOVWF  xF6
050B4:  MOVLW  07
050B6:  MOVWF  xF8
050B8:  MOVLW  EA
050BA:  MOVWF  xF7
050BC:  MOVFF  7E9,7F9
050C0:  MOVLW  01
050C2:  MOVWF  xFA
050C4:  MOVLB  0
050C6:  CALL   1AF6
....................       glcd_text57(x+1, y+1, Menus.Letra, tamano, ON); 
050CA:  MOVLW  01
050CC:  MOVLB  7
050CE:  ADDWF  xE6,W
050D0:  MOVWF  xF3
050D2:  MOVLW  01
050D4:  ADDWF  xE7,W
050D6:  MOVWF  xF4
050D8:  MOVFF  7F3,7F5
050DC:  MOVWF  xF6
050DE:  MOVLW  07
050E0:  MOVWF  xF8
050E2:  MOVLW  BD
050E4:  MOVWF  xF7
050E6:  MOVFF  7E9,7F9
050EA:  MOVLW  01
050EC:  MOVWF  xFA
050EE:  MOVLB  0
050F0:  CALL   1AF6
050F4:  MOVLB  7
....................    } 
....................     
....................    if(sombreado==1) 
050F6:  DECFSZ xE8,W
050F8:  BRA    5224
....................    { 
....................       sprintf(voltage, "%04Lu", digito); 
050FA:  MOVLW  07
050FC:  MOVWF  xDC
050FE:  MOVLW  EA
05100:  MOVWF  xDB
05102:  MOVLW  09
05104:  MOVWF  FE9
05106:  MOVFF  7E5,7F4
0510A:  MOVFF  7E4,7F3
0510E:  MOVLB  0
05110:  RCALL  4AAC
....................       glcd_rect(0, y-2, 127, y+(tamano*8), YES, ON); 
05112:  MOVLW  02
05114:  MOVLB  7
05116:  SUBWF  xE7,W
05118:  MOVWF  xF3
0511A:  MOVF   xE9,W
0511C:  MULLW  08
0511E:  MOVF   FF3,W
05120:  ADDWF  xE7,W
05122:  MOVWF  xF4
05124:  CLRF   xF5
05126:  MOVFF  7F3,7F6
0512A:  MOVLW  7F
0512C:  MOVWF  xF7
0512E:  MOVFF  7F4,7F8
05132:  MOVLW  01
05134:  MOVWF  xF9
05136:  MOVWF  xFA
05138:  MOVLB  0
0513A:  CALL   1DFE
....................       strcpy(Menus.Letra,palabra); 
0513E:  MOVLB  7
05140:  MOVFF  7E2,01
05144:  MOVFF  7E3,03
05148:  MOVFF  7E2,7F3
0514C:  MOVFF  7E3,7F4
05150:  MOVLW  07
05152:  MOVWF  FEA
05154:  MOVLW  BD
05156:  MOVWF  FE9
05158:  MOVFF  7E3,FE2
0515C:  MOVFF  7E2,FE1
05160:  MOVF   FE7,F
05162:  MOVFF  FE6,FEE
05166:  BNZ   5160
....................       glcd_text57(x+90, y+1, voltage, tamano, OFF); 
05168:  MOVLW  5A
0516A:  ADDWF  xE6,W
0516C:  MOVWF  xF3
0516E:  MOVLW  01
05170:  ADDWF  xE7,W
05172:  MOVWF  xF4
05174:  MOVFF  7F3,7F5
05178:  MOVWF  xF6
0517A:  MOVLW  07
0517C:  MOVWF  xF8
0517E:  MOVLW  EA
05180:  MOVWF  xF7
05182:  MOVFF  7E9,7F9
05186:  CLRF   xFA
05188:  MOVLB  0
0518A:  CALL   1AF6
....................       glcd_text57(x+1, y+1, Menus.Letra, tamano, OFF); 
0518E:  MOVLW  01
05190:  MOVLB  7
05192:  ADDWF  xE6,W
05194:  MOVWF  xF3
05196:  MOVLW  01
05198:  ADDWF  xE7,W
0519A:  MOVWF  xF4
0519C:  MOVFF  7F3,7F5
051A0:  MOVWF  xF6
051A2:  MOVLW  07
051A4:  MOVWF  xF8
051A6:  MOVLW  BD
051A8:  MOVWF  xF7
051AA:  MOVFF  7E9,7F9
051AE:  CLRF   xFA
051B0:  MOVLB  0
051B2:  CALL   1AF6
....................       strcpy(Menus.Letra,"C"); 
051B6:  MOVLW  07
051B8:  MOVWF  FEA
051BA:  MOVLW  BD
051BC:  MOVWF  FE9
051BE:  MOVFF  FF2,7F3
051C2:  BCF    FF2.7
051C4:  MOVLW  00
051C6:  CALL   06D2
051CA:  TBLRD*-
051CC:  TBLRD*+
051CE:  MOVF   FF5,W
051D0:  MOVWF  FEE
051D2:  IORLW  00
051D4:  BNZ   51CC
051D6:  MOVLB  7
051D8:  BTFSC  xF3.7
051DA:  BSF    FF2.7
....................       glcd_text57(x+120, y+1, Menus.Letra, tamano, OFF); 
051DC:  MOVLW  78
051DE:  ADDWF  xE6,W
051E0:  MOVWF  xF3
051E2:  MOVLW  01
051E4:  ADDWF  xE7,W
051E6:  MOVWF  xF4
051E8:  MOVFF  7F3,7F5
051EC:  MOVWF  xF6
051EE:  MOVLW  07
051F0:  MOVWF  xF8
051F2:  MOVLW  BD
051F4:  MOVWF  xF7
051F6:  MOVFF  7E9,7F9
051FA:  CLRF   xFA
051FC:  MOVLB  0
051FE:  CALL   1AF6
....................       glcd_circle(x+115,y-1,1,NO,OFF); 
05202:  MOVLW  73
05204:  MOVLB  7
05206:  ADDWF  xE6,W
05208:  MOVWF  xF3
0520A:  MOVLW  01
0520C:  SUBWF  xE7,W
0520E:  MOVWF  xF4
05210:  MOVFF  7F3,7F5
05214:  MOVWF  xF6
05216:  MOVLW  01
05218:  MOVWF  xF7
0521A:  CLRF   xF8
0521C:  CLRF   xF9
0521E:  MOVLB  0
05220:  RCALL  4D22
05222:  MOVLB  7
....................    } 
....................    if(sombreado==0) 
05224:  MOVF   xE8,F
05226:  BTFSS  FD8.2
05228:  BRA    5358
....................    { 
....................       sprintf(voltage, "%04Lu", digito); 
0522A:  MOVLW  07
0522C:  MOVWF  xDC
0522E:  MOVLW  EA
05230:  MOVWF  xDB
05232:  MOVLW  09
05234:  MOVWF  FE9
05236:  MOVFF  7E5,7F4
0523A:  MOVFF  7E4,7F3
0523E:  MOVLB  0
05240:  RCALL  4AAC
....................       glcd_rect(0, y-2, 127, y+(tamano*8), YES, OFF); 
05242:  MOVLW  02
05244:  MOVLB  7
05246:  SUBWF  xE7,W
05248:  MOVWF  xF3
0524A:  MOVF   xE9,W
0524C:  MULLW  08
0524E:  MOVF   FF3,W
05250:  ADDWF  xE7,W
05252:  MOVWF  xF4
05254:  CLRF   xF5
05256:  MOVFF  7F3,7F6
0525A:  MOVLW  7F
0525C:  MOVWF  xF7
0525E:  MOVFF  7F4,7F8
05262:  MOVLW  01
05264:  MOVWF  xF9
05266:  CLRF   xFA
05268:  MOVLB  0
0526A:  CALL   1DFE
....................       strcpy(Menus.Letra,palabra); 
0526E:  MOVLB  7
05270:  MOVFF  7E2,01
05274:  MOVFF  7E3,03
05278:  MOVFF  7E2,7F3
0527C:  MOVFF  7E3,7F4
05280:  MOVLW  07
05282:  MOVWF  FEA
05284:  MOVLW  BD
05286:  MOVWF  FE9
05288:  MOVFF  7E3,FE2
0528C:  MOVFF  7E2,FE1
05290:  MOVF   FE7,F
05292:  MOVFF  FE6,FEE
05296:  BNZ   5290
....................       glcd_text57(x+90, y+1, voltage, tamano, ON); 
05298:  MOVLW  5A
0529A:  ADDWF  xE6,W
0529C:  MOVWF  xF3
0529E:  MOVLW  01
052A0:  ADDWF  xE7,W
052A2:  MOVWF  xF4
052A4:  MOVFF  7F3,7F5
052A8:  MOVWF  xF6
052AA:  MOVLW  07
052AC:  MOVWF  xF8
052AE:  MOVLW  EA
052B0:  MOVWF  xF7
052B2:  MOVFF  7E9,7F9
052B6:  MOVLW  01
052B8:  MOVWF  xFA
052BA:  MOVLB  0
052BC:  CALL   1AF6
....................       glcd_text57(x+1, y+1, Menus.Letra, tamano, ON); 
052C0:  MOVLW  01
052C2:  MOVLB  7
052C4:  ADDWF  xE6,W
052C6:  MOVWF  xF3
052C8:  MOVLW  01
052CA:  ADDWF  xE7,W
052CC:  MOVWF  xF4
052CE:  MOVFF  7F3,7F5
052D2:  MOVWF  xF6
052D4:  MOVLW  07
052D6:  MOVWF  xF8
052D8:  MOVLW  BD
052DA:  MOVWF  xF7
052DC:  MOVFF  7E9,7F9
052E0:  MOVLW  01
052E2:  MOVWF  xFA
052E4:  MOVLB  0
052E6:  CALL   1AF6
....................       strcpy(Menus.Letra,"C"); 
052EA:  MOVLW  07
052EC:  MOVWF  FEA
052EE:  MOVLW  BD
052F0:  MOVWF  FE9
052F2:  MOVFF  FF2,7F3
052F6:  BCF    FF2.7
052F8:  MOVLW  00
052FA:  CALL   06D2
052FE:  TBLRD*-
05300:  TBLRD*+
05302:  MOVF   FF5,W
05304:  MOVWF  FEE
05306:  IORLW  00
05308:  BNZ   5300
0530A:  MOVLB  7
0530C:  BTFSC  xF3.7
0530E:  BSF    FF2.7
....................       glcd_text57(x+120, y+1, Menus.Letra, tamano, ON); 
05310:  MOVLW  78
05312:  ADDWF  xE6,W
05314:  MOVWF  xF3
05316:  MOVLW  01
05318:  ADDWF  xE7,W
0531A:  MOVWF  xF4
0531C:  MOVFF  7F3,7F5
05320:  MOVWF  xF6
05322:  MOVLW  07
05324:  MOVWF  xF8
05326:  MOVLW  BD
05328:  MOVWF  xF7
0532A:  MOVFF  7E9,7F9
0532E:  MOVLW  01
05330:  MOVWF  xFA
05332:  MOVLB  0
05334:  CALL   1AF6
....................       glcd_circle(x+115,y-1,1,NO,ON); 
05338:  MOVLW  73
0533A:  MOVLB  7
0533C:  ADDWF  xE6,W
0533E:  MOVWF  xF3
05340:  MOVLW  01
05342:  SUBWF  xE7,W
05344:  MOVWF  xF4
05346:  MOVFF  7F3,7F5
0534A:  MOVWF  xF6
0534C:  MOVLW  01
0534E:  MOVWF  xF7
05350:  CLRF   xF8
05352:  MOVWF  xF9
05354:  MOVLB  0
05356:  RCALL  4D22
....................    } 
....................    glcd_update(); 
05358:  MOVLB  0
0535A:  CALL   18DA
.................... } 
0535E:  RETLW  00
....................  
.................... void displayTiempo(int digito, int x, int y, int sombreado, int tamano) 
.................... { 
....................    char voltage[9]; 
....................     
....................    if(sombreado==2) 
*
03950:  MOVLB  7
03952:  MOVF   xE3,W
03954:  SUBLW  02
03956:  BNZ   39C8
....................    { 
....................       sprintf(voltage, "%03u", digito); 
03958:  MOVLW  07
0395A:  MOVWF  xDC
0395C:  MOVLW  E5
0395E:  MOVWF  xDB
03960:  MOVFF  7E0,7EE
03964:  MOVLW  03
03966:  MOVWF  xEF
03968:  MOVLB  0
0396A:  RCALL  38CA
....................       glcd_rect(x, y, x+(tamano*18), y+(tamano*8), YES, ON); 
0396C:  MOVLB  7
0396E:  MOVF   xE4,W
03970:  MULLW  12
03972:  MOVF   FF3,W
03974:  ADDWF  xE1,W
03976:  MOVWF  xEE
03978:  MOVF   xE4,W
0397A:  MULLW  08
0397C:  MOVF   FF3,W
0397E:  ADDWF  xE2,W
03980:  MOVWF  xEF
03982:  MOVFF  7E1,7F5
03986:  MOVFF  7E2,7F6
0398A:  MOVFF  7EE,7F7
0398E:  MOVWF  xF8
03990:  MOVLW  01
03992:  MOVWF  xF9
03994:  MOVWF  xFA
03996:  MOVLB  0
03998:  CALL   1DFE
....................       glcd_text57(x+1, y+1, voltage, tamano, OFF); 
0399C:  MOVLW  01
0399E:  MOVLB  7
039A0:  ADDWF  xE1,W
039A2:  MOVWF  xEE
039A4:  MOVLW  01
039A6:  ADDWF  xE2,W
039A8:  MOVWF  xEF
039AA:  MOVFF  7EE,7F5
039AE:  MOVWF  xF6
039B0:  MOVLW  07
039B2:  MOVWF  xF8
039B4:  MOVLW  E5
039B6:  MOVWF  xF7
039B8:  MOVFF  7E4,7F9
039BC:  CLRF   xFA
039BE:  MOVLB  0
039C0:  CALL   1AF6
....................    } 
....................    else 
039C4:  BRA    3B0C
039C6:  MOVLB  7
....................    { 
....................       if(sombreado==3) 
039C8:  MOVF   xE3,W
039CA:  SUBLW  03
039CC:  BNZ   3A3E
....................       { 
....................          sprintf(voltage, "%03u", digito); 
039CE:  MOVLW  07
039D0:  MOVWF  xDC
039D2:  MOVLW  E5
039D4:  MOVWF  xDB
039D6:  MOVFF  7E0,7EE
039DA:  MOVLW  03
039DC:  MOVWF  xEF
039DE:  MOVLB  0
039E0:  RCALL  38CA
....................          glcd_rect(x, y, x+(tamano*18), y+(tamano*8), YES, OFF); 
039E2:  MOVLB  7
039E4:  MOVF   xE4,W
039E6:  MULLW  12
039E8:  MOVF   FF3,W
039EA:  ADDWF  xE1,W
039EC:  MOVWF  xEE
039EE:  MOVF   xE4,W
039F0:  MULLW  08
039F2:  MOVF   FF3,W
039F4:  ADDWF  xE2,W
039F6:  MOVWF  xEF
039F8:  MOVFF  7E1,7F5
039FC:  MOVFF  7E2,7F6
03A00:  MOVFF  7EE,7F7
03A04:  MOVWF  xF8
03A06:  MOVLW  01
03A08:  MOVWF  xF9
03A0A:  CLRF   xFA
03A0C:  MOVLB  0
03A0E:  CALL   1DFE
....................          glcd_text57(x+1, y+1, voltage, tamano, ON); 
03A12:  MOVLW  01
03A14:  MOVLB  7
03A16:  ADDWF  xE1,W
03A18:  MOVWF  xEE
03A1A:  MOVLW  01
03A1C:  ADDWF  xE2,W
03A1E:  MOVWF  xEF
03A20:  MOVFF  7EE,7F5
03A24:  MOVWF  xF6
03A26:  MOVLW  07
03A28:  MOVWF  xF8
03A2A:  MOVLW  E5
03A2C:  MOVWF  xF7
03A2E:  MOVFF  7E4,7F9
03A32:  MOVLW  01
03A34:  MOVWF  xFA
03A36:  MOVLB  0
03A38:  CALL   1AF6
03A3C:  MOVLB  7
....................       } 
....................       sprintf(voltage, "%u", digito); 
03A3E:  MOVLW  07
03A40:  MOVWF  xDC
03A42:  MOVLW  E5
03A44:  MOVWF  xDB
03A46:  MOVFF  7E0,7EE
03A4A:  MOVLW  1B
03A4C:  MOVWF  xEF
03A4E:  MOVLB  0
03A50:  RCALL  38CA
....................       if(sombreado==1) 
03A52:  MOVLB  7
03A54:  DECFSZ xE3,W
03A56:  BRA    3AB0
....................          {glcd_rect(x, y, x+(tamano*5), y+(tamano*8), YES, ON);glcd_text57(x+1, y+1, voltage, tamano, OFF);} 
03A58:  MOVF   xE4,W
03A5A:  MULLW  05
03A5C:  MOVF   FF3,W
03A5E:  ADDWF  xE1,W
03A60:  MOVWF  xEE
03A62:  MOVF   xE4,W
03A64:  MULLW  08
03A66:  MOVF   FF3,W
03A68:  ADDWF  xE2,W
03A6A:  MOVWF  xEF
03A6C:  MOVFF  7E1,7F5
03A70:  MOVFF  7E2,7F6
03A74:  MOVFF  7EE,7F7
03A78:  MOVWF  xF8
03A7A:  MOVLW  01
03A7C:  MOVWF  xF9
03A7E:  MOVWF  xFA
03A80:  MOVLB  0
03A82:  CALL   1DFE
03A86:  MOVLW  01
03A88:  MOVLB  7
03A8A:  ADDWF  xE1,W
03A8C:  MOVWF  xEE
03A8E:  MOVLW  01
03A90:  ADDWF  xE2,W
03A92:  MOVWF  xEF
03A94:  MOVFF  7EE,7F5
03A98:  MOVWF  xF6
03A9A:  MOVLW  07
03A9C:  MOVWF  xF8
03A9E:  MOVLW  E5
03AA0:  MOVWF  xF7
03AA2:  MOVFF  7E4,7F9
03AA6:  CLRF   xFA
03AA8:  MOVLB  0
03AAA:  CALL   1AF6
03AAE:  MOVLB  7
....................       if(sombreado==0) 
03AB0:  MOVF   xE3,F
03AB2:  BNZ   3B0E
....................          {glcd_rect(x, y, x+(tamano*5), y+(tamano*8), YES, OFF);glcd_text57(x+1, y+1, voltage, tamano, ON);} 
03AB4:  MOVF   xE4,W
03AB6:  MULLW  05
03AB8:  MOVF   FF3,W
03ABA:  ADDWF  xE1,W
03ABC:  MOVWF  xEE
03ABE:  MOVF   xE4,W
03AC0:  MULLW  08
03AC2:  MOVF   FF3,W
03AC4:  ADDWF  xE2,W
03AC6:  MOVWF  xEF
03AC8:  MOVFF  7E1,7F5
03ACC:  MOVFF  7E2,7F6
03AD0:  MOVFF  7EE,7F7
03AD4:  MOVWF  xF8
03AD6:  MOVLW  01
03AD8:  MOVWF  xF9
03ADA:  CLRF   xFA
03ADC:  MOVLB  0
03ADE:  CALL   1DFE
03AE2:  MOVLW  01
03AE4:  MOVLB  7
03AE6:  ADDWF  xE1,W
03AE8:  MOVWF  xEE
03AEA:  MOVLW  01
03AEC:  ADDWF  xE2,W
03AEE:  MOVWF  xEF
03AF0:  MOVFF  7EE,7F5
03AF4:  MOVWF  xF6
03AF6:  MOVLW  07
03AF8:  MOVWF  xF8
03AFA:  MOVLW  E5
03AFC:  MOVWF  xF7
03AFE:  MOVFF  7E4,7F9
03B02:  MOVLW  01
03B04:  MOVWF  xFA
03B06:  MOVLB  0
03B08:  CALL   1AF6
03B0C:  MOVLB  7
....................    } 
....................    glcd_update(); 
03B0E:  MOVLB  0
03B10:  CALL   18DA
.................... } 
03B14:  RETLW  00
....................  
.................... void displayTemperatura(int16 digito, int x, int y, int sombreado, int tamano) 
.................... { 
....................    char voltage[9]; 
....................     
....................    if(sombreado==2) 
*
04B6A:  MOVLB  7
04B6C:  MOVF   xE6,W
04B6E:  SUBLW  02
04B70:  BNZ   4BE6
....................    { 
....................       sprintf(voltage, "%04Lu", digito); 
04B72:  MOVLW  07
04B74:  MOVWF  xDC
04B76:  MOVLW  E8
04B78:  MOVWF  xDB
04B7A:  MOVLW  09
04B7C:  MOVWF  FE9
04B7E:  MOVFF  7E3,7F4
04B82:  MOVFF  7E2,7F3
04B86:  MOVLB  0
04B88:  RCALL  4AAC
....................       glcd_rect(x, y, x+(tamano*18), y+(tamano*8), YES, ON); 
04B8A:  MOVLB  7
04B8C:  MOVF   xE7,W
04B8E:  MULLW  12
04B90:  MOVF   FF3,W
04B92:  ADDWF  xE4,W
04B94:  MOVWF  xF1
04B96:  MOVF   xE7,W
04B98:  MULLW  08
04B9A:  MOVF   FF3,W
04B9C:  ADDWF  xE5,W
04B9E:  MOVWF  xF2
04BA0:  MOVFF  7E4,7F5
04BA4:  MOVFF  7E5,7F6
04BA8:  MOVFF  7F1,7F7
04BAC:  MOVWF  xF8
04BAE:  MOVLW  01
04BB0:  MOVWF  xF9
04BB2:  MOVWF  xFA
04BB4:  MOVLB  0
04BB6:  CALL   1DFE
....................       glcd_text57(x+1, y+1, voltage, tamano, OFF); 
04BBA:  MOVLW  01
04BBC:  MOVLB  7
04BBE:  ADDWF  xE4,W
04BC0:  MOVWF  xF1
04BC2:  MOVLW  01
04BC4:  ADDWF  xE5,W
04BC6:  MOVWF  xF2
04BC8:  MOVFF  7F1,7F5
04BCC:  MOVWF  xF6
04BCE:  MOVLW  07
04BD0:  MOVWF  xF8
04BD2:  MOVLW  E8
04BD4:  MOVWF  xF7
04BD6:  MOVFF  7E7,7F9
04BDA:  CLRF   xFA
04BDC:  MOVLB  0
04BDE:  CALL   1AF6
....................    } 
....................    else 
04BE2:  BRA    4D18
04BE4:  MOVLB  7
....................    { 
....................       sprintf(voltage, "%04Lu", digito); 
04BE6:  MOVLW  07
04BE8:  MOVWF  xDC
04BEA:  MOVLW  E8
04BEC:  MOVWF  xDB
04BEE:  MOVLW  09
04BF0:  MOVWF  FE9
04BF2:  MOVFF  7E3,7F4
04BF6:  MOVFF  7E2,7F3
04BFA:  MOVLB  0
04BFC:  RCALL  4AAC
....................     
....................       if(sombreado==4) 
04BFE:  MOVLB  7
04C00:  MOVF   xE6,W
04C02:  SUBLW  04
04C04:  BNZ   4C60
....................       { 
....................          glcd_rect(x, y, x+(tamano*16), y+(tamano*8), YES, OFF); 
04C06:  MOVF   xE7,W
04C08:  MULLW  10
04C0A:  MOVF   FF3,W
04C0C:  ADDWF  xE4,W
04C0E:  MOVWF  xF1
04C10:  MOVF   xE7,W
04C12:  MULLW  08
04C14:  MOVF   FF3,W
04C16:  ADDWF  xE5,W
04C18:  MOVWF  xF2
04C1A:  MOVFF  7E4,7F5
04C1E:  MOVFF  7E5,7F6
04C22:  MOVFF  7F1,7F7
04C26:  MOVWF  xF8
04C28:  MOVLW  01
04C2A:  MOVWF  xF9
04C2C:  CLRF   xFA
04C2E:  MOVLB  0
04C30:  CALL   1DFE
....................          glcd_text57(x+1, y+1, voltage, tamano, ON); 
04C34:  MOVLW  01
04C36:  MOVLB  7
04C38:  ADDWF  xE4,W
04C3A:  MOVWF  xF1
04C3C:  MOVLW  01
04C3E:  ADDWF  xE5,W
04C40:  MOVWF  xF2
04C42:  MOVFF  7F1,7F5
04C46:  MOVWF  xF6
04C48:  MOVLW  07
04C4A:  MOVWF  xF8
04C4C:  MOVLW  E8
04C4E:  MOVWF  xF7
04C50:  MOVFF  7E7,7F9
04C54:  MOVLW  01
04C56:  MOVWF  xFA
04C58:  MOVLB  0
04C5A:  CALL   1AF6
04C5E:  MOVLB  7
....................       } 
....................       if(sombreado==1) 
04C60:  DECFSZ xE6,W
04C62:  BRA    4CBC
....................          {glcd_rect(x, y, x+(tamano*5), y+(tamano*8), YES, ON);glcd_text57(x+1, y+1, voltage, tamano, OFF);} 
04C64:  MOVF   xE7,W
04C66:  MULLW  05
04C68:  MOVF   FF3,W
04C6A:  ADDWF  xE4,W
04C6C:  MOVWF  xF1
04C6E:  MOVF   xE7,W
04C70:  MULLW  08
04C72:  MOVF   FF3,W
04C74:  ADDWF  xE5,W
04C76:  MOVWF  xF2
04C78:  MOVFF  7E4,7F5
04C7C:  MOVFF  7E5,7F6
04C80:  MOVFF  7F1,7F7
04C84:  MOVWF  xF8
04C86:  MOVLW  01
04C88:  MOVWF  xF9
04C8A:  MOVWF  xFA
04C8C:  MOVLB  0
04C8E:  CALL   1DFE
04C92:  MOVLW  01
04C94:  MOVLB  7
04C96:  ADDWF  xE4,W
04C98:  MOVWF  xF1
04C9A:  MOVLW  01
04C9C:  ADDWF  xE5,W
04C9E:  MOVWF  xF2
04CA0:  MOVFF  7F1,7F5
04CA4:  MOVWF  xF6
04CA6:  MOVLW  07
04CA8:  MOVWF  xF8
04CAA:  MOVLW  E8
04CAC:  MOVWF  xF7
04CAE:  MOVFF  7E7,7F9
04CB2:  CLRF   xFA
04CB4:  MOVLB  0
04CB6:  CALL   1AF6
04CBA:  MOVLB  7
....................       if(sombreado==0) 
04CBC:  MOVF   xE6,F
04CBE:  BNZ   4D1A
....................          {glcd_rect(x, y, x+(tamano*5), y+(tamano*8), YES, OFF);glcd_text57(x+1, y+1, voltage, tamano, ON);} 
04CC0:  MOVF   xE7,W
04CC2:  MULLW  05
04CC4:  MOVF   FF3,W
04CC6:  ADDWF  xE4,W
04CC8:  MOVWF  xF1
04CCA:  MOVF   xE7,W
04CCC:  MULLW  08
04CCE:  MOVF   FF3,W
04CD0:  ADDWF  xE5,W
04CD2:  MOVWF  xF2
04CD4:  MOVFF  7E4,7F5
04CD8:  MOVFF  7E5,7F6
04CDC:  MOVFF  7F1,7F7
04CE0:  MOVWF  xF8
04CE2:  MOVLW  01
04CE4:  MOVWF  xF9
04CE6:  CLRF   xFA
04CE8:  MOVLB  0
04CEA:  CALL   1DFE
04CEE:  MOVLW  01
04CF0:  MOVLB  7
04CF2:  ADDWF  xE4,W
04CF4:  MOVWF  xF1
04CF6:  MOVLW  01
04CF8:  ADDWF  xE5,W
04CFA:  MOVWF  xF2
04CFC:  MOVFF  7F1,7F5
04D00:  MOVWF  xF6
04D02:  MOVLW  07
04D04:  MOVWF  xF8
04D06:  MOVLW  E8
04D08:  MOVWF  xF7
04D0A:  MOVFF  7E7,7F9
04D0E:  MOVLW  01
04D10:  MOVWF  xFA
04D12:  MOVLB  0
04D14:  CALL   1AF6
04D18:  MOVLB  7
....................    } 
....................    glcd_update(); 
04D1A:  MOVLB  0
04D1C:  CALL   18DA
.................... } 
04D20:  RETLW  00
....................  
.................... void glcd_imagen(int8 x) 
.................... { 
....................    char i,j; 
....................    signed char k;  
....................     
....................    if(x==5){ 
*
05FC4:  MOVLB  7
05FC6:  MOVF   xDD,W
05FC8:  SUBLW  05
05FCA:  BNZ   6074
....................    for( i = 0 ; i < 64 ; i ++ ) 
05FCC:  CLRF   xDE
05FCE:  MOVF   xDE,W
05FD0:  SUBLW  3F
05FD2:  BNC   6074
....................    {   
....................       for( j = 0 ; j < 16 ; j ++) 
05FD4:  CLRF   xDF
05FD6:  MOVF   xDF,W
05FD8:  SUBLW  0F
05FDA:  BNC   6070
....................       {     
....................          for(k=7;k>-1;k--) 
05FDC:  MOVLW  07
05FDE:  MOVWF  xE0
05FE0:  MOVF   xE0,W
05FE2:  XORLW  80
05FE4:  SUBLW  7F
05FE6:  BC    606C
....................          {       
....................             if( bit_test(Horno[i][j] ,7-k ))  
05FE8:  CLRF   xE2
05FEA:  MOVFF  7DE,7E1
05FEE:  CLRF   xE4
05FF0:  MOVLW  10
05FF2:  MOVWF  xE3
05FF4:  MOVLB  0
05FF6:  CALL   2F8E
05FFA:  MOVFF  02,7E2
05FFE:  MOVFF  01,7E1
06002:  MOVLB  7
06004:  MOVF   xDF,W
06006:  ADDWF  01,W
06008:  MOVWF  01
0600A:  MOVLW  00
0600C:  ADDWFC 02,W
0600E:  MOVWF  03
06010:  MOVF   01,W
06012:  MOVFF  FF2,7E1
06016:  BCF    FF2.7
06018:  MOVFF  03,FF7
0601C:  MOVLB  0
0601E:  CALL   02B6
06022:  MOVLB  7
06024:  BTFSC  xE1.7
06026:  BSF    FF2.7
06028:  MOVWF  xE1
0602A:  MOVLW  07
0602C:  BSF    FD8.0
0602E:  SUBFWB xE0,W
06030:  MOVWF  xE2
06032:  MOVFF  7E1,00
06036:  MOVF   xE2,W
06038:  MOVWF  01
0603A:  BZ    6044
0603C:  BCF    FD8.0
0603E:  RRCF   00,F
06040:  DECFSZ 01,F
06042:  BRA    603C
06044:  BTFSS  00.0
06046:  BRA    6068
....................                glcd_pixel( j*8+k,i, ON ); 
06048:  MOVF   xDF,W
0604A:  MULLW  08
0604C:  MOVF   FF3,W
0604E:  ADDWF  xE0,W
06050:  MOVWF  xE1
06052:  MOVFF  FE8,811
06056:  MOVFF  7DE,812
0605A:  MOVLW  01
0605C:  MOVLB  8
0605E:  MOVWF  x13
06060:  MOVLB  0
06062:  CALL   1A3A
06066:  MOVLB  7
....................          }   
06068:  DECF   xE0,F
0606A:  BRA    5FE0
....................       } 
0606C:  INCF   xDF,F
0606E:  BRA    5FD6
....................    } 
06070:  INCF   xDE,F
06072:  BRA    5FCE
....................    } 
....................     
.................... } 
06074:  MOVLB  0
06076:  GOTO   BB40 (RETURN)
....................     
.................... void Limpia(int x1,int x2,int y){ 
....................    glcd_rect(x1, y, x2, y+7, YES, OFF); 
.................... } 
....................  
.................... void displayT(int16 adc,int x,int y,int w) { 
....................    char voltage[9];     
....................    sprintf(voltage, "%04Lu",adc); // Converts adc to text 
*
0741C:  MOVLW  07
0741E:  MOVLB  7
07420:  MOVWF  xDC
07422:  MOVLW  E4
07424:  MOVWF  xDB
07426:  MOVLW  09
07428:  MOVWF  FE9
0742A:  MOVFF  7E0,7F4
0742E:  MOVFF  7DF,7F3
07432:  MOVLB  0
07434:  CALL   4AAC
....................    glcd_rect(x, y, x+(w*27), y+(w*8), YES, OFF); 
07438:  MOVLB  7
0743A:  MOVF   xE3,W
0743C:  MULLW  1B
0743E:  MOVF   FF3,W
07440:  ADDWF  xE1,W
07442:  MOVWF  xED
07444:  MOVF   xE3,W
07446:  MULLW  08
07448:  MOVF   FF3,W
0744A:  ADDWF  xE2,W
0744C:  MOVWF  xEE
0744E:  MOVFF  7E1,7F5
07452:  MOVFF  7E2,7F6
07456:  MOVFF  7ED,7F7
0745A:  MOVWF  xF8
0745C:  MOVLW  01
0745E:  MOVWF  xF9
07460:  CLRF   xFA
07462:  MOVLB  0
07464:  CALL   1DFE
....................    glcd_text57(x, y, voltage, w, ON); 
07468:  MOVFF  7E1,7F5
0746C:  MOVFF  7E2,7F6
07470:  MOVLW  07
07472:  MOVLB  7
07474:  MOVWF  xF8
07476:  MOVLW  E4
07478:  MOVWF  xF7
0747A:  MOVFF  7E3,7F9
0747E:  MOVLW  01
07480:  MOVWF  xFA
07482:  MOVLB  0
07484:  CALL   1AF6
.................... } 
07488:  GOTO   D176 (RETURN)
....................  
.................... void displayFloat(float adc,int x,int y,int w) { 
....................    char voltage[9];     
....................    sprintf(voltage, "%03.1f",adc); // Converts adc to text 
*
0764E:  MOVLW  07
07650:  MOVLB  7
07652:  MOVWF  xDC
07654:  MOVLW  E4
07656:  MOVWF  xDB
07658:  MOVLW  42
0765A:  MOVWF  FE9
0765C:  MOVFF  7E0,7F0
07660:  MOVFF  7DF,7EF
07664:  MOVFF  7DE,7EE
07668:  MOVFF  7DD,7ED
0766C:  MOVLW  01
0766E:  MOVWF  xF1
07670:  MOVLB  0
07672:  BRA    748C
....................    glcd_rect(x, y, x+(w*27), y+(w*8), YES, OFF); 
07674:  MOVLB  7
07676:  MOVF   xE3,W
07678:  MULLW  1B
0767A:  MOVF   FF3,W
0767C:  ADDWF  xE1,W
0767E:  MOVWF  xED
07680:  MOVF   xE3,W
07682:  MULLW  08
07684:  MOVF   FF3,W
07686:  ADDWF  xE2,W
07688:  MOVWF  xEE
0768A:  MOVFF  7E1,7F5
0768E:  MOVFF  7E2,7F6
07692:  MOVFF  7ED,7F7
07696:  MOVWF  xF8
07698:  MOVLW  01
0769A:  MOVWF  xF9
0769C:  CLRF   xFA
0769E:  MOVLB  0
076A0:  CALL   1DFE
....................    glcd_text57(x, y, voltage, w, ON); 
076A4:  MOVFF  7E1,7F5
076A8:  MOVFF  7E2,7F6
076AC:  MOVLW  07
076AE:  MOVLB  7
076B0:  MOVWF  xF8
076B2:  MOVLW  E4
076B4:  MOVWF  xF7
076B6:  MOVFF  7E3,7F9
076BA:  MOVLW  01
076BC:  MOVWF  xFA
076BE:  MOVLB  0
076C0:  CALL   1AF6
.................... } 
076C4:  GOTO   D44E (RETURN)
....................  
.................... void displayContrasena(int digito, int x, int y, int sombreado) 
.................... { 
....................    char voltage[9]; 
....................    sprintf(voltage, "%i", digito); 
*
02112:  MOVLW  07
02114:  MOVLB  7
02116:  MOVWF  xDC
02118:  MOVLW  E3
0211A:  MOVWF  xDB
0211C:  MOVFF  7DF,7EC
02120:  MOVLW  1F
02122:  MOVWF  xED
02124:  MOVLB  0
02126:  BRA    2032
....................     
....................    if(sombreado==1) 
02128:  MOVLB  7
0212A:  DECFSZ xE2,W
0212C:  BRA    217C
....................       {glcd_rect(x, y, x+18, y+24, YES, ON);glcd_text57(x+2, y+1, voltage, 2, OFF);} 
0212E:  MOVLW  12
02130:  ADDWF  xE0,W
02132:  MOVWF  xEC
02134:  MOVLW  18
02136:  ADDWF  xE1,W
02138:  MOVWF  xED
0213A:  MOVFF  7E0,7F5
0213E:  MOVFF  7E1,7F6
02142:  MOVFF  7EC,7F7
02146:  MOVWF  xF8
02148:  MOVLW  01
0214A:  MOVWF  xF9
0214C:  MOVWF  xFA
0214E:  MOVLB  0
02150:  RCALL  1DFE
02152:  MOVLW  02
02154:  MOVLB  7
02156:  ADDWF  xE0,W
02158:  MOVWF  xEC
0215A:  MOVLW  01
0215C:  ADDWF  xE1,W
0215E:  MOVWF  xED
02160:  MOVFF  7EC,7F5
02164:  MOVWF  xF6
02166:  MOVLW  07
02168:  MOVWF  xF8
0216A:  MOVLW  E3
0216C:  MOVWF  xF7
0216E:  MOVLW  02
02170:  MOVWF  xF9
02172:  CLRF   xFA
02174:  MOVLB  0
02176:  RCALL  1AF6
....................    else    
02178:  BRA    21C6
0217A:  MOVLB  7
....................       {glcd_rect(x, y, x+18, y+24, NO, OFF);glcd_text57(x+2, y+1, voltage, 2, ON);} 
0217C:  MOVLW  12
0217E:  ADDWF  xE0,W
02180:  MOVWF  xEC
02182:  MOVLW  18
02184:  ADDWF  xE1,W
02186:  MOVWF  xED
02188:  MOVFF  7E0,7F5
0218C:  MOVFF  7E1,7F6
02190:  MOVFF  7EC,7F7
02194:  MOVWF  xF8
02196:  CLRF   xF9
02198:  CLRF   xFA
0219A:  MOVLB  0
0219C:  RCALL  1DFE
0219E:  MOVLW  02
021A0:  MOVLB  7
021A2:  ADDWF  xE0,W
021A4:  MOVWF  xEC
021A6:  MOVLW  01
021A8:  ADDWF  xE1,W
021AA:  MOVWF  xED
021AC:  MOVFF  7EC,7F5
021B0:  MOVWF  xF6
021B2:  MOVLW  07
021B4:  MOVWF  xF8
021B6:  MOVLW  E3
021B8:  MOVWF  xF7
021BA:  MOVLW  02
021BC:  MOVWF  xF9
021BE:  MOVLW  01
021C0:  MOVWF  xFA
021C2:  MOVLB  0
021C4:  RCALL  1AF6
....................  
.................... } 
021C6:  RETLW  00
....................  
.................... void MuestraSegmento(int8 Opcio,int8 l,int8 Prog ){ 
....................          if(Temperatura1[l+((Prog-1)*10)]>1200) 
*
05360:  MOVLW  01
05362:  MOVLB  7
05364:  SUBWF  xDF,W
05366:  MULLW  0A
05368:  MOVF   FF3,W
0536A:  ADDWF  xDE,W
0536C:  MOVWF  00
0536E:  BCF    FD8.0
05370:  RLCF   00,F
05372:  MOVF   00,W
05374:  CLRF   03
05376:  ADDLW  67
05378:  MOVWF  FE9
0537A:  MOVLW  06
0537C:  ADDWFC 03,W
0537E:  MOVWF  FEA
05380:  MOVFF  FEC,7E1
05384:  MOVF   FED,F
05386:  MOVFF  FEF,7E0
0538A:  BTFSC  xE1.7
0538C:  BRA    53C2
0538E:  MOVF   xE1,W
05390:  SUBLW  03
05392:  BC    53C2
05394:  XORLW  FF
05396:  BNZ   539E
05398:  MOVF   xE0,W
0539A:  SUBLW  B0
0539C:  BC    53C2
....................             Temperatura1[l+((Prog-1)*10)]=0; 
0539E:  MOVLW  01
053A0:  SUBWF  xDF,W
053A2:  MULLW  0A
053A4:  MOVF   FF3,W
053A6:  ADDWF  xDE,W
053A8:  MOVWF  00
053AA:  BCF    FD8.0
053AC:  RLCF   00,F
053AE:  MOVF   00,W
053B0:  CLRF   03
053B2:  ADDLW  67
053B4:  MOVWF  FE9
053B6:  MOVLW  06
053B8:  ADDWFC 03,W
053BA:  MOVWF  FEA
053BC:  CLRF   FEC
053BE:  MOVF   FED,F
053C0:  CLRF   FEF
....................           
....................          if(Temperatura1[l+((Prog-1)*10)]>1100){ 
053C2:  MOVLW  01
053C4:  SUBWF  xDF,W
053C6:  MULLW  0A
053C8:  MOVF   FF3,W
053CA:  ADDWF  xDE,W
053CC:  MOVWF  00
053CE:  BCF    FD8.0
053D0:  RLCF   00,F
053D2:  MOVF   00,W
053D4:  CLRF   03
053D6:  ADDLW  67
053D8:  MOVWF  FE9
053DA:  MOVLW  06
053DC:  ADDWFC 03,W
053DE:  MOVWF  FEA
053E0:  MOVFF  FEC,7E1
053E4:  MOVF   FED,F
053E6:  MOVFF  FEF,7E0
053EA:  BTFSC  xE1.7
053EC:  BRA    5422
053EE:  MOVF   xE1,W
053F0:  SUBLW  03
053F2:  BC    5422
053F4:  XORLW  FF
053F6:  BNZ   53FE
053F8:  MOVF   xE0,W
053FA:  SUBLW  4C
053FC:  BC    5422
....................             Horas1[l+((Prog-1)*10)]=0; 
053FE:  MOVLW  01
05400:  SUBWF  xDF,W
05402:  MULLW  0A
05404:  MOVF   FF3,W
05406:  ADDWF  xDE,W
05408:  MOVWF  00
0540A:  BCF    FD8.0
0540C:  RLCF   00,F
0540E:  MOVF   00,W
05410:  CLRF   03
05412:  ADDLW  CB
05414:  MOVWF  FE9
05416:  MOVLW  06
05418:  ADDWFC 03,W
0541A:  MOVWF  FEA
0541C:  CLRF   FEC
0541E:  MOVF   FED,F
05420:  CLRF   FEF
....................          } 
....................           
....................          strcpy(Menus.Letra,"P 0"); 
05422:  MOVLW  07
05424:  MOVWF  FEA
05426:  MOVLW  BD
05428:  MOVWF  FE9
0542A:  MOVFF  FF2,7E0
0542E:  BCF    FF2.7
05430:  MOVLW  00
05432:  MOVLB  0
05434:  CALL   06F2
05438:  TBLRD*-
0543A:  TBLRD*+
0543C:  MOVF   FF5,W
0543E:  MOVWF  FEE
05440:  IORLW  00
05442:  BNZ   543A
05444:  MOVLB  7
05446:  BTFSC  xE0.7
05448:  BSF    FF2.7
....................          displayMenu(Menus.Letra,30,0,1,2); 
0544A:  MOVLW  07
0544C:  MOVWF  xE1
0544E:  MOVLW  BD
05450:  MOVWF  xE0
05452:  MOVLW  1E
05454:  MOVWF  xE2
05456:  CLRF   xE3
05458:  MOVLW  01
0545A:  MOVWF  xE4
0545C:  MOVLW  02
0545E:  MOVWF  xE5
05460:  MOVLB  0
05462:  CALL   1EC0
....................          displayTiempo(Prog,68,0,1,2); 
05466:  MOVFF  7DF,7E0
0546A:  MOVLW  44
0546C:  MOVLB  7
0546E:  MOVWF  xE1
05470:  CLRF   xE2
05472:  MOVLW  01
05474:  MOVWF  xE3
05476:  MOVLW  02
05478:  MOVWF  xE4
0547A:  MOVLB  0
0547C:  CALL   3950
....................           
....................          strcpy(Menus.Letra,"Segmento 0"); 
05480:  MOVLW  07
05482:  MOVWF  FEA
05484:  MOVLW  BD
05486:  MOVWF  FE9
05488:  MOVFF  FF2,7E0
0548C:  BCF    FF2.7
0548E:  MOVLW  00
05490:  CALL   0714
05494:  TBLRD*-
05496:  TBLRD*+
05498:  MOVF   FF5,W
0549A:  MOVWF  FEE
0549C:  IORLW  00
0549E:  BNZ   5496
054A0:  MOVLB  7
054A2:  BTFSC  xE0.7
054A4:  BSF    FF2.7
....................          displayMenu(Menus.Letra,0,20,1,1); 
054A6:  MOVLW  07
054A8:  MOVWF  xE1
054AA:  MOVLW  BD
054AC:  MOVWF  xE0
054AE:  CLRF   xE2
054B0:  MOVLW  14
054B2:  MOVWF  xE3
054B4:  MOVLW  01
054B6:  MOVWF  xE4
054B8:  MOVWF  xE5
054BA:  MOVLB  0
054BC:  CALL   1EC0
....................          displayTiempo(l,63,20,1,1); 
054C0:  MOVFF  7DE,7E0
054C4:  MOVLW  3F
054C6:  MOVLB  7
054C8:  MOVWF  xE1
054CA:  MOVLW  14
054CC:  MOVWF  xE2
054CE:  MOVLW  01
054D0:  MOVWF  xE3
054D2:  MOVWF  xE4
054D4:  MOVLB  0
054D6:  CALL   3950
....................           
....................          strcpy(Menus.Letra,"TA:"); 
054DA:  MOVLW  07
054DC:  MOVWF  FEA
054DE:  MOVLW  BD
054E0:  MOVWF  FE9
054E2:  MOVFF  FF2,7E0
054E6:  BCF    FF2.7
054E8:  MOVLW  00
054EA:  CALL   073E
054EE:  TBLRD*-
054F0:  TBLRD*+
054F2:  MOVF   FF5,W
054F4:  MOVWF  FEE
054F6:  IORLW  00
054F8:  BNZ   54F0
054FA:  MOVLB  7
054FC:  BTFSC  xE0.7
054FE:  BSF    FF2.7
....................          displayMenu(Menus.Letra,80,20,3,1); 
05500:  MOVLW  07
05502:  MOVWF  xE1
05504:  MOVLW  BD
05506:  MOVWF  xE0
05508:  MOVLW  50
0550A:  MOVWF  xE2
0550C:  MOVLW  14
0550E:  MOVWF  xE3
05510:  MOVLW  03
05512:  MOVWF  xE4
05514:  MOVLW  01
05516:  MOVWF  xE5
05518:  MOVLB  0
0551A:  CALL   1EC0
....................           
....................          if(l>0) 
0551E:  MOVLB  7
05520:  MOVF   xDE,F
05522:  BZ    5570
....................             displayTemperatura(Temperatura1[l-1+((Prog-1)*10)],100,20,1,1); 
05524:  MOVLW  01
05526:  SUBWF  xDE,W
05528:  MOVWF  xE0
0552A:  MOVLW  01
0552C:  SUBWF  xDF,W
0552E:  MULLW  0A
05530:  MOVF   FF3,W
05532:  ADDWF  xE0,W
05534:  MOVWF  00
05536:  BCF    FD8.0
05538:  RLCF   00,F
0553A:  MOVF   00,W
0553C:  CLRF   03
0553E:  ADDLW  67
05540:  MOVWF  FE9
05542:  MOVLW  06
05544:  ADDWFC 03,W
05546:  MOVWF  FEA
05548:  MOVFF  FEC,7E1
0554C:  MOVF   FED,F
0554E:  MOVFF  FEF,7E0
05552:  MOVFF  7E1,7E3
05556:  MOVFF  7E0,7E2
0555A:  MOVLW  64
0555C:  MOVWF  xE4
0555E:  MOVLW  14
05560:  MOVWF  xE5
05562:  MOVLW  01
05564:  MOVWF  xE6
05566:  MOVWF  xE7
05568:  MOVLB  0
0556A:  CALL   4B6A
0556E:  MOVLB  7
....................           
....................          if(Opcio==1){ 
05570:  DECFSZ xDD,W
05572:  BRA    5962
....................             strcpy(Menus.Letra,"Temperatura:"); 
05574:  MOVLW  07
05576:  MOVWF  FEA
05578:  MOVLW  BD
0557A:  MOVWF  FE9
0557C:  MOVFF  FF2,7E0
05580:  BCF    FF2.7
05582:  MOVLW  00
05584:  MOVLB  0
05586:  CALL   0760
0558A:  TBLRD*-
0558C:  TBLRD*+
0558E:  MOVF   FF5,W
05590:  MOVWF  FEE
05592:  IORLW  00
05594:  BNZ   558C
05596:  MOVLB  7
05598:  BTFSC  xE0.7
0559A:  BSF    FF2.7
....................             displayTemps(Menus.Letra,Temperatura1[l+((Prog-1)*10)],0,32,1,1); 
0559C:  MOVLW  01
0559E:  SUBWF  xDF,W
055A0:  MULLW  0A
055A2:  MOVF   FF3,W
055A4:  ADDWF  xDE,W
055A6:  MOVWF  00
055A8:  BCF    FD8.0
055AA:  RLCF   00,F
055AC:  MOVF   00,W
055AE:  CLRF   03
055B0:  ADDLW  67
055B2:  MOVWF  FE9
055B4:  MOVLW  06
055B6:  ADDWFC 03,W
055B8:  MOVWF  FEA
055BA:  MOVFF  FEC,7E1
055BE:  MOVF   FED,F
055C0:  MOVFF  FEF,7E0
055C4:  MOVLW  07
055C6:  MOVWF  xE3
055C8:  MOVLW  BD
055CA:  MOVWF  xE2
055CC:  MOVFF  7E1,7E5
055D0:  MOVFF  7E0,7E4
055D4:  CLRF   xE6
055D6:  MOVLW  20
055D8:  MOVWF  xE7
055DA:  MOVLW  01
055DC:  MOVWF  xE8
055DE:  MOVWF  xE9
055E0:  MOVLB  0
055E2:  RCALL  4F68
....................             strcpy(Menus.Letra,"Horas:"); 
055E4:  MOVLW  07
055E6:  MOVWF  FEA
055E8:  MOVLW  BD
055EA:  MOVWF  FE9
055EC:  MOVFF  FF2,7E0
055F0:  BCF    FF2.7
055F2:  MOVLW  00
055F4:  CALL   078C
055F8:  TBLRD*-
055FA:  TBLRD*+
055FC:  MOVF   FF5,W
055FE:  MOVWF  FEE
05600:  IORLW  00
05602:  BNZ   55FA
05604:  MOVLB  7
05606:  BTFSC  xE0.7
05608:  BSF    FF2.7
....................             displayTemps(Menus.Letra,Horas1[l+((Prog-1)*10)],0,44,10,1); 
0560A:  MOVLW  01
0560C:  SUBWF  xDF,W
0560E:  MULLW  0A
05610:  MOVF   FF3,W
05612:  ADDWF  xDE,W
05614:  MOVWF  00
05616:  BCF    FD8.0
05618:  RLCF   00,F
0561A:  MOVF   00,W
0561C:  CLRF   03
0561E:  ADDLW  CB
05620:  MOVWF  FE9
05622:  MOVLW  06
05624:  ADDWFC 03,W
05626:  MOVWF  FEA
05628:  MOVFF  FEC,7E1
0562C:  MOVF   FED,F
0562E:  MOVFF  FEF,7E0
05632:  MOVLW  07
05634:  MOVWF  xE3
05636:  MOVLW  BD
05638:  MOVWF  xE2
0563A:  MOVFF  7E1,7E5
0563E:  MOVFF  7E0,7E4
05642:  CLRF   xE6
05644:  MOVLW  2C
05646:  MOVWF  xE7
05648:  MOVLW  0A
0564A:  MOVWF  xE8
0564C:  MOVLW  01
0564E:  MOVWF  xE9
05650:  MOVLB  0
05652:  RCALL  4F68
....................             strcpy(Menus.Letra,"Minutos:"); 
05654:  MOVLW  07
05656:  MOVWF  FEA
05658:  MOVLW  BD
0565A:  MOVWF  FE9
0565C:  MOVFF  FF2,7E0
05660:  BCF    FF2.7
05662:  MOVLW  00
05664:  CALL   07B2
05668:  TBLRD*-
0566A:  TBLRD*+
0566C:  MOVF   FF5,W
0566E:  MOVWF  FEE
05670:  IORLW  00
05672:  BNZ   566A
05674:  MOVLB  7
05676:  BTFSC  xE0.7
05678:  BSF    FF2.7
....................             displayTemps(Menus.Letra,Minutos1[l+((Prog-1)*10)],0,55,10,1); 
0567A:  MOVLW  01
0567C:  SUBWF  xDF,W
0567E:  MULLW  0A
05680:  MOVF   FF3,W
05682:  ADDWF  xDE,W
05684:  MOVWF  00
05686:  BCF    FD8.0
05688:  RLCF   00,F
0568A:  MOVF   00,W
0568C:  CLRF   03
0568E:  ADDLW  2F
05690:  MOVWF  FE9
05692:  MOVLW  07
05694:  ADDWFC 03,W
05696:  MOVWF  FEA
05698:  MOVFF  FEC,7E1
0569C:  MOVF   FED,F
0569E:  MOVFF  FEF,7E0
056A2:  MOVLW  07
056A4:  MOVWF  xE3
056A6:  MOVLW  BD
056A8:  MOVWF  xE2
056AA:  MOVFF  7E1,7E5
056AE:  MOVFF  7E0,7E4
056B2:  CLRF   xE6
056B4:  MOVLW  37
056B6:  MOVWF  xE7
056B8:  MOVLW  0A
056BA:  MOVWF  xE8
056BC:  MOVLW  01
056BE:  MOVWF  xE9
056C0:  MOVLB  0
056C2:  RCALL  4F68
....................             if(UP)//Si oprime hacia arriba 
056C4:  BSF    F92.5
056C6:  BTFSC  F80.5
056C8:  BRA    5812
....................             { 
....................                Buzz_on;delay_ms(10);Buzz_off; 
056CA:  BSF    F8B.4
056CC:  BCF    F94.4
056CE:  MOVLW  0A
056D0:  MOVLB  7
056D2:  MOVWF  xE3
056D4:  MOVLB  0
056D6:  CALL   1800
056DA:  BCF    F8B.4
056DC:  BCF    F94.4
....................                if(tiempoup<4){ 
056DE:  MOVLB  5
056E0:  MOVF   x90,W
056E2:  SUBLW  03
056E4:  BNC   5714
....................                   flagup=1; 
056E6:  BSF    x87.0
....................                   Temperatura1[l+((Prog-1)*10)]++; 
056E8:  MOVLW  01
056EA:  MOVLB  7
056EC:  SUBWF  xDF,W
056EE:  MULLW  0A
056F0:  MOVF   FF3,W
056F2:  ADDWF  xDE,W
056F4:  MOVWF  00
056F6:  BCF    FD8.0
056F8:  RLCF   00,F
056FA:  MOVF   00,W
056FC:  CLRF   03
056FE:  ADDLW  67
05700:  MOVWF  FE9
05702:  MOVLW  06
05704:  ADDWFC 03,W
05706:  MOVWF  FEA
05708:  MOVLW  01
0570A:  ADDWF  FEE,F
0570C:  BNC   5710
0570E:  INCF   FEF,F
....................                } 
....................                else{ 
05710:  BRA    5748
05712:  MOVLB  5
....................                   flagup=0; 
05714:  BCF    x87.0
....................                   Temperatura1[l+((Prog-1)*10)]+=10; 
05716:  MOVLW  01
05718:  MOVLB  7
0571A:  SUBWF  xDF,W
0571C:  MULLW  0A
0571E:  MOVF   FF3,W
05720:  ADDWF  xDE,W
05722:  MOVWF  00
05724:  BCF    FD8.0
05726:  RLCF   00,F
05728:  MOVF   00,W
0572A:  CLRF   03
0572C:  ADDLW  67
0572E:  MOVWF  FE9
05730:  MOVLW  06
05732:  ADDWFC 03,W
05734:  MOVWF  FEA
05736:  MOVLW  0A
05738:  ADDWF  FEF,W
0573A:  MOVWF  01
0573C:  MOVLW  00
0573E:  ADDWFC FEC,W
05740:  MOVF   FED,F
05742:  MOVFF  01,FEF
05746:  MOVWF  FEC
....................                }  
....................                if(l<9) 
05748:  MOVF   xDE,W
0574A:  SUBLW  08
0574C:  BNC   57AE
....................                   Temperatura1[l+1+((Prog-1)*10)]=Temperatura1[l+((Prog-1)*10)];  
0574E:  MOVLW  01
05750:  ADDWF  xDE,W
05752:  MOVWF  xE0
05754:  MOVLW  01
05756:  SUBWF  xDF,W
05758:  MULLW  0A
0575A:  MOVF   FF3,W
0575C:  ADDWF  xE0,W
0575E:  MOVWF  00
05760:  BCF    FD8.0
05762:  RLCF   00,F
05764:  MOVF   00,W
05766:  CLRF   03
05768:  ADDLW  67
0576A:  MOVWF  01
0576C:  MOVLW  06
0576E:  ADDWFC 03,F
05770:  MOVFF  03,7E1
05774:  MOVLW  01
05776:  SUBWF  xDF,W
05778:  MULLW  0A
0577A:  MOVF   FF3,W
0577C:  ADDWF  xDE,W
0577E:  MOVWF  00
05780:  BCF    FD8.0
05782:  RLCF   00,F
05784:  MOVF   00,W
05786:  CLRF   03
05788:  ADDLW  67
0578A:  MOVWF  FE9
0578C:  MOVLW  06
0578E:  ADDWFC 03,W
05790:  MOVWF  FEA
05792:  MOVFF  FEC,03
05796:  MOVF   FED,F
05798:  MOVFF  FEF,7E2
0579C:  MOVFF  7E1,FEA
057A0:  MOVFF  01,FE9
057A4:  MOVFF  03,FEC
057A8:  MOVF   FED,F
057AA:  MOVFF  7E2,FEF
....................                    
....................                if(Temperatura1[l+((Prog-1)*10)]>1200) 
057AE:  MOVLW  01
057B0:  SUBWF  xDF,W
057B2:  MULLW  0A
057B4:  MOVF   FF3,W
057B6:  ADDWF  xDE,W
057B8:  MOVWF  00
057BA:  BCF    FD8.0
057BC:  RLCF   00,F
057BE:  MOVF   00,W
057C0:  CLRF   03
057C2:  ADDLW  67
057C4:  MOVWF  FE9
057C6:  MOVLW  06
057C8:  ADDWFC 03,W
057CA:  MOVWF  FEA
057CC:  MOVFF  FEC,7E1
057D0:  MOVF   FED,F
057D2:  MOVFF  FEF,7E0
057D6:  BTFSC  xE1.7
057D8:  BRA    580E
057DA:  MOVF   xE1,W
057DC:  SUBLW  03
057DE:  BC    580E
057E0:  XORLW  FF
057E2:  BNZ   57EA
057E4:  MOVF   xE0,W
057E6:  SUBLW  B0
057E8:  BC    580E
....................                   Temperatura1[l+((Prog-1)*10)]=0; 
057EA:  MOVLW  01
057EC:  SUBWF  xDF,W
057EE:  MULLW  0A
057F0:  MOVF   FF3,W
057F2:  ADDWF  xDE,W
057F4:  MOVWF  00
057F6:  BCF    FD8.0
057F8:  RLCF   00,F
057FA:  MOVF   00,W
057FC:  CLRF   03
057FE:  ADDLW  67
05800:  MOVWF  FE9
05802:  MOVLW  06
05804:  ADDWFC 03,W
05806:  MOVWF  FEA
05808:  CLRF   FEC
0580A:  MOVF   FED,F
0580C:  CLRF   FEF
....................             } 
....................             else 
0580E:  BRA    581A
05810:  MOVLB  0
....................             { 
....................                flagup=0;tiempoup=0; 
05812:  MOVLB  5
05814:  BCF    x87.0
05816:  CLRF   x90
05818:  MOVLB  7
....................             } 
....................                       
....................             if(DOWN)//Si oprime hacia abajo 
0581A:  BSF    F96.0
0581C:  BTFSC  F84.0
0581E:  BRA    595A
....................             { 
....................                Buzz_on;delay_ms(10);Buzz_off; 
05820:  BSF    F8B.4
05822:  BCF    F94.4
05824:  MOVLW  0A
05826:  MOVWF  xE3
05828:  MOVLB  0
0582A:  CALL   1800
0582E:  BCF    F8B.4
05830:  BCF    F94.4
....................                if(tiempodn<4){ 
05832:  MOVLB  5
05834:  MOVF   x91,W
05836:  SUBLW  03
05838:  BNC   586A
....................                   flagdn=1; 
0583A:  BSF    x87.1
....................                   Temperatura1[l+((Prog-1)*10)]--; 
0583C:  MOVLW  01
0583E:  MOVLB  7
05840:  SUBWF  xDF,W
05842:  MULLW  0A
05844:  MOVF   FF3,W
05846:  ADDWF  xDE,W
05848:  MOVWF  00
0584A:  BCF    FD8.0
0584C:  RLCF   00,F
0584E:  MOVF   00,W
05850:  CLRF   03
05852:  ADDLW  67
05854:  MOVWF  FE9
05856:  MOVLW  06
05858:  ADDWFC 03,W
0585A:  MOVWF  FEA
0585C:  MOVLW  FF
0585E:  ADDWF  FEF,F
05860:  BC    5866
05862:  MOVF   FEE,F
05864:  DECF   FED,F
....................                } 
....................                else{ 
05866:  BRA    58A2
05868:  MOVLB  5
....................                   flagdn=0; 
0586A:  BCF    x87.1
....................                   Temperatura1[l+((Prog-1)*10)]-=10; 
0586C:  MOVLW  01
0586E:  MOVLB  7
05870:  SUBWF  xDF,W
05872:  MULLW  0A
05874:  MOVF   FF3,W
05876:  ADDWF  xDE,W
05878:  MOVWF  00
0587A:  BCF    FD8.0
0587C:  RLCF   00,F
0587E:  MOVF   00,W
05880:  CLRF   03
05882:  ADDLW  67
05884:  MOVWF  FE9
05886:  MOVLW  06
05888:  ADDWFC 03,W
0588A:  MOVWF  FEA
0588C:  MOVLW  0A
0588E:  SUBWF  FEF,W
05890:  MOVWF  00
05892:  MOVLW  00
05894:  SUBWFB FEC,W
05896:  MOVWF  03
05898:  MOVF   00,W
0589A:  MOVF   FED,F
0589C:  MOVWF  FEF
0589E:  MOVFF  03,FEC
....................                } 
....................                Temperatura1[l+1+((Prog-1)*10)]=Temperatura1[l+((Prog-1)*10)];  
058A2:  MOVLW  01
058A4:  ADDWF  xDE,W
058A6:  MOVWF  xE0
058A8:  MOVLW  01
058AA:  SUBWF  xDF,W
058AC:  MULLW  0A
058AE:  MOVF   FF3,W
058B0:  ADDWF  xE0,W
058B2:  MOVWF  00
058B4:  BCF    FD8.0
058B6:  RLCF   00,F
058B8:  MOVF   00,W
058BA:  CLRF   03
058BC:  ADDLW  67
058BE:  MOVWF  01
058C0:  MOVLW  06
058C2:  ADDWFC 03,F
058C4:  MOVFF  03,7E1
058C8:  MOVLW  01
058CA:  SUBWF  xDF,W
058CC:  MULLW  0A
058CE:  MOVF   FF3,W
058D0:  ADDWF  xDE,W
058D2:  MOVWF  00
058D4:  BCF    FD8.0
058D6:  RLCF   00,F
058D8:  MOVF   00,W
058DA:  CLRF   03
058DC:  ADDLW  67
058DE:  MOVWF  FE9
058E0:  MOVLW  06
058E2:  ADDWFC 03,W
058E4:  MOVWF  FEA
058E6:  MOVFF  FEC,03
058EA:  MOVF   FED,F
058EC:  MOVFF  FEF,7E2
058F0:  MOVFF  7E1,FEA
058F4:  MOVFF  01,FE9
058F8:  MOVFF  03,FEC
058FC:  MOVF   FED,F
058FE:  MOVFF  7E2,FEF
....................                 
....................                if(Temperatura1[l+((Prog-1)*10)]<0) 
05902:  MOVLW  01
05904:  SUBWF  xDF,W
05906:  MULLW  0A
05908:  MOVF   FF3,W
0590A:  ADDWF  xDE,W
0590C:  MOVWF  00
0590E:  BCF    FD8.0
05910:  RLCF   00,F
05912:  MOVF   00,W
05914:  CLRF   03
05916:  ADDLW  67
05918:  MOVWF  FE9
0591A:  MOVLW  06
0591C:  ADDWFC 03,W
0591E:  MOVWF  FEA
05920:  MOVFF  FEC,7E1
05924:  MOVF   FED,F
05926:  MOVFF  FEF,7E0
0592A:  BTFSC  xE1.7
0592C:  BRA    5930
0592E:  BRA    5958
....................                   Temperatura1[l+((Prog-1)*10)]=1200; 
05930:  MOVLW  01
05932:  SUBWF  xDF,W
05934:  MULLW  0A
05936:  MOVF   FF3,W
05938:  ADDWF  xDE,W
0593A:  MOVWF  00
0593C:  BCF    FD8.0
0593E:  RLCF   00,F
05940:  MOVF   00,W
05942:  CLRF   03
05944:  ADDLW  67
05946:  MOVWF  FE9
05948:  MOVLW  06
0594A:  ADDWFC 03,W
0594C:  MOVWF  FEA
0594E:  MOVLW  04
05950:  MOVWF  FEC
05952:  MOVF   FED,F
05954:  MOVLW  B0
05956:  MOVWF  FEF
....................             } 
....................             else{ 
05958:  BRA    5962
....................                flagdn=0;tiempodn=0; 
0595A:  MOVLB  5
0595C:  BCF    x87.1
0595E:  CLRF   x91
05960:  MOVLB  7
....................             } 
....................          } 
....................           
....................          if(Opcio==2){ 
05962:  MOVF   xDD,W
05964:  SUBLW  02
05966:  BTFSS  FD8.2
05968:  BRA    5C90
....................             strcpy(Menus.Letra,"Temperatura:"); 
0596A:  MOVLW  07
0596C:  MOVWF  FEA
0596E:  MOVLW  BD
05970:  MOVWF  FE9
05972:  MOVFF  FF2,7E0
05976:  BCF    FF2.7
05978:  MOVLW  00
0597A:  MOVLB  0
0597C:  CALL   0760
05980:  TBLRD*-
05982:  TBLRD*+
05984:  MOVF   FF5,W
05986:  MOVWF  FEE
05988:  IORLW  00
0598A:  BNZ   5982
0598C:  MOVLB  7
0598E:  BTFSC  xE0.7
05990:  BSF    FF2.7
....................             displayTemps(Menus.Letra,Temperatura1[l+((Prog-1)*10)],0,32,0,1); 
05992:  MOVLW  01
05994:  SUBWF  xDF,W
05996:  MULLW  0A
05998:  MOVF   FF3,W
0599A:  ADDWF  xDE,W
0599C:  MOVWF  00
0599E:  BCF    FD8.0
059A0:  RLCF   00,F
059A2:  MOVF   00,W
059A4:  CLRF   03
059A6:  ADDLW  67
059A8:  MOVWF  FE9
059AA:  MOVLW  06
059AC:  ADDWFC 03,W
059AE:  MOVWF  FEA
059B0:  MOVFF  FEC,7E1
059B4:  MOVF   FED,F
059B6:  MOVFF  FEF,7E0
059BA:  MOVLW  07
059BC:  MOVWF  xE3
059BE:  MOVLW  BD
059C0:  MOVWF  xE2
059C2:  MOVFF  7E1,7E5
059C6:  MOVFF  7E0,7E4
059CA:  CLRF   xE6
059CC:  MOVLW  20
059CE:  MOVWF  xE7
059D0:  CLRF   xE8
059D2:  MOVLW  01
059D4:  MOVWF  xE9
059D6:  MOVLB  0
059D8:  CALL   4F68
....................             strcpy(Menus.Letra,"Horas:"); 
059DC:  MOVLW  07
059DE:  MOVWF  FEA
059E0:  MOVLW  BD
059E2:  MOVWF  FE9
059E4:  MOVFF  FF2,7E0
059E8:  BCF    FF2.7
059EA:  MOVLW  00
059EC:  CALL   078C
059F0:  TBLRD*-
059F2:  TBLRD*+
059F4:  MOVF   FF5,W
059F6:  MOVWF  FEE
059F8:  IORLW  00
059FA:  BNZ   59F2
059FC:  MOVLB  7
059FE:  BTFSC  xE0.7
05A00:  BSF    FF2.7
....................             displayTemps(Menus.Letra,Horas1[l+((Prog-1)*10)],0,44,11,1); 
05A02:  MOVLW  01
05A04:  SUBWF  xDF,W
05A06:  MULLW  0A
05A08:  MOVF   FF3,W
05A0A:  ADDWF  xDE,W
05A0C:  MOVWF  00
05A0E:  BCF    FD8.0
05A10:  RLCF   00,F
05A12:  MOVF   00,W
05A14:  CLRF   03
05A16:  ADDLW  CB
05A18:  MOVWF  FE9
05A1A:  MOVLW  06
05A1C:  ADDWFC 03,W
05A1E:  MOVWF  FEA
05A20:  MOVFF  FEC,7E1
05A24:  MOVF   FED,F
05A26:  MOVFF  FEF,7E0
05A2A:  MOVLW  07
05A2C:  MOVWF  xE3
05A2E:  MOVLW  BD
05A30:  MOVWF  xE2
05A32:  MOVFF  7E1,7E5
05A36:  MOVFF  7E0,7E4
05A3A:  CLRF   xE6
05A3C:  MOVLW  2C
05A3E:  MOVWF  xE7
05A40:  MOVLW  0B
05A42:  MOVWF  xE8
05A44:  MOVLW  01
05A46:  MOVWF  xE9
05A48:  MOVLB  0
05A4A:  CALL   4F68
....................             strcpy(Menus.Letra,"Minutos:"); 
05A4E:  MOVLW  07
05A50:  MOVWF  FEA
05A52:  MOVLW  BD
05A54:  MOVWF  FE9
05A56:  MOVFF  FF2,7E0
05A5A:  BCF    FF2.7
05A5C:  MOVLW  00
05A5E:  CALL   07B2
05A62:  TBLRD*-
05A64:  TBLRD*+
05A66:  MOVF   FF5,W
05A68:  MOVWF  FEE
05A6A:  IORLW  00
05A6C:  BNZ   5A64
05A6E:  MOVLB  7
05A70:  BTFSC  xE0.7
05A72:  BSF    FF2.7
....................             displayTemps(Menus.Letra,Minutos1[l+((Prog-1)*10)],0,55,10,1); 
05A74:  MOVLW  01
05A76:  SUBWF  xDF,W
05A78:  MULLW  0A
05A7A:  MOVF   FF3,W
05A7C:  ADDWF  xDE,W
05A7E:  MOVWF  00
05A80:  BCF    FD8.0
05A82:  RLCF   00,F
05A84:  MOVF   00,W
05A86:  CLRF   03
05A88:  ADDLW  2F
05A8A:  MOVWF  FE9
05A8C:  MOVLW  07
05A8E:  ADDWFC 03,W
05A90:  MOVWF  FEA
05A92:  MOVFF  FEC,7E1
05A96:  MOVF   FED,F
05A98:  MOVFF  FEF,7E0
05A9C:  MOVLW  07
05A9E:  MOVWF  xE3
05AA0:  MOVLW  BD
05AA2:  MOVWF  xE2
05AA4:  MOVFF  7E1,7E5
05AA8:  MOVFF  7E0,7E4
05AAC:  CLRF   xE6
05AAE:  MOVLW  37
05AB0:  MOVWF  xE7
05AB2:  MOVLW  0A
05AB4:  MOVWF  xE8
05AB6:  MOVLW  01
05AB8:  MOVWF  xE9
05ABA:  MOVLB  0
05ABC:  CALL   4F68
....................             if(UP)//Si oprime hacia arriba 
05AC0:  BSF    F92.5
05AC2:  BTFSC  F80.5
05AC4:  BRA    5BA2
....................             { 
....................                Buzz_on;delay_ms(10);Buzz_off; 
05AC6:  BSF    F8B.4
05AC8:  BCF    F94.4
05ACA:  MOVLW  0A
05ACC:  MOVLB  7
05ACE:  MOVWF  xE3
05AD0:  MOVLB  0
05AD2:  CALL   1800
05AD6:  BCF    F8B.4
05AD8:  BCF    F94.4
....................                if(tiempoup<4){ 
05ADA:  MOVLB  5
05ADC:  MOVF   x90,W
05ADE:  SUBLW  03
05AE0:  BNC   5B10
....................                   flagup=1; 
05AE2:  BSF    x87.0
....................                   Horas1[l+((Prog-1)*10)]++; 
05AE4:  MOVLW  01
05AE6:  MOVLB  7
05AE8:  SUBWF  xDF,W
05AEA:  MULLW  0A
05AEC:  MOVF   FF3,W
05AEE:  ADDWF  xDE,W
05AF0:  MOVWF  00
05AF2:  BCF    FD8.0
05AF4:  RLCF   00,F
05AF6:  MOVF   00,W
05AF8:  CLRF   03
05AFA:  ADDLW  CB
05AFC:  MOVWF  FE9
05AFE:  MOVLW  06
05B00:  ADDWFC 03,W
05B02:  MOVWF  FEA
05B04:  MOVLW  01
05B06:  ADDWF  FEE,F
05B08:  BNC   5B0C
05B0A:  INCF   FEF,F
....................                } 
....................                else{ 
05B0C:  BRA    5B44
05B0E:  MOVLB  5
....................                   flagup=0; 
05B10:  BCF    x87.0
....................                   Horas1[l+((Prog-1)*10)]+=10; 
05B12:  MOVLW  01
05B14:  MOVLB  7
05B16:  SUBWF  xDF,W
05B18:  MULLW  0A
05B1A:  MOVF   FF3,W
05B1C:  ADDWF  xDE,W
05B1E:  MOVWF  00
05B20:  BCF    FD8.0
05B22:  RLCF   00,F
05B24:  MOVF   00,W
05B26:  CLRF   03
05B28:  ADDLW  CB
05B2A:  MOVWF  FE9
05B2C:  MOVLW  06
05B2E:  ADDWFC 03,W
05B30:  MOVWF  FEA
05B32:  MOVLW  0A
05B34:  ADDWF  FEF,W
05B36:  MOVWF  01
05B38:  MOVLW  00
05B3A:  ADDWFC FEC,W
05B3C:  MOVF   FED,F
05B3E:  MOVFF  01,FEF
05B42:  MOVWF  FEC
....................                } 
....................                if(Horas1[l+((Prog-1)*10)]>99) 
05B44:  MOVLW  01
05B46:  SUBWF  xDF,W
05B48:  MULLW  0A
05B4A:  MOVF   FF3,W
05B4C:  ADDWF  xDE,W
05B4E:  MOVWF  00
05B50:  BCF    FD8.0
05B52:  RLCF   00,F
05B54:  MOVF   00,W
05B56:  CLRF   03
05B58:  ADDLW  CB
05B5A:  MOVWF  FE9
05B5C:  MOVLW  06
05B5E:  ADDWFC 03,W
05B60:  MOVWF  FEA
05B62:  MOVFF  FEC,7E1
05B66:  MOVF   FED,F
05B68:  MOVFF  FEF,7E0
05B6C:  BTFSC  xE1.7
05B6E:  BRA    5B9E
05B70:  MOVF   xE1,F
05B72:  BNZ   5B7A
05B74:  MOVF   xE0,W
05B76:  SUBLW  63
05B78:  BC    5B9E
....................                   Horas1[l+((Prog-1)*10)]=0; 
05B7A:  MOVLW  01
05B7C:  SUBWF  xDF,W
05B7E:  MULLW  0A
05B80:  MOVF   FF3,W
05B82:  ADDWF  xDE,W
05B84:  MOVWF  00
05B86:  BCF    FD8.0
05B88:  RLCF   00,F
05B8A:  MOVF   00,W
05B8C:  CLRF   03
05B8E:  ADDLW  CB
05B90:  MOVWF  FE9
05B92:  MOVLW  06
05B94:  ADDWFC 03,W
05B96:  MOVWF  FEA
05B98:  CLRF   FEC
05B9A:  MOVF   FED,F
05B9C:  CLRF   FEF
....................             } 
....................             else{ 
05B9E:  BRA    5BAA
05BA0:  MOVLB  0
....................                flagup=0;tiempoup=0; 
05BA2:  MOVLB  5
05BA4:  BCF    x87.0
05BA6:  CLRF   x90
05BA8:  MOVLB  7
....................             } 
....................                       
....................             if(DOWN)//Si oprime hacia abajo 
05BAA:  BSF    F96.0
05BAC:  BTFSC  F84.0
05BAE:  BRA    5C88
....................             { 
....................                Buzz_on;delay_ms(10);Buzz_off; 
05BB0:  BSF    F8B.4
05BB2:  BCF    F94.4
05BB4:  MOVLW  0A
05BB6:  MOVWF  xE3
05BB8:  MOVLB  0
05BBA:  CALL   1800
05BBE:  BCF    F8B.4
05BC0:  BCF    F94.4
....................                if(tiempodn<4){ 
05BC2:  MOVLB  5
05BC4:  MOVF   x91,W
05BC6:  SUBLW  03
05BC8:  BNC   5BFA
....................                   flagdn=1; 
05BCA:  BSF    x87.1
....................                   Horas1[l+((Prog-1)*10)]--; 
05BCC:  MOVLW  01
05BCE:  MOVLB  7
05BD0:  SUBWF  xDF,W
05BD2:  MULLW  0A
05BD4:  MOVF   FF3,W
05BD6:  ADDWF  xDE,W
05BD8:  MOVWF  00
05BDA:  BCF    FD8.0
05BDC:  RLCF   00,F
05BDE:  MOVF   00,W
05BE0:  CLRF   03
05BE2:  ADDLW  CB
05BE4:  MOVWF  FE9
05BE6:  MOVLW  06
05BE8:  ADDWFC 03,W
05BEA:  MOVWF  FEA
05BEC:  MOVLW  FF
05BEE:  ADDWF  FEF,F
05BF0:  BC    5BF6
05BF2:  MOVF   FEE,F
05BF4:  DECF   FED,F
....................                } 
....................                else{ 
05BF6:  BRA    5C32
05BF8:  MOVLB  5
....................                   flagdn=0; 
05BFA:  BCF    x87.1
....................                   Horas1[l+((Prog-1)*10)]-=10; 
05BFC:  MOVLW  01
05BFE:  MOVLB  7
05C00:  SUBWF  xDF,W
05C02:  MULLW  0A
05C04:  MOVF   FF3,W
05C06:  ADDWF  xDE,W
05C08:  MOVWF  00
05C0A:  BCF    FD8.0
05C0C:  RLCF   00,F
05C0E:  MOVF   00,W
05C10:  CLRF   03
05C12:  ADDLW  CB
05C14:  MOVWF  FE9
05C16:  MOVLW  06
05C18:  ADDWFC 03,W
05C1A:  MOVWF  FEA
05C1C:  MOVLW  0A
05C1E:  SUBWF  FEF,W
05C20:  MOVWF  00
05C22:  MOVLW  00
05C24:  SUBWFB FEC,W
05C26:  MOVWF  03
05C28:  MOVF   00,W
05C2A:  MOVF   FED,F
05C2C:  MOVWF  FEF
05C2E:  MOVFF  03,FEC
....................                } 
....................                if(Horas1[l+((Prog-1)*10)]<0) 
05C32:  MOVLW  01
05C34:  SUBWF  xDF,W
05C36:  MULLW  0A
05C38:  MOVF   FF3,W
05C3A:  ADDWF  xDE,W
05C3C:  MOVWF  00
05C3E:  BCF    FD8.0
05C40:  RLCF   00,F
05C42:  MOVF   00,W
05C44:  CLRF   03
05C46:  ADDLW  CB
05C48:  MOVWF  FE9
05C4A:  MOVLW  06
05C4C:  ADDWFC 03,W
05C4E:  MOVWF  FEA
05C50:  MOVFF  FEC,7E1
05C54:  MOVF   FED,F
05C56:  MOVFF  FEF,7E0
05C5A:  BTFSC  xE1.7
05C5C:  BRA    5C60
05C5E:  BRA    5C86
....................                   Horas1[l+((Prog-1)*10)]=99; 
05C60:  MOVLW  01
05C62:  SUBWF  xDF,W
05C64:  MULLW  0A
05C66:  MOVF   FF3,W
05C68:  ADDWF  xDE,W
05C6A:  MOVWF  00
05C6C:  BCF    FD8.0
05C6E:  RLCF   00,F
05C70:  MOVF   00,W
05C72:  CLRF   03
05C74:  ADDLW  CB
05C76:  MOVWF  FE9
05C78:  MOVLW  06
05C7A:  ADDWFC 03,W
05C7C:  MOVWF  FEA
05C7E:  CLRF   FEC
05C80:  MOVF   FED,F
05C82:  MOVLW  63
05C84:  MOVWF  FEF
....................             } 
....................             else{ 
05C86:  BRA    5C90
....................                flagdn=0;tiempodn=0; 
05C88:  MOVLB  5
05C8A:  BCF    x87.1
05C8C:  CLRF   x91
05C8E:  MOVLB  7
....................             } 
....................          } 
....................           
....................          if(Opcio==3){ 
05C90:  MOVF   xDD,W
05C92:  SUBLW  03
05C94:  BTFSS  FD8.2
05C96:  BRA    5FBE
....................             strcpy(Menus.Letra,"Temperatura:"); 
05C98:  MOVLW  07
05C9A:  MOVWF  FEA
05C9C:  MOVLW  BD
05C9E:  MOVWF  FE9
05CA0:  MOVFF  FF2,7E0
05CA4:  BCF    FF2.7
05CA6:  MOVLW  00
05CA8:  MOVLB  0
05CAA:  CALL   0760
05CAE:  TBLRD*-
05CB0:  TBLRD*+
05CB2:  MOVF   FF5,W
05CB4:  MOVWF  FEE
05CB6:  IORLW  00
05CB8:  BNZ   5CB0
05CBA:  MOVLB  7
05CBC:  BTFSC  xE0.7
05CBE:  BSF    FF2.7
....................             displayTemps(Menus.Letra,Temperatura1[l+((Prog-1)*10)],0,32,0,1); 
05CC0:  MOVLW  01
05CC2:  SUBWF  xDF,W
05CC4:  MULLW  0A
05CC6:  MOVF   FF3,W
05CC8:  ADDWF  xDE,W
05CCA:  MOVWF  00
05CCC:  BCF    FD8.0
05CCE:  RLCF   00,F
05CD0:  MOVF   00,W
05CD2:  CLRF   03
05CD4:  ADDLW  67
05CD6:  MOVWF  FE9
05CD8:  MOVLW  06
05CDA:  ADDWFC 03,W
05CDC:  MOVWF  FEA
05CDE:  MOVFF  FEC,7E1
05CE2:  MOVF   FED,F
05CE4:  MOVFF  FEF,7E0
05CE8:  MOVLW  07
05CEA:  MOVWF  xE3
05CEC:  MOVLW  BD
05CEE:  MOVWF  xE2
05CF0:  MOVFF  7E1,7E5
05CF4:  MOVFF  7E0,7E4
05CF8:  CLRF   xE6
05CFA:  MOVLW  20
05CFC:  MOVWF  xE7
05CFE:  CLRF   xE8
05D00:  MOVLW  01
05D02:  MOVWF  xE9
05D04:  MOVLB  0
05D06:  CALL   4F68
....................             strcpy(Menus.Letra,"Horas:"); 
05D0A:  MOVLW  07
05D0C:  MOVWF  FEA
05D0E:  MOVLW  BD
05D10:  MOVWF  FE9
05D12:  MOVFF  FF2,7E0
05D16:  BCF    FF2.7
05D18:  MOVLW  00
05D1A:  CALL   078C
05D1E:  TBLRD*-
05D20:  TBLRD*+
05D22:  MOVF   FF5,W
05D24:  MOVWF  FEE
05D26:  IORLW  00
05D28:  BNZ   5D20
05D2A:  MOVLB  7
05D2C:  BTFSC  xE0.7
05D2E:  BSF    FF2.7
....................             displayTemps(Menus.Letra,Horas1[l+((Prog-1)*10)],0,44,10,1); 
05D30:  MOVLW  01
05D32:  SUBWF  xDF,W
05D34:  MULLW  0A
05D36:  MOVF   FF3,W
05D38:  ADDWF  xDE,W
05D3A:  MOVWF  00
05D3C:  BCF    FD8.0
05D3E:  RLCF   00,F
05D40:  MOVF   00,W
05D42:  CLRF   03
05D44:  ADDLW  CB
05D46:  MOVWF  FE9
05D48:  MOVLW  06
05D4A:  ADDWFC 03,W
05D4C:  MOVWF  FEA
05D4E:  MOVFF  FEC,7E1
05D52:  MOVF   FED,F
05D54:  MOVFF  FEF,7E0
05D58:  MOVLW  07
05D5A:  MOVWF  xE3
05D5C:  MOVLW  BD
05D5E:  MOVWF  xE2
05D60:  MOVFF  7E1,7E5
05D64:  MOVFF  7E0,7E4
05D68:  CLRF   xE6
05D6A:  MOVLW  2C
05D6C:  MOVWF  xE7
05D6E:  MOVLW  0A
05D70:  MOVWF  xE8
05D72:  MOVLW  01
05D74:  MOVWF  xE9
05D76:  MOVLB  0
05D78:  CALL   4F68
....................             strcpy(Menus.Letra,"Minutos:"); 
05D7C:  MOVLW  07
05D7E:  MOVWF  FEA
05D80:  MOVLW  BD
05D82:  MOVWF  FE9
05D84:  MOVFF  FF2,7E0
05D88:  BCF    FF2.7
05D8A:  MOVLW  00
05D8C:  CALL   07B2
05D90:  TBLRD*-
05D92:  TBLRD*+
05D94:  MOVF   FF5,W
05D96:  MOVWF  FEE
05D98:  IORLW  00
05D9A:  BNZ   5D92
05D9C:  MOVLB  7
05D9E:  BTFSC  xE0.7
05DA0:  BSF    FF2.7
....................             displayTemps(Menus.Letra,Minutos1[l+((Prog-1)*10)],0,55,11,1); 
05DA2:  MOVLW  01
05DA4:  SUBWF  xDF,W
05DA6:  MULLW  0A
05DA8:  MOVF   FF3,W
05DAA:  ADDWF  xDE,W
05DAC:  MOVWF  00
05DAE:  BCF    FD8.0
05DB0:  RLCF   00,F
05DB2:  MOVF   00,W
05DB4:  CLRF   03
05DB6:  ADDLW  2F
05DB8:  MOVWF  FE9
05DBA:  MOVLW  07
05DBC:  ADDWFC 03,W
05DBE:  MOVWF  FEA
05DC0:  MOVFF  FEC,7E1
05DC4:  MOVF   FED,F
05DC6:  MOVFF  FEF,7E0
05DCA:  MOVLW  07
05DCC:  MOVWF  xE3
05DCE:  MOVLW  BD
05DD0:  MOVWF  xE2
05DD2:  MOVFF  7E1,7E5
05DD6:  MOVFF  7E0,7E4
05DDA:  CLRF   xE6
05DDC:  MOVLW  37
05DDE:  MOVWF  xE7
05DE0:  MOVLW  0B
05DE2:  MOVWF  xE8
05DE4:  MOVLW  01
05DE6:  MOVWF  xE9
05DE8:  MOVLB  0
05DEA:  CALL   4F68
....................             if(UP)//Si oprime hacia arriba 
05DEE:  BSF    F92.5
05DF0:  BTFSC  F80.5
05DF2:  BRA    5ED0
....................             { 
....................                Buzz_on;delay_ms(10);Buzz_off; 
05DF4:  BSF    F8B.4
05DF6:  BCF    F94.4
05DF8:  MOVLW  0A
05DFA:  MOVLB  7
05DFC:  MOVWF  xE3
05DFE:  MOVLB  0
05E00:  CALL   1800
05E04:  BCF    F8B.4
05E06:  BCF    F94.4
....................                if(tiempoup<4){ 
05E08:  MOVLB  5
05E0A:  MOVF   x90,W
05E0C:  SUBLW  03
05E0E:  BNC   5E3E
....................                   flagup=1; 
05E10:  BSF    x87.0
....................                   Minutos1[l+((Prog-1)*10)]++; 
05E12:  MOVLW  01
05E14:  MOVLB  7
05E16:  SUBWF  xDF,W
05E18:  MULLW  0A
05E1A:  MOVF   FF3,W
05E1C:  ADDWF  xDE,W
05E1E:  MOVWF  00
05E20:  BCF    FD8.0
05E22:  RLCF   00,F
05E24:  MOVF   00,W
05E26:  CLRF   03
05E28:  ADDLW  2F
05E2A:  MOVWF  FE9
05E2C:  MOVLW  07
05E2E:  ADDWFC 03,W
05E30:  MOVWF  FEA
05E32:  MOVLW  01
05E34:  ADDWF  FEE,F
05E36:  BNC   5E3A
05E38:  INCF   FEF,F
....................                }   
....................                else{ 
05E3A:  BRA    5E72
05E3C:  MOVLB  5
....................                   flagup=0; 
05E3E:  BCF    x87.0
....................                   Minutos1[l+((Prog-1)*10)]+=10; 
05E40:  MOVLW  01
05E42:  MOVLB  7
05E44:  SUBWF  xDF,W
05E46:  MULLW  0A
05E48:  MOVF   FF3,W
05E4A:  ADDWF  xDE,W
05E4C:  MOVWF  00
05E4E:  BCF    FD8.0
05E50:  RLCF   00,F
05E52:  MOVF   00,W
05E54:  CLRF   03
05E56:  ADDLW  2F
05E58:  MOVWF  FE9
05E5A:  MOVLW  07
05E5C:  ADDWFC 03,W
05E5E:  MOVWF  FEA
05E60:  MOVLW  0A
05E62:  ADDWF  FEF,W
05E64:  MOVWF  01
05E66:  MOVLW  00
05E68:  ADDWFC FEC,W
05E6A:  MOVF   FED,F
05E6C:  MOVFF  01,FEF
05E70:  MOVWF  FEC
....................                } 
....................                if(Minutos1[l+((Prog-1)*10)]>59) 
05E72:  MOVLW  01
05E74:  SUBWF  xDF,W
05E76:  MULLW  0A
05E78:  MOVF   FF3,W
05E7A:  ADDWF  xDE,W
05E7C:  MOVWF  00
05E7E:  BCF    FD8.0
05E80:  RLCF   00,F
05E82:  MOVF   00,W
05E84:  CLRF   03
05E86:  ADDLW  2F
05E88:  MOVWF  FE9
05E8A:  MOVLW  07
05E8C:  ADDWFC 03,W
05E8E:  MOVWF  FEA
05E90:  MOVFF  FEC,7E1
05E94:  MOVF   FED,F
05E96:  MOVFF  FEF,7E0
05E9A:  BTFSC  xE1.7
05E9C:  BRA    5ECC
05E9E:  MOVF   xE1,F
05EA0:  BNZ   5EA8
05EA2:  MOVF   xE0,W
05EA4:  SUBLW  3B
05EA6:  BC    5ECC
....................                   Minutos1[l+((Prog-1)*10)]=0; 
05EA8:  MOVLW  01
05EAA:  SUBWF  xDF,W
05EAC:  MULLW  0A
05EAE:  MOVF   FF3,W
05EB0:  ADDWF  xDE,W
05EB2:  MOVWF  00
05EB4:  BCF    FD8.0
05EB6:  RLCF   00,F
05EB8:  MOVF   00,W
05EBA:  CLRF   03
05EBC:  ADDLW  2F
05EBE:  MOVWF  FE9
05EC0:  MOVLW  07
05EC2:  ADDWFC 03,W
05EC4:  MOVWF  FEA
05EC6:  CLRF   FEC
05EC8:  MOVF   FED,F
05ECA:  CLRF   FEF
....................             } 
....................             else{ 
05ECC:  BRA    5ED8
05ECE:  MOVLB  0
....................                flagup=0;tiempoup=0; 
05ED0:  MOVLB  5
05ED2:  BCF    x87.0
05ED4:  CLRF   x90
05ED6:  MOVLB  7
....................             } 
....................                       
....................             if(DOWN)//Si oprime hacia abajo 
05ED8:  BSF    F96.0
05EDA:  BTFSC  F84.0
05EDC:  BRA    5FB6
....................             { 
....................                Buzz_on;delay_ms(10);Buzz_off; 
05EDE:  BSF    F8B.4
05EE0:  BCF    F94.4
05EE2:  MOVLW  0A
05EE4:  MOVWF  xE3
05EE6:  MOVLB  0
05EE8:  CALL   1800
05EEC:  BCF    F8B.4
05EEE:  BCF    F94.4
....................                if(tiempodn<4){ 
05EF0:  MOVLB  5
05EF2:  MOVF   x91,W
05EF4:  SUBLW  03
05EF6:  BNC   5F28
....................                   flagdn=1; 
05EF8:  BSF    x87.1
....................                   Minutos1[l+((Prog-1)*10)]--; 
05EFA:  MOVLW  01
05EFC:  MOVLB  7
05EFE:  SUBWF  xDF,W
05F00:  MULLW  0A
05F02:  MOVF   FF3,W
05F04:  ADDWF  xDE,W
05F06:  MOVWF  00
05F08:  BCF    FD8.0
05F0A:  RLCF   00,F
05F0C:  MOVF   00,W
05F0E:  CLRF   03
05F10:  ADDLW  2F
05F12:  MOVWF  FE9
05F14:  MOVLW  07
05F16:  ADDWFC 03,W
05F18:  MOVWF  FEA
05F1A:  MOVLW  FF
05F1C:  ADDWF  FEF,F
05F1E:  BC    5F24
05F20:  MOVF   FEE,F
05F22:  DECF   FED,F
....................                } 
....................                else{ 
05F24:  BRA    5F60
05F26:  MOVLB  5
....................                   flagdn=0; 
05F28:  BCF    x87.1
....................                   Minutos1[l+((Prog-1)*10)]-=10; 
05F2A:  MOVLW  01
05F2C:  MOVLB  7
05F2E:  SUBWF  xDF,W
05F30:  MULLW  0A
05F32:  MOVF   FF3,W
05F34:  ADDWF  xDE,W
05F36:  MOVWF  00
05F38:  BCF    FD8.0
05F3A:  RLCF   00,F
05F3C:  MOVF   00,W
05F3E:  CLRF   03
05F40:  ADDLW  2F
05F42:  MOVWF  FE9
05F44:  MOVLW  07
05F46:  ADDWFC 03,W
05F48:  MOVWF  FEA
05F4A:  MOVLW  0A
05F4C:  SUBWF  FEF,W
05F4E:  MOVWF  00
05F50:  MOVLW  00
05F52:  SUBWFB FEC,W
05F54:  MOVWF  03
05F56:  MOVF   00,W
05F58:  MOVF   FED,F
05F5A:  MOVWF  FEF
05F5C:  MOVFF  03,FEC
....................                } 
....................                if(Minutos1[l+((Prog-1)*10)]<0) 
05F60:  MOVLW  01
05F62:  SUBWF  xDF,W
05F64:  MULLW  0A
05F66:  MOVF   FF3,W
05F68:  ADDWF  xDE,W
05F6A:  MOVWF  00
05F6C:  BCF    FD8.0
05F6E:  RLCF   00,F
05F70:  MOVF   00,W
05F72:  CLRF   03
05F74:  ADDLW  2F
05F76:  MOVWF  FE9
05F78:  MOVLW  07
05F7A:  ADDWFC 03,W
05F7C:  MOVWF  FEA
05F7E:  MOVFF  FEC,7E1
05F82:  MOVF   FED,F
05F84:  MOVFF  FEF,7E0
05F88:  BTFSC  xE1.7
05F8A:  BRA    5F8E
05F8C:  BRA    5FB4
....................                   Minutos1[l+((Prog-1)*10)]=59; 
05F8E:  MOVLW  01
05F90:  SUBWF  xDF,W
05F92:  MULLW  0A
05F94:  MOVF   FF3,W
05F96:  ADDWF  xDE,W
05F98:  MOVWF  00
05F9A:  BCF    FD8.0
05F9C:  RLCF   00,F
05F9E:  MOVF   00,W
05FA0:  CLRF   03
05FA2:  ADDLW  2F
05FA4:  MOVWF  FE9
05FA6:  MOVLW  07
05FA8:  ADDWFC 03,W
05FAA:  MOVWF  FEA
05FAC:  CLRF   FEC
05FAE:  MOVF   FED,F
05FB0:  MOVLW  3B
05FB2:  MOVWF  FEF
....................             } 
....................             else{ 
05FB4:  BRA    5FBE
....................                flagdn=0;tiempodn=0; 
05FB6:  MOVLB  5
05FB8:  BCF    x87.1
05FBA:  CLRF   x91
05FBC:  MOVLB  7
....................             } 
....................          } 
.................... } 
05FBE:  MOVLB  0
05FC0:  GOTO   B7F8 (RETURN)
....................  
.................... void ConfigInicial(){ 
....................    setup_timer_1(T1_INTERNAL|T1_DIV_BY_1); 
*
01828:  MOVLW  85
0182A:  MOVWF  FCD
....................    enable_interrupts(INT_TIMER1); 
0182C:  BSF    F9D.0
....................    setup_adc_ports(AN0_TO_AN2); 
0182E:  MOVF   FC1,W
01830:  ANDLW  C0
01832:  IORLW  0C
01834:  MOVWF  FC1
....................    setup_adc(ADC_CLOCK_DIV_64); 
01836:  MOVF   FC0,W
01838:  ANDLW  C0
0183A:  IORLW  06
0183C:  MOVWF  FC0
0183E:  BSF    FC0.7
01840:  BSF    FC2.0
....................    enable_interrupts(global); 
01842:  MOVLW  C0
01844:  IORWF  FF2,F
.................... } 
01846:  GOTO   82A2 (RETURN)
....................  
.................... void LeeEEPROM(){  
....................    for(j=1;j<6;j++){ 
*
02278:  MOVLW  01
0227A:  MOVLB  5
0227C:  MOVWF  x9D
0227E:  MOVF   x9D,W
02280:  SUBLW  05
02282:  BTFSS  FD8.0
02284:  BRA    2668
....................       for(i=0;i<10;i++){ 
02286:  CLRF   x9C
02288:  MOVF   x9C,W
0228A:  SUBLW  09
0228C:  BTFSS  FD8.0
0228E:  BRA    2664
....................          delay_ms(10);  
02290:  MOVLW  0A
02292:  MOVLB  7
02294:  MOVWF  xE3
02296:  MOVLB  0
02298:  CALL   1800
....................          Temperatura1[i+((j-1)*10)]=make16(read_eeprom((i*2)+1+((j-1)*40)),read_eeprom((i*2)+((j-1)*40))); 
0229C:  MOVLW  01
0229E:  MOVLB  5
022A0:  SUBWF  x9D,W
022A2:  MULLW  0A
022A4:  MOVF   FF3,W
022A6:  ADDWF  x9C,W
022A8:  MOVWF  00
022AA:  BCF    FD8.0
022AC:  RLCF   00,F
022AE:  MOVF   00,W
022B0:  CLRF   03
022B2:  ADDLW  67
022B4:  MOVWF  FE9
022B6:  MOVLW  06
022B8:  ADDWFC 03,W
022BA:  MOVWF  FEA
022BC:  BCF    FD8.0
022BE:  RLCF   x9C,W
022C0:  ADDLW  01
022C2:  MOVLB  7
022C4:  MOVWF  xDF
022C6:  MOVLW  01
022C8:  MOVLB  5
022CA:  SUBWF  x9D,W
022CC:  MULLW  28
022CE:  MOVF   FF3,W
022D0:  MOVLB  7
022D2:  ADDWF  xDF,F
022D4:  MOVFF  FF2,7E0
022D8:  BCF    FF2.7
022DA:  CLRF   FAA
022DC:  MOVFF  7DF,FA9
022E0:  BCF    FA6.6
022E2:  BCF    FA6.7
022E4:  BSF    FA6.0
022E6:  MOVF   FA8,W
022E8:  BTFSC  xE0.7
022EA:  BSF    FF2.7
022EC:  MOVWF  xDF
022EE:  BCF    FD8.0
022F0:  MOVLB  5
022F2:  RLCF   x9C,W
022F4:  MOVLB  7
022F6:  MOVWF  xE1
022F8:  MOVLW  01
022FA:  MOVLB  5
022FC:  SUBWF  x9D,W
022FE:  MULLW  28
02300:  MOVF   FF3,W
02302:  MOVLB  7
02304:  ADDWF  xE1,F
02306:  MOVFF  FF2,7E2
0230A:  BCF    FF2.7
0230C:  CLRF   FAA
0230E:  MOVFF  7E1,FA9
02312:  BCF    FA6.6
02314:  BCF    FA6.7
02316:  BSF    FA6.0
02318:  MOVF   FA8,W
0231A:  BTFSC  xE2.7
0231C:  BSF    FF2.7
0231E:  MOVWF  xE1
02320:  MOVFF  7DF,FEC
02324:  MOVF   FED,F
02326:  MOVFF  7E1,FEF
....................          if(Temperatura1[i+((j-1)*10)]>1200 || Temperatura1[i+((j-1)*10)]<0){ 
0232A:  MOVLW  01
0232C:  MOVLB  5
0232E:  SUBWF  x9D,W
02330:  MULLW  0A
02332:  MOVF   FF3,W
02334:  ADDWF  x9C,W
02336:  MOVWF  00
02338:  BCF    FD8.0
0233A:  RLCF   00,F
0233C:  MOVF   00,W
0233E:  CLRF   03
02340:  ADDLW  67
02342:  MOVWF  FE9
02344:  MOVLW  06
02346:  ADDWFC 03,W
02348:  MOVWF  FEA
0234A:  MOVFF  FEC,7DE
0234E:  MOVF   FED,F
02350:  MOVFF  FEF,7DD
02354:  MOVLB  7
02356:  BTFSC  xDE.7
02358:  BRA    236A
0235A:  MOVF   xDE,W
0235C:  SUBLW  03
0235E:  BC    236A
02360:  XORLW  FF
02362:  BNZ   239A
02364:  MOVF   xDD,W
02366:  SUBLW  B0
02368:  BNC   239A
0236A:  MOVLW  01
0236C:  MOVLB  5
0236E:  SUBWF  x9D,W
02370:  MULLW  0A
02372:  MOVF   FF3,W
02374:  ADDWF  x9C,W
02376:  MOVWF  00
02378:  BCF    FD8.0
0237A:  RLCF   00,F
0237C:  MOVF   00,W
0237E:  CLRF   03
02380:  ADDLW  67
02382:  MOVWF  FE9
02384:  MOVLW  06
02386:  ADDWFC 03,W
02388:  MOVWF  FEA
0238A:  MOVFF  FEC,7DE
0238E:  MOVF   FED,F
02390:  MOVFF  FEF,7DD
02394:  MOVLB  7
02396:  BTFSS  xDE.7
02398:  BRA    245E
....................             Temperatura1[i+((j-1)*10)]=0; 
0239A:  MOVLW  01
0239C:  MOVLB  5
0239E:  SUBWF  x9D,W
023A0:  MULLW  0A
023A2:  MOVF   FF3,W
023A4:  ADDWF  x9C,W
023A6:  MOVWF  00
023A8:  BCF    FD8.0
023AA:  RLCF   00,F
023AC:  MOVF   00,W
023AE:  CLRF   03
023B0:  ADDLW  67
023B2:  MOVWF  FE9
023B4:  MOVLW  06
023B6:  ADDWFC 03,W
023B8:  MOVWF  FEA
023BA:  CLRF   FEC
023BC:  MOVF   FED,F
023BE:  CLRF   FEF
....................             write_eeprom((i*2)+1+((j-1)*40),0); 
023C0:  BCF    FD8.0
023C2:  RLCF   x9C,W
023C4:  ADDLW  01
023C6:  MOVLB  7
023C8:  MOVWF  xDD
023CA:  MOVLW  01
023CC:  MOVLB  5
023CE:  SUBWF  x9D,W
023D0:  MULLW  28
023D2:  MOVF   FF3,W
023D4:  MOVLB  7
023D6:  ADDWF  xDD,F
023D8:  CLRF   FAA
023DA:  MOVFF  7DD,FA9
023DE:  CLRF   FA8
023E0:  BCF    FA6.6
023E2:  BCF    FA6.7
023E4:  BSF    FA6.2
023E6:  MOVF   FF2,W
023E8:  MOVWF  00
023EA:  BCF    FF2.7
023EC:  MOVLB  F
023EE:  MOVLW  55
023F0:  MOVWF  FA7
023F2:  MOVLW  AA
023F4:  MOVWF  FA7
023F6:  BSF    FA6.1
023F8:  BTFSC  FA6.1
023FA:  BRA    23F8
023FC:  BCF    FA6.2
023FE:  MOVF   00,W
02400:  IORWF  FF2,F
....................             delay_ms(20); 
02402:  MOVLW  14
02404:  MOVLB  7
02406:  MOVWF  xE3
02408:  MOVLB  0
0240A:  CALL   1800
....................             write_eeprom((i*2)+((j-1)*40),0); 
0240E:  BCF    FD8.0
02410:  MOVLB  5
02412:  RLCF   x9C,W
02414:  MOVLB  7
02416:  MOVWF  xDD
02418:  MOVLW  01
0241A:  MOVLB  5
0241C:  SUBWF  x9D,W
0241E:  MULLW  28
02420:  MOVF   FF3,W
02422:  MOVLB  7
02424:  ADDWF  xDD,F
02426:  CLRF   FAA
02428:  MOVFF  7DD,FA9
0242C:  CLRF   FA8
0242E:  BCF    FA6.6
02430:  BCF    FA6.7
02432:  BSF    FA6.2
02434:  MOVF   FF2,W
02436:  MOVWF  00
02438:  BCF    FF2.7
0243A:  MOVLB  F
0243C:  MOVLW  55
0243E:  MOVWF  FA7
02440:  MOVLW  AA
02442:  MOVWF  FA7
02444:  BSF    FA6.1
02446:  BTFSC  FA6.1
02448:  BRA    2446
0244A:  BCF    FA6.2
0244C:  MOVF   00,W
0244E:  IORWF  FF2,F
....................             delay_ms(20); 
02450:  MOVLW  14
02452:  MOVLB  7
02454:  MOVWF  xE3
02456:  MOVLB  0
02458:  CALL   1800
0245C:  MOVLB  7
....................          } 
....................          delay_ms(10); 
0245E:  MOVLW  0A
02460:  MOVWF  xE3
02462:  MOVLB  0
02464:  CALL   1800
....................          Horas1[i+((j-1)*10)]=read_eeprom(i+((40*j)-20));      
02468:  MOVLW  01
0246A:  MOVLB  5
0246C:  SUBWF  x9D,W
0246E:  MULLW  0A
02470:  MOVF   FF3,W
02472:  ADDWF  x9C,W
02474:  MOVWF  00
02476:  BCF    FD8.0
02478:  RLCF   00,F
0247A:  MOVF   00,W
0247C:  CLRF   03
0247E:  ADDLW  CB
02480:  MOVWF  FE9
02482:  MOVLW  06
02484:  ADDWFC 03,W
02486:  MOVWF  FEA
02488:  MOVF   x9D,W
0248A:  MULLW  28
0248C:  MOVF   FF3,W
0248E:  ADDLW  EC
02490:  ADDWF  x9C,W
02492:  MOVLB  7
02494:  MOVWF  xDF
02496:  MOVFF  FF2,7E0
0249A:  BCF    FF2.7
0249C:  CLRF   FAA
0249E:  MOVFF  7DF,FA9
024A2:  BCF    FA6.6
024A4:  BCF    FA6.7
024A6:  BSF    FA6.0
024A8:  MOVF   FA8,W
024AA:  BTFSC  xE0.7
024AC:  BSF    FF2.7
024AE:  CLRF   03
024B0:  MOVWF  FEF
024B2:  MOVFF  03,FEC
024B6:  MOVF   FED,F
....................          if(Horas1[i+((j-1)*10)]>99){ 
024B8:  MOVLW  01
024BA:  MOVLB  5
024BC:  SUBWF  x9D,W
024BE:  MULLW  0A
024C0:  MOVF   FF3,W
024C2:  ADDWF  x9C,W
024C4:  MOVWF  00
024C6:  BCF    FD8.0
024C8:  RLCF   00,F
024CA:  MOVF   00,W
024CC:  CLRF   03
024CE:  ADDLW  CB
024D0:  MOVWF  FE9
024D2:  MOVLW  06
024D4:  ADDWFC 03,W
024D6:  MOVWF  FEA
024D8:  MOVFF  FEC,7DE
024DC:  MOVF   FED,F
024DE:  MOVFF  FEF,7DD
024E2:  MOVLB  7
024E4:  BTFSC  xDE.7
024E6:  BRA    255E
024E8:  MOVF   xDE,F
024EA:  BNZ   24F2
024EC:  MOVF   xDD,W
024EE:  SUBLW  63
024F0:  BC    255E
....................             Horas1[i+((j-1)*10)]=0; 
024F2:  MOVLW  01
024F4:  MOVLB  5
024F6:  SUBWF  x9D,W
024F8:  MULLW  0A
024FA:  MOVF   FF3,W
024FC:  ADDWF  x9C,W
024FE:  MOVWF  00
02500:  BCF    FD8.0
02502:  RLCF   00,F
02504:  MOVF   00,W
02506:  CLRF   03
02508:  ADDLW  CB
0250A:  MOVWF  FE9
0250C:  MOVLW  06
0250E:  ADDWFC 03,W
02510:  MOVWF  FEA
02512:  CLRF   FEC
02514:  MOVF   FED,F
02516:  CLRF   FEF
....................             write_eeprom(i+((40*j)-20),0); 
02518:  MOVF   x9D,W
0251A:  MULLW  28
0251C:  MOVF   FF3,W
0251E:  ADDLW  EC
02520:  ADDWF  x9C,W
02522:  MOVLB  7
02524:  MOVWF  xDD
02526:  CLRF   FAA
02528:  MOVFF  7DD,FA9
0252C:  CLRF   FA8
0252E:  BCF    FA6.6
02530:  BCF    FA6.7
02532:  BSF    FA6.2
02534:  MOVF   FF2,W
02536:  MOVWF  00
02538:  BCF    FF2.7
0253A:  MOVLB  F
0253C:  MOVLW  55
0253E:  MOVWF  FA7
02540:  MOVLW  AA
02542:  MOVWF  FA7
02544:  BSF    FA6.1
02546:  BTFSC  FA6.1
02548:  BRA    2546
0254A:  BCF    FA6.2
0254C:  MOVF   00,W
0254E:  IORWF  FF2,F
....................             delay_ms(20); 
02550:  MOVLW  14
02552:  MOVLB  7
02554:  MOVWF  xE3
02556:  MOVLB  0
02558:  CALL   1800
0255C:  MOVLB  7
....................          } 
....................          delay_ms(10);     
0255E:  MOVLW  0A
02560:  MOVWF  xE3
02562:  MOVLB  0
02564:  CALL   1800
....................          Minutos1[i+((j-1)*10)]=read_eeprom(i+((40*j)-10)); 
02568:  MOVLW  01
0256A:  MOVLB  5
0256C:  SUBWF  x9D,W
0256E:  MULLW  0A
02570:  MOVF   FF3,W
02572:  ADDWF  x9C,W
02574:  MOVWF  00
02576:  BCF    FD8.0
02578:  RLCF   00,F
0257A:  MOVF   00,W
0257C:  CLRF   03
0257E:  ADDLW  2F
02580:  MOVWF  FE9
02582:  MOVLW  07
02584:  ADDWFC 03,W
02586:  MOVWF  FEA
02588:  MOVF   x9D,W
0258A:  MULLW  28
0258C:  MOVF   FF3,W
0258E:  ADDLW  F6
02590:  ADDWF  x9C,W
02592:  MOVLB  7
02594:  MOVWF  xDF
02596:  MOVFF  FF2,7E0
0259A:  BCF    FF2.7
0259C:  CLRF   FAA
0259E:  MOVFF  7DF,FA9
025A2:  BCF    FA6.6
025A4:  BCF    FA6.7
025A6:  BSF    FA6.0
025A8:  MOVF   FA8,W
025AA:  BTFSC  xE0.7
025AC:  BSF    FF2.7
025AE:  CLRF   03
025B0:  MOVWF  FEF
025B2:  MOVFF  03,FEC
025B6:  MOVF   FED,F
....................          if(Minutos1[i+((j-1)*10)]>59){ 
025B8:  MOVLW  01
025BA:  MOVLB  5
025BC:  SUBWF  x9D,W
025BE:  MULLW  0A
025C0:  MOVF   FF3,W
025C2:  ADDWF  x9C,W
025C4:  MOVWF  00
025C6:  BCF    FD8.0
025C8:  RLCF   00,F
025CA:  MOVF   00,W
025CC:  CLRF   03
025CE:  ADDLW  2F
025D0:  MOVWF  FE9
025D2:  MOVLW  07
025D4:  ADDWFC 03,W
025D6:  MOVWF  FEA
025D8:  MOVFF  FEC,7DE
025DC:  MOVF   FED,F
025DE:  MOVFF  FEF,7DD
025E2:  MOVLB  7
025E4:  BTFSC  xDE.7
025E6:  BRA    265E
025E8:  MOVF   xDE,F
025EA:  BNZ   25F2
025EC:  MOVF   xDD,W
025EE:  SUBLW  3B
025F0:  BC    265E
....................             Minutos1[i+((j-1)*10)]=0; 
025F2:  MOVLW  01
025F4:  MOVLB  5
025F6:  SUBWF  x9D,W
025F8:  MULLW  0A
025FA:  MOVF   FF3,W
025FC:  ADDWF  x9C,W
025FE:  MOVWF  00
02600:  BCF    FD8.0
02602:  RLCF   00,F
02604:  MOVF   00,W
02606:  CLRF   03
02608:  ADDLW  2F
0260A:  MOVWF  FE9
0260C:  MOVLW  07
0260E:  ADDWFC 03,W
02610:  MOVWF  FEA
02612:  CLRF   FEC
02614:  MOVF   FED,F
02616:  CLRF   FEF
....................             write_eeprom(i+((40*j)-10),0); 
02618:  MOVF   x9D,W
0261A:  MULLW  28
0261C:  MOVF   FF3,W
0261E:  ADDLW  F6
02620:  ADDWF  x9C,W
02622:  MOVLB  7
02624:  MOVWF  xDD
02626:  CLRF   FAA
02628:  MOVFF  7DD,FA9
0262C:  CLRF   FA8
0262E:  BCF    FA6.6
02630:  BCF    FA6.7
02632:  BSF    FA6.2
02634:  MOVF   FF2,W
02636:  MOVWF  00
02638:  BCF    FF2.7
0263A:  MOVLB  F
0263C:  MOVLW  55
0263E:  MOVWF  FA7
02640:  MOVLW  AA
02642:  MOVWF  FA7
02644:  BSF    FA6.1
02646:  BTFSC  FA6.1
02648:  BRA    2646
0264A:  BCF    FA6.2
0264C:  MOVF   00,W
0264E:  IORWF  FF2,F
....................             delay_ms(20); 
02650:  MOVLW  14
02652:  MOVLB  7
02654:  MOVWF  xE3
02656:  MOVLB  0
02658:  CALL   1800
0265C:  MOVLB  7
....................          } 
....................           
....................       } 
0265E:  MOVLB  5
02660:  INCF   x9C,F
02662:  BRA    2288
....................    } 
02664:  INCF   x9D,F
02666:  BRA    227E
....................     
....................    delay_ms(50);    
02668:  MOVLW  32
0266A:  MOVLB  7
0266C:  MOVWF  xE3
0266E:  MOVLB  0
02670:  CALL   1800
....................    Ganancia=read_eeprom(250); 
02674:  MOVFF  FF2,7DD
02678:  BCF    FF2.7
0267A:  CLRF   FAA
0267C:  MOVLW  FA
0267E:  MOVWF  FA9
02680:  BCF    FA6.6
02682:  BCF    FA6.7
02684:  BSF    FA6.0
02686:  MOVF   FA8,W
02688:  MOVLB  7
0268A:  BTFSC  xDD.7
0268C:  BSF    FF2.7
0268E:  CLRF   xE4
02690:  MOVWF  xE3
02692:  MOVLB  0
02694:  RCALL  21C8
02696:  MOVFF  03,616
0269A:  MOVFF  02,615
0269E:  MOVFF  01,614
026A2:  MOVFF  00,613
....................    delay_ms(50);    
026A6:  MOVLW  32
026A8:  MOVLB  7
026AA:  MOVWF  xE3
026AC:  MOVLB  0
026AE:  CALL   1800
....................    if(Ganancia>10){ 
026B2:  MOVLB  7
026B4:  CLRF   xE0
026B6:  CLRF   xDF
026B8:  MOVLW  20
026BA:  MOVWF  xDE
026BC:  MOVLW  82
026BE:  MOVWF  xDD
026C0:  MOVFF  616,7E4
026C4:  MOVFF  615,7E3
026C8:  MOVFF  614,7E2
026CC:  MOVFF  613,7E1
026D0:  MOVLB  0
026D2:  RCALL  21FE
026D4:  BNC   271C
....................       Ganancia=3; 
026D6:  MOVLB  6
026D8:  CLRF   x16
026DA:  CLRF   x15
026DC:  MOVLW  40
026DE:  MOVWF  x14
026E0:  MOVLW  80
026E2:  MOVWF  x13
....................       write_eeprom(250,3); 
026E4:  CLRF   FAA
026E6:  MOVLW  FA
026E8:  MOVWF  FA9
026EA:  MOVLW  03
026EC:  MOVWF  FA8
026EE:  BCF    FA6.6
026F0:  BCF    FA6.7
026F2:  BSF    FA6.2
026F4:  MOVF   FF2,W
026F6:  MOVWF  00
026F8:  BCF    FF2.7
026FA:  MOVLB  F
026FC:  MOVLW  55
026FE:  MOVWF  FA7
02700:  MOVLW  AA
02702:  MOVWF  FA7
02704:  BSF    FA6.1
02706:  BTFSC  FA6.1
02708:  BRA    2706
0270A:  BCF    FA6.2
0270C:  MOVF   00,W
0270E:  IORWF  FF2,F
....................       delay_ms(20); 
02710:  MOVLW  14
02712:  MOVLB  7
02714:  MOVWF  xE3
02716:  MOVLB  0
02718:  CALL   1800
....................    } 
....................    GananciaIn=Ganancia; 
0271C:  MOVFF  616,612
02720:  MOVFF  615,611
02724:  MOVFF  614,610
02728:  MOVFF  613,60F
....................    Tciclo=read_eeprom(251); 
0272C:  MOVFF  FF2,7DD
02730:  BCF    FF2.7
02732:  CLRF   FAA
02734:  MOVLW  FB
02736:  MOVWF  FA9
02738:  BCF    FA6.6
0273A:  BCF    FA6.7
0273C:  BSF    FA6.0
0273E:  MOVF   FA8,W
02740:  MOVLB  7
02742:  BTFSC  xDD.7
02744:  BSF    FF2.7
02746:  CLRF   xE4
02748:  MOVWF  xE3
0274A:  MOVLB  0
0274C:  RCALL  21C8
0274E:  MOVFF  03,5FA
02752:  MOVFF  02,5F9
02756:  MOVFF  01,5F8
0275A:  MOVFF  00,5F7
....................    delay_ms(50);    
0275E:  MOVLW  32
02760:  MOVLB  7
02762:  MOVWF  xE3
02764:  MOVLB  0
02766:  CALL   1800
....................    if(Tciclo>10){ 
0276A:  MOVLB  7
0276C:  CLRF   xE0
0276E:  CLRF   xDF
02770:  MOVLW  20
02772:  MOVWF  xDE
02774:  MOVLW  82
02776:  MOVWF  xDD
02778:  MOVFF  5FA,7E4
0277C:  MOVFF  5F9,7E3
02780:  MOVFF  5F8,7E2
02784:  MOVFF  5F7,7E1
02788:  MOVLB  0
0278A:  RCALL  21FE
0278C:  BNC   27D4
....................       Tciclo=10; 
0278E:  MOVLB  5
02790:  CLRF   xFA
02792:  CLRF   xF9
02794:  MOVLW  20
02796:  MOVWF  xF8
02798:  MOVLW  82
0279A:  MOVWF  xF7
....................       write_eeprom(251,10); 
0279C:  CLRF   FAA
0279E:  MOVLW  FB
027A0:  MOVWF  FA9
027A2:  MOVLW  0A
027A4:  MOVWF  FA8
027A6:  BCF    FA6.6
027A8:  BCF    FA6.7
027AA:  BSF    FA6.2
027AC:  MOVF   FF2,W
027AE:  MOVWF  00
027B0:  BCF    FF2.7
027B2:  MOVLB  F
027B4:  MOVLW  55
027B6:  MOVWF  FA7
027B8:  MOVLW  AA
027BA:  MOVWF  FA7
027BC:  BSF    FA6.1
027BE:  BTFSC  FA6.1
027C0:  BRA    27BE
027C2:  BCF    FA6.2
027C4:  MOVF   00,W
027C6:  IORWF  FF2,F
....................       delay_ms(20); 
027C8:  MOVLW  14
027CA:  MOVLB  7
027CC:  MOVWF  xE3
027CE:  MOVLB  0
027D0:  CALL   1800
....................    } 
....................    Ajuste=read_eeprom(252); 
027D4:  MOVFF  FF2,7DD
027D8:  BCF    FF2.7
027DA:  CLRF   FAA
027DC:  MOVLW  FC
027DE:  MOVWF  FA9
027E0:  BCF    FA6.6
027E2:  BCF    FA6.7
027E4:  BSF    FA6.0
027E6:  MOVF   FA8,W
027E8:  MOVLB  7
027EA:  BTFSC  xDD.7
027EC:  BSF    FF2.7
027EE:  MOVLB  5
027F0:  MOVWF  x8A
....................    delay_ms(50); 
027F2:  MOVLW  32
027F4:  MOVLB  7
027F6:  MOVWF  xE3
027F8:  MOVLB  0
027FA:  CALL   1800
....................    if(Ajuste>10){ 
027FE:  MOVLB  5
02800:  MOVF   x8A,W
02802:  SUBLW  0A
02804:  BC    2840
....................       Ajuste=0; 
02806:  CLRF   x8A
....................       write_eeprom(252,0); 
02808:  CLRF   FAA
0280A:  MOVLW  FC
0280C:  MOVWF  FA9
0280E:  CLRF   FA8
02810:  BCF    FA6.6
02812:  BCF    FA6.7
02814:  BSF    FA6.2
02816:  MOVF   FF2,W
02818:  MOVWF  00
0281A:  BCF    FF2.7
0281C:  MOVLB  F
0281E:  MOVLW  55
02820:  MOVWF  FA7
02822:  MOVLW  AA
02824:  MOVWF  FA7
02826:  BSF    FA6.1
02828:  BTFSC  FA6.1
0282A:  BRA    2828
0282C:  BCF    FA6.2
0282E:  MOVF   00,W
02830:  IORWF  FF2,F
....................       delay_ms(20); 
02832:  MOVLW  14
02834:  MOVLB  7
02836:  MOVWF  xE3
02838:  MOVLB  0
0283A:  CALL   1800
0283E:  MOVLB  5
....................    } 
....................    Ajusten=read_eeprom(253); 
02840:  MOVFF  FF2,7DD
02844:  BCF    FF2.7
02846:  CLRF   FAA
02848:  MOVLW  FD
0284A:  MOVWF  FA9
0284C:  BCF    FA6.6
0284E:  BCF    FA6.7
02850:  BSF    FA6.0
02852:  MOVF   FA8,W
02854:  MOVLB  7
02856:  BTFSC  xDD.7
02858:  BSF    FF2.7
0285A:  MOVLB  5
0285C:  MOVWF  x8B
....................    delay_ms(50); 
0285E:  MOVLW  32
02860:  MOVLB  7
02862:  MOVWF  xE3
02864:  MOVLB  0
02866:  CALL   1800
....................    if(Ajusten>10){ 
0286A:  MOVLB  5
0286C:  MOVF   x8B,W
0286E:  SUBLW  0A
02870:  BC    28AC
....................       Ajusten=0; 
02872:  CLRF   x8B
....................       write_eeprom(253,0); 
02874:  CLRF   FAA
02876:  MOVLW  FD
02878:  MOVWF  FA9
0287A:  CLRF   FA8
0287C:  BCF    FA6.6
0287E:  BCF    FA6.7
02880:  BSF    FA6.2
02882:  MOVF   FF2,W
02884:  MOVWF  00
02886:  BCF    FF2.7
02888:  MOVLB  F
0288A:  MOVLW  55
0288C:  MOVWF  FA7
0288E:  MOVLW  AA
02890:  MOVWF  FA7
02892:  BSF    FA6.1
02894:  BTFSC  FA6.1
02896:  BRA    2894
02898:  BCF    FA6.2
0289A:  MOVF   00,W
0289C:  IORWF  FF2,F
....................       delay_ms(20); 
0289E:  MOVLW  14
028A0:  MOVLB  7
028A2:  MOVWF  xE3
028A4:  MOVLB  0
028A6:  CALL   1800
028AA:  MOVLB  5
....................    } 
....................    MediaMovil=read_eeprom(254); 
028AC:  MOVFF  FF2,7DD
028B0:  BCF    FF2.7
028B2:  CLRF   FAA
028B4:  MOVLW  FE
028B6:  MOVWF  FA9
028B8:  BCF    FA6.6
028BA:  BCF    FA6.7
028BC:  BSF    FA6.0
028BE:  MOVF   FA8,W
028C0:  MOVLB  7
028C2:  BTFSC  xDD.7
028C4:  BSF    FF2.7
028C6:  MOVLB  5
028C8:  MOVWF  x8C
....................    delay_ms(50);    
028CA:  MOVLW  32
028CC:  MOVLB  7
028CE:  MOVWF  xE3
028D0:  MOVLB  0
028D2:  CALL   1800
....................    if(MediaMovil>40){ 
028D6:  MOVLB  5
028D8:  MOVF   x8C,W
028DA:  SUBLW  28
028DC:  BC    291C
....................       MediaMovil=20; 
028DE:  MOVLW  14
028E0:  MOVWF  x8C
....................       write_eeprom(254,20); 
028E2:  CLRF   FAA
028E4:  MOVLW  FE
028E6:  MOVWF  FA9
028E8:  MOVLW  14
028EA:  MOVWF  FA8
028EC:  BCF    FA6.6
028EE:  BCF    FA6.7
028F0:  BSF    FA6.2
028F2:  MOVF   FF2,W
028F4:  MOVWF  00
028F6:  BCF    FF2.7
028F8:  MOVLB  F
028FA:  MOVLW  55
028FC:  MOVWF  FA7
028FE:  MOVLW  AA
02900:  MOVWF  FA7
02902:  BSF    FA6.1
02904:  BTFSC  FA6.1
02906:  BRA    2904
02908:  BCF    FA6.2
0290A:  MOVF   00,W
0290C:  IORWF  FF2,F
....................       delay_ms(20); 
0290E:  MOVLW  14
02910:  MOVLB  7
02912:  MOVWF  xE3
02914:  MOVLB  0
02916:  CALL   1800
0291A:  MOVLB  5
....................    } 
....................    Coeficiente=read_eeprom(255); 
0291C:  MOVFF  FF2,7DD
02920:  BCF    FF2.7
02922:  CLRF   FAA
02924:  MOVLW  FF
02926:  MOVWF  FA9
02928:  BCF    FA6.6
0292A:  BCF    FA6.7
0292C:  BSF    FA6.0
0292E:  MOVF   FA8,W
02930:  MOVLB  7
02932:  BTFSC  xDD.7
02934:  BSF    FF2.7
02936:  CLRF   xE4
02938:  MOVWF  xE3
0293A:  MOVLB  0
0293C:  RCALL  21C8
0293E:  MOVFF  03,61E
02942:  MOVFF  02,61D
02946:  MOVFF  01,61C
0294A:  MOVFF  00,61B
....................    delay_ms(50);    
0294E:  MOVLW  32
02950:  MOVLB  7
02952:  MOVWF  xE3
02954:  MOVLB  0
02956:  CALL   1800
....................    AlTem=read_eeprom(256); 
0295A:  MOVFF  FF2,7DD
0295E:  BCF    FF2.7
02960:  MOVLW  01
02962:  MOVWF  FAA
02964:  CLRF   FA9
02966:  BCF    FA6.6
02968:  BCF    FA6.7
0296A:  BSF    FA6.0
0296C:  MOVF   FA8,W
0296E:  MOVLB  7
02970:  BTFSC  xDD.7
02972:  BSF    FF2.7
02974:  CLRF   xE4
02976:  MOVWF  xE3
02978:  MOVLB  0
0297A:  RCALL  21C8
0297C:  MOVFF  03,622
02980:  MOVFF  02,621
02984:  MOVFF  01,620
02988:  MOVFF  00,61F
....................    delay_ms(50);  
0298C:  MOVLW  32
0298E:  MOVLB  7
02990:  MOVWF  xE3
02992:  MOVLB  0
02994:  CALL   1800
....................    resistencia=read_eeprom(257); 
02998:  MOVFF  FF2,7DD
0299C:  BCF    FF2.7
0299E:  MOVLW  01
029A0:  MOVWF  FAA
029A2:  MOVLW  01
029A4:  MOVWF  FA9
029A6:  BCF    FA6.6
029A8:  BCF    FA6.7
029AA:  BSF    FA6.0
029AC:  MOVF   FA8,W
029AE:  MOVLB  7
029B0:  BTFSC  xDD.7
029B2:  BSF    FF2.7
029B4:  CLRF   xE4
029B6:  MOVWF  xE3
029B8:  MOVLB  0
029BA:  RCALL  21C8
029BC:  MOVFF  03,626
029C0:  MOVFF  02,625
029C4:  MOVFF  01,624
029C8:  MOVFF  00,623
....................    delay_ms(50);  
029CC:  MOVLW  32
029CE:  MOVLB  7
029D0:  MOVWF  xE3
029D2:  MOVLB  0
029D4:  CALL   1800
....................    if(resistencia>250){ 
029D8:  MOVLB  7
029DA:  CLRF   xE0
029DC:  CLRF   xDF
029DE:  MOVLW  7A
029E0:  MOVWF  xDE
029E2:  MOVLW  86
029E4:  MOVWF  xDD
029E6:  MOVFF  626,7E4
029EA:  MOVFF  625,7E3
029EE:  MOVFF  624,7E2
029F2:  MOVFF  623,7E1
029F6:  MOVLB  0
029F8:  RCALL  21FE
029FA:  BNC   2A42
....................       resistencia=240; 
029FC:  MOVLB  6
029FE:  CLRF   x26
02A00:  CLRF   x25
02A02:  MOVLW  70
02A04:  MOVWF  x24
02A06:  MOVLW  86
02A08:  MOVWF  x23
....................       write_eeprom(257,240); 
02A0A:  MOVLW  01
02A0C:  MOVWF  FAA
02A0E:  MOVWF  FA9
02A10:  MOVLW  F0
02A12:  MOVWF  FA8
02A14:  BCF    FA6.6
02A16:  BCF    FA6.7
02A18:  BSF    FA6.2
02A1A:  MOVF   FF2,W
02A1C:  MOVWF  00
02A1E:  BCF    FF2.7
02A20:  MOVLB  F
02A22:  MOVLW  55
02A24:  MOVWF  FA7
02A26:  MOVLW  AA
02A28:  MOVWF  FA7
02A2A:  BSF    FA6.1
02A2C:  BTFSC  FA6.1
02A2E:  BRA    2A2C
02A30:  BCF    FA6.2
02A32:  MOVF   00,W
02A34:  IORWF  FF2,F
....................       delay_ms(20); 
02A36:  MOVLW  14
02A38:  MOVLB  7
02A3A:  MOVWF  xE3
02A3C:  MOVLB  0
02A3E:  CALL   1800
....................    } 
....................    penMufla=read_eeprom(258); 
02A42:  MOVFF  FF2,7DD
02A46:  BCF    FF2.7
02A48:  MOVLW  01
02A4A:  MOVWF  FAA
02A4C:  MOVLW  02
02A4E:  MOVWF  FA9
02A50:  BCF    FA6.6
02A52:  BCF    FA6.7
02A54:  BSF    FA6.0
02A56:  MOVF   FA8,W
02A58:  MOVLB  7
02A5A:  BTFSC  xDD.7
02A5C:  BSF    FF2.7
02A5E:  CLRF   xE4
02A60:  MOVWF  xE3
02A62:  MOVLB  0
02A64:  CALL   21C8
02A68:  MOVFF  03,65E
02A6C:  MOVFF  02,65D
02A70:  MOVFF  01,65C
02A74:  MOVFF  00,65B
....................    delay_ms(50);  
02A78:  MOVLW  32
02A7A:  MOVLB  7
02A7C:  MOVWF  xE3
02A7E:  MOVLB  0
02A80:  CALL   1800
....................    if(penMufla>150){ 
02A84:  MOVLB  7
02A86:  CLRF   xE0
02A88:  CLRF   xDF
02A8A:  MOVLW  16
02A8C:  MOVWF  xDE
02A8E:  MOVLW  86
02A90:  MOVWF  xDD
02A92:  MOVFF  65E,7E4
02A96:  MOVFF  65D,7E3
02A9A:  MOVFF  65C,7E2
02A9E:  MOVFF  65B,7E1
02AA2:  MOVLB  0
02AA4:  CALL   21FE
02AA8:  BNC   2AF2
....................       penMufla=100; 
02AAA:  MOVLB  6
02AAC:  CLRF   x5E
02AAE:  CLRF   x5D
02AB0:  MOVLW  48
02AB2:  MOVWF  x5C
02AB4:  MOVLW  85
02AB6:  MOVWF  x5B
....................       write_eeprom(258,100); 
02AB8:  MOVLW  01
02ABA:  MOVWF  FAA
02ABC:  MOVLW  02
02ABE:  MOVWF  FA9
02AC0:  MOVLW  64
02AC2:  MOVWF  FA8
02AC4:  BCF    FA6.6
02AC6:  BCF    FA6.7
02AC8:  BSF    FA6.2
02ACA:  MOVF   FF2,W
02ACC:  MOVWF  00
02ACE:  BCF    FF2.7
02AD0:  MOVLB  F
02AD2:  MOVLW  55
02AD4:  MOVWF  FA7
02AD6:  MOVLW  AA
02AD8:  MOVWF  FA7
02ADA:  BSF    FA6.1
02ADC:  BTFSC  FA6.1
02ADE:  BRA    2ADC
02AE0:  BCF    FA6.2
02AE2:  MOVF   00,W
02AE4:  IORWF  FF2,F
....................       delay_ms(20); 
02AE6:  MOVLW  14
02AE8:  MOVLB  7
02AEA:  MOVWF  xE3
02AEC:  MOVLB  0
02AEE:  CALL   1800
....................    } 
....................     
....................    Password[0]=read_eeprom(260); 
02AF2:  MOVFF  FF2,7DD
02AF6:  BCF    FF2.7
02AF8:  MOVLW  01
02AFA:  MOVWF  FAA
02AFC:  MOVLW  04
02AFE:  MOVWF  FA9
02B00:  BCF    FA6.6
02B02:  BCF    FA6.7
02B04:  BSF    FA6.0
02B06:  MOVF   FA8,W
02B08:  MOVLB  7
02B0A:  BTFSC  xDD.7
02B0C:  BSF    FF2.7
02B0E:  MOVLB  5
02B10:  MOVWF  xEF
....................    delay_ms(50);    
02B12:  MOVLW  32
02B14:  MOVLB  7
02B16:  MOVWF  xE3
02B18:  MOVLB  0
02B1A:  CALL   1800
....................    if(Password[0]>9 || Password[0]<0){ 
02B1E:  MOVLB  5
02B20:  BTFSC  xEF.7
02B22:  BRA    2B2A
02B24:  MOVF   xEF,W
02B26:  SUBLW  09
02B28:  BNC   2B30
02B2A:  BTFSC  xEF.7
02B2C:  BRA    2B30
02B2E:  BRA    2B6C
....................       Password[0]=0; 
02B30:  CLRF   xEF
....................       write_eeprom(260,0); 
02B32:  MOVLW  01
02B34:  MOVWF  FAA
02B36:  MOVLW  04
02B38:  MOVWF  FA9
02B3A:  CLRF   FA8
02B3C:  BCF    FA6.6
02B3E:  BCF    FA6.7
02B40:  BSF    FA6.2
02B42:  MOVF   FF2,W
02B44:  MOVWF  00
02B46:  BCF    FF2.7
02B48:  MOVLB  F
02B4A:  MOVLW  55
02B4C:  MOVWF  FA7
02B4E:  MOVLW  AA
02B50:  MOVWF  FA7
02B52:  BSF    FA6.1
02B54:  BTFSC  FA6.1
02B56:  BRA    2B54
02B58:  BCF    FA6.2
02B5A:  MOVF   00,W
02B5C:  IORWF  FF2,F
....................       delay_ms(20); 
02B5E:  MOVLW  14
02B60:  MOVLB  7
02B62:  MOVWF  xE3
02B64:  MOVLB  0
02B66:  CALL   1800
02B6A:  MOVLB  5
....................    } 
....................    Password[1]=read_eeprom(261); 
02B6C:  MOVFF  FF2,7DD
02B70:  BCF    FF2.7
02B72:  MOVLW  01
02B74:  MOVWF  FAA
02B76:  MOVLW  05
02B78:  MOVWF  FA9
02B7A:  BCF    FA6.6
02B7C:  BCF    FA6.7
02B7E:  BSF    FA6.0
02B80:  MOVF   FA8,W
02B82:  MOVLB  7
02B84:  BTFSC  xDD.7
02B86:  BSF    FF2.7
02B88:  MOVLB  5
02B8A:  MOVWF  xF0
....................    delay_ms(50);    
02B8C:  MOVLW  32
02B8E:  MOVLB  7
02B90:  MOVWF  xE3
02B92:  MOVLB  0
02B94:  CALL   1800
....................    if(Password[1]>9 || Password[1]<0){ 
02B98:  MOVLB  5
02B9A:  BTFSC  xF0.7
02B9C:  BRA    2BA4
02B9E:  MOVF   xF0,W
02BA0:  SUBLW  09
02BA2:  BNC   2BAA
02BA4:  BTFSC  xF0.7
02BA6:  BRA    2BAA
02BA8:  BRA    2BE6
....................       Password[1]=0; 
02BAA:  CLRF   xF0
....................       write_eeprom(261,0); 
02BAC:  MOVLW  01
02BAE:  MOVWF  FAA
02BB0:  MOVLW  05
02BB2:  MOVWF  FA9
02BB4:  CLRF   FA8
02BB6:  BCF    FA6.6
02BB8:  BCF    FA6.7
02BBA:  BSF    FA6.2
02BBC:  MOVF   FF2,W
02BBE:  MOVWF  00
02BC0:  BCF    FF2.7
02BC2:  MOVLB  F
02BC4:  MOVLW  55
02BC6:  MOVWF  FA7
02BC8:  MOVLW  AA
02BCA:  MOVWF  FA7
02BCC:  BSF    FA6.1
02BCE:  BTFSC  FA6.1
02BD0:  BRA    2BCE
02BD2:  BCF    FA6.2
02BD4:  MOVF   00,W
02BD6:  IORWF  FF2,F
....................       delay_ms(20); 
02BD8:  MOVLW  14
02BDA:  MOVLB  7
02BDC:  MOVWF  xE3
02BDE:  MOVLB  0
02BE0:  CALL   1800
02BE4:  MOVLB  5
....................    } 
....................    Password[2]=read_eeprom(262); 
02BE6:  MOVFF  FF2,7DD
02BEA:  BCF    FF2.7
02BEC:  MOVLW  01
02BEE:  MOVWF  FAA
02BF0:  MOVLW  06
02BF2:  MOVWF  FA9
02BF4:  BCF    FA6.6
02BF6:  BCF    FA6.7
02BF8:  BSF    FA6.0
02BFA:  MOVF   FA8,W
02BFC:  MOVLB  7
02BFE:  BTFSC  xDD.7
02C00:  BSF    FF2.7
02C02:  MOVLB  5
02C04:  MOVWF  xF1
....................    delay_ms(50);    
02C06:  MOVLW  32
02C08:  MOVLB  7
02C0A:  MOVWF  xE3
02C0C:  MOVLB  0
02C0E:  CALL   1800
....................    if(Password[2]>9 || Password[2]<0){ 
02C12:  MOVLB  5
02C14:  BTFSC  xF1.7
02C16:  BRA    2C1E
02C18:  MOVF   xF1,W
02C1A:  SUBLW  09
02C1C:  BNC   2C24
02C1E:  BTFSC  xF1.7
02C20:  BRA    2C24
02C22:  BRA    2C60
....................       Password[2]=0; 
02C24:  CLRF   xF1
....................       write_eeprom(262,0); 
02C26:  MOVLW  01
02C28:  MOVWF  FAA
02C2A:  MOVLW  06
02C2C:  MOVWF  FA9
02C2E:  CLRF   FA8
02C30:  BCF    FA6.6
02C32:  BCF    FA6.7
02C34:  BSF    FA6.2
02C36:  MOVF   FF2,W
02C38:  MOVWF  00
02C3A:  BCF    FF2.7
02C3C:  MOVLB  F
02C3E:  MOVLW  55
02C40:  MOVWF  FA7
02C42:  MOVLW  AA
02C44:  MOVWF  FA7
02C46:  BSF    FA6.1
02C48:  BTFSC  FA6.1
02C4A:  BRA    2C48
02C4C:  BCF    FA6.2
02C4E:  MOVF   00,W
02C50:  IORWF  FF2,F
....................       delay_ms(20); 
02C52:  MOVLW  14
02C54:  MOVLB  7
02C56:  MOVWF  xE3
02C58:  MOVLB  0
02C5A:  CALL   1800
02C5E:  MOVLB  5
....................    } 
....................    Password[3]=read_eeprom(263); 
02C60:  MOVFF  FF2,7DD
02C64:  BCF    FF2.7
02C66:  MOVLW  01
02C68:  MOVWF  FAA
02C6A:  MOVLW  07
02C6C:  MOVWF  FA9
02C6E:  BCF    FA6.6
02C70:  BCF    FA6.7
02C72:  BSF    FA6.0
02C74:  MOVF   FA8,W
02C76:  MOVLB  7
02C78:  BTFSC  xDD.7
02C7A:  BSF    FF2.7
02C7C:  MOVLB  5
02C7E:  MOVWF  xF2
....................    delay_ms(50); 
02C80:  MOVLW  32
02C82:  MOVLB  7
02C84:  MOVWF  xE3
02C86:  MOVLB  0
02C88:  CALL   1800
....................    if(Password[3]>9 || Password[3]<0){ 
02C8C:  MOVLB  5
02C8E:  BTFSC  xF2.7
02C90:  BRA    2C98
02C92:  MOVF   xF2,W
02C94:  SUBLW  09
02C96:  BNC   2C9E
02C98:  BTFSC  xF2.7
02C9A:  BRA    2C9E
02C9C:  BRA    2CDA
....................       Password[3]=0; 
02C9E:  CLRF   xF2
....................       write_eeprom(263,0); 
02CA0:  MOVLW  01
02CA2:  MOVWF  FAA
02CA4:  MOVLW  07
02CA6:  MOVWF  FA9
02CA8:  CLRF   FA8
02CAA:  BCF    FA6.6
02CAC:  BCF    FA6.7
02CAE:  BSF    FA6.2
02CB0:  MOVF   FF2,W
02CB2:  MOVWF  00
02CB4:  BCF    FF2.7
02CB6:  MOVLB  F
02CB8:  MOVLW  55
02CBA:  MOVWF  FA7
02CBC:  MOVLW  AA
02CBE:  MOVWF  FA7
02CC0:  BSF    FA6.1
02CC2:  BTFSC  FA6.1
02CC4:  BRA    2CC2
02CC6:  BCF    FA6.2
02CC8:  MOVF   00,W
02CCA:  IORWF  FF2,F
....................       delay_ms(20); 
02CCC:  MOVLW  14
02CCE:  MOVLB  7
02CD0:  MOVWF  xE3
02CD2:  MOVLB  0
02CD4:  CALL   1800
02CD8:  MOVLB  5
....................    } 
....................     
....................    Integral=read_eeprom(270); 
02CDA:  MOVFF  FF2,7DD
02CDE:  BCF    FF2.7
02CE0:  MOVLW  01
02CE2:  MOVWF  FAA
02CE4:  MOVLW  0E
02CE6:  MOVWF  FA9
02CE8:  BCF    FA6.6
02CEA:  BCF    FA6.7
02CEC:  BSF    FA6.0
02CEE:  MOVF   FA8,W
02CF0:  MOVLB  7
02CF2:  BTFSC  xDD.7
02CF4:  BSF    FF2.7
02CF6:  CLRF   xE4
02CF8:  MOVWF  xE3
02CFA:  MOVLB  0
02CFC:  CALL   21C8
02D00:  MOVFF  03,63E
02D04:  MOVFF  02,63D
02D08:  MOVFF  01,63C
02D0C:  MOVFF  00,63B
....................    delay_ms(50);  
02D10:  MOVLW  32
02D12:  MOVLB  7
02D14:  MOVWF  xE3
02D16:  MOVLB  0
02D18:  CALL   1800
....................    if(Integral>5){ 
02D1C:  MOVLB  7
02D1E:  CLRF   xE0
02D20:  CLRF   xDF
02D22:  MOVLW  20
02D24:  MOVWF  xDE
02D26:  MOVLW  81
02D28:  MOVWF  xDD
02D2A:  MOVFF  63E,7E4
02D2E:  MOVFF  63D,7E3
02D32:  MOVFF  63C,7E2
02D36:  MOVFF  63B,7E1
02D3A:  MOVLB  0
02D3C:  CALL   21FE
02D40:  BNC   2D88
....................       Integral=1; 
02D42:  MOVLB  6
02D44:  CLRF   x3E
02D46:  CLRF   x3D
02D48:  CLRF   x3C
02D4A:  MOVLW  7F
02D4C:  MOVWF  x3B
....................       write_eeprom(270,1); 
02D4E:  MOVLW  01
02D50:  MOVWF  FAA
02D52:  MOVLW  0E
02D54:  MOVWF  FA9
02D56:  MOVLW  01
02D58:  MOVWF  FA8
02D5A:  BCF    FA6.6
02D5C:  BCF    FA6.7
02D5E:  BSF    FA6.2
02D60:  MOVF   FF2,W
02D62:  MOVWF  00
02D64:  BCF    FF2.7
02D66:  MOVLB  F
02D68:  MOVLW  55
02D6A:  MOVWF  FA7
02D6C:  MOVLW  AA
02D6E:  MOVWF  FA7
02D70:  BSF    FA6.1
02D72:  BTFSC  FA6.1
02D74:  BRA    2D72
02D76:  BCF    FA6.2
02D78:  MOVF   00,W
02D7A:  IORWF  FF2,F
....................       delay_ms(20); 
02D7C:  MOVLW  14
02D7E:  MOVLB  7
02D80:  MOVWF  xE3
02D82:  MOVLB  0
02D84:  CALL   1800
....................    } 
....................    Derivativo=read_eeprom(271); 
02D88:  MOVFF  FF2,7DD
02D8C:  BCF    FF2.7
02D8E:  MOVLW  01
02D90:  MOVWF  FAA
02D92:  MOVLW  0F
02D94:  MOVWF  FA9
02D96:  BCF    FA6.6
02D98:  BCF    FA6.7
02D9A:  BSF    FA6.0
02D9C:  MOVF   FA8,W
02D9E:  MOVLB  7
02DA0:  BTFSC  xDD.7
02DA2:  BSF    FF2.7
02DA4:  CLRF   xE4
02DA6:  MOVWF  xE3
02DA8:  MOVLB  0
02DAA:  CALL   21C8
02DAE:  MOVFF  03,642
02DB2:  MOVFF  02,641
02DB6:  MOVFF  01,640
02DBA:  MOVFF  00,63F
....................    delay_ms(50);  
02DBE:  MOVLW  32
02DC0:  MOVLB  7
02DC2:  MOVWF  xE3
02DC4:  MOVLB  0
02DC6:  CALL   1800
....................    if(Derivativo>20){ 
02DCA:  MOVLB  7
02DCC:  CLRF   xE0
02DCE:  CLRF   xDF
02DD0:  MOVLW  20
02DD2:  MOVWF  xDE
02DD4:  MOVLW  83
02DD6:  MOVWF  xDD
02DD8:  MOVFF  642,7E4
02DDC:  MOVFF  641,7E3
02DE0:  MOVFF  640,7E2
02DE4:  MOVFF  63F,7E1
02DE8:  MOVLB  0
02DEA:  CALL   21FE
02DEE:  BNC   2E38
....................       Derivativo=20; 
02DF0:  MOVLB  6
02DF2:  CLRF   x42
02DF4:  CLRF   x41
02DF6:  MOVLW  20
02DF8:  MOVWF  x40
02DFA:  MOVLW  83
02DFC:  MOVWF  x3F
....................       write_eeprom(271,20); 
02DFE:  MOVLW  01
02E00:  MOVWF  FAA
02E02:  MOVLW  0F
02E04:  MOVWF  FA9
02E06:  MOVLW  14
02E08:  MOVWF  FA8
02E0A:  BCF    FA6.6
02E0C:  BCF    FA6.7
02E0E:  BSF    FA6.2
02E10:  MOVF   FF2,W
02E12:  MOVWF  00
02E14:  BCF    FF2.7
02E16:  MOVLB  F
02E18:  MOVLW  55
02E1A:  MOVWF  FA7
02E1C:  MOVLW  AA
02E1E:  MOVWF  FA7
02E20:  BSF    FA6.1
02E22:  BTFSC  FA6.1
02E24:  BRA    2E22
02E26:  BCF    FA6.2
02E28:  MOVF   00,W
02E2A:  IORWF  FF2,F
....................       delay_ms(20); 
02E2C:  MOVLW  14
02E2E:  MOVLB  7
02E30:  MOVWF  xE3
02E32:  MOVLB  0
02E34:  CALL   1800
....................    } 
....................    ActivaImpresion=read_eeprom(280); 
02E38:  MOVFF  FF2,7DD
02E3C:  BCF    FF2.7
02E3E:  MOVLW  01
02E40:  MOVWF  FAA
02E42:  MOVLW  18
02E44:  MOVWF  FA9
02E46:  BCF    FA6.6
02E48:  BCF    FA6.7
02E4A:  BSF    FA6.0
02E4C:  MOVF   FA8,W
02E4E:  MOVLB  7
02E50:  BTFSC  xDD.7
02E52:  BSF    FF2.7
02E54:  MOVWF  01
02E56:  MOVLB  5
02E58:  BCF    x87.3
02E5A:  BTFSC  01.0
02E5C:  BSF    x87.3
....................    delay_ms(50);  
02E5E:  MOVLW  32
02E60:  MOVLB  7
02E62:  MOVWF  xE3
02E64:  MOVLB  0
02E66:  CALL   1800
....................    if(ActivaImpresion>1){ 
02E6A:  MOVLW  00
02E6C:  MOVLB  5
02E6E:  BTFSC  x87.3
02E70:  MOVLW  01
02E72:  SUBLW  01
02E74:  BC    2EB4
....................       ActivaImpresion=1; 
02E76:  BSF    x87.3
....................       write_eeprom(280,1); 
02E78:  MOVLW  01
02E7A:  MOVWF  FAA
02E7C:  MOVLW  18
02E7E:  MOVWF  FA9
02E80:  MOVLW  01
02E82:  MOVWF  FA8
02E84:  BCF    FA6.6
02E86:  BCF    FA6.7
02E88:  BSF    FA6.2
02E8A:  MOVF   FF2,W
02E8C:  MOVWF  00
02E8E:  BCF    FF2.7
02E90:  MOVLB  F
02E92:  MOVLW  55
02E94:  MOVWF  FA7
02E96:  MOVLW  AA
02E98:  MOVWF  FA7
02E9A:  BSF    FA6.1
02E9C:  BTFSC  FA6.1
02E9E:  BRA    2E9C
02EA0:  BCF    FA6.2
02EA2:  MOVF   00,W
02EA4:  IORWF  FF2,F
....................       delay_ms(20); 
02EA6:  MOVLW  14
02EA8:  MOVLB  7
02EAA:  MOVWF  xE3
02EAC:  MOVLB  0
02EAE:  CALL   1800
02EB2:  MOVLB  5
....................    } 
....................    timpresion=read_eeprom(281); 
02EB4:  MOVFF  FF2,7DD
02EB8:  BCF    FF2.7
02EBA:  MOVLW  01
02EBC:  MOVWF  FAA
02EBE:  MOVLW  19
02EC0:  MOVWF  FA9
02EC2:  BCF    FA6.6
02EC4:  BCF    FA6.7
02EC6:  BSF    FA6.0
02EC8:  MOVF   FA8,W
02ECA:  MOVLB  7
02ECC:  BTFSC  xDD.7
02ECE:  BSF    FF2.7
02ED0:  MOVLB  5
02ED2:  CLRF   xBA
02ED4:  MOVWF  xB9
....................    delay_ms(50);  
02ED6:  MOVLW  32
02ED8:  MOVLB  7
02EDA:  MOVWF  xE3
02EDC:  MOVLB  0
02EDE:  CALL   1800
....................    if(timpresion>30){ 
02EE2:  MOVLB  5
02EE4:  MOVF   xBA,F
02EE6:  BNZ   2EEE
02EE8:  MOVF   xB9,W
02EEA:  SUBLW  1E
02EEC:  BC    2F30
....................       timpresion=3; 
02EEE:  CLRF   xBA
02EF0:  MOVLW  03
02EF2:  MOVWF  xB9
....................       write_eeprom(281,3); 
02EF4:  MOVLW  01
02EF6:  MOVWF  FAA
02EF8:  MOVLW  19
02EFA:  MOVWF  FA9
02EFC:  MOVLW  03
02EFE:  MOVWF  FA8
02F00:  BCF    FA6.6
02F02:  BCF    FA6.7
02F04:  BSF    FA6.2
02F06:  MOVF   FF2,W
02F08:  MOVWF  00
02F0A:  BCF    FF2.7
02F0C:  MOVLB  F
02F0E:  MOVLW  55
02F10:  MOVWF  FA7
02F12:  MOVLW  AA
02F14:  MOVWF  FA7
02F16:  BSF    FA6.1
02F18:  BTFSC  FA6.1
02F1A:  BRA    2F18
02F1C:  BCF    FA6.2
02F1E:  MOVF   00,W
02F20:  IORWF  FF2,F
....................       delay_ms(20); 
02F22:  MOVLW  14
02F24:  MOVLB  7
02F26:  MOVWF  xE3
02F28:  MOVLB  0
02F2A:  CALL   1800
02F2E:  MOVLB  5
....................    } 
.................... } 
02F30:  MOVLB  0
02F32:  GOTO   83FC (RETURN)
....................  
.................... short esBisiesto(int8 year) { 
....................      return ((year % 4 == 0 && year % 100 != 0) || year % 400 == 0); 
*
03CC8:  MOVLB  7
03CCA:  MOVF   xDD,W
03CCC:  ANDLW  03
03CCE:  BNZ   3CE4
03CD0:  MOVFF  7DD,7F2
03CD4:  MOVLW  64
03CD6:  MOVWF  xF3
03CD8:  MOVLB  0
03CDA:  CALL   1FE6
03CDE:  MOVF   00,F
03CE0:  BNZ   3D12
03CE2:  MOVLB  7
03CE4:  CLRF   xDF
03CE6:  MOVFF  7DD,7DE
03CEA:  MOVLW  01
03CEC:  MOVWF  xE1
03CEE:  MOVLW  90
03CF0:  MOVWF  xE0
03CF2:  MOVLB  0
03CF4:  BRA    3C80
03CF6:  MOVFF  00,7DE
03CFA:  MOVLB  7
03CFC:  MOVFF  03,7DF
03D00:  MOVF   xDE,F
03D02:  BNZ   3D0E
03D04:  MOVF   xDF,F
03D06:  BTFSS  FD8.2
03D08:  BRA    3D0E
03D0A:  MOVLB  0
03D0C:  BRA    3D12
03D0E:  MOVLW  00
03D10:  BRA    3D16
03D12:  MOVLW  01
03D14:  MOVLB  7
03D16:  MOVWF  01
.................... } 
03D18:  MOVLB  0
03D1A:  RETLW  00
....................  
.................... void LimitaDia(){ 
....................    if(MesTx>12) 
03D1C:  MOVLB  7
03D1E:  MOVF   x9D,W
03D20:  SUBLW  0C
03D22:  BC    3D28
....................       MesTx=10; 
03D24:  MOVLW  0A
03D26:  MOVWF  x9D
....................    if(DiaTx>31) 
03D28:  MOVF   x9E,W
03D2A:  SUBLW  1F
03D2C:  BC    3D32
....................       DiaTx=16; 
03D2E:  MOVLW  10
03D30:  MOVWF  x9E
....................    if(YearTx>99) 
03D32:  MOVF   x9C,W
03D34:  SUBLW  63
03D36:  BC    3D3C
....................       YearTx=18;    
03D38:  MOVLW  12
03D3A:  MOVWF  x9C
....................    if(HoraTx>24) 
03D3C:  MOVF   x9F,W
03D3E:  SUBLW  18
03D40:  BC    3D46
....................       HoraTx=11;       
03D42:  MOVLW  0B
03D44:  MOVWF  x9F
....................    if(MinutoTx>59) 
03D46:  MOVF   xA0,W
03D48:  SUBLW  3B
03D4A:  BC    3D50
....................       MinutoTx=30;       
03D4C:  MOVLW  1E
03D4E:  MOVWF  xA0
....................     
....................       if(MesTx==2){ 
03D50:  MOVF   x9D,W
03D52:  SUBLW  02
03D54:  BNZ   3D94
....................          if(esBisiesto(YearTx)){ 
03D56:  MOVFF  79C,7DD
03D5A:  MOVLB  0
03D5C:  RCALL  3CC8
03D5E:  MOVF   01,F
03D60:  BZ    3D7C
....................             if(DiaTx>29){ 
03D62:  MOVLB  7
03D64:  MOVF   x9E,W
03D66:  SUBLW  1D
03D68:  BC    3D78
....................                DiaTx=29; 
03D6A:  MOVLW  1D
03D6C:  MOVWF  x9E
....................                glcd_fillScreen(OFF); 
03D6E:  CLRF   xDE
03D70:  MOVLB  0
03D72:  CALL   1880
03D76:  MOVLB  7
....................             } 
....................          }else{ 
03D78:  BRA    3D92
03D7A:  MOVLB  0
....................             if(DiaTx>28){ 
03D7C:  MOVLB  7
03D7E:  MOVF   x9E,W
03D80:  SUBLW  1C
03D82:  BC    3D92
....................                DiaTx=28; 
03D84:  MOVLW  1C
03D86:  MOVWF  x9E
....................                glcd_fillScreen(OFF); 
03D88:  CLRF   xDE
03D8A:  MOVLB  0
03D8C:  CALL   1880
03D90:  MOVLB  7
....................             } 
....................          } 
....................       }else{ 
03D92:  BRA    3DD2
....................          if(MesTx<=7){ 
03D94:  MOVF   x9D,W
03D96:  SUBLW  07
03D98:  BNC   3DB6
....................             if(MesTx % 2 ==0){ 
03D9A:  MOVF   x9D,W
03D9C:  ANDLW  01
03D9E:  BNZ   3DB4
....................                if(DiaTx>30){ 
03DA0:  MOVF   x9E,W
03DA2:  SUBLW  1E
03DA4:  BC    3DB4
....................                   DiaTx=30;  
03DA6:  MOVLW  1E
03DA8:  MOVWF  x9E
....................                   glcd_fillScreen(OFF); 
03DAA:  CLRF   xDE
03DAC:  MOVLB  0
03DAE:  CALL   1880
03DB2:  MOVLB  7
....................                } 
....................             } 
....................          }else{ 
03DB4:  BRA    3DD2
....................             if(MesTx % 2 ==1){ 
03DB6:  MOVF   x9D,W
03DB8:  ANDLW  01
03DBA:  SUBLW  01
03DBC:  BNZ   3DD2
....................                if(DiaTx>30){ 
03DBE:  MOVF   x9E,W
03DC0:  SUBLW  1E
03DC2:  BC    3DD2
....................                   DiaTx=30;  
03DC4:  MOVLW  1E
03DC6:  MOVWF  x9E
....................                   glcd_fillScreen(OFF); 
03DC8:  CLRF   xDE
03DCA:  MOVLB  0
03DCC:  CALL   1880
03DD0:  MOVLB  7
....................                } 
....................             } 
....................          } 
....................       } 
.................... } 
03DD2:  MOVLB  0
03DD4:  GOTO   AF30 (RETURN)
....................  
.................... void displayFecha(int8 dia, int8 mes, int8 ano,int x, int y, int8 sombreado, int tamano){   
....................    char voltage[4]; 
....................    if(sombreado==1){ 
03DD8:  MOVLB  7
03DDA:  DECFSZ xE2,W
03DDC:  BRA    3F64
....................       sprintf(voltage, "%02u", dia);  
03DDE:  MOVLW  07
03DE0:  MOVWF  xDC
03DE2:  MOVLW  E4
03DE4:  MOVWF  xDB
03DE6:  MOVFF  7DD,7EE
03DEA:  MOVLW  01
03DEC:  MOVWF  xEF
03DEE:  MOVLB  0
03DF0:  RCALL  38CA
....................       glcd_rect(x-1, y-1, x+(tamano*12), y+(tamano*7), YES, ON); 
03DF2:  MOVLW  01
03DF4:  MOVLB  7
03DF6:  SUBWF  xE0,W
03DF8:  MOVWF  xE8
03DFA:  MOVLW  01
03DFC:  SUBWF  xE1,W
03DFE:  MOVWF  xE9
03E00:  MOVF   xE3,W
03E02:  MULLW  0C
03E04:  MOVF   FF3,W
03E06:  ADDWF  xE0,W
03E08:  MOVWF  xEA
03E0A:  MOVF   xE3,W
03E0C:  MULLW  07
03E0E:  MOVF   FF3,W
03E10:  ADDWF  xE1,W
03E12:  MOVWF  xEB
03E14:  MOVFF  7E8,7F5
03E18:  MOVFF  7E9,7F6
03E1C:  MOVFF  7EA,7F7
03E20:  MOVWF  xF8
03E22:  MOVLW  01
03E24:  MOVWF  xF9
03E26:  MOVWF  xFA
03E28:  MOVLB  0
03E2A:  CALL   1DFE
....................       glcd_text57(x, y, voltage, tamano, OFF); 
03E2E:  MOVFF  7E0,7F5
03E32:  MOVFF  7E1,7F6
03E36:  MOVLW  07
03E38:  MOVLB  7
03E3A:  MOVWF  xF8
03E3C:  MOVLW  E4
03E3E:  MOVWF  xF7
03E40:  MOVFF  7E3,7F9
03E44:  CLRF   xFA
03E46:  MOVLB  0
03E48:  CALL   1AF6
....................       strcpy(Menus.Letra,"/"); 
03E4C:  MOVLW  07
03E4E:  MOVWF  FEA
03E50:  MOVLW  BD
03E52:  MOVWF  FE9
03E54:  MOVFF  FF2,7E8
03E58:  BCF    FF2.7
03E5A:  MOVLW  00
03E5C:  CALL   07DA
03E60:  TBLRD*-
03E62:  TBLRD*+
03E64:  MOVF   FF5,W
03E66:  MOVWF  FEE
03E68:  IORLW  00
03E6A:  BNZ   3E62
03E6C:  MOVLB  7
03E6E:  BTFSC  xE8.7
03E70:  BSF    FF2.7
....................       glcd_text57(x+(tamano*12), y, Menus.Letra, tamano, ON); 
03E72:  MOVF   xE3,W
03E74:  MULLW  0C
03E76:  MOVF   FF3,W
03E78:  ADDWF  xE0,W
03E7A:  MOVWF  xE8
03E7C:  MOVWF  xF5
03E7E:  MOVFF  7E1,7F6
03E82:  MOVLW  07
03E84:  MOVWF  xF8
03E86:  MOVLW  BD
03E88:  MOVWF  xF7
03E8A:  MOVFF  7E3,7F9
03E8E:  MOVLW  01
03E90:  MOVWF  xFA
03E92:  MOVLB  0
03E94:  CALL   1AF6
....................        
....................       sprintf(voltage, "%02u", mes);  
03E98:  MOVLW  07
03E9A:  MOVLB  7
03E9C:  MOVWF  xDC
03E9E:  MOVLW  E4
03EA0:  MOVWF  xDB
03EA2:  MOVFF  7DE,7EE
03EA6:  MOVLW  01
03EA8:  MOVWF  xEF
03EAA:  MOVLB  0
03EAC:  RCALL  38CA
....................       glcd_text57(x+(tamano*18), y, voltage, tamano, ON); 
03EAE:  MOVLB  7
03EB0:  MOVF   xE3,W
03EB2:  MULLW  12
03EB4:  MOVF   FF3,W
03EB6:  ADDWF  xE0,W
03EB8:  MOVWF  xE8
03EBA:  MOVWF  xF5
03EBC:  MOVFF  7E1,7F6
03EC0:  MOVLW  07
03EC2:  MOVWF  xF8
03EC4:  MOVLW  E4
03EC6:  MOVWF  xF7
03EC8:  MOVFF  7E3,7F9
03ECC:  MOVLW  01
03ECE:  MOVWF  xFA
03ED0:  MOVLB  0
03ED2:  CALL   1AF6
....................       strcpy(Menus.Letra,"/"); 
03ED6:  MOVLW  07
03ED8:  MOVWF  FEA
03EDA:  MOVLW  BD
03EDC:  MOVWF  FE9
03EDE:  MOVFF  FF2,7E8
03EE2:  BCF    FF2.7
03EE4:  MOVLW  00
03EE6:  CALL   07DA
03EEA:  TBLRD*-
03EEC:  TBLRD*+
03EEE:  MOVF   FF5,W
03EF0:  MOVWF  FEE
03EF2:  IORLW  00
03EF4:  BNZ   3EEC
03EF6:  MOVLB  7
03EF8:  BTFSC  xE8.7
03EFA:  BSF    FF2.7
....................       glcd_text57(x+(tamano*30), y, Menus.Letra, tamano, ON); 
03EFC:  MOVF   xE3,W
03EFE:  MULLW  1E
03F00:  MOVF   FF3,W
03F02:  ADDWF  xE0,W
03F04:  MOVWF  xE8
03F06:  MOVWF  xF5
03F08:  MOVFF  7E1,7F6
03F0C:  MOVLW  07
03F0E:  MOVWF  xF8
03F10:  MOVLW  BD
03F12:  MOVWF  xF7
03F14:  MOVFF  7E3,7F9
03F18:  MOVLW  01
03F1A:  MOVWF  xFA
03F1C:  MOVLB  0
03F1E:  CALL   1AF6
....................        
....................       sprintf(voltage, "%02u", ano);  
03F22:  MOVLW  07
03F24:  MOVLB  7
03F26:  MOVWF  xDC
03F28:  MOVLW  E4
03F2A:  MOVWF  xDB
03F2C:  MOVFF  7DF,7EE
03F30:  MOVLW  01
03F32:  MOVWF  xEF
03F34:  MOVLB  0
03F36:  RCALL  38CA
....................       glcd_text57(x+(tamano*36), y, voltage, tamano, ON); 
03F38:  MOVLB  7
03F3A:  MOVF   xE3,W
03F3C:  MULLW  24
03F3E:  MOVF   FF3,W
03F40:  ADDWF  xE0,W
03F42:  MOVWF  xE8
03F44:  MOVWF  xF5
03F46:  MOVFF  7E1,7F6
03F4A:  MOVLW  07
03F4C:  MOVWF  xF8
03F4E:  MOVLW  E4
03F50:  MOVWF  xF7
03F52:  MOVFF  7E3,7F9
03F56:  MOVLW  01
03F58:  MOVWF  xFA
03F5A:  MOVLB  0
03F5C:  CALL   1AF6
....................    }else if(sombreado==2){ 
03F60:  BRA    4414
03F62:  MOVLB  7
03F64:  MOVF   xE2,W
03F66:  SUBLW  02
03F68:  BTFSS  FD8.2
03F6A:  BRA    40FC
....................       sprintf(voltage, "%02u", dia);  
03F6C:  MOVLW  07
03F6E:  MOVWF  xDC
03F70:  MOVLW  E4
03F72:  MOVWF  xDB
03F74:  MOVFF  7DD,7EE
03F78:  MOVLW  01
03F7A:  MOVWF  xEF
03F7C:  MOVLB  0
03F7E:  RCALL  38CA
....................       glcd_text57(x, y, voltage, tamano, ON); 
03F80:  MOVFF  7E0,7F5
03F84:  MOVFF  7E1,7F6
03F88:  MOVLW  07
03F8A:  MOVLB  7
03F8C:  MOVWF  xF8
03F8E:  MOVLW  E4
03F90:  MOVWF  xF7
03F92:  MOVFF  7E3,7F9
03F96:  MOVLW  01
03F98:  MOVWF  xFA
03F9A:  MOVLB  0
03F9C:  CALL   1AF6
....................       strcpy(Menus.Letra,"/"); 
03FA0:  MOVLW  07
03FA2:  MOVWF  FEA
03FA4:  MOVLW  BD
03FA6:  MOVWF  FE9
03FA8:  MOVFF  FF2,7E8
03FAC:  BCF    FF2.7
03FAE:  MOVLW  00
03FB0:  CALL   07DA
03FB4:  TBLRD*-
03FB6:  TBLRD*+
03FB8:  MOVF   FF5,W
03FBA:  MOVWF  FEE
03FBC:  IORLW  00
03FBE:  BNZ   3FB6
03FC0:  MOVLB  7
03FC2:  BTFSC  xE8.7
03FC4:  BSF    FF2.7
....................       glcd_text57(x+(tamano*12), y, Menus.Letra, tamano, ON); 
03FC6:  MOVF   xE3,W
03FC8:  MULLW  0C
03FCA:  MOVF   FF3,W
03FCC:  ADDWF  xE0,W
03FCE:  MOVWF  xE8
03FD0:  MOVWF  xF5
03FD2:  MOVFF  7E1,7F6
03FD6:  MOVLW  07
03FD8:  MOVWF  xF8
03FDA:  MOVLW  BD
03FDC:  MOVWF  xF7
03FDE:  MOVFF  7E3,7F9
03FE2:  MOVLW  01
03FE4:  MOVWF  xFA
03FE6:  MOVLB  0
03FE8:  CALL   1AF6
....................        
....................       glcd_rect(x-1+(tamano*18), y-1, x+(tamano*30), y+(tamano*7), YES, ON); 
03FEC:  MOVLW  01
03FEE:  MOVLB  7
03FF0:  SUBWF  xE0,W
03FF2:  MOVWF  xE8
03FF4:  MOVF   xE3,W
03FF6:  MULLW  12
03FF8:  MOVF   FF3,W
03FFA:  ADDWF  xE8,F
03FFC:  MOVLW  01
03FFE:  SUBWF  xE1,W
04000:  MOVWF  xE9
04002:  MOVF   xE3,W
04004:  MULLW  1E
04006:  MOVF   FF3,W
04008:  ADDWF  xE0,W
0400A:  MOVWF  xEA
0400C:  MOVF   xE3,W
0400E:  MULLW  07
04010:  MOVF   FF3,W
04012:  ADDWF  xE1,W
04014:  MOVWF  xEB
04016:  MOVFF  7E8,7F5
0401A:  MOVFF  7E9,7F6
0401E:  MOVFF  7EA,7F7
04022:  MOVWF  xF8
04024:  MOVLW  01
04026:  MOVWF  xF9
04028:  MOVWF  xFA
0402A:  MOVLB  0
0402C:  CALL   1DFE
....................       sprintf(voltage, "%02u", mes);  
04030:  MOVLW  07
04032:  MOVLB  7
04034:  MOVWF  xDC
04036:  MOVLW  E4
04038:  MOVWF  xDB
0403A:  MOVFF  7DE,7EE
0403E:  MOVLW  01
04040:  MOVWF  xEF
04042:  MOVLB  0
04044:  RCALL  38CA
....................       glcd_text57(x+(tamano*18), y, voltage, tamano, OFF); 
04046:  MOVLB  7
04048:  MOVF   xE3,W
0404A:  MULLW  12
0404C:  MOVF   FF3,W
0404E:  ADDWF  xE0,W
04050:  MOVWF  xE8
04052:  MOVWF  xF5
04054:  MOVFF  7E1,7F6
04058:  MOVLW  07
0405A:  MOVWF  xF8
0405C:  MOVLW  E4
0405E:  MOVWF  xF7
04060:  MOVFF  7E3,7F9
04064:  CLRF   xFA
04066:  MOVLB  0
04068:  CALL   1AF6
....................       strcpy(Menus.Letra,"/"); 
0406C:  MOVLW  07
0406E:  MOVWF  FEA
04070:  MOVLW  BD
04072:  MOVWF  FE9
04074:  MOVFF  FF2,7E8
04078:  BCF    FF2.7
0407A:  MOVLW  00
0407C:  CALL   07DA
04080:  TBLRD*-
04082:  TBLRD*+
04084:  MOVF   FF5,W
04086:  MOVWF  FEE
04088:  IORLW  00
0408A:  BNZ   4082
0408C:  MOVLB  7
0408E:  BTFSC  xE8.7
04090:  BSF    FF2.7
....................       glcd_text57(x+(tamano*30), y, Menus.Letra, tamano, ON); 
04092:  MOVF   xE3,W
04094:  MULLW  1E
04096:  MOVF   FF3,W
04098:  ADDWF  xE0,W
0409A:  MOVWF  xE8
0409C:  MOVWF  xF5
0409E:  MOVFF  7E1,7F6
040A2:  MOVLW  07
040A4:  MOVWF  xF8
040A6:  MOVLW  BD
040A8:  MOVWF  xF7
040AA:  MOVFF  7E3,7F9
040AE:  MOVLW  01
040B0:  MOVWF  xFA
040B2:  MOVLB  0
040B4:  CALL   1AF6
....................        
....................       sprintf(voltage, "%02u", ano);  
040B8:  MOVLW  07
040BA:  MOVLB  7
040BC:  MOVWF  xDC
040BE:  MOVLW  E4
040C0:  MOVWF  xDB
040C2:  MOVFF  7DF,7EE
040C6:  MOVLW  01
040C8:  MOVWF  xEF
040CA:  MOVLB  0
040CC:  CALL   38CA
....................       glcd_text57(x+(tamano*36), y, voltage, tamano, ON); 
040D0:  MOVLB  7
040D2:  MOVF   xE3,W
040D4:  MULLW  24
040D6:  MOVF   FF3,W
040D8:  ADDWF  xE0,W
040DA:  MOVWF  xE8
040DC:  MOVWF  xF5
040DE:  MOVFF  7E1,7F6
040E2:  MOVLW  07
040E4:  MOVWF  xF8
040E6:  MOVLW  E4
040E8:  MOVWF  xF7
040EA:  MOVFF  7E3,7F9
040EE:  MOVLW  01
040F0:  MOVWF  xFA
040F2:  MOVLB  0
040F4:  CALL   1AF6
....................    }else if(sombreado==3){ 
040F8:  BRA    4414
040FA:  MOVLB  7
040FC:  MOVF   xE2,W
040FE:  SUBLW  03
04100:  BTFSS  FD8.2
04102:  BRA    4298
....................       sprintf(voltage, "%02u", dia);  
04104:  MOVLW  07
04106:  MOVWF  xDC
04108:  MOVLW  E4
0410A:  MOVWF  xDB
0410C:  MOVFF  7DD,7EE
04110:  MOVLW  01
04112:  MOVWF  xEF
04114:  MOVLB  0
04116:  CALL   38CA
....................       glcd_text57(x, y, voltage, tamano, ON); 
0411A:  MOVFF  7E0,7F5
0411E:  MOVFF  7E1,7F6
04122:  MOVLW  07
04124:  MOVLB  7
04126:  MOVWF  xF8
04128:  MOVLW  E4
0412A:  MOVWF  xF7
0412C:  MOVFF  7E3,7F9
04130:  MOVLW  01
04132:  MOVWF  xFA
04134:  MOVLB  0
04136:  CALL   1AF6
....................       strcpy(Menus.Letra,"/"); 
0413A:  MOVLW  07
0413C:  MOVWF  FEA
0413E:  MOVLW  BD
04140:  MOVWF  FE9
04142:  MOVFF  FF2,7E8
04146:  BCF    FF2.7
04148:  MOVLW  00
0414A:  CALL   07DA
0414E:  TBLRD*-
04150:  TBLRD*+
04152:  MOVF   FF5,W
04154:  MOVWF  FEE
04156:  IORLW  00
04158:  BNZ   4150
0415A:  MOVLB  7
0415C:  BTFSC  xE8.7
0415E:  BSF    FF2.7
....................       glcd_text57(x+(tamano*12), y, Menus.Letra, tamano, ON); 
04160:  MOVF   xE3,W
04162:  MULLW  0C
04164:  MOVF   FF3,W
04166:  ADDWF  xE0,W
04168:  MOVWF  xE8
0416A:  MOVWF  xF5
0416C:  MOVFF  7E1,7F6
04170:  MOVLW  07
04172:  MOVWF  xF8
04174:  MOVLW  BD
04176:  MOVWF  xF7
04178:  MOVFF  7E3,7F9
0417C:  MOVLW  01
0417E:  MOVWF  xFA
04180:  MOVLB  0
04182:  CALL   1AF6
....................              
....................       sprintf(voltage, "%02u", mes);  
04186:  MOVLW  07
04188:  MOVLB  7
0418A:  MOVWF  xDC
0418C:  MOVLW  E4
0418E:  MOVWF  xDB
04190:  MOVFF  7DE,7EE
04194:  MOVLW  01
04196:  MOVWF  xEF
04198:  MOVLB  0
0419A:  CALL   38CA
....................       glcd_text57(x+(tamano*18), y, voltage, tamano, ON); 
0419E:  MOVLB  7
041A0:  MOVF   xE3,W
041A2:  MULLW  12
041A4:  MOVF   FF3,W
041A6:  ADDWF  xE0,W
041A8:  MOVWF  xE8
041AA:  MOVWF  xF5
041AC:  MOVFF  7E1,7F6
041B0:  MOVLW  07
041B2:  MOVWF  xF8
041B4:  MOVLW  E4
041B6:  MOVWF  xF7
041B8:  MOVFF  7E3,7F9
041BC:  MOVLW  01
041BE:  MOVWF  xFA
041C0:  MOVLB  0
041C2:  CALL   1AF6
....................       strcpy(Menus.Letra,"/"); 
041C6:  MOVLW  07
041C8:  MOVWF  FEA
041CA:  MOVLW  BD
041CC:  MOVWF  FE9
041CE:  MOVFF  FF2,7E8
041D2:  BCF    FF2.7
041D4:  MOVLW  00
041D6:  CALL   07DA
041DA:  TBLRD*-
041DC:  TBLRD*+
041DE:  MOVF   FF5,W
041E0:  MOVWF  FEE
041E2:  IORLW  00
041E4:  BNZ   41DC
041E6:  MOVLB  7
041E8:  BTFSC  xE8.7
041EA:  BSF    FF2.7
....................       glcd_text57(x+(tamano*30), y, Menus.Letra, tamano, ON); 
041EC:  MOVF   xE3,W
041EE:  MULLW  1E
041F0:  MOVF   FF3,W
041F2:  ADDWF  xE0,W
041F4:  MOVWF  xE8
041F6:  MOVWF  xF5
041F8:  MOVFF  7E1,7F6
041FC:  MOVLW  07
041FE:  MOVWF  xF8
04200:  MOVLW  BD
04202:  MOVWF  xF7
04204:  MOVFF  7E3,7F9
04208:  MOVLW  01
0420A:  MOVWF  xFA
0420C:  MOVLB  0
0420E:  CALL   1AF6
....................       
....................       glcd_rect(x-1+(tamano*36), y-1, x+(tamano*48), y+(tamano*7), YES, ON); 
04212:  MOVLW  01
04214:  MOVLB  7
04216:  SUBWF  xE0,W
04218:  MOVWF  xE8
0421A:  MOVF   xE3,W
0421C:  MULLW  24
0421E:  MOVF   FF3,W
04220:  ADDWF  xE8,F
04222:  MOVLW  01
04224:  SUBWF  xE1,W
04226:  MOVWF  xE9
04228:  MOVF   xE3,W
0422A:  MULLW  30
0422C:  MOVF   FF3,W
0422E:  ADDWF  xE0,W
04230:  MOVWF  xEA
04232:  MOVF   xE3,W
04234:  MULLW  07
04236:  MOVF   FF3,W
04238:  ADDWF  xE1,W
0423A:  MOVWF  xEB
0423C:  MOVFF  7E8,7F5
04240:  MOVFF  7E9,7F6
04244:  MOVFF  7EA,7F7
04248:  MOVWF  xF8
0424A:  MOVLW  01
0424C:  MOVWF  xF9
0424E:  MOVWF  xFA
04250:  MOVLB  0
04252:  CALL   1DFE
....................       sprintf(voltage, "%02u", ano);  
04256:  MOVLW  07
04258:  MOVLB  7
0425A:  MOVWF  xDC
0425C:  MOVLW  E4
0425E:  MOVWF  xDB
04260:  MOVFF  7DF,7EE
04264:  MOVLW  01
04266:  MOVWF  xEF
04268:  MOVLB  0
0426A:  CALL   38CA
....................       glcd_text57(x+(tamano*36), y, voltage, tamano, OFF); 
0426E:  MOVLB  7
04270:  MOVF   xE3,W
04272:  MULLW  24
04274:  MOVF   FF3,W
04276:  ADDWF  xE0,W
04278:  MOVWF  xE8
0427A:  MOVWF  xF5
0427C:  MOVFF  7E1,7F6
04280:  MOVLW  07
04282:  MOVWF  xF8
04284:  MOVLW  E4
04286:  MOVWF  xF7
04288:  MOVFF  7E3,7F9
0428C:  CLRF   xFA
0428E:  MOVLB  0
04290:  CALL   1AF6
....................    }else{ 
04294:  BRA    4414
04296:  MOVLB  7
....................       glcd_rect(x, y-1, 127, y+(tamano*7), YES, OFF); 
04298:  MOVLW  01
0429A:  SUBWF  xE1,W
0429C:  MOVWF  xE8
0429E:  MOVF   xE3,W
042A0:  MULLW  07
042A2:  MOVF   FF3,W
042A4:  ADDWF  xE1,W
042A6:  MOVWF  xE9
042A8:  MOVFF  7E0,7F5
042AC:  MOVFF  7E8,7F6
042B0:  MOVLW  7F
042B2:  MOVWF  xF7
042B4:  MOVFF  7E9,7F8
042B8:  MOVLW  01
042BA:  MOVWF  xF9
042BC:  CLRF   xFA
042BE:  MOVLB  0
042C0:  CALL   1DFE
....................       sprintf(voltage, "%02u", dia);  
042C4:  MOVLW  07
042C6:  MOVLB  7
042C8:  MOVWF  xDC
042CA:  MOVLW  E4
042CC:  MOVWF  xDB
042CE:  MOVFF  7DD,7EE
042D2:  MOVLW  01
042D4:  MOVWF  xEF
042D6:  MOVLB  0
042D8:  CALL   38CA
....................       glcd_text57(x, y, voltage, tamano, ON); 
042DC:  MOVFF  7E0,7F5
042E0:  MOVFF  7E1,7F6
042E4:  MOVLW  07
042E6:  MOVLB  7
042E8:  MOVWF  xF8
042EA:  MOVLW  E4
042EC:  MOVWF  xF7
042EE:  MOVFF  7E3,7F9
042F2:  MOVLW  01
042F4:  MOVWF  xFA
042F6:  MOVLB  0
042F8:  CALL   1AF6
....................       strcpy(Menus.Letra,"/"); 
042FC:  MOVLW  07
042FE:  MOVWF  FEA
04300:  MOVLW  BD
04302:  MOVWF  FE9
04304:  MOVFF  FF2,7E8
04308:  BCF    FF2.7
0430A:  MOVLW  00
0430C:  CALL   07DA
04310:  TBLRD*-
04312:  TBLRD*+
04314:  MOVF   FF5,W
04316:  MOVWF  FEE
04318:  IORLW  00
0431A:  BNZ   4312
0431C:  MOVLB  7
0431E:  BTFSC  xE8.7
04320:  BSF    FF2.7
....................       glcd_text57(x+(tamano*12), y, Menus.Letra, tamano, ON); 
04322:  MOVF   xE3,W
04324:  MULLW  0C
04326:  MOVF   FF3,W
04328:  ADDWF  xE0,W
0432A:  MOVWF  xE8
0432C:  MOVWF  xF5
0432E:  MOVFF  7E1,7F6
04332:  MOVLW  07
04334:  MOVWF  xF8
04336:  MOVLW  BD
04338:  MOVWF  xF7
0433A:  MOVFF  7E3,7F9
0433E:  MOVLW  01
04340:  MOVWF  xFA
04342:  MOVLB  0
04344:  CALL   1AF6
....................              
....................       sprintf(voltage, "%02u", mes);  
04348:  MOVLW  07
0434A:  MOVLB  7
0434C:  MOVWF  xDC
0434E:  MOVLW  E4
04350:  MOVWF  xDB
04352:  MOVFF  7DE,7EE
04356:  MOVLW  01
04358:  MOVWF  xEF
0435A:  MOVLB  0
0435C:  CALL   38CA
....................       glcd_text57(x+(tamano*18), y, voltage, tamano, ON); 
04360:  MOVLB  7
04362:  MOVF   xE3,W
04364:  MULLW  12
04366:  MOVF   FF3,W
04368:  ADDWF  xE0,W
0436A:  MOVWF  xE8
0436C:  MOVWF  xF5
0436E:  MOVFF  7E1,7F6
04372:  MOVLW  07
04374:  MOVWF  xF8
04376:  MOVLW  E4
04378:  MOVWF  xF7
0437A:  MOVFF  7E3,7F9
0437E:  MOVLW  01
04380:  MOVWF  xFA
04382:  MOVLB  0
04384:  CALL   1AF6
....................       strcpy(Menus.Letra,"/"); 
04388:  MOVLW  07
0438A:  MOVWF  FEA
0438C:  MOVLW  BD
0438E:  MOVWF  FE9
04390:  MOVFF  FF2,7E8
04394:  BCF    FF2.7
04396:  MOVLW  00
04398:  CALL   07DA
0439C:  TBLRD*-
0439E:  TBLRD*+
043A0:  MOVF   FF5,W
043A2:  MOVWF  FEE
043A4:  IORLW  00
043A6:  BNZ   439E
043A8:  MOVLB  7
043AA:  BTFSC  xE8.7
043AC:  BSF    FF2.7
....................       glcd_text57(x+(tamano*30), y, Menus.Letra, tamano, ON); 
043AE:  MOVF   xE3,W
043B0:  MULLW  1E
043B2:  MOVF   FF3,W
043B4:  ADDWF  xE0,W
043B6:  MOVWF  xE8
043B8:  MOVWF  xF5
043BA:  MOVFF  7E1,7F6
043BE:  MOVLW  07
043C0:  MOVWF  xF8
043C2:  MOVLW  BD
043C4:  MOVWF  xF7
043C6:  MOVFF  7E3,7F9
043CA:  MOVLW  01
043CC:  MOVWF  xFA
043CE:  MOVLB  0
043D0:  CALL   1AF6
....................            
....................       sprintf(voltage, "%02u", ano);  
043D4:  MOVLW  07
043D6:  MOVLB  7
043D8:  MOVWF  xDC
043DA:  MOVLW  E4
043DC:  MOVWF  xDB
043DE:  MOVFF  7DF,7EE
043E2:  MOVLW  01
043E4:  MOVWF  xEF
043E6:  MOVLB  0
043E8:  CALL   38CA
....................       glcd_text57(x+(tamano*36), y, voltage, tamano, ON); 
043EC:  MOVLB  7
043EE:  MOVF   xE3,W
043F0:  MULLW  24
043F2:  MOVF   FF3,W
043F4:  ADDWF  xE0,W
043F6:  MOVWF  xE8
043F8:  MOVWF  xF5
043FA:  MOVFF  7E1,7F6
043FE:  MOVLW  07
04400:  MOVWF  xF8
04402:  MOVLW  E4
04404:  MOVWF  xF7
04406:  MOVFF  7E3,7F9
0440A:  MOVLW  01
0440C:  MOVWF  xFA
0440E:  MOVLB  0
04410:  CALL   1AF6
....................    } 
....................    glcd_update(); 
04414:  CALL   18DA
.................... } 
04418:  GOTO   AF68 (RETURN)
....................  
.................... void displayHora(int8 hora, int8 minuto, int x, int y, int8 sombreado, int tamano){   
....................    char voltage[4]; 
....................    if(sombreado==4){ 
0441C:  MOVLB  7
0441E:  MOVF   xE1,W
04420:  SUBLW  04
04422:  BTFSS  FD8.2
04424:  BRA    4526
....................       sprintf(voltage, "%02u", hora);  
04426:  MOVLW  07
04428:  MOVWF  xDC
0442A:  MOVLW  E3
0442C:  MOVWF  xDB
0442E:  MOVFF  7DD,7EE
04432:  MOVLW  01
04434:  MOVWF  xEF
04436:  MOVLB  0
04438:  CALL   38CA
....................       glcd_rect(x-1, y-1, x+(tamano*12), y+(tamano*7), YES, ON); 
0443C:  MOVLW  01
0443E:  MOVLB  7
04440:  SUBWF  xDF,W
04442:  MOVWF  xE7
04444:  MOVLW  01
04446:  SUBWF  xE0,W
04448:  MOVWF  xE8
0444A:  MOVF   xE2,W
0444C:  MULLW  0C
0444E:  MOVF   FF3,W
04450:  ADDWF  xDF,W
04452:  MOVWF  xE9
04454:  MOVF   xE2,W
04456:  MULLW  07
04458:  MOVF   FF3,W
0445A:  ADDWF  xE0,W
0445C:  MOVWF  xEA
0445E:  MOVFF  7E7,7F5
04462:  MOVFF  7E8,7F6
04466:  MOVFF  7E9,7F7
0446A:  MOVWF  xF8
0446C:  MOVLW  01
0446E:  MOVWF  xF9
04470:  MOVWF  xFA
04472:  MOVLB  0
04474:  CALL   1DFE
....................       glcd_text57(x, y, voltage, tamano, OFF); 
04478:  MOVFF  7DF,7F5
0447C:  MOVFF  7E0,7F6
04480:  MOVLW  07
04482:  MOVLB  7
04484:  MOVWF  xF8
04486:  MOVLW  E3
04488:  MOVWF  xF7
0448A:  MOVFF  7E2,7F9
0448E:  CLRF   xFA
04490:  MOVLB  0
04492:  CALL   1AF6
....................       strcpy(Menus.Letra,":"); 
04496:  MOVLW  07
04498:  MOVWF  FEA
0449A:  MOVLW  BD
0449C:  MOVWF  FE9
0449E:  MOVFF  FF2,7E7
044A2:  BCF    FF2.7
044A4:  MOVLW  00
044A6:  CALL   07FA
044AA:  TBLRD*-
044AC:  TBLRD*+
044AE:  MOVF   FF5,W
044B0:  MOVWF  FEE
044B2:  IORLW  00
044B4:  BNZ   44AC
044B6:  MOVLB  7
044B8:  BTFSC  xE7.7
044BA:  BSF    FF2.7
....................       glcd_text57(x+(tamano*12), y, Menus.Letra, tamano, ON); 
044BC:  MOVF   xE2,W
044BE:  MULLW  0C
044C0:  MOVF   FF3,W
044C2:  ADDWF  xDF,W
044C4:  MOVWF  xE7
044C6:  MOVWF  xF5
044C8:  MOVFF  7E0,7F6
044CC:  MOVLW  07
044CE:  MOVWF  xF8
044D0:  MOVLW  BD
044D2:  MOVWF  xF7
044D4:  MOVFF  7E2,7F9
044D8:  MOVLW  01
044DA:  MOVWF  xFA
044DC:  MOVLB  0
044DE:  CALL   1AF6
....................        
....................       sprintf(voltage, "%02u", minuto);  
044E2:  MOVLW  07
044E4:  MOVLB  7
044E6:  MOVWF  xDC
044E8:  MOVLW  E3
044EA:  MOVWF  xDB
044EC:  MOVFF  7DE,7EE
044F0:  MOVLW  01
044F2:  MOVWF  xEF
044F4:  MOVLB  0
044F6:  CALL   38CA
....................       glcd_text57(x+(tamano*18), y, voltage, tamano, ON); 
044FA:  MOVLB  7
044FC:  MOVF   xE2,W
044FE:  MULLW  12
04500:  MOVF   FF3,W
04502:  ADDWF  xDF,W
04504:  MOVWF  xE7
04506:  MOVWF  xF5
04508:  MOVFF  7E0,7F6
0450C:  MOVLW  07
0450E:  MOVWF  xF8
04510:  MOVLW  E3
04512:  MOVWF  xF7
04514:  MOVFF  7E2,7F9
04518:  MOVLW  01
0451A:  MOVWF  xFA
0451C:  MOVLB  0
0451E:  CALL   1AF6
....................    }else if(sombreado==5){ 
04522:  BRA    4726
04524:  MOVLB  7
04526:  MOVF   xE1,W
04528:  SUBLW  05
0452A:  BTFSS  FD8.2
0452C:  BRA    4636
....................       sprintf(voltage, "%02u", hora);  
0452E:  MOVLW  07
04530:  MOVWF  xDC
04532:  MOVLW  E3
04534:  MOVWF  xDB
04536:  MOVFF  7DD,7EE
0453A:  MOVLW  01
0453C:  MOVWF  xEF
0453E:  MOVLB  0
04540:  CALL   38CA
....................       glcd_text57(x, y, voltage, tamano, ON); 
04544:  MOVFF  7DF,7F5
04548:  MOVFF  7E0,7F6
0454C:  MOVLW  07
0454E:  MOVLB  7
04550:  MOVWF  xF8
04552:  MOVLW  E3
04554:  MOVWF  xF7
04556:  MOVFF  7E2,7F9
0455A:  MOVLW  01
0455C:  MOVWF  xFA
0455E:  MOVLB  0
04560:  CALL   1AF6
....................       strcpy(Menus.Letra,":"); 
04564:  MOVLW  07
04566:  MOVWF  FEA
04568:  MOVLW  BD
0456A:  MOVWF  FE9
0456C:  MOVFF  FF2,7E7
04570:  BCF    FF2.7
04572:  MOVLW  00
04574:  CALL   07FA
04578:  TBLRD*-
0457A:  TBLRD*+
0457C:  MOVF   FF5,W
0457E:  MOVWF  FEE
04580:  IORLW  00
04582:  BNZ   457A
04584:  MOVLB  7
04586:  BTFSC  xE7.7
04588:  BSF    FF2.7
....................       glcd_text57(x+(tamano*12), y, Menus.Letra, tamano, ON); 
0458A:  MOVF   xE2,W
0458C:  MULLW  0C
0458E:  MOVF   FF3,W
04590:  ADDWF  xDF,W
04592:  MOVWF  xE7
04594:  MOVWF  xF5
04596:  MOVFF  7E0,7F6
0459A:  MOVLW  07
0459C:  MOVWF  xF8
0459E:  MOVLW  BD
045A0:  MOVWF  xF7
045A2:  MOVFF  7E2,7F9
045A6:  MOVLW  01
045A8:  MOVWF  xFA
045AA:  MOVLB  0
045AC:  CALL   1AF6
....................        
....................       glcd_rect(x-1+(tamano*18), y-1, x+(tamano*30), y+(tamano*7), YES, ON); 
045B0:  MOVLW  01
045B2:  MOVLB  7
045B4:  SUBWF  xDF,W
045B6:  MOVWF  xE7
045B8:  MOVF   xE2,W
045BA:  MULLW  12
045BC:  MOVF   FF3,W
045BE:  ADDWF  xE7,F
045C0:  MOVLW  01
045C2:  SUBWF  xE0,W
045C4:  MOVWF  xE8
045C6:  MOVF   xE2,W
045C8:  MULLW  1E
045CA:  MOVF   FF3,W
045CC:  ADDWF  xDF,W
045CE:  MOVWF  xE9
045D0:  MOVF   xE2,W
045D2:  MULLW  07
045D4:  MOVF   FF3,W
045D6:  ADDWF  xE0,W
045D8:  MOVWF  xEA
045DA:  MOVFF  7E7,7F5
045DE:  MOVFF  7E8,7F6
045E2:  MOVFF  7E9,7F7
045E6:  MOVWF  xF8
045E8:  MOVLW  01
045EA:  MOVWF  xF9
045EC:  MOVWF  xFA
045EE:  MOVLB  0
045F0:  CALL   1DFE
....................       sprintf(voltage, "%02u", minuto);  
045F4:  MOVLW  07
045F6:  MOVLB  7
045F8:  MOVWF  xDC
045FA:  MOVLW  E3
045FC:  MOVWF  xDB
045FE:  MOVFF  7DE,7EE
04602:  MOVLW  01
04604:  MOVWF  xEF
04606:  MOVLB  0
04608:  CALL   38CA
....................       glcd_text57(x+(tamano*18), y, voltage, tamano, OFF); 
0460C:  MOVLB  7
0460E:  MOVF   xE2,W
04610:  MULLW  12
04612:  MOVF   FF3,W
04614:  ADDWF  xDF,W
04616:  MOVWF  xE7
04618:  MOVWF  xF5
0461A:  MOVFF  7E0,7F6
0461E:  MOVLW  07
04620:  MOVWF  xF8
04622:  MOVLW  E3
04624:  MOVWF  xF7
04626:  MOVFF  7E2,7F9
0462A:  CLRF   xFA
0462C:  MOVLB  0
0462E:  CALL   1AF6
....................    }else{ 
04632:  BRA    4726
04634:  MOVLB  7
....................       glcd_rect(x, y-1, 127, y+(tamano*7), YES, OFF); 
04636:  MOVLW  01
04638:  SUBWF  xE0,W
0463A:  MOVWF  xE7
0463C:  MOVF   xE2,W
0463E:  MULLW  07
04640:  MOVF   FF3,W
04642:  ADDWF  xE0,W
04644:  MOVWF  xE8
04646:  MOVFF  7DF,7F5
0464A:  MOVFF  7E7,7F6
0464E:  MOVLW  7F
04650:  MOVWF  xF7
04652:  MOVFF  7E8,7F8
04656:  MOVLW  01
04658:  MOVWF  xF9
0465A:  CLRF   xFA
0465C:  MOVLB  0
0465E:  CALL   1DFE
....................       sprintf(voltage, "%02u", hora);  
04662:  MOVLW  07
04664:  MOVLB  7
04666:  MOVWF  xDC
04668:  MOVLW  E3
0466A:  MOVWF  xDB
0466C:  MOVFF  7DD,7EE
04670:  MOVLW  01
04672:  MOVWF  xEF
04674:  MOVLB  0
04676:  CALL   38CA
....................       glcd_text57(x, y, voltage, tamano, ON); 
0467A:  MOVFF  7DF,7F5
0467E:  MOVFF  7E0,7F6
04682:  MOVLW  07
04684:  MOVLB  7
04686:  MOVWF  xF8
04688:  MOVLW  E3
0468A:  MOVWF  xF7
0468C:  MOVFF  7E2,7F9
04690:  MOVLW  01
04692:  MOVWF  xFA
04694:  MOVLB  0
04696:  CALL   1AF6
....................       strcpy(Menus.Letra,":"); 
0469A:  MOVLW  07
0469C:  MOVWF  FEA
0469E:  MOVLW  BD
046A0:  MOVWF  FE9
046A2:  MOVFF  FF2,7E7
046A6:  BCF    FF2.7
046A8:  MOVLW  00
046AA:  CALL   07FA
046AE:  TBLRD*-
046B0:  TBLRD*+
046B2:  MOVF   FF5,W
046B4:  MOVWF  FEE
046B6:  IORLW  00
046B8:  BNZ   46B0
046BA:  MOVLB  7
046BC:  BTFSC  xE7.7
046BE:  BSF    FF2.7
....................       glcd_text57(x+(tamano*12), y, Menus.Letra, tamano, ON); 
046C0:  MOVF   xE2,W
046C2:  MULLW  0C
046C4:  MOVF   FF3,W
046C6:  ADDWF  xDF,W
046C8:  MOVWF  xE7
046CA:  MOVWF  xF5
046CC:  MOVFF  7E0,7F6
046D0:  MOVLW  07
046D2:  MOVWF  xF8
046D4:  MOVLW  BD
046D6:  MOVWF  xF7
046D8:  MOVFF  7E2,7F9
046DC:  MOVLW  01
046DE:  MOVWF  xFA
046E0:  MOVLB  0
046E2:  CALL   1AF6
....................              
....................       sprintf(voltage, "%02u", minuto);  
046E6:  MOVLW  07
046E8:  MOVLB  7
046EA:  MOVWF  xDC
046EC:  MOVLW  E3
046EE:  MOVWF  xDB
046F0:  MOVFF  7DE,7EE
046F4:  MOVLW  01
046F6:  MOVWF  xEF
046F8:  MOVLB  0
046FA:  CALL   38CA
....................       glcd_text57(x+(tamano*18), y, voltage, tamano, ON); 
046FE:  MOVLB  7
04700:  MOVF   xE2,W
04702:  MULLW  12
04704:  MOVF   FF3,W
04706:  ADDWF  xDF,W
04708:  MOVWF  xE7
0470A:  MOVWF  xF5
0470C:  MOVFF  7E0,7F6
04710:  MOVLW  07
04712:  MOVWF  xF8
04714:  MOVLW  E3
04716:  MOVWF  xF7
04718:  MOVFF  7E2,7F9
0471C:  MOVLW  01
0471E:  MOVWF  xFA
04720:  MOVLB  0
04722:  CALL   1AF6
....................    } 
....................    glcd_update(); 
04726:  CALL   18DA
.................... } 
0472A:  GOTO   AF88 (RETURN)
....................  
.................... void displayFecha2(int8 dia, int8 mes, int8 ano,int x, int y, int8 sombreado, int tamano){   
....................    char voltage[4]; 
....................    
....................       sprintf(voltage, "%02u", dia);  
*
077D0:  MOVLW  07
077D2:  MOVLB  7
077D4:  MOVWF  xDC
077D6:  MOVLW  E4
077D8:  MOVWF  xDB
077DA:  MOVFF  7DD,7EE
077DE:  MOVLW  01
077E0:  MOVWF  xEF
077E2:  MOVLB  0
077E4:  CALL   38CA
....................       glcd_rect(x-1, y-1, x+(tamano*30), y+(tamano*7), YES, OFF); 
077E8:  MOVLW  01
077EA:  MOVLB  7
077EC:  SUBWF  xE0,W
077EE:  MOVWF  xE8
077F0:  MOVLW  01
077F2:  SUBWF  xE1,W
077F4:  MOVWF  xE9
077F6:  MOVF   xE3,W
077F8:  MULLW  1E
077FA:  MOVF   FF3,W
077FC:  ADDWF  xE0,W
077FE:  MOVWF  xEA
07800:  MOVF   xE3,W
07802:  MULLW  07
07804:  MOVF   FF3,W
07806:  ADDWF  xE1,W
07808:  MOVWF  xEB
0780A:  MOVFF  7E8,7F5
0780E:  MOVFF  7E9,7F6
07812:  MOVFF  7EA,7F7
07816:  MOVWF  xF8
07818:  MOVLW  01
0781A:  MOVWF  xF9
0781C:  CLRF   xFA
0781E:  MOVLB  0
07820:  CALL   1DFE
....................       glcd_text57(x, y, voltage, tamano, ON); 
07824:  MOVFF  7E0,7F5
07828:  MOVFF  7E1,7F6
0782C:  MOVLW  07
0782E:  MOVLB  7
07830:  MOVWF  xF8
07832:  MOVLW  E4
07834:  MOVWF  xF7
07836:  MOVFF  7E3,7F9
0783A:  MOVLW  01
0783C:  MOVWF  xFA
0783E:  MOVLB  0
07840:  CALL   1AF6
....................       strcpy(Menus.Letra,"-"); 
07844:  MOVLW  07
07846:  MOVWF  FEA
07848:  MOVLW  BD
0784A:  MOVWF  FE9
0784C:  MOVFF  FF2,7E8
07850:  BCF    FF2.7
07852:  MOVLW  00
07854:  CALL   081A
07858:  TBLRD*-
0785A:  TBLRD*+
0785C:  MOVF   FF5,W
0785E:  MOVWF  FEE
07860:  IORLW  00
07862:  BNZ   785A
07864:  MOVLB  7
07866:  BTFSC  xE8.7
07868:  BSF    FF2.7
....................       glcd_text57(x+(tamano*12), y, Menus.Letra, tamano, ON); 
0786A:  MOVF   xE3,W
0786C:  MULLW  0C
0786E:  MOVF   FF3,W
07870:  ADDWF  xE0,W
07872:  MOVWF  xE8
07874:  MOVWF  xF5
07876:  MOVFF  7E1,7F6
0787A:  MOVLW  07
0787C:  MOVWF  xF8
0787E:  MOVLW  BD
07880:  MOVWF  xF7
07882:  MOVFF  7E3,7F9
07886:  MOVLW  01
07888:  MOVWF  xFA
0788A:  MOVLB  0
0788C:  CALL   1AF6
....................        
....................       if(mes==1){ 
07890:  MOVLB  7
07892:  DECFSZ xDE,W
07894:  BRA    78EC
....................          sprintf(voltage, "Ene");  
07896:  MOVLW  07
07898:  MOVWF  xDC
0789A:  MOVLW  E4
0789C:  MOVWF  xDB
0789E:  MOVLW  45
078A0:  MOVWF  xFC
078A2:  MOVLB  0
078A4:  CALL   2012
078A8:  MOVLW  6E
078AA:  MOVLB  7
078AC:  MOVWF  xFC
078AE:  MOVLB  0
078B0:  CALL   2012
078B4:  MOVLW  65
078B6:  MOVLB  7
078B8:  MOVWF  xFC
078BA:  MOVLB  0
078BC:  CALL   2012
....................          glcd_text57(x+(tamano*18), y, voltage, tamano, ON);  
078C0:  MOVLB  7
078C2:  MOVF   xE3,W
078C4:  MULLW  12
078C6:  MOVF   FF3,W
078C8:  ADDWF  xE0,W
078CA:  MOVWF  xE8
078CC:  MOVWF  xF5
078CE:  MOVFF  7E1,7F6
078D2:  MOVLW  07
078D4:  MOVWF  xF8
078D6:  MOVLW  E4
078D8:  MOVWF  xF7
078DA:  MOVFF  7E3,7F9
078DE:  MOVLW  01
078E0:  MOVWF  xFA
078E2:  MOVLB  0
078E4:  CALL   1AF6
....................       }else if(mes==2){ 
078E8:  BRA    7CDC
078EA:  MOVLB  7
078EC:  MOVF   xDE,W
078EE:  SUBLW  02
078F0:  BNZ   7948
....................          sprintf(voltage, "Feb");  
078F2:  MOVLW  07
078F4:  MOVWF  xDC
078F6:  MOVLW  E4
078F8:  MOVWF  xDB
078FA:  MOVLW  46
078FC:  MOVWF  xFC
078FE:  MOVLB  0
07900:  CALL   2012
07904:  MOVLW  65
07906:  MOVLB  7
07908:  MOVWF  xFC
0790A:  MOVLB  0
0790C:  CALL   2012
07910:  MOVLW  62
07912:  MOVLB  7
07914:  MOVWF  xFC
07916:  MOVLB  0
07918:  CALL   2012
....................          glcd_text57(x+(tamano*18), y, voltage, tamano, ON);  
0791C:  MOVLB  7
0791E:  MOVF   xE3,W
07920:  MULLW  12
07922:  MOVF   FF3,W
07924:  ADDWF  xE0,W
07926:  MOVWF  xE8
07928:  MOVWF  xF5
0792A:  MOVFF  7E1,7F6
0792E:  MOVLW  07
07930:  MOVWF  xF8
07932:  MOVLW  E4
07934:  MOVWF  xF7
07936:  MOVFF  7E3,7F9
0793A:  MOVLW  01
0793C:  MOVWF  xFA
0793E:  MOVLB  0
07940:  CALL   1AF6
....................       }else if(mes==3){ 
07944:  BRA    7CDC
07946:  MOVLB  7
07948:  MOVF   xDE,W
0794A:  SUBLW  03
0794C:  BNZ   79A4
....................          sprintf(voltage, "Mar");  
0794E:  MOVLW  07
07950:  MOVWF  xDC
07952:  MOVLW  E4
07954:  MOVWF  xDB
07956:  MOVLW  4D
07958:  MOVWF  xFC
0795A:  MOVLB  0
0795C:  CALL   2012
07960:  MOVLW  61
07962:  MOVLB  7
07964:  MOVWF  xFC
07966:  MOVLB  0
07968:  CALL   2012
0796C:  MOVLW  72
0796E:  MOVLB  7
07970:  MOVWF  xFC
07972:  MOVLB  0
07974:  CALL   2012
....................          glcd_text57(x+(tamano*18), y, voltage, tamano, ON);  
07978:  MOVLB  7
0797A:  MOVF   xE3,W
0797C:  MULLW  12
0797E:  MOVF   FF3,W
07980:  ADDWF  xE0,W
07982:  MOVWF  xE8
07984:  MOVWF  xF5
07986:  MOVFF  7E1,7F6
0798A:  MOVLW  07
0798C:  MOVWF  xF8
0798E:  MOVLW  E4
07990:  MOVWF  xF7
07992:  MOVFF  7E3,7F9
07996:  MOVLW  01
07998:  MOVWF  xFA
0799A:  MOVLB  0
0799C:  CALL   1AF6
....................       }else if(mes==4){ 
079A0:  BRA    7CDC
079A2:  MOVLB  7
079A4:  MOVF   xDE,W
079A6:  SUBLW  04
079A8:  BNZ   7A00
....................          sprintf(voltage, "Abr");  
079AA:  MOVLW  07
079AC:  MOVWF  xDC
079AE:  MOVLW  E4
079B0:  MOVWF  xDB
079B2:  MOVLW  41
079B4:  MOVWF  xFC
079B6:  MOVLB  0
079B8:  CALL   2012
079BC:  MOVLW  62
079BE:  MOVLB  7
079C0:  MOVWF  xFC
079C2:  MOVLB  0
079C4:  CALL   2012
079C8:  MOVLW  72
079CA:  MOVLB  7
079CC:  MOVWF  xFC
079CE:  MOVLB  0
079D0:  CALL   2012
....................          glcd_text57(x+(tamano*18), y, voltage, tamano, ON);  
079D4:  MOVLB  7
079D6:  MOVF   xE3,W
079D8:  MULLW  12
079DA:  MOVF   FF3,W
079DC:  ADDWF  xE0,W
079DE:  MOVWF  xE8
079E0:  MOVWF  xF5
079E2:  MOVFF  7E1,7F6
079E6:  MOVLW  07
079E8:  MOVWF  xF8
079EA:  MOVLW  E4
079EC:  MOVWF  xF7
079EE:  MOVFF  7E3,7F9
079F2:  MOVLW  01
079F4:  MOVWF  xFA
079F6:  MOVLB  0
079F8:  CALL   1AF6
....................       }else if(mes==5){ 
079FC:  BRA    7CDC
079FE:  MOVLB  7
07A00:  MOVF   xDE,W
07A02:  SUBLW  05
07A04:  BNZ   7A5C
....................          sprintf(voltage, "May");  
07A06:  MOVLW  07
07A08:  MOVWF  xDC
07A0A:  MOVLW  E4
07A0C:  MOVWF  xDB
07A0E:  MOVLW  4D
07A10:  MOVWF  xFC
07A12:  MOVLB  0
07A14:  CALL   2012
07A18:  MOVLW  61
07A1A:  MOVLB  7
07A1C:  MOVWF  xFC
07A1E:  MOVLB  0
07A20:  CALL   2012
07A24:  MOVLW  79
07A26:  MOVLB  7
07A28:  MOVWF  xFC
07A2A:  MOVLB  0
07A2C:  CALL   2012
....................          glcd_text57(x+(tamano*18), y, voltage, tamano, ON);  
07A30:  MOVLB  7
07A32:  MOVF   xE3,W
07A34:  MULLW  12
07A36:  MOVF   FF3,W
07A38:  ADDWF  xE0,W
07A3A:  MOVWF  xE8
07A3C:  MOVWF  xF5
07A3E:  MOVFF  7E1,7F6
07A42:  MOVLW  07
07A44:  MOVWF  xF8
07A46:  MOVLW  E4
07A48:  MOVWF  xF7
07A4A:  MOVFF  7E3,7F9
07A4E:  MOVLW  01
07A50:  MOVWF  xFA
07A52:  MOVLB  0
07A54:  CALL   1AF6
....................       }else if(mes==6){ 
07A58:  BRA    7CDC
07A5A:  MOVLB  7
07A5C:  MOVF   xDE,W
07A5E:  SUBLW  06
07A60:  BNZ   7AB8
....................          sprintf(voltage, "Jun");  
07A62:  MOVLW  07
07A64:  MOVWF  xDC
07A66:  MOVLW  E4
07A68:  MOVWF  xDB
07A6A:  MOVLW  4A
07A6C:  MOVWF  xFC
07A6E:  MOVLB  0
07A70:  CALL   2012
07A74:  MOVLW  75
07A76:  MOVLB  7
07A78:  MOVWF  xFC
07A7A:  MOVLB  0
07A7C:  CALL   2012
07A80:  MOVLW  6E
07A82:  MOVLB  7
07A84:  MOVWF  xFC
07A86:  MOVLB  0
07A88:  CALL   2012
....................          glcd_text57(x+(tamano*18), y, voltage, tamano, ON);  
07A8C:  MOVLB  7
07A8E:  MOVF   xE3,W
07A90:  MULLW  12
07A92:  MOVF   FF3,W
07A94:  ADDWF  xE0,W
07A96:  MOVWF  xE8
07A98:  MOVWF  xF5
07A9A:  MOVFF  7E1,7F6
07A9E:  MOVLW  07
07AA0:  MOVWF  xF8
07AA2:  MOVLW  E4
07AA4:  MOVWF  xF7
07AA6:  MOVFF  7E3,7F9
07AAA:  MOVLW  01
07AAC:  MOVWF  xFA
07AAE:  MOVLB  0
07AB0:  CALL   1AF6
....................       }else if(mes==7){ 
07AB4:  BRA    7CDC
07AB6:  MOVLB  7
07AB8:  MOVF   xDE,W
07ABA:  SUBLW  07
07ABC:  BNZ   7B14
....................          sprintf(voltage, "Jul");  
07ABE:  MOVLW  07
07AC0:  MOVWF  xDC
07AC2:  MOVLW  E4
07AC4:  MOVWF  xDB
07AC6:  MOVLW  4A
07AC8:  MOVWF  xFC
07ACA:  MOVLB  0
07ACC:  CALL   2012
07AD0:  MOVLW  75
07AD2:  MOVLB  7
07AD4:  MOVWF  xFC
07AD6:  MOVLB  0
07AD8:  CALL   2012
07ADC:  MOVLW  6C
07ADE:  MOVLB  7
07AE0:  MOVWF  xFC
07AE2:  MOVLB  0
07AE4:  CALL   2012
....................          glcd_text57(x+(tamano*18), y, voltage, tamano, ON);  
07AE8:  MOVLB  7
07AEA:  MOVF   xE3,W
07AEC:  MULLW  12
07AEE:  MOVF   FF3,W
07AF0:  ADDWF  xE0,W
07AF2:  MOVWF  xE8
07AF4:  MOVWF  xF5
07AF6:  MOVFF  7E1,7F6
07AFA:  MOVLW  07
07AFC:  MOVWF  xF8
07AFE:  MOVLW  E4
07B00:  MOVWF  xF7
07B02:  MOVFF  7E3,7F9
07B06:  MOVLW  01
07B08:  MOVWF  xFA
07B0A:  MOVLB  0
07B0C:  CALL   1AF6
....................       }else if(mes==8){ 
07B10:  BRA    7CDC
07B12:  MOVLB  7
07B14:  MOVF   xDE,W
07B16:  SUBLW  08
07B18:  BNZ   7B70
....................          sprintf(voltage, "Ago");  
07B1A:  MOVLW  07
07B1C:  MOVWF  xDC
07B1E:  MOVLW  E4
07B20:  MOVWF  xDB
07B22:  MOVLW  41
07B24:  MOVWF  xFC
07B26:  MOVLB  0
07B28:  CALL   2012
07B2C:  MOVLW  67
07B2E:  MOVLB  7
07B30:  MOVWF  xFC
07B32:  MOVLB  0
07B34:  CALL   2012
07B38:  MOVLW  6F
07B3A:  MOVLB  7
07B3C:  MOVWF  xFC
07B3E:  MOVLB  0
07B40:  CALL   2012
....................          glcd_text57(x+(tamano*18), y, voltage, tamano, ON);  
07B44:  MOVLB  7
07B46:  MOVF   xE3,W
07B48:  MULLW  12
07B4A:  MOVF   FF3,W
07B4C:  ADDWF  xE0,W
07B4E:  MOVWF  xE8
07B50:  MOVWF  xF5
07B52:  MOVFF  7E1,7F6
07B56:  MOVLW  07
07B58:  MOVWF  xF8
07B5A:  MOVLW  E4
07B5C:  MOVWF  xF7
07B5E:  MOVFF  7E3,7F9
07B62:  MOVLW  01
07B64:  MOVWF  xFA
07B66:  MOVLB  0
07B68:  CALL   1AF6
....................       }else if(mes==9){ 
07B6C:  BRA    7CDC
07B6E:  MOVLB  7
07B70:  MOVF   xDE,W
07B72:  SUBLW  09
07B74:  BNZ   7BCC
....................          sprintf(voltage, "Sep");  
07B76:  MOVLW  07
07B78:  MOVWF  xDC
07B7A:  MOVLW  E4
07B7C:  MOVWF  xDB
07B7E:  MOVLW  53
07B80:  MOVWF  xFC
07B82:  MOVLB  0
07B84:  CALL   2012
07B88:  MOVLW  65
07B8A:  MOVLB  7
07B8C:  MOVWF  xFC
07B8E:  MOVLB  0
07B90:  CALL   2012
07B94:  MOVLW  70
07B96:  MOVLB  7
07B98:  MOVWF  xFC
07B9A:  MOVLB  0
07B9C:  CALL   2012
....................          glcd_text57(x+(tamano*18), y, voltage, tamano, ON);  
07BA0:  MOVLB  7
07BA2:  MOVF   xE3,W
07BA4:  MULLW  12
07BA6:  MOVF   FF3,W
07BA8:  ADDWF  xE0,W
07BAA:  MOVWF  xE8
07BAC:  MOVWF  xF5
07BAE:  MOVFF  7E1,7F6
07BB2:  MOVLW  07
07BB4:  MOVWF  xF8
07BB6:  MOVLW  E4
07BB8:  MOVWF  xF7
07BBA:  MOVFF  7E3,7F9
07BBE:  MOVLW  01
07BC0:  MOVWF  xFA
07BC2:  MOVLB  0
07BC4:  CALL   1AF6
....................       }else if(mes==10){ 
07BC8:  BRA    7CDC
07BCA:  MOVLB  7
07BCC:  MOVF   xDE,W
07BCE:  SUBLW  0A
07BD0:  BNZ   7C28
....................          sprintf(voltage, "Oct");  
07BD2:  MOVLW  07
07BD4:  MOVWF  xDC
07BD6:  MOVLW  E4
07BD8:  MOVWF  xDB
07BDA:  MOVLW  4F
07BDC:  MOVWF  xFC
07BDE:  MOVLB  0
07BE0:  CALL   2012
07BE4:  MOVLW  63
07BE6:  MOVLB  7
07BE8:  MOVWF  xFC
07BEA:  MOVLB  0
07BEC:  CALL   2012
07BF0:  MOVLW  74
07BF2:  MOVLB  7
07BF4:  MOVWF  xFC
07BF6:  MOVLB  0
07BF8:  CALL   2012
....................          glcd_text57(x+(tamano*18), y, voltage, tamano, ON);  
07BFC:  MOVLB  7
07BFE:  MOVF   xE3,W
07C00:  MULLW  12
07C02:  MOVF   FF3,W
07C04:  ADDWF  xE0,W
07C06:  MOVWF  xE8
07C08:  MOVWF  xF5
07C0A:  MOVFF  7E1,7F6
07C0E:  MOVLW  07
07C10:  MOVWF  xF8
07C12:  MOVLW  E4
07C14:  MOVWF  xF7
07C16:  MOVFF  7E3,7F9
07C1A:  MOVLW  01
07C1C:  MOVWF  xFA
07C1E:  MOVLB  0
07C20:  CALL   1AF6
....................       }else if(mes==12){ 
07C24:  BRA    7CDC
07C26:  MOVLB  7
07C28:  MOVF   xDE,W
07C2A:  SUBLW  0C
07C2C:  BNZ   7C84
....................          sprintf(voltage, "Nov");  
07C2E:  MOVLW  07
07C30:  MOVWF  xDC
07C32:  MOVLW  E4
07C34:  MOVWF  xDB
07C36:  MOVLW  4E
07C38:  MOVWF  xFC
07C3A:  MOVLB  0
07C3C:  CALL   2012
07C40:  MOVLW  6F
07C42:  MOVLB  7
07C44:  MOVWF  xFC
07C46:  MOVLB  0
07C48:  CALL   2012
07C4C:  MOVLW  76
07C4E:  MOVLB  7
07C50:  MOVWF  xFC
07C52:  MOVLB  0
07C54:  CALL   2012
....................          glcd_text57(x+(tamano*18), y, voltage, tamano, ON);  
07C58:  MOVLB  7
07C5A:  MOVF   xE3,W
07C5C:  MULLW  12
07C5E:  MOVF   FF3,W
07C60:  ADDWF  xE0,W
07C62:  MOVWF  xE8
07C64:  MOVWF  xF5
07C66:  MOVFF  7E1,7F6
07C6A:  MOVLW  07
07C6C:  MOVWF  xF8
07C6E:  MOVLW  E4
07C70:  MOVWF  xF7
07C72:  MOVFF  7E3,7F9
07C76:  MOVLW  01
07C78:  MOVWF  xFA
07C7A:  MOVLB  0
07C7C:  CALL   1AF6
....................       }else if(mes==12){ 
07C80:  BRA    7CDC
07C82:  MOVLB  7
07C84:  MOVF   xDE,W
07C86:  SUBLW  0C
07C88:  BNZ   7CDC
....................          sprintf(voltage, "Dic");  
07C8A:  MOVLW  07
07C8C:  MOVWF  xDC
07C8E:  MOVLW  E4
07C90:  MOVWF  xDB
07C92:  MOVLW  44
07C94:  MOVWF  xFC
07C96:  MOVLB  0
07C98:  CALL   2012
07C9C:  MOVLW  69
07C9E:  MOVLB  7
07CA0:  MOVWF  xFC
07CA2:  MOVLB  0
07CA4:  CALL   2012
07CA8:  MOVLW  63
07CAA:  MOVLB  7
07CAC:  MOVWF  xFC
07CAE:  MOVLB  0
07CB0:  CALL   2012
....................          glcd_text57(x+(tamano*18), y, voltage, tamano, ON);  
07CB4:  MOVLB  7
07CB6:  MOVF   xE3,W
07CB8:  MULLW  12
07CBA:  MOVF   FF3,W
07CBC:  ADDWF  xE0,W
07CBE:  MOVWF  xE8
07CC0:  MOVWF  xF5
07CC2:  MOVFF  7E1,7F6
07CC6:  MOVLW  07
07CC8:  MOVWF  xF8
07CCA:  MOVLW  E4
07CCC:  MOVWF  xF7
07CCE:  MOVFF  7E3,7F9
07CD2:  MOVLW  01
07CD4:  MOVWF  xFA
07CD6:  MOVLB  0
07CD8:  CALL   1AF6
....................       } 
....................       //strcpy(Menus.Letra,"/"); 
....................       //glcd_text57(x+(tamano*30), y, Menus.Letra, tamano, ON); 
....................        
....................       //sprintf(voltage, "%02u", ano);  
....................       //glcd_text57(x+(tamano*36), y, voltage, tamano, ON); 
....................    glcd_update(); 
07CDC:  MOVLB  0
07CDE:  CALL   18DA
.................... } 
07CE2:  GOTO   D4C8 (RETURN)
....................  
.................... void displayHora2(int8 hora, int8 minuto, int x, int y, int8 sombreado, int tamano){   
....................    char voltage[4]; 
....................       sprintf(voltage, "%02u", hora);  
*
076C8:  MOVLW  07
076CA:  MOVLB  7
076CC:  MOVWF  xDC
076CE:  MOVLW  E3
076D0:  MOVWF  xDB
076D2:  MOVFF  7DD,7EE
076D6:  MOVLW  01
076D8:  MOVWF  xEF
076DA:  MOVLB  0
076DC:  CALL   38CA
....................       glcd_rect(x-1, y-1, x+(tamano*30), y+(tamano*7), YES, OFF); 
076E0:  MOVLW  01
076E2:  MOVLB  7
076E4:  SUBWF  xDF,W
076E6:  MOVWF  xE7
076E8:  MOVLW  01
076EA:  SUBWF  xE0,W
076EC:  MOVWF  xE8
076EE:  MOVF   xE2,W
076F0:  MULLW  1E
076F2:  MOVF   FF3,W
076F4:  ADDWF  xDF,W
076F6:  MOVWF  xE9
076F8:  MOVF   xE2,W
076FA:  MULLW  07
076FC:  MOVF   FF3,W
076FE:  ADDWF  xE0,W
07700:  MOVWF  xEA
07702:  MOVFF  7E7,7F5
07706:  MOVFF  7E8,7F6
0770A:  MOVFF  7E9,7F7
0770E:  MOVWF  xF8
07710:  MOVLW  01
07712:  MOVWF  xF9
07714:  CLRF   xFA
07716:  MOVLB  0
07718:  CALL   1DFE
....................       glcd_text57(x, y, voltage, tamano, ON); 
0771C:  MOVFF  7DF,7F5
07720:  MOVFF  7E0,7F6
07724:  MOVLW  07
07726:  MOVLB  7
07728:  MOVWF  xF8
0772A:  MOVLW  E3
0772C:  MOVWF  xF7
0772E:  MOVFF  7E2,7F9
07732:  MOVLW  01
07734:  MOVWF  xFA
07736:  MOVLB  0
07738:  CALL   1AF6
....................       strcpy(Menus.Letra,":"); 
0773C:  MOVLW  07
0773E:  MOVWF  FEA
07740:  MOVLW  BD
07742:  MOVWF  FE9
07744:  MOVFF  FF2,7E7
07748:  BCF    FF2.7
0774A:  MOVLW  00
0774C:  CALL   07FA
07750:  TBLRD*-
07752:  TBLRD*+
07754:  MOVF   FF5,W
07756:  MOVWF  FEE
07758:  IORLW  00
0775A:  BNZ   7752
0775C:  MOVLB  7
0775E:  BTFSC  xE7.7
07760:  BSF    FF2.7
....................       glcd_text57(x+(tamano*12), y, Menus.Letra, tamano, ON); 
07762:  MOVF   xE2,W
07764:  MULLW  0C
07766:  MOVF   FF3,W
07768:  ADDWF  xDF,W
0776A:  MOVWF  xE7
0776C:  MOVWF  xF5
0776E:  MOVFF  7E0,7F6
07772:  MOVLW  07
07774:  MOVWF  xF8
07776:  MOVLW  BD
07778:  MOVWF  xF7
0777A:  MOVFF  7E2,7F9
0777E:  MOVLW  01
07780:  MOVWF  xFA
07782:  MOVLB  0
07784:  CALL   1AF6
....................       sprintf(voltage, "%02u", minuto);  
07788:  MOVLW  07
0778A:  MOVLB  7
0778C:  MOVWF  xDC
0778E:  MOVLW  E3
07790:  MOVWF  xDB
07792:  MOVFF  7DE,7EE
07796:  MOVLW  01
07798:  MOVWF  xEF
0779A:  MOVLB  0
0779C:  CALL   38CA
....................       glcd_text57(x+(tamano*18), y, voltage, tamano, ON); 
077A0:  MOVLB  7
077A2:  MOVF   xE2,W
077A4:  MULLW  12
077A6:  MOVF   FF3,W
077A8:  ADDWF  xDF,W
077AA:  MOVWF  xE7
077AC:  MOVWF  xF5
077AE:  MOVFF  7E0,7F6
077B2:  MOVLW  07
077B4:  MOVWF  xF8
077B6:  MOVLW  E3
077B8:  MOVWF  xF7
077BA:  MOVFF  7E2,7F9
077BE:  MOVLW  01
077C0:  MOVWF  xFA
077C2:  MOVLB  0
077C4:  CALL   1AF6
....................    
....................    glcd_update(); 
077C8:  CALL   18DA
.................... } 
077CC:  GOTO   D4A6 (RETURN)
....................  
....................  
.................... #int_TIMER1 
.................... void temp1s(void){ 
....................    //set_timer1(45612);  // 5 ms 5536 , Posiblemente cargar con 22144 debido a F=12MHz 
....................    set_timer1(40536); 
*
01600:  MOVLW  9E
01602:  MOVWF  FCF
01604:  MOVLW  58
01606:  MOVWF  FCE
....................    tiempos++; 
01608:  MOVLB  5
0160A:  INCF   xA5,F
0160C:  BTFSC  FD8.2
0160E:  INCF   xA6,F
....................    tiempos3++; 
01610:  INCF   xA7,F
01612:  BTFSC  FD8.2
01614:  INCF   xA8,F
....................    tiempoctrl++; 
01616:  INCF   xA9,F
01618:  BTFSC  FD8.2
0161A:  INCF   xAA,F
....................     
....................    if(Control==1){ 
0161C:  DECFSZ x99,W
0161E:  BRA    164C
....................       if(tiempoctrl>=Tc) // Si el tiempo de control es mayor al tiempo de ciclo se reinicia tiempo de control 
01620:  MOVF   xB4,W
01622:  SUBWF  xAA,W
01624:  BNC   1632
01626:  BNZ   162E
01628:  MOVF   xB3,W
0162A:  SUBWF  xA9,W
0162C:  BNC   1632
....................       { 
....................          tiempoctrl=0; 
0162E:  CLRF   xAA
01630:  CLRF   xA9
....................       } // tiempoctrl incrementa una unidad cada 5ms, por eso se dividen los tiempos por 0.005. 
....................        
....................       if(tiempoctrl<=Tp) // Si el tiempo es menor o igual al tiempo de control se enciende la resistencia de lo contrario se apaga. 
01632:  MOVF   xAA,W
01634:  SUBWF  xB2,W
01636:  BNC   1646
01638:  BNZ   1640
0163A:  MOVF   xA9,W
0163C:  SUBWF  xB1,W
0163E:  BNC   1646
....................       { 
....................          Resistencia_on; 
01640:  BSF    F8B.0
01642:  BCF    F94.0
....................       } 
....................       else          
01644:  BRA    164A
....................       { 
....................          Resistencia_off; 
01646:  BCF    F8B.0
01648:  BCF    F94.0
....................       } 
....................    } 
....................    else{ 
0164A:  BRA    1650
....................       Resistencia_off; 
0164C:  BCF    F8B.0
0164E:  BCF    F94.0
....................    } 
....................     
....................    if(tiempos3>=200) 
01650:  MOVF   xA8,F
01652:  BNZ   165A
01654:  MOVF   xA7,W
01656:  SUBLW  C7
01658:  BC    166E
....................    { 
....................       Lectura2=1; 
0165A:  MOVLW  01
0165C:  MOVWF  x8F
....................       if(flagup) 
0165E:  BTFSS  x87.0
01660:  BRA    1664
....................          tiempoup++; 
01662:  INCF   x90,F
....................       if(flagdn) 
01664:  BTFSS  x87.1
01666:  BRA    166A
....................          tiempodn++;    
01668:  INCF   x91,F
....................       tiempos3=0; 
0166A:  CLRF   xA8
0166C:  CLRF   xA7
....................    } 
....................      
....................    if(tiempos>=200)  // 12000 para que incremente cada minuto, 200para que incremente cada segundo. 
0166E:  MOVF   xA6,F
01670:  BNZ   1678
01672:  MOVF   xA5,W
01674:  SUBLW  C7
01676:  BC    16DA
....................    {tiempos=0;Lectura=1;tiemporeset++;TiempoControl++;tiemporecta++; 
01678:  CLRF   xA6
0167A:  CLRF   xA5
0167C:  BSF    x95.1
0167E:  INCF   x97,F
01680:  INCF   xA0,F
01682:  INCF   x8D,F
....................        
....................       if(Menu==20 && tiempoImpresion<CalculoImpresion){ 
01684:  MOVF   x9A,W
01686:  SUBLW  14
01688:  BNZ   16A0
0168A:  MOVF   xB8,W
0168C:  SUBWF  xB6,W
0168E:  BNC   16A0
01690:  BNZ   1698
01692:  MOVF   xB5,W
01694:  SUBWF  xB7,W
01696:  BC    16A0
....................          tiempoImpresion++; 
01698:  INCF   xB7,F
0169A:  BTFSC  FD8.2
0169C:  INCF   xB8,F
....................       }else if(tiempoImpresion>=CalculoImpresion){ 
0169E:  BRA    16B4
016A0:  MOVF   xB6,W
016A2:  SUBWF  xB8,W
016A4:  BNC   16B4
016A6:  BNZ   16AE
016A8:  MOVF   xB5,W
016AA:  SUBWF  xB7,W
016AC:  BNC   16B4
....................          flagImprime=1; 
016AE:  BSF    x87.4
....................          tiempoImpresion=0; 
016B0:  CLRF   xB8
016B2:  CLRF   xB7
....................       } 
....................     
....................       if(flag_setpoint==1) 
016B4:  BTFSS  x95.6
016B6:  BRA    16BE
....................          tiemposetpoint++; 
016B8:  INCF   xAF,F
016BA:  BTFSC  FD8.2
016BC:  INCF   xB0,F
....................        
....................       if(tiempo_esterilizacion==1 || tiempo_esterilizacion==2){                
016BE:  DECFSZ xA2,W
016C0:  BRA    16C4
016C2:  BRA    16CA
016C4:  MOVF   xA2,W
016C6:  SUBLW  02
016C8:  BNZ   16D0
....................          tinicio++; 
016CA:  INCF   xAB,F
016CC:  BTFSC  FD8.2
016CE:  INCF   xAC,F
....................       } 
....................           
....................       if(flag_tiempocalentamiento==1) 
016D0:  BTFSS  x95.4
016D2:  BRA    16DA
....................       { 
....................          tiempocalentamiento++; 
016D4:  INCF   xAD,F
016D6:  BTFSC  FD8.2
016D8:  INCF   xAE,F
....................       } 
....................    }         
.................... } 
....................  
016DA:  BCF    F9E.0
016DC:  MOVLB  0
016DE:  GOTO   0058
.................... void main()  
.................... {  
*
07CE6:  CLRF   FF8
07CE8:  BCF    FD0.7
07CEA:  BSF    07.7
07CEC:  CLRF   FEA
07CEE:  CLRF   FE9
07CF0:  BCF    FB8.3
07CF2:  MOVLW  40
07CF4:  MOVWF  FAF
07CF6:  MOVLW  A6
07CF8:  MOVWF  FAC
07CFA:  MOVLW  90
07CFC:  MOVWF  FAB
07CFE:  MOVLB  5
07D00:  BCF    x87.0
07D02:  BCF    x87.1
07D04:  BCF    x87.2
07D06:  BCF    x87.3
07D08:  BCF    x87.4
07D0A:  CLRF   x88
07D0C:  CLRF   x89
07D0E:  CLRF   x8A
07D10:  CLRF   x8B
07D12:  MOVLW  0A
07D14:  MOVWF  x8C
07D16:  CLRF   x8D
07D18:  CLRF   x8E
07D1A:  CLRF   x8F
07D1C:  CLRF   x90
07D1E:  CLRF   x91
07D20:  CLRF   x92
07D22:  CLRF   x93
07D24:  MOVLW  05
07D26:  MOVWF  x94
07D28:  BCF    x87.5
07D2A:  BCF    x87.6
07D2C:  BCF    x87.7
07D2E:  BSF    x95.0
07D30:  BCF    x95.1
07D32:  BCF    x95.2
07D34:  BCF    x95.3
07D36:  BCF    x95.4
07D38:  BCF    x95.5
07D3A:  BCF    x95.6
07D3C:  BCF    x95.7
07D3E:  CLRF   x96
07D40:  CLRF   x97
07D42:  MOVLW  01
07D44:  MOVWF  x98
07D46:  CLRF   x99
07D48:  CLRF   x9A
07D4A:  MOVWF  x9B
07D4C:  CLRF   x9C
07D4E:  MOVWF  x9D
07D50:  CLRF   x9E
07D52:  CLRF   x9F
07D54:  CLRF   xA0
07D56:  MOVWF  xA1
07D58:  CLRF   xA2
07D5A:  CLRF   xA3
07D5C:  MOVLW  0A
07D5E:  MOVWF  xA4
07D60:  CLRF   xA6
07D62:  CLRF   xA5
07D64:  CLRF   xA8
07D66:  CLRF   xA7
07D68:  CLRF   xAA
07D6A:  CLRF   xA9
07D6C:  CLRF   xAC
07D6E:  CLRF   xAB
07D70:  CLRF   xAE
07D72:  CLRF   xAD
07D74:  CLRF   xB0
07D76:  CLRF   xAF
07D78:  CLRF   xB2
07D7A:  CLRF   xB1
07D7C:  CLRF   xB4
07D7E:  CLRF   xB3
07D80:  CLRF   xB6
07D82:  CLRF   xB5
07D84:  CLRF   xB8
07D86:  CLRF   xB7
07D88:  CLRF   xBA
07D8A:  CLRF   xB9
07D8C:  CLRF   xBE
07D8E:  CLRF   xBD
07D90:  CLRF   xBC
07D92:  CLRF   xBB
07D94:  CLRF   xC2
07D96:  CLRF   xC1
07D98:  MOVLW  20
07D9A:  MOVWF  xC0
07D9C:  MOVLW  83
07D9E:  MOVWF  xBF
07DA0:  CLRF   xC6
07DA2:  CLRF   xC5
07DA4:  CLRF   xC4
07DA6:  CLRF   xC3
07DA8:  CLRF   xCA
07DAA:  CLRF   xC9
07DAC:  CLRF   xC8
07DAE:  CLRF   xC7
07DB0:  CLRF   xCE
07DB2:  CLRF   xCD
07DB4:  CLRF   xCC
07DB6:  CLRF   xCB
07DB8:  CLRF   xD2
07DBA:  CLRF   xD1
07DBC:  CLRF   xD0
07DBE:  CLRF   xCF
07DC0:  CLRF   xD6
07DC2:  CLRF   xD5
07DC4:  CLRF   xD4
07DC6:  CLRF   xD3
07DC8:  CLRF   xDA
07DCA:  CLRF   xD9
07DCC:  CLRF   xD8
07DCE:  CLRF   xD7
07DD0:  CLRF   xDE
07DD2:  CLRF   xDD
07DD4:  CLRF   xDC
07DD6:  CLRF   xDB
07DD8:  CLRF   xE2
07DDA:  CLRF   xE1
07DDC:  CLRF   xE0
07DDE:  CLRF   xDF
07DE0:  CLRF   xF6
07DE2:  CLRF   xF5
07DE4:  CLRF   xF4
07DE6:  CLRF   xF3
07DE8:  CLRF   xFA
07DEA:  CLRF   xF9
07DEC:  MOVLW  20
07DEE:  MOVWF  xF8
07DF0:  MOVLW  82
07DF2:  MOVWF  xF7
07DF4:  CLRF   xFE
07DF6:  CLRF   xFD
07DF8:  CLRF   xFC
07DFA:  CLRF   xFB
07DFC:  MOVLB  6
07DFE:  CLRF   x02
07E00:  CLRF   x01
07E02:  CLRF   x00
07E04:  MOVLB  5
07E06:  CLRF   xFF
07E08:  MOVLB  6
07E0A:  CLRF   x06
07E0C:  CLRF   x05
07E0E:  CLRF   x04
07E10:  CLRF   x03
07E12:  CLRF   x0A
07E14:  CLRF   x09
07E16:  CLRF   x08
07E18:  CLRF   x07
07E1A:  CLRF   x0E
07E1C:  CLRF   x0D
07E1E:  CLRF   x0C
07E20:  CLRF   x0B
07E22:  CLRF   x12
07E24:  CLRF   x11
07E26:  CLRF   x10
07E28:  CLRF   x0F
07E2A:  CLRF   x16
07E2C:  CLRF   x15
07E2E:  MOVLW  40
07E30:  MOVWF  x14
07E32:  MOVLW  80
07E34:  MOVWF  x13
07E36:  CLRF   x1A
07E38:  CLRF   x19
07E3A:  MOVLW  40
07E3C:  MOVWF  x18
07E3E:  MOVLW  80
07E40:  MOVWF  x17
07E42:  CLRF   x1E
07E44:  CLRF   x1D
07E46:  MOVLW  16
07E48:  MOVWF  x1C
07E4A:  MOVLW  86
07E4C:  MOVWF  x1B
07E4E:  CLRF   x22
07E50:  CLRF   x21
07E52:  MOVLW  20
07E54:  MOVWF  x20
07E56:  MOVLW  83
07E58:  MOVWF  x1F
07E5A:  CLRF   x26
07E5C:  CLRF   x25
07E5E:  MOVLW  70
07E60:  MOVWF  x24
07E62:  MOVLW  86
07E64:  MOVWF  x23
07E66:  CLRF   x2A
07E68:  CLRF   x29
07E6A:  CLRF   x28
07E6C:  CLRF   x27
07E6E:  CLRF   x2E
07E70:  CLRF   x2D
07E72:  CLRF   x2C
07E74:  CLRF   x2B
07E76:  CLRF   x32
07E78:  CLRF   x31
07E7A:  CLRF   x30
07E7C:  CLRF   x2F
07E7E:  CLRF   x36
07E80:  CLRF   x35
07E82:  CLRF   x34
07E84:  CLRF   x33
07E86:  CLRF   x3A
07E88:  CLRF   x39
07E8A:  CLRF   x38
07E8C:  CLRF   x37
07E8E:  CLRF   x3E
07E90:  CLRF   x3D
07E92:  CLRF   x3C
07E94:  CLRF   x3B
07E96:  CLRF   x42
07E98:  CLRF   x41
07E9A:  CLRF   x40
07E9C:  CLRF   x3F
07E9E:  CLRF   x46
07EA0:  CLRF   x45
07EA2:  CLRF   x44
07EA4:  CLRF   x43
07EA6:  CLRF   x4A
07EA8:  CLRF   x49
07EAA:  CLRF   x48
07EAC:  CLRF   x47
07EAE:  CLRF   x4E
07EB0:  CLRF   x4D
07EB2:  CLRF   x4C
07EB4:  CLRF   x4B
07EB6:  CLRF   x52
07EB8:  CLRF   x51
07EBA:  CLRF   x50
07EBC:  CLRF   x4F
07EBE:  CLRF   x56
07EC0:  MOVLW  40
07EC2:  MOVWF  x55
07EC4:  MOVLW  1C
07EC6:  MOVWF  x54
07EC8:  MOVLW  89
07ECA:  MOVWF  x53
07ECC:  CLRF   x5A
07ECE:  CLRF   x59
07ED0:  CLRF   x58
07ED2:  CLRF   x57
07ED4:  CLRF   x5E
07ED6:  CLRF   x5D
07ED8:  MOVLW  48
07EDA:  MOVWF  x5C
07EDC:  MOVLW  84
07EDE:  MOVWF  x5B
07EE0:  CLRF   x62
07EE2:  CLRF   x61
07EE4:  CLRF   x60
07EE6:  CLRF   x5F
07EE8:  CLRF   x66
07EEA:  CLRF   x65
07EEC:  CLRF   x64
07EEE:  CLRF   x63
07EF0:  MOVLW  12
07EF2:  MOVLB  7
07EF4:  MOVWF  x93
07EF6:  MOVLW  09
07EF8:  MOVWF  x94
07EFA:  MOVLW  0D
07EFC:  MOVWF  x95
07EFE:  CLRF   x96
07F00:  CLRF   x97
07F02:  CLRF   x98
07F04:  CLRF   x99
07F06:  MOVLW  09
07F08:  MOVWF  x9A
07F0A:  CLRF   x9B
07F0C:  CLRF   x9C
07F0E:  CLRF   x9D
07F10:  CLRF   x9E
07F12:  CLRF   x9F
07F14:  CLRF   xA0
07F16:  CLRF   xA1
07F18:  CLRF   xA2
07F1A:  CLRF   xA3
07F1C:  CLRF   xA4
07F1E:  MOVF   FC1,W
07F20:  ANDLW  C0
07F22:  IORLW  0F
07F24:  MOVWF  FC1
07F26:  MOVLW  07
07F28:  MOVWF  FB4
07F2A:  MOVLB  4
07F2C:  CLRF   x17
07F2E:  CLRF   x18
07F30:  CLRF   x19
07F32:  CLRF   x1A
07F34:  CLRF   x1B
07F36:  CLRF   x1C
07F38:  CLRF   x1D
07F3A:  CLRF   x1E
07F3C:  CLRF   x1F
07F3E:  CLRF   x20
07F40:  CLRF   x21
07F42:  CLRF   x22
07F44:  CLRF   x23
07F46:  CLRF   x24
07F48:  CLRF   x25
07F4A:  CLRF   x26
07F4C:  CLRF   x27
07F4E:  CLRF   x28
07F50:  CLRF   x29
07F52:  CLRF   x2A
07F54:  CLRF   x2B
07F56:  CLRF   x2C
07F58:  CLRF   x2D
07F5A:  CLRF   x2E
07F5C:  CLRF   x2F
07F5E:  CLRF   x30
07F60:  CLRF   x31
07F62:  CLRF   x32
07F64:  CLRF   x33
07F66:  CLRF   x34
07F68:  CLRF   x35
07F6A:  CLRF   x36
07F6C:  CLRF   x37
07F6E:  CLRF   x38
07F70:  CLRF   x39
07F72:  CLRF   x3A
07F74:  CLRF   x3B
07F76:  CLRF   x3C
07F78:  CLRF   x3D
07F7A:  CLRF   x3E
07F7C:  CLRF   x3F
07F7E:  CLRF   x40
07F80:  CLRF   x41
07F82:  CLRF   x42
07F84:  CLRF   x43
07F86:  CLRF   x44
07F88:  CLRF   x45
07F8A:  CLRF   x46
07F8C:  CLRF   x47
07F8E:  CLRF   x48
07F90:  CLRF   x49
07F92:  CLRF   x4A
07F94:  CLRF   x4B
07F96:  CLRF   x4C
07F98:  CLRF   x4D
07F9A:  CLRF   x4E
07F9C:  CLRF   x4F
07F9E:  CLRF   x50
07FA0:  CLRF   x51
07FA2:  CLRF   x52
07FA4:  CLRF   x53
07FA6:  CLRF   x54
07FA8:  CLRF   x55
07FAA:  CLRF   x56
07FAC:  CLRF   x57
07FAE:  CLRF   x58
07FB0:  CLRF   x59
07FB2:  CLRF   x5A
07FB4:  CLRF   x5B
07FB6:  CLRF   x5C
07FB8:  CLRF   x5D
07FBA:  CLRF   x5E
07FBC:  CLRF   x5F
07FBE:  CLRF   x60
07FC0:  CLRF   x61
07FC2:  CLRF   x62
07FC4:  CLRF   x63
07FC6:  CLRF   x64
07FC8:  CLRF   x65
07FCA:  CLRF   x66
07FCC:  CLRF   x67
07FCE:  CLRF   x68
07FD0:  CLRF   x69
07FD2:  CLRF   x6A
07FD4:  CLRF   x6B
07FD6:  CLRF   x6C
07FD8:  CLRF   x6D
07FDA:  CLRF   x6E
07FDC:  CLRF   x6F
07FDE:  CLRF   x70
07FE0:  CLRF   x71
07FE2:  CLRF   x72
07FE4:  CLRF   x73
07FE6:  CLRF   x74
07FE8:  CLRF   x75
07FEA:  CLRF   x76
07FEC:  CLRF   x77
07FEE:  CLRF   x78
07FF0:  CLRF   x79
07FF2:  CLRF   x7A
07FF4:  CLRF   x7B
07FF6:  CLRF   x7C
07FF8:  CLRF   x7D
07FFA:  CLRF   x7E
07FFC:  CLRF   x7F
07FFE:  CLRF   x80
08000:  CLRF   x81
08002:  CLRF   x82
08004:  CLRF   x83
08006:  CLRF   x84
08008:  CLRF   x85
0800A:  CLRF   x86
0800C:  CLRF   x87
0800E:  CLRF   x88
08010:  CLRF   x89
08012:  CLRF   x8A
08014:  CLRF   x8B
08016:  CLRF   x8C
08018:  CLRF   x8D
0801A:  CLRF   x8E
0801C:  CLRF   x8F
0801E:  CLRF   x90
08020:  CLRF   x91
08022:  CLRF   x92
08024:  CLRF   x93
08026:  CLRF   x94
08028:  CLRF   x95
0802A:  CLRF   x96
0802C:  CLRF   x97
0802E:  CLRF   x98
08030:  CLRF   x99
08032:  CLRF   x9A
08034:  CLRF   x9B
08036:  CLRF   x9C
08038:  CLRF   x9D
0803A:  CLRF   x9E
0803C:  CLRF   x9F
0803E:  CLRF   xA0
08040:  CLRF   xA1
08042:  CLRF   xA2
08044:  CLRF   xA3
08046:  CLRF   xA4
08048:  CLRF   xA5
0804A:  CLRF   xA6
0804C:  CLRF   xA7
0804E:  CLRF   xA8
08050:  CLRF   xA9
08052:  CLRF   xAA
08054:  CLRF   xAB
08056:  CLRF   xAC
08058:  CLRF   xAD
0805A:  CLRF   xAE
0805C:  CLRF   xAF
0805E:  CLRF   xB0
08060:  CLRF   xB1
08062:  CLRF   xB2
08064:  CLRF   xB3
08066:  CLRF   xB4
08068:  CLRF   xB5
0806A:  CLRF   xB6
0806C:  CLRF   xB7
0806E:  CLRF   xB8
08070:  CLRF   xB9
08072:  CLRF   xBA
08074:  CLRF   xBB
08076:  CLRF   xBC
08078:  CLRF   xBD
0807A:  CLRF   xBE
0807C:  CLRF   xBF
0807E:  CLRF   xC0
08080:  CLRF   xC1
08082:  CLRF   xC2
08084:  CLRF   xC3
08086:  CLRF   xC4
08088:  CLRF   xC5
0808A:  CLRF   xC6
0808C:  CLRF   xC7
0808E:  CLRF   xC8
08090:  CLRF   xC9
08092:  CLRF   xCA
08094:  CLRF   xCB
08096:  CLRF   xCC
08098:  CLRF   xCD
0809A:  CLRF   xCE
0809C:  CLRF   xCF
0809E:  CLRF   xD0
080A0:  CLRF   xD1
080A2:  CLRF   xD2
080A4:  CLRF   xD3
080A6:  CLRF   xD4
080A8:  CLRF   xD5
080AA:  CLRF   xD6
080AC:  CLRF   xD7
080AE:  CLRF   xD8
080B0:  CLRF   xD9
080B2:  CLRF   xDA
080B4:  CLRF   xDB
080B6:  CLRF   xDC
080B8:  CLRF   xDD
080BA:  CLRF   xDE
080BC:  CLRF   xDF
080BE:  CLRF   xE0
080C0:  CLRF   xE1
080C2:  CLRF   xE2
080C4:  CLRF   xE3
080C6:  CLRF   xE4
080C8:  CLRF   xE5
080CA:  CLRF   xE6
080CC:  CLRF   xE7
080CE:  CLRF   xE8
080D0:  CLRF   xE9
080D2:  CLRF   xEA
080D4:  CLRF   xEB
080D6:  CLRF   xEC
080D8:  CLRF   xED
080DA:  CLRF   xEE
080DC:  CLRF   xEF
080DE:  CLRF   xF0
080E0:  CLRF   xF1
080E2:  CLRF   xF2
080E4:  CLRF   xF3
080E6:  CLRF   xF4
080E8:  CLRF   xF5
080EA:  CLRF   xF6
080EC:  CLRF   xF7
080EE:  CLRF   xF8
080F0:  CLRF   xF9
080F2:  CLRF   xFA
080F4:  CLRF   xFB
080F6:  CLRF   xFC
080F8:  CLRF   xFD
080FA:  CLRF   xFE
080FC:  CLRF   xFF
080FE:  MOVLB  5
08100:  CLRF   x00
08102:  CLRF   x01
08104:  CLRF   x02
08106:  CLRF   x03
08108:  CLRF   x04
0810A:  CLRF   x05
0810C:  CLRF   x06
0810E:  CLRF   x07
08110:  CLRF   x08
08112:  CLRF   x09
08114:  CLRF   x0A
08116:  CLRF   x0B
08118:  CLRF   x0C
0811A:  CLRF   x0D
0811C:  CLRF   x0E
0811E:  CLRF   x0F
08120:  CLRF   x10
08122:  CLRF   x11
08124:  CLRF   x12
08126:  CLRF   x13
08128:  CLRF   x14
0812A:  CLRF   x15
0812C:  CLRF   x16
0812E:  CLRF   x17
08130:  CLRF   x18
08132:  CLRF   x19
08134:  CLRF   x1A
08136:  CLRF   x1B
08138:  CLRF   x1C
0813A:  CLRF   x1D
0813C:  CLRF   x1E
0813E:  CLRF   x1F
08140:  CLRF   x20
08142:  CLRF   x21
08144:  CLRF   x22
08146:  CLRF   x23
08148:  CLRF   x24
0814A:  CLRF   x25
0814C:  CLRF   x26
0814E:  CLRF   x27
08150:  CLRF   x28
08152:  CLRF   x29
08154:  CLRF   x2A
08156:  CLRF   x2B
08158:  CLRF   x2C
0815A:  CLRF   x2D
0815C:  CLRF   x2E
0815E:  CLRF   x2F
08160:  CLRF   x30
08162:  CLRF   x31
08164:  CLRF   x32
08166:  CLRF   x33
08168:  CLRF   x34
0816A:  CLRF   x35
0816C:  CLRF   x36
0816E:  CLRF   x37
08170:  CLRF   x38
08172:  CLRF   x39
08174:  CLRF   x3A
08176:  CLRF   x3B
08178:  CLRF   x3C
0817A:  CLRF   x3D
0817C:  CLRF   x3E
0817E:  CLRF   x3F
08180:  CLRF   x40
08182:  CLRF   x41
08184:  CLRF   x42
08186:  CLRF   x43
08188:  CLRF   x44
0818A:  CLRF   x45
0818C:  CLRF   x46
0818E:  CLRF   x47
08190:  CLRF   x48
08192:  CLRF   x49
08194:  CLRF   x4A
08196:  CLRF   x4B
08198:  CLRF   x4C
0819A:  CLRF   x4D
0819C:  CLRF   x4E
0819E:  CLRF   x4F
081A0:  CLRF   x50
081A2:  CLRF   x51
081A4:  CLRF   x52
081A6:  CLRF   x53
081A8:  CLRF   x54
081AA:  CLRF   x55
081AC:  CLRF   x56
081AE:  CLRF   x57
081B0:  CLRF   x58
081B2:  CLRF   x59
081B4:  CLRF   x5A
081B6:  CLRF   x5B
081B8:  CLRF   x5C
081BA:  CLRF   x5D
081BC:  CLRF   x5E
081BE:  CLRF   x5F
081C0:  CLRF   x60
081C2:  CLRF   x61
081C4:  CLRF   x62
081C6:  CLRF   x63
081C8:  CLRF   x64
081CA:  CLRF   x65
081CC:  CLRF   x66
081CE:  CLRF   x67
081D0:  CLRF   x68
081D2:  CLRF   x69
081D4:  CLRF   x6A
081D6:  CLRF   x6B
081D8:  CLRF   x6C
081DA:  CLRF   x6D
081DC:  CLRF   x6E
081DE:  CLRF   x6F
081E0:  CLRF   x70
081E2:  CLRF   x71
081E4:  CLRF   x72
081E6:  CLRF   x73
081E8:  CLRF   x74
081EA:  CLRF   x75
081EC:  CLRF   x76
081EE:  CLRF   x77
081F0:  CLRF   x78
081F2:  CLRF   x79
081F4:  CLRF   x7A
081F6:  CLRF   x7B
081F8:  CLRF   x7C
081FA:  CLRF   x7D
081FC:  CLRF   x7E
081FE:  CLRF   x7F
08200:  CLRF   x80
08202:  CLRF   x81
08204:  CLRF   x82
08206:  CLRF   x83
08208:  CLRF   x84
0820A:  CLRF   x85
0820C:  CLRF   x86
0820E:  CLRF   xE3
08210:  CLRF   xE4
08212:  CLRF   xE5
08214:  CLRF   xE6
08216:  CLRF   xE7
08218:  CLRF   xE8
0821A:  CLRF   xE9
0821C:  CLRF   xEA
0821E:  CLRF   xEB
08220:  CLRF   xEC
08222:  CLRF   xED
08224:  CLRF   xEE
08226:  CLRF   xEF
08228:  CLRF   xF0
0822A:  CLRF   xF1
0822C:  CLRF   xF2
0822E:  MOVLB  7
08230:  CLRF   xA5
08232:  MOVLW  03
08234:  MOVWF  xA6
08236:  MOVWF  xA7
08238:  MOVLW  06
0823A:  MOVWF  xA8
0823C:  MOVLW  01
0823E:  MOVWF  xA9
08240:  MOVLW  04
08242:  MOVWF  xAA
08244:  MOVLW  06
08246:  MOVWF  xAB
08248:  MOVLW  02
0824A:  MOVWF  xAC
0824C:  MOVLW  05
0824E:  MOVWF  xAD
08250:  CLRF   xAE
08252:  MOVLW  03
08254:  MOVWF  xAF
08256:  MOVLW  05
08258:  MOVWF  xB0
0825A:  CLRF   xB1
0825C:  MOVLW  03
0825E:  MOVWF  xB2
08260:  MOVLW  04
08262:  MOVWF  xB3
08264:  CLRF   xB4
08266:  MOVLW  02
08268:  MOVWF  xB5
0826A:  MOVLW  05
0826C:  MOVWF  xB6
0826E:  CLRF   xB7
08270:  MOVLW  03
08272:  MOVWF  xB8
08274:  MOVLW  06
08276:  MOVWF  xB9
08278:  MOVLW  01
0827A:  MOVWF  xBA
0827C:  MOVLW  04
0827E:  MOVWF  xBB
08280:  MOVLW  06
08282:  MOVWF  xBC
08284:  CLRF   xDB
08286:  CLRF   xDC
....................    delay_ms(1000); 
08288:  MOVLW  04
0828A:  MOVWF  xDD
0828C:  MOVLW  FA
0828E:  MOVWF  xE3
08290:  MOVLB  0
08292:  CALL   1800
08296:  MOVLB  7
08298:  DECFSZ xDD,F
0829A:  BRA    828C
....................    ConfigInicial(); 
0829C:  MOVLB  0
0829E:  GOTO   1828
....................     
....................    glcd_init(ON);             //Inicializa la glcd 
082A2:  MOVLW  01
082A4:  MOVLB  7
082A6:  MOVWF  xDD
082A8:  MOVLB  0
082AA:  CALL   1992
....................    glcd_fillScreen(OFF);      //Limpia la pantalla 
082AE:  MOVLB  7
082B0:  CLRF   xDE
082B2:  MOVLB  0
082B4:  CALL   1880
....................    strcpy(Menus.Letra,"JP Inglobal"); 
082B8:  MOVLW  07
082BA:  MOVWF  FEA
082BC:  MOVLW  BD
082BE:  MOVWF  FE9
082C0:  MOVFF  FF2,7DD
082C4:  BCF    FF2.7
082C6:  MOVLW  00
082C8:  CALL   083A
082CC:  TBLRD*-
082CE:  TBLRD*+
082D0:  MOVF   FF5,W
082D2:  MOVWF  FEE
082D4:  IORLW  00
082D6:  BNZ   82CE
082D8:  MOVLB  7
082DA:  BTFSC  xDD.7
082DC:  BSF    FF2.7
....................    displayMenu(Menus.Letra,0,0,0,2);      
082DE:  MOVLW  07
082E0:  MOVWF  xE1
082E2:  MOVLW  BD
082E4:  MOVWF  xE0
082E6:  CLRF   xE2
082E8:  CLRF   xE3
082EA:  CLRF   xE4
082EC:  MOVLW  02
082EE:  MOVWF  xE5
082F0:  MOVLB  0
082F2:  CALL   1EC0
....................    strcpy(Menus.Letra,"   Mufla"); 
082F6:  MOVLW  07
082F8:  MOVWF  FEA
082FA:  MOVLW  BD
082FC:  MOVWF  FE9
082FE:  MOVFF  FF2,7DD
08302:  BCF    FF2.7
08304:  MOVLW  00
08306:  CALL   0864
0830A:  TBLRD*-
0830C:  TBLRD*+
0830E:  MOVF   FF5,W
08310:  MOVWF  FEE
08312:  IORLW  00
08314:  BNZ   830C
08316:  MOVLB  7
08318:  BTFSC  xDD.7
0831A:  BSF    FF2.7
....................    displayMenu(Menus.Letra,0,20,0,2);        
0831C:  MOVLW  07
0831E:  MOVWF  xE1
08320:  MOVLW  BD
08322:  MOVWF  xE0
08324:  CLRF   xE2
08326:  MOVLW  14
08328:  MOVWF  xE3
0832A:  CLRF   xE4
0832C:  MOVLW  02
0832E:  MOVWF  xE5
08330:  MOVLB  0
08332:  CALL   1EC0
....................    strcpy(Menus.Letra,"     9L"); 
08336:  MOVLW  07
08338:  MOVWF  FEA
0833A:  MOVLW  BD
0833C:  MOVWF  FE9
0833E:  MOVFF  FF2,7DD
08342:  BCF    FF2.7
08344:  MOVLW  00
08346:  CALL   088C
0834A:  TBLRD*-
0834C:  TBLRD*+
0834E:  MOVF   FF5,W
08350:  MOVWF  FEE
08352:  IORLW  00
08354:  BNZ   834C
08356:  MOVLB  7
08358:  BTFSC  xDD.7
0835A:  BSF    FF2.7
....................    displayMenu(Menus.Letra,0,45,0,2); 
0835C:  MOVLW  07
0835E:  MOVWF  xE1
08360:  MOVLW  BD
08362:  MOVWF  xE0
08364:  CLRF   xE2
08366:  MOVLW  2D
08368:  MOVWF  xE3
0836A:  CLRF   xE4
0836C:  MOVLW  02
0836E:  MOVWF  xE5
08370:  MOVLB  0
08372:  CALL   1EC0
....................    delay_ms(1000); 
08376:  MOVLW  04
08378:  MOVLB  7
0837A:  MOVWF  xDD
0837C:  MOVLW  FA
0837E:  MOVWF  xE3
08380:  MOVLB  0
08382:  CALL   1800
08386:  MOVLB  7
08388:  DECFSZ xDD,F
0838A:  BRA    837C
....................     
....................    Resistencia_off; 
0838C:  BCF    F8B.0
0838E:  BCF    F94.0
....................    glcd_fillScreen(OFF);      //Limpia la pantalla 
08390:  CLRF   xDE
08392:  MOVLB  0
08394:  CALL   1880
....................    displayContrasena(Contrasena[0],20,30,1); 
08398:  MOVFF  5EB,7DF
0839C:  MOVLW  14
0839E:  MOVLB  7
083A0:  MOVWF  xE0
083A2:  MOVLW  1E
083A4:  MOVWF  xE1
083A6:  MOVLW  01
083A8:  MOVWF  xE2
083AA:  MOVLB  0
083AC:  CALL   2112
....................    displayContrasena(Contrasena[1],40,30,0); 
083B0:  MOVFF  5EC,7DF
083B4:  MOVLW  28
083B6:  MOVLB  7
083B8:  MOVWF  xE0
083BA:  MOVLW  1E
083BC:  MOVWF  xE1
083BE:  CLRF   xE2
083C0:  MOVLB  0
083C2:  CALL   2112
....................    displayContrasena(Contrasena[2],60,30,0); 
083C6:  MOVFF  5ED,7DF
083CA:  MOVLW  3C
083CC:  MOVLB  7
083CE:  MOVWF  xE0
083D0:  MOVLW  1E
083D2:  MOVWF  xE1
083D4:  CLRF   xE2
083D6:  MOVLB  0
083D8:  CALL   2112
....................    displayContrasena(Contrasena[3],80,30,0);  
083DC:  MOVFF  5EE,7DF
083E0:  MOVLW  50
083E2:  MOVLB  7
083E4:  MOVWF  xE0
083E6:  MOVLW  1E
083E8:  MOVWF  xE1
083EA:  CLRF   xE2
083EC:  MOVLB  0
083EE:  CALL   2112
....................    Menu=0; 
083F2:  MOVLB  5
083F4:  CLRF   x9A
....................    LeeEEPROM(); 
083F6:  MOVLB  0
083F8:  GOTO   2278
....................     
....................    for(i=0;i<80;i++){ 
083FC:  MOVLB  5
083FE:  CLRF   x9C
08400:  MOVF   x9C,W
08402:  SUBLW  4F
08404:  BNC   8426
....................       Temperatura=Leer_Sensor(MediaMovil); 
08406:  MOVFF  58C,7DD
0840A:  MOVLB  0
0840C:  CALL   34A4
08410:  MOVFF  03,62E
08414:  MOVFF  02,62D
08418:  MOVFF  01,62C
0841C:  MOVFF  00,62B
....................    } 
08420:  MOVLB  5
08422:  INCF   x9C,F
08424:  BRA    8400
....................     
....................    adcInf=(0.004*resistencia*1023)/5.02; 
08426:  MOVLW  6F
08428:  MOVLB  7
0842A:  MOVWF  xFD
0842C:  MOVLW  12
0842E:  MOVWF  xFC
08430:  MOVLW  03
08432:  MOVWF  xFB
08434:  MOVLW  77
08436:  MOVWF  xFA
08438:  MOVFF  626,801
0843C:  MOVFF  625,800
08440:  MOVFF  624,7FF
08444:  MOVFF  623,7FE
08448:  MOVLB  0
0844A:  CALL   3386
0844E:  MOVFF  00,7DD
08452:  MOVFF  01,7DE
08456:  MOVFF  02,7DF
0845A:  MOVFF  03,7E0
0845E:  MOVFF  03,7FD
08462:  MOVFF  02,7FC
08466:  MOVFF  01,7FB
0846A:  MOVFF  00,7FA
0846E:  MOVLB  8
08470:  CLRF   x01
08472:  MOVLW  C0
08474:  MOVWF  x00
08476:  MOVLW  7F
08478:  MOVLB  7
0847A:  MOVWF  xFF
0847C:  MOVLW  88
0847E:  MOVWF  xFE
08480:  MOVLB  0
08482:  CALL   3386
08486:  MOVFF  00,7DD
0848A:  MOVFF  01,7DE
0848E:  MOVFF  02,7DF
08492:  MOVFF  03,7E0
08496:  MOVFF  03,7E4
0849A:  MOVFF  02,7E3
0849E:  MOVFF  01,7E2
084A2:  MOVFF  00,7E1
084A6:  MOVLW  D7
084A8:  MOVLB  7
084AA:  MOVWF  xE8
084AC:  MOVLW  A3
084AE:  MOVWF  xE7
084B0:  MOVLW  20
084B2:  MOVWF  xE6
084B4:  MOVLW  81
084B6:  MOVWF  xE5
084B8:  MOVLB  0
084BA:  CALL   3228
084BE:  MOVFF  03,652
084C2:  MOVFF  02,651
084C6:  MOVFF  01,650
084CA:  MOVFF  00,64F
....................    adcSup=(0.02*resistencia*1023)/5.02; 
084CE:  MOVLW  0A
084D0:  MOVLB  7
084D2:  MOVWF  xFD
084D4:  MOVLW  D7
084D6:  MOVWF  xFC
084D8:  MOVLW  23
084DA:  MOVWF  xFB
084DC:  MOVLW  79
084DE:  MOVWF  xFA
084E0:  MOVFF  626,801
084E4:  MOVFF  625,800
084E8:  MOVFF  624,7FF
084EC:  MOVFF  623,7FE
084F0:  MOVLB  0
084F2:  CALL   3386
084F6:  MOVFF  00,7DD
084FA:  MOVFF  01,7DE
084FE:  MOVFF  02,7DF
08502:  MOVFF  03,7E0
08506:  MOVFF  03,7FD
0850A:  MOVFF  02,7FC
0850E:  MOVFF  01,7FB
08512:  MOVFF  00,7FA
08516:  MOVLB  8
08518:  CLRF   x01
0851A:  MOVLW  C0
0851C:  MOVWF  x00
0851E:  MOVLW  7F
08520:  MOVLB  7
08522:  MOVWF  xFF
08524:  MOVLW  88
08526:  MOVWF  xFE
08528:  MOVLB  0
0852A:  CALL   3386
0852E:  MOVFF  00,7DD
08532:  MOVFF  01,7DE
08536:  MOVFF  02,7DF
0853A:  MOVFF  03,7E0
0853E:  MOVFF  03,7E4
08542:  MOVFF  02,7E3
08546:  MOVFF  01,7E2
0854A:  MOVFF  00,7E1
0854E:  MOVLW  D7
08550:  MOVLB  7
08552:  MOVWF  xE8
08554:  MOVLW  A3
08556:  MOVWF  xE7
08558:  MOVLW  20
0855A:  MOVWF  xE6
0855C:  MOVLW  81
0855E:  MOVWF  xE5
08560:  MOVLB  0
08562:  CALL   3228
08566:  MOVFF  03,64E
0856A:  MOVFF  02,64D
0856E:  MOVFF  01,64C
08572:  MOVFF  00,64B
....................    m=(Tsup-Tinf)/(adcSup-adcInf); 
08576:  BSF    FD8.1
08578:  MOVFF  656,7E6
0857C:  MOVFF  655,7E5
08580:  MOVFF  654,7E4
08584:  MOVFF  653,7E3
08588:  MOVFF  65A,7EA
0858C:  MOVFF  659,7E9
08590:  MOVFF  658,7E8
08594:  MOVFF  657,7E7
08598:  CALL   2FB0
0859C:  MOVFF  00,7DD
085A0:  MOVFF  01,7DE
085A4:  MOVFF  02,7DF
085A8:  MOVFF  03,7E0
085AC:  BSF    FD8.1
085AE:  MOVFF  64E,7E6
085B2:  MOVFF  64D,7E5
085B6:  MOVFF  64C,7E4
085BA:  MOVFF  64B,7E3
085BE:  MOVFF  652,7EA
085C2:  MOVFF  651,7E9
085C6:  MOVFF  650,7E8
085CA:  MOVFF  64F,7E7
085CE:  CALL   2FB0
085D2:  MOVFF  7E0,7E4
085D6:  MOVFF  7DF,7E3
085DA:  MOVFF  7DE,7E2
085DE:  MOVFF  7DD,7E1
085E2:  MOVFF  03,7E8
085E6:  MOVFF  02,7E7
085EA:  MOVFF  01,7E6
085EE:  MOVFF  00,7E5
085F2:  CALL   3228
085F6:  MOVFF  03,646
085FA:  MOVFF  02,645
085FE:  MOVFF  01,644
08602:  MOVFF  00,643
....................    b=Tsup-(m*adcSup); 
08606:  MOVFF  646,7FD
0860A:  MOVFF  645,7FC
0860E:  MOVFF  644,7FB
08612:  MOVFF  643,7FA
08616:  MOVFF  64E,801
0861A:  MOVFF  64D,800
0861E:  MOVFF  64C,7FF
08622:  MOVFF  64B,7FE
08626:  CALL   3386
0862A:  BSF    FD8.1
0862C:  MOVFF  656,7E6
08630:  MOVFF  655,7E5
08634:  MOVFF  654,7E4
08638:  MOVFF  653,7E3
0863C:  MOVFF  03,7EA
08640:  MOVFF  02,7E9
08644:  MOVFF  01,7E8
08648:  MOVFF  00,7E7
0864C:  CALL   2FB0
08650:  MOVFF  03,64A
08654:  MOVFF  02,649
08658:  MOVFF  01,648
0865C:  MOVFF  00,647
....................    penInicial=penMufla; 
08660:  MOVFF  65E,666
08664:  MOVFF  65D,665
08668:  MOVFF  65C,664
0866C:  MOVFF  65B,663
....................    rtc_init(); 
08670:  GOTO   3760
.................... //Inicio de Impresora 
....................    putc(27); 
08674:  MOVLW  1B
08676:  CALL   37B2
....................    putc(64); 
0867A:  MOVLW  40
0867C:  CALL   37B2
....................    delay_us(10); 
08680:  MOVLW  10
08682:  MOVWF  00
08684:  DECFSZ 00,F
08686:  BRA    8684
08688:  NOP   
....................    putc(10); 
0868A:  MOVLW  0A
0868C:  CALL   37B2
....................    //32 Caracteres se pueden escribir en una linea de la impresora 
....................  //fprintf(printer,"                                \n"); 
....................    CalculoImpresion=timpresion*60; 
08690:  MOVFF  5BA,7E2
08694:  MOVFF  5B9,7E1
08698:  MOVLB  7
0869A:  CLRF   xE4
0869C:  MOVLW  3C
0869E:  MOVWF  xE3
086A0:  MOVLB  0
086A2:  CALL   2F8E
086A6:  MOVFF  02,5B6
086AA:  MOVFF  01,5B5
....................    rtc_get_date(Dia,Mes,Year,dow); 
....................    rtc_get_time(Hora,Minuto,Segundo); 
....................    if(ActivaImpresion){ 
*
08772:  MOVLB  5
08774:  BTFSS  x87.3
08776:  BRA    87FE
....................       fprintf(printer," MUFLA DIGITAL  JP INGLOBAL  \n"); 
08778:  MOVLW  E2
0877A:  MOVWF  FF6
0877C:  MOVLW  16
0877E:  MOVWF  FF7
08780:  MOVLW  00
08782:  MOVWF  FF8
08784:  MOVLB  0
08786:  CALL   37EC
....................       delay_us(10); 
0878A:  MOVLW  10
0878C:  MOVWF  00
0878E:  DECFSZ 00,F
08790:  BRA    878E
08792:  NOP   
....................       fprintf(printer,"   FECHA: %02u-%02u-%02u \n",Dia,Mes,Year); 
08794:  MOVLW  02
08796:  MOVWF  FF6
08798:  MOVLW  17
0879A:  MOVWF  FF7
0879C:  MOVLW  00
0879E:  MOVWF  FF8
087A0:  MOVLW  0A
087A2:  MOVLB  7
087A4:  MOVWF  xDE
087A6:  MOVLB  0
087A8:  CALL   3816
087AC:  MOVFF  795,7DE
087B0:  MOVLW  01
087B2:  MOVLB  7
087B4:  MOVWF  xDF
087B6:  MOVLB  0
087B8:  CALL   3848
087BC:  MOVLW  2D
087BE:  BTFSS  F9E.4
087C0:  BRA    87BE
087C2:  MOVWF  FAD
087C4:  MOVFF  79A,7DE
087C8:  MOVLW  01
087CA:  MOVLB  7
087CC:  MOVWF  xDF
087CE:  MOVLB  0
087D0:  CALL   3848
087D4:  MOVLW  2D
087D6:  BTFSS  F9E.4
087D8:  BRA    87D6
087DA:  MOVWF  FAD
087DC:  MOVFF  793,7DE
087E0:  MOVLW  01
087E2:  MOVLB  7
087E4:  MOVWF  xDF
087E6:  MOVLB  0
087E8:  CALL   3848
087EC:  MOVLW  20
087EE:  BTFSS  F9E.4
087F0:  BRA    87EE
087F2:  MOVWF  FAD
087F4:  MOVLW  0A
087F6:  BTFSS  F9E.4
087F8:  BRA    87F6
087FA:  MOVWF  FAD
087FC:  MOVLB  5
....................    } 
....................    while(TRUE)  
....................    {  
....................       glcd_update();             
087FE:  MOVLB  0
08800:  CALL   18DA
....................       rtc_get_date(Dia,Mes,Year,dow); 
....................       rtc_get_time(Hora,Minuto,Segundo); 
.................... //_-------------------------------------------------------------------------------------------------------------------------------------------------------- 
....................       if(Menu==0){ //Menu de Contrasea. 
*
088C8:  MOVLB  5
088CA:  MOVF   x9A,F
088CC:  BTFSS  FD8.2
088CE:  BRA    8E98
....................        
....................       strcpy(Menus.Letra,"Clave"); 
088D0:  MOVLW  07
088D2:  MOVWF  FEA
088D4:  MOVLW  BD
088D6:  MOVWF  FE9
088D8:  MOVFF  FF2,7DD
088DC:  BCF    FF2.7
088DE:  MOVLW  00
088E0:  MOVLB  0
088E2:  CALL   08B2
088E6:  TBLRD*-
088E8:  TBLRD*+
088EA:  MOVF   FF5,W
088EC:  MOVWF  FEE
088EE:  IORLW  00
088F0:  BNZ   88E8
088F2:  MOVLB  7
088F4:  BTFSC  xDD.7
088F6:  BSF    FF2.7
....................       displayMenu(Menus.Letra,30,0,1,2);      
088F8:  MOVLW  07
088FA:  MOVWF  xE1
088FC:  MOVLW  BD
088FE:  MOVWF  xE0
08900:  MOVLW  1E
08902:  MOVWF  xE2
08904:  CLRF   xE3
08906:  MOVLW  01
08908:  MOVWF  xE4
0890A:  MOVLW  02
0890C:  MOVWF  xE5
0890E:  MOVLB  0
08910:  CALL   1EC0
....................        
....................       if(UP)//Si oprime hacia arriba 
08914:  BSF    F92.5
08916:  BTFSC  F80.5
08918:  BRA    89FC
....................       { 
....................          Buzz_on;delay_ms(10);Buzz_off; 
0891A:  BSF    F8B.4
0891C:  BCF    F94.4
0891E:  MOVLW  0A
08920:  MOVLB  7
08922:  MOVWF  xE3
08924:  MOVLB  0
08926:  CALL   1800
0892A:  BCF    F8B.4
0892C:  BCF    F94.4
....................          delay_ms(200); 
0892E:  MOVLW  C8
08930:  MOVLB  7
08932:  MOVWF  xE3
08934:  MOVLB  0
08936:  CALL   1800
....................          for(i=1;i<=4;i++) 
0893A:  MOVLW  01
0893C:  MOVLB  5
0893E:  MOVWF  x9C
08940:  MOVF   x9C,W
08942:  SUBLW  04
08944:  BNC   89FA
....................          { 
....................             if(unidad==i) 
08946:  MOVF   x9C,W
08948:  SUBWF  x9B,W
0894A:  BNZ   89C2
....................             { 
....................                Contrasena[i-1]++; 
0894C:  MOVLW  01
0894E:  SUBWF  x9C,W
08950:  CLRF   03
08952:  ADDLW  EB
08954:  MOVWF  FE9
08956:  MOVLW  05
08958:  ADDWFC 03,W
0895A:  MOVWF  FEA
0895C:  INCF   FEF,F
....................                if(Contrasena[i-1]>9)    
0895E:  MOVLW  01
08960:  SUBWF  x9C,W
08962:  CLRF   03
08964:  ADDLW  EB
08966:  MOVWF  FE9
08968:  MOVLW  05
0896A:  ADDWFC 03,W
0896C:  MOVWF  FEA
0896E:  BTFSC  FEF.7
08970:  BRA    898A
08972:  MOVF   FEF,W
08974:  SUBLW  09
08976:  BC    898A
....................                { 
....................                   Contrasena[i-1]=0; 
08978:  MOVLW  01
0897A:  SUBWF  x9C,W
0897C:  CLRF   03
0897E:  ADDLW  EB
08980:  MOVWF  FE9
08982:  MOVLW  05
08984:  ADDWFC 03,W
08986:  MOVWF  FEA
08988:  CLRF   FEF
....................                } 
....................                displayContrasena(Contrasena[i-1],i*20,30,1); 
0898A:  MOVLW  01
0898C:  SUBWF  x9C,W
0898E:  CLRF   03
08990:  ADDLW  EB
08992:  MOVWF  FE9
08994:  MOVLW  05
08996:  ADDWFC 03,W
08998:  MOVWF  FEA
0899A:  MOVFF  FEF,7DD
0899E:  MOVF   x9C,W
089A0:  MULLW  14
089A2:  MOVFF  FF3,7DE
089A6:  MOVLB  7
089A8:  MOVFF  7DD,7DF
089AC:  MOVFF  7DE,7E0
089B0:  MOVLW  1E
089B2:  MOVWF  xE1
089B4:  MOVLW  01
089B6:  MOVWF  xE2
089B8:  MOVLB  0
089BA:  CALL   2112
....................             } 
....................             else 
089BE:  BRA    89F4
089C0:  MOVLB  5
....................             { 
....................                displayContrasena(Contrasena[i-1],i*20,30,0); 
089C2:  MOVLW  01
089C4:  SUBWF  x9C,W
089C6:  CLRF   03
089C8:  ADDLW  EB
089CA:  MOVWF  FE9
089CC:  MOVLW  05
089CE:  ADDWFC 03,W
089D0:  MOVWF  FEA
089D2:  MOVFF  FEF,7DD
089D6:  MOVF   x9C,W
089D8:  MULLW  14
089DA:  MOVFF  FF3,7DE
089DE:  MOVLB  7
089E0:  MOVFF  7DD,7DF
089E4:  MOVFF  7DE,7E0
089E8:  MOVLW  1E
089EA:  MOVWF  xE1
089EC:  CLRF   xE2
089EE:  MOVLB  0
089F0:  CALL   2112
....................             } 
....................          } 
089F4:  MOVLB  5
089F6:  INCF   x9C,F
089F8:  BRA    8940
089FA:  MOVLB  0
....................       } 
....................              
....................       if(DOWN)//Si oprime hacia abajo 
089FC:  BSF    F96.0
089FE:  BTFSC  F84.0
08A00:  BRA    8AE2
....................       { 
....................          Buzz_on;delay_ms(10);Buzz_off; 
08A02:  BSF    F8B.4
08A04:  BCF    F94.4
08A06:  MOVLW  0A
08A08:  MOVLB  7
08A0A:  MOVWF  xE3
08A0C:  MOVLB  0
08A0E:  CALL   1800
08A12:  BCF    F8B.4
08A14:  BCF    F94.4
....................          delay_ms(200); 
08A16:  MOVLW  C8
08A18:  MOVLB  7
08A1A:  MOVWF  xE3
08A1C:  MOVLB  0
08A1E:  CALL   1800
....................          for(i=1;i<=4;i++) 
08A22:  MOVLW  01
08A24:  MOVLB  5
08A26:  MOVWF  x9C
08A28:  MOVF   x9C,W
08A2A:  SUBLW  04
08A2C:  BNC   8AE0
....................          { 
....................             if(unidad==i) 
08A2E:  MOVF   x9C,W
08A30:  SUBWF  x9B,W
08A32:  BNZ   8AA8
....................             { 
....................                Contrasena[i-1]--; 
08A34:  MOVLW  01
08A36:  SUBWF  x9C,W
08A38:  CLRF   03
08A3A:  ADDLW  EB
08A3C:  MOVWF  FE9
08A3E:  MOVLW  05
08A40:  ADDWFC 03,W
08A42:  MOVWF  FEA
08A44:  DECF   FEF,F
....................                if(Contrasena[i-1]<0) 
08A46:  MOVLW  01
08A48:  SUBWF  x9C,W
08A4A:  CLRF   03
08A4C:  ADDLW  EB
08A4E:  MOVWF  FE9
08A50:  MOVLW  05
08A52:  ADDWFC 03,W
08A54:  MOVWF  FEA
08A56:  BTFSC  FEF.7
08A58:  BRA    8A5C
08A5A:  BRA    8A70
....................                   {Contrasena[i-1]=9;} 
08A5C:  MOVLW  01
08A5E:  SUBWF  x9C,W
08A60:  CLRF   03
08A62:  ADDLW  EB
08A64:  MOVWF  FE9
08A66:  MOVLW  05
08A68:  ADDWFC 03,W
08A6A:  MOVWF  FEA
08A6C:  MOVLW  09
08A6E:  MOVWF  FEF
....................                displayContrasena(Contrasena[i-1],i*20,30,1);} 
08A70:  MOVLW  01
08A72:  SUBWF  x9C,W
08A74:  CLRF   03
08A76:  ADDLW  EB
08A78:  MOVWF  FE9
08A7A:  MOVLW  05
08A7C:  ADDWFC 03,W
08A7E:  MOVWF  FEA
08A80:  MOVFF  FEF,7DD
08A84:  MOVF   x9C,W
08A86:  MULLW  14
08A88:  MOVFF  FF3,7DE
08A8C:  MOVLB  7
08A8E:  MOVFF  7DD,7DF
08A92:  MOVFF  7DE,7E0
08A96:  MOVLW  1E
08A98:  MOVWF  xE1
08A9A:  MOVLW  01
08A9C:  MOVWF  xE2
08A9E:  MOVLB  0
08AA0:  CALL   2112
....................             else 
08AA4:  BRA    8ADA
08AA6:  MOVLB  5
....................             {displayContrasena(Contrasena[i-1],i*20,30,0);} 
08AA8:  MOVLW  01
08AAA:  SUBWF  x9C,W
08AAC:  CLRF   03
08AAE:  ADDLW  EB
08AB0:  MOVWF  FE9
08AB2:  MOVLW  05
08AB4:  ADDWFC 03,W
08AB6:  MOVWF  FEA
08AB8:  MOVFF  FEF,7DD
08ABC:  MOVF   x9C,W
08ABE:  MULLW  14
08AC0:  MOVFF  FF3,7DE
08AC4:  MOVLB  7
08AC6:  MOVFF  7DD,7DF
08ACA:  MOVFF  7DE,7E0
08ACE:  MOVLW  1E
08AD0:  MOVWF  xE1
08AD2:  CLRF   xE2
08AD4:  MOVLB  0
08AD6:  CALL   2112
....................          }         
08ADA:  MOVLB  5
08ADC:  INCF   x9C,F
08ADE:  BRA    8A28
08AE0:  MOVLB  0
....................       } 
....................              
....................       if(RIGHT)//Si oprime RIGHT 
08AE2:  BSF    F96.1
08AE4:  BTFSC  F84.1
08AE6:  BRA    8B8C
....................       { 
....................          Buzz_on;delay_ms(10);Buzz_off; 
08AE8:  BSF    F8B.4
08AEA:  BCF    F94.4
08AEC:  MOVLW  0A
08AEE:  MOVLB  7
08AF0:  MOVWF  xE3
08AF2:  MOVLB  0
08AF4:  CALL   1800
08AF8:  BCF    F8B.4
08AFA:  BCF    F94.4
....................          delay_ms(200);unidad++; 
08AFC:  MOVLW  C8
08AFE:  MOVLB  7
08B00:  MOVWF  xE3
08B02:  MOVLB  0
08B04:  CALL   1800
08B08:  MOVLB  5
08B0A:  INCF   x9B,F
....................          for(i=1;i<=4;i++) 
08B0C:  MOVLW  01
08B0E:  MOVWF  x9C
08B10:  MOVF   x9C,W
08B12:  SUBLW  04
08B14:  BNC   8B8C
....................          { 
....................             if(unidad==i) 
08B16:  MOVF   x9C,W
08B18:  SUBWF  x9B,W
08B1A:  BNZ   8B54
....................             {displayContrasena(Contrasena[i-1],i*20,30,1);} 
08B1C:  MOVLW  01
08B1E:  SUBWF  x9C,W
08B20:  CLRF   03
08B22:  ADDLW  EB
08B24:  MOVWF  FE9
08B26:  MOVLW  05
08B28:  ADDWFC 03,W
08B2A:  MOVWF  FEA
08B2C:  MOVFF  FEF,7DD
08B30:  MOVF   x9C,W
08B32:  MULLW  14
08B34:  MOVFF  FF3,7DE
08B38:  MOVLB  7
08B3A:  MOVFF  7DD,7DF
08B3E:  MOVFF  7DE,7E0
08B42:  MOVLW  1E
08B44:  MOVWF  xE1
08B46:  MOVLW  01
08B48:  MOVWF  xE2
08B4A:  MOVLB  0
08B4C:  CALL   2112
....................             else 
08B50:  BRA    8B86
08B52:  MOVLB  5
....................             {displayContrasena(Contrasena[i-1],i*20,30,0);} 
08B54:  MOVLW  01
08B56:  SUBWF  x9C,W
08B58:  CLRF   03
08B5A:  ADDLW  EB
08B5C:  MOVWF  FE9
08B5E:  MOVLW  05
08B60:  ADDWFC 03,W
08B62:  MOVWF  FEA
08B64:  MOVFF  FEF,7DD
08B68:  MOVF   x9C,W
08B6A:  MULLW  14
08B6C:  MOVFF  FF3,7DE
08B70:  MOVLB  7
08B72:  MOVFF  7DD,7DF
08B76:  MOVFF  7DE,7E0
08B7A:  MOVLW  1E
08B7C:  MOVWF  xE1
08B7E:  CLRF   xE2
08B80:  MOVLB  0
08B82:  CALL   2112
....................          } 
08B86:  MOVLB  5
08B88:  INCF   x9C,F
08B8A:  BRA    8B10
....................       } 
....................      
....................       if(unidad>4) 
08B8C:  MOVLB  5
08B8E:  MOVF   x9B,W
08B90:  SUBLW  04
08B92:  BTFSC  FD8.0
08B94:  BRA    8E98
....................       {glcd_fillScreen(OFF);unidad=4; 
08B96:  MOVLB  7
08B98:  CLRF   xDE
08B9A:  MOVLB  0
08B9C:  CALL   1880
08BA0:  MOVLW  04
08BA2:  MOVLB  5
08BA4:  MOVWF  x9B
....................          if(Contrasena[0]==3&&Contrasena[1]==8&&Contrasena[2]==9&&Contrasena[3]==2) // Si Ingresa clave para reset general del sistema. 
08BA6:  MOVF   xEB,W
08BA8:  SUBLW  03
08BAA:  BTFSS  FD8.2
08BAC:  BRA    8CA6
08BAE:  MOVF   xEC,W
08BB0:  SUBLW  08
08BB2:  BTFSS  FD8.2
08BB4:  BRA    8CA6
08BB6:  MOVF   xED,W
08BB8:  SUBLW  09
08BBA:  BNZ   8CA6
08BBC:  MOVF   xEE,W
08BBE:  SUBLW  02
08BC0:  BNZ   8CA6
....................             {write_eeprom(260,0);delay_ms(20);write_eeprom(261,0);delay_ms(20);// Reestablece a contrasea de Fabrica y reinicia Programa. 
08BC2:  MOVLW  01
08BC4:  MOVWF  FAA
08BC6:  MOVLW  04
08BC8:  MOVWF  FA9
08BCA:  CLRF   FA8
08BCC:  BCF    FA6.6
08BCE:  BCF    FA6.7
08BD0:  BSF    FA6.2
08BD2:  MOVF   FF2,W
08BD4:  MOVWF  00
08BD6:  BCF    FF2.7
08BD8:  MOVLB  F
08BDA:  MOVLW  55
08BDC:  MOVWF  FA7
08BDE:  MOVLW  AA
08BE0:  MOVWF  FA7
08BE2:  BSF    FA6.1
08BE4:  BTFSC  FA6.1
08BE6:  BRA    8BE4
08BE8:  BCF    FA6.2
08BEA:  MOVF   00,W
08BEC:  IORWF  FF2,F
08BEE:  MOVLW  14
08BF0:  MOVLB  7
08BF2:  MOVWF  xE3
08BF4:  MOVLB  0
08BF6:  CALL   1800
08BFA:  MOVLW  01
08BFC:  MOVWF  FAA
08BFE:  MOVLW  05
08C00:  MOVWF  FA9
08C02:  CLRF   FA8
08C04:  BCF    FA6.6
08C06:  BCF    FA6.7
08C08:  BSF    FA6.2
08C0A:  MOVF   FF2,W
08C0C:  MOVWF  00
08C0E:  BCF    FF2.7
08C10:  MOVLB  F
08C12:  MOVLW  55
08C14:  MOVWF  FA7
08C16:  MOVLW  AA
08C18:  MOVWF  FA7
08C1A:  BSF    FA6.1
08C1C:  BTFSC  FA6.1
08C1E:  BRA    8C1C
08C20:  BCF    FA6.2
08C22:  MOVF   00,W
08C24:  IORWF  FF2,F
08C26:  MOVLW  14
08C28:  MOVLB  7
08C2A:  MOVWF  xE3
08C2C:  MOVLB  0
08C2E:  CALL   1800
....................              write_eeprom(262,0);delay_ms(20);write_eeprom(263,0);delay_ms(20); 
08C32:  MOVLW  01
08C34:  MOVWF  FAA
08C36:  MOVLW  06
08C38:  MOVWF  FA9
08C3A:  CLRF   FA8
08C3C:  BCF    FA6.6
08C3E:  BCF    FA6.7
08C40:  BSF    FA6.2
08C42:  MOVF   FF2,W
08C44:  MOVWF  00
08C46:  BCF    FF2.7
08C48:  MOVLB  F
08C4A:  MOVLW  55
08C4C:  MOVWF  FA7
08C4E:  MOVLW  AA
08C50:  MOVWF  FA7
08C52:  BSF    FA6.1
08C54:  BTFSC  FA6.1
08C56:  BRA    8C54
08C58:  BCF    FA6.2
08C5A:  MOVF   00,W
08C5C:  IORWF  FF2,F
08C5E:  MOVLW  14
08C60:  MOVLB  7
08C62:  MOVWF  xE3
08C64:  MOVLB  0
08C66:  CALL   1800
08C6A:  MOVLW  01
08C6C:  MOVWF  FAA
08C6E:  MOVLW  07
08C70:  MOVWF  FA9
08C72:  CLRF   FA8
08C74:  BCF    FA6.6
08C76:  BCF    FA6.7
08C78:  BSF    FA6.2
08C7A:  MOVF   FF2,W
08C7C:  MOVWF  00
08C7E:  BCF    FF2.7
08C80:  MOVLB  F
08C82:  MOVLW  55
08C84:  MOVWF  FA7
08C86:  MOVLW  AA
08C88:  MOVWF  FA7
08C8A:  BSF    FA6.1
08C8C:  BTFSC  FA6.1
08C8E:  BRA    8C8C
08C90:  BCF    FA6.2
08C92:  MOVF   00,W
08C94:  IORWF  FF2,F
08C96:  MOVLW  14
08C98:  MOVLB  7
08C9A:  MOVWF  xE3
08C9C:  MOVLB  0
08C9E:  CALL   1800
....................              reset_cpu();}         
08CA2:  RESET
08CA4:  MOVLB  5
....................           
....................          if((Contrasena[0]==Password[0])&&(Contrasena[1]==Password[1])&&(Contrasena[2]==Password[2])&&(Contrasena[3]==Password[3])) 
08CA6:  MOVF   xEF,W
08CA8:  SUBWF  xEB,W
08CAA:  BNZ   8D7C
08CAC:  MOVF   xF0,W
08CAE:  SUBWF  xEC,W
08CB0:  BNZ   8D7C
08CB2:  MOVF   xF1,W
08CB4:  SUBWF  xED,W
08CB6:  BNZ   8D7C
08CB8:  MOVF   xF2,W
08CBA:  SUBWF  xEE,W
08CBC:  BNZ   8D7C
....................          { 
....................             glcd_fillScreen(OFF); 
08CBE:  MOVLB  7
08CC0:  CLRF   xDE
08CC2:  MOVLB  0
08CC4:  CALL   1880
....................             strcpy(Menus.Letra,"Clave"); 
08CC8:  MOVLW  07
08CCA:  MOVWF  FEA
08CCC:  MOVLW  BD
08CCE:  MOVWF  FE9
08CD0:  MOVFF  FF2,7DD
08CD4:  BCF    FF2.7
08CD6:  MOVLW  00
08CD8:  CALL   08B2
08CDC:  TBLRD*-
08CDE:  TBLRD*+
08CE0:  MOVF   FF5,W
08CE2:  MOVWF  FEE
08CE4:  IORLW  00
08CE6:  BNZ   8CDE
08CE8:  MOVLB  7
08CEA:  BTFSC  xDD.7
08CEC:  BSF    FF2.7
....................             displayMenu(Menus.Letra,30,0,0,2); 
08CEE:  MOVLW  07
08CF0:  MOVWF  xE1
08CF2:  MOVLW  BD
08CF4:  MOVWF  xE0
08CF6:  MOVLW  1E
08CF8:  MOVWF  xE2
08CFA:  CLRF   xE3
08CFC:  CLRF   xE4
08CFE:  MOVLW  02
08D00:  MOVWF  xE5
08D02:  MOVLB  0
08D04:  CALL   1EC0
....................             strcpy(Menus.Letra,"Correcta"); 
08D08:  MOVLW  07
08D0A:  MOVWF  FEA
08D0C:  MOVLW  BD
08D0E:  MOVWF  FE9
08D10:  MOVFF  FF2,7DD
08D14:  BCF    FF2.7
08D16:  MOVLW  00
08D18:  CALL   08D6
08D1C:  TBLRD*-
08D1E:  TBLRD*+
08D20:  MOVF   FF5,W
08D22:  MOVWF  FEE
08D24:  IORLW  00
08D26:  BNZ   8D1E
08D28:  MOVLB  7
08D2A:  BTFSC  xDD.7
08D2C:  BSF    FF2.7
....................             displayMenu(Menus.Letra,15,30,0,2); 
08D2E:  MOVLW  07
08D30:  MOVWF  xE1
08D32:  MOVLW  BD
08D34:  MOVWF  xE0
08D36:  MOVLW  0F
08D38:  MOVWF  xE2
08D3A:  MOVLW  1E
08D3C:  MOVWF  xE3
08D3E:  CLRF   xE4
08D40:  MOVLW  02
08D42:  MOVWF  xE5
08D44:  MOVLB  0
08D46:  CALL   1EC0
....................             Menu=1;glcd_update();delay_ms(1000); 
08D4A:  MOVLW  01
08D4C:  MOVLB  5
08D4E:  MOVWF  x9A
08D50:  MOVLB  0
08D52:  CALL   18DA
08D56:  MOVLW  04
08D58:  MOVLB  7
08D5A:  MOVWF  xDD
08D5C:  MOVLW  FA
08D5E:  MOVWF  xE3
08D60:  MOVLB  0
08D62:  CALL   1800
08D66:  MOVLB  7
08D68:  DECFSZ xDD,F
08D6A:  BRA    8D5C
....................             glcd_fillScreen(OFF);unidad=1; 
08D6C:  CLRF   xDE
08D6E:  MOVLB  0
08D70:  CALL   1880
08D74:  MOVLW  01
08D76:  MOVLB  5
08D78:  MOVWF  x9B
....................          }// Esta parte se puede agregar en el Menu 1 dependiendo de la ubicacin del vidrio. 
....................          else 
08D7A:  BRA    8E98
....................          { 
....................             glcd_fillScreen(OFF); 
08D7C:  MOVLB  7
08D7E:  CLRF   xDE
08D80:  MOVLB  0
08D82:  CALL   1880
....................             strcpy(Menus.Letra,"Clave"); 
08D86:  MOVLW  07
08D88:  MOVWF  FEA
08D8A:  MOVLW  BD
08D8C:  MOVWF  FE9
08D8E:  MOVFF  FF2,7DD
08D92:  BCF    FF2.7
08D94:  MOVLW  00
08D96:  CALL   08B2
08D9A:  TBLRD*-
08D9C:  TBLRD*+
08D9E:  MOVF   FF5,W
08DA0:  MOVWF  FEE
08DA2:  IORLW  00
08DA4:  BNZ   8D9C
08DA6:  MOVLB  7
08DA8:  BTFSC  xDD.7
08DAA:  BSF    FF2.7
....................             displayMenu(Menus.Letra,30,0,0,2); 
08DAC:  MOVLW  07
08DAE:  MOVWF  xE1
08DB0:  MOVLW  BD
08DB2:  MOVWF  xE0
08DB4:  MOVLW  1E
08DB6:  MOVWF  xE2
08DB8:  CLRF   xE3
08DBA:  CLRF   xE4
08DBC:  MOVLW  02
08DBE:  MOVWF  xE5
08DC0:  MOVLB  0
08DC2:  CALL   1EC0
....................             strcpy(Menus.Letra,"Incorrecta"); 
08DC6:  MOVLW  07
08DC8:  MOVWF  FEA
08DCA:  MOVLW  BD
08DCC:  MOVWF  FE9
08DCE:  MOVFF  FF2,7DD
08DD2:  BCF    FF2.7
08DD4:  MOVLW  00
08DD6:  CALL   08FE
08DDA:  TBLRD*-
08DDC:  TBLRD*+
08DDE:  MOVF   FF5,W
08DE0:  MOVWF  FEE
08DE2:  IORLW  00
08DE4:  BNZ   8DDC
08DE6:  MOVLB  7
08DE8:  BTFSC  xDD.7
08DEA:  BSF    FF2.7
....................             displayMenu(Menus.Letra,0,30,0,2); 
08DEC:  MOVLW  07
08DEE:  MOVWF  xE1
08DF0:  MOVLW  BD
08DF2:  MOVWF  xE0
08DF4:  CLRF   xE2
08DF6:  MOVLW  1E
08DF8:  MOVWF  xE3
08DFA:  CLRF   xE4
08DFC:  MOVLW  02
08DFE:  MOVWF  xE5
08E00:  MOVLB  0
08E02:  CALL   1EC0
....................             Menu=0;glcd_update();delay_ms(1000); 
08E06:  MOVLB  5
08E08:  CLRF   x9A
08E0A:  MOVLB  0
08E0C:  CALL   18DA
08E10:  MOVLW  04
08E12:  MOVLB  7
08E14:  MOVWF  xDD
08E16:  MOVLW  FA
08E18:  MOVWF  xE3
08E1A:  MOVLB  0
08E1C:  CALL   1800
08E20:  MOVLB  7
08E22:  DECFSZ xDD,F
08E24:  BRA    8E16
....................             glcd_fillScreen(OFF);unidad=1; 
08E26:  CLRF   xDE
08E28:  MOVLB  0
08E2A:  CALL   1880
08E2E:  MOVLW  01
08E30:  MOVLB  5
08E32:  MOVWF  x9B
....................             Contrasena[0]=0;Contrasena[1]=0;Contrasena[2]=0;Contrasena[3]=0; 
08E34:  CLRF   xEB
08E36:  CLRF   xEC
08E38:  CLRF   xED
08E3A:  CLRF   xEE
....................             displayContrasena(Contrasena[0],20,30,1); 
08E3C:  MOVFF  5EB,7DF
08E40:  MOVLW  14
08E42:  MOVLB  7
08E44:  MOVWF  xE0
08E46:  MOVLW  1E
08E48:  MOVWF  xE1
08E4A:  MOVLW  01
08E4C:  MOVWF  xE2
08E4E:  MOVLB  0
08E50:  CALL   2112
....................             displayContrasena(Contrasena[1],40,30,0); 
08E54:  MOVFF  5EC,7DF
08E58:  MOVLW  28
08E5A:  MOVLB  7
08E5C:  MOVWF  xE0
08E5E:  MOVLW  1E
08E60:  MOVWF  xE1
08E62:  CLRF   xE2
08E64:  MOVLB  0
08E66:  CALL   2112
....................             displayContrasena(Contrasena[2],60,30,0); 
08E6A:  MOVFF  5ED,7DF
08E6E:  MOVLW  3C
08E70:  MOVLB  7
08E72:  MOVWF  xE0
08E74:  MOVLW  1E
08E76:  MOVWF  xE1
08E78:  CLRF   xE2
08E7A:  MOVLB  0
08E7C:  CALL   2112
....................             displayContrasena(Contrasena[3],80,30,0); 
08E80:  MOVFF  5EE,7DF
08E84:  MOVLW  50
08E86:  MOVLB  7
08E88:  MOVWF  xE0
08E8A:  MOVLW  1E
08E8C:  MOVWF  xE1
08E8E:  CLRF   xE2
08E90:  MOVLB  0
08E92:  CALL   2112
08E96:  MOVLB  5
....................          } 
....................       } 
....................     } 
.................... //_--------------------------------------------------------------------------------------------------------------------------------------------------------        
....................  
....................  
.................... //_-------------------------------------------------------------------------------------------------------------------------------------------------------- 
....................       if(Menu==1){ //Menu Principal.       
08E98:  DECFSZ x9A,W
08E9A:  BRA    943A
....................        
....................          if(Opcion>7) 
08E9C:  MOVF   xA1,W
08E9E:  SUBLW  07
08EA0:  BC    8EA6
....................          {Opcion=1;} 
08EA2:  MOVLW  01
08EA4:  MOVWF  xA1
....................          if(Opcion<1) 
08EA6:  MOVF   xA1,F
08EA8:  BNZ   8EAE
....................          {Opcion=7;} 
08EAA:  MOVLW  07
08EAC:  MOVWF  xA1
....................           
....................          strcpy(Menus.Letra,"Menu"); 
08EAE:  MOVLW  07
08EB0:  MOVWF  FEA
08EB2:  MOVLW  BD
08EB4:  MOVWF  FE9
08EB6:  MOVFF  FF2,7DD
08EBA:  BCF    FF2.7
08EBC:  MOVLW  00
08EBE:  MOVLB  0
08EC0:  CALL   0928
08EC4:  TBLRD*-
08EC6:  TBLRD*+
08EC8:  MOVF   FF5,W
08ECA:  MOVWF  FEE
08ECC:  IORLW  00
08ECE:  BNZ   8EC6
08ED0:  MOVLB  7
08ED2:  BTFSC  xDD.7
08ED4:  BSF    FF2.7
....................          displayMenu(Menus.Letra,30,0,1,2); 
08ED6:  MOVLW  07
08ED8:  MOVWF  xE1
08EDA:  MOVLW  BD
08EDC:  MOVWF  xE0
08EDE:  MOVLW  1E
08EE0:  MOVWF  xE2
08EE2:  CLRF   xE3
08EE4:  MOVLW  01
08EE6:  MOVWF  xE4
08EE8:  MOVLW  02
08EEA:  MOVWF  xE5
08EEC:  MOVLB  0
08EEE:  CALL   1EC0
....................        
....................          if(Opcion<=5) 
08EF2:  MOVLB  5
08EF4:  MOVF   xA1,W
08EF6:  SUBLW  05
08EF8:  BTFSS  FD8.0
08EFA:  BRA    91CC
....................          { 
....................             if(Opcion==1)    
08EFC:  DECFSZ xA1,W
08EFE:  BRA    8F46
....................                {strcpy(Menus.Letra,"Iniciar Programa"); 
08F00:  MOVLW  07
08F02:  MOVWF  FEA
08F04:  MOVLW  BD
08F06:  MOVWF  FE9
08F08:  MOVFF  FF2,7DD
08F0C:  BCF    FF2.7
08F0E:  MOVLW  00
08F10:  MOVLB  0
08F12:  CALL   094C
08F16:  TBLRD*-
08F18:  TBLRD*+
08F1A:  MOVF   FF5,W
08F1C:  MOVWF  FEE
08F1E:  IORLW  00
08F20:  BNZ   8F18
08F22:  MOVLB  7
08F24:  BTFSC  xDD.7
08F26:  BSF    FF2.7
....................                displayMenu(Menus.Letra,0,18,1,1);} 
08F28:  MOVLW  07
08F2A:  MOVWF  xE1
08F2C:  MOVLW  BD
08F2E:  MOVWF  xE0
08F30:  CLRF   xE2
08F32:  MOVLW  12
08F34:  MOVWF  xE3
08F36:  MOVLW  01
08F38:  MOVWF  xE4
08F3A:  MOVWF  xE5
08F3C:  MOVLB  0
08F3E:  CALL   1EC0
....................             else 
08F42:  BRA    8F88
08F44:  MOVLB  5
....................                {strcpy(Menus.Letra,"Iniciar Programa"); 
08F46:  MOVLW  07
08F48:  MOVWF  FEA
08F4A:  MOVLW  BD
08F4C:  MOVWF  FE9
08F4E:  MOVFF  FF2,7DD
08F52:  BCF    FF2.7
08F54:  MOVLW  00
08F56:  MOVLB  0
08F58:  CALL   094C
08F5C:  TBLRD*-
08F5E:  TBLRD*+
08F60:  MOVF   FF5,W
08F62:  MOVWF  FEE
08F64:  IORLW  00
08F66:  BNZ   8F5E
08F68:  MOVLB  7
08F6A:  BTFSC  xDD.7
08F6C:  BSF    FF2.7
....................                displayMenu(Menus.Letra,0,18,0,1);} 
08F6E:  MOVLW  07
08F70:  MOVWF  xE1
08F72:  MOVLW  BD
08F74:  MOVWF  xE0
08F76:  CLRF   xE2
08F78:  MOVLW  12
08F7A:  MOVWF  xE3
08F7C:  CLRF   xE4
08F7E:  MOVLW  01
08F80:  MOVWF  xE5
08F82:  MOVLB  0
08F84:  CALL   1EC0
....................              
....................             if(Opcion==2)    
08F88:  MOVLB  5
08F8A:  MOVF   xA1,W
08F8C:  SUBLW  02
08F8E:  BNZ   8FD6
....................                {strcpy(Menus.Letra,"Editar Programa"); 
08F90:  MOVLW  07
08F92:  MOVWF  FEA
08F94:  MOVLW  BD
08F96:  MOVWF  FE9
08F98:  MOVFF  FF2,7DD
08F9C:  BCF    FF2.7
08F9E:  MOVLW  00
08FA0:  MOVLB  0
08FA2:  CALL   097C
08FA6:  TBLRD*-
08FA8:  TBLRD*+
08FAA:  MOVF   FF5,W
08FAC:  MOVWF  FEE
08FAE:  IORLW  00
08FB0:  BNZ   8FA8
08FB2:  MOVLB  7
08FB4:  BTFSC  xDD.7
08FB6:  BSF    FF2.7
....................                displayMenu(Menus.Letra,0,27,1,1);} 
08FB8:  MOVLW  07
08FBA:  MOVWF  xE1
08FBC:  MOVLW  BD
08FBE:  MOVWF  xE0
08FC0:  CLRF   xE2
08FC2:  MOVLW  1B
08FC4:  MOVWF  xE3
08FC6:  MOVLW  01
08FC8:  MOVWF  xE4
08FCA:  MOVWF  xE5
08FCC:  MOVLB  0
08FCE:  CALL   1EC0
....................             else 
08FD2:  BRA    9018
08FD4:  MOVLB  5
....................                {strcpy(Menus.Letra,"Editar Programa"); 
08FD6:  MOVLW  07
08FD8:  MOVWF  FEA
08FDA:  MOVLW  BD
08FDC:  MOVWF  FE9
08FDE:  MOVFF  FF2,7DD
08FE2:  BCF    FF2.7
08FE4:  MOVLW  00
08FE6:  MOVLB  0
08FE8:  CALL   097C
08FEC:  TBLRD*-
08FEE:  TBLRD*+
08FF0:  MOVF   FF5,W
08FF2:  MOVWF  FEE
08FF4:  IORLW  00
08FF6:  BNZ   8FEE
08FF8:  MOVLB  7
08FFA:  BTFSC  xDD.7
08FFC:  BSF    FF2.7
....................                displayMenu(Menus.Letra,0,27,0,1);} 
08FFE:  MOVLW  07
09000:  MOVWF  xE1
09002:  MOVLW  BD
09004:  MOVWF  xE0
09006:  CLRF   xE2
09008:  MOVLW  1B
0900A:  MOVWF  xE3
0900C:  CLRF   xE4
0900E:  MOVLW  01
09010:  MOVWF  xE5
09012:  MOVLB  0
09014:  CALL   1EC0
....................                 
....................             if(Opcion==3)    
09018:  MOVLB  5
0901A:  MOVF   xA1,W
0901C:  SUBLW  03
0901E:  BNZ   9066
....................                {strcpy(Menus.Letra,"Borrar Programa"); 
09020:  MOVLW  07
09022:  MOVWF  FEA
09024:  MOVLW  BD
09026:  MOVWF  FE9
09028:  MOVFF  FF2,7DD
0902C:  BCF    FF2.7
0902E:  MOVLW  00
09030:  MOVLB  0
09032:  CALL   09AA
09036:  TBLRD*-
09038:  TBLRD*+
0903A:  MOVF   FF5,W
0903C:  MOVWF  FEE
0903E:  IORLW  00
09040:  BNZ   9038
09042:  MOVLB  7
09044:  BTFSC  xDD.7
09046:  BSF    FF2.7
....................                displayMenu(Menus.Letra,0,36,1,1);} 
09048:  MOVLW  07
0904A:  MOVWF  xE1
0904C:  MOVLW  BD
0904E:  MOVWF  xE0
09050:  CLRF   xE2
09052:  MOVLW  24
09054:  MOVWF  xE3
09056:  MOVLW  01
09058:  MOVWF  xE4
0905A:  MOVWF  xE5
0905C:  MOVLB  0
0905E:  CALL   1EC0
....................             else 
09062:  BRA    90A8
09064:  MOVLB  5
....................                {strcpy(Menus.Letra,"Borrar Programa"); 
09066:  MOVLW  07
09068:  MOVWF  FEA
0906A:  MOVLW  BD
0906C:  MOVWF  FE9
0906E:  MOVFF  FF2,7DD
09072:  BCF    FF2.7
09074:  MOVLW  00
09076:  MOVLB  0
09078:  CALL   09AA
0907C:  TBLRD*-
0907E:  TBLRD*+
09080:  MOVF   FF5,W
09082:  MOVWF  FEE
09084:  IORLW  00
09086:  BNZ   907E
09088:  MOVLB  7
0908A:  BTFSC  xDD.7
0908C:  BSF    FF2.7
....................                displayMenu(Menus.Letra,0,36,0,1);}    
0908E:  MOVLW  07
09090:  MOVWF  xE1
09092:  MOVLW  BD
09094:  MOVWF  xE0
09096:  CLRF   xE2
09098:  MOVLW  24
0909A:  MOVWF  xE3
0909C:  CLRF   xE4
0909E:  MOVLW  01
090A0:  MOVWF  xE5
090A2:  MOVLB  0
090A4:  CALL   1EC0
....................                             
....................             if(Opcion==4)    
090A8:  MOVLB  5
090AA:  MOVF   xA1,W
090AC:  SUBLW  04
090AE:  BNZ   90F6
....................                {strcpy(Menus.Letra,"Ajustes"); 
090B0:  MOVLW  07
090B2:  MOVWF  FEA
090B4:  MOVLW  BD
090B6:  MOVWF  FE9
090B8:  MOVFF  FF2,7DD
090BC:  BCF    FF2.7
090BE:  MOVLW  00
090C0:  MOVLB  0
090C2:  CALL   09D8
090C6:  TBLRD*-
090C8:  TBLRD*+
090CA:  MOVF   FF5,W
090CC:  MOVWF  FEE
090CE:  IORLW  00
090D0:  BNZ   90C8
090D2:  MOVLB  7
090D4:  BTFSC  xDD.7
090D6:  BSF    FF2.7
....................                displayMenu(Menus.Letra,0,45,1,1);} 
090D8:  MOVLW  07
090DA:  MOVWF  xE1
090DC:  MOVLW  BD
090DE:  MOVWF  xE0
090E0:  CLRF   xE2
090E2:  MOVLW  2D
090E4:  MOVWF  xE3
090E6:  MOVLW  01
090E8:  MOVWF  xE4
090EA:  MOVWF  xE5
090EC:  MOVLB  0
090EE:  CALL   1EC0
....................             else 
090F2:  BRA    9138
090F4:  MOVLB  5
....................                {strcpy(Menus.Letra,"Ajustes"); 
090F6:  MOVLW  07
090F8:  MOVWF  FEA
090FA:  MOVLW  BD
090FC:  MOVWF  FE9
090FE:  MOVFF  FF2,7DD
09102:  BCF    FF2.7
09104:  MOVLW  00
09106:  MOVLB  0
09108:  CALL   09D8
0910C:  TBLRD*-
0910E:  TBLRD*+
09110:  MOVF   FF5,W
09112:  MOVWF  FEE
09114:  IORLW  00
09116:  BNZ   910E
09118:  MOVLB  7
0911A:  BTFSC  xDD.7
0911C:  BSF    FF2.7
....................                displayMenu(Menus.Letra,0,45,0,1);}      
0911E:  MOVLW  07
09120:  MOVWF  xE1
09122:  MOVLW  BD
09124:  MOVWF  xE0
09126:  CLRF   xE2
09128:  MOVLW  2D
0912A:  MOVWF  xE3
0912C:  CLRF   xE4
0912E:  MOVLW  01
09130:  MOVWF  xE5
09132:  MOVLB  0
09134:  CALL   1EC0
....................              
....................             if(Opcion==5)    
09138:  MOVLB  5
0913A:  MOVF   xA1,W
0913C:  SUBLW  05
0913E:  BNZ   9186
....................                {strcpy(Menus.Letra,"Cambio Clave"); 
09140:  MOVLW  07
09142:  MOVWF  FEA
09144:  MOVLW  BD
09146:  MOVWF  FE9
09148:  MOVFF  FF2,7DD
0914C:  BCF    FF2.7
0914E:  MOVLW  00
09150:  MOVLB  0
09152:  CALL   09FE
09156:  TBLRD*-
09158:  TBLRD*+
0915A:  MOVF   FF5,W
0915C:  MOVWF  FEE
0915E:  IORLW  00
09160:  BNZ   9158
09162:  MOVLB  7
09164:  BTFSC  xDD.7
09166:  BSF    FF2.7
....................                displayMenu(Menus.Letra,0,54,1,1);} 
09168:  MOVLW  07
0916A:  MOVWF  xE1
0916C:  MOVLW  BD
0916E:  MOVWF  xE0
09170:  CLRF   xE2
09172:  MOVLW  36
09174:  MOVWF  xE3
09176:  MOVLW  01
09178:  MOVWF  xE4
0917A:  MOVWF  xE5
0917C:  MOVLB  0
0917E:  CALL   1EC0
....................             else 
09182:  BRA    91C8
09184:  MOVLB  5
....................                {strcpy(Menus.Letra,"Cambio Clave"); 
09186:  MOVLW  07
09188:  MOVWF  FEA
0918A:  MOVLW  BD
0918C:  MOVWF  FE9
0918E:  MOVFF  FF2,7DD
09192:  BCF    FF2.7
09194:  MOVLW  00
09196:  MOVLB  0
09198:  CALL   09FE
0919C:  TBLRD*-
0919E:  TBLRD*+
091A0:  MOVF   FF5,W
091A2:  MOVWF  FEE
091A4:  IORLW  00
091A6:  BNZ   919E
091A8:  MOVLB  7
091AA:  BTFSC  xDD.7
091AC:  BSF    FF2.7
....................                displayMenu(Menus.Letra,0,54,0,1);}      
091AE:  MOVLW  07
091B0:  MOVWF  xE1
091B2:  MOVLW  BD
091B4:  MOVWF  xE0
091B6:  CLRF   xE2
091B8:  MOVLW  36
091BA:  MOVWF  xE3
091BC:  CLRF   xE4
091BE:  MOVLW  01
091C0:  MOVWF  xE5
091C2:  MOVLB  0
091C4:  CALL   1EC0
....................          }else{ 
091C8:  BRA    93AA
091CA:  MOVLB  5
....................             if(Opcion==6)    
091CC:  MOVF   xA1,W
091CE:  SUBLW  06
091D0:  BNZ   9218
....................                {strcpy(Menus.Letra,"Fecha y Hora"); 
091D2:  MOVLW  07
091D4:  MOVWF  FEA
091D6:  MOVLW  BD
091D8:  MOVWF  FE9
091DA:  MOVFF  FF2,7DD
091DE:  BCF    FF2.7
091E0:  MOVLW  00
091E2:  MOVLB  0
091E4:  CALL   0A2A
091E8:  TBLRD*-
091EA:  TBLRD*+
091EC:  MOVF   FF5,W
091EE:  MOVWF  FEE
091F0:  IORLW  00
091F2:  BNZ   91EA
091F4:  MOVLB  7
091F6:  BTFSC  xDD.7
091F8:  BSF    FF2.7
....................                displayMenu(Menus.Letra,0,18,1,1);} 
091FA:  MOVLW  07
091FC:  MOVWF  xE1
091FE:  MOVLW  BD
09200:  MOVWF  xE0
09202:  CLRF   xE2
09204:  MOVLW  12
09206:  MOVWF  xE3
09208:  MOVLW  01
0920A:  MOVWF  xE4
0920C:  MOVWF  xE5
0920E:  MOVLB  0
09210:  CALL   1EC0
....................             else 
09214:  BRA    925A
09216:  MOVLB  5
....................                {strcpy(Menus.Letra,"Fecha y Hora"); 
09218:  MOVLW  07
0921A:  MOVWF  FEA
0921C:  MOVLW  BD
0921E:  MOVWF  FE9
09220:  MOVFF  FF2,7DD
09224:  BCF    FF2.7
09226:  MOVLW  00
09228:  MOVLB  0
0922A:  CALL   0A2A
0922E:  TBLRD*-
09230:  TBLRD*+
09232:  MOVF   FF5,W
09234:  MOVWF  FEE
09236:  IORLW  00
09238:  BNZ   9230
0923A:  MOVLB  7
0923C:  BTFSC  xDD.7
0923E:  BSF    FF2.7
....................                displayMenu(Menus.Letra,0,18,0,1);} 
09240:  MOVLW  07
09242:  MOVWF  xE1
09244:  MOVLW  BD
09246:  MOVWF  xE0
09248:  CLRF   xE2
0924A:  MOVLW  12
0924C:  MOVWF  xE3
0924E:  CLRF   xE4
09250:  MOVLW  01
09252:  MOVWF  xE5
09254:  MOVLB  0
09256:  CALL   1EC0
....................              
....................             if(Opcion==7)    
0925A:  MOVLB  5
0925C:  MOVF   xA1,W
0925E:  SUBLW  07
09260:  BNZ   92A8
....................                {strcpy(Menus.Letra,"Ajustes Impresora"); 
09262:  MOVLW  07
09264:  MOVWF  FEA
09266:  MOVLW  BD
09268:  MOVWF  FE9
0926A:  MOVFF  FF2,7DD
0926E:  BCF    FF2.7
09270:  MOVLW  00
09272:  MOVLB  0
09274:  CALL   0A56
09278:  TBLRD*-
0927A:  TBLRD*+
0927C:  MOVF   FF5,W
0927E:  MOVWF  FEE
09280:  IORLW  00
09282:  BNZ   927A
09284:  MOVLB  7
09286:  BTFSC  xDD.7
09288:  BSF    FF2.7
....................                displayMenu(Menus.Letra,0,27,1,1);} 
0928A:  MOVLW  07
0928C:  MOVWF  xE1
0928E:  MOVLW  BD
09290:  MOVWF  xE0
09292:  CLRF   xE2
09294:  MOVLW  1B
09296:  MOVWF  xE3
09298:  MOVLW  01
0929A:  MOVWF  xE4
0929C:  MOVWF  xE5
0929E:  MOVLB  0
092A0:  CALL   1EC0
....................             else 
092A4:  BRA    92EA
092A6:  MOVLB  5
....................                {strcpy(Menus.Letra,"Ajustes Impresora"); 
092A8:  MOVLW  07
092AA:  MOVWF  FEA
092AC:  MOVLW  BD
092AE:  MOVWF  FE9
092B0:  MOVFF  FF2,7DD
092B4:  BCF    FF2.7
092B6:  MOVLW  00
092B8:  MOVLB  0
092BA:  CALL   0A56
092BE:  TBLRD*-
092C0:  TBLRD*+
092C2:  MOVF   FF5,W
092C4:  MOVWF  FEE
092C6:  IORLW  00
092C8:  BNZ   92C0
092CA:  MOVLB  7
092CC:  BTFSC  xDD.7
092CE:  BSF    FF2.7
....................                displayMenu(Menus.Letra,0,27,0,1);} 
092D0:  MOVLW  07
092D2:  MOVWF  xE1
092D4:  MOVLW  BD
092D6:  MOVWF  xE0
092D8:  CLRF   xE2
092DA:  MOVLW  1B
092DC:  MOVWF  xE3
092DE:  CLRF   xE4
092E0:  MOVLW  01
092E2:  MOVWF  xE5
092E4:  MOVLB  0
092E6:  CALL   1EC0
....................                 
....................                strcpy(Menus.Letra,"           "); 
092EA:  MOVLW  07
092EC:  MOVWF  FEA
092EE:  MOVLW  BD
092F0:  MOVWF  FE9
092F2:  MOVFF  FF2,7DD
092F6:  BCF    FF2.7
092F8:  MOVLW  00
092FA:  CALL   0A86
092FE:  TBLRD*-
09300:  TBLRD*+
09302:  MOVF   FF5,W
09304:  MOVWF  FEE
09306:  IORLW  00
09308:  BNZ   9300
0930A:  MOVLB  7
0930C:  BTFSC  xDD.7
0930E:  BSF    FF2.7
....................                displayMenu(Menus.Letra,0,36,0,1); 
09310:  MOVLW  07
09312:  MOVWF  xE1
09314:  MOVLW  BD
09316:  MOVWF  xE0
09318:  CLRF   xE2
0931A:  MOVLW  24
0931C:  MOVWF  xE3
0931E:  CLRF   xE4
09320:  MOVLW  01
09322:  MOVWF  xE5
09324:  MOVLB  0
09326:  CALL   1EC0
....................                 
....................                strcpy(Menus.Letra,"           "); 
0932A:  MOVLW  07
0932C:  MOVWF  FEA
0932E:  MOVLW  BD
09330:  MOVWF  FE9
09332:  MOVFF  FF2,7DD
09336:  BCF    FF2.7
09338:  MOVLW  00
0933A:  CALL   0A86
0933E:  TBLRD*-
09340:  TBLRD*+
09342:  MOVF   FF5,W
09344:  MOVWF  FEE
09346:  IORLW  00
09348:  BNZ   9340
0934A:  MOVLB  7
0934C:  BTFSC  xDD.7
0934E:  BSF    FF2.7
....................                displayMenu(Menus.Letra,0,45,0,1); 
09350:  MOVLW  07
09352:  MOVWF  xE1
09354:  MOVLW  BD
09356:  MOVWF  xE0
09358:  CLRF   xE2
0935A:  MOVLW  2D
0935C:  MOVWF  xE3
0935E:  CLRF   xE4
09360:  MOVLW  01
09362:  MOVWF  xE5
09364:  MOVLB  0
09366:  CALL   1EC0
....................                 
....................                strcpy(Menus.Letra,"           "); 
0936A:  MOVLW  07
0936C:  MOVWF  FEA
0936E:  MOVLW  BD
09370:  MOVWF  FE9
09372:  MOVFF  FF2,7DD
09376:  BCF    FF2.7
09378:  MOVLW  00
0937A:  CALL   0A86
0937E:  TBLRD*-
09380:  TBLRD*+
09382:  MOVF   FF5,W
09384:  MOVWF  FEE
09386:  IORLW  00
09388:  BNZ   9380
0938A:  MOVLB  7
0938C:  BTFSC  xDD.7
0938E:  BSF    FF2.7
....................                displayMenu(Menus.Letra,0,54,0,1); 
09390:  MOVLW  07
09392:  MOVWF  xE1
09394:  MOVLW  BD
09396:  MOVWF  xE0
09398:  CLRF   xE2
0939A:  MOVLW  36
0939C:  MOVWF  xE3
0939E:  CLRF   xE4
093A0:  MOVLW  01
093A2:  MOVWF  xE5
093A4:  MOVLB  0
093A6:  CALL   1EC0
....................          } 
....................              
....................          if(UP)//Si oprime hacia arriba 
093AA:  BSF    F92.5
093AC:  BTFSC  F80.5
093AE:  BRA    93CA
....................          { 
....................             Buzz_on;delay_ms(30);Opcion--;Buzz_off; 
093B0:  BSF    F8B.4
093B2:  BCF    F94.4
093B4:  MOVLW  1E
093B6:  MOVLB  7
093B8:  MOVWF  xE3
093BA:  MOVLB  0
093BC:  CALL   1800
093C0:  MOVLB  5
093C2:  DECF   xA1,F
093C4:  BCF    F8B.4
093C6:  BCF    F94.4
093C8:  MOVLB  0
....................          } 
....................                    
....................          if(DOWN)//Si oprime hacia abajo 
093CA:  BSF    F96.0
093CC:  BTFSC  F84.0
093CE:  BRA    93EA
....................          { 
....................             Buzz_on;delay_ms(30);Opcion++; Buzz_off; 
093D0:  BSF    F8B.4
093D2:  BCF    F94.4
093D4:  MOVLW  1E
093D6:  MOVLB  7
093D8:  MOVWF  xE3
093DA:  MOVLB  0
093DC:  CALL   1800
093E0:  MOVLB  5
093E2:  INCF   xA1,F
093E4:  BCF    F8B.4
093E6:  BCF    F94.4
093E8:  MOVLB  0
....................          } 
....................                 
....................          if(RIGHT)//Si oprime SET 
093EA:  BSF    F96.1
093EC:  BTFSC  F84.1
093EE:  BRA    943C
....................          {  
....................             Buzz_on;delay_ms(50);Menu=Opcion+3;Opcion=1;glcd_fillscreen(OFF);Buzz_off; 
093F0:  BSF    F8B.4
093F2:  BCF    F94.4
093F4:  MOVLW  32
093F6:  MOVLB  7
093F8:  MOVWF  xE3
093FA:  MOVLB  0
093FC:  CALL   1800
09400:  MOVLW  03
09402:  MOVLB  5
09404:  ADDWF  xA1,W
09406:  MOVWF  x9A
09408:  MOVLW  01
0940A:  MOVWF  xA1
0940C:  MOVLB  7
0940E:  CLRF   xDE
09410:  MOVLB  0
09412:  CALL   1880
09416:  BCF    F8B.4
09418:  BCF    F94.4
....................             if(Menu==7) 
0941A:  MOVLB  5
0941C:  MOVF   x9A,W
0941E:  SUBLW  07
09420:  BNZ   9426
....................                Menu=100; 
09422:  MOVLW  64
09424:  MOVWF  x9A
....................             DiaTx=Dia; 
09426:  MOVFF  795,79E
....................             MesTx=Mes; 
0942A:  MOVFF  79A,79D
....................             YearTx=Year; 
0942E:  MOVFF  793,79C
....................             HoraTx=Hora; 
09432:  MOVFF  796,79F
....................             MinutoTx=Minuto;    
09436:  MOVFF  797,7A0
0943A:  MOVLB  0
....................          } 
....................        
....................  
....................    } 
.................... //_--------------------------------------------------------------------------------------------------------------------------------------------------------        
....................  
.................... //_-------------------------------------------------------------------------------------------------------------------------------------------------------- 
....................       if(Menu==4){ //Menu de Continuar 
0943C:  MOVLB  5
0943E:  MOVF   x9A,W
09440:  SUBLW  04
09442:  BTFSS  FD8.2
09444:  GOTO   9C44
....................        
....................       if(Opcion>5) 
09448:  MOVF   xA1,W
0944A:  SUBLW  05
0944C:  BC    9452
....................          Opcion=1; 
0944E:  MOVLW  01
09450:  MOVWF  xA1
....................           
....................       if(Opcion<1) 
09452:  MOVF   xA1,F
09454:  BNZ   945A
....................          Opcion=5; 
09456:  MOVLW  05
09458:  MOVWF  xA1
....................        
....................          strcpy(Menus.Letra,"Seleccione"); 
0945A:  MOVLW  07
0945C:  MOVWF  FEA
0945E:  MOVLW  BD
09460:  MOVWF  FE9
09462:  MOVFF  FF2,7DD
09466:  BCF    FF2.7
09468:  MOVLW  00
0946A:  MOVLB  0
0946C:  CALL   0AB0
09470:  TBLRD*-
09472:  TBLRD*+
09474:  MOVF   FF5,W
09476:  MOVWF  FEE
09478:  IORLW  00
0947A:  BNZ   9472
0947C:  MOVLB  7
0947E:  BTFSC  xDD.7
09480:  BSF    FF2.7
....................          displayMenu(Menus.Letra,0,0,1,2); 
09482:  MOVLW  07
09484:  MOVWF  xE1
09486:  MOVLW  BD
09488:  MOVWF  xE0
0948A:  CLRF   xE2
0948C:  CLRF   xE3
0948E:  MOVLW  01
09490:  MOVWF  xE4
09492:  MOVLW  02
09494:  MOVWF  xE5
09496:  MOVLB  0
09498:  CALL   1EC0
....................           
....................          strcpy(Menus.Letra," Programa"); 
0949C:  MOVLW  07
0949E:  MOVWF  FEA
094A0:  MOVLW  BD
094A2:  MOVWF  FE9
094A4:  MOVFF  FF2,7DD
094A8:  BCF    FF2.7
094AA:  MOVLW  00
094AC:  CALL   0ADA
094B0:  TBLRD*-
094B2:  TBLRD*+
094B4:  MOVF   FF5,W
094B6:  MOVWF  FEE
094B8:  IORLW  00
094BA:  BNZ   94B2
094BC:  MOVLB  7
094BE:  BTFSC  xDD.7
094C0:  BSF    FF2.7
....................          displayMenu(Menus.Letra,0,16,1,2); 
094C2:  MOVLW  07
094C4:  MOVWF  xE1
094C6:  MOVLW  BD
094C8:  MOVWF  xE0
094CA:  CLRF   xE2
094CC:  MOVLW  10
094CE:  MOVWF  xE3
094D0:  MOVLW  01
094D2:  MOVWF  xE4
094D4:  MOVLW  02
094D6:  MOVWF  xE5
094D8:  MOVLB  0
094DA:  CALL   1EC0
....................            
....................           
....................          if(Opcion==1) 
094DE:  MOVLB  5
094E0:  DECFSZ xA1,W
094E2:  BRA    9528
....................          { 
....................             strcpy(Menus.Letra,"Programa 01"); 
094E4:  MOVLW  07
094E6:  MOVWF  FEA
094E8:  MOVLW  BD
094EA:  MOVWF  FE9
094EC:  MOVFF  FF2,7DD
094F0:  BCF    FF2.7
094F2:  MOVLW  00
094F4:  MOVLB  0
094F6:  CALL   0B02
094FA:  TBLRD*-
094FC:  TBLRD*+
094FE:  MOVF   FF5,W
09500:  MOVWF  FEE
09502:  IORLW  00
09504:  BNZ   94FC
09506:  MOVLB  7
09508:  BTFSC  xDD.7
0950A:  BSF    FF2.7
....................             displayMenu(Menus.Letra,0,38,0,2); 
0950C:  MOVLW  07
0950E:  MOVWF  xE1
09510:  MOVLW  BD
09512:  MOVWF  xE0
09514:  CLRF   xE2
09516:  MOVLW  26
09518:  MOVWF  xE3
0951A:  CLRF   xE4
0951C:  MOVLW  02
0951E:  MOVWF  xE5
09520:  MOVLB  0
09522:  CALL   1EC0
09526:  MOVLB  5
....................          } 
....................           
....................          if(Opcion==2) 
09528:  MOVF   xA1,W
0952A:  SUBLW  02
0952C:  BNZ   9572
....................          { 
....................             strcpy(Menus.Letra,"Programa 02"); 
0952E:  MOVLW  07
09530:  MOVWF  FEA
09532:  MOVLW  BD
09534:  MOVWF  FE9
09536:  MOVFF  FF2,7DD
0953A:  BCF    FF2.7
0953C:  MOVLW  00
0953E:  MOVLB  0
09540:  CALL   0B2C
09544:  TBLRD*-
09546:  TBLRD*+
09548:  MOVF   FF5,W
0954A:  MOVWF  FEE
0954C:  IORLW  00
0954E:  BNZ   9546
09550:  MOVLB  7
09552:  BTFSC  xDD.7
09554:  BSF    FF2.7
....................             displayMenu(Menus.Letra,0,38,0,2); 
09556:  MOVLW  07
09558:  MOVWF  xE1
0955A:  MOVLW  BD
0955C:  MOVWF  xE0
0955E:  CLRF   xE2
09560:  MOVLW  26
09562:  MOVWF  xE3
09564:  CLRF   xE4
09566:  MOVLW  02
09568:  MOVWF  xE5
0956A:  MOVLB  0
0956C:  CALL   1EC0
09570:  MOVLB  5
....................          } 
....................           
....................          if(Opcion==3) 
09572:  MOVF   xA1,W
09574:  SUBLW  03
09576:  BNZ   95BC
....................          { 
....................             strcpy(Menus.Letra,"Programa 03"); 
09578:  MOVLW  07
0957A:  MOVWF  FEA
0957C:  MOVLW  BD
0957E:  MOVWF  FE9
09580:  MOVFF  FF2,7DD
09584:  BCF    FF2.7
09586:  MOVLW  00
09588:  MOVLB  0
0958A:  CALL   0B56
0958E:  TBLRD*-
09590:  TBLRD*+
09592:  MOVF   FF5,W
09594:  MOVWF  FEE
09596:  IORLW  00
09598:  BNZ   9590
0959A:  MOVLB  7
0959C:  BTFSC  xDD.7
0959E:  BSF    FF2.7
....................             displayMenu(Menus.Letra,0,38,0,2); 
095A0:  MOVLW  07
095A2:  MOVWF  xE1
095A4:  MOVLW  BD
095A6:  MOVWF  xE0
095A8:  CLRF   xE2
095AA:  MOVLW  26
095AC:  MOVWF  xE3
095AE:  CLRF   xE4
095B0:  MOVLW  02
095B2:  MOVWF  xE5
095B4:  MOVLB  0
095B6:  CALL   1EC0
095BA:  MOVLB  5
....................          } 
....................           
....................          if(Opcion==4) 
095BC:  MOVF   xA1,W
095BE:  SUBLW  04
095C0:  BNZ   9606
....................          { 
....................             strcpy(Menus.Letra,"Programa 04"); 
095C2:  MOVLW  07
095C4:  MOVWF  FEA
095C6:  MOVLW  BD
095C8:  MOVWF  FE9
095CA:  MOVFF  FF2,7DD
095CE:  BCF    FF2.7
095D0:  MOVLW  00
095D2:  MOVLB  0
095D4:  CALL   0B80
095D8:  TBLRD*-
095DA:  TBLRD*+
095DC:  MOVF   FF5,W
095DE:  MOVWF  FEE
095E0:  IORLW  00
095E2:  BNZ   95DA
095E4:  MOVLB  7
095E6:  BTFSC  xDD.7
095E8:  BSF    FF2.7
....................             displayMenu(Menus.Letra,0,38,0,2); 
095EA:  MOVLW  07
095EC:  MOVWF  xE1
095EE:  MOVLW  BD
095F0:  MOVWF  xE0
095F2:  CLRF   xE2
095F4:  MOVLW  26
095F6:  MOVWF  xE3
095F8:  CLRF   xE4
095FA:  MOVLW  02
095FC:  MOVWF  xE5
095FE:  MOVLB  0
09600:  CALL   1EC0
09604:  MOVLB  5
....................          } 
....................           
....................          if(Opcion==5) 
09606:  MOVF   xA1,W
09608:  SUBLW  05
0960A:  BNZ   9650
....................          { 
....................             strcpy(Menus.Letra,"Programa 05"); 
0960C:  MOVLW  07
0960E:  MOVWF  FEA
09610:  MOVLW  BD
09612:  MOVWF  FE9
09614:  MOVFF  FF2,7DD
09618:  BCF    FF2.7
0961A:  MOVLW  00
0961C:  MOVLB  0
0961E:  CALL   0BAA
09622:  TBLRD*-
09624:  TBLRD*+
09626:  MOVF   FF5,W
09628:  MOVWF  FEE
0962A:  IORLW  00
0962C:  BNZ   9624
0962E:  MOVLB  7
09630:  BTFSC  xDD.7
09632:  BSF    FF2.7
....................             displayMenu(Menus.Letra,0,38,0,2); 
09634:  MOVLW  07
09636:  MOVWF  xE1
09638:  MOVLW  BD
0963A:  MOVWF  xE0
0963C:  CLRF   xE2
0963E:  MOVLW  26
09640:  MOVWF  xE3
09642:  CLRF   xE4
09644:  MOVLW  02
09646:  MOVWF  xE5
09648:  MOVLB  0
0964A:  CALL   1EC0
0964E:  MOVLB  5
....................          } 
....................           
....................          
....................       if(UP)//Si oprime hacia arriba 
09650:  BSF    F92.5
09652:  BTFSC  F80.5
09654:  BRA    968E
....................       { 
....................          Buzz_on;delay_ms(30);Opcion++;Buzz_off; 
09656:  BSF    F8B.4
09658:  BCF    F94.4
0965A:  MOVLW  1E
0965C:  MOVLB  7
0965E:  MOVWF  xE3
09660:  MOVLB  0
09662:  CALL   1800
09666:  MOVLB  5
09668:  INCF   xA1,F
0966A:  BCF    F8B.4
0966C:  BCF    F94.4
....................          glcd_rect(40, 35, 85, 60, YES, OFF); 
0966E:  MOVLW  28
09670:  MOVLB  7
09672:  MOVWF  xF5
09674:  MOVLW  23
09676:  MOVWF  xF6
09678:  MOVLW  55
0967A:  MOVWF  xF7
0967C:  MOVLW  3C
0967E:  MOVWF  xF8
09680:  MOVLW  01
09682:  MOVWF  xF9
09684:  CLRF   xFA
09686:  MOVLB  0
09688:  CALL   1DFE
0968C:  MOVLB  5
....................       } 
....................              
....................       if(DOWN)//Si oprime hacia abajo 
0968E:  BSF    F96.0
09690:  BTFSC  F84.0
09692:  BRA    96CC
....................       {   
....................          Buzz_on;delay_ms(30);Opcion--;Buzz_off; 
09694:  BSF    F8B.4
09696:  BCF    F94.4
09698:  MOVLW  1E
0969A:  MOVLB  7
0969C:  MOVWF  xE3
0969E:  MOVLB  0
096A0:  CALL   1800
096A4:  MOVLB  5
096A6:  DECF   xA1,F
096A8:  BCF    F8B.4
096AA:  BCF    F94.4
....................          glcd_rect(40, 35, 85, 60, YES, OFF); 
096AC:  MOVLW  28
096AE:  MOVLB  7
096B0:  MOVWF  xF5
096B2:  MOVLW  23
096B4:  MOVWF  xF6
096B6:  MOVLW  55
096B8:  MOVWF  xF7
096BA:  MOVLW  3C
096BC:  MOVWF  xF8
096BE:  MOVLW  01
096C0:  MOVWF  xF9
096C2:  CLRF   xFA
096C4:  MOVLB  0
096C6:  CALL   1DFE
096CA:  MOVLB  5
....................       } 
....................              
....................       if(RIGHT)//Si oprime SET 
096CC:  BSF    F96.1
096CE:  BTFSC  F84.1
096D0:  BRA    9C0E
....................       {   
....................          Menu=20;glcd_fillscreen(OFF); 
096D2:  MOVLW  14
096D4:  MOVWF  x9A
096D6:  MOVLB  7
096D8:  CLRF   xDE
096DA:  MOVLB  0
096DC:  CALL   1880
....................          for(i=0;i<10;i++){ 
096E0:  MOVLB  5
096E2:  CLRF   x9C
096E4:  MOVF   x9C,W
096E6:  SUBLW  09
096E8:  BNC   9732
....................             if(Temperatura1[i+((Opcion-1)*10)]==0){ 
096EA:  MOVLW  01
096EC:  SUBWF  xA1,W
096EE:  MULLW  0A
096F0:  MOVF   FF3,W
096F2:  ADDWF  x9C,W
096F4:  MOVWF  00
096F6:  BCF    FD8.0
096F8:  RLCF   00,F
096FA:  MOVF   00,W
096FC:  CLRF   03
096FE:  ADDLW  67
09700:  MOVWF  FE9
09702:  MOVLW  06
09704:  ADDWFC 03,W
09706:  MOVWF  FEA
09708:  MOVFF  FEC,7DE
0970C:  MOVF   FED,F
0970E:  MOVFF  FEF,7DD
09712:  MOVLB  7
09714:  MOVF   xDD,F
09716:  BNZ   9728
09718:  MOVF   xDE,F
0971A:  BNZ   9728
....................                Segmentos=i; 
0971C:  MOVFF  59C,592
....................                break; 
09720:  MOVLB  5
09722:  BRA    9732
....................             } 
....................             else{ 
09724:  BRA    972E
09726:  MOVLB  7
....................                Segmentos=9; 
09728:  MOVLW  09
0972A:  MOVLB  5
0972C:  MOVWF  x92
....................             } 
....................             //Horas1[i+((Opcion-1)*10)]=0; 
....................             //Minutos1[i+((Opcion-1)*10)]=0; 
....................          } 
0972E:  INCF   x9C,F
09730:  BRA    96E4
....................          if(Segmentos>0){ 
09732:  MOVF   x92,F
09734:  BTFSC  FD8.2
09736:  BRA    9B4E
....................             ProgramaSeleccionado=Opcion-1; 
09738:  MOVLW  01
0973A:  SUBWF  xA1,W
0973C:  MOVWF  xA3
....................             glcd_fillscreen(OFF); 
0973E:  MOVLB  7
09740:  CLRF   xDE
09742:  MOVLB  0
09744:  CALL   1880
....................              
....................             strcpy(Menus.Letra," Segmentos"); 
09748:  MOVLW  07
0974A:  MOVWF  FEA
0974C:  MOVLW  BD
0974E:  MOVWF  FE9
09750:  MOVFF  FF2,7DD
09754:  BCF    FF2.7
09756:  MOVLW  00
09758:  CALL   0BD4
0975C:  TBLRD*-
0975E:  TBLRD*+
09760:  MOVF   FF5,W
09762:  MOVWF  FEE
09764:  IORLW  00
09766:  BNZ   975E
09768:  MOVLB  7
0976A:  BTFSC  xDD.7
0976C:  BSF    FF2.7
....................             displayMenu(Menus.Letra,0,0,0,2); 
0976E:  MOVLW  07
09770:  MOVWF  xE1
09772:  MOVLW  BD
09774:  MOVWF  xE0
09776:  CLRF   xE2
09778:  CLRF   xE3
0977A:  CLRF   xE4
0977C:  MOVLW  02
0977E:  MOVWF  xE5
09780:  MOVLB  0
09782:  CALL   1EC0
....................              
....................             displayTiempo(Segmentos,63,30,3,2); 
09786:  MOVFF  592,7E0
0978A:  MOVLW  3F
0978C:  MOVLB  7
0978E:  MOVWF  xE1
09790:  MOVLW  1E
09792:  MOVWF  xE2
09794:  MOVLW  03
09796:  MOVWF  xE3
09798:  MOVLW  02
0979A:  MOVWF  xE4
0979C:  MOVLB  0
0979E:  CALL   3950
....................             delay_ms(2000); 
097A2:  MOVLW  08
097A4:  MOVLB  7
097A6:  MOVWF  xDD
097A8:  MOVLW  FA
097AA:  MOVWF  xE3
097AC:  MOVLB  0
097AE:  CALL   1800
097B2:  MOVLB  7
097B4:  DECFSZ xDD,F
097B6:  BRA    97A8
....................             glcd_fillscreen(OFF); 
097B8:  CLRF   xDE
097BA:  MOVLB  0
097BC:  CALL   1880
....................             Opcion=1;visual=1;//Faltaa cuadrar esta parte 
097C0:  MOVLW  01
097C2:  MOVLB  5
097C4:  MOVWF  xA1
097C6:  BSF    x95.0
....................             TempeInicial=Temperatura; 
097C8:  MOVFF  62E,5C2
097CC:  MOVFF  62D,5C1
097D0:  MOVFF  62C,5C0
097D4:  MOVFF  62B,5BF
....................             Ganancia=GananciaIn*(Setpoint/Coeficiente); 
097D8:  MOVFF  63A,7E4
097DC:  MOVFF  639,7E3
097E0:  MOVFF  638,7E2
097E4:  MOVFF  637,7E1
097E8:  MOVFF  61E,7E8
097EC:  MOVFF  61D,7E7
097F0:  MOVFF  61C,7E6
097F4:  MOVFF  61B,7E5
097F8:  MOVLB  0
097FA:  CALL   3228
097FE:  MOVFF  612,7FD
09802:  MOVFF  611,7FC
09806:  MOVFF  610,7FB
0980A:  MOVFF  60F,7FA
0980E:  MOVFF  03,801
09812:  MOVFF  02,800
09816:  MOVFF  01,7FF
0981A:  MOVFF  00,7FE
0981E:  CALL   3386
09822:  MOVFF  03,616
09826:  MOVFF  02,615
0982A:  MOVFF  01,614
0982E:  MOVFF  00,613
....................              
....................             Tiempo=(Horas1[ProgramaSeleccionado*10]*3600)+(Minutos1[ProgramaSeleccionado*10]*60);          
09832:  MOVLB  5
09834:  MOVF   xA3,W
09836:  MULLW  0A
09838:  MOVFF  FF3,00
0983C:  BCF    FD8.0
0983E:  RLCF   00,F
09840:  MOVF   00,W
09842:  CLRF   03
09844:  ADDLW  CB
09846:  MOVWF  FE9
09848:  MOVLW  06
0984A:  ADDWFC 03,W
0984C:  MOVWF  FEA
0984E:  MOVFF  FEC,7DE
09852:  MOVF   FED,F
09854:  MOVFF  FEF,7DD
09858:  MOVFF  7DE,7E2
0985C:  MOVFF  7DD,7E1
09860:  MOVLW  0E
09862:  MOVLB  7
09864:  MOVWF  xE4
09866:  MOVLW  10
09868:  MOVWF  xE3
0986A:  MOVLB  0
0986C:  CALL   3B16
09870:  MOVFF  02,7DE
09874:  MOVFF  01,7DD
09878:  MOVLB  5
0987A:  MOVF   xA3,W
0987C:  MULLW  0A
0987E:  MOVFF  FF3,00
09882:  BCF    FD8.0
09884:  RLCF   00,F
09886:  MOVF   00,W
09888:  CLRF   03
0988A:  ADDLW  2F
0988C:  MOVWF  FE9
0988E:  MOVLW  07
09890:  ADDWFC 03,W
09892:  MOVWF  FEA
09894:  MOVFF  FEC,7E0
09898:  MOVF   FED,F
0989A:  MOVFF  FEF,7DF
0989E:  MOVFF  7E0,7E2
098A2:  MOVFF  7DF,7E1
098A6:  MOVLB  7
098A8:  CLRF   xE4
098AA:  MOVLW  3C
098AC:  MOVWF  xE3
098AE:  MOVLB  0
098B0:  CALL   3B16
098B4:  MOVFF  02,03
098B8:  MOVF   01,W
098BA:  MOVLB  7
098BC:  ADDWF  xDD,W
098BE:  MOVWF  01
098C0:  MOVF   xDE,W
098C2:  ADDWFC 03,F
098C4:  MOVFF  01,7E1
098C8:  MOVFF  03,7E2
098CC:  MOVLB  0
098CE:  CALL   3B6A
098D2:  MOVFF  03,5C6
098D6:  MOVFF  02,5C5
098DA:  MOVFF  01,5C4
098DE:  MOVFF  00,5C3
....................             Setpoint=Temperatura1[(ProgramaSeleccionado*10)+Segmento]; 
098E2:  MOVLB  5
098E4:  MOVF   xA3,W
098E6:  MULLW  0A
098E8:  MOVF   FF3,W
098EA:  ADDWF  x93,W
098EC:  MOVWF  00
098EE:  BCF    FD8.0
098F0:  RLCF   00,F
098F2:  MOVF   00,W
098F4:  CLRF   03
098F6:  ADDLW  67
098F8:  MOVWF  FE9
098FA:  MOVLW  06
098FC:  ADDWFC 03,W
098FE:  MOVWF  FEA
09900:  MOVFF  FEC,03
09904:  MOVF   FED,F
09906:  MOVFF  FEF,7E1
0990A:  MOVFF  03,7E2
0990E:  MOVLB  0
09910:  CALL   3B6A
09914:  MOVFF  03,63A
09918:  MOVFF  02,639
0991C:  MOVFF  01,638
09920:  MOVFF  00,637
....................             Pendiente=((Setpoint-TempeInicial)/Tiempo); 
09924:  BSF    FD8.1
09926:  MOVFF  63A,7E6
0992A:  MOVFF  639,7E5
0992E:  MOVFF  638,7E4
09932:  MOVFF  637,7E3
09936:  MOVFF  5C2,7EA
0993A:  MOVFF  5C1,7E9
0993E:  MOVFF  5C0,7E8
09942:  MOVFF  5BF,7E7
09946:  CALL   2FB0
0994A:  MOVFF  00,7DD
0994E:  MOVFF  01,7DE
09952:  MOVFF  02,7DF
09956:  MOVFF  03,7E0
0995A:  MOVFF  03,7E4
0995E:  MOVFF  02,7E3
09962:  MOVFF  01,7E2
09966:  MOVFF  00,7E1
0996A:  MOVFF  5C6,7E8
0996E:  MOVFF  5C5,7E7
09972:  MOVFF  5C4,7E6
09976:  MOVFF  5C3,7E5
0997A:  CALL   3228
0997E:  MOVFF  03,632
09982:  MOVFF  02,631
09986:  MOVFF  01,630
0998A:  MOVFF  00,62F
....................             Testerilizacionp[3]=(int8)Horas1[(ProgramaSeleccionado*10)+Segmento]/10; 
0998E:  MOVLB  5
09990:  MOVF   xA3,W
09992:  MULLW  0A
09994:  MOVF   FF3,W
09996:  ADDWF  x93,W
09998:  MOVWF  00
0999A:  BCF    FD8.0
0999C:  RLCF   00,F
0999E:  MOVF   00,W
099A0:  CLRF   03
099A2:  ADDLW  CB
099A4:  MOVWF  FE9
099A6:  MOVLW  06
099A8:  ADDWFC 03,W
099AA:  MOVWF  FEA
099AC:  MOVFF  FEF,7F2
099B0:  MOVLW  0A
099B2:  MOVLB  7
099B4:  MOVWF  xF3
099B6:  MOVLB  0
099B8:  CALL   1FE6
099BC:  MOVFF  01,5EA
099C0:  MOVLB  5
....................             Testerilizacionp[2]=Horas1[(ProgramaSeleccionado*10)+Segmento]-(Testerilizacionp[3]*10); 
099C2:  MOVF   xA3,W
099C4:  MULLW  0A
099C6:  MOVF   FF3,W
099C8:  ADDWF  x93,W
099CA:  MOVWF  00
099CC:  BCF    FD8.0
099CE:  RLCF   00,F
099D0:  MOVF   00,W
099D2:  CLRF   03
099D4:  ADDLW  CB
099D6:  MOVWF  FE9
099D8:  MOVLW  06
099DA:  ADDWFC 03,W
099DC:  MOVWF  FEA
099DE:  MOVFF  FEC,7DE
099E2:  MOVF   FED,F
099E4:  MOVFF  FEF,7DD
099E8:  MOVFF  5EA,7FE
099EC:  MOVLW  0A
099EE:  MOVLB  7
099F0:  MOVWF  xFF
099F2:  MOVLB  0
099F4:  CALL   3BBA
099F8:  MOVF   01,W
099FA:  CLRF   03
099FC:  MOVWF  00
099FE:  BTFSC  FE8.7
09A00:  DECF   03,F
09A02:  MOVLB  7
09A04:  SUBWF  xDD,W
09A06:  MOVWF  00
09A08:  MOVF   03,W
09A0A:  SUBWFB xDE,W
09A0C:  MOVFF  00,5E9
09A10:  MOVLB  5
....................             Testerilizacionp[1]=Minutos1[(ProgramaSeleccionado*10)+Segmento]/10; 
09A12:  MOVF   xA3,W
09A14:  MULLW  0A
09A16:  MOVF   FF3,W
09A18:  ADDWF  x93,W
09A1A:  MOVWF  00
09A1C:  BCF    FD8.0
09A1E:  RLCF   00,F
09A20:  MOVF   00,W
09A22:  CLRF   03
09A24:  ADDLW  2F
09A26:  MOVWF  FE9
09A28:  MOVLW  07
09A2A:  ADDWFC 03,W
09A2C:  MOVWF  FEA
09A2E:  MOVFF  FEC,7DE
09A32:  MOVF   FED,F
09A34:  MOVFF  FEF,7DD
09A38:  MOVFF  7DE,7E2
09A3C:  MOVFF  7DD,7E1
09A40:  MOVLB  7
09A42:  CLRF   xE4
09A44:  MOVLW  0A
09A46:  MOVWF  xE3
09A48:  MOVLB  0
09A4A:  CALL   3C08
09A4E:  MOVFF  01,5E8
09A52:  MOVLB  5
....................             Testerilizacionp[0]=Minutos1[(ProgramaSeleccionado*10)+Segmento]-(Testerilizacionp[1]*10); 
09A54:  MOVF   xA3,W
09A56:  MULLW  0A
09A58:  MOVF   FF3,W
09A5A:  ADDWF  x93,W
09A5C:  MOVWF  00
09A5E:  BCF    FD8.0
09A60:  RLCF   00,F
09A62:  MOVF   00,W
09A64:  CLRF   03
09A66:  ADDLW  2F
09A68:  MOVWF  FE9
09A6A:  MOVLW  07
09A6C:  ADDWFC 03,W
09A6E:  MOVWF  FEA
09A70:  MOVFF  FEC,7DE
09A74:  MOVF   FED,F
09A76:  MOVFF  FEF,7DD
09A7A:  MOVFF  5E8,7FE
09A7E:  MOVLW  0A
09A80:  MOVLB  7
09A82:  MOVWF  xFF
09A84:  MOVLB  0
09A86:  CALL   3BBA
09A8A:  MOVF   01,W
09A8C:  CLRF   03
09A8E:  MOVWF  00
09A90:  BTFSC  FE8.7
09A92:  DECF   03,F
09A94:  MOVLB  7
09A96:  SUBWF  xDD,W
09A98:  MOVWF  00
09A9A:  MOVF   03,W
09A9C:  SUBWFB xDE,W
09A9E:  MOVFF  00,5E7
09AA2:  MOVLB  5
....................             if(ActivaImpresion){ 
09AA4:  BTFSS  x87.3
09AA6:  BRA    9B4C
....................                fprintf(printer,"OPERADOR:________________\n"); 
09AA8:  MOVLW  1E
09AAA:  MOVWF  FF6
09AAC:  MOVLW  17
09AAE:  MOVWF  FF7
09AB0:  MOVLW  00
09AB2:  MOVWF  FF8
09AB4:  MOVLB  0
09AB6:  CALL   37EC
....................                delay_us(20); 
09ABA:  MOVLW  21
09ABC:  MOVWF  00
09ABE:  DECFSZ 00,F
09AC0:  BRA    9ABE
....................                fprintf(printer,"Programa: %02u\n",ProgramaSeleccionado+1); 
09AC2:  MOVLW  01
09AC4:  MOVLB  5
09AC6:  ADDWF  xA3,W
09AC8:  MOVLB  7
09ACA:  MOVWF  xDD
09ACC:  MOVLW  3A
09ACE:  MOVWF  FF6
09AD0:  MOVLW  17
09AD2:  MOVWF  FF7
09AD4:  MOVLW  00
09AD6:  MOVWF  FF8
09AD8:  MOVLW  0A
09ADA:  MOVWF  xDE
09ADC:  MOVLB  0
09ADE:  CALL   3816
09AE2:  MOVFF  7DD,7DE
09AE6:  MOVLW  01
09AE8:  MOVLB  7
09AEA:  MOVWF  xDF
09AEC:  MOVLB  0
09AEE:  CALL   3848
09AF2:  MOVLW  0A
09AF4:  BTFSS  F9E.4
09AF6:  BRA    9AF4
09AF8:  MOVWF  FAD
....................                delay_us(20); 
09AFA:  MOVLW  21
09AFC:  MOVWF  00
09AFE:  DECFSZ 00,F
09B00:  BRA    9AFE
....................                fprintf(printer,"Segmentos: %02u\n",Segmentos); 
09B02:  MOVLW  4A
09B04:  MOVWF  FF6
09B06:  MOVLW  17
09B08:  MOVWF  FF7
09B0A:  MOVLW  00
09B0C:  MOVWF  FF8
09B0E:  MOVLW  0B
09B10:  MOVLB  7
09B12:  MOVWF  xDE
09B14:  MOVLB  0
09B16:  CALL   3816
09B1A:  MOVFF  592,7DE
09B1E:  MOVLW  01
09B20:  MOVLB  7
09B22:  MOVWF  xDF
09B24:  MOVLB  0
09B26:  CALL   3848
09B2A:  MOVLW  0A
09B2C:  BTFSS  F9E.4
09B2E:  BRA    9B2C
09B30:  MOVWF  FAD
....................                delay_us(20); 
09B32:  MOVLW  21
09B34:  MOVWF  00
09B36:  DECFSZ 00,F
09B38:  BRA    9B36
....................                fprintf(printer,"  HORA   TEMPER.   SEGMENTO \n"); 
09B3A:  MOVLW  5C
09B3C:  MOVWF  FF6
09B3E:  MOVLW  17
09B40:  MOVWF  FF7
09B42:  MOVLW  00
09B44:  MOVWF  FF8
09B46:  CALL   37EC
09B4A:  MOVLB  5
....................             } 
....................          } 
....................          else{ 
09B4C:  BRA    9C0E
....................             glcd_fillscreen(OFF); 
09B4E:  MOVLB  7
09B50:  CLRF   xDE
09B52:  MOVLB  0
09B54:  CALL   1880
....................             strcpy(Menus.Letra," !Programa"); 
09B58:  MOVLW  07
09B5A:  MOVWF  FEA
09B5C:  MOVLW  BD
09B5E:  MOVWF  FE9
09B60:  MOVFF  FF2,7DD
09B64:  BCF    FF2.7
09B66:  MOVLW  00
09B68:  CALL   0BFE
09B6C:  TBLRD*-
09B6E:  TBLRD*+
09B70:  MOVF   FF5,W
09B72:  MOVWF  FEE
09B74:  IORLW  00
09B76:  BNZ   9B6E
09B78:  MOVLB  7
09B7A:  BTFSC  xDD.7
09B7C:  BSF    FF2.7
....................             displayMenu(Menus.Letra,0,0,0,2); 
09B7E:  MOVLW  07
09B80:  MOVWF  xE1
09B82:  MOVLW  BD
09B84:  MOVWF  xE0
09B86:  CLRF   xE2
09B88:  CLRF   xE3
09B8A:  CLRF   xE4
09B8C:  MOVLW  02
09B8E:  MOVWF  xE5
09B90:  MOVLB  0
09B92:  CALL   1EC0
....................             strcpy(Menus.Letra,"    Vacio!"); 
09B96:  MOVLW  07
09B98:  MOVWF  FEA
09B9A:  MOVLW  BD
09B9C:  MOVWF  FE9
09B9E:  MOVFF  FF2,7DD
09BA2:  BCF    FF2.7
09BA4:  MOVLW  00
09BA6:  CALL   0C28
09BAA:  TBLRD*-
09BAC:  TBLRD*+
09BAE:  MOVF   FF5,W
09BB0:  MOVWF  FEE
09BB2:  IORLW  00
09BB4:  BNZ   9BAC
09BB6:  MOVLB  7
09BB8:  BTFSC  xDD.7
09BBA:  BSF    FF2.7
....................             displayMenu(Menus.Letra,0,20,0,2); 
09BBC:  MOVLW  07
09BBE:  MOVWF  xE1
09BC0:  MOVLW  BD
09BC2:  MOVWF  xE0
09BC4:  CLRF   xE2
09BC6:  MOVLW  14
09BC8:  MOVWF  xE3
09BCA:  CLRF   xE4
09BCC:  MOVLW  02
09BCE:  MOVWF  xE5
09BD0:  MOVLB  0
09BD2:  CALL   1EC0
....................             Opcion=1;Buzz_off;delay_ms(2000);Menu=1;glcd_fillscreen(OFF);Opcion=1;visual=1; 
09BD6:  MOVLW  01
09BD8:  MOVLB  5
09BDA:  MOVWF  xA1
09BDC:  BCF    F8B.4
09BDE:  BCF    F94.4
09BE0:  MOVLW  08
09BE2:  MOVLB  7
09BE4:  MOVWF  xDD
09BE6:  MOVLW  FA
09BE8:  MOVWF  xE3
09BEA:  MOVLB  0
09BEC:  CALL   1800
09BF0:  MOVLB  7
09BF2:  DECFSZ xDD,F
09BF4:  BRA    9BE6
09BF6:  MOVLW  01
09BF8:  MOVLB  5
09BFA:  MOVWF  x9A
09BFC:  MOVLB  7
09BFE:  CLRF   xDE
09C00:  MOVLB  0
09C02:  CALL   1880
09C06:  MOVLW  01
09C08:  MOVLB  5
09C0A:  MOVWF  xA1
09C0C:  BSF    x95.0
....................          } 
....................       }  
....................                    
....................       if(LEFT)//Si oprime boton de Toma. 
09C0E:  BSF    F96.2
09C10:  BTFSC  F84.2
09C12:  BRA    9C44
....................       { 
....................          Buzz_on;Opcion=1;Buzz_off;delay_ms(50);Menu=1;glcd_fillscreen(OFF);Opcion=1;visual=1; 
09C14:  BSF    F8B.4
09C16:  BCF    F94.4
09C18:  MOVLW  01
09C1A:  MOVWF  xA1
09C1C:  BCF    F8B.4
09C1E:  BCF    F94.4
09C20:  MOVLW  32
09C22:  MOVLB  7
09C24:  MOVWF  xE3
09C26:  MOVLB  0
09C28:  CALL   1800
09C2C:  MOVLW  01
09C2E:  MOVLB  5
09C30:  MOVWF  x9A
09C32:  MOVLB  7
09C34:  CLRF   xDE
09C36:  MOVLB  0
09C38:  CALL   1880
09C3C:  MOVLW  01
09C3E:  MOVLB  5
09C40:  MOVWF  xA1
09C42:  BSF    x95.0
....................       }  
....................     } 
.................... //_--------------------------------------------------------------------------------------------------------------------------------------------------------        
....................  
.................... //_-------------------------------------------------------------------------------------------------------------------------------------------------------- 
....................       if(Menu==5){ //Menu Editar Programa 
09C44:  MOVF   x9A,W
09C46:  SUBLW  05
09C48:  BTFSS  FD8.2
09C4A:  BRA    A014
....................        
....................          if(Opcion>5) 
09C4C:  MOVF   xA1,W
09C4E:  SUBLW  05
09C50:  BC    9C56
....................          {Opcion=1;} 
09C52:  MOVLW  01
09C54:  MOVWF  xA1
....................          if(Opcion<1) 
09C56:  MOVF   xA1,F
09C58:  BNZ   9C5E
....................          {Opcion=5;} 
09C5A:  MOVLW  05
09C5C:  MOVWF  xA1
....................           
....................          strcpy(Menus.Letra,"Editar"); 
09C5E:  MOVLW  07
09C60:  MOVWF  FEA
09C62:  MOVLW  BD
09C64:  MOVWF  FE9
09C66:  MOVFF  FF2,7DD
09C6A:  BCF    FF2.7
09C6C:  MOVLW  00
09C6E:  MOVLB  0
09C70:  CALL   0C52
09C74:  TBLRD*-
09C76:  TBLRD*+
09C78:  MOVF   FF5,W
09C7A:  MOVWF  FEE
09C7C:  IORLW  00
09C7E:  BNZ   9C76
09C80:  MOVLB  7
09C82:  BTFSC  xDD.7
09C84:  BSF    FF2.7
....................          displayMenu(Menus.Letra,30,0,1,2); 
09C86:  MOVLW  07
09C88:  MOVWF  xE1
09C8A:  MOVLW  BD
09C8C:  MOVWF  xE0
09C8E:  MOVLW  1E
09C90:  MOVWF  xE2
09C92:  CLRF   xE3
09C94:  MOVLW  01
09C96:  MOVWF  xE4
09C98:  MOVLW  02
09C9A:  MOVWF  xE5
09C9C:  MOVLB  0
09C9E:  CALL   1EC0
....................        
....................          if(Opcion==1)    
09CA2:  MOVLB  5
09CA4:  DECFSZ xA1,W
09CA6:  BRA    9CEE
....................             {strcpy(Menus.Letra,"Programa 01"); 
09CA8:  MOVLW  07
09CAA:  MOVWF  FEA
09CAC:  MOVLW  BD
09CAE:  MOVWF  FE9
09CB0:  MOVFF  FF2,7DD
09CB4:  BCF    FF2.7
09CB6:  MOVLW  00
09CB8:  MOVLB  0
09CBA:  CALL   0B02
09CBE:  TBLRD*-
09CC0:  TBLRD*+
09CC2:  MOVF   FF5,W
09CC4:  MOVWF  FEE
09CC6:  IORLW  00
09CC8:  BNZ   9CC0
09CCA:  MOVLB  7
09CCC:  BTFSC  xDD.7
09CCE:  BSF    FF2.7
....................             displayMenu(Menus.Letra,0,18,1,1);} 
09CD0:  MOVLW  07
09CD2:  MOVWF  xE1
09CD4:  MOVLW  BD
09CD6:  MOVWF  xE0
09CD8:  CLRF   xE2
09CDA:  MOVLW  12
09CDC:  MOVWF  xE3
09CDE:  MOVLW  01
09CE0:  MOVWF  xE4
09CE2:  MOVWF  xE5
09CE4:  MOVLB  0
09CE6:  CALL   1EC0
....................          else 
09CEA:  BRA    9D30
09CEC:  MOVLB  5
....................             {strcpy(Menus.Letra,"Programa 01"); 
09CEE:  MOVLW  07
09CF0:  MOVWF  FEA
09CF2:  MOVLW  BD
09CF4:  MOVWF  FE9
09CF6:  MOVFF  FF2,7DD
09CFA:  BCF    FF2.7
09CFC:  MOVLW  00
09CFE:  MOVLB  0
09D00:  CALL   0B02
09D04:  TBLRD*-
09D06:  TBLRD*+
09D08:  MOVF   FF5,W
09D0A:  MOVWF  FEE
09D0C:  IORLW  00
09D0E:  BNZ   9D06
09D10:  MOVLB  7
09D12:  BTFSC  xDD.7
09D14:  BSF    FF2.7
....................             displayMenu(Menus.Letra,0,18,0,1);} 
09D16:  MOVLW  07
09D18:  MOVWF  xE1
09D1A:  MOVLW  BD
09D1C:  MOVWF  xE0
09D1E:  CLRF   xE2
09D20:  MOVLW  12
09D22:  MOVWF  xE3
09D24:  CLRF   xE4
09D26:  MOVLW  01
09D28:  MOVWF  xE5
09D2A:  MOVLB  0
09D2C:  CALL   1EC0
....................           
....................          if(Opcion==2)    
09D30:  MOVLB  5
09D32:  MOVF   xA1,W
09D34:  SUBLW  02
09D36:  BNZ   9D7E
....................             {strcpy(Menus.Letra,"Programa 02"); 
09D38:  MOVLW  07
09D3A:  MOVWF  FEA
09D3C:  MOVLW  BD
09D3E:  MOVWF  FE9
09D40:  MOVFF  FF2,7DD
09D44:  BCF    FF2.7
09D46:  MOVLW  00
09D48:  MOVLB  0
09D4A:  CALL   0B2C
09D4E:  TBLRD*-
09D50:  TBLRD*+
09D52:  MOVF   FF5,W
09D54:  MOVWF  FEE
09D56:  IORLW  00
09D58:  BNZ   9D50
09D5A:  MOVLB  7
09D5C:  BTFSC  xDD.7
09D5E:  BSF    FF2.7
....................             displayMenu(Menus.Letra,0,27,1,1);} 
09D60:  MOVLW  07
09D62:  MOVWF  xE1
09D64:  MOVLW  BD
09D66:  MOVWF  xE0
09D68:  CLRF   xE2
09D6A:  MOVLW  1B
09D6C:  MOVWF  xE3
09D6E:  MOVLW  01
09D70:  MOVWF  xE4
09D72:  MOVWF  xE5
09D74:  MOVLB  0
09D76:  CALL   1EC0
....................          else 
09D7A:  BRA    9DC0
09D7C:  MOVLB  5
....................             {strcpy(Menus.Letra,"Programa 02"); 
09D7E:  MOVLW  07
09D80:  MOVWF  FEA
09D82:  MOVLW  BD
09D84:  MOVWF  FE9
09D86:  MOVFF  FF2,7DD
09D8A:  BCF    FF2.7
09D8C:  MOVLW  00
09D8E:  MOVLB  0
09D90:  CALL   0B2C
09D94:  TBLRD*-
09D96:  TBLRD*+
09D98:  MOVF   FF5,W
09D9A:  MOVWF  FEE
09D9C:  IORLW  00
09D9E:  BNZ   9D96
09DA0:  MOVLB  7
09DA2:  BTFSC  xDD.7
09DA4:  BSF    FF2.7
....................             displayMenu(Menus.Letra,0,27,0,1);} 
09DA6:  MOVLW  07
09DA8:  MOVWF  xE1
09DAA:  MOVLW  BD
09DAC:  MOVWF  xE0
09DAE:  CLRF   xE2
09DB0:  MOVLW  1B
09DB2:  MOVWF  xE3
09DB4:  CLRF   xE4
09DB6:  MOVLW  01
09DB8:  MOVWF  xE5
09DBA:  MOVLB  0
09DBC:  CALL   1EC0
....................              
....................          if(Opcion==3)    
09DC0:  MOVLB  5
09DC2:  MOVF   xA1,W
09DC4:  SUBLW  03
09DC6:  BNZ   9E0E
....................             {strcpy(Menus.Letra,"Programa 03"); 
09DC8:  MOVLW  07
09DCA:  MOVWF  FEA
09DCC:  MOVLW  BD
09DCE:  MOVWF  FE9
09DD0:  MOVFF  FF2,7DD
09DD4:  BCF    FF2.7
09DD6:  MOVLW  00
09DD8:  MOVLB  0
09DDA:  CALL   0B56
09DDE:  TBLRD*-
09DE0:  TBLRD*+
09DE2:  MOVF   FF5,W
09DE4:  MOVWF  FEE
09DE6:  IORLW  00
09DE8:  BNZ   9DE0
09DEA:  MOVLB  7
09DEC:  BTFSC  xDD.7
09DEE:  BSF    FF2.7
....................             displayMenu(Menus.Letra,0,36,1,1);} 
09DF0:  MOVLW  07
09DF2:  MOVWF  xE1
09DF4:  MOVLW  BD
09DF6:  MOVWF  xE0
09DF8:  CLRF   xE2
09DFA:  MOVLW  24
09DFC:  MOVWF  xE3
09DFE:  MOVLW  01
09E00:  MOVWF  xE4
09E02:  MOVWF  xE5
09E04:  MOVLB  0
09E06:  CALL   1EC0
....................          else 
09E0A:  BRA    9E50
09E0C:  MOVLB  5
....................             {strcpy(Menus.Letra,"Programa 03"); 
09E0E:  MOVLW  07
09E10:  MOVWF  FEA
09E12:  MOVLW  BD
09E14:  MOVWF  FE9
09E16:  MOVFF  FF2,7DD
09E1A:  BCF    FF2.7
09E1C:  MOVLW  00
09E1E:  MOVLB  0
09E20:  CALL   0B56
09E24:  TBLRD*-
09E26:  TBLRD*+
09E28:  MOVF   FF5,W
09E2A:  MOVWF  FEE
09E2C:  IORLW  00
09E2E:  BNZ   9E26
09E30:  MOVLB  7
09E32:  BTFSC  xDD.7
09E34:  BSF    FF2.7
....................             displayMenu(Menus.Letra,0,36,0,1);}    
09E36:  MOVLW  07
09E38:  MOVWF  xE1
09E3A:  MOVLW  BD
09E3C:  MOVWF  xE0
09E3E:  CLRF   xE2
09E40:  MOVLW  24
09E42:  MOVWF  xE3
09E44:  CLRF   xE4
09E46:  MOVLW  01
09E48:  MOVWF  xE5
09E4A:  MOVLB  0
09E4C:  CALL   1EC0
....................                          
....................          if(Opcion==4)    
09E50:  MOVLB  5
09E52:  MOVF   xA1,W
09E54:  SUBLW  04
09E56:  BNZ   9E9E
....................             {strcpy(Menus.Letra,"Programa 04"); 
09E58:  MOVLW  07
09E5A:  MOVWF  FEA
09E5C:  MOVLW  BD
09E5E:  MOVWF  FE9
09E60:  MOVFF  FF2,7DD
09E64:  BCF    FF2.7
09E66:  MOVLW  00
09E68:  MOVLB  0
09E6A:  CALL   0B80
09E6E:  TBLRD*-
09E70:  TBLRD*+
09E72:  MOVF   FF5,W
09E74:  MOVWF  FEE
09E76:  IORLW  00
09E78:  BNZ   9E70
09E7A:  MOVLB  7
09E7C:  BTFSC  xDD.7
09E7E:  BSF    FF2.7
....................             displayMenu(Menus.Letra,0,45,1,1);} 
09E80:  MOVLW  07
09E82:  MOVWF  xE1
09E84:  MOVLW  BD
09E86:  MOVWF  xE0
09E88:  CLRF   xE2
09E8A:  MOVLW  2D
09E8C:  MOVWF  xE3
09E8E:  MOVLW  01
09E90:  MOVWF  xE4
09E92:  MOVWF  xE5
09E94:  MOVLB  0
09E96:  CALL   1EC0
....................          else 
09E9A:  BRA    9EE0
09E9C:  MOVLB  5
....................             {strcpy(Menus.Letra,"Programa 04"); 
09E9E:  MOVLW  07
09EA0:  MOVWF  FEA
09EA2:  MOVLW  BD
09EA4:  MOVWF  FE9
09EA6:  MOVFF  FF2,7DD
09EAA:  BCF    FF2.7
09EAC:  MOVLW  00
09EAE:  MOVLB  0
09EB0:  CALL   0B80
09EB4:  TBLRD*-
09EB6:  TBLRD*+
09EB8:  MOVF   FF5,W
09EBA:  MOVWF  FEE
09EBC:  IORLW  00
09EBE:  BNZ   9EB6
09EC0:  MOVLB  7
09EC2:  BTFSC  xDD.7
09EC4:  BSF    FF2.7
....................             displayMenu(Menus.Letra,0,45,0,1);}      
09EC6:  MOVLW  07
09EC8:  MOVWF  xE1
09ECA:  MOVLW  BD
09ECC:  MOVWF  xE0
09ECE:  CLRF   xE2
09ED0:  MOVLW  2D
09ED2:  MOVWF  xE3
09ED4:  CLRF   xE4
09ED6:  MOVLW  01
09ED8:  MOVWF  xE5
09EDA:  MOVLB  0
09EDC:  CALL   1EC0
....................           
....................          if(Opcion==5)    
09EE0:  MOVLB  5
09EE2:  MOVF   xA1,W
09EE4:  SUBLW  05
09EE6:  BNZ   9F2E
....................             {strcpy(Menus.Letra,"Programa 05"); 
09EE8:  MOVLW  07
09EEA:  MOVWF  FEA
09EEC:  MOVLW  BD
09EEE:  MOVWF  FE9
09EF0:  MOVFF  FF2,7DD
09EF4:  BCF    FF2.7
09EF6:  MOVLW  00
09EF8:  MOVLB  0
09EFA:  CALL   0BAA
09EFE:  TBLRD*-
09F00:  TBLRD*+
09F02:  MOVF   FF5,W
09F04:  MOVWF  FEE
09F06:  IORLW  00
09F08:  BNZ   9F00
09F0A:  MOVLB  7
09F0C:  BTFSC  xDD.7
09F0E:  BSF    FF2.7
....................             displayMenu(Menus.Letra,0,54,1,1);} 
09F10:  MOVLW  07
09F12:  MOVWF  xE1
09F14:  MOVLW  BD
09F16:  MOVWF  xE0
09F18:  CLRF   xE2
09F1A:  MOVLW  36
09F1C:  MOVWF  xE3
09F1E:  MOVLW  01
09F20:  MOVWF  xE4
09F22:  MOVWF  xE5
09F24:  MOVLB  0
09F26:  CALL   1EC0
....................          else 
09F2A:  BRA    9F70
09F2C:  MOVLB  5
....................             {strcpy(Menus.Letra,"Programa 05"); 
09F2E:  MOVLW  07
09F30:  MOVWF  FEA
09F32:  MOVLW  BD
09F34:  MOVWF  FE9
09F36:  MOVFF  FF2,7DD
09F3A:  BCF    FF2.7
09F3C:  MOVLW  00
09F3E:  MOVLB  0
09F40:  CALL   0BAA
09F44:  TBLRD*-
09F46:  TBLRD*+
09F48:  MOVF   FF5,W
09F4A:  MOVWF  FEE
09F4C:  IORLW  00
09F4E:  BNZ   9F46
09F50:  MOVLB  7
09F52:  BTFSC  xDD.7
09F54:  BSF    FF2.7
....................             displayMenu(Menus.Letra,0,54,0,1);}      
09F56:  MOVLW  07
09F58:  MOVWF  xE1
09F5A:  MOVLW  BD
09F5C:  MOVWF  xE0
09F5E:  CLRF   xE2
09F60:  MOVLW  36
09F62:  MOVWF  xE3
09F64:  CLRF   xE4
09F66:  MOVLW  01
09F68:  MOVWF  xE5
09F6A:  MOVLB  0
09F6C:  CALL   1EC0
....................           
....................          if(UP)//Si oprime hacia arriba 
09F70:  BSF    F92.5
09F72:  BTFSC  F80.5
09F74:  BRA    9F90
....................          { 
....................             Buzz_on;delay_ms(30);Opcion--;Buzz_off; 
09F76:  BSF    F8B.4
09F78:  BCF    F94.4
09F7A:  MOVLW  1E
09F7C:  MOVLB  7
09F7E:  MOVWF  xE3
09F80:  MOVLB  0
09F82:  CALL   1800
09F86:  MOVLB  5
09F88:  DECF   xA1,F
09F8A:  BCF    F8B.4
09F8C:  BCF    F94.4
09F8E:  MOVLB  0
....................          } 
....................                    
....................          if(DOWN)//Si oprime hacia abajo 
09F90:  BSF    F96.0
09F92:  BTFSC  F84.0
09F94:  BRA    9FB0
....................          { 
....................             Buzz_on;delay_ms(30);Opcion++; Buzz_off; 
09F96:  BSF    F8B.4
09F98:  BCF    F94.4
09F9A:  MOVLW  1E
09F9C:  MOVLB  7
09F9E:  MOVWF  xE3
09FA0:  MOVLB  0
09FA2:  CALL   1800
09FA6:  MOVLB  5
09FA8:  INCF   xA1,F
09FAA:  BCF    F8B.4
09FAC:  BCF    F94.4
09FAE:  MOVLB  0
....................          } 
....................                 
....................          if(RIGHT)//Si oprime SET 
09FB0:  BSF    F96.1
09FB2:  BTFSC  F84.1
09FB4:  BRA    9FE6
....................          {  
....................             Buzz_on;delay_ms(50);Menu=Opcion+30;Opcion=1;glcd_fillscreen(OFF);Buzz_off;i=0; 
09FB6:  BSF    F8B.4
09FB8:  BCF    F94.4
09FBA:  MOVLW  32
09FBC:  MOVLB  7
09FBE:  MOVWF  xE3
09FC0:  MOVLB  0
09FC2:  CALL   1800
09FC6:  MOVLW  1E
09FC8:  MOVLB  5
09FCA:  ADDWF  xA1,W
09FCC:  MOVWF  x9A
09FCE:  MOVLW  01
09FD0:  MOVWF  xA1
09FD2:  MOVLB  7
09FD4:  CLRF   xDE
09FD6:  MOVLB  0
09FD8:  CALL   1880
09FDC:  BCF    F8B.4
09FDE:  BCF    F94.4
09FE0:  MOVLB  5
09FE2:  CLRF   x9C
09FE4:  MOVLB  0
....................          } 
....................           
....................          if(LEFT){ 
09FE6:  BSF    F96.2
09FE8:  BTFSC  F84.2
09FEA:  BRA    A012
....................             Buzz_on;delay_ms(50);Menu=1;Opcion=1;glcd_fillscreen(OFF);Buzz_off; 
09FEC:  BSF    F8B.4
09FEE:  BCF    F94.4
09FF0:  MOVLW  32
09FF2:  MOVLB  7
09FF4:  MOVWF  xE3
09FF6:  MOVLB  0
09FF8:  CALL   1800
09FFC:  MOVLW  01
09FFE:  MOVLB  5
0A000:  MOVWF  x9A
0A002:  MOVWF  xA1
0A004:  MOVLB  7
0A006:  CLRF   xDE
0A008:  MOVLB  0
0A00A:  CALL   1880
0A00E:  BCF    F8B.4
0A010:  BCF    F94.4
0A012:  MOVLB  5
....................          } 
....................    } 
.................... //_--------------------------------------------------------------------------------------------------------------------------------------------------------        
....................  
.................... //_-------------------------------------------------------------------------------------------------------------------------------------------------------- 
....................       if(Menu==6){ //Menu de Borrar Programa 
0A014:  MOVF   x9A,W
0A016:  SUBLW  06
0A018:  BTFSS  FD8.2
0A01A:  BRA    A580
....................        
....................       if(Opcion>5) 
0A01C:  MOVF   xA1,W
0A01E:  SUBLW  05
0A020:  BC    A026
....................          Opcion=1; 
0A022:  MOVLW  01
0A024:  MOVWF  xA1
....................           
....................       if(Opcion<1) 
0A026:  MOVF   xA1,F
0A028:  BNZ   A02E
....................          Opcion=5; 
0A02A:  MOVLW  05
0A02C:  MOVWF  xA1
....................        
....................          strcpy(Menus.Letra,"  Elimine"); 
0A02E:  MOVLW  07
0A030:  MOVWF  FEA
0A032:  MOVLW  BD
0A034:  MOVWF  FE9
0A036:  MOVFF  FF2,7DD
0A03A:  BCF    FF2.7
0A03C:  MOVLW  00
0A03E:  MOVLB  0
0A040:  CALL   0C78
0A044:  TBLRD*-
0A046:  TBLRD*+
0A048:  MOVF   FF5,W
0A04A:  MOVWF  FEE
0A04C:  IORLW  00
0A04E:  BNZ   A046
0A050:  MOVLB  7
0A052:  BTFSC  xDD.7
0A054:  BSF    FF2.7
....................          displayMenu(Menus.Letra,0,0,1,2); 
0A056:  MOVLW  07
0A058:  MOVWF  xE1
0A05A:  MOVLW  BD
0A05C:  MOVWF  xE0
0A05E:  CLRF   xE2
0A060:  CLRF   xE3
0A062:  MOVLW  01
0A064:  MOVWF  xE4
0A066:  MOVLW  02
0A068:  MOVWF  xE5
0A06A:  MOVLB  0
0A06C:  CALL   1EC0
....................           
....................          strcpy(Menus.Letra," Programa"); 
0A070:  MOVLW  07
0A072:  MOVWF  FEA
0A074:  MOVLW  BD
0A076:  MOVWF  FE9
0A078:  MOVFF  FF2,7DD
0A07C:  BCF    FF2.7
0A07E:  MOVLW  00
0A080:  CALL   0ADA
0A084:  TBLRD*-
0A086:  TBLRD*+
0A088:  MOVF   FF5,W
0A08A:  MOVWF  FEE
0A08C:  IORLW  00
0A08E:  BNZ   A086
0A090:  MOVLB  7
0A092:  BTFSC  xDD.7
0A094:  BSF    FF2.7
....................          displayMenu(Menus.Letra,0,16,1,2); 
0A096:  MOVLW  07
0A098:  MOVWF  xE1
0A09A:  MOVLW  BD
0A09C:  MOVWF  xE0
0A09E:  CLRF   xE2
0A0A0:  MOVLW  10
0A0A2:  MOVWF  xE3
0A0A4:  MOVLW  01
0A0A6:  MOVWF  xE4
0A0A8:  MOVLW  02
0A0AA:  MOVWF  xE5
0A0AC:  MOVLB  0
0A0AE:  CALL   1EC0
....................            
....................           
....................          if(Opcion==1) 
0A0B2:  MOVLB  5
0A0B4:  DECFSZ xA1,W
0A0B6:  BRA    A0FC
....................          { 
....................             strcpy(Menus.Letra,"Programa 01"); 
0A0B8:  MOVLW  07
0A0BA:  MOVWF  FEA
0A0BC:  MOVLW  BD
0A0BE:  MOVWF  FE9
0A0C0:  MOVFF  FF2,7DD
0A0C4:  BCF    FF2.7
0A0C6:  MOVLW  00
0A0C8:  MOVLB  0
0A0CA:  CALL   0B02
0A0CE:  TBLRD*-
0A0D0:  TBLRD*+
0A0D2:  MOVF   FF5,W
0A0D4:  MOVWF  FEE
0A0D6:  IORLW  00
0A0D8:  BNZ   A0D0
0A0DA:  MOVLB  7
0A0DC:  BTFSC  xDD.7
0A0DE:  BSF    FF2.7
....................             displayMenu(Menus.Letra,0,38,0,2); 
0A0E0:  MOVLW  07
0A0E2:  MOVWF  xE1
0A0E4:  MOVLW  BD
0A0E6:  MOVWF  xE0
0A0E8:  CLRF   xE2
0A0EA:  MOVLW  26
0A0EC:  MOVWF  xE3
0A0EE:  CLRF   xE4
0A0F0:  MOVLW  02
0A0F2:  MOVWF  xE5
0A0F4:  MOVLB  0
0A0F6:  CALL   1EC0
0A0FA:  MOVLB  5
....................          } 
....................           
....................          if(Opcion==2) 
0A0FC:  MOVF   xA1,W
0A0FE:  SUBLW  02
0A100:  BNZ   A146
....................          { 
....................             strcpy(Menus.Letra,"Programa 02"); 
0A102:  MOVLW  07
0A104:  MOVWF  FEA
0A106:  MOVLW  BD
0A108:  MOVWF  FE9
0A10A:  MOVFF  FF2,7DD
0A10E:  BCF    FF2.7
0A110:  MOVLW  00
0A112:  MOVLB  0
0A114:  CALL   0B2C
0A118:  TBLRD*-
0A11A:  TBLRD*+
0A11C:  MOVF   FF5,W
0A11E:  MOVWF  FEE
0A120:  IORLW  00
0A122:  BNZ   A11A
0A124:  MOVLB  7
0A126:  BTFSC  xDD.7
0A128:  BSF    FF2.7
....................             displayMenu(Menus.Letra,0,38,0,2); 
0A12A:  MOVLW  07
0A12C:  MOVWF  xE1
0A12E:  MOVLW  BD
0A130:  MOVWF  xE0
0A132:  CLRF   xE2
0A134:  MOVLW  26
0A136:  MOVWF  xE3
0A138:  CLRF   xE4
0A13A:  MOVLW  02
0A13C:  MOVWF  xE5
0A13E:  MOVLB  0
0A140:  CALL   1EC0
0A144:  MOVLB  5
....................          } 
....................           
....................          if(Opcion==3) 
0A146:  MOVF   xA1,W
0A148:  SUBLW  03
0A14A:  BNZ   A190
....................          { 
....................             strcpy(Menus.Letra,"Programa 03"); 
0A14C:  MOVLW  07
0A14E:  MOVWF  FEA
0A150:  MOVLW  BD
0A152:  MOVWF  FE9
0A154:  MOVFF  FF2,7DD
0A158:  BCF    FF2.7
0A15A:  MOVLW  00
0A15C:  MOVLB  0
0A15E:  CALL   0B56
0A162:  TBLRD*-
0A164:  TBLRD*+
0A166:  MOVF   FF5,W
0A168:  MOVWF  FEE
0A16A:  IORLW  00
0A16C:  BNZ   A164
0A16E:  MOVLB  7
0A170:  BTFSC  xDD.7
0A172:  BSF    FF2.7
....................             displayMenu(Menus.Letra,0,38,0,2); 
0A174:  MOVLW  07
0A176:  MOVWF  xE1
0A178:  MOVLW  BD
0A17A:  MOVWF  xE0
0A17C:  CLRF   xE2
0A17E:  MOVLW  26
0A180:  MOVWF  xE3
0A182:  CLRF   xE4
0A184:  MOVLW  02
0A186:  MOVWF  xE5
0A188:  MOVLB  0
0A18A:  CALL   1EC0
0A18E:  MOVLB  5
....................          } 
....................           
....................          if(Opcion==4) 
0A190:  MOVF   xA1,W
0A192:  SUBLW  04
0A194:  BNZ   A1DA
....................          { 
....................             strcpy(Menus.Letra,"Programa 04"); 
0A196:  MOVLW  07
0A198:  MOVWF  FEA
0A19A:  MOVLW  BD
0A19C:  MOVWF  FE9
0A19E:  MOVFF  FF2,7DD
0A1A2:  BCF    FF2.7
0A1A4:  MOVLW  00
0A1A6:  MOVLB  0
0A1A8:  CALL   0B80
0A1AC:  TBLRD*-
0A1AE:  TBLRD*+
0A1B0:  MOVF   FF5,W
0A1B2:  MOVWF  FEE
0A1B4:  IORLW  00
0A1B6:  BNZ   A1AE
0A1B8:  MOVLB  7
0A1BA:  BTFSC  xDD.7
0A1BC:  BSF    FF2.7
....................             displayMenu(Menus.Letra,0,38,0,2); 
0A1BE:  MOVLW  07
0A1C0:  MOVWF  xE1
0A1C2:  MOVLW  BD
0A1C4:  MOVWF  xE0
0A1C6:  CLRF   xE2
0A1C8:  MOVLW  26
0A1CA:  MOVWF  xE3
0A1CC:  CLRF   xE4
0A1CE:  MOVLW  02
0A1D0:  MOVWF  xE5
0A1D2:  MOVLB  0
0A1D4:  CALL   1EC0
0A1D8:  MOVLB  5
....................          } 
....................           
....................          if(Opcion==5) 
0A1DA:  MOVF   xA1,W
0A1DC:  SUBLW  05
0A1DE:  BNZ   A224
....................          { 
....................             strcpy(Menus.Letra,"Programa 05"); 
0A1E0:  MOVLW  07
0A1E2:  MOVWF  FEA
0A1E4:  MOVLW  BD
0A1E6:  MOVWF  FE9
0A1E8:  MOVFF  FF2,7DD
0A1EC:  BCF    FF2.7
0A1EE:  MOVLW  00
0A1F0:  MOVLB  0
0A1F2:  CALL   0BAA
0A1F6:  TBLRD*-
0A1F8:  TBLRD*+
0A1FA:  MOVF   FF5,W
0A1FC:  MOVWF  FEE
0A1FE:  IORLW  00
0A200:  BNZ   A1F8
0A202:  MOVLB  7
0A204:  BTFSC  xDD.7
0A206:  BSF    FF2.7
....................             displayMenu(Menus.Letra,0,38,0,2); 
0A208:  MOVLW  07
0A20A:  MOVWF  xE1
0A20C:  MOVLW  BD
0A20E:  MOVWF  xE0
0A210:  CLRF   xE2
0A212:  MOVLW  26
0A214:  MOVWF  xE3
0A216:  CLRF   xE4
0A218:  MOVLW  02
0A21A:  MOVWF  xE5
0A21C:  MOVLB  0
0A21E:  CALL   1EC0
0A222:  MOVLB  5
....................          } 
....................           
....................          
....................       if(UP)//Si oprime hacia arriba 
0A224:  BSF    F92.5
0A226:  BTFSC  F80.5
0A228:  BRA    A262
....................       { 
....................          Buzz_on;delay_ms(30);Opcion++;Buzz_off; 
0A22A:  BSF    F8B.4
0A22C:  BCF    F94.4
0A22E:  MOVLW  1E
0A230:  MOVLB  7
0A232:  MOVWF  xE3
0A234:  MOVLB  0
0A236:  CALL   1800
0A23A:  MOVLB  5
0A23C:  INCF   xA1,F
0A23E:  BCF    F8B.4
0A240:  BCF    F94.4
....................          glcd_rect(40, 35, 85, 60, YES, OFF); 
0A242:  MOVLW  28
0A244:  MOVLB  7
0A246:  MOVWF  xF5
0A248:  MOVLW  23
0A24A:  MOVWF  xF6
0A24C:  MOVLW  55
0A24E:  MOVWF  xF7
0A250:  MOVLW  3C
0A252:  MOVWF  xF8
0A254:  MOVLW  01
0A256:  MOVWF  xF9
0A258:  CLRF   xFA
0A25A:  MOVLB  0
0A25C:  CALL   1DFE
0A260:  MOVLB  5
....................       } 
....................              
....................       if(DOWN)//Si oprime hacia abajo 
0A262:  BSF    F96.0
0A264:  BTFSC  F84.0
0A266:  BRA    A2A0
....................       {   
....................          Buzz_on;delay_ms(30);Opcion--;Buzz_off; 
0A268:  BSF    F8B.4
0A26A:  BCF    F94.4
0A26C:  MOVLW  1E
0A26E:  MOVLB  7
0A270:  MOVWF  xE3
0A272:  MOVLB  0
0A274:  CALL   1800
0A278:  MOVLB  5
0A27A:  DECF   xA1,F
0A27C:  BCF    F8B.4
0A27E:  BCF    F94.4
....................          glcd_rect(40, 35, 85, 60, YES, OFF); 
0A280:  MOVLW  28
0A282:  MOVLB  7
0A284:  MOVWF  xF5
0A286:  MOVLW  23
0A288:  MOVWF  xF6
0A28A:  MOVLW  55
0A28C:  MOVWF  xF7
0A28E:  MOVLW  3C
0A290:  MOVWF  xF8
0A292:  MOVLW  01
0A294:  MOVWF  xF9
0A296:  CLRF   xFA
0A298:  MOVLB  0
0A29A:  CALL   1DFE
0A29E:  MOVLB  5
....................       } 
....................              
....................       if(RIGHT)//Si oprime SET 
0A2A0:  BSF    F96.1
0A2A2:  BTFSC  F84.1
0A2A4:  BRA    A540
....................       {   
....................          Buzz_on; 
0A2A6:  BSF    F8B.4
0A2A8:  BCF    F94.4
....................          for(i=0;i<10;i++){ 
0A2AA:  CLRF   x9C
0A2AC:  MOVF   x9C,W
0A2AE:  SUBLW  09
0A2B0:  BNC   A322
....................             Temperatura1[i+((Opcion-1)*10)]=0; 
0A2B2:  MOVLW  01
0A2B4:  SUBWF  xA1,W
0A2B6:  MULLW  0A
0A2B8:  MOVF   FF3,W
0A2BA:  ADDWF  x9C,W
0A2BC:  MOVWF  00
0A2BE:  BCF    FD8.0
0A2C0:  RLCF   00,F
0A2C2:  MOVF   00,W
0A2C4:  CLRF   03
0A2C6:  ADDLW  67
0A2C8:  MOVWF  FE9
0A2CA:  MOVLW  06
0A2CC:  ADDWFC 03,W
0A2CE:  MOVWF  FEA
0A2D0:  CLRF   FEC
0A2D2:  MOVF   FED,F
0A2D4:  CLRF   FEF
....................             Horas1[i+((Opcion-1)*10)]=0; 
0A2D6:  MOVLW  01
0A2D8:  SUBWF  xA1,W
0A2DA:  MULLW  0A
0A2DC:  MOVF   FF3,W
0A2DE:  ADDWF  x9C,W
0A2E0:  MOVWF  00
0A2E2:  BCF    FD8.0
0A2E4:  RLCF   00,F
0A2E6:  MOVF   00,W
0A2E8:  CLRF   03
0A2EA:  ADDLW  CB
0A2EC:  MOVWF  FE9
0A2EE:  MOVLW  06
0A2F0:  ADDWFC 03,W
0A2F2:  MOVWF  FEA
0A2F4:  CLRF   FEC
0A2F6:  MOVF   FED,F
0A2F8:  CLRF   FEF
....................             Minutos1[i+((Opcion-1)*10)]=0; 
0A2FA:  MOVLW  01
0A2FC:  SUBWF  xA1,W
0A2FE:  MULLW  0A
0A300:  MOVF   FF3,W
0A302:  ADDWF  x9C,W
0A304:  MOVWF  00
0A306:  BCF    FD8.0
0A308:  RLCF   00,F
0A30A:  MOVF   00,W
0A30C:  CLRF   03
0A30E:  ADDLW  2F
0A310:  MOVWF  FE9
0A312:  MOVLW  07
0A314:  ADDWFC 03,W
0A316:  MOVWF  FEA
0A318:  CLRF   FEC
0A31A:  MOVF   FED,F
0A31C:  CLRF   FEF
....................          } 
0A31E:  INCF   x9C,F
0A320:  BRA    A2AC
....................           
....................          for(i=0;i<10;i++){ 
0A322:  CLRF   x9C
0A324:  MOVF   x9C,W
0A326:  SUBLW  09
0A328:  BTFSS  FD8.0
0A32A:  BRA    A45C
....................             delay_ms(10);     
0A32C:  MOVLW  0A
0A32E:  MOVLB  7
0A330:  MOVWF  xE3
0A332:  MOVLB  0
0A334:  CALL   1800
....................             write_eeprom((i*2)+(40*(Opcion-1)),0); 
0A338:  BCF    FD8.0
0A33A:  MOVLB  5
0A33C:  RLCF   x9C,W
0A33E:  MOVLB  7
0A340:  MOVWF  xDD
0A342:  MOVLW  01
0A344:  MOVLB  5
0A346:  SUBWF  xA1,W
0A348:  MULLW  28
0A34A:  MOVF   FF3,W
0A34C:  MOVLB  7
0A34E:  ADDWF  xDD,F
0A350:  CLRF   FAA
0A352:  MOVFF  7DD,FA9
0A356:  CLRF   FA8
0A358:  BCF    FA6.6
0A35A:  BCF    FA6.7
0A35C:  BSF    FA6.2
0A35E:  MOVF   FF2,W
0A360:  MOVWF  00
0A362:  BCF    FF2.7
0A364:  MOVLB  F
0A366:  MOVLW  55
0A368:  MOVWF  FA7
0A36A:  MOVLW  AA
0A36C:  MOVWF  FA7
0A36E:  BSF    FA6.1
0A370:  BTFSC  FA6.1
0A372:  BRA    A370
0A374:  BCF    FA6.2
0A376:  MOVF   00,W
0A378:  IORWF  FF2,F
....................             delay_ms(10);     
0A37A:  MOVLW  0A
0A37C:  MOVLB  7
0A37E:  MOVWF  xE3
0A380:  MOVLB  0
0A382:  CALL   1800
....................             write_eeprom((i*2)+1+(40*(Opcion-1)),0); 
0A386:  BCF    FD8.0
0A388:  MOVLB  5
0A38A:  RLCF   x9C,W
0A38C:  ADDLW  01
0A38E:  MOVLB  7
0A390:  MOVWF  xDD
0A392:  MOVLW  01
0A394:  MOVLB  5
0A396:  SUBWF  xA1,W
0A398:  MULLW  28
0A39A:  MOVF   FF3,W
0A39C:  MOVLB  7
0A39E:  ADDWF  xDD,F
0A3A0:  CLRF   FAA
0A3A2:  MOVFF  7DD,FA9
0A3A6:  CLRF   FA8
0A3A8:  BCF    FA6.6
0A3AA:  BCF    FA6.7
0A3AC:  BSF    FA6.2
0A3AE:  MOVF   FF2,W
0A3B0:  MOVWF  00
0A3B2:  BCF    FF2.7
0A3B4:  MOVLB  F
0A3B6:  MOVLW  55
0A3B8:  MOVWF  FA7
0A3BA:  MOVLW  AA
0A3BC:  MOVWF  FA7
0A3BE:  BSF    FA6.1
0A3C0:  BTFSC  FA6.1
0A3C2:  BRA    A3C0
0A3C4:  BCF    FA6.2
0A3C6:  MOVF   00,W
0A3C8:  IORWF  FF2,F
....................             delay_ms(10);     
0A3CA:  MOVLW  0A
0A3CC:  MOVLB  7
0A3CE:  MOVWF  xE3
0A3D0:  MOVLB  0
0A3D2:  CALL   1800
....................             write_eeprom(i+((40*Opcion)-20),0); 
0A3D6:  MOVLB  5
0A3D8:  MOVF   xA1,W
0A3DA:  MULLW  28
0A3DC:  MOVF   FF3,W
0A3DE:  ADDLW  EC
0A3E0:  ADDWF  x9C,W
0A3E2:  MOVLB  7
0A3E4:  MOVWF  xDD
0A3E6:  CLRF   FAA
0A3E8:  MOVFF  7DD,FA9
0A3EC:  CLRF   FA8
0A3EE:  BCF    FA6.6
0A3F0:  BCF    FA6.7
0A3F2:  BSF    FA6.2
0A3F4:  MOVF   FF2,W
0A3F6:  MOVWF  00
0A3F8:  BCF    FF2.7
0A3FA:  MOVLB  F
0A3FC:  MOVLW  55
0A3FE:  MOVWF  FA7
0A400:  MOVLW  AA
0A402:  MOVWF  FA7
0A404:  BSF    FA6.1
0A406:  BTFSC  FA6.1
0A408:  BRA    A406
0A40A:  BCF    FA6.2
0A40C:  MOVF   00,W
0A40E:  IORWF  FF2,F
....................             delay_ms(10);     
0A410:  MOVLW  0A
0A412:  MOVLB  7
0A414:  MOVWF  xE3
0A416:  MOVLB  0
0A418:  CALL   1800
....................             write_eeprom(i+((40*Opcion)-10),0); 
0A41C:  MOVLB  5
0A41E:  MOVF   xA1,W
0A420:  MULLW  28
0A422:  MOVF   FF3,W
0A424:  ADDLW  F6
0A426:  ADDWF  x9C,W
0A428:  MOVLB  7
0A42A:  MOVWF  xDD
0A42C:  CLRF   FAA
0A42E:  MOVFF  7DD,FA9
0A432:  CLRF   FA8
0A434:  BCF    FA6.6
0A436:  BCF    FA6.7
0A438:  BSF    FA6.2
0A43A:  MOVF   FF2,W
0A43C:  MOVWF  00
0A43E:  BCF    FF2.7
0A440:  MOVLB  F
0A442:  MOVLW  55
0A444:  MOVWF  FA7
0A446:  MOVLW  AA
0A448:  MOVWF  FA7
0A44A:  BSF    FA6.1
0A44C:  BTFSC  FA6.1
0A44E:  BRA    A44C
0A450:  BCF    FA6.2
0A452:  MOVF   00,W
0A454:  IORWF  FF2,F
....................          }  
0A456:  MOVLB  5
0A458:  INCF   x9C,F
0A45A:  BRA    A324
....................           
....................          delay_ms(200);Buzz_off;Menu=1;glcd_fillscreen(OFF);Opcion=1;visual=1; 
0A45C:  MOVLW  C8
0A45E:  MOVLB  7
0A460:  MOVWF  xE3
0A462:  MOVLB  0
0A464:  CALL   1800
0A468:  BCF    F8B.4
0A46A:  BCF    F94.4
0A46C:  MOVLW  01
0A46E:  MOVLB  5
0A470:  MOVWF  x9A
0A472:  MOVLB  7
0A474:  CLRF   xDE
0A476:  MOVLB  0
0A478:  CALL   1880
0A47C:  MOVLW  01
0A47E:  MOVLB  5
0A480:  MOVWF  xA1
0A482:  BSF    x95.0
....................          glcd_fillScreen(OFF); 
0A484:  MOVLB  7
0A486:  CLRF   xDE
0A488:  MOVLB  0
0A48A:  CALL   1880
....................          strcpy(Menus.Letra,"Programa"); 
0A48E:  MOVLW  07
0A490:  MOVWF  FEA
0A492:  MOVLW  BD
0A494:  MOVWF  FE9
0A496:  MOVFF  FF2,7DD
0A49A:  BCF    FF2.7
0A49C:  MOVLW  00
0A49E:  CALL   0CA0
0A4A2:  TBLRD*-
0A4A4:  TBLRD*+
0A4A6:  MOVF   FF5,W
0A4A8:  MOVWF  FEE
0A4AA:  IORLW  00
0A4AC:  BNZ   A4A4
0A4AE:  MOVLB  7
0A4B0:  BTFSC  xDD.7
0A4B2:  BSF    FF2.7
....................          displayMenu(Menus.Letra,30,0,0,2); 
0A4B4:  MOVLW  07
0A4B6:  MOVWF  xE1
0A4B8:  MOVLW  BD
0A4BA:  MOVWF  xE0
0A4BC:  MOVLW  1E
0A4BE:  MOVWF  xE2
0A4C0:  CLRF   xE3
0A4C2:  CLRF   xE4
0A4C4:  MOVLW  02
0A4C6:  MOVWF  xE5
0A4C8:  MOVLB  0
0A4CA:  CALL   1EC0
....................          strcpy(Menus.Letra,"Eliminado"); 
0A4CE:  MOVLW  07
0A4D0:  MOVWF  FEA
0A4D2:  MOVLW  BD
0A4D4:  MOVWF  FE9
0A4D6:  MOVFF  FF2,7DD
0A4DA:  BCF    FF2.7
0A4DC:  MOVLW  00
0A4DE:  CALL   0CC8
0A4E2:  TBLRD*-
0A4E4:  TBLRD*+
0A4E6:  MOVF   FF5,W
0A4E8:  MOVWF  FEE
0A4EA:  IORLW  00
0A4EC:  BNZ   A4E4
0A4EE:  MOVLB  7
0A4F0:  BTFSC  xDD.7
0A4F2:  BSF    FF2.7
....................          displayMenu(Menus.Letra,15,30,0,2); 
0A4F4:  MOVLW  07
0A4F6:  MOVWF  xE1
0A4F8:  MOVLW  BD
0A4FA:  MOVWF  xE0
0A4FC:  MOVLW  0F
0A4FE:  MOVWF  xE2
0A500:  MOVLW  1E
0A502:  MOVWF  xE3
0A504:  CLRF   xE4
0A506:  MOVLW  02
0A508:  MOVWF  xE5
0A50A:  MOVLB  0
0A50C:  CALL   1EC0
....................          Menu=1;glcd_update();delay_ms(1000); 
0A510:  MOVLW  01
0A512:  MOVLB  5
0A514:  MOVWF  x9A
0A516:  MOVLB  0
0A518:  CALL   18DA
0A51C:  MOVLW  04
0A51E:  MOVLB  7
0A520:  MOVWF  xDD
0A522:  MOVLW  FA
0A524:  MOVWF  xE3
0A526:  MOVLB  0
0A528:  CALL   1800
0A52C:  MOVLB  7
0A52E:  DECFSZ xDD,F
0A530:  BRA    A522
....................          glcd_fillScreen(OFF);unidad=1; 
0A532:  CLRF   xDE
0A534:  MOVLB  0
0A536:  CALL   1880
0A53A:  MOVLW  01
0A53C:  MOVLB  5
0A53E:  MOVWF  x9B
....................       }  
....................                    
....................       if(LEFT)//Si oprime boton de Toma. 
0A540:  BSF    F96.2
0A542:  BTFSC  F84.2
0A544:  BRA    A580
....................       { 
....................          Buzz_on;Opcion=1;Buzz_off;delay_ms(500);Menu=1;glcd_fillscreen(OFF);Opcion=1;visual=1; 
0A546:  BSF    F8B.4
0A548:  BCF    F94.4
0A54A:  MOVLW  01
0A54C:  MOVWF  xA1
0A54E:  BCF    F8B.4
0A550:  BCF    F94.4
0A552:  MOVLW  02
0A554:  MOVLB  7
0A556:  MOVWF  xDD
0A558:  MOVLW  FA
0A55A:  MOVWF  xE3
0A55C:  MOVLB  0
0A55E:  CALL   1800
0A562:  MOVLB  7
0A564:  DECFSZ xDD,F
0A566:  BRA    A558
0A568:  MOVLW  01
0A56A:  MOVLB  5
0A56C:  MOVWF  x9A
0A56E:  MOVLB  7
0A570:  CLRF   xDE
0A572:  MOVLB  0
0A574:  CALL   1880
0A578:  MOVLW  01
0A57A:  MOVLB  5
0A57C:  MOVWF  xA1
0A57E:  BSF    x95.0
....................       }  
....................     } 
.................... //_--------------------------------------------------------------------------------------------------------------------------------------------------------        
....................  
.................... //_--------------------------------------------------------------------------------------------------------------------------------------------------------       
....................       if(Menu==8){ // Menu de Cambio de Contrasea 
0A580:  MOVF   x9A,W
0A582:  SUBLW  08
0A584:  BTFSS  FD8.2
0A586:  BRA    AA64
....................          
....................       strcpy(Menus.Letra,"Clave"); 
0A588:  MOVLW  07
0A58A:  MOVWF  FEA
0A58C:  MOVLW  BD
0A58E:  MOVWF  FE9
0A590:  MOVFF  FF2,7DD
0A594:  BCF    FF2.7
0A596:  MOVLW  00
0A598:  MOVLB  0
0A59A:  CALL   08B2
0A59E:  TBLRD*-
0A5A0:  TBLRD*+
0A5A2:  MOVF   FF5,W
0A5A4:  MOVWF  FEE
0A5A6:  IORLW  00
0A5A8:  BNZ   A5A0
0A5AA:  MOVLB  7
0A5AC:  BTFSC  xDD.7
0A5AE:  BSF    FF2.7
....................       displayMenu(Menus.Letra,30,0,1,2);      
0A5B0:  MOVLW  07
0A5B2:  MOVWF  xE1
0A5B4:  MOVLW  BD
0A5B6:  MOVWF  xE0
0A5B8:  MOVLW  1E
0A5BA:  MOVWF  xE2
0A5BC:  CLRF   xE3
0A5BE:  MOVLW  01
0A5C0:  MOVWF  xE4
0A5C2:  MOVLW  02
0A5C4:  MOVWF  xE5
0A5C6:  MOVLB  0
0A5C8:  CALL   1EC0
....................        
....................       if(unidad==1) 
0A5CC:  MOVLB  5
0A5CE:  DECFSZ x9B,W
0A5D0:  BRA    A630
....................       { 
....................          displayContrasena(Contrasena[0],20,30,1); 
0A5D2:  MOVFF  5EB,7DF
0A5D6:  MOVLW  14
0A5D8:  MOVLB  7
0A5DA:  MOVWF  xE0
0A5DC:  MOVLW  1E
0A5DE:  MOVWF  xE1
0A5E0:  MOVLW  01
0A5E2:  MOVWF  xE2
0A5E4:  MOVLB  0
0A5E6:  CALL   2112
....................          displayContrasena(Contrasena[1],40,30,0); 
0A5EA:  MOVFF  5EC,7DF
0A5EE:  MOVLW  28
0A5F0:  MOVLB  7
0A5F2:  MOVWF  xE0
0A5F4:  MOVLW  1E
0A5F6:  MOVWF  xE1
0A5F8:  CLRF   xE2
0A5FA:  MOVLB  0
0A5FC:  CALL   2112
....................          displayContrasena(Contrasena[2],60,30,0); 
0A600:  MOVFF  5ED,7DF
0A604:  MOVLW  3C
0A606:  MOVLB  7
0A608:  MOVWF  xE0
0A60A:  MOVLW  1E
0A60C:  MOVWF  xE1
0A60E:  CLRF   xE2
0A610:  MOVLB  0
0A612:  CALL   2112
....................          displayContrasena(Contrasena[3],80,30,0); 
0A616:  MOVFF  5EE,7DF
0A61A:  MOVLW  50
0A61C:  MOVLB  7
0A61E:  MOVWF  xE0
0A620:  MOVLW  1E
0A622:  MOVWF  xE1
0A624:  CLRF   xE2
0A626:  MOVLB  0
0A628:  CALL   2112
....................       } 
....................       else 
0A62C:  BRA    A758
0A62E:  MOVLB  5
....................       { 
....................          if(unidad==2) 
0A630:  MOVF   x9B,W
0A632:  SUBLW  02
0A634:  BNZ   A694
....................          { 
....................             displayContrasena(Contrasena[0],20,30,0); 
0A636:  MOVFF  5EB,7DF
0A63A:  MOVLW  14
0A63C:  MOVLB  7
0A63E:  MOVWF  xE0
0A640:  MOVLW  1E
0A642:  MOVWF  xE1
0A644:  CLRF   xE2
0A646:  MOVLB  0
0A648:  CALL   2112
....................             displayContrasena(Contrasena[1],40,30,1); 
0A64C:  MOVFF  5EC,7DF
0A650:  MOVLW  28
0A652:  MOVLB  7
0A654:  MOVWF  xE0
0A656:  MOVLW  1E
0A658:  MOVWF  xE1
0A65A:  MOVLW  01
0A65C:  MOVWF  xE2
0A65E:  MOVLB  0
0A660:  CALL   2112
....................             displayContrasena(Contrasena[2],60,30,0); 
0A664:  MOVFF  5ED,7DF
0A668:  MOVLW  3C
0A66A:  MOVLB  7
0A66C:  MOVWF  xE0
0A66E:  MOVLW  1E
0A670:  MOVWF  xE1
0A672:  CLRF   xE2
0A674:  MOVLB  0
0A676:  CALL   2112
....................             displayContrasena(Contrasena[3],80,30,0); 
0A67A:  MOVFF  5EE,7DF
0A67E:  MOVLW  50
0A680:  MOVLB  7
0A682:  MOVWF  xE0
0A684:  MOVLW  1E
0A686:  MOVWF  xE1
0A688:  CLRF   xE2
0A68A:  MOVLB  0
0A68C:  CALL   2112
....................          } 
....................          else 
0A690:  BRA    A758
0A692:  MOVLB  5
....................          { 
....................             if(unidad==3) 
0A694:  MOVF   x9B,W
0A696:  SUBLW  03
0A698:  BNZ   A6F8
....................             { 
....................                displayContrasena(Contrasena[0],20,30,0); 
0A69A:  MOVFF  5EB,7DF
0A69E:  MOVLW  14
0A6A0:  MOVLB  7
0A6A2:  MOVWF  xE0
0A6A4:  MOVLW  1E
0A6A6:  MOVWF  xE1
0A6A8:  CLRF   xE2
0A6AA:  MOVLB  0
0A6AC:  CALL   2112
....................                displayContrasena(Contrasena[1],40,30,0); 
0A6B0:  MOVFF  5EC,7DF
0A6B4:  MOVLW  28
0A6B6:  MOVLB  7
0A6B8:  MOVWF  xE0
0A6BA:  MOVLW  1E
0A6BC:  MOVWF  xE1
0A6BE:  CLRF   xE2
0A6C0:  MOVLB  0
0A6C2:  CALL   2112
....................                displayContrasena(Contrasena[2],60,30,1); 
0A6C6:  MOVFF  5ED,7DF
0A6CA:  MOVLW  3C
0A6CC:  MOVLB  7
0A6CE:  MOVWF  xE0
0A6D0:  MOVLW  1E
0A6D2:  MOVWF  xE1
0A6D4:  MOVLW  01
0A6D6:  MOVWF  xE2
0A6D8:  MOVLB  0
0A6DA:  CALL   2112
....................                displayContrasena(Contrasena[3],80,30,0); 
0A6DE:  MOVFF  5EE,7DF
0A6E2:  MOVLW  50
0A6E4:  MOVLB  7
0A6E6:  MOVWF  xE0
0A6E8:  MOVLW  1E
0A6EA:  MOVWF  xE1
0A6EC:  CLRF   xE2
0A6EE:  MOVLB  0
0A6F0:  CALL   2112
....................             } 
....................             else 
0A6F4:  BRA    A758
0A6F6:  MOVLB  5
....................             { 
....................                if(unidad==4) 
0A6F8:  MOVF   x9B,W
0A6FA:  SUBLW  04
0A6FC:  BNZ   A75A
....................                { 
....................                   displayContrasena(Contrasena[0],20,30,0); 
0A6FE:  MOVFF  5EB,7DF
0A702:  MOVLW  14
0A704:  MOVLB  7
0A706:  MOVWF  xE0
0A708:  MOVLW  1E
0A70A:  MOVWF  xE1
0A70C:  CLRF   xE2
0A70E:  MOVLB  0
0A710:  CALL   2112
....................                   displayContrasena(Contrasena[1],40,30,0); 
0A714:  MOVFF  5EC,7DF
0A718:  MOVLW  28
0A71A:  MOVLB  7
0A71C:  MOVWF  xE0
0A71E:  MOVLW  1E
0A720:  MOVWF  xE1
0A722:  CLRF   xE2
0A724:  MOVLB  0
0A726:  CALL   2112
....................                   displayContrasena(Contrasena[2],60,30,0); 
0A72A:  MOVFF  5ED,7DF
0A72E:  MOVLW  3C
0A730:  MOVLB  7
0A732:  MOVWF  xE0
0A734:  MOVLW  1E
0A736:  MOVWF  xE1
0A738:  CLRF   xE2
0A73A:  MOVLB  0
0A73C:  CALL   2112
....................                   displayContrasena(Contrasena[3],80,30,1); 
0A740:  MOVFF  5EE,7DF
0A744:  MOVLW  50
0A746:  MOVLB  7
0A748:  MOVWF  xE0
0A74A:  MOVLW  1E
0A74C:  MOVWF  xE1
0A74E:  MOVLW  01
0A750:  MOVWF  xE2
0A752:  MOVLB  0
0A754:  CALL   2112
0A758:  MOVLB  5
....................                } 
....................             } 
....................          } 
....................       } 
....................        
....................       if(UP)//Si oprime hacia arriba 
0A75A:  BSF    F92.5
0A75C:  BTFSC  F80.5
0A75E:  BRA    A7D4
....................       { 
....................          Buzz_on;delay_ms(10);Buzz_off; 
0A760:  BSF    F8B.4
0A762:  BCF    F94.4
0A764:  MOVLW  0A
0A766:  MOVLB  7
0A768:  MOVWF  xE3
0A76A:  MOVLB  0
0A76C:  CALL   1800
0A770:  BCF    F8B.4
0A772:  BCF    F94.4
....................          delay_ms(30); 
0A774:  MOVLW  1E
0A776:  MOVLB  7
0A778:  MOVWF  xE3
0A77A:  MOVLB  0
0A77C:  CALL   1800
....................          for(i=1;i<=4;i++) 
0A780:  MOVLW  01
0A782:  MOVLB  5
0A784:  MOVWF  x9C
0A786:  MOVF   x9C,W
0A788:  SUBLW  04
0A78A:  BNC   A7D4
....................          { 
....................             if(unidad==i) 
0A78C:  MOVF   x9C,W
0A78E:  SUBWF  x9B,W
0A790:  BNZ   A7D0
....................             { 
....................                Contrasena[i-1]++; 
0A792:  MOVLW  01
0A794:  SUBWF  x9C,W
0A796:  CLRF   03
0A798:  ADDLW  EB
0A79A:  MOVWF  FE9
0A79C:  MOVLW  05
0A79E:  ADDWFC 03,W
0A7A0:  MOVWF  FEA
0A7A2:  INCF   FEF,F
....................                if(Contrasena[i-1]>9)    
0A7A4:  MOVLW  01
0A7A6:  SUBWF  x9C,W
0A7A8:  CLRF   03
0A7AA:  ADDLW  EB
0A7AC:  MOVWF  FE9
0A7AE:  MOVLW  05
0A7B0:  ADDWFC 03,W
0A7B2:  MOVWF  FEA
0A7B4:  BTFSC  FEF.7
0A7B6:  BRA    A7D0
0A7B8:  MOVF   FEF,W
0A7BA:  SUBLW  09
0A7BC:  BC    A7D0
....................                { 
....................                   Contrasena[i-1]=0; 
0A7BE:  MOVLW  01
0A7C0:  SUBWF  x9C,W
0A7C2:  CLRF   03
0A7C4:  ADDLW  EB
0A7C6:  MOVWF  FE9
0A7C8:  MOVLW  05
0A7CA:  ADDWFC 03,W
0A7CC:  MOVWF  FEA
0A7CE:  CLRF   FEF
....................                } 
....................             } 
....................          } 
0A7D0:  INCF   x9C,F
0A7D2:  BRA    A786
....................       } 
....................              
....................       if(DOWN)//Si oprime hacia abajo 
0A7D4:  BSF    F96.0
0A7D6:  BTFSC  F84.0
0A7D8:  BRA    A84C
....................       { 
....................          Buzz_on;delay_ms(10);Buzz_off; 
0A7DA:  BSF    F8B.4
0A7DC:  BCF    F94.4
0A7DE:  MOVLW  0A
0A7E0:  MOVLB  7
0A7E2:  MOVWF  xE3
0A7E4:  MOVLB  0
0A7E6:  CALL   1800
0A7EA:  BCF    F8B.4
0A7EC:  BCF    F94.4
....................          delay_ms(30); 
0A7EE:  MOVLW  1E
0A7F0:  MOVLB  7
0A7F2:  MOVWF  xE3
0A7F4:  MOVLB  0
0A7F6:  CALL   1800
....................          for(i=1;i<=4;i++) 
0A7FA:  MOVLW  01
0A7FC:  MOVLB  5
0A7FE:  MOVWF  x9C
0A800:  MOVF   x9C,W
0A802:  SUBLW  04
0A804:  BNC   A84C
....................          { 
....................             if(unidad==i) 
0A806:  MOVF   x9C,W
0A808:  SUBWF  x9B,W
0A80A:  BNZ   A848
....................             {Contrasena[i-1]--;  
0A80C:  MOVLW  01
0A80E:  SUBWF  x9C,W
0A810:  CLRF   03
0A812:  ADDLW  EB
0A814:  MOVWF  FE9
0A816:  MOVLW  05
0A818:  ADDWFC 03,W
0A81A:  MOVWF  FEA
0A81C:  DECF   FEF,F
....................             if(Contrasena[i-1]<0) 
0A81E:  MOVLW  01
0A820:  SUBWF  x9C,W
0A822:  CLRF   03
0A824:  ADDLW  EB
0A826:  MOVWF  FE9
0A828:  MOVLW  05
0A82A:  ADDWFC 03,W
0A82C:  MOVWF  FEA
0A82E:  BTFSC  FEF.7
0A830:  BRA    A834
0A832:  BRA    A848
....................             {Contrasena[i-1]=9;} 
0A834:  MOVLW  01
0A836:  SUBWF  x9C,W
0A838:  CLRF   03
0A83A:  ADDLW  EB
0A83C:  MOVWF  FE9
0A83E:  MOVLW  05
0A840:  ADDWFC 03,W
0A842:  MOVWF  FEA
0A844:  MOVLW  09
0A846:  MOVWF  FEF
....................             } 
....................          }   
0A848:  INCF   x9C,F
0A84A:  BRA    A800
....................       } 
....................              
....................       if(RIGHT)//Si oprime RIGHT 
0A84C:  BSF    F96.1
0A84E:  BTFSC  F84.1
0A850:  BRA    A876
....................       { 
....................          Buzz_on;delay_ms(10);Buzz_off;delay_ms(30);unidad++; 
0A852:  BSF    F8B.4
0A854:  BCF    F94.4
0A856:  MOVLW  0A
0A858:  MOVLB  7
0A85A:  MOVWF  xE3
0A85C:  MOVLB  0
0A85E:  CALL   1800
0A862:  BCF    F8B.4
0A864:  BCF    F94.4
0A866:  MOVLW  1E
0A868:  MOVLB  7
0A86A:  MOVWF  xE3
0A86C:  MOVLB  0
0A86E:  CALL   1800
0A872:  MOVLB  5
0A874:  INCF   x9B,F
....................       } 
....................        
....................       if(LEFT)//Si oprime Izquierda 
0A876:  BSF    F96.2
0A878:  BTFSC  F84.2
0A87A:  BRA    A8B8
....................       { 
....................          Buzz_on;delay_ms(10);Buzz_off;delay_ms(700);Menu=1;glcd_fillscreen(OFF); 
0A87C:  BSF    F8B.4
0A87E:  BCF    F94.4
0A880:  MOVLW  0A
0A882:  MOVLB  7
0A884:  MOVWF  xE3
0A886:  MOVLB  0
0A888:  CALL   1800
0A88C:  BCF    F8B.4
0A88E:  BCF    F94.4
0A890:  MOVLW  04
0A892:  MOVLB  7
0A894:  MOVWF  xDD
0A896:  MOVLW  AF
0A898:  MOVWF  xE3
0A89A:  MOVLB  0
0A89C:  CALL   1800
0A8A0:  MOVLB  7
0A8A2:  DECFSZ xDD,F
0A8A4:  BRA    A896
0A8A6:  MOVLW  01
0A8A8:  MOVLB  5
0A8AA:  MOVWF  x9A
0A8AC:  MOVLB  7
0A8AE:  CLRF   xDE
0A8B0:  MOVLB  0
0A8B2:  CALL   1880
0A8B6:  MOVLB  5
....................       } 
....................        
....................       if(unidad>4) 
0A8B8:  MOVF   x9B,W
0A8BA:  SUBLW  04
0A8BC:  BTFSC  FD8.0
0A8BE:  BRA    AA64
....................       {glcd_fillScreen(OFF); 
0A8C0:  MOVLB  7
0A8C2:  CLRF   xDE
0A8C4:  MOVLB  0
0A8C6:  CALL   1880
....................           
....................          if((Contrasena[0]==Password[0])&&(Contrasena[1]==Password[1])&&(Contrasena[2]==Password[2])&&(Contrasena[3]==Password[3])) 
0A8CA:  MOVLB  5
0A8CC:  MOVF   xEF,W
0A8CE:  SUBWF  xEB,W
0A8D0:  BNZ   A9A2
0A8D2:  MOVF   xF0,W
0A8D4:  SUBWF  xEC,W
0A8D6:  BNZ   A9A2
0A8D8:  MOVF   xF1,W
0A8DA:  SUBWF  xED,W
0A8DC:  BNZ   A9A2
0A8DE:  MOVF   xF2,W
0A8E0:  SUBWF  xEE,W
0A8E2:  BNZ   A9A2
....................          { 
....................             glcd_fillScreen(OFF); 
0A8E4:  MOVLB  7
0A8E6:  CLRF   xDE
0A8E8:  MOVLB  0
0A8EA:  CALL   1880
....................             strcpy(Menus.Letra,"Clave"); 
0A8EE:  MOVLW  07
0A8F0:  MOVWF  FEA
0A8F2:  MOVLW  BD
0A8F4:  MOVWF  FE9
0A8F6:  MOVFF  FF2,7DD
0A8FA:  BCF    FF2.7
0A8FC:  MOVLW  00
0A8FE:  CALL   08B2
0A902:  TBLRD*-
0A904:  TBLRD*+
0A906:  MOVF   FF5,W
0A908:  MOVWF  FEE
0A90A:  IORLW  00
0A90C:  BNZ   A904
0A90E:  MOVLB  7
0A910:  BTFSC  xDD.7
0A912:  BSF    FF2.7
....................             displayMenu(Menus.Letra,30,0,0,2); 
0A914:  MOVLW  07
0A916:  MOVWF  xE1
0A918:  MOVLW  BD
0A91A:  MOVWF  xE0
0A91C:  MOVLW  1E
0A91E:  MOVWF  xE2
0A920:  CLRF   xE3
0A922:  CLRF   xE4
0A924:  MOVLW  02
0A926:  MOVWF  xE5
0A928:  MOVLB  0
0A92A:  CALL   1EC0
....................             strcpy(Menus.Letra,"Correcta"); 
0A92E:  MOVLW  07
0A930:  MOVWF  FEA
0A932:  MOVLW  BD
0A934:  MOVWF  FE9
0A936:  MOVFF  FF2,7DD
0A93A:  BCF    FF2.7
0A93C:  MOVLW  00
0A93E:  CALL   08D6
0A942:  TBLRD*-
0A944:  TBLRD*+
0A946:  MOVF   FF5,W
0A948:  MOVWF  FEE
0A94A:  IORLW  00
0A94C:  BNZ   A944
0A94E:  MOVLB  7
0A950:  BTFSC  xDD.7
0A952:  BSF    FF2.7
....................             displayMenu(Menus.Letra,15,30,0,2); 
0A954:  MOVLW  07
0A956:  MOVWF  xE1
0A958:  MOVLW  BD
0A95A:  MOVWF  xE0
0A95C:  MOVLW  0F
0A95E:  MOVWF  xE2
0A960:  MOVLW  1E
0A962:  MOVWF  xE3
0A964:  CLRF   xE4
0A966:  MOVLW  02
0A968:  MOVWF  xE5
0A96A:  MOVLB  0
0A96C:  CALL   1EC0
....................             Menu=91;glcd_update();delay_ms(1000); 
0A970:  MOVLW  5B
0A972:  MOVLB  5
0A974:  MOVWF  x9A
0A976:  MOVLB  0
0A978:  CALL   18DA
0A97C:  MOVLW  04
0A97E:  MOVLB  7
0A980:  MOVWF  xDD
0A982:  MOVLW  FA
0A984:  MOVWF  xE3
0A986:  MOVLB  0
0A988:  CALL   1800
0A98C:  MOVLB  7
0A98E:  DECFSZ xDD,F
0A990:  BRA    A982
....................             glcd_fillScreen(OFF);unidad=1; 
0A992:  CLRF   xDE
0A994:  MOVLB  0
0A996:  CALL   1880
0A99A:  MOVLW  01
0A99C:  MOVLB  5
0A99E:  MOVWF  x9B
....................          }// Esta parte se puede agregar en el Menu 1 dependiendo de la ubicacin del vidrio. 
....................          else 
0A9A0:  BRA    AA64
....................          { 
....................             glcd_fillScreen(OFF); 
0A9A2:  MOVLB  7
0A9A4:  CLRF   xDE
0A9A6:  MOVLB  0
0A9A8:  CALL   1880
....................             strcpy(Menus.Letra,"Clave"); 
0A9AC:  MOVLW  07
0A9AE:  MOVWF  FEA
0A9B0:  MOVLW  BD
0A9B2:  MOVWF  FE9
0A9B4:  MOVFF  FF2,7DD
0A9B8:  BCF    FF2.7
0A9BA:  MOVLW  00
0A9BC:  CALL   08B2
0A9C0:  TBLRD*-
0A9C2:  TBLRD*+
0A9C4:  MOVF   FF5,W
0A9C6:  MOVWF  FEE
0A9C8:  IORLW  00
0A9CA:  BNZ   A9C2
0A9CC:  MOVLB  7
0A9CE:  BTFSC  xDD.7
0A9D0:  BSF    FF2.7
....................             displayMenu(Menus.Letra,30,0,0,2); 
0A9D2:  MOVLW  07
0A9D4:  MOVWF  xE1
0A9D6:  MOVLW  BD
0A9D8:  MOVWF  xE0
0A9DA:  MOVLW  1E
0A9DC:  MOVWF  xE2
0A9DE:  CLRF   xE3
0A9E0:  CLRF   xE4
0A9E2:  MOVLW  02
0A9E4:  MOVWF  xE5
0A9E6:  MOVLB  0
0A9E8:  CALL   1EC0
....................             strcpy(Menus.Letra,"Incorrecta"); 
0A9EC:  MOVLW  07
0A9EE:  MOVWF  FEA
0A9F0:  MOVLW  BD
0A9F2:  MOVWF  FE9
0A9F4:  MOVFF  FF2,7DD
0A9F8:  BCF    FF2.7
0A9FA:  MOVLW  00
0A9FC:  CALL   08FE
0AA00:  TBLRD*-
0AA02:  TBLRD*+
0AA04:  MOVF   FF5,W
0AA06:  MOVWF  FEE
0AA08:  IORLW  00
0AA0A:  BNZ   AA02
0AA0C:  MOVLB  7
0AA0E:  BTFSC  xDD.7
0AA10:  BSF    FF2.7
....................             displayMenu(Menus.Letra,0,30,0,2); 
0AA12:  MOVLW  07
0AA14:  MOVWF  xE1
0AA16:  MOVLW  BD
0AA18:  MOVWF  xE0
0AA1A:  CLRF   xE2
0AA1C:  MOVLW  1E
0AA1E:  MOVWF  xE3
0AA20:  CLRF   xE4
0AA22:  MOVLW  02
0AA24:  MOVWF  xE5
0AA26:  MOVLB  0
0AA28:  CALL   1EC0
....................             Menu=1;glcd_update();delay_ms(1000); 
0AA2C:  MOVLW  01
0AA2E:  MOVLB  5
0AA30:  MOVWF  x9A
0AA32:  MOVLB  0
0AA34:  CALL   18DA
0AA38:  MOVLW  04
0AA3A:  MOVLB  7
0AA3C:  MOVWF  xDD
0AA3E:  MOVLW  FA
0AA40:  MOVWF  xE3
0AA42:  MOVLB  0
0AA44:  CALL   1800
0AA48:  MOVLB  7
0AA4A:  DECFSZ xDD,F
0AA4C:  BRA    AA3E
....................             glcd_fillScreen(OFF);unidad=1; 
0AA4E:  CLRF   xDE
0AA50:  MOVLB  0
0AA52:  CALL   1880
0AA56:  MOVLW  01
0AA58:  MOVLB  5
0AA5A:  MOVWF  x9B
....................             Contrasena[0]=0;Contrasena[1]=0;Contrasena[2]=0;Contrasena[3]=0; 
0AA5C:  CLRF   xEB
0AA5E:  CLRF   xEC
0AA60:  CLRF   xED
0AA62:  CLRF   xEE
....................          } 
....................       } 
....................     }     
.................... //_--------------------------------------------------------------------------------------------------------------------------------------------------------     
....................  
.................... //_--------------------------------------------------------------------------------------------------------------------------------------------------------       
....................       if(Menu==91){ // Menu de Cambio de Contrasea 
0AA64:  MOVF   x9A,W
0AA66:  SUBLW  5B
0AA68:  BTFSS  FD8.2
0AA6A:  BRA    AEA0
....................          
....................       strcpy(Menus.Letra,"Clave Nueva"); 
0AA6C:  MOVLW  07
0AA6E:  MOVWF  FEA
0AA70:  MOVLW  BD
0AA72:  MOVWF  FE9
0AA74:  MOVFF  FF2,7DD
0AA78:  BCF    FF2.7
0AA7A:  MOVLW  00
0AA7C:  MOVLB  0
0AA7E:  CALL   0CF0
0AA82:  TBLRD*-
0AA84:  TBLRD*+
0AA86:  MOVF   FF5,W
0AA88:  MOVWF  FEE
0AA8A:  IORLW  00
0AA8C:  BNZ   AA84
0AA8E:  MOVLB  7
0AA90:  BTFSC  xDD.7
0AA92:  BSF    FF2.7
....................       displayMenu(Menus.Letra,0,0,1,2);      
0AA94:  MOVLW  07
0AA96:  MOVWF  xE1
0AA98:  MOVLW  BD
0AA9A:  MOVWF  xE0
0AA9C:  CLRF   xE2
0AA9E:  CLRF   xE3
0AAA0:  MOVLW  01
0AAA2:  MOVWF  xE4
0AAA4:  MOVLW  02
0AAA6:  MOVWF  xE5
0AAA8:  MOVLB  0
0AAAA:  CALL   1EC0
....................        
....................       if(unidad==1) 
0AAAE:  MOVLB  5
0AAB0:  DECFSZ x9B,W
0AAB2:  BRA    AB12
....................       { 
....................          displayContrasena(Password[0],20,30,1); 
0AAB4:  MOVFF  5EF,7DF
0AAB8:  MOVLW  14
0AABA:  MOVLB  7
0AABC:  MOVWF  xE0
0AABE:  MOVLW  1E
0AAC0:  MOVWF  xE1
0AAC2:  MOVLW  01
0AAC4:  MOVWF  xE2
0AAC6:  MOVLB  0
0AAC8:  CALL   2112
....................          displayContrasena(Password[1],40,30,0); 
0AACC:  MOVFF  5F0,7DF
0AAD0:  MOVLW  28
0AAD2:  MOVLB  7
0AAD4:  MOVWF  xE0
0AAD6:  MOVLW  1E
0AAD8:  MOVWF  xE1
0AADA:  CLRF   xE2
0AADC:  MOVLB  0
0AADE:  CALL   2112
....................          displayContrasena(Password[2],60,30,0); 
0AAE2:  MOVFF  5F1,7DF
0AAE6:  MOVLW  3C
0AAE8:  MOVLB  7
0AAEA:  MOVWF  xE0
0AAEC:  MOVLW  1E
0AAEE:  MOVWF  xE1
0AAF0:  CLRF   xE2
0AAF2:  MOVLB  0
0AAF4:  CALL   2112
....................          displayContrasena(Password[3],80,30,0); 
0AAF8:  MOVFF  5F2,7DF
0AAFC:  MOVLW  50
0AAFE:  MOVLB  7
0AB00:  MOVWF  xE0
0AB02:  MOVLW  1E
0AB04:  MOVWF  xE1
0AB06:  CLRF   xE2
0AB08:  MOVLB  0
0AB0A:  CALL   2112
....................       } 
....................       else 
0AB0E:  BRA    AC3A
0AB10:  MOVLB  5
....................       { 
....................          if(unidad==2) 
0AB12:  MOVF   x9B,W
0AB14:  SUBLW  02
0AB16:  BNZ   AB76
....................          { 
....................             displayContrasena(Password[0],20,30,0); 
0AB18:  MOVFF  5EF,7DF
0AB1C:  MOVLW  14
0AB1E:  MOVLB  7
0AB20:  MOVWF  xE0
0AB22:  MOVLW  1E
0AB24:  MOVWF  xE1
0AB26:  CLRF   xE2
0AB28:  MOVLB  0
0AB2A:  CALL   2112
....................             displayContrasena(Password[1],40,30,1); 
0AB2E:  MOVFF  5F0,7DF
0AB32:  MOVLW  28
0AB34:  MOVLB  7
0AB36:  MOVWF  xE0
0AB38:  MOVLW  1E
0AB3A:  MOVWF  xE1
0AB3C:  MOVLW  01
0AB3E:  MOVWF  xE2
0AB40:  MOVLB  0
0AB42:  CALL   2112
....................             displayContrasena(Password[2],60,30,0); 
0AB46:  MOVFF  5F1,7DF
0AB4A:  MOVLW  3C
0AB4C:  MOVLB  7
0AB4E:  MOVWF  xE0
0AB50:  MOVLW  1E
0AB52:  MOVWF  xE1
0AB54:  CLRF   xE2
0AB56:  MOVLB  0
0AB58:  CALL   2112
....................             displayContrasena(Password[3],80,30,0); 
0AB5C:  MOVFF  5F2,7DF
0AB60:  MOVLW  50
0AB62:  MOVLB  7
0AB64:  MOVWF  xE0
0AB66:  MOVLW  1E
0AB68:  MOVWF  xE1
0AB6A:  CLRF   xE2
0AB6C:  MOVLB  0
0AB6E:  CALL   2112
....................          } 
....................          else 
0AB72:  BRA    AC3A
0AB74:  MOVLB  5
....................          { 
....................             if(unidad==3) 
0AB76:  MOVF   x9B,W
0AB78:  SUBLW  03
0AB7A:  BNZ   ABDA
....................             { 
....................                displayContrasena(Password[0],20,30,0); 
0AB7C:  MOVFF  5EF,7DF
0AB80:  MOVLW  14
0AB82:  MOVLB  7
0AB84:  MOVWF  xE0
0AB86:  MOVLW  1E
0AB88:  MOVWF  xE1
0AB8A:  CLRF   xE2
0AB8C:  MOVLB  0
0AB8E:  CALL   2112
....................                displayContrasena(Password[1],40,30,0); 
0AB92:  MOVFF  5F0,7DF
0AB96:  MOVLW  28
0AB98:  MOVLB  7
0AB9A:  MOVWF  xE0
0AB9C:  MOVLW  1E
0AB9E:  MOVWF  xE1
0ABA0:  CLRF   xE2
0ABA2:  MOVLB  0
0ABA4:  CALL   2112
....................                displayContrasena(Password[2],60,30,1); 
0ABA8:  MOVFF  5F1,7DF
0ABAC:  MOVLW  3C
0ABAE:  MOVLB  7
0ABB0:  MOVWF  xE0
0ABB2:  MOVLW  1E
0ABB4:  MOVWF  xE1
0ABB6:  MOVLW  01
0ABB8:  MOVWF  xE2
0ABBA:  MOVLB  0
0ABBC:  CALL   2112
....................                displayContrasena(Password[3],80,30,0); 
0ABC0:  MOVFF  5F2,7DF
0ABC4:  MOVLW  50
0ABC6:  MOVLB  7
0ABC8:  MOVWF  xE0
0ABCA:  MOVLW  1E
0ABCC:  MOVWF  xE1
0ABCE:  CLRF   xE2
0ABD0:  MOVLB  0
0ABD2:  CALL   2112
....................             } 
....................             else 
0ABD6:  BRA    AC3A
0ABD8:  MOVLB  5
....................             { 
....................                if(unidad==4) 
0ABDA:  MOVF   x9B,W
0ABDC:  SUBLW  04
0ABDE:  BNZ   AC3C
....................                { 
....................                   displayContrasena(Password[0],20,30,0); 
0ABE0:  MOVFF  5EF,7DF
0ABE4:  MOVLW  14
0ABE6:  MOVLB  7
0ABE8:  MOVWF  xE0
0ABEA:  MOVLW  1E
0ABEC:  MOVWF  xE1
0ABEE:  CLRF   xE2
0ABF0:  MOVLB  0
0ABF2:  CALL   2112
....................                   displayContrasena(Password[1],40,30,0); 
0ABF6:  MOVFF  5F0,7DF
0ABFA:  MOVLW  28
0ABFC:  MOVLB  7
0ABFE:  MOVWF  xE0
0AC00:  MOVLW  1E
0AC02:  MOVWF  xE1
0AC04:  CLRF   xE2
0AC06:  MOVLB  0
0AC08:  CALL   2112
....................                   displayContrasena(Password[2],60,30,0); 
0AC0C:  MOVFF  5F1,7DF
0AC10:  MOVLW  3C
0AC12:  MOVLB  7
0AC14:  MOVWF  xE0
0AC16:  MOVLW  1E
0AC18:  MOVWF  xE1
0AC1A:  CLRF   xE2
0AC1C:  MOVLB  0
0AC1E:  CALL   2112
....................                   displayContrasena(Password[3],80,30,1); 
0AC22:  MOVFF  5F2,7DF
0AC26:  MOVLW  50
0AC28:  MOVLB  7
0AC2A:  MOVWF  xE0
0AC2C:  MOVLW  1E
0AC2E:  MOVWF  xE1
0AC30:  MOVLW  01
0AC32:  MOVWF  xE2
0AC34:  MOVLB  0
0AC36:  CALL   2112
0AC3A:  MOVLB  5
....................                } 
....................             } 
....................          } 
....................       } 
....................        
....................       if(UP)//Si oprime hacia arriba 
0AC3C:  BSF    F92.5
0AC3E:  BTFSC  F80.5
0AC40:  BRA    ACB6
....................       { 
....................          Buzz_on;delay_ms(10);Buzz_off; 
0AC42:  BSF    F8B.4
0AC44:  BCF    F94.4
0AC46:  MOVLW  0A
0AC48:  MOVLB  7
0AC4A:  MOVWF  xE3
0AC4C:  MOVLB  0
0AC4E:  CALL   1800
0AC52:  BCF    F8B.4
0AC54:  BCF    F94.4
....................          delay_ms(30); 
0AC56:  MOVLW  1E
0AC58:  MOVLB  7
0AC5A:  MOVWF  xE3
0AC5C:  MOVLB  0
0AC5E:  CALL   1800
....................          for(i=1;i<=4;i++) 
0AC62:  MOVLW  01
0AC64:  MOVLB  5
0AC66:  MOVWF  x9C
0AC68:  MOVF   x9C,W
0AC6A:  SUBLW  04
0AC6C:  BNC   ACB6
....................          { 
....................             if(unidad==i) 
0AC6E:  MOVF   x9C,W
0AC70:  SUBWF  x9B,W
0AC72:  BNZ   ACB2
....................             { 
....................                Password[i-1]++; 
0AC74:  MOVLW  01
0AC76:  SUBWF  x9C,W
0AC78:  CLRF   03
0AC7A:  ADDLW  EF
0AC7C:  MOVWF  FE9
0AC7E:  MOVLW  05
0AC80:  ADDWFC 03,W
0AC82:  MOVWF  FEA
0AC84:  INCF   FEF,F
....................                if(Password[i-1]>9)    
0AC86:  MOVLW  01
0AC88:  SUBWF  x9C,W
0AC8A:  CLRF   03
0AC8C:  ADDLW  EF
0AC8E:  MOVWF  FE9
0AC90:  MOVLW  05
0AC92:  ADDWFC 03,W
0AC94:  MOVWF  FEA
0AC96:  BTFSC  FEF.7
0AC98:  BRA    ACB2
0AC9A:  MOVF   FEF,W
0AC9C:  SUBLW  09
0AC9E:  BC    ACB2
....................                { 
....................                   Password[i-1]=0; 
0ACA0:  MOVLW  01
0ACA2:  SUBWF  x9C,W
0ACA4:  CLRF   03
0ACA6:  ADDLW  EF
0ACA8:  MOVWF  FE9
0ACAA:  MOVLW  05
0ACAC:  ADDWFC 03,W
0ACAE:  MOVWF  FEA
0ACB0:  CLRF   FEF
....................                } 
....................             } 
....................          } 
0ACB2:  INCF   x9C,F
0ACB4:  BRA    AC68
....................       } 
....................              
....................       if(DOWN)//Si oprime hacia abajo 
0ACB6:  BSF    F96.0
0ACB8:  BTFSC  F84.0
0ACBA:  BRA    AD2E
....................       { 
....................          Buzz_on;delay_ms(10);Buzz_off; 
0ACBC:  BSF    F8B.4
0ACBE:  BCF    F94.4
0ACC0:  MOVLW  0A
0ACC2:  MOVLB  7
0ACC4:  MOVWF  xE3
0ACC6:  MOVLB  0
0ACC8:  CALL   1800
0ACCC:  BCF    F8B.4
0ACCE:  BCF    F94.4
....................          delay_ms(30); 
0ACD0:  MOVLW  1E
0ACD2:  MOVLB  7
0ACD4:  MOVWF  xE3
0ACD6:  MOVLB  0
0ACD8:  CALL   1800
....................          for(i=1;i<=4;i++) 
0ACDC:  MOVLW  01
0ACDE:  MOVLB  5
0ACE0:  MOVWF  x9C
0ACE2:  MOVF   x9C,W
0ACE4:  SUBLW  04
0ACE6:  BNC   AD2E
....................             { 
....................                if(unidad==i) 
0ACE8:  MOVF   x9C,W
0ACEA:  SUBWF  x9B,W
0ACEC:  BNZ   AD2A
....................                { 
....................                   Password[i-1]--; 
0ACEE:  MOVLW  01
0ACF0:  SUBWF  x9C,W
0ACF2:  CLRF   03
0ACF4:  ADDLW  EF
0ACF6:  MOVWF  FE9
0ACF8:  MOVLW  05
0ACFA:  ADDWFC 03,W
0ACFC:  MOVWF  FEA
0ACFE:  DECF   FEF,F
....................                   if(Password[i-1]<0) 
0AD00:  MOVLW  01
0AD02:  SUBWF  x9C,W
0AD04:  CLRF   03
0AD06:  ADDLW  EF
0AD08:  MOVWF  FE9
0AD0A:  MOVLW  05
0AD0C:  ADDWFC 03,W
0AD0E:  MOVWF  FEA
0AD10:  BTFSC  FEF.7
0AD12:  BRA    AD16
0AD14:  BRA    AD2A
....................                   { 
....................                      Password[i-1]=9; 
0AD16:  MOVLW  01
0AD18:  SUBWF  x9C,W
0AD1A:  CLRF   03
0AD1C:  ADDLW  EF
0AD1E:  MOVWF  FE9
0AD20:  MOVLW  05
0AD22:  ADDWFC 03,W
0AD24:  MOVWF  FEA
0AD26:  MOVLW  09
0AD28:  MOVWF  FEF
....................                   } 
....................                } 
....................             }        
0AD2A:  INCF   x9C,F
0AD2C:  BRA    ACE2
....................       } 
....................              
....................       if(RIGHT)//Si oprime RIGHT 
0AD2E:  BSF    F96.1
0AD30:  BTFSC  F84.1
0AD32:  BRA    AD58
....................       { 
....................          Buzz_on;delay_ms(10);Buzz_off;delay_ms(30);unidad++; 
0AD34:  BSF    F8B.4
0AD36:  BCF    F94.4
0AD38:  MOVLW  0A
0AD3A:  MOVLB  7
0AD3C:  MOVWF  xE3
0AD3E:  MOVLB  0
0AD40:  CALL   1800
0AD44:  BCF    F8B.4
0AD46:  BCF    F94.4
0AD48:  MOVLW  1E
0AD4A:  MOVLB  7
0AD4C:  MOVWF  xE3
0AD4E:  MOVLB  0
0AD50:  CALL   1800
0AD54:  MOVLB  5
0AD56:  INCF   x9B,F
....................       } 
....................        
....................       if(LEFT)//Si oprime Izquierda 
0AD58:  BSF    F96.2
0AD5A:  BTFSC  F84.2
0AD5C:  BRA    AD9A
....................       { 
....................          Buzz_on;delay_ms(10);Buzz_off;delay_ms(700);Menu=1;glcd_fillscreen(OFF); 
0AD5E:  BSF    F8B.4
0AD60:  BCF    F94.4
0AD62:  MOVLW  0A
0AD64:  MOVLB  7
0AD66:  MOVWF  xE3
0AD68:  MOVLB  0
0AD6A:  CALL   1800
0AD6E:  BCF    F8B.4
0AD70:  BCF    F94.4
0AD72:  MOVLW  04
0AD74:  MOVLB  7
0AD76:  MOVWF  xDD
0AD78:  MOVLW  AF
0AD7A:  MOVWF  xE3
0AD7C:  MOVLB  0
0AD7E:  CALL   1800
0AD82:  MOVLB  7
0AD84:  DECFSZ xDD,F
0AD86:  BRA    AD78
0AD88:  MOVLW  01
0AD8A:  MOVLB  5
0AD8C:  MOVWF  x9A
0AD8E:  MOVLB  7
0AD90:  CLRF   xDE
0AD92:  MOVLB  0
0AD94:  CALL   1880
0AD98:  MOVLB  5
....................       } 
....................        
....................       if(unidad>4) 
0AD9A:  MOVF   x9B,W
0AD9C:  SUBLW  04
0AD9E:  BTFSC  FD8.0
0ADA0:  BRA    AEA0
....................       { 
....................          Opcion=1;unidad=1; 
0ADA2:  MOVLW  01
0ADA4:  MOVWF  xA1
0ADA6:  MOVWF  x9B
....................          write_eeprom(10,Password[0]); 
0ADA8:  CLRF   FAA
0ADAA:  MOVLW  0A
0ADAC:  MOVWF  FA9
0ADAE:  MOVFF  5EF,FA8
0ADB2:  BCF    FA6.6
0ADB4:  BCF    FA6.7
0ADB6:  BSF    FA6.2
0ADB8:  MOVF   FF2,W
0ADBA:  MOVWF  00
0ADBC:  BCF    FF2.7
0ADBE:  MOVLB  F
0ADC0:  MOVLW  55
0ADC2:  MOVWF  FA7
0ADC4:  MOVLW  AA
0ADC6:  MOVWF  FA7
0ADC8:  BSF    FA6.1
0ADCA:  BTFSC  FA6.1
0ADCC:  BRA    ADCA
0ADCE:  BCF    FA6.2
0ADD0:  MOVF   00,W
0ADD2:  IORWF  FF2,F
....................          delay_ms(50);    
0ADD4:  MOVLW  32
0ADD6:  MOVLB  7
0ADD8:  MOVWF  xE3
0ADDA:  MOVLB  0
0ADDC:  CALL   1800
....................          write_eeprom(11,Password[1]); 
0ADE0:  CLRF   FAA
0ADE2:  MOVLW  0B
0ADE4:  MOVWF  FA9
0ADE6:  MOVFF  5F0,FA8
0ADEA:  BCF    FA6.6
0ADEC:  BCF    FA6.7
0ADEE:  BSF    FA6.2
0ADF0:  MOVF   FF2,W
0ADF2:  MOVWF  00
0ADF4:  BCF    FF2.7
0ADF6:  MOVLB  F
0ADF8:  MOVLW  55
0ADFA:  MOVWF  FA7
0ADFC:  MOVLW  AA
0ADFE:  MOVWF  FA7
0AE00:  BSF    FA6.1
0AE02:  BTFSC  FA6.1
0AE04:  BRA    AE02
0AE06:  BCF    FA6.2
0AE08:  MOVF   00,W
0AE0A:  IORWF  FF2,F
....................          delay_ms(50);    
0AE0C:  MOVLW  32
0AE0E:  MOVLB  7
0AE10:  MOVWF  xE3
0AE12:  MOVLB  0
0AE14:  CALL   1800
....................          write_eeprom(12,Password[2]); 
0AE18:  CLRF   FAA
0AE1A:  MOVLW  0C
0AE1C:  MOVWF  FA9
0AE1E:  MOVFF  5F1,FA8
0AE22:  BCF    FA6.6
0AE24:  BCF    FA6.7
0AE26:  BSF    FA6.2
0AE28:  MOVF   FF2,W
0AE2A:  MOVWF  00
0AE2C:  BCF    FF2.7
0AE2E:  MOVLB  F
0AE30:  MOVLW  55
0AE32:  MOVWF  FA7
0AE34:  MOVLW  AA
0AE36:  MOVWF  FA7
0AE38:  BSF    FA6.1
0AE3A:  BTFSC  FA6.1
0AE3C:  BRA    AE3A
0AE3E:  BCF    FA6.2
0AE40:  MOVF   00,W
0AE42:  IORWF  FF2,F
....................          delay_ms(50);    
0AE44:  MOVLW  32
0AE46:  MOVLB  7
0AE48:  MOVWF  xE3
0AE4A:  MOVLB  0
0AE4C:  CALL   1800
....................          write_eeprom(13,Password[3]); 
0AE50:  CLRF   FAA
0AE52:  MOVLW  0D
0AE54:  MOVWF  FA9
0AE56:  MOVFF  5F2,FA8
0AE5A:  BCF    FA6.6
0AE5C:  BCF    FA6.7
0AE5E:  BSF    FA6.2
0AE60:  MOVF   FF2,W
0AE62:  MOVWF  00
0AE64:  BCF    FF2.7
0AE66:  MOVLB  F
0AE68:  MOVLW  55
0AE6A:  MOVWF  FA7
0AE6C:  MOVLW  AA
0AE6E:  MOVWF  FA7
0AE70:  BSF    FA6.1
0AE72:  BTFSC  FA6.1
0AE74:  BRA    AE72
0AE76:  BCF    FA6.2
0AE78:  MOVF   00,W
0AE7A:  IORWF  FF2,F
....................          delay_ms(1000);glcd_fillScreen(OFF);Menu=1; 
0AE7C:  MOVLW  04
0AE7E:  MOVLB  7
0AE80:  MOVWF  xDD
0AE82:  MOVLW  FA
0AE84:  MOVWF  xE3
0AE86:  MOVLB  0
0AE88:  CALL   1800
0AE8C:  MOVLB  7
0AE8E:  DECFSZ xDD,F
0AE90:  BRA    AE82
0AE92:  CLRF   xDE
0AE94:  MOVLB  0
0AE96:  CALL   1880
0AE9A:  MOVLW  01
0AE9C:  MOVLB  5
0AE9E:  MOVWF  x9A
....................       } 
....................     }     
.................... //_--------------------------------------------------------------------------------------------------------------------------------------------------------     
....................  
.................... //_--------------------------------------------------------------------------------------------------------------------------------------------------------       
....................       if(Menu==9){ //Menu de Configuracin de Fecha y Hora 
0AEA0:  MOVF   x9A,W
0AEA2:  SUBLW  09
0AEA4:  BTFSS  FD8.2
0AEA6:  BRA    B3FE
....................        
....................       strcpy(Menus.Letra,"Fecha"); 
0AEA8:  MOVLW  07
0AEAA:  MOVWF  FEA
0AEAC:  MOVLW  BD
0AEAE:  MOVWF  FE9
0AEB0:  MOVFF  FF2,7DD
0AEB4:  BCF    FF2.7
0AEB6:  MOVLW  00
0AEB8:  MOVLB  0
0AEBA:  CALL   0D1A
0AEBE:  TBLRD*-
0AEC0:  TBLRD*+
0AEC2:  MOVF   FF5,W
0AEC4:  MOVWF  FEE
0AEC6:  IORLW  00
0AEC8:  BNZ   AEC0
0AECA:  MOVLB  7
0AECC:  BTFSC  xDD.7
0AECE:  BSF    FF2.7
....................       displayMenu(Menus.Letra,45,0,1,1); 
0AED0:  MOVLW  07
0AED2:  MOVWF  xE1
0AED4:  MOVLW  BD
0AED6:  MOVWF  xE0
0AED8:  MOVLW  2D
0AEDA:  MOVWF  xE2
0AEDC:  CLRF   xE3
0AEDE:  MOVLW  01
0AEE0:  MOVWF  xE4
0AEE2:  MOVWF  xE5
0AEE4:  MOVLB  0
0AEE6:  CALL   1EC0
....................        
....................       strcpy(Menus.Letra,"Hora"); 
0AEEA:  MOVLW  07
0AEEC:  MOVWF  FEA
0AEEE:  MOVLW  BD
0AEF0:  MOVWF  FE9
0AEF2:  MOVFF  FF2,7DD
0AEF6:  BCF    FF2.7
0AEF8:  MOVLW  00
0AEFA:  CALL   0D3E
0AEFE:  TBLRD*-
0AF00:  TBLRD*+
0AF02:  MOVF   FF5,W
0AF04:  MOVWF  FEE
0AF06:  IORLW  00
0AF08:  BNZ   AF00
0AF0A:  MOVLB  7
0AF0C:  BTFSC  xDD.7
0AF0E:  BSF    FF2.7
....................       displayMenu(Menus.Letra,45,32,1,1); 
0AF10:  MOVLW  07
0AF12:  MOVWF  xE1
0AF14:  MOVLW  BD
0AF16:  MOVWF  xE0
0AF18:  MOVLW  2D
0AF1A:  MOVWF  xE2
0AF1C:  MOVLW  20
0AF1E:  MOVWF  xE3
0AF20:  MOVLW  01
0AF22:  MOVWF  xE4
0AF24:  MOVWF  xE5
0AF26:  MOVLB  0
0AF28:  CALL   1EC0
....................        
....................       LimitaDia(); 
0AF2C:  GOTO   3D1C
....................        
....................       if(Opcion>5) 
0AF30:  MOVLB  5
0AF32:  MOVF   xA1,W
0AF34:  SUBLW  05
0AF36:  BC    AF3C
....................       {Opcion=1;} 
0AF38:  MOVLW  01
0AF3A:  MOVWF  xA1
....................       if(Opcion<1) 
0AF3C:  MOVF   xA1,F
0AF3E:  BNZ   AF44
....................       {Opcion=5;} 
0AF40:  MOVLW  05
0AF42:  MOVWF  xA1
....................        
....................       displayFecha(DiaTx,MesTx,YearTx,15,13,Opcion,2); 
0AF44:  MOVFF  79E,7DD
0AF48:  MOVFF  79D,7DE
0AF4C:  MOVFF  79C,7DF
0AF50:  MOVLW  0F
0AF52:  MOVLB  7
0AF54:  MOVWF  xE0
0AF56:  MOVLW  0D
0AF58:  MOVWF  xE1
0AF5A:  MOVFF  5A1,7E2
0AF5E:  MOVLW  02
0AF60:  MOVWF  xE3
0AF62:  MOVLB  0
0AF64:  GOTO   3DD8
....................       displayHora(HoraTx,MinutoTx,25,44,Opcion,2); 
0AF68:  MOVFF  79F,7DD
0AF6C:  MOVFF  7A0,7DE
0AF70:  MOVLW  19
0AF72:  MOVLB  7
0AF74:  MOVWF  xDF
0AF76:  MOVLW  2C
0AF78:  MOVWF  xE0
0AF7A:  MOVFF  5A1,7E1
0AF7E:  MOVLW  02
0AF80:  MOVWF  xE2
0AF82:  MOVLB  0
0AF84:  GOTO   441C
....................        
....................          if(UP){ 
0AF88:  BSF    F92.5
0AF8A:  BTFSC  F80.5
0AF8C:  BRA    B092
....................             delay_ms(3); 
0AF8E:  MOVLW  03
0AF90:  MOVLB  7
0AF92:  MOVWF  xE3
0AF94:  MOVLB  0
0AF96:  CALL   1800
....................             if(Opcion==1){ 
0AF9A:  MOVLB  5
0AF9C:  DECFSZ xA1,W
0AF9E:  BRA    B030
....................                if(MesTx==2){ 
0AFA0:  MOVLB  7
0AFA2:  MOVF   x9D,W
0AFA4:  SUBLW  02
0AFA6:  BNZ   AFDC
....................                   if(esBisiesto(YearTx)){ 
0AFA8:  MOVFF  79C,7DD
0AFAC:  MOVLB  0
0AFAE:  CALL   3CC8
0AFB2:  MOVF   01,F
0AFB4:  BZ    AFCA
....................                      if(DiaTx<29) 
0AFB6:  MOVLB  7
0AFB8:  MOVF   x9E,W
0AFBA:  SUBLW  1C
0AFBC:  BNC   AFC2
....................                         DiaTx++; 
0AFBE:  INCF   x9E,F
....................                      else 
0AFC0:  BRA    AFC6
....................                         DiaTx=1; 
0AFC2:  MOVLW  01
0AFC4:  MOVWF  x9E
....................                   }else{ 
0AFC6:  BRA    AFDA
0AFC8:  MOVLB  0
....................                      if(DiaTx<28) 
0AFCA:  MOVLB  7
0AFCC:  MOVF   x9E,W
0AFCE:  SUBLW  1B
0AFD0:  BNC   AFD6
....................                         DiaTx++; 
0AFD2:  INCF   x9E,F
....................                      else 
0AFD4:  BRA    AFDA
....................                         DiaTx=1; 
0AFD6:  MOVLW  01
0AFD8:  MOVWF  x9E
....................                   } 
....................                }else{ 
0AFDA:  BRA    B02C
....................                   if(MesTx<=7){ 
0AFDC:  MOVF   x9D,W
0AFDE:  SUBLW  07
0AFE0:  BNC   B008
....................                      if(MesTx % 2 ==0){ 
0AFE2:  MOVF   x9D,W
0AFE4:  ANDLW  01
0AFE6:  BNZ   AFF8
....................                         if(DiaTx<30) 
0AFE8:  MOVF   x9E,W
0AFEA:  SUBLW  1D
0AFEC:  BNC   AFF2
....................                            DiaTx++;     
0AFEE:  INCF   x9E,F
....................                         else 
0AFF0:  BRA    AFF6
....................                            DiaTx=1; 
0AFF2:  MOVLW  01
0AFF4:  MOVWF  x9E
....................                      }else{ 
0AFF6:  BRA    B006
....................                         if(DiaTx<31) 
0AFF8:  MOVF   x9E,W
0AFFA:  SUBLW  1E
0AFFC:  BNC   B002
....................                            DiaTx++;     
0AFFE:  INCF   x9E,F
....................                         else 
0B000:  BRA    B006
....................                            DiaTx=1; 
0B002:  MOVLW  01
0B004:  MOVWF  x9E
....................                      }     
....................                   }else{ 
0B006:  BRA    B02C
....................                      if(MesTx % 2 ==0){ 
0B008:  MOVF   x9D,W
0B00A:  ANDLW  01
0B00C:  BNZ   B01E
....................                         if(DiaTx<31) 
0B00E:  MOVF   x9E,W
0B010:  SUBLW  1E
0B012:  BNC   B018
....................                            DiaTx++;     
0B014:  INCF   x9E,F
....................                         else 
0B016:  BRA    B01C
....................                            DiaTx=1; 
0B018:  MOVLW  01
0B01A:  MOVWF  x9E
....................                      }else{ 
0B01C:  BRA    B02C
....................                         if(DiaTx<30) 
0B01E:  MOVF   x9E,W
0B020:  SUBLW  1D
0B022:  BNC   B028
....................                            DiaTx++;     
0B024:  INCF   x9E,F
....................                         else 
0B026:  BRA    B02C
....................                            DiaTx=1; 
0B028:  MOVLW  01
0B02A:  MOVWF  x9E
....................                      }     
....................                   } 
....................                } 
....................             }else if(Opcion==2){ 
0B02C:  BRA    B08E
0B02E:  MOVLB  5
0B030:  MOVF   xA1,W
0B032:  SUBLW  02
0B034:  BNZ   B04A
....................                if(MesTx<12) 
0B036:  MOVLB  7
0B038:  MOVF   x9D,W
0B03A:  SUBLW  0B
0B03C:  BNC   B042
....................                   MesTx++; 
0B03E:  INCF   x9D,F
....................                else 
0B040:  BRA    B046
....................                   MesTx=1; 
0B042:  MOVLW  01
0B044:  MOVWF  x9D
....................             }else if(Opcion==3){ 
0B046:  BRA    B08E
0B048:  MOVLB  5
0B04A:  MOVF   xA1,W
0B04C:  SUBLW  03
0B04E:  BNZ   B062
....................                if(YearTx<99) 
0B050:  MOVLB  7
0B052:  MOVF   x9C,W
0B054:  SUBLW  62
0B056:  BNC   B05C
....................                   YearTx++; 
0B058:  INCF   x9C,F
....................                else 
0B05A:  BRA    B05E
....................                   YearTx=0; 
0B05C:  CLRF   x9C
....................             }else if(Opcion==4){ 
0B05E:  BRA    B08E
0B060:  MOVLB  5
0B062:  MOVF   xA1,W
0B064:  SUBLW  04
0B066:  BNZ   B07A
....................                if(HoraTx<24) 
0B068:  MOVLB  7
0B06A:  MOVF   x9F,W
0B06C:  SUBLW  17
0B06E:  BNC   B074
....................                   HoraTx++; 
0B070:  INCF   x9F,F
....................                else 
0B072:  BRA    B076
....................                   HoraTx=0; 
0B074:  CLRF   x9F
....................             }else if(Opcion==5){ 
0B076:  BRA    B08E
0B078:  MOVLB  5
0B07A:  MOVF   xA1,W
0B07C:  SUBLW  05
0B07E:  BNZ   B090
....................                if(MinutoTx<59) 
0B080:  MOVLB  7
0B082:  MOVF   xA0,W
0B084:  SUBLW  3A
0B086:  BNC   B08C
....................                   MinutoTx++; 
0B088:  INCF   xA0,F
....................                else 
0B08A:  BRA    B08E
....................                   MinutoTx=0; 
0B08C:  CLRF   xA0
0B08E:  MOVLB  5
0B090:  MOVLB  0
....................             } 
....................          } 
....................                    
....................          if(DOWN){ 
0B092:  BSF    F96.0
0B094:  BTFSC  F84.0
0B096:  BRA    B100
....................             delay_ms(3); 
0B098:  MOVLW  03
0B09A:  MOVLB  7
0B09C:  MOVWF  xE3
0B09E:  MOVLB  0
0B0A0:  CALL   1800
....................             if(Opcion==1){ 
0B0A4:  MOVLB  5
0B0A6:  DECFSZ xA1,W
0B0A8:  BRA    B0B6
....................                if(DiaTx>0) 
0B0AA:  MOVLB  7
0B0AC:  MOVF   x9E,F
0B0AE:  BZ    B0B2
....................                   DiaTx--; 
0B0B0:  DECF   x9E,F
....................             }else if(Opcion==2){ 
0B0B2:  BRA    B0FC
0B0B4:  MOVLB  5
0B0B6:  MOVF   xA1,W
0B0B8:  SUBLW  02
0B0BA:  BNZ   B0CA
....................                if(MesTx>1) 
0B0BC:  MOVLB  7
0B0BE:  MOVF   x9D,W
0B0C0:  SUBLW  01
0B0C2:  BC    B0C6
....................                   MesTx--; 
0B0C4:  DECF   x9D,F
....................             }else if(Opcion==3){ 
0B0C6:  BRA    B0FC
0B0C8:  MOVLB  5
0B0CA:  MOVF   xA1,W
0B0CC:  SUBLW  03
0B0CE:  BNZ   B0DC
....................                if(YearTx>0) 
0B0D0:  MOVLB  7
0B0D2:  MOVF   x9C,F
0B0D4:  BZ    B0D8
....................                   YearTx--; 
0B0D6:  DECF   x9C,F
....................             }else if(Opcion==4){ 
0B0D8:  BRA    B0FC
0B0DA:  MOVLB  5
0B0DC:  MOVF   xA1,W
0B0DE:  SUBLW  04
0B0E0:  BNZ   B0EE
....................                if(HoraTx>0) 
0B0E2:  MOVLB  7
0B0E4:  MOVF   x9F,F
0B0E6:  BZ    B0EA
....................                   HoraTx--; 
0B0E8:  DECF   x9F,F
....................             }else if(Opcion==5){ 
0B0EA:  BRA    B0FC
0B0EC:  MOVLB  5
0B0EE:  MOVF   xA1,W
0B0F0:  SUBLW  05
0B0F2:  BNZ   B0FE
....................                if(MinutoTx>0) 
0B0F4:  MOVLB  7
0B0F6:  MOVF   xA0,F
0B0F8:  BZ    B0FC
....................                   MinutoTx--; 
0B0FA:  DECF   xA0,F
0B0FC:  MOVLB  5
0B0FE:  MOVLB  0
....................             } 
....................          } 
....................                 
....................          if(RIGHT){   
0B100:  BSF    F96.1
0B102:  BTFSC  F84.1
0B104:  BRA    B13C
....................             delay_ms(10); 
0B106:  MOVLW  0A
0B108:  MOVLB  7
0B10A:  MOVWF  xE3
0B10C:  MOVLB  0
0B10E:  CALL   1800
....................             if(Flanco1 == 0){ 
0B112:  MOVLB  5
0B114:  BTFSC  x87.6
0B116:  BRA    B138
....................                Flanco1 = 1;delay_ms(3);Opcion++;glcd_fillscreen(OFF);visual=1; 
0B118:  BSF    x87.6
0B11A:  MOVLW  03
0B11C:  MOVLB  7
0B11E:  MOVWF  xE3
0B120:  MOVLB  0
0B122:  CALL   1800
0B126:  MOVLB  5
0B128:  INCF   xA1,F
0B12A:  MOVLB  7
0B12C:  CLRF   xDE
0B12E:  MOVLB  0
0B130:  CALL   1880
0B134:  MOVLB  5
0B136:  BSF    x95.0
....................             } 
....................          }else{ 
0B138:  BRA    B140
0B13A:  MOVLB  0
....................             Flanco1 = 0; 
0B13C:  MOVLB  5
0B13E:  BCF    x87.6
....................          } 
....................                 
....................          if(LEFT){ 
0B140:  BSF    F96.2
0B142:  BTFSC  F84.2
0B144:  BRA    B3FE
....................             if(esBisiesto(YearTx)) 
0B146:  MOVFF  79C,7DD
0B14A:  MOVLB  0
0B14C:  CALL   3CC8
0B150:  MOVF   01,F
0B152:  BZ    B16C
....................                Modulo=Bisiesto[MesTx]; 
0B154:  CLRF   03
0B156:  MOVLB  7
0B158:  MOVF   x9D,W
0B15A:  ADDLW  B1
0B15C:  MOVWF  FE9
0B15E:  MOVLW  07
0B160:  ADDWFC 03,W
0B162:  MOVWF  FEA
0B164:  MOVFF  FEF,79B
....................             else 
0B168:  BRA    B180
0B16A:  MOVLB  0
....................                Modulo=Regular[MesTx]; 
0B16C:  CLRF   03
0B16E:  MOVLB  7
0B170:  MOVF   x9D,W
0B172:  ADDLW  A5
0B174:  MOVWF  FE9
0B176:  MOVLW  07
0B178:  ADDWFC 03,W
0B17A:  MOVWF  FEA
0B17C:  MOVFF  FEF,79B
....................           
....................             dowTx=((YearTx-1)%7+((YearTx-1)/4-3*((YearTx-1)/100+1)/4)%7+Modulo+DiaTx%7)%7; 
0B180:  MOVLW  01
0B182:  SUBWF  x9C,W
0B184:  MOVWF  xDE
0B186:  MOVWF  xF2
0B188:  MOVLW  07
0B18A:  MOVWF  xF3
0B18C:  MOVLB  0
0B18E:  CALL   1FE6
0B192:  MOVFF  00,7DD
0B196:  MOVLW  01
0B198:  MOVLB  7
0B19A:  SUBWF  x9C,W
0B19C:  MOVWF  00
0B19E:  RRCF   00,W
0B1A0:  MOVWF  xDE
0B1A2:  RRCF   xDE,F
0B1A4:  MOVLW  3F
0B1A6:  ANDWF  xDE,F
0B1A8:  MOVLW  01
0B1AA:  SUBWF  x9C,W
0B1AC:  MOVWF  xE0
0B1AE:  MOVWF  xF2
0B1B0:  MOVLW  64
0B1B2:  MOVWF  xF3
0B1B4:  MOVLB  0
0B1B6:  CALL   1FE6
0B1BA:  MOVLW  01
0B1BC:  ADDWF  01,W
0B1BE:  MULLW  03
0B1C0:  MOVFF  FF3,00
0B1C4:  RRCF   00,F
0B1C6:  RRCF   00,F
0B1C8:  MOVLW  3F
0B1CA:  ANDWF  00,F
0B1CC:  MOVF   00,W
0B1CE:  MOVLB  7
0B1D0:  SUBWF  xDE,W
0B1D2:  MOVWF  xDF
0B1D4:  MOVWF  xF2
0B1D6:  MOVLW  07
0B1D8:  MOVWF  xF3
0B1DA:  MOVLB  0
0B1DC:  CALL   1FE6
0B1E0:  MOVF   00,W
0B1E2:  MOVLB  7
0B1E4:  ADDWF  xDD,W
0B1E6:  ADDWF  x9B,W
0B1E8:  MOVWF  xDD
0B1EA:  MOVFF  79E,7F2
0B1EE:  MOVLW  07
0B1F0:  MOVWF  xF3
0B1F2:  MOVLB  0
0B1F4:  CALL   1FE6
0B1F8:  MOVF   00,W
0B1FA:  MOVLB  7
0B1FC:  ADDWF  xDD,W
0B1FE:  MOVWF  xDE
0B200:  MOVWF  xF2
0B202:  MOVLW  07
0B204:  MOVWF  xF3
0B206:  MOVLB  0
0B208:  CALL   1FE6
0B20C:  MOVFF  00,7A2
....................             rtc_set_datetime(DiaTx,MesTx,YearTx,dowTx,HoraTx,MinutoTx); 
0B210:  MOVFF  79E,7DD
0B214:  MOVFF  79D,7DE
0B218:  MOVFF  79C,7DF
0B21C:  MOVFF  7A2,7E0
0B220:  MOVFF  79F,7E1
0B224:  MOVFF  7A0,7E2
0B228:  GOTO   4760
....................             delay_ms(100); 
0B22C:  MOVLW  64
0B22E:  MOVLB  7
0B230:  MOVWF  xE3
0B232:  MOVLB  0
0B234:  CALL   1800
....................             Menu=1; 
0B238:  MOVLW  01
0B23A:  MOVLB  5
0B23C:  MOVWF  x9A
....................             Opcion=1; 
0B23E:  MOVWF  xA1
....................             glcd_fillscreen(OFF);visual=1; 
0B240:  MOVLB  7
0B242:  CLRF   xDE
0B244:  MOVLB  0
0B246:  CALL   1880
0B24A:  MOVLB  5
0B24C:  BSF    x95.0
....................             fprintf(printer,"  \n"); 
0B24E:  MOVLW  20
0B250:  BTFSS  F9E.4
0B252:  BRA    B250
0B254:  MOVWF  FAD
0B256:  MOVLW  20
0B258:  BTFSS  F9E.4
0B25A:  BRA    B258
0B25C:  MOVWF  FAD
0B25E:  MOVLW  0A
0B260:  BTFSS  F9E.4
0B262:  BRA    B260
0B264:  MOVWF  FAD
....................             fprintf(printer,"  Ajusto Fecha y hora \n"); 
0B266:  MOVLW  7A
0B268:  MOVWF  FF6
0B26A:  MOVLW  17
0B26C:  MOVWF  FF7
0B26E:  MOVLW  00
0B270:  MOVWF  FF8
0B272:  MOVLB  0
0B274:  CALL   37EC
....................             rtc_get_date(Dia,Mes,Year,dow); 
....................             rtc_get_time(Hora,Minuto,Segundo); 
....................             fprintf(printer,"%02u-%02u-%02u  %02u:%02u  %03.1fC   \n",Dia,Mes,Year,Hora,Minuto,Temperatura);  
*
0B33C:  MOVFF  795,7DE
0B340:  MOVLW  01
0B342:  MOVLB  7
0B344:  MOVWF  xDF
0B346:  MOVLB  0
0B348:  CALL   3848
0B34C:  MOVLW  2D
0B34E:  BTFSS  F9E.4
0B350:  BRA    B34E
0B352:  MOVWF  FAD
0B354:  MOVFF  79A,7DE
0B358:  MOVLW  01
0B35A:  MOVLB  7
0B35C:  MOVWF  xDF
0B35E:  MOVLB  0
0B360:  CALL   3848
0B364:  MOVLW  2D
0B366:  BTFSS  F9E.4
0B368:  BRA    B366
0B36A:  MOVWF  FAD
0B36C:  MOVFF  793,7DE
0B370:  MOVLW  01
0B372:  MOVLB  7
0B374:  MOVWF  xDF
0B376:  MOVLB  0
0B378:  CALL   3848
0B37C:  MOVLW  20
0B37E:  BTFSS  F9E.4
0B380:  BRA    B37E
0B382:  MOVWF  FAD
0B384:  MOVLW  20
0B386:  BTFSS  F9E.4
0B388:  BRA    B386
0B38A:  MOVWF  FAD
0B38C:  MOVFF  796,7DE
0B390:  MOVLW  01
0B392:  MOVLB  7
0B394:  MOVWF  xDF
0B396:  MOVLB  0
0B398:  CALL   3848
0B39C:  MOVLW  3A
0B39E:  BTFSS  F9E.4
0B3A0:  BRA    B39E
0B3A2:  MOVWF  FAD
0B3A4:  MOVFF  797,7DE
0B3A8:  MOVLW  01
0B3AA:  MOVLB  7
0B3AC:  MOVWF  xDF
0B3AE:  MOVLB  0
0B3B0:  CALL   3848
0B3B4:  MOVLW  20
0B3B6:  BTFSS  F9E.4
0B3B8:  BRA    B3B6
0B3BA:  MOVWF  FAD
0B3BC:  MOVLW  20
0B3BE:  BTFSS  F9E.4
0B3C0:  BRA    B3BE
0B3C2:  MOVWF  FAD
0B3C4:  MOVLW  42
0B3C6:  MOVWF  FE9
0B3C8:  MOVFF  62E,7E0
0B3CC:  MOVFF  62D,7DF
0B3D0:  MOVFF  62C,7DE
0B3D4:  MOVFF  62B,7DD
0B3D8:  MOVLW  01
0B3DA:  MOVLB  7
0B3DC:  MOVWF  xE1
0B3DE:  MOVLB  0
0B3E0:  CALL   4900
0B3E4:  MOVLW  B3
0B3E6:  MOVWF  FF6
0B3E8:  MOVLW  17
0B3EA:  MOVWF  FF7
0B3EC:  MOVLW  00
0B3EE:  MOVWF  FF8
0B3F0:  MOVLW  06
0B3F2:  MOVLB  7
0B3F4:  MOVWF  xDE
0B3F6:  MOVLB  0
0B3F8:  CALL   3816
0B3FC:  MOVLB  5
....................          }       
....................          
....................     } 
.................... //_--------------------------------------------------------------------------------------------------------------------------------------------------------        
....................  
.................... //_--------------------------------------------------------------------------------------------------------------------------------------------------------       
....................       if(Menu==10){ //Menu de Configuracin de Impresora 
0B3FE:  MOVF   x9A,W
0B400:  SUBLW  0A
0B402:  BTFSS  FD8.2
0B404:  BRA    B784
....................        
....................       strcpy(Menus.Letra,"Desea Impresion?"); 
0B406:  MOVLW  07
0B408:  MOVWF  FEA
0B40A:  MOVLW  BD
0B40C:  MOVWF  FE9
0B40E:  MOVFF  FF2,7DD
0B412:  BCF    FF2.7
0B414:  MOVLW  00
0B416:  MOVLB  0
0B418:  CALL   0D62
0B41C:  TBLRD*-
0B41E:  TBLRD*+
0B420:  MOVF   FF5,W
0B422:  MOVWF  FEE
0B424:  IORLW  00
0B426:  BNZ   B41E
0B428:  MOVLB  7
0B42A:  BTFSC  xDD.7
0B42C:  BSF    FF2.7
....................       displayMenu(Menus.Letra,0,0,1,1); 
0B42E:  MOVLW  07
0B430:  MOVWF  xE1
0B432:  MOVLW  BD
0B434:  MOVWF  xE0
0B436:  CLRF   xE2
0B438:  CLRF   xE3
0B43A:  MOVLW  01
0B43C:  MOVWF  xE4
0B43E:  MOVWF  xE5
0B440:  MOVLB  0
0B442:  CALL   1EC0
....................        
....................       strcpy(Menus.Letra,"Tiempo de Impresion"); 
0B446:  MOVLW  07
0B448:  MOVWF  FEA
0B44A:  MOVLW  BD
0B44C:  MOVWF  FE9
0B44E:  MOVFF  FF2,7DD
0B452:  BCF    FF2.7
0B454:  MOVLW  00
0B456:  CALL   0D92
0B45A:  TBLRD*-
0B45C:  TBLRD*+
0B45E:  MOVF   FF5,W
0B460:  MOVWF  FEE
0B462:  IORLW  00
0B464:  BNZ   B45C
0B466:  MOVLB  7
0B468:  BTFSC  xDD.7
0B46A:  BSF    FF2.7
....................       displayMenu(Menus.Letra,0,32,1,1); 
0B46C:  MOVLW  07
0B46E:  MOVWF  xE1
0B470:  MOVLW  BD
0B472:  MOVWF  xE0
0B474:  CLRF   xE2
0B476:  MOVLW  20
0B478:  MOVWF  xE3
0B47A:  MOVLW  01
0B47C:  MOVWF  xE4
0B47E:  MOVWF  xE5
0B480:  MOVLB  0
0B482:  CALL   1EC0
....................        
....................       if(timpresion>30) 
0B486:  MOVLB  5
0B488:  MOVF   xBA,F
0B48A:  BNZ   B492
0B48C:  MOVF   xB9,W
0B48E:  SUBLW  1E
0B490:  BC    B498
....................          timpresion=30; 
0B492:  CLRF   xBA
0B494:  MOVLW  1E
0B496:  MOVWF  xB9
....................        
....................       if(Opcion==1 && ActivaImpresion==0){ 
0B498:  DECFSZ xA1,W
0B49A:  BRA    B4EA
0B49C:  BTFSC  x87.3
0B49E:  BRA    B4EA
....................          strcpy(Menus.Letra,"No"); 
0B4A0:  MOVLW  07
0B4A2:  MOVWF  FEA
0B4A4:  MOVLW  BD
0B4A6:  MOVWF  FE9
0B4A8:  MOVFF  FF2,7DD
0B4AC:  BCF    FF2.7
0B4AE:  MOVLW  00
0B4B0:  MOVLB  0
0B4B2:  CALL   0DC4
0B4B6:  TBLRD*-
0B4B8:  TBLRD*+
0B4BA:  MOVF   FF5,W
0B4BC:  MOVWF  FEE
0B4BE:  IORLW  00
0B4C0:  BNZ   B4B8
0B4C2:  MOVLB  7
0B4C4:  BTFSC  xDD.7
0B4C6:  BSF    FF2.7
....................          displayMenu(Menus.Letra,40,13,1,2); 
0B4C8:  MOVLW  07
0B4CA:  MOVWF  xE1
0B4CC:  MOVLW  BD
0B4CE:  MOVWF  xE0
0B4D0:  MOVLW  28
0B4D2:  MOVWF  xE2
0B4D4:  MOVLW  0D
0B4D6:  MOVWF  xE3
0B4D8:  MOVLW  01
0B4DA:  MOVWF  xE4
0B4DC:  MOVLW  02
0B4DE:  MOVWF  xE5
0B4E0:  MOVLB  0
0B4E2:  CALL   1EC0
....................       }else if(Opcion==1 && ActivaImpresion==1){ 
0B4E6:  BRA    B5DC
0B4E8:  MOVLB  5
0B4EA:  DECFSZ xA1,W
0B4EC:  BRA    B53C
0B4EE:  BTFSS  x87.3
0B4F0:  BRA    B53C
....................          strcpy(Menus.Letra,"Si"); 
0B4F2:  MOVLW  07
0B4F4:  MOVWF  FEA
0B4F6:  MOVLW  BD
0B4F8:  MOVWF  FE9
0B4FA:  MOVFF  FF2,7DD
0B4FE:  BCF    FF2.7
0B500:  MOVLW  00
0B502:  MOVLB  0
0B504:  CALL   0DE6
0B508:  TBLRD*-
0B50A:  TBLRD*+
0B50C:  MOVF   FF5,W
0B50E:  MOVWF  FEE
0B510:  IORLW  00
0B512:  BNZ   B50A
0B514:  MOVLB  7
0B516:  BTFSC  xDD.7
0B518:  BSF    FF2.7
....................          displayMenu(Menus.Letra,40,13,1,2); 
0B51A:  MOVLW  07
0B51C:  MOVWF  xE1
0B51E:  MOVLW  BD
0B520:  MOVWF  xE0
0B522:  MOVLW  28
0B524:  MOVWF  xE2
0B526:  MOVLW  0D
0B528:  MOVWF  xE3
0B52A:  MOVLW  01
0B52C:  MOVWF  xE4
0B52E:  MOVLW  02
0B530:  MOVWF  xE5
0B532:  MOVLB  0
0B534:  CALL   1EC0
....................       }else if(Opcion==2 && ActivaImpresion==1){ 
0B538:  BRA    B5DC
0B53A:  MOVLB  5
0B53C:  MOVF   xA1,W
0B53E:  SUBLW  02
0B540:  BNZ   B58E
0B542:  BTFSS  x87.3
0B544:  BRA    B58E
....................          strcpy(Menus.Letra,"Si"); 
0B546:  MOVLW  07
0B548:  MOVWF  FEA
0B54A:  MOVLW  BD
0B54C:  MOVWF  FE9
0B54E:  MOVFF  FF2,7DD
0B552:  BCF    FF2.7
0B554:  MOVLW  00
0B556:  MOVLB  0
0B558:  CALL   0DE6
0B55C:  TBLRD*-
0B55E:  TBLRD*+
0B560:  MOVF   FF5,W
0B562:  MOVWF  FEE
0B564:  IORLW  00
0B566:  BNZ   B55E
0B568:  MOVLB  7
0B56A:  BTFSC  xDD.7
0B56C:  BSF    FF2.7
....................          displayMenu(Menus.Letra,40,13,0,2); 
0B56E:  MOVLW  07
0B570:  MOVWF  xE1
0B572:  MOVLW  BD
0B574:  MOVWF  xE0
0B576:  MOVLW  28
0B578:  MOVWF  xE2
0B57A:  MOVLW  0D
0B57C:  MOVWF  xE3
0B57E:  CLRF   xE4
0B580:  MOVLW  02
0B582:  MOVWF  xE5
0B584:  MOVLB  0
0B586:  CALL   1EC0
....................       }else if(Opcion==2 && ActivaImpresion==0){ 
0B58A:  BRA    B5DC
0B58C:  MOVLB  5
0B58E:  MOVF   xA1,W
0B590:  SUBLW  02
0B592:  BNZ   B5DE
0B594:  BTFSC  x87.3
0B596:  BRA    B5DE
....................          strcpy(Menus.Letra,"No"); 
0B598:  MOVLW  07
0B59A:  MOVWF  FEA
0B59C:  MOVLW  BD
0B59E:  MOVWF  FE9
0B5A0:  MOVFF  FF2,7DD
0B5A4:  BCF    FF2.7
0B5A6:  MOVLW  00
0B5A8:  MOVLB  0
0B5AA:  CALL   0DC4
0B5AE:  TBLRD*-
0B5B0:  TBLRD*+
0B5B2:  MOVF   FF5,W
0B5B4:  MOVWF  FEE
0B5B6:  IORLW  00
0B5B8:  BNZ   B5B0
0B5BA:  MOVLB  7
0B5BC:  BTFSC  xDD.7
0B5BE:  BSF    FF2.7
....................          displayMenu(Menus.Letra,40,13,0,2); 
0B5C0:  MOVLW  07
0B5C2:  MOVWF  xE1
0B5C4:  MOVLW  BD
0B5C6:  MOVWF  xE0
0B5C8:  MOVLW  28
0B5CA:  MOVWF  xE2
0B5CC:  MOVLW  0D
0B5CE:  MOVWF  xE3
0B5D0:  CLRF   xE4
0B5D2:  MOVLW  02
0B5D4:  MOVWF  xE5
0B5D6:  MOVLB  0
0B5D8:  CALL   1EC0
0B5DC:  MOVLB  5
....................       } 
....................       if(Opcion==1) 
0B5DE:  DECFSZ xA1,W
0B5E0:  BRA    B5FE
....................          displayTiempo(timpresion,40,44,0,2); 
0B5E2:  MOVFF  5B9,7E0
0B5E6:  MOVLW  28
0B5E8:  MOVLB  7
0B5EA:  MOVWF  xE1
0B5EC:  MOVLW  2C
0B5EE:  MOVWF  xE2
0B5F0:  CLRF   xE3
0B5F2:  MOVLW  02
0B5F4:  MOVWF  xE4
0B5F6:  MOVLB  0
0B5F8:  CALL   3950
0B5FC:  MOVLB  5
....................       if(Opcion==2) 
0B5FE:  MOVF   xA1,W
0B600:  SUBLW  02
0B602:  BNZ   B622
....................          displayTiempo(timpresion,40,44,1,2); 
0B604:  MOVFF  5B9,7E0
0B608:  MOVLW  28
0B60A:  MOVLB  7
0B60C:  MOVWF  xE1
0B60E:  MOVLW  2C
0B610:  MOVWF  xE2
0B612:  MOVLW  01
0B614:  MOVWF  xE3
0B616:  MOVLW  02
0B618:  MOVWF  xE4
0B61A:  MOVLB  0
0B61C:  CALL   3950
0B620:  MOVLB  5
....................        
....................       if(Opcion>2) 
0B622:  MOVF   xA1,W
0B624:  SUBLW  02
0B626:  BC    B62C
....................       {Opcion=1;} 
0B628:  MOVLW  01
0B62A:  MOVWF  xA1
....................       if(Opcion<1) 
0B62C:  MOVF   xA1,F
0B62E:  BNZ   B634
....................       {Opcion=2;} 
0B630:  MOVLW  02
0B632:  MOVWF  xA1
....................        
....................          if(UP){ 
0B634:  BSF    F92.5
0B636:  BTFSC  F80.5
0B638:  BRA    B65C
....................             delay_ms(3); 
0B63A:  MOVLW  03
0B63C:  MOVLB  7
0B63E:  MOVWF  xE3
0B640:  MOVLB  0
0B642:  CALL   1800
....................             if(Opcion==1){ 
0B646:  MOVLB  5
0B648:  DECFSZ xA1,W
0B64A:  BRA    B650
....................                ActivaImpresion=1; 
0B64C:  BSF    x87.3
....................             }else if(Opcion==2){ 
0B64E:  BRA    B65C
0B650:  MOVF   xA1,W
0B652:  SUBLW  02
0B654:  BNZ   B65C
....................                timpresion++;        
0B656:  INCF   xB9,F
0B658:  BTFSC  FD8.2
0B65A:  INCF   xBA,F
....................             } 
....................          } 
....................                    
....................          if(DOWN){ 
0B65C:  BSF    F96.0
0B65E:  BTFSC  F84.0
0B660:  BRA    B690
....................             delay_ms(3); 
0B662:  MOVLW  03
0B664:  MOVLB  7
0B666:  MOVWF  xE3
0B668:  MOVLB  0
0B66A:  CALL   1800
....................             if(Opcion==1){ 
0B66E:  MOVLB  5
0B670:  DECFSZ xA1,W
0B672:  BRA    B678
....................                ActivaImpresion=0; 
0B674:  BCF    x87.3
....................             }else if(Opcion==2){ 
0B676:  BRA    B690
0B678:  MOVF   xA1,W
0B67A:  SUBLW  02
0B67C:  BNZ   B690
....................                if(timpresion>1) 
0B67E:  MOVF   xBA,F
0B680:  BNZ   B688
0B682:  MOVF   xB9,W
0B684:  SUBLW  01
0B686:  BC    B690
....................                   timpresion--; 
0B688:  MOVF   xB9,W
0B68A:  BTFSC  FD8.2
0B68C:  DECF   xBA,F
0B68E:  DECF   xB9,F
....................             } 
....................          } 
....................                 
....................          if(RIGHT){   
0B690:  BSF    F96.1
0B692:  BTFSC  F84.1
0B694:  BRA    B6CA
....................             delay_ms(10); 
0B696:  MOVLW  0A
0B698:  MOVLB  7
0B69A:  MOVWF  xE3
0B69C:  MOVLB  0
0B69E:  CALL   1800
....................             if(Flanco1 == 0){ 
0B6A2:  MOVLB  5
0B6A4:  BTFSC  x87.6
0B6A6:  BRA    B6C8
....................                Flanco1 = 1;delay_ms(3);Opcion++;glcd_fillscreen(OFF);visual=1; 
0B6A8:  BSF    x87.6
0B6AA:  MOVLW  03
0B6AC:  MOVLB  7
0B6AE:  MOVWF  xE3
0B6B0:  MOVLB  0
0B6B2:  CALL   1800
0B6B6:  MOVLB  5
0B6B8:  INCF   xA1,F
0B6BA:  MOVLB  7
0B6BC:  CLRF   xDE
0B6BE:  MOVLB  0
0B6C0:  CALL   1880
0B6C4:  MOVLB  5
0B6C6:  BSF    x95.0
....................             } 
....................          }else{ 
0B6C8:  BRA    B6CC
....................             Flanco1 = 0; 
0B6CA:  BCF    x87.6
....................          } 
....................                 
....................          if(LEFT){ 
0B6CC:  BSF    F96.2
0B6CE:  BTFSC  F84.2
0B6D0:  BRA    B784
....................             Menu=1; 
0B6D2:  MOVLW  01
0B6D4:  MOVWF  x9A
....................             Opcion=1; 
0B6D6:  MOVWF  xA1
....................             glcd_fillscreen(OFF);visual=1; 
0B6D8:  MOVLB  7
0B6DA:  CLRF   xDE
0B6DC:  MOVLB  0
0B6DE:  CALL   1880
0B6E2:  MOVLB  5
0B6E4:  BSF    x95.0
....................             write_eeprom(280,ActivaImpresion);delay_ms(10); 
0B6E6:  MOVLW  00
0B6E8:  BTFSC  x87.3
0B6EA:  MOVLW  01
0B6EC:  MOVLB  7
0B6EE:  MOVWF  xDD
0B6F0:  MOVLW  01
0B6F2:  MOVWF  FAA
0B6F4:  MOVLW  18
0B6F6:  MOVWF  FA9
0B6F8:  MOVFF  7DD,FA8
0B6FC:  BCF    FA6.6
0B6FE:  BCF    FA6.7
0B700:  BSF    FA6.2
0B702:  MOVF   FF2,W
0B704:  MOVWF  00
0B706:  BCF    FF2.7
0B708:  MOVLB  F
0B70A:  MOVLW  55
0B70C:  MOVWF  FA7
0B70E:  MOVLW  AA
0B710:  MOVWF  FA7
0B712:  BSF    FA6.1
0B714:  BTFSC  FA6.1
0B716:  BRA    B714
0B718:  BCF    FA6.2
0B71A:  MOVF   00,W
0B71C:  IORWF  FF2,F
0B71E:  MOVLW  0A
0B720:  MOVLB  7
0B722:  MOVWF  xE3
0B724:  MOVLB  0
0B726:  CALL   1800
....................             write_eeprom(281,timpresion);delay_ms(10); 
0B72A:  MOVLW  01
0B72C:  MOVWF  FAA
0B72E:  MOVLW  19
0B730:  MOVWF  FA9
0B732:  MOVFF  5B9,FA8
0B736:  BCF    FA6.6
0B738:  BCF    FA6.7
0B73A:  BSF    FA6.2
0B73C:  MOVF   FF2,W
0B73E:  MOVWF  00
0B740:  BCF    FF2.7
0B742:  MOVLB  F
0B744:  MOVLW  55
0B746:  MOVWF  FA7
0B748:  MOVLW  AA
0B74A:  MOVWF  FA7
0B74C:  BSF    FA6.1
0B74E:  BTFSC  FA6.1
0B750:  BRA    B74E
0B752:  BCF    FA6.2
0B754:  MOVF   00,W
0B756:  IORWF  FF2,F
0B758:  MOVLW  0A
0B75A:  MOVLB  7
0B75C:  MOVWF  xE3
0B75E:  MOVLB  0
0B760:  CALL   1800
....................             CalculoImpresion=timpresion*60; 
0B764:  MOVFF  5BA,7E2
0B768:  MOVFF  5B9,7E1
0B76C:  MOVLB  7
0B76E:  CLRF   xE4
0B770:  MOVLW  3C
0B772:  MOVWF  xE3
0B774:  MOVLB  0
0B776:  CALL   2F8E
0B77A:  MOVFF  02,5B6
0B77E:  MOVFF  01,5B5
0B782:  MOVLB  5
....................          }       
....................          
....................     } 
.................... //_--------------------------------------------------------------------------------------------------------------------------------------------------------        
....................  
.................... //_-------------------------------------------------------------------------------------------------------------------------------------------------------- 
....................       if(Menu>30 && Menu<36){ //Menu Editar Programa 01, Programa 02, Programa 03, Programa 04 y Programa 05 
0B784:  MOVF   x9A,W
0B786:  SUBLW  1E
0B788:  BTFSC  FD8.0
0B78A:  BRA    BA7E
0B78C:  MOVF   x9A,W
0B78E:  SUBLW  23
0B790:  BTFSS  FD8.0
0B792:  BRA    BA7E
....................        
....................          if(Opcion>3){ 
0B794:  MOVF   xA1,W
0B796:  SUBLW  03
0B798:  BC    B7A6
....................             Opcion=1; 
0B79A:  MOVLW  01
0B79C:  MOVWF  xA1
....................             if(i<9){ 
0B79E:  MOVF   x9C,W
0B7A0:  SUBLW  08
0B7A2:  BNC   B7A6
....................                i++;   
0B7A4:  INCF   x9C,F
....................             } 
....................          } 
....................           
....................          if(Opcion<1){ 
0B7A6:  MOVF   xA1,F
0B7A8:  BNZ   B7B4
....................             if(i>0) 
0B7AA:  MOVF   x9C,F
0B7AC:  BZ    B7B0
....................                i--; 
0B7AE:  DECF   x9C,F
....................             Opcion=3; 
0B7B0:  MOVLW  03
0B7B2:  MOVWF  xA1
....................          } 
....................           
....................          if(Menu==31) 
0B7B4:  MOVF   x9A,W
0B7B6:  SUBLW  1F
0B7B8:  BNZ   B7BE
....................             Programa=1; 
0B7BA:  MOVLW  01
0B7BC:  MOVWF  x98
....................           
....................          if(Menu==32) 
0B7BE:  MOVF   x9A,W
0B7C0:  SUBLW  20
0B7C2:  BNZ   B7C8
....................             Programa=2; 
0B7C4:  MOVLW  02
0B7C6:  MOVWF  x98
....................              
....................          if(Menu==33) 
0B7C8:  MOVF   x9A,W
0B7CA:  SUBLW  21
0B7CC:  BNZ   B7D2
....................             Programa=3; 
0B7CE:  MOVLW  03
0B7D0:  MOVWF  x98
....................              
....................          if(Menu==34) 
0B7D2:  MOVF   x9A,W
0B7D4:  SUBLW  22
0B7D6:  BNZ   B7DC
....................             Programa=4; 
0B7D8:  MOVLW  04
0B7DA:  MOVWF  x98
....................              
....................          if(Menu==35) 
0B7DC:  MOVF   x9A,W
0B7DE:  SUBLW  23
0B7E0:  BNZ   B7E6
....................             Programa=5;    
0B7E2:  MOVLW  05
0B7E4:  MOVWF  x98
....................           
....................          MuestraSegmento(Opcion,i,Programa); 
0B7E6:  MOVFF  5A1,7DD
0B7EA:  MOVFF  59C,7DE
0B7EE:  MOVFF  598,7DF
0B7F2:  MOVLB  0
0B7F4:  GOTO   5360
....................           
....................          if(RIGHT && LEFT){ 
0B7F8:  BSF    F96.1
0B7FA:  BTFSC  F84.1
0B7FC:  BRA    BA2C
0B7FE:  BSF    F96.2
0B800:  BTFSC  F84.2
0B802:  BRA    BA2C
....................             Buzz_on;Menu=5;Opcion=1;glcd_fillscreen(OFF);delay_ms(500);Buzz_off; 
0B804:  BSF    F8B.4
0B806:  BCF    F94.4
0B808:  MOVLW  05
0B80A:  MOVLB  5
0B80C:  MOVWF  x9A
0B80E:  MOVLW  01
0B810:  MOVWF  xA1
0B812:  MOVLB  7
0B814:  CLRF   xDE
0B816:  MOVLB  0
0B818:  CALL   1880
0B81C:  MOVLW  02
0B81E:  MOVLB  7
0B820:  MOVWF  xDD
0B822:  MOVLW  FA
0B824:  MOVWF  xE3
0B826:  MOVLB  0
0B828:  CALL   1800
0B82C:  MOVLB  7
0B82E:  DECFSZ xDD,F
0B830:  BRA    B822
0B832:  BCF    F8B.4
0B834:  BCF    F94.4
....................              
....................             for(i=0;i<10;i++){ 
0B836:  MOVLB  5
0B838:  CLRF   x9C
0B83A:  MOVF   x9C,W
0B83C:  SUBLW  09
0B83E:  BTFSS  FD8.0
0B840:  BRA    BA2A
....................                delay_ms(10);     
0B842:  MOVLW  0A
0B844:  MOVLB  7
0B846:  MOVWF  xE3
0B848:  MOVLB  0
0B84A:  CALL   1800
....................                write_eeprom((i*2)+(40*(Programa-1)),make8(Temperatura1[i+((Programa-1)*10)],0)); 
0B84E:  BCF    FD8.0
0B850:  MOVLB  5
0B852:  RLCF   x9C,W
0B854:  MOVLB  7
0B856:  MOVWF  xDD
0B858:  MOVLW  01
0B85A:  MOVLB  5
0B85C:  SUBWF  x98,W
0B85E:  MULLW  28
0B860:  MOVF   FF3,W
0B862:  MOVLB  7
0B864:  ADDWF  xDD,F
0B866:  MOVLW  01
0B868:  MOVLB  5
0B86A:  SUBWF  x98,W
0B86C:  MULLW  0A
0B86E:  MOVF   FF3,W
0B870:  ADDWF  x9C,W
0B872:  MOVWF  00
0B874:  BCF    FD8.0
0B876:  RLCF   00,F
0B878:  MOVF   00,W
0B87A:  CLRF   03
0B87C:  ADDLW  67
0B87E:  MOVWF  FE9
0B880:  MOVLW  06
0B882:  ADDWFC 03,W
0B884:  MOVWF  FEA
0B886:  MOVFF  FEC,7DF
0B88A:  MOVF   FED,F
0B88C:  MOVFF  FEF,7DE
0B890:  MOVFF  7DE,7E0
0B894:  CLRF   FAA
0B896:  MOVFF  7DD,FA9
0B89A:  MOVFF  7E0,FA8
0B89E:  BCF    FA6.6
0B8A0:  BCF    FA6.7
0B8A2:  BSF    FA6.2
0B8A4:  MOVF   FF2,W
0B8A6:  MOVWF  00
0B8A8:  BCF    FF2.7
0B8AA:  MOVLB  F
0B8AC:  MOVLW  55
0B8AE:  MOVWF  FA7
0B8B0:  MOVLW  AA
0B8B2:  MOVWF  FA7
0B8B4:  BSF    FA6.1
0B8B6:  BTFSC  FA6.1
0B8B8:  BRA    B8B6
0B8BA:  BCF    FA6.2
0B8BC:  MOVF   00,W
0B8BE:  IORWF  FF2,F
....................                delay_ms(10);     
0B8C0:  MOVLW  0A
0B8C2:  MOVLB  7
0B8C4:  MOVWF  xE3
0B8C6:  MOVLB  0
0B8C8:  CALL   1800
....................                write_eeprom((i*2)+1+(40*(Programa-1)),make8(Temperatura1[i+((Programa-1)*10)],1)); 
0B8CC:  BCF    FD8.0
0B8CE:  MOVLB  5
0B8D0:  RLCF   x9C,W
0B8D2:  ADDLW  01
0B8D4:  MOVLB  7
0B8D6:  MOVWF  xDD
0B8D8:  MOVLW  01
0B8DA:  MOVLB  5
0B8DC:  SUBWF  x98,W
0B8DE:  MULLW  28
0B8E0:  MOVF   FF3,W
0B8E2:  MOVLB  7
0B8E4:  ADDWF  xDD,F
0B8E6:  MOVLW  01
0B8E8:  MOVLB  5
0B8EA:  SUBWF  x98,W
0B8EC:  MULLW  0A
0B8EE:  MOVF   FF3,W
0B8F0:  ADDWF  x9C,W
0B8F2:  MOVWF  00
0B8F4:  BCF    FD8.0
0B8F6:  RLCF   00,F
0B8F8:  MOVF   00,W
0B8FA:  CLRF   03
0B8FC:  ADDLW  67
0B8FE:  MOVWF  FE9
0B900:  MOVLW  06
0B902:  ADDWFC 03,W
0B904:  MOVWF  FEA
0B906:  MOVFF  FEC,7DF
0B90A:  MOVF   FED,F
0B90C:  MOVFF  FEF,7DE
0B910:  MOVFF  7DF,7E0
0B914:  CLRF   FAA
0B916:  MOVFF  7DD,FA9
0B91A:  MOVFF  7E0,FA8
0B91E:  BCF    FA6.6
0B920:  BCF    FA6.7
0B922:  BSF    FA6.2
0B924:  MOVF   FF2,W
0B926:  MOVWF  00
0B928:  BCF    FF2.7
0B92A:  MOVLB  F
0B92C:  MOVLW  55
0B92E:  MOVWF  FA7
0B930:  MOVLW  AA
0B932:  MOVWF  FA7
0B934:  BSF    FA6.1
0B936:  BTFSC  FA6.1
0B938:  BRA    B936
0B93A:  BCF    FA6.2
0B93C:  MOVF   00,W
0B93E:  IORWF  FF2,F
....................                delay_ms(10);     
0B940:  MOVLW  0A
0B942:  MOVLB  7
0B944:  MOVWF  xE3
0B946:  MOVLB  0
0B948:  CALL   1800
....................                write_eeprom(i+((40*Programa)-20),Horas1[i+((Programa-1)*10)]); 
0B94C:  MOVLB  5
0B94E:  MOVF   x98,W
0B950:  MULLW  28
0B952:  MOVF   FF3,W
0B954:  ADDLW  EC
0B956:  ADDWF  x9C,W
0B958:  MOVLB  7
0B95A:  MOVWF  xDD
0B95C:  MOVLW  01
0B95E:  MOVLB  5
0B960:  SUBWF  x98,W
0B962:  MULLW  0A
0B964:  MOVF   FF3,W
0B966:  ADDWF  x9C,W
0B968:  MOVWF  00
0B96A:  BCF    FD8.0
0B96C:  RLCF   00,F
0B96E:  MOVF   00,W
0B970:  CLRF   03
0B972:  ADDLW  CB
0B974:  MOVWF  FE9
0B976:  MOVLW  06
0B978:  ADDWFC 03,W
0B97A:  MOVWF  FEA
0B97C:  MOVFF  FEC,7DF
0B980:  MOVF   FED,F
0B982:  MOVFF  FEF,7DE
0B986:  CLRF   FAA
0B988:  MOVFF  7DD,FA9
0B98C:  MOVFF  7DE,FA8
0B990:  BCF    FA6.6
0B992:  BCF    FA6.7
0B994:  BSF    FA6.2
0B996:  MOVF   FF2,W
0B998:  MOVWF  00
0B99A:  BCF    FF2.7
0B99C:  MOVLB  F
0B99E:  MOVLW  55
0B9A0:  MOVWF  FA7
0B9A2:  MOVLW  AA
0B9A4:  MOVWF  FA7
0B9A6:  BSF    FA6.1
0B9A8:  BTFSC  FA6.1
0B9AA:  BRA    B9A8
0B9AC:  BCF    FA6.2
0B9AE:  MOVF   00,W
0B9B0:  IORWF  FF2,F
....................                delay_ms(10);     
0B9B2:  MOVLW  0A
0B9B4:  MOVLB  7
0B9B6:  MOVWF  xE3
0B9B8:  MOVLB  0
0B9BA:  CALL   1800
....................                write_eeprom(i+((40*Programa)-10),Minutos1[i+((Programa-1)*10)]); 
0B9BE:  MOVLB  5
0B9C0:  MOVF   x98,W
0B9C2:  MULLW  28
0B9C4:  MOVF   FF3,W
0B9C6:  ADDLW  F6
0B9C8:  ADDWF  x9C,W
0B9CA:  MOVLB  7
0B9CC:  MOVWF  xDD
0B9CE:  MOVLW  01
0B9D0:  MOVLB  5
0B9D2:  SUBWF  x98,W
0B9D4:  MULLW  0A
0B9D6:  MOVF   FF3,W
0B9D8:  ADDWF  x9C,W
0B9DA:  MOVWF  00
0B9DC:  BCF    FD8.0
0B9DE:  RLCF   00,F
0B9E0:  MOVF   00,W
0B9E2:  CLRF   03
0B9E4:  ADDLW  2F
0B9E6:  MOVWF  FE9
0B9E8:  MOVLW  07
0B9EA:  ADDWFC 03,W
0B9EC:  MOVWF  FEA
0B9EE:  MOVFF  FEC,7DF
0B9F2:  MOVF   FED,F
0B9F4:  MOVFF  FEF,7DE
0B9F8:  CLRF   FAA
0B9FA:  MOVFF  7DD,FA9
0B9FE:  MOVFF  7DE,FA8
0BA02:  BCF    FA6.6
0BA04:  BCF    FA6.7
0BA06:  BSF    FA6.2
0BA08:  MOVF   FF2,W
0BA0A:  MOVWF  00
0BA0C:  BCF    FF2.7
0BA0E:  MOVLB  F
0BA10:  MOVLW  55
0BA12:  MOVWF  FA7
0BA14:  MOVLW  AA
0BA16:  MOVWF  FA7
0BA18:  BSF    FA6.1
0BA1A:  BTFSC  FA6.1
0BA1C:  BRA    BA1A
0BA1E:  BCF    FA6.2
0BA20:  MOVF   00,W
0BA22:  IORWF  FF2,F
....................             }  
0BA24:  MOVLB  5
0BA26:  INCF   x9C,F
0BA28:  BRA    B83A
0BA2A:  MOVLB  0
....................          } 
....................           
....................          if(RIGHT)//Si oprime SET 
0BA2C:  BSF    F96.1
0BA2E:  BTFSC  F84.1
0BA30:  BRA    BA54
....................          {  
....................             Buzz_on;delay_ms(50);Opcion++;glcd_fillscreen(OFF);Buzz_off; 
0BA32:  BSF    F8B.4
0BA34:  BCF    F94.4
0BA36:  MOVLW  32
0BA38:  MOVLB  7
0BA3A:  MOVWF  xE3
0BA3C:  MOVLB  0
0BA3E:  CALL   1800
0BA42:  MOVLB  5
0BA44:  INCF   xA1,F
0BA46:  MOVLB  7
0BA48:  CLRF   xDE
0BA4A:  MOVLB  0
0BA4C:  CALL   1880
0BA50:  BCF    F8B.4
0BA52:  BCF    F94.4
....................          } 
....................           
....................          if(LEFT){ 
0BA54:  BSF    F96.2
0BA56:  BTFSC  F84.2
0BA58:  BRA    BA7C
....................             Buzz_on;delay_ms(50);Opcion--;glcd_fillscreen(OFF);Buzz_off; 
0BA5A:  BSF    F8B.4
0BA5C:  BCF    F94.4
0BA5E:  MOVLW  32
0BA60:  MOVLB  7
0BA62:  MOVWF  xE3
0BA64:  MOVLB  0
0BA66:  CALL   1800
0BA6A:  MOVLB  5
0BA6C:  DECF   xA1,F
0BA6E:  MOVLB  7
0BA70:  CLRF   xDE
0BA72:  MOVLB  0
0BA74:  CALL   1880
0BA78:  BCF    F8B.4
0BA7A:  BCF    F94.4
0BA7C:  MOVLB  5
....................          } 
....................    } 
.................... //_--------------------------------------------------------------------------------------------------------------------------------------------------------        
....................  
.................... //_-------------------------------------------------------------------------------------------------------------------------------------------------------- 
....................       if(Menu==20){ //Menu de Funcionamiento 
0BA7E:  MOVF   x9A,W
0BA80:  SUBLW  14
0BA82:  BTFSS  FD8.2
0BA84:  GOTO   D8FC
....................        
....................       if(flagImprime && ActivaImpresion==1){ 
0BA88:  BTFSS  x87.4
0BA8A:  BRA    BB34
0BA8C:  BTFSS  x87.3
0BA8E:  BRA    BB34
....................          fprintf(printer,"  %02u:%02u    %03.1fC  %u\n",Hora,Minuto,Temperatura,Segmento); 
0BA90:  MOVLW  20
0BA92:  BTFSS  F9E.4
0BA94:  BRA    BA92
0BA96:  MOVWF  FAD
0BA98:  MOVLW  20
0BA9A:  BTFSS  F9E.4
0BA9C:  BRA    BA9A
0BA9E:  MOVWF  FAD
0BAA0:  MOVFF  796,7DE
0BAA4:  MOVLW  01
0BAA6:  MOVLB  7
0BAA8:  MOVWF  xDF
0BAAA:  MOVLB  0
0BAAC:  CALL   3848
0BAB0:  MOVLW  3A
0BAB2:  BTFSS  F9E.4
0BAB4:  BRA    BAB2
0BAB6:  MOVWF  FAD
0BAB8:  MOVFF  797,7DE
0BABC:  MOVLW  01
0BABE:  MOVLB  7
0BAC0:  MOVWF  xDF
0BAC2:  MOVLB  0
0BAC4:  CALL   3848
0BAC8:  MOVLW  C5
0BACA:  MOVWF  FF6
0BACC:  MOVLW  17
0BACE:  MOVWF  FF7
0BAD0:  MOVLW  00
0BAD2:  MOVWF  FF8
0BAD4:  MOVLW  04
0BAD6:  MOVLB  7
0BAD8:  MOVWF  xDE
0BADA:  MOVLB  0
0BADC:  CALL   3816
0BAE0:  MOVLW  42
0BAE2:  MOVWF  FE9
0BAE4:  MOVFF  62E,7E0
0BAE8:  MOVFF  62D,7DF
0BAEC:  MOVFF  62C,7DE
0BAF0:  MOVFF  62B,7DD
0BAF4:  MOVLW  01
0BAF6:  MOVLB  7
0BAF8:  MOVWF  xE1
0BAFA:  MOVLB  0
0BAFC:  CALL   4900
0BB00:  MOVLW  CF
0BB02:  MOVWF  FF6
0BB04:  MOVLW  17
0BB06:  MOVWF  FF7
0BB08:  MOVLW  00
0BB0A:  MOVWF  FF8
0BB0C:  MOVLW  04
0BB0E:  MOVLB  7
0BB10:  MOVWF  xDE
0BB12:  MOVLB  0
0BB14:  CALL   3816
0BB18:  MOVFF  593,7DE
0BB1C:  MOVLW  1B
0BB1E:  MOVLB  7
0BB20:  MOVWF  xDF
0BB22:  MOVLB  0
0BB24:  CALL   3848
0BB28:  MOVLW  0A
0BB2A:  BTFSS  F9E.4
0BB2C:  BRA    BB2A
0BB2E:  MOVWF  FAD
....................          flagImprime=0; 
0BB30:  MOVLB  5
0BB32:  BCF    x87.4
....................       } 
....................       // Muestra imagen de fondo en Display GLCD       
....................       glcd_imagen(5); 
0BB34:  MOVLW  05
0BB36:  MOVLB  7
0BB38:  MOVWF  xDD
0BB3A:  MOVLB  0
0BB3C:  GOTO   5FC4
....................       //flag_display=0; 
....................  
....................       if(UP && DOWN)//Si oprime hacia abajo 
0BB40:  BSF    F92.5
0BB42:  BTFSC  F80.5
0BB44:  BRA    BB68
0BB46:  BSF    F96.0
0BB48:  BTFSC  F84.0
0BB4A:  BRA    BB68
....................       { 
....................          glcd_init(ON);delay_ms(200);flag_display=!flag_display;          
0BB4C:  MOVLW  01
0BB4E:  MOVLB  7
0BB50:  MOVWF  xDD
0BB52:  MOVLB  0
0BB54:  CALL   1992
0BB58:  MOVLW  C8
0BB5A:  MOVLB  7
0BB5C:  MOVWF  xE3
0BB5E:  MOVLB  0
0BB60:  CALL   1800
0BB64:  MOVLB  5
0BB66:  BTG    x95.5
....................       } 
....................  
....................       if(Temperatura>1250 || Temperatura<0) 
0BB68:  MOVLB  7
0BB6A:  CLRF   xE0
0BB6C:  MOVLW  40
0BB6E:  MOVWF  xDF
0BB70:  MOVLW  1C
0BB72:  MOVWF  xDE
0BB74:  MOVLW  89
0BB76:  MOVWF  xDD
0BB78:  MOVFF  62E,7E4
0BB7C:  MOVFF  62D,7E3
0BB80:  MOVFF  62C,7E2
0BB84:  MOVFF  62B,7E1
0BB88:  MOVLB  0
0BB8A:  CALL   21FE
0BB8E:  BC    BBB2
0BB90:  MOVFF  62E,7E0
0BB94:  MOVFF  62D,7DF
0BB98:  MOVFF  62C,7DE
0BB9C:  MOVFF  62B,7DD
0BBA0:  MOVLB  7
0BBA2:  CLRF   xE4
0BBA4:  CLRF   xE3
0BBA6:  CLRF   xE2
0BBA8:  CLRF   xE1
0BBAA:  MOVLB  0
0BBAC:  CALL   21FE
0BBB0:  BNC   BC52
....................       { 
....................          glcd_rect(0, 55, 127, 63, YES, OFF); 
0BBB2:  MOVLB  7
0BBB4:  CLRF   xF5
0BBB6:  MOVLW  37
0BBB8:  MOVWF  xF6
0BBBA:  MOVLW  7F
0BBBC:  MOVWF  xF7
0BBBE:  MOVLW  3F
0BBC0:  MOVWF  xF8
0BBC2:  MOVLW  01
0BBC4:  MOVWF  xF9
0BBC6:  CLRF   xFA
0BBC8:  MOVLB  0
0BBCA:  CALL   1DFE
....................          strcpy(Menus.Letra,"Status:Sensor Descon."); 
0BBCE:  MOVLW  07
0BBD0:  MOVWF  FEA
0BBD2:  MOVLW  BD
0BBD4:  MOVWF  FE9
0BBD6:  MOVFF  FF2,7DD
0BBDA:  BCF    FF2.7
0BBDC:  MOVLW  00
0BBDE:  CALL   0E08
0BBE2:  TBLRD*-
0BBE4:  TBLRD*+
0BBE6:  MOVF   FF5,W
0BBE8:  MOVWF  FEE
0BBEA:  IORLW  00
0BBEC:  BNZ   BBE4
0BBEE:  MOVLB  7
0BBF0:  BTFSC  xDD.7
0BBF2:  BSF    FF2.7
....................          displayMenu(Menus.Letra,0,55,2,1); 
0BBF4:  MOVLW  07
0BBF6:  MOVWF  xE1
0BBF8:  MOVLW  BD
0BBFA:  MOVWF  xE0
0BBFC:  CLRF   xE2
0BBFE:  MOVLW  37
0BC00:  MOVWF  xE3
0BC02:  MOVLW  02
0BC04:  MOVWF  xE4
0BC06:  MOVLW  01
0BC08:  MOVWF  xE5
0BC0A:  MOVLB  0
0BC0C:  CALL   1EC0
....................          tiempo_esterilizacion=0; 
0BC10:  MOVLB  5
0BC12:  CLRF   xA2
....................          Resistencia_off; 
0BC14:  BCF    F8B.0
0BC16:  BCF    F94.0
....................          Tpulso=0.0; 
0BC18:  CLRF   xFE
0BC1A:  CLRF   xFD
0BC1C:  CLRF   xFC
0BC1E:  CLRF   xFB
....................          flag_tiempocalentamiento=0; 
0BC20:  BCF    x95.4
....................          Buzz_on; 
0BC22:  BSF    F8B.4
0BC24:  BCF    F94.4
....................          delay_ms(500); 
0BC26:  MOVLW  02
0BC28:  MOVLB  7
0BC2A:  MOVWF  xDD
0BC2C:  MOVLW  FA
0BC2E:  MOVWF  xE3
0BC30:  MOVLB  0
0BC32:  CALL   1800
0BC36:  MOVLB  7
0BC38:  DECFSZ xDD,F
0BC3A:  BRA    BC2C
....................          Buzz_off; 
0BC3C:  BCF    F8B.4
0BC3E:  BCF    F94.4
....................          delay_ms(250); 
0BC40:  MOVLW  FA
0BC42:  MOVWF  xE3
0BC44:  MOVLB  0
0BC46:  CALL   1800
....................          Control=0; 
0BC4A:  MOVLB  5
0BC4C:  CLRF   x99
....................       } 
....................       else 
0BC4E:  BRA    C2AA
0BC50:  MOVLB  0
....................       { 
....................           
....................          if(Pausa==0 && !DOOR) 
0BC52:  MOVLB  5
0BC54:  MOVF   x9E,F
0BC56:  BTFSS  FD8.2
0BC58:  BRA    BFC6
0BC5A:  BSF    F92.4
0BC5C:  BTFSC  F80.4
0BC5E:  BRA    BFC6
....................          { 
....................             Control=1; 
0BC60:  MOVLW  01
0BC62:  MOVWF  x99
....................              
....................             if(Temperatura>Setpoint+AlTem && AlTem>0){ 
0BC64:  BCF    FD8.1
0BC66:  MOVFF  63A,7E6
0BC6A:  MOVFF  639,7E5
0BC6E:  MOVFF  638,7E4
0BC72:  MOVFF  637,7E3
0BC76:  MOVFF  622,7EA
0BC7A:  MOVFF  621,7E9
0BC7E:  MOVFF  620,7E8
0BC82:  MOVFF  61F,7E7
0BC86:  MOVLB  0
0BC88:  CALL   2FB0
0BC8C:  MOVFF  03,7E0
0BC90:  MOVFF  02,7DF
0BC94:  MOVFF  01,7DE
0BC98:  MOVFF  00,7DD
0BC9C:  MOVFF  62E,7E4
0BCA0:  MOVFF  62D,7E3
0BCA4:  MOVFF  62C,7E2
0BCA8:  MOVFF  62B,7E1
0BCAC:  CALL   21FE
0BCB0:  BNC   BCDE
0BCB2:  MOVLB  7
0BCB4:  CLRF   xE0
0BCB6:  CLRF   xDF
0BCB8:  CLRF   xDE
0BCBA:  CLRF   xDD
0BCBC:  MOVFF  622,7E4
0BCC0:  MOVFF  621,7E3
0BCC4:  MOVFF  620,7E2
0BCC8:  MOVFF  61F,7E1
0BCCC:  MOVLB  0
0BCCE:  CALL   21FE
0BCD2:  BNC   BCDE
....................                Alarma=5; 
0BCD4:  MOVLW  05
0BCD6:  MOVLB  5
0BCD8:  MOVWF  xA4
....................             }else{   
0BCDA:  BRA    BFC6
0BCDC:  MOVLB  0
....................                Alarma=10; 
0BCDE:  MOVLW  0A
0BCE0:  MOVLB  5
0BCE2:  MOVWF  xA4
....................                if((Temperatura>=Setpoint-10) && (Temperatura<Setpoint+50)) 
0BCE4:  BSF    FD8.1
0BCE6:  MOVFF  63A,7E6
0BCEA:  MOVFF  639,7E5
0BCEE:  MOVFF  638,7E4
0BCF2:  MOVFF  637,7E3
0BCF6:  MOVLB  7
0BCF8:  CLRF   xEA
0BCFA:  CLRF   xE9
0BCFC:  MOVLW  20
0BCFE:  MOVWF  xE8
0BD00:  MOVLW  82
0BD02:  MOVWF  xE7
0BD04:  MOVLB  0
0BD06:  CALL   2FB0
0BD0A:  MOVFF  03,7E0
0BD0E:  MOVFF  02,7DF
0BD12:  MOVFF  01,7DE
0BD16:  MOVFF  00,7DD
0BD1A:  MOVFF  62E,7E4
0BD1E:  MOVFF  62D,7E3
0BD22:  MOVFF  62C,7E2
0BD26:  MOVFF  62B,7E1
0BD2A:  CALL   21FE
0BD2E:  BC    BD34
0BD30:  BTFSS  FD8.2
0BD32:  BRA    BEA8
0BD34:  BCF    FD8.1
0BD36:  MOVFF  63A,7E6
0BD3A:  MOVFF  639,7E5
0BD3E:  MOVFF  638,7E4
0BD42:  MOVFF  637,7E3
0BD46:  MOVLB  7
0BD48:  CLRF   xEA
0BD4A:  CLRF   xE9
0BD4C:  MOVLW  48
0BD4E:  MOVWF  xE8
0BD50:  MOVLW  84
0BD52:  MOVWF  xE7
0BD54:  MOVLB  0
0BD56:  CALL   2FB0
0BD5A:  MOVFF  62E,7E0
0BD5E:  MOVFF  62D,7DF
0BD62:  MOVFF  62C,7DE
0BD66:  MOVFF  62B,7DD
0BD6A:  MOVFF  03,7E4
0BD6E:  MOVFF  02,7E3
0BD72:  MOVFF  01,7E2
0BD76:  MOVFF  00,7E1
0BD7A:  CALL   21FE
0BD7E:  BTFSS  FD8.0
0BD80:  BRA    BEA8
....................                { 
....................                   if(Pendiente!=0){ 
0BD82:  MOVFF  632,7E0
0BD86:  MOVFF  631,7DF
0BD8A:  MOVFF  630,7DE
0BD8E:  MOVFF  62F,7DD
0BD92:  MOVLB  7
0BD94:  CLRF   xE4
0BD96:  CLRF   xE3
0BD98:  CLRF   xE2
0BD9A:  CLRF   xE1
0BD9C:  MOVLB  0
0BD9E:  CALL   21FE
0BDA2:  BZ    BE0C
....................                      tiempo_esterilizacion=1; 
0BDA4:  MOVLW  01
0BDA6:  MOVLB  5
0BDA8:  MOVWF  xA2
....................                      if(flag_display==0){ 
0BDAA:  BTFSC  x95.5
0BDAC:  BRA    BE0E
....................                         glcd_rect(0, 55, 127, 63, YES, OFF); 
0BDAE:  MOVLB  7
0BDB0:  CLRF   xF5
0BDB2:  MOVLW  37
0BDB4:  MOVWF  xF6
0BDB6:  MOVLW  7F
0BDB8:  MOVWF  xF7
0BDBA:  MOVLW  3F
0BDBC:  MOVWF  xF8
0BDBE:  MOVLW  01
0BDC0:  MOVWF  xF9
0BDC2:  CLRF   xFA
0BDC4:  MOVLB  0
0BDC6:  CALL   1DFE
....................                         strcpy(Menus.Letra,"Status:Controlando"); 
0BDCA:  MOVLW  07
0BDCC:  MOVWF  FEA
0BDCE:  MOVLW  BD
0BDD0:  MOVWF  FE9
0BDD2:  MOVFF  FF2,7DD
0BDD6:  BCF    FF2.7
0BDD8:  MOVLW  00
0BDDA:  CALL   0E3C
0BDDE:  TBLRD*-
0BDE0:  TBLRD*+
0BDE2:  MOVF   FF5,W
0BDE4:  MOVWF  FEE
0BDE6:  IORLW  00
0BDE8:  BNZ   BDE0
0BDEA:  MOVLB  7
0BDEC:  BTFSC  xDD.7
0BDEE:  BSF    FF2.7
....................                         displayMenu(Menus.Letra,0,55,2,1); 
0BDF0:  MOVLW  07
0BDF2:  MOVWF  xE1
0BDF4:  MOVLW  BD
0BDF6:  MOVWF  xE0
0BDF8:  CLRF   xE2
0BDFA:  MOVLW  37
0BDFC:  MOVWF  xE3
0BDFE:  MOVLW  02
0BE00:  MOVWF  xE4
0BE02:  MOVLW  01
0BE04:  MOVWF  xE5
0BE06:  MOVLB  0
0BE08:  CALL   1EC0
0BE0C:  MOVLB  5
....................                      } 
....................                   } 
....................                    
....................                   if(Pendiente==0){ 
0BE0E:  MOVFF  632,7E0
0BE12:  MOVFF  631,7DF
0BE16:  MOVFF  630,7DE
0BE1A:  MOVFF  62F,7DD
0BE1E:  MOVLB  7
0BE20:  CLRF   xE4
0BE22:  CLRF   xE3
0BE24:  CLRF   xE2
0BE26:  CLRF   xE1
0BE28:  MOVLB  0
0BE2A:  CALL   21FE
0BE2E:  BNZ   BE9C
....................                      if(flag_display==0){ 
0BE30:  MOVLB  5
0BE32:  BTFSC  x95.5
0BE34:  BRA    BE96
....................                         glcd_rect(0, 55, 127, 63, YES, OFF); 
0BE36:  MOVLB  7
0BE38:  CLRF   xF5
0BE3A:  MOVLW  37
0BE3C:  MOVWF  xF6
0BE3E:  MOVLW  7F
0BE40:  MOVWF  xF7
0BE42:  MOVLW  3F
0BE44:  MOVWF  xF8
0BE46:  MOVLW  01
0BE48:  MOVWF  xF9
0BE4A:  CLRF   xFA
0BE4C:  MOVLB  0
0BE4E:  CALL   1DFE
....................                         strcpy(Menus.Letra,"Status:Meseta  "); 
0BE52:  MOVLW  07
0BE54:  MOVWF  FEA
0BE56:  MOVLW  BD
0BE58:  MOVWF  FE9
0BE5A:  MOVFF  FF2,7DD
0BE5E:  BCF    FF2.7
0BE60:  MOVLW  00
0BE62:  CALL   0E6E
0BE66:  TBLRD*-
0BE68:  TBLRD*+
0BE6A:  MOVF   FF5,W
0BE6C:  MOVWF  FEE
0BE6E:  IORLW  00
0BE70:  BNZ   BE68
0BE72:  MOVLB  7
0BE74:  BTFSC  xDD.7
0BE76:  BSF    FF2.7
....................                         displayMenu(Menus.Letra,0,55,2,1); 
0BE78:  MOVLW  07
0BE7A:  MOVWF  xE1
0BE7C:  MOVLW  BD
0BE7E:  MOVWF  xE0
0BE80:  CLRF   xE2
0BE82:  MOVLW  37
0BE84:  MOVWF  xE3
0BE86:  MOVLW  02
0BE88:  MOVWF  xE4
0BE8A:  MOVLW  01
0BE8C:  MOVWF  xE5
0BE8E:  MOVLB  0
0BE90:  CALL   1EC0
0BE94:  MOVLB  5
....................                      } 
....................                      tiempo_esterilizacion=2; 
0BE96:  MOVLW  02
0BE98:  MOVWF  xA2
0BE9A:  MOVLB  0
....................                   } 
....................                   Controla(); 
0BE9C:  CALL   6398
....................                   flag_tiempocalentamiento=0; 
0BEA0:  MOVLB  5
0BEA2:  BCF    x95.4
....................                } 
....................                else 
0BEA4:  BRA    BFC6
0BEA6:  MOVLB  0
....................                { 
....................                   if(Pendiente!=0){ 
0BEA8:  MOVFF  632,7E0
0BEAC:  MOVFF  631,7DF
0BEB0:  MOVFF  630,7DE
0BEB4:  MOVFF  62F,7DD
0BEB8:  MOVLB  7
0BEBA:  CLRF   xE4
0BEBC:  CLRF   xE3
0BEBE:  CLRF   xE2
0BEC0:  CLRF   xE1
0BEC2:  MOVLB  0
0BEC4:  CALL   21FE
0BEC8:  BZ    BF32
....................                      tiempo_esterilizacion=1; 
0BECA:  MOVLW  01
0BECC:  MOVLB  5
0BECE:  MOVWF  xA2
....................                      if(flag_display==0){ 
0BED0:  BTFSC  x95.5
0BED2:  BRA    BF34
....................                         glcd_rect(0, 55, 127, 63, YES, OFF); 
0BED4:  MOVLB  7
0BED6:  CLRF   xF5
0BED8:  MOVLW  37
0BEDA:  MOVWF  xF6
0BEDC:  MOVLW  7F
0BEDE:  MOVWF  xF7
0BEE0:  MOVLW  3F
0BEE2:  MOVWF  xF8
0BEE4:  MOVLW  01
0BEE6:  MOVWF  xF9
0BEE8:  CLRF   xFA
0BEEA:  MOVLB  0
0BEEC:  CALL   1DFE
....................                         strcpy(Menus.Letra,"Status:Rampa  "); 
0BEF0:  MOVLW  07
0BEF2:  MOVWF  FEA
0BEF4:  MOVLW  BD
0BEF6:  MOVWF  FE9
0BEF8:  MOVFF  FF2,7DD
0BEFC:  BCF    FF2.7
0BEFE:  MOVLW  00
0BF00:  CALL   0E9C
0BF04:  TBLRD*-
0BF06:  TBLRD*+
0BF08:  MOVF   FF5,W
0BF0A:  MOVWF  FEE
0BF0C:  IORLW  00
0BF0E:  BNZ   BF06
0BF10:  MOVLB  7
0BF12:  BTFSC  xDD.7
0BF14:  BSF    FF2.7
....................                         displayMenu(Menus.Letra,0,55,2,1); 
0BF16:  MOVLW  07
0BF18:  MOVWF  xE1
0BF1A:  MOVLW  BD
0BF1C:  MOVWF  xE0
0BF1E:  CLRF   xE2
0BF20:  MOVLW  37
0BF22:  MOVWF  xE3
0BF24:  MOVLW  02
0BF26:  MOVWF  xE4
0BF28:  MOVLW  01
0BF2A:  MOVWF  xE5
0BF2C:  MOVLB  0
0BF2E:  CALL   1EC0
0BF32:  MOVLB  5
....................                      } 
....................                   } 
....................                    
....................                   if(Pendiente==0){ 
0BF34:  MOVFF  632,7E0
0BF38:  MOVFF  631,7DF
0BF3C:  MOVFF  630,7DE
0BF40:  MOVFF  62F,7DD
0BF44:  MOVLB  7
0BF46:  CLRF   xE4
0BF48:  CLRF   xE3
0BF4A:  CLRF   xE2
0BF4C:  CLRF   xE1
0BF4E:  MOVLB  0
0BF50:  CALL   21FE
0BF54:  BNZ   BFC0
....................                      if(flag_display==0){ 
0BF56:  MOVLB  5
0BF58:  BTFSC  x95.5
0BF5A:  BRA    BFBC
....................                         glcd_rect(0, 55, 127, 63, YES, OFF); 
0BF5C:  MOVLB  7
0BF5E:  CLRF   xF5
0BF60:  MOVLW  37
0BF62:  MOVWF  xF6
0BF64:  MOVLW  7F
0BF66:  MOVWF  xF7
0BF68:  MOVLW  3F
0BF6A:  MOVWF  xF8
0BF6C:  MOVLW  01
0BF6E:  MOVWF  xF9
0BF70:  CLRF   xFA
0BF72:  MOVLB  0
0BF74:  CALL   1DFE
....................                         strcpy(Menus.Letra,"Status:Calentando"); 
0BF78:  MOVLW  07
0BF7A:  MOVWF  FEA
0BF7C:  MOVLW  BD
0BF7E:  MOVWF  FE9
0BF80:  MOVFF  FF2,7DD
0BF84:  BCF    FF2.7
0BF86:  MOVLW  00
0BF88:  CALL   0ECA
0BF8C:  TBLRD*-
0BF8E:  TBLRD*+
0BF90:  MOVF   FF5,W
0BF92:  MOVWF  FEE
0BF94:  IORLW  00
0BF96:  BNZ   BF8E
0BF98:  MOVLB  7
0BF9A:  BTFSC  xDD.7
0BF9C:  BSF    FF2.7
....................                         displayMenu(Menus.Letra,0,55,2,1); 
0BF9E:  MOVLW  07
0BFA0:  MOVWF  xE1
0BFA2:  MOVLW  BD
0BFA4:  MOVWF  xE0
0BFA6:  CLRF   xE2
0BFA8:  MOVLW  37
0BFAA:  MOVWF  xE3
0BFAC:  MOVLW  02
0BFAE:  MOVWF  xE4
0BFB0:  MOVLW  01
0BFB2:  MOVWF  xE5
0BFB4:  MOVLB  0
0BFB6:  CALL   1EC0
0BFBA:  MOVLB  5
....................                      } 
....................                      tiempo_esterilizacion=0; 
0BFBC:  CLRF   xA2
0BFBE:  MOVLB  0
....................                   } 
....................                   Controla(); 
0BFC0:  CALL   6398
0BFC4:  MOVLB  5
....................                } 
....................             } 
....................          } 
....................           
....................          if(Alarma==5){ 
0BFC6:  MOVF   xA4,W
0BFC8:  SUBLW  05
0BFCA:  BTFSS  FD8.2
0BFCC:  BRA    C0EE
....................             Control=0;             
0BFCE:  CLRF   x99
....................             flag_tiempocalentamiento=0; 
0BFD0:  BCF    x95.4
....................             tiempo_esterilizacion=0; 
0BFD2:  CLRF   xA2
....................             Resistencia_off; 
0BFD4:  BCF    F8B.0
0BFD6:  BCF    F94.0
....................             if(flag_clear2==0) 
0BFD8:  BTFSC  x95.3
0BFDA:  BRA    C076
....................             { 
....................                //Ganancia=read_eeprom(90); 
....................                //Ganancia=Setpoint*(Ganancia/Coeficiente); 
....................                //glcd_fillScreen(OFF); 
....................                Ganancia=GananciaIn*(Setpoint/Coeficiente); 
0BFDC:  MOVFF  63A,7E4
0BFE0:  MOVFF  639,7E3
0BFE4:  MOVFF  638,7E2
0BFE8:  MOVFF  637,7E1
0BFEC:  MOVFF  61E,7E8
0BFF0:  MOVFF  61D,7E7
0BFF4:  MOVFF  61C,7E6
0BFF8:  MOVFF  61B,7E5
0BFFC:  MOVLB  0
0BFFE:  CALL   3228
0C002:  MOVFF  612,7FD
0C006:  MOVFF  611,7FC
0C00A:  MOVFF  610,7FB
0C00E:  MOVFF  60F,7FA
0C012:  MOVFF  03,801
0C016:  MOVFF  02,800
0C01A:  MOVFF  01,7FF
0C01E:  MOVFF  00,7FE
0C022:  CALL   3386
0C026:  MOVFF  03,616
0C02A:  MOVFF  02,615
0C02E:  MOVFF  01,614
0C032:  MOVFF  00,613
....................                glcd_fillScreen(OFF); 
0C036:  MOVLB  7
0C038:  CLRF   xDE
0C03A:  MOVLB  0
0C03C:  CALL   1880
....................                glcd_init(ON); 
0C040:  MOVLW  01
0C042:  MOVLB  7
0C044:  MOVWF  xDD
0C046:  MOVLB  0
0C048:  CALL   1992
....................                glcd_rect(0, 55, 127, 63, YES, OFF); 
0C04C:  MOVLB  7
0C04E:  CLRF   xF5
0C050:  MOVLW  37
0C052:  MOVWF  xF6
0C054:  MOVLW  7F
0C056:  MOVWF  xF7
0C058:  MOVLW  3F
0C05A:  MOVWF  xF8
0C05C:  MOVLW  01
0C05E:  MOVWF  xF9
0C060:  CLRF   xFA
0C062:  MOVLB  0
0C064:  CALL   1DFE
....................                Tpulso=0.0; 
0C068:  MOVLB  5
0C06A:  CLRF   xFE
0C06C:  CLRF   xFD
0C06E:  CLRF   xFC
0C070:  CLRF   xFB
....................                flag_clear2=1; 
0C072:  BSF    x95.3
....................                flag_ganancia=0; 
0C074:  CLRF   x8E
....................             } 
....................             strcpy(Menus.Letra,"Status:Sobre Temp"); 
0C076:  MOVLW  07
0C078:  MOVWF  FEA
0C07A:  MOVLW  BD
0C07C:  MOVWF  FE9
0C07E:  MOVFF  FF2,7DD
0C082:  BCF    FF2.7
0C084:  MOVLW  00
0C086:  MOVLB  0
0C088:  CALL   0EFA
0C08C:  TBLRD*-
0C08E:  TBLRD*+
0C090:  MOVF   FF5,W
0C092:  MOVWF  FEE
0C094:  IORLW  00
0C096:  BNZ   C08E
0C098:  MOVLB  7
0C09A:  BTFSC  xDD.7
0C09C:  BSF    FF2.7
....................             displayMenu(Menus.Letra,0,55,2,1); 
0C09E:  MOVLW  07
0C0A0:  MOVWF  xE1
0C0A2:  MOVLW  BD
0C0A4:  MOVWF  xE0
0C0A6:  CLRF   xE2
0C0A8:  MOVLW  37
0C0AA:  MOVWF  xE3
0C0AC:  MOVLW  02
0C0AE:  MOVWF  xE4
0C0B0:  MOVLW  01
0C0B2:  MOVWF  xE5
0C0B4:  MOVLB  0
0C0B6:  CALL   1EC0
....................             Buzz_on; 
0C0BA:  BSF    F8B.4
0C0BC:  BCF    F94.4
....................             delay_ms(1000); 
0C0BE:  MOVLW  04
0C0C0:  MOVLB  7
0C0C2:  MOVWF  xDD
0C0C4:  MOVLW  FA
0C0C6:  MOVWF  xE3
0C0C8:  MOVLB  0
0C0CA:  CALL   1800
0C0CE:  MOVLB  7
0C0D0:  DECFSZ xDD,F
0C0D2:  BRA    C0C4
....................             Buzz_off; 
0C0D4:  BCF    F8B.4
0C0D6:  BCF    F94.4
....................             delay_ms(1000); 
0C0D8:  MOVLW  04
0C0DA:  MOVWF  xDD
0C0DC:  MOVLW  FA
0C0DE:  MOVWF  xE3
0C0E0:  MOVLB  0
0C0E2:  CALL   1800
0C0E6:  MOVLB  7
0C0E8:  DECFSZ xDD,F
0C0EA:  BRA    C0DC
0C0EC:  MOVLB  5
....................          } 
....................           
....................          if(Pausa==1 && !DOOR) 
0C0EE:  DECFSZ x9E,W
0C0F0:  BRA    C150
0C0F2:  BSF    F92.4
0C0F4:  BTFSC  F80.4
0C0F6:  BRA    C150
....................          { 
....................             flag_tiempocalentamiento=0; 
0C0F8:  BCF    x95.4
....................             strcpy(Menus.Letra,"Status:Pausado"); 
0C0FA:  MOVLW  07
0C0FC:  MOVWF  FEA
0C0FE:  MOVLW  BD
0C100:  MOVWF  FE9
0C102:  MOVFF  FF2,7DD
0C106:  BCF    FF2.7
0C108:  MOVLW  00
0C10A:  MOVLB  0
0C10C:  CALL   0F2A
0C110:  TBLRD*-
0C112:  TBLRD*+
0C114:  MOVF   FF5,W
0C116:  MOVWF  FEE
0C118:  IORLW  00
0C11A:  BNZ   C112
0C11C:  MOVLB  7
0C11E:  BTFSC  xDD.7
0C120:  BSF    FF2.7
....................             displayMenu(Menus.Letra,0,55,2,1); 
0C122:  MOVLW  07
0C124:  MOVWF  xE1
0C126:  MOVLW  BD
0C128:  MOVWF  xE0
0C12A:  CLRF   xE2
0C12C:  MOVLW  37
0C12E:  MOVWF  xE3
0C130:  MOVLW  02
0C132:  MOVWF  xE4
0C134:  MOVLW  01
0C136:  MOVWF  xE5
0C138:  MOVLB  0
0C13A:  CALL   1EC0
....................             tiempo_esterilizacion=0; 
0C13E:  MOVLB  5
0C140:  CLRF   xA2
....................             Control=0; 
0C142:  CLRF   x99
....................             Resistencia_off; 
0C144:  BCF    F8B.0
0C146:  BCF    F94.0
....................             Tpulso=0.0; 
0C148:  CLRF   xFE
0C14A:  CLRF   xFD
0C14C:  CLRF   xFC
0C14E:  CLRF   xFB
....................          } 
....................           
....................          if(DOOR) 
0C150:  BSF    F92.4
0C152:  BTFSS  F80.4
0C154:  BRA    C278
....................          { 
....................             Control=0;             
0C156:  CLRF   x99
....................             flag_tiempocalentamiento=0; 
0C158:  BCF    x95.4
....................             tiempo_esterilizacion=0; 
0C15A:  CLRF   xA2
....................             Resistencia_off; 
0C15C:  BCF    F8B.0
0C15E:  BCF    F94.0
....................             if(flag_clear2==0) 
0C160:  BTFSC  x95.3
0C162:  BRA    C1FE
....................             { 
....................                //Ganancia=read_eeprom(90); 
....................                //Ganancia=Setpoint*(Ganancia/Coeficiente); 
....................                //glcd_fillScreen(OFF); 
....................                Ganancia=GananciaIn*(Setpoint/Coeficiente); 
0C164:  MOVFF  63A,7E4
0C168:  MOVFF  639,7E3
0C16C:  MOVFF  638,7E2
0C170:  MOVFF  637,7E1
0C174:  MOVFF  61E,7E8
0C178:  MOVFF  61D,7E7
0C17C:  MOVFF  61C,7E6
0C180:  MOVFF  61B,7E5
0C184:  MOVLB  0
0C186:  CALL   3228
0C18A:  MOVFF  612,7FD
0C18E:  MOVFF  611,7FC
0C192:  MOVFF  610,7FB
0C196:  MOVFF  60F,7FA
0C19A:  MOVFF  03,801
0C19E:  MOVFF  02,800
0C1A2:  MOVFF  01,7FF
0C1A6:  MOVFF  00,7FE
0C1AA:  CALL   3386
0C1AE:  MOVFF  03,616
0C1B2:  MOVFF  02,615
0C1B6:  MOVFF  01,614
0C1BA:  MOVFF  00,613
....................                glcd_fillScreen(OFF); 
0C1BE:  MOVLB  7
0C1C0:  CLRF   xDE
0C1C2:  MOVLB  0
0C1C4:  CALL   1880
....................                glcd_init(ON); 
0C1C8:  MOVLW  01
0C1CA:  MOVLB  7
0C1CC:  MOVWF  xDD
0C1CE:  MOVLB  0
0C1D0:  CALL   1992
....................                glcd_rect(0, 55, 127, 63, YES, OFF); 
0C1D4:  MOVLB  7
0C1D6:  CLRF   xF5
0C1D8:  MOVLW  37
0C1DA:  MOVWF  xF6
0C1DC:  MOVLW  7F
0C1DE:  MOVWF  xF7
0C1E0:  MOVLW  3F
0C1E2:  MOVWF  xF8
0C1E4:  MOVLW  01
0C1E6:  MOVWF  xF9
0C1E8:  CLRF   xFA
0C1EA:  MOVLB  0
0C1EC:  CALL   1DFE
....................                Tpulso=0.0; 
0C1F0:  MOVLB  5
0C1F2:  CLRF   xFE
0C1F4:  CLRF   xFD
0C1F6:  CLRF   xFC
0C1F8:  CLRF   xFB
....................                flag_clear2=1; 
0C1FA:  BSF    x95.3
....................                flag_ganancia=0; 
0C1FC:  CLRF   x8E
....................             } 
....................             strcpy(Menus.Letra,"Status:Puerta Abierta"); 
0C1FE:  MOVLW  07
0C200:  MOVWF  FEA
0C202:  MOVLW  BD
0C204:  MOVWF  FE9
0C206:  MOVFF  FF2,7DD
0C20A:  BCF    FF2.7
0C20C:  MOVLW  00
0C20E:  MOVLB  0
0C210:  CALL   0F58
0C214:  TBLRD*-
0C216:  TBLRD*+
0C218:  MOVF   FF5,W
0C21A:  MOVWF  FEE
0C21C:  IORLW  00
0C21E:  BNZ   C216
0C220:  MOVLB  7
0C222:  BTFSC  xDD.7
0C224:  BSF    FF2.7
....................             displayMenu(Menus.Letra,0,55,2,1); 
0C226:  MOVLW  07
0C228:  MOVWF  xE1
0C22A:  MOVLW  BD
0C22C:  MOVWF  xE0
0C22E:  CLRF   xE2
0C230:  MOVLW  37
0C232:  MOVWF  xE3
0C234:  MOVLW  02
0C236:  MOVWF  xE4
0C238:  MOVLW  01
0C23A:  MOVWF  xE5
0C23C:  MOVLB  0
0C23E:  CALL   1EC0
....................             Buzz_on; 
0C242:  BSF    F8B.4
0C244:  BCF    F94.4
....................             delay_ms(1000); 
0C246:  MOVLW  04
0C248:  MOVLB  7
0C24A:  MOVWF  xDD
0C24C:  MOVLW  FA
0C24E:  MOVWF  xE3
0C250:  MOVLB  0
0C252:  CALL   1800
0C256:  MOVLB  7
0C258:  DECFSZ xDD,F
0C25A:  BRA    C24C
....................             Buzz_off; 
0C25C:  BCF    F8B.4
0C25E:  BCF    F94.4
....................             delay_ms(1000); 
0C260:  MOVLW  04
0C262:  MOVWF  xDD
0C264:  MOVLW  FA
0C266:  MOVWF  xE3
0C268:  MOVLB  0
0C26A:  CALL   1800
0C26E:  MOVLB  7
0C270:  DECFSZ xDD,F
0C272:  BRA    C264
....................          } 
....................          else 
0C274:  BRA    C2AC
0C276:  MOVLB  5
....................          { 
....................             Buzz_off; 
0C278:  BCF    F8B.4
0C27A:  BCF    F94.4
....................             if(flag_clear2==1){                
0C27C:  BTFSS  x95.3
0C27E:  BRA    C2AA
....................                glcd_fillScreen(OFF); 
0C280:  MOVLB  7
0C282:  CLRF   xDE
0C284:  MOVLB  0
0C286:  CALL   1880
....................                glcd_rect(0, 55, 127, 63, YES, OFF); 
0C28A:  MOVLB  7
0C28C:  CLRF   xF5
0C28E:  MOVLW  37
0C290:  MOVWF  xF6
0C292:  MOVLW  7F
0C294:  MOVWF  xF7
0C296:  MOVLW  3F
0C298:  MOVWF  xF8
0C29A:  MOVLW  01
0C29C:  MOVWF  xF9
0C29E:  CLRF   xFA
0C2A0:  MOVLB  0
0C2A2:  CALL   1DFE
....................                flag_clear2=0; 
0C2A6:  MOVLB  5
0C2A8:  BCF    x95.3
0C2AA:  MOVLB  7
....................             } 
....................          } 
....................       } 
....................        
....................       if(UP)//Si oprime hacia arriba 
0C2AC:  BSF    F92.5
0C2AE:  BTFSC  F80.5
0C2B0:  GOTO   CF74
....................       { 
....................          glcd_fillscreen(OFF); 
0C2B4:  CLRF   xDE
0C2B6:  MOVLB  0
0C2B8:  CALL   1880
....................                glcd_line(27,0,27,55,ON); 
0C2BC:  MOVLW  1B
0C2BE:  MOVLB  8
0C2C0:  MOVWF  x01
0C2C2:  CLRF   x02
0C2C4:  MOVWF  x03
0C2C6:  MOVLW  37
0C2C8:  MOVWF  x04
0C2CA:  MOVLW  01
0C2CC:  MOVWF  x05
0C2CE:  MOVLB  0
0C2D0:  CALL   1CC0
....................                glcd_line(27,55,127,55,ON); 
0C2D4:  MOVLW  1B
0C2D6:  MOVLB  8
0C2D8:  MOVWF  x01
0C2DA:  MOVLW  37
0C2DC:  MOVWF  x02
0C2DE:  MOVLW  7F
0C2E0:  MOVWF  x03
0C2E2:  MOVLW  37
0C2E4:  MOVWF  x04
0C2E6:  MOVLW  01
0C2E8:  MOVWF  x05
0C2EA:  MOVLB  0
0C2EC:  CALL   1CC0
....................                 
....................                strcpy(Menus.Letra,"Grafica Rampas");displayMenu(Menus.Letra,0,0,1,1);  
0C2F0:  MOVLW  07
0C2F2:  MOVWF  FEA
0C2F4:  MOVLW  BD
0C2F6:  MOVWF  FE9
0C2F8:  MOVFF  FF2,7DD
0C2FC:  BCF    FF2.7
0C2FE:  MOVLW  00
0C300:  CALL   0F8C
0C304:  TBLRD*-
0C306:  TBLRD*+
0C308:  MOVF   FF5,W
0C30A:  MOVWF  FEE
0C30C:  IORLW  00
0C30E:  BNZ   C306
0C310:  MOVLB  7
0C312:  BTFSC  xDD.7
0C314:  BSF    FF2.7
0C316:  MOVLW  07
0C318:  MOVWF  xE1
0C31A:  MOVLW  BD
0C31C:  MOVWF  xE0
0C31E:  CLRF   xE2
0C320:  CLRF   xE3
0C322:  MOVLW  01
0C324:  MOVWF  xE4
0C326:  MOVWF  xE5
0C328:  MOVLB  0
0C32A:  CALL   1EC0
....................                 
....................                glcd_line(24,55-10,27,55-10,ON); 
0C32E:  MOVLW  18
0C330:  MOVLB  8
0C332:  MOVWF  x01
0C334:  MOVLW  2D
0C336:  MOVWF  x02
0C338:  MOVLW  1B
0C33A:  MOVWF  x03
0C33C:  MOVLW  2D
0C33E:  MOVWF  x04
0C340:  MOVLW  01
0C342:  MOVWF  x05
0C344:  MOVLB  0
0C346:  CALL   1CC0
....................                strcpy(Menus.Letra,"300");displayMenu(Menus.Letra,0,55-15,2,1);  
0C34A:  MOVLW  07
0C34C:  MOVWF  FEA
0C34E:  MOVLW  BD
0C350:  MOVWF  FE9
0C352:  MOVFF  FF2,7DD
0C356:  BCF    FF2.7
0C358:  MOVLW  00
0C35A:  CALL   0FBA
0C35E:  TBLRD*-
0C360:  TBLRD*+
0C362:  MOVF   FF5,W
0C364:  MOVWF  FEE
0C366:  IORLW  00
0C368:  BNZ   C360
0C36A:  MOVLB  7
0C36C:  BTFSC  xDD.7
0C36E:  BSF    FF2.7
0C370:  MOVLW  07
0C372:  MOVWF  xE1
0C374:  MOVLW  BD
0C376:  MOVWF  xE0
0C378:  CLRF   xE2
0C37A:  MOVLW  28
0C37C:  MOVWF  xE3
0C37E:  MOVLW  02
0C380:  MOVWF  xE4
0C382:  MOVLW  01
0C384:  MOVWF  xE5
0C386:  MOVLB  0
0C388:  CALL   1EC0
....................                glcd_line(24,55-20,27,55-20,ON); 
0C38C:  MOVLW  18
0C38E:  MOVLB  8
0C390:  MOVWF  x01
0C392:  MOVLW  23
0C394:  MOVWF  x02
0C396:  MOVLW  1B
0C398:  MOVWF  x03
0C39A:  MOVLW  23
0C39C:  MOVWF  x04
0C39E:  MOVLW  01
0C3A0:  MOVWF  x05
0C3A2:  MOVLB  0
0C3A4:  CALL   1CC0
....................                strcpy(Menus.Letra,"600");displayMenu(Menus.Letra,0,55-25,2,1);  
0C3A8:  MOVLW  07
0C3AA:  MOVWF  FEA
0C3AC:  MOVLW  BD
0C3AE:  MOVWF  FE9
0C3B0:  MOVFF  FF2,7DD
0C3B4:  BCF    FF2.7
0C3B6:  MOVLW  00
0C3B8:  CALL   0FDC
0C3BC:  TBLRD*-
0C3BE:  TBLRD*+
0C3C0:  MOVF   FF5,W
0C3C2:  MOVWF  FEE
0C3C4:  IORLW  00
0C3C6:  BNZ   C3BE
0C3C8:  MOVLB  7
0C3CA:  BTFSC  xDD.7
0C3CC:  BSF    FF2.7
0C3CE:  MOVLW  07
0C3D0:  MOVWF  xE1
0C3D2:  MOVLW  BD
0C3D4:  MOVWF  xE0
0C3D6:  CLRF   xE2
0C3D8:  MOVLW  1E
0C3DA:  MOVWF  xE3
0C3DC:  MOVLW  02
0C3DE:  MOVWF  xE4
0C3E0:  MOVLW  01
0C3E2:  MOVWF  xE5
0C3E4:  MOVLB  0
0C3E6:  CALL   1EC0
....................                glcd_line(24,55-30,27,55-30,ON); 
0C3EA:  MOVLW  18
0C3EC:  MOVLB  8
0C3EE:  MOVWF  x01
0C3F0:  MOVLW  19
0C3F2:  MOVWF  x02
0C3F4:  MOVLW  1B
0C3F6:  MOVWF  x03
0C3F8:  MOVLW  19
0C3FA:  MOVWF  x04
0C3FC:  MOVLW  01
0C3FE:  MOVWF  x05
0C400:  MOVLB  0
0C402:  CALL   1CC0
....................                strcpy(Menus.Letra,"900");displayMenu(Menus.Letra,0,55-35,2,1); 
0C406:  MOVLW  07
0C408:  MOVWF  FEA
0C40A:  MOVLW  BD
0C40C:  MOVWF  FE9
0C40E:  MOVFF  FF2,7DD
0C412:  BCF    FF2.7
0C414:  MOVLW  00
0C416:  CALL   0FFE
0C41A:  TBLRD*-
0C41C:  TBLRD*+
0C41E:  MOVF   FF5,W
0C420:  MOVWF  FEE
0C422:  IORLW  00
0C424:  BNZ   C41C
0C426:  MOVLB  7
0C428:  BTFSC  xDD.7
0C42A:  BSF    FF2.7
0C42C:  MOVLW  07
0C42E:  MOVWF  xE1
0C430:  MOVLW  BD
0C432:  MOVWF  xE0
0C434:  CLRF   xE2
0C436:  MOVLW  14
0C438:  MOVWF  xE3
0C43A:  MOVLW  02
0C43C:  MOVWF  xE4
0C43E:  MOVLW  01
0C440:  MOVWF  xE5
0C442:  MOVLB  0
0C444:  CALL   1EC0
....................                glcd_line(24,55-40,27,55-40,ON); 
0C448:  MOVLW  18
0C44A:  MOVLB  8
0C44C:  MOVWF  x01
0C44E:  MOVLW  0F
0C450:  MOVWF  x02
0C452:  MOVLW  1B
0C454:  MOVWF  x03
0C456:  MOVLW  0F
0C458:  MOVWF  x04
0C45A:  MOVLW  01
0C45C:  MOVWF  x05
0C45E:  MOVLB  0
0C460:  CALL   1CC0
....................                strcpy(Menus.Letra,"1200");displayMenu(Menus.Letra,0,55-45,2,1);  
0C464:  MOVLW  07
0C466:  MOVWF  FEA
0C468:  MOVLW  BD
0C46A:  MOVWF  FE9
0C46C:  MOVFF  FF2,7DD
0C470:  BCF    FF2.7
0C472:  MOVLW  00
0C474:  CALL   1020
0C478:  TBLRD*-
0C47A:  TBLRD*+
0C47C:  MOVF   FF5,W
0C47E:  MOVWF  FEE
0C480:  IORLW  00
0C482:  BNZ   C47A
0C484:  MOVLB  7
0C486:  BTFSC  xDD.7
0C488:  BSF    FF2.7
0C48A:  MOVLW  07
0C48C:  MOVWF  xE1
0C48E:  MOVLW  BD
0C490:  MOVWF  xE0
0C492:  CLRF   xE2
0C494:  MOVLW  0A
0C496:  MOVWF  xE3
0C498:  MOVLW  02
0C49A:  MOVWF  xE4
0C49C:  MOVLW  01
0C49E:  MOVWF  xE5
0C4A0:  MOVLB  0
0C4A2:  CALL   1EC0
....................                 
....................                if(Segmento==0){ 
0C4A6:  MOVLB  5
0C4A8:  MOVF   x93,F
0C4AA:  BNZ   C4F2
....................                   strcpy(Menus.Letra,"s0");displayMenu(Menus.Letra,16,56,1,1);} 
0C4AC:  MOVLW  07
0C4AE:  MOVWF  FEA
0C4B0:  MOVLW  BD
0C4B2:  MOVWF  FE9
0C4B4:  MOVFF  FF2,7DD
0C4B8:  BCF    FF2.7
0C4BA:  MOVLW  00
0C4BC:  MOVLB  0
0C4BE:  CALL   1044
0C4C2:  TBLRD*-
0C4C4:  TBLRD*+
0C4C6:  MOVF   FF5,W
0C4C8:  MOVWF  FEE
0C4CA:  IORLW  00
0C4CC:  BNZ   C4C4
0C4CE:  MOVLB  7
0C4D0:  BTFSC  xDD.7
0C4D2:  BSF    FF2.7
0C4D4:  MOVLW  07
0C4D6:  MOVWF  xE1
0C4D8:  MOVLW  BD
0C4DA:  MOVWF  xE0
0C4DC:  MOVLW  10
0C4DE:  MOVWF  xE2
0C4E0:  MOVLW  38
0C4E2:  MOVWF  xE3
0C4E4:  MOVLW  01
0C4E6:  MOVWF  xE4
0C4E8:  MOVWF  xE5
0C4EA:  MOVLB  0
0C4EC:  CALL   1EC0
0C4F0:  MOVLB  5
....................                    
....................                if(Segmento==1){ 
0C4F2:  DECFSZ x93,W
0C4F4:  BRA    C53C
....................                   strcpy(Menus.Letra,"s1");displayMenu(Menus.Letra,27,56,1,1);} 
0C4F6:  MOVLW  07
0C4F8:  MOVWF  FEA
0C4FA:  MOVLW  BD
0C4FC:  MOVWF  FE9
0C4FE:  MOVFF  FF2,7DD
0C502:  BCF    FF2.7
0C504:  MOVLW  00
0C506:  MOVLB  0
0C508:  CALL   1066
0C50C:  TBLRD*-
0C50E:  TBLRD*+
0C510:  MOVF   FF5,W
0C512:  MOVWF  FEE
0C514:  IORLW  00
0C516:  BNZ   C50E
0C518:  MOVLB  7
0C51A:  BTFSC  xDD.7
0C51C:  BSF    FF2.7
0C51E:  MOVLW  07
0C520:  MOVWF  xE1
0C522:  MOVLW  BD
0C524:  MOVWF  xE0
0C526:  MOVLW  1B
0C528:  MOVWF  xE2
0C52A:  MOVLW  38
0C52C:  MOVWF  xE3
0C52E:  MOVLW  01
0C530:  MOVWF  xE4
0C532:  MOVWF  xE5
0C534:  MOVLB  0
0C536:  CALL   1EC0
0C53A:  MOVLB  5
....................                    
....................                if(Segmento==2){ 
0C53C:  MOVF   x93,W
0C53E:  SUBLW  02
0C540:  BNZ   C588
....................                   strcpy(Menus.Letra,"s2");displayMenu(Menus.Letra,38,56,1,1);} 
0C542:  MOVLW  07
0C544:  MOVWF  FEA
0C546:  MOVLW  BD
0C548:  MOVWF  FE9
0C54A:  MOVFF  FF2,7DD
0C54E:  BCF    FF2.7
0C550:  MOVLW  00
0C552:  MOVLB  0
0C554:  CALL   1088
0C558:  TBLRD*-
0C55A:  TBLRD*+
0C55C:  MOVF   FF5,W
0C55E:  MOVWF  FEE
0C560:  IORLW  00
0C562:  BNZ   C55A
0C564:  MOVLB  7
0C566:  BTFSC  xDD.7
0C568:  BSF    FF2.7
0C56A:  MOVLW  07
0C56C:  MOVWF  xE1
0C56E:  MOVLW  BD
0C570:  MOVWF  xE0
0C572:  MOVLW  26
0C574:  MOVWF  xE2
0C576:  MOVLW  38
0C578:  MOVWF  xE3
0C57A:  MOVLW  01
0C57C:  MOVWF  xE4
0C57E:  MOVWF  xE5
0C580:  MOVLB  0
0C582:  CALL   1EC0
0C586:  MOVLB  5
....................                    
....................                if(Segmento==3){ 
0C588:  MOVF   x93,W
0C58A:  SUBLW  03
0C58C:  BNZ   C5D4
....................                   strcpy(Menus.Letra,"s3");displayMenu(Menus.Letra,49,56,1,1);} 
0C58E:  MOVLW  07
0C590:  MOVWF  FEA
0C592:  MOVLW  BD
0C594:  MOVWF  FE9
0C596:  MOVFF  FF2,7DD
0C59A:  BCF    FF2.7
0C59C:  MOVLW  00
0C59E:  MOVLB  0
0C5A0:  CALL   10AA
0C5A4:  TBLRD*-
0C5A6:  TBLRD*+
0C5A8:  MOVF   FF5,W
0C5AA:  MOVWF  FEE
0C5AC:  IORLW  00
0C5AE:  BNZ   C5A6
0C5B0:  MOVLB  7
0C5B2:  BTFSC  xDD.7
0C5B4:  BSF    FF2.7
0C5B6:  MOVLW  07
0C5B8:  MOVWF  xE1
0C5BA:  MOVLW  BD
0C5BC:  MOVWF  xE0
0C5BE:  MOVLW  31
0C5C0:  MOVWF  xE2
0C5C2:  MOVLW  38
0C5C4:  MOVWF  xE3
0C5C6:  MOVLW  01
0C5C8:  MOVWF  xE4
0C5CA:  MOVWF  xE5
0C5CC:  MOVLB  0
0C5CE:  CALL   1EC0
0C5D2:  MOVLB  5
....................                    
....................                if(Segmento==4){ 
0C5D4:  MOVF   x93,W
0C5D6:  SUBLW  04
0C5D8:  BNZ   C620
....................                   strcpy(Menus.Letra,"s4");displayMenu(Menus.Letra,60,56,1,1);} 
0C5DA:  MOVLW  07
0C5DC:  MOVWF  FEA
0C5DE:  MOVLW  BD
0C5E0:  MOVWF  FE9
0C5E2:  MOVFF  FF2,7DD
0C5E6:  BCF    FF2.7
0C5E8:  MOVLW  00
0C5EA:  MOVLB  0
0C5EC:  CALL   10CC
0C5F0:  TBLRD*-
0C5F2:  TBLRD*+
0C5F4:  MOVF   FF5,W
0C5F6:  MOVWF  FEE
0C5F8:  IORLW  00
0C5FA:  BNZ   C5F2
0C5FC:  MOVLB  7
0C5FE:  BTFSC  xDD.7
0C600:  BSF    FF2.7
0C602:  MOVLW  07
0C604:  MOVWF  xE1
0C606:  MOVLW  BD
0C608:  MOVWF  xE0
0C60A:  MOVLW  3C
0C60C:  MOVWF  xE2
0C60E:  MOVLW  38
0C610:  MOVWF  xE3
0C612:  MOVLW  01
0C614:  MOVWF  xE4
0C616:  MOVWF  xE5
0C618:  MOVLB  0
0C61A:  CALL   1EC0
0C61E:  MOVLB  5
....................                    
....................                if(Segmento==5){ 
0C620:  MOVF   x93,W
0C622:  SUBLW  05
0C624:  BNZ   C66C
....................                   strcpy(Menus.Letra,"s5");displayMenu(Menus.Letra,71,56,1,1);} 
0C626:  MOVLW  07
0C628:  MOVWF  FEA
0C62A:  MOVLW  BD
0C62C:  MOVWF  FE9
0C62E:  MOVFF  FF2,7DD
0C632:  BCF    FF2.7
0C634:  MOVLW  00
0C636:  MOVLB  0
0C638:  CALL   10EE
0C63C:  TBLRD*-
0C63E:  TBLRD*+
0C640:  MOVF   FF5,W
0C642:  MOVWF  FEE
0C644:  IORLW  00
0C646:  BNZ   C63E
0C648:  MOVLB  7
0C64A:  BTFSC  xDD.7
0C64C:  BSF    FF2.7
0C64E:  MOVLW  07
0C650:  MOVWF  xE1
0C652:  MOVLW  BD
0C654:  MOVWF  xE0
0C656:  MOVLW  47
0C658:  MOVWF  xE2
0C65A:  MOVLW  38
0C65C:  MOVWF  xE3
0C65E:  MOVLW  01
0C660:  MOVWF  xE4
0C662:  MOVWF  xE5
0C664:  MOVLB  0
0C666:  CALL   1EC0
0C66A:  MOVLB  5
....................                    
....................                if(Segmento==6){ 
0C66C:  MOVF   x93,W
0C66E:  SUBLW  06
0C670:  BNZ   C6B8
....................                   strcpy(Menus.Letra,"s6");displayMenu(Menus.Letra,82,56,1,1);} 
0C672:  MOVLW  07
0C674:  MOVWF  FEA
0C676:  MOVLW  BD
0C678:  MOVWF  FE9
0C67A:  MOVFF  FF2,7DD
0C67E:  BCF    FF2.7
0C680:  MOVLW  00
0C682:  MOVLB  0
0C684:  CALL   1110
0C688:  TBLRD*-
0C68A:  TBLRD*+
0C68C:  MOVF   FF5,W
0C68E:  MOVWF  FEE
0C690:  IORLW  00
0C692:  BNZ   C68A
0C694:  MOVLB  7
0C696:  BTFSC  xDD.7
0C698:  BSF    FF2.7
0C69A:  MOVLW  07
0C69C:  MOVWF  xE1
0C69E:  MOVLW  BD
0C6A0:  MOVWF  xE0
0C6A2:  MOVLW  52
0C6A4:  MOVWF  xE2
0C6A6:  MOVLW  38
0C6A8:  MOVWF  xE3
0C6AA:  MOVLW  01
0C6AC:  MOVWF  xE4
0C6AE:  MOVWF  xE5
0C6B0:  MOVLB  0
0C6B2:  CALL   1EC0
0C6B6:  MOVLB  5
....................                    
....................                if(Segmento==7){ 
0C6B8:  MOVF   x93,W
0C6BA:  SUBLW  07
0C6BC:  BNZ   C704
....................                   strcpy(Menus.Letra,"s7");displayMenu(Menus.Letra,93,56,1,1);} 
0C6BE:  MOVLW  07
0C6C0:  MOVWF  FEA
0C6C2:  MOVLW  BD
0C6C4:  MOVWF  FE9
0C6C6:  MOVFF  FF2,7DD
0C6CA:  BCF    FF2.7
0C6CC:  MOVLW  00
0C6CE:  MOVLB  0
0C6D0:  CALL   1132
0C6D4:  TBLRD*-
0C6D6:  TBLRD*+
0C6D8:  MOVF   FF5,W
0C6DA:  MOVWF  FEE
0C6DC:  IORLW  00
0C6DE:  BNZ   C6D6
0C6E0:  MOVLB  7
0C6E2:  BTFSC  xDD.7
0C6E4:  BSF    FF2.7
0C6E6:  MOVLW  07
0C6E8:  MOVWF  xE1
0C6EA:  MOVLW  BD
0C6EC:  MOVWF  xE0
0C6EE:  MOVLW  5D
0C6F0:  MOVWF  xE2
0C6F2:  MOVLW  38
0C6F4:  MOVWF  xE3
0C6F6:  MOVLW  01
0C6F8:  MOVWF  xE4
0C6FA:  MOVWF  xE5
0C6FC:  MOVLB  0
0C6FE:  CALL   1EC0
0C702:  MOVLB  5
....................                    
....................                if(Segmento==8){ 
0C704:  MOVF   x93,W
0C706:  SUBLW  08
0C708:  BNZ   C750
....................                   strcpy(Menus.Letra,"s8");displayMenu(Menus.Letra,104,56,1,1);} 
0C70A:  MOVLW  07
0C70C:  MOVWF  FEA
0C70E:  MOVLW  BD
0C710:  MOVWF  FE9
0C712:  MOVFF  FF2,7DD
0C716:  BCF    FF2.7
0C718:  MOVLW  00
0C71A:  MOVLB  0
0C71C:  CALL   1154
0C720:  TBLRD*-
0C722:  TBLRD*+
0C724:  MOVF   FF5,W
0C726:  MOVWF  FEE
0C728:  IORLW  00
0C72A:  BNZ   C722
0C72C:  MOVLB  7
0C72E:  BTFSC  xDD.7
0C730:  BSF    FF2.7
0C732:  MOVLW  07
0C734:  MOVWF  xE1
0C736:  MOVLW  BD
0C738:  MOVWF  xE0
0C73A:  MOVLW  68
0C73C:  MOVWF  xE2
0C73E:  MOVLW  38
0C740:  MOVWF  xE3
0C742:  MOVLW  01
0C744:  MOVWF  xE4
0C746:  MOVWF  xE5
0C748:  MOVLB  0
0C74A:  CALL   1EC0
0C74E:  MOVLB  5
....................                 
....................                if(Segmento==9){ 
0C750:  MOVF   x93,W
0C752:  SUBLW  09
0C754:  BNZ   C79A
....................                   strcpy(Menus.Letra,"s9");displayMenu(Menus.Letra,115,56,1,1);} 
0C756:  MOVLW  07
0C758:  MOVWF  FEA
0C75A:  MOVLW  BD
0C75C:  MOVWF  FE9
0C75E:  MOVFF  FF2,7DD
0C762:  BCF    FF2.7
0C764:  MOVLW  00
0C766:  MOVLB  0
0C768:  CALL   1176
0C76C:  TBLRD*-
0C76E:  TBLRD*+
0C770:  MOVF   FF5,W
0C772:  MOVWF  FEE
0C774:  IORLW  00
0C776:  BNZ   C76E
0C778:  MOVLB  7
0C77A:  BTFSC  xDD.7
0C77C:  BSF    FF2.7
0C77E:  MOVLW  07
0C780:  MOVWF  xE1
0C782:  MOVLW  BD
0C784:  MOVWF  xE0
0C786:  MOVLW  73
0C788:  MOVWF  xE2
0C78A:  MOVLW  38
0C78C:  MOVWF  xE3
0C78E:  MOVLW  01
0C790:  MOVWF  xE4
0C792:  MOVWF  xE5
0C794:  MOVLB  0
0C796:  CALL   1EC0
....................                 
....................                glcd_line(27+0,55-TempeInicial/30,27+10,55-Temperatura1[ProgramaSeleccionado*10]/30,ON); 
0C79A:  MOVFF  5C2,7E4
0C79E:  MOVFF  5C1,7E3
0C7A2:  MOVFF  5C0,7E2
0C7A6:  MOVFF  5BF,7E1
0C7AA:  MOVLB  7
0C7AC:  CLRF   xE8
0C7AE:  CLRF   xE7
0C7B0:  MOVLW  70
0C7B2:  MOVWF  xE6
0C7B4:  MOVLW  83
0C7B6:  MOVWF  xE5
0C7B8:  MOVLB  0
0C7BA:  CALL   3228
0C7BE:  BSF    FD8.1
0C7C0:  MOVLB  7
0C7C2:  CLRF   xE6
0C7C4:  CLRF   xE5
0C7C6:  MOVLW  5C
0C7C8:  MOVWF  xE4
0C7CA:  MOVLW  84
0C7CC:  MOVWF  xE3
0C7CE:  MOVFF  03,7EA
0C7D2:  MOVFF  02,7E9
0C7D6:  MOVFF  01,7E8
0C7DA:  MOVFF  00,7E7
0C7DE:  MOVLB  0
0C7E0:  CALL   2FB0
0C7E4:  MOVFF  03,7E0
0C7E8:  MOVFF  02,7DF
0C7EC:  MOVFF  01,7DE
0C7F0:  MOVFF  00,7DD
0C7F4:  CALL   635C
0C7F8:  MOVFF  01,7DD
0C7FC:  MOVLB  5
0C7FE:  MOVF   xA3,W
0C800:  MULLW  0A
0C802:  MOVFF  FF3,00
0C806:  BCF    FD8.0
0C808:  RLCF   00,F
0C80A:  MOVF   00,W
0C80C:  CLRF   03
0C80E:  ADDLW  67
0C810:  MOVWF  FE9
0C812:  MOVLW  06
0C814:  ADDWFC 03,W
0C816:  MOVWF  FEA
0C818:  MOVFF  FEC,7DF
0C81C:  MOVF   FED,F
0C81E:  MOVFF  FEF,7DE
0C822:  MOVFF  7DF,7E2
0C826:  MOVFF  7DE,7E1
0C82A:  MOVLB  7
0C82C:  CLRF   xE4
0C82E:  MOVLW  1E
0C830:  MOVWF  xE3
0C832:  MOVLB  0
0C834:  CALL   3C08
0C838:  MOVFF  02,03
0C83C:  MOVF   01,W
0C83E:  XORLW  FF
0C840:  ADDLW  38
0C842:  MOVLB  7
0C844:  MOVWF  xDE
0C846:  MOVLW  00
0C848:  SUBFWB 02,W
0C84A:  MOVWF  xDF
0C84C:  MOVLW  1B
0C84E:  MOVLB  8
0C850:  MOVWF  x01
0C852:  MOVFF  7DD,802
0C856:  MOVLW  25
0C858:  MOVWF  x03
0C85A:  MOVFF  7DE,804
0C85E:  MOVLW  01
0C860:  MOVWF  x05
0C862:  MOVLB  0
0C864:  CALL   1CC0
....................                glcd_line(27+10,55-Temperatura1[ProgramaSeleccionado*10]/30,27+20,55-Temperatura1[(ProgramaSeleccionado*10)+1]/30,ON); 
0C868:  MOVLB  5
0C86A:  MOVF   xA3,W
0C86C:  MULLW  0A
0C86E:  MOVFF  FF3,00
0C872:  BCF    FD8.0
0C874:  RLCF   00,F
0C876:  MOVF   00,W
0C878:  CLRF   03
0C87A:  ADDLW  67
0C87C:  MOVWF  FE9
0C87E:  MOVLW  06
0C880:  ADDWFC 03,W
0C882:  MOVWF  FEA
0C884:  MOVFF  FEC,7DE
0C888:  MOVF   FED,F
0C88A:  MOVFF  FEF,7DD
0C88E:  MOVFF  7DE,7E2
0C892:  MOVFF  7DD,7E1
0C896:  MOVLB  7
0C898:  CLRF   xE4
0C89A:  MOVLW  1E
0C89C:  MOVWF  xE3
0C89E:  MOVLB  0
0C8A0:  CALL   3C08
0C8A4:  MOVFF  02,03
0C8A8:  MOVF   01,W
0C8AA:  XORLW  FF
0C8AC:  ADDLW  38
0C8AE:  MOVLB  7
0C8B0:  MOVWF  xDD
0C8B2:  MOVLW  00
0C8B4:  SUBFWB 02,W
0C8B6:  MOVWF  xDE
0C8B8:  MOVLB  5
0C8BA:  MOVF   xA3,W
0C8BC:  MULLW  0A
0C8BE:  MOVF   FF3,W
0C8C0:  ADDLW  01
0C8C2:  MOVWF  00
0C8C4:  BCF    FD8.0
0C8C6:  RLCF   00,F
0C8C8:  MOVF   00,W
0C8CA:  CLRF   03
0C8CC:  ADDLW  67
0C8CE:  MOVWF  FE9
0C8D0:  MOVLW  06
0C8D2:  ADDWFC 03,W
0C8D4:  MOVWF  FEA
0C8D6:  MOVFF  FEC,7E0
0C8DA:  MOVF   FED,F
0C8DC:  MOVFF  FEF,7DF
0C8E0:  MOVFF  7E0,7E2
0C8E4:  MOVFF  7DF,7E1
0C8E8:  MOVLB  7
0C8EA:  CLRF   xE4
0C8EC:  MOVLW  1E
0C8EE:  MOVWF  xE3
0C8F0:  MOVLB  0
0C8F2:  CALL   3C08
0C8F6:  MOVFF  02,03
0C8FA:  MOVF   01,W
0C8FC:  XORLW  FF
0C8FE:  ADDLW  38
0C900:  MOVLB  7
0C902:  MOVWF  xDF
0C904:  MOVLW  00
0C906:  SUBFWB 02,W
0C908:  MOVWF  xE0
0C90A:  MOVLW  25
0C90C:  MOVLB  8
0C90E:  MOVWF  x01
0C910:  MOVFF  7DD,802
0C914:  MOVLW  2F
0C916:  MOVWF  x03
0C918:  MOVFF  7DF,804
0C91C:  MOVLW  01
0C91E:  MOVWF  x05
0C920:  MOVLB  0
0C922:  CALL   1CC0
....................                glcd_line(27+20,55-Temperatura1[(ProgramaSeleccionado*10)+1]/30,27+30,55-Temperatura1[(ProgramaSeleccionado*10)+2]/30,ON); 
0C926:  MOVLB  5
0C928:  MOVF   xA3,W
0C92A:  MULLW  0A
0C92C:  MOVF   FF3,W
0C92E:  ADDLW  01
0C930:  MOVWF  00
0C932:  BCF    FD8.0
0C934:  RLCF   00,F
0C936:  MOVF   00,W
0C938:  CLRF   03
0C93A:  ADDLW  67
0C93C:  MOVWF  FE9
0C93E:  MOVLW  06
0C940:  ADDWFC 03,W
0C942:  MOVWF  FEA
0C944:  MOVFF  FEC,7DE
0C948:  MOVF   FED,F
0C94A:  MOVFF  FEF,7DD
0C94E:  MOVFF  7DE,7E2
0C952:  MOVFF  7DD,7E1
0C956:  MOVLB  7
0C958:  CLRF   xE4
0C95A:  MOVLW  1E
0C95C:  MOVWF  xE3
0C95E:  MOVLB  0
0C960:  CALL   3C08
0C964:  MOVFF  02,03
0C968:  MOVF   01,W
0C96A:  XORLW  FF
0C96C:  ADDLW  38
0C96E:  MOVLB  7
0C970:  MOVWF  xDD
0C972:  MOVLW  00
0C974:  SUBFWB 02,W
0C976:  MOVWF  xDE
0C978:  MOVLB  5
0C97A:  MOVF   xA3,W
0C97C:  MULLW  0A
0C97E:  MOVF   FF3,W
0C980:  ADDLW  02
0C982:  MOVWF  00
0C984:  BCF    FD8.0
0C986:  RLCF   00,F
0C988:  MOVF   00,W
0C98A:  CLRF   03
0C98C:  ADDLW  67
0C98E:  MOVWF  FE9
0C990:  MOVLW  06
0C992:  ADDWFC 03,W
0C994:  MOVWF  FEA
0C996:  MOVFF  FEC,7E0
0C99A:  MOVF   FED,F
0C99C:  MOVFF  FEF,7DF
0C9A0:  MOVFF  7E0,7E2
0C9A4:  MOVFF  7DF,7E1
0C9A8:  MOVLB  7
0C9AA:  CLRF   xE4
0C9AC:  MOVLW  1E
0C9AE:  MOVWF  xE3
0C9B0:  MOVLB  0
0C9B2:  CALL   3C08
0C9B6:  MOVFF  02,03
0C9BA:  MOVF   01,W
0C9BC:  XORLW  FF
0C9BE:  ADDLW  38
0C9C0:  MOVLB  7
0C9C2:  MOVWF  xDF
0C9C4:  MOVLW  00
0C9C6:  SUBFWB 02,W
0C9C8:  MOVWF  xE0
0C9CA:  MOVLW  2F
0C9CC:  MOVLB  8
0C9CE:  MOVWF  x01
0C9D0:  MOVFF  7DD,802
0C9D4:  MOVLW  39
0C9D6:  MOVWF  x03
0C9D8:  MOVFF  7DF,804
0C9DC:  MOVLW  01
0C9DE:  MOVWF  x05
0C9E0:  MOVLB  0
0C9E2:  CALL   1CC0
....................                glcd_line(27+30,55-Temperatura1[(ProgramaSeleccionado*10)+2]/30,27+40,55-Temperatura1[(ProgramaSeleccionado*10)+3]/30,ON); 
0C9E6:  MOVLB  5
0C9E8:  MOVF   xA3,W
0C9EA:  MULLW  0A
0C9EC:  MOVF   FF3,W
0C9EE:  ADDLW  02
0C9F0:  MOVWF  00
0C9F2:  BCF    FD8.0
0C9F4:  RLCF   00,F
0C9F6:  MOVF   00,W
0C9F8:  CLRF   03
0C9FA:  ADDLW  67
0C9FC:  MOVWF  FE9
0C9FE:  MOVLW  06
0CA00:  ADDWFC 03,W
0CA02:  MOVWF  FEA
0CA04:  MOVFF  FEC,7DE
0CA08:  MOVF   FED,F
0CA0A:  MOVFF  FEF,7DD
0CA0E:  MOVFF  7DE,7E2
0CA12:  MOVFF  7DD,7E1
0CA16:  MOVLB  7
0CA18:  CLRF   xE4
0CA1A:  MOVLW  1E
0CA1C:  MOVWF  xE3
0CA1E:  MOVLB  0
0CA20:  CALL   3C08
0CA24:  MOVFF  02,03
0CA28:  MOVF   01,W
0CA2A:  XORLW  FF
0CA2C:  ADDLW  38
0CA2E:  MOVLB  7
0CA30:  MOVWF  xDD
0CA32:  MOVLW  00
0CA34:  SUBFWB 02,W
0CA36:  MOVWF  xDE
0CA38:  MOVLB  5
0CA3A:  MOVF   xA3,W
0CA3C:  MULLW  0A
0CA3E:  MOVF   FF3,W
0CA40:  ADDLW  03
0CA42:  MOVWF  00
0CA44:  BCF    FD8.0
0CA46:  RLCF   00,F
0CA48:  MOVF   00,W
0CA4A:  CLRF   03
0CA4C:  ADDLW  67
0CA4E:  MOVWF  FE9
0CA50:  MOVLW  06
0CA52:  ADDWFC 03,W
0CA54:  MOVWF  FEA
0CA56:  MOVFF  FEC,7E0
0CA5A:  MOVF   FED,F
0CA5C:  MOVFF  FEF,7DF
0CA60:  MOVFF  7E0,7E2
0CA64:  MOVFF  7DF,7E1
0CA68:  MOVLB  7
0CA6A:  CLRF   xE4
0CA6C:  MOVLW  1E
0CA6E:  MOVWF  xE3
0CA70:  MOVLB  0
0CA72:  CALL   3C08
0CA76:  MOVFF  02,03
0CA7A:  MOVF   01,W
0CA7C:  XORLW  FF
0CA7E:  ADDLW  38
0CA80:  MOVLB  7
0CA82:  MOVWF  xDF
0CA84:  MOVLW  00
0CA86:  SUBFWB 02,W
0CA88:  MOVWF  xE0
0CA8A:  MOVLW  39
0CA8C:  MOVLB  8
0CA8E:  MOVWF  x01
0CA90:  MOVFF  7DD,802
0CA94:  MOVLW  43
0CA96:  MOVWF  x03
0CA98:  MOVFF  7DF,804
0CA9C:  MOVLW  01
0CA9E:  MOVWF  x05
0CAA0:  MOVLB  0
0CAA2:  CALL   1CC0
....................                glcd_line(27+40,55-Temperatura1[(ProgramaSeleccionado*10)+3]/30,27+50,55-Temperatura1[(ProgramaSeleccionado*10)+4]/30,ON); 
0CAA6:  MOVLB  5
0CAA8:  MOVF   xA3,W
0CAAA:  MULLW  0A
0CAAC:  MOVF   FF3,W
0CAAE:  ADDLW  03
0CAB0:  MOVWF  00
0CAB2:  BCF    FD8.0
0CAB4:  RLCF   00,F
0CAB6:  MOVF   00,W
0CAB8:  CLRF   03
0CABA:  ADDLW  67
0CABC:  MOVWF  FE9
0CABE:  MOVLW  06
0CAC0:  ADDWFC 03,W
0CAC2:  MOVWF  FEA
0CAC4:  MOVFF  FEC,7DE
0CAC8:  MOVF   FED,F
0CACA:  MOVFF  FEF,7DD
0CACE:  MOVFF  7DE,7E2
0CAD2:  MOVFF  7DD,7E1
0CAD6:  MOVLB  7
0CAD8:  CLRF   xE4
0CADA:  MOVLW  1E
0CADC:  MOVWF  xE3
0CADE:  MOVLB  0
0CAE0:  CALL   3C08
0CAE4:  MOVFF  02,03
0CAE8:  MOVF   01,W
0CAEA:  XORLW  FF
0CAEC:  ADDLW  38
0CAEE:  MOVLB  7
0CAF0:  MOVWF  xDD
0CAF2:  MOVLW  00
0CAF4:  SUBFWB 02,W
0CAF6:  MOVWF  xDE
0CAF8:  MOVLB  5
0CAFA:  MOVF   xA3,W
0CAFC:  MULLW  0A
0CAFE:  MOVF   FF3,W
0CB00:  ADDLW  04
0CB02:  MOVWF  00
0CB04:  BCF    FD8.0
0CB06:  RLCF   00,F
0CB08:  MOVF   00,W
0CB0A:  CLRF   03
0CB0C:  ADDLW  67
0CB0E:  MOVWF  FE9
0CB10:  MOVLW  06
0CB12:  ADDWFC 03,W
0CB14:  MOVWF  FEA
0CB16:  MOVFF  FEC,7E0
0CB1A:  MOVF   FED,F
0CB1C:  MOVFF  FEF,7DF
0CB20:  MOVFF  7E0,7E2
0CB24:  MOVFF  7DF,7E1
0CB28:  MOVLB  7
0CB2A:  CLRF   xE4
0CB2C:  MOVLW  1E
0CB2E:  MOVWF  xE3
0CB30:  MOVLB  0
0CB32:  CALL   3C08
0CB36:  MOVFF  02,03
0CB3A:  MOVF   01,W
0CB3C:  XORLW  FF
0CB3E:  ADDLW  38
0CB40:  MOVLB  7
0CB42:  MOVWF  xDF
0CB44:  MOVLW  00
0CB46:  SUBFWB 02,W
0CB48:  MOVWF  xE0
0CB4A:  MOVLW  43
0CB4C:  MOVLB  8
0CB4E:  MOVWF  x01
0CB50:  MOVFF  7DD,802
0CB54:  MOVLW  4D
0CB56:  MOVWF  x03
0CB58:  MOVFF  7DF,804
0CB5C:  MOVLW  01
0CB5E:  MOVWF  x05
0CB60:  MOVLB  0
0CB62:  CALL   1CC0
....................                glcd_line(27+50,55-Temperatura1[(ProgramaSeleccionado*10)+4]/30,27+60,55-Temperatura1[(ProgramaSeleccionado*10)+5]/30,ON); 
0CB66:  MOVLB  5
0CB68:  MOVF   xA3,W
0CB6A:  MULLW  0A
0CB6C:  MOVF   FF3,W
0CB6E:  ADDLW  04
0CB70:  MOVWF  00
0CB72:  BCF    FD8.0
0CB74:  RLCF   00,F
0CB76:  MOVF   00,W
0CB78:  CLRF   03
0CB7A:  ADDLW  67
0CB7C:  MOVWF  FE9
0CB7E:  MOVLW  06
0CB80:  ADDWFC 03,W
0CB82:  MOVWF  FEA
0CB84:  MOVFF  FEC,7DE
0CB88:  MOVF   FED,F
0CB8A:  MOVFF  FEF,7DD
0CB8E:  MOVFF  7DE,7E2
0CB92:  MOVFF  7DD,7E1
0CB96:  MOVLB  7
0CB98:  CLRF   xE4
0CB9A:  MOVLW  1E
0CB9C:  MOVWF  xE3
0CB9E:  MOVLB  0
0CBA0:  CALL   3C08
0CBA4:  MOVFF  02,03
0CBA8:  MOVF   01,W
0CBAA:  XORLW  FF
0CBAC:  ADDLW  38
0CBAE:  MOVLB  7
0CBB0:  MOVWF  xDD
0CBB2:  MOVLW  00
0CBB4:  SUBFWB 02,W
0CBB6:  MOVWF  xDE
0CBB8:  MOVLB  5
0CBBA:  MOVF   xA3,W
0CBBC:  MULLW  0A
0CBBE:  MOVF   FF3,W
0CBC0:  ADDLW  05
0CBC2:  MOVWF  00
0CBC4:  BCF    FD8.0
0CBC6:  RLCF   00,F
0CBC8:  MOVF   00,W
0CBCA:  CLRF   03
0CBCC:  ADDLW  67
0CBCE:  MOVWF  FE9
0CBD0:  MOVLW  06
0CBD2:  ADDWFC 03,W
0CBD4:  MOVWF  FEA
0CBD6:  MOVFF  FEC,7E0
0CBDA:  MOVF   FED,F
0CBDC:  MOVFF  FEF,7DF
0CBE0:  MOVFF  7E0,7E2
0CBE4:  MOVFF  7DF,7E1
0CBE8:  MOVLB  7
0CBEA:  CLRF   xE4
0CBEC:  MOVLW  1E
0CBEE:  MOVWF  xE3
0CBF0:  MOVLB  0
0CBF2:  CALL   3C08
0CBF6:  MOVFF  02,03
0CBFA:  MOVF   01,W
0CBFC:  XORLW  FF
0CBFE:  ADDLW  38
0CC00:  MOVLB  7
0CC02:  MOVWF  xDF
0CC04:  MOVLW  00
0CC06:  SUBFWB 02,W
0CC08:  MOVWF  xE0
0CC0A:  MOVLW  4D
0CC0C:  MOVLB  8
0CC0E:  MOVWF  x01
0CC10:  MOVFF  7DD,802
0CC14:  MOVLW  57
0CC16:  MOVWF  x03
0CC18:  MOVFF  7DF,804
0CC1C:  MOVLW  01
0CC1E:  MOVWF  x05
0CC20:  MOVLB  0
0CC22:  CALL   1CC0
....................                glcd_line(27+60,55-Temperatura1[(ProgramaSeleccionado*10)+5]/30,27+70,55-Temperatura1[(ProgramaSeleccionado*10)+6]/30,ON); 
0CC26:  MOVLB  5
0CC28:  MOVF   xA3,W
0CC2A:  MULLW  0A
0CC2C:  MOVF   FF3,W
0CC2E:  ADDLW  05
0CC30:  MOVWF  00
0CC32:  BCF    FD8.0
0CC34:  RLCF   00,F
0CC36:  MOVF   00,W
0CC38:  CLRF   03
0CC3A:  ADDLW  67
0CC3C:  MOVWF  FE9
0CC3E:  MOVLW  06
0CC40:  ADDWFC 03,W
0CC42:  MOVWF  FEA
0CC44:  MOVFF  FEC,7DE
0CC48:  MOVF   FED,F
0CC4A:  MOVFF  FEF,7DD
0CC4E:  MOVFF  7DE,7E2
0CC52:  MOVFF  7DD,7E1
0CC56:  MOVLB  7
0CC58:  CLRF   xE4
0CC5A:  MOVLW  1E
0CC5C:  MOVWF  xE3
0CC5E:  MOVLB  0
0CC60:  CALL   3C08
0CC64:  MOVFF  02,03
0CC68:  MOVF   01,W
0CC6A:  XORLW  FF
0CC6C:  ADDLW  38
0CC6E:  MOVLB  7
0CC70:  MOVWF  xDD
0CC72:  MOVLW  00
0CC74:  SUBFWB 02,W
0CC76:  MOVWF  xDE
0CC78:  MOVLB  5
0CC7A:  MOVF   xA3,W
0CC7C:  MULLW  0A
0CC7E:  MOVF   FF3,W
0CC80:  ADDLW  06
0CC82:  MOVWF  00
0CC84:  BCF    FD8.0
0CC86:  RLCF   00,F
0CC88:  MOVF   00,W
0CC8A:  CLRF   03
0CC8C:  ADDLW  67
0CC8E:  MOVWF  FE9
0CC90:  MOVLW  06
0CC92:  ADDWFC 03,W
0CC94:  MOVWF  FEA
0CC96:  MOVFF  FEC,7E0
0CC9A:  MOVF   FED,F
0CC9C:  MOVFF  FEF,7DF
0CCA0:  MOVFF  7E0,7E2
0CCA4:  MOVFF  7DF,7E1
0CCA8:  MOVLB  7
0CCAA:  CLRF   xE4
0CCAC:  MOVLW  1E
0CCAE:  MOVWF  xE3
0CCB0:  MOVLB  0
0CCB2:  CALL   3C08
0CCB6:  MOVFF  02,03
0CCBA:  MOVF   01,W
0CCBC:  XORLW  FF
0CCBE:  ADDLW  38
0CCC0:  MOVLB  7
0CCC2:  MOVWF  xDF
0CCC4:  MOVLW  00
0CCC6:  SUBFWB 02,W
0CCC8:  MOVWF  xE0
0CCCA:  MOVLW  57
0CCCC:  MOVLB  8
0CCCE:  MOVWF  x01
0CCD0:  MOVFF  7DD,802
0CCD4:  MOVLW  61
0CCD6:  MOVWF  x03
0CCD8:  MOVFF  7DF,804
0CCDC:  MOVLW  01
0CCDE:  MOVWF  x05
0CCE0:  MOVLB  0
0CCE2:  CALL   1CC0
....................                glcd_line(27+70,55-Temperatura1[(ProgramaSeleccionado*10)+6]/30,27+80,55-Temperatura1[(ProgramaSeleccionado*10)+7]/30,ON); 
0CCE6:  MOVLB  5
0CCE8:  MOVF   xA3,W
0CCEA:  MULLW  0A
0CCEC:  MOVF   FF3,W
0CCEE:  ADDLW  06
0CCF0:  MOVWF  00
0CCF2:  BCF    FD8.0
0CCF4:  RLCF   00,F
0CCF6:  MOVF   00,W
0CCF8:  CLRF   03
0CCFA:  ADDLW  67
0CCFC:  MOVWF  FE9
0CCFE:  MOVLW  06
0CD00:  ADDWFC 03,W
0CD02:  MOVWF  FEA
0CD04:  MOVFF  FEC,7DE
0CD08:  MOVF   FED,F
0CD0A:  MOVFF  FEF,7DD
0CD0E:  MOVFF  7DE,7E2
0CD12:  MOVFF  7DD,7E1
0CD16:  MOVLB  7
0CD18:  CLRF   xE4
0CD1A:  MOVLW  1E
0CD1C:  MOVWF  xE3
0CD1E:  MOVLB  0
0CD20:  CALL   3C08
0CD24:  MOVFF  02,03
0CD28:  MOVF   01,W
0CD2A:  XORLW  FF
0CD2C:  ADDLW  38
0CD2E:  MOVLB  7
0CD30:  MOVWF  xDD
0CD32:  MOVLW  00
0CD34:  SUBFWB 02,W
0CD36:  MOVWF  xDE
0CD38:  MOVLB  5
0CD3A:  MOVF   xA3,W
0CD3C:  MULLW  0A
0CD3E:  MOVF   FF3,W
0CD40:  ADDLW  07
0CD42:  MOVWF  00
0CD44:  BCF    FD8.0
0CD46:  RLCF   00,F
0CD48:  MOVF   00,W
0CD4A:  CLRF   03
0CD4C:  ADDLW  67
0CD4E:  MOVWF  FE9
0CD50:  MOVLW  06
0CD52:  ADDWFC 03,W
0CD54:  MOVWF  FEA
0CD56:  MOVFF  FEC,7E0
0CD5A:  MOVF   FED,F
0CD5C:  MOVFF  FEF,7DF
0CD60:  MOVFF  7E0,7E2
0CD64:  MOVFF  7DF,7E1
0CD68:  MOVLB  7
0CD6A:  CLRF   xE4
0CD6C:  MOVLW  1E
0CD6E:  MOVWF  xE3
0CD70:  MOVLB  0
0CD72:  CALL   3C08
0CD76:  MOVFF  02,03
0CD7A:  MOVF   01,W
0CD7C:  XORLW  FF
0CD7E:  ADDLW  38
0CD80:  MOVLB  7
0CD82:  MOVWF  xDF
0CD84:  MOVLW  00
0CD86:  SUBFWB 02,W
0CD88:  MOVWF  xE0
0CD8A:  MOVLW  61
0CD8C:  MOVLB  8
0CD8E:  MOVWF  x01
0CD90:  MOVFF  7DD,802
0CD94:  MOVLW  6B
0CD96:  MOVWF  x03
0CD98:  MOVFF  7DF,804
0CD9C:  MOVLW  01
0CD9E:  MOVWF  x05
0CDA0:  MOVLB  0
0CDA2:  CALL   1CC0
....................                glcd_line(27+80,55-Temperatura1[(ProgramaSeleccionado*10)+7]/30,27+90,55-Temperatura1[(ProgramaSeleccionado*10)+8]/30,ON); 
0CDA6:  MOVLB  5
0CDA8:  MOVF   xA3,W
0CDAA:  MULLW  0A
0CDAC:  MOVF   FF3,W
0CDAE:  ADDLW  07
0CDB0:  MOVWF  00
0CDB2:  BCF    FD8.0
0CDB4:  RLCF   00,F
0CDB6:  MOVF   00,W
0CDB8:  CLRF   03
0CDBA:  ADDLW  67
0CDBC:  MOVWF  FE9
0CDBE:  MOVLW  06
0CDC0:  ADDWFC 03,W
0CDC2:  MOVWF  FEA
0CDC4:  MOVFF  FEC,7DE
0CDC8:  MOVF   FED,F
0CDCA:  MOVFF  FEF,7DD
0CDCE:  MOVFF  7DE,7E2
0CDD2:  MOVFF  7DD,7E1
0CDD6:  MOVLB  7
0CDD8:  CLRF   xE4
0CDDA:  MOVLW  1E
0CDDC:  MOVWF  xE3
0CDDE:  MOVLB  0
0CDE0:  CALL   3C08
0CDE4:  MOVFF  02,03
0CDE8:  MOVF   01,W
0CDEA:  XORLW  FF
0CDEC:  ADDLW  38
0CDEE:  MOVLB  7
0CDF0:  MOVWF  xDD
0CDF2:  MOVLW  00
0CDF4:  SUBFWB 02,W
0CDF6:  MOVWF  xDE
0CDF8:  MOVLB  5
0CDFA:  MOVF   xA3,W
0CDFC:  MULLW  0A
0CDFE:  MOVF   FF3,W
0CE00:  ADDLW  08
0CE02:  MOVWF  00
0CE04:  BCF    FD8.0
0CE06:  RLCF   00,F
0CE08:  MOVF   00,W
0CE0A:  CLRF   03
0CE0C:  ADDLW  67
0CE0E:  MOVWF  FE9
0CE10:  MOVLW  06
0CE12:  ADDWFC 03,W
0CE14:  MOVWF  FEA
0CE16:  MOVFF  FEC,7E0
0CE1A:  MOVF   FED,F
0CE1C:  MOVFF  FEF,7DF
0CE20:  MOVFF  7E0,7E2
0CE24:  MOVFF  7DF,7E1
0CE28:  MOVLB  7
0CE2A:  CLRF   xE4
0CE2C:  MOVLW  1E
0CE2E:  MOVWF  xE3
0CE30:  MOVLB  0
0CE32:  CALL   3C08
0CE36:  MOVFF  02,03
0CE3A:  MOVF   01,W
0CE3C:  XORLW  FF
0CE3E:  ADDLW  38
0CE40:  MOVLB  7
0CE42:  MOVWF  xDF
0CE44:  MOVLW  00
0CE46:  SUBFWB 02,W
0CE48:  MOVWF  xE0
0CE4A:  MOVLW  6B
0CE4C:  MOVLB  8
0CE4E:  MOVWF  x01
0CE50:  MOVFF  7DD,802
0CE54:  MOVLW  75
0CE56:  MOVWF  x03
0CE58:  MOVFF  7DF,804
0CE5C:  MOVLW  01
0CE5E:  MOVWF  x05
0CE60:  MOVLB  0
0CE62:  CALL   1CC0
....................                glcd_line(27+90,55-Temperatura1[(ProgramaSeleccionado*10)+8]/30,27+100,55-Temperatura1[(ProgramaSeleccionado*10)+9]/30,ON); 
0CE66:  MOVLB  5
0CE68:  MOVF   xA3,W
0CE6A:  MULLW  0A
0CE6C:  MOVF   FF3,W
0CE6E:  ADDLW  08
0CE70:  MOVWF  00
0CE72:  BCF    FD8.0
0CE74:  RLCF   00,F
0CE76:  MOVF   00,W
0CE78:  CLRF   03
0CE7A:  ADDLW  67
0CE7C:  MOVWF  FE9
0CE7E:  MOVLW  06
0CE80:  ADDWFC 03,W
0CE82:  MOVWF  FEA
0CE84:  MOVFF  FEC,7DE
0CE88:  MOVF   FED,F
0CE8A:  MOVFF  FEF,7DD
0CE8E:  MOVFF  7DE,7E2
0CE92:  MOVFF  7DD,7E1
0CE96:  MOVLB  7
0CE98:  CLRF   xE4
0CE9A:  MOVLW  1E
0CE9C:  MOVWF  xE3
0CE9E:  MOVLB  0
0CEA0:  CALL   3C08
0CEA4:  MOVFF  02,03
0CEA8:  MOVF   01,W
0CEAA:  XORLW  FF
0CEAC:  ADDLW  38
0CEAE:  MOVLB  7
0CEB0:  MOVWF  xDD
0CEB2:  MOVLW  00
0CEB4:  SUBFWB 02,W
0CEB6:  MOVWF  xDE
0CEB8:  MOVLB  5
0CEBA:  MOVF   xA3,W
0CEBC:  MULLW  0A
0CEBE:  MOVF   FF3,W
0CEC0:  ADDLW  09
0CEC2:  MOVWF  00
0CEC4:  BCF    FD8.0
0CEC6:  RLCF   00,F
0CEC8:  MOVF   00,W
0CECA:  CLRF   03
0CECC:  ADDLW  67
0CECE:  MOVWF  FE9
0CED0:  MOVLW  06
0CED2:  ADDWFC 03,W
0CED4:  MOVWF  FEA
0CED6:  MOVFF  FEC,7E0
0CEDA:  MOVF   FED,F
0CEDC:  MOVFF  FEF,7DF
0CEE0:  MOVFF  7E0,7E2
0CEE4:  MOVFF  7DF,7E1
0CEE8:  MOVLB  7
0CEEA:  CLRF   xE4
0CEEC:  MOVLW  1E
0CEEE:  MOVWF  xE3
0CEF0:  MOVLB  0
0CEF2:  CALL   3C08
0CEF6:  MOVFF  02,03
0CEFA:  MOVF   01,W
0CEFC:  XORLW  FF
0CEFE:  ADDLW  38
0CF00:  MOVLB  7
0CF02:  MOVWF  xDF
0CF04:  MOVLW  00
0CF06:  SUBFWB 02,W
0CF08:  MOVWF  xE0
0CF0A:  MOVLW  75
0CF0C:  MOVLB  8
0CF0E:  MOVWF  x01
0CF10:  MOVFF  7DD,802
0CF14:  MOVLW  7F
0CF16:  MOVWF  x03
0CF18:  MOVFF  7DF,804
0CF1C:  MOVLW  01
0CF1E:  MOVWF  x05
0CF20:  MOVLB  0
0CF22:  CALL   1CC0
....................                glcd_update(); 
0CF26:  CALL   18DA
....................                for(i=0;i<80;i++) 
0CF2A:  MOVLB  5
0CF2C:  CLRF   x9C
0CF2E:  MOVF   x9C,W
0CF30:  SUBLW  4F
0CF32:  BNC   CF54
....................                { 
....................                   Temperatura=Leer_Sensor(MediaMovil); 
0CF34:  MOVFF  58C,7DD
0CF38:  MOVLB  0
0CF3A:  CALL   34A4
0CF3E:  MOVFF  03,62E
0CF42:  MOVFF  02,62D
0CF46:  MOVFF  01,62C
0CF4A:  MOVFF  00,62B
....................                } 
0CF4E:  MOVLB  5
0CF50:  INCF   x9C,F
0CF52:  BRA    CF2E
....................             delay_ms(3000); 
0CF54:  MOVLW  0C
0CF56:  MOVLB  7
0CF58:  MOVWF  xDD
0CF5A:  MOVLW  FA
0CF5C:  MOVWF  xE3
0CF5E:  MOVLB  0
0CF60:  CALL   1800
0CF64:  MOVLB  7
0CF66:  DECFSZ xDD,F
0CF68:  BRA    CF5A
....................             glcd_fillscreen(OFF); 
0CF6A:  CLRF   xDE
0CF6C:  MOVLB  0
0CF6E:  CALL   1880
0CF72:  MOVLB  7
....................       } 
....................              
....................       if(DOWN)//Si oprime hacia abajo 
0CF74:  BSF    F96.0
0CF76:  BTFSC  F84.0
0CF78:  BRA    CF7A
....................       {   
....................       } 
....................        
....................       if(RIGHT)//Si oprime SET 
0CF7A:  BSF    F96.1
0CF7C:  BTFSC  F84.1
0CF7E:  BRA    CFCE
....................       {   
....................          if(Pausa!=2) 
0CF80:  MOVLB  5
0CF82:  MOVF   x9E,W
0CF84:  SUBLW  02
0CF86:  BZ    CFCE
....................          { 
....................             if(Pausa==0) 
0CF88:  MOVF   x9E,F
0CF8A:  BNZ   CFA0
....................             { 
....................                delay_ms(200);Pausa=1; 
0CF8C:  MOVLW  C8
0CF8E:  MOVLB  7
0CF90:  MOVWF  xE3
0CF92:  MOVLB  0
0CF94:  CALL   1800
0CF98:  MOVLW  01
0CF9A:  MOVLB  5
0CF9C:  MOVWF  x9E
....................             } 
....................             else 
0CF9E:  BRA    CFB0
....................             { 
....................                delay_ms(200);Pausa=0; 
0CFA0:  MOVLW  C8
0CFA2:  MOVLB  7
0CFA4:  MOVWF  xE3
0CFA6:  MOVLB  0
0CFA8:  CALL   1800
0CFAC:  MOVLB  5
0CFAE:  CLRF   x9E
....................             } 
....................             glcd_rect(0, 55, 127, 63, YES, OFF); 
0CFB0:  MOVLB  7
0CFB2:  CLRF   xF5
0CFB4:  MOVLW  37
0CFB6:  MOVWF  xF6
0CFB8:  MOVLW  7F
0CFBA:  MOVWF  xF7
0CFBC:  MOVLW  3F
0CFBE:  MOVWF  xF8
0CFC0:  MOVLW  01
0CFC2:  MOVWF  xF9
0CFC4:  CLRF   xFA
0CFC6:  MOVLB  0
0CFC8:  CALL   1DFE
0CFCC:  MOVLB  5
....................          } 
....................       } 
....................        
....................          
....................       if(Lectura==1)// Utilizado para visualizar la lectura de la temperatura 
0CFCE:  MOVLB  5
0CFD0:  BTFSS  x95.1
0CFD2:  BRA    D69C
....................       {                  
....................           
....................          Lectura=0; 
0CFD4:  BCF    x95.1
....................          Potencia=(100.0/Tciclo)*Tpulso; 
0CFD6:  MOVLB  7
0CFD8:  CLRF   xE4
0CFDA:  CLRF   xE3
0CFDC:  MOVLW  48
0CFDE:  MOVWF  xE2
0CFE0:  MOVLW  85
0CFE2:  MOVWF  xE1
0CFE4:  MOVFF  5FA,7E8
0CFE8:  MOVFF  5F9,7E7
0CFEC:  MOVFF  5F8,7E6
0CFF0:  MOVFF  5F7,7E5
0CFF4:  MOVLB  0
0CFF6:  CALL   3228
0CFFA:  MOVFF  00,7DD
0CFFE:  MOVFF  01,7DE
0D002:  MOVFF  02,7DF
0D006:  MOVFF  03,7E0
0D00A:  MOVFF  03,7FD
0D00E:  MOVFF  02,7FC
0D012:  MOVFF  01,7FB
0D016:  MOVFF  00,7FA
0D01A:  MOVFF  5FE,801
0D01E:  MOVFF  5FD,800
0D022:  MOVFF  5FC,7FF
0D026:  MOVFF  5FB,7FE
0D02A:  CALL   3386
0D02E:  MOVFF  03,5DE
0D032:  MOVFF  02,5DD
0D036:  MOVFF  01,5DC
0D03A:  MOVFF  00,5DB
....................           
....................  //----------------Muestra Temperatura-------------------------- 
....................          if(Temperatura>1250 || Temperatura<0) 
0D03E:  MOVLB  7
0D040:  CLRF   xE0
0D042:  MOVLW  40
0D044:  MOVWF  xDF
0D046:  MOVLW  1C
0D048:  MOVWF  xDE
0D04A:  MOVLW  89
0D04C:  MOVWF  xDD
0D04E:  MOVFF  62E,7E4
0D052:  MOVFF  62D,7E3
0D056:  MOVFF  62C,7E2
0D05A:  MOVFF  62B,7E1
0D05E:  MOVLB  0
0D060:  CALL   21FE
0D064:  BC    D088
0D066:  MOVFF  62E,7E0
0D06A:  MOVFF  62D,7DF
0D06E:  MOVFF  62C,7DE
0D072:  MOVFF  62B,7DD
0D076:  MOVLB  7
0D078:  CLRF   xE4
0D07A:  CLRF   xE3
0D07C:  CLRF   xE2
0D07E:  CLRF   xE1
0D080:  MOVLB  0
0D082:  CALL   21FE
0D086:  BNC   D0F2
....................          { 
....................             glcd_rect(15, 29, 69, 45, YES, OFF); 
0D088:  MOVLW  0F
0D08A:  MOVLB  7
0D08C:  MOVWF  xF5
0D08E:  MOVLW  1D
0D090:  MOVWF  xF6
0D092:  MOVLW  45
0D094:  MOVWF  xF7
0D096:  MOVLW  2D
0D098:  MOVWF  xF8
0D09A:  MOVLW  01
0D09C:  MOVWF  xF9
0D09E:  CLRF   xFA
0D0A0:  MOVLB  0
0D0A2:  CALL   1DFE
....................             strcpy(Menus.Letra,"-----");displayMenu(Menus.Letra,15,29,2,2); 
0D0A6:  MOVLW  07
0D0A8:  MOVWF  FEA
0D0AA:  MOVLW  BD
0D0AC:  MOVWF  FE9
0D0AE:  MOVFF  FF2,7DD
0D0B2:  BCF    FF2.7
0D0B4:  MOVLW  00
0D0B6:  CALL   1198
0D0BA:  TBLRD*-
0D0BC:  TBLRD*+
0D0BE:  MOVF   FF5,W
0D0C0:  MOVWF  FEE
0D0C2:  IORLW  00
0D0C4:  BNZ   D0BC
0D0C6:  MOVLB  7
0D0C8:  BTFSC  xDD.7
0D0CA:  BSF    FF2.7
0D0CC:  MOVLW  07
0D0CE:  MOVWF  xE1
0D0D0:  MOVLW  BD
0D0D2:  MOVWF  xE0
0D0D4:  MOVLW  0F
0D0D6:  MOVWF  xE2
0D0D8:  MOVLW  1D
0D0DA:  MOVWF  xE3
0D0DC:  MOVLW  02
0D0DE:  MOVWF  xE4
0D0E0:  MOVWF  xE5
0D0E2:  MOVLB  0
0D0E4:  CALL   1EC0
....................             Desconectado=1; 
0D0E8:  MOVLB  5
0D0EA:  BSF    x87.2
....................             Control=0; 
0D0EC:  CLRF   x99
....................          } 
....................          else 
0D0EE:  BRA    D178
0D0F0:  MOVLB  0
....................          { 
....................             if(Desconectado==1) 
0D0F2:  MOVLB  5
0D0F4:  BTFSS  x87.2
0D0F6:  BRA    D13C
....................             { 
....................                Desconectado=0; 
0D0F8:  BCF    x87.2
....................                delay_ms(2000); 
0D0FA:  MOVLW  08
0D0FC:  MOVLB  7
0D0FE:  MOVWF  xDD
0D100:  MOVLW  FA
0D102:  MOVWF  xE3
0D104:  MOVLB  0
0D106:  CALL   1800
0D10A:  MOVLB  7
0D10C:  DECFSZ xDD,F
0D10E:  BRA    D100
....................                for(i=0;i<80;i++) 
0D110:  MOVLB  5
0D112:  CLRF   x9C
0D114:  MOVF   x9C,W
0D116:  SUBLW  4F
0D118:  BNC   D13C
....................                { 
....................                   Temperatura=Leer_Sensor(80); 
0D11A:  MOVLW  50
0D11C:  MOVLB  7
0D11E:  MOVWF  xDD
0D120:  MOVLB  0
0D122:  CALL   34A4
0D126:  MOVFF  03,62E
0D12A:  MOVFF  02,62D
0D12E:  MOVFF  01,62C
0D132:  MOVFF  00,62B
....................                } 
0D136:  MOVLB  5
0D138:  INCF   x9C,F
0D13A:  BRA    D114
....................             } 
....................              
....................                displayT(Temperatura,15,29,2); 
0D13C:  MOVFF  62E,7E0
0D140:  MOVFF  62D,7DF
0D144:  MOVFF  62C,7DE
0D148:  MOVFF  62B,7DD
0D14C:  MOVLB  0
0D14E:  CALL   635C
0D152:  MOVFF  02,7DE
0D156:  MOVFF  01,7DD
0D15A:  MOVFF  02,7E0
0D15E:  MOVFF  01,7DF
0D162:  MOVLW  0F
0D164:  MOVLB  7
0D166:  MOVWF  xE1
0D168:  MOVLW  1D
0D16A:  MOVWF  xE2
0D16C:  MOVLW  02
0D16E:  MOVWF  xE3
0D170:  MOVLB  0
0D172:  GOTO   741C
0D176:  MOVLB  5
....................              
....................             //displayTemperatura(Temperatura,15,29,0,2); 
....................          } 
....................  
....................          //displayT(Temperatura,15,29,2); 
....................             Dibuja=0; 
0D178:  BCF    x95.7
....................             glcd_circle(74,30,2,NO,ON); 
0D17A:  MOVLW  4A
0D17C:  MOVLB  7
0D17E:  MOVWF  xF5
0D180:  MOVLW  1E
0D182:  MOVWF  xF6
0D184:  MOVLW  02
0D186:  MOVWF  xF7
0D188:  CLRF   xF8
0D18A:  MOVLW  01
0D18C:  MOVWF  xF9
0D18E:  MOVLB  0
0D190:  CALL   4D22
....................             strcpy(Menus.Letra,"C");displayMenu(Menus.Letra,75,30,2,2); 
0D194:  MOVLW  07
0D196:  MOVWF  FEA
0D198:  MOVLW  BD
0D19A:  MOVWF  FE9
0D19C:  MOVFF  FF2,7DD
0D1A0:  BCF    FF2.7
0D1A2:  MOVLW  00
0D1A4:  CALL   06D2
0D1A8:  TBLRD*-
0D1AA:  TBLRD*+
0D1AC:  MOVF   FF5,W
0D1AE:  MOVWF  FEE
0D1B0:  IORLW  00
0D1B2:  BNZ   D1AA
0D1B4:  MOVLB  7
0D1B6:  BTFSC  xDD.7
0D1B8:  BSF    FF2.7
0D1BA:  MOVLW  07
0D1BC:  MOVWF  xE1
0D1BE:  MOVLW  BD
0D1C0:  MOVWF  xE0
0D1C2:  MOVLW  4B
0D1C4:  MOVWF  xE2
0D1C6:  MOVLW  1E
0D1C8:  MOVWF  xE3
0D1CA:  MOVLW  02
0D1CC:  MOVWF  xE4
0D1CE:  MOVWF  xE5
0D1D0:  MOVLB  0
0D1D2:  CALL   1EC0
....................              
....................             displayTemperatura(Setpoint,30,45,0,1); 
0D1D6:  MOVFF  63A,7E0
0D1DA:  MOVFF  639,7DF
0D1DE:  MOVFF  638,7DE
0D1E2:  MOVFF  637,7DD
0D1E6:  CALL   635C
0D1EA:  MOVFF  02,7DE
0D1EE:  MOVFF  01,7DD
0D1F2:  MOVFF  02,7E3
0D1F6:  MOVFF  01,7E2
0D1FA:  MOVLW  1E
0D1FC:  MOVLB  7
0D1FE:  MOVWF  xE4
0D200:  MOVLW  2D
0D202:  MOVWF  xE5
0D204:  CLRF   xE6
0D206:  MOVLW  01
0D208:  MOVWF  xE7
0D20A:  MOVLB  0
0D20C:  CALL   4B6A
....................             glcd_circle(60,47,1,NO,ON); 
0D210:  MOVLW  3C
0D212:  MOVLB  7
0D214:  MOVWF  xF5
0D216:  MOVLW  2F
0D218:  MOVWF  xF6
0D21A:  MOVLW  01
0D21C:  MOVWF  xF7
0D21E:  CLRF   xF8
0D220:  MOVWF  xF9
0D222:  MOVLB  0
0D224:  CALL   4D22
....................             strcpy(Menus.Letra,"C");displayMenu(Menus.Letra,63,45,2,1); 
0D228:  MOVLW  07
0D22A:  MOVWF  FEA
0D22C:  MOVLW  BD
0D22E:  MOVWF  FE9
0D230:  MOVFF  FF2,7DD
0D234:  BCF    FF2.7
0D236:  MOVLW  00
0D238:  CALL   06D2
0D23C:  TBLRD*-
0D23E:  TBLRD*+
0D240:  MOVF   FF5,W
0D242:  MOVWF  FEE
0D244:  IORLW  00
0D246:  BNZ   D23E
0D248:  MOVLB  7
0D24A:  BTFSC  xDD.7
0D24C:  BSF    FF2.7
0D24E:  MOVLW  07
0D250:  MOVWF  xE1
0D252:  MOVLW  BD
0D254:  MOVWF  xE0
0D256:  MOVLW  3F
0D258:  MOVWF  xE2
0D25A:  MOVLW  2D
0D25C:  MOVWF  xE3
0D25E:  MOVLW  02
0D260:  MOVWF  xE4
0D262:  MOVLW  01
0D264:  MOVWF  xE5
0D266:  MOVLB  0
0D268:  CALL   1EC0
....................             strcpy(Menus.Letra,"Temp:");displayMenu(Menus.Letra,0,45,2,1);  
0D26C:  MOVLW  07
0D26E:  MOVWF  FEA
0D270:  MOVLW  BD
0D272:  MOVWF  FE9
0D274:  MOVFF  FF2,7DD
0D278:  BCF    FF2.7
0D27A:  MOVLW  00
0D27C:  CALL   11BC
0D280:  TBLRD*-
0D282:  TBLRD*+
0D284:  MOVF   FF5,W
0D286:  MOVWF  FEE
0D288:  IORLW  00
0D28A:  BNZ   D282
0D28C:  MOVLB  7
0D28E:  BTFSC  xDD.7
0D290:  BSF    FF2.7
0D292:  MOVLW  07
0D294:  MOVWF  xE1
0D296:  MOVLW  BD
0D298:  MOVWF  xE0
0D29A:  CLRF   xE2
0D29C:  MOVLW  2D
0D29E:  MOVWF  xE3
0D2A0:  MOVLW  02
0D2A2:  MOVWF  xE4
0D2A4:  MOVLW  01
0D2A6:  MOVWF  xE5
0D2A8:  MOVLB  0
0D2AA:  CALL   1EC0
....................              
....................             strcpy(Menus.Letra,"Power:");displayMenu(Menus.Letra,91,34,2,1); 
0D2AE:  MOVLW  07
0D2B0:  MOVWF  FEA
0D2B2:  MOVLW  BD
0D2B4:  MOVWF  FE9
0D2B6:  MOVFF  FF2,7DD
0D2BA:  BCF    FF2.7
0D2BC:  MOVLW  00
0D2BE:  CALL   11E0
0D2C2:  TBLRD*-
0D2C4:  TBLRD*+
0D2C6:  MOVF   FF5,W
0D2C8:  MOVWF  FEE
0D2CA:  IORLW  00
0D2CC:  BNZ   D2C4
0D2CE:  MOVLB  7
0D2D0:  BTFSC  xDD.7
0D2D2:  BSF    FF2.7
0D2D4:  MOVLW  07
0D2D6:  MOVWF  xE1
0D2D8:  MOVLW  BD
0D2DA:  MOVWF  xE0
0D2DC:  MOVLW  5B
0D2DE:  MOVWF  xE2
0D2E0:  MOVLW  22
0D2E2:  MOVWF  xE3
0D2E4:  MOVLW  02
0D2E6:  MOVWF  xE4
0D2E8:  MOVLW  01
0D2EA:  MOVWF  xE5
0D2EC:  MOVLB  0
0D2EE:  CALL   1EC0
....................             displayTiempo(Potencia,97,44,3,1);strcpy(Menus.Letra,"%");displayMenu(Menus.Letra,115,44,2,1); 
0D2F2:  MOVFF  5DE,7E0
0D2F6:  MOVFF  5DD,7DF
0D2FA:  MOVFF  5DC,7DE
0D2FE:  MOVFF  5DB,7DD
0D302:  CALL   635C
0D306:  MOVFF  01,7DD
0D30A:  MOVFF  01,7E0
0D30E:  MOVLW  61
0D310:  MOVLB  7
0D312:  MOVWF  xE1
0D314:  MOVLW  2C
0D316:  MOVWF  xE2
0D318:  MOVLW  03
0D31A:  MOVWF  xE3
0D31C:  MOVLW  01
0D31E:  MOVWF  xE4
0D320:  MOVLB  0
0D322:  CALL   3950
0D326:  MOVLW  07
0D328:  MOVWF  FEA
0D32A:  MOVLW  BD
0D32C:  MOVWF  FE9
0D32E:  MOVFF  FF2,7DD
0D332:  BCF    FF2.7
0D334:  MOVLW  00
0D336:  CALL   1206
0D33A:  TBLRD*-
0D33C:  TBLRD*+
0D33E:  MOVF   FF5,W
0D340:  MOVWF  FEE
0D342:  IORLW  00
0D344:  BNZ   D33C
0D346:  MOVLB  7
0D348:  BTFSC  xDD.7
0D34A:  BSF    FF2.7
0D34C:  MOVLW  07
0D34E:  MOVWF  xE1
0D350:  MOVLW  BD
0D352:  MOVWF  xE0
0D354:  MOVLW  73
0D356:  MOVWF  xE2
0D358:  MOVLW  2C
0D35A:  MOVWF  xE3
0D35C:  MOVLW  02
0D35E:  MOVWF  xE4
0D360:  MOVLW  01
0D362:  MOVWF  xE5
0D364:  MOVLB  0
0D366:  CALL   1EC0
....................             strcpy(Menus.Letra,"Segm.");displayMenu(Menus.Letra,95,18,2,1); 
0D36A:  MOVLW  07
0D36C:  MOVWF  FEA
0D36E:  MOVLW  BD
0D370:  MOVWF  FE9
0D372:  MOVFF  FF2,7DD
0D376:  BCF    FF2.7
0D378:  MOVLW  00
0D37A:  CALL   1226
0D37E:  TBLRD*-
0D380:  TBLRD*+
0D382:  MOVF   FF5,W
0D384:  MOVWF  FEE
0D386:  IORLW  00
0D388:  BNZ   D380
0D38A:  MOVLB  7
0D38C:  BTFSC  xDD.7
0D38E:  BSF    FF2.7
0D390:  MOVLW  07
0D392:  MOVWF  xE1
0D394:  MOVLW  BD
0D396:  MOVWF  xE0
0D398:  MOVLW  5F
0D39A:  MOVWF  xE2
0D39C:  MOVLW  12
0D39E:  MOVWF  xE3
0D3A0:  MOVLW  02
0D3A2:  MOVWF  xE4
0D3A4:  MOVLW  01
0D3A6:  MOVWF  xE5
0D3A8:  MOVLB  0
0D3AA:  CALL   1EC0
....................             displayTiempo(Segmento,96,26,3,1); 
0D3AE:  MOVFF  593,7E0
0D3B2:  MOVLW  60
0D3B4:  MOVLB  7
0D3B6:  MOVWF  xE1
0D3B8:  MOVLW  1A
0D3BA:  MOVWF  xE2
0D3BC:  MOVLW  03
0D3BE:  MOVWF  xE3
0D3C0:  MOVLW  01
0D3C2:  MOVWF  xE4
0D3C4:  MOVLB  0
0D3C6:  CALL   3950
....................             glcd_rect(90, 0, 127, 54, NO, ON); 
0D3CA:  MOVLW  5A
0D3CC:  MOVLB  7
0D3CE:  MOVWF  xF5
0D3D0:  CLRF   xF6
0D3D2:  MOVLW  7F
0D3D4:  MOVWF  xF7
0D3D6:  MOVLW  36
0D3D8:  MOVWF  xF8
0D3DA:  CLRF   xF9
0D3DC:  MOVLW  01
0D3DE:  MOVWF  xFA
0D3E0:  MOVLB  0
0D3E2:  CALL   1DFE
....................              
....................          //displayTiempo(Tpulsomin*10,97,42,3,1);strcpy(Menus.Letra,"%");displayMenu(Menus.Letra,115,42,2,1); 
....................           
....................          if(flag_display==1){ 
0D3E6:  MOVLB  5
0D3E8:  BTFSS  x95.5
0D3EA:  BRA    D452
....................             displayTiempo(sensores(0),97,1,3,1); 
0D3EC:  MOVLB  7
0D3EE:  CLRF   xDE
0D3F0:  MOVLB  0
0D3F2:  CALL   2F36
0D3F6:  MOVFF  03,7E0
0D3FA:  MOVFF  02,7DF
0D3FE:  MOVFF  01,7DE
0D402:  MOVFF  00,7DD
0D406:  CALL   635C
0D40A:  MOVFF  01,7DD
0D40E:  MOVFF  01,7E0
0D412:  MOVLW  61
0D414:  MOVLB  7
0D416:  MOVWF  xE1
0D418:  MOVLW  01
0D41A:  MOVWF  xE2
0D41C:  MOVLW  03
0D41E:  MOVWF  xE3
0D420:  MOVLW  01
0D422:  MOVWF  xE4
0D424:  MOVLB  0
0D426:  CALL   3950
....................             //displayTemperatura(Prom,97,13,0,1); 
....................             //displayFloat(Setpoint-TempeInicial,97,13,1); 
....................             displayFloat(TemperaturaIdeal,97,10,1);} 
0D42A:  MOVFF  662,7E0
0D42E:  MOVFF  661,7DF
0D432:  MOVFF  660,7DE
0D436:  MOVFF  65F,7DD
0D43A:  MOVLW  61
0D43C:  MOVLB  7
0D43E:  MOVWF  xE1
0D440:  MOVLW  0A
0D442:  MOVWF  xE2
0D444:  MOVLW  01
0D446:  MOVWF  xE3
0D448:  MOVLB  0
0D44A:  GOTO   764E
....................          else{ 
0D44E:  BRA    D4C8
0D450:  MOVLB  5
....................             glcd_rect(0, 0, 89, 27, NO, ON); 
0D452:  MOVLB  7
0D454:  CLRF   xF5
0D456:  CLRF   xF6
0D458:  MOVLW  59
0D45A:  MOVWF  xF7
0D45C:  MOVLW  1B
0D45E:  MOVWF  xF8
0D460:  CLRF   xF9
0D462:  MOVLW  01
0D464:  MOVWF  xFA
0D466:  MOVLB  0
0D468:  CALL   1DFE
....................             glcd_rect(0, 27, 89, 54, NO, ON); 
0D46C:  MOVLB  7
0D46E:  CLRF   xF5
0D470:  MOVLW  1B
0D472:  MOVWF  xF6
0D474:  MOVLW  59
0D476:  MOVWF  xF7
0D478:  MOVLW  36
0D47A:  MOVWF  xF8
0D47C:  CLRF   xF9
0D47E:  MOVLW  01
0D480:  MOVWF  xFA
0D482:  MOVLB  0
0D484:  CALL   1DFE
....................             displayHora2(Hora,Minuto,92,2,1,1); 
0D488:  MOVFF  796,7DD
0D48C:  MOVFF  797,7DE
0D490:  MOVLW  5C
0D492:  MOVLB  7
0D494:  MOVWF  xDF
0D496:  MOVLW  02
0D498:  MOVWF  xE0
0D49A:  MOVLW  01
0D49C:  MOVWF  xE1
0D49E:  MOVWF  xE2
0D4A0:  MOVLB  0
0D4A2:  GOTO   76C8
....................             displayFecha2(Dia,Mes,Year,92,10,1,1); 
0D4A6:  MOVFF  795,7DD
0D4AA:  MOVFF  79A,7DE
0D4AE:  MOVFF  793,7DF
0D4B2:  MOVLW  5C
0D4B4:  MOVLB  7
0D4B6:  MOVWF  xE0
0D4B8:  MOVLW  0A
0D4BA:  MOVWF  xE1
0D4BC:  MOVLW  01
0D4BE:  MOVWF  xE2
0D4C0:  MOVWF  xE3
0D4C2:  MOVLB  0
0D4C4:  GOTO   77D0
....................          } 
....................           
....................          // Muestra Valor de esterilizacion Programado. 
....................             displayTiempo(Testerilizacion[3],20,2,0,2);displayTiempo(Testerilizacion[2],33,2,0,2); 
0D4C8:  MOVFF  5E6,7E0
0D4CC:  MOVLW  14
0D4CE:  MOVLB  7
0D4D0:  MOVWF  xE1
0D4D2:  MOVLW  02
0D4D4:  MOVWF  xE2
0D4D6:  CLRF   xE3
0D4D8:  MOVWF  xE4
0D4DA:  MOVLB  0
0D4DC:  CALL   3950
0D4E0:  MOVFF  5E5,7E0
0D4E4:  MOVLW  21
0D4E6:  MOVLB  7
0D4E8:  MOVWF  xE1
0D4EA:  MOVLW  02
0D4EC:  MOVWF  xE2
0D4EE:  CLRF   xE3
0D4F0:  MOVWF  xE4
0D4F2:  MOVLB  0
0D4F4:  CALL   3950
....................             strcpy(Menus.Letra,":");displayMenu(Menus.Letra,46,2,2,2);  
0D4F8:  MOVLW  07
0D4FA:  MOVWF  FEA
0D4FC:  MOVLW  BD
0D4FE:  MOVWF  FE9
0D500:  MOVFF  FF2,7DD
0D504:  BCF    FF2.7
0D506:  MOVLW  00
0D508:  CALL   07FA
0D50C:  TBLRD*-
0D50E:  TBLRD*+
0D510:  MOVF   FF5,W
0D512:  MOVWF  FEE
0D514:  IORLW  00
0D516:  BNZ   D50E
0D518:  MOVLB  7
0D51A:  BTFSC  xDD.7
0D51C:  BSF    FF2.7
0D51E:  MOVLW  07
0D520:  MOVWF  xE1
0D522:  MOVLW  BD
0D524:  MOVWF  xE0
0D526:  MOVLW  2E
0D528:  MOVWF  xE2
0D52A:  MOVLW  02
0D52C:  MOVWF  xE3
0D52E:  MOVWF  xE4
0D530:  MOVWF  xE5
0D532:  MOVLB  0
0D534:  CALL   1EC0
....................             displayTiempo(Testerilizacion[1],55,2,0,2);displayTiempo(Testerilizacion[0],68,2,0,2); 
0D538:  MOVFF  5E4,7E0
0D53C:  MOVLW  37
0D53E:  MOVLB  7
0D540:  MOVWF  xE1
0D542:  MOVLW  02
0D544:  MOVWF  xE2
0D546:  CLRF   xE3
0D548:  MOVWF  xE4
0D54A:  MOVLB  0
0D54C:  CALL   3950
0D550:  MOVFF  5E3,7E0
0D554:  MOVLW  44
0D556:  MOVLB  7
0D558:  MOVWF  xE1
0D55A:  MOVLW  02
0D55C:  MOVWF  xE2
0D55E:  CLRF   xE3
0D560:  MOVWF  xE4
0D562:  MOVLB  0
0D564:  CALL   3950
....................              
....................             // Muestra Valor de esterilizacion actual. 
....................             strcpy(Menus.Letra,"Time:");displayMenu(Menus.Letra,0,18,2,1);  
0D568:  MOVLW  07
0D56A:  MOVWF  FEA
0D56C:  MOVLW  BD
0D56E:  MOVWF  FE9
0D570:  MOVFF  FF2,7DD
0D574:  BCF    FF2.7
0D576:  MOVLW  00
0D578:  CALL   124A
0D57C:  TBLRD*-
0D57E:  TBLRD*+
0D580:  MOVF   FF5,W
0D582:  MOVWF  FEE
0D584:  IORLW  00
0D586:  BNZ   D57E
0D588:  MOVLB  7
0D58A:  BTFSC  xDD.7
0D58C:  BSF    FF2.7
0D58E:  MOVLW  07
0D590:  MOVWF  xE1
0D592:  MOVLW  BD
0D594:  MOVWF  xE0
0D596:  CLRF   xE2
0D598:  MOVLW  12
0D59A:  MOVWF  xE3
0D59C:  MOVLW  02
0D59E:  MOVWF  xE4
0D5A0:  MOVLW  01
0D5A2:  MOVWF  xE5
0D5A4:  MOVLB  0
0D5A6:  CALL   1EC0
....................             displayTiempo(Testerilizacionp[3],30,18,0,1);displayTiempo(Testerilizacionp[2],36,18,0,1); 
0D5AA:  MOVFF  5EA,7E0
0D5AE:  MOVLW  1E
0D5B0:  MOVLB  7
0D5B2:  MOVWF  xE1
0D5B4:  MOVLW  12
0D5B6:  MOVWF  xE2
0D5B8:  CLRF   xE3
0D5BA:  MOVLW  01
0D5BC:  MOVWF  xE4
0D5BE:  MOVLB  0
0D5C0:  CALL   3950
0D5C4:  MOVFF  5E9,7E0
0D5C8:  MOVLW  24
0D5CA:  MOVLB  7
0D5CC:  MOVWF  xE1
0D5CE:  MOVLW  12
0D5D0:  MOVWF  xE2
0D5D2:  CLRF   xE3
0D5D4:  MOVLW  01
0D5D6:  MOVWF  xE4
0D5D8:  MOVLB  0
0D5DA:  CALL   3950
....................             strcpy(Menus.Letra,":");displayMenu(Menus.Letra,42,18,2,1);  
0D5DE:  MOVLW  07
0D5E0:  MOVWF  FEA
0D5E2:  MOVLW  BD
0D5E4:  MOVWF  FE9
0D5E6:  MOVFF  FF2,7DD
0D5EA:  BCF    FF2.7
0D5EC:  MOVLW  00
0D5EE:  CALL   07FA
0D5F2:  TBLRD*-
0D5F4:  TBLRD*+
0D5F6:  MOVF   FF5,W
0D5F8:  MOVWF  FEE
0D5FA:  IORLW  00
0D5FC:  BNZ   D5F4
0D5FE:  MOVLB  7
0D600:  BTFSC  xDD.7
0D602:  BSF    FF2.7
0D604:  MOVLW  07
0D606:  MOVWF  xE1
0D608:  MOVLW  BD
0D60A:  MOVWF  xE0
0D60C:  MOVLW  2A
0D60E:  MOVWF  xE2
0D610:  MOVLW  12
0D612:  MOVWF  xE3
0D614:  MOVLW  02
0D616:  MOVWF  xE4
0D618:  MOVLW  01
0D61A:  MOVWF  xE5
0D61C:  MOVLB  0
0D61E:  CALL   1EC0
....................             displayTiempo(Testerilizacionp[1],48,18,0,1);displayTiempo(Testerilizacionp[0],54,18,0,1); 
0D622:  MOVFF  5E8,7E0
0D626:  MOVLW  30
0D628:  MOVLB  7
0D62A:  MOVWF  xE1
0D62C:  MOVLW  12
0D62E:  MOVWF  xE2
0D630:  CLRF   xE3
0D632:  MOVLW  01
0D634:  MOVWF  xE4
0D636:  MOVLB  0
0D638:  CALL   3950
0D63C:  MOVFF  5E7,7E0
0D640:  MOVLW  36
0D642:  MOVLB  7
0D644:  MOVWF  xE1
0D646:  MOVLW  12
0D648:  MOVWF  xE2
0D64A:  CLRF   xE3
0D64C:  MOVLW  01
0D64E:  MOVWF  xE4
0D650:  MOVLB  0
0D652:  CALL   3950
....................             strcpy(Menus.Letra,"(H:M)");displayMenu(Menus.Letra,60,18,2,1);  
0D656:  MOVLW  07
0D658:  MOVWF  FEA
0D65A:  MOVLW  BD
0D65C:  MOVWF  FE9
0D65E:  MOVFF  FF2,7DD
0D662:  BCF    FF2.7
0D664:  MOVLW  00
0D666:  CALL   126E
0D66A:  TBLRD*-
0D66C:  TBLRD*+
0D66E:  MOVF   FF5,W
0D670:  MOVWF  FEE
0D672:  IORLW  00
0D674:  BNZ   D66C
0D676:  MOVLB  7
0D678:  BTFSC  xDD.7
0D67A:  BSF    FF2.7
0D67C:  MOVLW  07
0D67E:  MOVWF  xE1
0D680:  MOVLW  BD
0D682:  MOVWF  xE0
0D684:  MOVLW  3C
0D686:  MOVWF  xE2
0D688:  MOVLW  12
0D68A:  MOVWF  xE3
0D68C:  MOVLW  02
0D68E:  MOVWF  xE4
0D690:  MOVLW  01
0D692:  MOVWF  xE5
0D694:  MOVLB  0
0D696:  CALL   1EC0
0D69A:  MOVLB  5
....................       }  
....................       
....................       // Si cumplio el tiempo de esterilizacin, Muestre ciclo finalizado y detenga control de temperatura. 
....................       if((Testerilizacion[0]>=Testerilizacionp[0])&&(Testerilizacion[1]>=Testerilizacionp[1])&&(Testerilizacion[2]>=Testerilizacionp[2])&&(Testerilizacion[3]>=Testerilizacionp[3]) && Pausa<3) 
0D69C:  MOVF   xE7,W
0D69E:  XORLW  80
0D6A0:  MOVWF  00
0D6A2:  MOVF   xE3,W
0D6A4:  XORLW  80
0D6A6:  SUBWF  00,W
0D6A8:  BZ    D6AE
0D6AA:  BTFSC  FD8.0
0D6AC:  BRA    D80E
0D6AE:  MOVF   xE8,W
0D6B0:  XORLW  80
0D6B2:  MOVWF  00
0D6B4:  MOVF   xE4,W
0D6B6:  XORLW  80
0D6B8:  SUBWF  00,W
0D6BA:  BZ    D6C0
0D6BC:  BTFSC  FD8.0
0D6BE:  BRA    D80E
0D6C0:  MOVF   xE9,W
0D6C2:  XORLW  80
0D6C4:  MOVWF  00
0D6C6:  MOVF   xE5,W
0D6C8:  XORLW  80
0D6CA:  SUBWF  00,W
0D6CC:  BZ    D6D2
0D6CE:  BTFSC  FD8.0
0D6D0:  BRA    D80E
0D6D2:  MOVF   xEA,W
0D6D4:  XORLW  80
0D6D6:  MOVWF  00
0D6D8:  MOVF   xE6,W
0D6DA:  XORLW  80
0D6DC:  SUBWF  00,W
0D6DE:  BZ    D6E4
0D6E0:  BTFSC  FD8.0
0D6E2:  BRA    D80E
0D6E4:  MOVF   x9E,W
0D6E6:  SUBLW  02
0D6E8:  BTFSS  FD8.0
0D6EA:  BRA    D80E
....................       { 
....................          flag_calcula=0; 
0D6EC:  BCF    x95.2
....................          if(Segmento<Segmentos){ 
0D6EE:  MOVF   x92,W
0D6F0:  SUBWF  x93,W
0D6F2:  BC    D700
....................             Segmento++; 
0D6F4:  INCF   x93,F
....................             Testerilizacion[0]=0; 
0D6F6:  CLRF   xE3
....................             Testerilizacion[1]=0; 
0D6F8:  CLRF   xE4
....................             Testerilizacion[2]=0; 
0D6FA:  CLRF   xE5
....................             Testerilizacion[3]=0; 
0D6FC:  CLRF   xE6
....................          } 
....................          else{ 
0D6FE:  BRA    D704
....................             Pausa=3; 
0D700:  MOVLW  03
0D702:  MOVWF  x9E
....................          } 
....................          glcd_fillScreen(OFF); 
0D704:  MOVLB  7
0D706:  CLRF   xDE
0D708:  MOVLB  0
0D70A:  CALL   1880
....................          Buzz_on; 
0D70E:  BSF    F8B.4
0D710:  BCF    F94.4
....................          delay_ms(1000); 
0D712:  MOVLW  04
0D714:  MOVLB  7
0D716:  MOVWF  xDD
0D718:  MOVLW  FA
0D71A:  MOVWF  xE3
0D71C:  MOVLB  0
0D71E:  CALL   1800
0D722:  MOVLB  7
0D724:  DECFSZ xDD,F
0D726:  BRA    D718
....................          Buzz_off; 
0D728:  BCF    F8B.4
0D72A:  BCF    F94.4
....................          delay_ms(1000); 
0D72C:  MOVLW  04
0D72E:  MOVWF  xDD
0D730:  MOVLW  FA
0D732:  MOVWF  xE3
0D734:  MOVLB  0
0D736:  CALL   1800
0D73A:  MOVLB  7
0D73C:  DECFSZ xDD,F
0D73E:  BRA    D730
....................          glcd_init(ON); 
0D740:  MOVLW  01
0D742:  MOVWF  xDD
0D744:  MOVLB  0
0D746:  CALL   1992
....................          strcpy(Menus.Letra,"Status:Cambio Seg."); 
0D74A:  MOVLW  07
0D74C:  MOVWF  FEA
0D74E:  MOVLW  BD
0D750:  MOVWF  FE9
0D752:  MOVFF  FF2,7DD
0D756:  BCF    FF2.7
0D758:  MOVLW  00
0D75A:  CALL   1292
0D75E:  TBLRD*-
0D760:  TBLRD*+
0D762:  MOVF   FF5,W
0D764:  MOVWF  FEE
0D766:  IORLW  00
0D768:  BNZ   D760
0D76A:  MOVLB  7
0D76C:  BTFSC  xDD.7
0D76E:  BSF    FF2.7
....................          displayMenu(Menus.Letra,0,55,2,1);          
0D770:  MOVLW  07
0D772:  MOVWF  xE1
0D774:  MOVLW  BD
0D776:  MOVWF  xE0
0D778:  CLRF   xE2
0D77A:  MOVLW  37
0D77C:  MOVWF  xE3
0D77E:  MOVLW  02
0D780:  MOVWF  xE4
0D782:  MOVLW  01
0D784:  MOVWF  xE5
0D786:  MOVLB  0
0D788:  CALL   1EC0
....................          delay_ms(500); 
0D78C:  MOVLW  02
0D78E:  MOVLB  7
0D790:  MOVWF  xDD
0D792:  MOVLW  FA
0D794:  MOVWF  xE3
0D796:  MOVLB  0
0D798:  CALL   1800
0D79C:  MOVLB  7
0D79E:  DECFSZ xDD,F
0D7A0:  BRA    D792
....................          if(ActivaImpresion){ 
0D7A2:  MOVLB  5
0D7A4:  BTFSS  x87.3
0D7A6:  BRA    D7FC
....................             fprintf(printer,"---------------\n"); 
0D7A8:  MOVLW  D8
0D7AA:  MOVWF  FF6
0D7AC:  MOVLW  17
0D7AE:  MOVWF  FF7
0D7B0:  MOVLW  00
0D7B2:  MOVWF  FF8
0D7B4:  MOVLB  0
0D7B6:  CALL   37EC
....................             delay_us(20); 
0D7BA:  MOVLW  21
0D7BC:  MOVWF  00
0D7BE:  DECFSZ 00,F
0D7C0:  BRA    D7BE
....................             fprintf(printer,"Inicia Segmento %02u\n",Segmento); 
0D7C2:  MOVLW  EA
0D7C4:  MOVWF  FF6
0D7C6:  MOVLW  17
0D7C8:  MOVWF  FF7
0D7CA:  MOVLW  00
0D7CC:  MOVWF  FF8
0D7CE:  MOVLW  10
0D7D0:  MOVLB  7
0D7D2:  MOVWF  xDE
0D7D4:  MOVLB  0
0D7D6:  CALL   3816
0D7DA:  MOVFF  593,7DE
0D7DE:  MOVLW  01
0D7E0:  MOVLB  7
0D7E2:  MOVWF  xDF
0D7E4:  MOVLB  0
0D7E6:  CALL   3848
0D7EA:  MOVLW  0A
0D7EC:  BTFSS  F9E.4
0D7EE:  BRA    D7EC
0D7F0:  MOVWF  FAD
....................             delay_us(20); 
0D7F2:  MOVLW  21
0D7F4:  MOVWF  00
0D7F6:  DECFSZ 00,F
0D7F8:  BRA    D7F6
0D7FA:  MOVLB  5
....................          } 
....................          if(Pausa==3){ 
0D7FC:  MOVF   x9E,W
0D7FE:  SUBLW  03
0D800:  BNZ   D80E
....................             glcd_fillScreen(OFF); 
0D802:  MOVLB  7
0D804:  CLRF   xDE
0D806:  MOVLB  0
0D808:  CALL   1880
0D80C:  MOVLB  5
....................          } 
....................       }  
....................        
....................       if(tinicio>=60) 
0D80E:  MOVF   xAC,F
0D810:  BNZ   D818
0D812:  MOVF   xAB,W
0D814:  SUBLW  3B
0D816:  BC    D854
....................       { 
....................          tinicio=0; 
0D818:  CLRF   xAC
0D81A:  CLRF   xAB
....................          Testerilizacion[0]++; 
0D81C:  INCF   xE3,F
....................          if(Testerilizacion[0]>9) 
0D81E:  BTFSC  xE3.7
0D820:  BRA    D82C
0D822:  MOVF   xE3,W
0D824:  SUBLW  09
0D826:  BC    D82C
....................          { 
....................             Testerilizacion[0]=0; 
0D828:  CLRF   xE3
....................             Testerilizacion[1]++; 
0D82A:  INCF   xE4,F
....................          } 
....................          if(Testerilizacion[1]>5) 
0D82C:  BTFSC  xE4.7
0D82E:  BRA    D83A
0D830:  MOVF   xE4,W
0D832:  SUBLW  05
0D834:  BC    D83A
....................          { 
....................             Testerilizacion[1]=0; 
0D836:  CLRF   xE4
....................             Testerilizacion[2]++; 
0D838:  INCF   xE5,F
....................          } 
....................          if(Testerilizacion[2]>9) 
0D83A:  BTFSC  xE5.7
0D83C:  BRA    D848
0D83E:  MOVF   xE5,W
0D840:  SUBLW  09
0D842:  BC    D848
....................          { 
....................             Testerilizacion[2]=0; 
0D844:  CLRF   xE5
....................             Testerilizacion[3]++; 
0D846:  INCF   xE6,F
....................          } 
....................          if(Testerilizacion[3]>9) 
0D848:  BTFSC  xE6.7
0D84A:  BRA    D854
0D84C:  MOVF   xE6,W
0D84E:  SUBLW  09
0D850:  BC    D854
....................          { 
....................             Testerilizacion[3]=0; 
0D852:  CLRF   xE6
....................          } 
....................       } 
....................        
....................       if(LEFT)//Si oprime boton de Toma. 
0D854:  BSF    F96.2
0D856:  BTFSC  F84.2
0D858:  BRA    D898
....................       { 
....................          if(Pausa<3){ 
0D85A:  MOVF   x9E,W
0D85C:  SUBLW  02
0D85E:  BNC   D898
....................             if(Pausa!=2) 
0D860:  MOVF   x9E,W
0D862:  SUBLW  02
0D864:  BZ    D898
....................             { 
....................                delay_ms(500);Menu=30;glcd_fillscreen(OFF);Opcion=1;visual=1;Pausa=1;Menu=1; 
0D866:  MOVLW  02
0D868:  MOVLB  7
0D86A:  MOVWF  xDD
0D86C:  MOVLW  FA
0D86E:  MOVWF  xE3
0D870:  MOVLB  0
0D872:  CALL   1800
0D876:  MOVLB  7
0D878:  DECFSZ xDD,F
0D87A:  BRA    D86C
0D87C:  MOVLW  1E
0D87E:  MOVLB  5
0D880:  MOVWF  x9A
0D882:  MOVLB  7
0D884:  CLRF   xDE
0D886:  MOVLB  0
0D888:  CALL   1880
0D88C:  MOVLW  01
0D88E:  MOVLB  5
0D890:  MOVWF  xA1
0D892:  BSF    x95.0
0D894:  MOVWF  x9E
0D896:  MOVWF  x9A
....................             } 
....................          } 
....................       } 
....................        
....................       if(Pausa==3 && !DOOR){          
0D898:  MOVF   x9E,W
0D89A:  SUBLW  03
0D89C:  BNZ   D8FC
0D89E:  BSF    F92.4
0D8A0:  BTFSC  F80.4
0D8A2:  BRA    D8FC
....................          strcpy(Menus.Letra,"Status:Finalizado"); 
0D8A4:  MOVLW  07
0D8A6:  MOVWF  FEA
0D8A8:  MOVLW  BD
0D8AA:  MOVWF  FE9
0D8AC:  MOVFF  FF2,7DD
0D8B0:  BCF    FF2.7
0D8B2:  MOVLW  00
0D8B4:  MOVLB  0
0D8B6:  CALL   12C4
0D8BA:  TBLRD*-
0D8BC:  TBLRD*+
0D8BE:  MOVF   FF5,W
0D8C0:  MOVWF  FEE
0D8C2:  IORLW  00
0D8C4:  BNZ   D8BC
0D8C6:  MOVLB  7
0D8C8:  BTFSC  xDD.7
0D8CA:  BSF    FF2.7
....................          displayMenu(Menus.Letra,0,55,2,1); 
0D8CC:  MOVLW  07
0D8CE:  MOVWF  xE1
0D8D0:  MOVLW  BD
0D8D2:  MOVWF  xE0
0D8D4:  CLRF   xE2
0D8D6:  MOVLW  37
0D8D8:  MOVWF  xE3
0D8DA:  MOVLW  02
0D8DC:  MOVWF  xE4
0D8DE:  MOVLW  01
0D8E0:  MOVWF  xE5
0D8E2:  MOVLB  0
0D8E4:  CALL   1EC0
....................          tiempo_esterilizacion=4; 
0D8E8:  MOVLW  04
0D8EA:  MOVLB  5
0D8EC:  MOVWF  xA2
....................          Control=0; 
0D8EE:  CLRF   x99
....................          Resistencia_off; 
0D8F0:  BCF    F8B.0
0D8F2:  BCF    F94.0
....................          Tpulso=0.0; 
0D8F4:  CLRF   xFE
0D8F6:  CLRF   xFD
0D8F8:  CLRF   xFC
0D8FA:  CLRF   xFB
....................       } 
....................          
....................     } 
.................... //_--------------------------------------------------------------------------------------------------------------------------------------------------------        
....................  
.................... //_-------------------------------------------------------------------------------------------------------------------------------------------------------- 
....................       if(Menu==100){ //Menu de Configuracin de Parametros de Control 
0D8FC:  MOVF   x9A,W
0D8FE:  SUBLW  64
0D900:  BTFSS  FD8.2
0D902:  GOTO   E08C
....................        
....................       if(Opcion>11) 
0D906:  MOVF   xA1,W
0D908:  SUBLW  0B
0D90A:  BC    D910
....................       {Opcion=1;} 
0D90C:  MOVLW  01
0D90E:  MOVWF  xA1
....................       if(Opcion<1) 
0D910:  MOVF   xA1,F
0D912:  BNZ   D918
....................       {Opcion=11;} 
0D914:  MOVLW  0B
0D916:  MOVWF  xA1
....................        
....................       if(Opcion<=6){ 
0D918:  MOVF   xA1,W
0D91A:  SUBLW  06
0D91C:  BTFSS  FD8.0
0D91E:  BRA    DC7C
....................          if(Opcion==1)    
0D920:  DECFSZ xA1,W
0D922:  BRA    D968
....................             {strcpy(Menus.Letra,"Proporcional"); 
0D924:  MOVLW  07
0D926:  MOVWF  FEA
0D928:  MOVLW  BD
0D92A:  MOVWF  FE9
0D92C:  MOVFF  FF2,7DD
0D930:  BCF    FF2.7
0D932:  MOVLW  00
0D934:  MOVLB  0
0D936:  CALL   12F4
0D93A:  TBLRD*-
0D93C:  TBLRD*+
0D93E:  MOVF   FF5,W
0D940:  MOVWF  FEE
0D942:  IORLW  00
0D944:  BNZ   D93C
0D946:  MOVLB  7
0D948:  BTFSC  xDD.7
0D94A:  BSF    FF2.7
....................             displayMenu(Menus.Letra,0,0,1,1);} 
0D94C:  MOVLW  07
0D94E:  MOVWF  xE1
0D950:  MOVLW  BD
0D952:  MOVWF  xE0
0D954:  CLRF   xE2
0D956:  CLRF   xE3
0D958:  MOVLW  01
0D95A:  MOVWF  xE4
0D95C:  MOVWF  xE5
0D95E:  MOVLB  0
0D960:  CALL   1EC0
....................          else 
0D964:  BRA    D9A8
0D966:  MOVLB  5
....................             {strcpy(Menus.Letra,"Proporcional"); 
0D968:  MOVLW  07
0D96A:  MOVWF  FEA
0D96C:  MOVLW  BD
0D96E:  MOVWF  FE9
0D970:  MOVFF  FF2,7DD
0D974:  BCF    FF2.7
0D976:  MOVLW  00
0D978:  MOVLB  0
0D97A:  CALL   12F4
0D97E:  TBLRD*-
0D980:  TBLRD*+
0D982:  MOVF   FF5,W
0D984:  MOVWF  FEE
0D986:  IORLW  00
0D988:  BNZ   D980
0D98A:  MOVLB  7
0D98C:  BTFSC  xDD.7
0D98E:  BSF    FF2.7
....................             displayMenu(Menus.Letra,0,0,0,1);} 
0D990:  MOVLW  07
0D992:  MOVWF  xE1
0D994:  MOVLW  BD
0D996:  MOVWF  xE0
0D998:  CLRF   xE2
0D99A:  CLRF   xE3
0D99C:  CLRF   xE4
0D99E:  MOVLW  01
0D9A0:  MOVWF  xE5
0D9A2:  MOVLB  0
0D9A4:  CALL   1EC0
....................           
....................          if(Opcion==2)    
0D9A8:  MOVLB  5
0D9AA:  MOVF   xA1,W
0D9AC:  SUBLW  02
0D9AE:  BNZ   D9F6
....................             {strcpy(Menus.Letra,"Integral"); 
0D9B0:  MOVLW  07
0D9B2:  MOVWF  FEA
0D9B4:  MOVLW  BD
0D9B6:  MOVWF  FE9
0D9B8:  MOVFF  FF2,7DD
0D9BC:  BCF    FF2.7
0D9BE:  MOVLW  00
0D9C0:  MOVLB  0
0D9C2:  CALL   1320
0D9C6:  TBLRD*-
0D9C8:  TBLRD*+
0D9CA:  MOVF   FF5,W
0D9CC:  MOVWF  FEE
0D9CE:  IORLW  00
0D9D0:  BNZ   D9C8
0D9D2:  MOVLB  7
0D9D4:  BTFSC  xDD.7
0D9D6:  BSF    FF2.7
....................             displayMenu(Menus.Letra,0,9,1,1);} 
0D9D8:  MOVLW  07
0D9DA:  MOVWF  xE1
0D9DC:  MOVLW  BD
0D9DE:  MOVWF  xE0
0D9E0:  CLRF   xE2
0D9E2:  MOVLW  09
0D9E4:  MOVWF  xE3
0D9E6:  MOVLW  01
0D9E8:  MOVWF  xE4
0D9EA:  MOVWF  xE5
0D9EC:  MOVLB  0
0D9EE:  CALL   1EC0
....................          else 
0D9F2:  BRA    DA38
0D9F4:  MOVLB  5
....................             {strcpy(Menus.Letra,"Integral"); 
0D9F6:  MOVLW  07
0D9F8:  MOVWF  FEA
0D9FA:  MOVLW  BD
0D9FC:  MOVWF  FE9
0D9FE:  MOVFF  FF2,7DD
0DA02:  BCF    FF2.7
0DA04:  MOVLW  00
0DA06:  MOVLB  0
0DA08:  CALL   1320
0DA0C:  TBLRD*-
0DA0E:  TBLRD*+
0DA10:  MOVF   FF5,W
0DA12:  MOVWF  FEE
0DA14:  IORLW  00
0DA16:  BNZ   DA0E
0DA18:  MOVLB  7
0DA1A:  BTFSC  xDD.7
0DA1C:  BSF    FF2.7
....................             displayMenu(Menus.Letra,0,9,0,1);} 
0DA1E:  MOVLW  07
0DA20:  MOVWF  xE1
0DA22:  MOVLW  BD
0DA24:  MOVWF  xE0
0DA26:  CLRF   xE2
0DA28:  MOVLW  09
0DA2A:  MOVWF  xE3
0DA2C:  CLRF   xE4
0DA2E:  MOVLW  01
0DA30:  MOVWF  xE5
0DA32:  MOVLB  0
0DA34:  CALL   1EC0
....................              
....................          if(Opcion==3)    
0DA38:  MOVLB  5
0DA3A:  MOVF   xA1,W
0DA3C:  SUBLW  03
0DA3E:  BNZ   DA86
....................             {strcpy(Menus.Letra,"Derivativo"); 
0DA40:  MOVLW  07
0DA42:  MOVWF  FEA
0DA44:  MOVLW  BD
0DA46:  MOVWF  FE9
0DA48:  MOVFF  FF2,7DD
0DA4C:  BCF    FF2.7
0DA4E:  MOVLW  00
0DA50:  MOVLB  0
0DA52:  CALL   1348
0DA56:  TBLRD*-
0DA58:  TBLRD*+
0DA5A:  MOVF   FF5,W
0DA5C:  MOVWF  FEE
0DA5E:  IORLW  00
0DA60:  BNZ   DA58
0DA62:  MOVLB  7
0DA64:  BTFSC  xDD.7
0DA66:  BSF    FF2.7
....................             displayMenu(Menus.Letra,0,18,1,1);} 
0DA68:  MOVLW  07
0DA6A:  MOVWF  xE1
0DA6C:  MOVLW  BD
0DA6E:  MOVWF  xE0
0DA70:  CLRF   xE2
0DA72:  MOVLW  12
0DA74:  MOVWF  xE3
0DA76:  MOVLW  01
0DA78:  MOVWF  xE4
0DA7A:  MOVWF  xE5
0DA7C:  MOVLB  0
0DA7E:  CALL   1EC0
....................          else 
0DA82:  BRA    DAC8
0DA84:  MOVLB  5
....................             {strcpy(Menus.Letra,"Derivativo"); 
0DA86:  MOVLW  07
0DA88:  MOVWF  FEA
0DA8A:  MOVLW  BD
0DA8C:  MOVWF  FE9
0DA8E:  MOVFF  FF2,7DD
0DA92:  BCF    FF2.7
0DA94:  MOVLW  00
0DA96:  MOVLB  0
0DA98:  CALL   1348
0DA9C:  TBLRD*-
0DA9E:  TBLRD*+
0DAA0:  MOVF   FF5,W
0DAA2:  MOVWF  FEE
0DAA4:  IORLW  00
0DAA6:  BNZ   DA9E
0DAA8:  MOVLB  7
0DAAA:  BTFSC  xDD.7
0DAAC:  BSF    FF2.7
....................             displayMenu(Menus.Letra,0,18,0,1);}    
0DAAE:  MOVLW  07
0DAB0:  MOVWF  xE1
0DAB2:  MOVLW  BD
0DAB4:  MOVWF  xE0
0DAB6:  CLRF   xE2
0DAB8:  MOVLW  12
0DABA:  MOVWF  xE3
0DABC:  CLRF   xE4
0DABE:  MOVLW  01
0DAC0:  MOVWF  xE5
0DAC2:  MOVLB  0
0DAC4:  CALL   1EC0
....................           
....................          if(Opcion==4)    
0DAC8:  MOVLB  5
0DACA:  MOVF   xA1,W
0DACC:  SUBLW  04
0DACE:  BNZ   DB16
....................             {strcpy(Menus.Letra,"Tciclo"); 
0DAD0:  MOVLW  07
0DAD2:  MOVWF  FEA
0DAD4:  MOVLW  BD
0DAD6:  MOVWF  FE9
0DAD8:  MOVFF  FF2,7DD
0DADC:  BCF    FF2.7
0DADE:  MOVLW  00
0DAE0:  MOVLB  0
0DAE2:  CALL   1372
0DAE6:  TBLRD*-
0DAE8:  TBLRD*+
0DAEA:  MOVF   FF5,W
0DAEC:  MOVWF  FEE
0DAEE:  IORLW  00
0DAF0:  BNZ   DAE8
0DAF2:  MOVLB  7
0DAF4:  BTFSC  xDD.7
0DAF6:  BSF    FF2.7
....................             displayMenu(Menus.Letra,0,27,1,1);} 
0DAF8:  MOVLW  07
0DAFA:  MOVWF  xE1
0DAFC:  MOVLW  BD
0DAFE:  MOVWF  xE0
0DB00:  CLRF   xE2
0DB02:  MOVLW  1B
0DB04:  MOVWF  xE3
0DB06:  MOVLW  01
0DB08:  MOVWF  xE4
0DB0A:  MOVWF  xE5
0DB0C:  MOVLB  0
0DB0E:  CALL   1EC0
....................          else 
0DB12:  BRA    DB58
0DB14:  MOVLB  5
....................             {strcpy(Menus.Letra,"Tciclo"); 
0DB16:  MOVLW  07
0DB18:  MOVWF  FEA
0DB1A:  MOVLW  BD
0DB1C:  MOVWF  FE9
0DB1E:  MOVFF  FF2,7DD
0DB22:  BCF    FF2.7
0DB24:  MOVLW  00
0DB26:  MOVLB  0
0DB28:  CALL   1372
0DB2C:  TBLRD*-
0DB2E:  TBLRD*+
0DB30:  MOVF   FF5,W
0DB32:  MOVWF  FEE
0DB34:  IORLW  00
0DB36:  BNZ   DB2E
0DB38:  MOVLB  7
0DB3A:  BTFSC  xDD.7
0DB3C:  BSF    FF2.7
....................             displayMenu(Menus.Letra,0,27,0,1);} 
0DB3E:  MOVLW  07
0DB40:  MOVWF  xE1
0DB42:  MOVLW  BD
0DB44:  MOVWF  xE0
0DB46:  CLRF   xE2
0DB48:  MOVLW  1B
0DB4A:  MOVWF  xE3
0DB4C:  CLRF   xE4
0DB4E:  MOVLW  01
0DB50:  MOVWF  xE5
0DB52:  MOVLB  0
0DB54:  CALL   1EC0
....................              
....................          if(Opcion==5)    
0DB58:  MOVLB  5
0DB5A:  MOVF   xA1,W
0DB5C:  SUBLW  05
0DB5E:  BNZ   DBA6
....................             {strcpy(Menus.Letra,"Ajuste +"); 
0DB60:  MOVLW  07
0DB62:  MOVWF  FEA
0DB64:  MOVLW  BD
0DB66:  MOVWF  FE9
0DB68:  MOVFF  FF2,7DD
0DB6C:  BCF    FF2.7
0DB6E:  MOVLW  00
0DB70:  MOVLB  0
0DB72:  CALL   1398
0DB76:  TBLRD*-
0DB78:  TBLRD*+
0DB7A:  MOVF   FF5,W
0DB7C:  MOVWF  FEE
0DB7E:  IORLW  00
0DB80:  BNZ   DB78
0DB82:  MOVLB  7
0DB84:  BTFSC  xDD.7
0DB86:  BSF    FF2.7
....................             displayMenu(Menus.Letra,0,36,1,1);} 
0DB88:  MOVLW  07
0DB8A:  MOVWF  xE1
0DB8C:  MOVLW  BD
0DB8E:  MOVWF  xE0
0DB90:  CLRF   xE2
0DB92:  MOVLW  24
0DB94:  MOVWF  xE3
0DB96:  MOVLW  01
0DB98:  MOVWF  xE4
0DB9A:  MOVWF  xE5
0DB9C:  MOVLB  0
0DB9E:  CALL   1EC0
....................          else 
0DBA2:  BRA    DBE8
0DBA4:  MOVLB  5
....................             {strcpy(Menus.Letra,"Ajuste +"); 
0DBA6:  MOVLW  07
0DBA8:  MOVWF  FEA
0DBAA:  MOVLW  BD
0DBAC:  MOVWF  FE9
0DBAE:  MOVFF  FF2,7DD
0DBB2:  BCF    FF2.7
0DBB4:  MOVLW  00
0DBB6:  MOVLB  0
0DBB8:  CALL   1398
0DBBC:  TBLRD*-
0DBBE:  TBLRD*+
0DBC0:  MOVF   FF5,W
0DBC2:  MOVWF  FEE
0DBC4:  IORLW  00
0DBC6:  BNZ   DBBE
0DBC8:  MOVLB  7
0DBCA:  BTFSC  xDD.7
0DBCC:  BSF    FF2.7
....................             displayMenu(Menus.Letra,0,36,0,1);}    
0DBCE:  MOVLW  07
0DBD0:  MOVWF  xE1
0DBD2:  MOVLW  BD
0DBD4:  MOVWF  xE0
0DBD6:  CLRF   xE2
0DBD8:  MOVLW  24
0DBDA:  MOVWF  xE3
0DBDC:  CLRF   xE4
0DBDE:  MOVLW  01
0DBE0:  MOVWF  xE5
0DBE2:  MOVLB  0
0DBE4:  CALL   1EC0
....................                          
....................          if(Opcion==6)    
0DBE8:  MOVLB  5
0DBEA:  MOVF   xA1,W
0DBEC:  SUBLW  06
0DBEE:  BNZ   DC36
....................             {strcpy(Menus.Letra,"Ajuste -"); 
0DBF0:  MOVLW  07
0DBF2:  MOVWF  FEA
0DBF4:  MOVLW  BD
0DBF6:  MOVWF  FE9
0DBF8:  MOVFF  FF2,7DD
0DBFC:  BCF    FF2.7
0DBFE:  MOVLW  00
0DC00:  MOVLB  0
0DC02:  CALL   13C0
0DC06:  TBLRD*-
0DC08:  TBLRD*+
0DC0A:  MOVF   FF5,W
0DC0C:  MOVWF  FEE
0DC0E:  IORLW  00
0DC10:  BNZ   DC08
0DC12:  MOVLB  7
0DC14:  BTFSC  xDD.7
0DC16:  BSF    FF2.7
....................             displayMenu(Menus.Letra,0,45,1,1);} 
0DC18:  MOVLW  07
0DC1A:  MOVWF  xE1
0DC1C:  MOVLW  BD
0DC1E:  MOVWF  xE0
0DC20:  CLRF   xE2
0DC22:  MOVLW  2D
0DC24:  MOVWF  xE3
0DC26:  MOVLW  01
0DC28:  MOVWF  xE4
0DC2A:  MOVWF  xE5
0DC2C:  MOVLB  0
0DC2E:  CALL   1EC0
....................          else 
0DC32:  BRA    DC78
0DC34:  MOVLB  5
....................             {strcpy(Menus.Letra,"Ajuste -"); 
0DC36:  MOVLW  07
0DC38:  MOVWF  FEA
0DC3A:  MOVLW  BD
0DC3C:  MOVWF  FE9
0DC3E:  MOVFF  FF2,7DD
0DC42:  BCF    FF2.7
0DC44:  MOVLW  00
0DC46:  MOVLB  0
0DC48:  CALL   13C0
0DC4C:  TBLRD*-
0DC4E:  TBLRD*+
0DC50:  MOVF   FF5,W
0DC52:  MOVWF  FEE
0DC54:  IORLW  00
0DC56:  BNZ   DC4E
0DC58:  MOVLB  7
0DC5A:  BTFSC  xDD.7
0DC5C:  BSF    FF2.7
....................             displayMenu(Menus.Letra,0,45,0,1);}      
0DC5E:  MOVLW  07
0DC60:  MOVWF  xE1
0DC62:  MOVLW  BD
0DC64:  MOVWF  xE0
0DC66:  CLRF   xE2
0DC68:  MOVLW  2D
0DC6A:  MOVWF  xE3
0DC6C:  CLRF   xE4
0DC6E:  MOVLW  01
0DC70:  MOVWF  xE5
0DC72:  MOVLB  0
0DC74:  CALL   1EC0
....................       } 
....................       else{ 
0DC78:  BRA    DF86
0DC7A:  MOVLB  5
....................          if(Opcion==7)    
0DC7C:  MOVF   xA1,W
0DC7E:  SUBLW  07
0DC80:  BNZ   DCC6
....................             {strcpy(Menus.Letra,"Media Movil"); 
0DC82:  MOVLW  07
0DC84:  MOVWF  FEA
0DC86:  MOVLW  BD
0DC88:  MOVWF  FE9
0DC8A:  MOVFF  FF2,7DD
0DC8E:  BCF    FF2.7
0DC90:  MOVLW  00
0DC92:  MOVLB  0
0DC94:  CALL   13E8
0DC98:  TBLRD*-
0DC9A:  TBLRD*+
0DC9C:  MOVF   FF5,W
0DC9E:  MOVWF  FEE
0DCA0:  IORLW  00
0DCA2:  BNZ   DC9A
0DCA4:  MOVLB  7
0DCA6:  BTFSC  xDD.7
0DCA8:  BSF    FF2.7
....................             displayMenu(Menus.Letra,0,0,1,1);} 
0DCAA:  MOVLW  07
0DCAC:  MOVWF  xE1
0DCAE:  MOVLW  BD
0DCB0:  MOVWF  xE0
0DCB2:  CLRF   xE2
0DCB4:  CLRF   xE3
0DCB6:  MOVLW  01
0DCB8:  MOVWF  xE4
0DCBA:  MOVWF  xE5
0DCBC:  MOVLB  0
0DCBE:  CALL   1EC0
....................          else 
0DCC2:  BRA    DD06
0DCC4:  MOVLB  5
....................             {strcpy(Menus.Letra,"Media Movil"); 
0DCC6:  MOVLW  07
0DCC8:  MOVWF  FEA
0DCCA:  MOVLW  BD
0DCCC:  MOVWF  FE9
0DCCE:  MOVFF  FF2,7DD
0DCD2:  BCF    FF2.7
0DCD4:  MOVLW  00
0DCD6:  MOVLB  0
0DCD8:  CALL   13E8
0DCDC:  TBLRD*-
0DCDE:  TBLRD*+
0DCE0:  MOVF   FF5,W
0DCE2:  MOVWF  FEE
0DCE4:  IORLW  00
0DCE6:  BNZ   DCDE
0DCE8:  MOVLB  7
0DCEA:  BTFSC  xDD.7
0DCEC:  BSF    FF2.7
....................             displayMenu(Menus.Letra,0,0,0,1);}      
0DCEE:  MOVLW  07
0DCF0:  MOVWF  xE1
0DCF2:  MOVLW  BD
0DCF4:  MOVWF  xE0
0DCF6:  CLRF   xE2
0DCF8:  CLRF   xE3
0DCFA:  CLRF   xE4
0DCFC:  MOVLW  01
0DCFE:  MOVWF  xE5
0DD00:  MOVLB  0
0DD02:  CALL   1EC0
....................              
....................          if(Opcion==8)    
0DD06:  MOVLB  5
0DD08:  MOVF   xA1,W
0DD0A:  SUBLW  08
0DD0C:  BNZ   DD54
....................             {strcpy(Menus.Letra,"Coeficiente"); 
0DD0E:  MOVLW  07
0DD10:  MOVWF  FEA
0DD12:  MOVLW  BD
0DD14:  MOVWF  FE9
0DD16:  MOVFF  FF2,7DD
0DD1A:  BCF    FF2.7
0DD1C:  MOVLW  00
0DD1E:  MOVLB  0
0DD20:  CALL   1412
0DD24:  TBLRD*-
0DD26:  TBLRD*+
0DD28:  MOVF   FF5,W
0DD2A:  MOVWF  FEE
0DD2C:  IORLW  00
0DD2E:  BNZ   DD26
0DD30:  MOVLB  7
0DD32:  BTFSC  xDD.7
0DD34:  BSF    FF2.7
....................             displayMenu(Menus.Letra,0,9,1,1);} 
0DD36:  MOVLW  07
0DD38:  MOVWF  xE1
0DD3A:  MOVLW  BD
0DD3C:  MOVWF  xE0
0DD3E:  CLRF   xE2
0DD40:  MOVLW  09
0DD42:  MOVWF  xE3
0DD44:  MOVLW  01
0DD46:  MOVWF  xE4
0DD48:  MOVWF  xE5
0DD4A:  MOVLB  0
0DD4C:  CALL   1EC0
....................          else 
0DD50:  BRA    DD96
0DD52:  MOVLB  5
....................             {strcpy(Menus.Letra,"Coeficiente"); 
0DD54:  MOVLW  07
0DD56:  MOVWF  FEA
0DD58:  MOVLW  BD
0DD5A:  MOVWF  FE9
0DD5C:  MOVFF  FF2,7DD
0DD60:  BCF    FF2.7
0DD62:  MOVLW  00
0DD64:  MOVLB  0
0DD66:  CALL   1412
0DD6A:  TBLRD*-
0DD6C:  TBLRD*+
0DD6E:  MOVF   FF5,W
0DD70:  MOVWF  FEE
0DD72:  IORLW  00
0DD74:  BNZ   DD6C
0DD76:  MOVLB  7
0DD78:  BTFSC  xDD.7
0DD7A:  BSF    FF2.7
....................             displayMenu(Menus.Letra,0,9,0,1);}   
0DD7C:  MOVLW  07
0DD7E:  MOVWF  xE1
0DD80:  MOVLW  BD
0DD82:  MOVWF  xE0
0DD84:  CLRF   xE2
0DD86:  MOVLW  09
0DD88:  MOVWF  xE3
0DD8A:  CLRF   xE4
0DD8C:  MOVLW  01
0DD8E:  MOVWF  xE5
0DD90:  MOVLB  0
0DD92:  CALL   1EC0
....................              
....................          if(Opcion==9)    
0DD96:  MOVLB  5
0DD98:  MOVF   xA1,W
0DD9A:  SUBLW  09
0DD9C:  BNZ   DDE4
....................             {strcpy(Menus.Letra,"Alarma SobreT"); 
0DD9E:  MOVLW  07
0DDA0:  MOVWF  FEA
0DDA2:  MOVLW  BD
0DDA4:  MOVWF  FE9
0DDA6:  MOVFF  FF2,7DD
0DDAA:  BCF    FF2.7
0DDAC:  MOVLW  00
0DDAE:  MOVLB  0
0DDB0:  CALL   143C
0DDB4:  TBLRD*-
0DDB6:  TBLRD*+
0DDB8:  MOVF   FF5,W
0DDBA:  MOVWF  FEE
0DDBC:  IORLW  00
0DDBE:  BNZ   DDB6
0DDC0:  MOVLB  7
0DDC2:  BTFSC  xDD.7
0DDC4:  BSF    FF2.7
....................             displayMenu(Menus.Letra,0,18,1,1);} 
0DDC6:  MOVLW  07
0DDC8:  MOVWF  xE1
0DDCA:  MOVLW  BD
0DDCC:  MOVWF  xE0
0DDCE:  CLRF   xE2
0DDD0:  MOVLW  12
0DDD2:  MOVWF  xE3
0DDD4:  MOVLW  01
0DDD6:  MOVWF  xE4
0DDD8:  MOVWF  xE5
0DDDA:  MOVLB  0
0DDDC:  CALL   1EC0
....................          else 
0DDE0:  BRA    DE26
0DDE2:  MOVLB  5
....................             {strcpy(Menus.Letra,"Alarma SobreT"); 
0DDE4:  MOVLW  07
0DDE6:  MOVWF  FEA
0DDE8:  MOVLW  BD
0DDEA:  MOVWF  FE9
0DDEC:  MOVFF  FF2,7DD
0DDF0:  BCF    FF2.7
0DDF2:  MOVLW  00
0DDF4:  MOVLB  0
0DDF6:  CALL   143C
0DDFA:  TBLRD*-
0DDFC:  TBLRD*+
0DDFE:  MOVF   FF5,W
0DE00:  MOVWF  FEE
0DE02:  IORLW  00
0DE04:  BNZ   DDFC
0DE06:  MOVLB  7
0DE08:  BTFSC  xDD.7
0DE0A:  BSF    FF2.7
....................             displayMenu(Menus.Letra,0,18,0,1);}      
0DE0C:  MOVLW  07
0DE0E:  MOVWF  xE1
0DE10:  MOVLW  BD
0DE12:  MOVWF  xE0
0DE14:  CLRF   xE2
0DE16:  MOVLW  12
0DE18:  MOVWF  xE3
0DE1A:  CLRF   xE4
0DE1C:  MOVLW  01
0DE1E:  MOVWF  xE5
0DE20:  MOVLB  0
0DE22:  CALL   1EC0
....................              
....................          if(Opcion==10)    
0DE26:  MOVLB  5
0DE28:  MOVF   xA1,W
0DE2A:  SUBLW  0A
0DE2C:  BNZ   DE74
....................             {strcpy(Menus.Letra,"Resistencia"); 
0DE2E:  MOVLW  07
0DE30:  MOVWF  FEA
0DE32:  MOVLW  BD
0DE34:  MOVWF  FE9
0DE36:  MOVFF  FF2,7DD
0DE3A:  BCF    FF2.7
0DE3C:  MOVLW  00
0DE3E:  MOVLB  0
0DE40:  CALL   1468
0DE44:  TBLRD*-
0DE46:  TBLRD*+
0DE48:  MOVF   FF5,W
0DE4A:  MOVWF  FEE
0DE4C:  IORLW  00
0DE4E:  BNZ   DE46
0DE50:  MOVLB  7
0DE52:  BTFSC  xDD.7
0DE54:  BSF    FF2.7
....................             displayMenu(Menus.Letra,0,27,1,1);} 
0DE56:  MOVLW  07
0DE58:  MOVWF  xE1
0DE5A:  MOVLW  BD
0DE5C:  MOVWF  xE0
0DE5E:  CLRF   xE2
0DE60:  MOVLW  1B
0DE62:  MOVWF  xE3
0DE64:  MOVLW  01
0DE66:  MOVWF  xE4
0DE68:  MOVWF  xE5
0DE6A:  MOVLB  0
0DE6C:  CALL   1EC0
....................          else 
0DE70:  BRA    DEB6
0DE72:  MOVLB  5
....................             {strcpy(Menus.Letra,"Resistencia"); 
0DE74:  MOVLW  07
0DE76:  MOVWF  FEA
0DE78:  MOVLW  BD
0DE7A:  MOVWF  FE9
0DE7C:  MOVFF  FF2,7DD
0DE80:  BCF    FF2.7
0DE82:  MOVLW  00
0DE84:  MOVLB  0
0DE86:  CALL   1468
0DE8A:  TBLRD*-
0DE8C:  TBLRD*+
0DE8E:  MOVF   FF5,W
0DE90:  MOVWF  FEE
0DE92:  IORLW  00
0DE94:  BNZ   DE8C
0DE96:  MOVLB  7
0DE98:  BTFSC  xDD.7
0DE9A:  BSF    FF2.7
....................             displayMenu(Menus.Letra,0,27,0,1);}      
0DE9C:  MOVLW  07
0DE9E:  MOVWF  xE1
0DEA0:  MOVLW  BD
0DEA2:  MOVWF  xE0
0DEA4:  CLRF   xE2
0DEA6:  MOVLW  1B
0DEA8:  MOVWF  xE3
0DEAA:  CLRF   xE4
0DEAC:  MOVLW  01
0DEAE:  MOVWF  xE5
0DEB0:  MOVLB  0
0DEB2:  CALL   1EC0
....................              
....................          if(Opcion==11)    
0DEB6:  MOVLB  5
0DEB8:  MOVF   xA1,W
0DEBA:  SUBLW  0B
0DEBC:  BNZ   DF04
....................             {strcpy(Menus.Letra,"m Mufla"); 
0DEBE:  MOVLW  07
0DEC0:  MOVWF  FEA
0DEC2:  MOVLW  BD
0DEC4:  MOVWF  FE9
0DEC6:  MOVFF  FF2,7DD
0DECA:  BCF    FF2.7
0DECC:  MOVLW  00
0DECE:  MOVLB  0
0DED0:  CALL   1492
0DED4:  TBLRD*-
0DED6:  TBLRD*+
0DED8:  MOVF   FF5,W
0DEDA:  MOVWF  FEE
0DEDC:  IORLW  00
0DEDE:  BNZ   DED6
0DEE0:  MOVLB  7
0DEE2:  BTFSC  xDD.7
0DEE4:  BSF    FF2.7
....................             displayMenu(Menus.Letra,0,36,1,1);} 
0DEE6:  MOVLW  07
0DEE8:  MOVWF  xE1
0DEEA:  MOVLW  BD
0DEEC:  MOVWF  xE0
0DEEE:  CLRF   xE2
0DEF0:  MOVLW  24
0DEF2:  MOVWF  xE3
0DEF4:  MOVLW  01
0DEF6:  MOVWF  xE4
0DEF8:  MOVWF  xE5
0DEFA:  MOVLB  0
0DEFC:  CALL   1EC0
....................          else 
0DF00:  BRA    DF46
0DF02:  MOVLB  5
....................             {strcpy(Menus.Letra,"m Mufla"); 
0DF04:  MOVLW  07
0DF06:  MOVWF  FEA
0DF08:  MOVLW  BD
0DF0A:  MOVWF  FE9
0DF0C:  MOVFF  FF2,7DD
0DF10:  BCF    FF2.7
0DF12:  MOVLW  00
0DF14:  MOVLB  0
0DF16:  CALL   1492
0DF1A:  TBLRD*-
0DF1C:  TBLRD*+
0DF1E:  MOVF   FF5,W
0DF20:  MOVWF  FEE
0DF22:  IORLW  00
0DF24:  BNZ   DF1C
0DF26:  MOVLB  7
0DF28:  BTFSC  xDD.7
0DF2A:  BSF    FF2.7
....................             displayMenu(Menus.Letra,0,36,0,1);}      
0DF2C:  MOVLW  07
0DF2E:  MOVWF  xE1
0DF30:  MOVLW  BD
0DF32:  MOVWF  xE0
0DF34:  CLRF   xE2
0DF36:  MOVLW  24
0DF38:  MOVWF  xE3
0DF3A:  CLRF   xE4
0DF3C:  MOVLW  01
0DF3E:  MOVWF  xE5
0DF40:  MOVLB  0
0DF42:  CALL   1EC0
....................              
....................             strcpy(Menus.Letra,"            "); 
0DF46:  MOVLW  07
0DF48:  MOVWF  FEA
0DF4A:  MOVLW  BD
0DF4C:  MOVWF  FE9
0DF4E:  MOVFF  FF2,7DD
0DF52:  BCF    FF2.7
0DF54:  MOVLW  00
0DF56:  CALL   14B8
0DF5A:  TBLRD*-
0DF5C:  TBLRD*+
0DF5E:  MOVF   FF5,W
0DF60:  MOVWF  FEE
0DF62:  IORLW  00
0DF64:  BNZ   DF5C
0DF66:  MOVLB  7
0DF68:  BTFSC  xDD.7
0DF6A:  BSF    FF2.7
....................             displayMenu(Menus.Letra,0,45,0,1); 
0DF6C:  MOVLW  07
0DF6E:  MOVWF  xE1
0DF70:  MOVLW  BD
0DF72:  MOVWF  xE0
0DF74:  CLRF   xE2
0DF76:  MOVLW  2D
0DF78:  MOVWF  xE3
0DF7A:  CLRF   xE4
0DF7C:  MOVLW  01
0DF7E:  MOVWF  xE5
0DF80:  MOVLB  0
0DF82:  CALL   1EC0
....................       }    
....................        
....................          if(UP)//Si oprime hacia arriba 
0DF86:  BSF    F92.5
0DF88:  BTFSC  F80.5
0DF8A:  BRA    DFBC
....................          { 
....................             Buzz_on;delay_ms(10);Buzz_off; 
0DF8C:  BSF    F8B.4
0DF8E:  BCF    F94.4
0DF90:  MOVLW  0A
0DF92:  MOVLB  7
0DF94:  MOVWF  xE3
0DF96:  MOVLB  0
0DF98:  CALL   1800
0DF9C:  BCF    F8B.4
0DF9E:  BCF    F94.4
....................             if(Flanco == 0) 
0DFA0:  MOVLB  5
0DFA2:  BTFSC  x87.5
0DFA4:  BRA    DFBA
....................                {Flanco = 1;delay_ms(30);Opcion--;visual=1; 
0DFA6:  BSF    x87.5
0DFA8:  MOVLW  1E
0DFAA:  MOVLB  7
0DFAC:  MOVWF  xE3
0DFAE:  MOVLB  0
0DFB0:  CALL   1800
0DFB4:  MOVLB  5
0DFB6:  DECF   xA1,F
0DFB8:  BSF    x95.0
....................                } 
....................          } 
....................             else 
0DFBA:  BRA    DFC0
....................                {Flanco = 0;} 
0DFBC:  MOVLB  5
0DFBE:  BCF    x87.5
....................                    
....................          if(DOWN)//Si oprime hacia abajo 
0DFC0:  BSF    F96.0
0DFC2:  BTFSC  F84.0
0DFC4:  BRA    DFF6
....................          { 
....................             Buzz_on;delay_ms(10);Buzz_off; 
0DFC6:  BSF    F8B.4
0DFC8:  BCF    F94.4
0DFCA:  MOVLW  0A
0DFCC:  MOVLB  7
0DFCE:  MOVWF  xE3
0DFD0:  MOVLB  0
0DFD2:  CALL   1800
0DFD6:  BCF    F8B.4
0DFD8:  BCF    F94.4
....................             if(Flanco2 == 0) 
0DFDA:  MOVLB  5
0DFDC:  BTFSC  x87.7
0DFDE:  BRA    DFF4
....................                {Flanco2 = 1;delay_ms(30);Opcion++;visual=1; 
0DFE0:  BSF    x87.7
0DFE2:  MOVLW  1E
0DFE4:  MOVLB  7
0DFE6:  MOVWF  xE3
0DFE8:  MOVLB  0
0DFEA:  CALL   1800
0DFEE:  MOVLB  5
0DFF0:  INCF   xA1,F
0DFF2:  BSF    x95.0
....................                }      
....................          } 
....................             else 
0DFF4:  BRA    DFF8
....................                {Flanco2 = 0;}   
0DFF6:  BCF    x87.7
....................                 
....................          if(RIGHT)//Si oprime SET 
0DFF8:  BSF    F96.1
0DFFA:  BTFSC  F84.1
0DFFC:  BRA    E042
....................          {   
....................             Buzz_on;delay_ms(10);Buzz_off; 
0DFFE:  BSF    F8B.4
0E000:  BCF    F94.4
0E002:  MOVLW  0A
0E004:  MOVLB  7
0E006:  MOVWF  xE3
0E008:  MOVLB  0
0E00A:  CALL   1800
0E00E:  BCF    F8B.4
0E010:  BCF    F94.4
....................             if(Flanco1 == 0) 
0E012:  MOVLB  5
0E014:  BTFSC  x87.6
0E016:  BRA    E040
....................                {Flanco1 = 1;delay_ms(30);Menu=Opcion+100;Opcion=1;glcd_fillscreen(OFF);visual=1; 
0E018:  BSF    x87.6
0E01A:  MOVLW  1E
0E01C:  MOVLB  7
0E01E:  MOVWF  xE3
0E020:  MOVLB  0
0E022:  CALL   1800
0E026:  MOVLW  64
0E028:  MOVLB  5
0E02A:  ADDWF  xA1,W
0E02C:  MOVWF  x9A
0E02E:  MOVLW  01
0E030:  MOVWF  xA1
0E032:  MOVLB  7
0E034:  CLRF   xDE
0E036:  MOVLB  0
0E038:  CALL   1880
0E03C:  MOVLB  5
0E03E:  BSF    x95.0
....................                } 
....................          } 
....................             else 
0E040:  BRA    E044
....................                {Flanco1 = 0;}  
0E042:  BCF    x87.6
....................                 
....................          if(LEFT)//Si oprime boton de Toma. 
0E044:  BSF    F96.2
0E046:  BTFSC  F84.2
0E048:  BRA    E08C
....................          { 
....................             Buzz_on;delay_ms(10);Buzz_off; 
0E04A:  BSF    F8B.4
0E04C:  BCF    F94.4
0E04E:  MOVLW  0A
0E050:  MOVLB  7
0E052:  MOVWF  xE3
0E054:  MOVLB  0
0E056:  CALL   1800
0E05A:  BCF    F8B.4
0E05C:  BCF    F94.4
....................             delay_ms(700);Menu=1;glcd_fillscreen(OFF);Opcion=1;visual=1;             
0E05E:  MOVLW  04
0E060:  MOVLB  7
0E062:  MOVWF  xDD
0E064:  MOVLW  AF
0E066:  MOVWF  xE3
0E068:  MOVLB  0
0E06A:  CALL   1800
0E06E:  MOVLB  7
0E070:  DECFSZ xDD,F
0E072:  BRA    E064
0E074:  MOVLW  01
0E076:  MOVLB  5
0E078:  MOVWF  x9A
0E07A:  MOVLB  7
0E07C:  CLRF   xDE
0E07E:  MOVLB  0
0E080:  CALL   1880
0E084:  MOVLW  01
0E086:  MOVLB  5
0E088:  MOVWF  xA1
0E08A:  BSF    x95.0
....................          }       
....................          
....................     } 
.................... //_--------------------------------------------------------------------------------------------------------------------------------------------------------        
....................  
.................... //_--------------------------------------------------------------------------------------------------------------------------------------------------------       
....................       if(Menu==101){ // Menu de Ajuste de Ganancia 
0E08C:  MOVF   x9A,W
0E08E:  SUBLW  65
0E090:  BTFSS  FD8.2
0E092:  BRA    E33A
....................        
....................       if(Ganancia>40) 
0E094:  MOVLB  7
0E096:  CLRF   xE0
0E098:  CLRF   xDF
0E09A:  MOVLW  20
0E09C:  MOVWF  xDE
0E09E:  MOVLW  84
0E0A0:  MOVWF  xDD
0E0A2:  MOVFF  616,7E4
0E0A6:  MOVFF  615,7E3
0E0AA:  MOVFF  614,7E2
0E0AE:  MOVFF  613,7E1
0E0B2:  MOVLB  0
0E0B4:  CALL   21FE
0E0B8:  BNC   E0C6
....................       { 
....................          Ganancia=2; 
0E0BA:  MOVLB  6
0E0BC:  CLRF   x16
0E0BE:  CLRF   x15
0E0C0:  CLRF   x14
0E0C2:  MOVLW  80
0E0C4:  MOVWF  x13
....................       } 
....................        
....................       if(visual==1) 
0E0C6:  MOVLB  5
0E0C8:  BTFSS  x95.0
0E0CA:  BRA    E152
....................       { 
....................          glcd_fillScreen(OFF); 
0E0CC:  MOVLB  7
0E0CE:  CLRF   xDE
0E0D0:  MOVLB  0
0E0D2:  CALL   1880
....................          strcpy(Menus.Letra,"P"); 
0E0D6:  MOVLW  07
0E0D8:  MOVWF  FEA
0E0DA:  MOVLW  BD
0E0DC:  MOVWF  FE9
0E0DE:  MOVFF  FF2,7DD
0E0E2:  BCF    FF2.7
0E0E4:  MOVLW  00
0E0E6:  CALL   14E4
0E0EA:  TBLRD*-
0E0EC:  TBLRD*+
0E0EE:  MOVF   FF5,W
0E0F0:  MOVWF  FEE
0E0F2:  IORLW  00
0E0F4:  BNZ   E0EC
0E0F6:  MOVLB  7
0E0F8:  BTFSC  xDD.7
0E0FA:  BSF    FF2.7
....................          displayMenu(Menus.Letra,0,0,1,2); 
0E0FC:  MOVLW  07
0E0FE:  MOVWF  xE1
0E100:  MOVLW  BD
0E102:  MOVWF  xE0
0E104:  CLRF   xE2
0E106:  CLRF   xE3
0E108:  MOVLW  01
0E10A:  MOVWF  xE4
0E10C:  MOVLW  02
0E10E:  MOVWF  xE5
0E110:  MOVLB  0
0E112:  CALL   1EC0
....................           
....................          displayTemperatura(Ganancia,30,30,0,3); 
0E116:  MOVFF  616,7E0
0E11A:  MOVFF  615,7DF
0E11E:  MOVFF  614,7DE
0E122:  MOVFF  613,7DD
0E126:  CALL   635C
0E12A:  MOVFF  02,7DE
0E12E:  MOVFF  01,7DD
0E132:  MOVFF  02,7E3
0E136:  MOVFF  01,7E2
0E13A:  MOVLW  1E
0E13C:  MOVLB  7
0E13E:  MOVWF  xE4
0E140:  MOVWF  xE5
0E142:  CLRF   xE6
0E144:  MOVLW  03
0E146:  MOVWF  xE7
0E148:  MOVLB  0
0E14A:  CALL   4B6A
....................           
....................          visual=0; 
0E14E:  MOVLB  5
0E150:  BCF    x95.0
....................       } 
....................        
....................          if(UP)//Si oprime hacia arriba 
0E152:  BSF    F92.5
0E154:  BTFSC  F80.5
0E156:  BRA    E1F8
....................          {   
....................             Buzz_on;delay_ms(10);Buzz_off; 
0E158:  BSF    F8B.4
0E15A:  BCF    F94.4
0E15C:  MOVLW  0A
0E15E:  MOVLB  7
0E160:  MOVWF  xE3
0E162:  MOVLB  0
0E164:  CALL   1800
0E168:  BCF    F8B.4
0E16A:  BCF    F94.4
....................             if(Ganancia>40) 
0E16C:  MOVLB  7
0E16E:  CLRF   xE0
0E170:  CLRF   xDF
0E172:  MOVLW  20
0E174:  MOVWF  xDE
0E176:  MOVLW  84
0E178:  MOVWF  xDD
0E17A:  MOVFF  616,7E4
0E17E:  MOVFF  615,7E3
0E182:  MOVFF  614,7E2
0E186:  MOVFF  613,7E1
0E18A:  MOVLB  0
0E18C:  CALL   21FE
0E190:  BNC   E1B4
....................             { 
....................                Ganancia=40;delay_ms(100);visual=1; 
0E192:  MOVLB  6
0E194:  CLRF   x16
0E196:  CLRF   x15
0E198:  MOVLW  20
0E19A:  MOVWF  x14
0E19C:  MOVLW  84
0E19E:  MOVWF  x13
0E1A0:  MOVLW  64
0E1A2:  MOVLB  7
0E1A4:  MOVWF  xE3
0E1A6:  MOVLB  0
0E1A8:  CALL   1800
0E1AC:  MOVLB  5
0E1AE:  BSF    x95.0
....................             } 
....................             else 
0E1B0:  BRA    E1F8
0E1B2:  MOVLB  0
....................             { 
....................                delay_ms(30);Ganancia+=1.0;visual=1; 
0E1B4:  MOVLW  1E
0E1B6:  MOVLB  7
0E1B8:  MOVWF  xE3
0E1BA:  MOVLB  0
0E1BC:  CALL   1800
0E1C0:  BCF    FD8.1
0E1C2:  MOVFF  616,7E6
0E1C6:  MOVFF  615,7E5
0E1CA:  MOVFF  614,7E4
0E1CE:  MOVFF  613,7E3
0E1D2:  MOVLB  7
0E1D4:  CLRF   xEA
0E1D6:  CLRF   xE9
0E1D8:  CLRF   xE8
0E1DA:  MOVLW  7F
0E1DC:  MOVWF  xE7
0E1DE:  MOVLB  0
0E1E0:  CALL   2FB0
0E1E4:  MOVFF  03,616
0E1E8:  MOVFF  02,615
0E1EC:  MOVFF  01,614
0E1F0:  MOVFF  00,613
0E1F4:  MOVLB  5
0E1F6:  BSF    x95.0
....................             } 
....................          } 
....................                 
....................          if(DOWN)//Si oprime hacia abajo 
0E1F8:  BSF    F96.0
0E1FA:  BTFSC  F84.0
0E1FC:  BRA    E27A
....................          {   
....................             Buzz_on;delay_ms(10);Buzz_off; 
0E1FE:  BSF    F8B.4
0E200:  BCF    F94.4
0E202:  MOVLW  0A
0E204:  MOVLB  7
0E206:  MOVWF  xE3
0E208:  MOVLB  0
0E20A:  CALL   1800
0E20E:  BCF    F8B.4
0E210:  BCF    F94.4
....................             if(Ganancia>1) 
0E212:  MOVLB  7
0E214:  CLRF   xE0
0E216:  CLRF   xDF
0E218:  CLRF   xDE
0E21A:  MOVLW  7F
0E21C:  MOVWF  xDD
0E21E:  MOVFF  616,7E4
0E222:  MOVFF  615,7E3
0E226:  MOVFF  614,7E2
0E22A:  MOVFF  613,7E1
0E22E:  MOVLB  0
0E230:  CALL   21FE
0E234:  BNC   E27C
....................             { 
....................                delay_ms(30);Ganancia-=1.0;visual=1;      
0E236:  MOVLW  1E
0E238:  MOVLB  7
0E23A:  MOVWF  xE3
0E23C:  MOVLB  0
0E23E:  CALL   1800
0E242:  BSF    FD8.1
0E244:  MOVFF  616,7E6
0E248:  MOVFF  615,7E5
0E24C:  MOVFF  614,7E4
0E250:  MOVFF  613,7E3
0E254:  MOVLB  7
0E256:  CLRF   xEA
0E258:  CLRF   xE9
0E25A:  CLRF   xE8
0E25C:  MOVLW  7F
0E25E:  MOVWF  xE7
0E260:  MOVLB  0
0E262:  CALL   2FB0
0E266:  MOVFF  03,616
0E26A:  MOVFF  02,615
0E26E:  MOVFF  01,614
0E272:  MOVFF  00,613
0E276:  MOVLB  5
0E278:  BSF    x95.0
0E27A:  MOVLB  0
....................             } 
....................          } 
....................                 
....................          if(RIGHT)//Si oprime SET 
0E27C:  BSF    F96.1
0E27E:  BTFSC  F84.1
0E280:  BRA    E2A8
....................          {   
....................             Buzz_on;delay_ms(10);Buzz_off; 
0E282:  BSF    F8B.4
0E284:  BCF    F94.4
0E286:  MOVLW  0A
0E288:  MOVLB  7
0E28A:  MOVWF  xE3
0E28C:  MOVLB  0
0E28E:  CALL   1800
0E292:  BCF    F8B.4
0E294:  BCF    F94.4
....................             delay_ms(30);visual=1; 
0E296:  MOVLW  1E
0E298:  MOVLB  7
0E29A:  MOVWF  xE3
0E29C:  MOVLB  0
0E29E:  CALL   1800
0E2A2:  MOVLB  5
0E2A4:  BSF    x95.0
0E2A6:  MOVLB  0
....................          }  
....................                    
....................          if(LEFT)//Si oprime boton de Toma. 
0E2A8:  BSF    F96.2
0E2AA:  BTFSC  F84.2
0E2AC:  BRA    E338
....................          { 
....................             Buzz_on;delay_ms(10);Buzz_off; 
0E2AE:  BSF    F8B.4
0E2B0:  BCF    F94.4
0E2B2:  MOVLW  0A
0E2B4:  MOVLB  7
0E2B6:  MOVWF  xE3
0E2B8:  MOVLB  0
0E2BA:  CALL   1800
0E2BE:  BCF    F8B.4
0E2C0:  BCF    F94.4
....................             delay_ms(700);Menu=100;glcd_fillscreen(OFF);Opcion=1;visual=1; 
0E2C2:  MOVLW  04
0E2C4:  MOVLB  7
0E2C6:  MOVWF  xDD
0E2C8:  MOVLW  AF
0E2CA:  MOVWF  xE3
0E2CC:  MOVLB  0
0E2CE:  CALL   1800
0E2D2:  MOVLB  7
0E2D4:  DECFSZ xDD,F
0E2D6:  BRA    E2C8
0E2D8:  MOVLW  64
0E2DA:  MOVLB  5
0E2DC:  MOVWF  x9A
0E2DE:  MOVLB  7
0E2E0:  CLRF   xDE
0E2E2:  MOVLB  0
0E2E4:  CALL   1880
0E2E8:  MOVLW  01
0E2EA:  MOVLB  5
0E2EC:  MOVWF  xA1
0E2EE:  BSF    x95.0
....................             write_eeprom(250,(int8)Ganancia); 
0E2F0:  MOVFF  616,7E0
0E2F4:  MOVFF  615,7DF
0E2F8:  MOVFF  614,7DE
0E2FC:  MOVFF  613,7DD
0E300:  MOVLB  0
0E302:  CALL   635C
0E306:  MOVFF  01,7DD
0E30A:  CLRF   FAA
0E30C:  MOVLW  FA
0E30E:  MOVWF  FA9
0E310:  MOVFF  7DD,FA8
0E314:  BCF    FA6.6
0E316:  BCF    FA6.7
0E318:  BSF    FA6.2
0E31A:  MOVF   FF2,W
0E31C:  MOVWF  00
0E31E:  BCF    FF2.7
0E320:  MOVLB  F
0E322:  MOVLW  55
0E324:  MOVWF  FA7
0E326:  MOVLW  AA
0E328:  MOVWF  FA7
0E32A:  BSF    FA6.1
0E32C:  BTFSC  FA6.1
0E32E:  BRA    E32C
0E330:  BCF    FA6.2
0E332:  MOVF   00,W
0E334:  IORWF  FF2,F
0E336:  MOVLB  0
0E338:  MOVLB  5
....................          } 
....................      } 
.................... //_-------------------------------------------------------------------------------------------------------------------------------------------------------- 
....................  
.................... //_--------------------------------------------------------------------------------------------------------------------------------------------------------       
....................       if(Menu==102){ // Menu de Ajuste de Integral 
0E33A:  MOVF   x9A,W
0E33C:  SUBLW  66
0E33E:  BTFSS  FD8.2
0E340:  BRA    E5EA
....................        
....................       if(Integral>40) 
0E342:  MOVLB  7
0E344:  CLRF   xE0
0E346:  CLRF   xDF
0E348:  MOVLW  20
0E34A:  MOVWF  xDE
0E34C:  MOVLW  84
0E34E:  MOVWF  xDD
0E350:  MOVFF  63E,7E4
0E354:  MOVFF  63D,7E3
0E358:  MOVFF  63C,7E2
0E35C:  MOVFF  63B,7E1
0E360:  MOVLB  0
0E362:  CALL   21FE
0E366:  BNC   E374
....................       { 
....................          Integral=1; 
0E368:  MOVLB  6
0E36A:  CLRF   x3E
0E36C:  CLRF   x3D
0E36E:  CLRF   x3C
0E370:  MOVLW  7F
0E372:  MOVWF  x3B
....................       } 
....................        
....................       if(visual==1) 
0E374:  MOVLB  5
0E376:  BTFSS  x95.0
0E378:  BRA    E400
....................       { 
....................          glcd_fillScreen(OFF); 
0E37A:  MOVLB  7
0E37C:  CLRF   xDE
0E37E:  MOVLB  0
0E380:  CALL   1880
....................          strcpy(Menus.Letra,"I"); 
0E384:  MOVLW  07
0E386:  MOVWF  FEA
0E388:  MOVLW  BD
0E38A:  MOVWF  FE9
0E38C:  MOVFF  FF2,7DD
0E390:  BCF    FF2.7
0E392:  MOVLW  00
0E394:  CALL   1504
0E398:  TBLRD*-
0E39A:  TBLRD*+
0E39C:  MOVF   FF5,W
0E39E:  MOVWF  FEE
0E3A0:  IORLW  00
0E3A2:  BNZ   E39A
0E3A4:  MOVLB  7
0E3A6:  BTFSC  xDD.7
0E3A8:  BSF    FF2.7
....................          displayMenu(Menus.Letra,0,0,1,2); 
0E3AA:  MOVLW  07
0E3AC:  MOVWF  xE1
0E3AE:  MOVLW  BD
0E3B0:  MOVWF  xE0
0E3B2:  CLRF   xE2
0E3B4:  CLRF   xE3
0E3B6:  MOVLW  01
0E3B8:  MOVWF  xE4
0E3BA:  MOVLW  02
0E3BC:  MOVWF  xE5
0E3BE:  MOVLB  0
0E3C0:  CALL   1EC0
....................           
....................          displayTemperatura(Integral,30,30,0,3); 
0E3C4:  MOVFF  63E,7E0
0E3C8:  MOVFF  63D,7DF
0E3CC:  MOVFF  63C,7DE
0E3D0:  MOVFF  63B,7DD
0E3D4:  CALL   635C
0E3D8:  MOVFF  02,7DE
0E3DC:  MOVFF  01,7DD
0E3E0:  MOVFF  02,7E3
0E3E4:  MOVFF  01,7E2
0E3E8:  MOVLW  1E
0E3EA:  MOVLB  7
0E3EC:  MOVWF  xE4
0E3EE:  MOVWF  xE5
0E3F0:  CLRF   xE6
0E3F2:  MOVLW  03
0E3F4:  MOVWF  xE7
0E3F6:  MOVLB  0
0E3F8:  CALL   4B6A
....................           
....................          visual=0; 
0E3FC:  MOVLB  5
0E3FE:  BCF    x95.0
....................       } 
....................        
....................          if(UP)//Si oprime hacia arriba 
0E400:  BSF    F92.5
0E402:  BTFSC  F80.5
0E404:  BRA    E4A6
....................          {   
....................             Buzz_on;delay_ms(10);Buzz_off; 
0E406:  BSF    F8B.4
0E408:  BCF    F94.4
0E40A:  MOVLW  0A
0E40C:  MOVLB  7
0E40E:  MOVWF  xE3
0E410:  MOVLB  0
0E412:  CALL   1800
0E416:  BCF    F8B.4
0E418:  BCF    F94.4
....................             if(Integral>40) 
0E41A:  MOVLB  7
0E41C:  CLRF   xE0
0E41E:  CLRF   xDF
0E420:  MOVLW  20
0E422:  MOVWF  xDE
0E424:  MOVLW  84
0E426:  MOVWF  xDD
0E428:  MOVFF  63E,7E4
0E42C:  MOVFF  63D,7E3
0E430:  MOVFF  63C,7E2
0E434:  MOVFF  63B,7E1
0E438:  MOVLB  0
0E43A:  CALL   21FE
0E43E:  BNC   E462
....................             { 
....................                Integral=40;delay_ms(100);visual=1; 
0E440:  MOVLB  6
0E442:  CLRF   x3E
0E444:  CLRF   x3D
0E446:  MOVLW  20
0E448:  MOVWF  x3C
0E44A:  MOVLW  84
0E44C:  MOVWF  x3B
0E44E:  MOVLW  64
0E450:  MOVLB  7
0E452:  MOVWF  xE3
0E454:  MOVLB  0
0E456:  CALL   1800
0E45A:  MOVLB  5
0E45C:  BSF    x95.0
....................             } 
....................             else 
0E45E:  BRA    E4A6
0E460:  MOVLB  0
....................             { 
....................                delay_ms(30);Integral+=1.0;visual=1; 
0E462:  MOVLW  1E
0E464:  MOVLB  7
0E466:  MOVWF  xE3
0E468:  MOVLB  0
0E46A:  CALL   1800
0E46E:  BCF    FD8.1
0E470:  MOVFF  63E,7E6
0E474:  MOVFF  63D,7E5
0E478:  MOVFF  63C,7E4
0E47C:  MOVFF  63B,7E3
0E480:  MOVLB  7
0E482:  CLRF   xEA
0E484:  CLRF   xE9
0E486:  CLRF   xE8
0E488:  MOVLW  7F
0E48A:  MOVWF  xE7
0E48C:  MOVLB  0
0E48E:  CALL   2FB0
0E492:  MOVFF  03,63E
0E496:  MOVFF  02,63D
0E49A:  MOVFF  01,63C
0E49E:  MOVFF  00,63B
0E4A2:  MOVLB  5
0E4A4:  BSF    x95.0
....................             } 
....................          } 
....................                 
....................          if(DOWN)//Si oprime hacia abajo 
0E4A6:  BSF    F96.0
0E4A8:  BTFSC  F84.0
0E4AA:  BRA    E528
....................          {   
....................             Buzz_on;delay_ms(10);Buzz_off; 
0E4AC:  BSF    F8B.4
0E4AE:  BCF    F94.4
0E4B0:  MOVLW  0A
0E4B2:  MOVLB  7
0E4B4:  MOVWF  xE3
0E4B6:  MOVLB  0
0E4B8:  CALL   1800
0E4BC:  BCF    F8B.4
0E4BE:  BCF    F94.4
....................             if(Integral>1) 
0E4C0:  MOVLB  7
0E4C2:  CLRF   xE0
0E4C4:  CLRF   xDF
0E4C6:  CLRF   xDE
0E4C8:  MOVLW  7F
0E4CA:  MOVWF  xDD
0E4CC:  MOVFF  63E,7E4
0E4D0:  MOVFF  63D,7E3
0E4D4:  MOVFF  63C,7E2
0E4D8:  MOVFF  63B,7E1
0E4DC:  MOVLB  0
0E4DE:  CALL   21FE
0E4E2:  BNC   E52A
....................             { 
....................                delay_ms(30);Integral-=1.0;visual=1;      
0E4E4:  MOVLW  1E
0E4E6:  MOVLB  7
0E4E8:  MOVWF  xE3
0E4EA:  MOVLB  0
0E4EC:  CALL   1800
0E4F0:  BSF    FD8.1
0E4F2:  MOVFF  63E,7E6
0E4F6:  MOVFF  63D,7E5
0E4FA:  MOVFF  63C,7E4
0E4FE:  MOVFF  63B,7E3
0E502:  MOVLB  7
0E504:  CLRF   xEA
0E506:  CLRF   xE9
0E508:  CLRF   xE8
0E50A:  MOVLW  7F
0E50C:  MOVWF  xE7
0E50E:  MOVLB  0
0E510:  CALL   2FB0
0E514:  MOVFF  03,63E
0E518:  MOVFF  02,63D
0E51C:  MOVFF  01,63C
0E520:  MOVFF  00,63B
0E524:  MOVLB  5
0E526:  BSF    x95.0
0E528:  MOVLB  0
....................             } 
....................          } 
....................                 
....................          if(RIGHT)//Si oprime SET 
0E52A:  BSF    F96.1
0E52C:  BTFSC  F84.1
0E52E:  BRA    E556
....................          {   
....................             Buzz_on;delay_ms(10);Buzz_off; 
0E530:  BSF    F8B.4
0E532:  BCF    F94.4
0E534:  MOVLW  0A
0E536:  MOVLB  7
0E538:  MOVWF  xE3
0E53A:  MOVLB  0
0E53C:  CALL   1800
0E540:  BCF    F8B.4
0E542:  BCF    F94.4
....................             delay_ms(30);visual=1; 
0E544:  MOVLW  1E
0E546:  MOVLB  7
0E548:  MOVWF  xE3
0E54A:  MOVLB  0
0E54C:  CALL   1800
0E550:  MOVLB  5
0E552:  BSF    x95.0
0E554:  MOVLB  0
....................          }  
....................                    
....................          if(LEFT)//Si oprime boton de Toma. 
0E556:  BSF    F96.2
0E558:  BTFSC  F84.2
0E55A:  BRA    E5E8
....................          { 
....................             Buzz_on;delay_ms(10);Buzz_off; 
0E55C:  BSF    F8B.4
0E55E:  BCF    F94.4
0E560:  MOVLW  0A
0E562:  MOVLB  7
0E564:  MOVWF  xE3
0E566:  MOVLB  0
0E568:  CALL   1800
0E56C:  BCF    F8B.4
0E56E:  BCF    F94.4
....................             delay_ms(700);Menu=100;glcd_fillscreen(OFF);Opcion=1;visual=1; 
0E570:  MOVLW  04
0E572:  MOVLB  7
0E574:  MOVWF  xDD
0E576:  MOVLW  AF
0E578:  MOVWF  xE3
0E57A:  MOVLB  0
0E57C:  CALL   1800
0E580:  MOVLB  7
0E582:  DECFSZ xDD,F
0E584:  BRA    E576
0E586:  MOVLW  64
0E588:  MOVLB  5
0E58A:  MOVWF  x9A
0E58C:  MOVLB  7
0E58E:  CLRF   xDE
0E590:  MOVLB  0
0E592:  CALL   1880
0E596:  MOVLW  01
0E598:  MOVLB  5
0E59A:  MOVWF  xA1
0E59C:  BSF    x95.0
....................             write_eeprom(270,(int8)Integral); 
0E59E:  MOVFF  63E,7E0
0E5A2:  MOVFF  63D,7DF
0E5A6:  MOVFF  63C,7DE
0E5AA:  MOVFF  63B,7DD
0E5AE:  MOVLB  0
0E5B0:  CALL   635C
0E5B4:  MOVFF  01,7DD
0E5B8:  MOVLW  01
0E5BA:  MOVWF  FAA
0E5BC:  MOVLW  0E
0E5BE:  MOVWF  FA9
0E5C0:  MOVFF  7DD,FA8
0E5C4:  BCF    FA6.6
0E5C6:  BCF    FA6.7
0E5C8:  BSF    FA6.2
0E5CA:  MOVF   FF2,W
0E5CC:  MOVWF  00
0E5CE:  BCF    FF2.7
0E5D0:  MOVLB  F
0E5D2:  MOVLW  55
0E5D4:  MOVWF  FA7
0E5D6:  MOVLW  AA
0E5D8:  MOVWF  FA7
0E5DA:  BSF    FA6.1
0E5DC:  BTFSC  FA6.1
0E5DE:  BRA    E5DC
0E5E0:  BCF    FA6.2
0E5E2:  MOVF   00,W
0E5E4:  IORWF  FF2,F
0E5E6:  MOVLB  0
0E5E8:  MOVLB  5
....................          } 
....................      } 
.................... //_-------------------------------------------------------------------------------------------------------------------------------------------------------- 
....................  
.................... //_--------------------------------------------------------------------------------------------------------------------------------------------------------       
....................       if(Menu==103){ // Menu de Ajuste de Derivativo 
0E5EA:  MOVF   x9A,W
0E5EC:  SUBLW  67
0E5EE:  BTFSS  FD8.2
0E5F0:  BRA    E89A
....................        
....................       if(Derivativo>200) 
0E5F2:  MOVLB  7
0E5F4:  CLRF   xE0
0E5F6:  CLRF   xDF
0E5F8:  MOVLW  48
0E5FA:  MOVWF  xDE
0E5FC:  MOVLW  86
0E5FE:  MOVWF  xDD
0E600:  MOVFF  642,7E4
0E604:  MOVFF  641,7E3
0E608:  MOVFF  640,7E2
0E60C:  MOVFF  63F,7E1
0E610:  MOVLB  0
0E612:  CALL   21FE
0E616:  BNC   E624
....................       { 
....................          Derivativo=2; 
0E618:  MOVLB  6
0E61A:  CLRF   x42
0E61C:  CLRF   x41
0E61E:  CLRF   x40
0E620:  MOVLW  80
0E622:  MOVWF  x3F
....................       } 
....................        
....................       if(visual==1) 
0E624:  MOVLB  5
0E626:  BTFSS  x95.0
0E628:  BRA    E6B0
....................       { 
....................          glcd_fillScreen(OFF); 
0E62A:  MOVLB  7
0E62C:  CLRF   xDE
0E62E:  MOVLB  0
0E630:  CALL   1880
....................          strcpy(Menus.Letra,"D"); 
0E634:  MOVLW  07
0E636:  MOVWF  FEA
0E638:  MOVLW  BD
0E63A:  MOVWF  FE9
0E63C:  MOVFF  FF2,7DD
0E640:  BCF    FF2.7
0E642:  MOVLW  00
0E644:  CALL   1524
0E648:  TBLRD*-
0E64A:  TBLRD*+
0E64C:  MOVF   FF5,W
0E64E:  MOVWF  FEE
0E650:  IORLW  00
0E652:  BNZ   E64A
0E654:  MOVLB  7
0E656:  BTFSC  xDD.7
0E658:  BSF    FF2.7
....................          displayMenu(Menus.Letra,0,0,1,2); 
0E65A:  MOVLW  07
0E65C:  MOVWF  xE1
0E65E:  MOVLW  BD
0E660:  MOVWF  xE0
0E662:  CLRF   xE2
0E664:  CLRF   xE3
0E666:  MOVLW  01
0E668:  MOVWF  xE4
0E66A:  MOVLW  02
0E66C:  MOVWF  xE5
0E66E:  MOVLB  0
0E670:  CALL   1EC0
....................           
....................          displayTemperatura(Derivativo,30,30,0,3); 
0E674:  MOVFF  642,7E0
0E678:  MOVFF  641,7DF
0E67C:  MOVFF  640,7DE
0E680:  MOVFF  63F,7DD
0E684:  CALL   635C
0E688:  MOVFF  02,7DE
0E68C:  MOVFF  01,7DD
0E690:  MOVFF  02,7E3
0E694:  MOVFF  01,7E2
0E698:  MOVLW  1E
0E69A:  MOVLB  7
0E69C:  MOVWF  xE4
0E69E:  MOVWF  xE5
0E6A0:  CLRF   xE6
0E6A2:  MOVLW  03
0E6A4:  MOVWF  xE7
0E6A6:  MOVLB  0
0E6A8:  CALL   4B6A
....................           
....................          visual=0; 
0E6AC:  MOVLB  5
0E6AE:  BCF    x95.0
....................       } 
....................        
....................          if(UP)//Si oprime hacia arriba 
0E6B0:  BSF    F92.5
0E6B2:  BTFSC  F80.5
0E6B4:  BRA    E756
....................          {   
....................             Buzz_on;delay_ms(10);Buzz_off; 
0E6B6:  BSF    F8B.4
0E6B8:  BCF    F94.4
0E6BA:  MOVLW  0A
0E6BC:  MOVLB  7
0E6BE:  MOVWF  xE3
0E6C0:  MOVLB  0
0E6C2:  CALL   1800
0E6C6:  BCF    F8B.4
0E6C8:  BCF    F94.4
....................             if(Derivativo>200) 
0E6CA:  MOVLB  7
0E6CC:  CLRF   xE0
0E6CE:  CLRF   xDF
0E6D0:  MOVLW  48
0E6D2:  MOVWF  xDE
0E6D4:  MOVLW  86
0E6D6:  MOVWF  xDD
0E6D8:  MOVFF  642,7E4
0E6DC:  MOVFF  641,7E3
0E6E0:  MOVFF  640,7E2
0E6E4:  MOVFF  63F,7E1
0E6E8:  MOVLB  0
0E6EA:  CALL   21FE
0E6EE:  BNC   E712
....................             { 
....................                Derivativo=200;delay_ms(100);visual=1; 
0E6F0:  MOVLB  6
0E6F2:  CLRF   x42
0E6F4:  CLRF   x41
0E6F6:  MOVLW  48
0E6F8:  MOVWF  x40
0E6FA:  MOVLW  86
0E6FC:  MOVWF  x3F
0E6FE:  MOVLW  64
0E700:  MOVLB  7
0E702:  MOVWF  xE3
0E704:  MOVLB  0
0E706:  CALL   1800
0E70A:  MOVLB  5
0E70C:  BSF    x95.0
....................             } 
....................             else 
0E70E:  BRA    E756
0E710:  MOVLB  0
....................             { 
....................                delay_ms(30);Derivativo+=1.0;visual=1; 
0E712:  MOVLW  1E
0E714:  MOVLB  7
0E716:  MOVWF  xE3
0E718:  MOVLB  0
0E71A:  CALL   1800
0E71E:  BCF    FD8.1
0E720:  MOVFF  642,7E6
0E724:  MOVFF  641,7E5
0E728:  MOVFF  640,7E4
0E72C:  MOVFF  63F,7E3
0E730:  MOVLB  7
0E732:  CLRF   xEA
0E734:  CLRF   xE9
0E736:  CLRF   xE8
0E738:  MOVLW  7F
0E73A:  MOVWF  xE7
0E73C:  MOVLB  0
0E73E:  CALL   2FB0
0E742:  MOVFF  03,642
0E746:  MOVFF  02,641
0E74A:  MOVFF  01,640
0E74E:  MOVFF  00,63F
0E752:  MOVLB  5
0E754:  BSF    x95.0
....................             } 
....................          } 
....................                 
....................          if(DOWN)//Si oprime hacia abajo 
0E756:  BSF    F96.0
0E758:  BTFSC  F84.0
0E75A:  BRA    E7D8
....................          {   
....................             Buzz_on;delay_ms(10);Buzz_off; 
0E75C:  BSF    F8B.4
0E75E:  BCF    F94.4
0E760:  MOVLW  0A
0E762:  MOVLB  7
0E764:  MOVWF  xE3
0E766:  MOVLB  0
0E768:  CALL   1800
0E76C:  BCF    F8B.4
0E76E:  BCF    F94.4
....................             if(Derivativo>1) 
0E770:  MOVLB  7
0E772:  CLRF   xE0
0E774:  CLRF   xDF
0E776:  CLRF   xDE
0E778:  MOVLW  7F
0E77A:  MOVWF  xDD
0E77C:  MOVFF  642,7E4
0E780:  MOVFF  641,7E3
0E784:  MOVFF  640,7E2
0E788:  MOVFF  63F,7E1
0E78C:  MOVLB  0
0E78E:  CALL   21FE
0E792:  BNC   E7DA
....................             { 
....................                delay_ms(30);Derivativo-=1.0;visual=1;      
0E794:  MOVLW  1E
0E796:  MOVLB  7
0E798:  MOVWF  xE3
0E79A:  MOVLB  0
0E79C:  CALL   1800
0E7A0:  BSF    FD8.1
0E7A2:  MOVFF  642,7E6
0E7A6:  MOVFF  641,7E5
0E7AA:  MOVFF  640,7E4
0E7AE:  MOVFF  63F,7E3
0E7B2:  MOVLB  7
0E7B4:  CLRF   xEA
0E7B6:  CLRF   xE9
0E7B8:  CLRF   xE8
0E7BA:  MOVLW  7F
0E7BC:  MOVWF  xE7
0E7BE:  MOVLB  0
0E7C0:  CALL   2FB0
0E7C4:  MOVFF  03,642
0E7C8:  MOVFF  02,641
0E7CC:  MOVFF  01,640
0E7D0:  MOVFF  00,63F
0E7D4:  MOVLB  5
0E7D6:  BSF    x95.0
0E7D8:  MOVLB  0
....................             } 
....................          } 
....................                 
....................          if(RIGHT)//Si oprime SET 
0E7DA:  BSF    F96.1
0E7DC:  BTFSC  F84.1
0E7DE:  BRA    E806
....................          {   
....................             Buzz_on;delay_ms(10);Buzz_off; 
0E7E0:  BSF    F8B.4
0E7E2:  BCF    F94.4
0E7E4:  MOVLW  0A
0E7E6:  MOVLB  7
0E7E8:  MOVWF  xE3
0E7EA:  MOVLB  0
0E7EC:  CALL   1800
0E7F0:  BCF    F8B.4
0E7F2:  BCF    F94.4
....................             delay_ms(30);visual=1; 
0E7F4:  MOVLW  1E
0E7F6:  MOVLB  7
0E7F8:  MOVWF  xE3
0E7FA:  MOVLB  0
0E7FC:  CALL   1800
0E800:  MOVLB  5
0E802:  BSF    x95.0
0E804:  MOVLB  0
....................          }  
....................                    
....................          if(LEFT)//Si oprime boton de Toma. 
0E806:  BSF    F96.2
0E808:  BTFSC  F84.2
0E80A:  BRA    E898
....................          { 
....................             Buzz_on;delay_ms(10);Buzz_off; 
0E80C:  BSF    F8B.4
0E80E:  BCF    F94.4
0E810:  MOVLW  0A
0E812:  MOVLB  7
0E814:  MOVWF  xE3
0E816:  MOVLB  0
0E818:  CALL   1800
0E81C:  BCF    F8B.4
0E81E:  BCF    F94.4
....................             delay_ms(700);Menu=100;glcd_fillscreen(OFF);Opcion=1;visual=1; 
0E820:  MOVLW  04
0E822:  MOVLB  7
0E824:  MOVWF  xDD
0E826:  MOVLW  AF
0E828:  MOVWF  xE3
0E82A:  MOVLB  0
0E82C:  CALL   1800
0E830:  MOVLB  7
0E832:  DECFSZ xDD,F
0E834:  BRA    E826
0E836:  MOVLW  64
0E838:  MOVLB  5
0E83A:  MOVWF  x9A
0E83C:  MOVLB  7
0E83E:  CLRF   xDE
0E840:  MOVLB  0
0E842:  CALL   1880
0E846:  MOVLW  01
0E848:  MOVLB  5
0E84A:  MOVWF  xA1
0E84C:  BSF    x95.0
....................             write_eeprom(271,(int8)Derivativo); 
0E84E:  MOVFF  642,7E0
0E852:  MOVFF  641,7DF
0E856:  MOVFF  640,7DE
0E85A:  MOVFF  63F,7DD
0E85E:  MOVLB  0
0E860:  CALL   635C
0E864:  MOVFF  01,7DD
0E868:  MOVLW  01
0E86A:  MOVWF  FAA
0E86C:  MOVLW  0F
0E86E:  MOVWF  FA9
0E870:  MOVFF  7DD,FA8
0E874:  BCF    FA6.6
0E876:  BCF    FA6.7
0E878:  BSF    FA6.2
0E87A:  MOVF   FF2,W
0E87C:  MOVWF  00
0E87E:  BCF    FF2.7
0E880:  MOVLB  F
0E882:  MOVLW  55
0E884:  MOVWF  FA7
0E886:  MOVLW  AA
0E888:  MOVWF  FA7
0E88A:  BSF    FA6.1
0E88C:  BTFSC  FA6.1
0E88E:  BRA    E88C
0E890:  BCF    FA6.2
0E892:  MOVF   00,W
0E894:  IORWF  FF2,F
0E896:  MOVLB  0
0E898:  MOVLB  5
....................          } 
....................      } 
.................... //_-------------------------------------------------------------------------------------------------------------------------------------------------------- 
....................  
....................  
.................... //_--------------------------------------------------------------------------------------------------------------------------------------------------------       
....................       if(Menu==104){ // Menu de Ajuste de Ganancia2 
0E89A:  MOVF   x9A,W
0E89C:  SUBLW  68
0E89E:  BTFSS  FD8.2
0E8A0:  BRA    EB4A
....................        
....................       if(Tciclo>40) 
0E8A2:  MOVLB  7
0E8A4:  CLRF   xE0
0E8A6:  CLRF   xDF
0E8A8:  MOVLW  20
0E8AA:  MOVWF  xDE
0E8AC:  MOVLW  84
0E8AE:  MOVWF  xDD
0E8B0:  MOVFF  5FA,7E4
0E8B4:  MOVFF  5F9,7E3
0E8B8:  MOVFF  5F8,7E2
0E8BC:  MOVFF  5F7,7E1
0E8C0:  MOVLB  0
0E8C2:  CALL   21FE
0E8C6:  BNC   E8D6
....................       { 
....................          Tciclo=40; 
0E8C8:  MOVLB  5
0E8CA:  CLRF   xFA
0E8CC:  CLRF   xF9
0E8CE:  MOVLW  20
0E8D0:  MOVWF  xF8
0E8D2:  MOVLW  84
0E8D4:  MOVWF  xF7
....................       } 
....................        
....................       if(visual==1) 
0E8D6:  MOVLB  5
0E8D8:  BTFSS  x95.0
0E8DA:  BRA    E962
....................       { 
....................          glcd_fillScreen(OFF); 
0E8DC:  MOVLB  7
0E8DE:  CLRF   xDE
0E8E0:  MOVLB  0
0E8E2:  CALL   1880
....................          strcpy(Menus.Letra,"Tciclo"); 
0E8E6:  MOVLW  07
0E8E8:  MOVWF  FEA
0E8EA:  MOVLW  BD
0E8EC:  MOVWF  FE9
0E8EE:  MOVFF  FF2,7DD
0E8F2:  BCF    FF2.7
0E8F4:  MOVLW  00
0E8F6:  CALL   1372
0E8FA:  TBLRD*-
0E8FC:  TBLRD*+
0E8FE:  MOVF   FF5,W
0E900:  MOVWF  FEE
0E902:  IORLW  00
0E904:  BNZ   E8FC
0E906:  MOVLB  7
0E908:  BTFSC  xDD.7
0E90A:  BSF    FF2.7
....................          displayMenu(Menus.Letra,0,0,1,2); 
0E90C:  MOVLW  07
0E90E:  MOVWF  xE1
0E910:  MOVLW  BD
0E912:  MOVWF  xE0
0E914:  CLRF   xE2
0E916:  CLRF   xE3
0E918:  MOVLW  01
0E91A:  MOVWF  xE4
0E91C:  MOVLW  02
0E91E:  MOVWF  xE5
0E920:  MOVLB  0
0E922:  CALL   1EC0
....................           
....................          displayTemperatura(Tciclo,30,30,0,3); 
0E926:  MOVFF  5FA,7E0
0E92A:  MOVFF  5F9,7DF
0E92E:  MOVFF  5F8,7DE
0E932:  MOVFF  5F7,7DD
0E936:  CALL   635C
0E93A:  MOVFF  02,7DE
0E93E:  MOVFF  01,7DD
0E942:  MOVFF  02,7E3
0E946:  MOVFF  01,7E2
0E94A:  MOVLW  1E
0E94C:  MOVLB  7
0E94E:  MOVWF  xE4
0E950:  MOVWF  xE5
0E952:  CLRF   xE6
0E954:  MOVLW  03
0E956:  MOVWF  xE7
0E958:  MOVLB  0
0E95A:  CALL   4B6A
....................           
....................          visual=0; 
0E95E:  MOVLB  5
0E960:  BCF    x95.0
....................       } 
....................        
....................          if(UP)//Si oprime hacia arriba 
0E962:  BSF    F92.5
0E964:  BTFSC  F80.5
0E966:  BRA    EA08
....................          {   
....................             Buzz_on;delay_ms(10);Buzz_off; 
0E968:  BSF    F8B.4
0E96A:  BCF    F94.4
0E96C:  MOVLW  0A
0E96E:  MOVLB  7
0E970:  MOVWF  xE3
0E972:  MOVLB  0
0E974:  CALL   1800
0E978:  BCF    F8B.4
0E97A:  BCF    F94.4
....................             if(Tciclo>40) 
0E97C:  MOVLB  7
0E97E:  CLRF   xE0
0E980:  CLRF   xDF
0E982:  MOVLW  20
0E984:  MOVWF  xDE
0E986:  MOVLW  84
0E988:  MOVWF  xDD
0E98A:  MOVFF  5FA,7E4
0E98E:  MOVFF  5F9,7E3
0E992:  MOVFF  5F8,7E2
0E996:  MOVFF  5F7,7E1
0E99A:  MOVLB  0
0E99C:  CALL   21FE
0E9A0:  BNC   E9C4
....................             { 
....................                Tciclo=40;delay_ms(100);visual=1; 
0E9A2:  MOVLB  5
0E9A4:  CLRF   xFA
0E9A6:  CLRF   xF9
0E9A8:  MOVLW  20
0E9AA:  MOVWF  xF8
0E9AC:  MOVLW  84
0E9AE:  MOVWF  xF7
0E9B0:  MOVLW  64
0E9B2:  MOVLB  7
0E9B4:  MOVWF  xE3
0E9B6:  MOVLB  0
0E9B8:  CALL   1800
0E9BC:  MOVLB  5
0E9BE:  BSF    x95.0
....................             } 
....................             else 
0E9C0:  BRA    EA08
0E9C2:  MOVLB  0
....................             { 
....................                delay_ms(30);Tciclo+=1.0;visual=1; 
0E9C4:  MOVLW  1E
0E9C6:  MOVLB  7
0E9C8:  MOVWF  xE3
0E9CA:  MOVLB  0
0E9CC:  CALL   1800
0E9D0:  BCF    FD8.1
0E9D2:  MOVFF  5FA,7E6
0E9D6:  MOVFF  5F9,7E5
0E9DA:  MOVFF  5F8,7E4
0E9DE:  MOVFF  5F7,7E3
0E9E2:  MOVLB  7
0E9E4:  CLRF   xEA
0E9E6:  CLRF   xE9
0E9E8:  CLRF   xE8
0E9EA:  MOVLW  7F
0E9EC:  MOVWF  xE7
0E9EE:  MOVLB  0
0E9F0:  CALL   2FB0
0E9F4:  MOVFF  03,5FA
0E9F8:  MOVFF  02,5F9
0E9FC:  MOVFF  01,5F8
0EA00:  MOVFF  00,5F7
0EA04:  MOVLB  5
0EA06:  BSF    x95.0
....................             } 
....................          } 
....................                 
....................          if(DOWN)//Si oprime hacia abajo 
0EA08:  BSF    F96.0
0EA0A:  BTFSC  F84.0
0EA0C:  BRA    EA8A
....................          {   
....................             Buzz_on;delay_ms(10);Buzz_off; 
0EA0E:  BSF    F8B.4
0EA10:  BCF    F94.4
0EA12:  MOVLW  0A
0EA14:  MOVLB  7
0EA16:  MOVWF  xE3
0EA18:  MOVLB  0
0EA1A:  CALL   1800
0EA1E:  BCF    F8B.4
0EA20:  BCF    F94.4
....................             if(Tciclo>1) 
0EA22:  MOVLB  7
0EA24:  CLRF   xE0
0EA26:  CLRF   xDF
0EA28:  CLRF   xDE
0EA2A:  MOVLW  7F
0EA2C:  MOVWF  xDD
0EA2E:  MOVFF  5FA,7E4
0EA32:  MOVFF  5F9,7E3
0EA36:  MOVFF  5F8,7E2
0EA3A:  MOVFF  5F7,7E1
0EA3E:  MOVLB  0
0EA40:  CALL   21FE
0EA44:  BNC   EA8C
....................             { 
....................                delay_ms(30);Tciclo-=1.0;visual=1;      
0EA46:  MOVLW  1E
0EA48:  MOVLB  7
0EA4A:  MOVWF  xE3
0EA4C:  MOVLB  0
0EA4E:  CALL   1800
0EA52:  BSF    FD8.1
0EA54:  MOVFF  5FA,7E6
0EA58:  MOVFF  5F9,7E5
0EA5C:  MOVFF  5F8,7E4
0EA60:  MOVFF  5F7,7E3
0EA64:  MOVLB  7
0EA66:  CLRF   xEA
0EA68:  CLRF   xE9
0EA6A:  CLRF   xE8
0EA6C:  MOVLW  7F
0EA6E:  MOVWF  xE7
0EA70:  MOVLB  0
0EA72:  CALL   2FB0
0EA76:  MOVFF  03,5FA
0EA7A:  MOVFF  02,5F9
0EA7E:  MOVFF  01,5F8
0EA82:  MOVFF  00,5F7
0EA86:  MOVLB  5
0EA88:  BSF    x95.0
0EA8A:  MOVLB  0
....................             } 
....................          } 
....................                 
....................          if(RIGHT)//Si oprime SET 
0EA8C:  BSF    F96.1
0EA8E:  BTFSC  F84.1
0EA90:  BRA    EAB8
....................          {   
....................             Buzz_on;delay_ms(10);Buzz_off; 
0EA92:  BSF    F8B.4
0EA94:  BCF    F94.4
0EA96:  MOVLW  0A
0EA98:  MOVLB  7
0EA9A:  MOVWF  xE3
0EA9C:  MOVLB  0
0EA9E:  CALL   1800
0EAA2:  BCF    F8B.4
0EAA4:  BCF    F94.4
....................             delay_ms(30);visual=1; 
0EAA6:  MOVLW  1E
0EAA8:  MOVLB  7
0EAAA:  MOVWF  xE3
0EAAC:  MOVLB  0
0EAAE:  CALL   1800
0EAB2:  MOVLB  5
0EAB4:  BSF    x95.0
0EAB6:  MOVLB  0
....................          }  
....................                    
....................          if(LEFT)//Si oprime boton de Toma. 
0EAB8:  BSF    F96.2
0EABA:  BTFSC  F84.2
0EABC:  BRA    EB48
....................          { 
....................             Buzz_on;delay_ms(10);Buzz_off; 
0EABE:  BSF    F8B.4
0EAC0:  BCF    F94.4
0EAC2:  MOVLW  0A
0EAC4:  MOVLB  7
0EAC6:  MOVWF  xE3
0EAC8:  MOVLB  0
0EACA:  CALL   1800
0EACE:  BCF    F8B.4
0EAD0:  BCF    F94.4
....................             delay_ms(700);Menu=100;glcd_fillscreen(OFF);Opcion=1;visual=1; 
0EAD2:  MOVLW  04
0EAD4:  MOVLB  7
0EAD6:  MOVWF  xDD
0EAD8:  MOVLW  AF
0EADA:  MOVWF  xE3
0EADC:  MOVLB  0
0EADE:  CALL   1800
0EAE2:  MOVLB  7
0EAE4:  DECFSZ xDD,F
0EAE6:  BRA    EAD8
0EAE8:  MOVLW  64
0EAEA:  MOVLB  5
0EAEC:  MOVWF  x9A
0EAEE:  MOVLB  7
0EAF0:  CLRF   xDE
0EAF2:  MOVLB  0
0EAF4:  CALL   1880
0EAF8:  MOVLW  01
0EAFA:  MOVLB  5
0EAFC:  MOVWF  xA1
0EAFE:  BSF    x95.0
....................             write_eeprom(251,(int8)Tciclo); 
0EB00:  MOVFF  5FA,7E0
0EB04:  MOVFF  5F9,7DF
0EB08:  MOVFF  5F8,7DE
0EB0C:  MOVFF  5F7,7DD
0EB10:  MOVLB  0
0EB12:  CALL   635C
0EB16:  MOVFF  01,7DD
0EB1A:  CLRF   FAA
0EB1C:  MOVLW  FB
0EB1E:  MOVWF  FA9
0EB20:  MOVFF  7DD,FA8
0EB24:  BCF    FA6.6
0EB26:  BCF    FA6.7
0EB28:  BSF    FA6.2
0EB2A:  MOVF   FF2,W
0EB2C:  MOVWF  00
0EB2E:  BCF    FF2.7
0EB30:  MOVLB  F
0EB32:  MOVLW  55
0EB34:  MOVWF  FA7
0EB36:  MOVLW  AA
0EB38:  MOVWF  FA7
0EB3A:  BSF    FA6.1
0EB3C:  BTFSC  FA6.1
0EB3E:  BRA    EB3C
0EB40:  BCF    FA6.2
0EB42:  MOVF   00,W
0EB44:  IORWF  FF2,F
0EB46:  MOVLB  0
0EB48:  MOVLB  5
....................          } 
....................      } 
.................... //_-------------------------------------------------------------------------------------------------------------------------------------------------------- 
....................  
.................... //_--------------------------------------------------------------------------------------------------------------------------------------------------------       
....................       if(Menu==105){ // Menu de Ajuste de Ajuste 
0EB4A:  MOVF   x9A,W
0EB4C:  SUBLW  69
0EB4E:  BTFSS  FD8.2
0EB50:  BRA    ED70
....................        
....................       if(Ajuste>100) 
0EB52:  MOVF   x8A,W
0EB54:  SUBLW  64
0EB56:  BC    EB5A
....................       { 
....................          Ajuste=0; 
0EB58:  CLRF   x8A
....................       } 
....................        
....................       if(visual==1) 
0EB5A:  BTFSS  x95.0
0EB5C:  BRA    EBC6
....................       { 
....................          glcd_fillScreen(OFF); 
0EB5E:  MOVLB  7
0EB60:  CLRF   xDE
0EB62:  MOVLB  0
0EB64:  CALL   1880
....................          strcpy(Menus.Letra,"Ajuste"); 
0EB68:  MOVLW  07
0EB6A:  MOVWF  FEA
0EB6C:  MOVLW  BD
0EB6E:  MOVWF  FE9
0EB70:  MOVFF  FF2,7DD
0EB74:  BCF    FF2.7
0EB76:  MOVLW  00
0EB78:  CALL   1544
0EB7C:  TBLRD*-
0EB7E:  TBLRD*+
0EB80:  MOVF   FF5,W
0EB82:  MOVWF  FEE
0EB84:  IORLW  00
0EB86:  BNZ   EB7E
0EB88:  MOVLB  7
0EB8A:  BTFSC  xDD.7
0EB8C:  BSF    FF2.7
....................          displayMenu(Menus.Letra,0,0,1,2); 
0EB8E:  MOVLW  07
0EB90:  MOVWF  xE1
0EB92:  MOVLW  BD
0EB94:  MOVWF  xE0
0EB96:  CLRF   xE2
0EB98:  CLRF   xE3
0EB9A:  MOVLW  01
0EB9C:  MOVWF  xE4
0EB9E:  MOVLW  02
0EBA0:  MOVWF  xE5
0EBA2:  MOVLB  0
0EBA4:  CALL   1EC0
....................           
....................          displayTemperatura(Ajuste,30,30,0,3); 
0EBA8:  MOVLB  7
0EBAA:  CLRF   xE3
0EBAC:  MOVFF  58A,7E2
0EBB0:  MOVLW  1E
0EBB2:  MOVWF  xE4
0EBB4:  MOVWF  xE5
0EBB6:  CLRF   xE6
0EBB8:  MOVLW  03
0EBBA:  MOVWF  xE7
0EBBC:  MOVLB  0
0EBBE:  CALL   4B6A
....................           
....................          visual=0; 
0EBC2:  MOVLB  5
0EBC4:  BCF    x95.0
....................       } 
....................        
....................          if(UP)//Si oprime hacia arriba 
0EBC6:  BSF    F92.5
0EBC8:  BTFSC  F80.5
0EBCA:  BRA    EC56
....................          {   
....................             Buzz_on;delay_ms(10);Buzz_off; 
0EBCC:  BSF    F8B.4
0EBCE:  BCF    F94.4
0EBD0:  MOVLW  0A
0EBD2:  MOVLB  7
0EBD4:  MOVWF  xE3
0EBD6:  MOVLB  0
0EBD8:  CALL   1800
0EBDC:  BCF    F8B.4
0EBDE:  BCF    F94.4
....................             if(Ajuste>100) 
0EBE0:  MOVLB  5
0EBE2:  MOVF   x8A,W
0EBE4:  SUBLW  64
0EBE6:  BC    EBFC
....................             { 
....................                Ajuste=100;delay_ms(100);visual=1; 
0EBE8:  MOVLW  64
0EBEA:  MOVWF  x8A
0EBEC:  MOVLB  7
0EBEE:  MOVWF  xE3
0EBF0:  MOVLB  0
0EBF2:  CALL   1800
0EBF6:  MOVLB  5
0EBF8:  BSF    x95.0
....................             } 
....................             else 
0EBFA:  BRA    EC56
....................             { 
....................                delay_ms(30);Ajuste+=1.0;visual=1; 
0EBFC:  MOVLW  1E
0EBFE:  MOVLB  7
0EC00:  MOVWF  xE3
0EC02:  MOVLB  0
0EC04:  CALL   1800
0EC08:  MOVLB  7
0EC0A:  CLRF   xE4
0EC0C:  MOVFF  58A,7E3
0EC10:  MOVLB  0
0EC12:  CALL   21C8
0EC16:  BCF    FD8.1
0EC18:  MOVFF  03,7E6
0EC1C:  MOVFF  02,7E5
0EC20:  MOVFF  01,7E4
0EC24:  MOVFF  00,7E3
0EC28:  MOVLB  7
0EC2A:  CLRF   xEA
0EC2C:  CLRF   xE9
0EC2E:  CLRF   xE8
0EC30:  MOVLW  7F
0EC32:  MOVWF  xE7
0EC34:  MOVLB  0
0EC36:  CALL   2FB0
0EC3A:  MOVFF  03,7E0
0EC3E:  MOVFF  02,7DF
0EC42:  MOVFF  01,7DE
0EC46:  MOVFF  00,7DD
0EC4A:  CALL   635C
0EC4E:  MOVFF  01,58A
0EC52:  MOVLB  5
0EC54:  BSF    x95.0
....................             } 
....................          } 
....................                 
....................          if(DOWN)//Si oprime hacia abajo 
0EC56:  BSF    F96.0
0EC58:  BTFSC  F84.0
0EC5A:  BRA    ECD0
....................          {   
....................             Buzz_on;delay_ms(10);Buzz_off; 
0EC5C:  BSF    F8B.4
0EC5E:  BCF    F94.4
0EC60:  MOVLW  0A
0EC62:  MOVLB  7
0EC64:  MOVWF  xE3
0EC66:  MOVLB  0
0EC68:  CALL   1800
0EC6C:  BCF    F8B.4
0EC6E:  BCF    F94.4
....................             if(Ajuste>0) 
0EC70:  MOVLB  5
0EC72:  MOVF   x8A,F
0EC74:  BZ    ECD0
....................             { 
....................                delay_ms(30);Ajuste-=1.0;visual=1;      
0EC76:  MOVLW  1E
0EC78:  MOVLB  7
0EC7A:  MOVWF  xE3
0EC7C:  MOVLB  0
0EC7E:  CALL   1800
0EC82:  MOVLB  7
0EC84:  CLRF   xE4
0EC86:  MOVFF  58A,7E3
0EC8A:  MOVLB  0
0EC8C:  CALL   21C8
0EC90:  BSF    FD8.1
0EC92:  MOVFF  03,7E6
0EC96:  MOVFF  02,7E5
0EC9A:  MOVFF  01,7E4
0EC9E:  MOVFF  00,7E3
0ECA2:  MOVLB  7
0ECA4:  CLRF   xEA
0ECA6:  CLRF   xE9
0ECA8:  CLRF   xE8
0ECAA:  MOVLW  7F
0ECAC:  MOVWF  xE7
0ECAE:  MOVLB  0
0ECB0:  CALL   2FB0
0ECB4:  MOVFF  03,7E0
0ECB8:  MOVFF  02,7DF
0ECBC:  MOVFF  01,7DE
0ECC0:  MOVFF  00,7DD
0ECC4:  CALL   635C
0ECC8:  MOVFF  01,58A
0ECCC:  MOVLB  5
0ECCE:  BSF    x95.0
....................             } 
....................          } 
....................                 
....................          if(RIGHT)//Si oprime SET 
0ECD0:  BSF    F96.1
0ECD2:  BTFSC  F84.1
0ECD4:  BRA    ECFA
....................          {   
....................             Buzz_on;delay_ms(10);Buzz_off; 
0ECD6:  BSF    F8B.4
0ECD8:  BCF    F94.4
0ECDA:  MOVLW  0A
0ECDC:  MOVLB  7
0ECDE:  MOVWF  xE3
0ECE0:  MOVLB  0
0ECE2:  CALL   1800
0ECE6:  BCF    F8B.4
0ECE8:  BCF    F94.4
....................             delay_ms(30);visual=1; 
0ECEA:  MOVLW  1E
0ECEC:  MOVLB  7
0ECEE:  MOVWF  xE3
0ECF0:  MOVLB  0
0ECF2:  CALL   1800
0ECF6:  MOVLB  5
0ECF8:  BSF    x95.0
....................          }  
....................                    
....................          if(LEFT)//Si oprime boton de Toma. 
0ECFA:  BSF    F96.2
0ECFC:  BTFSC  F84.2
0ECFE:  BRA    ED70
....................          { 
....................             Buzz_on;delay_ms(10);Buzz_off; 
0ED00:  BSF    F8B.4
0ED02:  BCF    F94.4
0ED04:  MOVLW  0A
0ED06:  MOVLB  7
0ED08:  MOVWF  xE3
0ED0A:  MOVLB  0
0ED0C:  CALL   1800
0ED10:  BCF    F8B.4
0ED12:  BCF    F94.4
....................             delay_ms(700);Menu=100;glcd_fillscreen(OFF);Opcion=1;visual=1; 
0ED14:  MOVLW  04
0ED16:  MOVLB  7
0ED18:  MOVWF  xDD
0ED1A:  MOVLW  AF
0ED1C:  MOVWF  xE3
0ED1E:  MOVLB  0
0ED20:  CALL   1800
0ED24:  MOVLB  7
0ED26:  DECFSZ xDD,F
0ED28:  BRA    ED1A
0ED2A:  MOVLW  64
0ED2C:  MOVLB  5
0ED2E:  MOVWF  x9A
0ED30:  MOVLB  7
0ED32:  CLRF   xDE
0ED34:  MOVLB  0
0ED36:  CALL   1880
0ED3A:  MOVLW  01
0ED3C:  MOVLB  5
0ED3E:  MOVWF  xA1
0ED40:  BSF    x95.0
....................             write_eeprom(252,Ajuste); 
0ED42:  CLRF   FAA
0ED44:  MOVLW  FC
0ED46:  MOVWF  FA9
0ED48:  MOVFF  58A,FA8
0ED4C:  BCF    FA6.6
0ED4E:  BCF    FA6.7
0ED50:  BSF    FA6.2
0ED52:  MOVF   FF2,W
0ED54:  MOVWF  00
0ED56:  BCF    FF2.7
0ED58:  MOVLB  F
0ED5A:  MOVLW  55
0ED5C:  MOVWF  FA7
0ED5E:  MOVLW  AA
0ED60:  MOVWF  FA7
0ED62:  BSF    FA6.1
0ED64:  BTFSC  FA6.1
0ED66:  BRA    ED64
0ED68:  BCF    FA6.2
0ED6A:  MOVF   00,W
0ED6C:  IORWF  FF2,F
0ED6E:  MOVLB  5
....................          } 
....................      } 
.................... //_-------------------------------------------------------------------------------------------------------------------------------------------------------- 
....................  
.................... //_--------------------------------------------------------------------------------------------------------------------------------------------------------       
....................       if(Menu==106){ // Menu de Ajuste de Ajusten 
0ED70:  MOVF   x9A,W
0ED72:  SUBLW  6A
0ED74:  BTFSS  FD8.2
0ED76:  BRA    EF96
....................        
....................       if(Ajusten>100) 
0ED78:  MOVF   x8B,W
0ED7A:  SUBLW  64
0ED7C:  BC    ED80
....................       { 
....................          Ajusten=0; 
0ED7E:  CLRF   x8B
....................       } 
....................        
....................       if(visual==1) 
0ED80:  BTFSS  x95.0
0ED82:  BRA    EDEC
....................       { 
....................          glcd_fillScreen(OFF); 
0ED84:  MOVLB  7
0ED86:  CLRF   xDE
0ED88:  MOVLB  0
0ED8A:  CALL   1880
....................          strcpy(Menus.Letra,"Ajusten"); 
0ED8E:  MOVLW  07
0ED90:  MOVWF  FEA
0ED92:  MOVLW  BD
0ED94:  MOVWF  FE9
0ED96:  MOVFF  FF2,7DD
0ED9A:  BCF    FF2.7
0ED9C:  MOVLW  00
0ED9E:  CALL   156A
0EDA2:  TBLRD*-
0EDA4:  TBLRD*+
0EDA6:  MOVF   FF5,W
0EDA8:  MOVWF  FEE
0EDAA:  IORLW  00
0EDAC:  BNZ   EDA4
0EDAE:  MOVLB  7
0EDB0:  BTFSC  xDD.7
0EDB2:  BSF    FF2.7
....................          displayMenu(Menus.Letra,0,0,1,2); 
0EDB4:  MOVLW  07
0EDB6:  MOVWF  xE1
0EDB8:  MOVLW  BD
0EDBA:  MOVWF  xE0
0EDBC:  CLRF   xE2
0EDBE:  CLRF   xE3
0EDC0:  MOVLW  01
0EDC2:  MOVWF  xE4
0EDC4:  MOVLW  02
0EDC6:  MOVWF  xE5
0EDC8:  MOVLB  0
0EDCA:  CALL   1EC0
....................           
....................          displayTemperatura(Ajusten,30,30,0,3); 
0EDCE:  MOVLB  7
0EDD0:  CLRF   xE3
0EDD2:  MOVFF  58B,7E2
0EDD6:  MOVLW  1E
0EDD8:  MOVWF  xE4
0EDDA:  MOVWF  xE5
0EDDC:  CLRF   xE6
0EDDE:  MOVLW  03
0EDE0:  MOVWF  xE7
0EDE2:  MOVLB  0
0EDE4:  CALL   4B6A
....................           
....................          visual=0; 
0EDE8:  MOVLB  5
0EDEA:  BCF    x95.0
....................       } 
....................        
....................          if(UP)//Si oprime hacia arriba 
0EDEC:  BSF    F92.5
0EDEE:  BTFSC  F80.5
0EDF0:  BRA    EE7C
....................          {   
....................             Buzz_on;delay_ms(10);Buzz_off; 
0EDF2:  BSF    F8B.4
0EDF4:  BCF    F94.4
0EDF6:  MOVLW  0A
0EDF8:  MOVLB  7
0EDFA:  MOVWF  xE3
0EDFC:  MOVLB  0
0EDFE:  CALL   1800
0EE02:  BCF    F8B.4
0EE04:  BCF    F94.4
....................             if(Ajusten>100) 
0EE06:  MOVLB  5
0EE08:  MOVF   x8B,W
0EE0A:  SUBLW  64
0EE0C:  BC    EE22
....................             { 
....................                Ajusten=100;delay_ms(100);visual=1; 
0EE0E:  MOVLW  64
0EE10:  MOVWF  x8B
0EE12:  MOVLB  7
0EE14:  MOVWF  xE3
0EE16:  MOVLB  0
0EE18:  CALL   1800
0EE1C:  MOVLB  5
0EE1E:  BSF    x95.0
....................             } 
....................             else 
0EE20:  BRA    EE7C
....................             { 
....................                delay_ms(30);Ajusten+=1.0;visual=1; 
0EE22:  MOVLW  1E
0EE24:  MOVLB  7
0EE26:  MOVWF  xE3
0EE28:  MOVLB  0
0EE2A:  CALL   1800
0EE2E:  MOVLB  7
0EE30:  CLRF   xE4
0EE32:  MOVFF  58B,7E3
0EE36:  MOVLB  0
0EE38:  CALL   21C8
0EE3C:  BCF    FD8.1
0EE3E:  MOVFF  03,7E6
0EE42:  MOVFF  02,7E5
0EE46:  MOVFF  01,7E4
0EE4A:  MOVFF  00,7E3
0EE4E:  MOVLB  7
0EE50:  CLRF   xEA
0EE52:  CLRF   xE9
0EE54:  CLRF   xE8
0EE56:  MOVLW  7F
0EE58:  MOVWF  xE7
0EE5A:  MOVLB  0
0EE5C:  CALL   2FB0
0EE60:  MOVFF  03,7E0
0EE64:  MOVFF  02,7DF
0EE68:  MOVFF  01,7DE
0EE6C:  MOVFF  00,7DD
0EE70:  CALL   635C
0EE74:  MOVFF  01,58B
0EE78:  MOVLB  5
0EE7A:  BSF    x95.0
....................             } 
....................          } 
....................                 
....................          if(DOWN)//Si oprime hacia abajo 
0EE7C:  BSF    F96.0
0EE7E:  BTFSC  F84.0
0EE80:  BRA    EEF6
....................          {   
....................             Buzz_on;delay_ms(10);Buzz_off; 
0EE82:  BSF    F8B.4
0EE84:  BCF    F94.4
0EE86:  MOVLW  0A
0EE88:  MOVLB  7
0EE8A:  MOVWF  xE3
0EE8C:  MOVLB  0
0EE8E:  CALL   1800
0EE92:  BCF    F8B.4
0EE94:  BCF    F94.4
....................             if(Ajusten>0) 
0EE96:  MOVLB  5
0EE98:  MOVF   x8B,F
0EE9A:  BZ    EEF6
....................             { 
....................                delay_ms(30);Ajusten-=1.0;visual=1;      
0EE9C:  MOVLW  1E
0EE9E:  MOVLB  7
0EEA0:  MOVWF  xE3
0EEA2:  MOVLB  0
0EEA4:  CALL   1800
0EEA8:  MOVLB  7
0EEAA:  CLRF   xE4
0EEAC:  MOVFF  58B,7E3
0EEB0:  MOVLB  0
0EEB2:  CALL   21C8
0EEB6:  BSF    FD8.1
0EEB8:  MOVFF  03,7E6
0EEBC:  MOVFF  02,7E5
0EEC0:  MOVFF  01,7E4
0EEC4:  MOVFF  00,7E3
0EEC8:  MOVLB  7
0EECA:  CLRF   xEA
0EECC:  CLRF   xE9
0EECE:  CLRF   xE8
0EED0:  MOVLW  7F
0EED2:  MOVWF  xE7
0EED4:  MOVLB  0
0EED6:  CALL   2FB0
0EEDA:  MOVFF  03,7E0
0EEDE:  MOVFF  02,7DF
0EEE2:  MOVFF  01,7DE
0EEE6:  MOVFF  00,7DD
0EEEA:  CALL   635C
0EEEE:  MOVFF  01,58B
0EEF2:  MOVLB  5
0EEF4:  BSF    x95.0
....................             } 
....................          } 
....................                 
....................          if(RIGHT)//Si oprime SET 
0EEF6:  BSF    F96.1
0EEF8:  BTFSC  F84.1
0EEFA:  BRA    EF20
....................          {   
....................             Buzz_on;delay_ms(10);Buzz_off; 
0EEFC:  BSF    F8B.4
0EEFE:  BCF    F94.4
0EF00:  MOVLW  0A
0EF02:  MOVLB  7
0EF04:  MOVWF  xE3
0EF06:  MOVLB  0
0EF08:  CALL   1800
0EF0C:  BCF    F8B.4
0EF0E:  BCF    F94.4
....................             delay_ms(30);visual=1; 
0EF10:  MOVLW  1E
0EF12:  MOVLB  7
0EF14:  MOVWF  xE3
0EF16:  MOVLB  0
0EF18:  CALL   1800
0EF1C:  MOVLB  5
0EF1E:  BSF    x95.0
....................          }  
....................                    
....................          if(LEFT)//Si oprime boton de Toma. 
0EF20:  BSF    F96.2
0EF22:  BTFSC  F84.2
0EF24:  BRA    EF96
....................          { 
....................             Buzz_on;delay_ms(10);Buzz_off; 
0EF26:  BSF    F8B.4
0EF28:  BCF    F94.4
0EF2A:  MOVLW  0A
0EF2C:  MOVLB  7
0EF2E:  MOVWF  xE3
0EF30:  MOVLB  0
0EF32:  CALL   1800
0EF36:  BCF    F8B.4
0EF38:  BCF    F94.4
....................             delay_ms(700);Menu=100;glcd_fillscreen(OFF);Opcion=1;visual=1; 
0EF3A:  MOVLW  04
0EF3C:  MOVLB  7
0EF3E:  MOVWF  xDD
0EF40:  MOVLW  AF
0EF42:  MOVWF  xE3
0EF44:  MOVLB  0
0EF46:  CALL   1800
0EF4A:  MOVLB  7
0EF4C:  DECFSZ xDD,F
0EF4E:  BRA    EF40
0EF50:  MOVLW  64
0EF52:  MOVLB  5
0EF54:  MOVWF  x9A
0EF56:  MOVLB  7
0EF58:  CLRF   xDE
0EF5A:  MOVLB  0
0EF5C:  CALL   1880
0EF60:  MOVLW  01
0EF62:  MOVLB  5
0EF64:  MOVWF  xA1
0EF66:  BSF    x95.0
....................             write_eeprom(253,Ajusten); 
0EF68:  CLRF   FAA
0EF6A:  MOVLW  FD
0EF6C:  MOVWF  FA9
0EF6E:  MOVFF  58B,FA8
0EF72:  BCF    FA6.6
0EF74:  BCF    FA6.7
0EF76:  BSF    FA6.2
0EF78:  MOVF   FF2,W
0EF7A:  MOVWF  00
0EF7C:  BCF    FF2.7
0EF7E:  MOVLB  F
0EF80:  MOVLW  55
0EF82:  MOVWF  FA7
0EF84:  MOVLW  AA
0EF86:  MOVWF  FA7
0EF88:  BSF    FA6.1
0EF8A:  BTFSC  FA6.1
0EF8C:  BRA    EF8A
0EF8E:  BCF    FA6.2
0EF90:  MOVF   00,W
0EF92:  IORWF  FF2,F
0EF94:  MOVLB  5
....................          } 
....................      } 
.................... //_-------------------------------------------------------------------------------------------------------------------------------------------------------- 
....................  
.................... //_--------------------------------------------------------------------------------------------------------------------------------------------------------       
....................       if(Menu==107){ // Menu de Ajuste de Media Movil 
0EF96:  MOVF   x9A,W
0EF98:  SUBLW  6B
0EF9A:  BTFSS  FD8.2
0EF9C:  BRA    F1C2
....................        
....................       if(MediaMovil>80) 
0EF9E:  MOVF   x8C,W
0EFA0:  SUBLW  50
0EFA2:  BC    EFA8
....................       { 
....................          MediaMovil=10; 
0EFA4:  MOVLW  0A
0EFA6:  MOVWF  x8C
....................       } 
....................        
....................       if(visual==1) 
0EFA8:  BTFSS  x95.0
0EFAA:  BRA    F014
....................       { 
....................          glcd_fillScreen(OFF); 
0EFAC:  MOVLB  7
0EFAE:  CLRF   xDE
0EFB0:  MOVLB  0
0EFB2:  CALL   1880
....................          strcpy(Menus.Letra,"Media"); 
0EFB6:  MOVLW  07
0EFB8:  MOVWF  FEA
0EFBA:  MOVLW  BD
0EFBC:  MOVWF  FE9
0EFBE:  MOVFF  FF2,7DD
0EFC2:  BCF    FF2.7
0EFC4:  MOVLW  00
0EFC6:  CALL   1590
0EFCA:  TBLRD*-
0EFCC:  TBLRD*+
0EFCE:  MOVF   FF5,W
0EFD0:  MOVWF  FEE
0EFD2:  IORLW  00
0EFD4:  BNZ   EFCC
0EFD6:  MOVLB  7
0EFD8:  BTFSC  xDD.7
0EFDA:  BSF    FF2.7
....................          displayMenu(Menus.Letra,0,0,1,2); 
0EFDC:  MOVLW  07
0EFDE:  MOVWF  xE1
0EFE0:  MOVLW  BD
0EFE2:  MOVWF  xE0
0EFE4:  CLRF   xE2
0EFE6:  CLRF   xE3
0EFE8:  MOVLW  01
0EFEA:  MOVWF  xE4
0EFEC:  MOVLW  02
0EFEE:  MOVWF  xE5
0EFF0:  MOVLB  0
0EFF2:  CALL   1EC0
....................           
....................          displayTemperatura(MediaMovil,30,30,0,3); 
0EFF6:  MOVLB  7
0EFF8:  CLRF   xE3
0EFFA:  MOVFF  58C,7E2
0EFFE:  MOVLW  1E
0F000:  MOVWF  xE4
0F002:  MOVWF  xE5
0F004:  CLRF   xE6
0F006:  MOVLW  03
0F008:  MOVWF  xE7
0F00A:  MOVLB  0
0F00C:  CALL   4B6A
....................           
....................          visual=0; 
0F010:  MOVLB  5
0F012:  BCF    x95.0
....................       } 
....................        
....................          if(UP)//Si oprime hacia arriba 
0F014:  BSF    F92.5
0F016:  BTFSC  F80.5
0F018:  BRA    F0A6
....................          {   
....................             Buzz_on;delay_ms(10);Buzz_off; 
0F01A:  BSF    F8B.4
0F01C:  BCF    F94.4
0F01E:  MOVLW  0A
0F020:  MOVLB  7
0F022:  MOVWF  xE3
0F024:  MOVLB  0
0F026:  CALL   1800
0F02A:  BCF    F8B.4
0F02C:  BCF    F94.4
....................             if(MediaMovil>79) 
0F02E:  MOVLB  5
0F030:  MOVF   x8C,W
0F032:  SUBLW  4F
0F034:  BC    F04C
....................             { 
....................                MediaMovil=79;delay_ms(100);visual=1; 
0F036:  MOVLW  4F
0F038:  MOVWF  x8C
0F03A:  MOVLW  64
0F03C:  MOVLB  7
0F03E:  MOVWF  xE3
0F040:  MOVLB  0
0F042:  CALL   1800
0F046:  MOVLB  5
0F048:  BSF    x95.0
....................             } 
....................             else 
0F04A:  BRA    F0A6
....................             { 
....................                delay_ms(30);MediaMovil+=1.0;visual=1; 
0F04C:  MOVLW  1E
0F04E:  MOVLB  7
0F050:  MOVWF  xE3
0F052:  MOVLB  0
0F054:  CALL   1800
0F058:  MOVLB  7
0F05A:  CLRF   xE4
0F05C:  MOVFF  58C,7E3
0F060:  MOVLB  0
0F062:  CALL   21C8
0F066:  BCF    FD8.1
0F068:  MOVFF  03,7E6
0F06C:  MOVFF  02,7E5
0F070:  MOVFF  01,7E4
0F074:  MOVFF  00,7E3
0F078:  MOVLB  7
0F07A:  CLRF   xEA
0F07C:  CLRF   xE9
0F07E:  CLRF   xE8
0F080:  MOVLW  7F
0F082:  MOVWF  xE7
0F084:  MOVLB  0
0F086:  CALL   2FB0
0F08A:  MOVFF  03,7E0
0F08E:  MOVFF  02,7DF
0F092:  MOVFF  01,7DE
0F096:  MOVFF  00,7DD
0F09A:  CALL   635C
0F09E:  MOVFF  01,58C
0F0A2:  MOVLB  5
0F0A4:  BSF    x95.0
....................             } 
....................          } 
....................                 
....................          if(DOWN)//Si oprime hacia abajo 
0F0A6:  BSF    F96.0
0F0A8:  BTFSC  F84.0
0F0AA:  BRA    F122
....................          {   
....................             Buzz_on;delay_ms(10);Buzz_off; 
0F0AC:  BSF    F8B.4
0F0AE:  BCF    F94.4
0F0B0:  MOVLW  0A
0F0B2:  MOVLB  7
0F0B4:  MOVWF  xE3
0F0B6:  MOVLB  0
0F0B8:  CALL   1800
0F0BC:  BCF    F8B.4
0F0BE:  BCF    F94.4
....................             if(MediaMovil>1) 
0F0C0:  MOVLB  5
0F0C2:  MOVF   x8C,W
0F0C4:  SUBLW  01
0F0C6:  BC    F122
....................             { 
....................                delay_ms(30);MediaMovil-=1.0;visual=1;      
0F0C8:  MOVLW  1E
0F0CA:  MOVLB  7
0F0CC:  MOVWF  xE3
0F0CE:  MOVLB  0
0F0D0:  CALL   1800
0F0D4:  MOVLB  7
0F0D6:  CLRF   xE4
0F0D8:  MOVFF  58C,7E3
0F0DC:  MOVLB  0
0F0DE:  CALL   21C8
0F0E2:  BSF    FD8.1
0F0E4:  MOVFF  03,7E6
0F0E8:  MOVFF  02,7E5
0F0EC:  MOVFF  01,7E4
0F0F0:  MOVFF  00,7E3
0F0F4:  MOVLB  7
0F0F6:  CLRF   xEA
0F0F8:  CLRF   xE9
0F0FA:  CLRF   xE8
0F0FC:  MOVLW  7F
0F0FE:  MOVWF  xE7
0F100:  MOVLB  0
0F102:  CALL   2FB0
0F106:  MOVFF  03,7E0
0F10A:  MOVFF  02,7DF
0F10E:  MOVFF  01,7DE
0F112:  MOVFF  00,7DD
0F116:  CALL   635C
0F11A:  MOVFF  01,58C
0F11E:  MOVLB  5
0F120:  BSF    x95.0
....................             } 
....................          } 
....................                 
....................          if(RIGHT)//Si oprime SET 
0F122:  BSF    F96.1
0F124:  BTFSC  F84.1
0F126:  BRA    F14C
....................          {   
....................             Buzz_on;delay_ms(10);Buzz_off; 
0F128:  BSF    F8B.4
0F12A:  BCF    F94.4
0F12C:  MOVLW  0A
0F12E:  MOVLB  7
0F130:  MOVWF  xE3
0F132:  MOVLB  0
0F134:  CALL   1800
0F138:  BCF    F8B.4
0F13A:  BCF    F94.4
....................             delay_ms(30);visual=1; 
0F13C:  MOVLW  1E
0F13E:  MOVLB  7
0F140:  MOVWF  xE3
0F142:  MOVLB  0
0F144:  CALL   1800
0F148:  MOVLB  5
0F14A:  BSF    x95.0
....................          }  
....................                    
....................          if(LEFT)//Si oprime boton de Toma. 
0F14C:  BSF    F96.2
0F14E:  BTFSC  F84.2
0F150:  BRA    F1C2
....................          { 
....................             Buzz_on;delay_ms(10);Buzz_off; 
0F152:  BSF    F8B.4
0F154:  BCF    F94.4
0F156:  MOVLW  0A
0F158:  MOVLB  7
0F15A:  MOVWF  xE3
0F15C:  MOVLB  0
0F15E:  CALL   1800
0F162:  BCF    F8B.4
0F164:  BCF    F94.4
....................             delay_ms(700);Menu=100;glcd_fillscreen(OFF);Opcion=1;visual=1; 
0F166:  MOVLW  04
0F168:  MOVLB  7
0F16A:  MOVWF  xDD
0F16C:  MOVLW  AF
0F16E:  MOVWF  xE3
0F170:  MOVLB  0
0F172:  CALL   1800
0F176:  MOVLB  7
0F178:  DECFSZ xDD,F
0F17A:  BRA    F16C
0F17C:  MOVLW  64
0F17E:  MOVLB  5
0F180:  MOVWF  x9A
0F182:  MOVLB  7
0F184:  CLRF   xDE
0F186:  MOVLB  0
0F188:  CALL   1880
0F18C:  MOVLW  01
0F18E:  MOVLB  5
0F190:  MOVWF  xA1
0F192:  BSF    x95.0
....................             write_eeprom(254,(int8)MediaMovil); 
0F194:  CLRF   FAA
0F196:  MOVLW  FE
0F198:  MOVWF  FA9
0F19A:  MOVFF  58C,FA8
0F19E:  BCF    FA6.6
0F1A0:  BCF    FA6.7
0F1A2:  BSF    FA6.2
0F1A4:  MOVF   FF2,W
0F1A6:  MOVWF  00
0F1A8:  BCF    FF2.7
0F1AA:  MOVLB  F
0F1AC:  MOVLW  55
0F1AE:  MOVWF  FA7
0F1B0:  MOVLW  AA
0F1B2:  MOVWF  FA7
0F1B4:  BSF    FA6.1
0F1B6:  BTFSC  FA6.1
0F1B8:  BRA    F1B6
0F1BA:  BCF    FA6.2
0F1BC:  MOVF   00,W
0F1BE:  IORWF  FF2,F
0F1C0:  MOVLB  5
....................          } 
....................      } 
.................... //_-------------------------------------------------------------------------------------------------------------------------------------------------------- 
....................  
.................... //_--------------------------------------------------------------------------------------------------------------------------------------------------------       
....................       if(Menu==108){ // Menu de Ajuste de Coeficiente Regulador 
0F1C2:  MOVF   x9A,W
0F1C4:  SUBLW  6C
0F1C6:  BTFSS  FD8.2
0F1C8:  BRA    F472
....................        
....................       if(Coeficiente>250) 
0F1CA:  MOVLB  7
0F1CC:  CLRF   xE0
0F1CE:  CLRF   xDF
0F1D0:  MOVLW  7A
0F1D2:  MOVWF  xDE
0F1D4:  MOVLW  86
0F1D6:  MOVWF  xDD
0F1D8:  MOVFF  61E,7E4
0F1DC:  MOVFF  61D,7E3
0F1E0:  MOVFF  61C,7E2
0F1E4:  MOVFF  61B,7E1
0F1E8:  MOVLB  0
0F1EA:  CALL   21FE
0F1EE:  BNC   F1FE
....................       { 
....................          Coeficiente=100; 
0F1F0:  MOVLB  6
0F1F2:  CLRF   x1E
0F1F4:  CLRF   x1D
0F1F6:  MOVLW  48
0F1F8:  MOVWF  x1C
0F1FA:  MOVLW  85
0F1FC:  MOVWF  x1B
....................       } 
....................        
....................       if(visual==1) 
0F1FE:  MOVLB  5
0F200:  BTFSS  x95.0
0F202:  BRA    F28A
....................       { 
....................          glcd_fillScreen(OFF); 
0F204:  MOVLB  7
0F206:  CLRF   xDE
0F208:  MOVLB  0
0F20A:  CALL   1880
....................          strcpy(Menus.Letra,"Coeficiente"); 
0F20E:  MOVLW  07
0F210:  MOVWF  FEA
0F212:  MOVLW  BD
0F214:  MOVWF  FE9
0F216:  MOVFF  FF2,7DD
0F21A:  BCF    FF2.7
0F21C:  MOVLW  00
0F21E:  CALL   1412
0F222:  TBLRD*-
0F224:  TBLRD*+
0F226:  MOVF   FF5,W
0F228:  MOVWF  FEE
0F22A:  IORLW  00
0F22C:  BNZ   F224
0F22E:  MOVLB  7
0F230:  BTFSC  xDD.7
0F232:  BSF    FF2.7
....................          displayMenu(Menus.Letra,0,0,1,2); 
0F234:  MOVLW  07
0F236:  MOVWF  xE1
0F238:  MOVLW  BD
0F23A:  MOVWF  xE0
0F23C:  CLRF   xE2
0F23E:  CLRF   xE3
0F240:  MOVLW  01
0F242:  MOVWF  xE4
0F244:  MOVLW  02
0F246:  MOVWF  xE5
0F248:  MOVLB  0
0F24A:  CALL   1EC0
....................           
....................          displayTemperatura(Coeficiente,30,30,0,3); 
0F24E:  MOVFF  61E,7E0
0F252:  MOVFF  61D,7DF
0F256:  MOVFF  61C,7DE
0F25A:  MOVFF  61B,7DD
0F25E:  CALL   635C
0F262:  MOVFF  02,7DE
0F266:  MOVFF  01,7DD
0F26A:  MOVFF  02,7E3
0F26E:  MOVFF  01,7E2
0F272:  MOVLW  1E
0F274:  MOVLB  7
0F276:  MOVWF  xE4
0F278:  MOVWF  xE5
0F27A:  CLRF   xE6
0F27C:  MOVLW  03
0F27E:  MOVWF  xE7
0F280:  MOVLB  0
0F282:  CALL   4B6A
....................           
....................          visual=0; 
0F286:  MOVLB  5
0F288:  BCF    x95.0
....................       } 
....................        
....................          if(UP)//Si oprime hacia arriba 
0F28A:  BSF    F92.5
0F28C:  BTFSC  F80.5
0F28E:  BRA    F330
....................          {   
....................             Buzz_on;delay_ms(10);Buzz_off; 
0F290:  BSF    F8B.4
0F292:  BCF    F94.4
0F294:  MOVLW  0A
0F296:  MOVLB  7
0F298:  MOVWF  xE3
0F29A:  MOVLB  0
0F29C:  CALL   1800
0F2A0:  BCF    F8B.4
0F2A2:  BCF    F94.4
....................             if(Coeficiente>250) 
0F2A4:  MOVLB  7
0F2A6:  CLRF   xE0
0F2A8:  CLRF   xDF
0F2AA:  MOVLW  7A
0F2AC:  MOVWF  xDE
0F2AE:  MOVLW  86
0F2B0:  MOVWF  xDD
0F2B2:  MOVFF  61E,7E4
0F2B6:  MOVFF  61D,7E3
0F2BA:  MOVFF  61C,7E2
0F2BE:  MOVFF  61B,7E1
0F2C2:  MOVLB  0
0F2C4:  CALL   21FE
0F2C8:  BNC   F2EC
....................             { 
....................                Coeficiente=250;delay_ms(100);visual=1; 
0F2CA:  MOVLB  6
0F2CC:  CLRF   x1E
0F2CE:  CLRF   x1D
0F2D0:  MOVLW  7A
0F2D2:  MOVWF  x1C
0F2D4:  MOVLW  86
0F2D6:  MOVWF  x1B
0F2D8:  MOVLW  64
0F2DA:  MOVLB  7
0F2DC:  MOVWF  xE3
0F2DE:  MOVLB  0
0F2E0:  CALL   1800
0F2E4:  MOVLB  5
0F2E6:  BSF    x95.0
....................             } 
....................             else 
0F2E8:  BRA    F330
0F2EA:  MOVLB  0
....................             { 
....................                delay_ms(30);Coeficiente+=1.0;visual=1; 
0F2EC:  MOVLW  1E
0F2EE:  MOVLB  7
0F2F0:  MOVWF  xE3
0F2F2:  MOVLB  0
0F2F4:  CALL   1800
0F2F8:  BCF    FD8.1
0F2FA:  MOVFF  61E,7E6
0F2FE:  MOVFF  61D,7E5
0F302:  MOVFF  61C,7E4
0F306:  MOVFF  61B,7E3
0F30A:  MOVLB  7
0F30C:  CLRF   xEA
0F30E:  CLRF   xE9
0F310:  CLRF   xE8
0F312:  MOVLW  7F
0F314:  MOVWF  xE7
0F316:  MOVLB  0
0F318:  CALL   2FB0
0F31C:  MOVFF  03,61E
0F320:  MOVFF  02,61D
0F324:  MOVFF  01,61C
0F328:  MOVFF  00,61B
0F32C:  MOVLB  5
0F32E:  BSF    x95.0
....................             } 
....................          } 
....................                 
....................          if(DOWN)//Si oprime hacia abajo 
0F330:  BSF    F96.0
0F332:  BTFSC  F84.0
0F334:  BRA    F3B2
....................          {   
....................             Buzz_on;delay_ms(10);Buzz_off; 
0F336:  BSF    F8B.4
0F338:  BCF    F94.4
0F33A:  MOVLW  0A
0F33C:  MOVLB  7
0F33E:  MOVWF  xE3
0F340:  MOVLB  0
0F342:  CALL   1800
0F346:  BCF    F8B.4
0F348:  BCF    F94.4
....................             if(Coeficiente>1) 
0F34A:  MOVLB  7
0F34C:  CLRF   xE0
0F34E:  CLRF   xDF
0F350:  CLRF   xDE
0F352:  MOVLW  7F
0F354:  MOVWF  xDD
0F356:  MOVFF  61E,7E4
0F35A:  MOVFF  61D,7E3
0F35E:  MOVFF  61C,7E2
0F362:  MOVFF  61B,7E1
0F366:  MOVLB  0
0F368:  CALL   21FE
0F36C:  BNC   F3B4
....................             { 
....................                delay_ms(30);Coeficiente-=1.0;visual=1;      
0F36E:  MOVLW  1E
0F370:  MOVLB  7
0F372:  MOVWF  xE3
0F374:  MOVLB  0
0F376:  CALL   1800
0F37A:  BSF    FD8.1
0F37C:  MOVFF  61E,7E6
0F380:  MOVFF  61D,7E5
0F384:  MOVFF  61C,7E4
0F388:  MOVFF  61B,7E3
0F38C:  MOVLB  7
0F38E:  CLRF   xEA
0F390:  CLRF   xE9
0F392:  CLRF   xE8
0F394:  MOVLW  7F
0F396:  MOVWF  xE7
0F398:  MOVLB  0
0F39A:  CALL   2FB0
0F39E:  MOVFF  03,61E
0F3A2:  MOVFF  02,61D
0F3A6:  MOVFF  01,61C
0F3AA:  MOVFF  00,61B
0F3AE:  MOVLB  5
0F3B0:  BSF    x95.0
0F3B2:  MOVLB  0
....................             } 
....................          } 
....................                 
....................          if(RIGHT)//Si oprime SET 
0F3B4:  BSF    F96.1
0F3B6:  BTFSC  F84.1
0F3B8:  BRA    F3E0
....................          {   
....................             Buzz_on;delay_ms(10);Buzz_off; 
0F3BA:  BSF    F8B.4
0F3BC:  BCF    F94.4
0F3BE:  MOVLW  0A
0F3C0:  MOVLB  7
0F3C2:  MOVWF  xE3
0F3C4:  MOVLB  0
0F3C6:  CALL   1800
0F3CA:  BCF    F8B.4
0F3CC:  BCF    F94.4
....................             delay_ms(30);visual=1; 
0F3CE:  MOVLW  1E
0F3D0:  MOVLB  7
0F3D2:  MOVWF  xE3
0F3D4:  MOVLB  0
0F3D6:  CALL   1800
0F3DA:  MOVLB  5
0F3DC:  BSF    x95.0
0F3DE:  MOVLB  0
....................          }  
....................                    
....................          if(LEFT)//Si oprime boton de Toma. 
0F3E0:  BSF    F96.2
0F3E2:  BTFSC  F84.2
0F3E4:  BRA    F470
....................          { 
....................             Buzz_on;delay_ms(10);Buzz_off; 
0F3E6:  BSF    F8B.4
0F3E8:  BCF    F94.4
0F3EA:  MOVLW  0A
0F3EC:  MOVLB  7
0F3EE:  MOVWF  xE3
0F3F0:  MOVLB  0
0F3F2:  CALL   1800
0F3F6:  BCF    F8B.4
0F3F8:  BCF    F94.4
....................             delay_ms(700);Menu=100;glcd_fillscreen(OFF);Opcion=1;visual=1; 
0F3FA:  MOVLW  04
0F3FC:  MOVLB  7
0F3FE:  MOVWF  xDD
0F400:  MOVLW  AF
0F402:  MOVWF  xE3
0F404:  MOVLB  0
0F406:  CALL   1800
0F40A:  MOVLB  7
0F40C:  DECFSZ xDD,F
0F40E:  BRA    F400
0F410:  MOVLW  64
0F412:  MOVLB  5
0F414:  MOVWF  x9A
0F416:  MOVLB  7
0F418:  CLRF   xDE
0F41A:  MOVLB  0
0F41C:  CALL   1880
0F420:  MOVLW  01
0F422:  MOVLB  5
0F424:  MOVWF  xA1
0F426:  BSF    x95.0
....................             write_eeprom(255,(int8)Coeficiente); 
0F428:  MOVFF  61E,7E0
0F42C:  MOVFF  61D,7DF
0F430:  MOVFF  61C,7DE
0F434:  MOVFF  61B,7DD
0F438:  MOVLB  0
0F43A:  CALL   635C
0F43E:  MOVFF  01,7DD
0F442:  CLRF   FAA
0F444:  MOVLW  FF
0F446:  MOVWF  FA9
0F448:  MOVFF  7DD,FA8
0F44C:  BCF    FA6.6
0F44E:  BCF    FA6.7
0F450:  BSF    FA6.2
0F452:  MOVF   FF2,W
0F454:  MOVWF  00
0F456:  BCF    FF2.7
0F458:  MOVLB  F
0F45A:  MOVLW  55
0F45C:  MOVWF  FA7
0F45E:  MOVLW  AA
0F460:  MOVWF  FA7
0F462:  BSF    FA6.1
0F464:  BTFSC  FA6.1
0F466:  BRA    F464
0F468:  BCF    FA6.2
0F46A:  MOVF   00,W
0F46C:  IORWF  FF2,F
0F46E:  MOVLB  0
0F470:  MOVLB  5
....................          } 
....................      } 
.................... //_-------------------------------------------------------------------------------------------------------------------------------------------------------- 
....................  
.................... //_--------------------------------------------------------------------------------------------------------------------------------------------------------       
....................       if(Menu==109){ // Menu de Alarma Sobretemperatura 
0F472:  MOVF   x9A,W
0F474:  SUBLW  6D
0F476:  BTFSS  FD8.2
0F478:  BRA    F72A
....................        
....................       if(AlTem>250) 
0F47A:  MOVLB  7
0F47C:  CLRF   xE0
0F47E:  CLRF   xDF
0F480:  MOVLW  7A
0F482:  MOVWF  xDE
0F484:  MOVLW  86
0F486:  MOVWF  xDD
0F488:  MOVFF  622,7E4
0F48C:  MOVFF  621,7E3
0F490:  MOVFF  620,7E2
0F494:  MOVFF  61F,7E1
0F498:  MOVLB  0
0F49A:  CALL   21FE
0F49E:  BNC   F4AE
....................       { 
....................          AlTem=250; 
0F4A0:  MOVLB  6
0F4A2:  CLRF   x22
0F4A4:  CLRF   x21
0F4A6:  MOVLW  7A
0F4A8:  MOVWF  x20
0F4AA:  MOVLW  86
0F4AC:  MOVWF  x1F
....................       } 
....................        
....................       if(visual==1) 
0F4AE:  MOVLB  5
0F4B0:  BTFSS  x95.0
0F4B2:  BRA    F53A
....................       { 
....................          glcd_fillScreen(OFF); 
0F4B4:  MOVLB  7
0F4B6:  CLRF   xDE
0F4B8:  MOVLB  0
0F4BA:  CALL   1880
....................          strcpy(Menus.Letra,"Alarma"); 
0F4BE:  MOVLW  07
0F4C0:  MOVWF  FEA
0F4C2:  MOVLW  BD
0F4C4:  MOVWF  FE9
0F4C6:  MOVFF  FF2,7DD
0F4CA:  BCF    FF2.7
0F4CC:  MOVLW  00
0F4CE:  CALL   15B4
0F4D2:  TBLRD*-
0F4D4:  TBLRD*+
0F4D6:  MOVF   FF5,W
0F4D8:  MOVWF  FEE
0F4DA:  IORLW  00
0F4DC:  BNZ   F4D4
0F4DE:  MOVLB  7
0F4E0:  BTFSC  xDD.7
0F4E2:  BSF    FF2.7
....................          displayMenu(Menus.Letra,0,0,1,2); 
0F4E4:  MOVLW  07
0F4E6:  MOVWF  xE1
0F4E8:  MOVLW  BD
0F4EA:  MOVWF  xE0
0F4EC:  CLRF   xE2
0F4EE:  CLRF   xE3
0F4F0:  MOVLW  01
0F4F2:  MOVWF  xE4
0F4F4:  MOVLW  02
0F4F6:  MOVWF  xE5
0F4F8:  MOVLB  0
0F4FA:  CALL   1EC0
....................           
....................          displayTemperatura(AlTem,30,30,0,3); 
0F4FE:  MOVFF  622,7E0
0F502:  MOVFF  621,7DF
0F506:  MOVFF  620,7DE
0F50A:  MOVFF  61F,7DD
0F50E:  CALL   635C
0F512:  MOVFF  02,7DE
0F516:  MOVFF  01,7DD
0F51A:  MOVFF  02,7E3
0F51E:  MOVFF  01,7E2
0F522:  MOVLW  1E
0F524:  MOVLB  7
0F526:  MOVWF  xE4
0F528:  MOVWF  xE5
0F52A:  CLRF   xE6
0F52C:  MOVLW  03
0F52E:  MOVWF  xE7
0F530:  MOVLB  0
0F532:  CALL   4B6A
....................           
....................          visual=0; 
0F536:  MOVLB  5
0F538:  BCF    x95.0
....................       } 
....................        
....................          if(UP)//Si oprime hacia arriba 
0F53A:  BSF    F92.5
0F53C:  BTFSC  F80.5
0F53E:  BRA    F5E0
....................          {   
....................             Buzz_on;delay_ms(10);Buzz_off; 
0F540:  BSF    F8B.4
0F542:  BCF    F94.4
0F544:  MOVLW  0A
0F546:  MOVLB  7
0F548:  MOVWF  xE3
0F54A:  MOVLB  0
0F54C:  CALL   1800
0F550:  BCF    F8B.4
0F552:  BCF    F94.4
....................             if(AlTem>250) 
0F554:  MOVLB  7
0F556:  CLRF   xE0
0F558:  CLRF   xDF
0F55A:  MOVLW  7A
0F55C:  MOVWF  xDE
0F55E:  MOVLW  86
0F560:  MOVWF  xDD
0F562:  MOVFF  622,7E4
0F566:  MOVFF  621,7E3
0F56A:  MOVFF  620,7E2
0F56E:  MOVFF  61F,7E1
0F572:  MOVLB  0
0F574:  CALL   21FE
0F578:  BNC   F59C
....................             { 
....................                AlTem=250;delay_ms(100);visual=1; 
0F57A:  MOVLB  6
0F57C:  CLRF   x22
0F57E:  CLRF   x21
0F580:  MOVLW  7A
0F582:  MOVWF  x20
0F584:  MOVLW  86
0F586:  MOVWF  x1F
0F588:  MOVLW  64
0F58A:  MOVLB  7
0F58C:  MOVWF  xE3
0F58E:  MOVLB  0
0F590:  CALL   1800
0F594:  MOVLB  5
0F596:  BSF    x95.0
....................             } 
....................             else 
0F598:  BRA    F5E0
0F59A:  MOVLB  0
....................             { 
....................                delay_ms(30);AlTem+=1.0;visual=1; 
0F59C:  MOVLW  1E
0F59E:  MOVLB  7
0F5A0:  MOVWF  xE3
0F5A2:  MOVLB  0
0F5A4:  CALL   1800
0F5A8:  BCF    FD8.1
0F5AA:  MOVFF  622,7E6
0F5AE:  MOVFF  621,7E5
0F5B2:  MOVFF  620,7E4
0F5B6:  MOVFF  61F,7E3
0F5BA:  MOVLB  7
0F5BC:  CLRF   xEA
0F5BE:  CLRF   xE9
0F5C0:  CLRF   xE8
0F5C2:  MOVLW  7F
0F5C4:  MOVWF  xE7
0F5C6:  MOVLB  0
0F5C8:  CALL   2FB0
0F5CC:  MOVFF  03,622
0F5D0:  MOVFF  02,621
0F5D4:  MOVFF  01,620
0F5D8:  MOVFF  00,61F
0F5DC:  MOVLB  5
0F5DE:  BSF    x95.0
....................             } 
....................          } 
....................                 
....................          if(DOWN)//Si oprime hacia abajo 
0F5E0:  BSF    F96.0
0F5E2:  BTFSC  F84.0
0F5E4:  BRA    F660
....................          {   
....................             Buzz_on;delay_ms(10);Buzz_off; 
0F5E6:  BSF    F8B.4
0F5E8:  BCF    F94.4
0F5EA:  MOVLW  0A
0F5EC:  MOVLB  7
0F5EE:  MOVWF  xE3
0F5F0:  MOVLB  0
0F5F2:  CALL   1800
0F5F6:  BCF    F8B.4
0F5F8:  BCF    F94.4
....................             if(AlTem>0) 
0F5FA:  MOVLB  7
0F5FC:  CLRF   xE0
0F5FE:  CLRF   xDF
0F600:  CLRF   xDE
0F602:  CLRF   xDD
0F604:  MOVFF  622,7E4
0F608:  MOVFF  621,7E3
0F60C:  MOVFF  620,7E2
0F610:  MOVFF  61F,7E1
0F614:  MOVLB  0
0F616:  CALL   21FE
0F61A:  BNC   F662
....................             { 
....................                delay_ms(30);AlTem-=1.0;visual=1;      
0F61C:  MOVLW  1E
0F61E:  MOVLB  7
0F620:  MOVWF  xE3
0F622:  MOVLB  0
0F624:  CALL   1800
0F628:  BSF    FD8.1
0F62A:  MOVFF  622,7E6
0F62E:  MOVFF  621,7E5
0F632:  MOVFF  620,7E4
0F636:  MOVFF  61F,7E3
0F63A:  MOVLB  7
0F63C:  CLRF   xEA
0F63E:  CLRF   xE9
0F640:  CLRF   xE8
0F642:  MOVLW  7F
0F644:  MOVWF  xE7
0F646:  MOVLB  0
0F648:  CALL   2FB0
0F64C:  MOVFF  03,622
0F650:  MOVFF  02,621
0F654:  MOVFF  01,620
0F658:  MOVFF  00,61F
0F65C:  MOVLB  5
0F65E:  BSF    x95.0
0F660:  MOVLB  0
....................             } 
....................          } 
....................                 
....................          if(RIGHT)//Si oprime SET 
0F662:  BSF    F96.1
0F664:  BTFSC  F84.1
0F666:  BRA    F68E
....................          {   
....................             Buzz_on;delay_ms(10);Buzz_off; 
0F668:  BSF    F8B.4
0F66A:  BCF    F94.4
0F66C:  MOVLW  0A
0F66E:  MOVLB  7
0F670:  MOVWF  xE3
0F672:  MOVLB  0
0F674:  CALL   1800
0F678:  BCF    F8B.4
0F67A:  BCF    F94.4
....................             delay_ms(30);visual=1; 
0F67C:  MOVLW  1E
0F67E:  MOVLB  7
0F680:  MOVWF  xE3
0F682:  MOVLB  0
0F684:  CALL   1800
0F688:  MOVLB  5
0F68A:  BSF    x95.0
0F68C:  MOVLB  0
....................          }  
....................                    
....................          if(LEFT)//Si oprime boton de Toma. 
0F68E:  BSF    F96.2
0F690:  BTFSC  F84.2
0F692:  BRA    F728
....................          { 
....................             Buzz_on;delay_ms(10);Buzz_off; 
0F694:  BSF    F8B.4
0F696:  BCF    F94.4
0F698:  MOVLW  0A
0F69A:  MOVLB  7
0F69C:  MOVWF  xE3
0F69E:  MOVLB  0
0F6A0:  CALL   1800
0F6A4:  BCF    F8B.4
0F6A6:  BCF    F94.4
....................             delay_ms(700);Menu=100;glcd_fillscreen(OFF);Opcion=1;visual=1; 
0F6A8:  MOVLW  04
0F6AA:  MOVLB  7
0F6AC:  MOVWF  xDD
0F6AE:  MOVLW  AF
0F6B0:  MOVWF  xE3
0F6B2:  MOVLB  0
0F6B4:  CALL   1800
0F6B8:  MOVLB  7
0F6BA:  DECFSZ xDD,F
0F6BC:  BRA    F6AE
0F6BE:  MOVLW  64
0F6C0:  MOVLB  5
0F6C2:  MOVWF  x9A
0F6C4:  MOVLB  7
0F6C6:  CLRF   xDE
0F6C8:  MOVLB  0
0F6CA:  CALL   1880
0F6CE:  MOVLW  01
0F6D0:  MOVLB  5
0F6D2:  MOVWF  xA1
0F6D4:  BSF    x95.0
....................             write_eeprom(256,(int8)AlTem); 
0F6D6:  MOVFF  622,7E0
0F6DA:  MOVFF  621,7DF
0F6DE:  MOVFF  620,7DE
0F6E2:  MOVFF  61F,7DD
0F6E6:  MOVLB  0
0F6E8:  CALL   635C
0F6EC:  MOVFF  01,7DD
0F6F0:  MOVLW  01
0F6F2:  MOVWF  FAA
0F6F4:  CLRF   FA9
0F6F6:  MOVFF  7DD,FA8
0F6FA:  BCF    FA6.6
0F6FC:  BCF    FA6.7
0F6FE:  BSF    FA6.2
0F700:  MOVF   FF2,W
0F702:  MOVWF  00
0F704:  BCF    FF2.7
0F706:  MOVLB  F
0F708:  MOVLW  55
0F70A:  MOVWF  FA7
0F70C:  MOVLW  AA
0F70E:  MOVWF  FA7
0F710:  BSF    FA6.1
0F712:  BTFSC  FA6.1
0F714:  BRA    F712
0F716:  BCF    FA6.2
0F718:  MOVF   00,W
0F71A:  IORWF  FF2,F
....................             delay_ms(10); 
0F71C:  MOVLW  0A
0F71E:  MOVLB  7
0F720:  MOVWF  xE3
0F722:  MOVLB  0
0F724:  CALL   1800
0F728:  MOVLB  5
....................          } 
....................      } 
.................... //_-------------------------------------------------------------------------------------------------------------------------------------------------------- 
....................  
.................... //_--------------------------------------------------------------------------------------------------------------------------------------------------------       
....................       if(Menu==110){ // Menu de Resistencia conversora I/V 
0F72A:  MOVF   x9A,W
0F72C:  SUBLW  6E
0F72E:  BTFSS  FD8.2
0F730:  BRA    FBE0
....................        
....................       if(resistencia>260)       
0F732:  MOVLB  7
0F734:  CLRF   xE0
0F736:  CLRF   xDF
0F738:  MOVLW  02
0F73A:  MOVWF  xDE
0F73C:  MOVLW  87
0F73E:  MOVWF  xDD
0F740:  MOVFF  626,7E4
0F744:  MOVFF  625,7E3
0F748:  MOVFF  624,7E2
0F74C:  MOVFF  623,7E1
0F750:  MOVLB  0
0F752:  CALL   21FE
0F756:  BNC   F768
....................          resistencia=240; 
0F758:  MOVLB  6
0F75A:  CLRF   x26
0F75C:  CLRF   x25
0F75E:  MOVLW  70
0F760:  MOVWF  x24
0F762:  MOVLW  86
0F764:  MOVWF  x23
....................       else if(resistencia<230) 
0F766:  BRA    F79C
0F768:  MOVFF  626,7E0
0F76C:  MOVFF  625,7DF
0F770:  MOVFF  624,7DE
0F774:  MOVFF  623,7DD
0F778:  MOVLB  7
0F77A:  CLRF   xE4
0F77C:  CLRF   xE3
0F77E:  MOVLW  66
0F780:  MOVWF  xE2
0F782:  MOVLW  86
0F784:  MOVWF  xE1
0F786:  MOVLB  0
0F788:  CALL   21FE
0F78C:  BNC   F79C
....................          resistencia=240; 
0F78E:  MOVLB  6
0F790:  CLRF   x26
0F792:  CLRF   x25
0F794:  MOVLW  70
0F796:  MOVWF  x24
0F798:  MOVLW  86
0F79A:  MOVWF  x23
....................        
....................       if(visual==1){ 
0F79C:  MOVLB  5
0F79E:  BTFSS  x95.0
0F7A0:  BRA    F828
....................          glcd_fillScreen(OFF); 
0F7A2:  MOVLB  7
0F7A4:  CLRF   xDE
0F7A6:  MOVLB  0
0F7A8:  CALL   1880
....................          strcpy(Menus.Letra,"Resis."); 
0F7AC:  MOVLW  07
0F7AE:  MOVWF  FEA
0F7B0:  MOVLW  BD
0F7B2:  MOVWF  FE9
0F7B4:  MOVFF  FF2,7DD
0F7B8:  BCF    FF2.7
0F7BA:  MOVLW  00
0F7BC:  CALL   15DA
0F7C0:  TBLRD*-
0F7C2:  TBLRD*+
0F7C4:  MOVF   FF5,W
0F7C6:  MOVWF  FEE
0F7C8:  IORLW  00
0F7CA:  BNZ   F7C2
0F7CC:  MOVLB  7
0F7CE:  BTFSC  xDD.7
0F7D0:  BSF    FF2.7
....................          displayMenu(Menus.Letra,0,0,1,2); 
0F7D2:  MOVLW  07
0F7D4:  MOVWF  xE1
0F7D6:  MOVLW  BD
0F7D8:  MOVWF  xE0
0F7DA:  CLRF   xE2
0F7DC:  CLRF   xE3
0F7DE:  MOVLW  01
0F7E0:  MOVWF  xE4
0F7E2:  MOVLW  02
0F7E4:  MOVWF  xE5
0F7E6:  MOVLB  0
0F7E8:  CALL   1EC0
....................           
....................          displayTemperatura(resistencia,30,30,0,3); 
0F7EC:  MOVFF  626,7E0
0F7F0:  MOVFF  625,7DF
0F7F4:  MOVFF  624,7DE
0F7F8:  MOVFF  623,7DD
0F7FC:  CALL   635C
0F800:  MOVFF  02,7DE
0F804:  MOVFF  01,7DD
0F808:  MOVFF  02,7E3
0F80C:  MOVFF  01,7E2
0F810:  MOVLW  1E
0F812:  MOVLB  7
0F814:  MOVWF  xE4
0F816:  MOVWF  xE5
0F818:  CLRF   xE6
0F81A:  MOVLW  03
0F81C:  MOVWF  xE7
0F81E:  MOVLB  0
0F820:  CALL   4B6A
....................           
....................          visual=0; 
0F824:  MOVLB  5
0F826:  BCF    x95.0
....................       } 
....................        
....................          if(UP)//Si oprime hacia arriba 
0F828:  BSF    F92.5
0F82A:  BTFSC  F80.5
0F82C:  BRA    F888
....................          {   
....................             Buzz_on;delay_ms(10);Buzz_off; 
0F82E:  BSF    F8B.4
0F830:  BCF    F94.4
0F832:  MOVLW  0A
0F834:  MOVLB  7
0F836:  MOVWF  xE3
0F838:  MOVLB  0
0F83A:  CALL   1800
0F83E:  BCF    F8B.4
0F840:  BCF    F94.4
....................             visual=1; 
0F842:  MOVLB  5
0F844:  BSF    x95.0
....................             resistencia+=1.0; 
0F846:  BCF    FD8.1
0F848:  MOVFF  626,7E6
0F84C:  MOVFF  625,7E5
0F850:  MOVFF  624,7E4
0F854:  MOVFF  623,7E3
0F858:  MOVLB  7
0F85A:  CLRF   xEA
0F85C:  CLRF   xE9
0F85E:  CLRF   xE8
0F860:  MOVLW  7F
0F862:  MOVWF  xE7
0F864:  MOVLB  0
0F866:  CALL   2FB0
0F86A:  MOVFF  03,626
0F86E:  MOVFF  02,625
0F872:  MOVFF  01,624
0F876:  MOVFF  00,623
....................             delay_ms(30); 
0F87A:  MOVLW  1E
0F87C:  MOVLB  7
0F87E:  MOVWF  xE3
0F880:  MOVLB  0
0F882:  CALL   1800
0F886:  MOVLB  5
....................          } 
....................                 
....................          if(DOWN)//Si oprime hacia abajo 
0F888:  BSF    F96.0
0F88A:  BTFSC  F84.0
0F88C:  BRA    F8E8
....................          {   
....................             Buzz_on;delay_ms(10);Buzz_off; 
0F88E:  BSF    F8B.4
0F890:  BCF    F94.4
0F892:  MOVLW  0A
0F894:  MOVLB  7
0F896:  MOVWF  xE3
0F898:  MOVLB  0
0F89A:  CALL   1800
0F89E:  BCF    F8B.4
0F8A0:  BCF    F94.4
....................             visual=1; 
0F8A2:  MOVLB  5
0F8A4:  BSF    x95.0
....................             resistencia-=1.0; 
0F8A6:  BSF    FD8.1
0F8A8:  MOVFF  626,7E6
0F8AC:  MOVFF  625,7E5
0F8B0:  MOVFF  624,7E4
0F8B4:  MOVFF  623,7E3
0F8B8:  MOVLB  7
0F8BA:  CLRF   xEA
0F8BC:  CLRF   xE9
0F8BE:  CLRF   xE8
0F8C0:  MOVLW  7F
0F8C2:  MOVWF  xE7
0F8C4:  MOVLB  0
0F8C6:  CALL   2FB0
0F8CA:  MOVFF  03,626
0F8CE:  MOVFF  02,625
0F8D2:  MOVFF  01,624
0F8D6:  MOVFF  00,623
....................             delay_ms(30); 
0F8DA:  MOVLW  1E
0F8DC:  MOVLB  7
0F8DE:  MOVWF  xE3
0F8E0:  MOVLB  0
0F8E2:  CALL   1800
0F8E6:  MOVLB  5
....................          } 
....................                 
....................          if(RIGHT)//Si oprime SET 
0F8E8:  BSF    F96.1
0F8EA:  BTFSC  F84.1
0F8EC:  BRA    F912
....................          {   
....................             Buzz_on;delay_ms(10);Buzz_off; 
0F8EE:  BSF    F8B.4
0F8F0:  BCF    F94.4
0F8F2:  MOVLW  0A
0F8F4:  MOVLB  7
0F8F6:  MOVWF  xE3
0F8F8:  MOVLB  0
0F8FA:  CALL   1800
0F8FE:  BCF    F8B.4
0F900:  BCF    F94.4
....................             delay_ms(30);visual=1; 
0F902:  MOVLW  1E
0F904:  MOVLB  7
0F906:  MOVWF  xE3
0F908:  MOVLB  0
0F90A:  CALL   1800
0F90E:  MOVLB  5
0F910:  BSF    x95.0
....................          }  
....................                    
....................          if(LEFT)//Si oprime boton de Toma. 
0F912:  BSF    F96.2
0F914:  BTFSC  F84.2
0F916:  BRA    FBE0
....................          { 
....................             Buzz_on;delay_ms(10);Buzz_off; 
0F918:  BSF    F8B.4
0F91A:  BCF    F94.4
0F91C:  MOVLW  0A
0F91E:  MOVLB  7
0F920:  MOVWF  xE3
0F922:  MOVLB  0
0F924:  CALL   1800
0F928:  BCF    F8B.4
0F92A:  BCF    F94.4
....................             delay_ms(700);Menu=100;glcd_fillscreen(OFF);Opcion=1;visual=1; 
0F92C:  MOVLW  04
0F92E:  MOVLB  7
0F930:  MOVWF  xDD
0F932:  MOVLW  AF
0F934:  MOVWF  xE3
0F936:  MOVLB  0
0F938:  CALL   1800
0F93C:  MOVLB  7
0F93E:  DECFSZ xDD,F
0F940:  BRA    F932
0F942:  MOVLW  64
0F944:  MOVLB  5
0F946:  MOVWF  x9A
0F948:  MOVLB  7
0F94A:  CLRF   xDE
0F94C:  MOVLB  0
0F94E:  CALL   1880
0F952:  MOVLW  01
0F954:  MOVLB  5
0F956:  MOVWF  xA1
0F958:  BSF    x95.0
....................             write_eeprom(257,(int8)resistencia); 
0F95A:  MOVFF  626,7E0
0F95E:  MOVFF  625,7DF
0F962:  MOVFF  624,7DE
0F966:  MOVFF  623,7DD
0F96A:  MOVLB  0
0F96C:  CALL   635C
0F970:  MOVFF  01,7DD
0F974:  MOVLW  01
0F976:  MOVWF  FAA
0F978:  MOVWF  FA9
0F97A:  MOVFF  7DD,FA8
0F97E:  BCF    FA6.6
0F980:  BCF    FA6.7
0F982:  BSF    FA6.2
0F984:  MOVF   FF2,W
0F986:  MOVWF  00
0F988:  BCF    FF2.7
0F98A:  MOVLB  F
0F98C:  MOVLW  55
0F98E:  MOVWF  FA7
0F990:  MOVLW  AA
0F992:  MOVWF  FA7
0F994:  BSF    FA6.1
0F996:  BTFSC  FA6.1
0F998:  BRA    F996
0F99A:  BCF    FA6.2
0F99C:  MOVF   00,W
0F99E:  IORWF  FF2,F
....................             delay_ms(10); 
0F9A0:  MOVLW  0A
0F9A2:  MOVLB  7
0F9A4:  MOVWF  xE3
0F9A6:  MOVLB  0
0F9A8:  CALL   1800
....................             adcInf=(0.004*resistencia*1023)/5.0; 
0F9AC:  MOVLW  6F
0F9AE:  MOVLB  7
0F9B0:  MOVWF  xFD
0F9B2:  MOVLW  12
0F9B4:  MOVWF  xFC
0F9B6:  MOVLW  03
0F9B8:  MOVWF  xFB
0F9BA:  MOVLW  77
0F9BC:  MOVWF  xFA
0F9BE:  MOVFF  626,801
0F9C2:  MOVFF  625,800
0F9C6:  MOVFF  624,7FF
0F9CA:  MOVFF  623,7FE
0F9CE:  MOVLB  0
0F9D0:  CALL   3386
0F9D4:  MOVFF  00,7DD
0F9D8:  MOVFF  01,7DE
0F9DC:  MOVFF  02,7DF
0F9E0:  MOVFF  03,7E0
0F9E4:  MOVFF  03,7FD
0F9E8:  MOVFF  02,7FC
0F9EC:  MOVFF  01,7FB
0F9F0:  MOVFF  00,7FA
0F9F4:  MOVLB  8
0F9F6:  CLRF   x01
0F9F8:  MOVLW  C0
0F9FA:  MOVWF  x00
0F9FC:  MOVLW  7F
0F9FE:  MOVLB  7
0FA00:  MOVWF  xFF
0FA02:  MOVLW  88
0FA04:  MOVWF  xFE
0FA06:  MOVLB  0
0FA08:  CALL   3386
0FA0C:  MOVFF  00,7DD
0FA10:  MOVFF  01,7DE
0FA14:  MOVFF  02,7DF
0FA18:  MOVFF  03,7E0
0FA1C:  MOVFF  03,7E4
0FA20:  MOVFF  02,7E3
0FA24:  MOVFF  01,7E2
0FA28:  MOVFF  00,7E1
0FA2C:  MOVLB  7
0FA2E:  CLRF   xE8
0FA30:  CLRF   xE7
0FA32:  MOVLW  20
0FA34:  MOVWF  xE6
0FA36:  MOVLW  81
0FA38:  MOVWF  xE5
0FA3A:  MOVLB  0
0FA3C:  CALL   3228
0FA40:  MOVFF  03,652
0FA44:  MOVFF  02,651
0FA48:  MOVFF  01,650
0FA4C:  MOVFF  00,64F
....................             adcSup=(0.02*resistencia*1023)/5.0; 
0FA50:  MOVLW  0A
0FA52:  MOVLB  7
0FA54:  MOVWF  xFD
0FA56:  MOVLW  D7
0FA58:  MOVWF  xFC
0FA5A:  MOVLW  23
0FA5C:  MOVWF  xFB
0FA5E:  MOVLW  79
0FA60:  MOVWF  xFA
0FA62:  MOVFF  626,801
0FA66:  MOVFF  625,800
0FA6A:  MOVFF  624,7FF
0FA6E:  MOVFF  623,7FE
0FA72:  MOVLB  0
0FA74:  CALL   3386
0FA78:  MOVFF  00,7DD
0FA7C:  MOVFF  01,7DE
0FA80:  MOVFF  02,7DF
0FA84:  MOVFF  03,7E0
0FA88:  MOVFF  03,7FD
0FA8C:  MOVFF  02,7FC
0FA90:  MOVFF  01,7FB
0FA94:  MOVFF  00,7FA
0FA98:  MOVLB  8
0FA9A:  CLRF   x01
0FA9C:  MOVLW  C0
0FA9E:  MOVWF  x00
0FAA0:  MOVLW  7F
0FAA2:  MOVLB  7
0FAA4:  MOVWF  xFF
0FAA6:  MOVLW  88
0FAA8:  MOVWF  xFE
0FAAA:  MOVLB  0
0FAAC:  CALL   3386
0FAB0:  MOVFF  00,7DD
0FAB4:  MOVFF  01,7DE
0FAB8:  MOVFF  02,7DF
0FABC:  MOVFF  03,7E0
0FAC0:  MOVFF  03,7E4
0FAC4:  MOVFF  02,7E3
0FAC8:  MOVFF  01,7E2
0FACC:  MOVFF  00,7E1
0FAD0:  MOVLB  7
0FAD2:  CLRF   xE8
0FAD4:  CLRF   xE7
0FAD6:  MOVLW  20
0FAD8:  MOVWF  xE6
0FADA:  MOVLW  81
0FADC:  MOVWF  xE5
0FADE:  MOVLB  0
0FAE0:  CALL   3228
0FAE4:  MOVFF  03,64E
0FAE8:  MOVFF  02,64D
0FAEC:  MOVFF  01,64C
0FAF0:  MOVFF  00,64B
....................             m=(Tsup-Tinf)/(adcSup-adcInf); 
0FAF4:  BSF    FD8.1
0FAF6:  MOVFF  656,7E6
0FAFA:  MOVFF  655,7E5
0FAFE:  MOVFF  654,7E4
0FB02:  MOVFF  653,7E3
0FB06:  MOVFF  65A,7EA
0FB0A:  MOVFF  659,7E9
0FB0E:  MOVFF  658,7E8
0FB12:  MOVFF  657,7E7
0FB16:  CALL   2FB0
0FB1A:  MOVFF  00,7DD
0FB1E:  MOVFF  01,7DE
0FB22:  MOVFF  02,7DF
0FB26:  MOVFF  03,7E0
0FB2A:  BSF    FD8.1
0FB2C:  MOVFF  64E,7E6
0FB30:  MOVFF  64D,7E5
0FB34:  MOVFF  64C,7E4
0FB38:  MOVFF  64B,7E3
0FB3C:  MOVFF  652,7EA
0FB40:  MOVFF  651,7E9
0FB44:  MOVFF  650,7E8
0FB48:  MOVFF  64F,7E7
0FB4C:  CALL   2FB0
0FB50:  MOVFF  7E0,7E4
0FB54:  MOVFF  7DF,7E3
0FB58:  MOVFF  7DE,7E2
0FB5C:  MOVFF  7DD,7E1
0FB60:  MOVFF  03,7E8
0FB64:  MOVFF  02,7E7
0FB68:  MOVFF  01,7E6
0FB6C:  MOVFF  00,7E5
0FB70:  CALL   3228
0FB74:  MOVFF  03,646
0FB78:  MOVFF  02,645
0FB7C:  MOVFF  01,644
0FB80:  MOVFF  00,643
....................             b=Tsup-(m*adcSup); 
0FB84:  MOVFF  646,7FD
0FB88:  MOVFF  645,7FC
0FB8C:  MOVFF  644,7FB
0FB90:  MOVFF  643,7FA
0FB94:  MOVFF  64E,801
0FB98:  MOVFF  64D,800
0FB9C:  MOVFF  64C,7FF
0FBA0:  MOVFF  64B,7FE
0FBA4:  CALL   3386
0FBA8:  BSF    FD8.1
0FBAA:  MOVFF  656,7E6
0FBAE:  MOVFF  655,7E5
0FBB2:  MOVFF  654,7E4
0FBB6:  MOVFF  653,7E3
0FBBA:  MOVFF  03,7EA
0FBBE:  MOVFF  02,7E9
0FBC2:  MOVFF  01,7E8
0FBC6:  MOVFF  00,7E7
0FBCA:  CALL   2FB0
0FBCE:  MOVFF  03,64A
0FBD2:  MOVFF  02,649
0FBD6:  MOVFF  01,648
0FBDA:  MOVFF  00,647
0FBDE:  MOVLB  5
....................          } 
....................      } 
.................... //_-------------------------------------------------------------------------------------------------------------------------------------------------------- 
....................  
.................... //_--------------------------------------------------------------------------------------------------------------------------------------------------------       
....................       if(Menu==111){ // Menu de Pendiente de calentamiento de mufla 
0FBE0:  MOVF   x9A,W
0FBE2:  SUBLW  6F
0FBE4:  BTFSS  FD8.2
0FBE6:  BRA    FE62
....................        
....................       if(penMufla>255)       
0FBE8:  MOVLB  7
0FBEA:  CLRF   xE0
0FBEC:  CLRF   xDF
0FBEE:  MOVLW  7F
0FBF0:  MOVWF  xDE
0FBF2:  MOVLW  86
0FBF4:  MOVWF  xDD
0FBF6:  MOVFF  65E,7E4
0FBFA:  MOVFF  65D,7E3
0FBFE:  MOVFF  65C,7E2
0FC02:  MOVFF  65B,7E1
0FC06:  MOVLB  0
0FC08:  CALL   21FE
0FC0C:  BNC   FC1C
....................          penMufla=1; 
0FC0E:  MOVLB  6
0FC10:  CLRF   x5E
0FC12:  CLRF   x5D
0FC14:  CLRF   x5C
0FC16:  MOVLW  7F
0FC18:  MOVWF  x5B
....................       else if(penMufla<1) 
0FC1A:  BRA    FC4E
0FC1C:  MOVFF  65E,7E0
0FC20:  MOVFF  65D,7DF
0FC24:  MOVFF  65C,7DE
0FC28:  MOVFF  65B,7DD
0FC2C:  MOVLB  7
0FC2E:  CLRF   xE4
0FC30:  CLRF   xE3
0FC32:  CLRF   xE2
0FC34:  MOVLW  7F
0FC36:  MOVWF  xE1
0FC38:  MOVLB  0
0FC3A:  CALL   21FE
0FC3E:  BNC   FC4E
....................          penMufla=255; 
0FC40:  MOVLB  6
0FC42:  CLRF   x5E
0FC44:  CLRF   x5D
0FC46:  MOVLW  7F
0FC48:  MOVWF  x5C
0FC4A:  MOVLW  86
0FC4C:  MOVWF  x5B
....................        
....................       if(visual==1){ 
0FC4E:  MOVLB  5
0FC50:  BTFSS  x95.0
0FC52:  BRA    FCDA
....................          glcd_fillScreen(OFF); 
0FC54:  MOVLB  7
0FC56:  CLRF   xDE
0FC58:  MOVLB  0
0FC5A:  CALL   1880
....................          strcpy(Menus.Letra,"m Mufla"); 
0FC5E:  MOVLW  07
0FC60:  MOVWF  FEA
0FC62:  MOVLW  BD
0FC64:  MOVWF  FE9
0FC66:  MOVFF  FF2,7DD
0FC6A:  BCF    FF2.7
0FC6C:  MOVLW  00
0FC6E:  CALL   1492
0FC72:  TBLRD*-
0FC74:  TBLRD*+
0FC76:  MOVF   FF5,W
0FC78:  MOVWF  FEE
0FC7A:  IORLW  00
0FC7C:  BNZ   FC74
0FC7E:  MOVLB  7
0FC80:  BTFSC  xDD.7
0FC82:  BSF    FF2.7
....................          displayMenu(Menus.Letra,0,0,1,2); 
0FC84:  MOVLW  07
0FC86:  MOVWF  xE1
0FC88:  MOVLW  BD
0FC8A:  MOVWF  xE0
0FC8C:  CLRF   xE2
0FC8E:  CLRF   xE3
0FC90:  MOVLW  01
0FC92:  MOVWF  xE4
0FC94:  MOVLW  02
0FC96:  MOVWF  xE5
0FC98:  MOVLB  0
0FC9A:  CALL   1EC0
....................           
....................          displayTemperatura(penMufla,30,30,0,3); 
0FC9E:  MOVFF  65E,7E0
0FCA2:  MOVFF  65D,7DF
0FCA6:  MOVFF  65C,7DE
0FCAA:  MOVFF  65B,7DD
0FCAE:  CALL   635C
0FCB2:  MOVFF  02,7DE
0FCB6:  MOVFF  01,7DD
0FCBA:  MOVFF  02,7E3
0FCBE:  MOVFF  01,7E2
0FCC2:  MOVLW  1E
0FCC4:  MOVLB  7
0FCC6:  MOVWF  xE4
0FCC8:  MOVWF  xE5
0FCCA:  CLRF   xE6
0FCCC:  MOVLW  03
0FCCE:  MOVWF  xE7
0FCD0:  MOVLB  0
0FCD2:  CALL   4B6A
....................           
....................          visual=0; 
0FCD6:  MOVLB  5
0FCD8:  BCF    x95.0
....................       } 
....................        
....................          if(UP)//Si oprime hacia arriba 
0FCDA:  BSF    F92.5
0FCDC:  BTFSC  F80.5
0FCDE:  BRA    FD3A
....................          {   
....................             Buzz_on;delay_ms(10);Buzz_off; 
0FCE0:  BSF    F8B.4
0FCE2:  BCF    F94.4
0FCE4:  MOVLW  0A
0FCE6:  MOVLB  7
0FCE8:  MOVWF  xE3
0FCEA:  MOVLB  0
0FCEC:  CALL   1800
0FCF0:  BCF    F8B.4
0FCF2:  BCF    F94.4
....................             visual=1; 
0FCF4:  MOVLB  5
0FCF6:  BSF    x95.0
....................             penMufla+=1.0; 
0FCF8:  BCF    FD8.1
0FCFA:  MOVFF  65E,7E6
0FCFE:  MOVFF  65D,7E5
0FD02:  MOVFF  65C,7E4
0FD06:  MOVFF  65B,7E3
0FD0A:  MOVLB  7
0FD0C:  CLRF   xEA
0FD0E:  CLRF   xE9
0FD10:  CLRF   xE8
0FD12:  MOVLW  7F
0FD14:  MOVWF  xE7
0FD16:  MOVLB  0
0FD18:  CALL   2FB0
0FD1C:  MOVFF  03,65E
0FD20:  MOVFF  02,65D
0FD24:  MOVFF  01,65C
0FD28:  MOVFF  00,65B
....................             delay_ms(30); 
0FD2C:  MOVLW  1E
0FD2E:  MOVLB  7
0FD30:  MOVWF  xE3
0FD32:  MOVLB  0
0FD34:  CALL   1800
0FD38:  MOVLB  5
....................          } 
....................                 
....................          if(DOWN)//Si oprime hacia abajo 
0FD3A:  BSF    F96.0
0FD3C:  BTFSC  F84.0
0FD3E:  BRA    FD9A
....................          {   
....................             Buzz_on;delay_ms(10);Buzz_off; 
0FD40:  BSF    F8B.4
0FD42:  BCF    F94.4
0FD44:  MOVLW  0A
0FD46:  MOVLB  7
0FD48:  MOVWF  xE3
0FD4A:  MOVLB  0
0FD4C:  CALL   1800
0FD50:  BCF    F8B.4
0FD52:  BCF    F94.4
....................             visual=1; 
0FD54:  MOVLB  5
0FD56:  BSF    x95.0
....................             penMufla-=1.0; 
0FD58:  BSF    FD8.1
0FD5A:  MOVFF  65E,7E6
0FD5E:  MOVFF  65D,7E5
0FD62:  MOVFF  65C,7E4
0FD66:  MOVFF  65B,7E3
0FD6A:  MOVLB  7
0FD6C:  CLRF   xEA
0FD6E:  CLRF   xE9
0FD70:  CLRF   xE8
0FD72:  MOVLW  7F
0FD74:  MOVWF  xE7
0FD76:  MOVLB  0
0FD78:  CALL   2FB0
0FD7C:  MOVFF  03,65E
0FD80:  MOVFF  02,65D
0FD84:  MOVFF  01,65C
0FD88:  MOVFF  00,65B
....................             delay_ms(30); 
0FD8C:  MOVLW  1E
0FD8E:  MOVLB  7
0FD90:  MOVWF  xE3
0FD92:  MOVLB  0
0FD94:  CALL   1800
0FD98:  MOVLB  5
....................          } 
....................                 
....................          if(RIGHT)//Si oprime SET 
0FD9A:  BSF    F96.1
0FD9C:  BTFSC  F84.1
0FD9E:  BRA    FDC4
....................          {   
....................             Buzz_on;delay_ms(10);Buzz_off; 
0FDA0:  BSF    F8B.4
0FDA2:  BCF    F94.4
0FDA4:  MOVLW  0A
0FDA6:  MOVLB  7
0FDA8:  MOVWF  xE3
0FDAA:  MOVLB  0
0FDAC:  CALL   1800
0FDB0:  BCF    F8B.4
0FDB2:  BCF    F94.4
....................             delay_ms(30);visual=1; 
0FDB4:  MOVLW  1E
0FDB6:  MOVLB  7
0FDB8:  MOVWF  xE3
0FDBA:  MOVLB  0
0FDBC:  CALL   1800
0FDC0:  MOVLB  5
0FDC2:  BSF    x95.0
....................          }  
....................                    
....................          if(LEFT)//Si oprime boton de Toma. 
0FDC4:  BSF    F96.2
0FDC6:  BTFSC  F84.2
0FDC8:  BRA    FE62
....................          { 
....................             Buzz_on;delay_ms(10);Buzz_off; 
0FDCA:  BSF    F8B.4
0FDCC:  BCF    F94.4
0FDCE:  MOVLW  0A
0FDD0:  MOVLB  7
0FDD2:  MOVWF  xE3
0FDD4:  MOVLB  0
0FDD6:  CALL   1800
0FDDA:  BCF    F8B.4
0FDDC:  BCF    F94.4
....................             delay_ms(700);Menu=100;glcd_fillscreen(OFF);Opcion=1;visual=1; 
0FDDE:  MOVLW  04
0FDE0:  MOVLB  7
0FDE2:  MOVWF  xDD
0FDE4:  MOVLW  AF
0FDE6:  MOVWF  xE3
0FDE8:  MOVLB  0
0FDEA:  CALL   1800
0FDEE:  MOVLB  7
0FDF0:  DECFSZ xDD,F
0FDF2:  BRA    FDE4
0FDF4:  MOVLW  64
0FDF6:  MOVLB  5
0FDF8:  MOVWF  x9A
0FDFA:  MOVLB  7
0FDFC:  CLRF   xDE
0FDFE:  MOVLB  0
0FE00:  CALL   1880
0FE04:  MOVLW  01
0FE06:  MOVLB  5
0FE08:  MOVWF  xA1
0FE0A:  BSF    x95.0
....................             write_eeprom(258,(int8)penMufla); 
0FE0C:  MOVFF  65E,7E0
0FE10:  MOVFF  65D,7DF
0FE14:  MOVFF  65C,7DE
0FE18:  MOVFF  65B,7DD
0FE1C:  MOVLB  0
0FE1E:  CALL   635C
0FE22:  MOVFF  01,7DD
0FE26:  MOVLW  01
0FE28:  MOVWF  FAA
0FE2A:  MOVLW  02
0FE2C:  MOVWF  FA9
0FE2E:  MOVFF  7DD,FA8
0FE32:  BCF    FA6.6
0FE34:  BCF    FA6.7
0FE36:  BSF    FA6.2
0FE38:  MOVF   FF2,W
0FE3A:  MOVWF  00
0FE3C:  BCF    FF2.7
0FE3E:  MOVLB  F
0FE40:  MOVLW  55
0FE42:  MOVWF  FA7
0FE44:  MOVLW  AA
0FE46:  MOVWF  FA7
0FE48:  BSF    FA6.1
0FE4A:  BTFSC  FA6.1
0FE4C:  BRA    FE4A
0FE4E:  BCF    FA6.2
0FE50:  MOVF   00,W
0FE52:  IORWF  FF2,F
....................             delay_ms(10); 
0FE54:  MOVLW  0A
0FE56:  MOVLB  7
0FE58:  MOVWF  xE3
0FE5A:  MOVLB  0
0FE5C:  CALL   1800
0FE60:  MOVLB  5
....................          } 
....................      } 
.................... //_-------------------------------------------------------------------------------------------------------------------------------------------------------- 
....................  
....................  
....................       if(Lectura2==1) 
0FE62:  DECFSZ x8F,W
0FE64:  BRA    FE84
....................       { 
....................          Temperatura=Leer_Sensor(MediaMovil); 
0FE66:  MOVFF  58C,7DD
0FE6A:  MOVLB  0
0FE6C:  CALL   34A4
0FE70:  MOVFF  03,62E
0FE74:  MOVFF  02,62D
0FE78:  MOVFF  01,62C
0FE7C:  MOVFF  00,62B
....................          Lectura2=0; 
0FE80:  MOVLB  5
0FE82:  CLRF   x8F
....................       }  
....................  
....................       if(tiemporeset>=60) 
0FE84:  MOVF   x97,W
0FE86:  SUBLW  3B
0FE88:  BC    FE9E
....................       { 
....................          if(Menu!=0){ 
0FE8A:  MOVF   x9A,F
0FE8C:  BZ    FE9E
....................             glcd_init(ON); 
0FE8E:  MOVLW  01
0FE90:  MOVLB  7
0FE92:  MOVWF  xDD
0FE94:  MOVLB  0
0FE96:  CALL   1992
....................             tiemporeset=0; 
0FE9A:  MOVLB  5
0FE9C:  CLRF   x97
....................          } 
....................       }  
....................  
....................  
....................    } 
0FE9E:  GOTO   87FE
.................... } 
0FEA2:  SLEEP 

Configuration Fuses:
   Word  1: 0200   HS NOIESO NOFCMEN
   Word  2: 1E1F   BROWNOUT NOWDT BORV20 NOPUT WDT32768
   Word  3: 0000   NOPBADEN NOLPT1OSC NOMCLR
   Word  4: 00B0   NOSTVREN NODEBUG NOLVP NOXINST BBSIZ4K
   Word  5: C03F   NOPROTECT NOCPD NOCPB
   Word  6: E03F   NOWRT NOWRTD NOWRTC NOWRTB
   Word  7: 403F   NOEBTR NOEBTRB
