ARM GAS  C:\Users\USUARIO\AppData\Local\Temp\ccwbT6UD.s 			page 1


   1              		.syntax unified
   2              		.cpu cortex-m3
   3              		.fpu softvfp
   4              		.eabi_attribute 20, 1
   5              		.eabi_attribute 21, 1
   6              		.eabi_attribute 23, 3
   7              		.eabi_attribute 24, 1
   8              		.eabi_attribute 25, 1
   9              		.eabi_attribute 26, 1
  10              		.eabi_attribute 30, 1
  11              		.eabi_attribute 34, 1
  12              		.eabi_attribute 18, 4
  13              		.thumb
  14              		.syntax unified
  15              		.file	"GRAPHICS.c"
  16              		.text
  17              	.Ltext0:
  18              		.cfi_sections	.debug_frame
  19              		.section	.text.glcd_line,"ax",%progbits
  20              		.align	2
  21              		.global	glcd_line
  22              		.thumb
  23              		.thumb_func
  24              		.type	glcd_line, %function
  25              	glcd_line:
  26              	.LFB63:
  27              		.file 1 "GRAPHICS.c"
   1:GRAPHICS.c    **** /////////////////////////////////////////////////////////////////////////
   2:GRAPHICS.c    **** ////                          graphics.c                             ////
   3:GRAPHICS.c    **** ////                                                                 ////
   4:GRAPHICS.c    **** ////   This file contains functions to draw lines, rectangles, bars, ////
   5:GRAPHICS.c    **** ////   circles and text to a display. A function which draws a       ////
   6:GRAPHICS.c    **** ////   single pixel must be defined before calling the functions in  ////
   7:GRAPHICS.c    **** ////   this file. Call it glcd_pixel(x, y, color) where x is the     ////
   8:GRAPHICS.c    **** ////   horizontal coordinate, y is the vertical coordinate, and      ////
   9:GRAPHICS.c    **** ////   color is 1 bit to turn the pixel on or off.                   ////
  10:GRAPHICS.c    **** ////                                                                 ////
  11:GRAPHICS.c    **** ////   * Note: (0, 0) is treated as the upper left corner            ////
  12:GRAPHICS.c    **** ////                                                                 ////
  13:GRAPHICS.c    **** /////////////////////////////////////////////////////////////////////////
  14:GRAPHICS.c    **** ////                                                                 ////
  15:GRAPHICS.c    **** ////  glcd_line(x1, y1, x2, y2, color)                               ////
  16:GRAPHICS.c    **** ////     * Draws a line from the first point to the second point     ////
  17:GRAPHICS.c    **** ////       with the given color                                      ////
  18:GRAPHICS.c    **** ////       - color can be ON or OFF                                  ////
  19:GRAPHICS.c    **** ////                                                                 ////
  20:GRAPHICS.c    **** ////  glcd_rect(x1, y1, x2, y2, fill, color)                         ////
  21:GRAPHICS.c    **** ////     * Draws a rectangle with one corner at point (x1,y1) and    ////
  22:GRAPHICS.c    **** ////       the other corner at point (x2,y2)                         ////
  23:GRAPHICS.c    **** ////       - fill can be YES or NO                                   ////
  24:GRAPHICS.c    **** ////       - color can be ON or OFF                                  ////
  25:GRAPHICS.c    **** ////                                                                 ////
  26:GRAPHICS.c    **** ////  glcd_bar(x1, y1, x2, y2, width, color)                         ////
  27:GRAPHICS.c    **** ////     * Draws a bar (wide line) from the first point to the       ////
  28:GRAPHICS.c    **** ////       second point                                              ////
  29:GRAPHICS.c    **** ////       - width is the number of pixels wide                      ////
  30:GRAPHICS.c    **** ////       - color is ON or OFF                                      ////
ARM GAS  C:\Users\USUARIO\AppData\Local\Temp\ccwbT6UD.s 			page 2


  31:GRAPHICS.c    **** ////                                                                 ////
  32:GRAPHICS.c    **** ////  glcd_circle(x, y, radius, fill, color)                         ////
  33:GRAPHICS.c    **** ////     * Draws a circle with center at (x,y)                       ////
  34:GRAPHICS.c    **** ////       - fill can be YES or NO                                   ////
  35:GRAPHICS.c    **** ////       - color can be ON or OFF                                  ////
  36:GRAPHICS.c    **** ////                                                                 ////
  37:GRAPHICS.c    **** ////  glcd_text57(x, y, textptr, size, color)                        ////
  38:GRAPHICS.c    **** ////     * Write the null terminated text pointed to by textptr with ////
  39:GRAPHICS.c    **** ////       the upper left coordinate of the first character at (x,y) ////
  40:GRAPHICS.c    **** ////       Characters are 5 pixels wide and 7 pixels tall            ////
  41:GRAPHICS.c    **** ////       - size is an integer that scales the size of the text     ////
  42:GRAPHICS.c    **** ////       - color is ON or OFF                                      ////
  43:GRAPHICS.c    **** ////     * Note - This function wraps characters to the next line    ////
  44:GRAPHICS.c    **** ////              use #define GLCD_WIDTH to specify a display width  ////
  45:GRAPHICS.c    **** ////                                                                 ////
  46:GRAPHICS.c    **** /////////////////////////////////////////////////////////////////////////
  47:GRAPHICS.c    **** ////        (C) Copyright 1996, 2004 Custom Computer Services        ////
  48:GRAPHICS.c    **** //// This source code may only be used by licensed users of the CCS  ////
  49:GRAPHICS.c    **** //// C compiler.  This source code may only be distributed to other  ////
  50:GRAPHICS.c    **** //// licensed users of the CCS C compiler.  No other use,            ////
  51:GRAPHICS.c    **** //// reproduction or distribution is permitted without written       ////
  52:GRAPHICS.c    **** //// permission.  Derivative programs created using this software    ////
  53:GRAPHICS.c    **** //// in object code form are not restricted in any way.              ////
  54:GRAPHICS.c    **** /////////////////////////////////////////////////////////////////////////
  55:GRAPHICS.c    **** 
  56:GRAPHICS.c    **** #include <device.h>
  57:GRAPHICS.c    **** #include <math.h>
  58:GRAPHICS.c    **** #include <HDM64GS12.h>
  59:GRAPHICS.c    **** 
  60:GRAPHICS.c    **** /////////////////////////////////////////////////////////////////////////
  61:GRAPHICS.c    **** #ifndef GRAPHICS_DRAWING_FUNCTIONS
  62:GRAPHICS.c    **** #define GRAPHICS_DRAWING_FUNCTIONS
  63:GRAPHICS.c    **** /////////////////////////////////////////////////////////////////////////
  64:GRAPHICS.c    **** 
  65:GRAPHICS.c    **** 
  66:GRAPHICS.c    **** /////////////////////////////////////////////////////////////////////////
  67:GRAPHICS.c    **** #ifndef ON
  68:GRAPHICS.c    **** #define ON  1
  69:GRAPHICS.c    **** #endif
  70:GRAPHICS.c    **** 
  71:GRAPHICS.c    **** #ifndef OFF
  72:GRAPHICS.c    **** #define OFF 0
  73:GRAPHICS.c    **** #endif
  74:GRAPHICS.c    **** 
  75:GRAPHICS.c    **** #ifndef YES
  76:GRAPHICS.c    **** #define YES 1
  77:GRAPHICS.c    **** #endif
  78:GRAPHICS.c    **** 
  79:GRAPHICS.c    **** #ifndef NO
  80:GRAPHICS.c    **** #define NO  0
  81:GRAPHICS.c    **** #endif
  82:GRAPHICS.c    **** /////////////////////////////////////////////////////////////////////////
  83:GRAPHICS.c    **** 
  84:GRAPHICS.c    **** 
  85:GRAPHICS.c    **** /////////////////////////////////////////////////////////////////////////
  86:GRAPHICS.c    **** //// Defines a 5x7 font
  87:GRAPHICS.c    **** /////////////////////////////////////////////////////////////////////////
ARM GAS  C:\Users\USUARIO\AppData\Local\Temp\ccwbT6UD.s 			page 3


  88:GRAPHICS.c    **** const uint8 FONT[51][5] ={0x00, 0x00, 0x00, 0x00, 0x00, // SPACE
  89:GRAPHICS.c    ****                          0x00, 0x00, 0x5F, 0x00, 0x00, // !
  90:GRAPHICS.c    ****                          0x00, 0x03, 0x00, 0x03, 0x00, // "
  91:GRAPHICS.c    ****                          0x14, 0x3E, 0x14, 0x3E, 0x14, // #
  92:GRAPHICS.c    ****                          0x24, 0x2A, 0x7F, 0x2A, 0x12, // $
  93:GRAPHICS.c    ****                          0x43, 0x33, 0x08, 0x66, 0x61, // %
  94:GRAPHICS.c    ****                          0x36, 0x49, 0x55, 0x22, 0x50, // &
  95:GRAPHICS.c    ****                          0x00, 0x05, 0x03, 0x00, 0x00, // '
  96:GRAPHICS.c    ****                          0x00, 0x1C, 0x22, 0x41, 0x00, // (
  97:GRAPHICS.c    ****                          0x00, 0x41, 0x22, 0x1C, 0x00, // )
  98:GRAPHICS.c    ****                          0x14, 0x08, 0x3E, 0x08, 0x14, // *
  99:GRAPHICS.c    ****                          0x08, 0x08, 0x3E, 0x08, 0x08, // +
 100:GRAPHICS.c    ****                          0x00, 0x50, 0x30, 0x00, 0x00, // ,
 101:GRAPHICS.c    ****                          0x08, 0x08, 0x08, 0x08, 0x08, // -
 102:GRAPHICS.c    ****                          0x00, 0x60, 0x60, 0x00, 0x00, // .
 103:GRAPHICS.c    ****                          0x20, 0x10, 0x08, 0x04, 0x02, // /
 104:GRAPHICS.c    ****                          0x3E, 0x51, 0x49, 0x45, 0x3E, // 0
 105:GRAPHICS.c    ****                          0x00, 0x04, 0x02, 0x7F, 0x00, // 1
 106:GRAPHICS.c    ****                          0x42, 0x61, 0x51, 0x49, 0x46, // 2
 107:GRAPHICS.c    ****                          0x22, 0x41, 0x49, 0x49, 0x36, // 3
 108:GRAPHICS.c    ****                          0x18, 0x14, 0x12, 0x7F, 0x10, // 4
 109:GRAPHICS.c    ****                          0x27, 0x45, 0x45, 0x45, 0x39, // 5
 110:GRAPHICS.c    ****                          0x3E, 0x49, 0x49, 0x49, 0x32, // 6
 111:GRAPHICS.c    ****                          0x01, 0x01, 0x71, 0x09, 0x07, // 7
 112:GRAPHICS.c    ****                          0x36, 0x49, 0x49, 0x49, 0x36, // 8
 113:GRAPHICS.c    ****                          0x26, 0x49, 0x49, 0x49, 0x3E, // 9
 114:GRAPHICS.c    ****                          0x00, 0x36, 0x36, 0x00, 0x00, // :
 115:GRAPHICS.c    ****                          0x00, 0x56, 0x36, 0x00, 0x00, // ;
 116:GRAPHICS.c    ****                          0x08, 0x14, 0x22, 0x41, 0x00, // <
 117:GRAPHICS.c    ****                          0x14, 0x14, 0x14, 0x14, 0x14, // =
 118:GRAPHICS.c    ****                          0x00, 0x41, 0x22, 0x14, 0x08, // >
 119:GRAPHICS.c    ****                          0x02, 0x01, 0x51, 0x09, 0x06, // ?
 120:GRAPHICS.c    ****                          0x3E, 0x41, 0x59, 0x55, 0x5E, // @
 121:GRAPHICS.c    ****                          0x7E, 0x09, 0x09, 0x09, 0x7E, // A
 122:GRAPHICS.c    ****                          0x7F, 0x49, 0x49, 0x49, 0x36, // B
 123:GRAPHICS.c    ****                          0x3E, 0x41, 0x41, 0x41, 0x22, // C
 124:GRAPHICS.c    ****                          0x7F, 0x41, 0x41, 0x41, 0x3E, // D
 125:GRAPHICS.c    ****                          0x7F, 0x49, 0x49, 0x49, 0x41, // E
 126:GRAPHICS.c    ****                          0x7F, 0x09, 0x09, 0x09, 0x01, // F
 127:GRAPHICS.c    ****                          0x3E, 0x41, 0x41, 0x49, 0x3A, // G
 128:GRAPHICS.c    ****                          0x7F, 0x08, 0x08, 0x08, 0x7F, // H
 129:GRAPHICS.c    ****                          0x00, 0x41, 0x7F, 0x41, 0x00, // I
 130:GRAPHICS.c    ****                          0x30, 0x40, 0x40, 0x40, 0x3F, // J
 131:GRAPHICS.c    ****                          0x7F, 0x08, 0x14, 0x22, 0x41, // K
 132:GRAPHICS.c    ****                          0x7F, 0x40, 0x40, 0x40, 0x40, // L
 133:GRAPHICS.c    ****                          0x7F, 0x02, 0x0C, 0x02, 0x7F, // M
 134:GRAPHICS.c    ****                          0x7F, 0x02, 0x04, 0x08, 0x7F, // N
 135:GRAPHICS.c    ****                          0x3E, 0x41, 0x41, 0x41, 0x3E, // O
 136:GRAPHICS.c    ****                          0x7F, 0x09, 0x09, 0x09, 0x06, // P
 137:GRAPHICS.c    ****                          0x1E, 0x21, 0x21, 0x21, 0x5E, // Q
 138:GRAPHICS.c    ****                          0x7F, 0x09, 0x09, 0x09, 0x76};// R
 139:GRAPHICS.c    **** 
 140:GRAPHICS.c    **** const uint8 FONT2[44][5]={0x26, 0x49, 0x49, 0x49, 0x32, // S
 141:GRAPHICS.c    ****                          0x01, 0x01, 0x7F, 0x01, 0x01, // T
 142:GRAPHICS.c    ****                          0x3F, 0x40, 0x40, 0x40, 0x3F, // U
 143:GRAPHICS.c    ****                          0x1F, 0x20, 0x40, 0x20, 0x1F, // V
 144:GRAPHICS.c    ****                          0x7F, 0x20, 0x10, 0x20, 0x7F, // W
ARM GAS  C:\Users\USUARIO\AppData\Local\Temp\ccwbT6UD.s 			page 4


 145:GRAPHICS.c    ****                          0x41, 0x22, 0x1C, 0x22, 0x41, // X
 146:GRAPHICS.c    ****                          0x07, 0x08, 0x70, 0x08, 0x07, // Y
 147:GRAPHICS.c    ****                          0x61, 0x51, 0x49, 0x45, 0x43, // Z
 148:GRAPHICS.c    ****                          0x00, 0x7F, 0x41, 0x00, 0x00, // [
 149:GRAPHICS.c    ****                          0x02, 0x04, 0x08, 0x10, 0x20, // \
 150:GRAPHICS.c    ****                          0x00, 0x00, 0x41, 0x7F, 0x00, // ]
 151:GRAPHICS.c    ****                          0x04, 0x02, 0x01, 0x02, 0x04, // ^
 152:GRAPHICS.c    ****                          0x40, 0x40, 0x40, 0x40, 0x40, // _
 153:GRAPHICS.c    ****                          0x00, 0x01, 0x02, 0x04, 0x00, // `
 154:GRAPHICS.c    ****                          0x20, 0x54, 0x54, 0x54, 0x78, // a
 155:GRAPHICS.c    ****                          0x7F, 0x44, 0x44, 0x44, 0x38, // b
 156:GRAPHICS.c    ****                          0x38, 0x44, 0x44, 0x44, 0x44, // c
 157:GRAPHICS.c    ****                          0x38, 0x44, 0x44, 0x44, 0x7F, // d
 158:GRAPHICS.c    ****                          0x38, 0x54, 0x54, 0x54, 0x18, // e
 159:GRAPHICS.c    ****                          0x04, 0x04, 0x7E, 0x05, 0x05, // f
 160:GRAPHICS.c    ****                          0x08, 0x54, 0x54, 0x54, 0x3C, // g
 161:GRAPHICS.c    ****                          0x7F, 0x08, 0x04, 0x04, 0x78, // h
 162:GRAPHICS.c    ****                          0x00, 0x44, 0x7D, 0x40, 0x00, // i
 163:GRAPHICS.c    ****                          0x20, 0x40, 0x44, 0x3D, 0x00, // j
 164:GRAPHICS.c    ****                          0x7F, 0x10, 0x28, 0x44, 0x00, // k
 165:GRAPHICS.c    ****                          0x00, 0x41, 0x7F, 0x40, 0x00, // l
 166:GRAPHICS.c    ****                          0x7C, 0x04, 0x78, 0x04, 0x78, // m
 167:GRAPHICS.c    ****                          0x7C, 0x08, 0x04, 0x04, 0x78, // n
 168:GRAPHICS.c    ****                          0x38, 0x44, 0x44, 0x44, 0x38, // o
 169:GRAPHICS.c    ****                          0x7C, 0x14, 0x14, 0x14, 0x08, // p
 170:GRAPHICS.c    ****                          0x08, 0x14, 0x14, 0x14, 0x7C, // q
 171:GRAPHICS.c    ****                          0x00, 0x7C, 0x08, 0x04, 0x04, // r
 172:GRAPHICS.c    ****                          0x48, 0x54, 0x54, 0x54, 0x20, // s
 173:GRAPHICS.c    ****                          0x04, 0x04, 0x3F, 0x44, 0x44, // t
 174:GRAPHICS.c    ****                          0x3C, 0x40, 0x40, 0x20, 0x7C, // u
 175:GRAPHICS.c    ****                          0x1C, 0x20, 0x40, 0x20, 0x1C, // v
 176:GRAPHICS.c    ****                          0x3C, 0x40, 0x30, 0x40, 0x3C, // w
 177:GRAPHICS.c    ****                          0x44, 0x28, 0x10, 0x28, 0x44, // x
 178:GRAPHICS.c    ****                          0x0C, 0x50, 0x50, 0x50, 0x3C, // y
 179:GRAPHICS.c    ****                          0x44, 0x64, 0x54, 0x4C, 0x44, // z
 180:GRAPHICS.c    ****                          0x00, 0x08, 0x36, 0x41, 0x41, // {
 181:GRAPHICS.c    ****                          0x00, 0x00, 0x7F, 0x00, 0x00, // |
 182:GRAPHICS.c    ****                          0x41, 0x41, 0x36, 0x08, 0x00, // }
 183:GRAPHICS.c    ****                          0x02, 0x01, 0x02, 0x04, 0x02};// ~
 184:GRAPHICS.c    **** /////////////////////////////////////////////////////////////////////////
 185:GRAPHICS.c    **** 
 186:GRAPHICS.c    **** 
 187:GRAPHICS.c    **** /////////////////////////////////////////////////////////////////////////
 188:GRAPHICS.c    **** // Purpose:       Draw a line on a graphic LCD using Bresenham's
 189:GRAPHICS.c    **** //                line drawing algorithm
 190:GRAPHICS.c    **** // Inputs:        (x1, y1) - the start coordinate
 191:GRAPHICS.c    **** //                (x2, y2) - the end coordinate
 192:GRAPHICS.c    **** //                color - ON or OFF
 193:GRAPHICS.c    **** // Dependencies:  glcd_pixel()
 194:GRAPHICS.c    **** /////////////////////////////////////////////////////////////////////////
 195:GRAPHICS.c    **** 
 196:GRAPHICS.c    **** void glcd_line(uint8 x1, uint8 y1, uint8 x2, uint8 y2, short color)
 197:GRAPHICS.c    **** {
  28              		.loc 1 197 0
  29              		.cfi_startproc
  30              		@ args = 4, pretend = 0, frame = 8
  31              		@ frame_needed = 0, uses_anonymous_args = 0
ARM GAS  C:\Users\USUARIO\AppData\Local\Temp\ccwbT6UD.s 			page 5


  32              	.LVL0:
  33 0000 2DE9F04F 		push	{r4, r5, r6, r7, r8, r9, r10, fp, lr}
  34              		.cfi_def_cfa_offset 36
  35              		.cfi_offset 4, -36
  36              		.cfi_offset 5, -32
  37              		.cfi_offset 6, -28
  38              		.cfi_offset 7, -24
  39              		.cfi_offset 8, -20
  40              		.cfi_offset 9, -16
  41              		.cfi_offset 10, -12
  42              		.cfi_offset 11, -8
  43              		.cfi_offset 14, -4
  44 0004 83B0     		sub	sp, sp, #12
  45              		.cfi_def_cfa_offset 48
  46 0006 0446     		mov	r4, r0
  47 0008 0D46     		mov	r5, r1
  48 000a BDF93010 		ldrsh	r1, [sp, #48]
  49              	.LVL1:
  50 000e 0091     		str	r1, [sp]
  51              	.LVL2:
 198:GRAPHICS.c    ****    uint16        dy, dx;
 199:GRAPHICS.c    ****    int8  addx=1, addy=1;
 200:GRAPHICS.c    ****    int16 P, diff;
 201:GRAPHICS.c    **** 
 202:GRAPHICS.c    ****    uint8 i=0;
 203:GRAPHICS.c    ****    dx = abs((int8)(x2 - x1));
  52              		.loc 1 203 0
  53 0010 C0EB0208 		rsb	r8, r0, r2
  54 0014 4FFA88F8 		sxtb	r8, r8
  55 0018 B8F1000F 		cmp	r8, #0
  56 001c B8BF     		it	lt
  57 001e C8F10008 		rsblt	r8, r8, #0
  58 0022 1FFA88F8 		uxth	r8, r8
  59              	.LVL3:
 204:GRAPHICS.c    ****    dy = abs((int8)(y2 - y1));
  60              		.loc 1 204 0
  61 0026 C5EB030B 		rsb	fp, r5, r3
  62 002a 4FFA8BFB 		sxtb	fp, fp
  63 002e BBF1000F 		cmp	fp, #0
  64 0032 B8BF     		it	lt
  65 0034 CBF1000B 		rsblt	fp, fp, #0
  66 0038 1FFA8BFB 		uxth	fp, fp
  67              	.LVL4:
 205:GRAPHICS.c    **** 
 206:GRAPHICS.c    ****    if(x1 > x2)
  68              		.loc 1 206 0
  69 003c 8242     		cmp	r2, r0
  70 003e 02D3     		bcc	.L14
 199:GRAPHICS.c    ****    int16 P, diff;
  71              		.loc 1 199 0
  72 0040 4FF00109 		mov	r9, #1
  73 0044 01E0     		b	.L2
  74              	.L14:
 207:GRAPHICS.c    ****       addx = -1;
  75              		.loc 1 207 0
  76 0046 4FF0FF39 		mov	r9, #-1
  77              	.L2:
ARM GAS  C:\Users\USUARIO\AppData\Local\Temp\ccwbT6UD.s 			page 6


  78              	.LVL5:
 208:GRAPHICS.c    ****    if(y1 > y2)
  79              		.loc 1 208 0
  80 004a AB42     		cmp	r3, r5
  81 004c 02D3     		bcc	.L15
 199:GRAPHICS.c    ****    int16 P, diff;
  82              		.loc 1 199 0
  83 004e 4FF0010A 		mov	r10, #1
  84 0052 01E0     		b	.L3
  85              	.L15:
 209:GRAPHICS.c    ****       addy = -1;
  86              		.loc 1 209 0
  87 0054 4FF0FF3A 		mov	r10, #-1
  88              	.L3:
  89              	.LVL6:
 210:GRAPHICS.c    **** 
 211:GRAPHICS.c    ****    if(dx >= dy)
  90              		.loc 1 211 0
  91 0058 D845     		cmp	r8, fp
  92 005a 29D3     		bcc	.L4
 212:GRAPHICS.c    ****    {
 213:GRAPHICS.c    ****       dy *= 2;
  93              		.loc 1 213 0
  94 005c 4FEA4B0B 		lsl	fp, fp, #1
  95              	.LVL7:
  96 0060 1FFA8BF3 		uxth	r3, fp
  97              	.LVL8:
  98 0064 0193     		str	r3, [sp, #4]
  99              	.LVL9:
 214:GRAPHICS.c    ****       P = dy - dx;
 100              		.loc 1 214 0
 101 0066 C8EB030B 		rsb	fp, r8, r3
 102 006a 1FFA8BFB 		uxth	fp, fp
 103 006e 0FFA8BF7 		sxth	r7, fp
 104              	.LVL10:
 215:GRAPHICS.c    ****       diff = P - dx;
 105              		.loc 1 215 0
 106 0072 C8EB0B0B 		rsb	fp, r8, fp
 107 0076 1FFA8BFB 		uxth	fp, fp
 108              	.LVL11:
 202:GRAPHICS.c    ****    dx = abs((int8)(x2 - x1));
 109              		.loc 1 202 0
 110 007a 0026     		movs	r6, #0
 216:GRAPHICS.c    **** 
 217:GRAPHICS.c    ****       for(; i<=dx; ++i)
 111              		.loc 1 217 0
 112 007c 14E0     		b	.L5
 113              	.LVL12:
 114              	.L8:
 218:GRAPHICS.c    ****       {
 219:GRAPHICS.c    ****          glcd_pixel(x1, y1, color);
 115              		.loc 1 219 0
 116 007e 009A     		ldr	r2, [sp]
 117 0080 2946     		mov	r1, r5
 118 0082 2046     		mov	r0, r4
 119 0084 FFF7FEFF 		bl	glcd_pixel
 120              	.LVL13:
ARM GAS  C:\Users\USUARIO\AppData\Local\Temp\ccwbT6UD.s 			page 7


 220:GRAPHICS.c    **** 
 221:GRAPHICS.c    ****          if(P < 0)
 121              		.loc 1 221 0
 122 0088 002F     		cmp	r7, #0
 123 008a 05DA     		bge	.L6
 222:GRAPHICS.c    ****          {
 223:GRAPHICS.c    ****             P  += dy;
 124              		.loc 1 223 0
 125 008c 019B     		ldr	r3, [sp, #4]
 126 008e 1F44     		add	r7, r7, r3
 127              	.LVL14:
 128 0090 3FB2     		sxth	r7, r7
 129              	.LVL15:
 224:GRAPHICS.c    ****             x1 += addx;
 130              		.loc 1 224 0
 131 0092 4C44     		add	r4, r4, r9
 132              	.LVL16:
 133 0094 E4B2     		uxtb	r4, r4
 134              	.LVL17:
 135 0096 05E0     		b	.L7
 136              	.L6:
 225:GRAPHICS.c    ****          }
 226:GRAPHICS.c    ****          else
 227:GRAPHICS.c    ****          {
 228:GRAPHICS.c    ****             P  += diff;
 137              		.loc 1 228 0
 138 0098 5F44     		add	r7, r7, fp
 139              	.LVL18:
 140 009a 3FB2     		sxth	r7, r7
 141              	.LVL19:
 229:GRAPHICS.c    ****             x1 += addx;
 142              		.loc 1 229 0
 143 009c 4C44     		add	r4, r4, r9
 144              	.LVL20:
 145 009e E4B2     		uxtb	r4, r4
 146              	.LVL21:
 230:GRAPHICS.c    ****             y1 += addy;
 147              		.loc 1 230 0
 148 00a0 5544     		add	r5, r5, r10
 149              	.LVL22:
 150 00a2 EDB2     		uxtb	r5, r5
 151              	.LVL23:
 152              	.L7:
 217:GRAPHICS.c    ****       {
 153              		.loc 1 217 0
 154 00a4 0136     		adds	r6, r6, #1
 155              	.LVL24:
 156 00a6 F6B2     		uxtb	r6, r6
 157              	.LVL25:
 158              	.L5:
 217:GRAPHICS.c    ****       {
 159              		.loc 1 217 0 is_stmt 0 discriminator 1
 160 00a8 B3B2     		uxth	r3, r6
 161 00aa 9845     		cmp	r8, r3
 162 00ac E7D2     		bcs	.L8
 163 00ae 28E0     		b	.L1
 164              	.LVL26:
ARM GAS  C:\Users\USUARIO\AppData\Local\Temp\ccwbT6UD.s 			page 8


 165              	.L4:
 231:GRAPHICS.c    ****          }
 232:GRAPHICS.c    ****       }
 233:GRAPHICS.c    ****    }
 234:GRAPHICS.c    ****    else
 235:GRAPHICS.c    ****    {
 236:GRAPHICS.c    ****       dx *= 2;
 166              		.loc 1 236 0 is_stmt 1
 167 00b0 4FEA4808 		lsl	r8, r8, #1
 168              	.LVL27:
 169 00b4 1FFA88F3 		uxth	r3, r8
 170              	.LVL28:
 171 00b8 0193     		str	r3, [sp, #4]
 172              	.LVL29:
 237:GRAPHICS.c    ****       P = dx - dy;
 173              		.loc 1 237 0
 174 00ba CBEB0308 		rsb	r8, fp, r3
 175 00be 1FFA88F8 		uxth	r8, r8
 176 00c2 0FFA88F7 		sxth	r7, r8
 177              	.LVL30:
 238:GRAPHICS.c    ****       diff = P - dy;
 178              		.loc 1 238 0
 179 00c6 CBEB0808 		rsb	r8, fp, r8
 180 00ca 1FFA88F8 		uxth	r8, r8
 181              	.LVL31:
 202:GRAPHICS.c    ****    dx = abs((int8)(x2 - x1));
 182              		.loc 1 202 0
 183 00ce 0026     		movs	r6, #0
 239:GRAPHICS.c    **** 
 240:GRAPHICS.c    ****       for(; i<=dy; ++i)
 184              		.loc 1 240 0
 185 00d0 14E0     		b	.L10
 186              	.LVL32:
 187              	.L13:
 241:GRAPHICS.c    ****       {
 242:GRAPHICS.c    ****          glcd_pixel(x1, y1, color);
 188              		.loc 1 242 0
 189 00d2 009A     		ldr	r2, [sp]
 190 00d4 2946     		mov	r1, r5
 191 00d6 2046     		mov	r0, r4
 192 00d8 FFF7FEFF 		bl	glcd_pixel
 193              	.LVL33:
 243:GRAPHICS.c    **** 
 244:GRAPHICS.c    ****          if(P < 0)
 194              		.loc 1 244 0
 195 00dc 002F     		cmp	r7, #0
 196 00de 05DA     		bge	.L11
 245:GRAPHICS.c    ****          {
 246:GRAPHICS.c    ****             P  += dx;
 197              		.loc 1 246 0
 198 00e0 019B     		ldr	r3, [sp, #4]
 199 00e2 1F44     		add	r7, r7, r3
 200              	.LVL34:
 201 00e4 3FB2     		sxth	r7, r7
 202              	.LVL35:
 247:GRAPHICS.c    ****             y1 += addy;
 203              		.loc 1 247 0
ARM GAS  C:\Users\USUARIO\AppData\Local\Temp\ccwbT6UD.s 			page 9


 204 00e6 5544     		add	r5, r5, r10
 205              	.LVL36:
 206 00e8 EDB2     		uxtb	r5, r5
 207              	.LVL37:
 208 00ea 05E0     		b	.L12
 209              	.L11:
 248:GRAPHICS.c    ****          }
 249:GRAPHICS.c    ****          else
 250:GRAPHICS.c    ****          {
 251:GRAPHICS.c    ****             P  += diff;
 210              		.loc 1 251 0
 211 00ec 4744     		add	r7, r7, r8
 212              	.LVL38:
 213 00ee 3FB2     		sxth	r7, r7
 214              	.LVL39:
 252:GRAPHICS.c    ****             x1 += addx;
 215              		.loc 1 252 0
 216 00f0 4C44     		add	r4, r4, r9
 217              	.LVL40:
 218 00f2 E4B2     		uxtb	r4, r4
 219              	.LVL41:
 253:GRAPHICS.c    ****             y1 += addy;
 220              		.loc 1 253 0
 221 00f4 5544     		add	r5, r5, r10
 222              	.LVL42:
 223 00f6 EDB2     		uxtb	r5, r5
 224              	.LVL43:
 225              	.L12:
 240:GRAPHICS.c    ****       {
 226              		.loc 1 240 0
 227 00f8 0136     		adds	r6, r6, #1
 228              	.LVL44:
 229 00fa F6B2     		uxtb	r6, r6
 230              	.LVL45:
 231              	.L10:
 240:GRAPHICS.c    ****       {
 232              		.loc 1 240 0 is_stmt 0 discriminator 1
 233 00fc B3B2     		uxth	r3, r6
 234 00fe 9B45     		cmp	fp, r3
 235 0100 E7D2     		bcs	.L13
 236              	.LVL46:
 237              	.L1:
 254:GRAPHICS.c    ****          }
 255:GRAPHICS.c    ****       }
 256:GRAPHICS.c    ****    }
 257:GRAPHICS.c    **** }
 238              		.loc 1 257 0 is_stmt 1
 239 0102 03B0     		add	sp, sp, #12
 240              		.cfi_def_cfa_offset 36
 241              		@ sp needed
 242 0104 BDE8F08F 		pop	{r4, r5, r6, r7, r8, r9, r10, fp, pc}
 243              		.cfi_endproc
 244              	.LFE63:
 245              		.size	glcd_line, .-glcd_line
 246              		.section	.text.glcd_rect,"ax",%progbits
 247              		.align	2
 248              		.global	glcd_rect
ARM GAS  C:\Users\USUARIO\AppData\Local\Temp\ccwbT6UD.s 			page 10


 249              		.thumb
 250              		.thumb_func
 251              		.type	glcd_rect, %function
 252              	glcd_rect:
 253              	.LFB64:
 258:GRAPHICS.c    **** 
 259:GRAPHICS.c    **** 
 260:GRAPHICS.c    **** /////////////////////////////////////////////////////////////////////////
 261:GRAPHICS.c    **** // Purpose:       Draw a rectangle on a graphic LCD
 262:GRAPHICS.c    **** // Inputs:        (x1, y1) - the start coordinate
 263:GRAPHICS.c    **** //                (x2, y2) - the end coordinate
 264:GRAPHICS.c    **** //                fill  - YES or NO
 265:GRAPHICS.c    **** //                color - ON or OFF
 266:GRAPHICS.c    **** // Dependencies:  glcd_pixel(), glcd_line()
 267:GRAPHICS.c    **** /////////////////////////////////////////////////////////////////////////
 268:GRAPHICS.c    **** void glcd_rect(uint8 x1, uint8 y1, uint8 x2, uint8 y2, short fill, short color)
 269:GRAPHICS.c    **** {
 254              		.loc 1 269 0
 255              		.cfi_startproc
 256              		@ args = 8, pretend = 0, frame = 0
 257              		@ frame_needed = 0, uses_anonymous_args = 0
 258              	.LVL47:
 259 0000 2DE9F043 		push	{r4, r5, r6, r7, r8, r9, lr}
 260              		.cfi_def_cfa_offset 28
 261              		.cfi_offset 4, -28
 262              		.cfi_offset 5, -24
 263              		.cfi_offset 6, -20
 264              		.cfi_offset 7, -16
 265              		.cfi_offset 8, -12
 266              		.cfi_offset 9, -8
 267              		.cfi_offset 14, -4
 268 0004 83B0     		sub	sp, sp, #12
 269              		.cfi_def_cfa_offset 40
 270 0006 0546     		mov	r5, r0
 271 0008 0E46     		mov	r6, r1
 272 000a 9046     		mov	r8, r2
 273 000c 9946     		mov	r9, r3
 274 000e BDF92830 		ldrsh	r3, [sp, #40]
 275              	.LVL48:
 276 0012 BDF92C70 		ldrsh	r7, [sp, #44]
 270:GRAPHICS.c    ****    if(fill)
 277              		.loc 1 270 0
 278 0016 CBB1     		cbz	r3, .L18
 279              	.LBB2:
 271:GRAPHICS.c    ****    {
 272:GRAPHICS.c    ****       uint8  i, xmin, xmax, ymin, ymax;      
 273:GRAPHICS.c    **** 
 274:GRAPHICS.c    ****       if(x1 < x2)                            //  Find x min and max
 280              		.loc 1 274 0
 281 0018 9042     		cmp	r0, r2
 282 001a 01D3     		bcc	.L19
 275:GRAPHICS.c    ****       {
 276:GRAPHICS.c    ****          xmin = x1;
 277:GRAPHICS.c    ****          xmax = x2;
 278:GRAPHICS.c    ****       }
 279:GRAPHICS.c    ****       else
 280:GRAPHICS.c    ****       {
ARM GAS  C:\Users\USUARIO\AppData\Local\Temp\ccwbT6UD.s 			page 11


 281:GRAPHICS.c    ****          xmin = x2;
 283              		.loc 1 281 0
 284 001c 1546     		mov	r5, r2
 282:GRAPHICS.c    ****          xmax = x1;
 285              		.loc 1 282 0
 286 001e 8046     		mov	r8, r0
 287              	.L19:
 288              	.LVL49:
 283:GRAPHICS.c    ****       }
 284:GRAPHICS.c    **** 
 285:GRAPHICS.c    ****       if(y1 < y2)                            // Find the y min and max
 289              		.loc 1 285 0
 290 0020 4E45     		cmp	r6, r9
 291 0022 10D2     		bcs	.L21
 292 0024 4B46     		mov	r3, r9
 286:GRAPHICS.c    ****       {
 287:GRAPHICS.c    ****          ymin = y1;
 293              		.loc 1 287 0
 294 0026 B146     		mov	r9, r6
 288:GRAPHICS.c    ****          ymax = y2;
 295              		.loc 1 288 0
 296 0028 1E46     		mov	r6, r3
 297 002a 0CE0     		b	.L21
 298              	.LVL50:
 299              	.L22:
 289:GRAPHICS.c    ****       }
 290:GRAPHICS.c    ****       else
 291:GRAPHICS.c    ****       {
 292:GRAPHICS.c    ****          ymin = y2;
 293:GRAPHICS.c    ****          ymax = y1;
 294:GRAPHICS.c    ****       }
 295:GRAPHICS.c    **** 
 296:GRAPHICS.c    ****       for(; xmin <= xmax; ++xmin)
 297:GRAPHICS.c    ****       {
 298:GRAPHICS.c    ****          for(i=ymin; i<=ymax; ++i)
 299:GRAPHICS.c    ****          {
 300:GRAPHICS.c    ****             glcd_pixel(xmin, i, color);
 300              		.loc 1 300 0 discriminator 3
 301 002c 3A46     		mov	r2, r7
 302 002e 2146     		mov	r1, r4
 303 0030 2846     		mov	r0, r5
 304 0032 FFF7FEFF 		bl	glcd_pixel
 305              	.LVL51:
 298:GRAPHICS.c    ****          {
 306              		.loc 1 298 0 discriminator 3
 307 0036 0134     		adds	r4, r4, #1
 308              	.LVL52:
 309 0038 E4B2     		uxtb	r4, r4
 310              	.LVL53:
 311 003a 00E0     		b	.L23
 312              	.LVL54:
 313              	.L26:
 314 003c 4C46     		mov	r4, r9
 315              	.L23:
 316              	.LVL55:
 298:GRAPHICS.c    ****          {
 317              		.loc 1 298 0 is_stmt 0 discriminator 1
ARM GAS  C:\Users\USUARIO\AppData\Local\Temp\ccwbT6UD.s 			page 12


 318 003e B442     		cmp	r4, r6
 319 0040 F4D9     		bls	.L22
 296:GRAPHICS.c    ****       {
 320              		.loc 1 296 0 is_stmt 1
 321 0042 0135     		adds	r5, r5, #1
 322              	.LVL56:
 323 0044 EDB2     		uxtb	r5, r5
 324              	.LVL57:
 325              	.L21:
 296:GRAPHICS.c    ****       {
 326              		.loc 1 296 0 is_stmt 0 discriminator 1
 327 0046 4545     		cmp	r5, r8
 328 0048 F8D9     		bls	.L26
 329 004a 18E0     		b	.L17
 330              	.LVL58:
 331              	.L18:
 332              	.LBE2:
 301:GRAPHICS.c    ****          }
 302:GRAPHICS.c    ****       }
 303:GRAPHICS.c    ****    }
 304:GRAPHICS.c    ****    else
 305:GRAPHICS.c    ****    {
 306:GRAPHICS.c    ****       glcd_line(x1, y1, x2, y1, color);      // Draw the 4 sides
 333              		.loc 1 306 0 is_stmt 1
 334 004c 0097     		str	r7, [sp]
 335 004e 0B46     		mov	r3, r1
 336 0050 FFF7FEFF 		bl	glcd_line
 337              	.LVL59:
 307:GRAPHICS.c    ****       glcd_line(x1, y2, x2, y2, color);
 338              		.loc 1 307 0
 339 0054 0097     		str	r7, [sp]
 340 0056 4B46     		mov	r3, r9
 341 0058 4246     		mov	r2, r8
 342 005a 4946     		mov	r1, r9
 343 005c 2846     		mov	r0, r5
 344 005e FFF7FEFF 		bl	glcd_line
 345              	.LVL60:
 308:GRAPHICS.c    ****       glcd_line(x1, y1, x1, y2, color);
 346              		.loc 1 308 0
 347 0062 0097     		str	r7, [sp]
 348 0064 4B46     		mov	r3, r9
 349 0066 2A46     		mov	r2, r5
 350 0068 3146     		mov	r1, r6
 351 006a 2846     		mov	r0, r5
 352 006c FFF7FEFF 		bl	glcd_line
 353              	.LVL61:
 309:GRAPHICS.c    ****       glcd_line(x2, y1, x2, y2, color);
 354              		.loc 1 309 0
 355 0070 0097     		str	r7, [sp]
 356 0072 4B46     		mov	r3, r9
 357 0074 4246     		mov	r2, r8
 358 0076 3146     		mov	r1, r6
 359 0078 4046     		mov	r0, r8
 360 007a FFF7FEFF 		bl	glcd_line
 361              	.LVL62:
 362              	.L17:
 310:GRAPHICS.c    ****    }
ARM GAS  C:\Users\USUARIO\AppData\Local\Temp\ccwbT6UD.s 			page 13


 311:GRAPHICS.c    **** }
 363              		.loc 1 311 0
 364 007e 03B0     		add	sp, sp, #12
 365              		.cfi_def_cfa_offset 28
 366              		@ sp needed
 367 0080 BDE8F083 		pop	{r4, r5, r6, r7, r8, r9, pc}
 368              		.cfi_endproc
 369              	.LFE64:
 370              		.size	glcd_rect, .-glcd_rect
 371              		.section	.text.glcd_bar,"ax",%progbits
 372              		.align	2
 373              		.global	glcd_bar
 374              		.thumb
 375              		.thumb_func
 376              		.type	glcd_bar, %function
 377              	glcd_bar:
 378              	.LFB65:
 312:GRAPHICS.c    **** 
 313:GRAPHICS.c    **** /////////////////////////////////////////////////////////////////////////
 314:GRAPHICS.c    **** // Purpose:       Draw a bar (wide line) on a graphic LCD
 315:GRAPHICS.c    **** // Inputs:        (x1, y1) - the start coordinate
 316:GRAPHICS.c    **** //                (x2, y2) - the end coordinate
 317:GRAPHICS.c    **** //                width  - The number of pixels wide
 318:GRAPHICS.c    **** //                color - ON or OFF
 319:GRAPHICS.c    **** /////////////////////////////////////////////////////////////////////////
 320:GRAPHICS.c    **** void glcd_bar(uint8 x1, uint8 y1, uint8 x2, uint8 y2, uint8 width, short color)
 321:GRAPHICS.c    **** {
 379              		.loc 1 321 0
 380              		.cfi_startproc
 381              		@ args = 8, pretend = 0, frame = 40
 382              		@ frame_needed = 0, uses_anonymous_args = 0
 383              	.LVL63:
 384 0000 2DE9F04F 		push	{r4, r5, r6, r7, r8, r9, r10, fp, lr}
 385              		.cfi_def_cfa_offset 36
 386              		.cfi_offset 4, -36
 387              		.cfi_offset 5, -32
 388              		.cfi_offset 6, -28
 389              		.cfi_offset 7, -24
 390              		.cfi_offset 8, -20
 391              		.cfi_offset 9, -16
 392              		.cfi_offset 10, -12
 393              		.cfi_offset 11, -8
 394              		.cfi_offset 14, -4
 395 0004 8BB0     		sub	sp, sp, #44
 396              		.cfi_def_cfa_offset 80
 397 0006 0546     		mov	r5, r0
 398 0008 0E46     		mov	r6, r1
 399 000a 9DF85080 		ldrb	r8, [sp, #80]	@ zero_extendqisi2
 400 000e BDF95410 		ldrsh	r1, [sp, #84]
 401              	.LVL64:
 402 0012 0491     		str	r1, [sp, #16]
 403              	.LVL65:
 322:GRAPHICS.c    ****    uint8         half_width;
 323:GRAPHICS.c    ****    int16 dy, dx;
 324:GRAPHICS.c    ****    int8  addx=1, addy=1, j;
 325:GRAPHICS.c    ****    int16 P, diff, c1, c2;
 326:GRAPHICS.c    **** 
ARM GAS  C:\Users\USUARIO\AppData\Local\Temp\ccwbT6UD.s 			page 14


 327:GRAPHICS.c    ****    uint8 i=0;
 328:GRAPHICS.c    ****    dx = abs((int8)(x2 - x1));
 404              		.loc 1 328 0
 405 0014 C0EB020A 		rsb	r10, r0, r2
 406 0018 4FFA8AFA 		sxtb	r10, r10
 407 001c BAF1000F 		cmp	r10, #0
 408 0020 B8BF     		it	lt
 409 0022 CAF1000A 		rsblt	r10, r10, #0
 410 0026 0FFA8AF1 		sxth	r1, r10
 411 002a 0791     		str	r1, [sp, #28]
 412              	.LVL66:
 329:GRAPHICS.c    ****    dy = abs((int8)(y2 - y1));
 413              		.loc 1 329 0
 414 002c C6EB030B 		rsb	fp, r6, r3
 415 0030 4FFA8BFB 		sxtb	fp, fp
 416 0034 BBF1000F 		cmp	fp, #0
 417 0038 B8BF     		it	lt
 418 003a CBF1000B 		rsblt	fp, fp, #0
 419 003e 0FFA8BF1 		sxth	r1, fp
 420 0042 0891     		str	r1, [sp, #32]
 421              	.LVL67:
 330:GRAPHICS.c    **** 
 331:GRAPHICS.c    ****    half_width = width/2;
 422              		.loc 1 331 0
 423 0044 4FEA5807 		lsr	r7, r8, #1
 424              	.LVL68:
 332:GRAPHICS.c    ****    c1 = -(dx*x1 + dy*y1);
 425              		.loc 1 332 0
 426 0048 1FFA8AF4 		uxth	r4, r10
 427 004c 1FFA8BF0 		uxth	r0, fp
 428              	.LVL69:
 429 0050 06FB00F9 		mul	r9, r6, r0
 430 0054 05FB0499 		mla	r9, r5, r4, r9
 431 0058 C9F10009 		rsb	r9, r9, #0
 432 005c 0FFA89F9 		sxth	r9, r9
 433              	.LVL70:
 333:GRAPHICS.c    ****    c2 = -(dx*x2 + dy*y2);
 434              		.loc 1 333 0
 435 0060 03FB00F1 		mul	r1, r3, r0
 436 0064 02FB0411 		mla	r1, r2, r4, r1
 437 0068 4942     		negs	r1, r1
 438 006a 09B2     		sxth	r1, r1
 439 006c 0191     		str	r1, [sp, #4]
 440              	.LVL71:
 334:GRAPHICS.c    **** 
 335:GRAPHICS.c    ****    if(x1 > x2)
 441              		.loc 1 335 0
 442 006e AA42     		cmp	r2, r5
 443 0070 05D3     		bcc	.L47
 332:GRAPHICS.c    ****    c2 = -(dx*x2 + dy*y2);
 444              		.loc 1 332 0
 445 0072 CDF80490 		str	r9, [sp, #4]
 333:GRAPHICS.c    ****    c2 = -(dx*x2 + dy*y2);
 446              		.loc 1 333 0
 447 0076 8946     		mov	r9, r1
 448              	.LVL72:
 324:GRAPHICS.c    ****    int16 P, diff, c1, c2;
ARM GAS  C:\Users\USUARIO\AppData\Local\Temp\ccwbT6UD.s 			page 15


 449              		.loc 1 324 0
 450 0078 0122     		movs	r2, #1
 451              	.LVL73:
 452 007a 0592     		str	r2, [sp, #20]
 453 007c 02E0     		b	.L29
 454              	.LVL74:
 455              	.L47:
 456              	.LBB3:
 336:GRAPHICS.c    ****    {
 337:GRAPHICS.c    ****       int16 temp;
 338:GRAPHICS.c    ****       temp = c1;
 339:GRAPHICS.c    ****       c1 = c2;
 340:GRAPHICS.c    ****       c2 = temp;
 341:GRAPHICS.c    ****       addx = -1;
 457              		.loc 1 341 0
 458 007e 4FF0FF32 		mov	r2, #-1
 459              	.LVL75:
 460 0082 0592     		str	r2, [sp, #20]
 461              	.LVL76:
 462              	.L29:
 463              	.LBE3:
 342:GRAPHICS.c    ****    }
 343:GRAPHICS.c    ****    if(y1 > y2)
 464              		.loc 1 343 0
 465 0084 B342     		cmp	r3, r6
 466 0086 06D3     		bcc	.L48
 467 0088 4B46     		mov	r3, r9
 468              	.LVL77:
 469 008a DDF80490 		ldr	r9, [sp, #4]
 470              	.LVL78:
 471 008e 0193     		str	r3, [sp, #4]
 472              	.LVL79:
 324:GRAPHICS.c    ****    int16 P, diff, c1, c2;
 473              		.loc 1 324 0
 474 0090 0123     		movs	r3, #1
 475 0092 0693     		str	r3, [sp, #24]
 476 0094 02E0     		b	.L30
 477              	.LVL80:
 478              	.L48:
 479              	.LBB4:
 344:GRAPHICS.c    ****    {
 345:GRAPHICS.c    ****       int16 temp;
 346:GRAPHICS.c    ****       temp = c1;
 347:GRAPHICS.c    ****       c1 = c2;
 348:GRAPHICS.c    ****       c2 = temp;
 349:GRAPHICS.c    ****       addy = -1;
 480              		.loc 1 349 0
 481 0096 4FF0FF33 		mov	r3, #-1
 482              	.LVL81:
 483 009a 0693     		str	r3, [sp, #24]
 484              	.LVL82:
 485              	.L30:
 486              	.LBE4:
 350:GRAPHICS.c    ****    }
 351:GRAPHICS.c    **** 
 352:GRAPHICS.c    ****    if(dx >= dy)
 487              		.loc 1 352 0
ARM GAS  C:\Users\USUARIO\AppData\Local\Temp\ccwbT6UD.s 			page 16


 488 009c 079B     		ldr	r3, [sp, #28]
 489 009e 089A     		ldr	r2, [sp, #32]
 490 00a0 9342     		cmp	r3, r2
 491 00a2 48DB     		blt	.L31
 353:GRAPHICS.c    ****    {
 354:GRAPHICS.c    ****       P = 2*dy - dx;
 492              		.loc 1 354 0
 493 00a4 4000     		lsls	r0, r0, #1
 494 00a6 83B2     		uxth	r3, r0
 495 00a8 0993     		str	r3, [sp, #36]
 496 00aa 1B1B     		subs	r3, r3, r4
 497 00ac 9BB2     		uxth	r3, r3
 498 00ae 1AB2     		sxth	r2, r3
 499 00b0 0392     		str	r2, [sp, #12]
 500              	.LVL83:
 355:GRAPHICS.c    ****       diff = P - dx;
 501              		.loc 1 355 0
 502 00b2 1B1B     		subs	r3, r3, r4
 503 00b4 9BB2     		uxth	r3, r3
 504 00b6 0893     		str	r3, [sp, #32]
 505              	.LVL84:
 356:GRAPHICS.c    **** 
 357:GRAPHICS.c    ****       for(i=0; i<=dx; ++i)
 506              		.loc 1 357 0
 507 00b8 0023     		movs	r3, #0
 508 00ba 0293     		str	r3, [sp, #8]
 509 00bc 36E0     		b	.L32
 510              	.LVL85:
 511              	.L38:
 358:GRAPHICS.c    ****       {
 359:GRAPHICS.c    ****          for(j=-half_width; j<half_width+width%2; ++j)
 512              		.loc 1 359 0
 513 00be 7C42     		negs	r4, r7
 514 00c0 64B2     		sxtb	r4, r4
 515              	.LVL86:
 516 00c2 14E0     		b	.L33
 517              	.L35:
 518              	.LBB5:
 360:GRAPHICS.c    ****          {
 361:GRAPHICS.c    ****             uint8 temp;
 362:GRAPHICS.c    **** 
 363:GRAPHICS.c    ****             temp = dx*x1+dy*(y1+j);    // Use more RAM to increase speed
 519              		.loc 1 363 0
 520 00c4 3319     		adds	r3, r6, r4
 521 00c6 0BFB03F3 		mul	r3, fp, r3
 522 00ca 0AFB0533 		mla	r3, r10, r5, r3
 523 00ce DBB2     		uxtb	r3, r3
 364:GRAPHICS.c    ****             if(temp+c1 >= 0 && temp+c2 <=0)
 524              		.loc 1 364 0
 525 00d0 19EB030F 		cmn	r9, r3
 526 00d4 09D4     		bmi	.L34
 527              		.loc 1 364 0 is_stmt 0 discriminator 1
 528 00d6 019A     		ldr	r2, [sp, #4]
 529 00d8 1344     		add	r3, r3, r2
 530 00da 002B     		cmp	r3, #0
 531 00dc 05DC     		bgt	.L34
 365:GRAPHICS.c    ****                glcd_pixel(x1, y1+j, color);
ARM GAS  C:\Users\USUARIO\AppData\Local\Temp\ccwbT6UD.s 			page 17


 532              		.loc 1 365 0 is_stmt 1
 533 00de 3119     		adds	r1, r6, r4
 534 00e0 049A     		ldr	r2, [sp, #16]
 535 00e2 C9B2     		uxtb	r1, r1
 536 00e4 2846     		mov	r0, r5
 537 00e6 FFF7FEFF 		bl	glcd_pixel
 538              	.LVL87:
 539              	.L34:
 540              	.LBE5:
 359:GRAPHICS.c    ****          {
 541              		.loc 1 359 0 discriminator 2
 542 00ea 0134     		adds	r4, r4, #1
 543              	.LVL88:
 544 00ec 64B2     		sxtb	r4, r4
 545              	.LVL89:
 546              	.L33:
 359:GRAPHICS.c    ****          {
 547              		.loc 1 359 0 is_stmt 0 discriminator 1
 548 00ee 08F00103 		and	r3, r8, #1
 549 00f2 3B44     		add	r3, r3, r7
 550 00f4 9C42     		cmp	r4, r3
 551 00f6 E5DB     		blt	.L35
 366:GRAPHICS.c    ****          }
 367:GRAPHICS.c    ****          if(P < 0)
 552              		.loc 1 367 0 is_stmt 1
 553 00f8 039B     		ldr	r3, [sp, #12]
 554 00fa 002B     		cmp	r3, #0
 555 00fc 07DA     		bge	.L36
 368:GRAPHICS.c    ****          {
 369:GRAPHICS.c    ****             P  += 2*dy;
 556              		.loc 1 369 0
 557 00fe 099A     		ldr	r2, [sp, #36]
 558 0100 1344     		add	r3, r3, r2
 559 0102 1BB2     		sxth	r3, r3
 560 0104 0393     		str	r3, [sp, #12]
 561              	.LVL90:
 370:GRAPHICS.c    ****             x1 += addx;
 562              		.loc 1 370 0
 563 0106 059B     		ldr	r3, [sp, #20]
 564 0108 1D44     		add	r5, r5, r3
 565              	.LVL91:
 566 010a EDB2     		uxtb	r5, r5
 567              	.LVL92:
 568 010c 0AE0     		b	.L37
 569              	.L36:
 371:GRAPHICS.c    ****          }
 372:GRAPHICS.c    ****          else
 373:GRAPHICS.c    ****          {
 374:GRAPHICS.c    ****             P  += diff;
 570              		.loc 1 374 0
 571 010e 039B     		ldr	r3, [sp, #12]
 572 0110 089A     		ldr	r2, [sp, #32]
 573 0112 1344     		add	r3, r3, r2
 574 0114 1BB2     		sxth	r3, r3
 575 0116 0393     		str	r3, [sp, #12]
 576              	.LVL93:
 375:GRAPHICS.c    ****             x1 += addx;
ARM GAS  C:\Users\USUARIO\AppData\Local\Temp\ccwbT6UD.s 			page 18


 577              		.loc 1 375 0
 578 0118 059B     		ldr	r3, [sp, #20]
 579 011a 1D44     		add	r5, r5, r3
 580              	.LVL94:
 581 011c EDB2     		uxtb	r5, r5
 582              	.LVL95:
 376:GRAPHICS.c    ****             y1 += addy;
 583              		.loc 1 376 0
 584 011e 069B     		ldr	r3, [sp, #24]
 585 0120 1E44     		add	r6, r6, r3
 586              	.LVL96:
 587 0122 F6B2     		uxtb	r6, r6
 588              	.LVL97:
 589              	.L37:
 357:GRAPHICS.c    ****       {
 590              		.loc 1 357 0 discriminator 2
 591 0124 029B     		ldr	r3, [sp, #8]
 592 0126 0133     		adds	r3, r3, #1
 593 0128 DBB2     		uxtb	r3, r3
 594 012a 0293     		str	r3, [sp, #8]
 595              	.LVL98:
 596              	.L32:
 357:GRAPHICS.c    ****       {
 597              		.loc 1 357 0 is_stmt 0 discriminator 1
 598 012c 029B     		ldr	r3, [sp, #8]
 599 012e 079A     		ldr	r2, [sp, #28]
 600 0130 9342     		cmp	r3, r2
 601 0132 C4DD     		ble	.L38
 602 0134 47E0     		b	.L28
 603              	.LVL99:
 604              	.L31:
 377:GRAPHICS.c    ****          }
 378:GRAPHICS.c    ****       }
 379:GRAPHICS.c    ****    }
 380:GRAPHICS.c    ****    else
 381:GRAPHICS.c    ****    {
 382:GRAPHICS.c    ****       P = 2*dx - dy;
 605              		.loc 1 382 0 is_stmt 1
 606 0136 6400     		lsls	r4, r4, #1
 607 0138 A3B2     		uxth	r3, r4
 608 013a 0993     		str	r3, [sp, #36]
 609 013c 1B1A     		subs	r3, r3, r0
 610 013e 9BB2     		uxth	r3, r3
 611 0140 1AB2     		sxth	r2, r3
 612 0142 0392     		str	r2, [sp, #12]
 613              	.LVL100:
 383:GRAPHICS.c    ****       diff = P - dy;
 614              		.loc 1 383 0
 615 0144 1B1A     		subs	r3, r3, r0
 616 0146 9BB2     		uxth	r3, r3
 617 0148 0793     		str	r3, [sp, #28]
 618              	.LVL101:
 384:GRAPHICS.c    **** 
 385:GRAPHICS.c    ****       for(i=0; i<=dy; ++i)
 619              		.loc 1 385 0
 620 014a 0023     		movs	r3, #0
 621 014c 0293     		str	r3, [sp, #8]
ARM GAS  C:\Users\USUARIO\AppData\Local\Temp\ccwbT6UD.s 			page 19


 622 014e 36E0     		b	.L40
 623              	.LVL102:
 624              	.L46:
 386:GRAPHICS.c    ****       {
 387:GRAPHICS.c    ****          if(P < 0)
 625              		.loc 1 387 0
 626 0150 039B     		ldr	r3, [sp, #12]
 627 0152 002B     		cmp	r3, #0
 628 0154 07DA     		bge	.L41
 388:GRAPHICS.c    ****          {
 389:GRAPHICS.c    ****             P  += 2*dx;
 629              		.loc 1 389 0
 630 0156 099A     		ldr	r2, [sp, #36]
 631 0158 1344     		add	r3, r3, r2
 632 015a 1BB2     		sxth	r3, r3
 633 015c 0393     		str	r3, [sp, #12]
 634              	.LVL103:
 390:GRAPHICS.c    ****             y1 += addy;
 635              		.loc 1 390 0
 636 015e 069B     		ldr	r3, [sp, #24]
 637 0160 1E44     		add	r6, r6, r3
 638              	.LVL104:
 639 0162 F6B2     		uxtb	r6, r6
 640              	.LVL105:
 641 0164 0AE0     		b	.L42
 642              	.L41:
 391:GRAPHICS.c    ****          }
 392:GRAPHICS.c    ****          else
 393:GRAPHICS.c    ****          {
 394:GRAPHICS.c    ****             P  += diff;
 643              		.loc 1 394 0
 644 0166 039B     		ldr	r3, [sp, #12]
 645 0168 079A     		ldr	r2, [sp, #28]
 646 016a 1344     		add	r3, r3, r2
 647 016c 1BB2     		sxth	r3, r3
 648 016e 0393     		str	r3, [sp, #12]
 649              	.LVL106:
 395:GRAPHICS.c    ****             x1 += addx;
 650              		.loc 1 395 0
 651 0170 059B     		ldr	r3, [sp, #20]
 652 0172 1D44     		add	r5, r5, r3
 653              	.LVL107:
 654 0174 EDB2     		uxtb	r5, r5
 655              	.LVL108:
 396:GRAPHICS.c    ****             y1 += addy;
 656              		.loc 1 396 0
 657 0176 069B     		ldr	r3, [sp, #24]
 658 0178 1E44     		add	r6, r6, r3
 659              	.LVL109:
 660 017a F6B2     		uxtb	r6, r6
 661              	.LVL110:
 662              	.L42:
 397:GRAPHICS.c    ****          }
 398:GRAPHICS.c    ****          for(j=-half_width; j<half_width+width%2; ++j)
 663              		.loc 1 398 0
 664 017c 7C42     		negs	r4, r7
 665 017e 64B2     		sxtb	r4, r4
ARM GAS  C:\Users\USUARIO\AppData\Local\Temp\ccwbT6UD.s 			page 20


 666              	.LVL111:
 667 0180 14E0     		b	.L43
 668              	.L45:
 669              	.LBB6:
 399:GRAPHICS.c    ****          {
 400:GRAPHICS.c    ****             uint8 temp;
 401:GRAPHICS.c    **** 
 402:GRAPHICS.c    ****             temp = dx*x1+dy*(y1+j);    // Use more RAM to increase speed
 670              		.loc 1 402 0
 671 0182 3319     		adds	r3, r6, r4
 672 0184 0BFB03F3 		mul	r3, fp, r3
 673 0188 0AFB0533 		mla	r3, r10, r5, r3
 674 018c DBB2     		uxtb	r3, r3
 403:GRAPHICS.c    ****             if(temp+c1 >= 0 && temp+c2 <=0)
 675              		.loc 1 403 0
 676 018e 19EB030F 		cmn	r9, r3
 677 0192 09D4     		bmi	.L44
 678              		.loc 1 403 0 is_stmt 0 discriminator 1
 679 0194 019A     		ldr	r2, [sp, #4]
 680 0196 1344     		add	r3, r3, r2
 681 0198 002B     		cmp	r3, #0
 682 019a 05DC     		bgt	.L44
 404:GRAPHICS.c    ****                glcd_pixel(x1+j, y1, color);
 683              		.loc 1 404 0 is_stmt 1
 684 019c 2819     		adds	r0, r5, r4
 685 019e 049A     		ldr	r2, [sp, #16]
 686 01a0 3146     		mov	r1, r6
 687 01a2 C0B2     		uxtb	r0, r0
 688 01a4 FFF7FEFF 		bl	glcd_pixel
 689              	.LVL112:
 690              	.L44:
 691              	.LBE6:
 398:GRAPHICS.c    ****          {
 692              		.loc 1 398 0 discriminator 2
 693 01a8 0134     		adds	r4, r4, #1
 694              	.LVL113:
 695 01aa 64B2     		sxtb	r4, r4
 696              	.LVL114:
 697              	.L43:
 398:GRAPHICS.c    ****          {
 698              		.loc 1 398 0 is_stmt 0 discriminator 1
 699 01ac 08F00103 		and	r3, r8, #1
 700 01b0 3B44     		add	r3, r3, r7
 701 01b2 9C42     		cmp	r4, r3
 702 01b4 E5DB     		blt	.L45
 385:GRAPHICS.c    ****       {
 703              		.loc 1 385 0 is_stmt 1 discriminator 2
 704 01b6 029B     		ldr	r3, [sp, #8]
 705 01b8 0133     		adds	r3, r3, #1
 706 01ba DBB2     		uxtb	r3, r3
 707 01bc 0293     		str	r3, [sp, #8]
 708              	.LVL115:
 709              	.L40:
 385:GRAPHICS.c    ****       {
 710              		.loc 1 385 0 is_stmt 0 discriminator 1
 711 01be 029B     		ldr	r3, [sp, #8]
 712 01c0 089A     		ldr	r2, [sp, #32]
ARM GAS  C:\Users\USUARIO\AppData\Local\Temp\ccwbT6UD.s 			page 21


 713 01c2 9342     		cmp	r3, r2
 714 01c4 C4DD     		ble	.L46
 715              	.LVL116:
 716              	.L28:
 405:GRAPHICS.c    ****          }
 406:GRAPHICS.c    ****       }
 407:GRAPHICS.c    ****    }
 408:GRAPHICS.c    **** }
 717              		.loc 1 408 0 is_stmt 1
 718 01c6 0BB0     		add	sp, sp, #44
 719              		.cfi_def_cfa_offset 36
 720              		@ sp needed
 721 01c8 BDE8F08F 		pop	{r4, r5, r6, r7, r8, r9, r10, fp, pc}
 722              		.cfi_endproc
 723              	.LFE65:
 724              		.size	glcd_bar, .-glcd_bar
 725              		.section	.text.glcd_circle,"ax",%progbits
 726              		.align	2
 727              		.global	glcd_circle
 728              		.thumb
 729              		.thumb_func
 730              		.type	glcd_circle, %function
 731              	glcd_circle:
 732              	.LFB66:
 409:GRAPHICS.c    **** 
 410:GRAPHICS.c    **** 
 411:GRAPHICS.c    **** /////////////////////////////////////////////////////////////////////////
 412:GRAPHICS.c    **** // Purpose:       Draw a circle on a graphic LCD
 413:GRAPHICS.c    **** // Inputs:        (x,y) - the center of the circle
 414:GRAPHICS.c    **** //                radius - the radius of the circle
 415:GRAPHICS.c    **** //                fill - YES or NO
 416:GRAPHICS.c    **** //                color - ON or OFF
 417:GRAPHICS.c    **** /////////////////////////////////////////////////////////////////////////
 418:GRAPHICS.c    **** void glcd_circle(uint8 x, uint8 y, uint8 radius, short fill, short color)
 419:GRAPHICS.c    **** {
 733              		.loc 1 419 0
 734              		.cfi_startproc
 735              		@ args = 4, pretend = 0, frame = 24
 736              		@ frame_needed = 0, uses_anonymous_args = 0
 737              	.LVL117:
 738 0000 2DE9F04F 		push	{r4, r5, r6, r7, r8, r9, r10, fp, lr}
 739              		.cfi_def_cfa_offset 36
 740              		.cfi_offset 4, -36
 741              		.cfi_offset 5, -32
 742              		.cfi_offset 6, -28
 743              		.cfi_offset 7, -24
 744              		.cfi_offset 8, -20
 745              		.cfi_offset 9, -16
 746              		.cfi_offset 10, -12
 747              		.cfi_offset 11, -8
 748              		.cfi_offset 14, -4
 749 0004 89B0     		sub	sp, sp, #36
 750              		.cfi_def_cfa_offset 72
 751 0006 8046     		mov	r8, r0
 752 0008 8B46     		mov	fp, r1
 753 000a 0393     		str	r3, [sp, #12]
 754 000c BDF94830 		ldrsh	r3, [sp, #72]
ARM GAS  C:\Users\USUARIO\AppData\Local\Temp\ccwbT6UD.s 			page 22


 755              	.LVL118:
 756 0010 0293     		str	r3, [sp, #8]
 757              	.LVL119:
 420:GRAPHICS.c    ****    int8  a, b, P;
 421:GRAPHICS.c    **** 
 422:GRAPHICS.c    ****    a = 0;
 423:GRAPHICS.c    ****    b = radius;
 758              		.loc 1 423 0
 759 0012 4FFA82FA 		sxtb	r10, r2
 760              	.LVL120:
 424:GRAPHICS.c    ****    P = 1 - radius;
 761              		.loc 1 424 0
 762 0016 C2F10102 		rsb	r2, r2, #1
 763              	.LVL121:
 764 001a 4FFA82F9 		sxtb	r9, r2
 765              	.LVL122:
 422:GRAPHICS.c    ****    b = radius;
 766              		.loc 1 422 0
 767 001e 0024     		movs	r4, #0
 768              	.LVL123:
 769              	.L55:
 425:GRAPHICS.c    **** 
 426:GRAPHICS.c    ****    do
 427:GRAPHICS.c    ****    {
 428:GRAPHICS.c    ****       if(fill)
 770              		.loc 1 428 0
 771 0020 039B     		ldr	r3, [sp, #12]
 772 0022 002B     		cmp	r3, #0
 773 0024 37D0     		beq	.L51
 429:GRAPHICS.c    ****       {
 430:GRAPHICS.c    ****          glcd_line(x-a, y+b, x+a, y+b, color);
 774              		.loc 1 430 0
 775 0026 E6B2     		uxtb	r6, r4
 776 0028 C6EB0807 		rsb	r7, r6, r8
 777 002c FFB2     		uxtb	r7, r7
 778 002e 5FFA8AF5 		uxtb	r5, r10
 779 0032 06EB0803 		add	r3, r6, r8
 780 0036 DBB2     		uxtb	r3, r3
 781 0038 1A46     		mov	r2, r3
 782 003a 05EB0B01 		add	r1, r5, fp
 783 003e C9B2     		uxtb	r1, r1
 784 0040 029B     		ldr	r3, [sp, #8]
 785 0042 0093     		str	r3, [sp]
 786 0044 0B46     		mov	r3, r1
 787 0046 0492     		str	r2, [sp, #16]
 788 0048 3846     		mov	r0, r7
 789 004a FFF7FEFF 		bl	glcd_line
 790              	.LVL124:
 431:GRAPHICS.c    ****          glcd_line(x-a, y-b, x+a, y-b, color);
 791              		.loc 1 431 0
 792 004e C5EB0B01 		rsb	r1, r5, fp
 793 0052 C9B2     		uxtb	r1, r1
 794 0054 029B     		ldr	r3, [sp, #8]
 795 0056 0093     		str	r3, [sp]
 796 0058 0B46     		mov	r3, r1
 797 005a 049A     		ldr	r2, [sp, #16]
 798 005c 3846     		mov	r0, r7
ARM GAS  C:\Users\USUARIO\AppData\Local\Temp\ccwbT6UD.s 			page 23


 799 005e FFF7FEFF 		bl	glcd_line
 800              	.LVL125:
 432:GRAPHICS.c    ****          glcd_line(x-b, y+a, x+b, y+a, color);
 801              		.loc 1 432 0
 802 0062 C5EB0807 		rsb	r7, r5, r8
 803 0066 FFB2     		uxtb	r7, r7
 804 0068 4544     		add	r5, r5, r8
 805 006a EDB2     		uxtb	r5, r5
 806 006c 06EB0B01 		add	r1, r6, fp
 807 0070 C9B2     		uxtb	r1, r1
 808 0072 029B     		ldr	r3, [sp, #8]
 809 0074 0093     		str	r3, [sp]
 810 0076 0B46     		mov	r3, r1
 811 0078 2A46     		mov	r2, r5
 812 007a 3846     		mov	r0, r7
 813 007c FFF7FEFF 		bl	glcd_line
 814              	.LVL126:
 433:GRAPHICS.c    ****          glcd_line(x-b, y-a, x+b, y-a, color);
 815              		.loc 1 433 0
 816 0080 C6EB0B01 		rsb	r1, r6, fp
 817 0084 C9B2     		uxtb	r1, r1
 818 0086 029B     		ldr	r3, [sp, #8]
 819 0088 0093     		str	r3, [sp]
 820 008a 0B46     		mov	r3, r1
 821 008c 2A46     		mov	r2, r5
 822 008e 3846     		mov	r0, r7
 823 0090 FFF7FEFF 		bl	glcd_line
 824              	.LVL127:
 825 0094 47E0     		b	.L52
 826              	.L51:
 434:GRAPHICS.c    ****       }
 435:GRAPHICS.c    ****       else
 436:GRAPHICS.c    ****       {
 437:GRAPHICS.c    ****          glcd_pixel(a+x, b+y, color);
 827              		.loc 1 437 0
 828 0096 E5B2     		uxtb	r5, r4
 829 0098 08EB0503 		add	r3, r8, r5
 830 009c DBB2     		uxtb	r3, r3
 831 009e 5FFA8AF6 		uxtb	r6, r10
 832 00a2 0BEB0607 		add	r7, fp, r6
 833 00a6 FFB2     		uxtb	r7, r7
 834 00a8 029A     		ldr	r2, [sp, #8]
 835 00aa 3946     		mov	r1, r7
 836 00ac 0493     		str	r3, [sp, #16]
 837 00ae 1846     		mov	r0, r3
 838 00b0 FFF7FEFF 		bl	glcd_pixel
 839              	.LVL128:
 438:GRAPHICS.c    ****          glcd_pixel(b+x, a+y, color);
 840              		.loc 1 438 0
 841 00b4 08EB0603 		add	r3, r8, r6
 842 00b8 DAB2     		uxtb	r2, r3
 843 00ba 1046     		mov	r0, r2
 844 00bc 0BEB0503 		add	r3, fp, r5
 845 00c0 DAB2     		uxtb	r2, r3
 846 00c2 1146     		mov	r1, r2
 847 00c4 029A     		ldr	r2, [sp, #8]
 848 00c6 0691     		str	r1, [sp, #24]
ARM GAS  C:\Users\USUARIO\AppData\Local\Temp\ccwbT6UD.s 			page 24


 849 00c8 0590     		str	r0, [sp, #20]
 850 00ca FFF7FEFF 		bl	glcd_pixel
 851              	.LVL129:
 439:GRAPHICS.c    ****          glcd_pixel(x-a, b+y, color);
 852              		.loc 1 439 0
 853 00ce C5EB0803 		rsb	r3, r5, r8
 854 00d2 DAB2     		uxtb	r2, r3
 855 00d4 1346     		mov	r3, r2
 856 00d6 029A     		ldr	r2, [sp, #8]
 857 00d8 3946     		mov	r1, r7
 858 00da 0793     		str	r3, [sp, #28]
 859 00dc 1846     		mov	r0, r3
 860 00de FFF7FEFF 		bl	glcd_pixel
 861              	.LVL130:
 440:GRAPHICS.c    ****          glcd_pixel(x-b, a+y, color);
 862              		.loc 1 440 0
 863 00e2 C6EB0807 		rsb	r7, r6, r8
 864 00e6 FFB2     		uxtb	r7, r7
 865 00e8 029A     		ldr	r2, [sp, #8]
 866 00ea 0699     		ldr	r1, [sp, #24]
 867 00ec 3846     		mov	r0, r7
 868 00ee FFF7FEFF 		bl	glcd_pixel
 869              	.LVL131:
 441:GRAPHICS.c    ****          glcd_pixel(b+x, y-a, color);
 870              		.loc 1 441 0
 871 00f2 C5EB0B05 		rsb	r5, r5, fp
 872 00f6 EDB2     		uxtb	r5, r5
 873 00f8 029A     		ldr	r2, [sp, #8]
 874 00fa 2946     		mov	r1, r5
 875 00fc 0598     		ldr	r0, [sp, #20]
 876 00fe FFF7FEFF 		bl	glcd_pixel
 877              	.LVL132:
 442:GRAPHICS.c    ****          glcd_pixel(a+x, y-b, color);
 878              		.loc 1 442 0
 879 0102 C6EB0B06 		rsb	r6, r6, fp
 880 0106 F6B2     		uxtb	r6, r6
 881 0108 029A     		ldr	r2, [sp, #8]
 882 010a 3146     		mov	r1, r6
 883 010c 0498     		ldr	r0, [sp, #16]
 884 010e FFF7FEFF 		bl	glcd_pixel
 885              	.LVL133:
 443:GRAPHICS.c    ****          glcd_pixel(x-a, y-b, color);
 886              		.loc 1 443 0
 887 0112 029A     		ldr	r2, [sp, #8]
 888 0114 3146     		mov	r1, r6
 889 0116 0798     		ldr	r0, [sp, #28]
 890 0118 FFF7FEFF 		bl	glcd_pixel
 891              	.LVL134:
 444:GRAPHICS.c    ****          glcd_pixel(x-b, y-a, color);
 892              		.loc 1 444 0
 893 011c 029A     		ldr	r2, [sp, #8]
 894 011e 2946     		mov	r1, r5
 895 0120 3846     		mov	r0, r7
 896 0122 FFF7FEFF 		bl	glcd_pixel
 897              	.LVL135:
 898              	.L52:
 445:GRAPHICS.c    ****       }
ARM GAS  C:\Users\USUARIO\AppData\Local\Temp\ccwbT6UD.s 			page 25


 446:GRAPHICS.c    **** 
 447:GRAPHICS.c    ****       if(P < 0)
 899              		.loc 1 447 0
 900 0126 B9F1000F 		cmp	r9, #0
 901 012a 07DA     		bge	.L53
 448:GRAPHICS.c    ****          P += 3 + 2 * a++;
 902              		.loc 1 448 0
 903 012c 631C     		adds	r3, r4, #1
 904              	.LVL136:
 905 012e 6400     		lsls	r4, r4, #1
 906 0130 0334     		adds	r4, r4, #3
 907 0132 4C44     		add	r4, r4, r9
 908 0134 4FFA84F9 		sxtb	r9, r4
 909              	.LVL137:
 910 0138 5CB2     		sxtb	r4, r3
 911 013a 0CE0     		b	.L54
 912              	.LVL138:
 913              	.L53:
 449:GRAPHICS.c    ****       else
 450:GRAPHICS.c    ****          P += 5 + 2 * (a++ - b--);
 914              		.loc 1 450 0
 915 013c 631C     		adds	r3, r4, #1
 916              	.LVL139:
 917 013e 0AF1FF32 		add	r2, r10, #-1
 918              	.LVL140:
 919 0142 CAEB0404 		rsb	r4, r10, r4
 920 0146 6400     		lsls	r4, r4, #1
 921 0148 0534     		adds	r4, r4, #5
 922 014a 4C44     		add	r4, r4, r9
 923 014c 4FFA84F9 		sxtb	r9, r4
 924              	.LVL141:
 925 0150 4FFA82FA 		sxtb	r10, r2
 926 0154 5CB2     		sxtb	r4, r3
 927              	.LVL142:
 928              	.L54:
 451:GRAPHICS.c    ****     } while(a <= b);
 929              		.loc 1 451 0
 930 0156 5445     		cmp	r4, r10
 931 0158 7FF762AF 		ble	.L55
 452:GRAPHICS.c    **** }
 932              		.loc 1 452 0
 933 015c 09B0     		add	sp, sp, #36
 934              		.cfi_def_cfa_offset 36
 935              		@ sp needed
 936 015e BDE8F08F 		pop	{r4, r5, r6, r7, r8, r9, r10, fp, pc}
 937              		.cfi_endproc
 938              	.LFE66:
 939              		.size	glcd_circle, .-glcd_circle
 940 0162 00BF     		.section	.text.glcd_text57,"ax",%progbits
 941              		.align	2
 942              		.global	glcd_text57
 943              		.thumb
 944              		.thumb_func
 945              		.type	glcd_text57, %function
 946              	glcd_text57:
 947              	.LFB67:
 453:GRAPHICS.c    **** 
ARM GAS  C:\Users\USUARIO\AppData\Local\Temp\ccwbT6UD.s 			page 26


 454:GRAPHICS.c    **** 
 455:GRAPHICS.c    **** /////////////////////////////////////////////////////////////////////////
 456:GRAPHICS.c    **** // Purpose:       Write text on a graphic LCD
 457:GRAPHICS.c    **** // Inputs:        (x,y) - The upper left coordinate of the first letter
 458:GRAPHICS.c    **** //                textptr - A pointer to an array of text to display
 459:GRAPHICS.c    **** //                size - The size of the text: 1 = 5x7, 2 = 10x14, ...
 460:GRAPHICS.c    **** //                color - ON or OFF
 461:GRAPHICS.c    **** /////////////////////////////////////////////////////////////////////////
 462:GRAPHICS.c    **** 
 463:GRAPHICS.c    **** void glcd_text57(uint8 x, uint8 y, char* textptr, uint8 size, short color)
 464:GRAPHICS.c    **** {
 948              		.loc 1 464 0
 949              		.cfi_startproc
 950              		@ args = 4, pretend = 0, frame = 16
 951              		@ frame_needed = 0, uses_anonymous_args = 0
 952              	.LVL143:
 953 0000 2DE9F04F 		push	{r4, r5, r6, r7, r8, r9, r10, fp, lr}
 954              		.cfi_def_cfa_offset 36
 955              		.cfi_offset 4, -36
 956              		.cfi_offset 5, -32
 957              		.cfi_offset 6, -28
 958              		.cfi_offset 7, -24
 959              		.cfi_offset 8, -20
 960              		.cfi_offset 9, -16
 961              		.cfi_offset 10, -12
 962              		.cfi_offset 11, -8
 963              		.cfi_offset 14, -4
 964 0004 85B0     		sub	sp, sp, #20
 965              		.cfi_def_cfa_offset 56
 966 0006 8146     		mov	r9, r0
 967 0008 8846     		mov	r8, r1
 968 000a 0192     		str	r2, [sp, #4]
 969 000c 9A46     		mov	r10, r3
 970 000e BDF938B0 		ldrsh	fp, [sp, #56]
 465:GRAPHICS.c    ****    int8 j, k, l, m;                       // Loop counters
 466:GRAPHICS.c    ****    int8 pixelData[5];                     // Stores character data
 467:GRAPHICS.c    **** 
 468:GRAPHICS.c    ****    for(; *textptr != '\0'; ++textptr, ++x)// Loop through the passed string
 971              		.loc 1 468 0
 972 0012 7FE0     		b	.L58
 973              	.LVL144:
 974              	.L73:
 469:GRAPHICS.c    ****    {
 470:GRAPHICS.c    ****       if(*textptr < 'S') // Checks if the letter is in the first font array
 975              		.loc 1 470 0
 976 0014 522B     		cmp	r3, #82
 977 0016 0BD8     		bhi	.L59
 471:GRAPHICS.c    ****          memcpy(pixelData, FONT[*textptr - ' '], 5);
 978              		.loc 1 471 0
 979 0018 A3F12002 		sub	r2, r3, #32
 980 001c 02EB8202 		add	r2, r2, r2, lsl #2
 981 0020 4049     		ldr	r1, .L80
 982 0022 0A44     		add	r2, r2, r1
 983 0024 1068     		ldr	r0, [r2]	@ unaligned
 984 0026 0290     		str	r0, [sp, #8]	@ unaligned
 985 0028 1279     		ldrb	r2, [r2, #4]	@ zero_extendqisi2
 986 002a 8DF80C20 		strb	r2, [sp, #12]
ARM GAS  C:\Users\USUARIO\AppData\Local\Temp\ccwbT6UD.s 			page 27


 987 002e 13E0     		b	.L60
 988              	.L59:
 472:GRAPHICS.c    ****       else if(*textptr <= '~') // Check if the letter is in the second font array
 989              		.loc 1 472 0
 990 0030 7E2B     		cmp	r3, #126
 991 0032 0BD8     		bhi	.L61
 473:GRAPHICS.c    ****          memcpy(pixelData, FONT2[*textptr - 'S'], 5);
 992              		.loc 1 473 0
 993 0034 A3F15302 		sub	r2, r3, #83
 994 0038 02EB8202 		add	r2, r2, r2, lsl #2
 995 003c 3A49     		ldr	r1, .L80+4
 996 003e 0A44     		add	r2, r2, r1
 997 0040 1068     		ldr	r0, [r2]	@ unaligned
 998 0042 0290     		str	r0, [sp, #8]	@ unaligned
 999 0044 1279     		ldrb	r2, [r2, #4]	@ zero_extendqisi2
 1000 0046 8DF80C20 		strb	r2, [sp, #12]
 1001 004a 05E0     		b	.L60
 1002              	.L61:
 474:GRAPHICS.c    ****       else
 475:GRAPHICS.c    ****          memcpy(pixelData, FONT[0], 5);   // Default to space
 1003              		.loc 1 475 0
 1004 004c 354A     		ldr	r2, .L80
 1005 004e 92E80300 		ldmia	r2, {r0, r1}
 1006 0052 0290     		str	r0, [sp, #8]
 1007 0054 8DF80C10 		strb	r1, [sp, #12]
 1008              	.L60:
 476:GRAPHICS.c    **** 
 477:GRAPHICS.c    ****       // Handles newline and carriage returns
 478:GRAPHICS.c    ****       switch(*textptr)
 1009              		.loc 1 478 0
 1010 0058 0A2B     		cmp	r3, #10
 1011 005a 02D0     		beq	.L63
 1012 005c 0D2B     		cmp	r3, #13
 1013 005e 50D0     		beq	.L74
 1014 0060 09E0     		b	.L78
 1015              	.L63:
 479:GRAPHICS.c    ****       {
 480:GRAPHICS.c    ****          case '\n':
 481:GRAPHICS.c    ****             y += 7*size + 1;
 1016              		.loc 1 481 0
 1017 0062 CAEBCA03 		rsb	r3, r10, r10, lsl #3
 1018 0066 9844     		add	r8, r8, r3
 1019              	.LVL145:
 1020 0068 5FFA88F8 		uxtb	r8, r8
 1021 006c 08F10108 		add	r8, r8, #1
 1022 0070 5FFA88F8 		uxtb	r8, r8
 1023              	.LVL146:
 482:GRAPHICS.c    ****             continue;
 1024              		.loc 1 482 0
 1025 0074 47E0     		b	.L64
 1026              	.L78:
 483:GRAPHICS.c    ****          case '\r':
 484:GRAPHICS.c    ****             x = 0;
 485:GRAPHICS.c    ****             continue;
 486:GRAPHICS.c    ****       }
 487:GRAPHICS.c    **** 
 488:GRAPHICS.c    ****       if(x+5*size >= GLCD_WIDTH)          // Performs character wrapping
ARM GAS  C:\Users\USUARIO\AppData\Local\Temp\ccwbT6UD.s 			page 28


 1027              		.loc 1 488 0
 1028 0076 5646     		mov	r6, r10
 1029 0078 0AEB8A03 		add	r3, r10, r10, lsl #2
 1030 007c 4B44     		add	r3, r3, r9
 1031 007e 7F2B     		cmp	r3, #127
 1032 0080 0ADD     		ble	.L65
 1033              	.LVL147:
 489:GRAPHICS.c    ****       {
 490:GRAPHICS.c    ****          x = 0;                           // Set x at far left position
 491:GRAPHICS.c    ****          y += 7*size + 1;                 // Set y at next position down
 1034              		.loc 1 491 0
 1035 0082 CAEBCA03 		rsb	r3, r10, r10, lsl #3
 1036 0086 9844     		add	r8, r8, r3
 1037              	.LVL148:
 1038 0088 5FFA88F8 		uxtb	r8, r8
 1039 008c 08F10108 		add	r8, r8, #1
 1040 0090 5FFA88F8 		uxtb	r8, r8
 1041              	.LVL149:
 490:GRAPHICS.c    ****          y += 7*size + 1;                 // Set y at next position down
 1042              		.loc 1 490 0
 1043 0094 4FF00009 		mov	r9, #0
 1044              	.LVL150:
 1045              	.L65:
 492:GRAPHICS.c    ****       }
 493:GRAPHICS.c    ****       for(j=0; j<5; ++j, x+=size)         // Loop through character byte data
 1046              		.loc 1 493 0
 1047 0098 0023     		movs	r3, #0
 1048 009a 0093     		str	r3, [sp]
 1049 009c 2DE0     		b	.L66
 1050              	.LVL151:
 1051              	.L71:
 1052              	.LBB7:
 494:GRAPHICS.c    ****       {
 495:GRAPHICS.c    ****          for(k=0; k < 7; ++k)             // Loop through the vertical pixels
 496:GRAPHICS.c    ****          {
 497:GRAPHICS.c    ****             if(bit_test(pixelData[j], k)) // Check if the pixel should be set
 1053              		.loc 1 497 0
 1054 009e 3946     		mov	r1, r7
 1055 00a0 04AB     		add	r3, sp, #16
 1056 00a2 009A     		ldr	r2, [sp]
 1057 00a4 1344     		add	r3, r3, r2
 1058 00a6 13F9080C 		ldrsb	r0, [r3, #-8]
 1059 00aa FFF7FEFF 		bl	bit_test
 1060              	.LVL152:
 1061 00ae A0B9     		cbnz	r0, .L75
 1062 00b0 16E0     		b	.L68
 1063              	.LVL153:
 1064              	.L69:
 498:GRAPHICS.c    ****             {
 499:GRAPHICS.c    ****                for(l=0; l < size; ++l)    // These two loops change the
 500:GRAPHICS.c    ****                {                          // character's size
 501:GRAPHICS.c    ****                   for(m=0; m < size; ++m)
 502:GRAPHICS.c    ****                   {
 503:GRAPHICS.c    ****                      glcd_pixel(x+m, y+k*size+l, color); // Draws the pixel
 1065              		.loc 1 503 0 discriminator 3
 1066 00b2 DCB2     		uxtb	r4, r3
 1067 00b4 07FB0A81 		mla	r1, r7, r10, r8
ARM GAS  C:\Users\USUARIO\AppData\Local\Temp\ccwbT6UD.s 			page 29


 1068 00b8 2944     		add	r1, r1, r5
 1069 00ba 09EB0400 		add	r0, r9, r4
 1070 00be 5A46     		mov	r2, fp
 1071 00c0 C9B2     		uxtb	r1, r1
 1072 00c2 C0B2     		uxtb	r0, r0
 1073 00c4 FFF7FEFF 		bl	glcd_pixel
 1074              	.LVL154:
 501:GRAPHICS.c    ****                   {
 1075              		.loc 1 501 0 discriminator 3
 1076 00c8 631C     		adds	r3, r4, #1
 1077 00ca 5BB2     		sxtb	r3, r3
 1078              	.LVL155:
 1079 00cc 00E0     		b	.L70
 1080              	.LVL156:
 1081              	.L76:
 1082 00ce 0023     		movs	r3, #0
 1083              	.L70:
 1084              	.LVL157:
 501:GRAPHICS.c    ****                   {
 1085              		.loc 1 501 0 is_stmt 0 discriminator 1
 1086 00d0 9E42     		cmp	r6, r3
 1087 00d2 EEDC     		bgt	.L69
 499:GRAPHICS.c    ****                {                          // character's size
 1088              		.loc 1 499 0 is_stmt 1 discriminator 2
 1089 00d4 0135     		adds	r5, r5, #1
 1090              	.LVL158:
 1091 00d6 6DB2     		sxtb	r5, r5
 1092              	.LVL159:
 1093 00d8 00E0     		b	.L67
 1094              	.LVL160:
 1095              	.L75:
 1096 00da 0025     		movs	r5, #0
 1097              	.L67:
 1098              	.LVL161:
 499:GRAPHICS.c    ****                {                          // character's size
 1099              		.loc 1 499 0 is_stmt 0 discriminator 1
 1100 00dc AE42     		cmp	r6, r5
 1101 00de F6DC     		bgt	.L76
 1102              	.LVL162:
 1103              	.L68:
 1104              	.LBE7:
 495:GRAPHICS.c    ****          {
 1105              		.loc 1 495 0 is_stmt 1 discriminator 2
 1106 00e0 0137     		adds	r7, r7, #1
 1107              	.LVL163:
 1108 00e2 7FB2     		sxtb	r7, r7
 1109              	.LVL164:
 1110 00e4 00E0     		b	.L72
 1111              	.LVL165:
 1112              	.L77:
 1113 00e6 0027     		movs	r7, #0
 1114              	.L72:
 1115              	.LVL166:
 495:GRAPHICS.c    ****          {
 1116              		.loc 1 495 0 is_stmt 0 discriminator 1
 1117 00e8 062F     		cmp	r7, #6
 1118 00ea D8DD     		ble	.L71
ARM GAS  C:\Users\USUARIO\AppData\Local\Temp\ccwbT6UD.s 			page 30


 493:GRAPHICS.c    ****       {
 1119              		.loc 1 493 0 is_stmt 1 discriminator 2
 1120 00ec 009B     		ldr	r3, [sp]
 1121 00ee 0133     		adds	r3, r3, #1
 1122 00f0 5BB2     		sxtb	r3, r3
 1123 00f2 0093     		str	r3, [sp]
 1124              	.LVL167:
 1125 00f4 D144     		add	r9, r9, r10
 1126              	.LVL168:
 1127 00f6 5FFA89F9 		uxtb	r9, r9
 1128              	.LVL169:
 1129              	.L66:
 493:GRAPHICS.c    ****       {
 1130              		.loc 1 493 0 is_stmt 0 discriminator 1
 1131 00fa 009B     		ldr	r3, [sp]
 1132 00fc 042B     		cmp	r3, #4
 1133 00fe F2DD     		ble	.L77
 1134 0100 01E0     		b	.L64
 1135              	.LVL170:
 1136              	.L74:
 484:GRAPHICS.c    ****             continue;
 1137              		.loc 1 484 0 is_stmt 1
 1138 0102 4FF00009 		mov	r9, #0
 1139              	.LVL171:
 1140              	.L64:
 468:GRAPHICS.c    ****    {
 1141              		.loc 1 468 0
 1142 0106 019B     		ldr	r3, [sp, #4]
 1143 0108 0133     		adds	r3, r3, #1
 1144 010a 0193     		str	r3, [sp, #4]
 1145              	.LVL172:
 1146 010c 09F10109 		add	r9, r9, #1
 1147              	.LVL173:
 1148 0110 5FFA89F9 		uxtb	r9, r9
 1149              	.LVL174:
 1150              	.L58:
 468:GRAPHICS.c    ****    {
 1151              		.loc 1 468 0 is_stmt 0 discriminator 1
 1152 0114 019B     		ldr	r3, [sp, #4]
 1153 0116 1B78     		ldrb	r3, [r3]	@ zero_extendqisi2
 1154 0118 002B     		cmp	r3, #0
 1155 011a 7FF47BAF 		bne	.L73
 504:GRAPHICS.c    ****                   }
 505:GRAPHICS.c    ****                }
 506:GRAPHICS.c    ****             }
 507:GRAPHICS.c    ****          }
 508:GRAPHICS.c    ****       }
 509:GRAPHICS.c    ****    }
 510:GRAPHICS.c    **** }
 1156              		.loc 1 510 0 is_stmt 1
 1157 011e 05B0     		add	sp, sp, #20
 1158              		.cfi_def_cfa_offset 36
 1159              		@ sp needed
 1160 0120 BDE8F08F 		pop	{r4, r5, r6, r7, r8, r9, r10, fp, pc}
 1161              	.LVL175:
 1162              	.L81:
 1163              		.align	2
ARM GAS  C:\Users\USUARIO\AppData\Local\Temp\ccwbT6UD.s 			page 31


 1164              	.L80:
 1165 0124 00000000 		.word	.LANCHOR0
 1166 0128 00010000 		.word	.LANCHOR0+256
 1167              		.cfi_endproc
 1168              	.LFE67:
 1169              		.size	glcd_text57, .-glcd_text57
 1170              		.global	FONT2
 1171              		.global	FONT
 1172              		.section	.rodata
 1173              		.align	2
 1174              		.set	.LANCHOR0,. + 0
 1175              		.type	FONT, %object
 1176              		.size	FONT, 255
 1177              	FONT:
 1178 0000 00       		.byte	0
 1179 0001 00       		.byte	0
 1180 0002 00       		.byte	0
 1181 0003 00       		.byte	0
 1182 0004 00       		.byte	0
 1183 0005 00       		.byte	0
 1184 0006 00       		.byte	0
 1185 0007 5F       		.byte	95
 1186 0008 00       		.byte	0
 1187 0009 00       		.byte	0
 1188 000a 00       		.byte	0
 1189 000b 03       		.byte	3
 1190 000c 00       		.byte	0
 1191 000d 03       		.byte	3
 1192 000e 00       		.byte	0
 1193 000f 14       		.byte	20
 1194 0010 3E       		.byte	62
 1195 0011 14       		.byte	20
 1196 0012 3E       		.byte	62
 1197 0013 14       		.byte	20
 1198 0014 24       		.byte	36
 1199 0015 2A       		.byte	42
 1200 0016 7F       		.byte	127
 1201 0017 2A       		.byte	42
 1202 0018 12       		.byte	18
 1203 0019 43       		.byte	67
 1204 001a 33       		.byte	51
 1205 001b 08       		.byte	8
 1206 001c 66       		.byte	102
 1207 001d 61       		.byte	97
 1208 001e 36       		.byte	54
 1209 001f 49       		.byte	73
 1210 0020 55       		.byte	85
 1211 0021 22       		.byte	34
 1212 0022 50       		.byte	80
 1213 0023 00       		.byte	0
 1214 0024 05       		.byte	5
 1215 0025 03       		.byte	3
 1216 0026 00       		.byte	0
 1217 0027 00       		.byte	0
 1218 0028 00       		.byte	0
 1219 0029 1C       		.byte	28
 1220 002a 22       		.byte	34
ARM GAS  C:\Users\USUARIO\AppData\Local\Temp\ccwbT6UD.s 			page 32


 1221 002b 41       		.byte	65
 1222 002c 00       		.byte	0
 1223 002d 00       		.byte	0
 1224 002e 41       		.byte	65
 1225 002f 22       		.byte	34
 1226 0030 1C       		.byte	28
 1227 0031 00       		.byte	0
 1228 0032 14       		.byte	20
 1229 0033 08       		.byte	8
 1230 0034 3E       		.byte	62
 1231 0035 08       		.byte	8
 1232 0036 14       		.byte	20
 1233 0037 08       		.byte	8
 1234 0038 08       		.byte	8
 1235 0039 3E       		.byte	62
 1236 003a 08       		.byte	8
 1237 003b 08       		.byte	8
 1238 003c 00       		.byte	0
 1239 003d 50       		.byte	80
 1240 003e 30       		.byte	48
 1241 003f 00       		.byte	0
 1242 0040 00       		.byte	0
 1243 0041 08       		.byte	8
 1244 0042 08       		.byte	8
 1245 0043 08       		.byte	8
 1246 0044 08       		.byte	8
 1247 0045 08       		.byte	8
 1248 0046 00       		.byte	0
 1249 0047 60       		.byte	96
 1250 0048 60       		.byte	96
 1251 0049 00       		.byte	0
 1252 004a 00       		.byte	0
 1253 004b 20       		.byte	32
 1254 004c 10       		.byte	16
 1255 004d 08       		.byte	8
 1256 004e 04       		.byte	4
 1257 004f 02       		.byte	2
 1258 0050 3E       		.byte	62
 1259 0051 51       		.byte	81
 1260 0052 49       		.byte	73
 1261 0053 45       		.byte	69
 1262 0054 3E       		.byte	62
 1263 0055 00       		.byte	0
 1264 0056 04       		.byte	4
 1265 0057 02       		.byte	2
 1266 0058 7F       		.byte	127
 1267 0059 00       		.byte	0
 1268 005a 42       		.byte	66
 1269 005b 61       		.byte	97
 1270 005c 51       		.byte	81
 1271 005d 49       		.byte	73
 1272 005e 46       		.byte	70
 1273 005f 22       		.byte	34
 1274 0060 41       		.byte	65
 1275 0061 49       		.byte	73
 1276 0062 49       		.byte	73
 1277 0063 36       		.byte	54
ARM GAS  C:\Users\USUARIO\AppData\Local\Temp\ccwbT6UD.s 			page 33


 1278 0064 18       		.byte	24
 1279 0065 14       		.byte	20
 1280 0066 12       		.byte	18
 1281 0067 7F       		.byte	127
 1282 0068 10       		.byte	16
 1283 0069 27       		.byte	39
 1284 006a 45       		.byte	69
 1285 006b 45       		.byte	69
 1286 006c 45       		.byte	69
 1287 006d 39       		.byte	57
 1288 006e 3E       		.byte	62
 1289 006f 49       		.byte	73
 1290 0070 49       		.byte	73
 1291 0071 49       		.byte	73
 1292 0072 32       		.byte	50
 1293 0073 01       		.byte	1
 1294 0074 01       		.byte	1
 1295 0075 71       		.byte	113
 1296 0076 09       		.byte	9
 1297 0077 07       		.byte	7
 1298 0078 36       		.byte	54
 1299 0079 49       		.byte	73
 1300 007a 49       		.byte	73
 1301 007b 49       		.byte	73
 1302 007c 36       		.byte	54
 1303 007d 26       		.byte	38
 1304 007e 49       		.byte	73
 1305 007f 49       		.byte	73
 1306 0080 49       		.byte	73
 1307 0081 3E       		.byte	62
 1308 0082 00       		.byte	0
 1309 0083 36       		.byte	54
 1310 0084 36       		.byte	54
 1311 0085 00       		.byte	0
 1312 0086 00       		.byte	0
 1313 0087 00       		.byte	0
 1314 0088 56       		.byte	86
 1315 0089 36       		.byte	54
 1316 008a 00       		.byte	0
 1317 008b 00       		.byte	0
 1318 008c 08       		.byte	8
 1319 008d 14       		.byte	20
 1320 008e 22       		.byte	34
 1321 008f 41       		.byte	65
 1322 0090 00       		.byte	0
 1323 0091 14       		.byte	20
 1324 0092 14       		.byte	20
 1325 0093 14       		.byte	20
 1326 0094 14       		.byte	20
 1327 0095 14       		.byte	20
 1328 0096 00       		.byte	0
 1329 0097 41       		.byte	65
 1330 0098 22       		.byte	34
 1331 0099 14       		.byte	20
 1332 009a 08       		.byte	8
 1333 009b 02       		.byte	2
 1334 009c 01       		.byte	1
ARM GAS  C:\Users\USUARIO\AppData\Local\Temp\ccwbT6UD.s 			page 34


 1335 009d 51       		.byte	81
 1336 009e 09       		.byte	9
 1337 009f 06       		.byte	6
 1338 00a0 3E       		.byte	62
 1339 00a1 41       		.byte	65
 1340 00a2 59       		.byte	89
 1341 00a3 55       		.byte	85
 1342 00a4 5E       		.byte	94
 1343 00a5 7E       		.byte	126
 1344 00a6 09       		.byte	9
 1345 00a7 09       		.byte	9
 1346 00a8 09       		.byte	9
 1347 00a9 7E       		.byte	126
 1348 00aa 7F       		.byte	127
 1349 00ab 49       		.byte	73
 1350 00ac 49       		.byte	73
 1351 00ad 49       		.byte	73
 1352 00ae 36       		.byte	54
 1353 00af 3E       		.byte	62
 1354 00b0 41       		.byte	65
 1355 00b1 41       		.byte	65
 1356 00b2 41       		.byte	65
 1357 00b3 22       		.byte	34
 1358 00b4 7F       		.byte	127
 1359 00b5 41       		.byte	65
 1360 00b6 41       		.byte	65
 1361 00b7 41       		.byte	65
 1362 00b8 3E       		.byte	62
 1363 00b9 7F       		.byte	127
 1364 00ba 49       		.byte	73
 1365 00bb 49       		.byte	73
 1366 00bc 49       		.byte	73
 1367 00bd 41       		.byte	65
 1368 00be 7F       		.byte	127
 1369 00bf 09       		.byte	9
 1370 00c0 09       		.byte	9
 1371 00c1 09       		.byte	9
 1372 00c2 01       		.byte	1
 1373 00c3 3E       		.byte	62
 1374 00c4 41       		.byte	65
 1375 00c5 41       		.byte	65
 1376 00c6 49       		.byte	73
 1377 00c7 3A       		.byte	58
 1378 00c8 7F       		.byte	127
 1379 00c9 08       		.byte	8
 1380 00ca 08       		.byte	8
 1381 00cb 08       		.byte	8
 1382 00cc 7F       		.byte	127
 1383 00cd 00       		.byte	0
 1384 00ce 41       		.byte	65
 1385 00cf 7F       		.byte	127
 1386 00d0 41       		.byte	65
 1387 00d1 00       		.byte	0
 1388 00d2 30       		.byte	48
 1389 00d3 40       		.byte	64
 1390 00d4 40       		.byte	64
 1391 00d5 40       		.byte	64
ARM GAS  C:\Users\USUARIO\AppData\Local\Temp\ccwbT6UD.s 			page 35


 1392 00d6 3F       		.byte	63
 1393 00d7 7F       		.byte	127
 1394 00d8 08       		.byte	8
 1395 00d9 14       		.byte	20
 1396 00da 22       		.byte	34
 1397 00db 41       		.byte	65
 1398 00dc 7F       		.byte	127
 1399 00dd 40       		.byte	64
 1400 00de 40       		.byte	64
 1401 00df 40       		.byte	64
 1402 00e0 40       		.byte	64
 1403 00e1 7F       		.byte	127
 1404 00e2 02       		.byte	2
 1405 00e3 0C       		.byte	12
 1406 00e4 02       		.byte	2
 1407 00e5 7F       		.byte	127
 1408 00e6 7F       		.byte	127
 1409 00e7 02       		.byte	2
 1410 00e8 04       		.byte	4
 1411 00e9 08       		.byte	8
 1412 00ea 7F       		.byte	127
 1413 00eb 3E       		.byte	62
 1414 00ec 41       		.byte	65
 1415 00ed 41       		.byte	65
 1416 00ee 41       		.byte	65
 1417 00ef 3E       		.byte	62
 1418 00f0 7F       		.byte	127
 1419 00f1 09       		.byte	9
 1420 00f2 09       		.byte	9
 1421 00f3 09       		.byte	9
 1422 00f4 06       		.byte	6
 1423 00f5 1E       		.byte	30
 1424 00f6 21       		.byte	33
 1425 00f7 21       		.byte	33
 1426 00f8 21       		.byte	33
 1427 00f9 5E       		.byte	94
 1428 00fa 7F       		.byte	127
 1429 00fb 09       		.byte	9
 1430 00fc 09       		.byte	9
 1431 00fd 09       		.byte	9
 1432 00fe 76       		.byte	118
 1433 00ff 00       		.space	1
 1434              		.type	FONT2, %object
 1435              		.size	FONT2, 220
 1436              	FONT2:
 1437 0100 26       		.byte	38
 1438 0101 49       		.byte	73
 1439 0102 49       		.byte	73
 1440 0103 49       		.byte	73
 1441 0104 32       		.byte	50
 1442 0105 01       		.byte	1
 1443 0106 01       		.byte	1
 1444 0107 7F       		.byte	127
 1445 0108 01       		.byte	1
 1446 0109 01       		.byte	1
 1447 010a 3F       		.byte	63
 1448 010b 40       		.byte	64
ARM GAS  C:\Users\USUARIO\AppData\Local\Temp\ccwbT6UD.s 			page 36


 1449 010c 40       		.byte	64
 1450 010d 40       		.byte	64
 1451 010e 3F       		.byte	63
 1452 010f 1F       		.byte	31
 1453 0110 20       		.byte	32
 1454 0111 40       		.byte	64
 1455 0112 20       		.byte	32
 1456 0113 1F       		.byte	31
 1457 0114 7F       		.byte	127
 1458 0115 20       		.byte	32
 1459 0116 10       		.byte	16
 1460 0117 20       		.byte	32
 1461 0118 7F       		.byte	127
 1462 0119 41       		.byte	65
 1463 011a 22       		.byte	34
 1464 011b 1C       		.byte	28
 1465 011c 22       		.byte	34
 1466 011d 41       		.byte	65
 1467 011e 07       		.byte	7
 1468 011f 08       		.byte	8
 1469 0120 70       		.byte	112
 1470 0121 08       		.byte	8
 1471 0122 07       		.byte	7
 1472 0123 61       		.byte	97
 1473 0124 51       		.byte	81
 1474 0125 49       		.byte	73
 1475 0126 45       		.byte	69
 1476 0127 43       		.byte	67
 1477 0128 00       		.byte	0
 1478 0129 7F       		.byte	127
 1479 012a 41       		.byte	65
 1480 012b 00       		.byte	0
 1481 012c 00       		.byte	0
 1482 012d 02       		.byte	2
 1483 012e 04       		.byte	4
 1484 012f 08       		.byte	8
 1485 0130 10       		.byte	16
 1486 0131 20       		.byte	32
 1487 0132 04       		.byte	4
 1488 0133 02       		.byte	2
 1489 0134 01       		.byte	1
 1490 0135 02       		.byte	2
 1491 0136 04       		.byte	4
 1492 0137 40       		.byte	64
 1493 0138 40       		.byte	64
 1494 0139 40       		.byte	64
 1495 013a 40       		.byte	64
 1496 013b 40       		.byte	64
 1497 013c 00       		.byte	0
 1498 013d 01       		.byte	1
 1499 013e 02       		.byte	2
 1500 013f 04       		.byte	4
 1501 0140 00       		.byte	0
 1502 0141 20       		.byte	32
 1503 0142 54       		.byte	84
 1504 0143 54       		.byte	84
 1505 0144 54       		.byte	84
ARM GAS  C:\Users\USUARIO\AppData\Local\Temp\ccwbT6UD.s 			page 37


 1506 0145 78       		.byte	120
 1507 0146 7F       		.byte	127
 1508 0147 44       		.byte	68
 1509 0148 44       		.byte	68
 1510 0149 44       		.byte	68
 1511 014a 38       		.byte	56
 1512 014b 38       		.byte	56
 1513 014c 44       		.byte	68
 1514 014d 44       		.byte	68
 1515 014e 44       		.byte	68
 1516 014f 44       		.byte	68
 1517 0150 38       		.byte	56
 1518 0151 44       		.byte	68
 1519 0152 44       		.byte	68
 1520 0153 44       		.byte	68
 1521 0154 7F       		.byte	127
 1522 0155 38       		.byte	56
 1523 0156 54       		.byte	84
 1524 0157 54       		.byte	84
 1525 0158 54       		.byte	84
 1526 0159 18       		.byte	24
 1527 015a 04       		.byte	4
 1528 015b 04       		.byte	4
 1529 015c 7E       		.byte	126
 1530 015d 05       		.byte	5
 1531 015e 05       		.byte	5
 1532 015f 08       		.byte	8
 1533 0160 54       		.byte	84
 1534 0161 54       		.byte	84
 1535 0162 54       		.byte	84
 1536 0163 3C       		.byte	60
 1537 0164 7F       		.byte	127
 1538 0165 08       		.byte	8
 1539 0166 04       		.byte	4
 1540 0167 04       		.byte	4
 1541 0168 78       		.byte	120
 1542 0169 00       		.byte	0
 1543 016a 44       		.byte	68
 1544 016b 7D       		.byte	125
 1545 016c 40       		.byte	64
 1546 016d 00       		.byte	0
 1547 016e 20       		.byte	32
 1548 016f 40       		.byte	64
 1549 0170 44       		.byte	68
 1550 0171 3D       		.byte	61
 1551 0172 00       		.byte	0
 1552 0173 7F       		.byte	127
 1553 0174 10       		.byte	16
 1554 0175 28       		.byte	40
 1555 0176 44       		.byte	68
 1556 0177 00       		.byte	0
 1557 0178 00       		.byte	0
 1558 0179 41       		.byte	65
 1559 017a 7F       		.byte	127
 1560 017b 40       		.byte	64
 1561 017c 00       		.byte	0
 1562 017d 7C       		.byte	124
ARM GAS  C:\Users\USUARIO\AppData\Local\Temp\ccwbT6UD.s 			page 38


 1563 017e 04       		.byte	4
 1564 017f 78       		.byte	120
 1565 0180 04       		.byte	4
 1566 0181 78       		.byte	120
 1567 0182 7C       		.byte	124
 1568 0183 08       		.byte	8
 1569 0184 04       		.byte	4
 1570 0185 04       		.byte	4
 1571 0186 78       		.byte	120
 1572 0187 38       		.byte	56
 1573 0188 44       		.byte	68
 1574 0189 44       		.byte	68
 1575 018a 44       		.byte	68
 1576 018b 38       		.byte	56
 1577 018c 7C       		.byte	124
 1578 018d 14       		.byte	20
 1579 018e 14       		.byte	20
 1580 018f 14       		.byte	20
 1581 0190 08       		.byte	8
 1582 0191 08       		.byte	8
 1583 0192 14       		.byte	20
 1584 0193 14       		.byte	20
 1585 0194 14       		.byte	20
 1586 0195 7C       		.byte	124
 1587 0196 00       		.byte	0
 1588 0197 7C       		.byte	124
 1589 0198 08       		.byte	8
 1590 0199 04       		.byte	4
 1591 019a 04       		.byte	4
 1592 019b 48       		.byte	72
 1593 019c 54       		.byte	84
 1594 019d 54       		.byte	84
 1595 019e 54       		.byte	84
 1596 019f 20       		.byte	32
 1597 01a0 04       		.byte	4
 1598 01a1 04       		.byte	4
 1599 01a2 3F       		.byte	63
 1600 01a3 44       		.byte	68
 1601 01a4 44       		.byte	68
 1602 01a5 3C       		.byte	60
 1603 01a6 40       		.byte	64
 1604 01a7 40       		.byte	64
 1605 01a8 20       		.byte	32
 1606 01a9 7C       		.byte	124
 1607 01aa 1C       		.byte	28
 1608 01ab 20       		.byte	32
 1609 01ac 40       		.byte	64
 1610 01ad 20       		.byte	32
 1611 01ae 1C       		.byte	28
 1612 01af 3C       		.byte	60
 1613 01b0 40       		.byte	64
 1614 01b1 30       		.byte	48
 1615 01b2 40       		.byte	64
 1616 01b3 3C       		.byte	60
 1617 01b4 44       		.byte	68
 1618 01b5 28       		.byte	40
 1619 01b6 10       		.byte	16
ARM GAS  C:\Users\USUARIO\AppData\Local\Temp\ccwbT6UD.s 			page 39


 1620 01b7 28       		.byte	40
 1621 01b8 44       		.byte	68
 1622 01b9 0C       		.byte	12
 1623 01ba 50       		.byte	80
 1624 01bb 50       		.byte	80
 1625 01bc 50       		.byte	80
 1626 01bd 3C       		.byte	60
 1627 01be 44       		.byte	68
 1628 01bf 64       		.byte	100
 1629 01c0 54       		.byte	84
 1630 01c1 4C       		.byte	76
 1631 01c2 44       		.byte	68
 1632 01c3 00       		.byte	0
 1633 01c4 08       		.byte	8
 1634 01c5 36       		.byte	54
 1635 01c6 41       		.byte	65
 1636 01c7 41       		.byte	65
 1637 01c8 00       		.byte	0
 1638 01c9 00       		.byte	0
 1639 01ca 7F       		.byte	127
 1640 01cb 00       		.byte	0
 1641 01cc 00       		.byte	0
 1642 01cd 41       		.byte	65
 1643 01ce 41       		.byte	65
 1644 01cf 36       		.byte	54
 1645 01d0 08       		.byte	8
 1646 01d1 00       		.byte	0
 1647 01d2 02       		.byte	2
 1648 01d3 01       		.byte	1
 1649 01d4 02       		.byte	2
 1650 01d5 04       		.byte	4
 1651 01d6 02       		.byte	2
 1652 01d7 00000000 		.space	5
 1652      00
 1653              		.text
 1654              	.Letext0:
 1655              		.file 2 "c:\\program files (x86)\\cypress\\psoc creator\\4.3\\psoc creator\\import\\gnu\\arm\\5.4.
 1656              		.file 3 "c:\\program files (x86)\\cypress\\psoc creator\\4.3\\psoc creator\\import\\gnu\\arm\\5.4.
 1657              		.file 4 "Generated_Source\\PSoC5/cytypes.h"
 1658              		.file 5 "<built-in>"
 1659              		.file 6 "Generated_Source\\PSoC5/core_cm3.h"
 1660              		.file 7 "./HDM64GS12.h"