ARM GAS  C:\Users\USUARIO\AppData\Local\Temp\ccdk1rSB.s 			page 1


   1              		.syntax unified
   2              		.cpu cortex-m3
   3              		.fpu softvfp
   4              		.eabi_attribute 20, 1
   5              		.eabi_attribute 21, 1
   6              		.eabi_attribute 23, 3
   7              		.eabi_attribute 24, 1
   8              		.eabi_attribute 25, 1
   9              		.eabi_attribute 26, 1
  10              		.eabi_attribute 30, 1
  11              		.eabi_attribute 34, 1
  12              		.eabi_attribute 18, 4
  13              		.thumb
  14              		.syntax unified
  15              		.file	"main.c"
  16              		.text
  17              	.Ltext0:
  18              		.cfi_sections	.debug_frame
  19              		.syntax unified
  20              		.global _printf_float
  21              		.thumb
  22              		.syntax unified
  23              		.section	.text.ADC_SAR_ISR_LOC,"ax",%progbits
  24              		.align	2
  25              		.global	ADC_SAR_ISR_LOC
  26              		.thumb
  27              		.thumb_func
  28              		.type	ADC_SAR_ISR_LOC, %function
  29              	ADC_SAR_ISR_LOC:
  30              	.LFB64:
  31              		.file 1 "main.c"
   1:main.c        **** 
   2:main.c        **** /* ========================================
   3:main.c        ****  *
   4:main.c        ****  * Copyright JP Bioingenieria SAS, 2020
   5:main.c        ****  * All Rights Reserved
   6:main.c        ****  * UNPUBLISHED, LICENSED SOFTWARE.
   7:main.c        ****  *
   8:main.c        ****  * Para calibrar la temperatura de la mufla de acuerdo a un patron de temperatura se debe realizar 
   9:main.c        ****  * Se mide con el patron la temperatura en dos puntos y se registran las diferencias con respecto a
  10:main.c        ****  * Se dibuja una grafica XY, donde en el eje Y este la temperatura del control y en el eje X la tem
  11:main.c        ****  * Se traza la recta con los valores obtenidos y se calcula la pendiente m y el punto de corte b, e
  12:main.c        ****  * a  la lectura de la termocupla de acuerdo a la siguiente ecuacion: T=(Tcontrol-b)/m;
  13:main.c        ****  *
  14:main.c        ****  * Este programa activa el extractor de una campana externa. El extractor estara activado durante t
  15:main.c        ****  * funcionamiento (Menu==20), una vez termine todas las rampas, comenzara a correr el tiempo config
  16:main.c        ****  * vez acabe el tiempo apagara automaticamente el extractor.
  17:main.c        ****  * ========================================
  18:main.c        **** */
  19:main.c        **** #include <device.h>
  20:main.c        **** #include <stdio.h>
  21:main.c        **** #include <main.h>
  22:main.c        **** #include <math.h>
  23:main.c        **** #include <stdlib.h>
  24:main.c        **** #include <string.h>
  25:main.c        **** #include <Funciones.h>
  26:main.c        **** #include "ks0108.h"
ARM GAS  C:\Users\USUARIO\AppData\Local\Temp\ccdk1rSB.s 			page 2


  27:main.c        **** 
  28:main.c        **** #if defined (__GNUC__)
  29:main.c        ****     /* Add an explicit reference to the floating point printf library */
  30:main.c        ****     /* to allow the usage of floating point conversion specifiers. */
  31:main.c        ****     /* This is not linked in by default with the newlib-nano library. */
  32:main.c        ****     asm (".global _printf_float");
  33:main.c        **** #endif
  34:main.c        **** 
  35:main.c        **** #define OFF 0
  36:main.c        **** #define ON  1
  37:main.c        **** 
  38:main.c        **** int8  Testerilizacion[4]={0,0,0,0};   // Tiempo transcurrido
  39:main.c        **** int8  Testerilizacionp[4]={0,0,0,0};   // Tiempo transcurrido
  40:main.c        **** int8  Contrasena[4]={0,0,0,0};      // Contrasena de 4 digitos
  41:main.c        **** 
  42:main.c        **** int16 offset;
  43:main.c        **** int16 coldJnTemp;
  44:main.c        **** int32 tcColdJnuVolt;
  45:main.c        **** int32 hotJnCount;
  46:main.c        **** int32 filHotJnCount;
  47:main.c        **** int32 tcHotJnuVolt;
  48:main.c        **** int32 tcuVolt;
  49:main.c        **** int32 tcTemp;
  50:main.c        **** char displayStr[100];	
  51:main.c        **** uint8 first = 0;
  52:main.c        **** extern uint8 const CYCODE LCD_customFonts[];  
  53:main.c        **** uint8_t i,pwm1,pwm2,n,PantallaPrincipal,Programa,Opcion2,Derivativo,Integral,MediaMovil,Tciclo,Ajus
  54:main.c        **** uint16 ctr,Setpoint;
  55:main.c        **** uint32_t output,tGrafica;
  56:main.c        **** short flagButton0,flagButton1,flagButton2,flagButton3,dibujo,pulsoAumentar,pulsoDisminuir,flagBorra
  57:main.c        **** short Flanco,Flanco1,Flanco2,Flanco3,flagFinalizo,visual,refresh,refresh2;
  58:main.c        **** float valor,pendiente,b,Ganancia,GananciaIn,b1,b2;
  59:main.c        **** 
  60:main.c        **** #define RX_BUFFER_SIZE  10
  61:main.c        **** char Rx_Buffer[RX_BUFFER_SIZE+1];
  62:main.c        **** char Rx_Buffer2[RX_BUFFER_SIZE+1];
  63:main.c        **** uint8 RX_Wr_Index=0;
  64:main.c        **** uint8 RX_Rd_Index=0;
  65:main.c        **** uint8 RX_Counter=0;
  66:main.c        **** 
  67:main.c        **** char Rx_Buffer3[RX_BUFFER_SIZE+1];
  68:main.c        **** char Rx_Buffer4[RX_BUFFER_SIZE+1];
  69:main.c        **** uint8 RX_Wr_Index2=0;
  70:main.c        **** uint8 RX_Rd_Index2=0;
  71:main.c        **** uint8 RX_Counter2=0;
  72:main.c        **** 
  73:main.c        **** int8  Tempoc[4];
  74:main.c        **** int8  Tempocp[4];
  75:main.c        **** char Dos_puntos[]=":";
  76:main.c        **** uint8 i2cbuf[4];
  77:main.c        **** float promedio[90];
  78:main.c        **** 
  79:main.c        **** uint8 Dato2,Dato3,Dato_Exitoso,Dato_Exitoso2,Menu,MenuAntt,MenuAnt,Menu2,MenuAntt2,z,TipoClave,Segm
  80:main.c        **** short Inicio,Inicio2,EstadoPaso,entro,GuardaEEPROM,rampa,Minutos,Horas,flagTemperatura,Test,x1,x10,
  81:main.c        **** uint8 Password[4];
  82:main.c        **** uint8 tiempo_esterilizacion,y,hEst,mEst,hEstp,mEstp,Segmento,conteo,unidad,Pausa,controlT;
  83:main.c        **** uint16 tiempos,tiempos3,tiempoctrl,Tc,Tp,tiemporeset,TiempoControl,tiemporecta,tiemposetpoint,tinic
ARM GAS  C:\Users\USUARIO\AppData\Local\Temp\ccdk1rSB.s 			page 3


  84:main.c        **** short mensaje,Lectura2,flag_setpoint,flag_tiempocalentamiento,Lectura,flagup,flagdn,flagRampa,flag_
  85:main.c        **** short Finalizo,conteoPregunta,grafica,imprime,flag_display,Dibuja,Desconectado,flag_clear3,flag_gan
  86:main.c        **** float X[2]={0.0,0.0};
  87:main.c        **** float Temperatura,Aumento,PendienteActual,DifPendiente,TempeInicial,Pendiente,TemperaturaIdeal,Pote
  88:main.c        **** float error,Potencia,Tpulsomin,TpulsoMax;
  89:main.c        **** uint16 TiempoActual,MinutosActual,HorasActual,Tiempo,TiempoRampa,tPregunta,b16,tup,tdown,tright,tle
  90:main.c        **** uint8 dataReady = 0u,Alarma,gananciaIn,segundosCampana,calib;
  91:main.c        **** uint16 result;
  92:main.c        **** float Prom,V0,Temperature,m,m1,m2;
  93:main.c        **** int16 control1,control2,control3,patron1,patron2,patron3;
  94:main.c        **** int16 Temperatura1[Pasos*5];
  95:main.c        **** int16 Horas1[Pasos*5];
  96:main.c        **** int16 Minutos1[Pasos*5];
  97:main.c        **** uint8 m_int,m_dec,b_dec;
  98:main.c        **** 
  99:main.c        **** CY_ISR(ADC_SAR_ISR_LOC)
 100:main.c        **** {
  32              		.loc 1 100 0
  33              		.cfi_startproc
  34              		@ args = 0, pretend = 0, frame = 0
  35              		@ frame_needed = 0, uses_anonymous_args = 0
  36              		@ link register save eliminated.
 101:main.c        ****         result = CY_GET_REG16(ADC_SAR_SAR_WRK_PTR);
  37              		.loc 1 101 0
  38 0000 034B     		ldr	r3, .L2
  39 0002 1A88     		ldrh	r2, [r3]
  40 0004 034B     		ldr	r3, .L2+4
  41 0006 1A80     		strh	r2, [r3]	@ movhi
 102:main.c        ****         dataReady = 1u;
  42              		.loc 1 102 0
  43 0008 0122     		movs	r2, #1
  44 000a 034B     		ldr	r3, .L2+8
  45 000c 1A70     		strb	r2, [r3]
  46 000e 7047     		bx	lr
  47              	.L3:
  48              		.align	2
  49              	.L2:
  50 0010 A05B0040 		.word	1073765280
  51 0014 00000000 		.word	result
  52 0018 00000000 		.word	.LANCHOR0
  53              		.cfi_endproc
  54              	.LFE64:
  55              		.size	ADC_SAR_ISR_LOC, .-ADC_SAR_ISR_LOC
  56              		.section	.text.Reloj2,"ax",%progbits
  57              		.align	2
  58              		.global	Reloj2
  59              		.thumb
  60              		.thumb_func
  61              		.type	Reloj2, %function
  62              	Reloj2:
  63              	.LFB70:
 103:main.c        **** }
 104:main.c        **** 
 105:main.c        **** void ActualizaRecta(){
 106:main.c        ****    X[y]=Temperatura;
 107:main.c        ****    y++;
 108:main.c        ****    if(y>=2){
ARM GAS  C:\Users\USUARIO\AppData\Local\Temp\ccdk1rSB.s 			page 4


 109:main.c        ****       y=0;
 110:main.c        ****       Aumento=X[1]-X[0];
 111:main.c        ****       HorasActual=(Testerilizacion[3]*10)+Testerilizacion[2];
 112:main.c        ****       MinutosActual=(Testerilizacion[1]*10)+Testerilizacion[0];
 113:main.c        ****       TiempoActual=Tiempo-((HorasActual*3600)+(MinutosActual*60)+tinicio);
 114:main.c        ****       PendienteActual=((Setpoint-Temperatura)/TiempoActual);
 115:main.c        ****       DifPendiente=(PendienteActual*20)-Aumento;
 116:main.c        ****       DifPendiente=DifPendiente*5;
 117:main.c        ****    }
 118:main.c        **** }
 119:main.c        **** 
 120:main.c        **** void Controla(){
 121:main.c        **** //-------------------------------Control de Calentamiento------------------------------------------
 122:main.c        ****    float tmp=0.0;
 123:main.c        ****       
 124:main.c        ****       if(Pendiente!=0){
 125:main.c        ****         if(tiemporecta>=10){
 126:main.c        ****             ActualizaRecta();
 127:main.c        ****             tiemporecta=0;
 128:main.c        ****         }
 129:main.c        ****       }else{
 130:main.c        ****         if(tiemporecta>=Derivativo/2){
 131:main.c        ****             ActualizaRecta();
 132:main.c        ****             tiemporecta=0;
 133:main.c        ****         }   
 134:main.c        ****       }
 135:main.c        ****     
 136:main.c        ****       if(Segmento==0){
 137:main.c        ****          if(flag_calcula==0){
 138:main.c        ****             Tiempo=(Horas1[ProgramaSeleccionado*Pasos]*3600)+(Minutos1[ProgramaSeleccionado*Pasos]*
 139:main.c        ****             Setpoint=Temperatura1[(ProgramaSeleccionado*Pasos)+Segmento];
 140:main.c        ****             Pendiente=(((float)Setpoint-TempeInicial)/(float)Tiempo);
 141:main.c        ****             Testerilizacionp[3]=(uint8)Horas1[(ProgramaSeleccionado*Pasos)+Segmento]/10;
 142:main.c        ****             Testerilizacionp[2]=Horas1[(ProgramaSeleccionado*Pasos)+Segmento]-(Testerilizacionp[3]*
 143:main.c        ****             Testerilizacionp[1]=Minutos1[(ProgramaSeleccionado*Pasos)+Segmento]/10;
 144:main.c        ****             Testerilizacionp[0]=Minutos1[(ProgramaSeleccionado*Pasos)+Segmento]-(Testerilizacionp[1
 145:main.c        ****             flag_calcula=1;
 146:main.c        ****             Ganancia=GananciaIn*(Setpoint/Coeficiente);
 147:main.c        ****          }
 148:main.c        ****       }else{
 149:main.c        ****          if(flag_calcula==0){
 150:main.c        ****             Tiempo=(Horas1[(ProgramaSeleccionado*Pasos)+Segmento]*3600)+(Minutos1[(ProgramaSeleccio
 151:main.c        ****             Pendiente=((float)(Temperatura1[(ProgramaSeleccionado*Pasos)+Segmento]-Temperatura1[(Pr
 152:main.c        ****             Setpoint=Temperatura1[(ProgramaSeleccionado*Pasos)+Segmento];
 153:main.c        ****             Testerilizacionp[3]=(uint8)Horas1[(ProgramaSeleccionado*Pasos)+Segmento]/10;
 154:main.c        ****             Testerilizacionp[2]=Horas1[(ProgramaSeleccionado*Pasos)+Segmento]-(Testerilizacionp[3]*
 155:main.c        ****             Testerilizacionp[1]=Minutos1[(ProgramaSeleccionado*Pasos)+Segmento]/10;
 156:main.c        ****             Testerilizacionp[0]=Minutos1[(ProgramaSeleccionado*Pasos)+Segmento]-(Testerilizacionp[1
 157:main.c        ****             flag_calcula=1;
 158:main.c        ****             Ganancia=GananciaIn*(Setpoint/Coeficiente);
 159:main.c        ****          }
 160:main.c        ****       }
 161:main.c        ****    
 162:main.c        ****   
 163:main.c        ****    if(Pendiente!=0){// Si Esta realizando una Rampa debe realizar el control de acuerdo a la pendie
 164:main.c        ****       //TiempoRampa=((HorasActual*3600)+(MinutosActual*60)+tinicio);
 165:main.c        ****     TiempoRampa=(((Testerilizacion[3]*10)+Testerilizacion[2])*3600)+(((Testerilizacion[1]*10)+Teste
ARM GAS  C:\Users\USUARIO\AppData\Local\Temp\ccdk1rSB.s 			page 5


 166:main.c        ****       if(Segmento==0){
 167:main.c        ****          TemperaturaIdeal=(Pendiente*TiempoRampa)+TempeInicial;
 168:main.c        ****       }else{
 169:main.c        ****          TemperaturaIdeal=(Pendiente*TiempoRampa)+Temperatura1[(ProgramaSeleccionado*Pasos)+Segment
 170:main.c        ****       }
 171:main.c        ****       PotenciaEntregada=((TemperaturaIdeal-Temperatura)*100)/penMufla;
 172:main.c        **** // Pendiente determinar si el comportamiento de la mufla es lineal 10°C/min o si tiene un comporta
 173:main.c        ****       
 174:main.c        ****       if(Temperatura<450 && Temperatura>=200)
 175:main.c        ****          penMufla=penInicial*0.9;
 176:main.c        ****          
 177:main.c        ****       if(Temperatura<600 && Temperatura>=450)
 178:main.c        ****          penMufla=penInicial*0.8;
 179:main.c        ****          
 180:main.c        ****       if(Temperatura<900 && Temperatura>=600)
 181:main.c        ****          penMufla=penInicial*0.7;  
 182:main.c        ****          
 183:main.c        ****       if(Temperatura<=1200 && Temperatura>=900)
 184:main.c        ****          penMufla=penInicial*0.6;   
 185:main.c        ****       
 186:main.c        ****       if(PotenciaEntregada>100.0){
 187:main.c        ****          PotenciaEntregada=100.0;
 188:main.c        ****       }
 189:main.c        ****       
 190:main.c        ****       if(PotenciaEntregada<0){
 191:main.c        ****          PotenciaEntregada=0;
 192:main.c        ****       }
 193:main.c        ****       
 194:main.c        ****       Tpulso=(PotenciaEntregada*Tciclo)/100;  
 195:main.c        ****    }else{
 196:main.c        ****                
 197:main.c        ****       error=desvio+Setpoint-Temperatura;      // Cálculo del error ******
 198:main.c        ****       
 199:main.c        ****       if(error>=(desvio+3) && Aumento<1){
 200:main.c        ****          flag_ajuste=0;
 201:main.c        ****          flag_ajuste2=0;
 202:main.c        ****          if(Potencia<90.0){
 203:main.c        ****             if(TiempoControl>=Derivativo){
 204:main.c        ****                TiempoControl=0;
 205:main.c        ****                if(Aumento<-2){
 206:main.c        ****                   Ganancia+=Integral+1;
 207:main.c        ****                }else{
 208:main.c        ****                   if(Aumento<-1){
 209:main.c        ****                      Ganancia+=Integral;
 210:main.c        ****                   }else{
 211:main.c        ****                      Ganancia+=Integral-0.5;
 212:main.c        ****                   }
 213:main.c        ****                }
 214:main.c        ****             }
 215:main.c        ****          }
 216:main.c        ****       }
 217:main.c        ****       
 218:main.c        ****       if(Ganancia<0.5){
 219:main.c        ****          Ganancia=0.5;
 220:main.c        ****       }
 221:main.c        ****       
 222:main.c        ****       
ARM GAS  C:\Users\USUARIO\AppData\Local\Temp\ccdk1rSB.s 			page 6


 223:main.c        ****       //if(error<0.0)     // Anti Wind_DOWN    
 224:main.c        ****          //error=0.0;
 225:main.c        ****    
 226:main.c        ****       tmp=error*Ganancia;  // Control Proporcional.
 227:main.c        ****             
 228:main.c        ****       if(tmp>Setpoint)   // Anti Wind-UP_Read()==0      
 229:main.c        ****          tmp=Setpoint;
 230:main.c        ****                   
 231:main.c        ****       if(tmp<0.0)     // Anti Wind_DOWN    
 232:main.c        ****          tmp=0.0;
 233:main.c        ****       
 234:main.c        ****       // Tpulso(t)= Tciclo*(y(t)-ymin)/(ymax - ymin); calculo de ciclo util para control de resiste
 235:main.c        ****       // Tpulso es float, hay que pasar ese ciclo a una salida de un puerto usando el TMR1.
 236:main.c        ****       Tpulso=(tmp/Setpoint)*Tciclo; 
 237:main.c        ****       
 238:main.c        ****         if(error<(desvio+1) && error>0){
 239:main.c        ****          if(error<=(desvio+1) && error>0){   
 240:main.c        ****             if(flag_ajuste==0){
 241:main.c        ****                TpulsoMax=Tpulso;
 242:main.c        ****                flag_ajuste=1;  
 243:main.c        ****             }
 244:main.c        ****          }
 245:main.c        ****          
 246:main.c        ****          if(error<=desvio-1 && error>0){   
 247:main.c        ****             if(flag_ajuste2==0){
 248:main.c        ****                Tpulsomin=Tpulso;
 249:main.c        ****                flag_ajuste2=1;           
 250:main.c        ****             }
 251:main.c        ****          }
 252:main.c        ****          
 253:main.c        ****          if(flag_ajuste2==1){
 254:main.c        ****             if(Tpulso<Tpulsomin){
 255:main.c        ****                Tpulso=Tpulsomin;
 256:main.c        ****             }
 257:main.c        ****          }
 258:main.c        ****          if(flag_ajuste==1){   
 259:main.c        ****             if(Tpulso>TpulsoMax){
 260:main.c        ****                Tpulso=TpulsoMax;
 261:main.c        ****             } 
 262:main.c        ****          }
 263:main.c        ****       }
 264:main.c        ****       
 265:main.c        ****       if(error<0){
 266:main.c        ****          sobrepaso=1;
 267:main.c        ****          Tpulso=Tpulsomin/2;
 268:main.c        ****          if(tSobrepaso>300){
 269:main.c        ****             Tpulsomin-=0.1;
 270:main.c        ****             tSobrepaso=0;
 271:main.c        ****          }
 272:main.c        ****       }else{
 273:main.c        ****          sobrepaso=0;
 274:main.c        ****          tSobrepaso=0;
 275:main.c        ****       }
 276:main.c        ****       
 277:main.c        ****       if(Tpulso<0)Tpulso=0;
 278:main.c        ****       if(Tpulso>Tciclo)Tpulso=0;
 279:main.c        ****    }
ARM GAS  C:\Users\USUARIO\AppData\Local\Temp\ccdk1rSB.s 			page 7


 280:main.c        ****    Tp=(Tpulso/0.002);
 281:main.c        ****    Tc=(Tciclo/0.002);
 282:main.c        ****    Control=1;     
 283:main.c        **** //-------------------------------------------------------------------------------------------------
 284:main.c        ****   
 285:main.c        **** }
 286:main.c        **** 
 287:main.c        **** void CuentaTiempo(){
 288:main.c        ****       if(tinicio>=60){
 289:main.c        ****          tinicio=0;
 290:main.c        ****          mEst+=1.0;
 291:main.c        ****          if(mEst>59){
 292:main.c        ****             mEst=0;
 293:main.c        ****             hEst+=1.0;
 294:main.c        ****          }
 295:main.c        ****       }
 296:main.c        **** }
 297:main.c        **** 
 298:main.c        **** void iniciaConteo(){
 299:main.c        ****    if(Pendiente!=0){
 300:main.c        ****         if(flagRampa)
 301:main.c        ****             tiempo_esterilizacion=1;
 302:main.c        ****         else
 303:main.c        ****             tiempo_esterilizacion=0;
 304:main.c        ****    }else if(Pendiente==0){
 305:main.c        ****       if(flagTemperatura && flagRampa)
 306:main.c        ****          tiempo_esterilizacion=1;
 307:main.c        ****       else
 308:main.c        ****          tiempo_esterilizacion=0;
 309:main.c        ****    }
 310:main.c        **** }
 311:main.c        **** 
 312:main.c        **** float leeTermocupla(uint8 media){
 313:main.c        ****     float Tref;
 314:main.c        ****     Tref=0.0;
 315:main.c        ****     Prom=0.0;
 316:main.c        ****     /* Measure cold junction temperature */
 317:main.c        **** 	coldJnTemp = MeasureColdJnSensorTemp();
 318:main.c        **** 	/* Convert cold junction temp to cold junction compensation voltage */
 319:main.c        **** 	tcColdJnuVolt = Thermocouple_1_GetVoltage(coldJnTemp);
 320:main.c        **** 	/* Read thermocouple hot junction voltage */
 321:main.c        **** 	//ADCMux_FastSelect(TC_HOT_JN_CHANNEL);
 322:main.c        **** 	ADC_SelectConfiguration(ADC_TC_Config,1);
 323:main.c        **** 	ADC_StartConvert();
 324:main.c        ****     /*Note in this example a blocking call is used, this can be replaced
 325:main.c        ****     with a polling method is required in your application*/
 326:main.c        **** 	ADC_IsEndConversion(ADC_WAIT_FOR_RESULT); 
 327:main.c        **** 	ADC_StopConvert();
 328:main.c        **** 	hotJnCount = ADC_GetResult32();
 329:main.c        **** 	/* Read ground reference voltage */
 330:main.c        **** 	offset = 0;//MeasureOffset();
 331:main.c        **** 	/* Correlated double sampling to remove ADC offset */
 332:main.c        **** 	hotJnCount -= offset;
 333:main.c        **** 	/* Filter signal */
 334:main.c        **** 	filHotJnCount = FilterSignal(hotJnCount);
 335:main.c        **** 	/* Find thermo-emf in microvolts */
 336:main.c        **** 	tcHotJnuVolt = ADC_CountsTo_uVolts(filHotJnCount);
ARM GAS  C:\Users\USUARIO\AppData\Local\Temp\ccdk1rSB.s 			page 8


 337:main.c        **** 	/* Perform Cold junction compensation */
 338:main.c        **** 	tcuVolt = tcColdJnuVolt + tcHotJnuVolt;
 339:main.c        **** 	/* Convert thermo-emf to temperature */
 340:main.c        **** 	tcTemp = Thermocouple_1_GetTemperature(tcuVolt);
 341:main.c        ****     V0=(float)(tcTemp/100)+(float)(tcTemp-((tcTemp/100)*100))/100;
 342:main.c        ****             
 343:main.c        ****     if(l>(media-1))
 344:main.c        ****         l=0;
 345:main.c        ****    //promedio[l]=Temperature;l++;
 346:main.c        ****     promedio[l]=V0;l++;
 347:main.c        ****          
 348:main.c        ****     for(h=0;h<media;h++){
 349:main.c        ****         Prom+=promedio[h];
 350:main.c        ****     } 
 351:main.c        ****     Prom=Prom/media;   
 352:main.c        ****    
 353:main.c        ****     Prom+=((float)Ajuste-(float)Ajusten);
 354:main.c        ****     if(Prom<=control2){
 355:main.c        ****         Tref=(Prom-b1)/m1;
 356:main.c        ****     }else{
 357:main.c        ****         Tref=(Prom-b2)/m2;
 358:main.c        ****     }
 359:main.c        ****     return Tref;
 360:main.c        ****     //return Temperature;
 361:main.c        **** }
 362:main.c        **** 
 363:main.c        **** CY_ISR(Reloj2){ 
  64              		.loc 1 363 0
  65              		.cfi_startproc
  66              		@ args = 0, pretend = 0, frame = 0
  67              		@ frame_needed = 0, uses_anonymous_args = 0
  68 0000 08B5     		push	{r3, lr}
  69              		.cfi_def_cfa_offset 8
  70              		.cfi_offset 3, -8
  71              		.cfi_offset 14, -4
 364:main.c        ****     tiempos++;
  72              		.loc 1 364 0
  73 0002 364A     		ldr	r2, .L34
  74 0004 1388     		ldrh	r3, [r2]
  75 0006 0133     		adds	r3, r3, #1
  76 0008 1380     		strh	r3, [r2]	@ movhi
 365:main.c        ****     tiempos3++;
  77              		.loc 1 365 0
  78 000a 354A     		ldr	r2, .L34+4
  79 000c 1388     		ldrh	r3, [r2]
  80 000e 0133     		adds	r3, r3, #1
  81 0010 1380     		strh	r3, [r2]	@ movhi
 366:main.c        ****     tiempoctrl++;
  82              		.loc 1 366 0
  83 0012 344A     		ldr	r2, .L34+8
  84 0014 1388     		ldrh	r3, [r2]
  85 0016 0133     		adds	r3, r3, #1
  86 0018 9BB2     		uxth	r3, r3
  87 001a 1380     		strh	r3, [r2]	@ movhi
 367:main.c        ****     
 368:main.c        ****     if(Control==1 && tcHotJnuVolt > BROKEN_TC_THRESHOLD){
  88              		.loc 1 368 0
ARM GAS  C:\Users\USUARIO\AppData\Local\Temp\ccdk1rSB.s 			page 9


  89 001c 324A     		ldr	r2, .L34+12
  90 001e B2F90020 		ldrsh	r2, [r2]
  91 0022 012A     		cmp	r2, #1
  92 0024 19D1     		bne	.L5
  93              		.loc 1 368 0 is_stmt 0 discriminator 1
  94 0026 314A     		ldr	r2, .L34+16
  95 0028 1168     		ldr	r1, [r2]
  96 002a 314A     		ldr	r2, .L34+20
  97 002c 9142     		cmp	r1, r2
  98 002e 14DB     		blt	.L5
 369:main.c        ****         if(tiempoctrl>=Tc) // Si el tiempo de control es mayor al tiempo de ciclo se reinicia tiemp
  99              		.loc 1 369 0 is_stmt 1
 100 0030 304A     		ldr	r2, .L34+24
 101 0032 1288     		ldrh	r2, [r2]
 102 0034 9342     		cmp	r3, r2
 103 0036 02D3     		bcc	.L6
 370:main.c        ****             tiempoctrl=0;
 104              		.loc 1 370 0
 105 0038 0022     		movs	r2, #0
 106 003a 2A4B     		ldr	r3, .L34+8
 107 003c 1A80     		strh	r2, [r3]	@ movhi
 108              	.L6:
 371:main.c        ****         // tiempoctrl incrementa una unidad cada 5ms, por eso se dividen los tiempos por 0.005.
 372:main.c        ****       
 373:main.c        ****         if(tiempoctrl<=Tp) // Si el tiempo es menor o igual al tiempo de control se enciende la res
 109              		.loc 1 373 0
 110 003e 294B     		ldr	r3, .L34+8
 111 0040 1A88     		ldrh	r2, [r3]
 112 0042 2D4B     		ldr	r3, .L34+28
 113 0044 1B88     		ldrh	r3, [r3]
 114 0046 9A42     		cmp	r2, r3
 115 0048 03D8     		bhi	.L7
 374:main.c        ****             SSR_Write(1);
 116              		.loc 1 374 0
 117 004a 0120     		movs	r0, #1
 118 004c FFF7FEFF 		bl	SSR_Write
 119              	.LVL0:
 120 0050 0AE0     		b	.L8
 121              	.L7:
 375:main.c        ****         else         
 376:main.c        ****             SSR_Write(0);
 122              		.loc 1 376 0
 123 0052 0020     		movs	r0, #0
 124 0054 FFF7FEFF 		bl	SSR_Write
 125              	.LVL1:
 126 0058 06E0     		b	.L8
 127              	.L5:
 377:main.c        ****     }else{
 378:main.c        ****         if(!Test)
 128              		.loc 1 378 0
 129 005a 284B     		ldr	r3, .L34+32
 130 005c B3F90030 		ldrsh	r3, [r3]
 131 0060 13B9     		cbnz	r3, .L8
 379:main.c        ****             SSR_Write(0);
 132              		.loc 1 379 0
 133 0062 0020     		movs	r0, #0
 134 0064 FFF7FEFF 		bl	SSR_Write
ARM GAS  C:\Users\USUARIO\AppData\Local\Temp\ccdk1rSB.s 			page 10


 135              	.LVL2:
 136              	.L8:
 380:main.c        ****     }
 381:main.c        ****    
 382:main.c        ****     if(UP_Read()==0){
 137              		.loc 1 382 0
 138 0068 FFF7FEFF 		bl	UP_Read
 139              	.LVL3:
 140 006c 40B9     		cbnz	r0, .L9
 383:main.c        ****         if(tup<2000)
 141              		.loc 1 383 0
 142 006e 244B     		ldr	r3, .L34+36
 143 0070 1B88     		ldrh	r3, [r3]
 144 0072 B3F5FA6F 		cmp	r3, #2000
 145 0076 06D2     		bcs	.L10
 384:main.c        ****             tup++;
 146              		.loc 1 384 0
 147 0078 0133     		adds	r3, r3, #1
 148 007a 214A     		ldr	r2, .L34+36
 149 007c 1380     		strh	r3, [r2]	@ movhi
 150 007e 02E0     		b	.L10
 151              	.L9:
 385:main.c        ****     }else{
 386:main.c        ****         tup=0;
 152              		.loc 1 386 0
 153 0080 0022     		movs	r2, #0
 154 0082 1F4B     		ldr	r3, .L34+36
 155 0084 1A80     		strh	r2, [r3]	@ movhi
 156              	.L10:
 387:main.c        ****     }
 388:main.c        ****     
 389:main.c        ****     if(DOWN_Read()==0){
 157              		.loc 1 389 0
 158 0086 FFF7FEFF 		bl	DOWN_Read
 159              	.LVL4:
 160 008a 40B9     		cbnz	r0, .L11
 390:main.c        ****         if(tdown<2000)
 161              		.loc 1 390 0
 162 008c 1D4B     		ldr	r3, .L34+40
 163 008e 1B88     		ldrh	r3, [r3]
 164 0090 B3F5FA6F 		cmp	r3, #2000
 165 0094 06D2     		bcs	.L12
 391:main.c        ****             tdown++;
 166              		.loc 1 391 0
 167 0096 0133     		adds	r3, r3, #1
 168 0098 1A4A     		ldr	r2, .L34+40
 169 009a 1380     		strh	r3, [r2]	@ movhi
 170 009c 02E0     		b	.L12
 171              	.L11:
 392:main.c        ****     }else{
 393:main.c        ****         tdown=0;
 172              		.loc 1 393 0
 173 009e 0022     		movs	r2, #0
 174 00a0 184B     		ldr	r3, .L34+40
 175 00a2 1A80     		strh	r2, [r3]	@ movhi
 176              	.L12:
 394:main.c        ****     }
ARM GAS  C:\Users\USUARIO\AppData\Local\Temp\ccdk1rSB.s 			page 11


 395:main.c        ****     
 396:main.c        ****     if(RIGHT_Read()==0){
 177              		.loc 1 396 0
 178 00a4 FFF7FEFF 		bl	RIGHT_Read
 179              	.LVL5:
 180 00a8 40B9     		cbnz	r0, .L13
 397:main.c        ****         if(tright<2000)
 181              		.loc 1 397 0
 182 00aa 174B     		ldr	r3, .L34+44
 183 00ac 1B88     		ldrh	r3, [r3]
 184 00ae B3F5FA6F 		cmp	r3, #2000
 185 00b2 06D2     		bcs	.L14
 398:main.c        ****             tright++;
 186              		.loc 1 398 0
 187 00b4 0133     		adds	r3, r3, #1
 188 00b6 144A     		ldr	r2, .L34+44
 189 00b8 1380     		strh	r3, [r2]	@ movhi
 190 00ba 02E0     		b	.L14
 191              	.L13:
 399:main.c        ****     }else{
 400:main.c        ****         tright=0;
 192              		.loc 1 400 0
 193 00bc 0022     		movs	r2, #0
 194 00be 124B     		ldr	r3, .L34+44
 195 00c0 1A80     		strh	r2, [r3]	@ movhi
 196              	.L14:
 401:main.c        ****     }
 402:main.c        ****     
 403:main.c        ****     if(LEFT_Read()==0){
 197              		.loc 1 403 0
 198 00c2 FFF7FEFF 		bl	LEFT_Read
 199              	.LVL6:
 200 00c6 18BB     		cbnz	r0, .L15
 404:main.c        ****         if(tleft<2000)
 201              		.loc 1 404 0
 202 00c8 104B     		ldr	r3, .L34+48
 203 00ca 1B88     		ldrh	r3, [r3]
 204 00cc B3F5FA6F 		cmp	r3, #2000
 205 00d0 21D2     		bcs	.L16
 405:main.c        ****             tleft++;
 206              		.loc 1 405 0
 207 00d2 0133     		adds	r3, r3, #1
 208 00d4 0D4A     		ldr	r2, .L34+48
 209 00d6 1380     		strh	r3, [r2]	@ movhi
 210 00d8 1DE0     		b	.L16
 211              	.L35:
 212 00da 00BF     		.align	2
 213              	.L34:
 214 00dc 00000000 		.word	tiempos
 215 00e0 00000000 		.word	tiempos3
 216 00e4 00000000 		.word	tiempoctrl
 217 00e8 00000000 		.word	Control
 218 00ec 00000000 		.word	tcHotJnuVolt
 219 00f0 F1D8FFFF 		.word	-9999
 220 00f4 00000000 		.word	Tc
 221 00f8 00000000 		.word	Tp
 222 00fc 00000000 		.word	Test
ARM GAS  C:\Users\USUARIO\AppData\Local\Temp\ccdk1rSB.s 			page 12


 223 0100 00000000 		.word	tup
 224 0104 00000000 		.word	tdown
 225 0108 00000000 		.word	tright
 226 010c 00000000 		.word	tleft
 227              	.L15:
 406:main.c        ****     }else{
 407:main.c        ****         tleft=0;
 228              		.loc 1 407 0
 229 0110 0022     		movs	r2, #0
 230 0112 714B     		ldr	r3, .L36
 231 0114 1A80     		strh	r2, [r3]	@ movhi
 232              	.L16:
 408:main.c        ****     }
 409:main.c        ****     
 410:main.c        ****     if(tiempos3>=500){
 233              		.loc 1 410 0
 234 0116 714B     		ldr	r3, .L36+4
 235 0118 1B88     		ldrh	r3, [r3]
 236 011a B3F5FA7F 		cmp	r3, #500
 237 011e 15D3     		bcc	.L17
 411:main.c        ****         Lectura2=1;
 238              		.loc 1 411 0
 239 0120 0122     		movs	r2, #1
 240 0122 6F4B     		ldr	r3, .L36+8
 241 0124 1A80     		strh	r2, [r3]	@ movhi
 412:main.c        ****         if(flagup)
 242              		.loc 1 412 0
 243 0126 6F4B     		ldr	r3, .L36+12
 244 0128 B3F90030 		ldrsh	r3, [r3]
 245 012c 1BB1     		cbz	r3, .L18
 413:main.c        ****             tiempoup++;
 246              		.loc 1 413 0
 247 012e 6E4A     		ldr	r2, .L36+16
 248 0130 1388     		ldrh	r3, [r2]
 249 0132 0133     		adds	r3, r3, #1
 250 0134 1380     		strh	r3, [r2]	@ movhi
 251              	.L18:
 414:main.c        ****         if(flagdn)
 252              		.loc 1 414 0
 253 0136 6D4B     		ldr	r3, .L36+20
 254 0138 B3F90030 		ldrsh	r3, [r3]
 255 013c 1BB1     		cbz	r3, .L19
 415:main.c        ****             tiempodn++;   
 256              		.loc 1 415 0
 257 013e 6C4A     		ldr	r2, .L36+24
 258 0140 1388     		ldrh	r3, [r2]
 259 0142 0133     		adds	r3, r3, #1
 260 0144 1380     		strh	r3, [r2]	@ movhi
 261              	.L19:
 416:main.c        ****         tiempos3=0;
 262              		.loc 1 416 0
 263 0146 0022     		movs	r2, #0
 264 0148 644B     		ldr	r3, .L36+4
 265 014a 1A80     		strh	r2, [r3]	@ movhi
 266              	.L17:
 417:main.c        ****     }
 418:main.c        ****     
ARM GAS  C:\Users\USUARIO\AppData\Local\Temp\ccdk1rSB.s 			page 13


 419:main.c        ****     if(tiempos>=500){  // Cuenta cada 2ms        
 267              		.loc 1 419 0
 268 014c 694B     		ldr	r3, .L36+28
 269 014e 1B88     		ldrh	r3, [r3]
 270 0150 B3F5FA7F 		cmp	r3, #500
 271 0154 C0F0BE80 		bcc	.L4
 420:main.c        ****         tiempos=0;Lectura=1;tiemporeset++;TiempoControl++;tiemporecta++;mensaje=!mensaje;
 272              		.loc 1 420 0
 273 0158 0022     		movs	r2, #0
 274 015a 664B     		ldr	r3, .L36+28
 275 015c 1A80     		strh	r2, [r3]	@ movhi
 276 015e 0122     		movs	r2, #1
 277 0160 654B     		ldr	r3, .L36+32
 278 0162 1A80     		strh	r2, [r3]	@ movhi
 279 0164 654A     		ldr	r2, .L36+36
 280 0166 1388     		ldrh	r3, [r2]
 281 0168 0133     		adds	r3, r3, #1
 282 016a 1380     		strh	r3, [r2]	@ movhi
 283 016c 644A     		ldr	r2, .L36+40
 284 016e 1388     		ldrh	r3, [r2]
 285 0170 0133     		adds	r3, r3, #1
 286 0172 1380     		strh	r3, [r2]	@ movhi
 287 0174 634A     		ldr	r2, .L36+44
 288 0176 1388     		ldrh	r3, [r2]
 289 0178 0133     		adds	r3, r3, #1
 290 017a 1380     		strh	r3, [r2]	@ movhi
 291 017c 624A     		ldr	r2, .L36+48
 292 017e B2F90030 		ldrsh	r3, [r2]
 293 0182 B3FA83F3 		clz	r3, r3
 294 0186 5B09     		lsrs	r3, r3, #5
 295 0188 1380     		strh	r3, [r2]	@ movhi
 421:main.c        ****    
 422:main.c        ****         if(finalizoCiclo){
 296              		.loc 1 422 0
 297 018a 604B     		ldr	r3, .L36+52
 298 018c B3F90030 		ldrsh	r3, [r3]
 299 0190 002B     		cmp	r3, #0
 300 0192 38D0     		beq	.L21
 423:main.c        ****             segundosCampana++;
 301              		.loc 1 423 0
 302 0194 5E4A     		ldr	r2, .L36+56
 303 0196 1378     		ldrb	r3, [r2]	@ zero_extendqisi2
 304 0198 0133     		adds	r3, r3, #1
 305 019a DBB2     		uxtb	r3, r3
 306 019c 1370     		strb	r3, [r2]
 424:main.c        ****             if(segundosCampana>=60){
 307              		.loc 1 424 0
 308 019e 3B2B     		cmp	r3, #59
 309 01a0 31D9     		bls	.L21
 425:main.c        ****                 segundosCampana=0;
 310              		.loc 1 425 0
 311 01a2 0022     		movs	r2, #0
 312 01a4 5A4B     		ldr	r3, .L36+56
 313 01a6 1A70     		strb	r2, [r3]
 426:main.c        ****                 Tempoc[0]++;
 314              		.loc 1 426 0
 315 01a8 5A4A     		ldr	r2, .L36+60
ARM GAS  C:\Users\USUARIO\AppData\Local\Temp\ccdk1rSB.s 			page 14


 316 01aa 92F90030 		ldrsb	r3, [r2]
 317 01ae 0133     		adds	r3, r3, #1
 318 01b0 5BB2     		sxtb	r3, r3
 319 01b2 1370     		strb	r3, [r2]
 427:main.c        ****                 if(Tempoc[0]>9){
 320              		.loc 1 427 0
 321 01b4 092B     		cmp	r3, #9
 322 01b6 06DD     		ble	.L22
 428:main.c        ****                     Tempoc[0]=0;
 323              		.loc 1 428 0
 324 01b8 1346     		mov	r3, r2
 325 01ba 0022     		movs	r2, #0
 326 01bc 1A70     		strb	r2, [r3]
 429:main.c        ****                     Tempoc[1]++;
 327              		.loc 1 429 0
 328 01be 93F90120 		ldrsb	r2, [r3, #1]
 329 01c2 0132     		adds	r2, r2, #1
 330 01c4 5A70     		strb	r2, [r3, #1]
 331              	.L22:
 430:main.c        ****                 }
 431:main.c        ****                 if(Tempoc[1]>5){
 332              		.loc 1 431 0
 333 01c6 534B     		ldr	r3, .L36+60
 334 01c8 93F90130 		ldrsb	r3, [r3, #1]
 335 01cc 052B     		cmp	r3, #5
 336 01ce 06DD     		ble	.L23
 432:main.c        ****                     Tempoc[1]=0;
 337              		.loc 1 432 0
 338 01d0 504B     		ldr	r3, .L36+60
 339 01d2 0022     		movs	r2, #0
 340 01d4 5A70     		strb	r2, [r3, #1]
 433:main.c        ****                     Tempoc[2]++;
 341              		.loc 1 433 0
 342 01d6 93F90220 		ldrsb	r2, [r3, #2]
 343 01da 0132     		adds	r2, r2, #1
 344 01dc 9A70     		strb	r2, [r3, #2]
 345              	.L23:
 434:main.c        ****                 }
 435:main.c        ****                 if(Tempoc[2]>9){
 346              		.loc 1 435 0
 347 01de 4D4B     		ldr	r3, .L36+60
 348 01e0 93F90230 		ldrsb	r3, [r3, #2]
 349 01e4 092B     		cmp	r3, #9
 350 01e6 06DD     		ble	.L24
 436:main.c        ****                     Tempoc[2]=0;
 351              		.loc 1 436 0
 352 01e8 4A4B     		ldr	r3, .L36+60
 353 01ea 0022     		movs	r2, #0
 354 01ec 9A70     		strb	r2, [r3, #2]
 437:main.c        ****                     Tempoc[3]++;
 355              		.loc 1 437 0
 356 01ee 93F90320 		ldrsb	r2, [r3, #3]
 357 01f2 0132     		adds	r2, r2, #1
 358 01f4 DA70     		strb	r2, [r3, #3]
 359              	.L24:
 438:main.c        ****                 }
 439:main.c        ****                 if(Tempoc[3]>5){
ARM GAS  C:\Users\USUARIO\AppData\Local\Temp\ccdk1rSB.s 			page 15


 360              		.loc 1 439 0
 361 01f6 474B     		ldr	r3, .L36+60
 362 01f8 93F90330 		ldrsb	r3, [r3, #3]
 363 01fc 052B     		cmp	r3, #5
 364 01fe 02DD     		ble	.L21
 440:main.c        ****                     Tempoc[3]=0;
 365              		.loc 1 440 0
 366 0200 0022     		movs	r2, #0
 367 0202 444B     		ldr	r3, .L36+60
 368 0204 DA70     		strb	r2, [r3, #3]
 369              	.L21:
 441:main.c        ****                 }     
 442:main.c        ****             }
 443:main.c        ****         }
 444:main.c        ****         
 445:main.c        ****         if(conteoPregunta)tPregunta++;
 370              		.loc 1 445 0
 371 0206 444B     		ldr	r3, .L36+64
 372 0208 B3F90030 		ldrsh	r3, [r3]
 373 020c 1BB1     		cbz	r3, .L25
 374              		.loc 1 445 0 is_stmt 0 discriminator 1
 375 020e 434A     		ldr	r2, .L36+68
 376 0210 1388     		ldrh	r3, [r2]
 377 0212 0133     		adds	r3, r3, #1
 378 0214 1380     		strh	r3, [r2]	@ movhi
 379              	.L25:
 446:main.c        ****         
 447:main.c        ****         if(sobrepaso==1)
 380              		.loc 1 447 0 is_stmt 1
 381 0216 424B     		ldr	r3, .L36+72
 382 0218 B3F90030 		ldrsh	r3, [r3]
 383 021c 012B     		cmp	r3, #1
 384 021e 03D1     		bne	.L26
 448:main.c        ****          tSobrepaso++;
 385              		.loc 1 448 0
 386 0220 404A     		ldr	r2, .L36+76
 387 0222 1388     		ldrh	r3, [r2]
 388 0224 0133     		adds	r3, r3, #1
 389 0226 1380     		strh	r3, [r2]	@ movhi
 390              	.L26:
 449:main.c        ****         
 450:main.c        ****         if(flag_setpoint==1)
 391              		.loc 1 450 0
 392 0228 3F4B     		ldr	r3, .L36+80
 393 022a B3F90030 		ldrsh	r3, [r3]
 394 022e 012B     		cmp	r3, #1
 395 0230 03D1     		bne	.L27
 451:main.c        ****             tiemposetpoint++;
 396              		.loc 1 451 0
 397 0232 3E4A     		ldr	r2, .L36+84
 398 0234 1388     		ldrh	r3, [r2]
 399 0236 0133     		adds	r3, r3, #1
 400 0238 1380     		strh	r3, [r2]	@ movhi
 401              	.L27:
 452:main.c        ****       
 453:main.c        ****         if(tiempo_esterilizacion==1 || tiempo_esterilizacion==2){               
 402              		.loc 1 453 0
ARM GAS  C:\Users\USUARIO\AppData\Local\Temp\ccdk1rSB.s 			page 16


 403 023a 3D4B     		ldr	r3, .L36+88
 404 023c 1B78     		ldrb	r3, [r3]	@ zero_extendqisi2
 405 023e 013B     		subs	r3, r3, #1
 406 0240 DBB2     		uxtb	r3, r3
 407 0242 012B     		cmp	r3, #1
 408 0244 07D8     		bhi	.L28
 454:main.c        ****             tinicio++;
 409              		.loc 1 454 0
 410 0246 3B4A     		ldr	r2, .L36+92
 411 0248 1388     		ldrh	r3, [r2]
 412 024a 0133     		adds	r3, r3, #1
 413 024c 1380     		strh	r3, [r2]	@ movhi
 455:main.c        ****             tGrafica++;
 414              		.loc 1 455 0
 415 024e 3A4A     		ldr	r2, .L36+96
 416 0250 1368     		ldr	r3, [r2]
 417 0252 0133     		adds	r3, r3, #1
 418 0254 1360     		str	r3, [r2]
 419              	.L28:
 456:main.c        ****         }
 457:main.c        ****              
 458:main.c        ****         if(flag_tiempocalentamiento==1)
 420              		.loc 1 458 0
 421 0256 394B     		ldr	r3, .L36+100
 422 0258 B3F90030 		ldrsh	r3, [r3]
 423 025c 012B     		cmp	r3, #1
 424 025e 03D1     		bne	.L29
 459:main.c        ****             tiempocalentamiento++;
 425              		.loc 1 459 0
 426 0260 374A     		ldr	r2, .L36+104
 427 0262 1388     		ldrh	r3, [r2]
 428 0264 0133     		adds	r3, r3, #1
 429 0266 1380     		strh	r3, [r2]	@ movhi
 430              	.L29:
 460:main.c        ****         
 461:main.c        ****         if(tinicio>=60){
 431              		.loc 1 461 0
 432 0268 324B     		ldr	r3, .L36+92
 433 026a 1B88     		ldrh	r3, [r3]
 434 026c 3B2B     		cmp	r3, #59
 435 026e 31D9     		bls	.L4
 462:main.c        ****             tinicio=0;   
 436              		.loc 1 462 0
 437 0270 0022     		movs	r2, #0
 438 0272 304B     		ldr	r3, .L36+92
 439 0274 1A80     		strh	r2, [r3]	@ movhi
 463:main.c        ****             Testerilizacion[0]++;
 440              		.loc 1 463 0
 441 0276 334A     		ldr	r2, .L36+108
 442 0278 92F90430 		ldrsb	r3, [r2, #4]
 443 027c 0133     		adds	r3, r3, #1
 444 027e 5BB2     		sxtb	r3, r3
 445 0280 1371     		strb	r3, [r2, #4]
 464:main.c        ****             if(Testerilizacion[0]>9){
 446              		.loc 1 464 0
 447 0282 092B     		cmp	r3, #9
 448 0284 06DD     		ble	.L30
ARM GAS  C:\Users\USUARIO\AppData\Local\Temp\ccdk1rSB.s 			page 17


 465:main.c        ****                 Testerilizacion[0]=0;
 449              		.loc 1 465 0
 450 0286 1346     		mov	r3, r2
 451 0288 0022     		movs	r2, #0
 452 028a 1A71     		strb	r2, [r3, #4]
 466:main.c        ****                 Testerilizacion[1]++;
 453              		.loc 1 466 0
 454 028c 93F90520 		ldrsb	r2, [r3, #5]
 455 0290 0132     		adds	r2, r2, #1
 456 0292 5A71     		strb	r2, [r3, #5]
 457              	.L30:
 467:main.c        ****             }
 468:main.c        ****             if(Testerilizacion[1]>5){
 458              		.loc 1 468 0
 459 0294 2B4B     		ldr	r3, .L36+108
 460 0296 93F90530 		ldrsb	r3, [r3, #5]
 461 029a 052B     		cmp	r3, #5
 462 029c 06DD     		ble	.L31
 469:main.c        ****                 Testerilizacion[1]=0;
 463              		.loc 1 469 0
 464 029e 294B     		ldr	r3, .L36+108
 465 02a0 0022     		movs	r2, #0
 466 02a2 5A71     		strb	r2, [r3, #5]
 470:main.c        ****                 Testerilizacion[2]++;
 467              		.loc 1 470 0
 468 02a4 93F90620 		ldrsb	r2, [r3, #6]
 469 02a8 0132     		adds	r2, r2, #1
 470 02aa 9A71     		strb	r2, [r3, #6]
 471              	.L31:
 471:main.c        ****             }
 472:main.c        ****             if(Testerilizacion[2]>9){
 472              		.loc 1 472 0
 473 02ac 254B     		ldr	r3, .L36+108
 474 02ae 93F90630 		ldrsb	r3, [r3, #6]
 475 02b2 092B     		cmp	r3, #9
 476 02b4 06DD     		ble	.L32
 473:main.c        ****                 Testerilizacion[2]=0;
 477              		.loc 1 473 0
 478 02b6 234B     		ldr	r3, .L36+108
 479 02b8 0022     		movs	r2, #0
 480 02ba 9A71     		strb	r2, [r3, #6]
 474:main.c        ****                 Testerilizacion[3]++;
 481              		.loc 1 474 0
 482 02bc 93F90720 		ldrsb	r2, [r3, #7]
 483 02c0 0132     		adds	r2, r2, #1
 484 02c2 DA71     		strb	r2, [r3, #7]
 485              	.L32:
 475:main.c        ****             }
 476:main.c        ****             if(Testerilizacion[3]>9){
 486              		.loc 1 476 0
 487 02c4 1F4B     		ldr	r3, .L36+108
 488 02c6 93F90730 		ldrsb	r3, [r3, #7]
 489 02ca 092B     		cmp	r3, #9
 490 02cc 02DD     		ble	.L4
 477:main.c        ****                 Testerilizacion[3]=0;
 491              		.loc 1 477 0
 492 02ce 0022     		movs	r2, #0
ARM GAS  C:\Users\USUARIO\AppData\Local\Temp\ccdk1rSB.s 			page 18


 493 02d0 1C4B     		ldr	r3, .L36+108
 494 02d2 DA71     		strb	r2, [r3, #7]
 495              	.L4:
 496 02d4 08BD     		pop	{r3, pc}
 497              	.L37:
 498 02d6 00BF     		.align	2
 499              	.L36:
 500 02d8 00000000 		.word	tleft
 501 02dc 00000000 		.word	tiempos3
 502 02e0 00000000 		.word	Lectura2
 503 02e4 00000000 		.word	flagup
 504 02e8 00000000 		.word	tiempoup
 505 02ec 00000000 		.word	flagdn
 506 02f0 00000000 		.word	tiempodn
 507 02f4 00000000 		.word	tiempos
 508 02f8 00000000 		.word	Lectura
 509 02fc 00000000 		.word	tiemporeset
 510 0300 00000000 		.word	TiempoControl
 511 0304 00000000 		.word	tiemporecta
 512 0308 00000000 		.word	mensaje
 513 030c 00000000 		.word	finalizoCiclo
 514 0310 00000000 		.word	segundosCampana
 515 0314 00000000 		.word	Tempoc
 516 0318 00000000 		.word	conteoPregunta
 517 031c 00000000 		.word	tPregunta
 518 0320 00000000 		.word	sobrepaso
 519 0324 00000000 		.word	tSobrepaso
 520 0328 00000000 		.word	flag_setpoint
 521 032c 00000000 		.word	tiemposetpoint
 522 0330 00000000 		.word	tiempo_esterilizacion
 523 0334 00000000 		.word	tinicio
 524 0338 00000000 		.word	tGrafica
 525 033c 00000000 		.word	flag_tiempocalentamiento
 526 0340 00000000 		.word	tiempocalentamiento
 527 0344 00000000 		.word	.LANCHOR0
 528              		.cfi_endproc
 529              	.LFE70:
 530              		.size	Reloj2, .-Reloj2
 531              		.section	.text.inteRX1,"ax",%progbits
 532              		.align	2
 533              		.global	inteRX1
 534              		.thumb
 535              		.thumb_func
 536              		.type	inteRX1, %function
 537              	inteRX1:
 538              	.LFB71:
 478:main.c        ****             }
 479:main.c        ****         }
 480:main.c        ****     }     
 481:main.c        **** }
 482:main.c        **** 
 483:main.c        **** CY_ISR(inteRX1){
 539              		.loc 1 483 0
 540              		.cfi_startproc
 541              		@ args = 0, pretend = 0, frame = 0
 542              		@ frame_needed = 0, uses_anonymous_args = 0
 543 0000 08B5     		push	{r3, lr}
ARM GAS  C:\Users\USUARIO\AppData\Local\Temp\ccdk1rSB.s 			page 19


 544              		.cfi_def_cfa_offset 8
 545              		.cfi_offset 3, -8
 546              		.cfi_offset 14, -4
 484:main.c        ****     Dato3=UART_1_GetByte();
 547              		.loc 1 484 0
 548 0002 FFF7FEFF 		bl	UART_1_GetByte
 549              	.LVL7:
 550 0006 C0B2     		uxtb	r0, r0
 551 0008 1D4B     		ldr	r3, .L45
 552 000a 1870     		strb	r0, [r3]
 485:main.c        ****    if(Dato3==0x65){//Inicio Comunicacion
 553              		.loc 1 485 0
 554 000c 6528     		cmp	r0, #101
 555 000e 05D1     		bne	.L39
 486:main.c        ****       Inicio2=1;
 556              		.loc 1 486 0
 557 0010 0122     		movs	r2, #1
 558 0012 1C4B     		ldr	r3, .L45+4
 559 0014 1A80     		strh	r2, [r3]	@ movhi
 487:main.c        ****       RX_Wr_Index2 =0;
 560              		.loc 1 487 0
 561 0016 0022     		movs	r2, #0
 562 0018 1B4B     		ldr	r3, .L45+8
 563 001a 1A72     		strb	r2, [r3, #8]
 564              	.L39:
 488:main.c        ****    }
 489:main.c        ****    if(Inicio2==1){
 565              		.loc 1 489 0
 566 001c 194B     		ldr	r3, .L45+4
 567 001e B3F90030 		ldrsh	r3, [r3]
 568 0022 012B     		cmp	r3, #1
 569 0024 05D1     		bne	.L40
 490:main.c        ****       Rx_Buffer4[RX_Wr_Index2] = Dato3;
 570              		.loc 1 490 0
 571 0026 184A     		ldr	r2, .L45+8
 572 0028 137A     		ldrb	r3, [r2, #8]	@ zero_extendqisi2
 573 002a 1849     		ldr	r1, .L45+12
 574 002c C854     		strb	r0, [r1, r3]
 491:main.c        ****       RX_Wr_Index2++;
 575              		.loc 1 491 0
 576 002e 0133     		adds	r3, r3, #1
 577 0030 1372     		strb	r3, [r2, #8]
 578              	.L40:
 492:main.c        ****    }
 493:main.c        ****    if(RX_Wr_Index2 >= RX_BUFFER_SIZE){
 579              		.loc 1 493 0
 580 0032 154B     		ldr	r3, .L45+8
 581 0034 1B7A     		ldrb	r3, [r3, #8]	@ zero_extendqisi2
 582 0036 092B     		cmp	r3, #9
 583 0038 04D9     		bls	.L41
 494:main.c        ****       RX_Wr_Index2 =0;
 584              		.loc 1 494 0
 585 003a 0023     		movs	r3, #0
 586 003c 124A     		ldr	r2, .L45+8
 587 003e 1372     		strb	r3, [r2, #8]
 495:main.c        ****       Inicio2=0;
 588              		.loc 1 495 0
ARM GAS  C:\Users\USUARIO\AppData\Local\Temp\ccdk1rSB.s 			page 20


 589 0040 104A     		ldr	r2, .L45+4
 590 0042 1380     		strh	r3, [r2]	@ movhi
 591              	.L41:
 496:main.c        ****    }
 497:main.c        ****    if(RX_Wr_Index2==0){
 592              		.loc 1 497 0
 593 0044 104B     		ldr	r3, .L45+8
 594 0046 1B7A     		ldrb	r3, [r3, #8]	@ zero_extendqisi2
 595 0048 CBB9     		cbnz	r3, .L38
 498:main.c        ****       if(Rx_Buffer4[0]==0x65 && Rx_Buffer4[1]==0xff && Rx_Buffer4[2]==0xff && Rx_Buffer4[8]==0x00 &
 596              		.loc 1 498 0
 597 004a 104B     		ldr	r3, .L45+12
 598 004c 1B78     		ldrb	r3, [r3]	@ zero_extendqisi2
 599 004e 652B     		cmp	r3, #101
 600 0050 12D1     		bne	.L43
 601              		.loc 1 498 0 is_stmt 0 discriminator 1
 602 0052 0E4B     		ldr	r3, .L45+12
 603 0054 5B78     		ldrb	r3, [r3, #1]	@ zero_extendqisi2
 604 0056 FF2B     		cmp	r3, #255
 605 0058 0ED1     		bne	.L43
 606              		.loc 1 498 0 discriminator 2
 607 005a 0C4B     		ldr	r3, .L45+12
 608 005c 9B78     		ldrb	r3, [r3, #2]	@ zero_extendqisi2
 609 005e FF2B     		cmp	r3, #255
 610 0060 0AD1     		bne	.L43
 611              		.loc 1 498 0 discriminator 3
 612 0062 0A4B     		ldr	r3, .L45+12
 613 0064 1B7A     		ldrb	r3, [r3, #8]	@ zero_extendqisi2
 614 0066 3BB9     		cbnz	r3, .L43
 615              		.loc 1 498 0 discriminator 4
 616 0068 084B     		ldr	r3, .L45+12
 617 006a 5B7A     		ldrb	r3, [r3, #9]	@ zero_extendqisi2
 618 006c FF2B     		cmp	r3, #255
 619 006e 03D1     		bne	.L43
 499:main.c        ****          Dato_Exitoso2=5;
 620              		.loc 1 499 0 is_stmt 1
 621 0070 0522     		movs	r2, #5
 622 0072 074B     		ldr	r3, .L45+16
 623 0074 1A70     		strb	r2, [r3]
 624 0076 08BD     		pop	{r3, pc}
 625              	.L43:
 500:main.c        ****       else
 501:main.c        ****          Dato_Exitoso2=10;
 626              		.loc 1 501 0
 627 0078 0A22     		movs	r2, #10
 628 007a 054B     		ldr	r3, .L45+16
 629 007c 1A70     		strb	r2, [r3]
 630              	.L38:
 631 007e 08BD     		pop	{r3, pc}
 632              	.L46:
 633              		.align	2
 634              	.L45:
 635 0080 00000000 		.word	Dato3
 636 0084 00000000 		.word	Inicio2
 637 0088 00000000 		.word	.LANCHOR0
 638 008c 00000000 		.word	Rx_Buffer4
 639 0090 00000000 		.word	Dato_Exitoso2
ARM GAS  C:\Users\USUARIO\AppData\Local\Temp\ccdk1rSB.s 			page 21


 640              		.cfi_endproc
 641              	.LFE71:
 642              		.size	inteRX1, .-inteRX1
 643              		.global	__aeabi_fsub
 644              		.global	__aeabi_i2f
 645              		.global	__aeabi_fdiv
 646              		.global	__aeabi_fmul
 647              		.section	.text.ActualizaRecta,"ax",%progbits
 648              		.align	2
 649              		.global	ActualizaRecta
 650              		.thumb
 651              		.thumb_func
 652              		.type	ActualizaRecta, %function
 653              	ActualizaRecta:
 654              	.LFB65:
 105:main.c        ****    X[y]=Temperatura;
 655              		.loc 1 105 0
 656              		.cfi_startproc
 657              		@ args = 0, pretend = 0, frame = 0
 658              		@ frame_needed = 0, uses_anonymous_args = 0
 659 0000 70B5     		push	{r4, r5, r6, lr}
 660              		.cfi_def_cfa_offset 16
 661              		.cfi_offset 4, -16
 662              		.cfi_offset 5, -12
 663              		.cfi_offset 6, -8
 664              		.cfi_offset 14, -4
 106:main.c        ****    y++;
 665              		.loc 1 106 0
 666 0002 2E49     		ldr	r1, .L50
 667 0004 0B78     		ldrb	r3, [r1]	@ zero_extendqisi2
 668 0006 2E4A     		ldr	r2, .L50+4
 669 0008 1468     		ldr	r4, [r2]	@ float
 670 000a 2E4A     		ldr	r2, .L50+8
 671 000c 02EB8302 		add	r2, r2, r3, lsl #2
 672 0010 D460     		str	r4, [r2, #12]	@ float
 107:main.c        ****    if(y>=2){
 673              		.loc 1 107 0
 674 0012 0133     		adds	r3, r3, #1
 675 0014 DBB2     		uxtb	r3, r3
 676 0016 0B70     		strb	r3, [r1]
 108:main.c        ****       y=0;
 677              		.loc 1 108 0
 678 0018 012B     		cmp	r3, #1
 679 001a 4DD9     		bls	.L47
 109:main.c        ****       Aumento=X[1]-X[0];
 680              		.loc 1 109 0
 681 001c 0022     		movs	r2, #0
 682 001e 0A70     		strb	r2, [r1]
 110:main.c        ****       HorasActual=(Testerilizacion[3]*10)+Testerilizacion[2];
 683              		.loc 1 110 0
 684 0020 284E     		ldr	r6, .L50+8
 685 0022 F168     		ldr	r1, [r6, #12]	@ float
 686 0024 3069     		ldr	r0, [r6, #16]	@ float
 687 0026 FFF7FEFF 		bl	__aeabi_fsub
 688              	.LVL8:
 689 002a 0546     		mov	r5, r0
 690 002c 264B     		ldr	r3, .L50+12
ARM GAS  C:\Users\USUARIO\AppData\Local\Temp\ccdk1rSB.s 			page 22


 691 002e 1860     		str	r0, [r3]	@ float
 111:main.c        ****       MinutosActual=(Testerilizacion[1]*10)+Testerilizacion[0];
 692              		.loc 1 111 0
 693 0030 96F90710 		ldrsb	r1, [r6, #7]
 694 0034 96F90620 		ldrsb	r2, [r6, #6]
 695 0038 01EB8101 		add	r1, r1, r1, lsl #2
 696 003c 02EB4101 		add	r1, r2, r1, lsl #1
 697 0040 89B2     		uxth	r1, r1
 698 0042 224B     		ldr	r3, .L50+16
 699 0044 1980     		strh	r1, [r3]	@ movhi
 112:main.c        ****       TiempoActual=Tiempo-((HorasActual*3600)+(MinutosActual*60)+tinicio);
 700              		.loc 1 112 0
 701 0046 96F90530 		ldrsb	r3, [r6, #5]
 702 004a 96F90420 		ldrsb	r2, [r6, #4]
 703 004e 03EB8303 		add	r3, r3, r3, lsl #2
 704 0052 02EB4303 		add	r3, r2, r3, lsl #1
 705 0056 9BB2     		uxth	r3, r3
 706 0058 1D4A     		ldr	r2, .L50+20
 707 005a 1380     		strh	r3, [r2]	@ movhi
 113:main.c        ****       PendienteActual=((Setpoint-Temperatura)/TiempoActual);
 708              		.loc 1 113 0
 709 005c C1EB0111 		rsb	r1, r1, r1, lsl #4
 710 0060 C1EB0111 		rsb	r1, r1, r1, lsl #4
 711 0064 C3EB0313 		rsb	r3, r3, r3, lsl #4
 712 0068 9B00     		lsls	r3, r3, #2
 713 006a 03EB0113 		add	r3, r3, r1, lsl #4
 714 006e 194A     		ldr	r2, .L50+24
 715 0070 1688     		ldrh	r6, [r2]
 716 0072 1E44     		add	r6, r6, r3
 717 0074 184B     		ldr	r3, .L50+28
 718 0076 1A88     		ldrh	r2, [r3]
 719 0078 961B     		subs	r6, r2, r6
 720 007a B6B2     		uxth	r6, r6
 721 007c 174B     		ldr	r3, .L50+32
 722 007e 1E80     		strh	r6, [r3]	@ movhi
 114:main.c        ****       DifPendiente=(PendienteActual*20)-Aumento;
 723              		.loc 1 114 0
 724 0080 174B     		ldr	r3, .L50+36
 725 0082 1888     		ldrh	r0, [r3]
 726 0084 FFF7FEFF 		bl	__aeabi_i2f
 727              	.LVL9:
 728 0088 2146     		mov	r1, r4
 729 008a FFF7FEFF 		bl	__aeabi_fsub
 730              	.LVL10:
 731 008e 0446     		mov	r4, r0
 732 0090 3046     		mov	r0, r6
 733 0092 FFF7FEFF 		bl	__aeabi_i2f
 734              	.LVL11:
 735 0096 0146     		mov	r1, r0
 736 0098 2046     		mov	r0, r4
 737 009a FFF7FEFF 		bl	__aeabi_fdiv
 738              	.LVL12:
 739 009e 114B     		ldr	r3, .L50+40
 740 00a0 1860     		str	r0, [r3]	@ float
 115:main.c        ****       DifPendiente=DifPendiente*5;
 741              		.loc 1 115 0
 742 00a2 1149     		ldr	r1, .L50+44
ARM GAS  C:\Users\USUARIO\AppData\Local\Temp\ccdk1rSB.s 			page 23


 743 00a4 FFF7FEFF 		bl	__aeabi_fmul
 744              	.LVL13:
 745 00a8 2946     		mov	r1, r5
 746 00aa FFF7FEFF 		bl	__aeabi_fsub
 747              	.LVL14:
 116:main.c        ****    }
 748              		.loc 1 116 0
 749 00ae 0F49     		ldr	r1, .L50+48
 750 00b0 FFF7FEFF 		bl	__aeabi_fmul
 751              	.LVL15:
 752 00b4 0E4B     		ldr	r3, .L50+52
 753 00b6 1860     		str	r0, [r3]	@ float
 754              	.L47:
 755 00b8 70BD     		pop	{r4, r5, r6, pc}
 756              	.L51:
 757 00ba 00BF     		.align	2
 758              	.L50:
 759 00bc 00000000 		.word	y
 760 00c0 00000000 		.word	Temperatura
 761 00c4 00000000 		.word	.LANCHOR0
 762 00c8 00000000 		.word	Aumento
 763 00cc 00000000 		.word	HorasActual
 764 00d0 00000000 		.word	MinutosActual
 765 00d4 00000000 		.word	tinicio
 766 00d8 00000000 		.word	Tiempo
 767 00dc 00000000 		.word	TiempoActual
 768 00e0 00000000 		.word	Setpoint
 769 00e4 00000000 		.word	PendienteActual
 770 00e8 0000A041 		.word	1101004800
 771 00ec 0000A040 		.word	1084227584
 772 00f0 00000000 		.word	DifPendiente
 773              		.cfi_endproc
 774              	.LFE65:
 775              		.size	ActualizaRecta, .-ActualizaRecta
 776              		.global	__aeabi_fcmpeq
 777              		.global	__aeabi_ui2f
 778              		.global	__aeabi_fadd
 779              		.global	__aeabi_fcmplt
 780              		.global	__aeabi_fcmpge
 781              		.global	__aeabi_f2d
 782              		.global	__aeabi_dmul
 783              		.global	__aeabi_d2f
 784              		.global	__aeabi_fcmple
 785              		.global	__aeabi_fcmpgt
 786              		.global	__aeabi_i2d
 787              		.global	__aeabi_dadd
 788              		.global	__aeabi_dsub
 789              		.global	__aeabi_ddiv
 790              		.global	__aeabi_d2uiz
 791              		.section	.text.Controla,"ax",%progbits
 792              		.align	2
 793              		.global	Controla
 794              		.thumb
 795              		.thumb_func
 796              		.type	Controla, %function
 797              	Controla:
 798              	.LFB66:
ARM GAS  C:\Users\USUARIO\AppData\Local\Temp\ccdk1rSB.s 			page 24


 120:main.c        **** //-------------------------------Control de Calentamiento------------------------------------------
 799              		.loc 1 120 0
 800              		.cfi_startproc
 801              		@ args = 0, pretend = 0, frame = 0
 802              		@ frame_needed = 0, uses_anonymous_args = 0
 803 0000 2DE9F047 		push	{r4, r5, r6, r7, r8, r9, r10, lr}
 804              		.cfi_def_cfa_offset 32
 805              		.cfi_offset 4, -32
 806              		.cfi_offset 5, -28
 807              		.cfi_offset 6, -24
 808              		.cfi_offset 7, -20
 809              		.cfi_offset 8, -16
 810              		.cfi_offset 9, -12
 811              		.cfi_offset 10, -8
 812              		.cfi_offset 14, -4
 813              	.LVL16:
 124:main.c        ****         if(tiemporecta>=10){
 814              		.loc 1 124 0
 815 0004 0021     		movs	r1, #0
 816 0006 8D4B     		ldr	r3, .L147
 817 0008 1868     		ldr	r0, [r3]	@ float
 818 000a FFF7FEFF 		bl	__aeabi_fcmpeq
 819              	.LVL17:
 820 000e 48B9     		cbnz	r0, .L141
 125:main.c        ****             ActualizaRecta();
 821              		.loc 1 125 0
 822 0010 8B4B     		ldr	r3, .L147+4
 823 0012 1B88     		ldrh	r3, [r3]
 824 0014 092B     		cmp	r3, #9
 825 0016 11D9     		bls	.L55
 126:main.c        ****             tiemporecta=0;
 826              		.loc 1 126 0
 827 0018 FFF7FEFF 		bl	ActualizaRecta
 828              	.LVL18:
 127:main.c        ****         }
 829              		.loc 1 127 0
 830 001c 0022     		movs	r2, #0
 831 001e 884B     		ldr	r3, .L147+4
 832 0020 1A80     		strh	r2, [r3]	@ movhi
 833 0022 0BE0     		b	.L55
 834              	.L141:
 130:main.c        ****             ActualizaRecta();
 835              		.loc 1 130 0
 836 0024 874B     		ldr	r3, .L147+8
 837 0026 1A78     		ldrb	r2, [r3]	@ zero_extendqisi2
 838 0028 854B     		ldr	r3, .L147+4
 839 002a 1B88     		ldrh	r3, [r3]
 840 002c B3EB520F 		cmp	r3, r2, lsr #1
 841 0030 04D3     		bcc	.L55
 131:main.c        ****             tiemporecta=0;
 842              		.loc 1 131 0
 843 0032 FFF7FEFF 		bl	ActualizaRecta
 844              	.LVL19:
 132:main.c        ****         }   
 845              		.loc 1 132 0
 846 0036 0022     		movs	r2, #0
 847 0038 814B     		ldr	r3, .L147+4
ARM GAS  C:\Users\USUARIO\AppData\Local\Temp\ccdk1rSB.s 			page 25


 848 003a 1A80     		strh	r2, [r3]	@ movhi
 849              	.L55:
 136:main.c        ****          if(flag_calcula==0){
 850              		.loc 1 136 0
 851 003c 824B     		ldr	r3, .L147+12
 852 003e 1C78     		ldrb	r4, [r3]	@ zero_extendqisi2
 853 0040 002C     		cmp	r4, #0
 854 0042 65D1     		bne	.L56
 137:main.c        ****             Tiempo=(Horas1[ProgramaSeleccionado*Pasos]*3600)+(Minutos1[ProgramaSeleccionado*Pasos]*
 855              		.loc 1 137 0
 856 0044 814B     		ldr	r3, .L147+16
 857 0046 B3F90030 		ldrsh	r3, [r3]
 858 004a 002B     		cmp	r3, #0
 859 004c 40F0BF80 		bne	.L57
 138:main.c        ****             Setpoint=Temperatura1[(ProgramaSeleccionado*Pasos)+Segmento];
 860              		.loc 1 138 0
 861 0050 7F4B     		ldr	r3, .L147+20
 862 0052 1E78     		ldrb	r6, [r3]	@ zero_extendqisi2
 863 0054 3601     		lsls	r6, r6, #4
 864 0056 DFF82882 		ldr	r8, .L147+68
 865 005a 38F91630 		ldrsh	r3, [r8, r6, lsl #1]
 866 005e 7D4F     		ldr	r7, .L147+24
 867 0060 37F91620 		ldrsh	r2, [r7, r6, lsl #1]
 868 0064 C3EB0313 		rsb	r3, r3, r3, lsl #4
 869 0068 C3EB0313 		rsb	r3, r3, r3, lsl #4
 870 006c 4FEA0319 		lsl	r9, r3, #4
 871 0070 C2EB0213 		rsb	r3, r2, r2, lsl #4
 872 0074 9A00     		lsls	r2, r3, #2
 873 0076 9144     		add	r9, r9, r2
 874 0078 1FFA89F9 		uxth	r9, r9
 875 007c 764B     		ldr	r3, .L147+28
 876 007e A3F80090 		strh	r9, [r3]	@ movhi
 139:main.c        ****             Pendiente=(((float)Setpoint-TempeInicial)/(float)Tiempo);
 877              		.loc 1 139 0
 878 0082 2644     		add	r6, r6, r4
 879 0084 754B     		ldr	r3, .L147+32
 880 0086 33F81650 		ldrh	r5, [r3, r6, lsl #1]
 881 008a 754B     		ldr	r3, .L147+36
 882 008c 1D80     		strh	r5, [r3]	@ movhi
 140:main.c        ****             Testerilizacionp[3]=(uint8)Horas1[(ProgramaSeleccionado*Pasos)+Segmento]/10;
 883              		.loc 1 140 0
 884 008e 2846     		mov	r0, r5
 885 0090 FFF7FEFF 		bl	__aeabi_ui2f
 886              	.LVL20:
 887 0094 734B     		ldr	r3, .L147+40
 888 0096 1968     		ldr	r1, [r3]	@ float
 889 0098 FFF7FEFF 		bl	__aeabi_fsub
 890              	.LVL21:
 891 009c 8246     		mov	r10, r0
 892 009e 4846     		mov	r0, r9
 893 00a0 FFF7FEFF 		bl	__aeabi_ui2f
 894              	.LVL22:
 895 00a4 0146     		mov	r1, r0
 896 00a6 5046     		mov	r0, r10
 897 00a8 FFF7FEFF 		bl	__aeabi_fdiv
 898              	.LVL23:
 899 00ac 634B     		ldr	r3, .L147
ARM GAS  C:\Users\USUARIO\AppData\Local\Temp\ccdk1rSB.s 			page 26


 900 00ae 1860     		str	r0, [r3]	@ float
 141:main.c        ****             Testerilizacionp[2]=Horas1[(ProgramaSeleccionado*Pasos)+Segmento]-(Testerilizacionp[3]*
 901              		.loc 1 141 0
 902 00b0 18F81600 		ldrb	r0, [r8, r6, lsl #1]	@ zero_extendqisi2
 903 00b4 6C4B     		ldr	r3, .L147+44
 904 00b6 A3FB0023 		umull	r2, r3, r3, r0
 905 00ba DB08     		lsrs	r3, r3, #3
 906 00bc 6B49     		ldr	r1, .L147+48
 907 00be CB75     		strb	r3, [r1, #23]
 142:main.c        ****             Testerilizacionp[1]=Minutos1[(ProgramaSeleccionado*Pasos)+Segmento]/10;
 908              		.loc 1 142 0
 909 00c0 C3EB4312 		rsb	r2, r3, r3, lsl #5
 910 00c4 C3EB8203 		rsb	r3, r3, r2, lsl #2
 911 00c8 5A00     		lsls	r2, r3, #1
 912 00ca 0244     		add	r2, r2, r0
 913 00cc 8A75     		strb	r2, [r1, #22]
 143:main.c        ****             Testerilizacionp[0]=Minutos1[(ProgramaSeleccionado*Pasos)+Segmento]-(Testerilizacionp[1
 914              		.loc 1 143 0
 915 00ce 37F91620 		ldrsh	r2, [r7, r6, lsl #1]
 916 00d2 674B     		ldr	r3, .L147+52
 917 00d4 83FB0230 		smull	r3, r0, r3, r2
 918 00d8 D317     		asrs	r3, r2, #31
 919 00da C3EBA003 		rsb	r3, r3, r0, asr #2
 920 00de 5BB2     		sxtb	r3, r3
 921 00e0 4B75     		strb	r3, [r1, #21]
 144:main.c        ****             flag_calcula=1;
 922              		.loc 1 144 0
 923 00e2 C3EB4310 		rsb	r0, r3, r3, lsl #5
 924 00e6 C3EB8003 		rsb	r3, r3, r0, lsl #2
 925 00ea 5800     		lsls	r0, r3, #1
 926 00ec 0244     		add	r2, r2, r0
 927 00ee 0A75     		strb	r2, [r1, #20]
 145:main.c        ****             Ganancia=GananciaIn*(Setpoint/Coeficiente);
 928              		.loc 1 145 0
 929 00f0 0122     		movs	r2, #1
 930 00f2 564B     		ldr	r3, .L147+16
 931 00f4 1A80     		strh	r2, [r3]	@ movhi
 146:main.c        ****          }
 932              		.loc 1 146 0
 933 00f6 5F4B     		ldr	r3, .L147+56
 934 00f8 1888     		ldrh	r0, [r3]
 935 00fa B5FBF0F0 		udiv	r0, r5, r0
 936 00fe FFF7FEFF 		bl	__aeabi_i2f
 937              	.LVL24:
 938 0102 5D4B     		ldr	r3, .L147+60
 939 0104 1968     		ldr	r1, [r3]	@ float
 940 0106 FFF7FEFF 		bl	__aeabi_fmul
 941              	.LVL25:
 942 010a 5C4B     		ldr	r3, .L147+64
 943 010c 1860     		str	r0, [r3]	@ float
 944 010e 5EE0     		b	.L57
 945              	.L56:
 149:main.c        ****             Tiempo=(Horas1[(ProgramaSeleccionado*Pasos)+Segmento]*3600)+(Minutos1[(ProgramaSeleccio
 946              		.loc 1 149 0
 947 0110 4E4B     		ldr	r3, .L147+16
 948 0112 B3F90030 		ldrsh	r3, [r3]
 949 0116 002B     		cmp	r3, #0
ARM GAS  C:\Users\USUARIO\AppData\Local\Temp\ccdk1rSB.s 			page 27


 950 0118 59D1     		bne	.L57
 150:main.c        ****             Pendiente=((float)(Temperatura1[(ProgramaSeleccionado*Pasos)+Segmento]-Temperatura1[(Pr
 951              		.loc 1 150 0
 952 011a 4D4B     		ldr	r3, .L147+20
 953 011c 1B78     		ldrb	r3, [r3]	@ zero_extendqisi2
 954 011e 04EB0313 		add	r3, r4, r3, lsl #4
 955 0122 574A     		ldr	r2, .L147+68
 956 0124 32F91370 		ldrsh	r7, [r2, r3, lsl #1]
 957 0128 4A4A     		ldr	r2, .L147+24
 958 012a 32F91350 		ldrsh	r5, [r2, r3, lsl #1]
 959 012e C7EB0712 		rsb	r2, r7, r7, lsl #4
 960 0132 C2EB0212 		rsb	r2, r2, r2, lsl #4
 961 0136 1601     		lsls	r6, r2, #4
 962 0138 C5EB0511 		rsb	r1, r5, r5, lsl #4
 963 013c 8A00     		lsls	r2, r1, #2
 964 013e 1644     		add	r6, r6, r2
 965 0140 B6B2     		uxth	r6, r6
 966 0142 454A     		ldr	r2, .L147+28
 967 0144 1680     		strh	r6, [r2]	@ movhi
 151:main.c        ****             Setpoint=Temperatura1[(ProgramaSeleccionado*Pasos)+Segmento];
 968              		.loc 1 151 0
 969 0146 454A     		ldr	r2, .L147+32
 970 0148 32F91380 		ldrsh	r8, [r2, r3, lsl #1]
 971 014c 013B     		subs	r3, r3, #1
 972 014e 32F91300 		ldrsh	r0, [r2, r3, lsl #1]
 973 0152 C0EB0800 		rsb	r0, r0, r8
 974 0156 FFF7FEFF 		bl	__aeabi_i2f
 975              	.LVL26:
 976 015a 8146     		mov	r9, r0
 977 015c 3046     		mov	r0, r6
 978 015e FFF7FEFF 		bl	__aeabi_ui2f
 979              	.LVL27:
 980 0162 0146     		mov	r1, r0
 981 0164 4846     		mov	r0, r9
 982 0166 FFF7FEFF 		bl	__aeabi_fdiv
 983              	.LVL28:
 984 016a 344B     		ldr	r3, .L147
 985 016c 1860     		str	r0, [r3]	@ float
 152:main.c        ****             Testerilizacionp[3]=(uint8)Horas1[(ProgramaSeleccionado*Pasos)+Segmento]/10;
 986              		.loc 1 152 0
 987 016e 1FFA88F1 		uxth	r1, r8
 988 0172 3B4B     		ldr	r3, .L147+36
 989 0174 1980     		strh	r1, [r3]	@ movhi
 153:main.c        ****             Testerilizacionp[2]=Horas1[(ProgramaSeleccionado*Pasos)+Segmento]-(Testerilizacionp[3]*
 990              		.loc 1 153 0
 991 0176 FAB2     		uxtb	r2, r7
 992 0178 3B4B     		ldr	r3, .L147+44
 993 017a A3FB0203 		umull	r0, r3, r3, r2
 994 017e DB08     		lsrs	r3, r3, #3
 995 0180 3A4E     		ldr	r6, .L147+48
 996 0182 F375     		strb	r3, [r6, #23]
 154:main.c        ****             Testerilizacionp[1]=Minutos1[(ProgramaSeleccionado*Pasos)+Segmento]/10;
 997              		.loc 1 154 0
 998 0184 C3EB4310 		rsb	r0, r3, r3, lsl #5
 999 0188 C3EB8003 		rsb	r3, r3, r0, lsl #2
 1000 018c 5800     		lsls	r0, r3, #1
 1001 018e 0244     		add	r2, r2, r0
ARM GAS  C:\Users\USUARIO\AppData\Local\Temp\ccdk1rSB.s 			page 28


 1002 0190 B275     		strb	r2, [r6, #22]
 155:main.c        ****             Testerilizacionp[0]=Minutos1[(ProgramaSeleccionado*Pasos)+Segmento]-(Testerilizacionp[1
 1003              		.loc 1 155 0
 1004 0192 374B     		ldr	r3, .L147+52
 1005 0194 83FB0532 		smull	r3, r2, r3, r5
 1006 0198 EB17     		asrs	r3, r5, #31
 1007 019a C3EBA203 		rsb	r3, r3, r2, asr #2
 1008 019e 5BB2     		sxtb	r3, r3
 1009 01a0 7375     		strb	r3, [r6, #21]
 156:main.c        ****             flag_calcula=1;
 1010              		.loc 1 156 0
 1011 01a2 C3EB4312 		rsb	r2, r3, r3, lsl #5
 1012 01a6 C3EB8203 		rsb	r3, r3, r2, lsl #2
 1013 01aa 5A00     		lsls	r2, r3, #1
 1014 01ac 1544     		add	r5, r5, r2
 1015 01ae 3575     		strb	r5, [r6, #20]
 157:main.c        ****             Ganancia=GananciaIn*(Setpoint/Coeficiente);
 1016              		.loc 1 157 0
 1017 01b0 0122     		movs	r2, #1
 1018 01b2 264B     		ldr	r3, .L147+16
 1019 01b4 1A80     		strh	r2, [r3]	@ movhi
 158:main.c        ****          }
 1020              		.loc 1 158 0
 1021 01b6 2F4B     		ldr	r3, .L147+56
 1022 01b8 1888     		ldrh	r0, [r3]
 1023 01ba B1FBF0F0 		udiv	r0, r1, r0
 1024 01be FFF7FEFF 		bl	__aeabi_i2f
 1025              	.LVL29:
 1026 01c2 2D4B     		ldr	r3, .L147+60
 1027 01c4 1968     		ldr	r1, [r3]	@ float
 1028 01c6 FFF7FEFF 		bl	__aeabi_fmul
 1029              	.LVL30:
 1030 01ca 2C4B     		ldr	r3, .L147+64
 1031 01cc 1860     		str	r0, [r3]	@ float
 1032              	.L57:
 163:main.c        ****       //TiempoRampa=((HorasActual*3600)+(MinutosActual*60)+tinicio);
 1033              		.loc 1 163 0
 1034 01ce 1B4B     		ldr	r3, .L147
 1035 01d0 1D68     		ldr	r5, [r3]	@ float
 1036 01d2 0021     		movs	r1, #0
 1037 01d4 2846     		mov	r0, r5
 1038 01d6 FFF7FEFF 		bl	__aeabi_fcmpeq
 1039              	.LVL31:
 1040 01da 0028     		cmp	r0, #0
 1041 01dc 40F0F980 		bne	.L142
 165:main.c        ****       if(Segmento==0){
 1042              		.loc 1 165 0
 1043 01e0 2248     		ldr	r0, .L147+48
 1044 01e2 90F90720 		ldrsb	r2, [r0, #7]
 1045 01e6 02EB8202 		add	r2, r2, r2, lsl #2
 1046 01ea 5300     		lsls	r3, r2, #1
 1047 01ec 90F90620 		ldrsb	r2, [r0, #6]
 1048 01f0 1344     		add	r3, r3, r2
 1049 01f2 90F90510 		ldrsb	r1, [r0, #5]
 1050 01f6 01EB8101 		add	r1, r1, r1, lsl #2
 1051 01fa 4A00     		lsls	r2, r1, #1
 1052 01fc 90F90410 		ldrsb	r1, [r0, #4]
ARM GAS  C:\Users\USUARIO\AppData\Local\Temp\ccdk1rSB.s 			page 29


 1053 0200 0A44     		add	r2, r2, r1
 1054 0202 C3EB0313 		rsb	r3, r3, r3, lsl #4
 1055 0206 C3EB0313 		rsb	r3, r3, r3, lsl #4
 1056 020a 1801     		lsls	r0, r3, #4
 1057 020c C2EB0213 		rsb	r3, r2, r2, lsl #4
 1058 0210 9A00     		lsls	r2, r3, #2
 1059 0212 1044     		add	r0, r0, r2
 1060 0214 1B4B     		ldr	r3, .L147+72
 1061 0216 1B88     		ldrh	r3, [r3]
 1062 0218 1844     		add	r0, r0, r3
 1063 021a 80B2     		uxth	r0, r0
 1064 021c 1A4B     		ldr	r3, .L147+76
 1065 021e 1880     		strh	r0, [r3]	@ movhi
 166:main.c        ****          TemperaturaIdeal=(Pendiente*TiempoRampa)+TempeInicial;
 1066              		.loc 1 166 0
 1067 0220 B4BB     		cbnz	r4, .L60
 167:main.c        ****       }else{
 1068              		.loc 1 167 0
 1069 0222 FFF7FEFF 		bl	__aeabi_i2f
 1070              	.LVL32:
 1071 0226 2946     		mov	r1, r5
 1072 0228 FFF7FEFF 		bl	__aeabi_fmul
 1073              	.LVL33:
 1074 022c 0D4B     		ldr	r3, .L147+40
 1075 022e 1968     		ldr	r1, [r3]	@ float
 1076 0230 FFF7FEFF 		bl	__aeabi_fadd
 1077              	.LVL34:
 1078 0234 154B     		ldr	r3, .L147+80
 1079 0236 1860     		str	r0, [r3]	@ float
 1080 0238 3FE0     		b	.L61
 1081              	.L148:
 1082 023a 00BF     		.align	2
 1083              	.L147:
 1084 023c 00000000 		.word	Pendiente
 1085 0240 00000000 		.word	tiemporecta
 1086 0244 00000000 		.word	Derivativo
 1087 0248 00000000 		.word	Segmento
 1088 024c 00000000 		.word	flag_calcula
 1089 0250 00000000 		.word	ProgramaSeleccionado
 1090 0254 00000000 		.word	Minutos1
 1091 0258 00000000 		.word	Tiempo
 1092 025c 00000000 		.word	Temperatura1
 1093 0260 00000000 		.word	Setpoint
 1094 0264 00000000 		.word	TempeInicial
 1095 0268 CDCCCCCC 		.word	-858993459
 1096 026c 00000000 		.word	.LANCHOR0
 1097 0270 67666666 		.word	1717986919
 1098 0274 00000000 		.word	Coeficiente
 1099 0278 00000000 		.word	GananciaIn
 1100 027c 00000000 		.word	Ganancia
 1101 0280 00000000 		.word	Horas1
 1102 0284 00000000 		.word	tinicio
 1103 0288 00000000 		.word	TiempoRampa
 1104 028c 00000000 		.word	TemperaturaIdeal
 1105              	.L60:
 169:main.c        ****       }
 1106              		.loc 1 169 0
ARM GAS  C:\Users\USUARIO\AppData\Local\Temp\ccdk1rSB.s 			page 30


 1107 0290 FFF7FEFF 		bl	__aeabi_i2f
 1108              	.LVL35:
 1109 0294 2946     		mov	r1, r5
 1110 0296 FFF7FEFF 		bl	__aeabi_fmul
 1111              	.LVL36:
 1112 029a 0546     		mov	r5, r0
 1113 029c 864B     		ldr	r3, .L149+32
 1114 029e 1B78     		ldrb	r3, [r3]	@ zero_extendqisi2
 1115 02a0 04EB0314 		add	r4, r4, r3, lsl #4
 1116 02a4 013C     		subs	r4, r4, #1
 1117 02a6 854B     		ldr	r3, .L149+36
 1118 02a8 33F91400 		ldrsh	r0, [r3, r4, lsl #1]
 1119 02ac FFF7FEFF 		bl	__aeabi_i2f
 1120              	.LVL37:
 1121 02b0 2946     		mov	r1, r5
 1122 02b2 FFF7FEFF 		bl	__aeabi_fadd
 1123              	.LVL38:
 1124 02b6 824B     		ldr	r3, .L149+40
 1125 02b8 1860     		str	r0, [r3]	@ float
 1126              	.L61:
 171:main.c        **** // Pendiente determinar si el comportamiento de la mufla es lineal 10°C/min o si tiene un comporta
 1127              		.loc 1 171 0
 1128 02ba 824B     		ldr	r3, .L149+44
 1129 02bc 1C68     		ldr	r4, [r3]	@ float
 1130 02be 2146     		mov	r1, r4
 1131 02c0 7F4B     		ldr	r3, .L149+40
 1132 02c2 1868     		ldr	r0, [r3]	@ float
 1133 02c4 FFF7FEFF 		bl	__aeabi_fsub
 1134              	.LVL39:
 1135 02c8 7F49     		ldr	r1, .L149+48
 1136 02ca FFF7FEFF 		bl	__aeabi_fmul
 1137              	.LVL40:
 1138 02ce 7F4B     		ldr	r3, .L149+52
 1139 02d0 1968     		ldr	r1, [r3]	@ float
 1140 02d2 FFF7FEFF 		bl	__aeabi_fdiv
 1141              	.LVL41:
 1142 02d6 0546     		mov	r5, r0
 1143 02d8 7D4B     		ldr	r3, .L149+56
 1144 02da 1860     		str	r0, [r3]	@ float
 174:main.c        ****          penMufla=penInicial*0.9;
 1145              		.loc 1 174 0
 1146 02dc 7D49     		ldr	r1, .L149+60
 1147 02de 2046     		mov	r0, r4
 1148 02e0 FFF7FEFF 		bl	__aeabi_fcmplt
 1149              	.LVL42:
 1150 02e4 88B1     		cbz	r0, .L62
 174:main.c        ****          penMufla=penInicial*0.9;
 1151              		.loc 1 174 0 is_stmt 0 discriminator 1
 1152 02e6 7C49     		ldr	r1, .L149+64
 1153 02e8 2046     		mov	r0, r4
 1154 02ea FFF7FEFF 		bl	__aeabi_fcmpge
 1155              	.LVL43:
 1156 02ee 60B1     		cbz	r0, .L62
 175:main.c        ****          
 1157              		.loc 1 175 0 is_stmt 1
 1158 02f0 7A4B     		ldr	r3, .L149+68
 1159 02f2 1868     		ldr	r0, [r3]	@ float
ARM GAS  C:\Users\USUARIO\AppData\Local\Temp\ccdk1rSB.s 			page 31


 1160 02f4 FFF7FEFF 		bl	__aeabi_f2d
 1161              	.LVL44:
 1162 02f8 67A3     		adr	r3, .L149
 1163 02fa D3E90023 		ldrd	r2, [r3]
 1164 02fe FFF7FEFF 		bl	__aeabi_dmul
 1165              	.LVL45:
 1166 0302 FFF7FEFF 		bl	__aeabi_d2f
 1167              	.LVL46:
 1168 0306 714B     		ldr	r3, .L149+52
 1169 0308 1860     		str	r0, [r3]	@ float
 1170              	.L62:
 177:main.c        ****          penMufla=penInicial*0.8;
 1171              		.loc 1 177 0
 1172 030a 7549     		ldr	r1, .L149+72
 1173 030c 2046     		mov	r0, r4
 1174 030e FFF7FEFF 		bl	__aeabi_fcmplt
 1175              	.LVL47:
 1176 0312 88B1     		cbz	r0, .L65
 177:main.c        ****          penMufla=penInicial*0.8;
 1177              		.loc 1 177 0 is_stmt 0 discriminator 1
 1178 0314 6F49     		ldr	r1, .L149+60
 1179 0316 2046     		mov	r0, r4
 1180 0318 FFF7FEFF 		bl	__aeabi_fcmpge
 1181              	.LVL48:
 1182 031c 60B1     		cbz	r0, .L65
 178:main.c        ****          
 1183              		.loc 1 178 0 is_stmt 1
 1184 031e 6F4B     		ldr	r3, .L149+68
 1185 0320 1868     		ldr	r0, [r3]	@ float
 1186 0322 FFF7FEFF 		bl	__aeabi_f2d
 1187              	.LVL49:
 1188 0326 5EA3     		adr	r3, .L149+8
 1189 0328 D3E90023 		ldrd	r2, [r3]
 1190 032c FFF7FEFF 		bl	__aeabi_dmul
 1191              	.LVL50:
 1192 0330 FFF7FEFF 		bl	__aeabi_d2f
 1193              	.LVL51:
 1194 0334 654B     		ldr	r3, .L149+52
 1195 0336 1860     		str	r0, [r3]	@ float
 1196              	.L65:
 180:main.c        ****          penMufla=penInicial*0.7;  
 1197              		.loc 1 180 0
 1198 0338 6A49     		ldr	r1, .L149+76
 1199 033a 2046     		mov	r0, r4
 1200 033c FFF7FEFF 		bl	__aeabi_fcmplt
 1201              	.LVL52:
 1202 0340 88B1     		cbz	r0, .L68
 180:main.c        ****          penMufla=penInicial*0.7;  
 1203              		.loc 1 180 0 is_stmt 0 discriminator 1
 1204 0342 6749     		ldr	r1, .L149+72
 1205 0344 2046     		mov	r0, r4
 1206 0346 FFF7FEFF 		bl	__aeabi_fcmpge
 1207              	.LVL53:
 1208 034a 60B1     		cbz	r0, .L68
 181:main.c        ****          
 1209              		.loc 1 181 0 is_stmt 1
 1210 034c 634B     		ldr	r3, .L149+68
ARM GAS  C:\Users\USUARIO\AppData\Local\Temp\ccdk1rSB.s 			page 32


 1211 034e 1868     		ldr	r0, [r3]	@ float
 1212 0350 FFF7FEFF 		bl	__aeabi_f2d
 1213              	.LVL54:
 1214 0354 54A3     		adr	r3, .L149+16
 1215 0356 D3E90023 		ldrd	r2, [r3]
 1216 035a FFF7FEFF 		bl	__aeabi_dmul
 1217              	.LVL55:
 1218 035e FFF7FEFF 		bl	__aeabi_d2f
 1219              	.LVL56:
 1220 0362 5A4B     		ldr	r3, .L149+52
 1221 0364 1860     		str	r0, [r3]	@ float
 1222              	.L68:
 183:main.c        ****          penMufla=penInicial*0.6;   
 1223              		.loc 1 183 0
 1224 0366 6049     		ldr	r1, .L149+80
 1225 0368 2046     		mov	r0, r4
 1226 036a FFF7FEFF 		bl	__aeabi_fcmple
 1227              	.LVL57:
 1228 036e 88B1     		cbz	r0, .L71
 183:main.c        ****          penMufla=penInicial*0.6;   
 1229              		.loc 1 183 0 is_stmt 0 discriminator 1
 1230 0370 5C49     		ldr	r1, .L149+76
 1231 0372 2046     		mov	r0, r4
 1232 0374 FFF7FEFF 		bl	__aeabi_fcmpge
 1233              	.LVL58:
 1234 0378 60B1     		cbz	r0, .L71
 184:main.c        ****       
 1235              		.loc 1 184 0 is_stmt 1
 1236 037a 584B     		ldr	r3, .L149+68
 1237 037c 1868     		ldr	r0, [r3]	@ float
 1238 037e FFF7FEFF 		bl	__aeabi_f2d
 1239              	.LVL59:
 1240 0382 4BA3     		adr	r3, .L149+24
 1241 0384 D3E90023 		ldrd	r2, [r3]
 1242 0388 FFF7FEFF 		bl	__aeabi_dmul
 1243              	.LVL60:
 1244 038c FFF7FEFF 		bl	__aeabi_d2f
 1245              	.LVL61:
 1246 0390 4E4B     		ldr	r3, .L149+52
 1247 0392 1860     		str	r0, [r3]	@ float
 1248              	.L71:
 186:main.c        ****          PotenciaEntregada=100.0;
 1249              		.loc 1 186 0
 1250 0394 4C49     		ldr	r1, .L149+48
 1251 0396 2846     		mov	r0, r5
 1252 0398 FFF7FEFF 		bl	__aeabi_fcmpgt
 1253              	.LVL62:
 1254 039c 10B1     		cbz	r0, .L74
 187:main.c        ****       }
 1255              		.loc 1 187 0
 1256 039e 4A4A     		ldr	r2, .L149+48
 1257 03a0 4B4B     		ldr	r3, .L149+56
 1258 03a2 1A60     		str	r2, [r3]	@ float
 1259              	.L74:
 190:main.c        ****          PotenciaEntregada=0;
 1260              		.loc 1 190 0
 1261 03a4 0021     		movs	r1, #0
ARM GAS  C:\Users\USUARIO\AppData\Local\Temp\ccdk1rSB.s 			page 33


 1262 03a6 4A4B     		ldr	r3, .L149+56
 1263 03a8 1868     		ldr	r0, [r3]	@ float
 1264 03aa FFF7FEFF 		bl	__aeabi_fcmplt
 1265              	.LVL63:
 1266 03ae 10B1     		cbz	r0, .L76
 191:main.c        ****       }
 1267              		.loc 1 191 0
 1268 03b0 0022     		movs	r2, #0
 1269 03b2 474B     		ldr	r3, .L149+56
 1270 03b4 1A60     		str	r2, [r3]	@ float
 1271              	.L76:
 194:main.c        ****    }else{
 1272              		.loc 1 194 0
 1273 03b6 4D4B     		ldr	r3, .L149+84
 1274 03b8 1878     		ldrb	r0, [r3]	@ zero_extendqisi2
 1275 03ba FFF7FEFF 		bl	__aeabi_i2f
 1276              	.LVL64:
 1277 03be 444B     		ldr	r3, .L149+56
 1278 03c0 1968     		ldr	r1, [r3]	@ float
 1279 03c2 FFF7FEFF 		bl	__aeabi_fmul
 1280              	.LVL65:
 1281 03c6 4049     		ldr	r1, .L149+48
 1282 03c8 FFF7FEFF 		bl	__aeabi_fdiv
 1283              	.LVL66:
 1284 03cc 484B     		ldr	r3, .L149+88
 1285 03ce 1860     		str	r0, [r3]	@ float
 1286 03d0 82E1     		b	.L78
 1287              	.L142:
 197:main.c        ****       
 1288              		.loc 1 197 0
 1289 03d2 484B     		ldr	r3, .L149+92
 1290 03d4 1F88     		ldrh	r7, [r3]
 1291 03d6 3846     		mov	r0, r7
 1292 03d8 FFF7FEFF 		bl	__aeabi_i2d
 1293              	.LVL67:
 1294 03dc 0022     		movs	r2, #0
 1295 03de 464B     		ldr	r3, .L149+96
 1296 03e0 FFF7FEFF 		bl	__aeabi_dadd
 1297              	.LVL68:
 1298 03e4 0446     		mov	r4, r0
 1299 03e6 0D46     		mov	r5, r1
 1300 03e8 364B     		ldr	r3, .L149+44
 1301 03ea 1868     		ldr	r0, [r3]	@ float
 1302 03ec FFF7FEFF 		bl	__aeabi_f2d
 1303              	.LVL69:
 1304 03f0 0246     		mov	r2, r0
 1305 03f2 0B46     		mov	r3, r1
 1306 03f4 2046     		mov	r0, r4
 1307 03f6 2946     		mov	r1, r5
 1308 03f8 FFF7FEFF 		bl	__aeabi_dsub
 1309              	.LVL70:
 1310 03fc FFF7FEFF 		bl	__aeabi_d2f
 1311              	.LVL71:
 1312 0400 0446     		mov	r4, r0
 1313 0402 3E4B     		ldr	r3, .L149+100
 1314 0404 1860     		str	r0, [r3]	@ float
 199:main.c        ****          flag_ajuste=0;
ARM GAS  C:\Users\USUARIO\AppData\Local\Temp\ccdk1rSB.s 			page 34


 1315              		.loc 1 199 0
 1316 0406 4FF08241 		mov	r1, #1090519040
 1317 040a FFF7FEFF 		bl	__aeabi_fcmpge
 1318              	.LVL72:
 1319 040e 0028     		cmp	r0, #0
 1320 0410 00F09F80 		beq	.L79
 199:main.c        ****          flag_ajuste=0;
 1321              		.loc 1 199 0 is_stmt 0 discriminator 1
 1322 0414 3A4B     		ldr	r3, .L149+104
 1323 0416 1D68     		ldr	r5, [r3]	@ float
 1324 0418 4FF07E51 		mov	r1, #1065353216
 1325 041c 2846     		mov	r0, r5
 1326 041e FFF7FEFF 		bl	__aeabi_fcmplt
 1327              	.LVL73:
 1328 0422 0028     		cmp	r0, #0
 1329 0424 00F09580 		beq	.L79
 200:main.c        ****          flag_ajuste2=0;
 1330              		.loc 1 200 0 is_stmt 1
 1331 0428 0023     		movs	r3, #0
 1332 042a 364A     		ldr	r2, .L149+108
 1333 042c 1380     		strh	r3, [r2]	@ movhi
 201:main.c        ****          if(Potencia<90.0){
 1334              		.loc 1 201 0
 1335 042e 364A     		ldr	r2, .L149+112
 1336 0430 1380     		strh	r3, [r2]	@ movhi
 202:main.c        ****             if(TiempoControl>=Derivativo){
 1337              		.loc 1 202 0
 1338 0432 3649     		ldr	r1, .L149+116
 1339 0434 364B     		ldr	r3, .L149+120
 1340 0436 1868     		ldr	r0, [r3]	@ float
 1341 0438 FFF7FEFF 		bl	__aeabi_fcmplt
 1342              	.LVL74:
 1343 043c 0028     		cmp	r0, #0
 1344 043e 00F08880 		beq	.L79
 203:main.c        ****                TiempoControl=0;
 1345              		.loc 1 203 0
 1346 0442 344B     		ldr	r3, .L149+124
 1347 0444 1A78     		ldrb	r2, [r3]	@ zero_extendqisi2
 1348 0446 344B     		ldr	r3, .L149+128
 1349 0448 1B88     		ldrh	r3, [r3]
 1350 044a 9A42     		cmp	r2, r3
 1351 044c 00F28180 		bhi	.L79
 204:main.c        ****                if(Aumento<-2){
 1352              		.loc 1 204 0
 1353 0450 0022     		movs	r2, #0
 1354 0452 314B     		ldr	r3, .L149+128
 1355 0454 1A80     		strh	r2, [r3]	@ movhi
 205:main.c        ****                   Ganancia+=Integral+1;
 1356              		.loc 1 205 0
 1357 0456 4FF04041 		mov	r1, #-1073741824
 1358 045a 2846     		mov	r0, r5
 1359 045c FFF7FEFF 		bl	__aeabi_fcmplt
 1360              	.LVL75:
 1361 0460 50B1     		cbz	r0, .L143
 206:main.c        ****                }else{
 1362              		.loc 1 206 0
 1363 0462 2E4B     		ldr	r3, .L149+132
ARM GAS  C:\Users\USUARIO\AppData\Local\Temp\ccdk1rSB.s 			page 35


 1364 0464 1878     		ldrb	r0, [r3]	@ zero_extendqisi2
 1365 0466 2E4D     		ldr	r5, .L149+136
 1366 0468 0130     		adds	r0, r0, #1
 1367 046a FFF7FEFF 		bl	__aeabi_i2f
 1368              	.LVL76:
 1369 046e 2968     		ldr	r1, [r5]	@ float
 1370 0470 FFF7FEFF 		bl	__aeabi_fadd
 1371              	.LVL77:
 1372 0474 2860     		str	r0, [r5]	@ float
 1373 0476 6CE0     		b	.L79
 1374              	.L143:
 208:main.c        ****                      Ganancia+=Integral;
 1375              		.loc 1 208 0
 1376 0478 2A49     		ldr	r1, .L149+140
 1377 047a 2846     		mov	r0, r5
 1378 047c FFF7FEFF 		bl	__aeabi_fcmplt
 1379              	.LVL78:
 1380 0480 0028     		cmp	r0, #0
 1381 0482 51D0     		beq	.L144
 209:main.c        ****                   }else{
 1382              		.loc 1 209 0
 1383 0484 264D     		ldr	r5, .L149+136
 1384 0486 254B     		ldr	r3, .L149+132
 1385 0488 1878     		ldrb	r0, [r3]	@ zero_extendqisi2
 1386 048a FFF7FEFF 		bl	__aeabi_i2f
 1387              	.LVL79:
 1388 048e 2968     		ldr	r1, [r5]	@ float
 1389 0490 FFF7FEFF 		bl	__aeabi_fadd
 1390              	.LVL80:
 1391 0494 2860     		str	r0, [r5]	@ float
 1392 0496 5CE0     		b	.L79
 1393              	.L150:
 1394              		.align	3
 1395              	.L149:
 1396 0498 CDCCCCCC 		.word	-858993459
 1397 049c CCCCEC3F 		.word	1072483532
 1398 04a0 9A999999 		.word	-1717986918
 1399 04a4 9999E93F 		.word	1072273817
 1400 04a8 66666666 		.word	1717986918
 1401 04ac 6666E63F 		.word	1072064102
 1402 04b0 33333333 		.word	858993459
 1403 04b4 3333E33F 		.word	1071854387
 1404 04b8 00000000 		.word	ProgramaSeleccionado
 1405 04bc 00000000 		.word	Temperatura1
 1406 04c0 00000000 		.word	TemperaturaIdeal
 1407 04c4 00000000 		.word	Temperatura
 1408 04c8 0000C842 		.word	1120403456
 1409 04cc 00000000 		.word	.LANCHOR1
 1410 04d0 00000000 		.word	PotenciaEntregada
 1411 04d4 0000E143 		.word	1138819072
 1412 04d8 00004843 		.word	1128792064
 1413 04dc 00000000 		.word	penInicial
 1414 04e0 00001644 		.word	1142292480
 1415 04e4 00006144 		.word	1147207680
 1416 04e8 00009644 		.word	1150681088
 1417 04ec 00000000 		.word	Tciclo
 1418 04f0 00000000 		.word	Tpulso
ARM GAS  C:\Users\USUARIO\AppData\Local\Temp\ccdk1rSB.s 			page 36


 1419 04f4 00000000 		.word	Setpoint
 1420 04f8 00001440 		.word	1075052544
 1421 04fc 00000000 		.word	error
 1422 0500 00000000 		.word	Aumento
 1423 0504 00000000 		.word	flag_ajuste
 1424 0508 00000000 		.word	flag_ajuste2
 1425 050c 0000B442 		.word	1119092736
 1426 0510 00000000 		.word	Potencia
 1427 0514 00000000 		.word	Derivativo
 1428 0518 00000000 		.word	TiempoControl
 1429 051c 00000000 		.word	Integral
 1430 0520 00000000 		.word	Ganancia
 1431 0524 000080BF 		.word	-1082130432
 1432              	.L144:
 211:main.c        ****                   }
 1433              		.loc 1 211 0
 1434 0528 7F4B     		ldr	r3, .L151+16
 1435 052a 1878     		ldrb	r0, [r3]	@ zero_extendqisi2
 1436 052c FFF7FEFF 		bl	__aeabi_i2d
 1437              	.LVL81:
 1438 0530 0022     		movs	r2, #0
 1439 0532 7E4B     		ldr	r3, .L151+20
 1440 0534 FFF7FEFF 		bl	__aeabi_dsub
 1441              	.LVL82:
 1442 0538 8046     		mov	r8, r0
 1443 053a 8946     		mov	r9, r1
 1444 053c 7C4D     		ldr	r5, .L151+24
 1445 053e 2868     		ldr	r0, [r5]	@ float
 1446 0540 FFF7FEFF 		bl	__aeabi_f2d
 1447              	.LVL83:
 1448 0544 4246     		mov	r2, r8
 1449 0546 4B46     		mov	r3, r9
 1450 0548 FFF7FEFF 		bl	__aeabi_dadd
 1451              	.LVL84:
 1452 054c FFF7FEFF 		bl	__aeabi_d2f
 1453              	.LVL85:
 1454 0550 2860     		str	r0, [r5]	@ float
 1455              	.L79:
 218:main.c        ****          Ganancia=0.5;
 1456              		.loc 1 218 0
 1457 0552 4FF07C51 		mov	r1, #1056964608
 1458 0556 764B     		ldr	r3, .L151+24
 1459 0558 1868     		ldr	r0, [r3]	@ float
 1460 055a FFF7FEFF 		bl	__aeabi_fcmplt
 1461              	.LVL86:
 1462 055e 18B1     		cbz	r0, .L87
 219:main.c        ****       }
 1463              		.loc 1 219 0
 1464 0560 4FF07C52 		mov	r2, #1056964608
 1465 0564 724B     		ldr	r3, .L151+24
 1466 0566 1A60     		str	r2, [r3]	@ float
 1467              	.L87:
 226:main.c        ****             
 1468              		.loc 1 226 0
 1469 0568 714B     		ldr	r3, .L151+24
 1470 056a 1968     		ldr	r1, [r3]	@ float
 1471 056c 2046     		mov	r0, r4
ARM GAS  C:\Users\USUARIO\AppData\Local\Temp\ccdk1rSB.s 			page 37


 1472 056e FFF7FEFF 		bl	__aeabi_fmul
 1473              	.LVL87:
 1474 0572 0546     		mov	r5, r0
 1475              	.LVL88:
 228:main.c        ****          tmp=Setpoint;
 1476              		.loc 1 228 0
 1477 0574 3846     		mov	r0, r7
 1478              	.LVL89:
 1479 0576 FFF7FEFF 		bl	__aeabi_i2f
 1480              	.LVL90:
 1481 057a 0646     		mov	r6, r0
 1482 057c 0146     		mov	r1, r0
 1483 057e 2846     		mov	r0, r5
 1484 0580 FFF7FEFF 		bl	__aeabi_fcmpgt
 1485              	.LVL91:
 1486 0584 18B1     		cbz	r0, .L89
 229:main.c        ****                   
 1487              		.loc 1 229 0
 1488 0586 3846     		mov	r0, r7
 1489 0588 FFF7FEFF 		bl	__aeabi_ui2f
 1490              	.LVL92:
 1491 058c 0546     		mov	r5, r0
 1492              	.LVL93:
 1493              	.L89:
 231:main.c        ****          tmp=0.0;
 1494              		.loc 1 231 0
 1495 058e 0021     		movs	r1, #0
 1496 0590 2846     		mov	r0, r5
 1497 0592 FFF7FEFF 		bl	__aeabi_fcmplt
 1498              	.LVL94:
 1499 0596 00B1     		cbz	r0, .L91
 232:main.c        ****       
 1500              		.loc 1 232 0
 1501 0598 0025     		movs	r5, #0
 1502              	.LVL95:
 1503              	.L91:
 236:main.c        ****       
 1504              		.loc 1 236 0
 1505 059a 3146     		mov	r1, r6
 1506 059c 2846     		mov	r0, r5
 1507 059e FFF7FEFF 		bl	__aeabi_fdiv
 1508              	.LVL96:
 1509 05a2 0546     		mov	r5, r0
 1510              	.LVL97:
 1511 05a4 634B     		ldr	r3, .L151+28
 1512 05a6 1878     		ldrb	r0, [r3]	@ zero_extendqisi2
 1513 05a8 FFF7FEFF 		bl	__aeabi_i2f
 1514              	.LVL98:
 1515 05ac 2946     		mov	r1, r5
 1516 05ae FFF7FEFF 		bl	__aeabi_fmul
 1517              	.LVL99:
 1518 05b2 0546     		mov	r5, r0
 1519 05b4 604B     		ldr	r3, .L151+32
 1520 05b6 1860     		str	r0, [r3]	@ float
 238:main.c        ****          if(error<=(desvio+1) && error>0){   
 1521              		.loc 1 238 0
 1522 05b8 6049     		ldr	r1, .L151+36
ARM GAS  C:\Users\USUARIO\AppData\Local\Temp\ccdk1rSB.s 			page 38


 1523 05ba 2046     		mov	r0, r4
 1524 05bc FFF7FEFF 		bl	__aeabi_fcmplt
 1525              	.LVL100:
 1526 05c0 0028     		cmp	r0, #0
 1527 05c2 49D0     		beq	.L92
 238:main.c        ****          if(error<=(desvio+1) && error>0){   
 1528              		.loc 1 238 0 is_stmt 0 discriminator 1
 1529 05c4 0021     		movs	r1, #0
 1530 05c6 2046     		mov	r0, r4
 1531 05c8 FFF7FEFF 		bl	__aeabi_fcmpgt
 1532              	.LVL101:
 1533 05cc 0028     		cmp	r0, #0
 1534 05ce 43D0     		beq	.L92
 239:main.c        ****             if(flag_ajuste==0){
 1535              		.loc 1 239 0 is_stmt 1
 1536 05d0 5A49     		ldr	r1, .L151+36
 1537 05d2 2046     		mov	r0, r4
 1538 05d4 FFF7FEFF 		bl	__aeabi_fcmple
 1539              	.LVL102:
 1540 05d8 68B1     		cbz	r0, .L95
 239:main.c        ****             if(flag_ajuste==0){
 1541              		.loc 1 239 0 is_stmt 0 discriminator 1
 1542 05da 0021     		movs	r1, #0
 1543 05dc 2046     		mov	r0, r4
 1544 05de FFF7FEFF 		bl	__aeabi_fcmpgt
 1545              	.LVL103:
 1546 05e2 40B1     		cbz	r0, .L95
 240:main.c        ****                TpulsoMax=Tpulso;
 1547              		.loc 1 240 0 is_stmt 1
 1548 05e4 564B     		ldr	r3, .L151+40
 1549 05e6 B3F90030 		ldrsh	r3, [r3]
 1550 05ea 23B9     		cbnz	r3, .L95
 241:main.c        ****                flag_ajuste=1;  
 1551              		.loc 1 241 0
 1552 05ec 554B     		ldr	r3, .L151+44
 1553 05ee 1D60     		str	r5, [r3]	@ float
 242:main.c        ****             }
 1554              		.loc 1 242 0
 1555 05f0 0122     		movs	r2, #1
 1556 05f2 534B     		ldr	r3, .L151+40
 1557 05f4 1A80     		strh	r2, [r3]	@ movhi
 1558              	.L95:
 246:main.c        ****             if(flag_ajuste2==0){
 1559              		.loc 1 246 0
 1560 05f6 4FF08141 		mov	r1, #1082130432
 1561 05fa 2046     		mov	r0, r4
 1562 05fc FFF7FEFF 		bl	__aeabi_fcmple
 1563              	.LVL104:
 1564 0600 68B1     		cbz	r0, .L98
 246:main.c        ****             if(flag_ajuste2==0){
 1565              		.loc 1 246 0 is_stmt 0 discriminator 1
 1566 0602 0021     		movs	r1, #0
 1567 0604 2046     		mov	r0, r4
 1568 0606 FFF7FEFF 		bl	__aeabi_fcmpgt
 1569              	.LVL105:
 1570 060a 40B1     		cbz	r0, .L98
 247:main.c        ****                Tpulsomin=Tpulso;
ARM GAS  C:\Users\USUARIO\AppData\Local\Temp\ccdk1rSB.s 			page 39


 1571              		.loc 1 247 0 is_stmt 1
 1572 060c 4E4B     		ldr	r3, .L151+48
 1573 060e B3F90030 		ldrsh	r3, [r3]
 1574 0612 23B9     		cbnz	r3, .L98
 248:main.c        ****                flag_ajuste2=1;           
 1575              		.loc 1 248 0
 1576 0614 4D4B     		ldr	r3, .L151+52
 1577 0616 1D60     		str	r5, [r3]	@ float
 249:main.c        ****             }
 1578              		.loc 1 249 0
 1579 0618 0122     		movs	r2, #1
 1580 061a 4B4B     		ldr	r3, .L151+48
 1581 061c 1A80     		strh	r2, [r3]	@ movhi
 1582              	.L98:
 253:main.c        ****             if(Tpulso<Tpulsomin){
 1583              		.loc 1 253 0
 1584 061e 4A4B     		ldr	r3, .L151+48
 1585 0620 B3F90030 		ldrsh	r3, [r3]
 1586 0624 012B     		cmp	r3, #1
 1587 0626 08D1     		bne	.L101
 254:main.c        ****                Tpulso=Tpulsomin;
 1588              		.loc 1 254 0
 1589 0628 484B     		ldr	r3, .L151+52
 1590 062a 1E68     		ldr	r6, [r3]	@ float
 1591 062c 3146     		mov	r1, r6
 1592 062e 2846     		mov	r0, r5
 1593 0630 FFF7FEFF 		bl	__aeabi_fcmplt
 1594              	.LVL106:
 1595 0634 08B1     		cbz	r0, .L101
 255:main.c        ****             }
 1596              		.loc 1 255 0
 1597 0636 404B     		ldr	r3, .L151+32
 1598 0638 1E60     		str	r6, [r3]	@ float
 1599              	.L101:
 258:main.c        ****             if(Tpulso>TpulsoMax){
 1600              		.loc 1 258 0
 1601 063a 414B     		ldr	r3, .L151+40
 1602 063c B3F90030 		ldrsh	r3, [r3]
 1603 0640 012B     		cmp	r3, #1
 1604 0642 09D1     		bne	.L92
 259:main.c        ****                Tpulso=TpulsoMax;
 1605              		.loc 1 259 0
 1606 0644 3F4B     		ldr	r3, .L151+44
 1607 0646 1D68     		ldr	r5, [r3]	@ float
 1608 0648 2946     		mov	r1, r5
 1609 064a 3B4B     		ldr	r3, .L151+32
 1610 064c 1868     		ldr	r0, [r3]	@ float
 1611 064e FFF7FEFF 		bl	__aeabi_fcmpgt
 1612              	.LVL107:
 1613 0652 08B1     		cbz	r0, .L92
 260:main.c        ****             } 
 1614              		.loc 1 260 0
 1615 0654 384B     		ldr	r3, .L151+32
 1616 0656 1D60     		str	r5, [r3]	@ float
 1617              	.L92:
 265:main.c        ****          sobrepaso=1;
 1618              		.loc 1 265 0
ARM GAS  C:\Users\USUARIO\AppData\Local\Temp\ccdk1rSB.s 			page 40


 1619 0658 0021     		movs	r1, #0
 1620 065a 2046     		mov	r0, r4
 1621 065c FFF7FEFF 		bl	__aeabi_fcmplt
 1622              	.LVL108:
 1623 0660 00B3     		cbz	r0, .L145
 266:main.c        ****          Tpulso=Tpulsomin/2;
 1624              		.loc 1 266 0
 1625 0662 0122     		movs	r2, #1
 1626 0664 3A4B     		ldr	r3, .L151+56
 1627 0666 1A80     		strh	r2, [r3]	@ movhi
 267:main.c        ****          if(tSobrepaso>300){
 1628              		.loc 1 267 0
 1629 0668 384B     		ldr	r3, .L151+52
 1630 066a 1C68     		ldr	r4, [r3]	@ float
 1631 066c 4FF07C51 		mov	r1, #1056964608
 1632 0670 2046     		mov	r0, r4
 1633 0672 FFF7FEFF 		bl	__aeabi_fmul
 1634              	.LVL109:
 1635 0676 304B     		ldr	r3, .L151+32
 1636 0678 1860     		str	r0, [r3]	@ float
 268:main.c        ****             Tpulsomin-=0.1;
 1637              		.loc 1 268 0
 1638 067a 364B     		ldr	r3, .L151+60
 1639 067c 1B88     		ldrh	r3, [r3]
 1640 067e B3F5967F 		cmp	r3, #300
 1641 0682 14D9     		bls	.L106
 269:main.c        ****             tSobrepaso=0;
 1642              		.loc 1 269 0
 1643 0684 2046     		mov	r0, r4
 1644 0686 FFF7FEFF 		bl	__aeabi_f2d
 1645              	.LVL110:
 1646 068a 23A3     		adr	r3, .L151
 1647 068c D3E90023 		ldrd	r2, [r3]
 1648 0690 FFF7FEFF 		bl	__aeabi_dsub
 1649              	.LVL111:
 1650 0694 FFF7FEFF 		bl	__aeabi_d2f
 1651              	.LVL112:
 1652 0698 2C4B     		ldr	r3, .L151+52
 1653 069a 1860     		str	r0, [r3]	@ float
 270:main.c        ****          }
 1654              		.loc 1 270 0
 1655 069c 0022     		movs	r2, #0
 1656 069e 2D4B     		ldr	r3, .L151+60
 1657 06a0 1A80     		strh	r2, [r3]	@ movhi
 1658 06a2 04E0     		b	.L106
 1659              	.L145:
 273:main.c        ****          tSobrepaso=0;
 1660              		.loc 1 273 0
 1661 06a4 0023     		movs	r3, #0
 1662 06a6 2A4A     		ldr	r2, .L151+56
 1663 06a8 1380     		strh	r3, [r2]	@ movhi
 274:main.c        ****       }
 1664              		.loc 1 274 0
 1665 06aa 2A4A     		ldr	r2, .L151+60
 1666 06ac 1380     		strh	r3, [r2]	@ movhi
 1667              	.L106:
 277:main.c        ****       if(Tpulso>Tciclo)Tpulso=0;
ARM GAS  C:\Users\USUARIO\AppData\Local\Temp\ccdk1rSB.s 			page 41


 1668              		.loc 1 277 0
 1669 06ae 0021     		movs	r1, #0
 1670 06b0 214B     		ldr	r3, .L151+32
 1671 06b2 1868     		ldr	r0, [r3]	@ float
 1672 06b4 FFF7FEFF 		bl	__aeabi_fcmplt
 1673              	.LVL113:
 1674 06b8 10B1     		cbz	r0, .L107
 277:main.c        ****       if(Tpulso>Tciclo)Tpulso=0;
 1675              		.loc 1 277 0 is_stmt 0 discriminator 1
 1676 06ba 0022     		movs	r2, #0
 1677 06bc 1E4B     		ldr	r3, .L151+32
 1678 06be 1A60     		str	r2, [r3]	@ float
 1679              	.L107:
 278:main.c        ****    }
 1680              		.loc 1 278 0 is_stmt 1
 1681 06c0 1C4B     		ldr	r3, .L151+28
 1682 06c2 1878     		ldrb	r0, [r3]	@ zero_extendqisi2
 1683 06c4 FFF7FEFF 		bl	__aeabi_i2f
 1684              	.LVL114:
 1685 06c8 1B4B     		ldr	r3, .L151+32
 1686 06ca 1968     		ldr	r1, [r3]	@ float
 1687 06cc FFF7FEFF 		bl	__aeabi_fcmplt
 1688              	.LVL115:
 1689 06d0 10B1     		cbz	r0, .L78
 278:main.c        ****    }
 1690              		.loc 1 278 0 is_stmt 0 discriminator 1
 1691 06d2 0022     		movs	r2, #0
 1692 06d4 184B     		ldr	r3, .L151+32
 1693 06d6 1A60     		str	r2, [r3]	@ float
 1694              	.L78:
 280:main.c        ****    Tc=(Tciclo/0.002);
 1695              		.loc 1 280 0 is_stmt 1
 1696 06d8 174B     		ldr	r3, .L151+32
 1697 06da 1868     		ldr	r0, [r3]	@ float
 1698 06dc FFF7FEFF 		bl	__aeabi_f2d
 1699              	.LVL116:
 1700 06e0 0FA3     		adr	r3, .L151+8
 1701 06e2 D3E90023 		ldrd	r2, [r3]
 1702 06e6 FFF7FEFF 		bl	__aeabi_ddiv
 1703              	.LVL117:
 1704 06ea FFF7FEFF 		bl	__aeabi_d2uiz
 1705              	.LVL118:
 1706 06ee 1A4B     		ldr	r3, .L151+64
 1707 06f0 1880     		strh	r0, [r3]	@ movhi
 281:main.c        ****    Control=1;     
 1708              		.loc 1 281 0
 1709 06f2 104B     		ldr	r3, .L151+28
 1710 06f4 1878     		ldrb	r0, [r3]	@ zero_extendqisi2
 1711 06f6 FFF7FEFF 		bl	__aeabi_i2d
 1712              	.LVL119:
 1713 06fa 09A3     		adr	r3, .L151+8
 1714 06fc D3E90023 		ldrd	r2, [r3]
 1715 0700 FFF7FEFF 		bl	__aeabi_ddiv
 1716              	.LVL120:
 1717 0704 FFF7FEFF 		bl	__aeabi_d2uiz
 1718              	.LVL121:
 1719 0708 144B     		ldr	r3, .L151+68
ARM GAS  C:\Users\USUARIO\AppData\Local\Temp\ccdk1rSB.s 			page 42


 1720 070a 1880     		strh	r0, [r3]	@ movhi
 282:main.c        **** //-------------------------------------------------------------------------------------------------
 1721              		.loc 1 282 0
 1722 070c 0122     		movs	r2, #1
 1723 070e 144B     		ldr	r3, .L151+72
 1724 0710 1A80     		strh	r2, [r3]	@ movhi
 1725 0712 BDE8F087 		pop	{r4, r5, r6, r7, r8, r9, r10, pc}
 1726              	.L152:
 1727 0716 00BF     		.align	3
 1728              	.L151:
 1729 0718 9A999999 		.word	-1717986918
 1730 071c 9999B93F 		.word	1069128089
 1731 0720 FCA9F1D2 		.word	-755914244
 1732 0724 4D62603F 		.word	1063281229
 1733 0728 00000000 		.word	Integral
 1734 072c 0000E03F 		.word	1071644672
 1735 0730 00000000 		.word	Ganancia
 1736 0734 00000000 		.word	Tciclo
 1737 0738 00000000 		.word	Tpulso
 1738 073c 0000C040 		.word	1086324736
 1739 0740 00000000 		.word	flag_ajuste
 1740 0744 00000000 		.word	TpulsoMax
 1741 0748 00000000 		.word	flag_ajuste2
 1742 074c 00000000 		.word	Tpulsomin
 1743 0750 00000000 		.word	sobrepaso
 1744 0754 00000000 		.word	tSobrepaso
 1745 0758 00000000 		.word	Tp
 1746 075c 00000000 		.word	Tc
 1747 0760 00000000 		.word	Control
 1748              		.cfi_endproc
 1749              	.LFE66:
 1750              		.size	Controla, .-Controla
 1751              		.section	.text.CuentaTiempo,"ax",%progbits
 1752              		.align	2
 1753              		.global	CuentaTiempo
 1754              		.thumb
 1755              		.thumb_func
 1756              		.type	CuentaTiempo, %function
 1757              	CuentaTiempo:
 1758              	.LFB67:
 287:main.c        ****       if(tinicio>=60){
 1759              		.loc 1 287 0
 1760              		.cfi_startproc
 1761              		@ args = 0, pretend = 0, frame = 0
 1762              		@ frame_needed = 0, uses_anonymous_args = 0
 288:main.c        ****          tinicio=0;
 1763              		.loc 1 288 0
 1764 0000 124B     		ldr	r3, .L157
 1765 0002 1B88     		ldrh	r3, [r3]
 1766 0004 3B2B     		cmp	r3, #59
 1767 0006 1FD9     		bls	.L156
 287:main.c        ****       if(tinicio>=60){
 1768              		.loc 1 287 0
 1769 0008 10B5     		push	{r4, lr}
 1770              		.cfi_def_cfa_offset 8
 1771              		.cfi_offset 4, -8
 1772              		.cfi_offset 14, -4
ARM GAS  C:\Users\USUARIO\AppData\Local\Temp\ccdk1rSB.s 			page 43


 289:main.c        ****          mEst+=1.0;
 1773              		.loc 1 289 0
 1774 000a 0022     		movs	r2, #0
 1775 000c 0F4B     		ldr	r3, .L157
 1776 000e 1A80     		strh	r2, [r3]	@ movhi
 290:main.c        ****          if(mEst>59){
 1777              		.loc 1 290 0
 1778 0010 0F4C     		ldr	r4, .L157+4
 1779 0012 2078     		ldrb	r0, [r4]	@ zero_extendqisi2
 1780 0014 FFF7FEFF 		bl	__aeabi_i2d
 1781              	.LVL122:
 1782 0018 0022     		movs	r2, #0
 1783 001a 0E4B     		ldr	r3, .L157+8
 1784 001c FFF7FEFF 		bl	__aeabi_dadd
 1785              	.LVL123:
 1786 0020 FFF7FEFF 		bl	__aeabi_d2uiz
 1787              	.LVL124:
 1788 0024 C0B2     		uxtb	r0, r0
 1789 0026 2070     		strb	r0, [r4]
 291:main.c        ****             mEst=0;
 1790              		.loc 1 291 0
 1791 0028 3B28     		cmp	r0, #59
 1792 002a 0CD9     		bls	.L153
 292:main.c        ****             hEst+=1.0;
 1793              		.loc 1 292 0
 1794 002c 0022     		movs	r2, #0
 1795 002e 2270     		strb	r2, [r4]
 293:main.c        ****          }
 1796              		.loc 1 293 0
 1797 0030 094C     		ldr	r4, .L157+12
 1798 0032 2078     		ldrb	r0, [r4]	@ zero_extendqisi2
 1799 0034 FFF7FEFF 		bl	__aeabi_i2d
 1800              	.LVL125:
 1801 0038 0022     		movs	r2, #0
 1802 003a 064B     		ldr	r3, .L157+8
 1803 003c FFF7FEFF 		bl	__aeabi_dadd
 1804              	.LVL126:
 1805 0040 FFF7FEFF 		bl	__aeabi_d2uiz
 1806              	.LVL127:
 1807 0044 2070     		strb	r0, [r4]
 1808              	.L153:
 1809 0046 10BD     		pop	{r4, pc}
 1810              	.L156:
 1811              		.cfi_def_cfa_offset 0
 1812              		.cfi_restore 4
 1813              		.cfi_restore 14
 1814 0048 7047     		bx	lr
 1815              	.L158:
 1816 004a 00BF     		.align	2
 1817              	.L157:
 1818 004c 00000000 		.word	tinicio
 1819 0050 00000000 		.word	mEst
 1820 0054 0000F03F 		.word	1072693248
 1821 0058 00000000 		.word	hEst
 1822              		.cfi_endproc
 1823              	.LFE67:
 1824              		.size	CuentaTiempo, .-CuentaTiempo
ARM GAS  C:\Users\USUARIO\AppData\Local\Temp\ccdk1rSB.s 			page 44


 1825              		.section	.text.iniciaConteo,"ax",%progbits
 1826              		.align	2
 1827              		.global	iniciaConteo
 1828              		.thumb
 1829              		.thumb_func
 1830              		.type	iniciaConteo, %function
 1831              	iniciaConteo:
 1832              	.LFB68:
 298:main.c        ****    if(Pendiente!=0){
 1833              		.loc 1 298 0
 1834              		.cfi_startproc
 1835              		@ args = 0, pretend = 0, frame = 0
 1836              		@ frame_needed = 0, uses_anonymous_args = 0
 1837 0000 10B5     		push	{r4, lr}
 1838              		.cfi_def_cfa_offset 8
 1839              		.cfi_offset 4, -8
 1840              		.cfi_offset 14, -4
 299:main.c        ****         if(flagRampa)
 1841              		.loc 1 299 0
 1842 0002 144B     		ldr	r3, .L170
 1843 0004 1C68     		ldr	r4, [r3]	@ float
 1844 0006 0021     		movs	r1, #0
 1845 0008 2046     		mov	r0, r4
 1846 000a FFF7FEFF 		bl	__aeabi_fcmpeq
 1847              	.LVL128:
 1848 000e 58B9     		cbnz	r0, .L168
 300:main.c        ****             tiempo_esterilizacion=1;
 1849              		.loc 1 300 0
 1850 0010 114B     		ldr	r3, .L170+4
 1851 0012 B3F90030 		ldrsh	r3, [r3]
 1852 0016 1BB1     		cbz	r3, .L162
 301:main.c        ****         else
 1853              		.loc 1 301 0
 1854 0018 0122     		movs	r2, #1
 1855 001a 104B     		ldr	r3, .L170+8
 1856 001c 1A70     		strb	r2, [r3]
 1857 001e 10BD     		pop	{r4, pc}
 1858              	.L162:
 303:main.c        ****    }else if(Pendiente==0){
 1859              		.loc 1 303 0
 1860 0020 0022     		movs	r2, #0
 1861 0022 0E4B     		ldr	r3, .L170+8
 1862 0024 1A70     		strb	r2, [r3]
 1863 0026 10BD     		pop	{r4, pc}
 1864              	.L168:
 304:main.c        ****       if(flagTemperatura && flagRampa)
 1865              		.loc 1 304 0
 1866 0028 0021     		movs	r1, #0
 1867 002a 2046     		mov	r0, r4
 1868 002c FFF7FEFF 		bl	__aeabi_fcmpeq
 1869              	.LVL129:
 1870 0030 70B1     		cbz	r0, .L159
 305:main.c        ****          tiempo_esterilizacion=1;
 1871              		.loc 1 305 0
 1872 0032 0B4B     		ldr	r3, .L170+12
 1873 0034 B3F90030 		ldrsh	r3, [r3]
 1874 0038 3BB1     		cbz	r3, .L165
ARM GAS  C:\Users\USUARIO\AppData\Local\Temp\ccdk1rSB.s 			page 45


 305:main.c        ****          tiempo_esterilizacion=1;
 1875              		.loc 1 305 0 is_stmt 0 discriminator 1
 1876 003a 074B     		ldr	r3, .L170+4
 1877 003c B3F90030 		ldrsh	r3, [r3]
 1878 0040 1BB1     		cbz	r3, .L165
 306:main.c        ****       else
 1879              		.loc 1 306 0 is_stmt 1
 1880 0042 0122     		movs	r2, #1
 1881 0044 054B     		ldr	r3, .L170+8
 1882 0046 1A70     		strb	r2, [r3]
 1883 0048 10BD     		pop	{r4, pc}
 1884              	.L165:
 308:main.c        ****    }
 1885              		.loc 1 308 0
 1886 004a 0022     		movs	r2, #0
 1887 004c 034B     		ldr	r3, .L170+8
 1888 004e 1A70     		strb	r2, [r3]
 1889              	.L159:
 1890 0050 10BD     		pop	{r4, pc}
 1891              	.L171:
 1892 0052 00BF     		.align	2
 1893              	.L170:
 1894 0054 00000000 		.word	Pendiente
 1895 0058 00000000 		.word	flagRampa
 1896 005c 00000000 		.word	tiempo_esterilizacion
 1897 0060 00000000 		.word	flagTemperatura
 1898              		.cfi_endproc
 1899              	.LFE68:
 1900              		.size	iniciaConteo, .-iniciaConteo
 1901              		.section	.text.leeTermocupla,"ax",%progbits
 1902              		.align	2
 1903              		.global	leeTermocupla
 1904              		.thumb
 1905              		.thumb_func
 1906              		.type	leeTermocupla, %function
 1907              	leeTermocupla:
 1908              	.LFB69:
 312:main.c        ****     float Tref;
 1909              		.loc 1 312 0
 1910              		.cfi_startproc
 1911              		@ args = 0, pretend = 0, frame = 0
 1912              		@ frame_needed = 0, uses_anonymous_args = 0
 1913              	.LVL130:
 1914 0000 F8B5     		push	{r3, r4, r5, r6, r7, lr}
 1915              		.cfi_def_cfa_offset 24
 1916              		.cfi_offset 3, -24
 1917              		.cfi_offset 4, -20
 1918              		.cfi_offset 5, -16
 1919              		.cfi_offset 6, -12
 1920              		.cfi_offset 7, -8
 1921              		.cfi_offset 14, -4
 1922 0002 0646     		mov	r6, r0
 1923              	.LVL131:
 315:main.c        ****     /* Measure cold junction temperature */
 1924              		.loc 1 315 0
 1925 0004 0022     		movs	r2, #0
 1926 0006 514B     		ldr	r3, .L182
ARM GAS  C:\Users\USUARIO\AppData\Local\Temp\ccdk1rSB.s 			page 46


 1927 0008 1A60     		str	r2, [r3]	@ float
 317:main.c        **** 	/* Convert cold junction temp to cold junction compensation voltage */
 1928              		.loc 1 317 0
 1929 000a FFF7FEFF 		bl	MeasureColdJnSensorTemp
 1930              	.LVL132:
 1931 000e 00B2     		sxth	r0, r0
 1932 0010 4F4B     		ldr	r3, .L182+4
 1933 0012 1880     		strh	r0, [r3]	@ movhi
 319:main.c        **** 	/* Read thermocouple hot junction voltage */
 1934              		.loc 1 319 0
 1935 0014 FFF7FEFF 		bl	Thermocouple_1_GetVoltage
 1936              	.LVL133:
 1937 0018 4E4C     		ldr	r4, .L182+8
 1938 001a 2060     		str	r0, [r4]
 322:main.c        **** 	ADC_StartConvert();
 1939              		.loc 1 322 0
 1940 001c 0121     		movs	r1, #1
 1941 001e 0220     		movs	r0, #2
 1942 0020 FFF7FEFF 		bl	ADC_SelectConfiguration
 1943              	.LVL134:
 323:main.c        ****     /*Note in this example a blocking call is used, this can be replaced
 1944              		.loc 1 323 0
 1945 0024 FFF7FEFF 		bl	ADC_StartConvert
 1946              	.LVL135:
 326:main.c        **** 	ADC_StopConvert();
 1947              		.loc 1 326 0
 1948 0028 0020     		movs	r0, #0
 1949 002a FFF7FEFF 		bl	ADC_IsEndConversion
 1950              	.LVL136:
 327:main.c        **** 	hotJnCount = ADC_GetResult32();
 1951              		.loc 1 327 0
 1952 002e FFF7FEFF 		bl	ADC_StopConvert
 1953              	.LVL137:
 328:main.c        **** 	/* Read ground reference voltage */
 1954              		.loc 1 328 0
 1955 0032 FFF7FEFF 		bl	ADC_GetResult32
 1956              	.LVL138:
 1957 0036 484B     		ldr	r3, .L182+12
 1958 0038 1860     		str	r0, [r3]
 330:main.c        **** 	/* Correlated double sampling to remove ADC offset */
 1959              		.loc 1 330 0
 1960 003a 0022     		movs	r2, #0
 1961 003c 474B     		ldr	r3, .L182+16
 1962 003e 1A80     		strh	r2, [r3]	@ movhi
 334:main.c        **** 	/* Find thermo-emf in microvolts */
 1963              		.loc 1 334 0
 1964 0040 FFF7FEFF 		bl	FilterSignal
 1965              	.LVL139:
 1966 0044 464B     		ldr	r3, .L182+20
 1967 0046 1860     		str	r0, [r3]
 336:main.c        **** 	/* Perform Cold junction compensation */
 1968              		.loc 1 336 0
 1969 0048 FFF7FEFF 		bl	ADC_CountsTo_uVolts
 1970              	.LVL140:
 1971 004c 454B     		ldr	r3, .L182+24
 1972 004e 1860     		str	r0, [r3]
 338:main.c        **** 	/* Convert thermo-emf to temperature */
ARM GAS  C:\Users\USUARIO\AppData\Local\Temp\ccdk1rSB.s 			page 47


 1973              		.loc 1 338 0
 1974 0050 2368     		ldr	r3, [r4]
 1975 0052 1844     		add	r0, r0, r3
 1976 0054 444B     		ldr	r3, .L182+28
 1977 0056 1860     		str	r0, [r3]
 340:main.c        ****     V0=(float)(tcTemp/100)+(float)(tcTemp-((tcTemp/100)*100))/100;
 1978              		.loc 1 340 0
 1979 0058 FFF7FEFF 		bl	Thermocouple_1_GetTemperature
 1980              	.LVL141:
 1981 005c 0546     		mov	r5, r0
 1982 005e 434B     		ldr	r3, .L182+32
 1983 0060 1860     		str	r0, [r3]
 341:main.c        ****             
 1984              		.loc 1 341 0
 1985 0062 434C     		ldr	r4, .L182+36
 1986 0064 84FB0034 		smull	r3, r4, r4, r0
 1987 0068 C317     		asrs	r3, r0, #31
 1988 006a C3EB6414 		rsb	r4, r3, r4, asr #5
 1989 006e 2046     		mov	r0, r4
 1990 0070 FFF7FEFF 		bl	__aeabi_i2f
 1991              	.LVL142:
 1992 0074 0746     		mov	r7, r0
 1993 0076 6420     		movs	r0, #100
 1994 0078 00FB1450 		mls	r0, r0, r4, r5
 1995 007c FFF7FEFF 		bl	__aeabi_i2f
 1996              	.LVL143:
 1997 0080 3C49     		ldr	r1, .L182+40
 1998 0082 FFF7FEFF 		bl	__aeabi_fdiv
 1999              	.LVL144:
 2000 0086 0146     		mov	r1, r0
 2001 0088 3846     		mov	r0, r7
 2002 008a FFF7FEFF 		bl	__aeabi_fadd
 2003              	.LVL145:
 2004 008e 3A4B     		ldr	r3, .L182+44
 2005 0090 1860     		str	r0, [r3]	@ float
 343:main.c        ****         l=0;
 2006              		.loc 1 343 0
 2007 0092 3A4B     		ldr	r3, .L182+48
 2008 0094 1A78     		ldrb	r2, [r3]	@ zero_extendqisi2
 2009 0096 731E     		subs	r3, r6, #1
 2010 0098 9A42     		cmp	r2, r3
 2011 009a 02DD     		ble	.L173
 344:main.c        ****    //promedio[l]=Temperature;l++;
 2012              		.loc 1 344 0
 2013 009c 0022     		movs	r2, #0
 2014 009e 374B     		ldr	r3, .L182+48
 2015 00a0 1A70     		strb	r2, [r3]
 2016              	.L173:
 346:main.c        ****          
 2017              		.loc 1 346 0
 2018 00a2 364A     		ldr	r2, .L182+48
 2019 00a4 1378     		ldrb	r3, [r2]	@ zero_extendqisi2
 2020 00a6 3649     		ldr	r1, .L182+52
 2021 00a8 41F82300 		str	r0, [r1, r3, lsl #2]	@ float
 2022 00ac 0133     		adds	r3, r3, #1
 2023 00ae 1370     		strb	r3, [r2]
 348:main.c        ****         Prom+=promedio[h];
ARM GAS  C:\Users\USUARIO\AppData\Local\Temp\ccdk1rSB.s 			page 48


 2024              		.loc 1 348 0
 2025 00b0 0022     		movs	r2, #0
 2026 00b2 344B     		ldr	r3, .L182+56
 2027 00b4 1A70     		strb	r2, [r3]
 2028 00b6 0AE0     		b	.L174
 2029              	.L175:
 349:main.c        ****     } 
 2030              		.loc 1 349 0 discriminator 3
 2031 00b8 244D     		ldr	r5, .L182
 2032 00ba 314B     		ldr	r3, .L182+52
 2033 00bc 53F82410 		ldr	r1, [r3, r4, lsl #2]	@ float
 2034 00c0 2868     		ldr	r0, [r5]	@ float
 2035 00c2 FFF7FEFF 		bl	__aeabi_fadd
 2036              	.LVL146:
 2037 00c6 2860     		str	r0, [r5]	@ float
 348:main.c        ****         Prom+=promedio[h];
 2038              		.loc 1 348 0 discriminator 3
 2039 00c8 0134     		adds	r4, r4, #1
 2040 00ca 2E4B     		ldr	r3, .L182+56
 2041 00cc 1C70     		strb	r4, [r3]
 2042              	.L174:
 348:main.c        ****         Prom+=promedio[h];
 2043              		.loc 1 348 0 is_stmt 0 discriminator 1
 2044 00ce 2D4B     		ldr	r3, .L182+56
 2045 00d0 1C78     		ldrb	r4, [r3]	@ zero_extendqisi2
 2046 00d2 A642     		cmp	r6, r4
 2047 00d4 F0D8     		bhi	.L175
 351:main.c        ****    
 2048              		.loc 1 351 0 is_stmt 1
 2049 00d6 1D4D     		ldr	r5, .L182
 2050 00d8 3046     		mov	r0, r6
 2051 00da FFF7FEFF 		bl	__aeabi_i2f
 2052              	.LVL147:
 2053 00de 0146     		mov	r1, r0
 2054 00e0 2868     		ldr	r0, [r5]	@ float
 2055 00e2 FFF7FEFF 		bl	__aeabi_fdiv
 2056              	.LVL148:
 2057 00e6 0446     		mov	r4, r0
 353:main.c        ****     if(Prom<=control2){
 2058              		.loc 1 353 0
 2059 00e8 274B     		ldr	r3, .L182+60
 2060 00ea 1878     		ldrb	r0, [r3]	@ zero_extendqisi2
 2061 00ec FFF7FEFF 		bl	__aeabi_ui2f
 2062              	.LVL149:
 2063 00f0 0646     		mov	r6, r0
 2064 00f2 264B     		ldr	r3, .L182+64
 2065 00f4 1878     		ldrb	r0, [r3]	@ zero_extendqisi2
 2066 00f6 FFF7FEFF 		bl	__aeabi_ui2f
 2067              	.LVL150:
 2068 00fa 0146     		mov	r1, r0
 2069 00fc 3046     		mov	r0, r6
 2070 00fe FFF7FEFF 		bl	__aeabi_fsub
 2071              	.LVL151:
 2072 0102 0146     		mov	r1, r0
 2073 0104 2046     		mov	r0, r4
 2074 0106 FFF7FEFF 		bl	__aeabi_fadd
 2075              	.LVL152:
ARM GAS  C:\Users\USUARIO\AppData\Local\Temp\ccdk1rSB.s 			page 49


 2076 010a 0446     		mov	r4, r0
 2077 010c 2860     		str	r0, [r5]	@ float
 354:main.c        ****         Tref=(Prom-b1)/m1;
 2078              		.loc 1 354 0
 2079 010e 204B     		ldr	r3, .L182+68
 2080 0110 B3F90000 		ldrsh	r0, [r3]
 2081 0114 FFF7FEFF 		bl	__aeabi_i2f
 2082              	.LVL153:
 2083 0118 0146     		mov	r1, r0
 2084 011a 2046     		mov	r0, r4
 2085 011c FFF7FEFF 		bl	__aeabi_fcmple
 2086              	.LVL154:
 2087 0120 48B1     		cbz	r0, .L180
 355:main.c        ****     }else{
 2088              		.loc 1 355 0
 2089 0122 1C4B     		ldr	r3, .L182+72
 2090 0124 1968     		ldr	r1, [r3]	@ float
 2091 0126 2046     		mov	r0, r4
 2092 0128 FFF7FEFF 		bl	__aeabi_fsub
 2093              	.LVL155:
 2094 012c 1A4B     		ldr	r3, .L182+76
 2095 012e 1968     		ldr	r1, [r3]	@ float
 2096 0130 FFF7FEFF 		bl	__aeabi_fdiv
 2097              	.LVL156:
 2098 0134 F8BD     		pop	{r3, r4, r5, r6, r7, pc}
 2099              	.LVL157:
 2100              	.L180:
 357:main.c        ****     }
 2101              		.loc 1 357 0
 2102 0136 194B     		ldr	r3, .L182+80
 2103 0138 1968     		ldr	r1, [r3]	@ float
 2104 013a 2046     		mov	r0, r4
 2105 013c FFF7FEFF 		bl	__aeabi_fsub
 2106              	.LVL158:
 2107 0140 174B     		ldr	r3, .L182+84
 2108 0142 1968     		ldr	r1, [r3]	@ float
 2109 0144 FFF7FEFF 		bl	__aeabi_fdiv
 2110              	.LVL159:
 361:main.c        **** 
 2111              		.loc 1 361 0
 2112 0148 F8BD     		pop	{r3, r4, r5, r6, r7, pc}
 2113              	.L183:
 2114 014a 00BF     		.align	2
 2115              	.L182:
 2116 014c 00000000 		.word	Prom
 2117 0150 00000000 		.word	coldJnTemp
 2118 0154 00000000 		.word	tcColdJnuVolt
 2119 0158 00000000 		.word	hotJnCount
 2120 015c 00000000 		.word	offset
 2121 0160 00000000 		.word	filHotJnCount
 2122 0164 00000000 		.word	tcHotJnuVolt
 2123 0168 00000000 		.word	tcuVolt
 2124 016c 00000000 		.word	tcTemp
 2125 0170 1F85EB51 		.word	1374389535
 2126 0174 0000C842 		.word	1120403456
 2127 0178 00000000 		.word	V0
 2128 017c 00000000 		.word	l
ARM GAS  C:\Users\USUARIO\AppData\Local\Temp\ccdk1rSB.s 			page 50


 2129 0180 00000000 		.word	promedio
 2130 0184 00000000 		.word	h
 2131 0188 00000000 		.word	Ajuste
 2132 018c 00000000 		.word	Ajusten
 2133 0190 00000000 		.word	control2
 2134 0194 00000000 		.word	b1
 2135 0198 00000000 		.word	m1
 2136 019c 00000000 		.word	b2
 2137 01a0 00000000 		.word	m2
 2138              		.cfi_endproc
 2139              	.LFE69:
 2140              		.size	leeTermocupla, .-leeTermocupla
 2141              		.global	__aeabi_f2uiz
 2142              		.global	__aeabi_f2iz
 2143              		.section	.text.main,"ax",%progbits
 2144              		.align	2
 2145              		.global	main
 2146              		.thumb
 2147              		.thumb_func
 2148              		.type	main, %function
 2149              	main:
 2150              	.LFB72:
 502:main.c        ****    }
 503:main.c        **** }
 504:main.c        **** 
 505:main.c        **** 
 506:main.c        **** int main(void)
 507:main.c        **** { 
 2151              		.loc 1 507 0
 2152              		.cfi_startproc
 2153              		@ args = 0, pretend = 0, frame = 16
 2154              		@ frame_needed = 0, uses_anonymous_args = 0
 2155 0000 2DE9F047 		push	{r4, r5, r6, r7, r8, r9, r10, lr}
 2156              		.cfi_def_cfa_offset 32
 2157              		.cfi_offset 4, -32
 2158              		.cfi_offset 5, -28
 2159              		.cfi_offset 6, -24
 2160              		.cfi_offset 7, -20
 2161              		.cfi_offset 8, -16
 2162              		.cfi_offset 9, -12
 2163              		.cfi_offset 10, -8
 2164              		.cfi_offset 14, -4
 2165 0004 88B0     		sub	sp, sp, #32
 2166              		.cfi_def_cfa_offset 64
 508:main.c        ****     CyGlobalIntEnable; /* Enable global interrupts. */    
 2167              		.loc 1 508 0
 2168              		.syntax unified
 2169              	@ 508 "main.c" 1
 2170 0006 62B6     		CPSIE   i
 2171              	@ 0 "" 2
 509:main.c        ****     
 510:main.c        ****     Reloj_StartEx(Reloj2);
 2172              		.loc 1 510 0
 2173              		.thumb
 2174              		.syntax unified
 2175 0008 8D48     		ldr	r0, .L571
 2176 000a FFF7FEFF 		bl	Reloj_StartEx
ARM GAS  C:\Users\USUARIO\AppData\Local\Temp\ccdk1rSB.s 			page 51


 2177              	.LVL160:
 511:main.c        ****     UART_1_Start();
 2178              		.loc 1 511 0
 2179 000e FFF7FEFF 		bl	UART_1_Start
 2180              	.LVL161:
 512:main.c        ****     RX1_StartEx(inteRX1);  
 2181              		.loc 1 512 0
 2182 0012 8C48     		ldr	r0, .L571+4
 2183 0014 FFF7FEFF 		bl	RX1_StartEx
 2184              	.LVL162:
 513:main.c        ****     Timer_Start();  
 2185              		.loc 1 513 0
 2186 0018 FFF7FEFF 		bl	Timer_Start
 2187              	.LVL163:
 514:main.c        ****     EEPROM_Start(); 
 2188              		.loc 1 514 0
 2189 001c FFF7FEFF 		bl	EEPROM_Start
 2190              	.LVL164:
 515:main.c        ****     ADC_Start();
 2191              		.loc 1 515 0
 2192 0020 FFF7FEFF 		bl	ADC_Start
 2193              	.LVL165:
 516:main.c        ****     ADC_SAR_Start();
 2194              		.loc 1 516 0
 2195 0024 FFF7FEFF 		bl	ADC_SAR_Start
 2196              	.LVL166:
 517:main.c        ****     ADC_SAR_IRQ_StartEx(ADC_SAR_ISR_LOC);
 2197              		.loc 1 517 0
 2198 0028 8748     		ldr	r0, .L571+8
 2199 002a FFF7FEFF 		bl	ADC_SAR_IRQ_StartEx
 2200              	.LVL167:
 518:main.c        ****     ADC_SAR_StartConvert();
 2201              		.loc 1 518 0
 2202 002e FFF7FEFF 		bl	ADC_SAR_StartConvert
 2203              	.LVL168:
 519:main.c        ****     
 520:main.c        ****     LCD2_Write(1);
 2204              		.loc 1 520 0
 2205 0032 0120     		movs	r0, #1
 2206 0034 FFF7FEFF 		bl	LCD2_Write
 2207              	.LVL169:
 521:main.c        ****     LCD1_Write(1);
 2208              		.loc 1 521 0
 2209 0038 0120     		movs	r0, #1
 2210 003a FFF7FEFF 		bl	LCD1_Write
 2211              	.LVL170:
 522:main.c        ****     LCD3_Write(1);
 2212              		.loc 1 522 0
 2213 003e 0120     		movs	r0, #1
 2214 0040 FFF7FEFF 		bl	LCD3_Write
 2215              	.LVL171:
 523:main.c        ****     
 524:main.c        ****     glcd_init(ON);             //Inicializa la glcd
 2216              		.loc 1 524 0
 2217 0044 0120     		movs	r0, #1
 2218 0046 FFF7FEFF 		bl	glcd_init
 2219              	.LVL172:
ARM GAS  C:\Users\USUARIO\AppData\Local\Temp\ccdk1rSB.s 			page 52


 525:main.c        ****     glcd_fillScreen(OFF);      //Limpia la pantalla
 2220              		.loc 1 525 0
 2221 004a 0020     		movs	r0, #0
 2222 004c FFF7FEFF 		bl	glcd_fillScreen
 2223              	.LVL173:
 526:main.c        ****     glcd_rect(0,61,127,63,YES,ON);
 2224              		.loc 1 526 0
 2225 0050 0126     		movs	r6, #1
 2226 0052 0196     		str	r6, [sp, #4]
 2227 0054 0096     		str	r6, [sp]
 2228 0056 3F23     		movs	r3, #63
 2229 0058 7F22     		movs	r2, #127
 2230 005a 3D21     		movs	r1, #61
 2231 005c 0020     		movs	r0, #0
 2232 005e FFF7FEFF 		bl	glcd_rect
 2233              	.LVL174:
 527:main.c        ****     strcpy(Menus.Letra,"JP Inglobal");
 2234              		.loc 1 527 0
 2235 0062 7A4C     		ldr	r4, .L571+12
 2236 0064 7A4B     		ldr	r3, .L571+16
 2237 0066 07CB     		ldmia	r3!, {r0, r1, r2}
 2238 0068 2060     		str	r0, [r4]	@ unaligned
 2239 006a 6160     		str	r1, [r4, #4]	@ unaligned
 2240 006c A260     		str	r2, [r4, #8]	@ unaligned
 528:main.c        ****     displayMenu(Menus.Letra,0,0,0,2);     
 2241              		.loc 1 528 0
 2242 006e 0227     		movs	r7, #2
 2243 0070 0097     		str	r7, [sp]
 2244 0072 0023     		movs	r3, #0
 2245 0074 1A46     		mov	r2, r3
 2246 0076 1946     		mov	r1, r3
 2247 0078 2046     		mov	r0, r4
 2248 007a FFF7FEFF 		bl	displayMenu
 2249              	.LVL175:
 529:main.c        ****     strcpy(Menus.Letra,"    Mufla Digital");
 2250              		.loc 1 529 0
 2251 007e 754D     		ldr	r5, .L571+20
 2252 0080 0FCD     		ldmia	r5!, {r0, r1, r2, r3}
 2253 0082 2060     		str	r0, [r4]	@ unaligned
 2254 0084 6160     		str	r1, [r4, #4]	@ unaligned
 2255 0086 A260     		str	r2, [r4, #8]	@ unaligned
 2256 0088 E360     		str	r3, [r4, #12]	@ unaligned
 2257 008a 2B88     		ldrh	r3, [r5]	@ unaligned
 2258 008c 2382     		strh	r3, [r4, #16]	@ unaligned
 530:main.c        ****     displayMenu(Menus.Letra,0,20,0,1);       
 2259              		.loc 1 530 0
 2260 008e 0096     		str	r6, [sp]
 2261 0090 0023     		movs	r3, #0
 2262 0092 1422     		movs	r2, #20
 2263 0094 1946     		mov	r1, r3
 2264 0096 2046     		mov	r0, r4
 2265 0098 FFF7FEFF 		bl	displayMenu
 2266              	.LVL176:
 531:main.c        ****     strcpy(Menus.Letra,"     con Rampas");
 2267              		.loc 1 531 0
 2268 009c 6E4D     		ldr	r5, .L571+24
 2269 009e 0FCD     		ldmia	r5!, {r0, r1, r2, r3}
ARM GAS  C:\Users\USUARIO\AppData\Local\Temp\ccdk1rSB.s 			page 53


 2270 00a0 2060     		str	r0, [r4]	@ unaligned
 2271 00a2 6160     		str	r1, [r4, #4]	@ unaligned
 2272 00a4 A260     		str	r2, [r4, #8]	@ unaligned
 2273 00a6 E360     		str	r3, [r4, #12]	@ unaligned
 532:main.c        ****     displayMenu(Menus.Letra,0,29,0,1);       
 2274              		.loc 1 532 0
 2275 00a8 0096     		str	r6, [sp]
 2276 00aa 0023     		movs	r3, #0
 2277 00ac 1D22     		movs	r2, #29
 2278 00ae 1946     		mov	r1, r3
 2279 00b0 2046     		mov	r0, r4
 2280 00b2 FFF7FEFF 		bl	displayMenu
 2281              	.LVL177:
 533:main.c        ****     strcpy(Menus.Letra,"     4.5L");
 2282              		.loc 1 533 0
 2283 00b6 694B     		ldr	r3, .L571+28
 2284 00b8 03CB     		ldmia	r3!, {r0, r1}
 2285 00ba 2060     		str	r0, [r4]	@ unaligned
 2286 00bc 6160     		str	r1, [r4, #4]	@ unaligned
 2287 00be 1B88     		ldrh	r3, [r3]	@ unaligned
 2288 00c0 2381     		strh	r3, [r4, #8]	@ unaligned
 534:main.c        ****     displayMenu(Menus.Letra,0,45,0,2);
 2289              		.loc 1 534 0
 2290 00c2 0097     		str	r7, [sp]
 2291 00c4 0023     		movs	r3, #0
 2292 00c6 2D22     		movs	r2, #45
 2293 00c8 1946     		mov	r1, r3
 2294 00ca 2046     		mov	r0, r4
 2295 00cc FFF7FEFF 		bl	displayMenu
 2296              	.LVL178:
 535:main.c        **** 
 536:main.c        ****     leeEEPROM();
 2297              		.loc 1 536 0
 2298 00d0 FFF7FEFF 		bl	leeEEPROM
 2299              	.LVL179:
 537:main.c        ****     glcd_fillScreen(OFF);      //Limpia la pantalla
 2300              		.loc 1 537 0
 2301 00d4 0020     		movs	r0, #0
 2302 00d6 FFF7FEFF 		bl	glcd_fillScreen
 2303              	.LVL180:
 538:main.c        ****     displayContrasena(Contrasena[0],20,30,1);
 2304              		.loc 1 538 0
 2305 00da 614C     		ldr	r4, .L571+32
 2306 00dc 3346     		mov	r3, r6
 2307 00de 1E22     		movs	r2, #30
 2308 00e0 1421     		movs	r1, #20
 2309 00e2 207E     		ldrb	r0, [r4, #24]	@ zero_extendqisi2
 2310 00e4 FFF7FEFF 		bl	displayContrasena
 2311              	.LVL181:
 539:main.c        ****     displayContrasena(Contrasena[1],40,30,0);
 2312              		.loc 1 539 0
 2313 00e8 0023     		movs	r3, #0
 2314 00ea 1E22     		movs	r2, #30
 2315 00ec 2821     		movs	r1, #40
 2316 00ee 607E     		ldrb	r0, [r4, #25]	@ zero_extendqisi2
 2317 00f0 FFF7FEFF 		bl	displayContrasena
 2318              	.LVL182:
ARM GAS  C:\Users\USUARIO\AppData\Local\Temp\ccdk1rSB.s 			page 54


 540:main.c        ****     displayContrasena(Contrasena[2],60,30,0);
 2319              		.loc 1 540 0
 2320 00f4 0023     		movs	r3, #0
 2321 00f6 1E22     		movs	r2, #30
 2322 00f8 3C21     		movs	r1, #60
 2323 00fa A07E     		ldrb	r0, [r4, #26]	@ zero_extendqisi2
 2324 00fc FFF7FEFF 		bl	displayContrasena
 2325              	.LVL183:
 541:main.c        ****     displayContrasena(Contrasena[3],80,30,0); 
 2326              		.loc 1 541 0
 2327 0100 0023     		movs	r3, #0
 2328 0102 1E22     		movs	r2, #30
 2329 0104 5021     		movs	r1, #80
 2330 0106 E07E     		ldrb	r0, [r4, #27]	@ zero_extendqisi2
 2331 0108 FFF7FEFF 		bl	displayContrasena
 2332              	.LVL184:
 542:main.c        ****     
 543:main.c        ****     for(i=0;i<80;i++){
 2333              		.loc 1 543 0
 2334 010c 0022     		movs	r2, #0
 2335 010e 554B     		ldr	r3, .L571+36
 2336 0110 1A70     		strb	r2, [r3]
 2337 0112 09E0     		b	.L185
 2338              	.L186:
 544:main.c        ****         Temperatura=leeTermocupla(MediaMovil);
 2339              		.loc 1 544 0 discriminator 3
 2340 0114 544B     		ldr	r3, .L571+40
 2341 0116 1878     		ldrb	r0, [r3]	@ zero_extendqisi2
 2342 0118 FFF7FEFF 		bl	leeTermocupla
 2343              	.LVL185:
 2344 011c 534B     		ldr	r3, .L571+44
 2345 011e 1860     		str	r0, [r3]	@ float
 543:main.c        ****         Temperatura=leeTermocupla(MediaMovil);
 2346              		.loc 1 543 0 discriminator 3
 2347 0120 504A     		ldr	r2, .L571+36
 2348 0122 1378     		ldrb	r3, [r2]	@ zero_extendqisi2
 2349 0124 0133     		adds	r3, r3, #1
 2350 0126 1370     		strb	r3, [r2]
 2351              	.L185:
 543:main.c        ****         Temperatura=leeTermocupla(MediaMovil);
 2352              		.loc 1 543 0 is_stmt 0 discriminator 1
 2353 0128 4E4B     		ldr	r3, .L571+36
 2354 012a 1B78     		ldrb	r3, [r3]	@ zero_extendqisi2
 2355 012c 4F2B     		cmp	r3, #79
 2356 012e F1D9     		bls	.L186
 545:main.c        ****     }
 546:main.c        ****     penInicial=penMufla;
 2357              		.loc 1 546 0 is_stmt 1
 2358 0130 4F4B     		ldr	r3, .L571+48
 2359 0132 1A68     		ldr	r2, [r3]	@ float
 2360 0134 4F4B     		ldr	r3, .L571+52
 2361 0136 1A60     		str	r2, [r3]	@ float
 547:main.c        ****     Opcion=1;Control=0;    
 2362              		.loc 1 547 0
 2363 0138 0125     		movs	r5, #1
 2364 013a 4F4B     		ldr	r3, .L571+56
 2365 013c 1D70     		strb	r5, [r3]
ARM GAS  C:\Users\USUARIO\AppData\Local\Temp\ccdk1rSB.s 			page 55


 2366 013e 0024     		movs	r4, #0
 2367 0140 4E4B     		ldr	r3, .L571+60
 2368 0142 1C80     		strh	r4, [r3]	@ movhi
 548:main.c        ****     
 549:main.c        ****     BUZZER_Write(1);
 2369              		.loc 1 549 0
 2370 0144 2846     		mov	r0, r5
 2371 0146 FFF7FEFF 		bl	BUZZER_Write
 2372              	.LVL186:
 550:main.c        ****     CyDelay(100);
 2373              		.loc 1 550 0
 2374 014a 6420     		movs	r0, #100
 2375 014c FFF7FEFF 		bl	CyDelay
 2376              	.LVL187:
 551:main.c        ****     BUZZER_Write(0); 
 2377              		.loc 1 551 0
 2378 0150 2046     		mov	r0, r4
 2379 0152 FFF7FEFF 		bl	BUZZER_Write
 2380              	.LVL188:
 552:main.c        ****     Menu=0;  
 2381              		.loc 1 552 0
 2382 0156 4A4B     		ldr	r3, .L571+64
 2383 0158 1C70     		strb	r4, [r3]
 553:main.c        ****     unidad=1;
 2384              		.loc 1 553 0
 2385 015a 4A4B     		ldr	r3, .L571+68
 2386 015c 1D70     		strb	r5, [r3]
 554:main.c        ****     finalizoCiclo=OFF;
 2387              		.loc 1 554 0
 2388 015e 4A4B     		ldr	r3, .L571+72
 2389 0160 1C80     		strh	r4, [r3]	@ movhi
 555:main.c        ****     flagGuardaEstado=OFF;
 2390              		.loc 1 555 0
 2391 0162 4A4B     		ldr	r3, .L571+76
 2392 0164 1C80     		strh	r4, [r3]	@ movhi
 556:main.c        ****     
 557:main.c        ****     m1=((float)control2-(float)control1)/((float)patron2-(float)patron1);
 2393              		.loc 1 557 0
 2394 0166 4A4B     		ldr	r3, .L571+80
 2395 0168 B3F90000 		ldrsh	r0, [r3]
 2396 016c FFF7FEFF 		bl	__aeabi_i2f
 2397              	.LVL189:
 2398 0170 0546     		mov	r5, r0
 2399 0172 484B     		ldr	r3, .L571+84
 2400 0174 B3F90000 		ldrsh	r0, [r3]
 2401 0178 FFF7FEFF 		bl	__aeabi_i2f
 2402              	.LVL190:
 2403 017c 0146     		mov	r1, r0
 2404 017e 2846     		mov	r0, r5
 2405 0180 FFF7FEFF 		bl	__aeabi_fsub
 2406              	.LVL191:
 2407 0184 0646     		mov	r6, r0
 2408 0186 444B     		ldr	r3, .L571+88
 2409 0188 B3F90000 		ldrsh	r0, [r3]
 2410 018c FFF7FEFF 		bl	__aeabi_i2f
 2411              	.LVL192:
 2412 0190 0446     		mov	r4, r0
ARM GAS  C:\Users\USUARIO\AppData\Local\Temp\ccdk1rSB.s 			page 56


 2413 0192 424B     		ldr	r3, .L571+92
 2414 0194 B3F90000 		ldrsh	r0, [r3]
 2415 0198 FFF7FEFF 		bl	__aeabi_i2f
 2416              	.LVL193:
 2417 019c 0146     		mov	r1, r0
 2418 019e 2046     		mov	r0, r4
 2419 01a0 FFF7FEFF 		bl	__aeabi_fsub
 2420              	.LVL194:
 2421 01a4 0146     		mov	r1, r0
 2422 01a6 3046     		mov	r0, r6
 2423 01a8 FFF7FEFF 		bl	__aeabi_fdiv
 2424              	.LVL195:
 2425 01ac 0146     		mov	r1, r0
 2426 01ae 3C4B     		ldr	r3, .L571+96
 2427 01b0 1860     		str	r0, [r3]	@ float
 558:main.c        ****     b1=(float)control2-(m1*(float)patron2);
 2428              		.loc 1 558 0
 2429 01b2 2046     		mov	r0, r4
 2430 01b4 FFF7FEFF 		bl	__aeabi_fmul
 2431              	.LVL196:
 2432 01b8 0146     		mov	r1, r0
 2433 01ba 2846     		mov	r0, r5
 2434 01bc FFF7FEFF 		bl	__aeabi_fsub
 2435              	.LVL197:
 2436 01c0 384B     		ldr	r3, .L571+100
 2437 01c2 1860     		str	r0, [r3]	@ float
 559:main.c        ****     m2=((float)control3-(float)control2)/((float)patron3-(float)patron2);
 2438              		.loc 1 559 0
 2439 01c4 384B     		ldr	r3, .L571+104
 2440 01c6 B3F90000 		ldrsh	r0, [r3]
 2441 01ca FFF7FEFF 		bl	__aeabi_i2f
 2442              	.LVL198:
 2443 01ce 0646     		mov	r6, r0
 2444 01d0 2946     		mov	r1, r5
 2445 01d2 FFF7FEFF 		bl	__aeabi_fsub
 2446              	.LVL199:
 2447 01d6 0746     		mov	r7, r0
 2448 01d8 344B     		ldr	r3, .L571+108
 2449 01da B3F90000 		ldrsh	r0, [r3]
 2450 01de FFF7FEFF 		bl	__aeabi_i2f
 2451              	.LVL200:
 2452 01e2 0546     		mov	r5, r0
 2453 01e4 2146     		mov	r1, r4
 2454 01e6 FFF7FEFF 		bl	__aeabi_fsub
 2455              	.LVL201:
 2456 01ea 0146     		mov	r1, r0
 2457 01ec 3846     		mov	r0, r7
 2458 01ee FFF7FEFF 		bl	__aeabi_fdiv
 2459              	.LVL202:
 2460 01f2 0146     		mov	r1, r0
 2461 01f4 2E4B     		ldr	r3, .L571+112
 2462 01f6 1860     		str	r0, [r3]	@ float
 560:main.c        ****     b2=(float)control3-(m2*(float)patron3);
 2463              		.loc 1 560 0
 2464 01f8 2846     		mov	r0, r5
 2465 01fa FFF7FEFF 		bl	__aeabi_fmul
 2466              	.LVL203:
ARM GAS  C:\Users\USUARIO\AppData\Local\Temp\ccdk1rSB.s 			page 57


 2467 01fe 0146     		mov	r1, r0
 2468 0200 3046     		mov	r0, r6
 2469 0202 FFF7FEFF 		bl	__aeabi_fsub
 2470              	.LVL204:
 2471 0206 2B4B     		ldr	r3, .L571+116
 2472 0208 1860     		str	r0, [r3]	@ float
 561:main.c        ****     //m3=(1200.0-(float)control3)/(1200.0-(float)patron3);
 562:main.c        ****     //b3=1200.0-(m3*(float)patron3);
 563:main.c        ****     
 564:main.c        ****     if(controlT==0){
 2473              		.loc 1 564 0
 2474 020a 2B4B     		ldr	r3, .L571+120
 2475 020c 1B78     		ldrb	r3, [r3]	@ zero_extendqisi2
 2476 020e 002B     		cmp	r3, #0
 2477 0210 00F0F880 		beq	.L187
 565:main.c        ****         Menu=0;      
 566:main.c        ****     }else{
 567:main.c        ****         Menu=20;glcd_fillScreen(OFF);
 2478              		.loc 1 567 0
 2479 0214 1422     		movs	r2, #20
 2480 0216 1A4B     		ldr	r3, .L571+64
 2481 0218 1A70     		strb	r2, [r3]
 2482 021a 0020     		movs	r0, #0
 2483 021c FFF7FEFF 		bl	glcd_fillScreen
 2484              	.LVL205:
 568:main.c        ****          for(i=0;i<Pasos;i++){
 2485              		.loc 1 568 0
 2486 0220 0022     		movs	r2, #0
 2487 0222 104B     		ldr	r3, .L571+36
 2488 0224 1A70     		strb	r2, [r3]
 2489 0226 55E0     		b	.L188
 2490              	.L191:
 569:main.c        ****             if(Temperatura1[i+((ProgramaSeleccionado)*Pasos)]==0){
 2491              		.loc 1 569 0
 2492 0228 244A     		ldr	r2, .L571+124
 2493 022a 1278     		ldrb	r2, [r2]	@ zero_extendqisi2
 2494 022c 03EB0212 		add	r2, r3, r2, lsl #4
 2495 0230 2349     		ldr	r1, .L571+128
 2496 0232 31F91220 		ldrsh	r2, [r1, r2, lsl #1]
 2497 0236 002A     		cmp	r2, #0
 2498 0238 46D1     		bne	.L189
 570:main.c        ****                Segmentos=i;
 2499              		.loc 1 570 0
 2500 023a 224A     		ldr	r2, .L571+132
 2501 023c 1370     		strb	r3, [r2]
 571:main.c        ****                break;
 2502              		.loc 1 571 0
 2503 023e 4DE0     		b	.L190
 2504              	.L572:
 2505              		.align	2
 2506              	.L571:
 2507 0240 00000000 		.word	Reloj2
 2508 0244 00000000 		.word	inteRX1
 2509 0248 00000000 		.word	ADC_SAR_ISR_LOC
 2510 024c 00000000 		.word	Menus
 2511 0250 00000000 		.word	.LC0
 2512 0254 0C000000 		.word	.LC1
ARM GAS  C:\Users\USUARIO\AppData\Local\Temp\ccdk1rSB.s 			page 58


 2513 0258 20000000 		.word	.LC2
 2514 025c 30000000 		.word	.LC3
 2515 0260 00000000 		.word	.LANCHOR0
 2516 0264 00000000 		.word	i
 2517 0268 00000000 		.word	MediaMovil
 2518 026c 00000000 		.word	Temperatura
 2519 0270 00000000 		.word	.LANCHOR1
 2520 0274 00000000 		.word	penInicial
 2521 0278 00000000 		.word	Opcion
 2522 027c 00000000 		.word	Control
 2523 0280 00000000 		.word	Menu
 2524 0284 00000000 		.word	unidad
 2525 0288 00000000 		.word	finalizoCiclo
 2526 028c 00000000 		.word	flagGuardaEstado
 2527 0290 00000000 		.word	control2
 2528 0294 00000000 		.word	control1
 2529 0298 00000000 		.word	patron2
 2530 029c 00000000 		.word	patron1
 2531 02a0 00000000 		.word	m1
 2532 02a4 00000000 		.word	b1
 2533 02a8 00000000 		.word	control3
 2534 02ac 00000000 		.word	patron3
 2535 02b0 00000000 		.word	m2
 2536 02b4 00000000 		.word	b2
 2537 02b8 00000000 		.word	controlT
 2538 02bc 00000000 		.word	ProgramaSeleccionado
 2539 02c0 00000000 		.word	Temperatura1
 2540 02c4 00000000 		.word	Segmentos
 2541              	.L189:
 572:main.c        ****             }
 573:main.c        ****             else{
 574:main.c        ****                Segmentos=Pasos-1;
 2542              		.loc 1 574 0 discriminator 2
 2543 02c8 0F21     		movs	r1, #15
 2544 02ca B14A     		ldr	r2, .L573
 2545 02cc 1170     		strb	r1, [r2]
 568:main.c        ****             if(Temperatura1[i+((ProgramaSeleccionado)*Pasos)]==0){
 2546              		.loc 1 568 0 discriminator 2
 2547 02ce 0133     		adds	r3, r3, #1
 2548 02d0 B04A     		ldr	r2, .L573+4
 2549 02d2 1370     		strb	r3, [r2]
 2550              	.L188:
 568:main.c        ****             if(Temperatura1[i+((ProgramaSeleccionado)*Pasos)]==0){
 2551              		.loc 1 568 0 is_stmt 0 discriminator 1
 2552 02d4 AF4B     		ldr	r3, .L573+4
 2553 02d6 1B78     		ldrb	r3, [r3]	@ zero_extendqisi2
 2554 02d8 0F2B     		cmp	r3, #15
 2555 02da A5D9     		bls	.L191
 2556              	.L190:
 575:main.c        ****             }
 576:main.c        ****             //Horas1[i+((Opcion-1)*10)]=0;
 577:main.c        ****             //Minutos1[i+((Opcion-1)*10)]=0;
 578:main.c        ****          }
 579:main.c        ****          if(Segmentos>0){
 2557              		.loc 1 579 0 is_stmt 1
 2558 02dc AC4B     		ldr	r3, .L573
 2559 02de 1B78     		ldrb	r3, [r3]	@ zero_extendqisi2
ARM GAS  C:\Users\USUARIO\AppData\Local\Temp\ccdk1rSB.s 			page 59


 2560 02e0 002B     		cmp	r3, #0
 2561 02e2 00F08C80 		beq	.L192
 580:main.c        ****             glcd_fillScreen(OFF);
 2562              		.loc 1 580 0
 2563 02e6 0020     		movs	r0, #0
 2564 02e8 FFF7FEFF 		bl	glcd_fillScreen
 2565              	.LVL206:
 581:main.c        ****             
 582:main.c        ****             strcpy(Menus.Letra," Segmentos");
 2566              		.loc 1 582 0
 2567 02ec AA4C     		ldr	r4, .L573+8
 2568 02ee AB4B     		ldr	r3, .L573+12
 2569 02f0 03CB     		ldmia	r3!, {r0, r1}
 2570 02f2 2060     		str	r0, [r4]	@ unaligned
 2571 02f4 6160     		str	r1, [r4, #4]	@ unaligned
 2572 02f6 1A88     		ldrh	r2, [r3]	@ unaligned
 2573 02f8 9B78     		ldrb	r3, [r3, #2]	@ zero_extendqisi2
 2574 02fa 2281     		strh	r2, [r4, #8]	@ unaligned
 2575 02fc A372     		strb	r3, [r4, #10]
 583:main.c        ****             displayMenu(Menus.Letra,0,0,0,2);
 2576              		.loc 1 583 0
 2577 02fe 0225     		movs	r5, #2
 2578 0300 0095     		str	r5, [sp]
 2579 0302 0023     		movs	r3, #0
 2580 0304 1A46     		mov	r2, r3
 2581 0306 1946     		mov	r1, r3
 2582 0308 2046     		mov	r0, r4
 2583 030a FFF7FEFF 		bl	displayMenu
 2584              	.LVL207:
 584:main.c        ****             
 585:main.c        ****             displayTiempo(Segmentos,63,30,3,2);
 2585              		.loc 1 585 0
 2586 030e A04B     		ldr	r3, .L573
 2587 0310 1878     		ldrb	r0, [r3]	@ zero_extendqisi2
 2588 0312 0095     		str	r5, [sp]
 2589 0314 0323     		movs	r3, #3
 2590 0316 1E22     		movs	r2, #30
 2591 0318 3F21     		movs	r1, #63
 2592 031a FFF7FEFF 		bl	displayTiempo
 2593              	.LVL208:
 586:main.c        ****             CyDelay(2000);
 2594              		.loc 1 586 0
 2595 031e 4FF4FA60 		mov	r0, #2000
 2596 0322 FFF7FEFF 		bl	CyDelay
 2597              	.LVL209:
 587:main.c        ****             glcd_fillScreen(OFF);
 2598              		.loc 1 587 0
 2599 0326 0020     		movs	r0, #0
 2600 0328 FFF7FEFF 		bl	glcd_fillScreen
 2601              	.LVL210:
 588:main.c        ****             Opcion=1;visual=1;//Faltaa cuadrar esta parte
 2602              		.loc 1 588 0
 2603 032c 0123     		movs	r3, #1
 2604 032e 9C4A     		ldr	r2, .L573+16
 2605 0330 1370     		strb	r3, [r2]
 2606 0332 9C4A     		ldr	r2, .L573+20
 2607 0334 1380     		strh	r3, [r2]	@ movhi
ARM GAS  C:\Users\USUARIO\AppData\Local\Temp\ccdk1rSB.s 			page 60


 589:main.c        ****             TempeInicial=Temperatura;
 2608              		.loc 1 589 0
 2609 0336 9C4B     		ldr	r3, .L573+24
 2610 0338 D3F80090 		ldr	r9, [r3]	@ float
 2611 033c 9B4B     		ldr	r3, .L573+28
 2612 033e C3F80090 		str	r9, [r3]	@ float
 590:main.c        ****             
 591:main.c        ****             Tiempo=(Horas1[ProgramaSeleccionado*Pasos]*3600)+(Minutos1[ProgramaSeleccionado*Pasos]*
 2613              		.loc 1 591 0
 2614 0342 9B4B     		ldr	r3, .L573+32
 2615 0344 1A78     		ldrb	r2, [r3]	@ zero_extendqisi2
 2616 0346 1201     		lsls	r2, r2, #4
 2617 0348 DFF8BC82 		ldr	r8, .L573+120
 2618 034c 38F91270 		ldrsh	r7, [r8, r2, lsl #1]
 2619 0350 984E     		ldr	r6, .L573+36
 2620 0352 36F91230 		ldrsh	r3, [r6, r2, lsl #1]
 2621 0356 C7EB0717 		rsb	r7, r7, r7, lsl #4
 2622 035a C7EB0717 		rsb	r7, r7, r7, lsl #4
 2623 035e C3EB0313 		rsb	r3, r3, r3, lsl #4
 2624 0362 AB40     		lsls	r3, r3, r5
 2625 0364 03EB0717 		add	r7, r3, r7, lsl #4
 2626 0368 BFB2     		uxth	r7, r7
 2627 036a 934B     		ldr	r3, .L573+40
 2628 036c 1F80     		strh	r7, [r3]	@ movhi
 592:main.c        ****             Setpoint=Temperatura1[(ProgramaSeleccionado*Pasos)+Segmento];
 2629              		.loc 1 592 0
 2630 036e 934B     		ldr	r3, .L573+44
 2631 0370 1C78     		ldrb	r4, [r3]	@ zero_extendqisi2
 2632 0372 1444     		add	r4, r4, r2
 2633 0374 924B     		ldr	r3, .L573+48
 2634 0376 33F81450 		ldrh	r5, [r3, r4, lsl #1]
 2635 037a 924B     		ldr	r3, .L573+52
 2636 037c 1D80     		strh	r5, [r3]	@ movhi
 593:main.c        ****             Pendiente=((Setpoint-TempeInicial)/Tiempo);
 2637              		.loc 1 593 0
 2638 037e 2846     		mov	r0, r5
 2639 0380 FFF7FEFF 		bl	__aeabi_i2f
 2640              	.LVL211:
 2641 0384 4946     		mov	r1, r9
 2642 0386 FFF7FEFF 		bl	__aeabi_fsub
 2643              	.LVL212:
 2644 038a 8146     		mov	r9, r0
 2645 038c 3846     		mov	r0, r7
 2646 038e FFF7FEFF 		bl	__aeabi_i2f
 2647              	.LVL213:
 2648 0392 0146     		mov	r1, r0
 2649 0394 4846     		mov	r0, r9
 2650 0396 FFF7FEFF 		bl	__aeabi_fdiv
 2651              	.LVL214:
 2652 039a 8B4B     		ldr	r3, .L573+56
 2653 039c 1860     		str	r0, [r3]	@ float
 594:main.c        ****             Testerilizacionp[3]=(int8)Horas1[(ProgramaSeleccionado*Pasos)+Segmento]/10;
 2654              		.loc 1 594 0
 2655 039e 38F91420 		ldrsh	r2, [r8, r4, lsl #1]
 2656 03a2 53B2     		sxtb	r3, r2
 2657 03a4 8948     		ldr	r0, .L573+60
 2658 03a6 80FB0371 		smull	r7, r1, r0, r3
ARM GAS  C:\Users\USUARIO\AppData\Local\Temp\ccdk1rSB.s 			page 61


 2659 03aa DB17     		asrs	r3, r3, #31
 2660 03ac C3EBA103 		rsb	r3, r3, r1, asr #2
 2661 03b0 5BB2     		sxtb	r3, r3
 2662 03b2 8749     		ldr	r1, .L573+64
 2663 03b4 CB75     		strb	r3, [r1, #23]
 595:main.c        ****             Testerilizacionp[2]=Horas1[(ProgramaSeleccionado*Pasos)+Segmento]-(Testerilizacionp[3]*
 2664              		.loc 1 595 0
 2665 03b6 C3EB4317 		rsb	r7, r3, r3, lsl #5
 2666 03ba C3EB8703 		rsb	r3, r3, r7, lsl #2
 2667 03be 02EB4303 		add	r3, r2, r3, lsl #1
 2668 03c2 8B75     		strb	r3, [r1, #22]
 596:main.c        ****             Testerilizacionp[1]=Minutos1[(ProgramaSeleccionado*Pasos)+Segmento]/10;
 2669              		.loc 1 596 0
 2670 03c4 36F91420 		ldrsh	r2, [r6, r4, lsl #1]
 2671 03c8 80FB0230 		smull	r3, r0, r0, r2
 2672 03cc D317     		asrs	r3, r2, #31
 2673 03ce C3EBA003 		rsb	r3, r3, r0, asr #2
 2674 03d2 5BB2     		sxtb	r3, r3
 2675 03d4 4B75     		strb	r3, [r1, #21]
 597:main.c        ****             Testerilizacionp[0]=Minutos1[(ProgramaSeleccionado*Pasos)+Segmento]-(Testerilizacionp[1
 2676              		.loc 1 597 0
 2677 03d6 C3EB4310 		rsb	r0, r3, r3, lsl #5
 2678 03da C3EB8003 		rsb	r3, r3, r0, lsl #2
 2679 03de 02EB4303 		add	r3, r2, r3, lsl #1
 2680 03e2 0B75     		strb	r3, [r1, #20]
 598:main.c        ****             Ganancia=GananciaIn*(Setpoint/Coeficiente);
 2681              		.loc 1 598 0
 2682 03e4 7B4B     		ldr	r3, .L573+68
 2683 03e6 1888     		ldrh	r0, [r3]
 2684 03e8 B5FBF0F0 		udiv	r0, r5, r0
 2685 03ec FFF7FEFF 		bl	__aeabi_i2f
 2686              	.LVL215:
 2687 03f0 794B     		ldr	r3, .L573+72
 2688 03f2 1968     		ldr	r1, [r3]	@ float
 2689 03f4 FFF7FEFF 		bl	__aeabi_fmul
 2690              	.LVL216:
 2691 03f8 784B     		ldr	r3, .L573+76
 2692 03fa 1860     		str	r0, [r3]	@ float
 2693 03fc 02E0     		b	.L187
 2694              	.L192:
 599:main.c        ****          }else{
 600:main.c        ****             Menu=0;             
 2695              		.loc 1 600 0
 2696 03fe 0022     		movs	r2, #0
 2697 0400 774B     		ldr	r3, .L573+80
 2698 0402 1A70     		strb	r2, [r3]
 2699              	.L187:
 601:main.c        ****          }
 602:main.c        ****     }
 603:main.c        ****     
 604:main.c        ****     if(UP_Read()==0 && DOWN_Read()==0){
 2700              		.loc 1 604 0
 2701 0404 FFF7FEFF 		bl	UP_Read
 2702              	.LVL217:
 2703 0408 0028     		cmp	r0, #0
 2704 040a 4DD1     		bne	.L195
 2705              		.loc 1 604 0 is_stmt 0 discriminator 1
ARM GAS  C:\Users\USUARIO\AppData\Local\Temp\ccdk1rSB.s 			page 62


 2706 040c FFF7FEFF 		bl	DOWN_Read
 2707              	.LVL218:
 2708 0410 0028     		cmp	r0, #0
 2709 0412 49D1     		bne	.L195
 2710              	.L196:
 605:main.c        ****         for(;;){ 
 606:main.c        ****             displayTemperatura((uint16)leeTermocupla(MediaMovil),30,45,0,1);
 2711              		.loc 1 606 0 is_stmt 1
 2712 0414 734B     		ldr	r3, .L573+84
 2713 0416 1878     		ldrb	r0, [r3]	@ zero_extendqisi2
 2714 0418 FFF7FEFF 		bl	leeTermocupla
 2715              	.LVL219:
 2716 041c FFF7FEFF 		bl	__aeabi_f2uiz
 2717              	.LVL220:
 2718 0420 0124     		movs	r4, #1
 2719 0422 0094     		str	r4, [sp]
 2720 0424 0023     		movs	r3, #0
 2721 0426 2D22     		movs	r2, #45
 2722 0428 1E21     		movs	r1, #30
 2723 042a 00B2     		sxth	r0, r0
 2724 042c FFF7FEFF 		bl	displayTemperatura
 2725              	.LVL221:
 607:main.c        ****             displayFloat(Temperatura,30,15,1);
 2726              		.loc 1 607 0
 2727 0430 2346     		mov	r3, r4
 2728 0432 0F22     		movs	r2, #15
 2729 0434 1E21     		movs	r1, #30
 2730 0436 5C48     		ldr	r0, .L573+24
 2731 0438 0068     		ldr	r0, [r0]	@ float
 2732 043a FFF7FEFF 		bl	displayFloat
 2733              	.LVL222:
 608:main.c        ****             displayTemperatura((uint16)coldJnTemp,30,0,0,1);
 2734              		.loc 1 608 0
 2735 043e 6A4B     		ldr	r3, .L573+88
 2736 0440 B3F90000 		ldrsh	r0, [r3]
 2737 0444 0094     		str	r4, [sp]
 2738 0446 0023     		movs	r3, #0
 2739 0448 1A46     		mov	r2, r3
 2740 044a 1E21     		movs	r1, #30
 2741 044c FFF7FEFF 		bl	displayTemperatura
 2742              	.LVL223:
 609:main.c        ****             glcd_fillScreen(OFF);
 2743              		.loc 1 609 0
 2744 0450 0020     		movs	r0, #0
 2745 0452 FFF7FEFF 		bl	glcd_fillScreen
 2746              	.LVL224:
 610:main.c        ****             glcd_update();  
 2747              		.loc 1 610 0
 2748 0456 FFF7FEFF 		bl	glcd_update
 2749              	.LVL225:
 611:main.c        ****             //Temperatura=leeTermocupla(20);
 612:main.c        ****             if(Lectura2){
 2750              		.loc 1 612 0
 2751 045a 644B     		ldr	r3, .L573+92
 2752 045c B3F90030 		ldrsh	r3, [r3]
 2753 0460 002B     		cmp	r3, #0
 2754 0462 D7D0     		beq	.L196
ARM GAS  C:\Users\USUARIO\AppData\Local\Temp\ccdk1rSB.s 			page 63


 613:main.c        ****                 grafica=ON;
 2755              		.loc 1 613 0
 2756 0464 624B     		ldr	r3, .L573+96
 2757 0466 1C80     		strh	r4, [r3]	@ movhi
 614:main.c        ****                 Lectura2=0;
 2758              		.loc 1 614 0
 2759 0468 0022     		movs	r2, #0
 2760 046a 604B     		ldr	r3, .L573+92
 2761 046c 1A80     		strh	r2, [r3]	@ movhi
 615:main.c        ****                 Temperatura=leeTermocupla(20);
 2762              		.loc 1 615 0
 2763 046e 1420     		movs	r0, #20
 2764 0470 FFF7FEFF 		bl	leeTermocupla
 2765              	.LVL226:
 2766 0474 4C4B     		ldr	r3, .L573+24
 2767 0476 1860     		str	r0, [r3]	@ float
 616:main.c        ****                 
 617:main.c        ****                 if(!Test){
 2768              		.loc 1 617 0
 2769 0478 5E4B     		ldr	r3, .L573+100
 2770 047a B3F90030 		ldrsh	r3, [r3]
 2771 047e 002B     		cmp	r3, #0
 2772 0480 C8D1     		bne	.L196
 618:main.c        ****                     if(coldJnTemp>=3000){
 2773              		.loc 1 618 0
 2774 0482 594B     		ldr	r3, .L573+88
 2775 0484 B3F90030 		ldrsh	r3, [r3]
 2776 0488 40F6B732 		movw	r2, #2999
 2777 048c 9342     		cmp	r3, r2
 2778 048e 03DD     		ble	.L198
 619:main.c        ****                         VENT1_Write(0);    
 2779              		.loc 1 619 0
 2780 0490 0020     		movs	r0, #0
 2781 0492 FFF7FEFF 		bl	VENT1_Write
 2782              	.LVL227:
 2783 0496 BDE7     		b	.L196
 2784              	.L198:
 620:main.c        ****                     }else if(coldJnTemp<2500){
 2785              		.loc 1 620 0
 2786 0498 40F6C312 		movw	r2, #2499
 2787 049c 9342     		cmp	r3, r2
 2788 049e B9DC     		bgt	.L196
 621:main.c        ****                         VENT1_Write(1);   
 2789              		.loc 1 621 0
 2790 04a0 0120     		movs	r0, #1
 2791 04a2 FFF7FEFF 		bl	VENT1_Write
 2792              	.LVL228:
 2793 04a6 B5E7     		b	.L196
 2794              	.L195:
 622:main.c        ****                     }
 623:main.c        ****                 }
 624:main.c        ****             }
 625:main.c        ****         }
 626:main.c        ****     }
 627:main.c        ****     
 628:main.c        ****     for(;;)
 629:main.c        ****     {   
ARM GAS  C:\Users\USUARIO\AppData\Local\Temp\ccdk1rSB.s 			page 64


 630:main.c        ****         if(Lectura2){
 2795              		.loc 1 630 0
 2796 04a8 504B     		ldr	r3, .L573+92
 2797 04aa B3F90030 		ldrsh	r3, [r3]
 2798 04ae 3BB3     		cbz	r3, .L199
 631:main.c        ****             grafica=ON;
 2799              		.loc 1 631 0
 2800 04b0 0122     		movs	r2, #1
 2801 04b2 4F4B     		ldr	r3, .L573+96
 2802 04b4 1A80     		strh	r2, [r3]	@ movhi
 632:main.c        ****             Lectura2=0;
 2803              		.loc 1 632 0
 2804 04b6 0022     		movs	r2, #0
 2805 04b8 4C4B     		ldr	r3, .L573+92
 2806 04ba 1A80     		strh	r2, [r3]	@ movhi
 633:main.c        ****             Temperatura=leeTermocupla(MediaMovil);
 2807              		.loc 1 633 0
 2808 04bc 494B     		ldr	r3, .L573+84
 2809 04be 1878     		ldrb	r0, [r3]	@ zero_extendqisi2
 2810 04c0 FFF7FEFF 		bl	leeTermocupla
 2811              	.LVL229:
 2812 04c4 384B     		ldr	r3, .L573+24
 2813 04c6 1860     		str	r0, [r3]	@ float
 634:main.c        ****             if(coldJnTemp>=3000 || Temperatura>150){
 2814              		.loc 1 634 0
 2815 04c8 474B     		ldr	r3, .L573+88
 2816 04ca B3F90040 		ldrsh	r4, [r3]
 2817 04ce 40F6B733 		movw	r3, #2999
 2818 04d2 9C42     		cmp	r4, r3
 2819 04d4 03DC     		bgt	.L200
 2820              		.loc 1 634 0 is_stmt 0 discriminator 1
 2821 04d6 4849     		ldr	r1, .L573+104
 2822 04d8 FFF7FEFF 		bl	__aeabi_fcmpgt
 2823              	.LVL230:
 2824 04dc 30B1     		cbz	r0, .L566
 2825              	.L200:
 635:main.c        ****                 VENT1_Write(0);    
 2826              		.loc 1 635 0 is_stmt 1
 2827 04de 0020     		movs	r0, #0
 2828 04e0 FFF7FEFF 		bl	VENT1_Write
 2829              	.LVL231:
 636:main.c        ****                 VENT2_Write(0); 
 2830              		.loc 1 636 0
 2831 04e4 0020     		movs	r0, #0
 2832 04e6 FFF7FEFF 		bl	VENT2_Write
 2833              	.LVL232:
 2834 04ea 09E0     		b	.L199
 2835              	.L566:
 637:main.c        ****             }else if(coldJnTemp<2500){
 2836              		.loc 1 637 0
 2837 04ec 40F6C313 		movw	r3, #2499
 2838 04f0 9C42     		cmp	r4, r3
 2839 04f2 05DC     		bgt	.L199
 638:main.c        ****                 VENT1_Write(1);   
 2840              		.loc 1 638 0
 2841 04f4 0120     		movs	r0, #1
 2842 04f6 FFF7FEFF 		bl	VENT1_Write
ARM GAS  C:\Users\USUARIO\AppData\Local\Temp\ccdk1rSB.s 			page 65


 2843              	.LVL233:
 639:main.c        ****                 VENT2_Write(1); 
 2844              		.loc 1 639 0
 2845 04fa 0120     		movs	r0, #1
 2846 04fc FFF7FEFF 		bl	VENT2_Write
 2847              	.LVL234:
 2848              	.L199:
 640:main.c        ****             }
 641:main.c        ****             
 642:main.c        ****         }
 643:main.c        ****         
 644:main.c        ****     glcd_update();            
 2849              		.loc 1 644 0
 2850 0500 FFF7FEFF 		bl	glcd_update
 2851              	.LVL235:
 645:main.c        ****       
 646:main.c        **** //_------------------------------------------------------------------------------------------------
 647:main.c        ****       if(Menu==0){ //Menu de Contraseña.
 2852              		.loc 1 647 0
 2853 0504 364B     		ldr	r3, .L573+80
 2854 0506 1B78     		ldrb	r3, [r3]	@ zero_extendqisi2
 2855 0508 002B     		cmp	r3, #0
 2856 050a 40F00A82 		bne	.L203
 648:main.c        ****       
 649:main.c        ****       strcpy(Menus.Letra,"Clave");
 2857              		.loc 1 649 0
 2858 050e 224C     		ldr	r4, .L573+8
 2859 0510 3A4B     		ldr	r3, .L573+108
 2860 0512 1868     		ldr	r0, [r3]	@ unaligned
 2861 0514 2060     		str	r0, [r4]	@ unaligned
 2862 0516 9B88     		ldrh	r3, [r3, #4]	@ unaligned
 2863 0518 A380     		strh	r3, [r4, #4]	@ unaligned
 650:main.c        ****       displayMenu(Menus.Letra,30,0,1,2);     
 2864              		.loc 1 650 0
 2865 051a 0223     		movs	r3, #2
 2866 051c 0093     		str	r3, [sp]
 2867 051e 0123     		movs	r3, #1
 2868 0520 0022     		movs	r2, #0
 2869 0522 1E21     		movs	r1, #30
 2870 0524 2046     		mov	r0, r4
 2871 0526 FFF7FEFF 		bl	displayMenu
 2872              	.LVL236:
 651:main.c        ****       
 652:main.c        ****       if(tup>30){
 2873              		.loc 1 652 0
 2874 052a 354B     		ldr	r3, .L573+112
 2875 052c 1B88     		ldrh	r3, [r3]
 2876 052e 1E2B     		cmp	r3, #30
 2877 0530 40F28180 		bls	.L204
 653:main.c        ****          BUZZER_Write(1);CyDelay(10);BUZZER_Write(0);
 2878              		.loc 1 653 0
 2879 0534 0120     		movs	r0, #1
 2880 0536 FFF7FEFF 		bl	BUZZER_Write
 2881              	.LVL237:
 2882 053a 0A20     		movs	r0, #10
 2883 053c FFF7FEFF 		bl	CyDelay
 2884              	.LVL238:
ARM GAS  C:\Users\USUARIO\AppData\Local\Temp\ccdk1rSB.s 			page 66


 2885 0540 0020     		movs	r0, #0
 2886 0542 FFF7FEFF 		bl	BUZZER_Write
 2887              	.LVL239:
 654:main.c        ****          CyDelay(200);
 2888              		.loc 1 654 0
 2889 0546 C820     		movs	r0, #200
 2890 0548 FFF7FEFF 		bl	CyDelay
 2891              	.LVL240:
 655:main.c        ****          for(i=1;i<=4;i++){
 2892              		.loc 1 655 0
 2893 054c 0122     		movs	r2, #1
 2894 054e 114B     		ldr	r3, .L573+4
 2895 0550 1A70     		strb	r2, [r3]
 2896 0552 6CE0     		b	.L205
 2897              	.L209:
 656:main.c        ****             if(unidad==i){
 2898              		.loc 1 656 0
 2899 0554 2B4B     		ldr	r3, .L573+116
 2900 0556 1B78     		ldrb	r3, [r3]	@ zero_extendqisi2
 2901 0558 9942     		cmp	r1, r3
 2902 055a 57D1     		bne	.L206
 657:main.c        ****                Contrasena[i-1]++;
 2903              		.loc 1 657 0
 2904 055c 4A1E     		subs	r2, r1, #1
 2905 055e 1C48     		ldr	r0, .L573+64
 2906 0560 1044     		add	r0, r0, r2
 2907 0562 90F91830 		ldrsb	r3, [r0, #24]
 2908 0566 0133     		adds	r3, r3, #1
 2909 0568 5BB2     		sxtb	r3, r3
 2910 056a 0376     		strb	r3, [r0, #24]
 658:main.c        ****                if(Contrasena[i-1]>9)   
 2911              		.loc 1 658 0
 2912 056c 092B     		cmp	r3, #9
 2913 056e 02DD     		ble	.L207
 659:main.c        ****                   Contrasena[i-1]=0;
 2914              		.loc 1 659 0
 2915 0570 0346     		mov	r3, r0
 2916 0572 0020     		movs	r0, #0
 2917 0574 1876     		strb	r0, [r3, #24]
 2918              	.L207:
 660:main.c        ****                displayContrasena(Contrasena[i-1],i*20,30,1);
 2919              		.loc 1 660 0
 2920 0576 1648     		ldr	r0, .L573+64
 2921 0578 1044     		add	r0, r0, r2
 2922 057a 01EB8101 		add	r1, r1, r1, lsl #2
 2923 057e 8900     		lsls	r1, r1, #2
 2924 0580 0123     		movs	r3, #1
 2925 0582 1E22     		movs	r2, #30
 2926 0584 01F0FC01 		and	r1, r1, #252
 2927 0588 007E     		ldrb	r0, [r0, #24]	@ zero_extendqisi2
 2928 058a FFF7FEFF 		bl	displayContrasena
 2929              	.LVL241:
 2930 058e 4AE0     		b	.L208
 2931              	.L574:
 2932              		.align	2
 2933              	.L573:
 2934 0590 00000000 		.word	Segmentos
ARM GAS  C:\Users\USUARIO\AppData\Local\Temp\ccdk1rSB.s 			page 67


 2935 0594 00000000 		.word	i
 2936 0598 00000000 		.word	Menus
 2937 059c 3C000000 		.word	.LC4
 2938 05a0 00000000 		.word	Opcion
 2939 05a4 00000000 		.word	visual
 2940 05a8 00000000 		.word	Temperatura
 2941 05ac 00000000 		.word	TempeInicial
 2942 05b0 00000000 		.word	ProgramaSeleccionado
 2943 05b4 00000000 		.word	Minutos1
 2944 05b8 00000000 		.word	Tiempo
 2945 05bc 00000000 		.word	Segmento
 2946 05c0 00000000 		.word	Temperatura1
 2947 05c4 00000000 		.word	Setpoint
 2948 05c8 00000000 		.word	Pendiente
 2949 05cc 67666666 		.word	1717986919
 2950 05d0 00000000 		.word	.LANCHOR0
 2951 05d4 00000000 		.word	Coeficiente
 2952 05d8 00000000 		.word	GananciaIn
 2953 05dc 00000000 		.word	Ganancia
 2954 05e0 00000000 		.word	Menu
 2955 05e4 00000000 		.word	MediaMovil
 2956 05e8 00000000 		.word	coldJnTemp
 2957 05ec 00000000 		.word	Lectura2
 2958 05f0 00000000 		.word	grafica
 2959 05f4 00000000 		.word	Test
 2960 05f8 00001643 		.word	1125515264
 2961 05fc 48000000 		.word	.LC5
 2962 0600 00000000 		.word	tup
 2963 0604 00000000 		.word	unidad
 2964 0608 00000000 		.word	Horas1
 2965              	.L206:
 661:main.c        ****             }else{
 662:main.c        ****                displayContrasena(Contrasena[i-1],i*20,30,0);
 2966              		.loc 1 662 0
 2967 060c 4B1E     		subs	r3, r1, #1
 2968 060e 9548     		ldr	r0, .L575
 2969 0610 1844     		add	r0, r0, r3
 2970 0612 01EB8101 		add	r1, r1, r1, lsl #2
 2971 0616 8900     		lsls	r1, r1, #2
 2972 0618 0023     		movs	r3, #0
 2973 061a 1E22     		movs	r2, #30
 2974 061c 01F0FC01 		and	r1, r1, #252
 2975 0620 007E     		ldrb	r0, [r0, #24]	@ zero_extendqisi2
 2976 0622 FFF7FEFF 		bl	displayContrasena
 2977              	.LVL242:
 2978              	.L208:
 655:main.c        ****             if(unidad==i){
 2979              		.loc 1 655 0 discriminator 2
 2980 0626 904A     		ldr	r2, .L575+4
 2981 0628 1378     		ldrb	r3, [r2]	@ zero_extendqisi2
 2982 062a 0133     		adds	r3, r3, #1
 2983 062c 1370     		strb	r3, [r2]
 2984              	.L205:
 655:main.c        ****             if(unidad==i){
 2985              		.loc 1 655 0 is_stmt 0 discriminator 1
 2986 062e 8E4B     		ldr	r3, .L575+4
 2987 0630 1978     		ldrb	r1, [r3]	@ zero_extendqisi2
ARM GAS  C:\Users\USUARIO\AppData\Local\Temp\ccdk1rSB.s 			page 68


 2988 0632 0429     		cmp	r1, #4
 2989 0634 8ED9     		bls	.L209
 2990              	.L204:
 663:main.c        ****             }
 664:main.c        ****          }
 665:main.c        ****       }
 666:main.c        ****             
 667:main.c        ****       if(tdown>30){
 2991              		.loc 1 667 0 is_stmt 1
 2992 0636 8D4B     		ldr	r3, .L575+8
 2993 0638 1B88     		ldrh	r3, [r3]
 2994 063a 1E2B     		cmp	r3, #30
 2995 063c 42D9     		bls	.L210
 668:main.c        ****          BUZZER_Write(1);CyDelay(10);BUZZER_Write(0);
 2996              		.loc 1 668 0
 2997 063e 0120     		movs	r0, #1
 2998 0640 FFF7FEFF 		bl	BUZZER_Write
 2999              	.LVL243:
 3000 0644 0A20     		movs	r0, #10
 3001 0646 FFF7FEFF 		bl	CyDelay
 3002              	.LVL244:
 3003 064a 0020     		movs	r0, #0
 3004 064c FFF7FEFF 		bl	BUZZER_Write
 3005              	.LVL245:
 669:main.c        ****          CyDelay(200);
 3006              		.loc 1 669 0
 3007 0650 C820     		movs	r0, #200
 3008 0652 FFF7FEFF 		bl	CyDelay
 3009              	.LVL246:
 670:main.c        ****          for(i=1;i<=4;i++){
 3010              		.loc 1 670 0
 3011 0656 0122     		movs	r2, #1
 3012 0658 834B     		ldr	r3, .L575+4
 3013 065a 1A70     		strb	r2, [r3]
 3014 065c 2EE0     		b	.L211
 3015              	.L215:
 671:main.c        ****             if(unidad==i){
 3016              		.loc 1 671 0
 3017 065e 844B     		ldr	r3, .L575+12
 3018 0660 1B78     		ldrb	r3, [r3]	@ zero_extendqisi2
 3019 0662 9942     		cmp	r1, r3
 3020 0664 19D1     		bne	.L212
 672:main.c        ****                Contrasena[i-1]--;
 3021              		.loc 1 672 0
 3022 0666 4A1E     		subs	r2, r1, #1
 3023 0668 7E48     		ldr	r0, .L575
 3024 066a 1044     		add	r0, r0, r2
 3025 066c 90F91830 		ldrsb	r3, [r0, #24]
 3026 0670 013B     		subs	r3, r3, #1
 3027 0672 5BB2     		sxtb	r3, r3
 3028 0674 0376     		strb	r3, [r0, #24]
 673:main.c        ****                if(Contrasena[i-1]<0)
 3029              		.loc 1 673 0
 3030 0676 002B     		cmp	r3, #0
 3031 0678 02DA     		bge	.L213
 674:main.c        ****                   Contrasena[i-1]=9;
 3032              		.loc 1 674 0
ARM GAS  C:\Users\USUARIO\AppData\Local\Temp\ccdk1rSB.s 			page 69


 3033 067a 0346     		mov	r3, r0
 3034 067c 0920     		movs	r0, #9
 3035 067e 1876     		strb	r0, [r3, #24]
 3036              	.L213:
 675:main.c        ****                displayContrasena(Contrasena[i-1],i*20,30,1);}
 3037              		.loc 1 675 0
 3038 0680 7848     		ldr	r0, .L575
 3039 0682 1044     		add	r0, r0, r2
 3040 0684 01EB8101 		add	r1, r1, r1, lsl #2
 3041 0688 8900     		lsls	r1, r1, #2
 3042 068a 0123     		movs	r3, #1
 3043 068c 1E22     		movs	r2, #30
 3044 068e 01F0FC01 		and	r1, r1, #252
 3045 0692 007E     		ldrb	r0, [r0, #24]	@ zero_extendqisi2
 3046 0694 FFF7FEFF 		bl	displayContrasena
 3047              	.LVL247:
 3048 0698 0CE0     		b	.L214
 3049              	.L212:
 676:main.c        ****             else
 677:main.c        ****             displayContrasena(Contrasena[i-1],i*20,30,0);
 3050              		.loc 1 677 0
 3051 069a 4B1E     		subs	r3, r1, #1
 3052 069c 7148     		ldr	r0, .L575
 3053 069e 1844     		add	r0, r0, r3
 3054 06a0 01EB8101 		add	r1, r1, r1, lsl #2
 3055 06a4 8900     		lsls	r1, r1, #2
 3056 06a6 0023     		movs	r3, #0
 3057 06a8 1E22     		movs	r2, #30
 3058 06aa 01F0FC01 		and	r1, r1, #252
 3059 06ae 007E     		ldrb	r0, [r0, #24]	@ zero_extendqisi2
 3060 06b0 FFF7FEFF 		bl	displayContrasena
 3061              	.LVL248:
 3062              	.L214:
 670:main.c        ****             if(unidad==i){
 3063              		.loc 1 670 0 discriminator 2
 3064 06b4 6C4A     		ldr	r2, .L575+4
 3065 06b6 1378     		ldrb	r3, [r2]	@ zero_extendqisi2
 3066 06b8 0133     		adds	r3, r3, #1
 3067 06ba 1370     		strb	r3, [r2]
 3068              	.L211:
 670:main.c        ****             if(unidad==i){
 3069              		.loc 1 670 0 is_stmt 0 discriminator 1
 3070 06bc 6A4B     		ldr	r3, .L575+4
 3071 06be 1978     		ldrb	r1, [r3]	@ zero_extendqisi2
 3072 06c0 0429     		cmp	r1, #4
 3073 06c2 CCD9     		bls	.L215
 3074              	.L210:
 678:main.c        ****          }        
 679:main.c        ****       }
 680:main.c        ****             
 681:main.c        ****       if(tright>30){
 3075              		.loc 1 681 0 is_stmt 1
 3076 06c4 6B4B     		ldr	r3, .L575+16
 3077 06c6 1B88     		ldrh	r3, [r3]
 3078 06c8 1E2B     		cmp	r3, #30
 3079 06ca 3AD9     		bls	.L216
 682:main.c        ****          BUZZER_Write(1);CyDelay(10);BUZZER_Write(0);
ARM GAS  C:\Users\USUARIO\AppData\Local\Temp\ccdk1rSB.s 			page 70


 3080              		.loc 1 682 0
 3081 06cc 0120     		movs	r0, #1
 3082 06ce FFF7FEFF 		bl	BUZZER_Write
 3083              	.LVL249:
 3084 06d2 0A20     		movs	r0, #10
 3085 06d4 FFF7FEFF 		bl	CyDelay
 3086              	.LVL250:
 3087 06d8 0020     		movs	r0, #0
 3088 06da FFF7FEFF 		bl	BUZZER_Write
 3089              	.LVL251:
 683:main.c        ****          CyDelay(200);unidad++;
 3090              		.loc 1 683 0
 3091 06de C820     		movs	r0, #200
 3092 06e0 FFF7FEFF 		bl	CyDelay
 3093              	.LVL252:
 3094 06e4 624A     		ldr	r2, .L575+12
 3095 06e6 1378     		ldrb	r3, [r2]	@ zero_extendqisi2
 3096 06e8 0133     		adds	r3, r3, #1
 3097 06ea 1370     		strb	r3, [r2]
 684:main.c        ****          for(i=1;i<=4;i++){
 3098              		.loc 1 684 0
 3099 06ec 0122     		movs	r2, #1
 3100 06ee 5E4B     		ldr	r3, .L575+4
 3101 06f0 1A70     		strb	r2, [r3]
 3102 06f2 22E0     		b	.L217
 3103              	.L220:
 685:main.c        ****             if(unidad==i)
 3104              		.loc 1 685 0
 3105 06f4 5E4B     		ldr	r3, .L575+12
 3106 06f6 1B78     		ldrb	r3, [r3]	@ zero_extendqisi2
 3107 06f8 9942     		cmp	r1, r3
 3108 06fa 0DD1     		bne	.L218
 686:main.c        ****             {displayContrasena(Contrasena[i-1],i*20,30,1);}
 3109              		.loc 1 686 0
 3110 06fc 4B1E     		subs	r3, r1, #1
 3111 06fe 5948     		ldr	r0, .L575
 3112 0700 1844     		add	r0, r0, r3
 3113 0702 01EB8101 		add	r1, r1, r1, lsl #2
 3114 0706 8900     		lsls	r1, r1, #2
 3115 0708 0123     		movs	r3, #1
 3116 070a 1E22     		movs	r2, #30
 3117 070c 01F0FC01 		and	r1, r1, #252
 3118 0710 007E     		ldrb	r0, [r0, #24]	@ zero_extendqisi2
 3119 0712 FFF7FEFF 		bl	displayContrasena
 3120              	.LVL253:
 3121 0716 0CE0     		b	.L219
 3122              	.L218:
 687:main.c        ****             else
 688:main.c        ****             {displayContrasena(Contrasena[i-1],i*20,30,0);}
 3123              		.loc 1 688 0
 3124 0718 4B1E     		subs	r3, r1, #1
 3125 071a 5248     		ldr	r0, .L575
 3126 071c 1844     		add	r0, r0, r3
 3127 071e 01EB8101 		add	r1, r1, r1, lsl #2
 3128 0722 8900     		lsls	r1, r1, #2
 3129 0724 0023     		movs	r3, #0
 3130 0726 1E22     		movs	r2, #30
ARM GAS  C:\Users\USUARIO\AppData\Local\Temp\ccdk1rSB.s 			page 71


 3131 0728 01F0FC01 		and	r1, r1, #252
 3132 072c 007E     		ldrb	r0, [r0, #24]	@ zero_extendqisi2
 3133 072e FFF7FEFF 		bl	displayContrasena
 3134              	.LVL254:
 3135              	.L219:
 684:main.c        ****             if(unidad==i)
 3136              		.loc 1 684 0 discriminator 2
 3137 0732 4D4A     		ldr	r2, .L575+4
 3138 0734 1378     		ldrb	r3, [r2]	@ zero_extendqisi2
 3139 0736 0133     		adds	r3, r3, #1
 3140 0738 1370     		strb	r3, [r2]
 3141              	.L217:
 684:main.c        ****             if(unidad==i)
 3142              		.loc 1 684 0 is_stmt 0 discriminator 1
 3143 073a 4B4B     		ldr	r3, .L575+4
 3144 073c 1978     		ldrb	r1, [r3]	@ zero_extendqisi2
 3145 073e 0429     		cmp	r1, #4
 3146 0740 D8D9     		bls	.L220
 3147              	.L216:
 689:main.c        ****          }
 690:main.c        ****       }
 691:main.c        ****     
 692:main.c        ****       if(unidad>4){
 3148              		.loc 1 692 0 is_stmt 1
 3149 0742 4B4B     		ldr	r3, .L575+12
 3150 0744 1B78     		ldrb	r3, [r3]	@ zero_extendqisi2
 3151 0746 042B     		cmp	r3, #4
 3152 0748 40F2EB80 		bls	.L203
 693:main.c        ****         glcd_fillScreen(OFF);unidad=4;
 3153              		.loc 1 693 0
 3154 074c 0020     		movs	r0, #0
 3155 074e FFF7FEFF 		bl	glcd_fillScreen
 3156              	.LVL255:
 3157 0752 0422     		movs	r2, #4
 3158 0754 464B     		ldr	r3, .L575+12
 3159 0756 1A70     		strb	r2, [r3]
 694:main.c        ****          if(Contrasena[0]==3&&Contrasena[1]==8&&Contrasena[2]==9&&Contrasena[3]==2) // Si Ingresa c
 3160              		.loc 1 694 0
 3161 0758 424B     		ldr	r3, .L575
 3162 075a 93F91830 		ldrsb	r3, [r3, #24]
 3163 075e 032B     		cmp	r3, #3
 3164 0760 30D1     		bne	.L221
 3165              		.loc 1 694 0 is_stmt 0 discriminator 1
 3166 0762 404B     		ldr	r3, .L575
 3167 0764 93F91930 		ldrsb	r3, [r3, #25]
 3168 0768 082B     		cmp	r3, #8
 3169 076a 2BD1     		bne	.L221
 3170              		.loc 1 694 0 discriminator 2
 3171 076c 3D4B     		ldr	r3, .L575
 3172 076e 93F91A30 		ldrsb	r3, [r3, #26]
 3173 0772 092B     		cmp	r3, #9
 3174 0774 26D1     		bne	.L221
 3175              		.loc 1 694 0 discriminator 3
 3176 0776 3B4B     		ldr	r3, .L575
 3177 0778 93F91B30 		ldrsb	r3, [r3, #27]
 3178 077c 022B     		cmp	r3, #2
 3179 077e 21D1     		bne	.L221
ARM GAS  C:\Users\USUARIO\AppData\Local\Temp\ccdk1rSB.s 			page 72


 695:main.c        ****             {EEPROM_WriteByte(0,460);CyDelay(20);EEPROM_WriteByte(0,461);CyDelay(20);// Reestablece
 3180              		.loc 1 695 0 is_stmt 1
 3181 0780 4FF4E671 		mov	r1, #460
 3182 0784 0020     		movs	r0, #0
 3183 0786 FFF7FEFF 		bl	EEPROM_WriteByte
 3184              	.LVL256:
 3185 078a 1420     		movs	r0, #20
 3186 078c FFF7FEFF 		bl	CyDelay
 3187              	.LVL257:
 3188 0790 40F2CD11 		movw	r1, #461
 3189 0794 0020     		movs	r0, #0
 3190 0796 FFF7FEFF 		bl	EEPROM_WriteByte
 3191              	.LVL258:
 3192 079a 1420     		movs	r0, #20
 3193 079c FFF7FEFF 		bl	CyDelay
 3194              	.LVL259:
 696:main.c        ****              EEPROM_WriteByte(0,462);CyDelay(20);EEPROM_WriteByte(0,463);CyDelay(20);
 3195              		.loc 1 696 0
 3196 07a0 4FF4E771 		mov	r1, #462
 3197 07a4 0020     		movs	r0, #0
 3198 07a6 FFF7FEFF 		bl	EEPROM_WriteByte
 3199              	.LVL260:
 3200 07aa 1420     		movs	r0, #20
 3201 07ac FFF7FEFF 		bl	CyDelay
 3202              	.LVL261:
 3203 07b0 40F2CF11 		movw	r1, #463
 3204 07b4 0020     		movs	r0, #0
 3205 07b6 FFF7FEFF 		bl	EEPROM_WriteByte
 3206              	.LVL262:
 3207 07ba 1420     		movs	r0, #20
 3208 07bc FFF7FEFF 		bl	CyDelay
 3209              	.LVL263:
 697:main.c        ****              CySoftwareReset();}        
 3210              		.loc 1 697 0
 3211 07c0 FFF7FEFF 		bl	CySoftwareReset
 3212              	.LVL264:
 3213              	.L221:
 698:main.c        ****          
 699:main.c        ****          if((Contrasena[0]==Password[0])&&(Contrasena[1]==Password[1])&&(Contrasena[2]==Password[2]
 3214              		.loc 1 699 0
 3215 07c4 274B     		ldr	r3, .L575
 3216 07c6 93F91820 		ldrsb	r2, [r3, #24]
 3217 07ca 2B4B     		ldr	r3, .L575+20
 3218 07cc 1B78     		ldrb	r3, [r3]	@ zero_extendqisi2
 3219 07ce 9A42     		cmp	r2, r3
 3220 07d0 5CD1     		bne	.L222
 3221              		.loc 1 699 0 is_stmt 0 discriminator 1
 3222 07d2 244B     		ldr	r3, .L575
 3223 07d4 93F91920 		ldrsb	r2, [r3, #25]
 3224 07d8 274B     		ldr	r3, .L575+20
 3225 07da 5B78     		ldrb	r3, [r3, #1]	@ zero_extendqisi2
 3226 07dc 9A42     		cmp	r2, r3
 3227 07de 55D1     		bne	.L222
 3228              		.loc 1 699 0 discriminator 2
 3229 07e0 204B     		ldr	r3, .L575
 3230 07e2 93F91A20 		ldrsb	r2, [r3, #26]
 3231 07e6 244B     		ldr	r3, .L575+20
ARM GAS  C:\Users\USUARIO\AppData\Local\Temp\ccdk1rSB.s 			page 73


 3232 07e8 9B78     		ldrb	r3, [r3, #2]	@ zero_extendqisi2
 3233 07ea 9A42     		cmp	r2, r3
 3234 07ec 4ED1     		bne	.L222
 3235              		.loc 1 699 0 discriminator 3
 3236 07ee 1D4B     		ldr	r3, .L575
 3237 07f0 93F91B20 		ldrsb	r2, [r3, #27]
 3238 07f4 204B     		ldr	r3, .L575+20
 3239 07f6 DB78     		ldrb	r3, [r3, #3]	@ zero_extendqisi2
 3240 07f8 9A42     		cmp	r2, r3
 3241 07fa 47D1     		bne	.L222
 700:main.c        ****             glcd_fillScreen(OFF);
 3242              		.loc 1 700 0 is_stmt 1
 3243 07fc 0020     		movs	r0, #0
 3244 07fe FFF7FEFF 		bl	glcd_fillScreen
 3245              	.LVL265:
 701:main.c        ****             strcpy(Menus.Letra,"Clave");
 3246              		.loc 1 701 0
 3247 0802 1E4C     		ldr	r4, .L575+24
 3248 0804 1E4B     		ldr	r3, .L575+28
 3249 0806 1868     		ldr	r0, [r3]	@ unaligned
 3250 0808 2060     		str	r0, [r4]	@ unaligned
 3251 080a 9B88     		ldrh	r3, [r3, #4]	@ unaligned
 3252 080c A380     		strh	r3, [r4, #4]	@ unaligned
 702:main.c        ****             displayMenu(Menus.Letra,30,0,0,2);
 3253              		.loc 1 702 0
 3254 080e 0225     		movs	r5, #2
 3255 0810 0095     		str	r5, [sp]
 3256 0812 0023     		movs	r3, #0
 3257 0814 1A46     		mov	r2, r3
 3258 0816 1E21     		movs	r1, #30
 3259 0818 2046     		mov	r0, r4
 3260 081a FFF7FEFF 		bl	displayMenu
 3261              	.LVL266:
 703:main.c        ****             strcpy(Menus.Letra,"Correcta");
 3262              		.loc 1 703 0
 3263 081e 194B     		ldr	r3, .L575+32
 3264 0820 03CB     		ldmia	r3!, {r0, r1}
 3265 0822 2060     		str	r0, [r4]	@ unaligned
 3266 0824 6160     		str	r1, [r4, #4]	@ unaligned
 3267 0826 1B78     		ldrb	r3, [r3]	@ zero_extendqisi2
 3268 0828 2372     		strb	r3, [r4, #8]
 704:main.c        ****             displayMenu(Menus.Letra,15,30,0,2);
 3269              		.loc 1 704 0
 3270 082a 0095     		str	r5, [sp]
 3271 082c 0023     		movs	r3, #0
 3272 082e 1E22     		movs	r2, #30
 3273 0830 0F21     		movs	r1, #15
 3274 0832 2046     		mov	r0, r4
 3275 0834 FFF7FEFF 		bl	displayMenu
 3276              	.LVL267:
 705:main.c        ****             Menu=1;glcd_update();CyDelay(1000);
 3277              		.loc 1 705 0
 3278 0838 0124     		movs	r4, #1
 3279 083a 134B     		ldr	r3, .L575+36
 3280 083c 1C70     		strb	r4, [r3]
 3281 083e FFF7FEFF 		bl	glcd_update
 3282              	.LVL268:
ARM GAS  C:\Users\USUARIO\AppData\Local\Temp\ccdk1rSB.s 			page 74


 3283 0842 4FF47A70 		mov	r0, #1000
 3284 0846 FFF7FEFF 		bl	CyDelay
 3285              	.LVL269:
 706:main.c        ****             glcd_fillScreen(OFF);unidad=1;
 3286              		.loc 1 706 0
 3287 084a 0020     		movs	r0, #0
 3288 084c FFF7FEFF 		bl	glcd_fillScreen
 3289              	.LVL270:
 3290 0850 074B     		ldr	r3, .L575+12
 3291 0852 1C70     		strb	r4, [r3]
 707:main.c        ****             Contrasena[0]=0;Contrasena[1]=0;Contrasena[2]=0;Contrasena[3]=0;
 3292              		.loc 1 707 0
 3293 0854 034B     		ldr	r3, .L575
 3294 0856 0022     		movs	r2, #0
 3295 0858 1A76     		strb	r2, [r3, #24]
 3296 085a 5A76     		strb	r2, [r3, #25]
 3297 085c 9A76     		strb	r2, [r3, #26]
 3298 085e DA76     		strb	r2, [r3, #27]
 3299 0860 5FE0     		b	.L203
 3300              	.L576:
 3301 0862 00BF     		.align	2
 3302              	.L575:
 3303 0864 00000000 		.word	.LANCHOR0
 3304 0868 00000000 		.word	i
 3305 086c 00000000 		.word	tdown
 3306 0870 00000000 		.word	unidad
 3307 0874 00000000 		.word	tright
 3308 0878 00000000 		.word	Password
 3309 087c 00000000 		.word	Menus
 3310 0880 48000000 		.word	.LC5
 3311 0884 50000000 		.word	.LC6
 3312 0888 00000000 		.word	Menu
 3313              	.L222:
 708:main.c        ****          }else{
 709:main.c        ****             glcd_fillScreen(OFF);
 3314              		.loc 1 709 0
 3315 088c 0020     		movs	r0, #0
 3316 088e FFF7FEFF 		bl	glcd_fillScreen
 3317              	.LVL271:
 710:main.c        ****             strcpy(Menus.Letra,"Clave");
 3318              		.loc 1 710 0
 3319 0892 BC4C     		ldr	r4, .L577
 3320 0894 BC4B     		ldr	r3, .L577+4
 3321 0896 1868     		ldr	r0, [r3]	@ unaligned
 3322 0898 2060     		str	r0, [r4]	@ unaligned
 3323 089a 9B88     		ldrh	r3, [r3, #4]	@ unaligned
 3324 089c A380     		strh	r3, [r4, #4]	@ unaligned
 711:main.c        ****             displayMenu(Menus.Letra,30,0,0,2);
 3325              		.loc 1 711 0
 3326 089e 0225     		movs	r5, #2
 3327 08a0 0095     		str	r5, [sp]
 3328 08a2 0023     		movs	r3, #0
 3329 08a4 1A46     		mov	r2, r3
 3330 08a6 1E21     		movs	r1, #30
 3331 08a8 2046     		mov	r0, r4
 3332 08aa FFF7FEFF 		bl	displayMenu
 3333              	.LVL272:
ARM GAS  C:\Users\USUARIO\AppData\Local\Temp\ccdk1rSB.s 			page 75


 712:main.c        ****             strcpy(Menus.Letra,"Incorrecta");
 3334              		.loc 1 712 0
 3335 08ae B74B     		ldr	r3, .L577+8
 3336 08b0 03CB     		ldmia	r3!, {r0, r1}
 3337 08b2 2060     		str	r0, [r4]	@ unaligned
 3338 08b4 6160     		str	r1, [r4, #4]	@ unaligned
 3339 08b6 1A88     		ldrh	r2, [r3]	@ unaligned
 3340 08b8 9B78     		ldrb	r3, [r3, #2]	@ zero_extendqisi2
 3341 08ba 2281     		strh	r2, [r4, #8]	@ unaligned
 3342 08bc A372     		strb	r3, [r4, #10]
 713:main.c        ****             displayMenu(Menus.Letra,0,30,0,2);
 3343              		.loc 1 713 0
 3344 08be 0095     		str	r5, [sp]
 3345 08c0 0023     		movs	r3, #0
 3346 08c2 1E22     		movs	r2, #30
 3347 08c4 1946     		mov	r1, r3
 3348 08c6 2046     		mov	r0, r4
 3349 08c8 FFF7FEFF 		bl	displayMenu
 3350              	.LVL273:
 714:main.c        ****             Menu=0;glcd_update();CyDelay(1000);
 3351              		.loc 1 714 0
 3352 08cc 0024     		movs	r4, #0
 3353 08ce B04B     		ldr	r3, .L577+12
 3354 08d0 1C70     		strb	r4, [r3]
 3355 08d2 FFF7FEFF 		bl	glcd_update
 3356              	.LVL274:
 3357 08d6 4FF47A70 		mov	r0, #1000
 3358 08da FFF7FEFF 		bl	CyDelay
 3359              	.LVL275:
 715:main.c        ****             glcd_fillScreen(OFF);unidad=1;
 3360              		.loc 1 715 0
 3361 08de 2046     		mov	r0, r4
 3362 08e0 FFF7FEFF 		bl	glcd_fillScreen
 3363              	.LVL276:
 3364 08e4 0123     		movs	r3, #1
 3365 08e6 AB4A     		ldr	r2, .L577+16
 3366 08e8 1370     		strb	r3, [r2]
 716:main.c        ****             Contrasena[0]=0;Contrasena[1]=0;Contrasena[2]=0;Contrasena[3]=0;
 3367              		.loc 1 716 0
 3368 08ea AB4D     		ldr	r5, .L577+20
 3369 08ec 2C76     		strb	r4, [r5, #24]
 3370 08ee 6C76     		strb	r4, [r5, #25]
 3371 08f0 AC76     		strb	r4, [r5, #26]
 3372 08f2 EC76     		strb	r4, [r5, #27]
 717:main.c        ****             displayContrasena(Contrasena[0],20,30,1);
 3373              		.loc 1 717 0
 3374 08f4 1E22     		movs	r2, #30
 3375 08f6 1421     		movs	r1, #20
 3376 08f8 2046     		mov	r0, r4
 3377 08fa FFF7FEFF 		bl	displayContrasena
 3378              	.LVL277:
 718:main.c        ****             displayContrasena(Contrasena[1],40,30,0);
 3379              		.loc 1 718 0
 3380 08fe 2346     		mov	r3, r4
 3381 0900 1E22     		movs	r2, #30
 3382 0902 2821     		movs	r1, #40
 3383 0904 687E     		ldrb	r0, [r5, #25]	@ zero_extendqisi2
ARM GAS  C:\Users\USUARIO\AppData\Local\Temp\ccdk1rSB.s 			page 76


 3384 0906 FFF7FEFF 		bl	displayContrasena
 3385              	.LVL278:
 719:main.c        ****             displayContrasena(Contrasena[2],60,30,0);
 3386              		.loc 1 719 0
 3387 090a 2346     		mov	r3, r4
 3388 090c 1E22     		movs	r2, #30
 3389 090e 3C21     		movs	r1, #60
 3390 0910 A87E     		ldrb	r0, [r5, #26]	@ zero_extendqisi2
 3391 0912 FFF7FEFF 		bl	displayContrasena
 3392              	.LVL279:
 720:main.c        ****             displayContrasena(Contrasena[3],80,30,0);
 3393              		.loc 1 720 0
 3394 0916 2346     		mov	r3, r4
 3395 0918 1E22     		movs	r2, #30
 3396 091a 5021     		movs	r1, #80
 3397 091c E87E     		ldrb	r0, [r5, #27]	@ zero_extendqisi2
 3398 091e FFF7FEFF 		bl	displayContrasena
 3399              	.LVL280:
 3400              	.L203:
 721:main.c        ****          }
 722:main.c        ****       }
 723:main.c        ****     }//Clave OK
 724:main.c        **** //_------------------------------------------------------------------------------------------------
 725:main.c        **** 
 726:main.c        **** //_------------------------------------------------------------------------------------------------
 727:main.c        ****       if(Menu==1){ //Menu Principal.      
 3401              		.loc 1 727 0
 3402 0922 9B4B     		ldr	r3, .L577+12
 3403 0924 1B78     		ldrb	r3, [r3]	@ zero_extendqisi2
 3404 0926 012B     		cmp	r3, #1
 3405 0928 40F07881 		bne	.L223
 728:main.c        ****          Control=0;
 3406              		.loc 1 728 0
 3407 092c 0024     		movs	r4, #0
 3408 092e 9B4B     		ldr	r3, .L577+24
 3409 0930 1C80     		strh	r4, [r3]	@ movhi
 729:main.c        ****          SSR_Write(0);
 3410              		.loc 1 729 0
 3411 0932 2046     		mov	r0, r4
 3412 0934 FFF7FEFF 		bl	SSR_Write
 3413              	.LVL281:
 730:main.c        ****          Testerilizacion[0]=0;
 3414              		.loc 1 730 0
 3415 0938 974B     		ldr	r3, .L577+20
 3416 093a 1C71     		strb	r4, [r3, #4]
 731:main.c        ****          Testerilizacion[1]=0;
 3417              		.loc 1 731 0
 3418 093c 5C71     		strb	r4, [r3, #5]
 732:main.c        ****          Testerilizacion[2]=0;
 3419              		.loc 1 732 0
 3420 093e 9C71     		strb	r4, [r3, #6]
 733:main.c        ****          Testerilizacion[3]=0;
 3421              		.loc 1 733 0
 3422 0940 DC71     		strb	r4, [r3, #7]
 734:main.c        ****          Segmento=0;
 3423              		.loc 1 734 0
 3424 0942 974B     		ldr	r3, .L577+28
ARM GAS  C:\Users\USUARIO\AppData\Local\Temp\ccdk1rSB.s 			page 77


 3425 0944 1C70     		strb	r4, [r3]
 735:main.c        ****          Ganancia=GananciaIn;
 3426              		.loc 1 735 0
 3427 0946 974B     		ldr	r3, .L577+32
 3428 0948 1A68     		ldr	r2, [r3]	@ float
 3429 094a 974B     		ldr	r3, .L577+36
 3430 094c 1A60     		str	r2, [r3]	@ float
 736:main.c        ****          if(flagGuardaEstado){
 3431              		.loc 1 736 0
 3432 094e 974B     		ldr	r3, .L577+40
 3433 0950 B3F90030 		ldrsh	r3, [r3]
 3434 0954 4BB1     		cbz	r3, .L224
 737:main.c        ****             EEPROM_WriteByte(0,495);CyDelay(20);
 3435              		.loc 1 737 0
 3436 0956 40F2EF11 		movw	r1, #495
 3437 095a 2046     		mov	r0, r4
 3438 095c FFF7FEFF 		bl	EEPROM_WriteByte
 3439              	.LVL282:
 3440 0960 1420     		movs	r0, #20
 3441 0962 FFF7FEFF 		bl	CyDelay
 3442              	.LVL283:
 738:main.c        ****             flagGuardaEstado=OFF;
 3443              		.loc 1 738 0
 3444 0966 914B     		ldr	r3, .L577+40
 3445 0968 1C80     		strh	r4, [r3]	@ movhi
 3446              	.L224:
 739:main.c        ****          }
 740:main.c        ****          if(Opcion>5)
 3447              		.loc 1 740 0
 3448 096a 914B     		ldr	r3, .L577+44
 3449 096c 1B78     		ldrb	r3, [r3]	@ zero_extendqisi2
 3450 096e 052B     		cmp	r3, #5
 3451 0970 02D9     		bls	.L225
 741:main.c        ****          {Opcion=1;}
 3452              		.loc 1 741 0
 3453 0972 0122     		movs	r2, #1
 3454 0974 8E4B     		ldr	r3, .L577+44
 3455 0976 1A70     		strb	r2, [r3]
 3456              	.L225:
 742:main.c        ****          if(Opcion<1)
 3457              		.loc 1 742 0
 3458 0978 8D4B     		ldr	r3, .L577+44
 3459 097a 1B78     		ldrb	r3, [r3]	@ zero_extendqisi2
 3460 097c 13B9     		cbnz	r3, .L226
 743:main.c        ****          {Opcion=5;}
 3461              		.loc 1 743 0
 3462 097e 0522     		movs	r2, #5
 3463 0980 8B4B     		ldr	r3, .L577+44
 3464 0982 1A70     		strb	r2, [r3]
 3465              	.L226:
 744:main.c        ****          
 745:main.c        ****          strcpy(Menus.Letra,"Menu");
 3466              		.loc 1 745 0
 3467 0984 7F4C     		ldr	r4, .L577
 3468 0986 8B4B     		ldr	r3, .L577+48
 3469 0988 1868     		ldr	r0, [r3]	@ unaligned
 3470 098a 2060     		str	r0, [r4]	@ unaligned
ARM GAS  C:\Users\USUARIO\AppData\Local\Temp\ccdk1rSB.s 			page 78


 3471 098c 1B79     		ldrb	r3, [r3, #4]	@ zero_extendqisi2
 3472 098e 2371     		strb	r3, [r4, #4]
 746:main.c        ****          displayMenu(Menus.Letra,30,0,1,2);
 3473              		.loc 1 746 0
 3474 0990 0223     		movs	r3, #2
 3475 0992 0093     		str	r3, [sp]
 3476 0994 0123     		movs	r3, #1
 3477 0996 0022     		movs	r2, #0
 3478 0998 1E21     		movs	r1, #30
 3479 099a 2046     		mov	r0, r4
 3480 099c FFF7FEFF 		bl	displayMenu
 3481              	.LVL284:
 747:main.c        ****       
 748:main.c        ****          if(Opcion<=5){
 3482              		.loc 1 748 0
 3483 09a0 834B     		ldr	r3, .L577+44
 3484 09a2 1B78     		ldrb	r3, [r3]	@ zero_extendqisi2
 3485 09a4 052B     		cmp	r3, #5
 3486 09a6 00F2AA80 		bhi	.L227
 749:main.c        ****             if(Opcion==1)   
 3487              		.loc 1 749 0
 3488 09aa 012B     		cmp	r3, #1
 3489 09ac 10D1     		bne	.L228
 750:main.c        ****                 {strcpy(Menus.Letra,"Iniciar Programa");
 3490              		.loc 1 750 0
 3491 09ae 2546     		mov	r5, r4
 3492 09b0 814C     		ldr	r4, .L577+52
 3493 09b2 0FCC     		ldmia	r4!, {r0, r1, r2, r3}
 3494 09b4 2860     		str	r0, [r5]	@ unaligned
 3495 09b6 6960     		str	r1, [r5, #4]	@ unaligned
 3496 09b8 AA60     		str	r2, [r5, #8]	@ unaligned
 3497 09ba EB60     		str	r3, [r5, #12]	@ unaligned
 3498 09bc 2378     		ldrb	r3, [r4]	@ zero_extendqisi2
 3499 09be 2B74     		strb	r3, [r5, #16]
 751:main.c        ****                 displayMenu(Menus.Letra,0,18,1,1);}
 3500              		.loc 1 751 0
 3501 09c0 0123     		movs	r3, #1
 3502 09c2 0093     		str	r3, [sp]
 3503 09c4 1222     		movs	r2, #18
 3504 09c6 0021     		movs	r1, #0
 3505 09c8 2846     		mov	r0, r5
 3506 09ca FFF7FEFF 		bl	displayMenu
 3507              	.LVL285:
 3508 09ce 10E0     		b	.L229
 3509              	.L228:
 752:main.c        ****             else
 753:main.c        ****                 {strcpy(Menus.Letra,"Iniciar Programa");
 3510              		.loc 1 753 0
 3511 09d0 6C4D     		ldr	r5, .L577
 3512 09d2 794C     		ldr	r4, .L577+52
 3513 09d4 0FCC     		ldmia	r4!, {r0, r1, r2, r3}
 3514 09d6 2860     		str	r0, [r5]	@ unaligned
 3515 09d8 6960     		str	r1, [r5, #4]	@ unaligned
 3516 09da AA60     		str	r2, [r5, #8]	@ unaligned
 3517 09dc EB60     		str	r3, [r5, #12]	@ unaligned
 3518 09de 2378     		ldrb	r3, [r4]	@ zero_extendqisi2
 3519 09e0 2B74     		strb	r3, [r5, #16]
ARM GAS  C:\Users\USUARIO\AppData\Local\Temp\ccdk1rSB.s 			page 79


 754:main.c        ****                 displayMenu(Menus.Letra,0,18,0,1);}
 3520              		.loc 1 754 0
 3521 09e2 0123     		movs	r3, #1
 3522 09e4 0093     		str	r3, [sp]
 3523 09e6 0023     		movs	r3, #0
 3524 09e8 1222     		movs	r2, #18
 3525 09ea 1946     		mov	r1, r3
 3526 09ec 2846     		mov	r0, r5
 3527 09ee FFF7FEFF 		bl	displayMenu
 3528              	.LVL286:
 3529              	.L229:
 755:main.c        ****              
 756:main.c        ****             if(Opcion==2)   
 3530              		.loc 1 756 0
 3531 09f2 6F4B     		ldr	r3, .L577+44
 3532 09f4 1B78     		ldrb	r3, [r3]	@ zero_extendqisi2
 3533 09f6 022B     		cmp	r3, #2
 3534 09f8 0ED1     		bne	.L230
 757:main.c        ****                 {strcpy(Menus.Letra,"Editar Programa");
 3535              		.loc 1 757 0
 3536 09fa 624D     		ldr	r5, .L577
 3537 09fc 6F4C     		ldr	r4, .L577+56
 3538 09fe 0FCC     		ldmia	r4!, {r0, r1, r2, r3}
 3539 0a00 2860     		str	r0, [r5]	@ unaligned
 3540 0a02 6960     		str	r1, [r5, #4]	@ unaligned
 3541 0a04 AA60     		str	r2, [r5, #8]	@ unaligned
 3542 0a06 EB60     		str	r3, [r5, #12]	@ unaligned
 758:main.c        ****                 displayMenu(Menus.Letra,0,27,1,1);}
 3543              		.loc 1 758 0
 3544 0a08 0123     		movs	r3, #1
 3545 0a0a 0093     		str	r3, [sp]
 3546 0a0c 1B22     		movs	r2, #27
 3547 0a0e 0021     		movs	r1, #0
 3548 0a10 2846     		mov	r0, r5
 3549 0a12 FFF7FEFF 		bl	displayMenu
 3550              	.LVL287:
 3551 0a16 0EE0     		b	.L231
 3552              	.L230:
 759:main.c        ****             else
 760:main.c        ****                 {strcpy(Menus.Letra,"Editar Programa");
 3553              		.loc 1 760 0
 3554 0a18 5A4D     		ldr	r5, .L577
 3555 0a1a 684C     		ldr	r4, .L577+56
 3556 0a1c 0FCC     		ldmia	r4!, {r0, r1, r2, r3}
 3557 0a1e 2860     		str	r0, [r5]	@ unaligned
 3558 0a20 6960     		str	r1, [r5, #4]	@ unaligned
 3559 0a22 AA60     		str	r2, [r5, #8]	@ unaligned
 3560 0a24 EB60     		str	r3, [r5, #12]	@ unaligned
 761:main.c        ****                 displayMenu(Menus.Letra,0,27,0,1);}
 3561              		.loc 1 761 0
 3562 0a26 0123     		movs	r3, #1
 3563 0a28 0093     		str	r3, [sp]
 3564 0a2a 0023     		movs	r3, #0
 3565 0a2c 1B22     		movs	r2, #27
 3566 0a2e 1946     		mov	r1, r3
 3567 0a30 2846     		mov	r0, r5
 3568 0a32 FFF7FEFF 		bl	displayMenu
ARM GAS  C:\Users\USUARIO\AppData\Local\Temp\ccdk1rSB.s 			page 80


 3569              	.LVL288:
 3570              	.L231:
 762:main.c        ****                 
 763:main.c        ****              if(Opcion==3)   
 3571              		.loc 1 763 0
 3572 0a36 5E4B     		ldr	r3, .L577+44
 3573 0a38 1B78     		ldrb	r3, [r3]	@ zero_extendqisi2
 3574 0a3a 032B     		cmp	r3, #3
 3575 0a3c 0ED1     		bne	.L232
 764:main.c        ****                 {strcpy(Menus.Letra,"Borrar Programa");
 3576              		.loc 1 764 0
 3577 0a3e 514D     		ldr	r5, .L577
 3578 0a40 5F4C     		ldr	r4, .L577+60
 3579 0a42 0FCC     		ldmia	r4!, {r0, r1, r2, r3}
 3580 0a44 2860     		str	r0, [r5]	@ unaligned
 3581 0a46 6960     		str	r1, [r5, #4]	@ unaligned
 3582 0a48 AA60     		str	r2, [r5, #8]	@ unaligned
 3583 0a4a EB60     		str	r3, [r5, #12]	@ unaligned
 765:main.c        ****                 displayMenu(Menus.Letra,0,36,1,1);}
 3584              		.loc 1 765 0
 3585 0a4c 0123     		movs	r3, #1
 3586 0a4e 0093     		str	r3, [sp]
 3587 0a50 2422     		movs	r2, #36
 3588 0a52 0021     		movs	r1, #0
 3589 0a54 2846     		mov	r0, r5
 3590 0a56 FFF7FEFF 		bl	displayMenu
 3591              	.LVL289:
 3592 0a5a 0EE0     		b	.L233
 3593              	.L232:
 766:main.c        ****             else
 767:main.c        ****                 {strcpy(Menus.Letra,"Borrar Programa");
 3594              		.loc 1 767 0
 3595 0a5c 494D     		ldr	r5, .L577
 3596 0a5e 584C     		ldr	r4, .L577+60
 3597 0a60 0FCC     		ldmia	r4!, {r0, r1, r2, r3}
 3598 0a62 2860     		str	r0, [r5]	@ unaligned
 3599 0a64 6960     		str	r1, [r5, #4]	@ unaligned
 3600 0a66 AA60     		str	r2, [r5, #8]	@ unaligned
 3601 0a68 EB60     		str	r3, [r5, #12]	@ unaligned
 768:main.c        ****                 displayMenu(Menus.Letra,0,36,0,1);}   
 3602              		.loc 1 768 0
 3603 0a6a 0123     		movs	r3, #1
 3604 0a6c 0093     		str	r3, [sp]
 3605 0a6e 0023     		movs	r3, #0
 3606 0a70 2422     		movs	r2, #36
 3607 0a72 1946     		mov	r1, r3
 3608 0a74 2846     		mov	r0, r5
 3609 0a76 FFF7FEFF 		bl	displayMenu
 3610              	.LVL290:
 3611              	.L233:
 769:main.c        ****                             
 770:main.c        ****              if(Opcion==4)   
 3612              		.loc 1 770 0
 3613 0a7a 4D4B     		ldr	r3, .L577+44
 3614 0a7c 1B78     		ldrb	r3, [r3]	@ zero_extendqisi2
 3615 0a7e 042B     		cmp	r3, #4
 3616 0a80 0CD1     		bne	.L234
ARM GAS  C:\Users\USUARIO\AppData\Local\Temp\ccdk1rSB.s 			page 81


 771:main.c        ****                 {strcpy(Menus.Letra,"Ajustes");
 3617              		.loc 1 771 0
 3618 0a82 404C     		ldr	r4, .L577
 3619 0a84 4F4B     		ldr	r3, .L577+64
 3620 0a86 03CB     		ldmia	r3!, {r0, r1}
 3621 0a88 2060     		str	r0, [r4]	@ unaligned
 3622 0a8a 6160     		str	r1, [r4, #4]	@ unaligned
 772:main.c        ****                 displayMenu(Menus.Letra,0,45,1,1);}
 3623              		.loc 1 772 0
 3624 0a8c 0123     		movs	r3, #1
 3625 0a8e 0093     		str	r3, [sp]
 3626 0a90 2D22     		movs	r2, #45
 3627 0a92 0021     		movs	r1, #0
 3628 0a94 2046     		mov	r0, r4
 3629 0a96 FFF7FEFF 		bl	displayMenu
 3630              	.LVL291:
 3631 0a9a 0CE0     		b	.L235
 3632              	.L234:
 773:main.c        ****             else
 774:main.c        ****                 {strcpy(Menus.Letra,"Ajustes");
 3633              		.loc 1 774 0
 3634 0a9c 394C     		ldr	r4, .L577
 3635 0a9e 494B     		ldr	r3, .L577+64
 3636 0aa0 03CB     		ldmia	r3!, {r0, r1}
 3637 0aa2 2060     		str	r0, [r4]	@ unaligned
 3638 0aa4 6160     		str	r1, [r4, #4]	@ unaligned
 775:main.c        ****                 displayMenu(Menus.Letra,0,45,0,1);}     
 3639              		.loc 1 775 0
 3640 0aa6 0123     		movs	r3, #1
 3641 0aa8 0093     		str	r3, [sp]
 3642 0aaa 0023     		movs	r3, #0
 3643 0aac 2D22     		movs	r2, #45
 3644 0aae 1946     		mov	r1, r3
 3645 0ab0 2046     		mov	r0, r4
 3646 0ab2 FFF7FEFF 		bl	displayMenu
 3647              	.LVL292:
 3648              	.L235:
 776:main.c        ****              
 777:main.c        ****             if(Opcion==5)   
 3649              		.loc 1 777 0
 3650 0ab6 3E4B     		ldr	r3, .L577+44
 3651 0ab8 1B78     		ldrb	r3, [r3]	@ zero_extendqisi2
 3652 0aba 052B     		cmp	r3, #5
 3653 0abc 0FD1     		bne	.L236
 778:main.c        ****                 {strcpy(Menus.Letra,"Cambio Clave");
 3654              		.loc 1 778 0
 3655 0abe 314C     		ldr	r4, .L577
 3656 0ac0 414B     		ldr	r3, .L577+68
 3657 0ac2 07CB     		ldmia	r3!, {r0, r1, r2}
 3658 0ac4 2060     		str	r0, [r4]	@ unaligned
 3659 0ac6 6160     		str	r1, [r4, #4]	@ unaligned
 3660 0ac8 A260     		str	r2, [r4, #8]	@ unaligned
 3661 0aca 1B78     		ldrb	r3, [r3]	@ zero_extendqisi2
 3662 0acc 2373     		strb	r3, [r4, #12]
 779:main.c        ****                 displayMenu(Menus.Letra,0,54,1,1);}
 3663              		.loc 1 779 0
 3664 0ace 0123     		movs	r3, #1
ARM GAS  C:\Users\USUARIO\AppData\Local\Temp\ccdk1rSB.s 			page 82


 3665 0ad0 0093     		str	r3, [sp]
 3666 0ad2 3622     		movs	r2, #54
 3667 0ad4 0021     		movs	r1, #0
 3668 0ad6 2046     		mov	r0, r4
 3669 0ad8 FFF7FEFF 		bl	displayMenu
 3670              	.LVL293:
 3671 0adc 0FE0     		b	.L227
 3672              	.L236:
 780:main.c        ****             else
 781:main.c        ****                 {strcpy(Menus.Letra,"Cambio Clave");
 3673              		.loc 1 781 0
 3674 0ade 294C     		ldr	r4, .L577
 3675 0ae0 394B     		ldr	r3, .L577+68
 3676 0ae2 07CB     		ldmia	r3!, {r0, r1, r2}
 3677 0ae4 2060     		str	r0, [r4]	@ unaligned
 3678 0ae6 6160     		str	r1, [r4, #4]	@ unaligned
 3679 0ae8 A260     		str	r2, [r4, #8]	@ unaligned
 3680 0aea 1B78     		ldrb	r3, [r3]	@ zero_extendqisi2
 3681 0aec 2373     		strb	r3, [r4, #12]
 782:main.c        ****                 displayMenu(Menus.Letra,0,54,0,1);}     
 3682              		.loc 1 782 0
 3683 0aee 0123     		movs	r3, #1
 3684 0af0 0093     		str	r3, [sp]
 3685 0af2 0023     		movs	r3, #0
 3686 0af4 3622     		movs	r2, #54
 3687 0af6 1946     		mov	r1, r3
 3688 0af8 2046     		mov	r0, r4
 3689 0afa FFF7FEFF 		bl	displayMenu
 3690              	.LVL294:
 3691              	.L227:
 783:main.c        ****          }
 784:main.c        ****          
 785:main.c        ****          if(tup>30)//Si oprime hacia arriba
 3692              		.loc 1 785 0
 3693 0afe 334B     		ldr	r3, .L577+72
 3694 0b00 1B88     		ldrh	r3, [r3]
 3695 0b02 1E2B     		cmp	r3, #30
 3696 0b04 0CD9     		bls	.L237
 786:main.c        ****          {
 787:main.c        ****             BUZZER_Write(1);CyDelay(30);Opcion--;BUZZER_Write(0);
 3697              		.loc 1 787 0
 3698 0b06 0120     		movs	r0, #1
 3699 0b08 FFF7FEFF 		bl	BUZZER_Write
 3700              	.LVL295:
 3701 0b0c 1E20     		movs	r0, #30
 3702 0b0e FFF7FEFF 		bl	CyDelay
 3703              	.LVL296:
 3704 0b12 274A     		ldr	r2, .L577+44
 3705 0b14 1378     		ldrb	r3, [r2]	@ zero_extendqisi2
 3706 0b16 013B     		subs	r3, r3, #1
 3707 0b18 1370     		strb	r3, [r2]
 3708 0b1a 0020     		movs	r0, #0
 3709 0b1c FFF7FEFF 		bl	BUZZER_Write
 3710              	.LVL297:
 3711              	.L237:
 788:main.c        ****          }
 789:main.c        ****                   
ARM GAS  C:\Users\USUARIO\AppData\Local\Temp\ccdk1rSB.s 			page 83


 790:main.c        ****          if(tdown>30)//Si oprime hacia abajo
 3712              		.loc 1 790 0
 3713 0b20 2B4B     		ldr	r3, .L577+76
 3714 0b22 1B88     		ldrh	r3, [r3]
 3715 0b24 1E2B     		cmp	r3, #30
 3716 0b26 0CD9     		bls	.L238
 791:main.c        ****          {
 792:main.c        ****             BUZZER_Write(1);CyDelay(30);Opcion++; BUZZER_Write(0);
 3717              		.loc 1 792 0
 3718 0b28 0120     		movs	r0, #1
 3719 0b2a FFF7FEFF 		bl	BUZZER_Write
 3720              	.LVL298:
 3721 0b2e 1E20     		movs	r0, #30
 3722 0b30 FFF7FEFF 		bl	CyDelay
 3723              	.LVL299:
 3724 0b34 1E4A     		ldr	r2, .L577+44
 3725 0b36 1378     		ldrb	r3, [r2]	@ zero_extendqisi2
 3726 0b38 0133     		adds	r3, r3, #1
 3727 0b3a 1370     		strb	r3, [r2]
 3728 0b3c 0020     		movs	r0, #0
 3729 0b3e FFF7FEFF 		bl	BUZZER_Write
 3730              	.LVL300:
 3731              	.L238:
 793:main.c        ****          }
 794:main.c        ****                
 795:main.c        ****          if(tright>30)//Si oprime SET
 3732              		.loc 1 795 0
 3733 0b42 244B     		ldr	r3, .L577+80
 3734 0b44 1B88     		ldrh	r3, [r3]
 3735 0b46 1E2B     		cmp	r3, #30
 3736 0b48 68D9     		bls	.L223
 796:main.c        ****          { 
 797:main.c        ****             BUZZER_Write(1);CyDelay(50);Menu=Opcion+3;Opcion=1;glcd_fillScreen(OFF);BUZZER_Write(0)
 3737              		.loc 1 797 0
 3738 0b4a 0120     		movs	r0, #1
 3739 0b4c FFF7FEFF 		bl	BUZZER_Write
 3740              	.LVL301:
 3741 0b50 3220     		movs	r0, #50
 3742 0b52 FFF7FEFF 		bl	CyDelay
 3743              	.LVL302:
 3744 0b56 0E4C     		ldr	r4, .L577+12
 3745 0b58 154A     		ldr	r2, .L577+44
 3746 0b5a 1378     		ldrb	r3, [r2]	@ zero_extendqisi2
 3747 0b5c 0333     		adds	r3, r3, #3
 3748 0b5e 2370     		strb	r3, [r4]
 3749 0b60 0123     		movs	r3, #1
 3750 0b62 1370     		strb	r3, [r2]
 3751 0b64 0020     		movs	r0, #0
 3752 0b66 FFF7FEFF 		bl	glcd_fillScreen
 3753              	.LVL303:
 3754 0b6a 0020     		movs	r0, #0
 3755 0b6c FFF7FEFF 		bl	BUZZER_Write
 3756              	.LVL304:
 798:main.c        ****             if(Menu==7){
 3757              		.loc 1 798 0
 3758 0b70 2378     		ldrb	r3, [r4]	@ zero_extendqisi2
 3759 0b72 072B     		cmp	r3, #7
ARM GAS  C:\Users\USUARIO\AppData\Local\Temp\ccdk1rSB.s 			page 84


 3760 0b74 52D1     		bne	.L223
 799:main.c        ****                //Menu=100;
 800:main.c        ****             CyDelay(100);
 3761              		.loc 1 800 0
 3762 0b76 6420     		movs	r0, #100
 3763 0b78 FFF7FEFF 		bl	CyDelay
 3764              	.LVL305:
 801:main.c        ****             glcd_fillScreen(OFF);
 3765              		.loc 1 801 0
 3766 0b7c 0020     		movs	r0, #0
 3767 0b7e FFF7FEFF 		bl	glcd_fillScreen
 3768              	.LVL306:
 802:main.c        ****             while(!PidePassword(1,1,100,4,4,4,4)){
 3769              		.loc 1 802 0
 3770 0b82 34E0     		b	.L239
 3771              	.L578:
 3772              		.align	2
 3773              	.L577:
 3774 0b84 00000000 		.word	Menus
 3775 0b88 48000000 		.word	.LC5
 3776 0b8c 5C000000 		.word	.LC7
 3777 0b90 00000000 		.word	Menu
 3778 0b94 00000000 		.word	unidad
 3779 0b98 00000000 		.word	.LANCHOR0
 3780 0b9c 00000000 		.word	Control
 3781 0ba0 00000000 		.word	Segmento
 3782 0ba4 00000000 		.word	GananciaIn
 3783 0ba8 00000000 		.word	Ganancia
 3784 0bac 00000000 		.word	flagGuardaEstado
 3785 0bb0 00000000 		.word	Opcion
 3786 0bb4 68000000 		.word	.LC8
 3787 0bb8 70000000 		.word	.LC9
 3788 0bbc 84000000 		.word	.LC10
 3789 0bc0 94000000 		.word	.LC11
 3790 0bc4 A4000000 		.word	.LC12
 3791 0bc8 AC000000 		.word	.LC13
 3792 0bcc 00000000 		.word	tup
 3793 0bd0 00000000 		.word	tdown
 3794 0bd4 00000000 		.word	tright
 3795              	.L240:
 803:main.c        ****                PidePassword(1,1,100,4,4,4,4);glcd_update();
 3796              		.loc 1 803 0
 3797 0bd8 0423     		movs	r3, #4
 3798 0bda 0293     		str	r3, [sp, #8]
 3799 0bdc 0193     		str	r3, [sp, #4]
 3800 0bde 0093     		str	r3, [sp]
 3801 0be0 6422     		movs	r2, #100
 3802 0be2 0121     		movs	r1, #1
 3803 0be4 0846     		mov	r0, r1
 3804 0be6 FFF7FEFF 		bl	PidePassword
 3805              	.LVL307:
 3806 0bea FFF7FEFF 		bl	glcd_update
 3807              	.LVL308:
 3808              	.L239:
 802:main.c        ****             while(!PidePassword(1,1,100,4,4,4,4)){
 3809              		.loc 1 802 0
 3810 0bee 0423     		movs	r3, #4
ARM GAS  C:\Users\USUARIO\AppData\Local\Temp\ccdk1rSB.s 			page 85


 3811 0bf0 0293     		str	r3, [sp, #8]
 3812 0bf2 0193     		str	r3, [sp, #4]
 3813 0bf4 0093     		str	r3, [sp]
 3814 0bf6 6422     		movs	r2, #100
 3815 0bf8 0121     		movs	r1, #1
 3816 0bfa 0846     		mov	r0, r1
 3817 0bfc FFF7FEFF 		bl	PidePassword
 3818              	.LVL309:
 3819 0c00 0028     		cmp	r0, #0
 3820 0c02 E9D0     		beq	.L240
 804:main.c        ****             }            
 805:main.c        ****             glcd_fillScreen(OFF);Opcion=1;unidad=1;
 3821              		.loc 1 805 0
 3822 0c04 0020     		movs	r0, #0
 3823 0c06 FFF7FEFF 		bl	glcd_fillScreen
 3824              	.LVL310:
 3825 0c0a 0123     		movs	r3, #1
 3826 0c0c 704A     		ldr	r2, .L579
 3827 0c0e 1370     		strb	r3, [r2]
 3828 0c10 704A     		ldr	r2, .L579+4
 3829 0c12 1370     		strb	r3, [r2]
 806:main.c        ****             CyDelay(500);
 3830              		.loc 1 806 0
 3831 0c14 4FF4FA70 		mov	r0, #500
 3832 0c18 FFF7FEFF 		bl	CyDelay
 3833              	.LVL311:
 3834              	.L223:
 807:main.c        ****       
 808:main.c        ****             }
 809:main.c        ****          }
 810:main.c        ****       
 811:main.c        **** 
 812:main.c        ****    }
 813:main.c        **** //_------------------------------------------------------------------------------------------------
 814:main.c        **** 
 815:main.c        **** //_------------------------------------------------------------------------------------------------
 816:main.c        ****       if(Menu==4){ //Menu de Continuar
 3835              		.loc 1 816 0
 3836 0c1c 6E4B     		ldr	r3, .L579+8
 3837 0c1e 1B78     		ldrb	r3, [r3]	@ zero_extendqisi2
 3838 0c20 042B     		cmp	r3, #4
 3839 0c22 40F0F581 		bne	.L241
 817:main.c        ****       
 818:main.c        ****       if(Opcion>5)
 3840              		.loc 1 818 0
 3841 0c26 6A4B     		ldr	r3, .L579
 3842 0c28 1B78     		ldrb	r3, [r3]	@ zero_extendqisi2
 3843 0c2a 052B     		cmp	r3, #5
 3844 0c2c 02D9     		bls	.L242
 819:main.c        ****          Opcion=1;
 3845              		.loc 1 819 0
 3846 0c2e 0122     		movs	r2, #1
 3847 0c30 674B     		ldr	r3, .L579
 3848 0c32 1A70     		strb	r2, [r3]
 3849              	.L242:
 820:main.c        ****          
 821:main.c        ****       if(Opcion<1)
ARM GAS  C:\Users\USUARIO\AppData\Local\Temp\ccdk1rSB.s 			page 86


 3850              		.loc 1 821 0
 3851 0c34 664B     		ldr	r3, .L579
 3852 0c36 1B78     		ldrb	r3, [r3]	@ zero_extendqisi2
 3853 0c38 13B9     		cbnz	r3, .L243
 822:main.c        ****          Opcion=5;
 3854              		.loc 1 822 0
 3855 0c3a 0522     		movs	r2, #5
 3856 0c3c 644B     		ldr	r3, .L579
 3857 0c3e 1A70     		strb	r2, [r3]
 3858              	.L243:
 823:main.c        ****       
 824:main.c        ****          strcpy(Menus.Letra,"Seleccione");
 3859              		.loc 1 824 0
 3860 0c40 664C     		ldr	r4, .L579+12
 3861 0c42 674B     		ldr	r3, .L579+16
 3862 0c44 03CB     		ldmia	r3!, {r0, r1}
 3863 0c46 2060     		str	r0, [r4]	@ unaligned
 3864 0c48 6160     		str	r1, [r4, #4]	@ unaligned
 3865 0c4a 1A88     		ldrh	r2, [r3]	@ unaligned
 3866 0c4c 9B78     		ldrb	r3, [r3, #2]	@ zero_extendqisi2
 3867 0c4e 2281     		strh	r2, [r4, #8]	@ unaligned
 3868 0c50 A372     		strb	r3, [r4, #10]
 825:main.c        ****          displayMenu(Menus.Letra,0,0,1,2);
 3869              		.loc 1 825 0
 3870 0c52 0225     		movs	r5, #2
 3871 0c54 0095     		str	r5, [sp]
 3872 0c56 0123     		movs	r3, #1
 3873 0c58 0022     		movs	r2, #0
 3874 0c5a 1146     		mov	r1, r2
 3875 0c5c 2046     		mov	r0, r4
 3876 0c5e FFF7FEFF 		bl	displayMenu
 3877              	.LVL312:
 826:main.c        ****          
 827:main.c        ****          strcpy(Menus.Letra," Programa");
 3878              		.loc 1 827 0
 3879 0c62 604B     		ldr	r3, .L579+20
 3880 0c64 03CB     		ldmia	r3!, {r0, r1}
 3881 0c66 2060     		str	r0, [r4]	@ unaligned
 3882 0c68 6160     		str	r1, [r4, #4]	@ unaligned
 3883 0c6a 1B88     		ldrh	r3, [r3]	@ unaligned
 3884 0c6c 2381     		strh	r3, [r4, #8]	@ unaligned
 828:main.c        ****          displayMenu(Menus.Letra,0,16,1,2);
 3885              		.loc 1 828 0
 3886 0c6e 0095     		str	r5, [sp]
 3887 0c70 0123     		movs	r3, #1
 3888 0c72 1022     		movs	r2, #16
 3889 0c74 0021     		movs	r1, #0
 3890 0c76 2046     		mov	r0, r4
 3891 0c78 FFF7FEFF 		bl	displayMenu
 3892              	.LVL313:
 829:main.c        ****           
 830:main.c        ****          
 831:main.c        ****          if(Opcion==1)
 3893              		.loc 1 831 0
 3894 0c7c 544B     		ldr	r3, .L579
 3895 0c7e 1B78     		ldrb	r3, [r3]	@ zero_extendqisi2
 3896 0c80 012B     		cmp	r3, #1
ARM GAS  C:\Users\USUARIO\AppData\Local\Temp\ccdk1rSB.s 			page 87


 3897 0c82 0BD1     		bne	.L244
 832:main.c        ****          {
 833:main.c        ****             strcpy(Menus.Letra,"Programa 01");
 3898              		.loc 1 833 0
 3899 0c84 584B     		ldr	r3, .L579+24
 3900 0c86 07CB     		ldmia	r3!, {r0, r1, r2}
 3901 0c88 2060     		str	r0, [r4]	@ unaligned
 3902 0c8a 6160     		str	r1, [r4, #4]	@ unaligned
 3903 0c8c A260     		str	r2, [r4, #8]	@ unaligned
 834:main.c        ****             displayMenu(Menus.Letra,0,38,0,2);
 3904              		.loc 1 834 0
 3905 0c8e 0095     		str	r5, [sp]
 3906 0c90 0023     		movs	r3, #0
 3907 0c92 2622     		movs	r2, #38
 3908 0c94 1946     		mov	r1, r3
 3909 0c96 2046     		mov	r0, r4
 3910 0c98 FFF7FEFF 		bl	displayMenu
 3911              	.LVL314:
 3912              	.L244:
 835:main.c        ****          }
 836:main.c        ****          
 837:main.c        ****          if(Opcion==2)
 3913              		.loc 1 837 0
 3914 0c9c 4C4B     		ldr	r3, .L579
 3915 0c9e 1B78     		ldrb	r3, [r3]	@ zero_extendqisi2
 3916 0ca0 022B     		cmp	r3, #2
 3917 0ca2 0DD1     		bne	.L245
 838:main.c        ****          {
 839:main.c        ****             strcpy(Menus.Letra,"Programa 02");
 3918              		.loc 1 839 0
 3919 0ca4 4D4C     		ldr	r4, .L579+12
 3920 0ca6 514B     		ldr	r3, .L579+28
 3921 0ca8 07CB     		ldmia	r3!, {r0, r1, r2}
 3922 0caa 2060     		str	r0, [r4]	@ unaligned
 3923 0cac 6160     		str	r1, [r4, #4]	@ unaligned
 3924 0cae A260     		str	r2, [r4, #8]	@ unaligned
 840:main.c        ****             displayMenu(Menus.Letra,0,38,0,2);
 3925              		.loc 1 840 0
 3926 0cb0 0223     		movs	r3, #2
 3927 0cb2 0093     		str	r3, [sp]
 3928 0cb4 0023     		movs	r3, #0
 3929 0cb6 2622     		movs	r2, #38
 3930 0cb8 1946     		mov	r1, r3
 3931 0cba 2046     		mov	r0, r4
 3932 0cbc FFF7FEFF 		bl	displayMenu
 3933              	.LVL315:
 3934              	.L245:
 841:main.c        ****          }
 842:main.c        ****          
 843:main.c        ****          if(Opcion==3)
 3935              		.loc 1 843 0
 3936 0cc0 434B     		ldr	r3, .L579
 3937 0cc2 1B78     		ldrb	r3, [r3]	@ zero_extendqisi2
 3938 0cc4 032B     		cmp	r3, #3
 3939 0cc6 0DD1     		bne	.L246
 844:main.c        ****          {
 845:main.c        ****             strcpy(Menus.Letra,"Programa 03");
ARM GAS  C:\Users\USUARIO\AppData\Local\Temp\ccdk1rSB.s 			page 88


 3940              		.loc 1 845 0
 3941 0cc8 444C     		ldr	r4, .L579+12
 3942 0cca 494B     		ldr	r3, .L579+32
 3943 0ccc 07CB     		ldmia	r3!, {r0, r1, r2}
 3944 0cce 2060     		str	r0, [r4]	@ unaligned
 3945 0cd0 6160     		str	r1, [r4, #4]	@ unaligned
 3946 0cd2 A260     		str	r2, [r4, #8]	@ unaligned
 846:main.c        ****             displayMenu(Menus.Letra,0,38,0,2);
 3947              		.loc 1 846 0
 3948 0cd4 0223     		movs	r3, #2
 3949 0cd6 0093     		str	r3, [sp]
 3950 0cd8 0023     		movs	r3, #0
 3951 0cda 2622     		movs	r2, #38
 3952 0cdc 1946     		mov	r1, r3
 3953 0cde 2046     		mov	r0, r4
 3954 0ce0 FFF7FEFF 		bl	displayMenu
 3955              	.LVL316:
 3956              	.L246:
 847:main.c        ****          }
 848:main.c        ****          
 849:main.c        ****          if(Opcion==4)
 3957              		.loc 1 849 0
 3958 0ce4 3A4B     		ldr	r3, .L579
 3959 0ce6 1B78     		ldrb	r3, [r3]	@ zero_extendqisi2
 3960 0ce8 042B     		cmp	r3, #4
 3961 0cea 0DD1     		bne	.L247
 850:main.c        ****          {
 851:main.c        ****             strcpy(Menus.Letra,"Programa 04");
 3962              		.loc 1 851 0
 3963 0cec 3B4C     		ldr	r4, .L579+12
 3964 0cee 414B     		ldr	r3, .L579+36
 3965 0cf0 07CB     		ldmia	r3!, {r0, r1, r2}
 3966 0cf2 2060     		str	r0, [r4]	@ unaligned
 3967 0cf4 6160     		str	r1, [r4, #4]	@ unaligned
 3968 0cf6 A260     		str	r2, [r4, #8]	@ unaligned
 852:main.c        ****             displayMenu(Menus.Letra,0,38,0,2);
 3969              		.loc 1 852 0
 3970 0cf8 0223     		movs	r3, #2
 3971 0cfa 0093     		str	r3, [sp]
 3972 0cfc 0023     		movs	r3, #0
 3973 0cfe 2622     		movs	r2, #38
 3974 0d00 1946     		mov	r1, r3
 3975 0d02 2046     		mov	r0, r4
 3976 0d04 FFF7FEFF 		bl	displayMenu
 3977              	.LVL317:
 3978              	.L247:
 853:main.c        ****          }
 854:main.c        ****          
 855:main.c        ****          if(Opcion==5)
 3979              		.loc 1 855 0
 3980 0d08 314B     		ldr	r3, .L579
 3981 0d0a 1B78     		ldrb	r3, [r3]	@ zero_extendqisi2
 3982 0d0c 052B     		cmp	r3, #5
 3983 0d0e 0DD1     		bne	.L248
 856:main.c        ****          {
 857:main.c        ****             strcpy(Menus.Letra,"Programa 05");
 3984              		.loc 1 857 0
ARM GAS  C:\Users\USUARIO\AppData\Local\Temp\ccdk1rSB.s 			page 89


 3985 0d10 324C     		ldr	r4, .L579+12
 3986 0d12 394B     		ldr	r3, .L579+40
 3987 0d14 07CB     		ldmia	r3!, {r0, r1, r2}
 3988 0d16 2060     		str	r0, [r4]	@ unaligned
 3989 0d18 6160     		str	r1, [r4, #4]	@ unaligned
 3990 0d1a A260     		str	r2, [r4, #8]	@ unaligned
 858:main.c        ****             displayMenu(Menus.Letra,0,38,0,2);
 3991              		.loc 1 858 0
 3992 0d1c 0223     		movs	r3, #2
 3993 0d1e 0093     		str	r3, [sp]
 3994 0d20 0023     		movs	r3, #0
 3995 0d22 2622     		movs	r2, #38
 3996 0d24 1946     		mov	r1, r3
 3997 0d26 2046     		mov	r0, r4
 3998 0d28 FFF7FEFF 		bl	displayMenu
 3999              	.LVL318:
 4000              	.L248:
 859:main.c        ****          }
 860:main.c        ****          
 861:main.c        ****         
 862:main.c        ****       if(tup>30)//Si oprime hacia arriba
 4001              		.loc 1 862 0
 4002 0d2c 334B     		ldr	r3, .L579+44
 4003 0d2e 1B88     		ldrh	r3, [r3]
 4004 0d30 1E2B     		cmp	r3, #30
 4005 0d32 16D9     		bls	.L249
 863:main.c        ****       {
 864:main.c        ****          BUZZER_Write(1);CyDelay(30);Opcion++;BUZZER_Write(0);
 4006              		.loc 1 864 0
 4007 0d34 0120     		movs	r0, #1
 4008 0d36 FFF7FEFF 		bl	BUZZER_Write
 4009              	.LVL319:
 4010 0d3a 1E20     		movs	r0, #30
 4011 0d3c FFF7FEFF 		bl	CyDelay
 4012              	.LVL320:
 4013 0d40 234A     		ldr	r2, .L579
 4014 0d42 1378     		ldrb	r3, [r2]	@ zero_extendqisi2
 4015 0d44 0133     		adds	r3, r3, #1
 4016 0d46 1370     		strb	r3, [r2]
 4017 0d48 0020     		movs	r0, #0
 4018 0d4a FFF7FEFF 		bl	BUZZER_Write
 4019              	.LVL321:
 865:main.c        ****          glcd_rect(40, 35, 85, 60, YES, OFF);
 4020              		.loc 1 865 0
 4021 0d4e 0023     		movs	r3, #0
 4022 0d50 0193     		str	r3, [sp, #4]
 4023 0d52 0123     		movs	r3, #1
 4024 0d54 0093     		str	r3, [sp]
 4025 0d56 3C23     		movs	r3, #60
 4026 0d58 5522     		movs	r2, #85
 4027 0d5a 2321     		movs	r1, #35
 4028 0d5c 2820     		movs	r0, #40
 4029 0d5e FFF7FEFF 		bl	glcd_rect
 4030              	.LVL322:
 4031              	.L249:
 866:main.c        ****       }
 867:main.c        ****             
ARM GAS  C:\Users\USUARIO\AppData\Local\Temp\ccdk1rSB.s 			page 90


 868:main.c        ****       if(tdown>30)//Si oprime hacia abajo
 4032              		.loc 1 868 0
 4033 0d62 274B     		ldr	r3, .L579+48
 4034 0d64 1B88     		ldrh	r3, [r3]
 4035 0d66 1E2B     		cmp	r3, #30
 4036 0d68 16D9     		bls	.L250
 869:main.c        ****       {  
 870:main.c        ****          BUZZER_Write(1);CyDelay(30);Opcion--;BUZZER_Write(0);
 4037              		.loc 1 870 0
 4038 0d6a 0120     		movs	r0, #1
 4039 0d6c FFF7FEFF 		bl	BUZZER_Write
 4040              	.LVL323:
 4041 0d70 1E20     		movs	r0, #30
 4042 0d72 FFF7FEFF 		bl	CyDelay
 4043              	.LVL324:
 4044 0d76 164A     		ldr	r2, .L579
 4045 0d78 1378     		ldrb	r3, [r2]	@ zero_extendqisi2
 4046 0d7a 013B     		subs	r3, r3, #1
 4047 0d7c 1370     		strb	r3, [r2]
 4048 0d7e 0020     		movs	r0, #0
 4049 0d80 FFF7FEFF 		bl	BUZZER_Write
 4050              	.LVL325:
 871:main.c        ****          glcd_rect(40, 35, 85, 60, YES, OFF);
 4051              		.loc 1 871 0
 4052 0d84 0023     		movs	r3, #0
 4053 0d86 0193     		str	r3, [sp, #4]
 4054 0d88 0123     		movs	r3, #1
 4055 0d8a 0093     		str	r3, [sp]
 4056 0d8c 3C23     		movs	r3, #60
 4057 0d8e 5522     		movs	r2, #85
 4058 0d90 2321     		movs	r1, #35
 4059 0d92 2820     		movs	r0, #40
 4060 0d94 FFF7FEFF 		bl	glcd_rect
 4061              	.LVL326:
 4062              	.L250:
 872:main.c        ****       }
 873:main.c        ****             
 874:main.c        ****       if(tright>30)//Si oprime SET
 4063              		.loc 1 874 0
 4064 0d98 1A4B     		ldr	r3, .L579+52
 4065 0d9a 1B88     		ldrh	r3, [r3]
 4066 0d9c 1E2B     		cmp	r3, #30
 4067 0d9e 40F21F81 		bls	.L251
 875:main.c        ****       {  
 876:main.c        ****          Menu=20;glcd_fillScreen(OFF);
 4068              		.loc 1 876 0
 4069 0da2 1422     		movs	r2, #20
 4070 0da4 0C4B     		ldr	r3, .L579+8
 4071 0da6 1A70     		strb	r2, [r3]
 4072 0da8 0020     		movs	r0, #0
 4073 0daa FFF7FEFF 		bl	glcd_fillScreen
 4074              	.LVL327:
 877:main.c        ****          for(i=0;i<Pasos;i++){
 4075              		.loc 1 877 0
 4076 0dae 0022     		movs	r2, #0
 4077 0db0 154B     		ldr	r3, .L579+56
 4078 0db2 1A70     		strb	r2, [r3]
ARM GAS  C:\Users\USUARIO\AppData\Local\Temp\ccdk1rSB.s 			page 91


 4079 0db4 34E0     		b	.L252
 4080              	.L255:
 878:main.c        ****             if(Temperatura1[i+((Opcion-1)*Pasos)]==0){
 4081              		.loc 1 878 0
 4082 0db6 064A     		ldr	r2, .L579
 4083 0db8 1278     		ldrb	r2, [r2]	@ zero_extendqisi2
 4084 0dba 013A     		subs	r2, r2, #1
 4085 0dbc 03EB0212 		add	r2, r3, r2, lsl #4
 4086 0dc0 1249     		ldr	r1, .L579+60
 4087 0dc2 31F91220 		ldrsh	r2, [r1, r2, lsl #1]
 4088 0dc6 2ABB     		cbnz	r2, .L253
 879:main.c        ****                Segmentos=i;
 4089              		.loc 1 879 0
 4090 0dc8 114A     		ldr	r2, .L579+64
 4091 0dca 1370     		strb	r3, [r2]
 880:main.c        ****                break;
 4092              		.loc 1 880 0
 4093 0dcc 2CE0     		b	.L254
 4094              	.L580:
 4095 0dce 00BF     		.align	2
 4096              	.L579:
 4097 0dd0 00000000 		.word	Opcion
 4098 0dd4 00000000 		.word	unidad
 4099 0dd8 00000000 		.word	Menu
 4100 0ddc 00000000 		.word	Menus
 4101 0de0 BC000000 		.word	.LC14
 4102 0de4 C8000000 		.word	.LC15
 4103 0de8 D4000000 		.word	.LC16
 4104 0dec E0000000 		.word	.LC17
 4105 0df0 EC000000 		.word	.LC18
 4106 0df4 F8000000 		.word	.LC19
 4107 0df8 04010000 		.word	.LC20
 4108 0dfc 00000000 		.word	tup
 4109 0e00 00000000 		.word	tdown
 4110 0e04 00000000 		.word	tright
 4111 0e08 00000000 		.word	i
 4112 0e0c 00000000 		.word	Temperatura1
 4113 0e10 00000000 		.word	Segmentos
 4114              	.L253:
 881:main.c        ****             }
 882:main.c        ****             else{
 883:main.c        ****                Segmentos=Pasos-1;
 4115              		.loc 1 883 0 discriminator 2
 4116 0e14 0F21     		movs	r1, #15
 4117 0e16 B84A     		ldr	r2, .L581
 4118 0e18 1170     		strb	r1, [r2]
 877:main.c        ****             if(Temperatura1[i+((Opcion-1)*Pasos)]==0){
 4119              		.loc 1 877 0 discriminator 2
 4120 0e1a 0133     		adds	r3, r3, #1
 4121 0e1c B74A     		ldr	r2, .L581+4
 4122 0e1e 1370     		strb	r3, [r2]
 4123              	.L252:
 877:main.c        ****             if(Temperatura1[i+((Opcion-1)*Pasos)]==0){
 4124              		.loc 1 877 0 is_stmt 0 discriminator 1
 4125 0e20 B64B     		ldr	r3, .L581+4
 4126 0e22 1B78     		ldrb	r3, [r3]	@ zero_extendqisi2
 4127 0e24 0F2B     		cmp	r3, #15
ARM GAS  C:\Users\USUARIO\AppData\Local\Temp\ccdk1rSB.s 			page 92


 4128 0e26 C6D9     		bls	.L255
 4129              	.L254:
 884:main.c        ****             }
 885:main.c        ****             //Horas1[i+((Opcion-1)*10)]=0;
 886:main.c        ****             //Minutos1[i+((Opcion-1)*10)]=0;
 887:main.c        ****          }
 888:main.c        ****          if(Segmentos>0){
 4130              		.loc 1 888 0 is_stmt 1
 4131 0e28 B34B     		ldr	r3, .L581
 4132 0e2a 1B78     		ldrb	r3, [r3]	@ zero_extendqisi2
 4133 0e2c 002B     		cmp	r3, #0
 4134 0e2e 00F0A280 		beq	.L256
 889:main.c        ****             ProgramaSeleccionado=Opcion-1;
 4135              		.loc 1 889 0
 4136 0e32 B34E     		ldr	r6, .L581+8
 4137 0e34 B34F     		ldr	r7, .L581+12
 4138 0e36 3B78     		ldrb	r3, [r7]	@ zero_extendqisi2
 4139 0e38 013B     		subs	r3, r3, #1
 4140 0e3a 3370     		strb	r3, [r6]
 890:main.c        ****             glcd_fillScreen(OFF);
 4141              		.loc 1 890 0
 4142 0e3c 0020     		movs	r0, #0
 4143 0e3e FFF7FEFF 		bl	glcd_fillScreen
 4144              	.LVL328:
 891:main.c        ****             EEPROM_WriteByte(ProgramaSeleccionado,496);CyDelay(20);
 4145              		.loc 1 891 0
 4146 0e42 4FF4F871 		mov	r1, #496
 4147 0e46 3078     		ldrb	r0, [r6]	@ zero_extendqisi2
 4148 0e48 FFF7FEFF 		bl	EEPROM_WriteByte
 4149              	.LVL329:
 4150 0e4c 1420     		movs	r0, #20
 4151 0e4e FFF7FEFF 		bl	CyDelay
 4152              	.LVL330:
 892:main.c        ****             EEPROM_WriteByte(Segmento,497);CyDelay(20);
 4153              		.loc 1 892 0
 4154 0e52 AD4D     		ldr	r5, .L581+16
 4155 0e54 40F2F111 		movw	r1, #497
 4156 0e58 2878     		ldrb	r0, [r5]	@ zero_extendqisi2
 4157 0e5a FFF7FEFF 		bl	EEPROM_WriteByte
 4158              	.LVL331:
 4159 0e5e 1420     		movs	r0, #20
 4160 0e60 FFF7FEFF 		bl	CyDelay
 4161              	.LVL332:
 893:main.c        ****             strcpy(Menus.Letra," Segmentos");
 4162              		.loc 1 893 0
 4163 0e64 A94C     		ldr	r4, .L581+20
 4164 0e66 AA4B     		ldr	r3, .L581+24
 4165 0e68 03CB     		ldmia	r3!, {r0, r1}
 4166 0e6a 2060     		str	r0, [r4]	@ unaligned
 4167 0e6c 6160     		str	r1, [r4, #4]	@ unaligned
 4168 0e6e 1A88     		ldrh	r2, [r3]	@ unaligned
 4169 0e70 9B78     		ldrb	r3, [r3, #2]	@ zero_extendqisi2
 4170 0e72 2281     		strh	r2, [r4, #8]	@ unaligned
 4171 0e74 A372     		strb	r3, [r4, #10]
 894:main.c        ****             displayMenu(Menus.Letra,0,0,0,2);
 4172              		.loc 1 894 0
 4173 0e76 4FF00208 		mov	r8, #2
ARM GAS  C:\Users\USUARIO\AppData\Local\Temp\ccdk1rSB.s 			page 93


 4174 0e7a CDF80080 		str	r8, [sp]
 4175 0e7e 0023     		movs	r3, #0
 4176 0e80 1A46     		mov	r2, r3
 4177 0e82 1946     		mov	r1, r3
 4178 0e84 2046     		mov	r0, r4
 4179 0e86 FFF7FEFF 		bl	displayMenu
 4180              	.LVL333:
 895:main.c        ****             
 896:main.c        ****             displayTiempo(Segmentos,63,30,3,2);
 4181              		.loc 1 896 0
 4182 0e8a 9B4B     		ldr	r3, .L581
 4183 0e8c 1878     		ldrb	r0, [r3]	@ zero_extendqisi2
 4184 0e8e CDF80080 		str	r8, [sp]
 4185 0e92 0323     		movs	r3, #3
 4186 0e94 1E22     		movs	r2, #30
 4187 0e96 3F21     		movs	r1, #63
 4188 0e98 FFF7FEFF 		bl	displayTiempo
 4189              	.LVL334:
 897:main.c        ****             CyDelay(2000);
 4190              		.loc 1 897 0
 4191 0e9c 4FF4FA60 		mov	r0, #2000
 4192 0ea0 FFF7FEFF 		bl	CyDelay
 4193              	.LVL335:
 898:main.c        ****             glcd_fillScreen(OFF);
 4194              		.loc 1 898 0
 4195 0ea4 0020     		movs	r0, #0
 4196 0ea6 FFF7FEFF 		bl	glcd_fillScreen
 4197              	.LVL336:
 899:main.c        ****             Opcion=1;visual=1;//Faltaa cuadrar esta parte
 4198              		.loc 1 899 0
 4199 0eaa 0123     		movs	r3, #1
 4200 0eac 3B70     		strb	r3, [r7]
 4201 0eae 994A     		ldr	r2, .L581+28
 4202 0eb0 1380     		strh	r3, [r2]	@ movhi
 900:main.c        ****             TempeInicial=Temperatura;
 4203              		.loc 1 900 0
 4204 0eb2 994B     		ldr	r3, .L581+32
 4205 0eb4 D3F80090 		ldr	r9, [r3]	@ float
 4206 0eb8 984B     		ldr	r3, .L581+36
 4207 0eba C3F80090 		str	r9, [r3]	@ float
 901:main.c        ****             
 902:main.c        ****             Tiempo=(Horas1[ProgramaSeleccionado*Pasos]*3600)+(Minutos1[ProgramaSeleccionado*Pasos]*
 4208              		.loc 1 902 0
 4209 0ebe 3278     		ldrb	r2, [r6]	@ zero_extendqisi2
 4210 0ec0 1201     		lsls	r2, r2, #4
 4211 0ec2 DFF8A482 		ldr	r8, .L581+112
 4212 0ec6 38F91270 		ldrsh	r7, [r8, r2, lsl #1]
 4213 0eca 954E     		ldr	r6, .L581+40
 4214 0ecc 36F91230 		ldrsh	r3, [r6, r2, lsl #1]
 4215 0ed0 C7EB0717 		rsb	r7, r7, r7, lsl #4
 4216 0ed4 C7EB0717 		rsb	r7, r7, r7, lsl #4
 4217 0ed8 C3EB0313 		rsb	r3, r3, r3, lsl #4
 4218 0edc 9B00     		lsls	r3, r3, #2
 4219 0ede 03EB0717 		add	r7, r3, r7, lsl #4
 4220 0ee2 BFB2     		uxth	r7, r7
 4221 0ee4 8F4B     		ldr	r3, .L581+44
 4222 0ee6 1F80     		strh	r7, [r3]	@ movhi
ARM GAS  C:\Users\USUARIO\AppData\Local\Temp\ccdk1rSB.s 			page 94


 903:main.c        ****             Setpoint=Temperatura1[(ProgramaSeleccionado*Pasos)+Segmento];
 4223              		.loc 1 903 0
 4224 0ee8 2C78     		ldrb	r4, [r5]	@ zero_extendqisi2
 4225 0eea 1444     		add	r4, r4, r2
 4226 0eec 8E4B     		ldr	r3, .L581+48
 4227 0eee 33F81450 		ldrh	r5, [r3, r4, lsl #1]
 4228 0ef2 8E4B     		ldr	r3, .L581+52
 4229 0ef4 1D80     		strh	r5, [r3]	@ movhi
 904:main.c        ****             Pendiente=((Setpoint-TempeInicial)/Tiempo);
 4230              		.loc 1 904 0
 4231 0ef6 2846     		mov	r0, r5
 4232 0ef8 FFF7FEFF 		bl	__aeabi_i2f
 4233              	.LVL337:
 4234 0efc 4946     		mov	r1, r9
 4235 0efe FFF7FEFF 		bl	__aeabi_fsub
 4236              	.LVL338:
 4237 0f02 8146     		mov	r9, r0
 4238 0f04 3846     		mov	r0, r7
 4239 0f06 FFF7FEFF 		bl	__aeabi_i2f
 4240              	.LVL339:
 4241 0f0a 0146     		mov	r1, r0
 4242 0f0c 4846     		mov	r0, r9
 4243 0f0e FFF7FEFF 		bl	__aeabi_fdiv
 4244              	.LVL340:
 4245 0f12 874B     		ldr	r3, .L581+56
 4246 0f14 1860     		str	r0, [r3]	@ float
 905:main.c        ****             Testerilizacionp[3]=(int8)Horas1[(ProgramaSeleccionado*Pasos)+Segmento]/10;
 4247              		.loc 1 905 0
 4248 0f16 38F91420 		ldrsh	r2, [r8, r4, lsl #1]
 4249 0f1a 53B2     		sxtb	r3, r2
 4250 0f1c 8548     		ldr	r0, .L581+60
 4251 0f1e 80FB0371 		smull	r7, r1, r0, r3
 4252 0f22 DB17     		asrs	r3, r3, #31
 4253 0f24 C3EBA103 		rsb	r3, r3, r1, asr #2
 4254 0f28 5BB2     		sxtb	r3, r3
 4255 0f2a 8349     		ldr	r1, .L581+64
 4256 0f2c CB75     		strb	r3, [r1, #23]
 906:main.c        ****             Testerilizacionp[2]=Horas1[(ProgramaSeleccionado*Pasos)+Segmento]-(Testerilizacionp[3]*
 4257              		.loc 1 906 0
 4258 0f2e C3EB4317 		rsb	r7, r3, r3, lsl #5
 4259 0f32 C3EB8703 		rsb	r3, r3, r7, lsl #2
 4260 0f36 02EB4303 		add	r3, r2, r3, lsl #1
 4261 0f3a 8B75     		strb	r3, [r1, #22]
 907:main.c        ****             Testerilizacionp[1]=Minutos1[(ProgramaSeleccionado*Pasos)+Segmento]/10;
 4262              		.loc 1 907 0
 4263 0f3c 36F91420 		ldrsh	r2, [r6, r4, lsl #1]
 4264 0f40 80FB0230 		smull	r3, r0, r0, r2
 4265 0f44 D317     		asrs	r3, r2, #31
 4266 0f46 C3EBA003 		rsb	r3, r3, r0, asr #2
 4267 0f4a 5BB2     		sxtb	r3, r3
 4268 0f4c 4B75     		strb	r3, [r1, #21]
 908:main.c        ****             Testerilizacionp[0]=Minutos1[(ProgramaSeleccionado*Pasos)+Segmento]-(Testerilizacionp[1
 4269              		.loc 1 908 0
 4270 0f4e C3EB4310 		rsb	r0, r3, r3, lsl #5
 4271 0f52 C3EB8003 		rsb	r3, r3, r0, lsl #2
 4272 0f56 02EB4303 		add	r3, r2, r3, lsl #1
 4273 0f5a 0B75     		strb	r3, [r1, #20]
ARM GAS  C:\Users\USUARIO\AppData\Local\Temp\ccdk1rSB.s 			page 95


 909:main.c        ****             Ganancia=GananciaIn*(Setpoint/Coeficiente);
 4274              		.loc 1 909 0
 4275 0f5c 774B     		ldr	r3, .L581+68
 4276 0f5e 1888     		ldrh	r0, [r3]
 4277 0f60 B5FBF0F0 		udiv	r0, r5, r0
 4278 0f64 FFF7FEFF 		bl	__aeabi_i2f
 4279              	.LVL341:
 4280 0f68 754B     		ldr	r3, .L581+72
 4281 0f6a 1968     		ldr	r1, [r3]	@ float
 4282 0f6c FFF7FEFF 		bl	__aeabi_fmul
 4283              	.LVL342:
 4284 0f70 744B     		ldr	r3, .L581+76
 4285 0f72 1860     		str	r0, [r3]	@ float
 4286 0f74 34E0     		b	.L251
 4287              	.L256:
 910:main.c        ****          }
 911:main.c        ****          else{
 912:main.c        ****             glcd_fillScreen(OFF);
 4288              		.loc 1 912 0
 4289 0f76 0020     		movs	r0, #0
 4290 0f78 FFF7FEFF 		bl	glcd_fillScreen
 4291              	.LVL343:
 913:main.c        ****             strcpy(Menus.Letra," !Programa");
 4292              		.loc 1 913 0
 4293 0f7c 634C     		ldr	r4, .L581+20
 4294 0f7e 724B     		ldr	r3, .L581+80
 4295 0f80 03CB     		ldmia	r3!, {r0, r1}
 4296 0f82 2060     		str	r0, [r4]	@ unaligned
 4297 0f84 6160     		str	r1, [r4, #4]	@ unaligned
 4298 0f86 1A88     		ldrh	r2, [r3]	@ unaligned
 4299 0f88 9B78     		ldrb	r3, [r3, #2]	@ zero_extendqisi2
 4300 0f8a 2281     		strh	r2, [r4, #8]	@ unaligned
 4301 0f8c A372     		strb	r3, [r4, #10]
 914:main.c        ****             displayMenu(Menus.Letra,0,0,0,2);
 4302              		.loc 1 914 0
 4303 0f8e 0225     		movs	r5, #2
 4304 0f90 0095     		str	r5, [sp]
 4305 0f92 0023     		movs	r3, #0
 4306 0f94 1A46     		mov	r2, r3
 4307 0f96 1946     		mov	r1, r3
 4308 0f98 2046     		mov	r0, r4
 4309 0f9a FFF7FEFF 		bl	displayMenu
 4310              	.LVL344:
 915:main.c        ****             strcpy(Menus.Letra,"    Vacio!");
 4311              		.loc 1 915 0
 4312 0f9e 6B4B     		ldr	r3, .L581+84
 4313 0fa0 03CB     		ldmia	r3!, {r0, r1}
 4314 0fa2 2060     		str	r0, [r4]	@ unaligned
 4315 0fa4 6160     		str	r1, [r4, #4]	@ unaligned
 4316 0fa6 1A88     		ldrh	r2, [r3]	@ unaligned
 4317 0fa8 9B78     		ldrb	r3, [r3, #2]	@ zero_extendqisi2
 4318 0faa 2281     		strh	r2, [r4, #8]	@ unaligned
 4319 0fac A372     		strb	r3, [r4, #10]
 916:main.c        ****             displayMenu(Menus.Letra,0,20,0,2);
 4320              		.loc 1 916 0
 4321 0fae 0095     		str	r5, [sp]
 4322 0fb0 0023     		movs	r3, #0
ARM GAS  C:\Users\USUARIO\AppData\Local\Temp\ccdk1rSB.s 			page 96


 4323 0fb2 1422     		movs	r2, #20
 4324 0fb4 1946     		mov	r1, r3
 4325 0fb6 2046     		mov	r0, r4
 4326 0fb8 FFF7FEFF 		bl	displayMenu
 4327              	.LVL345:
 917:main.c        ****             Opcion=1;BUZZER_Write(0);CyDelay(2000);Menu=1;glcd_fillScreen(OFF);Opcion=1;visual=1;
 4328              		.loc 1 917 0
 4329 0fbc 514D     		ldr	r5, .L581+12
 4330 0fbe 0124     		movs	r4, #1
 4331 0fc0 2C70     		strb	r4, [r5]
 4332 0fc2 0020     		movs	r0, #0
 4333 0fc4 FFF7FEFF 		bl	BUZZER_Write
 4334              	.LVL346:
 4335 0fc8 4FF4FA60 		mov	r0, #2000
 4336 0fcc FFF7FEFF 		bl	CyDelay
 4337              	.LVL347:
 4338 0fd0 5F4B     		ldr	r3, .L581+88
 4339 0fd2 1C70     		strb	r4, [r3]
 4340 0fd4 0020     		movs	r0, #0
 4341 0fd6 FFF7FEFF 		bl	glcd_fillScreen
 4342              	.LVL348:
 4343 0fda 2C70     		strb	r4, [r5]
 4344 0fdc 4D4B     		ldr	r3, .L581+28
 4345 0fde 1C80     		strh	r4, [r3]	@ movhi
 4346              	.L251:
 918:main.c        ****          }
 919:main.c        ****       } 
 920:main.c        ****                   
 921:main.c        ****       if(tleft>30)//Si oprime boton de Toma.
 4347              		.loc 1 921 0
 4348 0fe0 5C4B     		ldr	r3, .L581+92
 4349 0fe2 1B88     		ldrh	r3, [r3]
 4350 0fe4 1E2B     		cmp	r3, #30
 4351 0fe6 13D9     		bls	.L241
 922:main.c        ****       {
 923:main.c        ****          BUZZER_Write(1);Opcion=1;BUZZER_Write(0);CyDelay(50);Menu=1;glcd_fillScreen(OFF);Opcion=1;
 4352              		.loc 1 923 0
 4353 0fe8 0120     		movs	r0, #1
 4354 0fea FFF7FEFF 		bl	BUZZER_Write
 4355              	.LVL349:
 4356 0fee 454D     		ldr	r5, .L581+12
 4357 0ff0 0124     		movs	r4, #1
 4358 0ff2 2C70     		strb	r4, [r5]
 4359 0ff4 0020     		movs	r0, #0
 4360 0ff6 FFF7FEFF 		bl	BUZZER_Write
 4361              	.LVL350:
 4362 0ffa 3220     		movs	r0, #50
 4363 0ffc FFF7FEFF 		bl	CyDelay
 4364              	.LVL351:
 4365 1000 534B     		ldr	r3, .L581+88
 4366 1002 1C70     		strb	r4, [r3]
 4367 1004 0020     		movs	r0, #0
 4368 1006 FFF7FEFF 		bl	glcd_fillScreen
 4369              	.LVL352:
 4370 100a 2C70     		strb	r4, [r5]
 4371 100c 414B     		ldr	r3, .L581+28
 4372 100e 1C80     		strh	r4, [r3]	@ movhi
ARM GAS  C:\Users\USUARIO\AppData\Local\Temp\ccdk1rSB.s 			page 97


 4373              	.L241:
 924:main.c        ****       } 
 925:main.c        ****     }
 926:main.c        **** //_------------------------------------------------------------------------------------------------
 927:main.c        **** 
 928:main.c        **** //_------------------------------------------------------------------------------------------------
 929:main.c        ****       if(Menu==5){ //Menu Editar Programa
 4374              		.loc 1 929 0
 4375 1010 4F4B     		ldr	r3, .L581+88
 4376 1012 1B78     		ldrb	r3, [r3]	@ zero_extendqisi2
 4377 1014 052B     		cmp	r3, #5
 4378 1016 40F04881 		bne	.L257
 930:main.c        ****       
 931:main.c        ****          if(Opcion>5)
 4379              		.loc 1 931 0
 4380 101a 3A4B     		ldr	r3, .L581+12
 4381 101c 1B78     		ldrb	r3, [r3]	@ zero_extendqisi2
 4382 101e 052B     		cmp	r3, #5
 4383 1020 02D9     		bls	.L258
 932:main.c        ****          {Opcion=1;}
 4384              		.loc 1 932 0
 4385 1022 0122     		movs	r2, #1
 4386 1024 374B     		ldr	r3, .L581+12
 4387 1026 1A70     		strb	r2, [r3]
 4388              	.L258:
 933:main.c        ****          if(Opcion<1)
 4389              		.loc 1 933 0
 4390 1028 364B     		ldr	r3, .L581+12
 4391 102a 1B78     		ldrb	r3, [r3]	@ zero_extendqisi2
 4392 102c 13B9     		cbnz	r3, .L259
 934:main.c        ****          {Opcion=5;}
 4393              		.loc 1 934 0
 4394 102e 0522     		movs	r2, #5
 4395 1030 344B     		ldr	r3, .L581+12
 4396 1032 1A70     		strb	r2, [r3]
 4397              	.L259:
 935:main.c        ****          
 936:main.c        ****          strcpy(Menus.Letra,"Editar");
 4398              		.loc 1 936 0
 4399 1034 354C     		ldr	r4, .L581+20
 4400 1036 484B     		ldr	r3, .L581+96
 4401 1038 1868     		ldr	r0, [r3]	@ unaligned
 4402 103a 2060     		str	r0, [r4]	@ unaligned
 4403 103c 9A88     		ldrh	r2, [r3, #4]	@ unaligned
 4404 103e 9B79     		ldrb	r3, [r3, #6]	@ zero_extendqisi2
 4405 1040 A280     		strh	r2, [r4, #4]	@ unaligned
 4406 1042 A371     		strb	r3, [r4, #6]
 937:main.c        ****          displayMenu(Menus.Letra,30,0,1,2);
 4407              		.loc 1 937 0
 4408 1044 0223     		movs	r3, #2
 4409 1046 0093     		str	r3, [sp]
 4410 1048 0123     		movs	r3, #1
 4411 104a 0022     		movs	r2, #0
 4412 104c 1E21     		movs	r1, #30
 4413 104e 2046     		mov	r0, r4
 4414 1050 FFF7FEFF 		bl	displayMenu
 4415              	.LVL353:
ARM GAS  C:\Users\USUARIO\AppData\Local\Temp\ccdk1rSB.s 			page 98


 938:main.c        ****       
 939:main.c        ****          if(Opcion==1)   
 4416              		.loc 1 939 0
 4417 1054 2B4B     		ldr	r3, .L581+12
 4418 1056 1B78     		ldrb	r3, [r3]	@ zero_extendqisi2
 4419 1058 012B     		cmp	r3, #1
 4420 105a 0CD1     		bne	.L260
 940:main.c        ****             {strcpy(Menus.Letra,"Programa 01");
 4421              		.loc 1 940 0
 4422 105c 3F4B     		ldr	r3, .L581+100
 4423 105e 07CB     		ldmia	r3!, {r0, r1, r2}
 4424 1060 2060     		str	r0, [r4]	@ unaligned
 4425 1062 6160     		str	r1, [r4, #4]	@ unaligned
 4426 1064 A260     		str	r2, [r4, #8]	@ unaligned
 941:main.c        ****             displayMenu(Menus.Letra,0,18,1,1);}
 4427              		.loc 1 941 0
 4428 1066 0123     		movs	r3, #1
 4429 1068 0093     		str	r3, [sp]
 4430 106a 1222     		movs	r2, #18
 4431 106c 0021     		movs	r1, #0
 4432 106e 2046     		mov	r0, r4
 4433 1070 FFF7FEFF 		bl	displayMenu
 4434              	.LVL354:
 4435 1074 0DE0     		b	.L261
 4436              	.L260:
 942:main.c        ****          else
 943:main.c        ****             {strcpy(Menus.Letra,"Programa 01");
 4437              		.loc 1 943 0
 4438 1076 254C     		ldr	r4, .L581+20
 4439 1078 384B     		ldr	r3, .L581+100
 4440 107a 07CB     		ldmia	r3!, {r0, r1, r2}
 4441 107c 2060     		str	r0, [r4]	@ unaligned
 4442 107e 6160     		str	r1, [r4, #4]	@ unaligned
 4443 1080 A260     		str	r2, [r4, #8]	@ unaligned
 944:main.c        ****             displayMenu(Menus.Letra,0,18,0,1);}
 4444              		.loc 1 944 0
 4445 1082 0123     		movs	r3, #1
 4446 1084 0093     		str	r3, [sp]
 4447 1086 0023     		movs	r3, #0
 4448 1088 1222     		movs	r2, #18
 4449 108a 1946     		mov	r1, r3
 4450 108c 2046     		mov	r0, r4
 4451 108e FFF7FEFF 		bl	displayMenu
 4452              	.LVL355:
 4453              	.L261:
 945:main.c        ****          
 946:main.c        ****          if(Opcion==2)   
 4454              		.loc 1 946 0
 4455 1092 1C4B     		ldr	r3, .L581+12
 4456 1094 1B78     		ldrb	r3, [r3]	@ zero_extendqisi2
 4457 1096 022B     		cmp	r3, #2
 4458 1098 0DD1     		bne	.L262
 947:main.c        ****             {strcpy(Menus.Letra,"Programa 02");
 4459              		.loc 1 947 0
 4460 109a 1C4C     		ldr	r4, .L581+20
 4461 109c 304B     		ldr	r3, .L581+104
 4462 109e 07CB     		ldmia	r3!, {r0, r1, r2}
ARM GAS  C:\Users\USUARIO\AppData\Local\Temp\ccdk1rSB.s 			page 99


 4463 10a0 2060     		str	r0, [r4]	@ unaligned
 4464 10a2 6160     		str	r1, [r4, #4]	@ unaligned
 4465 10a4 A260     		str	r2, [r4, #8]	@ unaligned
 948:main.c        ****             displayMenu(Menus.Letra,0,27,1,1);}
 4466              		.loc 1 948 0
 4467 10a6 0123     		movs	r3, #1
 4468 10a8 0093     		str	r3, [sp]
 4469 10aa 1B22     		movs	r2, #27
 4470 10ac 0021     		movs	r1, #0
 4471 10ae 2046     		mov	r0, r4
 4472 10b0 FFF7FEFF 		bl	displayMenu
 4473              	.LVL356:
 4474 10b4 0DE0     		b	.L263
 4475              	.L262:
 949:main.c        ****          else
 950:main.c        ****             {strcpy(Menus.Letra,"Programa 02");
 4476              		.loc 1 950 0
 4477 10b6 154C     		ldr	r4, .L581+20
 4478 10b8 294B     		ldr	r3, .L581+104
 4479 10ba 07CB     		ldmia	r3!, {r0, r1, r2}
 4480 10bc 2060     		str	r0, [r4]	@ unaligned
 4481 10be 6160     		str	r1, [r4, #4]	@ unaligned
 4482 10c0 A260     		str	r2, [r4, #8]	@ unaligned
 951:main.c        ****             displayMenu(Menus.Letra,0,27,0,1);}
 4483              		.loc 1 951 0
 4484 10c2 0123     		movs	r3, #1
 4485 10c4 0093     		str	r3, [sp]
 4486 10c6 0023     		movs	r3, #0
 4487 10c8 1B22     		movs	r2, #27
 4488 10ca 1946     		mov	r1, r3
 4489 10cc 2046     		mov	r0, r4
 4490 10ce FFF7FEFF 		bl	displayMenu
 4491              	.LVL357:
 4492              	.L263:
 952:main.c        ****             
 953:main.c        ****          if(Opcion==3)   
 4493              		.loc 1 953 0
 4494 10d2 0C4B     		ldr	r3, .L581+12
 4495 10d4 1B78     		ldrb	r3, [r3]	@ zero_extendqisi2
 4496 10d6 032B     		cmp	r3, #3
 4497 10d8 48D1     		bne	.L264
 954:main.c        ****             {strcpy(Menus.Letra,"Programa 03");
 4498              		.loc 1 954 0
 4499 10da 0C4C     		ldr	r4, .L581+20
 4500 10dc 214B     		ldr	r3, .L581+108
 4501 10de 07CB     		ldmia	r3!, {r0, r1, r2}
 4502 10e0 2060     		str	r0, [r4]	@ unaligned
 4503 10e2 6160     		str	r1, [r4, #4]	@ unaligned
 4504 10e4 A260     		str	r2, [r4, #8]	@ unaligned
 955:main.c        ****             displayMenu(Menus.Letra,0,36,1,1);}
 4505              		.loc 1 955 0
 4506 10e6 0123     		movs	r3, #1
 4507 10e8 0093     		str	r3, [sp]
 4508 10ea 2422     		movs	r2, #36
 4509 10ec 0021     		movs	r1, #0
 4510 10ee 2046     		mov	r0, r4
 4511 10f0 FFF7FEFF 		bl	displayMenu
ARM GAS  C:\Users\USUARIO\AppData\Local\Temp\ccdk1rSB.s 			page 100


 4512              	.LVL358:
 4513 10f4 48E0     		b	.L265
 4514              	.L582:
 4515 10f6 00BF     		.align	2
 4516              	.L581:
 4517 10f8 00000000 		.word	Segmentos
 4518 10fc 00000000 		.word	i
 4519 1100 00000000 		.word	ProgramaSeleccionado
 4520 1104 00000000 		.word	Opcion
 4521 1108 00000000 		.word	Segmento
 4522 110c 00000000 		.word	Menus
 4523 1110 3C000000 		.word	.LC4
 4524 1114 00000000 		.word	visual
 4525 1118 00000000 		.word	Temperatura
 4526 111c 00000000 		.word	TempeInicial
 4527 1120 00000000 		.word	Minutos1
 4528 1124 00000000 		.word	Tiempo
 4529 1128 00000000 		.word	Temperatura1
 4530 112c 00000000 		.word	Setpoint
 4531 1130 00000000 		.word	Pendiente
 4532 1134 67666666 		.word	1717986919
 4533 1138 00000000 		.word	.LANCHOR0
 4534 113c 00000000 		.word	Coeficiente
 4535 1140 00000000 		.word	GananciaIn
 4536 1144 00000000 		.word	Ganancia
 4537 1148 10010000 		.word	.LC21
 4538 114c 1C010000 		.word	.LC22
 4539 1150 00000000 		.word	Menu
 4540 1154 00000000 		.word	tleft
 4541 1158 28010000 		.word	.LC23
 4542 115c D4000000 		.word	.LC16
 4543 1160 E0000000 		.word	.LC17
 4544 1164 EC000000 		.word	.LC18
 4545 1168 00000000 		.word	Horas1
 4546              	.L264:
 956:main.c        ****          else
 957:main.c        ****             {strcpy(Menus.Letra,"Programa 03");
 4547              		.loc 1 957 0
 4548 116c B34C     		ldr	r4, .L583
 4549 116e B44B     		ldr	r3, .L583+4
 4550 1170 07CB     		ldmia	r3!, {r0, r1, r2}
 4551 1172 2060     		str	r0, [r4]	@ unaligned
 4552 1174 6160     		str	r1, [r4, #4]	@ unaligned
 4553 1176 A260     		str	r2, [r4, #8]	@ unaligned
 958:main.c        ****             displayMenu(Menus.Letra,0,36,0,1);}   
 4554              		.loc 1 958 0
 4555 1178 0123     		movs	r3, #1
 4556 117a 0093     		str	r3, [sp]
 4557 117c 0023     		movs	r3, #0
 4558 117e 2422     		movs	r2, #36
 4559 1180 1946     		mov	r1, r3
 4560 1182 2046     		mov	r0, r4
 4561 1184 FFF7FEFF 		bl	displayMenu
 4562              	.LVL359:
 4563              	.L265:
 959:main.c        ****                         
 960:main.c        ****          if(Opcion==4)   
ARM GAS  C:\Users\USUARIO\AppData\Local\Temp\ccdk1rSB.s 			page 101


 4564              		.loc 1 960 0
 4565 1188 AE4B     		ldr	r3, .L583+8
 4566 118a 1B78     		ldrb	r3, [r3]	@ zero_extendqisi2
 4567 118c 042B     		cmp	r3, #4
 4568 118e 0DD1     		bne	.L266
 961:main.c        ****             {strcpy(Menus.Letra,"Programa 04");
 4569              		.loc 1 961 0
 4570 1190 AA4C     		ldr	r4, .L583
 4571 1192 AD4B     		ldr	r3, .L583+12
 4572 1194 07CB     		ldmia	r3!, {r0, r1, r2}
 4573 1196 2060     		str	r0, [r4]	@ unaligned
 4574 1198 6160     		str	r1, [r4, #4]	@ unaligned
 4575 119a A260     		str	r2, [r4, #8]	@ unaligned
 962:main.c        ****             displayMenu(Menus.Letra,0,45,1,1);}
 4576              		.loc 1 962 0
 4577 119c 0123     		movs	r3, #1
 4578 119e 0093     		str	r3, [sp]
 4579 11a0 2D22     		movs	r2, #45
 4580 11a2 0021     		movs	r1, #0
 4581 11a4 2046     		mov	r0, r4
 4582 11a6 FFF7FEFF 		bl	displayMenu
 4583              	.LVL360:
 4584 11aa 0DE0     		b	.L267
 4585              	.L266:
 963:main.c        ****          else
 964:main.c        ****             {strcpy(Menus.Letra,"Programa 04");
 4586              		.loc 1 964 0
 4587 11ac A34C     		ldr	r4, .L583
 4588 11ae A64B     		ldr	r3, .L583+12
 4589 11b0 07CB     		ldmia	r3!, {r0, r1, r2}
 4590 11b2 2060     		str	r0, [r4]	@ unaligned
 4591 11b4 6160     		str	r1, [r4, #4]	@ unaligned
 4592 11b6 A260     		str	r2, [r4, #8]	@ unaligned
 965:main.c        ****             displayMenu(Menus.Letra,0,45,0,1);}     
 4593              		.loc 1 965 0
 4594 11b8 0123     		movs	r3, #1
 4595 11ba 0093     		str	r3, [sp]
 4596 11bc 0023     		movs	r3, #0
 4597 11be 2D22     		movs	r2, #45
 4598 11c0 1946     		mov	r1, r3
 4599 11c2 2046     		mov	r0, r4
 4600 11c4 FFF7FEFF 		bl	displayMenu
 4601              	.LVL361:
 4602              	.L267:
 966:main.c        ****          
 967:main.c        ****          if(Opcion==5)   
 4603              		.loc 1 967 0
 4604 11c8 9E4B     		ldr	r3, .L583+8
 4605 11ca 1B78     		ldrb	r3, [r3]	@ zero_extendqisi2
 4606 11cc 052B     		cmp	r3, #5
 4607 11ce 0DD1     		bne	.L268
 968:main.c        ****             {strcpy(Menus.Letra,"Programa 05");
 4608              		.loc 1 968 0
 4609 11d0 9A4C     		ldr	r4, .L583
 4610 11d2 9E4B     		ldr	r3, .L583+16
 4611 11d4 07CB     		ldmia	r3!, {r0, r1, r2}
 4612 11d6 2060     		str	r0, [r4]	@ unaligned
ARM GAS  C:\Users\USUARIO\AppData\Local\Temp\ccdk1rSB.s 			page 102


 4613 11d8 6160     		str	r1, [r4, #4]	@ unaligned
 4614 11da A260     		str	r2, [r4, #8]	@ unaligned
 969:main.c        ****             displayMenu(Menus.Letra,0,54,1,1);}
 4615              		.loc 1 969 0
 4616 11dc 0123     		movs	r3, #1
 4617 11de 0093     		str	r3, [sp]
 4618 11e0 3622     		movs	r2, #54
 4619 11e2 0021     		movs	r1, #0
 4620 11e4 2046     		mov	r0, r4
 4621 11e6 FFF7FEFF 		bl	displayMenu
 4622              	.LVL362:
 4623 11ea 0DE0     		b	.L269
 4624              	.L268:
 970:main.c        ****          else
 971:main.c        ****             {strcpy(Menus.Letra,"Programa 05");
 4625              		.loc 1 971 0
 4626 11ec 934C     		ldr	r4, .L583
 4627 11ee 974B     		ldr	r3, .L583+16
 4628 11f0 07CB     		ldmia	r3!, {r0, r1, r2}
 4629 11f2 2060     		str	r0, [r4]	@ unaligned
 4630 11f4 6160     		str	r1, [r4, #4]	@ unaligned
 4631 11f6 A260     		str	r2, [r4, #8]	@ unaligned
 972:main.c        ****             displayMenu(Menus.Letra,0,54,0,1);}     
 4632              		.loc 1 972 0
 4633 11f8 0123     		movs	r3, #1
 4634 11fa 0093     		str	r3, [sp]
 4635 11fc 0023     		movs	r3, #0
 4636 11fe 3622     		movs	r2, #54
 4637 1200 1946     		mov	r1, r3
 4638 1202 2046     		mov	r0, r4
 4639 1204 FFF7FEFF 		bl	displayMenu
 4640              	.LVL363:
 4641              	.L269:
 973:main.c        ****          
 974:main.c        ****          if(tup>30)//Si oprime hacia arriba
 4642              		.loc 1 974 0
 4643 1208 914B     		ldr	r3, .L583+20
 4644 120a 1B88     		ldrh	r3, [r3]
 4645 120c 1E2B     		cmp	r3, #30
 4646 120e 0CD9     		bls	.L270
 975:main.c        ****          {
 976:main.c        ****             BUZZER_Write(1);CyDelay(30);Opcion--;BUZZER_Write(0);
 4647              		.loc 1 976 0
 4648 1210 0120     		movs	r0, #1
 4649 1212 FFF7FEFF 		bl	BUZZER_Write
 4650              	.LVL364:
 4651 1216 1E20     		movs	r0, #30
 4652 1218 FFF7FEFF 		bl	CyDelay
 4653              	.LVL365:
 4654 121c 894A     		ldr	r2, .L583+8
 4655 121e 1378     		ldrb	r3, [r2]	@ zero_extendqisi2
 4656 1220 013B     		subs	r3, r3, #1
 4657 1222 1370     		strb	r3, [r2]
 4658 1224 0020     		movs	r0, #0
 4659 1226 FFF7FEFF 		bl	BUZZER_Write
 4660              	.LVL366:
 4661              	.L270:
ARM GAS  C:\Users\USUARIO\AppData\Local\Temp\ccdk1rSB.s 			page 103


 977:main.c        ****          }
 978:main.c        ****                   
 979:main.c        ****          if(tdown>30)//Si oprime hacia abajo
 4662              		.loc 1 979 0
 4663 122a 8A4B     		ldr	r3, .L583+24
 4664 122c 1B88     		ldrh	r3, [r3]
 4665 122e 1E2B     		cmp	r3, #30
 4666 1230 0CD9     		bls	.L271
 980:main.c        ****          {
 981:main.c        ****             BUZZER_Write(1);CyDelay(30);Opcion++; BUZZER_Write(0);
 4667              		.loc 1 981 0
 4668 1232 0120     		movs	r0, #1
 4669 1234 FFF7FEFF 		bl	BUZZER_Write
 4670              	.LVL367:
 4671 1238 1E20     		movs	r0, #30
 4672 123a FFF7FEFF 		bl	CyDelay
 4673              	.LVL368:
 4674 123e 814A     		ldr	r2, .L583+8
 4675 1240 1378     		ldrb	r3, [r2]	@ zero_extendqisi2
 4676 1242 0133     		adds	r3, r3, #1
 4677 1244 1370     		strb	r3, [r2]
 4678 1246 0020     		movs	r0, #0
 4679 1248 FFF7FEFF 		bl	BUZZER_Write
 4680              	.LVL369:
 4681              	.L271:
 982:main.c        ****          }
 983:main.c        ****                
 984:main.c        ****          if(tright>30)//Si oprime SET
 4682              		.loc 1 984 0
 4683 124c 824B     		ldr	r3, .L583+28
 4684 124e 1B88     		ldrh	r3, [r3]
 4685 1250 1E2B     		cmp	r3, #30
 4686 1252 15D9     		bls	.L272
 985:main.c        ****          { 
 986:main.c        ****             BUZZER_Write(1);CyDelay(50);Menu=Opcion+10;Opcion=1;glcd_fillScreen(OFF);BUZZER_Write(0
 4687              		.loc 1 986 0
 4688 1254 0120     		movs	r0, #1
 4689 1256 FFF7FEFF 		bl	BUZZER_Write
 4690              	.LVL370:
 4691 125a 3220     		movs	r0, #50
 4692 125c FFF7FEFF 		bl	CyDelay
 4693              	.LVL371:
 4694 1260 784A     		ldr	r2, .L583+8
 4695 1262 1378     		ldrb	r3, [r2]	@ zero_extendqisi2
 4696 1264 0A33     		adds	r3, r3, #10
 4697 1266 7D49     		ldr	r1, .L583+32
 4698 1268 0B70     		strb	r3, [r1]
 4699 126a 0123     		movs	r3, #1
 4700 126c 1370     		strb	r3, [r2]
 4701 126e 0020     		movs	r0, #0
 4702 1270 FFF7FEFF 		bl	glcd_fillScreen
 4703              	.LVL372:
 4704 1274 0020     		movs	r0, #0
 4705 1276 FFF7FEFF 		bl	BUZZER_Write
 4706              	.LVL373:
 4707 127a 0022     		movs	r2, #0
 4708 127c 784B     		ldr	r3, .L583+36
ARM GAS  C:\Users\USUARIO\AppData\Local\Temp\ccdk1rSB.s 			page 104


 4709 127e 1A70     		strb	r2, [r3]
 4710              	.L272:
 987:main.c        ****          }
 988:main.c        ****          
 989:main.c        ****          if(tleft>30){
 4711              		.loc 1 989 0
 4712 1280 784B     		ldr	r3, .L583+40
 4713 1282 1B88     		ldrh	r3, [r3]
 4714 1284 1E2B     		cmp	r3, #30
 4715 1286 10D9     		bls	.L257
 990:main.c        ****             BUZZER_Write(1);CyDelay(50);Menu=1;Opcion=1;glcd_fillScreen(OFF);BUZZER_Write(0);
 4716              		.loc 1 990 0
 4717 1288 0120     		movs	r0, #1
 4718 128a FFF7FEFF 		bl	BUZZER_Write
 4719              	.LVL374:
 4720 128e 3220     		movs	r0, #50
 4721 1290 FFF7FEFF 		bl	CyDelay
 4722              	.LVL375:
 4723 1294 0123     		movs	r3, #1
 4724 1296 714A     		ldr	r2, .L583+32
 4725 1298 1370     		strb	r3, [r2]
 4726 129a 6A4A     		ldr	r2, .L583+8
 4727 129c 1370     		strb	r3, [r2]
 4728 129e 0020     		movs	r0, #0
 4729 12a0 FFF7FEFF 		bl	glcd_fillScreen
 4730              	.LVL376:
 4731 12a4 0020     		movs	r0, #0
 4732 12a6 FFF7FEFF 		bl	BUZZER_Write
 4733              	.LVL377:
 4734              	.L257:
 991:main.c        ****          }
 992:main.c        ****    }
 993:main.c        **** //_------------------------------------------------------------------------------------------------
 994:main.c        **** 
 995:main.c        **** //_------------------------------------------------------------------------------------------------
 996:main.c        ****       if(Menu==6){ //Menu de Borrar Programa
 4735              		.loc 1 996 0
 4736 12aa 6C4B     		ldr	r3, .L583+32
 4737 12ac 1B78     		ldrb	r3, [r3]	@ zero_extendqisi2
 4738 12ae 062B     		cmp	r3, #6
 4739 12b0 40F08B81 		bne	.L273
 997:main.c        ****       
 998:main.c        ****       if(Opcion>5)
 4740              		.loc 1 998 0
 4741 12b4 634B     		ldr	r3, .L583+8
 4742 12b6 1B78     		ldrb	r3, [r3]	@ zero_extendqisi2
 4743 12b8 052B     		cmp	r3, #5
 4744 12ba 02D9     		bls	.L274
 999:main.c        ****          Opcion=1;
 4745              		.loc 1 999 0
 4746 12bc 0122     		movs	r2, #1
 4747 12be 614B     		ldr	r3, .L583+8
 4748 12c0 1A70     		strb	r2, [r3]
 4749              	.L274:
1000:main.c        ****          
1001:main.c        ****       if(Opcion<1)
 4750              		.loc 1 1001 0
ARM GAS  C:\Users\USUARIO\AppData\Local\Temp\ccdk1rSB.s 			page 105


 4751 12c2 604B     		ldr	r3, .L583+8
 4752 12c4 1B78     		ldrb	r3, [r3]	@ zero_extendqisi2
 4753 12c6 13B9     		cbnz	r3, .L275
1002:main.c        ****          Opcion=5;
 4754              		.loc 1 1002 0
 4755 12c8 0522     		movs	r2, #5
 4756 12ca 5E4B     		ldr	r3, .L583+8
 4757 12cc 1A70     		strb	r2, [r3]
 4758              	.L275:
1003:main.c        ****       
1004:main.c        ****          strcpy(Menus.Letra,"  Elimine");
 4759              		.loc 1 1004 0
 4760 12ce 5B4C     		ldr	r4, .L583
 4761 12d0 654B     		ldr	r3, .L583+44
 4762 12d2 03CB     		ldmia	r3!, {r0, r1}
 4763 12d4 2060     		str	r0, [r4]	@ unaligned
 4764 12d6 6160     		str	r1, [r4, #4]	@ unaligned
 4765 12d8 1B88     		ldrh	r3, [r3]	@ unaligned
 4766 12da 2381     		strh	r3, [r4, #8]	@ unaligned
1005:main.c        ****          displayMenu(Menus.Letra,0,0,1,2);
 4767              		.loc 1 1005 0
 4768 12dc 0225     		movs	r5, #2
 4769 12de 0095     		str	r5, [sp]
 4770 12e0 0123     		movs	r3, #1
 4771 12e2 0022     		movs	r2, #0
 4772 12e4 1146     		mov	r1, r2
 4773 12e6 2046     		mov	r0, r4
 4774 12e8 FFF7FEFF 		bl	displayMenu
 4775              	.LVL378:
1006:main.c        ****          
1007:main.c        ****          strcpy(Menus.Letra," Programa");
 4776              		.loc 1 1007 0
 4777 12ec 5F4B     		ldr	r3, .L583+48
 4778 12ee 03CB     		ldmia	r3!, {r0, r1}
 4779 12f0 2060     		str	r0, [r4]	@ unaligned
 4780 12f2 6160     		str	r1, [r4, #4]	@ unaligned
 4781 12f4 1B88     		ldrh	r3, [r3]	@ unaligned
 4782 12f6 2381     		strh	r3, [r4, #8]	@ unaligned
