ARM GAS  C:\Users\JPELEC~1\AppData\Local\Temp\ccSdZhaR.s 			page 1


   1              		.syntax unified
   2              		.cpu cortex-m3
   3              		.fpu softvfp
   4              		.eabi_attribute 20, 1
   5              		.eabi_attribute 21, 1
   6              		.eabi_attribute 23, 3
   7              		.eabi_attribute 24, 1
   8              		.eabi_attribute 25, 1
   9              		.eabi_attribute 26, 1
  10              		.eabi_attribute 30, 1
  11              		.eabi_attribute 34, 1
  12              		.eabi_attribute 18, 4
  13              		.thumb
  14              		.syntax unified
  15              		.file	"coldJnTemp.c"
  16              		.text
  17              	.Ltext0:
  18              		.cfi_sections	.debug_frame
  19              		.global	__aeabi_f2iz
  20              		.global	__aeabi_i2f
  21              		.global	__aeabi_fsub
  22              		.global	__aeabi_fmul
  23              		.section	.text.extraeDecimal,"ax",%progbits
  24              		.align	2
  25              		.global	extraeDecimal
  26              		.thumb
  27              		.thumb_func
  28              		.type	extraeDecimal, %function
  29              	extraeDecimal:
  30              	.LFB64:
  31              		.file 1 "coldJnTemp.c"
   1:coldJnTemp.c  **** /******************************************************************************
   2:coldJnTemp.c  **** * File Name: coldJnTemp.c
   3:coldJnTemp.c  **** *  Version 1.0
   4:coldJnTemp.c  **** *
   5:coldJnTemp.c  **** * Description:
   6:coldJnTemp.c  **** *  This file contains the code to measure cold junction temperature
   7:coldJnTemp.c  **** *
   8:coldJnTemp.c  **** * Note:
   9:coldJnTemp.c  **** *
  10:coldJnTemp.c  **** ********************************************************************************
  11:coldJnTemp.c  **** * Copyright (2018), Cypress Semiconductor Corporation. All Rights Reserved.
  12:coldJnTemp.c  **** ********************************************************************************
  13:coldJnTemp.c  **** * This software is owned by Cypress Semiconductor Corporation (Cypress)
  14:coldJnTemp.c  **** * and is protected by and subject to worldwide patent protection (United
  15:coldJnTemp.c  **** * States and foreign), United States copyright laws and international treaty
  16:coldJnTemp.c  **** * provisions. Cypress hereby grants to licensee a personal, non-exclusive,
  17:coldJnTemp.c  **** * non-transferable license to copy, use, modify, create derivative works of,
  18:coldJnTemp.c  **** * and compile the Cypress Source Code and derivative works for the sole
  19:coldJnTemp.c  **** * purpose of creating custom software in support of licensee product to be
  20:coldJnTemp.c  **** * used only in conjunction with a Cypress integrated circuit as specified in
  21:coldJnTemp.c  **** * the applicable agreement. Any reproduction, modification, translation,
  22:coldJnTemp.c  **** * compilation, or representation of this software except as specified above 
  23:coldJnTemp.c  **** * is prohibited without the express written permission of Cypress.
  24:coldJnTemp.c  **** *
  25:coldJnTemp.c  **** * Disclaimer: CYPRESS MAKES NO WARRANTY OF ANY KIND, EXPRESS OR IMPLIED, WITH 
  26:coldJnTemp.c  **** * REGARD TO THIS MATERIAL, INCLUDING, BUT NOT LIMITED TO, THE IMPLIED 
ARM GAS  C:\Users\JPELEC~1\AppData\Local\Temp\ccSdZhaR.s 			page 2


  27:coldJnTemp.c  **** * WARRANTIES OF MERCHANTABILITY AND FITNESS FOR A PARTICULAR PURPOSE.
  28:coldJnTemp.c  **** * Cypress reserves the right to make changes without further notice to the 
  29:coldJnTemp.c  **** * materials described herein. Cypress does not assume any liability arising out 
  30:coldJnTemp.c  **** * of the application or use of any product or circuit described herein. Cypress 
  31:coldJnTemp.c  **** * does not authorize its products for use as critical components in life-support 
  32:coldJnTemp.c  **** * systems where a malfunction or failure may reasonably be expected to result in 
  33:coldJnTemp.c  **** * significant injury to the user. The inclusion of Cypress' product in a life-
  34:coldJnTemp.c  **** * support systems application implies that the manufacturer assumes all risk of 
  35:coldJnTemp.c  **** * such use and in doing so indemnifies Cypress against all charges. 
  36:coldJnTemp.c  **** *
  37:coldJnTemp.c  **** * Use of this Software may be limited by and subject to the applicable Cypress
  38:coldJnTemp.c  **** * software license agreement. 
  39:coldJnTemp.c  **** *******************************************************************************/
  40:coldJnTemp.c  **** #include <main.h>
  41:coldJnTemp.c  **** 
  42:coldJnTemp.c  **** extern volatile uint8 CJSelectFlag;
  43:coldJnTemp.c  **** uint8 i;
  44:coldJnTemp.c  **** uint8 l2,h2;
  45:coldJnTemp.c  **** uint16 Prom;
  46:coldJnTemp.c  **** uint16 promedio2[20];
  47:coldJnTemp.c  **** 
  48:coldJnTemp.c  **** uint8 extraeDecimal(float data){
  32              		.loc 1 48 0
  33              		.cfi_startproc
  34              		@ args = 0, pretend = 0, frame = 0
  35              		@ frame_needed = 0, uses_anonymous_args = 0
  36              	.LVL0:
  37 0000 10B5     		push	{r4, lr}
  38              		.cfi_def_cfa_offset 8
  39              		.cfi_offset 4, -8
  40              		.cfi_offset 14, -4
  41 0002 0446     		mov	r4, r0
  42              	.LVL1:
  49:coldJnTemp.c  ****    float entero=0;
  50:coldJnTemp.c  ****    float tmp=0.0;
  51:coldJnTemp.c  ****    
  52:coldJnTemp.c  ****    entero=(int8)data;
  43              		.loc 1 52 0
  44 0004 FFF7FEFF 		bl	__aeabi_f2iz
  45              	.LVL2:
  46 0008 40B2     		sxtb	r0, r0
  47 000a FFF7FEFF 		bl	__aeabi_i2f
  48              	.LVL3:
  53:coldJnTemp.c  ****    tmp=(data-entero)*10;
  49              		.loc 1 53 0
  50 000e 0146     		mov	r1, r0
  51 0010 2046     		mov	r0, r4
  52              	.LVL4:
  53 0012 FFF7FEFF 		bl	__aeabi_fsub
  54              	.LVL5:
  55 0016 0349     		ldr	r1, .L3
  56 0018 FFF7FEFF 		bl	__aeabi_fmul
  57              	.LVL6:
  54:coldJnTemp.c  ****    return (int8)tmp;
  58              		.loc 1 54 0
  59 001c FFF7FEFF 		bl	__aeabi_f2iz
  60              	.LVL7:
ARM GAS  C:\Users\JPELEC~1\AppData\Local\Temp\ccSdZhaR.s 			page 3


  55:coldJnTemp.c  **** }
  61              		.loc 1 55 0
  62 0020 C0B2     		uxtb	r0, r0
  63 0022 10BD     		pop	{r4, pc}
  64              	.LVL8:
  65              	.L4:
  66              		.align	2
  67              	.L3:
  68 0024 00002041 		.word	1092616192
  69              		.cfi_endproc
  70              	.LFE64:
  71              		.size	extraeDecimal, .-extraeDecimal
  72              		.global	__aeabi_ui2f
  73              		.global	__aeabi_fdiv
  74              		.section	.text.inttofloat,"ax",%progbits
  75              		.align	2
  76              		.global	inttofloat
  77              		.thumb
  78              		.thumb_func
  79              		.type	inttofloat, %function
  80              	inttofloat:
  81              	.LFB65:
  56:coldJnTemp.c  **** 
  57:coldJnTemp.c  **** float inttofloat(uint8 decimal){
  82              		.loc 1 57 0
  83              		.cfi_startproc
  84              		@ args = 0, pretend = 0, frame = 0
  85              		@ frame_needed = 0, uses_anonymous_args = 0
  86              	.LVL9:
  87 0000 08B5     		push	{r3, lr}
  88              		.cfi_def_cfa_offset 8
  89              		.cfi_offset 3, -8
  90              		.cfi_offset 14, -4
  58:coldJnTemp.c  ****    float tmp;
  59:coldJnTemp.c  ****    tmp=decimal;
  91              		.loc 1 59 0
  92 0002 FFF7FEFF 		bl	__aeabi_ui2f
  93              	.LVL10:
  60:coldJnTemp.c  ****    return tmp/10;
  94              		.loc 1 60 0
  95 0006 0249     		ldr	r1, .L7
  96 0008 FFF7FEFF 		bl	__aeabi_fdiv
  97              	.LVL11:
  61:coldJnTemp.c  **** }
  98              		.loc 1 61 0
  99 000c 08BD     		pop	{r3, pc}
 100              	.L8:
 101 000e 00BF     		.align	2
 102              	.L7:
 103 0010 00002041 		.word	1092616192
 104              		.cfi_endproc
 105              	.LFE65:
 106              		.size	inttofloat, .-inttofloat
 107              		.section	.text.convert8,"ax",%progbits
 108              		.align	2
 109              		.global	convert8
 110              		.thumb
ARM GAS  C:\Users\JPELEC~1\AppData\Local\Temp\ccSdZhaR.s 			page 4


 111              		.thumb_func
 112              		.type	convert8, %function
 113              	convert8:
 114              	.LFB66:
  62:coldJnTemp.c  **** 
  63:coldJnTemp.c  **** uint8 convert8(uint16 data,uint8 nible){
 115              		.loc 1 63 0
 116              		.cfi_startproc
 117              		@ args = 0, pretend = 0, frame = 0
 118              		@ frame_needed = 0, uses_anonymous_args = 0
 119              		@ link register save eliminated.
 120              	.LVL12:
  64:coldJnTemp.c  ****     uint8 dato=0;
  65:coldJnTemp.c  ****     if(nible==0){
 121              		.loc 1 65 0
 122 0000 09B9     		cbnz	r1, .L10
  66:coldJnTemp.c  ****         dato=(uint8)data;   
 123              		.loc 1 66 0
 124 0002 C0B2     		uxtb	r0, r0
 125              	.LVL13:
 126 0004 7047     		bx	lr
 127              	.LVL14:
 128              	.L10:
  67:coldJnTemp.c  ****     }else if(nible==1){
 129              		.loc 1 67 0
 130 0006 0129     		cmp	r1, #1
 131 0008 01D1     		bne	.L12
  68:coldJnTemp.c  ****         dato=data>>8;
 132              		.loc 1 68 0
 133 000a 000A     		lsrs	r0, r0, #8
 134              	.LVL15:
 135 000c 7047     		bx	lr
 136              	.LVL16:
 137              	.L12:
  64:coldJnTemp.c  ****     if(nible==0){
 138              		.loc 1 64 0
 139 000e 0020     		movs	r0, #0
 140              	.LVL17:
  69:coldJnTemp.c  ****     }
  70:coldJnTemp.c  ****     return dato;
  71:coldJnTemp.c  **** }
 141              		.loc 1 71 0
 142 0010 7047     		bx	lr
 143              		.cfi_endproc
 144              	.LFE66:
 145              		.size	convert8, .-convert8
 146 0012 00BF     		.section	.text.convert16,"ax",%progbits
 147              		.align	2
 148              		.global	convert16
 149              		.thumb
 150              		.thumb_func
 151              		.type	convert16, %function
 152              	convert16:
 153              	.LFB67:
  72:coldJnTemp.c  **** 
  73:coldJnTemp.c  **** uint16 convert16(uint8 nibleh,uint8 niblel){
 154              		.loc 1 73 0
ARM GAS  C:\Users\JPELEC~1\AppData\Local\Temp\ccSdZhaR.s 			page 5


 155              		.cfi_startproc
 156              		@ args = 0, pretend = 0, frame = 0
 157              		@ frame_needed = 0, uses_anonymous_args = 0
 158              		@ link register save eliminated.
 159              	.LVL18:
  74:coldJnTemp.c  ****     uint16 temp,var;
  75:coldJnTemp.c  ****     temp=(uint16)nibleh;
  76:coldJnTemp.c  ****     var=temp<<8 | (uint16)niblel;
  77:coldJnTemp.c  ****     return var;
  78:coldJnTemp.c  **** }
 160              		.loc 1 78 0
 161 0000 41EA0020 		orr	r0, r1, r0, lsl #8
 162              	.LVL19:
 163 0004 7047     		bx	lr
 164              		.cfi_endproc
 165              	.LFE67:
 166              		.size	convert16, .-convert16
 167              		.global	__aeabi_fcmpgt
 168              		.global	__aeabi_fcmplt
 169              		.global	__aeabi_i2d
 170              		.global	__aeabi_dcmpgt
 171 0006 00BF     		.section	.text.leeEEPROM,"ax",%progbits
 172              		.align	2
 173              		.global	leeEEPROM
 174              		.thumb
 175              		.thumb_func
 176              		.type	leeEEPROM, %function
 177              	leeEEPROM:
 178              	.LFB68:
  79:coldJnTemp.c  **** 
  80:coldJnTemp.c  **** void leeEEPROM(){
 179              		.loc 1 80 0
 180              		.cfi_startproc
 181              		@ args = 0, pretend = 0, frame = 0
 182              		@ frame_needed = 0, uses_anonymous_args = 0
 183 0000 2DE9F047 		push	{r4, r5, r6, r7, r8, r9, r10, lr}
 184              		.cfi_def_cfa_offset 32
 185              		.cfi_offset 4, -32
 186              		.cfi_offset 5, -28
 187              		.cfi_offset 6, -24
 188              		.cfi_offset 7, -20
 189              		.cfi_offset 8, -16
 190              		.cfi_offset 9, -12
 191              		.cfi_offset 10, -8
 192              		.cfi_offset 14, -4
  81:coldJnTemp.c  ****     uint8 n;
  82:coldJnTemp.c  ****     Password[0]=EEPROM_ReadByte(0);CyDelay(5);  
 193              		.loc 1 82 0
 194 0004 0020     		movs	r0, #0
 195 0006 FFF7FEFF 		bl	EEPROM_ReadByte
 196              	.LVL20:
 197 000a 7E4C     		ldr	r4, .L40
 198 000c 2070     		strb	r0, [r4]
 199 000e 0520     		movs	r0, #5
 200 0010 FFF7FEFF 		bl	CyDelay
 201              	.LVL21:
  83:coldJnTemp.c  ****     Password[1]=EEPROM_ReadByte(1);CyDelay(5);
ARM GAS  C:\Users\JPELEC~1\AppData\Local\Temp\ccSdZhaR.s 			page 6


 202              		.loc 1 83 0
 203 0014 0120     		movs	r0, #1
 204 0016 FFF7FEFF 		bl	EEPROM_ReadByte
 205              	.LVL22:
 206 001a 6070     		strb	r0, [r4, #1]
 207 001c 0520     		movs	r0, #5
 208 001e FFF7FEFF 		bl	CyDelay
 209              	.LVL23:
  84:coldJnTemp.c  ****     Password[2]=EEPROM_ReadByte(2);CyDelay(5);
 210              		.loc 1 84 0
 211 0022 0220     		movs	r0, #2
 212 0024 FFF7FEFF 		bl	EEPROM_ReadByte
 213              	.LVL24:
 214 0028 A070     		strb	r0, [r4, #2]
 215 002a 0520     		movs	r0, #5
 216 002c FFF7FEFF 		bl	CyDelay
 217              	.LVL25:
  85:coldJnTemp.c  ****     Password[3]=EEPROM_ReadByte(3);CyDelay(5);
 218              		.loc 1 85 0
 219 0030 0320     		movs	r0, #3
 220 0032 FFF7FEFF 		bl	EEPROM_ReadByte
 221              	.LVL26:
 222 0036 E070     		strb	r0, [r4, #3]
 223 0038 0520     		movs	r0, #5
 224 003a FFF7FEFF 		bl	CyDelay
 225              	.LVL27:
  86:coldJnTemp.c  ****     
  87:coldJnTemp.c  ****     Ganancia=EEPROM_ReadByte(30);CyDelay(5);
 226              		.loc 1 87 0
 227 003e 1E20     		movs	r0, #30
 228 0040 FFF7FEFF 		bl	EEPROM_ReadByte
 229              	.LVL28:
 230 0044 FFF7FEFF 		bl	__aeabi_ui2f
 231              	.LVL29:
 232 0048 6F4B     		ldr	r3, .L40+4
 233 004a 1860     		str	r0, [r3]	@ float
 234 004c 0520     		movs	r0, #5
 235 004e FFF7FEFF 		bl	CyDelay
 236              	.LVL30:
  88:coldJnTemp.c  ****     Derivativo=EEPROM_ReadByte(31);CyDelay(5);
 237              		.loc 1 88 0
 238 0052 1F20     		movs	r0, #31
 239 0054 FFF7FEFF 		bl	EEPROM_ReadByte
 240              	.LVL31:
 241 0058 6C4B     		ldr	r3, .L40+8
 242 005a 1870     		strb	r0, [r3]
 243 005c 0520     		movs	r0, #5
 244 005e FFF7FEFF 		bl	CyDelay
 245              	.LVL32:
  89:coldJnTemp.c  ****     Integral=EEPROM_ReadByte(32);CyDelay(5);
 246              		.loc 1 89 0
 247 0062 2020     		movs	r0, #32
 248 0064 FFF7FEFF 		bl	EEPROM_ReadByte
 249              	.LVL33:
 250 0068 694B     		ldr	r3, .L40+12
 251 006a 1870     		strb	r0, [r3]
 252 006c 0520     		movs	r0, #5
ARM GAS  C:\Users\JPELEC~1\AppData\Local\Temp\ccSdZhaR.s 			page 7


 253 006e FFF7FEFF 		bl	CyDelay
 254              	.LVL34:
  90:coldJnTemp.c  ****     Tciclo=EEPROM_ReadByte(33);CyDelay(5);
 255              		.loc 1 90 0
 256 0072 2120     		movs	r0, #33
 257 0074 FFF7FEFF 		bl	EEPROM_ReadByte
 258              	.LVL35:
 259 0078 664B     		ldr	r3, .L40+16
 260 007a 1870     		strb	r0, [r3]
 261 007c 0520     		movs	r0, #5
 262 007e FFF7FEFF 		bl	CyDelay
 263              	.LVL36:
  91:coldJnTemp.c  ****     Ajuste=EEPROM_ReadByte(34);CyDelay(5);
 264              		.loc 1 91 0
 265 0082 2220     		movs	r0, #34
 266 0084 FFF7FEFF 		bl	EEPROM_ReadByte
 267              	.LVL37:
 268 0088 634B     		ldr	r3, .L40+20
 269 008a 1870     		strb	r0, [r3]
 270 008c 0520     		movs	r0, #5
 271 008e FFF7FEFF 		bl	CyDelay
 272              	.LVL38:
  92:coldJnTemp.c  ****     Ajusten=EEPROM_ReadByte(35);CyDelay(5);
 273              		.loc 1 92 0
 274 0092 2320     		movs	r0, #35
 275 0094 FFF7FEFF 		bl	EEPROM_ReadByte
 276              	.LVL39:
 277 0098 604B     		ldr	r3, .L40+24
 278 009a 1870     		strb	r0, [r3]
 279 009c 0520     		movs	r0, #5
 280 009e FFF7FEFF 		bl	CyDelay
 281              	.LVL40:
  93:coldJnTemp.c  ****     MediaMovil=EEPROM_ReadByte(36);CyDelay(5);
 282              		.loc 1 93 0
 283 00a2 2420     		movs	r0, #36
 284 00a4 FFF7FEFF 		bl	EEPROM_ReadByte
 285              	.LVL41:
 286 00a8 5D4B     		ldr	r3, .L40+28
 287 00aa 1870     		strb	r0, [r3]
 288 00ac 0520     		movs	r0, #5
 289 00ae FFF7FEFF 		bl	CyDelay
 290              	.LVL42:
  94:coldJnTemp.c  ****     
  95:coldJnTemp.c  ****     if(Password[0]>9){
 291              		.loc 1 95 0
 292 00b2 2378     		ldrb	r3, [r4]	@ zero_extendqisi2
 293 00b4 092B     		cmp	r3, #9
 294 00b6 07D9     		bls	.L15
  96:coldJnTemp.c  ****         Password[0]=0;
 295              		.loc 1 96 0
 296 00b8 0020     		movs	r0, #0
 297 00ba 2070     		strb	r0, [r4]
  97:coldJnTemp.c  ****         EEPROM_WriteByte(0,0);CyDelay(20);
 298              		.loc 1 97 0
 299 00bc 0146     		mov	r1, r0
 300 00be FFF7FEFF 		bl	EEPROM_WriteByte
 301              	.LVL43:
ARM GAS  C:\Users\JPELEC~1\AppData\Local\Temp\ccSdZhaR.s 			page 8


 302 00c2 1420     		movs	r0, #20
 303 00c4 FFF7FEFF 		bl	CyDelay
 304              	.LVL44:
 305              	.L15:
  98:coldJnTemp.c  ****     }
  99:coldJnTemp.c  ****     if(Password[1]>9){
 306              		.loc 1 99 0
 307 00c8 4E4B     		ldr	r3, .L40
 308 00ca 5B78     		ldrb	r3, [r3, #1]	@ zero_extendqisi2
 309 00cc 092B     		cmp	r3, #9
 310 00ce 08D9     		bls	.L16
 100:coldJnTemp.c  ****         Password[1]=0;
 311              		.loc 1 100 0
 312 00d0 0020     		movs	r0, #0
 313 00d2 4C4B     		ldr	r3, .L40
 314 00d4 5870     		strb	r0, [r3, #1]
 101:coldJnTemp.c  ****         EEPROM_WriteByte(0,1);CyDelay(20);
 315              		.loc 1 101 0
 316 00d6 0121     		movs	r1, #1
 317 00d8 FFF7FEFF 		bl	EEPROM_WriteByte
 318              	.LVL45:
 319 00dc 1420     		movs	r0, #20
 320 00de FFF7FEFF 		bl	CyDelay
 321              	.LVL46:
 322              	.L16:
 102:coldJnTemp.c  ****     }
 103:coldJnTemp.c  ****     if(Password[2]>9){
 323              		.loc 1 103 0
 324 00e2 484B     		ldr	r3, .L40
 325 00e4 9B78     		ldrb	r3, [r3, #2]	@ zero_extendqisi2
 326 00e6 092B     		cmp	r3, #9
 327 00e8 08D9     		bls	.L17
 104:coldJnTemp.c  ****         Password[2]=0;
 328              		.loc 1 104 0
 329 00ea 0020     		movs	r0, #0
 330 00ec 454B     		ldr	r3, .L40
 331 00ee 9870     		strb	r0, [r3, #2]
 105:coldJnTemp.c  ****         EEPROM_WriteByte(0,2);CyDelay(20);
 332              		.loc 1 105 0
 333 00f0 0221     		movs	r1, #2
 334 00f2 FFF7FEFF 		bl	EEPROM_WriteByte
 335              	.LVL47:
 336 00f6 1420     		movs	r0, #20
 337 00f8 FFF7FEFF 		bl	CyDelay
 338              	.LVL48:
 339              	.L17:
 106:coldJnTemp.c  ****     }
 107:coldJnTemp.c  ****     if(Password[3]>9){
 340              		.loc 1 107 0
 341 00fc 414B     		ldr	r3, .L40
 342 00fe DB78     		ldrb	r3, [r3, #3]	@ zero_extendqisi2
 343 0100 092B     		cmp	r3, #9
 344 0102 08D9     		bls	.L18
 108:coldJnTemp.c  ****         Password[3]=0;
 345              		.loc 1 108 0
 346 0104 0020     		movs	r0, #0
 347 0106 3F4B     		ldr	r3, .L40
ARM GAS  C:\Users\JPELEC~1\AppData\Local\Temp\ccSdZhaR.s 			page 9


 348 0108 D870     		strb	r0, [r3, #3]
 109:coldJnTemp.c  ****         EEPROM_WriteByte(0,3);CyDelay(20);
 349              		.loc 1 109 0
 350 010a 0321     		movs	r1, #3
 351 010c FFF7FEFF 		bl	EEPROM_WriteByte
 352              	.LVL49:
 353 0110 1420     		movs	r0, #20
 354 0112 FFF7FEFF 		bl	CyDelay
 355              	.LVL50:
 356              	.L18:
 110:coldJnTemp.c  ****     }
 111:coldJnTemp.c  ****     if(Ganancia>10 || Ganancia<1){
 357              		.loc 1 111 0
 358 0116 3C4B     		ldr	r3, .L40+4
 359 0118 1C68     		ldr	r4, [r3]	@ float
 360 011a 4249     		ldr	r1, .L40+32
 361 011c 2046     		mov	r0, r4
 362 011e FFF7FEFF 		bl	__aeabi_fcmpgt
 363              	.LVL51:
 364 0122 28B9     		cbnz	r0, .L19
 365              		.loc 1 111 0 is_stmt 0 discriminator 1
 366 0124 4FF07E51 		mov	r1, #1065353216
 367 0128 2046     		mov	r0, r4
 368 012a FFF7FEFF 		bl	__aeabi_fcmplt
 369              	.LVL52:
 370 012e 48B1     		cbz	r0, .L20
 371              	.L19:
 112:coldJnTemp.c  ****         Ganancia=3;    
 372              		.loc 1 112 0 is_stmt 1
 373 0130 3D4A     		ldr	r2, .L40+36
 374 0132 354B     		ldr	r3, .L40+4
 375 0134 1A60     		str	r2, [r3]	@ float
 113:coldJnTemp.c  ****         EEPROM_WriteByte(3,30);CyDelay(20);
 376              		.loc 1 113 0
 377 0136 1E21     		movs	r1, #30
 378 0138 0320     		movs	r0, #3
 379 013a FFF7FEFF 		bl	EEPROM_WriteByte
 380              	.LVL53:
 381 013e 1420     		movs	r0, #20
 382 0140 FFF7FEFF 		bl	CyDelay
 383              	.LVL54:
 384              	.L20:
 114:coldJnTemp.c  ****     }
 115:coldJnTemp.c  ****     
 116:coldJnTemp.c  ****     if(Derivativo>80 || Derivativo<5){
 385              		.loc 1 116 0
 386 0144 314B     		ldr	r3, .L40+8
 387 0146 1B78     		ldrb	r3, [r3]	@ zero_extendqisi2
 388 0148 053B     		subs	r3, r3, #5
 389 014a DBB2     		uxtb	r3, r3
 390 014c 4B2B     		cmp	r3, #75
 391 014e 08D9     		bls	.L22
 117:coldJnTemp.c  ****         Derivativo=5;    
 392              		.loc 1 117 0
 393 0150 0520     		movs	r0, #5
 394 0152 2E4B     		ldr	r3, .L40+8
 395 0154 1870     		strb	r0, [r3]
ARM GAS  C:\Users\JPELEC~1\AppData\Local\Temp\ccSdZhaR.s 			page 10


 118:coldJnTemp.c  ****         EEPROM_WriteByte(5,31);CyDelay(20);
 396              		.loc 1 118 0
 397 0156 1F21     		movs	r1, #31
 398 0158 FFF7FEFF 		bl	EEPROM_WriteByte
 399              	.LVL55:
 400 015c 1420     		movs	r0, #20
 401 015e FFF7FEFF 		bl	CyDelay
 402              	.LVL56:
 403              	.L22:
 119:coldJnTemp.c  ****     }
 120:coldJnTemp.c  ****     if(Integral>4 || Integral<1){
 404              		.loc 1 120 0
 405 0162 2B4B     		ldr	r3, .L40+12
 406 0164 1B78     		ldrb	r3, [r3]	@ zero_extendqisi2
 407 0166 013B     		subs	r3, r3, #1
 408 0168 DBB2     		uxtb	r3, r3
 409 016a 032B     		cmp	r3, #3
 410 016c 08D9     		bls	.L23
 121:coldJnTemp.c  ****         Integral=1;    
 411              		.loc 1 121 0
 412 016e 0120     		movs	r0, #1
 413 0170 274B     		ldr	r3, .L40+12
 414 0172 1870     		strb	r0, [r3]
 122:coldJnTemp.c  ****         EEPROM_WriteByte(1,32);CyDelay(20);
 415              		.loc 1 122 0
 416 0174 2021     		movs	r1, #32
 417 0176 FFF7FEFF 		bl	EEPROM_WriteByte
 418              	.LVL57:
 419 017a 1420     		movs	r0, #20
 420 017c FFF7FEFF 		bl	CyDelay
 421              	.LVL58:
 422              	.L23:
 123:coldJnTemp.c  ****     }
 124:coldJnTemp.c  ****     if(Tciclo>10 || Tciclo<1){
 423              		.loc 1 124 0
 424 0180 244B     		ldr	r3, .L40+16
 425 0182 1B78     		ldrb	r3, [r3]	@ zero_extendqisi2
 426 0184 013B     		subs	r3, r3, #1
 427 0186 DBB2     		uxtb	r3, r3
 428 0188 092B     		cmp	r3, #9
 429 018a 08D9     		bls	.L24
 125:coldJnTemp.c  ****         Tciclo=10;    
 430              		.loc 1 125 0
 431 018c 0A20     		movs	r0, #10
 432 018e 214B     		ldr	r3, .L40+16
 433 0190 1870     		strb	r0, [r3]
 126:coldJnTemp.c  ****         EEPROM_WriteByte(10,33);CyDelay(20);
 434              		.loc 1 126 0
 435 0192 2121     		movs	r1, #33
 436 0194 FFF7FEFF 		bl	EEPROM_WriteByte
 437              	.LVL59:
 438 0198 1420     		movs	r0, #20
 439 019a FFF7FEFF 		bl	CyDelay
 440              	.LVL60:
 441              	.L24:
 127:coldJnTemp.c  ****     }
 128:coldJnTemp.c  ****     if(Ajuste>50){
ARM GAS  C:\Users\JPELEC~1\AppData\Local\Temp\ccSdZhaR.s 			page 11


 442              		.loc 1 128 0
 443 019e 1E4B     		ldr	r3, .L40+20
 444 01a0 1B78     		ldrb	r3, [r3]	@ zero_extendqisi2
 445 01a2 322B     		cmp	r3, #50
 446 01a4 08D9     		bls	.L25
 129:coldJnTemp.c  ****         Ajuste=0;    
 447              		.loc 1 129 0
 448 01a6 0020     		movs	r0, #0
 449 01a8 1B4B     		ldr	r3, .L40+20
 450 01aa 1870     		strb	r0, [r3]
 130:coldJnTemp.c  ****         EEPROM_WriteByte(0,34);CyDelay(20);
 451              		.loc 1 130 0
 452 01ac 2221     		movs	r1, #34
 453 01ae FFF7FEFF 		bl	EEPROM_WriteByte
 454              	.LVL61:
 455 01b2 1420     		movs	r0, #20
 456 01b4 FFF7FEFF 		bl	CyDelay
 457              	.LVL62:
 458              	.L25:
 131:coldJnTemp.c  ****     }
 132:coldJnTemp.c  ****     if(Ajusten>50){
 459              		.loc 1 132 0
 460 01b8 184B     		ldr	r3, .L40+24
 461 01ba 1B78     		ldrb	r3, [r3]	@ zero_extendqisi2
 462 01bc 322B     		cmp	r3, #50
 463 01be 08D9     		bls	.L26
 133:coldJnTemp.c  ****         Ajusten=0;    
 464              		.loc 1 133 0
 465 01c0 0020     		movs	r0, #0
 466 01c2 164B     		ldr	r3, .L40+24
 467 01c4 1870     		strb	r0, [r3]
 134:coldJnTemp.c  ****         EEPROM_WriteByte(0,35);CyDelay(20);
 468              		.loc 1 134 0
 469 01c6 2321     		movs	r1, #35
 470 01c8 FFF7FEFF 		bl	EEPROM_WriteByte
 471              	.LVL63:
 472 01cc 1420     		movs	r0, #20
 473 01ce FFF7FEFF 		bl	CyDelay
 474              	.LVL64:
 475              	.L26:
 135:coldJnTemp.c  ****     }
 136:coldJnTemp.c  ****     if(MediaMovil>40 || MediaMovil<1){
 476              		.loc 1 136 0
 477 01d2 134B     		ldr	r3, .L40+28
 478 01d4 1B78     		ldrb	r3, [r3]	@ zero_extendqisi2
 479 01d6 013B     		subs	r3, r3, #1
 480 01d8 DBB2     		uxtb	r3, r3
 481 01da 272B     		cmp	r3, #39
 482 01dc 08D9     		bls	.L27
 137:coldJnTemp.c  ****         MediaMovil=10;    
 483              		.loc 1 137 0
 484 01de 0A20     		movs	r0, #10
 485 01e0 0F4B     		ldr	r3, .L40+28
 486 01e2 1870     		strb	r0, [r3]
 138:coldJnTemp.c  ****         EEPROM_WriteByte(10,36);CyDelay(20);
 487              		.loc 1 138 0
 488 01e4 2421     		movs	r1, #36
ARM GAS  C:\Users\JPELEC~1\AppData\Local\Temp\ccSdZhaR.s 			page 12


 489 01e6 FFF7FEFF 		bl	EEPROM_WriteByte
 490              	.LVL65:
 491 01ea 1420     		movs	r0, #20
 492 01ec FFF7FEFF 		bl	CyDelay
 493              	.LVL66:
 494              	.L27:
 139:coldJnTemp.c  ****     }
 140:coldJnTemp.c  ****     GananciaIn=Ganancia;
 495              		.loc 1 140 0
 496 01f0 054B     		ldr	r3, .L40+4
 497 01f2 1A68     		ldr	r2, [r3]	@ float
 498 01f4 0D4B     		ldr	r3, .L40+40
 499 01f6 1A60     		str	r2, [r3]	@ float
 500              	.LVL67:
 141:coldJnTemp.c  ****     for(n=0;n<5;n++){
 501              		.loc 1 141 0
 502 01f8 0024     		movs	r4, #0
 503 01fa B3E0     		b	.L28
 504              	.LVL68:
 505              	.L36:
 142:coldJnTemp.c  ****         for(i=0;i<10;i++){
 506              		.loc 1 142 0
 507 01fc 0022     		movs	r2, #0
 508 01fe 0C4B     		ldr	r3, .L40+44
 509 0200 1A70     		strb	r2, [r3]
 510 0202 A8E0     		b	.L29
 511              	.L41:
 512              		.align	2
 513              	.L40:
 514 0204 00000000 		.word	Password
 515 0208 00000000 		.word	Ganancia
 516 020c 00000000 		.word	Derivativo
 517 0210 00000000 		.word	Integral
 518 0214 00000000 		.word	Tciclo
 519 0218 00000000 		.word	Ajuste
 520 021c 00000000 		.word	Ajusten
 521 0220 00000000 		.word	MediaMovil
 522 0224 00002041 		.word	1092616192
 523 0228 00004040 		.word	1077936128
 524 022c 00000000 		.word	GananciaIn
 525 0230 00000000 		.word	i
 526              	.L35:
 143:coldJnTemp.c  ****             Programas[n].rampas[i].TemperaturaInt=EEPROM_ReadByte(100+(n*50)+(i*5)); 
 527              		.loc 1 143 0
 528 0234 2746     		mov	r7, r4
 529 0236 04EB8403 		add	r3, r4, r4, lsl #2
 530 023a 03EB8303 		add	r3, r3, r3, lsl #2
 531 023e 4FEA430A 		lsl	r10, r3, #1
 532 0242 1FFA8AFA 		uxth	r10, r10
 533 0246 06EB8600 		add	r0, r6, r6, lsl #2
 534 024a 5044     		add	r0, r0, r10
 535 024c 6430     		adds	r0, r0, #100
 536 024e 80B2     		uxth	r0, r0
 537 0250 FFF7FEFF 		bl	EEPROM_ReadByte
 538              	.LVL69:
 539 0254 DFF82081 		ldr	r8, .L42+8
 540 0258 A500     		lsls	r5, r4, #2
ARM GAS  C:\Users\JPELEC~1\AppData\Local\Temp\ccSdZhaR.s 			page 13


 541 025a 2A19     		adds	r2, r5, r4
 542 025c 9300     		lsls	r3, r2, #2
 543 025e 3344     		add	r3, r3, r6
 544 0260 08EBC303 		add	r3, r8, r3, lsl #3
 545 0264 5870     		strb	r0, [r3, #1]
 144:coldJnTemp.c  ****             Programas[n].rampas[i].TemperaturaDec=EEPROM_ReadByte(101+(n*50)+(i*5)); 
 546              		.loc 1 144 0
 547 0266 DFF81891 		ldr	r9, .L42+16
 548 026a 99F80060 		ldrb	r6, [r9]	@ zero_extendqisi2
 549 026e 06EB8600 		add	r0, r6, r6, lsl #2
 550 0272 5044     		add	r0, r0, r10
 551 0274 6530     		adds	r0, r0, #101
 552 0276 80B2     		uxth	r0, r0
 553 0278 FFF7FEFF 		bl	EEPROM_ReadByte
 554              	.LVL70:
 555 027c 2A19     		adds	r2, r5, r4
 556 027e 9300     		lsls	r3, r2, #2
 557 0280 1E44     		add	r6, r6, r3
 558 0282 08F83600 		strb	r0, [r8, r6, lsl #3]
 145:coldJnTemp.c  ****             Programas[n].rampas[i].Horas=EEPROM_ReadByte(103+(n*50)+(i*5)); 
 559              		.loc 1 145 0
 560 0286 99F80060 		ldrb	r6, [r9]	@ zero_extendqisi2
 561 028a 06EB8600 		add	r0, r6, r6, lsl #2
 562 028e 5044     		add	r0, r0, r10
 563 0290 6730     		adds	r0, r0, #103
 564 0292 80B2     		uxth	r0, r0
 565 0294 FFF7FEFF 		bl	EEPROM_ReadByte
 566              	.LVL71:
 567 0298 2A19     		adds	r2, r5, r4
 568 029a 9300     		lsls	r3, r2, #2
 569 029c 1E44     		add	r6, r6, r3
 570 029e 08EBC606 		add	r6, r8, r6, lsl #3
 571 02a2 F070     		strb	r0, [r6, #3]
 146:coldJnTemp.c  ****             Programas[n].rampas[i].Minutos=EEPROM_ReadByte(104+(n*50)+(i*5)); 
 572              		.loc 1 146 0
 573 02a4 99F80060 		ldrb	r6, [r9]	@ zero_extendqisi2
 574 02a8 06EB8600 		add	r0, r6, r6, lsl #2
 575 02ac 5044     		add	r0, r0, r10
 576 02ae 6830     		adds	r0, r0, #104
 577 02b0 80B2     		uxth	r0, r0
 578 02b2 FFF7FEFF 		bl	EEPROM_ReadByte
 579              	.LVL72:
 580 02b6 2A19     		adds	r2, r5, r4
 581 02b8 9300     		lsls	r3, r2, #2
 582 02ba 1E44     		add	r6, r6, r3
 583 02bc 08EBC606 		add	r6, r8, r6, lsl #3
 584 02c0 3071     		strb	r0, [r6, #4]
 147:coldJnTemp.c  ****                
 148:coldJnTemp.c  ****             Programas[n].rampas[i].Temperatura=convert16(Programas[n].rampas[i].TemperaturaDec,Prog
 585              		.loc 1 148 0
 586 02c2 99F80060 		ldrb	r6, [r9]	@ zero_extendqisi2
 587 02c6 3344     		add	r3, r3, r6
 588 02c8 08EBC305 		add	r5, r8, r3, lsl #3
 589 02cc 6978     		ldrb	r1, [r5, #1]	@ zero_extendqisi2
 590 02ce 18F83300 		ldrb	r0, [r8, r3, lsl #3]	@ zero_extendqisi2
 591 02d2 FFF7FEFF 		bl	convert16
 592              	.LVL73:
ARM GAS  C:\Users\JPELEC~1\AppData\Local\Temp\ccSdZhaR.s 			page 14


 593 02d6 E880     		strh	r0, [r5, #6]	@ movhi
 149:coldJnTemp.c  ****             if(Programas[n].rampas[i].Temperatura>1200)Programas[n].rampas[i].Temperatura=10;
 594              		.loc 1 149 0
 595 02d8 B0F5966F 		cmp	r0, #1200
 596 02dc 07D9     		bls	.L30
 597              		.loc 1 149 0 is_stmt 0 discriminator 1
 598 02de 04EB8402 		add	r2, r4, r4, lsl #2
 599 02e2 9300     		lsls	r3, r2, #2
 600 02e4 3344     		add	r3, r3, r6
 601 02e6 08EBC303 		add	r3, r8, r3, lsl #3
 602 02ea 0A22     		movs	r2, #10
 603 02ec DA80     		strh	r2, [r3, #6]	@ movhi
 604              	.L30:
 150:coldJnTemp.c  ****             if(Programas[n].rampas[i].Horas>99.0)Programas[n].rampas[i].Horas=10.0;
 605              		.loc 1 150 0 is_stmt 1
 606 02ee 07EB8702 		add	r2, r7, r7, lsl #2
 607 02f2 9300     		lsls	r3, r2, #2
 608 02f4 3344     		add	r3, r3, r6
 609 02f6 204A     		ldr	r2, .L42+8
 610 02f8 02EBC303 		add	r3, r2, r3, lsl #3
 611 02fc D878     		ldrb	r0, [r3, #3]	@ zero_extendqisi2
 612 02fe FFF7FEFF 		bl	__aeabi_i2d
 613              	.LVL74:
 614 0302 1BA3     		adr	r3, .L42
 615 0304 D3E90023 		ldrd	r2, [r3]
 616 0308 FFF7FEFF 		bl	__aeabi_dcmpgt
 617              	.LVL75:
 618 030c 40B1     		cbz	r0, .L31
 619              		.loc 1 150 0 is_stmt 0 discriminator 1
 620 030e 07EB8702 		add	r2, r7, r7, lsl #2
 621 0312 9300     		lsls	r3, r2, #2
 622 0314 3344     		add	r3, r3, r6
 623 0316 184A     		ldr	r2, .L42+8
 624 0318 02EBC303 		add	r3, r2, r3, lsl #3
 625 031c 0A22     		movs	r2, #10
 626 031e DA70     		strb	r2, [r3, #3]
 627              	.L31:
 151:coldJnTemp.c  ****             if(Programas[n].rampas[i].Minutos>59.0)Programas[n].rampas[i].Minutos=10.0;
 628              		.loc 1 151 0 is_stmt 1
 629 0320 07EB8702 		add	r2, r7, r7, lsl #2
 630 0324 9300     		lsls	r3, r2, #2
 631 0326 3344     		add	r3, r3, r6
 632 0328 134A     		ldr	r2, .L42+8
 633 032a 02EBC303 		add	r3, r2, r3, lsl #3
 634 032e 1879     		ldrb	r0, [r3, #4]	@ zero_extendqisi2
 635 0330 FFF7FEFF 		bl	__aeabi_i2d
 636              	.LVL76:
 637 0334 0022     		movs	r2, #0
 638 0336 114B     		ldr	r3, .L42+12
 639 0338 FFF7FEFF 		bl	__aeabi_dcmpgt
 640              	.LVL77:
 641 033c 40B1     		cbz	r0, .L33
 642              		.loc 1 151 0 is_stmt 0 discriminator 1
 643 033e 07EB8707 		add	r7, r7, r7, lsl #2
 644 0342 BB00     		lsls	r3, r7, #2
 645 0344 3344     		add	r3, r3, r6
 646 0346 0C4A     		ldr	r2, .L42+8
ARM GAS  C:\Users\JPELEC~1\AppData\Local\Temp\ccSdZhaR.s 			page 15


 647 0348 02EBC303 		add	r3, r2, r3, lsl #3
 648 034c 0A22     		movs	r2, #10
 649 034e 1A71     		strb	r2, [r3, #4]
 650              	.L33:
 142:coldJnTemp.c  ****             Programas[n].rampas[i].TemperaturaInt=EEPROM_ReadByte(100+(n*50)+(i*5)); 
 651              		.loc 1 142 0 is_stmt 1 discriminator 2
 652 0350 0136     		adds	r6, r6, #1
 653 0352 0B4B     		ldr	r3, .L42+16
 654 0354 1E70     		strb	r6, [r3]
 655              	.L29:
 142:coldJnTemp.c  ****             Programas[n].rampas[i].TemperaturaInt=EEPROM_ReadByte(100+(n*50)+(i*5)); 
 656              		.loc 1 142 0 is_stmt 0 discriminator 1
 657 0356 0A4B     		ldr	r3, .L42+16
 658 0358 1E78     		ldrb	r6, [r3]	@ zero_extendqisi2
 659 035a 092E     		cmp	r6, #9
 660 035c 7FF66AAF 		bls	.L35
 141:coldJnTemp.c  ****         for(i=0;i<10;i++){
 661              		.loc 1 141 0 is_stmt 1 discriminator 2
 662 0360 0134     		adds	r4, r4, #1
 663              	.LVL78:
 664 0362 E4B2     		uxtb	r4, r4
 665              	.LVL79:
 666              	.L28:
 141:coldJnTemp.c  ****         for(i=0;i<10;i++){
 667              		.loc 1 141 0 is_stmt 0 discriminator 1
 668 0364 042C     		cmp	r4, #4
 669 0366 7FF649AF 		bls	.L36
 152:coldJnTemp.c  ****         }
 153:coldJnTemp.c  ****     }
 154:coldJnTemp.c  **** }
 670              		.loc 1 154 0 is_stmt 1
 671 036a BDE8F087 		pop	{r4, r5, r6, r7, r8, r9, r10, pc}
 672              	.LVL80:
 673              	.L43:
 674 036e 00BF     		.align	3
 675              	.L42:
 676 0370 00000000 		.word	0
 677 0374 00C05840 		.word	1079558144
 678 0378 00000000 		.word	Programas
 679 037c 00804D40 		.word	1078820864
 680 0380 00000000 		.word	i
 681              		.cfi_endproc
 682              	.LFE68:
 683              		.size	leeEEPROM, .-leeEEPROM
 684              		.section	.text.MeasureColdJnSensorTemp,"ax",%progbits
 685              		.align	2
 686              		.global	MeasureColdJnSensorTemp
 687              		.thumb
 688              		.thumb_func
 689              		.type	MeasureColdJnSensorTemp, %function
 690              	MeasureColdJnSensorTemp:
 691              	.LFB69:
 155:coldJnTemp.c  **** 
 156:coldJnTemp.c  **** /*******************************************************************************
 157:coldJnTemp.c  **** *  Function Name: MeasureColdJnSensorTemp
 158:coldJnTemp.c  **** ********************************************************************************
 159:coldJnTemp.c  **** * Summary:
ARM GAS  C:\Users\JPELEC~1\AppData\Local\Temp\ccSdZhaR.s 			page 16


 160:coldJnTemp.c  **** *  This function is used to select cold junction temperature sensor which is used 
 161:coldJnTemp.c  **** *  as cold junction compensation for thermocouple. The selection is made based on 
 162:coldJnTemp.c  **** *  the value of CJSelectFlag
 163:coldJnTemp.c  **** *
 164:coldJnTemp.c  **** * Parameters:  
 165:coldJnTemp.c  **** * void:
 166:coldJnTemp.c  **** *
 167:coldJnTemp.c  **** * Return: 
 168:coldJnTemp.c  **** * Temperature in 째C
 169:coldJnTemp.c  **** *
 170:coldJnTemp.c  **** * Theory:
 171:coldJnTemp.c  **** *
 172:coldJnTemp.c  **** * Side Effects:
 173:coldJnTemp.c  **** * None
 174:coldJnTemp.c  **** *******************************************************************************/
 175:coldJnTemp.c  **** int32 MeasureColdJnSensorTemp(void)
 176:coldJnTemp.c  **** {
 692              		.loc 1 176 0
 693              		.cfi_startproc
 694              		@ args = 0, pretend = 0, frame = 0
 695              		@ frame_needed = 0, uses_anonymous_args = 0
 696 0000 08B5     		push	{r3, lr}
 697              		.cfi_def_cfa_offset 8
 698              		.cfi_offset 3, -8
 699              		.cfi_offset 14, -4
 700              	.LVL81:
 177:coldJnTemp.c  ****     /* Cold Jn temperature is measured using either DS600 IC or Thermistor SW2
 178:coldJnTemp.c  ****         controls the selection*/
 179:coldJnTemp.c  ****     uint16 lm35;
 180:coldJnTemp.c  ****         /* Show ADC2 result on LCD*/
 181:coldJnTemp.c  ****         lm35=0;
 182:coldJnTemp.c  ****         if(dataReady != 0u)
 701              		.loc 1 182 0
 702 0002 1C4B     		ldr	r3, .L51
 703 0004 1B78     		ldrb	r3, [r3]	@ zero_extendqisi2
 704 0006 002B     		cmp	r3, #0
 705 0008 2ED0     		beq	.L49
 183:coldJnTemp.c  ****         {
 184:coldJnTemp.c  ****             Prom=ADC_SAR_CountsTo_mVolts(result);
 706              		.loc 1 184 0
 707 000a 1B4B     		ldr	r3, .L51+4
 708 000c B3F90000 		ldrsh	r0, [r3]
 709 0010 FFF7FEFF 		bl	ADC_SAR_CountsTo_mVolts
 710              	.LVL82:
 711 0014 80B2     		uxth	r0, r0
 712 0016 194B     		ldr	r3, .L51+8
 713 0018 1880     		strh	r0, [r3]	@ movhi
 185:coldJnTemp.c  ****             if(l2>(10-1))
 714              		.loc 1 185 0
 715 001a 194B     		ldr	r3, .L51+12
 716 001c 1B78     		ldrb	r3, [r3]	@ zero_extendqisi2
 717 001e 092B     		cmp	r3, #9
 718 0020 02D9     		bls	.L46
 186:coldJnTemp.c  ****                l2=0;
 719              		.loc 1 186 0
 720 0022 0022     		movs	r2, #0
 721 0024 164B     		ldr	r3, .L51+12
ARM GAS  C:\Users\JPELEC~1\AppData\Local\Temp\ccSdZhaR.s 			page 17


 722 0026 1A70     		strb	r2, [r3]
 723              	.L46:
 187:coldJnTemp.c  **** 
 188:coldJnTemp.c  ****             promedio2[l2]=Prom;l2++;
 724              		.loc 1 188 0
 725 0028 154A     		ldr	r2, .L51+12
 726 002a 1378     		ldrb	r3, [r2]	@ zero_extendqisi2
 727 002c 1549     		ldr	r1, .L51+16
 728 002e 21F81300 		strh	r0, [r1, r3, lsl #1]	@ movhi
 729 0032 0133     		adds	r3, r3, #1
 730 0034 1370     		strb	r3, [r2]
 189:coldJnTemp.c  ****                  
 190:coldJnTemp.c  ****             for(h2=0;h2<10;h2++){
 731              		.loc 1 190 0
 732 0036 0023     		movs	r3, #0
 733 0038 134A     		ldr	r2, .L51+20
 734 003a 1370     		strb	r3, [r2]
 735 003c 07E0     		b	.L47
 736              	.LVL83:
 737              	.L48:
 191:coldJnTemp.c  ****                 lm35+=promedio2[h2];
 738              		.loc 1 191 0 discriminator 3
 739 003e 1149     		ldr	r1, .L51+16
 740 0040 31F81210 		ldrh	r1, [r1, r2, lsl #1]
 741 0044 0B44     		add	r3, r3, r1
 742              	.LVL84:
 743 0046 9BB2     		uxth	r3, r3
 744              	.LVL85:
 190:coldJnTemp.c  ****                 lm35+=promedio2[h2];
 745              		.loc 1 190 0 discriminator 3
 746 0048 0132     		adds	r2, r2, #1
 747 004a 0F49     		ldr	r1, .L51+20
 748 004c 0A70     		strb	r2, [r1]
 749              	.LVL86:
 750              	.L47:
 190:coldJnTemp.c  ****                 lm35+=promedio2[h2];
 751              		.loc 1 190 0 is_stmt 0 discriminator 1
 752 004e 0E4A     		ldr	r2, .L51+20
 753 0050 1278     		ldrb	r2, [r2]	@ zero_extendqisi2
 754 0052 092A     		cmp	r2, #9
 755 0054 F3D9     		bls	.L48
 192:coldJnTemp.c  ****             } 
 193:coldJnTemp.c  ****             lm35=lm35/10; 
 756              		.loc 1 193 0 is_stmt 1
 757 0056 0D4A     		ldr	r2, .L51+24
 758 0058 A2FB0323 		umull	r2, r3, r2, r3
 759              	.LVL87:
 760 005c C3F3CF03 		ubfx	r3, r3, #3, #16
 761              	.LVL88:
 194:coldJnTemp.c  ****             dataReady = 0u;
 762              		.loc 1 194 0
 763 0060 0021     		movs	r1, #0
 764 0062 044A     		ldr	r2, .L51
 765 0064 1170     		strb	r1, [r2]
 766 0066 00E0     		b	.L45
 767              	.LVL89:
 768              	.L49:
ARM GAS  C:\Users\JPELEC~1\AppData\Local\Temp\ccSdZhaR.s 			page 18


 181:coldJnTemp.c  ****         if(dataReady != 0u)
 769              		.loc 1 181 0
 770 0068 0023     		movs	r3, #0
 771              	.LVL90:
 772              	.L45:
 195:coldJnTemp.c  ****         }
 196:coldJnTemp.c  ****     
 197:coldJnTemp.c  **** 	return lm35*10;
 773              		.loc 1 197 0
 774 006a 03EB8303 		add	r3, r3, r3, lsl #2
 775              	.LVL91:
 776 006e 5800     		lsls	r0, r3, #1
 198:coldJnTemp.c  **** }
 777              		.loc 1 198 0
 778 0070 08BD     		pop	{r3, pc}
 779              	.L52:
 780 0072 00BF     		.align	2
 781              	.L51:
 782 0074 00000000 		.word	dataReady
 783 0078 00000000 		.word	result
 784 007c 00000000 		.word	Prom
 785 0080 00000000 		.word	l2
 786 0084 00000000 		.word	promedio2
 787 0088 00000000 		.word	h2
 788 008c CDCCCCCC 		.word	-858993459
 789              		.cfi_endproc
 790              	.LFE69:
 791              		.size	MeasureColdJnSensorTemp, .-MeasureColdJnSensorTemp
 792              		.section	.text.MeasureICTemp,"ax",%progbits
 793              		.align	2
 794              		.global	MeasureICTemp
 795              		.thumb
 796              		.thumb_func
 797              		.type	MeasureICTemp, %function
 798              	MeasureICTemp:
 799              	.LFB70:
 199:coldJnTemp.c  **** 
 200:coldJnTemp.c  **** /*******************************************************************************
 201:coldJnTemp.c  **** *  Function Name: MeasureICTemp
 202:coldJnTemp.c  **** ********************************************************************************
 203:coldJnTemp.c  **** * Summary:
 204:coldJnTemp.c  **** *  This function is used to measure the DS600 IC temperature which is used as
 205:coldJnTemp.c  **** *  cold junction compensation for thermocouple.
 206:coldJnTemp.c  **** *
 207:coldJnTemp.c  **** * Parameters:  
 208:coldJnTemp.c  **** * void:
 209:coldJnTemp.c  **** *
 210:coldJnTemp.c  **** * Return: 
 211:coldJnTemp.c  **** * int32: Temperature in 째C
 212:coldJnTemp.c  **** *
 213:coldJnTemp.c  **** * Theory:
 214:coldJnTemp.c  **** * Cold Junction IC DS600 has temperature coefficient of 6.45mV/째C with 
 215:coldJnTemp.c  **** * 509mv offset at 25째C.
 216:coldJnTemp.c  **** * Analog voltage output from IC is converted to temperature as follows:
 217:coldJnTemp.c  **** * Temp = (Vout - 509mV)/6.45mV
 218:coldJnTemp.c  **** *
 219:coldJnTemp.c  **** * Side Effects:
ARM GAS  C:\Users\JPELEC~1\AppData\Local\Temp\ccSdZhaR.s 			page 19


 220:coldJnTemp.c  **** * None
 221:coldJnTemp.c  **** *******************************************************************************/
 222:coldJnTemp.c  **** int32 MeasureICTemp(void)
 223:coldJnTemp.c  **** {
 800              		.loc 1 223 0
 801              		.cfi_startproc
 802              		@ args = 0, pretend = 0, frame = 0
 803              		@ frame_needed = 0, uses_anonymous_args = 0
 804              		@ link register save eliminated.
 224:coldJnTemp.c  ****   	/* Cold junction IC ADC count measurement*/
 225:coldJnTemp.c  ****     int32 ICResult;
 226:coldJnTemp.c  ****    
 227:coldJnTemp.c  ****     /* Cold Junction micro volts converted from ADC reading */
 228:coldJnTemp.c  ****     int32 ICUVolts;
 229:coldJnTemp.c  ****     
 230:coldJnTemp.c  ****     /* Cold Jn temperature measured using DS600 */
 231:coldJnTemp.c  ****     int32 ICTemp;
 232:coldJnTemp.c  **** 	
 233:coldJnTemp.c  **** 	/* Variable used to calculate VSSA ground reference voltage */
 234:coldJnTemp.c  ****     int32 offset;
 235:coldJnTemp.c  ****     
 236:coldJnTemp.c  ****     
 237:coldJnTemp.c  ****     /* Measure cold junction temperature in Celsius from parameters from the DS600 
 238:coldJnTemp.c  **** 	 * Temp Sensor 509 mV at 0 degrees C, divided by 6.45 mV per degree C. The macros
 239:coldJnTemp.c  **** 	 * (SCALING, VOLTAGE_PER_DEGREE and ZERO_DEGREE_OFFSET_VOLTAGE have been 
 240:coldJnTemp.c  **** 	 * manipulated such that the resultant temperature is in 100th of a degree Celsius*/
 241:coldJnTemp.c  ****     
 242:coldJnTemp.c  **** 	ICTemp = ((ICUVolts - ZERO_DEGREE_OFFSET_VOLTAGE) * SCALING) / VOLTAGE_PER_DEGREE;
 805              		.loc 1 242 0
 806 0000 034B     		ldr	r3, .L54
 807 0002 0448     		ldr	r0, .L54+4
 808 0004 80FB0320 		smull	r2, r0, r0, r3
 809 0008 DB17     		asrs	r3, r3, #31
 810              	.LVL92:
 243:coldJnTemp.c  **** 
 244:coldJnTemp.c  ****     return ICTemp;
 245:coldJnTemp.c  **** }
 811              		.loc 1 245 0
 812 000a C3EB2020 		rsb	r0, r3, r0, asr #8
 813              	.LVL93:
 814 000e 7047     		bx	lr
 815              	.L55:
 816              		.align	2
 817              	.L54:
 818 0010 3055B2FF 		.word	-5090000
 819 0014 07309B65 		.word	1704669191
 820              		.cfi_endproc
 821              	.LFE70:
 822              		.size	MeasureICTemp, .-MeasureICTemp
 823              		.comm	promedio2,40,4
 824              		.comm	Prom,2,2
 825              		.comm	h2,1,1
 826              		.comm	l2,1,1
 827              		.comm	i,1,1
 828              		.comm	Programas,800,4
 829              		.text
 830              	.Letext0:
ARM GAS  C:\Users\JPELEC~1\AppData\Local\Temp\ccSdZhaR.s 			page 20


 831              		.file 2 "c:\\program files\\cypress\\psoc creator\\4.3\\psoc creator\\import\\gnu\\arm\\5.4.1\\arm
 832              		.file 3 "c:\\program files\\cypress\\psoc creator\\4.3\\psoc creator\\import\\gnu\\arm\\5.4.1\\arm
 833              		.file 4 "Generated_Source\\PSoC5/cytypes.h"
 834              		.file 5 "./main.h"
 835              		.file 6 "Generated_Source\\PSoC5/core_cm3.h"
 836              		.file 7 "Generated_Source\\PSoC5/EEPROM.h"
 837              		.file 8 "Generated_Source\\PSoC5/CyLib.h"
 838              		.file 9 "Generated_Source\\PSoC5/ADC_SAR.h"