ARM GAS  C:\Users\JPELEC~1\AppData\Local\Temp\ccEetrge.s 			page 1


   1              		.syntax unified
   2              		.cpu cortex-m3
   3              		.fpu softvfp
   4              		.eabi_attribute 20, 1
   5              		.eabi_attribute 21, 1
   6              		.eabi_attribute 23, 3
   7              		.eabi_attribute 24, 1
   8              		.eabi_attribute 25, 1
   9              		.eabi_attribute 26, 1
  10              		.eabi_attribute 30, 1
  11              		.eabi_attribute 34, 1
  12              		.eabi_attribute 18, 4
  13              		.thumb
  14              		.syntax unified
  15              		.file	"main.c"
  16              		.text
  17              	.Ltext0:
  18              		.cfi_sections	.debug_frame
  19              		.syntax unified
  20              		.global _printf_float
  21              		.thumb
  22              		.syntax unified
  23              		.section	.text.ADC_SAR_ISR_LOC,"ax",%progbits
  24              		.align	2
  25              		.global	ADC_SAR_ISR_LOC
  26              		.thumb
  27              		.thumb_func
  28              		.type	ADC_SAR_ISR_LOC, %function
  29              	ADC_SAR_ISR_LOC:
  30              	.LFB64:
  31              		.file 1 "main.c"
   1:main.c        **** 
   2:main.c        **** /* ========================================
   3:main.c        ****  *
   4:main.c        ****  * Copyright YOUR COMPANY, THE YEAR
   5:main.c        ****  * All Rights Reserved
   6:main.c        ****  * UNPUBLISHED, LICENSED SOFTWARE.
   7:main.c        ****  *
   8:main.c        ****  * CONFIDENTIAL AND PROPRIETARY INFORMATION
   9:main.c        ****  * WHICH IS THE PROPERTY OF your company.
  10:main.c        ****  *
  11:main.c        ****  * ========================================
  12:main.c        **** */
  13:main.c        **** #include <project.h>
  14:main.c        **** #include <stdio.h>
  15:main.c        **** #include <main.h>
  16:main.c        **** #include <math.h>
  17:main.c        **** #include <stdlib.h>
  18:main.c        **** 
  19:main.c        **** #if defined (__GNUC__)
  20:main.c        ****     /* Add an explicit reference to the floating point printf library */
  21:main.c        ****     /* to allow the usage of floating point conversion specifiers. */
  22:main.c        ****     /* This is not linked in by default with the newlib-nano library. */
  23:main.c        ****     asm (".global _printf_float");
  24:main.c        **** #endif
  25:main.c        **** 
  26:main.c        **** #define OFF 0
ARM GAS  C:\Users\JPELEC~1\AppData\Local\Temp\ccEetrge.s 			page 2


  27:main.c        **** #define ON  1
  28:main.c        **** 
  29:main.c        **** int16 offset;
  30:main.c        **** int16 coldJnTemp;
  31:main.c        **** int32 tcColdJnuVolt;
  32:main.c        **** int32 hotJnCount;
  33:main.c        **** int32 filHotJnCount;
  34:main.c        **** int32 tcHotJnuVolt;
  35:main.c        **** int32 tcuVolt;
  36:main.c        **** int32 tcTemp;
  37:main.c        **** char displayStr[100];	
  38:main.c        **** uint8 first = 0;
  39:main.c        **** extern uint8 const CYCODE LCD_customFonts[];  
  40:main.c        **** uint8_t i,pwm1,pwm2,n,PantallaPrincipal,Programa,Opcion2,Derivativo,Integral,MediaMovil,Tciclo,Ajus
  41:main.c        **** uint16 ctr,Setpoint;
  42:main.c        **** uint32_t output,tGrafica;
  43:main.c        **** short flagButton0,flagButton1,flagButton2,flagButton3,dibujo,pulsoAumentar,pulsoDisminuir,flagBorra
  44:main.c        **** float valor,pendiente,b,Ganancia,GananciaIn;
  45:main.c        **** 
  46:main.c        **** #define RX_BUFFER_SIZE  10
  47:main.c        **** char Rx_Buffer[RX_BUFFER_SIZE+1];
  48:main.c        **** char Rx_Buffer2[RX_BUFFER_SIZE+1];
  49:main.c        **** uint8 RX_Wr_Index=0;
  50:main.c        **** uint8 RX_Rd_Index=0;
  51:main.c        **** uint8 RX_Counter=0;
  52:main.c        **** 
  53:main.c        **** char Rx_Buffer3[RX_BUFFER_SIZE+1];
  54:main.c        **** char Rx_Buffer4[RX_BUFFER_SIZE+1];
  55:main.c        **** uint8 RX_Wr_Index2=0;
  56:main.c        **** uint8 RX_Rd_Index2=0;
  57:main.c        **** uint8 RX_Counter2=0;
  58:main.c        **** 
  59:main.c        **** uint8 i2cbuf[4];
  60:main.c        **** uint8 iconoGrande[15]={75,76,77,78,79,27,45};
  61:main.c        **** uint8 iconoPeque[15]={80,81,82,83,84,37,16};
  62:main.c        **** char const texto[9][20]={"PROGRAMA 1","PROGRAMA 2","PROGRAMA 3","PROGRAMA 4","PROGRAMA 5","TEST","C
  63:main.c        **** float promedio[90];
  64:main.c        **** 
  65:main.c        **** uint8 Dato2,Dato3,Dato_Exitoso,Dato_Exitoso2,Menu,MenuAntt,MenuAnt,Menu2,MenuAntt2,z,TipoClave,Segm
  66:main.c        **** short Inicio,Inicio2,EstadoPaso,entro,GuardaEEPROM,rampa,Minutos,Horas,flagTemperatura,Test,x1,x10,
  67:main.c        **** uint8 Password[4];
  68:main.c        **** uint8 tiempo_esterilizacion,y,hEst,mEst,hEstp,mEstp,Segmento,conteo;
  69:main.c        **** uint16 tiempos,tiempos3,tiempoctrl,Tc,Tp,tiemporeset,TiempoControl,tiemporecta,tiemposetpoint,tinic
  70:main.c        **** short mensaje,Lectura2,flag_setpoint,flag_tiempocalentamiento,Lectura,flagup,flagdn,flagRampa,flag_
  71:main.c        **** short Finalizo,conteoPregunta,grafica,imprime;
  72:main.c        **** float X[2]={0.0,0.0};
  73:main.c        **** float Temperatura,Aumento,PendienteActual,DifPendiente,TempeInicial,Pendiente,TemperaturaIdeal,Pote
  74:main.c        **** float error,Potencia;
  75:main.c        **** uint16 TiempoActual,MinutosActual,HorasActual,Tiempo,TiempoRampa,tPregunta;
  76:main.c        **** uint8 dataReady = 0u;
  77:main.c        **** uint16 result;
  78:main.c        **** float Prom,V0,Temperature;
  79:main.c        **** 
  80:main.c        **** CY_ISR(ADC_SAR_ISR_LOC)
  81:main.c        **** {
  32              		.loc 1 81 0
  33              		.cfi_startproc
ARM GAS  C:\Users\JPELEC~1\AppData\Local\Temp\ccEetrge.s 			page 3


  34              		@ args = 0, pretend = 0, frame = 0
  35              		@ frame_needed = 0, uses_anonymous_args = 0
  36              		@ link register save eliminated.
  82:main.c        ****         result = CY_GET_REG16(ADC_SAR_SAR_WRK_PTR);
  37              		.loc 1 82 0
  38 0000 034B     		ldr	r3, .L2
  39 0002 1A88     		ldrh	r2, [r3]
  40 0004 034B     		ldr	r3, .L2+4
  41 0006 1A80     		strh	r2, [r3]	@ movhi
  83:main.c        ****         dataReady = 1u;
  42              		.loc 1 83 0
  43 0008 0122     		movs	r2, #1
  44 000a 034B     		ldr	r3, .L2+8
  45 000c 1A70     		strb	r2, [r3]
  46 000e 7047     		bx	lr
  47              	.L3:
  48              		.align	2
  49              	.L2:
  50 0010 A05B0040 		.word	1073765280
  51 0014 00000000 		.word	result
  52 0018 00000000 		.word	.LANCHOR0
  53              		.cfi_endproc
  54              	.LFE64:
  55              		.size	ADC_SAR_ISR_LOC, .-ADC_SAR_ISR_LOC
  56              		.section	.text.lee,"ax",%progbits
  57              		.align	2
  58              		.global	lee
  59              		.thumb
  60              		.thumb_func
  61              		.type	lee, %function
  62              	lee:
  63              	.LFB78:
  84:main.c        **** }
  85:main.c        **** 
  86:main.c        **** void ActualizaRecta(){
  87:main.c        ****    X[y]=Temperatura;
  88:main.c        ****    y++;
  89:main.c        ****    if(y>=2){
  90:main.c        ****       y=0;
  91:main.c        ****       Aumento=X[1]-X[0];
  92:main.c        ****       HorasActual=hEst;
  93:main.c        ****       MinutosActual=mEst;
  94:main.c        ****       TiempoActual=Tiempo-((HorasActual*3600)+(MinutosActual*60)+tinicio);
  95:main.c        ****       PendienteActual=((Setpoint-Temperatura)/TiempoActual);
  96:main.c        ****       DifPendiente=(PendienteActual*20)-Aumento;
  97:main.c        ****       DifPendiente=DifPendiente*5;
  98:main.c        ****    }
  99:main.c        **** }
 100:main.c        **** 
 101:main.c        **** void Controla(){
 102:main.c        **** //-------------------------------Control de Calentamiento------------------------------------------
 103:main.c        ****    float tmp=0.0;
 104:main.c        ****       if(tiemporecta>=10){
 105:main.c        ****          ActualizaRecta();
 106:main.c        ****          tiemporecta=0;
 107:main.c        ****       }
 108:main.c        ****     
ARM GAS  C:\Users\JPELEC~1\AppData\Local\Temp\ccEetrge.s 			page 4


 109:main.c        ****       if(Segmento==0){
 110:main.c        ****          if(flag_calcula==0){
 111:main.c        ****             Tiempo=(Programas[Programa-1].rampas[0].Horas*3600)+(Programas[Programa-1].rampas[0].Mi
 112:main.c        ****             Setpoint=Programas[Programa-1].rampas[0].Temperatura;
 113:main.c        ****             Pendiente=(((float)Setpoint-TempeInicial)/(float)Tiempo);
 114:main.c        ****             hEstp=Programas[Programa-1].rampas[0].Horas;
 115:main.c        ****             mEstp=Programas[Programa-1].rampas[0].Minutos;
 116:main.c        ****             flag_calcula=1;
 117:main.c        ****             Ganancia=GananciaIn*(Setpoint/100);
 118:main.c        ****          }
 119:main.c        ****       }else{
 120:main.c        ****          if(flag_calcula==0){
 121:main.c        ****             Tiempo=(Programas[Programa-1].rampas[Segmento].Horas*3600)+(Programas[Programa-1].rampa
 122:main.c        ****             Setpoint=Programas[Programa-1].rampas[Segmento].Temperatura;
 123:main.c        ****             Pendiente=(((float)Programas[Programa-1].rampas[Segmento].Temperatura-(float)Programas[
 124:main.c        ****             hEstp=Programas[Programa-1].rampas[Segmento].Horas;
 125:main.c        ****             mEstp=Programas[Programa-1].rampas[Segmento].Minutos;
 126:main.c        ****             flag_calcula=1;
 127:main.c        ****             Ganancia=GananciaIn*(Setpoint/100);
 128:main.c        ****          }
 129:main.c        ****       }
 130:main.c        ****    
 131:main.c        ****   
 132:main.c        ****    if(Pendiente!=0){// Si Esta realizando una Rampa debe realizar el control de acuerdo a la pendie
 133:main.c        ****       //PendienteActual=((Setpoint-Temperatura)/TiempoActual);
 134:main.c        ****       //PendienteMinutos=PendienteActual*60;
 135:main.c        ****       //PotenciaEntregada=((PendienteMinutos+DifPendiente)*100)/penMufla;
 136:main.c        ****       TiempoRampa=((hEst*3600)+(mEst*60)+tinicio);
 137:main.c        ****       if(Segmento==0){
 138:main.c        ****          TemperaturaIdeal=(Pendiente*TiempoRampa)+TempeInicial;
 139:main.c        ****       }else{
 140:main.c        ****          TemperaturaIdeal=(Pendiente*TiempoRampa)+Programas[Programa-1].rampas[Segmento-1].Temperat
 141:main.c        ****       }
 142:main.c        ****       PotenciaEntregada=((TemperaturaIdeal-Temperatura)*100)/penMufla;
 143:main.c        **** // Pendiente determinar si el comportamiento de la mufla es lineal 10°C/min o si tiene un comporta
 144:main.c        ****       
 145:main.c        ****       if(Temperatura<450 && Temperatura>=200)
 146:main.c        ****          penMufla=penInicial*0.9;
 147:main.c        ****          
 148:main.c        ****       if(Temperatura<600 && Temperatura>=450)
 149:main.c        ****          penMufla=penInicial*0.8;
 150:main.c        ****          
 151:main.c        ****       if(Temperatura<900 && Temperatura>=600)
 152:main.c        ****          penMufla=penInicial*0.7;  
 153:main.c        ****          
 154:main.c        ****       if(Temperatura<=1200 && Temperatura>=900)
 155:main.c        ****          penMufla=penInicial*0.6;   
 156:main.c        ****       
 157:main.c        ****       if(PotenciaEntregada>100.0){
 158:main.c        ****          PotenciaEntregada=100.0;
 159:main.c        ****       }
 160:main.c        ****       
 161:main.c        ****       if(PotenciaEntregada<0){
 162:main.c        ****          PotenciaEntregada=0;
 163:main.c        ****       }
 164:main.c        ****       
 165:main.c        ****       Tpulso=(PotenciaEntregada*Tciclo)/100;  
ARM GAS  C:\Users\JPELEC~1\AppData\Local\Temp\ccEetrge.s 			page 5


 166:main.c        ****    }else{
 167:main.c        ****                
 168:main.c        ****       error=desvio+Setpoint-Temperatura;      // Cálculo del error ******
 169:main.c        ****       
 170:main.c        ****       if(error>3.0 && Aumento<1){
 171:main.c        ****          if(Potencia<90.0){
 172:main.c        ****             if(TiempoControl>=Derivativo){
 173:main.c        ****                TiempoControl=0;
 174:main.c        ****                if(Aumento<-2){
 175:main.c        ****                   Ganancia+=Integral+1;
 176:main.c        ****                }else{
 177:main.c        ****                   if(Aumento<-1){
 178:main.c        ****                      Ganancia+=Integral;
 179:main.c        ****                   }else{
 180:main.c        ****                      Ganancia+=Integral-0.5;
 181:main.c        ****                   }
 182:main.c        ****                }
 183:main.c        ****             }
 184:main.c        ****          }
 185:main.c        ****       }
 186:main.c        ****       
 187:main.c        ****       if(Ganancia<0.5){
 188:main.c        ****          Ganancia=0.5;
 189:main.c        ****       }
 190:main.c        ****       
 191:main.c        ****       
 192:main.c        ****       if(error<0.0)     // Anti Wind_DOWN    
 193:main.c        ****          error=0.0;
 194:main.c        ****    
 195:main.c        ****       tmp=error*Ganancia;  // Control Proporcional.
 196:main.c        ****             
 197:main.c        ****       if(tmp>Setpoint)   // Anti Wind-UP      
 198:main.c        ****          tmp=Setpoint;
 199:main.c        ****                   
 200:main.c        ****       if(tmp<0.0)     // Anti Wind_DOWN    
 201:main.c        ****          tmp=0.0;
 202:main.c        ****       
 203:main.c        ****       // Tpulso(t)= Tciclo*(y(t)-ymin)/(ymax - ymin); calculo de ciclo util para control de resiste
 204:main.c        ****       // Tpulso es float, hay que pasar ese ciclo a una salida de un puerto usando el TMR1.
 205:main.c        ****       Tpulso=(tmp/Setpoint)*Tciclo; 
 206:main.c        ****       
 207:main.c        ****    }
 208:main.c        ****    Tp=(Tpulso/0.002);
 209:main.c        ****    Tc=(Tciclo/0.002);
 210:main.c        ****    Control=1;     
 211:main.c        **** //-------------------------------------------------------------------------------------------------
 212:main.c        ****   
 213:main.c        **** }
 214:main.c        **** 
 215:main.c        **** void CuentaTiempo(){
 216:main.c        ****       if(tinicio>=60){
 217:main.c        ****          tinicio=0;
 218:main.c        ****          mEst+=1.0;
 219:main.c        ****          if(mEst>59){
 220:main.c        ****             mEst=0;
 221:main.c        ****             hEst+=1.0;
 222:main.c        ****          }
ARM GAS  C:\Users\JPELEC~1\AppData\Local\Temp\ccEetrge.s 			page 6


 223:main.c        ****       }
 224:main.c        **** }
 225:main.c        **** 
 226:main.c        **** void iniciaConteo(){
 227:main.c        ****    if(Pendiente!=0){
 228:main.c        ****         if(flagRampa)
 229:main.c        ****             tiempo_esterilizacion=1;
 230:main.c        ****         else
 231:main.c        ****             tiempo_esterilizacion=0;
 232:main.c        ****    }else if(Pendiente==0){
 233:main.c        ****       if(flagTemperatura && flagRampa)
 234:main.c        ****          tiempo_esterilizacion=1;
 235:main.c        ****       else
 236:main.c        ****          tiempo_esterilizacion=0;
 237:main.c        ****    }
 238:main.c        **** }
 239:main.c        **** 
 240:main.c        **** void escribeDisplay1(char Buffer[30]){
 241:main.c        ****     UART_1_PutString(Buffer);
 242:main.c        ****     CyDelayUs(10);
 243:main.c        ****     UART_1_PutChar(0xFF);
 244:main.c        ****     CyDelayUs(10);
 245:main.c        ****     UART_1_PutChar(0xFF);
 246:main.c        ****     CyDelayUs(10);
 247:main.c        ****     UART_1_PutChar(0xFF);
 248:main.c        ****     CyDelayUs(10);
 249:main.c        **** }
 250:main.c        **** 
 251:main.c        **** void escribeDisplay2(char Buffer[30]){
 252:main.c        ****     UART_2_PutString(Buffer);
 253:main.c        ****     CyDelayUs(10);
 254:main.c        ****     UART_2_PutChar(0xFF);
 255:main.c        ****     CyDelayUs(10);
 256:main.c        ****     UART_2_PutChar(0xFF);
 257:main.c        ****     CyDelayUs(10);
 258:main.c        ****     UART_2_PutChar(0xFF);
 259:main.c        ****     CyDelayUs(10);
 260:main.c        **** }
 261:main.c        **** 
 262:main.c        **** void dibujaGrafico(){
 263:main.c        ****              
 264:main.c        ****                 //Segmento 1
 265:main.c        ****                 pendiente=(float)(Programas[Programa-1].rampas[0].Temperatura-Temperatura)/ANCHO;
 266:main.c        ****                 b=Temperatura;
 267:main.c        ****                 
 268:main.c        ****                 for(n=0;n<ANCHO;n++){
 269:main.c        ****                     valor=(pendiente*n)+b;
 270:main.c        ****                     sprintf(displayStr,"add 1,0,%u",(uint8)(valor*DIVISION));
 271:main.c        ****                     escribeDisplay1(displayStr);  
 272:main.c        ****                     CyDelayUs(1);
 273:main.c        ****                 }  
 274:main.c        ****                                         
 275:main.c        ****                 //Segmento 2
 276:main.c        ****                 if(Programas[Programa-1].rampas[1].Horas!=0 || Programas[Programa-1].rampas[1].Minu
 277:main.c        ****                     pendiente=(float)(Programas[Programa-1].rampas[1].Temperatura-Programas[Program
 278:main.c        ****                     b=Programas[Programa-1].rampas[0].Temperatura;
 279:main.c        ****                 }else{
ARM GAS  C:\Users\JPELEC~1\AppData\Local\Temp\ccEetrge.s 			page 7


 280:main.c        ****                     pendiente=0;
 281:main.c        ****                     b=0;
 282:main.c        ****                 }
 283:main.c        ****                 for(n=0;n<ANCHO;n++){
 284:main.c        ****                     valor=(pendiente*n)+b;
 285:main.c        ****                     sprintf(displayStr,"add 1,0,%u",(uint8)(valor*DIVISION));
 286:main.c        ****                     escribeDisplay1(displayStr);  
 287:main.c        ****                     CyDelayUs(1);
 288:main.c        ****                 }
 289:main.c        **** 
 290:main.c        ****                 //Segmento 3
 291:main.c        ****                 if(Programas[Programa-1].rampas[2].Horas!=0 || Programas[Programa-1].rampas[2].Minu
 292:main.c        ****                     pendiente=(float)(Programas[Programa-1].rampas[2].Temperatura-Programas[Program
 293:main.c        ****                     b=Programas[Programa-1].rampas[1].Temperatura;
 294:main.c        ****                 }else{
 295:main.c        ****                     pendiente=0;
 296:main.c        ****                     b=0;
 297:main.c        ****                 }  
 298:main.c        ****                   
 299:main.c        ****                 for(n=0;n<ANCHO;n++){
 300:main.c        ****                     valor=(pendiente*n)+b;
 301:main.c        ****                     sprintf(displayStr,"add 1,0,%u",(uint8)(valor*DIVISION));
 302:main.c        ****                     escribeDisplay1(displayStr);  
 303:main.c        ****                     CyDelayUs(1);
 304:main.c        ****                 }
 305:main.c        ****             
 306:main.c        ****                 //Segmento 4
 307:main.c        ****                 if(Programas[Programa-1].rampas[3].Horas!=0 || Programas[Programa-1].rampas[3].Minu
 308:main.c        ****                     pendiente=(float)(Programas[Programa-1].rampas[3].Temperatura-Programas[Program
 309:main.c        ****                     b=Programas[Programa-1].rampas[2].Temperatura;
 310:main.c        ****                 }else{
 311:main.c        ****                     pendiente=0;
 312:main.c        ****                     b=0;
 313:main.c        ****                 } 
 314:main.c        ****                     
 315:main.c        ****                 for(n=0;n<ANCHO;n++){
 316:main.c        ****                     valor=(pendiente*n)+b;
 317:main.c        ****                     sprintf(displayStr,"add 1,0,%u",(uint8)(valor*DIVISION));
 318:main.c        ****                     escribeDisplay1(displayStr);  
 319:main.c        ****                     CyDelayUs(1);
 320:main.c        ****                 }
 321:main.c        ****              
 322:main.c        ****             
 323:main.c        ****                 //Segmento 5
 324:main.c        ****                 if(Programas[Programa-1].rampas[4].Horas!=0 || Programas[Programa-1].rampas[4].Minu
 325:main.c        ****                     pendiente=(float)(Programas[Programa-1].rampas[4].Temperatura-Programas[Program
 326:main.c        ****                     b=Programas[Programa-1].rampas[3].Temperatura;
 327:main.c        ****                 }else{
 328:main.c        ****                     pendiente=0;
 329:main.c        ****                     b=0;
 330:main.c        ****                 }   
 331:main.c        ****                    
 332:main.c        ****                 for(n=0;n<ANCHO;n++){
 333:main.c        ****                     valor=(pendiente*n)+b;
 334:main.c        ****                     sprintf(displayStr,"add 1,0,%u",(uint8)(valor*DIVISION));
 335:main.c        ****                     escribeDisplay1(displayStr);  
 336:main.c        ****                     CyDelayUs(1);
ARM GAS  C:\Users\JPELEC~1\AppData\Local\Temp\ccEetrge.s 			page 8


 337:main.c        ****                 }
 338:main.c        ****              
 339:main.c        ****              
 340:main.c        ****             
 341:main.c        ****                 //Segmento 6
 342:main.c        ****                 if(Programas[Programa-1].rampas[5].Horas!=0 || Programas[Programa-1].rampas[5].Minu
 343:main.c        ****                     pendiente=(float)(Programas[Programa-1].rampas[5].Temperatura-Programas[Program
 344:main.c        ****                     b=Programas[Programa-1].rampas[4].Temperatura;
 345:main.c        ****                 }else{
 346:main.c        ****                     pendiente=0;
 347:main.c        ****                     b=0;
 348:main.c        ****                 }  
 349:main.c        ****                 for(n=0;n<ANCHO;n++){
 350:main.c        ****                     valor=(pendiente*n)+b;
 351:main.c        ****                     sprintf(displayStr,"add 1,0,%u",(uint8)(valor*DIVISION));
 352:main.c        ****                     escribeDisplay1(displayStr);  
 353:main.c        ****                     CyDelayUs(1);
 354:main.c        ****                 }
 355:main.c        ****             
 356:main.c        ****                 //Segmento 7
 357:main.c        ****                 if(Programas[Programa-1].rampas[6].Horas!=0 || Programas[Programa-1].rampas[6].Minu
 358:main.c        ****                     pendiente=(float)(Programas[Programa-1].rampas[6].Temperatura-Programas[Program
 359:main.c        ****                     b=Programas[Programa-1].rampas[5].Temperatura;
 360:main.c        ****                 }else{
 361:main.c        ****                     pendiente=0;
 362:main.c        ****                     b=0;
 363:main.c        ****                 }   
 364:main.c        ****                 for(n=0;n<ANCHO;n++){
 365:main.c        ****                     valor=(pendiente*n)+b;
 366:main.c        ****                     sprintf(displayStr,"add 1,0,%u",(uint8)(valor*DIVISION));
 367:main.c        ****                     escribeDisplay1(displayStr);  
 368:main.c        ****                     CyDelayUs(1);
 369:main.c        ****                 }
 370:main.c        ****             
 371:main.c        ****                 //Segmento 8
 372:main.c        ****                 if(Programas[Programa-1].rampas[7].Horas!=0 || Programas[Programa-1].rampas[7].Minu
 373:main.c        ****                     pendiente=(float)(Programas[Programa-1].rampas[7].Temperatura-Programas[Program
 374:main.c        ****                     b=Programas[Programa-1].rampas[6].Temperatura;
 375:main.c        ****                 }else{
 376:main.c        ****                     pendiente=0;
 377:main.c        ****                     b=0;
 378:main.c        ****                 }    
 379:main.c        ****                 for(n=0;n<ANCHO;n++){
 380:main.c        ****                     valor=(pendiente*n)+b;
 381:main.c        ****                     sprintf(displayStr,"add 1,0,%u",(uint8)(valor*DIVISION));
 382:main.c        ****                     escribeDisplay1(displayStr);  
 383:main.c        ****                     CyDelayUs(1);
 384:main.c        ****                 }
 385:main.c        ****             
 386:main.c        ****                 //Segmento 9
 387:main.c        ****                 if(Programas[Programa-1].rampas[8].Horas!=0 || Programas[Programa-1].rampas[8].Minu
 388:main.c        ****                     pendiente=(float)(Programas[Programa-1].rampas[8].Temperatura-Programas[Program
 389:main.c        ****                     b=Programas[Programa-1].rampas[7].Temperatura;
 390:main.c        ****                 }else{
 391:main.c        ****                     pendiente=0;
 392:main.c        ****                     b=0;
 393:main.c        ****                 }   
ARM GAS  C:\Users\JPELEC~1\AppData\Local\Temp\ccEetrge.s 			page 9


 394:main.c        ****                 for(n=0;n<ANCHO;n++){
 395:main.c        ****                     valor=(pendiente*n)+b;
 396:main.c        ****                     sprintf(displayStr,"add 1,0,%u",(uint8)(valor*DIVISION));
 397:main.c        ****                     escribeDisplay1(displayStr);  
 398:main.c        ****                     CyDelayUs(1);
 399:main.c        ****                 }
 400:main.c        ****             
 401:main.c        ****                 //Segmento 10
 402:main.c        ****                 if(Programas[Programa-1].rampas[9].Horas!=0 || Programas[Programa-1].rampas[9].Minu
 403:main.c        ****                     pendiente=(float)(Programas[Programa-1].rampas[9].Temperatura-Programas[Program
 404:main.c        ****                     b=Programas[Programa-1].rampas[8].Temperatura;
 405:main.c        ****                 }else{
 406:main.c        ****                     pendiente=0;
 407:main.c        ****                     b=0;
 408:main.c        ****                 }
 409:main.c        ****                 
 410:main.c        ****                 for(n=0;n<ANCHO;n++){
 411:main.c        ****                     valor=(pendiente*n)+b;
 412:main.c        ****                     sprintf(displayStr,"add 1,0,%u",(uint8)(valor*DIVISION));
 413:main.c        ****                     escribeDisplay1(displayStr);  
 414:main.c        ****                     CyDelayUs(1);
 415:main.c        ****                 }                
 416:main.c        **** }
 417:main.c        **** 
 418:main.c        **** void LeeDisplay(void){    
 419:main.c        ****     if(Dato_Exitoso==5){
 420:main.c        ****          Rx_Buffer[0]=Rx_Buffer2[0];
 421:main.c        ****          Rx_Buffer[1]=Rx_Buffer2[1];
 422:main.c        ****          Rx_Buffer[2]=Rx_Buffer2[2];
 423:main.c        ****          Rx_Buffer[3]=Rx_Buffer2[3];
 424:main.c        ****          Rx_Buffer[4]=Rx_Buffer2[4];
 425:main.c        ****          Rx_Buffer[5]=Rx_Buffer2[5];
 426:main.c        ****          Rx_Buffer[6]=Rx_Buffer2[6];
 427:main.c        ****          Rx_Buffer[7]=Rx_Buffer2[7];
 428:main.c        ****          Rx_Buffer[8]=Rx_Buffer2[8];
 429:main.c        ****          Rx_Buffer[9]=Rx_Buffer2[9];
 430:main.c        ****          
 431:main.c        ****       if(Rx_Buffer[3]==0x01){// Pregunta por la pagina en la que esta el display,01 es Contraseña 
 432:main.c        ****          Menu=0;
 433:main.c        ****          if(MenuAntt!=Menu)
 434:main.c        ****             MenuAntt=Menu;
 435:main.c        ****       }else if(Rx_Buffer[3]==0x02){//02 es Menu Principal con PantallaPriincipal=0, y con PantallaP
 436:main.c        ****          Menu=1;
 437:main.c        ****          if(MenuAntt!=Menu)
 438:main.c        ****             MenuAntt=Menu;
 439:main.c        ****       }else if(Rx_Buffer[3]==0x04){//03 es Tiempo Esterilizacion
 440:main.c        ****          Menu=2;
 441:main.c        ****          if(MenuAntt!=Menu)
 442:main.c        ****             MenuAntt=Menu;
 443:main.c        ****       }else if(Rx_Buffer[3]==0x05){//05 es Temperatura
 444:main.c        ****          Menu=3;
 445:main.c        ****          if(MenuAntt!=Menu)
 446:main.c        ****             MenuAntt=Menu;
 447:main.c        ****       }else if(Rx_Buffer[3]==0x06){//06 es Nivel
 448:main.c        ****          Menu=5;
 449:main.c        ****          if(MenuAntt!=Menu)
 450:main.c        ****             MenuAntt=Menu;
ARM GAS  C:\Users\JPELEC~1\AppData\Local\Temp\ccEetrge.s 			page 10


 451:main.c        ****       }else if(Rx_Buffer[3]==0x07){//07 es Test de Componentes
 452:main.c        ****          Menu=6;
 453:main.c        ****          if(MenuAntt!=Menu)
 454:main.c        ****             MenuAntt=Menu;
 455:main.c        ****       }else if(Rx_Buffer[3]==0x08){//08 es Fecha y hora
 456:main.c        ****          Menu=7;
 457:main.c        ****          if(MenuAntt!=Menu)
 458:main.c        ****             MenuAntt=Menu;
 459:main.c        ****       }else if(Rx_Buffer[3]==0x09){//09 es Rampas
 460:main.c        ****          Menu=8;
 461:main.c        ****          if(MenuAntt!=Menu)
 462:main.c        ****             MenuAntt=Menu;
 463:main.c        ****       }else if(Rx_Buffer[3]==0x0a){//0a es Pulsos de Vacio
 464:main.c        ****          Menu=9;
 465:main.c        ****          if(MenuAntt!=Menu)
 466:main.c        ****             MenuAntt=Menu;
 467:main.c        ****       }else if(Rx_Buffer[3]==0x0f){//0f es Recibe caracteres de contraseña desde display
 468:main.c        ****          
 469:main.c        ****       }else if(Rx_Buffer[3]==0x1a){//1a es Menu de Funcionamiento
 470:main.c        ****          Menu=20;
 471:main.c        ****          if(MenuAntt!=Menu)
 472:main.c        ****             MenuAntt=Menu;
 473:main.c        ****       }else if(Rx_Buffer[3]==0x1b){//1b es Menu de clave correcta
 474:main.c        ****          Menu=15;
 475:main.c        ****          if(MenuAntt!=Menu)
 476:main.c        ****             MenuAntt=Menu;
 477:main.c        ****       }else if(Rx_Buffer[3]==0x1c){//1c es Menu de clave incorrecta
 478:main.c        ****          Menu=16;
 479:main.c        ****          if(MenuAntt!=Menu)
 480:main.c        ****             MenuAntt=Menu;
 481:main.c        ****       }else if(Rx_Buffer[3]==0x1d){//1d es Menu de Eliminado Programa
 482:main.c        ****          Menu=17;
 483:main.c        ****          if(MenuAntt!=Menu)
 484:main.c        ****             MenuAntt=Menu;
 485:main.c        ****       }else if(Rx_Buffer[3]==0x1e){//1d es Menu de Pregunta
 486:main.c        ****          Menu=18;
 487:main.c        ****          if(MenuAntt!=Menu)
 488:main.c        ****             MenuAntt=Menu;
 489:main.c        ****       }else if(Rx_Buffer[3]==0x2c){//2c es Menu de Configuracion de Parametros
 490:main.c        ****          Menu=100;
 491:main.c        ****          if(MenuAntt!=Menu)
 492:main.c        ****             MenuAntt=Menu;
 493:main.c        ****       }else if(Rx_Buffer[3]==0xcc){//cc es Menu de Bienvenida
 494:main.c        ****          Menu=120;
 495:main.c        ****          //if(MenuAntt!=120)
 496:main.c        ****             //reset_cpu();
 497:main.c        ****       }
 498:main.c        ****    }else{
 499:main.c        ****       for(z=0;z<RX_BUFFER_SIZE;z++){
 500:main.c        ****             //Rx_Buffer[z]=0;
 501:main.c        ****             //Rx_Buffer2[z]=0;
 502:main.c        ****          }
 503:main.c        ****    }
 504:main.c        **** 
 505:main.c        ****        if(Dato_Exitoso2==5){
 506:main.c        ****          Rx_Buffer3[0]=Rx_Buffer4[0];
 507:main.c        ****          Rx_Buffer3[1]=Rx_Buffer4[1];
ARM GAS  C:\Users\JPELEC~1\AppData\Local\Temp\ccEetrge.s 			page 11


 508:main.c        ****          Rx_Buffer3[2]=Rx_Buffer4[2];
 509:main.c        ****          Rx_Buffer3[3]=Rx_Buffer4[3];
 510:main.c        ****          Rx_Buffer3[4]=Rx_Buffer4[4];
 511:main.c        ****          Rx_Buffer3[5]=Rx_Buffer4[5];
 512:main.c        ****          Rx_Buffer3[6]=Rx_Buffer4[6];
 513:main.c        ****          Rx_Buffer3[7]=Rx_Buffer4[7];
 514:main.c        ****          Rx_Buffer3[8]=Rx_Buffer4[8];
 515:main.c        ****          Rx_Buffer3[9]=Rx_Buffer4[9];
 516:main.c        ****          
 517:main.c        ****       if(Rx_Buffer3[3]==0x01){// Pregunta por la pagina en la que esta el display,01 es Contraseña
 518:main.c        ****          Menu2=0;
 519:main.c        ****          if(MenuAntt2!=Menu2)
 520:main.c        ****             MenuAntt2=Menu2;
 521:main.c        ****       }else if(Rx_Buffer3[3]==0x02){//02 es Menu Principal con PantallaPriincipal=0, y con Pantalla
 522:main.c        ****          Menu2=1;
 523:main.c        ****          if(MenuAntt2!=Menu2)
 524:main.c        ****             MenuAntt2=Menu2;
 525:main.c        ****       }else if(Rx_Buffer3[3]==0x04){//03 es Tiempo Esterilizacion
 526:main.c        ****          Menu2=2;
 527:main.c        ****          if(MenuAntt2!=Menu2)
 528:main.c        ****             MenuAntt2=Menu2;
 529:main.c        ****       }else if(Rx_Buffer3[3]==0x05){//05 es Temperatura
 530:main.c        ****          Menu2=3;
 531:main.c        ****          if(MenuAntt2!=Menu2)
 532:main.c        ****             MenuAntt2=Menu2;
 533:main.c        ****       }else if(Rx_Buffer3[3]==0x06){//06 es Nivel
 534:main.c        ****          Menu2=5;
 535:main.c        ****          if(MenuAntt2!=Menu2)
 536:main.c        ****             MenuAntt2=Menu2;
 537:main.c        ****       }else if(Rx_Buffer3[3]==0x07){//07 es Test de Componentes
 538:main.c        ****          Menu2=6;
 539:main.c        ****          if(MenuAntt2!=Menu2)
 540:main.c        ****             MenuAntt2=Menu2;
 541:main.c        ****       }else if(Rx_Buffer3[3]==0x08){//08 es Fecha y hora
 542:main.c        ****          Menu2=7;
 543:main.c        ****          if(MenuAntt2!=Menu2)
 544:main.c        ****             MenuAntt2=Menu2;
 545:main.c        ****       }else if(Rx_Buffer3[3]==0x09){//09 es Rampas
 546:main.c        ****          Menu2=8;
 547:main.c        ****          if(MenuAntt2!=Menu2)
 548:main.c        ****             MenuAntt2=Menu2;
 549:main.c        ****       }else if(Rx_Buffer3[3]==0x0a){//0a es Grafica
 550:main.c        ****          Menu2=9;
 551:main.c        ****          if(MenuAntt2!=Menu2)
 552:main.c        ****             MenuAntt2=Menu2;
 553:main.c        ****       }else if(Rx_Buffer3[3]==0x0f){//0f es Recibe caracteres de contraseña desde display
 554:main.c        ****          
 555:main.c        ****       }else if(Rx_Buffer3[3]==0x1a){//1a es Menu de Funcionamiento
 556:main.c        ****          Menu2=20;
 557:main.c        ****          if(MenuAntt2!=Menu2)
 558:main.c        ****             MenuAntt2=Menu2;
 559:main.c        ****       }else if(Rx_Buffer3[3]==0x1b){//1b es Menu de clave correcta
 560:main.c        ****          Menu2=15;
 561:main.c        ****          if(MenuAntt2!=Menu2)
 562:main.c        ****             MenuAntt2=Menu2;
 563:main.c        ****       }else if(Rx_Buffer3[3]==0x1c){//1c es Menu de clave incorrecta
 564:main.c        ****          Menu2=16;
ARM GAS  C:\Users\JPELEC~1\AppData\Local\Temp\ccEetrge.s 			page 12


 565:main.c        ****          if(MenuAntt2!=Menu2)
 566:main.c        ****             MenuAntt2=Menu2;
 567:main.c        ****       }else if(Rx_Buffer3[3]==0x2c){//2c es Menu de Configuracion de Parametros
 568:main.c        ****          Menu2=100;
 569:main.c        ****          if(MenuAntt2!=Menu2)
 570:main.c        ****             MenuAntt2=Menu2;
 571:main.c        ****       }else if(Rx_Buffer3[3]==0xcc){//cc es Menu de Bienvenida
 572:main.c        ****          Menu2=120;
 573:main.c        ****          //if(MenuAntt!=120)
 574:main.c        ****             //reset_cpu();
 575:main.c        ****       }
 576:main.c        ****    }else{
 577:main.c        ****          for(z=0;z<RX_BUFFER_SIZE;z++){
 578:main.c        ****             //Rx_Buffer[z]=0;
 579:main.c        ****             //Rx_Buffer2[z]=0;
 580:main.c        ****          }
 581:main.c        ****    }
 582:main.c        **** }
 583:main.c        **** 
 584:main.c        **** void controlaRampa(){
 585:main.c        ****       if(Temperatura>=Setpoint-10.0 && Temperatura<=Setpoint+40){
 586:main.c        ****          if(Pendiente!=0){
 587:main.c        ****             escribeDisplay2("t1.txt=\"Controlando\"");
 588:main.c        ****             flagTemperatura=ON;            
 589:main.c        ****          }
 590:main.c        ****          
 591:main.c        ****          if(Pendiente==0){
 592:main.c        ****             escribeDisplay2("t1.txt=\"Meseta\"");
 593:main.c        ****             flagTemperatura=ON;
 594:main.c        ****          }
 595:main.c        ****          Controla();
 596:main.c        ****          flag_tiempocalentamiento=0;
 597:main.c        ****       }else{
 598:main.c        ****          if(Pendiente!=0){
 599:main.c        ****             if(Pendiente>0)
 600:main.c        ****                 escribeDisplay2("t1.txt=\"Rampa +\"");
 601:main.c        ****             if(Pendiente<0)
 602:main.c        ****                 escribeDisplay2("t1.txt=\"Rampa -\"");    
 603:main.c        ****             flagTemperatura=ON;            
 604:main.c        ****          }
 605:main.c        ****          if(Pendiente==0){
 606:main.c        ****             escribeDisplay2("t1.txt=\"Calentando\"");
 607:main.c        ****             flagTemperatura=OFF;            
 608:main.c        ****          }
 609:main.c        ****          Controla();
 610:main.c        ****       }
 611:main.c        **** }
 612:main.c        **** 
 613:main.c        **** float leeTermocupla(uint8 media){
 614:main.c        ****     Prom=0.0;
 615:main.c        ****     /* Measure cold junction temperature */
 616:main.c        **** 	coldJnTemp = MeasureColdJnSensorTemp();
 617:main.c        **** 	/* Convert cold junction temp to cold junction compensation voltage */
 618:main.c        **** 	tcColdJnuVolt = Thermocouple_1_GetVoltage(coldJnTemp);
 619:main.c        **** 	/* Read thermocouple hot junction voltage */
 620:main.c        **** 	//ADCMux_FastSelect(TC_HOT_JN_CHANNEL);
 621:main.c        **** 	ADC_SelectConfiguration(ADC_TC_Config,1);
ARM GAS  C:\Users\JPELEC~1\AppData\Local\Temp\ccEetrge.s 			page 13


 622:main.c        **** 	ADC_StartConvert();
 623:main.c        ****     /*Note in this example a blocking call is used, this can be replaced
 624:main.c        ****     with a polling method is required in your application*/
 625:main.c        **** 	ADC_IsEndConversion(ADC_WAIT_FOR_RESULT); 
 626:main.c        **** 	ADC_StopConvert();
 627:main.c        **** 	hotJnCount = ADC_GetResult32();
 628:main.c        **** 	/* Read ground reference voltage */
 629:main.c        **** 	offset = 0;//MeasureOffset();
 630:main.c        **** 	/* Correlated double sampling to remove ADC offset */
 631:main.c        **** 	hotJnCount -= offset;
 632:main.c        **** 	/* Filter signal */
 633:main.c        **** 	filHotJnCount = FilterSignal(hotJnCount);
 634:main.c        **** 	/* Find thermo-emf in microvolts */
 635:main.c        **** 	tcHotJnuVolt = ADC_CountsTo_uVolts(filHotJnCount);
 636:main.c        **** 	/* Perform Cold junction compensation */
 637:main.c        **** 	tcuVolt = tcColdJnuVolt + tcHotJnuVolt;
 638:main.c        **** 	/* Convert thermo-emf to temperature */
 639:main.c        **** 	tcTemp = Thermocouple_1_GetTemperature(tcuVolt);
 640:main.c        ****     V0=(float)(tcTemp/100)+(float)(tcTemp-((tcTemp/100)*100))/100;
 641:main.c        ****             
 642:main.c        ****     if(l>(media-1))
 643:main.c        ****         l=0;
 644:main.c        ****    //promedio[l]=Temperature;l++;
 645:main.c        ****     promedio[l]=V0;l++;
 646:main.c        ****          
 647:main.c        ****     for(h=0;h<media;h++){
 648:main.c        ****         Prom+=promedio[h];
 649:main.c        ****     } 
 650:main.c        ****     Prom=Prom/media;   
 651:main.c        ****    
 652:main.c        ****     Prom+=((float)Ajuste-(float)Ajusten);
 653:main.c        ****    
 654:main.c        ****     return Prom;
 655:main.c        ****     //return Temperature;
 656:main.c        **** }
 657:main.c        **** 
 658:main.c        **** CY_ISR(Reloj2){ 
 659:main.c        ****     //CapSense_DisplayState();
 660:main.c        ****     tiempos++;
 661:main.c        ****     tiempos3++;
 662:main.c        ****     tiempoctrl++;
 663:main.c        ****     
 664:main.c        ****     if(Control==1 && tcHotJnuVolt > BROKEN_TC_THRESHOLD){
 665:main.c        ****         if(tiempoctrl>=Tc) // Si el tiempo de control es mayor al tiempo de ciclo se reinicia tiemp
 666:main.c        ****             tiempoctrl=0;
 667:main.c        ****         // tiempoctrl incrementa una unidad cada 5ms, por eso se dividen los tiempos por 0.005.
 668:main.c        ****       
 669:main.c        ****         if(tiempoctrl<=Tp) // Si el tiempo es menor o igual al tiempo de control se enciende la res
 670:main.c        ****             SSR_Write(1);
 671:main.c        ****         else         
 672:main.c        ****             SSR_Write(0);
 673:main.c        ****     }else{
 674:main.c        ****         if(!Test)
 675:main.c        ****             SSR_Write(0);
 676:main.c        ****     }
 677:main.c        ****    
 678:main.c        ****     if(tiempos3>=200){
ARM GAS  C:\Users\JPELEC~1\AppData\Local\Temp\ccEetrge.s 			page 14


 679:main.c        ****         Lectura2=1;
 680:main.c        ****         if(flagup)
 681:main.c        ****             tiempoup++;
 682:main.c        ****         if(flagdn)
 683:main.c        ****             tiempodn++;   
 684:main.c        ****         tiempos3=0;
 685:main.c        ****     }
 686:main.c        ****     
 687:main.c        ****     if(tiempos>=500){  // Cuenta cada 2ms        
 688:main.c        ****         tiempos=0;Lectura=1;tiemporeset++;TiempoControl++;tiemporecta++;mensaje=!mensaje;
 689:main.c        ****    
 690:main.c        ****         if(conteoPregunta)tPregunta++;
 691:main.c        ****         
 692:main.c        ****         if(flag_setpoint==1)
 693:main.c        ****             tiemposetpoint++;
 694:main.c        ****       
 695:main.c        ****         if(tiempo_esterilizacion==1 || tiempo_esterilizacion==2){               
 696:main.c        ****             tinicio++;
 697:main.c        ****             tGrafica++;
 698:main.c        ****         }
 699:main.c        ****              
 700:main.c        ****         if(flag_tiempocalentamiento==1)
 701:main.c        ****             tiempocalentamiento++;
 702:main.c        ****     }     
 703:main.c        **** }
 704:main.c        **** 
 705:main.c        **** CY_ISR(inteRX){
 706:main.c        ****     Dato2=UART_2_GetByte();
 707:main.c        ****    if(Dato2==0x65){//Inicio Comunicacion
 708:main.c        ****       Inicio=1;
 709:main.c        ****       RX_Wr_Index =0;
 710:main.c        ****    }
 711:main.c        ****    if(Inicio==1){
 712:main.c        ****       Rx_Buffer2[RX_Wr_Index] = Dato2;
 713:main.c        ****       RX_Wr_Index++;
 714:main.c        ****    }
 715:main.c        ****    if(RX_Wr_Index >= RX_BUFFER_SIZE){
 716:main.c        ****       RX_Wr_Index =0;
 717:main.c        ****       Inicio=0;
 718:main.c        ****    }
 719:main.c        ****    if(RX_Wr_Index==0){
 720:main.c        ****       if(Rx_Buffer2[0]==0x65 && Rx_Buffer2[1]==0xff && Rx_Buffer2[2]==0xff && Rx_Buffer2[8]==0x00 &
 721:main.c        ****          Dato_Exitoso=5;
 722:main.c        ****       else
 723:main.c        ****          Dato_Exitoso=10;
 724:main.c        ****    }
 725:main.c        ****    //if(Menu==20)
 726:main.c        **** //     Buzzer_on;
 727:main.c        **** }
 728:main.c        **** 
 729:main.c        **** CY_ISR(inteRX1){
 730:main.c        ****     Dato3=UART_1_GetByte();
 731:main.c        ****    if(Dato3==0x65){//Inicio Comunicacion
 732:main.c        ****       Inicio2=1;
 733:main.c        ****       RX_Wr_Index2 =0;
 734:main.c        ****    }
 735:main.c        ****    if(Inicio2==1){
ARM GAS  C:\Users\JPELEC~1\AppData\Local\Temp\ccEetrge.s 			page 15


 736:main.c        ****       Rx_Buffer4[RX_Wr_Index2] = Dato3;
 737:main.c        ****       RX_Wr_Index2++;
 738:main.c        ****    }
 739:main.c        ****    if(RX_Wr_Index2 >= RX_BUFFER_SIZE){
 740:main.c        ****       RX_Wr_Index2 =0;
 741:main.c        ****       Inicio2=0;
 742:main.c        ****    }
 743:main.c        ****    if(RX_Wr_Index2==0){
 744:main.c        ****       if(Rx_Buffer4[0]==0x65 && Rx_Buffer4[1]==0xff && Rx_Buffer4[2]==0xff && Rx_Buffer4[8]==0x00 &
 745:main.c        ****          Dato_Exitoso2=5;
 746:main.c        ****       else
 747:main.c        ****          Dato_Exitoso2=10;
 748:main.c        ****    }
 749:main.c        **** }
 750:main.c        **** 
 751:main.c        **** CY_ISR(lee){
  64              		.loc 1 751 0
  65              		.cfi_startproc
  66              		@ args = 0, pretend = 0, frame = 0
  67              		@ frame_needed = 0, uses_anonymous_args = 0
  68              		@ link register save eliminated.
  69 0000 7047     		bx	lr
  70              		.cfi_endproc
  71              	.LFE78:
  72              		.size	lee, .-lee
  73 0002 00BF     		.section	.text.Reloj2,"ax",%progbits
  74              		.align	2
  75              		.global	Reloj2
  76              		.thumb
  77              		.thumb_func
  78              		.type	Reloj2, %function
  79              	Reloj2:
  80              	.LFB75:
 658:main.c        ****     //CapSense_DisplayState();
  81              		.loc 1 658 0
  82              		.cfi_startproc
  83              		@ args = 0, pretend = 0, frame = 0
  84              		@ frame_needed = 0, uses_anonymous_args = 0
 658:main.c        ****     //CapSense_DisplayState();
  85              		.loc 1 658 0
  86 0000 08B5     		push	{r3, lr}
  87              		.cfi_def_cfa_offset 8
  88              		.cfi_offset 3, -8
  89              		.cfi_offset 14, -4
 660:main.c        ****     tiempos3++;
  90              		.loc 1 660 0
  91 0002 4A4A     		ldr	r2, .L18
  92 0004 1388     		ldrh	r3, [r2]
  93 0006 0133     		adds	r3, r3, #1
  94 0008 1380     		strh	r3, [r2]	@ movhi
 661:main.c        ****     tiempoctrl++;
  95              		.loc 1 661 0
  96 000a 494A     		ldr	r2, .L18+4
  97 000c 1388     		ldrh	r3, [r2]
  98 000e 0133     		adds	r3, r3, #1
  99 0010 1380     		strh	r3, [r2]	@ movhi
 662:main.c        ****     
ARM GAS  C:\Users\JPELEC~1\AppData\Local\Temp\ccEetrge.s 			page 16


 100              		.loc 1 662 0
 101 0012 484A     		ldr	r2, .L18+8
 102 0014 1388     		ldrh	r3, [r2]
 103 0016 0133     		adds	r3, r3, #1
 104 0018 9BB2     		uxth	r3, r3
 105 001a 1380     		strh	r3, [r2]	@ movhi
 664:main.c        ****         if(tiempoctrl>=Tc) // Si el tiempo de control es mayor al tiempo de ciclo se reinicia tiemp
 106              		.loc 1 664 0
 107 001c 464A     		ldr	r2, .L18+12
 108 001e B2F90020 		ldrsh	r2, [r2]
 109 0022 012A     		cmp	r2, #1
 110 0024 19D1     		bne	.L6
 664:main.c        ****         if(tiempoctrl>=Tc) // Si el tiempo de control es mayor al tiempo de ciclo se reinicia tiemp
 111              		.loc 1 664 0 is_stmt 0 discriminator 1
 112 0026 454A     		ldr	r2, .L18+16
 113 0028 1168     		ldr	r1, [r2]
 114 002a 454A     		ldr	r2, .L18+20
 115 002c 9142     		cmp	r1, r2
 116 002e 14DB     		blt	.L6
 665:main.c        ****             tiempoctrl=0;
 117              		.loc 1 665 0 is_stmt 1
 118 0030 444A     		ldr	r2, .L18+24
 119 0032 1288     		ldrh	r2, [r2]
 120 0034 9342     		cmp	r3, r2
 121 0036 02D3     		bcc	.L7
 666:main.c        ****         // tiempoctrl incrementa una unidad cada 5ms, por eso se dividen los tiempos por 0.005.
 122              		.loc 1 666 0
 123 0038 0022     		movs	r2, #0
 124 003a 3E4B     		ldr	r3, .L18+8
 125 003c 1A80     		strh	r2, [r3]	@ movhi
 126              	.L7:
 669:main.c        ****             SSR_Write(1);
 127              		.loc 1 669 0
 128 003e 3D4B     		ldr	r3, .L18+8
 129 0040 1A88     		ldrh	r2, [r3]
 130 0042 414B     		ldr	r3, .L18+28
 131 0044 1B88     		ldrh	r3, [r3]
 132 0046 9A42     		cmp	r2, r3
 133 0048 03D8     		bhi	.L8
 670:main.c        ****         else         
 134              		.loc 1 670 0
 135 004a 0120     		movs	r0, #1
 136 004c FFF7FEFF 		bl	SSR_Write
 137              	.LVL0:
 138 0050 0AE0     		b	.L9
 139              	.L8:
 672:main.c        ****     }else{
 140              		.loc 1 672 0
 141 0052 0020     		movs	r0, #0
 142 0054 FFF7FEFF 		bl	SSR_Write
 143              	.LVL1:
 144 0058 06E0     		b	.L9
 145              	.L6:
 674:main.c        ****             SSR_Write(0);
 146              		.loc 1 674 0
 147 005a 3C4B     		ldr	r3, .L18+32
 148 005c B3F90030 		ldrsh	r3, [r3]
ARM GAS  C:\Users\JPELEC~1\AppData\Local\Temp\ccEetrge.s 			page 17


 149 0060 13B9     		cbnz	r3, .L9
 675:main.c        ****     }
 150              		.loc 1 675 0
 151 0062 0020     		movs	r0, #0
 152 0064 FFF7FEFF 		bl	SSR_Write
 153              	.LVL2:
 154              	.L9:
 678:main.c        ****         Lectura2=1;
 155              		.loc 1 678 0
 156 0068 314B     		ldr	r3, .L18+4
 157 006a 1B88     		ldrh	r3, [r3]
 158 006c C72B     		cmp	r3, #199
 159 006e 15D9     		bls	.L10
 679:main.c        ****         if(flagup)
 160              		.loc 1 679 0
 161 0070 0122     		movs	r2, #1
 162 0072 374B     		ldr	r3, .L18+36
 163 0074 1A80     		strh	r2, [r3]	@ movhi
 680:main.c        ****             tiempoup++;
 164              		.loc 1 680 0
 165 0076 374B     		ldr	r3, .L18+40
 166 0078 B3F90030 		ldrsh	r3, [r3]
 167 007c 1BB1     		cbz	r3, .L11
 681:main.c        ****         if(flagdn)
 168              		.loc 1 681 0
 169 007e 364A     		ldr	r2, .L18+44
 170 0080 1388     		ldrh	r3, [r2]
 171 0082 0133     		adds	r3, r3, #1
 172 0084 1380     		strh	r3, [r2]	@ movhi
 173              	.L11:
 682:main.c        ****             tiempodn++;   
 174              		.loc 1 682 0
 175 0086 354B     		ldr	r3, .L18+48
 176 0088 B3F90030 		ldrsh	r3, [r3]
 177 008c 1BB1     		cbz	r3, .L12
 683:main.c        ****         tiempos3=0;
 178              		.loc 1 683 0
 179 008e 344A     		ldr	r2, .L18+52
 180 0090 1388     		ldrh	r3, [r2]
 181 0092 0133     		adds	r3, r3, #1
 182 0094 1380     		strh	r3, [r2]	@ movhi
 183              	.L12:
 684:main.c        ****     }
 184              		.loc 1 684 0
 185 0096 0022     		movs	r2, #0
 186 0098 254B     		ldr	r3, .L18+4
 187 009a 1A80     		strh	r2, [r3]	@ movhi
 188              	.L10:
 687:main.c        ****         tiempos=0;Lectura=1;tiemporeset++;TiempoControl++;tiemporecta++;mensaje=!mensaje;
 189              		.loc 1 687 0
 190 009c 234B     		ldr	r3, .L18
 191 009e 1B88     		ldrh	r3, [r3]
 192 00a0 B3F5FA7F 		cmp	r3, #500
 193 00a4 40D3     		bcc	.L5
 688:main.c        ****    
 194              		.loc 1 688 0
 195 00a6 0022     		movs	r2, #0
ARM GAS  C:\Users\JPELEC~1\AppData\Local\Temp\ccEetrge.s 			page 18


 196 00a8 204B     		ldr	r3, .L18
 197 00aa 1A80     		strh	r2, [r3]	@ movhi
 198 00ac 0122     		movs	r2, #1
 199 00ae 2D4B     		ldr	r3, .L18+56
 200 00b0 1A80     		strh	r2, [r3]	@ movhi
 201 00b2 2D4A     		ldr	r2, .L18+60
 202 00b4 1388     		ldrh	r3, [r2]
 203 00b6 0133     		adds	r3, r3, #1
 204 00b8 1380     		strh	r3, [r2]	@ movhi
 205 00ba 2C4A     		ldr	r2, .L18+64
 206 00bc 1388     		ldrh	r3, [r2]
 207 00be 0133     		adds	r3, r3, #1
 208 00c0 1380     		strh	r3, [r2]	@ movhi
 209 00c2 2B4A     		ldr	r2, .L18+68
 210 00c4 1388     		ldrh	r3, [r2]
 211 00c6 0133     		adds	r3, r3, #1
 212 00c8 1380     		strh	r3, [r2]	@ movhi
 213 00ca 2A4A     		ldr	r2, .L18+72
 214 00cc B2F90030 		ldrsh	r3, [r2]
 215 00d0 B3FA83F3 		clz	r3, r3
 216 00d4 5B09     		lsrs	r3, r3, #5
 217 00d6 1380     		strh	r3, [r2]	@ movhi
 690:main.c        ****         
 218              		.loc 1 690 0
 219 00d8 274B     		ldr	r3, .L18+76
 220 00da B3F90030 		ldrsh	r3, [r3]
 221 00de 1BB1     		cbz	r3, .L14
 690:main.c        ****         
 222              		.loc 1 690 0 is_stmt 0 discriminator 1
 223 00e0 264A     		ldr	r2, .L18+80
 224 00e2 1388     		ldrh	r3, [r2]
 225 00e4 0133     		adds	r3, r3, #1
 226 00e6 1380     		strh	r3, [r2]	@ movhi
 227              	.L14:
 692:main.c        ****             tiemposetpoint++;
 228              		.loc 1 692 0 is_stmt 1
 229 00e8 254B     		ldr	r3, .L18+84
 230 00ea B3F90030 		ldrsh	r3, [r3]
 231 00ee 012B     		cmp	r3, #1
 232 00f0 03D1     		bne	.L15
 693:main.c        ****       
 233              		.loc 1 693 0
 234 00f2 244A     		ldr	r2, .L18+88
 235 00f4 1388     		ldrh	r3, [r2]
 236 00f6 0133     		adds	r3, r3, #1
 237 00f8 1380     		strh	r3, [r2]	@ movhi
 238              	.L15:
 695:main.c        ****             tinicio++;
 239              		.loc 1 695 0
 240 00fa 234B     		ldr	r3, .L18+92
 241 00fc 1B78     		ldrb	r3, [r3]	@ zero_extendqisi2
 242 00fe 013B     		subs	r3, r3, #1
 243 0100 DBB2     		uxtb	r3, r3
 244 0102 012B     		cmp	r3, #1
 245 0104 07D8     		bhi	.L16
 696:main.c        ****             tGrafica++;
 246              		.loc 1 696 0
ARM GAS  C:\Users\JPELEC~1\AppData\Local\Temp\ccEetrge.s 			page 19


 247 0106 214A     		ldr	r2, .L18+96
 248 0108 1388     		ldrh	r3, [r2]
 249 010a 0133     		adds	r3, r3, #1
 250 010c 1380     		strh	r3, [r2]	@ movhi
 697:main.c        ****         }
 251              		.loc 1 697 0
 252 010e 204A     		ldr	r2, .L18+100
 253 0110 1368     		ldr	r3, [r2]
 254 0112 0133     		adds	r3, r3, #1
 255 0114 1360     		str	r3, [r2]
 256              	.L16:
 700:main.c        ****             tiempocalentamiento++;
 257              		.loc 1 700 0
 258 0116 1F4B     		ldr	r3, .L18+104
 259 0118 B3F90030 		ldrsh	r3, [r3]
 260 011c 012B     		cmp	r3, #1
 261 011e 03D1     		bne	.L5
 701:main.c        ****     }     
 262              		.loc 1 701 0
 263 0120 1D4A     		ldr	r2, .L18+108
 264 0122 1388     		ldrh	r3, [r2]
 265 0124 0133     		adds	r3, r3, #1
 266 0126 1380     		strh	r3, [r2]	@ movhi
 267              	.L5:
 268 0128 08BD     		pop	{r3, pc}
 269              	.L19:
 270 012a 00BF     		.align	2
 271              	.L18:
 272 012c 00000000 		.word	tiempos
 273 0130 00000000 		.word	tiempos3
 274 0134 00000000 		.word	tiempoctrl
 275 0138 00000000 		.word	Control
 276 013c 00000000 		.word	tcHotJnuVolt
 277 0140 F1D8FFFF 		.word	-9999
 278 0144 00000000 		.word	Tc
 279 0148 00000000 		.word	Tp
 280 014c 00000000 		.word	Test
 281 0150 00000000 		.word	Lectura2
 282 0154 00000000 		.word	flagup
 283 0158 00000000 		.word	tiempoup
 284 015c 00000000 		.word	flagdn
 285 0160 00000000 		.word	tiempodn
 286 0164 00000000 		.word	Lectura
 287 0168 00000000 		.word	tiemporeset
 288 016c 00000000 		.word	TiempoControl
 289 0170 00000000 		.word	tiemporecta
 290 0174 00000000 		.word	mensaje
 291 0178 00000000 		.word	conteoPregunta
 292 017c 00000000 		.word	tPregunta
 293 0180 00000000 		.word	flag_setpoint
 294 0184 00000000 		.word	tiemposetpoint
 295 0188 00000000 		.word	tiempo_esterilizacion
 296 018c 00000000 		.word	tinicio
 297 0190 00000000 		.word	tGrafica
 298 0194 00000000 		.word	flag_tiempocalentamiento
 299 0198 00000000 		.word	tiempocalentamiento
 300              		.cfi_endproc
ARM GAS  C:\Users\JPELEC~1\AppData\Local\Temp\ccEetrge.s 			page 20


 301              	.LFE75:
 302              		.size	Reloj2, .-Reloj2
 303              		.section	.text.inteRX,"ax",%progbits
 304              		.align	2
 305              		.global	inteRX
 306              		.thumb
 307              		.thumb_func
 308              		.type	inteRX, %function
 309              	inteRX:
 310              	.LFB76:
 705:main.c        ****     Dato2=UART_2_GetByte();
 311              		.loc 1 705 0
 312              		.cfi_startproc
 313              		@ args = 0, pretend = 0, frame = 0
 314              		@ frame_needed = 0, uses_anonymous_args = 0
 315 0000 08B5     		push	{r3, lr}
 316              		.cfi_def_cfa_offset 8
 317              		.cfi_offset 3, -8
 318              		.cfi_offset 14, -4
 706:main.c        ****    if(Dato2==0x65){//Inicio Comunicacion
 319              		.loc 1 706 0
 320 0002 FFF7FEFF 		bl	UART_2_GetByte
 321              	.LVL3:
 322 0006 C0B2     		uxtb	r0, r0
 323 0008 1D4B     		ldr	r3, .L27
 324 000a 1870     		strb	r0, [r3]
 707:main.c        ****       Inicio=1;
 325              		.loc 1 707 0
 326 000c 6528     		cmp	r0, #101
 327 000e 05D1     		bne	.L21
 708:main.c        ****       RX_Wr_Index =0;
 328              		.loc 1 708 0
 329 0010 0122     		movs	r2, #1
 330 0012 1C4B     		ldr	r3, .L27+4
 331 0014 1A80     		strh	r2, [r3]	@ movhi
 709:main.c        ****    }
 332              		.loc 1 709 0
 333 0016 0022     		movs	r2, #0
 334 0018 1B4B     		ldr	r3, .L27+8
 335 001a 5A70     		strb	r2, [r3, #1]
 336              	.L21:
 711:main.c        ****       Rx_Buffer2[RX_Wr_Index] = Dato2;
 337              		.loc 1 711 0
 338 001c 194B     		ldr	r3, .L27+4
 339 001e B3F90030 		ldrsh	r3, [r3]
 340 0022 012B     		cmp	r3, #1
 341 0024 05D1     		bne	.L22
 712:main.c        ****       RX_Wr_Index++;
 342              		.loc 1 712 0
 343 0026 184A     		ldr	r2, .L27+8
 344 0028 5378     		ldrb	r3, [r2, #1]	@ zero_extendqisi2
 345 002a 1849     		ldr	r1, .L27+12
 346 002c C854     		strb	r0, [r1, r3]
 713:main.c        ****    }
 347              		.loc 1 713 0
 348 002e 0133     		adds	r3, r3, #1
 349 0030 5370     		strb	r3, [r2, #1]
ARM GAS  C:\Users\JPELEC~1\AppData\Local\Temp\ccEetrge.s 			page 21


 350              	.L22:
 715:main.c        ****       RX_Wr_Index =0;
 351              		.loc 1 715 0
 352 0032 154B     		ldr	r3, .L27+8
 353 0034 5B78     		ldrb	r3, [r3, #1]	@ zero_extendqisi2
 354 0036 092B     		cmp	r3, #9
 355 0038 04D9     		bls	.L23
 716:main.c        ****       Inicio=0;
 356              		.loc 1 716 0
 357 003a 0023     		movs	r3, #0
 358 003c 124A     		ldr	r2, .L27+8
 359 003e 5370     		strb	r3, [r2, #1]
 717:main.c        ****    }
 360              		.loc 1 717 0
 361 0040 104A     		ldr	r2, .L27+4
 362 0042 1380     		strh	r3, [r2]	@ movhi
 363              	.L23:
 719:main.c        ****       if(Rx_Buffer2[0]==0x65 && Rx_Buffer2[1]==0xff && Rx_Buffer2[2]==0xff && Rx_Buffer2[8]==0x00 &
 364              		.loc 1 719 0
 365 0044 104B     		ldr	r3, .L27+8
 366 0046 5B78     		ldrb	r3, [r3, #1]	@ zero_extendqisi2
 367 0048 CBB9     		cbnz	r3, .L20
 720:main.c        ****          Dato_Exitoso=5;
 368              		.loc 1 720 0
 369 004a 104B     		ldr	r3, .L27+12
 370 004c 1B78     		ldrb	r3, [r3]	@ zero_extendqisi2
 371 004e 652B     		cmp	r3, #101
 372 0050 12D1     		bne	.L25
 720:main.c        ****          Dato_Exitoso=5;
 373              		.loc 1 720 0 is_stmt 0 discriminator 1
 374 0052 0E4B     		ldr	r3, .L27+12
 375 0054 5B78     		ldrb	r3, [r3, #1]	@ zero_extendqisi2
 376 0056 FF2B     		cmp	r3, #255
 377 0058 0ED1     		bne	.L25
 720:main.c        ****          Dato_Exitoso=5;
 378              		.loc 1 720 0 discriminator 2
 379 005a 0C4B     		ldr	r3, .L27+12
 380 005c 9B78     		ldrb	r3, [r3, #2]	@ zero_extendqisi2
 381 005e FF2B     		cmp	r3, #255
 382 0060 0AD1     		bne	.L25
 720:main.c        ****          Dato_Exitoso=5;
 383              		.loc 1 720 0 discriminator 3
 384 0062 0A4B     		ldr	r3, .L27+12
 385 0064 1B7A     		ldrb	r3, [r3, #8]	@ zero_extendqisi2
 386 0066 3BB9     		cbnz	r3, .L25
 720:main.c        ****          Dato_Exitoso=5;
 387              		.loc 1 720 0 discriminator 4
 388 0068 084B     		ldr	r3, .L27+12
 389 006a 5B7A     		ldrb	r3, [r3, #9]	@ zero_extendqisi2
 390 006c FF2B     		cmp	r3, #255
 391 006e 03D1     		bne	.L25
 721:main.c        ****       else
 392              		.loc 1 721 0 is_stmt 1
 393 0070 0522     		movs	r2, #5
 394 0072 074B     		ldr	r3, .L27+16
 395 0074 1A70     		strb	r2, [r3]
 396 0076 08BD     		pop	{r3, pc}
ARM GAS  C:\Users\JPELEC~1\AppData\Local\Temp\ccEetrge.s 			page 22


 397              	.L25:
 723:main.c        ****    }
 398              		.loc 1 723 0
 399 0078 0A22     		movs	r2, #10
 400 007a 054B     		ldr	r3, .L27+16
 401 007c 1A70     		strb	r2, [r3]
 402              	.L20:
 403 007e 08BD     		pop	{r3, pc}
 404              	.L28:
 405              		.align	2
 406              	.L27:
 407 0080 00000000 		.word	Dato2
 408 0084 00000000 		.word	Inicio
 409 0088 00000000 		.word	.LANCHOR0
 410 008c 00000000 		.word	Rx_Buffer2
 411 0090 00000000 		.word	Dato_Exitoso
 412              		.cfi_endproc
 413              	.LFE76:
 414              		.size	inteRX, .-inteRX
 415              		.section	.text.inteRX1,"ax",%progbits
 416              		.align	2
 417              		.global	inteRX1
 418              		.thumb
 419              		.thumb_func
 420              		.type	inteRX1, %function
 421              	inteRX1:
 422              	.LFB77:
 729:main.c        ****     Dato3=UART_1_GetByte();
 423              		.loc 1 729 0
 424              		.cfi_startproc
 425              		@ args = 0, pretend = 0, frame = 0
 426              		@ frame_needed = 0, uses_anonymous_args = 0
 427 0000 08B5     		push	{r3, lr}
 428              		.cfi_def_cfa_offset 8
 429              		.cfi_offset 3, -8
 430              		.cfi_offset 14, -4
 730:main.c        ****    if(Dato3==0x65){//Inicio Comunicacion
 431              		.loc 1 730 0
 432 0002 FFF7FEFF 		bl	UART_1_GetByte
 433              	.LVL4:
 434 0006 C0B2     		uxtb	r0, r0
 435 0008 1D4B     		ldr	r3, .L36
 436 000a 1870     		strb	r0, [r3]
 731:main.c        ****       Inicio2=1;
 437              		.loc 1 731 0
 438 000c 6528     		cmp	r0, #101
 439 000e 05D1     		bne	.L30
 732:main.c        ****       RX_Wr_Index2 =0;
 440              		.loc 1 732 0
 441 0010 0122     		movs	r2, #1
 442 0012 1C4B     		ldr	r3, .L36+4
 443 0014 1A80     		strh	r2, [r3]	@ movhi
 733:main.c        ****    }
 444              		.loc 1 733 0
 445 0016 0022     		movs	r2, #0
 446 0018 1B4B     		ldr	r3, .L36+8
 447 001a 9A70     		strb	r2, [r3, #2]
ARM GAS  C:\Users\JPELEC~1\AppData\Local\Temp\ccEetrge.s 			page 23


 448              	.L30:
 735:main.c        ****       Rx_Buffer4[RX_Wr_Index2] = Dato3;
 449              		.loc 1 735 0
 450 001c 194B     		ldr	r3, .L36+4
 451 001e B3F90030 		ldrsh	r3, [r3]
 452 0022 012B     		cmp	r3, #1
 453 0024 05D1     		bne	.L31
 736:main.c        ****       RX_Wr_Index2++;
 454              		.loc 1 736 0
 455 0026 184A     		ldr	r2, .L36+8
 456 0028 9378     		ldrb	r3, [r2, #2]	@ zero_extendqisi2
 457 002a 1849     		ldr	r1, .L36+12
 458 002c C854     		strb	r0, [r1, r3]
 737:main.c        ****    }
 459              		.loc 1 737 0
 460 002e 0133     		adds	r3, r3, #1
 461 0030 9370     		strb	r3, [r2, #2]
 462              	.L31:
 739:main.c        ****       RX_Wr_Index2 =0;
 463              		.loc 1 739 0
 464 0032 154B     		ldr	r3, .L36+8
 465 0034 9B78     		ldrb	r3, [r3, #2]	@ zero_extendqisi2
 466 0036 092B     		cmp	r3, #9
 467 0038 04D9     		bls	.L32
 740:main.c        ****       Inicio2=0;
 468              		.loc 1 740 0
 469 003a 0023     		movs	r3, #0
 470 003c 124A     		ldr	r2, .L36+8
 471 003e 9370     		strb	r3, [r2, #2]
 741:main.c        ****    }
 472              		.loc 1 741 0
 473 0040 104A     		ldr	r2, .L36+4
 474 0042 1380     		strh	r3, [r2]	@ movhi
 475              	.L32:
 743:main.c        ****       if(Rx_Buffer4[0]==0x65 && Rx_Buffer4[1]==0xff && Rx_Buffer4[2]==0xff && Rx_Buffer4[8]==0x00 &
 476              		.loc 1 743 0
 477 0044 104B     		ldr	r3, .L36+8
 478 0046 9B78     		ldrb	r3, [r3, #2]	@ zero_extendqisi2
 479 0048 CBB9     		cbnz	r3, .L29
 744:main.c        ****          Dato_Exitoso2=5;
 480              		.loc 1 744 0
 481 004a 104B     		ldr	r3, .L36+12
 482 004c 1B78     		ldrb	r3, [r3]	@ zero_extendqisi2
 483 004e 652B     		cmp	r3, #101
 484 0050 12D1     		bne	.L34
 744:main.c        ****          Dato_Exitoso2=5;
 485              		.loc 1 744 0 is_stmt 0 discriminator 1
 486 0052 0E4B     		ldr	r3, .L36+12
 487 0054 5B78     		ldrb	r3, [r3, #1]	@ zero_extendqisi2
 488 0056 FF2B     		cmp	r3, #255
 489 0058 0ED1     		bne	.L34
 744:main.c        ****          Dato_Exitoso2=5;
 490              		.loc 1 744 0 discriminator 2
 491 005a 0C4B     		ldr	r3, .L36+12
 492 005c 9B78     		ldrb	r3, [r3, #2]	@ zero_extendqisi2
 493 005e FF2B     		cmp	r3, #255
 494 0060 0AD1     		bne	.L34
ARM GAS  C:\Users\JPELEC~1\AppData\Local\Temp\ccEetrge.s 			page 24


 744:main.c        ****          Dato_Exitoso2=5;
 495              		.loc 1 744 0 discriminator 3
 496 0062 0A4B     		ldr	r3, .L36+12
 497 0064 1B7A     		ldrb	r3, [r3, #8]	@ zero_extendqisi2
 498 0066 3BB9     		cbnz	r3, .L34
 744:main.c        ****          Dato_Exitoso2=5;
 499              		.loc 1 744 0 discriminator 4
 500 0068 084B     		ldr	r3, .L36+12
 501 006a 5B7A     		ldrb	r3, [r3, #9]	@ zero_extendqisi2
 502 006c FF2B     		cmp	r3, #255
 503 006e 03D1     		bne	.L34
 745:main.c        ****       else
 504              		.loc 1 745 0 is_stmt 1
 505 0070 0522     		movs	r2, #5
 506 0072 074B     		ldr	r3, .L36+16
 507 0074 1A70     		strb	r2, [r3]
 508 0076 08BD     		pop	{r3, pc}
 509              	.L34:
 747:main.c        ****    }
 510              		.loc 1 747 0
 511 0078 0A22     		movs	r2, #10
 512 007a 054B     		ldr	r3, .L36+16
 513 007c 1A70     		strb	r2, [r3]
 514              	.L29:
 515 007e 08BD     		pop	{r3, pc}
 516              	.L37:
 517              		.align	2
 518              	.L36:
 519 0080 00000000 		.word	Dato3
 520 0084 00000000 		.word	Inicio2
 521 0088 00000000 		.word	.LANCHOR0
 522 008c 00000000 		.word	Rx_Buffer4
 523 0090 00000000 		.word	Dato_Exitoso2
 524              		.cfi_endproc
 525              	.LFE77:
 526              		.size	inteRX1, .-inteRX1
 527              		.global	__aeabi_fsub
 528              		.global	__aeabi_i2f
 529              		.global	__aeabi_fdiv
 530              		.global	__aeabi_fmul
 531              		.section	.text.ActualizaRecta,"ax",%progbits
 532              		.align	2
 533              		.global	ActualizaRecta
 534              		.thumb
 535              		.thumb_func
 536              		.type	ActualizaRecta, %function
 537              	ActualizaRecta:
 538              	.LFB65:
  86:main.c        ****    X[y]=Temperatura;
 539              		.loc 1 86 0
 540              		.cfi_startproc
 541              		@ args = 0, pretend = 0, frame = 0
 542              		@ frame_needed = 0, uses_anonymous_args = 0
 543 0000 70B5     		push	{r4, r5, r6, lr}
 544              		.cfi_def_cfa_offset 16
 545              		.cfi_offset 4, -16
 546              		.cfi_offset 5, -12
ARM GAS  C:\Users\JPELEC~1\AppData\Local\Temp\ccEetrge.s 			page 25


 547              		.cfi_offset 6, -8
 548              		.cfi_offset 14, -4
  87:main.c        ****    y++;
 549              		.loc 1 87 0
 550 0002 2749     		ldr	r1, .L41
 551 0004 0B78     		ldrb	r3, [r1]	@ zero_extendqisi2
 552 0006 274A     		ldr	r2, .L41+4
 553 0008 1468     		ldr	r4, [r2]	@ float
 554 000a 274A     		ldr	r2, .L41+8
 555 000c 02EB8302 		add	r2, r2, r3, lsl #2
 556 0010 5460     		str	r4, [r2, #4]	@ float
  88:main.c        ****    if(y>=2){
 557              		.loc 1 88 0
 558 0012 0133     		adds	r3, r3, #1
 559 0014 DBB2     		uxtb	r3, r3
 560 0016 0B70     		strb	r3, [r1]
  89:main.c        ****       y=0;
 561              		.loc 1 89 0
 562 0018 012B     		cmp	r3, #1
 563 001a 3FD9     		bls	.L38
  90:main.c        ****       Aumento=X[1]-X[0];
 564              		.loc 1 90 0
 565 001c 0022     		movs	r2, #0
 566 001e 0A70     		strb	r2, [r1]
  91:main.c        ****       HorasActual=hEst;
 567              		.loc 1 91 0
 568 0020 214B     		ldr	r3, .L41+8
 569 0022 5968     		ldr	r1, [r3, #4]	@ float
 570 0024 9868     		ldr	r0, [r3, #8]	@ float
 571 0026 FFF7FEFF 		bl	__aeabi_fsub
 572              	.LVL5:
 573 002a 0546     		mov	r5, r0
 574 002c 1F4B     		ldr	r3, .L41+12
 575 002e 1860     		str	r0, [r3]	@ float
  92:main.c        ****       MinutosActual=mEst;
 576              		.loc 1 92 0
 577 0030 1F4B     		ldr	r3, .L41+16
 578 0032 1A78     		ldrb	r2, [r3]	@ zero_extendqisi2
 579 0034 1F4B     		ldr	r3, .L41+20
 580 0036 1A80     		strh	r2, [r3]	@ movhi
  93:main.c        ****       TiempoActual=Tiempo-((HorasActual*3600)+(MinutosActual*60)+tinicio);
 581              		.loc 1 93 0
 582 0038 1F4B     		ldr	r3, .L41+24
 583 003a 1B78     		ldrb	r3, [r3]	@ zero_extendqisi2
 584 003c 1F49     		ldr	r1, .L41+28
 585 003e 0B80     		strh	r3, [r1]	@ movhi
  94:main.c        ****       PendienteActual=((Setpoint-Temperatura)/TiempoActual);
 586              		.loc 1 94 0
 587 0040 C2EB0212 		rsb	r2, r2, r2, lsl #4
 588 0044 C2EB0212 		rsb	r2, r2, r2, lsl #4
 589 0048 C3EB0313 		rsb	r3, r3, r3, lsl #4
 590 004c 9B00     		lsls	r3, r3, #2
 591 004e 03EB0213 		add	r3, r3, r2, lsl #4
 592 0052 1B4A     		ldr	r2, .L41+32
 593 0054 1688     		ldrh	r6, [r2]
 594 0056 1E44     		add	r6, r6, r3
 595 0058 1A4B     		ldr	r3, .L41+36
ARM GAS  C:\Users\JPELEC~1\AppData\Local\Temp\ccEetrge.s 			page 26


 596 005a 1A88     		ldrh	r2, [r3]
 597 005c 961B     		subs	r6, r2, r6
 598 005e B6B2     		uxth	r6, r6
 599 0060 194B     		ldr	r3, .L41+40
 600 0062 1E80     		strh	r6, [r3]	@ movhi
  95:main.c        ****       DifPendiente=(PendienteActual*20)-Aumento;
 601              		.loc 1 95 0
 602 0064 194B     		ldr	r3, .L41+44
 603 0066 1888     		ldrh	r0, [r3]
 604 0068 FFF7FEFF 		bl	__aeabi_i2f
 605              	.LVL6:
 606 006c 2146     		mov	r1, r4
 607 006e FFF7FEFF 		bl	__aeabi_fsub
 608              	.LVL7:
 609 0072 0446     		mov	r4, r0
 610 0074 3046     		mov	r0, r6
 611 0076 FFF7FEFF 		bl	__aeabi_i2f
 612              	.LVL8:
 613 007a 0146     		mov	r1, r0
 614 007c 2046     		mov	r0, r4
 615 007e FFF7FEFF 		bl	__aeabi_fdiv
 616              	.LVL9:
 617 0082 134B     		ldr	r3, .L41+48
 618 0084 1860     		str	r0, [r3]	@ float
  96:main.c        ****       DifPendiente=DifPendiente*5;
 619              		.loc 1 96 0
 620 0086 1349     		ldr	r1, .L41+52
 621 0088 FFF7FEFF 		bl	__aeabi_fmul
 622              	.LVL10:
 623 008c 2946     		mov	r1, r5
 624 008e FFF7FEFF 		bl	__aeabi_fsub
 625              	.LVL11:
  97:main.c        ****    }
 626              		.loc 1 97 0
 627 0092 1149     		ldr	r1, .L41+56
 628 0094 FFF7FEFF 		bl	__aeabi_fmul
 629              	.LVL12:
 630 0098 104B     		ldr	r3, .L41+60
 631 009a 1860     		str	r0, [r3]	@ float
 632              	.L38:
 633 009c 70BD     		pop	{r4, r5, r6, pc}
 634              	.L42:
 635 009e 00BF     		.align	2
 636              	.L41:
 637 00a0 00000000 		.word	y
 638 00a4 00000000 		.word	Temperatura
 639 00a8 00000000 		.word	.LANCHOR0
 640 00ac 00000000 		.word	Aumento
 641 00b0 00000000 		.word	hEst
 642 00b4 00000000 		.word	HorasActual
 643 00b8 00000000 		.word	mEst
 644 00bc 00000000 		.word	MinutosActual
 645 00c0 00000000 		.word	tinicio
 646 00c4 00000000 		.word	Tiempo
 647 00c8 00000000 		.word	TiempoActual
 648 00cc 00000000 		.word	Setpoint
 649 00d0 00000000 		.word	PendienteActual
ARM GAS  C:\Users\JPELEC~1\AppData\Local\Temp\ccEetrge.s 			page 27


 650 00d4 0000A041 		.word	1101004800
 651 00d8 0000A040 		.word	1084227584
 652 00dc 00000000 		.word	DifPendiente
 653              		.cfi_endproc
 654              	.LFE65:
 655              		.size	ActualizaRecta, .-ActualizaRecta
 656              		.global	__aeabi_ui2f
 657              		.global	__aeabi_fcmpeq
 658              		.global	__aeabi_fadd
 659              		.global	__aeabi_fcmplt
 660              		.global	__aeabi_fcmpge
 661              		.global	__aeabi_f2d
 662              		.global	__aeabi_dmul
 663              		.global	__aeabi_d2f
 664              		.global	__aeabi_fcmple
 665              		.global	__aeabi_fcmpgt
 666              		.global	__aeabi_i2d
 667              		.global	__aeabi_dadd
 668              		.global	__aeabi_dsub
 669              		.global	__aeabi_ddiv
 670              		.global	__aeabi_d2uiz
 671              		.section	.text.Controla,"ax",%progbits
 672              		.align	2
 673              		.global	Controla
 674              		.thumb
 675              		.thumb_func
 676              		.type	Controla, %function
 677              	Controla:
 678              	.LFB66:
 101:main.c        **** //-------------------------------Control de Calentamiento------------------------------------------
 679              		.loc 1 101 0
 680              		.cfi_startproc
 681              		@ args = 0, pretend = 0, frame = 8
 682              		@ frame_needed = 0, uses_anonymous_args = 0
 683 0000 2DE9F04F 		push	{r4, r5, r6, r7, r8, r9, r10, fp, lr}
 684              		.cfi_def_cfa_offset 36
 685              		.cfi_offset 4, -36
 686              		.cfi_offset 5, -32
 687              		.cfi_offset 6, -28
 688              		.cfi_offset 7, -24
 689              		.cfi_offset 8, -20
 690              		.cfi_offset 9, -16
 691              		.cfi_offset 10, -12
 692              		.cfi_offset 11, -8
 693              		.cfi_offset 14, -4
 694 0004 83B0     		sub	sp, sp, #12
 695              		.cfi_def_cfa_offset 48
 696              	.LVL13:
 104:main.c        ****          ActualizaRecta();
 697              		.loc 1 104 0
 698 0006 6B4B     		ldr	r3, .L107
 699 0008 1B88     		ldrh	r3, [r3]
 700 000a 092B     		cmp	r3, #9
 701 000c 04D9     		bls	.L44
 105:main.c        ****          tiemporecta=0;
 702              		.loc 1 105 0
 703 000e FFF7FEFF 		bl	ActualizaRecta
ARM GAS  C:\Users\JPELEC~1\AppData\Local\Temp\ccEetrge.s 			page 28


 704              	.LVL14:
 106:main.c        ****       }
 705              		.loc 1 106 0
 706 0012 0022     		movs	r2, #0
 707 0014 674B     		ldr	r3, .L107
 708 0016 1A80     		strh	r2, [r3]	@ movhi
 709              	.L44:
 109:main.c        ****          if(flag_calcula==0){
 710              		.loc 1 109 0
 711 0018 674B     		ldr	r3, .L107+4
 712 001a 1C78     		ldrb	r4, [r3]	@ zero_extendqisi2
 713 001c 002C     		cmp	r4, #0
 714 001e 49D1     		bne	.L45
 110:main.c        ****             Tiempo=(Programas[Programa-1].rampas[0].Horas*3600)+(Programas[Programa-1].rampas[0].Mi
 715              		.loc 1 110 0
 716 0020 664B     		ldr	r3, .L107+8
 717 0022 B3F90030 		ldrsh	r3, [r3]
 718 0026 002B     		cmp	r3, #0
 719 0028 40F09A80 		bne	.L46
 111:main.c        ****             Setpoint=Programas[Programa-1].rampas[0].Temperatura;
 720              		.loc 1 111 0
 721 002c 644B     		ldr	r3, .L107+12
 722 002e 1B78     		ldrb	r3, [r3]	@ zero_extendqisi2
 723 0030 013B     		subs	r3, r3, #1
 724 0032 6448     		ldr	r0, .L107+16
 725 0034 9D00     		lsls	r5, r3, #2
 726 0036 E918     		adds	r1, r5, r3
 727 0038 4A01     		lsls	r2, r1, #5
 728 003a 0244     		add	r2, r2, r0
 729 003c D678     		ldrb	r6, [r2, #3]	@ zero_extendqisi2
 730 003e 1779     		ldrb	r7, [r2, #4]	@ zero_extendqisi2
 731 0040 C6EB0612 		rsb	r2, r6, r6, lsl #4
 732 0044 C2EB0212 		rsb	r2, r2, r2, lsl #4
 733 0048 4FEA0218 		lsl	r8, r2, #4
 734 004c C7EB0712 		rsb	r2, r7, r7, lsl #4
 735 0050 9100     		lsls	r1, r2, #2
 736 0052 8844     		add	r8, r8, r1
 737 0054 1FFA88F8 		uxth	r8, r8
 738 0058 5B4A     		ldr	r2, .L107+20
 739 005a A2F80080 		strh	r8, [r2]	@ movhi
 112:main.c        ****             Pendiente=(((float)Setpoint-TempeInicial)/(float)Tiempo);
 740              		.loc 1 112 0
 741 005e 2B44     		add	r3, r3, r5
 742 0060 5A01     		lsls	r2, r3, #5
 743 0062 0244     		add	r2, r2, r0
 744 0064 D588     		ldrh	r5, [r2, #6]
 745 0066 594B     		ldr	r3, .L107+24
 746 0068 1D80     		strh	r5, [r3]	@ movhi
 113:main.c        ****             hEstp=Programas[Programa-1].rampas[0].Horas;
 747              		.loc 1 113 0
 748 006a 2846     		mov	r0, r5
 749 006c FFF7FEFF 		bl	__aeabi_ui2f
 750              	.LVL15:
 751 0070 574B     		ldr	r3, .L107+28
 752 0072 1968     		ldr	r1, [r3]	@ float
 753 0074 FFF7FEFF 		bl	__aeabi_fsub
 754              	.LVL16:
ARM GAS  C:\Users\JPELEC~1\AppData\Local\Temp\ccEetrge.s 			page 29


 755 0078 8146     		mov	r9, r0
 756 007a 4046     		mov	r0, r8
 757 007c FFF7FEFF 		bl	__aeabi_ui2f
 758              	.LVL17:
 759 0080 0146     		mov	r1, r0
 760 0082 4846     		mov	r0, r9
 761 0084 FFF7FEFF 		bl	__aeabi_fdiv
 762              	.LVL18:
 763 0088 524B     		ldr	r3, .L107+32
 764 008a 1860     		str	r0, [r3]	@ float
 114:main.c        ****             mEstp=Programas[Programa-1].rampas[0].Minutos;
 765              		.loc 1 114 0
 766 008c 524B     		ldr	r3, .L107+36
 767 008e 1E70     		strb	r6, [r3]
 115:main.c        ****             flag_calcula=1;
 768              		.loc 1 115 0
 769 0090 524B     		ldr	r3, .L107+40
 770 0092 1F70     		strb	r7, [r3]
 116:main.c        ****             Ganancia=GananciaIn*(Setpoint/100);
 771              		.loc 1 116 0
 772 0094 0122     		movs	r2, #1
 773 0096 494B     		ldr	r3, .L107+8
 774 0098 1A80     		strh	r2, [r3]	@ movhi
 117:main.c        ****          }
 775              		.loc 1 117 0
 776 009a 5148     		ldr	r0, .L107+44
 777 009c A0FB0530 		umull	r3, r0, r0, r5
 778 00a0 4009     		lsrs	r0, r0, #5
 779 00a2 FFF7FEFF 		bl	__aeabi_i2f
 780              	.LVL19:
 781 00a6 4F4B     		ldr	r3, .L107+48
 782 00a8 1968     		ldr	r1, [r3]	@ float
 783 00aa FFF7FEFF 		bl	__aeabi_fmul
 784              	.LVL20:
 785 00ae 4E4B     		ldr	r3, .L107+52
 786 00b0 1860     		str	r0, [r3]	@ float
 787 00b2 55E0     		b	.L46
 788              	.L45:
 120:main.c        ****             Tiempo=(Programas[Programa-1].rampas[Segmento].Horas*3600)+(Programas[Programa-1].rampa
 789              		.loc 1 120 0
 790 00b4 414B     		ldr	r3, .L107+8
 791 00b6 B3F90030 		ldrsh	r3, [r3]
 792 00ba 002B     		cmp	r3, #0
 793 00bc 50D1     		bne	.L46
 121:main.c        ****             Setpoint=Programas[Programa-1].rampas[Segmento].Temperatura;
 794              		.loc 1 121 0
 795 00be 404B     		ldr	r3, .L107+12
 796 00c0 1D78     		ldrb	r5, [r3]	@ zero_extendqisi2
 797 00c2 013D     		subs	r5, r5, #1
 798 00c4 DFF8FC80 		ldr	r8, .L107+16
 799 00c8 4FEA850B 		lsl	fp, r5, #2
 800 00cc 0BEB0502 		add	r2, fp, r5
 801 00d0 9300     		lsls	r3, r2, #2
 802 00d2 2344     		add	r3, r3, r4
 803 00d4 08EBC303 		add	r3, r8, r3, lsl #3
 804 00d8 93F803A0 		ldrb	r10, [r3, #3]	@ zero_extendqisi2
 805 00dc 93F80490 		ldrb	r9, [r3, #4]	@ zero_extendqisi2
ARM GAS  C:\Users\JPELEC~1\AppData\Local\Temp\ccEetrge.s 			page 30


 806 00e0 CAEB0A12 		rsb	r2, r10, r10, lsl #4
 807 00e4 C2EB0212 		rsb	r2, r2, r2, lsl #4
 808 00e8 1601     		lsls	r6, r2, #4
 809 00ea C9EB0911 		rsb	r1, r9, r9, lsl #4
 810 00ee 8A00     		lsls	r2, r1, #2
 811 00f0 1644     		add	r6, r6, r2
 812 00f2 B6B2     		uxth	r6, r6
 813 00f4 344A     		ldr	r2, .L107+20
 814 00f6 1680     		strh	r6, [r2]	@ movhi
 122:main.c        ****             Pendiente=(((float)Programas[Programa-1].rampas[Segmento].Temperatura-(float)Programas[
 815              		.loc 1 122 0
 816 00f8 DF88     		ldrh	r7, [r3, #6]
 817 00fa 344B     		ldr	r3, .L107+24
 818 00fc 1F80     		strh	r7, [r3]	@ movhi
 123:main.c        ****             hEstp=Programas[Programa-1].rampas[Segmento].Horas;
 819              		.loc 1 123 0
 820 00fe 3846     		mov	r0, r7
 821 0100 FFF7FEFF 		bl	__aeabi_ui2f
 822              	.LVL21:
 823 0104 0190     		str	r0, [sp, #4]	@ float
 824 0106 631E     		subs	r3, r4, #1
 825 0108 5D44     		add	r5, r5, fp
 826 010a AA00     		lsls	r2, r5, #2
 827 010c 1344     		add	r3, r3, r2
 828 010e 08EBC308 		add	r8, r8, r3, lsl #3
 829 0112 B8F80600 		ldrh	r0, [r8, #6]
 830 0116 FFF7FEFF 		bl	__aeabi_ui2f
 831              	.LVL22:
 832 011a 0146     		mov	r1, r0
 833 011c 0198     		ldr	r0, [sp, #4]	@ float
 834 011e FFF7FEFF 		bl	__aeabi_fsub
 835              	.LVL23:
 836 0122 0546     		mov	r5, r0
 837 0124 3046     		mov	r0, r6
 838 0126 FFF7FEFF 		bl	__aeabi_ui2f
 839              	.LVL24:
 840 012a 0146     		mov	r1, r0
 841 012c 2846     		mov	r0, r5
 842 012e FFF7FEFF 		bl	__aeabi_fdiv
 843              	.LVL25:
 844 0132 284B     		ldr	r3, .L107+32
 845 0134 1860     		str	r0, [r3]	@ float
 124:main.c        ****             mEstp=Programas[Programa-1].rampas[Segmento].Minutos;
 846              		.loc 1 124 0
 847 0136 284B     		ldr	r3, .L107+36
 848 0138 83F800A0 		strb	r10, [r3]
 125:main.c        ****             flag_calcula=1;
 849              		.loc 1 125 0
 850 013c 274B     		ldr	r3, .L107+40
 851 013e 83F80090 		strb	r9, [r3]
 126:main.c        ****             Ganancia=GananciaIn*(Setpoint/100);
 852              		.loc 1 126 0
 853 0142 0122     		movs	r2, #1
 854 0144 1D4B     		ldr	r3, .L107+8
 855 0146 1A80     		strh	r2, [r3]	@ movhi
 127:main.c        ****          }
 856              		.loc 1 127 0
ARM GAS  C:\Users\JPELEC~1\AppData\Local\Temp\ccEetrge.s 			page 31


 857 0148 2548     		ldr	r0, .L107+44
 858 014a A0FB0730 		umull	r3, r0, r0, r7
 859 014e 4009     		lsrs	r0, r0, #5
 860 0150 FFF7FEFF 		bl	__aeabi_i2f
 861              	.LVL26:
 862 0154 234B     		ldr	r3, .L107+48
 863 0156 1968     		ldr	r1, [r3]	@ float
 864 0158 FFF7FEFF 		bl	__aeabi_fmul
 865              	.LVL27:
 866 015c 224B     		ldr	r3, .L107+52
 867 015e 1860     		str	r0, [r3]	@ float
 868              	.L46:
 132:main.c        ****       //PendienteActual=((Setpoint-Temperatura)/TiempoActual);
 869              		.loc 1 132 0
 870 0160 1C4B     		ldr	r3, .L107+32
 871 0162 1D68     		ldr	r5, [r3]	@ float
 872 0164 0021     		movs	r1, #0
 873 0166 2846     		mov	r0, r5
 874 0168 FFF7FEFF 		bl	__aeabi_fcmpeq
 875              	.LVL28:
 876 016c 0028     		cmp	r0, #0
 877 016e 40F0EC80 		bne	.L103
 136:main.c        ****       if(Segmento==0){
 878              		.loc 1 136 0
 879 0172 1E4B     		ldr	r3, .L107+56
 880 0174 1B78     		ldrb	r3, [r3]	@ zero_extendqisi2
 881 0176 C3EB0313 		rsb	r3, r3, r3, lsl #4
 882 017a C3EB0313 		rsb	r3, r3, r3, lsl #4
 883 017e 1801     		lsls	r0, r3, #4
 884 0180 1B4B     		ldr	r3, .L107+60
 885 0182 1B78     		ldrb	r3, [r3]	@ zero_extendqisi2
 886 0184 C3EB0313 		rsb	r3, r3, r3, lsl #4
 887 0188 9A00     		lsls	r2, r3, #2
 888 018a 1044     		add	r0, r0, r2
 889 018c 194B     		ldr	r3, .L107+64
 890 018e 1B88     		ldrh	r3, [r3]
 891 0190 1844     		add	r0, r0, r3
 892 0192 80B2     		uxth	r0, r0
 893 0194 184B     		ldr	r3, .L107+68
 894 0196 1880     		strh	r0, [r3]	@ movhi
 137:main.c        ****          TemperaturaIdeal=(Pendiente*TiempoRampa)+TempeInicial;
 895              		.loc 1 137 0
 896 0198 94BB     		cbnz	r4, .L49
 138:main.c        ****       }else{
 897              		.loc 1 138 0
 898 019a FFF7FEFF 		bl	__aeabi_i2f
 899              	.LVL29:
 900 019e 2946     		mov	r1, r5
 901 01a0 FFF7FEFF 		bl	__aeabi_fmul
 902              	.LVL30:
 903 01a4 0A4B     		ldr	r3, .L107+28
 904 01a6 1968     		ldr	r1, [r3]	@ float
 905 01a8 FFF7FEFF 		bl	__aeabi_fadd
 906              	.LVL31:
 907 01ac 134B     		ldr	r3, .L107+72
 908 01ae 1860     		str	r0, [r3]	@ float
 909 01b0 3FE0     		b	.L50
ARM GAS  C:\Users\JPELEC~1\AppData\Local\Temp\ccEetrge.s 			page 32


 910              	.L108:
 911 01b2 00BF     		.align	2
 912              	.L107:
 913 01b4 00000000 		.word	tiemporecta
 914 01b8 00000000 		.word	Segmento
 915 01bc 00000000 		.word	flag_calcula
 916 01c0 00000000 		.word	Programa
 917 01c4 00000000 		.word	Programas
 918 01c8 00000000 		.word	Tiempo
 919 01cc 00000000 		.word	Setpoint
 920 01d0 00000000 		.word	TempeInicial
 921 01d4 00000000 		.word	Pendiente
 922 01d8 00000000 		.word	hEstp
 923 01dc 00000000 		.word	mEstp
 924 01e0 1F85EB51 		.word	1374389535
 925 01e4 00000000 		.word	GananciaIn
 926 01e8 00000000 		.word	Ganancia
 927 01ec 00000000 		.word	hEst
 928 01f0 00000000 		.word	mEst
 929 01f4 00000000 		.word	tinicio
 930 01f8 00000000 		.word	TiempoRampa
 931 01fc 00000000 		.word	TemperaturaIdeal
 932              	.L49:
 140:main.c        ****       }
 933              		.loc 1 140 0
 934 0200 FFF7FEFF 		bl	__aeabi_i2f
 935              	.LVL32:
 936 0204 2946     		mov	r1, r5
 937 0206 FFF7FEFF 		bl	__aeabi_fmul
 938              	.LVL33:
 939 020a 0546     		mov	r5, r0
 940 020c 864B     		ldr	r3, .L109+32
 941 020e 1B78     		ldrb	r3, [r3]	@ zero_extendqisi2
 942 0210 013B     		subs	r3, r3, #1
 943 0212 013C     		subs	r4, r4, #1
 944 0214 03EB8303 		add	r3, r3, r3, lsl #2
 945 0218 9A00     		lsls	r2, r3, #2
 946 021a 1444     		add	r4, r4, r2
 947 021c 834B     		ldr	r3, .L109+36
 948 021e 03EBC404 		add	r4, r3, r4, lsl #3
 949 0222 E088     		ldrh	r0, [r4, #6]
 950 0224 FFF7FEFF 		bl	__aeabi_i2f
 951              	.LVL34:
 952 0228 2946     		mov	r1, r5
 953 022a FFF7FEFF 		bl	__aeabi_fadd
 954              	.LVL35:
 955 022e 804B     		ldr	r3, .L109+40
 956 0230 1860     		str	r0, [r3]	@ float
 957              	.L50:
 142:main.c        **** // Pendiente determinar si el comportamiento de la mufla es lineal 10°C/min o si tiene un comporta
 958              		.loc 1 142 0
 959 0232 804B     		ldr	r3, .L109+44
 960 0234 1C68     		ldr	r4, [r3]	@ float
 961 0236 2146     		mov	r1, r4
 962 0238 7D4B     		ldr	r3, .L109+40
 963 023a 1868     		ldr	r0, [r3]	@ float
 964 023c FFF7FEFF 		bl	__aeabi_fsub
ARM GAS  C:\Users\JPELEC~1\AppData\Local\Temp\ccEetrge.s 			page 33


 965              	.LVL36:
 966 0240 7D49     		ldr	r1, .L109+48
 967 0242 FFF7FEFF 		bl	__aeabi_fmul
 968              	.LVL37:
 969 0246 7D4B     		ldr	r3, .L109+52
 970 0248 1968     		ldr	r1, [r3]	@ float
 971 024a FFF7FEFF 		bl	__aeabi_fdiv
 972              	.LVL38:
 973 024e 0546     		mov	r5, r0
 974 0250 7B4B     		ldr	r3, .L109+56
 975 0252 1860     		str	r0, [r3]	@ float
 145:main.c        ****          penMufla=penInicial*0.9;
 976              		.loc 1 145 0
 977 0254 7B49     		ldr	r1, .L109+60
 978 0256 2046     		mov	r0, r4
 979 0258 FFF7FEFF 		bl	__aeabi_fcmplt
 980              	.LVL39:
 981 025c 88B1     		cbz	r0, .L51
 145:main.c        ****          penMufla=penInicial*0.9;
 982              		.loc 1 145 0 is_stmt 0 discriminator 1
 983 025e 7A49     		ldr	r1, .L109+64
 984 0260 2046     		mov	r0, r4
 985 0262 FFF7FEFF 		bl	__aeabi_fcmpge
 986              	.LVL40:
 987 0266 60B1     		cbz	r0, .L51
 146:main.c        ****          
 988              		.loc 1 146 0 is_stmt 1
 989 0268 784B     		ldr	r3, .L109+68
 990 026a 1868     		ldr	r0, [r3]	@ float
 991 026c FFF7FEFF 		bl	__aeabi_f2d
 992              	.LVL41:
 993 0270 65A3     		adr	r3, .L109
 994 0272 D3E90023 		ldrd	r2, [r3]
 995 0276 FFF7FEFF 		bl	__aeabi_dmul
 996              	.LVL42:
 997 027a FFF7FEFF 		bl	__aeabi_d2f
 998              	.LVL43:
 999 027e 6F4B     		ldr	r3, .L109+52
 1000 0280 1860     		str	r0, [r3]	@ float
 1001              	.L51:
 148:main.c        ****          penMufla=penInicial*0.8;
 1002              		.loc 1 148 0
 1003 0282 7349     		ldr	r1, .L109+72
 1004 0284 2046     		mov	r0, r4
 1005 0286 FFF7FEFF 		bl	__aeabi_fcmplt
 1006              	.LVL44:
 1007 028a 88B1     		cbz	r0, .L54
 148:main.c        ****          penMufla=penInicial*0.8;
 1008              		.loc 1 148 0 is_stmt 0 discriminator 1
 1009 028c 6D49     		ldr	r1, .L109+60
 1010 028e 2046     		mov	r0, r4
 1011 0290 FFF7FEFF 		bl	__aeabi_fcmpge
 1012              	.LVL45:
 1013 0294 60B1     		cbz	r0, .L54
 149:main.c        ****          
 1014              		.loc 1 149 0 is_stmt 1
 1015 0296 6D4B     		ldr	r3, .L109+68
ARM GAS  C:\Users\JPELEC~1\AppData\Local\Temp\ccEetrge.s 			page 34


 1016 0298 1868     		ldr	r0, [r3]	@ float
 1017 029a FFF7FEFF 		bl	__aeabi_f2d
 1018              	.LVL46:
 1019 029e 5CA3     		adr	r3, .L109+8
 1020 02a0 D3E90023 		ldrd	r2, [r3]
 1021 02a4 FFF7FEFF 		bl	__aeabi_dmul
 1022              	.LVL47:
 1023 02a8 FFF7FEFF 		bl	__aeabi_d2f
 1024              	.LVL48:
 1025 02ac 634B     		ldr	r3, .L109+52
 1026 02ae 1860     		str	r0, [r3]	@ float
 1027              	.L54:
 151:main.c        ****          penMufla=penInicial*0.7;  
 1028              		.loc 1 151 0
 1029 02b0 6849     		ldr	r1, .L109+76
 1030 02b2 2046     		mov	r0, r4
 1031 02b4 FFF7FEFF 		bl	__aeabi_fcmplt
 1032              	.LVL49:
 1033 02b8 88B1     		cbz	r0, .L57
 151:main.c        ****          penMufla=penInicial*0.7;  
 1034              		.loc 1 151 0 is_stmt 0 discriminator 1
 1035 02ba 6549     		ldr	r1, .L109+72
 1036 02bc 2046     		mov	r0, r4
 1037 02be FFF7FEFF 		bl	__aeabi_fcmpge
 1038              	.LVL50:
 1039 02c2 60B1     		cbz	r0, .L57
 152:main.c        ****          
 1040              		.loc 1 152 0 is_stmt 1
 1041 02c4 614B     		ldr	r3, .L109+68
 1042 02c6 1868     		ldr	r0, [r3]	@ float
 1043 02c8 FFF7FEFF 		bl	__aeabi_f2d
 1044              	.LVL51:
 1045 02cc 52A3     		adr	r3, .L109+16
 1046 02ce D3E90023 		ldrd	r2, [r3]
 1047 02d2 FFF7FEFF 		bl	__aeabi_dmul
 1048              	.LVL52:
 1049 02d6 FFF7FEFF 		bl	__aeabi_d2f
 1050              	.LVL53:
 1051 02da 584B     		ldr	r3, .L109+52
 1052 02dc 1860     		str	r0, [r3]	@ float
 1053              	.L57:
 154:main.c        ****          penMufla=penInicial*0.6;   
 1054              		.loc 1 154 0
 1055 02de 5E49     		ldr	r1, .L109+80
 1056 02e0 2046     		mov	r0, r4
 1057 02e2 FFF7FEFF 		bl	__aeabi_fcmple
 1058              	.LVL54:
 1059 02e6 88B1     		cbz	r0, .L60
 154:main.c        ****          penMufla=penInicial*0.6;   
 1060              		.loc 1 154 0 is_stmt 0 discriminator 1
 1061 02e8 5A49     		ldr	r1, .L109+76
 1062 02ea 2046     		mov	r0, r4
 1063 02ec FFF7FEFF 		bl	__aeabi_fcmpge
 1064              	.LVL55:
 1065 02f0 60B1     		cbz	r0, .L60
 155:main.c        ****       
 1066              		.loc 1 155 0 is_stmt 1
ARM GAS  C:\Users\JPELEC~1\AppData\Local\Temp\ccEetrge.s 			page 35


 1067 02f2 564B     		ldr	r3, .L109+68
 1068 02f4 1868     		ldr	r0, [r3]	@ float
 1069 02f6 FFF7FEFF 		bl	__aeabi_f2d
 1070              	.LVL56:
 1071 02fa 49A3     		adr	r3, .L109+24
 1072 02fc D3E90023 		ldrd	r2, [r3]
 1073 0300 FFF7FEFF 		bl	__aeabi_dmul
 1074              	.LVL57:
 1075 0304 FFF7FEFF 		bl	__aeabi_d2f
 1076              	.LVL58:
 1077 0308 4C4B     		ldr	r3, .L109+52
 1078 030a 1860     		str	r0, [r3]	@ float
 1079              	.L60:
 157:main.c        ****          PotenciaEntregada=100.0;
 1080              		.loc 1 157 0
 1081 030c 4A49     		ldr	r1, .L109+48
 1082 030e 2846     		mov	r0, r5
 1083 0310 FFF7FEFF 		bl	__aeabi_fcmpgt
 1084              	.LVL59:
 1085 0314 10B1     		cbz	r0, .L63
 158:main.c        ****       }
 1086              		.loc 1 158 0
 1087 0316 484A     		ldr	r2, .L109+48
 1088 0318 494B     		ldr	r3, .L109+56
 1089 031a 1A60     		str	r2, [r3]	@ float
 1090              	.L63:
 161:main.c        ****          PotenciaEntregada=0;
 1091              		.loc 1 161 0
 1092 031c 0021     		movs	r1, #0
 1093 031e 484B     		ldr	r3, .L109+56
 1094 0320 1868     		ldr	r0, [r3]	@ float
 1095 0322 FFF7FEFF 		bl	__aeabi_fcmplt
 1096              	.LVL60:
 1097 0326 10B1     		cbz	r0, .L65
 162:main.c        ****       }
 1098              		.loc 1 162 0
 1099 0328 0022     		movs	r2, #0
 1100 032a 454B     		ldr	r3, .L109+56
 1101 032c 1A60     		str	r2, [r3]	@ float
 1102              	.L65:
 165:main.c        ****    }else{
 1103              		.loc 1 165 0
 1104 032e 4B4B     		ldr	r3, .L109+84
 1105 0330 1878     		ldrb	r0, [r3]	@ zero_extendqisi2
 1106 0332 FFF7FEFF 		bl	__aeabi_i2f
 1107              	.LVL61:
 1108 0336 424B     		ldr	r3, .L109+56
 1109 0338 1968     		ldr	r1, [r3]	@ float
 1110 033a FFF7FEFF 		bl	__aeabi_fmul
 1111              	.LVL62:
 1112 033e 3E49     		ldr	r1, .L109+48
 1113 0340 FFF7FEFF 		bl	__aeabi_fdiv
 1114              	.LVL63:
 1115 0344 464B     		ldr	r3, .L109+88
 1116 0346 1860     		str	r0, [r3]	@ float
 1117 0348 F4E0     		b	.L67
 1118              	.L103:
ARM GAS  C:\Users\JPELEC~1\AppData\Local\Temp\ccEetrge.s 			page 36


 168:main.c        ****       
 1119              		.loc 1 168 0
 1120 034a 464B     		ldr	r3, .L109+92
 1121 034c 1E88     		ldrh	r6, [r3]
 1122 034e 3046     		mov	r0, r6
 1123 0350 FFF7FEFF 		bl	__aeabi_i2d
 1124              	.LVL64:
 1125 0354 0022     		movs	r2, #0
 1126 0356 444B     		ldr	r3, .L109+96
 1127 0358 FFF7FEFF 		bl	__aeabi_dadd
 1128              	.LVL65:
 1129 035c 0446     		mov	r4, r0
 1130 035e 0D46     		mov	r5, r1
 1131 0360 344B     		ldr	r3, .L109+44
 1132 0362 1868     		ldr	r0, [r3]	@ float
 1133 0364 FFF7FEFF 		bl	__aeabi_f2d
 1134              	.LVL66:
 1135 0368 0246     		mov	r2, r0
 1136 036a 0B46     		mov	r3, r1
 1137 036c 2046     		mov	r0, r4
 1138 036e 2946     		mov	r1, r5
 1139 0370 FFF7FEFF 		bl	__aeabi_dsub
 1140              	.LVL67:
 1141 0374 FFF7FEFF 		bl	__aeabi_d2f
 1142              	.LVL68:
 1143 0378 0446     		mov	r4, r0
 1144 037a 3C4B     		ldr	r3, .L109+100
 1145 037c 1860     		str	r0, [r3]	@ float
 170:main.c        ****          if(Potencia<90.0){
 1146              		.loc 1 170 0
 1147 037e 3C49     		ldr	r1, .L109+104
 1148 0380 FFF7FEFF 		bl	__aeabi_fcmpgt
 1149              	.LVL69:
 1150 0384 0028     		cmp	r0, #0
 1151 0386 00F09A80 		beq	.L68
 170:main.c        ****          if(Potencia<90.0){
 1152              		.loc 1 170 0 is_stmt 0 discriminator 1
 1153 038a 3A4B     		ldr	r3, .L109+108
 1154 038c 1D68     		ldr	r5, [r3]	@ float
 1155 038e 4FF07E51 		mov	r1, #1065353216
 1156 0392 2846     		mov	r0, r5
 1157 0394 FFF7FEFF 		bl	__aeabi_fcmplt
 1158              	.LVL70:
 1159 0398 0028     		cmp	r0, #0
 1160 039a 00F09080 		beq	.L68
 171:main.c        ****             if(TiempoControl>=Derivativo){
 1161              		.loc 1 171 0 is_stmt 1
 1162 039e 3649     		ldr	r1, .L109+112
 1163 03a0 364B     		ldr	r3, .L109+116
 1164 03a2 1868     		ldr	r0, [r3]	@ float
 1165 03a4 FFF7FEFF 		bl	__aeabi_fcmplt
 1166              	.LVL71:
 1167 03a8 0028     		cmp	r0, #0
 1168 03aa 00F08880 		beq	.L68
 172:main.c        ****                TiempoControl=0;
 1169              		.loc 1 172 0
 1170 03ae 344B     		ldr	r3, .L109+120
ARM GAS  C:\Users\JPELEC~1\AppData\Local\Temp\ccEetrge.s 			page 37


 1171 03b0 1A78     		ldrb	r2, [r3]	@ zero_extendqisi2
 1172 03b2 344B     		ldr	r3, .L109+124
 1173 03b4 1B88     		ldrh	r3, [r3]
 1174 03b6 9A42     		cmp	r2, r3
 1175 03b8 00F28180 		bhi	.L68
 173:main.c        ****                if(Aumento<-2){
 1176              		.loc 1 173 0
 1177 03bc 0022     		movs	r2, #0
 1178 03be 314B     		ldr	r3, .L109+124
 1179 03c0 1A80     		strh	r2, [r3]	@ movhi
 174:main.c        ****                   Ganancia+=Integral+1;
 1180              		.loc 1 174 0
 1181 03c2 4FF04041 		mov	r1, #-1073741824
 1182 03c6 2846     		mov	r0, r5
 1183 03c8 FFF7FEFF 		bl	__aeabi_fcmplt
 1184              	.LVL72:
 1185 03cc 50B1     		cbz	r0, .L104
 175:main.c        ****                }else{
 1186              		.loc 1 175 0
 1187 03ce 2E4B     		ldr	r3, .L109+128
 1188 03d0 1878     		ldrb	r0, [r3]	@ zero_extendqisi2
 1189 03d2 2E4D     		ldr	r5, .L109+132
 1190 03d4 0130     		adds	r0, r0, #1
 1191 03d6 FFF7FEFF 		bl	__aeabi_i2f
 1192              	.LVL73:
 1193 03da 2968     		ldr	r1, [r5]	@ float
 1194 03dc FFF7FEFF 		bl	__aeabi_fadd
 1195              	.LVL74:
 1196 03e0 2860     		str	r0, [r5]	@ float
 1197 03e2 6CE0     		b	.L68
 1198              	.L104:
 177:main.c        ****                      Ganancia+=Integral;
 1199              		.loc 1 177 0
 1200 03e4 2A49     		ldr	r1, .L109+136
 1201 03e6 2846     		mov	r0, r5
 1202 03e8 FFF7FEFF 		bl	__aeabi_fcmplt
 1203              	.LVL75:
 1204 03ec 0028     		cmp	r0, #0
 1205 03ee 51D0     		beq	.L105
 178:main.c        ****                   }else{
 1206              		.loc 1 178 0
 1207 03f0 264D     		ldr	r5, .L109+132
 1208 03f2 254B     		ldr	r3, .L109+128
 1209 03f4 1878     		ldrb	r0, [r3]	@ zero_extendqisi2
 1210 03f6 FFF7FEFF 		bl	__aeabi_i2f
 1211              	.LVL76:
 1212 03fa 2968     		ldr	r1, [r5]	@ float
 1213 03fc FFF7FEFF 		bl	__aeabi_fadd
 1214              	.LVL77:
 1215 0400 2860     		str	r0, [r5]	@ float
 1216 0402 5CE0     		b	.L68
 1217              	.L110:
 1218 0404 AFF30080 		.align	3
 1219              	.L109:
 1220 0408 CDCCCCCC 		.word	-858993459
 1221 040c CCCCEC3F 		.word	1072483532
 1222 0410 9A999999 		.word	-1717986918
ARM GAS  C:\Users\JPELEC~1\AppData\Local\Temp\ccEetrge.s 			page 38


 1223 0414 9999E93F 		.word	1072273817
 1224 0418 66666666 		.word	1717986918
 1225 041c 6666E63F 		.word	1072064102
 1226 0420 33333333 		.word	858993459
 1227 0424 3333E33F 		.word	1071854387
 1228 0428 00000000 		.word	Programa
 1229 042c 00000000 		.word	Programas
 1230 0430 00000000 		.word	TemperaturaIdeal
 1231 0434 00000000 		.word	Temperatura
 1232 0438 0000C842 		.word	1120403456
 1233 043c 00000000 		.word	.LANCHOR1
 1234 0440 00000000 		.word	PotenciaEntregada
 1235 0444 0000E143 		.word	1138819072
 1236 0448 00004843 		.word	1128792064
 1237 044c 00000000 		.word	penInicial
 1238 0450 00001644 		.word	1142292480
 1239 0454 00006144 		.word	1147207680
 1240 0458 00009644 		.word	1150681088
 1241 045c 00000000 		.word	Tciclo
 1242 0460 00000000 		.word	Tpulso
 1243 0464 00000000 		.word	Setpoint
 1244 0468 00000840 		.word	1074266112
 1245 046c 00000000 		.word	error
 1246 0470 00004040 		.word	1077936128
 1247 0474 00000000 		.word	Aumento
 1248 0478 0000B442 		.word	1119092736
 1249 047c 00000000 		.word	Potencia
 1250 0480 00000000 		.word	Derivativo
 1251 0484 00000000 		.word	TiempoControl
 1252 0488 00000000 		.word	Integral
 1253 048c 00000000 		.word	Ganancia
 1254 0490 000080BF 		.word	-1082130432
 1255              	.L105:
 180:main.c        ****                   }
 1256              		.loc 1 180 0
 1257 0494 3A4B     		ldr	r3, .L111+8
 1258 0496 1878     		ldrb	r0, [r3]	@ zero_extendqisi2
 1259 0498 FFF7FEFF 		bl	__aeabi_i2d
 1260              	.LVL78:
 1261 049c 0022     		movs	r2, #0
 1262 049e 394B     		ldr	r3, .L111+12
 1263 04a0 FFF7FEFF 		bl	__aeabi_dsub
 1264              	.LVL79:
 1265 04a4 8046     		mov	r8, r0
 1266 04a6 8946     		mov	r9, r1
 1267 04a8 374D     		ldr	r5, .L111+16
 1268 04aa 2868     		ldr	r0, [r5]	@ float
 1269 04ac FFF7FEFF 		bl	__aeabi_f2d
 1270              	.LVL80:
 1271 04b0 4246     		mov	r2, r8
 1272 04b2 4B46     		mov	r3, r9
 1273 04b4 FFF7FEFF 		bl	__aeabi_dadd
 1274              	.LVL81:
 1275 04b8 FFF7FEFF 		bl	__aeabi_d2f
 1276              	.LVL82:
 1277 04bc 2860     		str	r0, [r5]	@ float
 1278              	.L68:
ARM GAS  C:\Users\JPELEC~1\AppData\Local\Temp\ccEetrge.s 			page 39


 187:main.c        ****          Ganancia=0.5;
 1279              		.loc 1 187 0
 1280 04be 4FF07C51 		mov	r1, #1056964608
 1281 04c2 314B     		ldr	r3, .L111+16
 1282 04c4 1868     		ldr	r0, [r3]	@ float
 1283 04c6 FFF7FEFF 		bl	__aeabi_fcmplt
 1284              	.LVL83:
 1285 04ca 18B1     		cbz	r0, .L76
 188:main.c        ****       }
 1286              		.loc 1 188 0
 1287 04cc 4FF07C52 		mov	r2, #1056964608
 1288 04d0 2D4B     		ldr	r3, .L111+16
 1289 04d2 1A60     		str	r2, [r3]	@ float
 1290              	.L76:
 192:main.c        ****          error=0.0;
 1291              		.loc 1 192 0
 1292 04d4 0021     		movs	r1, #0
 1293 04d6 2046     		mov	r0, r4
 1294 04d8 FFF7FEFF 		bl	__aeabi_fcmplt
 1295              	.LVL84:
 1296 04dc 10B1     		cbz	r0, .L78
 193:main.c        ****    
 1297              		.loc 1 193 0
 1298 04de 0022     		movs	r2, #0
 1299 04e0 2A4B     		ldr	r3, .L111+20
 1300 04e2 1A60     		str	r2, [r3]	@ float
 1301              	.L78:
 195:main.c        ****             
 1302              		.loc 1 195 0
 1303 04e4 284B     		ldr	r3, .L111+16
 1304 04e6 1968     		ldr	r1, [r3]	@ float
 1305 04e8 284B     		ldr	r3, .L111+20
 1306 04ea 1868     		ldr	r0, [r3]	@ float
 1307 04ec FFF7FEFF 		bl	__aeabi_fmul
 1308              	.LVL85:
 1309 04f0 0446     		mov	r4, r0
 1310              	.LVL86:
 197:main.c        ****          tmp=Setpoint;
 1311              		.loc 1 197 0
 1312 04f2 3046     		mov	r0, r6
 1313              	.LVL87:
 1314 04f4 FFF7FEFF 		bl	__aeabi_i2f
 1315              	.LVL88:
 1316 04f8 0546     		mov	r5, r0
 1317 04fa 0146     		mov	r1, r0
 1318 04fc 2046     		mov	r0, r4
 1319 04fe FFF7FEFF 		bl	__aeabi_fcmpgt
 1320              	.LVL89:
 1321 0502 18B1     		cbz	r0, .L80
 198:main.c        ****                   
 1322              		.loc 1 198 0
 1323 0504 3046     		mov	r0, r6
 1324 0506 FFF7FEFF 		bl	__aeabi_ui2f
 1325              	.LVL90:
 1326 050a 0446     		mov	r4, r0
 1327              	.LVL91:
 1328              	.L80:
ARM GAS  C:\Users\JPELEC~1\AppData\Local\Temp\ccEetrge.s 			page 40


 200:main.c        ****          tmp=0.0;
 1329              		.loc 1 200 0
 1330 050c 0021     		movs	r1, #0
 1331 050e 2046     		mov	r0, r4
 1332 0510 FFF7FEFF 		bl	__aeabi_fcmplt
 1333              	.LVL92:
 1334 0514 00B1     		cbz	r0, .L82
 201:main.c        ****       
 1335              		.loc 1 201 0
 1336 0516 0024     		movs	r4, #0
 1337              	.LVL93:
 1338              	.L82:
 205:main.c        ****       
 1339              		.loc 1 205 0
 1340 0518 2946     		mov	r1, r5
 1341 051a 2046     		mov	r0, r4
 1342 051c FFF7FEFF 		bl	__aeabi_fdiv
 1343              	.LVL94:
 1344 0520 0446     		mov	r4, r0
 1345              	.LVL95:
 1346 0522 1B4B     		ldr	r3, .L111+24
 1347 0524 1878     		ldrb	r0, [r3]	@ zero_extendqisi2
 1348 0526 FFF7FEFF 		bl	__aeabi_i2f
 1349              	.LVL96:
 1350 052a 2146     		mov	r1, r4
 1351 052c FFF7FEFF 		bl	__aeabi_fmul
 1352              	.LVL97:
 1353 0530 184B     		ldr	r3, .L111+28
 1354 0532 1860     		str	r0, [r3]	@ float
 1355              	.L67:
 208:main.c        ****    Tc=(Tciclo/0.002);
 1356              		.loc 1 208 0
 1357 0534 174B     		ldr	r3, .L111+28
 1358 0536 1868     		ldr	r0, [r3]	@ float
 1359 0538 FFF7FEFF 		bl	__aeabi_f2d
 1360              	.LVL98:
 1361 053c 0EA3     		adr	r3, .L111
 1362 053e D3E90023 		ldrd	r2, [r3]
 1363 0542 FFF7FEFF 		bl	__aeabi_ddiv
 1364              	.LVL99:
 1365 0546 FFF7FEFF 		bl	__aeabi_d2uiz
 1366              	.LVL100:
 1367 054a 134B     		ldr	r3, .L111+32
 1368 054c 1880     		strh	r0, [r3]	@ movhi
 209:main.c        ****    Control=1;     
 1369              		.loc 1 209 0
 1370 054e 104B     		ldr	r3, .L111+24
 1371 0550 1878     		ldrb	r0, [r3]	@ zero_extendqisi2
 1372 0552 FFF7FEFF 		bl	__aeabi_i2d
 1373              	.LVL101:
 1374 0556 08A3     		adr	r3, .L111
 1375 0558 D3E90023 		ldrd	r2, [r3]
 1376 055c FFF7FEFF 		bl	__aeabi_ddiv
 1377              	.LVL102:
 1378 0560 FFF7FEFF 		bl	__aeabi_d2uiz
 1379              	.LVL103:
 1380 0564 0D4B     		ldr	r3, .L111+36
ARM GAS  C:\Users\JPELEC~1\AppData\Local\Temp\ccEetrge.s 			page 41


 1381 0566 1880     		strh	r0, [r3]	@ movhi
 210:main.c        **** //-------------------------------------------------------------------------------------------------
 1382              		.loc 1 210 0
 1383 0568 0122     		movs	r2, #1
 1384 056a 0D4B     		ldr	r3, .L111+40
 1385 056c 1A80     		strh	r2, [r3]	@ movhi
 213:main.c        **** 
 1386              		.loc 1 213 0
 1387 056e 03B0     		add	sp, sp, #12
 1388              		.cfi_def_cfa_offset 36
 1389              		@ sp needed
 1390 0570 BDE8F08F 		pop	{r4, r5, r6, r7, r8, r9, r10, fp, pc}
 1391              	.L112:
 1392 0574 AFF30080 		.align	3
 1393              	.L111:
 1394 0578 FCA9F1D2 		.word	-755914244
 1395 057c 4D62603F 		.word	1063281229
 1396 0580 00000000 		.word	Integral
 1397 0584 0000E03F 		.word	1071644672
 1398 0588 00000000 		.word	Ganancia
 1399 058c 00000000 		.word	error
 1400 0590 00000000 		.word	Tciclo
 1401 0594 00000000 		.word	Tpulso
 1402 0598 00000000 		.word	Tp
 1403 059c 00000000 		.word	Tc
 1404 05a0 00000000 		.word	Control
 1405              		.cfi_endproc
 1406              	.LFE66:
 1407              		.size	Controla, .-Controla
 1408              		.section	.text.CuentaTiempo,"ax",%progbits
 1409              		.align	2
 1410              		.global	CuentaTiempo
 1411              		.thumb
 1412              		.thumb_func
 1413              		.type	CuentaTiempo, %function
 1414              	CuentaTiempo:
 1415              	.LFB67:
 215:main.c        ****       if(tinicio>=60){
 1416              		.loc 1 215 0
 1417              		.cfi_startproc
 1418              		@ args = 0, pretend = 0, frame = 0
 1419              		@ frame_needed = 0, uses_anonymous_args = 0
 216:main.c        ****          tinicio=0;
 1420              		.loc 1 216 0
 1421 0000 124B     		ldr	r3, .L117
 1422 0002 1B88     		ldrh	r3, [r3]
 1423 0004 3B2B     		cmp	r3, #59
 1424 0006 1FD9     		bls	.L116
 215:main.c        ****       if(tinicio>=60){
 1425              		.loc 1 215 0
 1426 0008 10B5     		push	{r4, lr}
 1427              		.cfi_def_cfa_offset 8
 1428              		.cfi_offset 4, -8
 1429              		.cfi_offset 14, -4
 217:main.c        ****          mEst+=1.0;
 1430              		.loc 1 217 0
 1431 000a 0022     		movs	r2, #0
ARM GAS  C:\Users\JPELEC~1\AppData\Local\Temp\ccEetrge.s 			page 42


 1432 000c 0F4B     		ldr	r3, .L117
 1433 000e 1A80     		strh	r2, [r3]	@ movhi
 218:main.c        ****          if(mEst>59){
 1434              		.loc 1 218 0
 1435 0010 0F4C     		ldr	r4, .L117+4
 1436 0012 2078     		ldrb	r0, [r4]	@ zero_extendqisi2
 1437 0014 FFF7FEFF 		bl	__aeabi_i2d
 1438              	.LVL104:
 1439 0018 0022     		movs	r2, #0
 1440 001a 0E4B     		ldr	r3, .L117+8
 1441 001c FFF7FEFF 		bl	__aeabi_dadd
 1442              	.LVL105:
 1443 0020 FFF7FEFF 		bl	__aeabi_d2uiz
 1444              	.LVL106:
 1445 0024 C0B2     		uxtb	r0, r0
 1446 0026 2070     		strb	r0, [r4]
 219:main.c        ****             mEst=0;
 1447              		.loc 1 219 0
 1448 0028 3B28     		cmp	r0, #59
 1449 002a 0CD9     		bls	.L113
 220:main.c        ****             hEst+=1.0;
 1450              		.loc 1 220 0
 1451 002c 0022     		movs	r2, #0
 1452 002e 2270     		strb	r2, [r4]
 221:main.c        ****          }
 1453              		.loc 1 221 0
 1454 0030 094C     		ldr	r4, .L117+12
 1455 0032 2078     		ldrb	r0, [r4]	@ zero_extendqisi2
 1456 0034 FFF7FEFF 		bl	__aeabi_i2d
 1457              	.LVL107:
 1458 0038 0022     		movs	r2, #0
 1459 003a 064B     		ldr	r3, .L117+8
 1460 003c FFF7FEFF 		bl	__aeabi_dadd
 1461              	.LVL108:
 1462 0040 FFF7FEFF 		bl	__aeabi_d2uiz
 1463              	.LVL109:
 1464 0044 2070     		strb	r0, [r4]
 1465              	.L113:
 1466 0046 10BD     		pop	{r4, pc}
 1467              	.L116:
 1468              		.cfi_def_cfa_offset 0
 1469              		.cfi_restore 4
 1470              		.cfi_restore 14
 1471 0048 7047     		bx	lr
 1472              	.L118:
 1473 004a 00BF     		.align	2
 1474              	.L117:
 1475 004c 00000000 		.word	tinicio
 1476 0050 00000000 		.word	mEst
 1477 0054 0000F03F 		.word	1072693248
 1478 0058 00000000 		.word	hEst
 1479              		.cfi_endproc
 1480              	.LFE67:
 1481              		.size	CuentaTiempo, .-CuentaTiempo
 1482              		.section	.text.iniciaConteo,"ax",%progbits
 1483              		.align	2
 1484              		.global	iniciaConteo
ARM GAS  C:\Users\JPELEC~1\AppData\Local\Temp\ccEetrge.s 			page 43


 1485              		.thumb
 1486              		.thumb_func
 1487              		.type	iniciaConteo, %function
 1488              	iniciaConteo:
 1489              	.LFB68:
 226:main.c        ****    if(Pendiente!=0){
 1490              		.loc 1 226 0
 1491              		.cfi_startproc
 1492              		@ args = 0, pretend = 0, frame = 0
 1493              		@ frame_needed = 0, uses_anonymous_args = 0
 1494 0000 10B5     		push	{r4, lr}
 1495              		.cfi_def_cfa_offset 8
 1496              		.cfi_offset 4, -8
 1497              		.cfi_offset 14, -4
 227:main.c        ****         if(flagRampa)
 1498              		.loc 1 227 0
 1499 0002 144B     		ldr	r3, .L130
 1500 0004 1C68     		ldr	r4, [r3]	@ float
 1501 0006 0021     		movs	r1, #0
 1502 0008 2046     		mov	r0, r4
 1503 000a FFF7FEFF 		bl	__aeabi_fcmpeq
 1504              	.LVL110:
 1505 000e 58B9     		cbnz	r0, .L128
 228:main.c        ****             tiempo_esterilizacion=1;
 1506              		.loc 1 228 0
 1507 0010 114B     		ldr	r3, .L130+4
 1508 0012 B3F90030 		ldrsh	r3, [r3]
 1509 0016 1BB1     		cbz	r3, .L122
 229:main.c        ****         else
 1510              		.loc 1 229 0
 1511 0018 0122     		movs	r2, #1
 1512 001a 104B     		ldr	r3, .L130+8
 1513 001c 1A70     		strb	r2, [r3]
 1514 001e 10BD     		pop	{r4, pc}
 1515              	.L122:
 231:main.c        ****    }else if(Pendiente==0){
 1516              		.loc 1 231 0
 1517 0020 0022     		movs	r2, #0
 1518 0022 0E4B     		ldr	r3, .L130+8
 1519 0024 1A70     		strb	r2, [r3]
 1520 0026 10BD     		pop	{r4, pc}
 1521              	.L128:
 232:main.c        ****       if(flagTemperatura && flagRampa)
 1522              		.loc 1 232 0
 1523 0028 0021     		movs	r1, #0
 1524 002a 2046     		mov	r0, r4
 1525 002c FFF7FEFF 		bl	__aeabi_fcmpeq
 1526              	.LVL111:
 1527 0030 70B1     		cbz	r0, .L119
 233:main.c        ****          tiempo_esterilizacion=1;
 1528              		.loc 1 233 0
 1529 0032 0B4B     		ldr	r3, .L130+12
 1530 0034 B3F90030 		ldrsh	r3, [r3]
 1531 0038 3BB1     		cbz	r3, .L125
 233:main.c        ****          tiempo_esterilizacion=1;
 1532              		.loc 1 233 0 is_stmt 0 discriminator 1
 1533 003a 074B     		ldr	r3, .L130+4
ARM GAS  C:\Users\JPELEC~1\AppData\Local\Temp\ccEetrge.s 			page 44


 1534 003c B3F90030 		ldrsh	r3, [r3]
 1535 0040 1BB1     		cbz	r3, .L125
 234:main.c        ****       else
 1536              		.loc 1 234 0 is_stmt 1
 1537 0042 0122     		movs	r2, #1
 1538 0044 054B     		ldr	r3, .L130+8
 1539 0046 1A70     		strb	r2, [r3]
 1540 0048 10BD     		pop	{r4, pc}
 1541              	.L125:
 236:main.c        ****    }
 1542              		.loc 1 236 0
 1543 004a 0022     		movs	r2, #0
 1544 004c 034B     		ldr	r3, .L130+8
 1545 004e 1A70     		strb	r2, [r3]
 1546              	.L119:
 1547 0050 10BD     		pop	{r4, pc}
 1548              	.L131:
 1549 0052 00BF     		.align	2
 1550              	.L130:
 1551 0054 00000000 		.word	Pendiente
 1552 0058 00000000 		.word	flagRampa
 1553 005c 00000000 		.word	tiempo_esterilizacion
 1554 0060 00000000 		.word	flagTemperatura
 1555              		.cfi_endproc
 1556              	.LFE68:
 1557              		.size	iniciaConteo, .-iniciaConteo
 1558              		.section	.text.escribeDisplay1,"ax",%progbits
 1559              		.align	2
 1560              		.global	escribeDisplay1
 1561              		.thumb
 1562              		.thumb_func
 1563              		.type	escribeDisplay1, %function
 1564              	escribeDisplay1:
 1565              	.LFB69:
 240:main.c        ****     UART_1_PutString(Buffer);
 1566              		.loc 1 240 0
 1567              		.cfi_startproc
 1568              		@ args = 0, pretend = 0, frame = 0
 1569              		@ frame_needed = 0, uses_anonymous_args = 0
 1570              	.LVL112:
 1571 0000 08B5     		push	{r3, lr}
 1572              		.cfi_def_cfa_offset 8
 1573              		.cfi_offset 3, -8
 1574              		.cfi_offset 14, -4
 241:main.c        ****     CyDelayUs(10);
 1575              		.loc 1 241 0
 1576 0002 FFF7FEFF 		bl	UART_1_PutString
 1577              	.LVL113:
 242:main.c        ****     UART_1_PutChar(0xFF);
 1578              		.loc 1 242 0
 1579 0006 0A20     		movs	r0, #10
 1580 0008 FFF7FEFF 		bl	CyDelayUs
 1581              	.LVL114:
 243:main.c        ****     CyDelayUs(10);
 1582              		.loc 1 243 0
 1583 000c FF20     		movs	r0, #255
 1584 000e FFF7FEFF 		bl	UART_1_PutChar
ARM GAS  C:\Users\JPELEC~1\AppData\Local\Temp\ccEetrge.s 			page 45


 1585              	.LVL115:
 244:main.c        ****     UART_1_PutChar(0xFF);
 1586              		.loc 1 244 0
 1587 0012 0A20     		movs	r0, #10
 1588 0014 FFF7FEFF 		bl	CyDelayUs
 1589              	.LVL116:
 245:main.c        ****     CyDelayUs(10);
 1590              		.loc 1 245 0
 1591 0018 FF20     		movs	r0, #255
 1592 001a FFF7FEFF 		bl	UART_1_PutChar
 1593              	.LVL117:
 246:main.c        ****     UART_1_PutChar(0xFF);
 1594              		.loc 1 246 0
 1595 001e 0A20     		movs	r0, #10
 1596 0020 FFF7FEFF 		bl	CyDelayUs
 1597              	.LVL118:
 247:main.c        ****     CyDelayUs(10);
 1598              		.loc 1 247 0
 1599 0024 FF20     		movs	r0, #255
 1600 0026 FFF7FEFF 		bl	UART_1_PutChar
 1601              	.LVL119:
 248:main.c        **** }
 1602              		.loc 1 248 0
 1603 002a 0A20     		movs	r0, #10
 1604 002c FFF7FEFF 		bl	CyDelayUs
 1605              	.LVL120:
 1606 0030 08BD     		pop	{r3, pc}
 1607              		.cfi_endproc
 1608              	.LFE69:
 1609              		.size	escribeDisplay1, .-escribeDisplay1
 1610 0032 00BF     		.section	.text.escribeDisplay2,"ax",%progbits
 1611              		.align	2
 1612              		.global	escribeDisplay2
 1613              		.thumb
 1614              		.thumb_func
 1615              		.type	escribeDisplay2, %function
 1616              	escribeDisplay2:
 1617              	.LFB70:
 251:main.c        ****     UART_2_PutString(Buffer);
 1618              		.loc 1 251 0
 1619              		.cfi_startproc
 1620              		@ args = 0, pretend = 0, frame = 0
 1621              		@ frame_needed = 0, uses_anonymous_args = 0
 1622              	.LVL121:
 1623 0000 08B5     		push	{r3, lr}
 1624              		.cfi_def_cfa_offset 8
 1625              		.cfi_offset 3, -8
 1626              		.cfi_offset 14, -4
 252:main.c        ****     CyDelayUs(10);
 1627              		.loc 1 252 0
 1628 0002 FFF7FEFF 		bl	UART_2_PutString
 1629              	.LVL122:
 253:main.c        ****     UART_2_PutChar(0xFF);
 1630              		.loc 1 253 0
 1631 0006 0A20     		movs	r0, #10
 1632 0008 FFF7FEFF 		bl	CyDelayUs
 1633              	.LVL123:
ARM GAS  C:\Users\JPELEC~1\AppData\Local\Temp\ccEetrge.s 			page 46


 254:main.c        ****     CyDelayUs(10);
 1634              		.loc 1 254 0
 1635 000c FF20     		movs	r0, #255
 1636 000e FFF7FEFF 		bl	UART_2_PutChar
 1637              	.LVL124:
 255:main.c        ****     UART_2_PutChar(0xFF);
 1638              		.loc 1 255 0
 1639 0012 0A20     		movs	r0, #10
 1640 0014 FFF7FEFF 		bl	CyDelayUs
 1641              	.LVL125:
 256:main.c        ****     CyDelayUs(10);
 1642              		.loc 1 256 0
 1643 0018 FF20     		movs	r0, #255
 1644 001a FFF7FEFF 		bl	UART_2_PutChar
 1645              	.LVL126:
 257:main.c        ****     UART_2_PutChar(0xFF);
 1646              		.loc 1 257 0
 1647 001e 0A20     		movs	r0, #10
 1648 0020 FFF7FEFF 		bl	CyDelayUs
 1649              	.LVL127:
 258:main.c        ****     CyDelayUs(10);
 1650              		.loc 1 258 0
 1651 0024 FF20     		movs	r0, #255
 1652 0026 FFF7FEFF 		bl	UART_2_PutChar
 1653              	.LVL128:
 259:main.c        **** }
 1654              		.loc 1 259 0
 1655 002a 0A20     		movs	r0, #10
 1656 002c FFF7FEFF 		bl	CyDelayUs
 1657              	.LVL129:
 1658 0030 08BD     		pop	{r3, pc}
 1659              		.cfi_endproc
 1660              	.LFE70:
 1661              		.size	escribeDisplay2, .-escribeDisplay2
 1662              		.global	__aeabi_dcmplt
 1663 0032 00BF     		.section	.text.dibujaGrafico,"ax",%progbits
 1664              		.align	2
 1665              		.global	dibujaGrafico
 1666              		.thumb
 1667              		.thumb_func
 1668              		.type	dibujaGrafico, %function
 1669              	dibujaGrafico:
 1670              	.LFB71:
 262:main.c        ****              
 1671              		.loc 1 262 0
 1672              		.cfi_startproc
 1673              		@ args = 0, pretend = 0, frame = 0
 1674              		@ frame_needed = 0, uses_anonymous_args = 0
 1675 0000 10B5     		push	{r4, lr}
 1676              		.cfi_def_cfa_offset 8
 1677              		.cfi_offset 4, -8
 1678              		.cfi_offset 14, -4
 265:main.c        ****                 b=Temperatura;
 1679              		.loc 1 265 0
 1680 0002 9F4B     		ldr	r3, .L185+8
 1681 0004 1B78     		ldrb	r3, [r3]	@ zero_extendqisi2
 1682 0006 013B     		subs	r3, r3, #1
ARM GAS  C:\Users\JPELEC~1\AppData\Local\Temp\ccEetrge.s 			page 47


 1683 0008 03EB8303 		add	r3, r3, r3, lsl #2
 1684 000c 5A01     		lsls	r2, r3, #5
 1685 000e 9D4B     		ldr	r3, .L185+12
 1686 0010 1A44     		add	r2, r2, r3
 1687 0012 9D4B     		ldr	r3, .L185+16
 1688 0014 1C68     		ldr	r4, [r3]	@ float
 1689 0016 D088     		ldrh	r0, [r2, #6]
 1690 0018 FFF7FEFF 		bl	__aeabi_i2f
 1691              	.LVL130:
 1692 001c 2146     		mov	r1, r4
 1693 001e FFF7FEFF 		bl	__aeabi_fsub
 1694              	.LVL131:
 1695 0022 9A49     		ldr	r1, .L185+20
 1696 0024 FFF7FEFF 		bl	__aeabi_fdiv
 1697              	.LVL132:
 1698 0028 994B     		ldr	r3, .L185+24
 1699 002a 1860     		str	r0, [r3]	@ float
 266:main.c        ****                 
 1700              		.loc 1 266 0
 1701 002c 994B     		ldr	r3, .L185+28
 1702 002e 1C60     		str	r4, [r3]	@ float
 268:main.c        ****                     valor=(pendiente*n)+b;
 1703              		.loc 1 268 0
 1704 0030 0022     		movs	r2, #0
 1705 0032 994B     		ldr	r3, .L185+32
 1706 0034 1A70     		strb	r2, [r3]
 1707 0036 25E0     		b	.L137
 1708              	.L138:
 269:main.c        ****                     sprintf(displayStr,"add 1,0,%u",(uint8)(valor*DIVISION));
 1709              		.loc 1 269 0 discriminator 3
 1710 0038 2046     		mov	r0, r4
 1711 003a FFF7FEFF 		bl	__aeabi_i2f
 1712              	.LVL133:
 1713 003e 944B     		ldr	r3, .L185+24
 1714 0040 1968     		ldr	r1, [r3]	@ float
 1715 0042 FFF7FEFF 		bl	__aeabi_fmul
 1716              	.LVL134:
 1717 0046 934B     		ldr	r3, .L185+28
 1718 0048 1968     		ldr	r1, [r3]	@ float
 1719 004a FFF7FEFF 		bl	__aeabi_fadd
 1720              	.LVL135:
 1721 004e 934B     		ldr	r3, .L185+36
 1722 0050 1860     		str	r0, [r3]	@ float
 270:main.c        ****                     escribeDisplay1(displayStr);  
 1723              		.loc 1 270 0 discriminator 3
 1724 0052 FFF7FEFF 		bl	__aeabi_f2d
 1725              	.LVL136:
 1726 0056 88A3     		adr	r3, .L185
 1727 0058 D3E90023 		ldrd	r2, [r3]
 1728 005c FFF7FEFF 		bl	__aeabi_dmul
 1729              	.LVL137:
 1730 0060 FFF7FEFF 		bl	__aeabi_d2uiz
 1731              	.LVL138:
 1732 0064 8E4C     		ldr	r4, .L185+40
 1733 0066 C2B2     		uxtb	r2, r0
 1734 0068 8E49     		ldr	r1, .L185+44
 1735 006a 2046     		mov	r0, r4
ARM GAS  C:\Users\JPELEC~1\AppData\Local\Temp\ccEetrge.s 			page 48


 1736 006c FFF7FEFF 		bl	sprintf
 1737              	.LVL139:
 271:main.c        ****                     CyDelayUs(1);
 1738              		.loc 1 271 0 discriminator 3
 1739 0070 2046     		mov	r0, r4
 1740 0072 FFF7FEFF 		bl	escribeDisplay1
 1741              	.LVL140:
 272:main.c        ****                 }  
 1742              		.loc 1 272 0 discriminator 3
 1743 0076 0120     		movs	r0, #1
 1744 0078 FFF7FEFF 		bl	CyDelayUs
 1745              	.LVL141:
 268:main.c        ****                     valor=(pendiente*n)+b;
 1746              		.loc 1 268 0 discriminator 3
 1747 007c 864A     		ldr	r2, .L185+32
 1748 007e 1378     		ldrb	r3, [r2]	@ zero_extendqisi2
 1749 0080 0133     		adds	r3, r3, #1
 1750 0082 1370     		strb	r3, [r2]
 1751              	.L137:
 268:main.c        ****                     valor=(pendiente*n)+b;
 1752              		.loc 1 268 0 is_stmt 0 discriminator 1
 1753 0084 844B     		ldr	r3, .L185+32
 1754 0086 1C78     		ldrb	r4, [r3]	@ zero_extendqisi2
 1755 0088 2046     		mov	r0, r4
 1756 008a FFF7FEFF 		bl	__aeabi_i2d
 1757              	.LVL142:
 1758 008e 0022     		movs	r2, #0
 1759 0090 854B     		ldr	r3, .L185+48
 1760 0092 FFF7FEFF 		bl	__aeabi_dcmplt
 1761              	.LVL143:
 1762 0096 0028     		cmp	r0, #0
 1763 0098 CED1     		bne	.L138
 276:main.c        ****                     pendiente=(float)(Programas[Programa-1].rampas[1].Temperatura-Programas[Program
 1764              		.loc 1 276 0 is_stmt 1
 1765 009a 794B     		ldr	r3, .L185+8
 1766 009c 1B78     		ldrb	r3, [r3]	@ zero_extendqisi2
 1767 009e 013B     		subs	r3, r3, #1
 1768 00a0 03EB8301 		add	r1, r3, r3, lsl #2
 1769 00a4 4A01     		lsls	r2, r1, #5
 1770 00a6 7749     		ldr	r1, .L185+12
 1771 00a8 0A44     		add	r2, r2, r1
 1772 00aa D27A     		ldrb	r2, [r2, #11]	@ zero_extendqisi2
 1773 00ac 32B9     		cbnz	r2, .L139
 276:main.c        ****                     pendiente=(float)(Programas[Programa-1].rampas[1].Temperatura-Programas[Program
 1774              		.loc 1 276 0 is_stmt 0 discriminator 1
 1775 00ae 03EB8301 		add	r1, r3, r3, lsl #2
 1776 00b2 4A01     		lsls	r2, r1, #5
 1777 00b4 7349     		ldr	r1, .L185+12
 1778 00b6 0A44     		add	r2, r2, r1
 1779 00b8 127B     		ldrb	r2, [r2, #12]	@ zero_extendqisi2
 1780 00ba A2B1     		cbz	r2, .L140
 1781              	.L139:
 277:main.c        ****                     b=Programas[Programa-1].rampas[0].Temperatura;
 1782              		.loc 1 277 0 is_stmt 1
 1783 00bc 714C     		ldr	r4, .L185+12
 1784 00be 9A00     		lsls	r2, r3, #2
 1785 00c0 D018     		adds	r0, r2, r3
ARM GAS  C:\Users\JPELEC~1\AppData\Local\Temp\ccEetrge.s 			page 49


 1786 00c2 4101     		lsls	r1, r0, #5
 1787 00c4 2144     		add	r1, r1, r4
 1788 00c6 C889     		ldrh	r0, [r1, #14]
 1789 00c8 CC88     		ldrh	r4, [r1, #6]
 1790 00ca 001B     		subs	r0, r0, r4
 1791 00cc FFF7FEFF 		bl	__aeabi_i2f
 1792              	.LVL144:
 1793 00d0 6E49     		ldr	r1, .L185+20
 1794 00d2 FFF7FEFF 		bl	__aeabi_fdiv
 1795              	.LVL145:
 1796 00d6 6E4B     		ldr	r3, .L185+24
 1797 00d8 1860     		str	r0, [r3]	@ float
 278:main.c        ****                 }else{
 1798              		.loc 1 278 0
 1799 00da 2046     		mov	r0, r4
 1800 00dc FFF7FEFF 		bl	__aeabi_ui2f
 1801              	.LVL146:
 1802 00e0 6C4B     		ldr	r3, .L185+28
 1803 00e2 1860     		str	r0, [r3]	@ float
 1804 00e4 04E0     		b	.L141
 1805              	.L140:
 280:main.c        ****                     b=0;
 1806              		.loc 1 280 0
 1807 00e6 0023     		movs	r3, #0
 1808 00e8 694A     		ldr	r2, .L185+24
 1809 00ea 1360     		str	r3, [r2]	@ float
 281:main.c        ****                 }
 1810              		.loc 1 281 0
 1811 00ec 694A     		ldr	r2, .L185+28
 1812 00ee 1360     		str	r3, [r2]	@ float
 1813              	.L141:
 283:main.c        ****                     valor=(pendiente*n)+b;
 1814              		.loc 1 283 0
 1815 00f0 0022     		movs	r2, #0
 1816 00f2 694B     		ldr	r3, .L185+32
 1817 00f4 1A70     		strb	r2, [r3]
 1818 00f6 25E0     		b	.L142
 1819              	.L143:
 284:main.c        ****                     sprintf(displayStr,"add 1,0,%u",(uint8)(valor*DIVISION));
 1820              		.loc 1 284 0 discriminator 3
 1821 00f8 2046     		mov	r0, r4
 1822 00fa FFF7FEFF 		bl	__aeabi_i2f
 1823              	.LVL147:
 1824 00fe 644B     		ldr	r3, .L185+24
 1825 0100 1968     		ldr	r1, [r3]	@ float
 1826 0102 FFF7FEFF 		bl	__aeabi_fmul
 1827              	.LVL148:
 1828 0106 634B     		ldr	r3, .L185+28
 1829 0108 1968     		ldr	r1, [r3]	@ float
 1830 010a FFF7FEFF 		bl	__aeabi_fadd
 1831              	.LVL149:
 1832 010e 634B     		ldr	r3, .L185+36
 1833 0110 1860     		str	r0, [r3]	@ float
 285:main.c        ****                     escribeDisplay1(displayStr);  
 1834              		.loc 1 285 0 discriminator 3
 1835 0112 FFF7FEFF 		bl	__aeabi_f2d
 1836              	.LVL150:
ARM GAS  C:\Users\JPELEC~1\AppData\Local\Temp\ccEetrge.s 			page 50


 1837 0116 58A3     		adr	r3, .L185
 1838 0118 D3E90023 		ldrd	r2, [r3]
 1839 011c FFF7FEFF 		bl	__aeabi_dmul
 1840              	.LVL151:
 1841 0120 FFF7FEFF 		bl	__aeabi_d2uiz
 1842              	.LVL152:
 1843 0124 5E4C     		ldr	r4, .L185+40
 1844 0126 C2B2     		uxtb	r2, r0
 1845 0128 5E49     		ldr	r1, .L185+44
 1846 012a 2046     		mov	r0, r4
 1847 012c FFF7FEFF 		bl	sprintf
 1848              	.LVL153:
 286:main.c        ****                     CyDelayUs(1);
 1849              		.loc 1 286 0 discriminator 3
 1850 0130 2046     		mov	r0, r4
 1851 0132 FFF7FEFF 		bl	escribeDisplay1
 1852              	.LVL154:
 287:main.c        ****                 }
 1853              		.loc 1 287 0 discriminator 3
 1854 0136 0120     		movs	r0, #1
 1855 0138 FFF7FEFF 		bl	CyDelayUs
 1856              	.LVL155:
 283:main.c        ****                     valor=(pendiente*n)+b;
 1857              		.loc 1 283 0 discriminator 3
 1858 013c 564A     		ldr	r2, .L185+32
 1859 013e 1378     		ldrb	r3, [r2]	@ zero_extendqisi2
 1860 0140 0133     		adds	r3, r3, #1
 1861 0142 1370     		strb	r3, [r2]
 1862              	.L142:
 283:main.c        ****                     valor=(pendiente*n)+b;
 1863              		.loc 1 283 0 is_stmt 0 discriminator 1
 1864 0144 544B     		ldr	r3, .L185+32
 1865 0146 1C78     		ldrb	r4, [r3]	@ zero_extendqisi2
 1866 0148 2046     		mov	r0, r4
 1867 014a FFF7FEFF 		bl	__aeabi_i2d
 1868              	.LVL156:
 1869 014e 0022     		movs	r2, #0
 1870 0150 554B     		ldr	r3, .L185+48
 1871 0152 FFF7FEFF 		bl	__aeabi_dcmplt
 1872              	.LVL157:
 1873 0156 0028     		cmp	r0, #0
 1874 0158 CED1     		bne	.L143
 291:main.c        ****                     pendiente=(float)(Programas[Programa-1].rampas[2].Temperatura-Programas[Program
 1875              		.loc 1 291 0 is_stmt 1
 1876 015a 494B     		ldr	r3, .L185+8
 1877 015c 1B78     		ldrb	r3, [r3]	@ zero_extendqisi2
 1878 015e 013B     		subs	r3, r3, #1
 1879 0160 03EB8301 		add	r1, r3, r3, lsl #2
 1880 0164 4A01     		lsls	r2, r1, #5
 1881 0166 4749     		ldr	r1, .L185+12
 1882 0168 0A44     		add	r2, r2, r1
 1883 016a D27C     		ldrb	r2, [r2, #19]	@ zero_extendqisi2
 1884 016c 32B9     		cbnz	r2, .L144
 291:main.c        ****                     pendiente=(float)(Programas[Programa-1].rampas[2].Temperatura-Programas[Program
 1885              		.loc 1 291 0 is_stmt 0 discriminator 1
 1886 016e 03EB8301 		add	r1, r3, r3, lsl #2
 1887 0172 4A01     		lsls	r2, r1, #5
ARM GAS  C:\Users\JPELEC~1\AppData\Local\Temp\ccEetrge.s 			page 51


 1888 0174 4349     		ldr	r1, .L185+12
 1889 0176 0A44     		add	r2, r2, r1
 1890 0178 127D     		ldrb	r2, [r2, #20]	@ zero_extendqisi2
 1891 017a A2B1     		cbz	r2, .L145
 1892              	.L144:
 292:main.c        ****                     b=Programas[Programa-1].rampas[1].Temperatura;
 1893              		.loc 1 292 0 is_stmt 1
 1894 017c 414C     		ldr	r4, .L185+12
 1895 017e 9A00     		lsls	r2, r3, #2
 1896 0180 D018     		adds	r0, r2, r3
 1897 0182 4101     		lsls	r1, r0, #5
 1898 0184 2144     		add	r1, r1, r4
 1899 0186 C88A     		ldrh	r0, [r1, #22]
 1900 0188 CC89     		ldrh	r4, [r1, #14]
 1901 018a 001B     		subs	r0, r0, r4
 1902 018c FFF7FEFF 		bl	__aeabi_i2f
 1903              	.LVL158:
 1904 0190 3E49     		ldr	r1, .L185+20
 1905 0192 FFF7FEFF 		bl	__aeabi_fdiv
 1906              	.LVL159:
 1907 0196 3E4B     		ldr	r3, .L185+24
 1908 0198 1860     		str	r0, [r3]	@ float
 293:main.c        ****                 }else{
 1909              		.loc 1 293 0
 1910 019a 2046     		mov	r0, r4
 1911 019c FFF7FEFF 		bl	__aeabi_ui2f
 1912              	.LVL160:
 1913 01a0 3C4B     		ldr	r3, .L185+28
 1914 01a2 1860     		str	r0, [r3]	@ float
 1915 01a4 04E0     		b	.L146
 1916              	.L145:
 295:main.c        ****                     b=0;
 1917              		.loc 1 295 0
 1918 01a6 0023     		movs	r3, #0
 1919 01a8 394A     		ldr	r2, .L185+24
 1920 01aa 1360     		str	r3, [r2]	@ float
 296:main.c        ****                 }  
 1921              		.loc 1 296 0
 1922 01ac 394A     		ldr	r2, .L185+28
 1923 01ae 1360     		str	r3, [r2]	@ float
 1924              	.L146:
 299:main.c        ****                     valor=(pendiente*n)+b;
 1925              		.loc 1 299 0
 1926 01b0 0022     		movs	r2, #0
 1927 01b2 394B     		ldr	r3, .L185+32
 1928 01b4 1A70     		strb	r2, [r3]
 1929 01b6 25E0     		b	.L147
 1930              	.L148:
 300:main.c        ****                     sprintf(displayStr,"add 1,0,%u",(uint8)(valor*DIVISION));
 1931              		.loc 1 300 0 discriminator 3
 1932 01b8 2046     		mov	r0, r4
 1933 01ba FFF7FEFF 		bl	__aeabi_i2f
 1934              	.LVL161:
 1935 01be 344B     		ldr	r3, .L185+24
 1936 01c0 1968     		ldr	r1, [r3]	@ float
 1937 01c2 FFF7FEFF 		bl	__aeabi_fmul
 1938              	.LVL162:
ARM GAS  C:\Users\JPELEC~1\AppData\Local\Temp\ccEetrge.s 			page 52


 1939 01c6 334B     		ldr	r3, .L185+28
 1940 01c8 1968     		ldr	r1, [r3]	@ float
 1941 01ca FFF7FEFF 		bl	__aeabi_fadd
 1942              	.LVL163:
 1943 01ce 334B     		ldr	r3, .L185+36
 1944 01d0 1860     		str	r0, [r3]	@ float
 301:main.c        ****                     escribeDisplay1(displayStr);  
 1945              		.loc 1 301 0 discriminator 3
 1946 01d2 FFF7FEFF 		bl	__aeabi_f2d
 1947              	.LVL164:
 1948 01d6 28A3     		adr	r3, .L185
 1949 01d8 D3E90023 		ldrd	r2, [r3]
 1950 01dc FFF7FEFF 		bl	__aeabi_dmul
 1951              	.LVL165:
 1952 01e0 FFF7FEFF 		bl	__aeabi_d2uiz
 1953              	.LVL166:
 1954 01e4 2E4C     		ldr	r4, .L185+40
 1955 01e6 C2B2     		uxtb	r2, r0
 1956 01e8 2E49     		ldr	r1, .L185+44
 1957 01ea 2046     		mov	r0, r4
 1958 01ec FFF7FEFF 		bl	sprintf
 1959              	.LVL167:
 302:main.c        ****                     CyDelayUs(1);
 1960              		.loc 1 302 0 discriminator 3
 1961 01f0 2046     		mov	r0, r4
 1962 01f2 FFF7FEFF 		bl	escribeDisplay1
 1963              	.LVL168:
 303:main.c        ****                 }
 1964              		.loc 1 303 0 discriminator 3
 1965 01f6 0120     		movs	r0, #1
 1966 01f8 FFF7FEFF 		bl	CyDelayUs
 1967              	.LVL169:
 299:main.c        ****                     valor=(pendiente*n)+b;
 1968              		.loc 1 299 0 discriminator 3
 1969 01fc 264A     		ldr	r2, .L185+32
 1970 01fe 1378     		ldrb	r3, [r2]	@ zero_extendqisi2
 1971 0200 0133     		adds	r3, r3, #1
 1972 0202 1370     		strb	r3, [r2]
 1973              	.L147:
 299:main.c        ****                     valor=(pendiente*n)+b;
 1974              		.loc 1 299 0 is_stmt 0 discriminator 1
 1975 0204 244B     		ldr	r3, .L185+32
 1976 0206 1C78     		ldrb	r4, [r3]	@ zero_extendqisi2
 1977 0208 2046     		mov	r0, r4
 1978 020a FFF7FEFF 		bl	__aeabi_i2d
 1979              	.LVL170:
 1980 020e 0022     		movs	r2, #0
 1981 0210 254B     		ldr	r3, .L185+48
 1982 0212 FFF7FEFF 		bl	__aeabi_dcmplt
 1983              	.LVL171:
 1984 0216 0028     		cmp	r0, #0
 1985 0218 CED1     		bne	.L148
 307:main.c        ****                     pendiente=(float)(Programas[Programa-1].rampas[3].Temperatura-Programas[Program
 1986              		.loc 1 307 0 is_stmt 1
 1987 021a 194B     		ldr	r3, .L185+8
 1988 021c 1B78     		ldrb	r3, [r3]	@ zero_extendqisi2
 1989 021e 013B     		subs	r3, r3, #1
ARM GAS  C:\Users\JPELEC~1\AppData\Local\Temp\ccEetrge.s 			page 53


 1990 0220 03EB8301 		add	r1, r3, r3, lsl #2
 1991 0224 4A01     		lsls	r2, r1, #5
 1992 0226 1749     		ldr	r1, .L185+12
 1993 0228 0A44     		add	r2, r2, r1
 1994 022a D27E     		ldrb	r2, [r2, #27]	@ zero_extendqisi2
 1995 022c 32B9     		cbnz	r2, .L149
 307:main.c        ****                     pendiente=(float)(Programas[Programa-1].rampas[3].Temperatura-Programas[Program
 1996              		.loc 1 307 0 is_stmt 0 discriminator 1
 1997 022e 03EB8301 		add	r1, r3, r3, lsl #2
 1998 0232 4A01     		lsls	r2, r1, #5
 1999 0234 1349     		ldr	r1, .L185+12
 2000 0236 0A44     		add	r2, r2, r1
 2001 0238 127F     		ldrb	r2, [r2, #28]	@ zero_extendqisi2
 2002 023a A2B1     		cbz	r2, .L150
 2003              	.L149:
 308:main.c        ****                     b=Programas[Programa-1].rampas[2].Temperatura;
 2004              		.loc 1 308 0 is_stmt 1
 2005 023c 114C     		ldr	r4, .L185+12
 2006 023e 9A00     		lsls	r2, r3, #2
 2007 0240 D018     		adds	r0, r2, r3
 2008 0242 4101     		lsls	r1, r0, #5
 2009 0244 2144     		add	r1, r1, r4
 2010 0246 C88B     		ldrh	r0, [r1, #30]
 2011 0248 CC8A     		ldrh	r4, [r1, #22]
 2012 024a 001B     		subs	r0, r0, r4
 2013 024c FFF7FEFF 		bl	__aeabi_i2f
 2014              	.LVL172:
 2015 0250 0E49     		ldr	r1, .L185+20
 2016 0252 FFF7FEFF 		bl	__aeabi_fdiv
 2017              	.LVL173:
 2018 0256 0E4B     		ldr	r3, .L185+24
 2019 0258 1860     		str	r0, [r3]	@ float
 309:main.c        ****                 }else{
 2020              		.loc 1 309 0
 2021 025a 2046     		mov	r0, r4
 2022 025c FFF7FEFF 		bl	__aeabi_ui2f
 2023              	.LVL174:
 2024 0260 0C4B     		ldr	r3, .L185+28
 2025 0262 1860     		str	r0, [r3]	@ float
 2026 0264 04E0     		b	.L151
 2027              	.L150:
 311:main.c        ****                     b=0;
 2028              		.loc 1 311 0
 2029 0266 0023     		movs	r3, #0
 2030 0268 094A     		ldr	r2, .L185+24
 2031 026a 1360     		str	r3, [r2]	@ float
 312:main.c        ****                 } 
 2032              		.loc 1 312 0
 2033 026c 094A     		ldr	r2, .L185+28
 2034 026e 1360     		str	r3, [r2]	@ float
 2035              	.L151:
 315:main.c        ****                     valor=(pendiente*n)+b;
 2036              		.loc 1 315 0
 2037 0270 0022     		movs	r2, #0
 2038 0272 094B     		ldr	r3, .L185+32
 2039 0274 1A70     		strb	r2, [r3]
 2040 0276 3FE0     		b	.L152
ARM GAS  C:\Users\JPELEC~1\AppData\Local\Temp\ccEetrge.s 			page 54


 2041              	.L186:
 2042              		.align	3
 2043              	.L185:
 2044 0278 295C8FC2 		.word	-1030792151
 2045 027c F528CC3F 		.word	1070344437
 2046 0280 00000000 		.word	Programa
 2047 0284 00000000 		.word	Programas
 2048 0288 00000000 		.word	Temperatura
 2049 028c 00002C42 		.word	1110179840
 2050 0290 00000000 		.word	pendiente
 2051 0294 00000000 		.word	b
 2052 0298 00000000 		.word	n
 2053 029c 00000000 		.word	valor
 2054 02a0 00000000 		.word	displayStr
 2055 02a4 00000000 		.word	.LC0
 2056 02a8 00804540 		.word	1078296576
 2057              	.L153:
 316:main.c        ****                     sprintf(displayStr,"add 1,0,%u",(uint8)(valor*DIVISION));
 2058              		.loc 1 316 0 discriminator 3
 2059 02ac 2046     		mov	r0, r4
 2060 02ae FFF7FEFF 		bl	__aeabi_i2f
 2061              	.LVL175:
 2062 02b2 934B     		ldr	r3, .L187+8
 2063 02b4 1968     		ldr	r1, [r3]	@ float
 2064 02b6 FFF7FEFF 		bl	__aeabi_fmul
 2065              	.LVL176:
 2066 02ba 924B     		ldr	r3, .L187+12
 2067 02bc 1968     		ldr	r1, [r3]	@ float
 2068 02be FFF7FEFF 		bl	__aeabi_fadd
 2069              	.LVL177:
 2070 02c2 914B     		ldr	r3, .L187+16
 2071 02c4 1860     		str	r0, [r3]	@ float
 317:main.c        ****                     escribeDisplay1(displayStr);  
 2072              		.loc 1 317 0 discriminator 3
 2073 02c6 FFF7FEFF 		bl	__aeabi_f2d
 2074              	.LVL178:
 2075 02ca 8BA3     		adr	r3, .L187
 2076 02cc D3E90023 		ldrd	r2, [r3]
 2077 02d0 FFF7FEFF 		bl	__aeabi_dmul
 2078              	.LVL179:
 2079 02d4 FFF7FEFF 		bl	__aeabi_d2uiz
 2080              	.LVL180:
 2081 02d8 8C4C     		ldr	r4, .L187+20
 2082 02da C2B2     		uxtb	r2, r0
 2083 02dc 8C49     		ldr	r1, .L187+24
 2084 02de 2046     		mov	r0, r4
 2085 02e0 FFF7FEFF 		bl	sprintf
 2086              	.LVL181:
 318:main.c        ****                     CyDelayUs(1);
 2087              		.loc 1 318 0 discriminator 3
 2088 02e4 2046     		mov	r0, r4
 2089 02e6 FFF7FEFF 		bl	escribeDisplay1
 2090              	.LVL182:
 319:main.c        ****                 }
 2091              		.loc 1 319 0 discriminator 3
 2092 02ea 0120     		movs	r0, #1
 2093 02ec FFF7FEFF 		bl	CyDelayUs
ARM GAS  C:\Users\JPELEC~1\AppData\Local\Temp\ccEetrge.s 			page 55


 2094              	.LVL183:
 315:main.c        ****                     valor=(pendiente*n)+b;
 2095              		.loc 1 315 0 discriminator 3
 2096 02f0 884A     		ldr	r2, .L187+28
 2097 02f2 1378     		ldrb	r3, [r2]	@ zero_extendqisi2
 2098 02f4 0133     		adds	r3, r3, #1
 2099 02f6 1370     		strb	r3, [r2]
 2100              	.L152:
 315:main.c        ****                     valor=(pendiente*n)+b;
 2101              		.loc 1 315 0 is_stmt 0 discriminator 1
 2102 02f8 864B     		ldr	r3, .L187+28
 2103 02fa 1C78     		ldrb	r4, [r3]	@ zero_extendqisi2
 2104 02fc 2046     		mov	r0, r4
 2105 02fe FFF7FEFF 		bl	__aeabi_i2d
 2106              	.LVL184:
 2107 0302 0022     		movs	r2, #0
 2108 0304 844B     		ldr	r3, .L187+32
 2109 0306 FFF7FEFF 		bl	__aeabi_dcmplt
 2110              	.LVL185:
 2111 030a 0028     		cmp	r0, #0
 2112 030c CED1     		bne	.L153
 324:main.c        ****                     pendiente=(float)(Programas[Programa-1].rampas[4].Temperatura-Programas[Program
 2113              		.loc 1 324 0 is_stmt 1
 2114 030e 834B     		ldr	r3, .L187+36
 2115 0310 1B78     		ldrb	r3, [r3]	@ zero_extendqisi2
 2116 0312 013B     		subs	r3, r3, #1
 2117 0314 03EB8301 		add	r1, r3, r3, lsl #2
 2118 0318 4A01     		lsls	r2, r1, #5
 2119 031a 8149     		ldr	r1, .L187+40
 2120 031c 0A44     		add	r2, r2, r1
 2121 031e 92F82320 		ldrb	r2, [r2, #35]	@ zero_extendqisi2
 2122 0322 3AB9     		cbnz	r2, .L154
 324:main.c        ****                     pendiente=(float)(Programas[Programa-1].rampas[4].Temperatura-Programas[Program
 2123              		.loc 1 324 0 is_stmt 0 discriminator 1
 2124 0324 03EB8301 		add	r1, r3, r3, lsl #2
 2125 0328 4A01     		lsls	r2, r1, #5
 2126 032a 7D49     		ldr	r1, .L187+40
 2127 032c 0A44     		add	r2, r2, r1
 2128 032e 92F82420 		ldrb	r2, [r2, #36]	@ zero_extendqisi2
 2129 0332 A2B1     		cbz	r2, .L155
 2130              	.L154:
 325:main.c        ****                     b=Programas[Programa-1].rampas[3].Temperatura;
 2131              		.loc 1 325 0 is_stmt 1
 2132 0334 7A4C     		ldr	r4, .L187+40
 2133 0336 9A00     		lsls	r2, r3, #2
 2134 0338 D018     		adds	r0, r2, r3
 2135 033a 4101     		lsls	r1, r0, #5
 2136 033c 2144     		add	r1, r1, r4
 2137 033e C88C     		ldrh	r0, [r1, #38]
 2138 0340 CC8B     		ldrh	r4, [r1, #30]
 2139 0342 001B     		subs	r0, r0, r4
 2140 0344 FFF7FEFF 		bl	__aeabi_i2f
 2141              	.LVL186:
 2142 0348 7649     		ldr	r1, .L187+44
 2143 034a FFF7FEFF 		bl	__aeabi_fdiv
 2144              	.LVL187:
 2145 034e 6C4B     		ldr	r3, .L187+8
ARM GAS  C:\Users\JPELEC~1\AppData\Local\Temp\ccEetrge.s 			page 56


 2146 0350 1860     		str	r0, [r3]	@ float
 326:main.c        ****                 }else{
 2147              		.loc 1 326 0
 2148 0352 2046     		mov	r0, r4
 2149 0354 FFF7FEFF 		bl	__aeabi_ui2f
 2150              	.LVL188:
 2151 0358 6A4B     		ldr	r3, .L187+12
 2152 035a 1860     		str	r0, [r3]	@ float
 2153 035c 04E0     		b	.L156
 2154              	.L155:
 328:main.c        ****                     b=0;
 2155              		.loc 1 328 0
 2156 035e 0023     		movs	r3, #0
 2157 0360 674A     		ldr	r2, .L187+8
 2158 0362 1360     		str	r3, [r2]	@ float
 329:main.c        ****                 }   
 2159              		.loc 1 329 0
 2160 0364 674A     		ldr	r2, .L187+12
 2161 0366 1360     		str	r3, [r2]	@ float
 2162              	.L156:
 332:main.c        ****                     valor=(pendiente*n)+b;
 2163              		.loc 1 332 0
 2164 0368 0022     		movs	r2, #0
 2165 036a 6A4B     		ldr	r3, .L187+28
 2166 036c 1A70     		strb	r2, [r3]
 2167 036e 25E0     		b	.L157
 2168              	.L158:
 333:main.c        ****                     sprintf(displayStr,"add 1,0,%u",(uint8)(valor*DIVISION));
 2169              		.loc 1 333 0 discriminator 3
 2170 0370 2046     		mov	r0, r4
 2171 0372 FFF7FEFF 		bl	__aeabi_i2f
 2172              	.LVL189:
 2173 0376 624B     		ldr	r3, .L187+8
 2174 0378 1968     		ldr	r1, [r3]	@ float
 2175 037a FFF7FEFF 		bl	__aeabi_fmul
 2176              	.LVL190:
 2177 037e 614B     		ldr	r3, .L187+12
 2178 0380 1968     		ldr	r1, [r3]	@ float
 2179 0382 FFF7FEFF 		bl	__aeabi_fadd
 2180              	.LVL191:
 2181 0386 604B     		ldr	r3, .L187+16
 2182 0388 1860     		str	r0, [r3]	@ float
 334:main.c        ****                     escribeDisplay1(displayStr);  
 2183              		.loc 1 334 0 discriminator 3
 2184 038a FFF7FEFF 		bl	__aeabi_f2d
 2185              	.LVL192:
 2186 038e 5AA3     		adr	r3, .L187
 2187 0390 D3E90023 		ldrd	r2, [r3]
 2188 0394 FFF7FEFF 		bl	__aeabi_dmul
 2189              	.LVL193:
 2190 0398 FFF7FEFF 		bl	__aeabi_d2uiz
 2191              	.LVL194:
 2192 039c 5B4C     		ldr	r4, .L187+20
 2193 039e C2B2     		uxtb	r2, r0
 2194 03a0 5B49     		ldr	r1, .L187+24
 2195 03a2 2046     		mov	r0, r4
 2196 03a4 FFF7FEFF 		bl	sprintf
ARM GAS  C:\Users\JPELEC~1\AppData\Local\Temp\ccEetrge.s 			page 57


 2197              	.LVL195:
 335:main.c        ****                     CyDelayUs(1);
 2198              		.loc 1 335 0 discriminator 3
 2199 03a8 2046     		mov	r0, r4
 2200 03aa FFF7FEFF 		bl	escribeDisplay1
 2201              	.LVL196:
 336:main.c        ****                 }
 2202              		.loc 1 336 0 discriminator 3
 2203 03ae 0120     		movs	r0, #1
 2204 03b0 FFF7FEFF 		bl	CyDelayUs
 2205              	.LVL197:
 332:main.c        ****                     valor=(pendiente*n)+b;
 2206              		.loc 1 332 0 discriminator 3
 2207 03b4 574A     		ldr	r2, .L187+28
 2208 03b6 1378     		ldrb	r3, [r2]	@ zero_extendqisi2
 2209 03b8 0133     		adds	r3, r3, #1
 2210 03ba 1370     		strb	r3, [r2]
 2211              	.L157:
 332:main.c        ****                     valor=(pendiente*n)+b;
 2212              		.loc 1 332 0 is_stmt 0 discriminator 1
 2213 03bc 554B     		ldr	r3, .L187+28
 2214 03be 1C78     		ldrb	r4, [r3]	@ zero_extendqisi2
 2215 03c0 2046     		mov	r0, r4
 2216 03c2 FFF7FEFF 		bl	__aeabi_i2d
 2217              	.LVL198:
 2218 03c6 0022     		movs	r2, #0
 2219 03c8 534B     		ldr	r3, .L187+32
 2220 03ca FFF7FEFF 		bl	__aeabi_dcmplt
 2221              	.LVL199:
 2222 03ce 0028     		cmp	r0, #0
 2223 03d0 CED1     		bne	.L158
 342:main.c        ****                     pendiente=(float)(Programas[Programa-1].rampas[5].Temperatura-Programas[Program
 2224              		.loc 1 342 0 is_stmt 1
 2225 03d2 524B     		ldr	r3, .L187+36
 2226 03d4 1B78     		ldrb	r3, [r3]	@ zero_extendqisi2
 2227 03d6 013B     		subs	r3, r3, #1
 2228 03d8 03EB8301 		add	r1, r3, r3, lsl #2
 2229 03dc 4A01     		lsls	r2, r1, #5
 2230 03de 5049     		ldr	r1, .L187+40
 2231 03e0 0A44     		add	r2, r2, r1
 2232 03e2 92F82B20 		ldrb	r2, [r2, #43]	@ zero_extendqisi2
 2233 03e6 3AB9     		cbnz	r2, .L159
 342:main.c        ****                     pendiente=(float)(Programas[Programa-1].rampas[5].Temperatura-Programas[Program
 2234              		.loc 1 342 0 is_stmt 0 discriminator 1
 2235 03e8 03EB8301 		add	r1, r3, r3, lsl #2
 2236 03ec 4A01     		lsls	r2, r1, #5
 2237 03ee 4C49     		ldr	r1, .L187+40
 2238 03f0 0A44     		add	r2, r2, r1
 2239 03f2 92F82C20 		ldrb	r2, [r2, #44]	@ zero_extendqisi2
 2240 03f6 A2B1     		cbz	r2, .L160
 2241              	.L159:
 343:main.c        ****                     b=Programas[Programa-1].rampas[4].Temperatura;
 2242              		.loc 1 343 0 is_stmt 1
 2243 03f8 494C     		ldr	r4, .L187+40
 2244 03fa 9A00     		lsls	r2, r3, #2
 2245 03fc D018     		adds	r0, r2, r3
 2246 03fe 4101     		lsls	r1, r0, #5
ARM GAS  C:\Users\JPELEC~1\AppData\Local\Temp\ccEetrge.s 			page 58


 2247 0400 2144     		add	r1, r1, r4
 2248 0402 C88D     		ldrh	r0, [r1, #46]
 2249 0404 CC8C     		ldrh	r4, [r1, #38]
 2250 0406 001B     		subs	r0, r0, r4
 2251 0408 FFF7FEFF 		bl	__aeabi_i2f
 2252              	.LVL200:
 2253 040c 4549     		ldr	r1, .L187+44
 2254 040e FFF7FEFF 		bl	__aeabi_fdiv
 2255              	.LVL201:
 2256 0412 3B4B     		ldr	r3, .L187+8
 2257 0414 1860     		str	r0, [r3]	@ float
 344:main.c        ****                 }else{
 2258              		.loc 1 344 0
 2259 0416 2046     		mov	r0, r4
 2260 0418 FFF7FEFF 		bl	__aeabi_ui2f
 2261              	.LVL202:
 2262 041c 394B     		ldr	r3, .L187+12
 2263 041e 1860     		str	r0, [r3]	@ float
 2264 0420 04E0     		b	.L161
 2265              	.L160:
 346:main.c        ****                     b=0;
 2266              		.loc 1 346 0
 2267 0422 0023     		movs	r3, #0
 2268 0424 364A     		ldr	r2, .L187+8
 2269 0426 1360     		str	r3, [r2]	@ float
 347:main.c        ****                 }  
 2270              		.loc 1 347 0
 2271 0428 364A     		ldr	r2, .L187+12
 2272 042a 1360     		str	r3, [r2]	@ float
 2273              	.L161:
 349:main.c        ****                     valor=(pendiente*n)+b;
 2274              		.loc 1 349 0
 2275 042c 0022     		movs	r2, #0
 2276 042e 394B     		ldr	r3, .L187+28
 2277 0430 1A70     		strb	r2, [r3]
 2278 0432 25E0     		b	.L162
 2279              	.L163:
 350:main.c        ****                     sprintf(displayStr,"add 1,0,%u",(uint8)(valor*DIVISION));
 2280              		.loc 1 350 0 discriminator 3
 2281 0434 2046     		mov	r0, r4
 2282 0436 FFF7FEFF 		bl	__aeabi_i2f
 2283              	.LVL203:
 2284 043a 314B     		ldr	r3, .L187+8
 2285 043c 1968     		ldr	r1, [r3]	@ float
 2286 043e FFF7FEFF 		bl	__aeabi_fmul
 2287              	.LVL204:
 2288 0442 304B     		ldr	r3, .L187+12
 2289 0444 1968     		ldr	r1, [r3]	@ float
 2290 0446 FFF7FEFF 		bl	__aeabi_fadd
 2291              	.LVL205:
 2292 044a 2F4B     		ldr	r3, .L187+16
 2293 044c 1860     		str	r0, [r3]	@ float
 351:main.c        ****                     escribeDisplay1(displayStr);  
 2294              		.loc 1 351 0 discriminator 3
 2295 044e FFF7FEFF 		bl	__aeabi_f2d
 2296              	.LVL206:
 2297 0452 29A3     		adr	r3, .L187
ARM GAS  C:\Users\JPELEC~1\AppData\Local\Temp\ccEetrge.s 			page 59


 2298 0454 D3E90023 		ldrd	r2, [r3]
 2299 0458 FFF7FEFF 		bl	__aeabi_dmul
 2300              	.LVL207:
 2301 045c FFF7FEFF 		bl	__aeabi_d2uiz
 2302              	.LVL208:
 2303 0460 2A4C     		ldr	r4, .L187+20
 2304 0462 C2B2     		uxtb	r2, r0
 2305 0464 2A49     		ldr	r1, .L187+24
 2306 0466 2046     		mov	r0, r4
 2307 0468 FFF7FEFF 		bl	sprintf
 2308              	.LVL209:
 352:main.c        ****                     CyDelayUs(1);
 2309              		.loc 1 352 0 discriminator 3
 2310 046c 2046     		mov	r0, r4
 2311 046e FFF7FEFF 		bl	escribeDisplay1
 2312              	.LVL210:
 353:main.c        ****                 }
 2313              		.loc 1 353 0 discriminator 3
 2314 0472 0120     		movs	r0, #1
 2315 0474 FFF7FEFF 		bl	CyDelayUs
 2316              	.LVL211:
 349:main.c        ****                     valor=(pendiente*n)+b;
 2317              		.loc 1 349 0 discriminator 3
 2318 0478 264A     		ldr	r2, .L187+28
 2319 047a 1378     		ldrb	r3, [r2]	@ zero_extendqisi2
 2320 047c 0133     		adds	r3, r3, #1
 2321 047e 1370     		strb	r3, [r2]
 2322              	.L162:
 349:main.c        ****                     valor=(pendiente*n)+b;
 2323              		.loc 1 349 0 is_stmt 0 discriminator 1
 2324 0480 244B     		ldr	r3, .L187+28
 2325 0482 1C78     		ldrb	r4, [r3]	@ zero_extendqisi2
 2326 0484 2046     		mov	r0, r4
 2327 0486 FFF7FEFF 		bl	__aeabi_i2d
 2328              	.LVL212:
 2329 048a 0022     		movs	r2, #0
 2330 048c 224B     		ldr	r3, .L187+32
 2331 048e FFF7FEFF 		bl	__aeabi_dcmplt
 2332              	.LVL213:
 2333 0492 0028     		cmp	r0, #0
 2334 0494 CED1     		bne	.L163
 357:main.c        ****                     pendiente=(float)(Programas[Programa-1].rampas[6].Temperatura-Programas[Program
 2335              		.loc 1 357 0 is_stmt 1
 2336 0496 214B     		ldr	r3, .L187+36
 2337 0498 1B78     		ldrb	r3, [r3]	@ zero_extendqisi2
 2338 049a 013B     		subs	r3, r3, #1
 2339 049c 03EB8301 		add	r1, r3, r3, lsl #2
 2340 04a0 4A01     		lsls	r2, r1, #5
 2341 04a2 1F49     		ldr	r1, .L187+40
 2342 04a4 0A44     		add	r2, r2, r1
 2343 04a6 92F83320 		ldrb	r2, [r2, #51]	@ zero_extendqisi2
 2344 04aa 3AB9     		cbnz	r2, .L164
 357:main.c        ****                     pendiente=(float)(Programas[Programa-1].rampas[6].Temperatura-Programas[Program
 2345              		.loc 1 357 0 is_stmt 0 discriminator 1
 2346 04ac 03EB8301 		add	r1, r3, r3, lsl #2
 2347 04b0 4A01     		lsls	r2, r1, #5
 2348 04b2 1B49     		ldr	r1, .L187+40
ARM GAS  C:\Users\JPELEC~1\AppData\Local\Temp\ccEetrge.s 			page 60


 2349 04b4 0A44     		add	r2, r2, r1
 2350 04b6 92F83420 		ldrb	r2, [r2, #52]	@ zero_extendqisi2
 2351 04ba A2B1     		cbz	r2, .L165
 2352              	.L164:
 358:main.c        ****                     b=Programas[Programa-1].rampas[5].Temperatura;
 2353              		.loc 1 358 0 is_stmt 1
 2354 04bc 184C     		ldr	r4, .L187+40
 2355 04be 9A00     		lsls	r2, r3, #2
 2356 04c0 D018     		adds	r0, r2, r3
 2357 04c2 4101     		lsls	r1, r0, #5
 2358 04c4 2144     		add	r1, r1, r4
 2359 04c6 C88E     		ldrh	r0, [r1, #54]
 2360 04c8 CC8D     		ldrh	r4, [r1, #46]
 2361 04ca 001B     		subs	r0, r0, r4
 2362 04cc FFF7FEFF 		bl	__aeabi_i2f
 2363              	.LVL214:
 2364 04d0 1449     		ldr	r1, .L187+44
 2365 04d2 FFF7FEFF 		bl	__aeabi_fdiv
 2366              	.LVL215:
 2367 04d6 0A4B     		ldr	r3, .L187+8
 2368 04d8 1860     		str	r0, [r3]	@ float
 359:main.c        ****                 }else{
 2369              		.loc 1 359 0
 2370 04da 2046     		mov	r0, r4
 2371 04dc FFF7FEFF 		bl	__aeabi_ui2f
 2372              	.LVL216:
 2373 04e0 084B     		ldr	r3, .L187+12
 2374 04e2 1860     		str	r0, [r3]	@ float
 2375 04e4 04E0     		b	.L166
 2376              	.L165:
 361:main.c        ****                     b=0;
 2377              		.loc 1 361 0
 2378 04e6 0023     		movs	r3, #0
 2379 04e8 054A     		ldr	r2, .L187+8
 2380 04ea 1360     		str	r3, [r2]	@ float
 362:main.c        ****                 }   
 2381              		.loc 1 362 0
 2382 04ec 054A     		ldr	r2, .L187+12
 2383 04ee 1360     		str	r3, [r2]	@ float
 2384              	.L166:
 364:main.c        ****                     valor=(pendiente*n)+b;
 2385              		.loc 1 364 0
 2386 04f0 0022     		movs	r2, #0
 2387 04f2 084B     		ldr	r3, .L187+28
 2388 04f4 1A70     		strb	r2, [r3]
 2389 04f6 3DE0     		b	.L167
 2390              	.L188:
 2391              		.align	3
 2392              	.L187:
 2393 04f8 295C8FC2 		.word	-1030792151
 2394 04fc F528CC3F 		.word	1070344437
 2395 0500 00000000 		.word	pendiente
 2396 0504 00000000 		.word	b
 2397 0508 00000000 		.word	valor
 2398 050c 00000000 		.word	displayStr
 2399 0510 00000000 		.word	.LC0
 2400 0514 00000000 		.word	n
ARM GAS  C:\Users\JPELEC~1\AppData\Local\Temp\ccEetrge.s 			page 61


 2401 0518 00804540 		.word	1078296576
 2402 051c 00000000 		.word	Programa
 2403 0520 00000000 		.word	Programas
 2404 0524 00002C42 		.word	1110179840
 2405              	.L168:
 365:main.c        ****                     sprintf(displayStr,"add 1,0,%u",(uint8)(valor*DIVISION));
 2406              		.loc 1 365 0 discriminator 3
 2407 0528 2046     		mov	r0, r4
 2408 052a FFF7FEFF 		bl	__aeabi_i2f
 2409              	.LVL217:
 2410 052e AE4B     		ldr	r3, .L189+8
 2411 0530 1968     		ldr	r1, [r3]	@ float
 2412 0532 FFF7FEFF 		bl	__aeabi_fmul
 2413              	.LVL218:
 2414 0536 AD4B     		ldr	r3, .L189+12
 2415 0538 1968     		ldr	r1, [r3]	@ float
 2416 053a FFF7FEFF 		bl	__aeabi_fadd
 2417              	.LVL219:
 2418 053e AC4B     		ldr	r3, .L189+16
 2419 0540 1860     		str	r0, [r3]	@ float
 366:main.c        ****                     escribeDisplay1(displayStr);  
 2420              		.loc 1 366 0 discriminator 3
 2421 0542 FFF7FEFF 		bl	__aeabi_f2d
 2422              	.LVL220:
 2423 0546 A6A3     		adr	r3, .L189
 2424 0548 D3E90023 		ldrd	r2, [r3]
 2425 054c FFF7FEFF 		bl	__aeabi_dmul
 2426              	.LVL221:
 2427 0550 FFF7FEFF 		bl	__aeabi_d2uiz
 2428              	.LVL222:
 2429 0554 A74C     		ldr	r4, .L189+20
 2430 0556 C2B2     		uxtb	r2, r0
 2431 0558 A749     		ldr	r1, .L189+24
 2432 055a 2046     		mov	r0, r4
 2433 055c FFF7FEFF 		bl	sprintf
 2434              	.LVL223:
 367:main.c        ****                     CyDelayUs(1);
 2435              		.loc 1 367 0 discriminator 3
 2436 0560 2046     		mov	r0, r4
 2437 0562 FFF7FEFF 		bl	escribeDisplay1
 2438              	.LVL224:
 368:main.c        ****                 }
 2439              		.loc 1 368 0 discriminator 3
 2440 0566 0120     		movs	r0, #1
 2441 0568 FFF7FEFF 		bl	CyDelayUs
 2442              	.LVL225:
 364:main.c        ****                     valor=(pendiente*n)+b;
 2443              		.loc 1 364 0 discriminator 3
 2444 056c A34A     		ldr	r2, .L189+28
 2445 056e 1378     		ldrb	r3, [r2]	@ zero_extendqisi2
 2446 0570 0133     		adds	r3, r3, #1
 2447 0572 1370     		strb	r3, [r2]
 2448              	.L167:
 364:main.c        ****                     valor=(pendiente*n)+b;
 2449              		.loc 1 364 0 is_stmt 0 discriminator 1
 2450 0574 A14B     		ldr	r3, .L189+28
 2451 0576 1C78     		ldrb	r4, [r3]	@ zero_extendqisi2
ARM GAS  C:\Users\JPELEC~1\AppData\Local\Temp\ccEetrge.s 			page 62


 2452 0578 2046     		mov	r0, r4
 2453 057a FFF7FEFF 		bl	__aeabi_i2d
 2454              	.LVL226:
 2455 057e 0022     		movs	r2, #0
 2456 0580 9F4B     		ldr	r3, .L189+32
 2457 0582 FFF7FEFF 		bl	__aeabi_dcmplt
 2458              	.LVL227:
 2459 0586 0028     		cmp	r0, #0
 2460 0588 CED1     		bne	.L168
 372:main.c        ****                     pendiente=(float)(Programas[Programa-1].rampas[7].Temperatura-Programas[Program
 2461              		.loc 1 372 0 is_stmt 1
 2462 058a 9E4B     		ldr	r3, .L189+36
 2463 058c 1B78     		ldrb	r3, [r3]	@ zero_extendqisi2
 2464 058e 013B     		subs	r3, r3, #1
 2465 0590 03EB8301 		add	r1, r3, r3, lsl #2
 2466 0594 4A01     		lsls	r2, r1, #5
 2467 0596 9C49     		ldr	r1, .L189+40
 2468 0598 0A44     		add	r2, r2, r1
 2469 059a 92F83B20 		ldrb	r2, [r2, #59]	@ zero_extendqisi2
 2470 059e 3AB9     		cbnz	r2, .L169
 372:main.c        ****                     pendiente=(float)(Programas[Programa-1].rampas[7].Temperatura-Programas[Program
 2471              		.loc 1 372 0 is_stmt 0 discriminator 1
 2472 05a0 03EB8301 		add	r1, r3, r3, lsl #2
 2473 05a4 4A01     		lsls	r2, r1, #5
 2474 05a6 9849     		ldr	r1, .L189+40
 2475 05a8 0A44     		add	r2, r2, r1
 2476 05aa 92F83C20 		ldrb	r2, [r2, #60]	@ zero_extendqisi2
 2477 05ae A2B1     		cbz	r2, .L170
 2478              	.L169:
 373:main.c        ****                     b=Programas[Programa-1].rampas[6].Temperatura;
 2479              		.loc 1 373 0 is_stmt 1
 2480 05b0 954C     		ldr	r4, .L189+40
 2481 05b2 9A00     		lsls	r2, r3, #2
 2482 05b4 D018     		adds	r0, r2, r3
 2483 05b6 4101     		lsls	r1, r0, #5
 2484 05b8 2144     		add	r1, r1, r4
 2485 05ba C88F     		ldrh	r0, [r1, #62]
 2486 05bc CC8E     		ldrh	r4, [r1, #54]
 2487 05be 001B     		subs	r0, r0, r4
 2488 05c0 FFF7FEFF 		bl	__aeabi_i2f
 2489              	.LVL228:
 2490 05c4 9149     		ldr	r1, .L189+44
 2491 05c6 FFF7FEFF 		bl	__aeabi_fdiv
 2492              	.LVL229:
 2493 05ca 874B     		ldr	r3, .L189+8
 2494 05cc 1860     		str	r0, [r3]	@ float
 374:main.c        ****                 }else{
 2495              		.loc 1 374 0
 2496 05ce 2046     		mov	r0, r4
 2497 05d0 FFF7FEFF 		bl	__aeabi_ui2f
 2498              	.LVL230:
 2499 05d4 854B     		ldr	r3, .L189+12
 2500 05d6 1860     		str	r0, [r3]	@ float
 2501 05d8 04E0     		b	.L171
 2502              	.L170:
 376:main.c        ****                     b=0;
 2503              		.loc 1 376 0
ARM GAS  C:\Users\JPELEC~1\AppData\Local\Temp\ccEetrge.s 			page 63


 2504 05da 0023     		movs	r3, #0
 2505 05dc 824A     		ldr	r2, .L189+8
 2506 05de 1360     		str	r3, [r2]	@ float
 377:main.c        ****                 }    
 2507              		.loc 1 377 0
 2508 05e0 824A     		ldr	r2, .L189+12
 2509 05e2 1360     		str	r3, [r2]	@ float
 2510              	.L171:
 379:main.c        ****                     valor=(pendiente*n)+b;
 2511              		.loc 1 379 0
 2512 05e4 0022     		movs	r2, #0
 2513 05e6 854B     		ldr	r3, .L189+28
 2514 05e8 1A70     		strb	r2, [r3]
 2515 05ea 25E0     		b	.L172
 2516              	.L173:
 380:main.c        ****                     sprintf(displayStr,"add 1,0,%u",(uint8)(valor*DIVISION));
 2517              		.loc 1 380 0 discriminator 3
 2518 05ec 2046     		mov	r0, r4
 2519 05ee FFF7FEFF 		bl	__aeabi_i2f
 2520              	.LVL231:
 2521 05f2 7D4B     		ldr	r3, .L189+8
 2522 05f4 1968     		ldr	r1, [r3]	@ float
 2523 05f6 FFF7FEFF 		bl	__aeabi_fmul
 2524              	.LVL232:
 2525 05fa 7C4B     		ldr	r3, .L189+12
 2526 05fc 1968     		ldr	r1, [r3]	@ float
 2527 05fe FFF7FEFF 		bl	__aeabi_fadd
 2528              	.LVL233:
 2529 0602 7B4B     		ldr	r3, .L189+16
 2530 0604 1860     		str	r0, [r3]	@ float
 381:main.c        ****                     escribeDisplay1(displayStr);  
 2531              		.loc 1 381 0 discriminator 3
 2532 0606 FFF7FEFF 		bl	__aeabi_f2d
 2533              	.LVL234:
 2534 060a 75A3     		adr	r3, .L189
 2535 060c D3E90023 		ldrd	r2, [r3]
 2536 0610 FFF7FEFF 		bl	__aeabi_dmul
 2537              	.LVL235:
 2538 0614 FFF7FEFF 		bl	__aeabi_d2uiz
 2539              	.LVL236:
 2540 0618 764C     		ldr	r4, .L189+20
 2541 061a C2B2     		uxtb	r2, r0
 2542 061c 7649     		ldr	r1, .L189+24
 2543 061e 2046     		mov	r0, r4
 2544 0620 FFF7FEFF 		bl	sprintf
 2545              	.LVL237:
 382:main.c        ****                     CyDelayUs(1);
 2546              		.loc 1 382 0 discriminator 3
 2547 0624 2046     		mov	r0, r4
 2548 0626 FFF7FEFF 		bl	escribeDisplay1
 2549              	.LVL238:
 383:main.c        ****                 }
 2550              		.loc 1 383 0 discriminator 3
 2551 062a 0120     		movs	r0, #1
 2552 062c FFF7FEFF 		bl	CyDelayUs
 2553              	.LVL239:
 379:main.c        ****                     valor=(pendiente*n)+b;
ARM GAS  C:\Users\JPELEC~1\AppData\Local\Temp\ccEetrge.s 			page 64


 2554              		.loc 1 379 0 discriminator 3
 2555 0630 724A     		ldr	r2, .L189+28
 2556 0632 1378     		ldrb	r3, [r2]	@ zero_extendqisi2
 2557 0634 0133     		adds	r3, r3, #1
 2558 0636 1370     		strb	r3, [r2]
 2559              	.L172:
 379:main.c        ****                     valor=(pendiente*n)+b;
 2560              		.loc 1 379 0 is_stmt 0 discriminator 1
 2561 0638 704B     		ldr	r3, .L189+28
 2562 063a 1C78     		ldrb	r4, [r3]	@ zero_extendqisi2
 2563 063c 2046     		mov	r0, r4
 2564 063e FFF7FEFF 		bl	__aeabi_i2d
 2565              	.LVL240:
 2566 0642 0022     		movs	r2, #0
 2567 0644 6E4B     		ldr	r3, .L189+32
 2568 0646 FFF7FEFF 		bl	__aeabi_dcmplt
 2569              	.LVL241:
 2570 064a 0028     		cmp	r0, #0
 2571 064c CED1     		bne	.L173
 387:main.c        ****                     pendiente=(float)(Programas[Programa-1].rampas[8].Temperatura-Programas[Program
 2572              		.loc 1 387 0 is_stmt 1
 2573 064e 6D4B     		ldr	r3, .L189+36
 2574 0650 1B78     		ldrb	r3, [r3]	@ zero_extendqisi2
 2575 0652 013B     		subs	r3, r3, #1
 2576 0654 03EB8301 		add	r1, r3, r3, lsl #2
 2577 0658 4A01     		lsls	r2, r1, #5
 2578 065a 6B49     		ldr	r1, .L189+40
 2579 065c 0A44     		add	r2, r2, r1
 2580 065e 92F84320 		ldrb	r2, [r2, #67]	@ zero_extendqisi2
 2581 0662 3AB9     		cbnz	r2, .L174
 387:main.c        ****                     pendiente=(float)(Programas[Programa-1].rampas[8].Temperatura-Programas[Program
 2582              		.loc 1 387 0 is_stmt 0 discriminator 1
 2583 0664 03EB8301 		add	r1, r3, r3, lsl #2
 2584 0668 4A01     		lsls	r2, r1, #5
 2585 066a 6749     		ldr	r1, .L189+40
 2586 066c 0A44     		add	r2, r2, r1
 2587 066e 92F84420 		ldrb	r2, [r2, #68]	@ zero_extendqisi2
 2588 0672 AAB1     		cbz	r2, .L175
 2589              	.L174:
 388:main.c        ****                     b=Programas[Programa-1].rampas[7].Temperatura;
 2590              		.loc 1 388 0 is_stmt 1
 2591 0674 644C     		ldr	r4, .L189+40
 2592 0676 9A00     		lsls	r2, r3, #2
 2593 0678 D018     		adds	r0, r2, r3
 2594 067a 4101     		lsls	r1, r0, #5
 2595 067c 2144     		add	r1, r1, r4
 2596 067e B1F84600 		ldrh	r0, [r1, #70]
 2597 0682 CC8F     		ldrh	r4, [r1, #62]
 2598 0684 001B     		subs	r0, r0, r4
 2599 0686 FFF7FEFF 		bl	__aeabi_i2f
 2600              	.LVL242:
 2601 068a 6049     		ldr	r1, .L189+44
 2602 068c FFF7FEFF 		bl	__aeabi_fdiv
 2603              	.LVL243:
 2604 0690 554B     		ldr	r3, .L189+8
 2605 0692 1860     		str	r0, [r3]	@ float
 389:main.c        ****                 }else{
ARM GAS  C:\Users\JPELEC~1\AppData\Local\Temp\ccEetrge.s 			page 65


 2606              		.loc 1 389 0
 2607 0694 2046     		mov	r0, r4
 2608 0696 FFF7FEFF 		bl	__aeabi_ui2f
 2609              	.LVL244:
 2610 069a 544B     		ldr	r3, .L189+12
 2611 069c 1860     		str	r0, [r3]	@ float
 2612 069e 04E0     		b	.L176
 2613              	.L175:
 391:main.c        ****                     b=0;
 2614              		.loc 1 391 0
 2615 06a0 0023     		movs	r3, #0
 2616 06a2 514A     		ldr	r2, .L189+8
 2617 06a4 1360     		str	r3, [r2]	@ float
 392:main.c        ****                 }   
 2618              		.loc 1 392 0
 2619 06a6 514A     		ldr	r2, .L189+12
 2620 06a8 1360     		str	r3, [r2]	@ float
 2621              	.L176:
 394:main.c        ****                     valor=(pendiente*n)+b;
 2622              		.loc 1 394 0
 2623 06aa 0022     		movs	r2, #0
 2624 06ac 534B     		ldr	r3, .L189+28
 2625 06ae 1A70     		strb	r2, [r3]
 2626 06b0 25E0     		b	.L177
 2627              	.L178:
 395:main.c        ****                     sprintf(displayStr,"add 1,0,%u",(uint8)(valor*DIVISION));
 2628              		.loc 1 395 0 discriminator 3
 2629 06b2 2046     		mov	r0, r4
 2630 06b4 FFF7FEFF 		bl	__aeabi_i2f
 2631              	.LVL245:
 2632 06b8 4B4B     		ldr	r3, .L189+8
 2633 06ba 1968     		ldr	r1, [r3]	@ float
 2634 06bc FFF7FEFF 		bl	__aeabi_fmul
 2635              	.LVL246:
 2636 06c0 4A4B     		ldr	r3, .L189+12
 2637 06c2 1968     		ldr	r1, [r3]	@ float
 2638 06c4 FFF7FEFF 		bl	__aeabi_fadd
 2639              	.LVL247:
 2640 06c8 494B     		ldr	r3, .L189+16
 2641 06ca 1860     		str	r0, [r3]	@ float
 396:main.c        ****                     escribeDisplay1(displayStr);  
 2642              		.loc 1 396 0 discriminator 3
 2643 06cc FFF7FEFF 		bl	__aeabi_f2d
 2644              	.LVL248:
 2645 06d0 43A3     		adr	r3, .L189
 2646 06d2 D3E90023 		ldrd	r2, [r3]
 2647 06d6 FFF7FEFF 		bl	__aeabi_dmul
 2648              	.LVL249:
 2649 06da FFF7FEFF 		bl	__aeabi_d2uiz
 2650              	.LVL250:
 2651 06de 454C     		ldr	r4, .L189+20
 2652 06e0 C2B2     		uxtb	r2, r0
 2653 06e2 4549     		ldr	r1, .L189+24
 2654 06e4 2046     		mov	r0, r4
 2655 06e6 FFF7FEFF 		bl	sprintf
 2656              	.LVL251:
 397:main.c        ****                     CyDelayUs(1);
ARM GAS  C:\Users\JPELEC~1\AppData\Local\Temp\ccEetrge.s 			page 66


 2657              		.loc 1 397 0 discriminator 3
 2658 06ea 2046     		mov	r0, r4
 2659 06ec FFF7FEFF 		bl	escribeDisplay1
 2660              	.LVL252:
 398:main.c        ****                 }
 2661              		.loc 1 398 0 discriminator 3
 2662 06f0 0120     		movs	r0, #1
 2663 06f2 FFF7FEFF 		bl	CyDelayUs
 2664              	.LVL253:
 394:main.c        ****                     valor=(pendiente*n)+b;
 2665              		.loc 1 394 0 discriminator 3
 2666 06f6 414A     		ldr	r2, .L189+28
 2667 06f8 1378     		ldrb	r3, [r2]	@ zero_extendqisi2
 2668 06fa 0133     		adds	r3, r3, #1
 2669 06fc 1370     		strb	r3, [r2]
 2670              	.L177:
 394:main.c        ****                     valor=(pendiente*n)+b;
 2671              		.loc 1 394 0 is_stmt 0 discriminator 1
 2672 06fe 3F4B     		ldr	r3, .L189+28
 2673 0700 1C78     		ldrb	r4, [r3]	@ zero_extendqisi2
 2674 0702 2046     		mov	r0, r4
 2675 0704 FFF7FEFF 		bl	__aeabi_i2d
 2676              	.LVL254:
 2677 0708 0022     		movs	r2, #0
 2678 070a 3D4B     		ldr	r3, .L189+32
 2679 070c FFF7FEFF 		bl	__aeabi_dcmplt
 2680              	.LVL255:
 2681 0710 0028     		cmp	r0, #0
 2682 0712 CED1     		bne	.L178
 402:main.c        ****                     pendiente=(float)(Programas[Programa-1].rampas[9].Temperatura-Programas[Program
 2683              		.loc 1 402 0 is_stmt 1
 2684 0714 3B4B     		ldr	r3, .L189+36
 2685 0716 1B78     		ldrb	r3, [r3]	@ zero_extendqisi2
 2686 0718 013B     		subs	r3, r3, #1
 2687 071a 03EB8301 		add	r1, r3, r3, lsl #2
 2688 071e 4A01     		lsls	r2, r1, #5
 2689 0720 3949     		ldr	r1, .L189+40
 2690 0722 0A44     		add	r2, r2, r1
 2691 0724 92F84B20 		ldrb	r2, [r2, #75]	@ zero_extendqisi2
 2692 0728 3AB9     		cbnz	r2, .L179
 402:main.c        ****                     pendiente=(float)(Programas[Programa-1].rampas[9].Temperatura-Programas[Program
 2693              		.loc 1 402 0 is_stmt 0 discriminator 1
 2694 072a 03EB8301 		add	r1, r3, r3, lsl #2
 2695 072e 4A01     		lsls	r2, r1, #5
 2696 0730 3549     		ldr	r1, .L189+40
 2697 0732 0A44     		add	r2, r2, r1
 2698 0734 92F84C20 		ldrb	r2, [r2, #76]	@ zero_extendqisi2
 2699 0738 B2B1     		cbz	r2, .L180
 2700              	.L179:
 403:main.c        ****                     b=Programas[Programa-1].rampas[8].Temperatura;
 2701              		.loc 1 403 0 is_stmt 1
 2702 073a 334C     		ldr	r4, .L189+40
 2703 073c 9A00     		lsls	r2, r3, #2
 2704 073e D018     		adds	r0, r2, r3
 2705 0740 4101     		lsls	r1, r0, #5
 2706 0742 2144     		add	r1, r1, r4
 2707 0744 B1F84E00 		ldrh	r0, [r1, #78]
ARM GAS  C:\Users\JPELEC~1\AppData\Local\Temp\ccEetrge.s 			page 67


 2708 0748 B1F84640 		ldrh	r4, [r1, #70]
 2709 074c 001B     		subs	r0, r0, r4
 2710 074e FFF7FEFF 		bl	__aeabi_i2f
 2711              	.LVL256:
 2712 0752 2E49     		ldr	r1, .L189+44
 2713 0754 FFF7FEFF 		bl	__aeabi_fdiv
 2714              	.LVL257:
 2715 0758 234B     		ldr	r3, .L189+8
 2716 075a 1860     		str	r0, [r3]	@ float
 404:main.c        ****                 }else{
 2717              		.loc 1 404 0
 2718 075c 2046     		mov	r0, r4
 2719 075e FFF7FEFF 		bl	__aeabi_ui2f
 2720              	.LVL258:
 2721 0762 224B     		ldr	r3, .L189+12
 2722 0764 1860     		str	r0, [r3]	@ float
 2723 0766 04E0     		b	.L181
 2724              	.L180:
 406:main.c        ****                     b=0;
 2725              		.loc 1 406 0
 2726 0768 0023     		movs	r3, #0
 2727 076a 1F4A     		ldr	r2, .L189+8
 2728 076c 1360     		str	r3, [r2]	@ float
 407:main.c        ****                 }
 2729              		.loc 1 407 0
 2730 076e 1F4A     		ldr	r2, .L189+12
 2731 0770 1360     		str	r3, [r2]	@ float
 2732              	.L181:
 410:main.c        ****                     valor=(pendiente*n)+b;
 2733              		.loc 1 410 0
 2734 0772 0022     		movs	r2, #0
 2735 0774 214B     		ldr	r3, .L189+28
 2736 0776 1A70     		strb	r2, [r3]
 2737 0778 25E0     		b	.L182
 2738              	.L183:
 411:main.c        ****                     sprintf(displayStr,"add 1,0,%u",(uint8)(valor*DIVISION));
 2739              		.loc 1 411 0 discriminator 3
 2740 077a 2046     		mov	r0, r4
 2741 077c FFF7FEFF 		bl	__aeabi_i2f
 2742              	.LVL259:
 2743 0780 194B     		ldr	r3, .L189+8
 2744 0782 1968     		ldr	r1, [r3]	@ float
 2745 0784 FFF7FEFF 		bl	__aeabi_fmul
 2746              	.LVL260:
 2747 0788 184B     		ldr	r3, .L189+12
 2748 078a 1968     		ldr	r1, [r3]	@ float
 2749 078c FFF7FEFF 		bl	__aeabi_fadd
 2750              	.LVL261:
 2751 0790 174B     		ldr	r3, .L189+16
 2752 0792 1860     		str	r0, [r3]	@ float
 412:main.c        ****                     escribeDisplay1(displayStr);  
 2753              		.loc 1 412 0 discriminator 3
 2754 0794 FFF7FEFF 		bl	__aeabi_f2d
 2755              	.LVL262:
 2756 0798 11A3     		adr	r3, .L189
 2757 079a D3E90023 		ldrd	r2, [r3]
 2758 079e FFF7FEFF 		bl	__aeabi_dmul
ARM GAS  C:\Users\JPELEC~1\AppData\Local\Temp\ccEetrge.s 			page 68


 2759              	.LVL263:
 2760 07a2 FFF7FEFF 		bl	__aeabi_d2uiz
 2761              	.LVL264:
 2762 07a6 134C     		ldr	r4, .L189+20
 2763 07a8 C2B2     		uxtb	r2, r0
 2764 07aa 1349     		ldr	r1, .L189+24
 2765 07ac 2046     		mov	r0, r4
 2766 07ae FFF7FEFF 		bl	sprintf
 2767              	.LVL265:
 413:main.c        ****                     CyDelayUs(1);
 2768              		.loc 1 413 0 discriminator 3
 2769 07b2 2046     		mov	r0, r4
 2770 07b4 FFF7FEFF 		bl	escribeDisplay1
 2771              	.LVL266:
 414:main.c        ****                 }                
 2772              		.loc 1 414 0 discriminator 3
 2773 07b8 0120     		movs	r0, #1
 2774 07ba FFF7FEFF 		bl	CyDelayUs
 2775              	.LVL267:
 410:main.c        ****                     valor=(pendiente*n)+b;
 2776              		.loc 1 410 0 discriminator 3
 2777 07be 0F4A     		ldr	r2, .L189+28
 2778 07c0 1378     		ldrb	r3, [r2]	@ zero_extendqisi2
 2779 07c2 0133     		adds	r3, r3, #1
 2780 07c4 1370     		strb	r3, [r2]
 2781              	.L182:
 410:main.c        ****                     valor=(pendiente*n)+b;
 2782              		.loc 1 410 0 is_stmt 0 discriminator 1
 2783 07c6 0D4B     		ldr	r3, .L189+28
 2784 07c8 1C78     		ldrb	r4, [r3]	@ zero_extendqisi2
 2785 07ca 2046     		mov	r0, r4
 2786 07cc FFF7FEFF 		bl	__aeabi_i2d
 2787              	.LVL268:
 2788 07d0 0022     		movs	r2, #0
 2789 07d2 0B4B     		ldr	r3, .L189+32
 2790 07d4 FFF7FEFF 		bl	__aeabi_dcmplt
 2791              	.LVL269:
 2792 07d8 0028     		cmp	r0, #0
 2793 07da CED1     		bne	.L183
 416:main.c        **** 
 2794              		.loc 1 416 0 is_stmt 1
 2795 07dc 10BD     		pop	{r4, pc}
 2796              	.L190:
 2797 07de 00BF     		.align	3
 2798              	.L189:
 2799 07e0 295C8FC2 		.word	-1030792151
 2800 07e4 F528CC3F 		.word	1070344437
 2801 07e8 00000000 		.word	pendiente
 2802 07ec 00000000 		.word	b
 2803 07f0 00000000 		.word	valor
 2804 07f4 00000000 		.word	displayStr
 2805 07f8 00000000 		.word	.LC0
 2806 07fc 00000000 		.word	n
 2807 0800 00804540 		.word	1078296576
 2808 0804 00000000 		.word	Programa
 2809 0808 00000000 		.word	Programas
 2810 080c 00002C42 		.word	1110179840
ARM GAS  C:\Users\JPELEC~1\AppData\Local\Temp\ccEetrge.s 			page 69


 2811              		.cfi_endproc
 2812              	.LFE71:
 2813              		.size	dibujaGrafico, .-dibujaGrafico
 2814              		.section	.text.LeeDisplay,"ax",%progbits
 2815              		.align	2
 2816              		.global	LeeDisplay
 2817              		.thumb
 2818              		.thumb_func
 2819              		.type	LeeDisplay, %function
 2820              	LeeDisplay:
 2821              	.LFB72:
 418:main.c        ****     if(Dato_Exitoso==5){
 2822              		.loc 1 418 0
 2823              		.cfi_startproc
 2824              		@ args = 0, pretend = 0, frame = 0
 2825              		@ frame_needed = 0, uses_anonymous_args = 0
 2826              		@ link register save eliminated.
 419:main.c        ****          Rx_Buffer[0]=Rx_Buffer2[0];
 2827              		.loc 1 419 0
 2828 0000 A14B     		ldr	r3, .L228
 2829 0002 1B78     		ldrb	r3, [r3]	@ zero_extendqisi2
 2830 0004 052B     		cmp	r3, #5
 2831 0006 40F0D880 		bne	.L192
 420:main.c        ****          Rx_Buffer[1]=Rx_Buffer2[1];
 2832              		.loc 1 420 0
 2833 000a A04A     		ldr	r2, .L228+4
 2834 000c 1178     		ldrb	r1, [r2]	@ zero_extendqisi2
 2835 000e A04B     		ldr	r3, .L228+8
 2836 0010 1970     		strb	r1, [r3]
 421:main.c        ****          Rx_Buffer[2]=Rx_Buffer2[2];
 2837              		.loc 1 421 0
 2838 0012 5178     		ldrb	r1, [r2, #1]	@ zero_extendqisi2
 2839 0014 5970     		strb	r1, [r3, #1]
 422:main.c        ****          Rx_Buffer[3]=Rx_Buffer2[3];
 2840              		.loc 1 422 0
 2841 0016 9178     		ldrb	r1, [r2, #2]	@ zero_extendqisi2
 2842 0018 9970     		strb	r1, [r3, #2]
 423:main.c        ****          Rx_Buffer[4]=Rx_Buffer2[4];
 2843              		.loc 1 423 0
 2844 001a D178     		ldrb	r1, [r2, #3]	@ zero_extendqisi2
 2845 001c D970     		strb	r1, [r3, #3]
 424:main.c        ****          Rx_Buffer[5]=Rx_Buffer2[5];
 2846              		.loc 1 424 0
 2847 001e 1079     		ldrb	r0, [r2, #4]	@ zero_extendqisi2
 2848 0020 1871     		strb	r0, [r3, #4]
 425:main.c        ****          Rx_Buffer[6]=Rx_Buffer2[6];
 2849              		.loc 1 425 0
 2850 0022 5079     		ldrb	r0, [r2, #5]	@ zero_extendqisi2
 2851 0024 5871     		strb	r0, [r3, #5]
 426:main.c        ****          Rx_Buffer[7]=Rx_Buffer2[7];
 2852              		.loc 1 426 0
 2853 0026 9079     		ldrb	r0, [r2, #6]	@ zero_extendqisi2
 2854 0028 9871     		strb	r0, [r3, #6]
 427:main.c        ****          Rx_Buffer[8]=Rx_Buffer2[8];
 2855              		.loc 1 427 0
 2856 002a D079     		ldrb	r0, [r2, #7]	@ zero_extendqisi2
 2857 002c D871     		strb	r0, [r3, #7]
ARM GAS  C:\Users\JPELEC~1\AppData\Local\Temp\ccEetrge.s 			page 70


 428:main.c        ****          Rx_Buffer[9]=Rx_Buffer2[9];
 2858              		.loc 1 428 0
 2859 002e 107A     		ldrb	r0, [r2, #8]	@ zero_extendqisi2
 2860 0030 1872     		strb	r0, [r3, #8]
 429:main.c        ****          
 2861              		.loc 1 429 0
 2862 0032 527A     		ldrb	r2, [r2, #9]	@ zero_extendqisi2
 2863 0034 5A72     		strb	r2, [r3, #9]
 431:main.c        ****          Menu=0;
 2864              		.loc 1 431 0
 2865 0036 0129     		cmp	r1, #1
 2866 0038 0AD1     		bne	.L193
 432:main.c        ****          if(MenuAntt!=Menu)
 2867              		.loc 1 432 0
 2868 003a 0022     		movs	r2, #0
 2869 003c 954B     		ldr	r3, .L228+12
 2870 003e 1A70     		strb	r2, [r3]
 433:main.c        ****             MenuAntt=Menu;
 2871              		.loc 1 433 0
 2872 0040 954B     		ldr	r3, .L228+16
 2873 0042 1B78     		ldrb	r3, [r3]	@ zero_extendqisi2
 2874 0044 002B     		cmp	r3, #0
 2875 0046 00F0C380 		beq	.L194
 434:main.c        ****       }else if(Rx_Buffer[3]==0x02){//02 es Menu Principal con PantallaPriincipal=0, y con PantallaP
 2876              		.loc 1 434 0
 2877 004a 934B     		ldr	r3, .L228+16
 2878 004c 1A70     		strb	r2, [r3]
 2879 004e BFE0     		b	.L194
 2880              	.L193:
 435:main.c        ****          Menu=1;
 2881              		.loc 1 435 0
 2882 0050 0229     		cmp	r1, #2
 2883 0052 0AD1     		bne	.L195
 436:main.c        ****          if(MenuAntt!=Menu)
 2884              		.loc 1 436 0
 2885 0054 0122     		movs	r2, #1
 2886 0056 8F4B     		ldr	r3, .L228+12
 2887 0058 1A70     		strb	r2, [r3]
 437:main.c        ****             MenuAntt=Menu;
 2888              		.loc 1 437 0
 2889 005a 8F4B     		ldr	r3, .L228+16
 2890 005c 1B78     		ldrb	r3, [r3]	@ zero_extendqisi2
 2891 005e 9342     		cmp	r3, r2
 2892 0060 00F0B680 		beq	.L194
 438:main.c        ****       }else if(Rx_Buffer[3]==0x04){//03 es Tiempo Esterilizacion
 2893              		.loc 1 438 0
 2894 0064 8C4B     		ldr	r3, .L228+16
 2895 0066 1A70     		strb	r2, [r3]
 2896 0068 B2E0     		b	.L194
 2897              	.L195:
 439:main.c        ****          Menu=2;
 2898              		.loc 1 439 0
 2899 006a 0429     		cmp	r1, #4
 2900 006c 0AD1     		bne	.L196
 440:main.c        ****          if(MenuAntt!=Menu)
 2901              		.loc 1 440 0
 2902 006e 0222     		movs	r2, #2
ARM GAS  C:\Users\JPELEC~1\AppData\Local\Temp\ccEetrge.s 			page 71


 2903 0070 884B     		ldr	r3, .L228+12
 2904 0072 1A70     		strb	r2, [r3]
 441:main.c        ****             MenuAntt=Menu;
 2905              		.loc 1 441 0
 2906 0074 884B     		ldr	r3, .L228+16
 2907 0076 1B78     		ldrb	r3, [r3]	@ zero_extendqisi2
 2908 0078 9342     		cmp	r3, r2
 2909 007a 00F0A980 		beq	.L194
 442:main.c        ****       }else if(Rx_Buffer[3]==0x05){//05 es Temperatura
 2910              		.loc 1 442 0
 2911 007e 864B     		ldr	r3, .L228+16
 2912 0080 1A70     		strb	r2, [r3]
 2913 0082 A5E0     		b	.L194
 2914              	.L196:
 443:main.c        ****          Menu=3;
 2915              		.loc 1 443 0
 2916 0084 0529     		cmp	r1, #5
 2917 0086 0AD1     		bne	.L197
 444:main.c        ****          if(MenuAntt!=Menu)
 2918              		.loc 1 444 0
 2919 0088 0322     		movs	r2, #3
 2920 008a 824B     		ldr	r3, .L228+12
 2921 008c 1A70     		strb	r2, [r3]
 445:main.c        ****             MenuAntt=Menu;
 2922              		.loc 1 445 0
 2923 008e 824B     		ldr	r3, .L228+16
 2924 0090 1B78     		ldrb	r3, [r3]	@ zero_extendqisi2
 2925 0092 9342     		cmp	r3, r2
 2926 0094 00F09C80 		beq	.L194
 446:main.c        ****       }else if(Rx_Buffer[3]==0x06){//06 es Nivel
 2927              		.loc 1 446 0
 2928 0098 7F4B     		ldr	r3, .L228+16
 2929 009a 1A70     		strb	r2, [r3]
 2930 009c 98E0     		b	.L194
 2931              	.L197:
 447:main.c        ****          Menu=5;
 2932              		.loc 1 447 0
 2933 009e 0629     		cmp	r1, #6
 2934 00a0 0AD1     		bne	.L198
 448:main.c        ****          if(MenuAntt!=Menu)
 2935              		.loc 1 448 0
 2936 00a2 0522     		movs	r2, #5
 2937 00a4 7B4B     		ldr	r3, .L228+12
 2938 00a6 1A70     		strb	r2, [r3]
 449:main.c        ****             MenuAntt=Menu;
 2939              		.loc 1 449 0
 2940 00a8 7B4B     		ldr	r3, .L228+16
 2941 00aa 1B78     		ldrb	r3, [r3]	@ zero_extendqisi2
 2942 00ac 9342     		cmp	r3, r2
 2943 00ae 00F08F80 		beq	.L194
 450:main.c        ****       }else if(Rx_Buffer[3]==0x07){//07 es Test de Componentes
 2944              		.loc 1 450 0
 2945 00b2 794B     		ldr	r3, .L228+16
 2946 00b4 1A70     		strb	r2, [r3]
 2947 00b6 8BE0     		b	.L194
 2948              	.L198:
 451:main.c        ****          Menu=6;
ARM GAS  C:\Users\JPELEC~1\AppData\Local\Temp\ccEetrge.s 			page 72


 2949              		.loc 1 451 0
 2950 00b8 0729     		cmp	r1, #7
 2951 00ba 0AD1     		bne	.L199
 452:main.c        ****          if(MenuAntt!=Menu)
 2952              		.loc 1 452 0
 2953 00bc 0622     		movs	r2, #6
 2954 00be 754B     		ldr	r3, .L228+12
 2955 00c0 1A70     		strb	r2, [r3]
 453:main.c        ****             MenuAntt=Menu;
 2956              		.loc 1 453 0
 2957 00c2 754B     		ldr	r3, .L228+16
 2958 00c4 1B78     		ldrb	r3, [r3]	@ zero_extendqisi2
 2959 00c6 9342     		cmp	r3, r2
 2960 00c8 00F08280 		beq	.L194
 454:main.c        ****       }else if(Rx_Buffer[3]==0x08){//08 es Fecha y hora
 2961              		.loc 1 454 0
 2962 00cc 724B     		ldr	r3, .L228+16
 2963 00ce 1A70     		strb	r2, [r3]
 2964 00d0 7EE0     		b	.L194
 2965              	.L199:
 455:main.c        ****          Menu=7;
 2966              		.loc 1 455 0
 2967 00d2 0829     		cmp	r1, #8
 2968 00d4 09D1     		bne	.L200
 456:main.c        ****          if(MenuAntt!=Menu)
 2969              		.loc 1 456 0
 2970 00d6 0722     		movs	r2, #7
 2971 00d8 6E4B     		ldr	r3, .L228+12
 2972 00da 1A70     		strb	r2, [r3]
 457:main.c        ****             MenuAntt=Menu;
 2973              		.loc 1 457 0
 2974 00dc 6E4B     		ldr	r3, .L228+16
 2975 00de 1B78     		ldrb	r3, [r3]	@ zero_extendqisi2
 2976 00e0 9342     		cmp	r3, r2
 2977 00e2 75D0     		beq	.L194
 458:main.c        ****       }else if(Rx_Buffer[3]==0x09){//09 es Rampas
 2978              		.loc 1 458 0
 2979 00e4 6C4B     		ldr	r3, .L228+16
 2980 00e6 1A70     		strb	r2, [r3]
 2981 00e8 72E0     		b	.L194
 2982              	.L200:
 459:main.c        ****          Menu=8;
 2983              		.loc 1 459 0
 2984 00ea 0929     		cmp	r1, #9
 2985 00ec 09D1     		bne	.L201
 460:main.c        ****          if(MenuAntt!=Menu)
 2986              		.loc 1 460 0
 2987 00ee 0822     		movs	r2, #8
 2988 00f0 684B     		ldr	r3, .L228+12
 2989 00f2 1A70     		strb	r2, [r3]
 461:main.c        ****             MenuAntt=Menu;
 2990              		.loc 1 461 0
 2991 00f4 684B     		ldr	r3, .L228+16
 2992 00f6 1B78     		ldrb	r3, [r3]	@ zero_extendqisi2
 2993 00f8 9342     		cmp	r3, r2
 2994 00fa 69D0     		beq	.L194
 462:main.c        ****       }else if(Rx_Buffer[3]==0x0a){//0a es Pulsos de Vacio
ARM GAS  C:\Users\JPELEC~1\AppData\Local\Temp\ccEetrge.s 			page 73


 2995              		.loc 1 462 0
 2996 00fc 664B     		ldr	r3, .L228+16
 2997 00fe 1A70     		strb	r2, [r3]
 2998 0100 66E0     		b	.L194
 2999              	.L201:
 463:main.c        ****          Menu=9;
 3000              		.loc 1 463 0
 3001 0102 0A29     		cmp	r1, #10
 3002 0104 09D1     		bne	.L202
 464:main.c        ****          if(MenuAntt!=Menu)
 3003              		.loc 1 464 0
 3004 0106 0922     		movs	r2, #9
 3005 0108 624B     		ldr	r3, .L228+12
 3006 010a 1A70     		strb	r2, [r3]
 465:main.c        ****             MenuAntt=Menu;
 3007              		.loc 1 465 0
 3008 010c 624B     		ldr	r3, .L228+16
 3009 010e 1B78     		ldrb	r3, [r3]	@ zero_extendqisi2
 3010 0110 9342     		cmp	r3, r2
 3011 0112 5DD0     		beq	.L194
 466:main.c        ****       }else if(Rx_Buffer[3]==0x0f){//0f es Recibe caracteres de contraseña desde display
 3012              		.loc 1 466 0
 3013 0114 604B     		ldr	r3, .L228+16
 3014 0116 1A70     		strb	r2, [r3]
 3015 0118 5AE0     		b	.L194
 3016              	.L202:
 467:main.c        ****          
 3017              		.loc 1 467 0
 3018 011a 0F29     		cmp	r1, #15
 3019 011c 58D0     		beq	.L194
 469:main.c        ****          Menu=20;
 3020              		.loc 1 469 0
 3021 011e 1A29     		cmp	r1, #26
 3022 0120 09D1     		bne	.L203
 470:main.c        ****          if(MenuAntt!=Menu)
 3023              		.loc 1 470 0
 3024 0122 1422     		movs	r2, #20
 3025 0124 5B4B     		ldr	r3, .L228+12
 3026 0126 1A70     		strb	r2, [r3]
 471:main.c        ****             MenuAntt=Menu;
 3027              		.loc 1 471 0
 3028 0128 5B4B     		ldr	r3, .L228+16
 3029 012a 1B78     		ldrb	r3, [r3]	@ zero_extendqisi2
 3030 012c 9342     		cmp	r3, r2
 3031 012e 4FD0     		beq	.L194
 472:main.c        ****       }else if(Rx_Buffer[3]==0x1b){//1b es Menu de clave correcta
 3032              		.loc 1 472 0
 3033 0130 594B     		ldr	r3, .L228+16
 3034 0132 1A70     		strb	r2, [r3]
 3035 0134 4CE0     		b	.L194
 3036              	.L203:
 473:main.c        ****          Menu=15;
 3037              		.loc 1 473 0
 3038 0136 1B29     		cmp	r1, #27
 3039 0138 09D1     		bne	.L204
 474:main.c        ****          if(MenuAntt!=Menu)
 3040              		.loc 1 474 0
ARM GAS  C:\Users\JPELEC~1\AppData\Local\Temp\ccEetrge.s 			page 74


 3041 013a 0F22     		movs	r2, #15
 3042 013c 554B     		ldr	r3, .L228+12
 3043 013e 1A70     		strb	r2, [r3]
 475:main.c        ****             MenuAntt=Menu;
 3044              		.loc 1 475 0
 3045 0140 554B     		ldr	r3, .L228+16
 3046 0142 1B78     		ldrb	r3, [r3]	@ zero_extendqisi2
 3047 0144 9342     		cmp	r3, r2
 3048 0146 43D0     		beq	.L194
 476:main.c        ****       }else if(Rx_Buffer[3]==0x1c){//1c es Menu de clave incorrecta
 3049              		.loc 1 476 0
 3050 0148 534B     		ldr	r3, .L228+16
 3051 014a 1A70     		strb	r2, [r3]
 3052 014c 40E0     		b	.L194
 3053              	.L204:
 477:main.c        ****          Menu=16;
 3054              		.loc 1 477 0
 3055 014e 1C29     		cmp	r1, #28
 3056 0150 09D1     		bne	.L205
 478:main.c        ****          if(MenuAntt!=Menu)
 3057              		.loc 1 478 0
 3058 0152 1022     		movs	r2, #16
 3059 0154 4F4B     		ldr	r3, .L228+12
 3060 0156 1A70     		strb	r2, [r3]
 479:main.c        ****             MenuAntt=Menu;
 3061              		.loc 1 479 0
 3062 0158 4F4B     		ldr	r3, .L228+16
 3063 015a 1B78     		ldrb	r3, [r3]	@ zero_extendqisi2
 3064 015c 9342     		cmp	r3, r2
 3065 015e 37D0     		beq	.L194
 480:main.c        ****       }else if(Rx_Buffer[3]==0x1d){//1d es Menu de Eliminado Programa
 3066              		.loc 1 480 0
 3067 0160 4D4B     		ldr	r3, .L228+16
 3068 0162 1A70     		strb	r2, [r3]
 3069 0164 34E0     		b	.L194
 3070              	.L205:
 481:main.c        ****          Menu=17;
 3071              		.loc 1 481 0
 3072 0166 1D29     		cmp	r1, #29
 3073 0168 09D1     		bne	.L206
 482:main.c        ****          if(MenuAntt!=Menu)
 3074              		.loc 1 482 0
 3075 016a 1122     		movs	r2, #17
 3076 016c 494B     		ldr	r3, .L228+12
 3077 016e 1A70     		strb	r2, [r3]
 483:main.c        ****             MenuAntt=Menu;
 3078              		.loc 1 483 0
 3079 0170 494B     		ldr	r3, .L228+16
 3080 0172 1B78     		ldrb	r3, [r3]	@ zero_extendqisi2
 3081 0174 9342     		cmp	r3, r2
 3082 0176 2BD0     		beq	.L194
 484:main.c        ****       }else if(Rx_Buffer[3]==0x1e){//1d es Menu de Pregunta
 3083              		.loc 1 484 0
 3084 0178 474B     		ldr	r3, .L228+16
 3085 017a 1A70     		strb	r2, [r3]
 3086 017c 28E0     		b	.L194
 3087              	.L206:
ARM GAS  C:\Users\JPELEC~1\AppData\Local\Temp\ccEetrge.s 			page 75


 485:main.c        ****          Menu=18;
 3088              		.loc 1 485 0
 3089 017e 1E29     		cmp	r1, #30
 3090 0180 09D1     		bne	.L207
 486:main.c        ****          if(MenuAntt!=Menu)
 3091              		.loc 1 486 0
 3092 0182 1222     		movs	r2, #18
 3093 0184 434B     		ldr	r3, .L228+12
 3094 0186 1A70     		strb	r2, [r3]
 487:main.c        ****             MenuAntt=Menu;
 3095              		.loc 1 487 0
 3096 0188 434B     		ldr	r3, .L228+16
 3097 018a 1B78     		ldrb	r3, [r3]	@ zero_extendqisi2
 3098 018c 9342     		cmp	r3, r2
 3099 018e 1FD0     		beq	.L194
 488:main.c        ****       }else if(Rx_Buffer[3]==0x2c){//2c es Menu de Configuracion de Parametros
 3100              		.loc 1 488 0
 3101 0190 414B     		ldr	r3, .L228+16
 3102 0192 1A70     		strb	r2, [r3]
 3103 0194 1CE0     		b	.L194
 3104              	.L207:
 489:main.c        ****          Menu=100;
 3105              		.loc 1 489 0
 3106 0196 2C29     		cmp	r1, #44
 3107 0198 09D1     		bne	.L208
 490:main.c        ****          if(MenuAntt!=Menu)
 3108              		.loc 1 490 0
 3109 019a 6422     		movs	r2, #100
 3110 019c 3D4B     		ldr	r3, .L228+12
 3111 019e 1A70     		strb	r2, [r3]
 491:main.c        ****             MenuAntt=Menu;
 3112              		.loc 1 491 0
 3113 01a0 3D4B     		ldr	r3, .L228+16
 3114 01a2 1B78     		ldrb	r3, [r3]	@ zero_extendqisi2
 3115 01a4 9342     		cmp	r3, r2
 3116 01a6 13D0     		beq	.L194
 492:main.c        ****       }else if(Rx_Buffer[3]==0xcc){//cc es Menu de Bienvenida
 3117              		.loc 1 492 0
 3118 01a8 3B4B     		ldr	r3, .L228+16
 3119 01aa 1A70     		strb	r2, [r3]
 3120 01ac 10E0     		b	.L194
 3121              	.L208:
 493:main.c        ****          Menu=120;
 3122              		.loc 1 493 0
 3123 01ae CC29     		cmp	r1, #204
 3124 01b0 0ED1     		bne	.L194
 494:main.c        ****          //if(MenuAntt!=120)
 3125              		.loc 1 494 0
 3126 01b2 7822     		movs	r2, #120
 3127 01b4 374B     		ldr	r3, .L228+12
 3128 01b6 1A70     		strb	r2, [r3]
 3129 01b8 0AE0     		b	.L194
 3130              	.L192:
 499:main.c        ****             //Rx_Buffer[z]=0;
 3131              		.loc 1 499 0
 3132 01ba 0022     		movs	r2, #0
 3133 01bc 374B     		ldr	r3, .L228+20
ARM GAS  C:\Users\JPELEC~1\AppData\Local\Temp\ccEetrge.s 			page 76


 3134 01be 1A70     		strb	r2, [r3]
 3135 01c0 02E0     		b	.L209
 3136              	.L210:
 499:main.c        ****             //Rx_Buffer[z]=0;
 3137              		.loc 1 499 0 is_stmt 0 discriminator 3
 3138 01c2 0133     		adds	r3, r3, #1
 3139 01c4 354A     		ldr	r2, .L228+20
 3140 01c6 1370     		strb	r3, [r2]
 3141              	.L209:
 499:main.c        ****             //Rx_Buffer[z]=0;
 3142              		.loc 1 499 0 discriminator 1
 3143 01c8 344B     		ldr	r3, .L228+20
 3144 01ca 1B78     		ldrb	r3, [r3]	@ zero_extendqisi2
 3145 01cc 092B     		cmp	r3, #9
 3146 01ce F8D9     		bls	.L210
 3147              	.L194:
 505:main.c        ****          Rx_Buffer3[0]=Rx_Buffer4[0];
 3148              		.loc 1 505 0 is_stmt 1
 3149 01d0 334B     		ldr	r3, .L228+24
 3150 01d2 1B78     		ldrb	r3, [r3]	@ zero_extendqisi2
 3151 01d4 052B     		cmp	r3, #5
 3152 01d6 40F0D580 		bne	.L211
 506:main.c        ****          Rx_Buffer3[1]=Rx_Buffer4[1];
 3153              		.loc 1 506 0
 3154 01da 324A     		ldr	r2, .L228+28
 3155 01dc 1178     		ldrb	r1, [r2]	@ zero_extendqisi2
 3156 01de 324B     		ldr	r3, .L228+32
 3157 01e0 1970     		strb	r1, [r3]
 507:main.c        ****          Rx_Buffer3[2]=Rx_Buffer4[2];
 3158              		.loc 1 507 0
 3159 01e2 5178     		ldrb	r1, [r2, #1]	@ zero_extendqisi2
 3160 01e4 5970     		strb	r1, [r3, #1]
 508:main.c        ****          Rx_Buffer3[3]=Rx_Buffer4[3];
 3161              		.loc 1 508 0
 3162 01e6 9178     		ldrb	r1, [r2, #2]	@ zero_extendqisi2
 3163 01e8 9970     		strb	r1, [r3, #2]
 509:main.c        ****          Rx_Buffer3[4]=Rx_Buffer4[4];
 3164              		.loc 1 509 0
 3165 01ea D178     		ldrb	r1, [r2, #3]	@ zero_extendqisi2
 3166 01ec D970     		strb	r1, [r3, #3]
 510:main.c        ****          Rx_Buffer3[5]=Rx_Buffer4[5];
 3167              		.loc 1 510 0
 3168 01ee 1079     		ldrb	r0, [r2, #4]	@ zero_extendqisi2
 3169 01f0 1871     		strb	r0, [r3, #4]
 511:main.c        ****          Rx_Buffer3[6]=Rx_Buffer4[6];
 3170              		.loc 1 511 0
 3171 01f2 5079     		ldrb	r0, [r2, #5]	@ zero_extendqisi2
 3172 01f4 5871     		strb	r0, [r3, #5]
 512:main.c        ****          Rx_Buffer3[7]=Rx_Buffer4[7];
 3173              		.loc 1 512 0
 3174 01f6 9079     		ldrb	r0, [r2, #6]	@ zero_extendqisi2
 3175 01f8 9871     		strb	r0, [r3, #6]
 513:main.c        ****          Rx_Buffer3[8]=Rx_Buffer4[8];
 3176              		.loc 1 513 0
 3177 01fa D079     		ldrb	r0, [r2, #7]	@ zero_extendqisi2
 3178 01fc D871     		strb	r0, [r3, #7]
 514:main.c        ****          Rx_Buffer3[9]=Rx_Buffer4[9];
ARM GAS  C:\Users\JPELEC~1\AppData\Local\Temp\ccEetrge.s 			page 77


 3179              		.loc 1 514 0
 3180 01fe 107A     		ldrb	r0, [r2, #8]	@ zero_extendqisi2
 3181 0200 1872     		strb	r0, [r3, #8]
 515:main.c        ****          
 3182              		.loc 1 515 0
 3183 0202 527A     		ldrb	r2, [r2, #9]	@ zero_extendqisi2
 3184 0204 5A72     		strb	r2, [r3, #9]
 517:main.c        ****          Menu2=0;
 3185              		.loc 1 517 0
 3186 0206 0129     		cmp	r1, #1
 3187 0208 0AD1     		bne	.L212
 518:main.c        ****          if(MenuAntt2!=Menu2)
 3188              		.loc 1 518 0
 3189 020a 0022     		movs	r2, #0
 3190 020c 274B     		ldr	r3, .L228+36
 3191 020e 1A70     		strb	r2, [r3]
 519:main.c        ****             MenuAntt2=Menu2;
 3192              		.loc 1 519 0
 3193 0210 274B     		ldr	r3, .L228+40
 3194 0212 1B78     		ldrb	r3, [r3]	@ zero_extendqisi2
 3195 0214 002B     		cmp	r3, #0
 3196 0216 00F0C080 		beq	.L191
 520:main.c        ****       }else if(Rx_Buffer3[3]==0x02){//02 es Menu Principal con PantallaPriincipal=0, y con Pantalla
 3197              		.loc 1 520 0
 3198 021a 254B     		ldr	r3, .L228+40
 3199 021c 1A70     		strb	r2, [r3]
 3200 021e 7047     		bx	lr
 3201              	.L212:
 521:main.c        ****          Menu2=1;
 3202              		.loc 1 521 0
 3203 0220 0229     		cmp	r1, #2
 3204 0222 0AD1     		bne	.L214
 522:main.c        ****          if(MenuAntt2!=Menu2)
 3205              		.loc 1 522 0
 3206 0224 0122     		movs	r2, #1
 3207 0226 214B     		ldr	r3, .L228+36
 3208 0228 1A70     		strb	r2, [r3]
 523:main.c        ****             MenuAntt2=Menu2;
 3209              		.loc 1 523 0
 3210 022a 214B     		ldr	r3, .L228+40
 3211 022c 1B78     		ldrb	r3, [r3]	@ zero_extendqisi2
 3212 022e 9342     		cmp	r3, r2
 3213 0230 00F0B380 		beq	.L191
 524:main.c        ****       }else if(Rx_Buffer3[3]==0x04){//03 es Tiempo Esterilizacion
 3214              		.loc 1 524 0
 3215 0234 1E4B     		ldr	r3, .L228+40
 3216 0236 1A70     		strb	r2, [r3]
 3217 0238 7047     		bx	lr
 3218              	.L214:
 525:main.c        ****          Menu2=2;
 3219              		.loc 1 525 0
 3220 023a 0429     		cmp	r1, #4
 3221 023c 0AD1     		bne	.L215
 526:main.c        ****          if(MenuAntt2!=Menu2)
 3222              		.loc 1 526 0
 3223 023e 0222     		movs	r2, #2
 3224 0240 1A4B     		ldr	r3, .L228+36
ARM GAS  C:\Users\JPELEC~1\AppData\Local\Temp\ccEetrge.s 			page 78


 3225 0242 1A70     		strb	r2, [r3]
 527:main.c        ****             MenuAntt2=Menu2;
 3226              		.loc 1 527 0
 3227 0244 1A4B     		ldr	r3, .L228+40
 3228 0246 1B78     		ldrb	r3, [r3]	@ zero_extendqisi2
 3229 0248 9342     		cmp	r3, r2
 3230 024a 00F0A680 		beq	.L191
 528:main.c        ****       }else if(Rx_Buffer3[3]==0x05){//05 es Temperatura
 3231              		.loc 1 528 0
 3232 024e 184B     		ldr	r3, .L228+40
 3233 0250 1A70     		strb	r2, [r3]
 3234 0252 7047     		bx	lr
 3235              	.L215:
 529:main.c        ****          Menu2=3;
 3236              		.loc 1 529 0
 3237 0254 0529     		cmp	r1, #5
 3238 0256 0AD1     		bne	.L216
 530:main.c        ****          if(MenuAntt2!=Menu2)
 3239              		.loc 1 530 0
 3240 0258 0322     		movs	r2, #3
 3241 025a 144B     		ldr	r3, .L228+36
 3242 025c 1A70     		strb	r2, [r3]
 531:main.c        ****             MenuAntt2=Menu2;
 3243              		.loc 1 531 0
 3244 025e 144B     		ldr	r3, .L228+40
 3245 0260 1B78     		ldrb	r3, [r3]	@ zero_extendqisi2
 3246 0262 9342     		cmp	r3, r2
 3247 0264 00F09980 		beq	.L191
 532:main.c        ****       }else if(Rx_Buffer3[3]==0x06){//06 es Nivel
 3248              		.loc 1 532 0
 3249 0268 114B     		ldr	r3, .L228+40
 3250 026a 1A70     		strb	r2, [r3]
 3251 026c 7047     		bx	lr
 3252              	.L216:
 533:main.c        ****          Menu2=5;
 3253              		.loc 1 533 0
 3254 026e 0629     		cmp	r1, #6
 3255 0270 20D1     		bne	.L217
 534:main.c        ****          if(MenuAntt2!=Menu2)
 3256              		.loc 1 534 0
 3257 0272 0522     		movs	r2, #5
 3258 0274 0D4B     		ldr	r3, .L228+36
 3259 0276 1A70     		strb	r2, [r3]
 535:main.c        ****             MenuAntt2=Menu2;
 3260              		.loc 1 535 0
 3261 0278 0D4B     		ldr	r3, .L228+40
 3262 027a 1B78     		ldrb	r3, [r3]	@ zero_extendqisi2
 3263 027c 9342     		cmp	r3, r2
 3264 027e 00F08C80 		beq	.L191
 536:main.c        ****       }else if(Rx_Buffer3[3]==0x07){//07 es Test de Componentes
 3265              		.loc 1 536 0
 3266 0282 0B4B     		ldr	r3, .L228+40
 3267 0284 1A70     		strb	r2, [r3]
 3268 0286 7047     		bx	lr
 3269              	.L229:
 3270              		.align	2
 3271              	.L228:
ARM GAS  C:\Users\JPELEC~1\AppData\Local\Temp\ccEetrge.s 			page 79


 3272 0288 00000000 		.word	Dato_Exitoso
 3273 028c 00000000 		.word	Rx_Buffer2
 3274 0290 00000000 		.word	Rx_Buffer
 3275 0294 00000000 		.word	Menu
 3276 0298 00000000 		.word	MenuAntt
 3277 029c 00000000 		.word	z
 3278 02a0 00000000 		.word	Dato_Exitoso2
 3279 02a4 00000000 		.word	Rx_Buffer4
 3280 02a8 00000000 		.word	Rx_Buffer3
 3281 02ac 00000000 		.word	Menu2
 3282 02b0 00000000 		.word	MenuAntt2
 3283              	.L217:
 537:main.c        ****          Menu2=6;
 3284              		.loc 1 537 0
 3285 02b4 0729     		cmp	r1, #7
 3286 02b6 09D1     		bne	.L218
 538:main.c        ****          if(MenuAntt2!=Menu2)
 3287              		.loc 1 538 0
 3288 02b8 0622     		movs	r2, #6
 3289 02ba 384B     		ldr	r3, .L230
 3290 02bc 1A70     		strb	r2, [r3]
 539:main.c        ****             MenuAntt2=Menu2;
 3291              		.loc 1 539 0
 3292 02be 384B     		ldr	r3, .L230+4
 3293 02c0 1B78     		ldrb	r3, [r3]	@ zero_extendqisi2
 3294 02c2 9342     		cmp	r3, r2
 3295 02c4 69D0     		beq	.L191
 540:main.c        ****       }else if(Rx_Buffer3[3]==0x08){//08 es Fecha y hora
 3296              		.loc 1 540 0
 3297 02c6 364B     		ldr	r3, .L230+4
 3298 02c8 1A70     		strb	r2, [r3]
 3299 02ca 7047     		bx	lr
 3300              	.L218:
 541:main.c        ****          Menu2=7;
 3301              		.loc 1 541 0
 3302 02cc 0829     		cmp	r1, #8
 3303 02ce 09D1     		bne	.L219
 542:main.c        ****          if(MenuAntt2!=Menu2)
 3304              		.loc 1 542 0
 3305 02d0 0722     		movs	r2, #7
 3306 02d2 324B     		ldr	r3, .L230
 3307 02d4 1A70     		strb	r2, [r3]
 543:main.c        ****             MenuAntt2=Menu2;
 3308              		.loc 1 543 0
 3309 02d6 324B     		ldr	r3, .L230+4
 3310 02d8 1B78     		ldrb	r3, [r3]	@ zero_extendqisi2
 3311 02da 9342     		cmp	r3, r2
 3312 02dc 5DD0     		beq	.L191
 544:main.c        ****       }else if(Rx_Buffer3[3]==0x09){//09 es Rampas
 3313              		.loc 1 544 0
 3314 02de 304B     		ldr	r3, .L230+4
 3315 02e0 1A70     		strb	r2, [r3]
 3316 02e2 7047     		bx	lr
 3317              	.L219:
 545:main.c        ****          Menu2=8;
 3318              		.loc 1 545 0
 3319 02e4 0929     		cmp	r1, #9
ARM GAS  C:\Users\JPELEC~1\AppData\Local\Temp\ccEetrge.s 			page 80


 3320 02e6 09D1     		bne	.L220
 546:main.c        ****          if(MenuAntt2!=Menu2)
 3321              		.loc 1 546 0
 3322 02e8 0822     		movs	r2, #8
 3323 02ea 2C4B     		ldr	r3, .L230
 3324 02ec 1A70     		strb	r2, [r3]
 547:main.c        ****             MenuAntt2=Menu2;
 3325              		.loc 1 547 0
 3326 02ee 2C4B     		ldr	r3, .L230+4
 3327 02f0 1B78     		ldrb	r3, [r3]	@ zero_extendqisi2
 3328 02f2 9342     		cmp	r3, r2
 3329 02f4 51D0     		beq	.L191
 548:main.c        ****       }else if(Rx_Buffer3[3]==0x0a){//0a es Grafica
 3330              		.loc 1 548 0
 3331 02f6 2A4B     		ldr	r3, .L230+4
 3332 02f8 1A70     		strb	r2, [r3]
 3333 02fa 7047     		bx	lr
 3334              	.L220:
 549:main.c        ****          Menu2=9;
 3335              		.loc 1 549 0
 3336 02fc 0A29     		cmp	r1, #10
 3337 02fe 09D1     		bne	.L221
 550:main.c        ****          if(MenuAntt2!=Menu2)
 3338              		.loc 1 550 0
 3339 0300 0922     		movs	r2, #9
 3340 0302 264B     		ldr	r3, .L230
 3341 0304 1A70     		strb	r2, [r3]
 551:main.c        ****             MenuAntt2=Menu2;
 3342              		.loc 1 551 0
 3343 0306 264B     		ldr	r3, .L230+4
 3344 0308 1B78     		ldrb	r3, [r3]	@ zero_extendqisi2
 3345 030a 9342     		cmp	r3, r2
 3346 030c 45D0     		beq	.L191
 552:main.c        ****       }else if(Rx_Buffer3[3]==0x0f){//0f es Recibe caracteres de contraseña desde display
 3347              		.loc 1 552 0
 3348 030e 244B     		ldr	r3, .L230+4
 3349 0310 1A70     		strb	r2, [r3]
 3350 0312 7047     		bx	lr
 3351              	.L221:
 553:main.c        ****          
 3352              		.loc 1 553 0
 3353 0314 0F29     		cmp	r1, #15
 3354 0316 40D0     		beq	.L191
 555:main.c        ****          Menu2=20;
 3355              		.loc 1 555 0
 3356 0318 1A29     		cmp	r1, #26
 3357 031a 09D1     		bne	.L222
 556:main.c        ****          if(MenuAntt2!=Menu2)
 3358              		.loc 1 556 0
 3359 031c 1422     		movs	r2, #20
 3360 031e 1F4B     		ldr	r3, .L230
 3361 0320 1A70     		strb	r2, [r3]
 557:main.c        ****             MenuAntt2=Menu2;
 3362              		.loc 1 557 0
 3363 0322 1F4B     		ldr	r3, .L230+4
 3364 0324 1B78     		ldrb	r3, [r3]	@ zero_extendqisi2
 3365 0326 9342     		cmp	r3, r2
ARM GAS  C:\Users\JPELEC~1\AppData\Local\Temp\ccEetrge.s 			page 81


 3366 0328 37D0     		beq	.L191
 558:main.c        ****       }else if(Rx_Buffer3[3]==0x1b){//1b es Menu de clave correcta
 3367              		.loc 1 558 0
 3368 032a 1D4B     		ldr	r3, .L230+4
 3369 032c 1A70     		strb	r2, [r3]
 3370 032e 7047     		bx	lr
 3371              	.L222:
 559:main.c        ****          Menu2=15;
 3372              		.loc 1 559 0
 3373 0330 1B29     		cmp	r1, #27
 3374 0332 09D1     		bne	.L223
 560:main.c        ****          if(MenuAntt2!=Menu2)
 3375              		.loc 1 560 0
 3376 0334 0F22     		movs	r2, #15
 3377 0336 194B     		ldr	r3, .L230
 3378 0338 1A70     		strb	r2, [r3]
 561:main.c        ****             MenuAntt2=Menu2;
 3379              		.loc 1 561 0
 3380 033a 194B     		ldr	r3, .L230+4
 3381 033c 1B78     		ldrb	r3, [r3]	@ zero_extendqisi2
 3382 033e 9342     		cmp	r3, r2
 3383 0340 2BD0     		beq	.L191
 562:main.c        ****       }else if(Rx_Buffer3[3]==0x1c){//1c es Menu de clave incorrecta
 3384              		.loc 1 562 0
 3385 0342 174B     		ldr	r3, .L230+4
 3386 0344 1A70     		strb	r2, [r3]
 3387 0346 7047     		bx	lr
 3388              	.L223:
 563:main.c        ****          Menu2=16;
 3389              		.loc 1 563 0
 3390 0348 1C29     		cmp	r1, #28
 3391 034a 09D1     		bne	.L224
 564:main.c        ****          if(MenuAntt2!=Menu2)
 3392              		.loc 1 564 0
 3393 034c 1022     		movs	r2, #16
 3394 034e 134B     		ldr	r3, .L230
 3395 0350 1A70     		strb	r2, [r3]
 565:main.c        ****             MenuAntt2=Menu2;
 3396              		.loc 1 565 0
 3397 0352 134B     		ldr	r3, .L230+4
 3398 0354 1B78     		ldrb	r3, [r3]	@ zero_extendqisi2
 3399 0356 9342     		cmp	r3, r2
 3400 0358 1FD0     		beq	.L191
 566:main.c        ****       }else if(Rx_Buffer3[3]==0x2c){//2c es Menu de Configuracion de Parametros
 3401              		.loc 1 566 0
 3402 035a 114B     		ldr	r3, .L230+4
 3403 035c 1A70     		strb	r2, [r3]
 3404 035e 7047     		bx	lr
 3405              	.L224:
 567:main.c        ****          Menu2=100;
 3406              		.loc 1 567 0
 3407 0360 2C29     		cmp	r1, #44
 3408 0362 09D1     		bne	.L225
 568:main.c        ****          if(MenuAntt2!=Menu2)
 3409              		.loc 1 568 0
 3410 0364 6422     		movs	r2, #100
 3411 0366 0D4B     		ldr	r3, .L230
ARM GAS  C:\Users\JPELEC~1\AppData\Local\Temp\ccEetrge.s 			page 82


 3412 0368 1A70     		strb	r2, [r3]
 569:main.c        ****             MenuAntt2=Menu2;
 3413              		.loc 1 569 0
 3414 036a 0D4B     		ldr	r3, .L230+4
 3415 036c 1B78     		ldrb	r3, [r3]	@ zero_extendqisi2
 3416 036e 9342     		cmp	r3, r2
 3417 0370 13D0     		beq	.L191
 570:main.c        ****       }else if(Rx_Buffer3[3]==0xcc){//cc es Menu de Bienvenida
 3418              		.loc 1 570 0
 3419 0372 0B4B     		ldr	r3, .L230+4
 3420 0374 1A70     		strb	r2, [r3]
 3421 0376 7047     		bx	lr
 3422              	.L225:
 571:main.c        ****          Menu2=120;
 3423              		.loc 1 571 0
 3424 0378 CC29     		cmp	r1, #204
 3425 037a 0ED1     		bne	.L191
 572:main.c        ****          //if(MenuAntt!=120)
 3426              		.loc 1 572 0
 3427 037c 7822     		movs	r2, #120
 3428 037e 074B     		ldr	r3, .L230
 3429 0380 1A70     		strb	r2, [r3]
 3430 0382 7047     		bx	lr
 3431              	.L211:
 577:main.c        ****             //Rx_Buffer[z]=0;
 3432              		.loc 1 577 0
 3433 0384 0022     		movs	r2, #0
 3434 0386 074B     		ldr	r3, .L230+8
 3435 0388 1A70     		strb	r2, [r3]
 3436 038a 02E0     		b	.L226
 3437              	.L227:
 577:main.c        ****             //Rx_Buffer[z]=0;
 3438              		.loc 1 577 0 is_stmt 0 discriminator 3
 3439 038c 0133     		adds	r3, r3, #1
 3440 038e 054A     		ldr	r2, .L230+8
 3441 0390 1370     		strb	r3, [r2]
 3442              	.L226:
 577:main.c        ****             //Rx_Buffer[z]=0;
 3443              		.loc 1 577 0 discriminator 1
 3444 0392 044B     		ldr	r3, .L230+8
 3445 0394 1B78     		ldrb	r3, [r3]	@ zero_extendqisi2
 3446 0396 092B     		cmp	r3, #9
 3447 0398 F8D9     		bls	.L227
 3448              	.L191:
 3449 039a 7047     		bx	lr
 3450              	.L231:
 3451              		.align	2
 3452              	.L230:
 3453 039c 00000000 		.word	Menu2
 3454 03a0 00000000 		.word	MenuAntt2
 3455 03a4 00000000 		.word	z
 3456              		.cfi_endproc
 3457              	.LFE72:
 3458              		.size	LeeDisplay, .-LeeDisplay
 3459              		.global	__aeabi_dcmpge
 3460              		.section	.text.controlaRampa,"ax",%progbits
 3461              		.align	2
ARM GAS  C:\Users\JPELEC~1\AppData\Local\Temp\ccEetrge.s 			page 83


 3462              		.global	controlaRampa
 3463              		.thumb
 3464              		.thumb_func
 3465              		.type	controlaRampa, %function
 3466              	controlaRampa:
 3467              	.LFB73:
 584:main.c        ****       if(Temperatura>=Setpoint-10.0 && Temperatura<=Setpoint+40){
 3468              		.loc 1 584 0 is_stmt 1
 3469              		.cfi_startproc
 3470              		@ args = 0, pretend = 0, frame = 0
 3471              		@ frame_needed = 0, uses_anonymous_args = 0
 3472 0000 F8B5     		push	{r3, r4, r5, r6, r7, lr}
 3473              		.cfi_def_cfa_offset 24
 3474              		.cfi_offset 3, -24
 3475              		.cfi_offset 4, -20
 3476              		.cfi_offset 5, -16
 3477              		.cfi_offset 6, -12
 3478              		.cfi_offset 7, -8
 3479              		.cfi_offset 14, -4
 585:main.c        ****          if(Pendiente!=0){
 3480              		.loc 1 585 0
 3481 0002 344B     		ldr	r3, .L258
 3482 0004 1C68     		ldr	r4, [r3]	@ float
 3483 0006 2046     		mov	r0, r4
 3484 0008 FFF7FEFF 		bl	__aeabi_f2d
 3485              	.LVL270:
 3486 000c 0646     		mov	r6, r0
 3487 000e 0F46     		mov	r7, r1
 3488 0010 314B     		ldr	r3, .L258+4
 3489 0012 1D88     		ldrh	r5, [r3]
 3490 0014 2846     		mov	r0, r5
 3491 0016 FFF7FEFF 		bl	__aeabi_i2d
 3492              	.LVL271:
 3493 001a 0022     		movs	r2, #0
 3494 001c 2F4B     		ldr	r3, .L258+8
 3495 001e FFF7FEFF 		bl	__aeabi_dsub
 3496              	.LVL272:
 3497 0022 0246     		mov	r2, r0
 3498 0024 0B46     		mov	r3, r1
 3499 0026 3046     		mov	r0, r6
 3500 0028 3946     		mov	r1, r7
 3501 002a FFF7FEFF 		bl	__aeabi_dcmpge
 3502              	.LVL273:
 3503 002e 30B3     		cbz	r0, .L233
 585:main.c        ****          if(Pendiente!=0){
 3504              		.loc 1 585 0 is_stmt 0 discriminator 1
 3505 0030 05F12800 		add	r0, r5, #40
 3506 0034 FFF7FEFF 		bl	__aeabi_i2f
 3507              	.LVL274:
 3508 0038 0146     		mov	r1, r0
 3509 003a 2046     		mov	r0, r4
 3510 003c FFF7FEFF 		bl	__aeabi_fcmple
 3511              	.LVL275:
 3512 0040 E8B1     		cbz	r0, .L233
 586:main.c        ****             escribeDisplay2("t1.txt=\"Controlando\"");
 3513              		.loc 1 586 0 is_stmt 1
 3514 0042 0021     		movs	r1, #0
ARM GAS  C:\Users\JPELEC~1\AppData\Local\Temp\ccEetrge.s 			page 84


 3515 0044 264B     		ldr	r3, .L258+12
 3516 0046 1868     		ldr	r0, [r3]	@ float
 3517 0048 FFF7FEFF 		bl	__aeabi_fcmpeq
 3518              	.LVL276:
 3519 004c 28B9     		cbnz	r0, .L236
 587:main.c        ****             flagTemperatura=ON;            
 3520              		.loc 1 587 0
 3521 004e 2548     		ldr	r0, .L258+16
 3522 0050 FFF7FEFF 		bl	escribeDisplay2
 3523              	.LVL277:
 588:main.c        ****          }
 3524              		.loc 1 588 0
 3525 0054 0122     		movs	r2, #1
 3526 0056 244B     		ldr	r3, .L258+20
 3527 0058 1A80     		strh	r2, [r3]	@ movhi
 3528              	.L236:
 591:main.c        ****             escribeDisplay2("t1.txt=\"Meseta\"");
 3529              		.loc 1 591 0
 3530 005a 0021     		movs	r1, #0
 3531 005c 204B     		ldr	r3, .L258+12
 3532 005e 1868     		ldr	r0, [r3]	@ float
 3533 0060 FFF7FEFF 		bl	__aeabi_fcmpeq
 3534              	.LVL278:
 3535 0064 28B1     		cbz	r0, .L238
 592:main.c        ****             flagTemperatura=ON;
 3536              		.loc 1 592 0
 3537 0066 2148     		ldr	r0, .L258+24
 3538 0068 FFF7FEFF 		bl	escribeDisplay2
 3539              	.LVL279:
 593:main.c        ****          }
 3540              		.loc 1 593 0
 3541 006c 0122     		movs	r2, #1
 3542 006e 1E4B     		ldr	r3, .L258+20
 3543 0070 1A80     		strh	r2, [r3]	@ movhi
 3544              	.L238:
 595:main.c        ****          flag_tiempocalentamiento=0;
 3545              		.loc 1 595 0
 3546 0072 FFF7FEFF 		bl	Controla
 3547              	.LVL280:
 596:main.c        ****       }else{
 3548              		.loc 1 596 0
 3549 0076 0022     		movs	r2, #0
 3550 0078 1D4B     		ldr	r3, .L258+28
 3551 007a 1A80     		strh	r2, [r3]	@ movhi
 3552 007c F8BD     		pop	{r3, r4, r5, r6, r7, pc}
 3553              	.L233:
 598:main.c        ****             if(Pendiente>0)
 3554              		.loc 1 598 0
 3555 007e 184B     		ldr	r3, .L258+12
 3556 0080 1C68     		ldr	r4, [r3]	@ float
 3557 0082 0021     		movs	r1, #0
 3558 0084 2046     		mov	r0, r4
 3559 0086 FFF7FEFF 		bl	__aeabi_fcmpeq
 3560              	.LVL281:
 3561 008a 98B9     		cbnz	r0, .L241
 599:main.c        ****                 escribeDisplay2("t1.txt=\"Rampa +\"");
 3562              		.loc 1 599 0
ARM GAS  C:\Users\JPELEC~1\AppData\Local\Temp\ccEetrge.s 			page 85


 3563 008c 0021     		movs	r1, #0
 3564 008e 2046     		mov	r0, r4
 3565 0090 FFF7FEFF 		bl	__aeabi_fcmpgt
 3566              	.LVL282:
 3567 0094 10B1     		cbz	r0, .L243
 600:main.c        ****             if(Pendiente<0)
 3568              		.loc 1 600 0
 3569 0096 1748     		ldr	r0, .L258+32
 3570 0098 FFF7FEFF 		bl	escribeDisplay2
 3571              	.LVL283:
 3572              	.L243:
 601:main.c        ****                 escribeDisplay2("t1.txt=\"Rampa -\"");    
 3573              		.loc 1 601 0
 3574 009c 0021     		movs	r1, #0
 3575 009e 104B     		ldr	r3, .L258+12
 3576 00a0 1868     		ldr	r0, [r3]	@ float
 3577 00a2 FFF7FEFF 		bl	__aeabi_fcmplt
 3578              	.LVL284:
 3579 00a6 10B1     		cbz	r0, .L245
 602:main.c        ****             flagTemperatura=ON;            
 3580              		.loc 1 602 0
 3581 00a8 1348     		ldr	r0, .L258+36
 3582 00aa FFF7FEFF 		bl	escribeDisplay2
 3583              	.LVL285:
 3584              	.L245:
 603:main.c        ****          }
 3585              		.loc 1 603 0
 3586 00ae 0122     		movs	r2, #1
 3587 00b0 0D4B     		ldr	r3, .L258+20
 3588 00b2 1A80     		strh	r2, [r3]	@ movhi
 3589              	.L241:
 605:main.c        ****             escribeDisplay2("t1.txt=\"Calentando\"");
 3590              		.loc 1 605 0
 3591 00b4 0021     		movs	r1, #0
 3592 00b6 0A4B     		ldr	r3, .L258+12
 3593 00b8 1868     		ldr	r0, [r3]	@ float
 3594 00ba FFF7FEFF 		bl	__aeabi_fcmpeq
 3595              	.LVL286:
 3596 00be 28B1     		cbz	r0, .L247
 606:main.c        ****             flagTemperatura=OFF;            
 3597              		.loc 1 606 0
 3598 00c0 0E48     		ldr	r0, .L258+40
 3599 00c2 FFF7FEFF 		bl	escribeDisplay2
 3600              	.LVL287:
 607:main.c        ****          }
 3601              		.loc 1 607 0
 3602 00c6 0022     		movs	r2, #0
 3603 00c8 074B     		ldr	r3, .L258+20
 3604 00ca 1A80     		strh	r2, [r3]	@ movhi
 3605              	.L247:
 609:main.c        ****       }
 3606              		.loc 1 609 0
 3607 00cc FFF7FEFF 		bl	Controla
 3608              	.LVL288:
 3609 00d0 F8BD     		pop	{r3, r4, r5, r6, r7, pc}
 3610              	.L259:
 3611 00d2 00BF     		.align	2
ARM GAS  C:\Users\JPELEC~1\AppData\Local\Temp\ccEetrge.s 			page 86


 3612              	.L258:
 3613 00d4 00000000 		.word	Temperatura
 3614 00d8 00000000 		.word	Setpoint
 3615 00dc 00002440 		.word	1076101120
 3616 00e0 00000000 		.word	Pendiente
 3617 00e4 0C000000 		.word	.LC1
 3618 00e8 00000000 		.word	flagTemperatura
 3619 00ec 24000000 		.word	.LC2
 3620 00f0 00000000 		.word	flag_tiempocalentamiento
 3621 00f4 34000000 		.word	.LC3
 3622 00f8 48000000 		.word	.LC4
 3623 00fc 5C000000 		.word	.LC5
 3624              		.cfi_endproc
 3625              	.LFE73:
 3626              		.size	controlaRampa, .-controlaRampa
 3627              		.section	.text.leeTermocupla,"ax",%progbits
 3628              		.align	2
 3629              		.global	leeTermocupla
 3630              		.thumb
 3631              		.thumb_func
 3632              		.type	leeTermocupla, %function
 3633              	leeTermocupla:
 3634              	.LFB74:
 613:main.c        ****     Prom=0.0;
 3635              		.loc 1 613 0
 3636              		.cfi_startproc
 3637              		@ args = 0, pretend = 0, frame = 0
 3638              		@ frame_needed = 0, uses_anonymous_args = 0
 3639              	.LVL289:
 3640 0000 F8B5     		push	{r3, r4, r5, r6, r7, lr}
 3641              		.cfi_def_cfa_offset 24
 3642              		.cfi_offset 3, -24
 3643              		.cfi_offset 4, -20
 3644              		.cfi_offset 5, -16
 3645              		.cfi_offset 6, -12
 3646              		.cfi_offset 7, -8
 3647              		.cfi_offset 14, -4
 3648 0002 0646     		mov	r6, r0
 614:main.c        ****     /* Measure cold junction temperature */
 3649              		.loc 1 614 0
 3650 0004 0022     		movs	r2, #0
 3651 0006 424B     		ldr	r3, .L265
 3652 0008 1A60     		str	r2, [r3]	@ float
 616:main.c        **** 	/* Convert cold junction temp to cold junction compensation voltage */
 3653              		.loc 1 616 0
 3654 000a FFF7FEFF 		bl	MeasureColdJnSensorTemp
 3655              	.LVL290:
 3656 000e 00B2     		sxth	r0, r0
 3657 0010 404B     		ldr	r3, .L265+4
 3658 0012 1880     		strh	r0, [r3]	@ movhi
 618:main.c        **** 	/* Read thermocouple hot junction voltage */
 3659              		.loc 1 618 0
 3660 0014 FFF7FEFF 		bl	Thermocouple_1_GetVoltage
 3661              	.LVL291:
 3662 0018 3F4C     		ldr	r4, .L265+8
 3663 001a 2060     		str	r0, [r4]
 621:main.c        **** 	ADC_StartConvert();
ARM GAS  C:\Users\JPELEC~1\AppData\Local\Temp\ccEetrge.s 			page 87


 3664              		.loc 1 621 0
 3665 001c 0121     		movs	r1, #1
 3666 001e 0220     		movs	r0, #2
 3667 0020 FFF7FEFF 		bl	ADC_SelectConfiguration
 3668              	.LVL292:
 622:main.c        ****     /*Note in this example a blocking call is used, this can be replaced
 3669              		.loc 1 622 0
 3670 0024 FFF7FEFF 		bl	ADC_StartConvert
 3671              	.LVL293:
 625:main.c        **** 	ADC_StopConvert();
 3672              		.loc 1 625 0
 3673 0028 0020     		movs	r0, #0
 3674 002a FFF7FEFF 		bl	ADC_IsEndConversion
 3675              	.LVL294:
 626:main.c        **** 	hotJnCount = ADC_GetResult32();
 3676              		.loc 1 626 0
 3677 002e FFF7FEFF 		bl	ADC_StopConvert
 3678              	.LVL295:
 627:main.c        **** 	/* Read ground reference voltage */
 3679              		.loc 1 627 0
 3680 0032 FFF7FEFF 		bl	ADC_GetResult32
 3681              	.LVL296:
 3682 0036 394B     		ldr	r3, .L265+12
 3683 0038 1860     		str	r0, [r3]
 629:main.c        **** 	/* Correlated double sampling to remove ADC offset */
 3684              		.loc 1 629 0
 3685 003a 0022     		movs	r2, #0
 3686 003c 384B     		ldr	r3, .L265+16
 3687 003e 1A80     		strh	r2, [r3]	@ movhi
 633:main.c        **** 	/* Find thermo-emf in microvolts */
 3688              		.loc 1 633 0
 3689 0040 FFF7FEFF 		bl	FilterSignal
 3690              	.LVL297:
 3691 0044 374B     		ldr	r3, .L265+20
 3692 0046 1860     		str	r0, [r3]
 635:main.c        **** 	/* Perform Cold junction compensation */
 3693              		.loc 1 635 0
 3694 0048 FFF7FEFF 		bl	ADC_CountsTo_uVolts
 3695              	.LVL298:
 3696 004c 364B     		ldr	r3, .L265+24
 3697 004e 1860     		str	r0, [r3]
 637:main.c        **** 	/* Convert thermo-emf to temperature */
 3698              		.loc 1 637 0
 3699 0050 2368     		ldr	r3, [r4]
 3700 0052 1844     		add	r0, r0, r3
 3701 0054 354B     		ldr	r3, .L265+28
 3702 0056 1860     		str	r0, [r3]
 639:main.c        ****     V0=(float)(tcTemp/100)+(float)(tcTemp-((tcTemp/100)*100))/100;
 3703              		.loc 1 639 0
 3704 0058 FFF7FEFF 		bl	Thermocouple_1_GetTemperature
 3705              	.LVL299:
 3706 005c 0546     		mov	r5, r0
 3707 005e 344B     		ldr	r3, .L265+32
 3708 0060 1860     		str	r0, [r3]
 640:main.c        ****             
 3709              		.loc 1 640 0
 3710 0062 344C     		ldr	r4, .L265+36
ARM GAS  C:\Users\JPELEC~1\AppData\Local\Temp\ccEetrge.s 			page 88


 3711 0064 84FB0034 		smull	r3, r4, r4, r0
 3712 0068 C317     		asrs	r3, r0, #31
 3713 006a C3EB6414 		rsb	r4, r3, r4, asr #5
 3714 006e 2046     		mov	r0, r4
 3715 0070 FFF7FEFF 		bl	__aeabi_i2f
 3716              	.LVL300:
 3717 0074 0746     		mov	r7, r0
 3718 0076 6420     		movs	r0, #100
 3719 0078 00FB1450 		mls	r0, r0, r4, r5
 3720 007c FFF7FEFF 		bl	__aeabi_i2f
 3721              	.LVL301:
 3722 0080 2D49     		ldr	r1, .L265+40
 3723 0082 FFF7FEFF 		bl	__aeabi_fdiv
 3724              	.LVL302:
 3725 0086 0146     		mov	r1, r0
 3726 0088 3846     		mov	r0, r7
 3727 008a FFF7FEFF 		bl	__aeabi_fadd
 3728              	.LVL303:
 3729 008e 2B4B     		ldr	r3, .L265+44
 3730 0090 1860     		str	r0, [r3]	@ float
 642:main.c        ****         l=0;
 3731              		.loc 1 642 0
 3732 0092 2B4B     		ldr	r3, .L265+48
 3733 0094 1A78     		ldrb	r2, [r3]	@ zero_extendqisi2
 3734 0096 731E     		subs	r3, r6, #1
 3735 0098 9A42     		cmp	r2, r3
 3736 009a 02DD     		ble	.L261
 643:main.c        ****    //promedio[l]=Temperature;l++;
 3737              		.loc 1 643 0
 3738 009c 0022     		movs	r2, #0
 3739 009e 284B     		ldr	r3, .L265+48
 3740 00a0 1A70     		strb	r2, [r3]
 3741              	.L261:
 645:main.c        ****          
 3742              		.loc 1 645 0
 3743 00a2 274A     		ldr	r2, .L265+48
 3744 00a4 1378     		ldrb	r3, [r2]	@ zero_extendqisi2
 3745 00a6 2749     		ldr	r1, .L265+52
 3746 00a8 41F82300 		str	r0, [r1, r3, lsl #2]	@ float
 3747 00ac 0133     		adds	r3, r3, #1
 3748 00ae 1370     		strb	r3, [r2]
 647:main.c        ****         Prom+=promedio[h];
 3749              		.loc 1 647 0
 3750 00b0 0022     		movs	r2, #0
 3751 00b2 254B     		ldr	r3, .L265+56
 3752 00b4 1A70     		strb	r2, [r3]
 3753 00b6 0AE0     		b	.L262
 3754              	.L263:
 648:main.c        ****     } 
 3755              		.loc 1 648 0 discriminator 3
 3756 00b8 154D     		ldr	r5, .L265
 3757 00ba 224B     		ldr	r3, .L265+52
 3758 00bc 53F82410 		ldr	r1, [r3, r4, lsl #2]	@ float
 3759 00c0 2868     		ldr	r0, [r5]	@ float
 3760 00c2 FFF7FEFF 		bl	__aeabi_fadd
 3761              	.LVL304:
 3762 00c6 2860     		str	r0, [r5]	@ float
ARM GAS  C:\Users\JPELEC~1\AppData\Local\Temp\ccEetrge.s 			page 89


 647:main.c        ****         Prom+=promedio[h];
 3763              		.loc 1 647 0 discriminator 3
 3764 00c8 0134     		adds	r4, r4, #1
 3765 00ca 1F4B     		ldr	r3, .L265+56
 3766 00cc 1C70     		strb	r4, [r3]
 3767              	.L262:
 647:main.c        ****         Prom+=promedio[h];
 3768              		.loc 1 647 0 is_stmt 0 discriminator 1
 3769 00ce 1E4B     		ldr	r3, .L265+56
 3770 00d0 1C78     		ldrb	r4, [r3]	@ zero_extendqisi2
 3771 00d2 A642     		cmp	r6, r4
 3772 00d4 F0D8     		bhi	.L263
 650:main.c        ****    
 3773              		.loc 1 650 0 is_stmt 1
 3774 00d6 0E4C     		ldr	r4, .L265
 3775 00d8 3046     		mov	r0, r6
 3776 00da FFF7FEFF 		bl	__aeabi_i2f
 3777              	.LVL305:
 3778 00de 0146     		mov	r1, r0
 3779 00e0 2068     		ldr	r0, [r4]	@ float
 3780 00e2 FFF7FEFF 		bl	__aeabi_fdiv
 3781              	.LVL306:
 3782 00e6 0546     		mov	r5, r0
 652:main.c        ****    
 3783              		.loc 1 652 0
 3784 00e8 184B     		ldr	r3, .L265+60
 3785 00ea 1878     		ldrb	r0, [r3]	@ zero_extendqisi2
 3786 00ec FFF7FEFF 		bl	__aeabi_ui2f
 3787              	.LVL307:
 3788 00f0 0646     		mov	r6, r0
 3789 00f2 174B     		ldr	r3, .L265+64
 3790 00f4 1878     		ldrb	r0, [r3]	@ zero_extendqisi2
 3791 00f6 FFF7FEFF 		bl	__aeabi_ui2f
 3792              	.LVL308:
 3793 00fa 0146     		mov	r1, r0
 3794 00fc 3046     		mov	r0, r6
 3795 00fe FFF7FEFF 		bl	__aeabi_fsub
 3796              	.LVL309:
 3797 0102 0146     		mov	r1, r0
 3798 0104 2846     		mov	r0, r5
 3799 0106 FFF7FEFF 		bl	__aeabi_fadd
 3800              	.LVL310:
 3801 010a 2060     		str	r0, [r4]	@ float
 656:main.c        **** 
 3802              		.loc 1 656 0
 3803 010c F8BD     		pop	{r3, r4, r5, r6, r7, pc}
 3804              	.L266:
 3805 010e 00BF     		.align	2
 3806              	.L265:
 3807 0110 00000000 		.word	Prom
 3808 0114 00000000 		.word	coldJnTemp
 3809 0118 00000000 		.word	tcColdJnuVolt
 3810 011c 00000000 		.word	hotJnCount
 3811 0120 00000000 		.word	offset
 3812 0124 00000000 		.word	filHotJnCount
 3813 0128 00000000 		.word	tcHotJnuVolt
 3814 012c 00000000 		.word	tcuVolt
ARM GAS  C:\Users\JPELEC~1\AppData\Local\Temp\ccEetrge.s 			page 90


 3815 0130 00000000 		.word	tcTemp
 3816 0134 1F85EB51 		.word	1374389535
 3817 0138 0000C842 		.word	1120403456
 3818 013c 00000000 		.word	V0
 3819 0140 00000000 		.word	l
 3820 0144 00000000 		.word	promedio
 3821 0148 00000000 		.word	h
 3822 014c 00000000 		.word	Ajuste
 3823 0150 00000000 		.word	Ajusten
 3824              		.cfi_endproc
 3825              	.LFE74:
 3826              		.size	leeTermocupla, .-leeTermocupla
 3827              		.global	__aeabi_f2uiz
 3828              		.section	.text.main,"ax",%progbits
 3829              		.align	2
 3830              		.global	main
 3831              		.thumb
 3832              		.thumb_func
 3833              		.type	main, %function
 3834              	main:
 3835              	.LFB79:
 752:main.c        ****     
 753:main.c        **** }
 754:main.c        **** 
 755:main.c        **** int main(void)
 756:main.c        **** { 
 3836              		.loc 1 756 0
 3837              		.cfi_startproc
 3838              		@ Volatile: function does not return.
 3839              		@ args = 0, pretend = 0, frame = 0
 3840              		@ frame_needed = 0, uses_anonymous_args = 0
 3841 0000 80B5     		push	{r7, lr}
 3842              		.cfi_def_cfa_offset 8
 3843              		.cfi_offset 7, -8
 3844              		.cfi_offset 14, -4
 3845 0002 82B0     		sub	sp, sp, #8
 3846              		.cfi_def_cfa_offset 16
 757:main.c        ****     CyGlobalIntEnable; /* Enable global interrupts. */    
 3847              		.loc 1 757 0
 3848              		.syntax unified
 3849              	@ 757 "main.c" 1
 3850 0004 62B6     		CPSIE   i
 3851              	@ 0 "" 2
 758:main.c        **** 
 759:main.c        ****     Reloj_StartEx(Reloj2);
 3852              		.loc 1 759 0
 3853              		.thumb
 3854              		.syntax unified
 3855 0006 9E48     		ldr	r0, .L453+8
 3856 0008 FFF7FEFF 		bl	Reloj_StartEx
 3857              	.LVL311:
 760:main.c        ****     leeT_StartEx(lee);
 3858              		.loc 1 760 0
 3859 000c 9D48     		ldr	r0, .L453+12
 3860 000e FFF7FEFF 		bl	leeT_StartEx
 3861              	.LVL312:
 761:main.c        ****     UART_1_Start();
ARM GAS  C:\Users\JPELEC~1\AppData\Local\Temp\ccEetrge.s 			page 91


 3862              		.loc 1 761 0
 3863 0012 FFF7FEFF 		bl	UART_1_Start
 3864              	.LVL313:
 762:main.c        ****     UART_2_Start();
 3865              		.loc 1 762 0
 3866 0016 FFF7FEFF 		bl	UART_2_Start
 3867              	.LVL314:
 763:main.c        ****     UART_3_Start();
 3868              		.loc 1 763 0
 3869 001a FFF7FEFF 		bl	UART_3_Start
 3870              	.LVL315:
 764:main.c        ****     RX2_StartEx(inteRX);
 3871              		.loc 1 764 0
 3872 001e 9A48     		ldr	r0, .L453+16
 3873 0020 FFF7FEFF 		bl	RX2_StartEx
 3874              	.LVL316:
 765:main.c        ****     RX1_StartEx(inteRX1);  
 3875              		.loc 1 765 0
 3876 0024 9948     		ldr	r0, .L453+20
 3877 0026 FFF7FEFF 		bl	RX1_StartEx
 3878              	.LVL317:
 766:main.c        ****     Timer_Start();  
 3879              		.loc 1 766 0
 3880 002a FFF7FEFF 		bl	Timer_Start
 3881              	.LVL318:
 767:main.c        ****     Timer2_Start();  
 3882              		.loc 1 767 0
 3883 002e FFF7FEFF 		bl	Timer2_Start
 3884              	.LVL319:
 768:main.c        ****     EEPROM_Start(); 
 3885              		.loc 1 768 0
 3886 0032 FFF7FEFF 		bl	EEPROM_Start
 3887              	.LVL320:
 769:main.c        ****     ADC_Start();
 3888              		.loc 1 769 0
 3889 0036 FFF7FEFF 		bl	ADC_Start
 3890              	.LVL321:
 770:main.c        ****     ADC_SAR_Start();
 3891              		.loc 1 770 0
 3892 003a FFF7FEFF 		bl	ADC_SAR_Start
 3893              	.LVL322:
 771:main.c        ****     ADC_SAR_IRQ_StartEx(ADC_SAR_ISR_LOC);
 3894              		.loc 1 771 0
 3895 003e 9448     		ldr	r0, .L453+24
 3896 0040 FFF7FEFF 		bl	ADC_SAR_IRQ_StartEx
 3897              	.LVL323:
 772:main.c        ****     ADC_SAR_StartConvert();
 3898              		.loc 1 772 0
 3899 0044 FFF7FEFF 		bl	ADC_SAR_StartConvert
 3900              	.LVL324:
 773:main.c        ****     I2C_Start();
 3901              		.loc 1 773 0
 3902 0048 FFF7FEFF 		bl	I2C_Start
 3903              	.LVL325:
 774:main.c        ****     
 775:main.c        ****     LCD2_Write(1);
 3904              		.loc 1 775 0
ARM GAS  C:\Users\JPELEC~1\AppData\Local\Temp\ccEetrge.s 			page 92


 3905 004c 0120     		movs	r0, #1
 3906 004e FFF7FEFF 		bl	LCD2_Write
 3907              	.LVL326:
 776:main.c        ****     LCD1_Write(1);
 3908              		.loc 1 776 0
 3909 0052 0120     		movs	r0, #1
 3910 0054 FFF7FEFF 		bl	LCD1_Write
 3911              	.LVL327:
 777:main.c        ****     CyDelay(100);
 3912              		.loc 1 777 0
 3913 0058 6420     		movs	r0, #100
 3914 005a FFF7FEFF 		bl	CyDelay
 3915              	.LVL328:
 778:main.c        ****     
 779:main.c        ****     for(i=0;i<80;i++){
 3916              		.loc 1 779 0
 3917 005e 0022     		movs	r2, #0
 3918 0060 8C4B     		ldr	r3, .L453+28
 3919 0062 1A70     		strb	r2, [r3]
 3920 0064 09E0     		b	.L268
 3921              	.L269:
 780:main.c        ****         Temperatura=leeTermocupla(MediaMovil);
 3922              		.loc 1 780 0 discriminator 3
 3923 0066 8C4B     		ldr	r3, .L453+32
 3924 0068 1878     		ldrb	r0, [r3]	@ zero_extendqisi2
 3925 006a FFF7FEFF 		bl	leeTermocupla
 3926              	.LVL329:
 3927 006e 8B4B     		ldr	r3, .L453+36
 3928 0070 1860     		str	r0, [r3]	@ float
 779:main.c        ****         Temperatura=leeTermocupla(MediaMovil);
 3929              		.loc 1 779 0 discriminator 3
 3930 0072 884A     		ldr	r2, .L453+28
 3931 0074 1378     		ldrb	r3, [r2]	@ zero_extendqisi2
 3932 0076 0133     		adds	r3, r3, #1
 3933 0078 1370     		strb	r3, [r2]
 3934              	.L268:
 779:main.c        ****         Temperatura=leeTermocupla(MediaMovil);
 3935              		.loc 1 779 0 is_stmt 0 discriminator 1
 3936 007a 864B     		ldr	r3, .L453+28
 3937 007c 1B78     		ldrb	r3, [r3]	@ zero_extendqisi2
 3938 007e 4F2B     		cmp	r3, #79
 3939 0080 F1D9     		bls	.L269
 781:main.c        ****     }
 782:main.c        ****     penInicial=penMufla;
 3940              		.loc 1 782 0 is_stmt 1
 3941 0082 874B     		ldr	r3, .L453+40
 3942 0084 1A68     		ldr	r2, [r3]	@ float
 3943 0086 874B     		ldr	r3, .L453+44
 3944 0088 1A60     		str	r2, [r3]	@ float
 783:main.c        ****     Opcion=1;Control=0;
 3945              		.loc 1 783 0
 3946 008a 0125     		movs	r5, #1
 3947 008c 864B     		ldr	r3, .L453+48
 3948 008e 1D70     		strb	r5, [r3]
 3949 0090 0024     		movs	r4, #0
 3950 0092 864B     		ldr	r3, .L453+52
 3951 0094 1C80     		strh	r4, [r3]	@ movhi
ARM GAS  C:\Users\JPELEC~1\AppData\Local\Temp\ccEetrge.s 			page 93


 784:main.c        ****     Menu=120;Menu2=120;
 3952              		.loc 1 784 0
 3953 0096 7823     		movs	r3, #120
 3954 0098 854A     		ldr	r2, .L453+56
 3955 009a 1370     		strb	r3, [r2]
 3956 009c 854A     		ldr	r2, .L453+60
 3957 009e 1370     		strb	r3, [r2]
 785:main.c        ****     
 786:main.c        ****     escribeDisplay1("page Bienvenida");
 3958              		.loc 1 786 0
 3959 00a0 854F     		ldr	r7, .L453+64
 3960 00a2 3846     		mov	r0, r7
 3961 00a4 FFF7FEFF 		bl	escribeDisplay1
 3962              	.LVL330:
 787:main.c        ****     escribeDisplay1("bkcmd=0");
 3963              		.loc 1 787 0
 3964 00a8 844E     		ldr	r6, .L453+68
 3965 00aa 3046     		mov	r0, r6
 3966 00ac FFF7FEFF 		bl	escribeDisplay1
 3967              	.LVL331:
 788:main.c        ****     CyDelay(10);
 3968              		.loc 1 788 0
 3969 00b0 0A20     		movs	r0, #10
 3970 00b2 FFF7FEFF 		bl	CyDelay
 3971              	.LVL332:
 789:main.c        ****     escribeDisplay2("page Bienvenida");
 3972              		.loc 1 789 0
 3973 00b6 3846     		mov	r0, r7
 3974 00b8 FFF7FEFF 		bl	escribeDisplay2
 3975              	.LVL333:
 790:main.c        ****     escribeDisplay2("bkcmd=0");
 3976              		.loc 1 790 0
 3977 00bc 3046     		mov	r0, r6
 3978 00be FFF7FEFF 		bl	escribeDisplay2
 3979              	.LVL334:
 791:main.c        ****     
 792:main.c        ****     LED_Write(1);
 3980              		.loc 1 792 0
 3981 00c2 2846     		mov	r0, r5
 3982 00c4 FFF7FEFF 		bl	LED_Write
 3983              	.LVL335:
 793:main.c        ****     leeEEPROM();
 3984              		.loc 1 793 0
 3985 00c8 FFF7FEFF 		bl	leeEEPROM
 3986              	.LVL336:
 794:main.c        ****     LED_Write(0);
 3987              		.loc 1 794 0
 3988 00cc 2046     		mov	r0, r4
 3989 00ce FFF7FEFF 		bl	LED_Write
 3990              	.LVL337:
 3991              	.L409:
 795:main.c        **** 
 796:main.c        ****     for(;;)
 797:main.c        ****     { 
 798:main.c        ****         if((tGrafica>=(uint32)(((hEstp*3600)+(mEstp*60))/ANCHO)) && Menu==20){
 3992              		.loc 1 798 0
 3993 00d2 7B4B     		ldr	r3, .L453+72
ARM GAS  C:\Users\JPELEC~1\AppData\Local\Temp\ccEetrge.s 			page 94


 3994 00d4 1978     		ldrb	r1, [r3]	@ zero_extendqisi2
 3995 00d6 7B4B     		ldr	r3, .L453+76
 3996 00d8 1B78     		ldrb	r3, [r3]	@ zero_extendqisi2
 3997 00da C3EB0313 		rsb	r3, r3, r3, lsl #4
 3998 00de 9A00     		lsls	r2, r3, #2
 3999 00e0 4FF46160 		mov	r0, #3600
 4000 00e4 00FB0120 		mla	r0, r0, r1, r2
 4001 00e8 FFF7FEFF 		bl	__aeabi_i2d
 4002              	.LVL338:
 4003 00ec 0022     		movs	r2, #0
 4004 00ee 764B     		ldr	r3, .L453+80
 4005 00f0 FFF7FEFF 		bl	__aeabi_ddiv
 4006              	.LVL339:
 4007 00f4 FFF7FEFF 		bl	__aeabi_d2uiz
 4008              	.LVL340:
 4009 00f8 744B     		ldr	r3, .L453+84
 4010 00fa 1B68     		ldr	r3, [r3]
 4011 00fc 9842     		cmp	r0, r3
 4012 00fe 1DD8     		bhi	.L270
 4013              		.loc 1 798 0 is_stmt 0 discriminator 1
 4014 0100 6B4B     		ldr	r3, .L453+56
 4015 0102 1B78     		ldrb	r3, [r3]	@ zero_extendqisi2
 4016 0104 142B     		cmp	r3, #20
 4017 0106 19D1     		bne	.L270
 799:main.c        ****             tGrafica=0;
 4018              		.loc 1 799 0 is_stmt 1
 4019 0108 0022     		movs	r2, #0
 4020 010a 704B     		ldr	r3, .L453+84
 4021 010c 1A60     		str	r2, [r3]
 800:main.c        ****             escribeDisplay1("code_c");
 4022              		.loc 1 800 0
 4023 010e 7048     		ldr	r0, .L453+88
 4024 0110 FFF7FEFF 		bl	escribeDisplay1
 4025              	.LVL341:
 801:main.c        ****             sprintf(displayStr,"add 1,1,%u",(uint8)(Temperatura*DIVISION));
 4026              		.loc 1 801 0
 4027 0114 614B     		ldr	r3, .L453+36
 4028 0116 1868     		ldr	r0, [r3]	@ float
 4029 0118 FFF7FEFF 		bl	__aeabi_f2d
 4030              	.LVL342:
 4031 011c 56A3     		adr	r3, .L453
 4032 011e D3E90023 		ldrd	r2, [r3]
 4033 0122 FFF7FEFF 		bl	__aeabi_dmul
 4034              	.LVL343:
 4035 0126 FFF7FEFF 		bl	__aeabi_d2uiz
 4036              	.LVL344:
 4037 012a 6A4C     		ldr	r4, .L453+92
 4038 012c C2B2     		uxtb	r2, r0
 4039 012e 6A49     		ldr	r1, .L453+96
 4040 0130 2046     		mov	r0, r4
 4041 0132 FFF7FEFF 		bl	sprintf
 4042              	.LVL345:
 802:main.c        ****             escribeDisplay1(displayStr);
 4043              		.loc 1 802 0
 4044 0136 2046     		mov	r0, r4
 4045 0138 FFF7FEFF 		bl	escribeDisplay1
 4046              	.LVL346:
ARM GAS  C:\Users\JPELEC~1\AppData\Local\Temp\ccEetrge.s 			page 95


 4047              	.L270:
 803:main.c        ****         }
 804:main.c        ****         if(Lectura2){
 4048              		.loc 1 804 0
 4049 013c 674B     		ldr	r3, .L453+100
 4050 013e B3F90030 		ldrsh	r3, [r3]
 4051 0142 002B     		cmp	r3, #0
 4052 0144 50D0     		beq	.L271
 805:main.c        ****             grafica=ON;
 4053              		.loc 1 805 0
 4054 0146 0125     		movs	r5, #1
 4055 0148 654B     		ldr	r3, .L453+104
 4056 014a 1D80     		strh	r5, [r3]	@ movhi
 806:main.c        ****             Lectura2=0;
 4057              		.loc 1 806 0
 4058 014c 0026     		movs	r6, #0
 4059 014e 634B     		ldr	r3, .L453+100
 4060 0150 1E80     		strh	r6, [r3]	@ movhi
 807:main.c        ****             Temperatura=leeTermocupla(MediaMovil);
 4061              		.loc 1 807 0
 4062 0152 514B     		ldr	r3, .L453+32
 4063 0154 1878     		ldrb	r0, [r3]	@ zero_extendqisi2
 4064 0156 FFF7FEFF 		bl	leeTermocupla
 4065              	.LVL347:
 4066 015a 0746     		mov	r7, r0
 4067 015c 4F4B     		ldr	r3, .L453+36
 4068 015e 1860     		str	r0, [r3]	@ float
 808:main.c        ****             i2cbuf[0]=(uint8)Temperatura;
 4069              		.loc 1 808 0
 4070 0160 FFF7FEFF 		bl	__aeabi_f2uiz
 4071              	.LVL348:
 4072 0164 5F4C     		ldr	r4, .L453+108
 4073 0166 2070     		strb	r0, [r4]
 809:main.c        ****             i2cbuf[1]=extraeDecimal(Temperatura);
 4074              		.loc 1 809 0
 4075 0168 3846     		mov	r0, r7
 4076 016a FFF7FEFF 		bl	extraeDecimal
 4077              	.LVL349:
 4078 016e 6070     		strb	r0, [r4, #1]
 810:main.c        ****             i2cbuf[2]=0xff;
 4079              		.loc 1 810 0
 4080 0170 FF23     		movs	r3, #255
 4081 0172 A370     		strb	r3, [r4, #2]
 811:main.c        ****             i2cbuf[3]=0x0e;
 4082              		.loc 1 811 0
 4083 0174 0E23     		movs	r3, #14
 4084 0176 E370     		strb	r3, [r4, #3]
 812:main.c        ****             I2C_MasterWriteBuf(0xB0,i2cbuf,1,I2C_MODE_COMPLETE_XFER);
 4085              		.loc 1 812 0
 4086 0178 3346     		mov	r3, r6
 4087 017a 2A46     		mov	r2, r5
 4088 017c 2146     		mov	r1, r4
 4089 017e B020     		movs	r0, #176
 4090 0180 FFF7FEFF 		bl	I2C_MasterWriteBuf
 4091              	.LVL350:
 813:main.c        ****             if (tcHotJnuVolt < BROKEN_TC_THRESHOLD){
 4092              		.loc 1 813 0
ARM GAS  C:\Users\JPELEC~1\AppData\Local\Temp\ccEetrge.s 			page 96


 4093 0184 584B     		ldr	r3, .L453+112
 4094 0186 1A68     		ldr	r2, [r3]
 4095 0188 584B     		ldr	r3, .L453+116
 4096 018a 9A42     		cmp	r2, r3
 4097 018c 09DA     		bge	.L272
 814:main.c        ****                 sprintf(displayStr,"T:----- \r\n");
 4098              		.loc 1 814 0
 4099 018e 514A     		ldr	r2, .L453+92
 4100 0190 574B     		ldr	r3, .L453+120
 4101 0192 03CB     		ldmia	r3!, {r0, r1}
 4102 0194 1060     		str	r0, [r2]	@ unaligned
 4103 0196 5160     		str	r1, [r2, #4]	@ unaligned
 4104 0198 1988     		ldrh	r1, [r3]	@ unaligned
 4105 019a 9B78     		ldrb	r3, [r3, #2]	@ zero_extendqisi2
 4106 019c 1181     		strh	r1, [r2, #8]	@ unaligned
 4107 019e 9372     		strb	r3, [r2, #10]
 4108 01a0 09E0     		b	.L273
 4109              	.L272:
 815:main.c        ****             }else{
 816:main.c        ****                 sprintf(displayStr,"T:%1.2fC \r\n",Temperatura);
 4110              		.loc 1 816 0
 4111 01a2 3E4B     		ldr	r3, .L453+36
 4112 01a4 1868     		ldr	r0, [r3]	@ float
 4113 01a6 FFF7FEFF 		bl	__aeabi_f2d
 4114              	.LVL351:
 4115 01aa 0246     		mov	r2, r0
 4116 01ac 0B46     		mov	r3, r1
 4117 01ae 5149     		ldr	r1, .L453+124
 4118 01b0 4848     		ldr	r0, .L453+92
 4119 01b2 FFF7FEFF 		bl	sprintf
 4120              	.LVL352:
 4121              	.L273:
 817:main.c        ****             }
 818:main.c        ****             UART_3_PutString(displayStr);
 4122              		.loc 1 818 0
 4123 01b6 4748     		ldr	r0, .L453+92
 4124 01b8 FFF7FEFF 		bl	UART_3_PutString
 4125              	.LVL353:
 819:main.c        ****             
 820:main.c        ****             if(!Test){
 4126              		.loc 1 820 0
 4127 01bc 4E4B     		ldr	r3, .L453+128
 4128 01be B3F90030 		ldrsh	r3, [r3]
 4129 01c2 8BB9     		cbnz	r3, .L271
 821:main.c        ****                 if(coldJnTemp>=3000){
 4130              		.loc 1 821 0
 4131 01c4 4D4B     		ldr	r3, .L453+132
 4132 01c6 B3F90030 		ldrsh	r3, [r3]
 4133 01ca 40F6B732 		movw	r2, #2999
 4134 01ce 9342     		cmp	r3, r2
 4135 01d0 03DD     		ble	.L274
 822:main.c        ****                     VENT1_Write(0);    
 4136              		.loc 1 822 0
 4137 01d2 0020     		movs	r0, #0
 4138 01d4 FFF7FEFF 		bl	VENT1_Write
 4139              	.LVL354:
 4140 01d8 06E0     		b	.L271
ARM GAS  C:\Users\JPELEC~1\AppData\Local\Temp\ccEetrge.s 			page 97


 4141              	.L274:
 823:main.c        ****                 }else if(coldJnTemp<2500){
 4142              		.loc 1 823 0
 4143 01da 40F6C312 		movw	r2, #2499
 4144 01de 9342     		cmp	r3, r2
 4145 01e0 02DC     		bgt	.L271
 824:main.c        ****                     VENT1_Write(1);   
 4146              		.loc 1 824 0
 4147 01e2 0120     		movs	r0, #1
 4148 01e4 FFF7FEFF 		bl	VENT1_Write
 4149              	.LVL355:
 4150              	.L271:
 825:main.c        ****                 }
 826:main.c        ****             }
 827:main.c        ****         }
 828:main.c        ****         LeeDisplay();
 4151              		.loc 1 828 0
 4152 01e8 FFF7FEFF 		bl	LeeDisplay
 4153              	.LVL356:
 829:main.c        ****         
 830:main.c        **** //_------------------------------------------------------------------------------------------------
 831:main.c        ****     if(Menu == 120){ //Menu de Bienvenida.
 4154              		.loc 1 831 0
 4155 01ec 304B     		ldr	r3, .L453+56
 4156 01ee 1B78     		ldrb	r3, [r3]	@ zero_extendqisi2
 4157 01f0 782B     		cmp	r3, #120
 4158 01f2 0DD1     		bne	.L275
 832:main.c        ****             escribeDisplay2("bkcmd=0");
 4159              		.loc 1 832 0
 4160 01f4 314C     		ldr	r4, .L453+68
 4161 01f6 2046     		mov	r0, r4
 4162 01f8 FFF7FEFF 		bl	escribeDisplay2
 4163              	.LVL357:
 833:main.c        ****             escribeDisplay1("bkcmd=0");
 4164              		.loc 1 833 0
 4165 01fc 2046     		mov	r0, r4
 4166 01fe FFF7FEFF 		bl	escribeDisplay1
 4167              	.LVL358:
 834:main.c        ****             CyDelay(1500);
 4168              		.loc 1 834 0
 4169 0202 40F2DC50 		movw	r0, #1500
 4170 0206 FFF7FEFF 		bl	CyDelay
 4171              	.LVL359:
 835:main.c        ****             escribeDisplay2("page Clave");
 4172              		.loc 1 835 0
 4173 020a 3D48     		ldr	r0, .L453+136
 4174 020c FFF7FEFF 		bl	escribeDisplay2
 4175              	.LVL360:
 4176              	.L275:
 836:main.c        ****             //escribeDisplay2("page Test");
 837:main.c        ****         }
 838:main.c        **** //_------------------------------------------------------------------------------------------------
 839:main.c        ****         
 840:main.c        **** //_------------------------------------------------------------------------------------------------
 841:main.c        ****     if(Menu==0){ //Menu de Contraseña de acceso.
 4177              		.loc 1 841 0
 4178 0210 274B     		ldr	r3, .L453+56
ARM GAS  C:\Users\JPELEC~1\AppData\Local\Temp\ccEetrge.s 			page 98


 4179 0212 1B78     		ldrb	r3, [r3]	@ zero_extendqisi2
 4180 0214 002B     		cmp	r3, #0
 4181 0216 40F01082 		bne	.L276
 842:main.c        ****       //ApagaSalidas();
 843:main.c        ****       entro=0;
 4182              		.loc 1 843 0
 4183 021a 0022     		movs	r2, #0
 4184 021c 394B     		ldr	r3, .L453+140
 4185 021e 1A80     		strh	r2, [r3]	@ movhi
 844:main.c        ****       if(Rx_Buffer[4]==0x11){//11
 4186              		.loc 1 844 0
 4187 0220 394B     		ldr	r3, .L453+144
 4188 0222 1B79     		ldrb	r3, [r3, #4]	@ zero_extendqisi2
 4189 0224 112B     		cmp	r3, #17
 4190 0226 05D1     		bne	.L277
 845:main.c        ****          if(TipoClave!=0){
 4191              		.loc 1 845 0
 4192 0228 384B     		ldr	r3, .L453+148
 4193 022a 1B78     		ldrb	r3, [r3]	@ zero_extendqisi2
 4194 022c 13B1     		cbz	r3, .L277
 846:main.c        ****             escribeDisplay2("page Principal");
 4195              		.loc 1 846 0
 4196 022e 3848     		ldr	r0, .L453+152
 4197 0230 FFF7FEFF 		bl	escribeDisplay2
 4198              	.LVL361:
 4199              	.L277:
 847:main.c        ****          }
 848:main.c        ****       }
 849:main.c        ****       
 850:main.c        ****       if(TipoClave==3){
 4200              		.loc 1 850 0
 4201 0234 354B     		ldr	r3, .L453+148
 4202 0236 1B78     		ldrb	r3, [r3]	@ zero_extendqisi2
 4203 0238 032B     		cmp	r3, #3
 4204 023a 06D1     		bne	.L278
 851:main.c        ****          escribeDisplay2("titulo.txt=\"Clave Nueva\"");
 4205              		.loc 1 851 0
 4206 023c 3548     		ldr	r0, .L453+156
 4207 023e FFF7FEFF 		bl	escribeDisplay2
 4208              	.LVL362:
 852:main.c        ****          escribeDisplay2("doevents");
 4209              		.loc 1 852 0
 4210 0242 3548     		ldr	r0, .L453+160
 4211 0244 FFF7FEFF 		bl	escribeDisplay2
 4212              	.LVL363:
 4213 0248 7EE0     		b	.L279
 4214              	.L278:
 853:main.c        ****       }else if(TipoClave==2){
 4215              		.loc 1 853 0
 4216 024a 022B     		cmp	r3, #2
 4217 024c 06D1     		bne	.L280
 854:main.c        ****          escribeDisplay2("titulo.txt=\"Clave Actual\"");         
 4218              		.loc 1 854 0
 4219 024e 3348     		ldr	r0, .L453+164
 4220 0250 FFF7FEFF 		bl	escribeDisplay2
 4221              	.LVL364:
 855:main.c        ****          escribeDisplay2("doevents");
ARM GAS  C:\Users\JPELEC~1\AppData\Local\Temp\ccEetrge.s 			page 99


 4222              		.loc 1 855 0
 4223 0254 3048     		ldr	r0, .L453+160
 4224 0256 FFF7FEFF 		bl	escribeDisplay2
 4225              	.LVL365:
 4226 025a 75E0     		b	.L279
 4227              	.L280:
 856:main.c        ****       }else if(TipoClave==1 || TipoClave==4){
 4228              		.loc 1 856 0
 4229 025c 012B     		cmp	r3, #1
 4230 025e 01D0     		beq	.L281
 4231              		.loc 1 856 0 is_stmt 0 discriminator 1
 4232 0260 042B     		cmp	r3, #4
 4233 0262 5FD1     		bne	.L282
 4234              	.L281:
 857:main.c        ****          escribeDisplay2("titulo.txt=\"Clave Tecnico\"");         
 4235              		.loc 1 857 0 is_stmt 1
 4236 0264 2E48     		ldr	r0, .L453+168
 4237 0266 FFF7FEFF 		bl	escribeDisplay2
 4238              	.LVL366:
 858:main.c        ****          escribeDisplay2("doevents");         
 4239              		.loc 1 858 0
 4240 026a 2B48     		ldr	r0, .L453+160
 4241 026c FFF7FEFF 		bl	escribeDisplay2
 4242              	.LVL367:
 4243 0270 6AE0     		b	.L279
 4244              	.L454:
 4245 0272 00BFAFF3 		.align	3
 4245      0080
 4246              	.L453:
 4247 0278 295C8FC2 		.word	-1030792151
 4248 027c F528CC3F 		.word	1070344437
 4249 0280 00000000 		.word	Reloj2
 4250 0284 00000000 		.word	lee
 4251 0288 00000000 		.word	inteRX
 4252 028c 00000000 		.word	inteRX1
 4253 0290 00000000 		.word	ADC_SAR_ISR_LOC
 4254 0294 00000000 		.word	i
 4255 0298 00000000 		.word	MediaMovil
 4256 029c 00000000 		.word	Temperatura
 4257 02a0 00000000 		.word	.LANCHOR1
 4258 02a4 00000000 		.word	penInicial
 4259 02a8 00000000 		.word	Opcion
 4260 02ac 00000000 		.word	Control
 4261 02b0 00000000 		.word	Menu
 4262 02b4 00000000 		.word	Menu2
 4263 02b8 70000000 		.word	.LC6
 4264 02bc 80000000 		.word	.LC7
 4265 02c0 00000000 		.word	hEstp
 4266 02c4 00000000 		.word	mEstp
 4267 02c8 00804540 		.word	1078296576
 4268 02cc 00000000 		.word	tGrafica
 4269 02d0 88000000 		.word	.LC8
 4270 02d4 00000000 		.word	displayStr
 4271 02d8 90000000 		.word	.LC9
 4272 02dc 00000000 		.word	Lectura2
 4273 02e0 00000000 		.word	grafica
 4274 02e4 00000000 		.word	i2cbuf
ARM GAS  C:\Users\JPELEC~1\AppData\Local\Temp\ccEetrge.s 			page 100


 4275 02e8 00000000 		.word	tcHotJnuVolt
 4276 02ec F0D8FFFF 		.word	-10000
 4277 02f0 9C000000 		.word	.LC10
 4278 02f4 A8000000 		.word	.LC11
 4279 02f8 00000000 		.word	Test
 4280 02fc 00000000 		.word	coldJnTemp
 4281 0300 B4000000 		.word	.LC12
 4282 0304 00000000 		.word	entro
 4283 0308 00000000 		.word	Rx_Buffer
 4284 030c 00000000 		.word	TipoClave
 4285 0310 C0000000 		.word	.LC13
 4286 0314 D0000000 		.word	.LC14
 4287 0318 EC000000 		.word	.LC15
 4288 031c F8000000 		.word	.LC16
 4289 0320 14010000 		.word	.LC17
 4290              	.L282:
 859:main.c        ****       }else if(TipoClave==0){
 4291              		.loc 1 859 0
 4292 0324 83B9     		cbnz	r3, .L279
 860:main.c        ****         sprintf(displayStr,"titulo.txt=\"Ingrese Clave\"");
 4293              		.loc 1 860 0
 4294 0326 B44D     		ldr	r5, .L455
 4295 0328 B44C     		ldr	r4, .L455+4
 4296 032a 0FCC     		ldmia	r4!, {r0, r1, r2, r3}
 4297 032c 2860     		str	r0, [r5]	@ unaligned
 4298 032e 6960     		str	r1, [r5, #4]	@ unaligned
 4299 0330 AA60     		str	r2, [r5, #8]	@ unaligned
 4300 0332 EB60     		str	r3, [r5, #12]	@ unaligned
 4301 0334 03CC     		ldmia	r4!, {r0, r1}
 4302 0336 2861     		str	r0, [r5, #16]	@ unaligned
 4303 0338 6961     		str	r1, [r5, #20]	@ unaligned
 4304 033a 2288     		ldrh	r2, [r4]	@ unaligned
 4305 033c A378     		ldrb	r3, [r4, #2]	@ zero_extendqisi2
 4306 033e 2A83     		strh	r2, [r5, #24]	@ unaligned
 4307 0340 AB76     		strb	r3, [r5, #26]
 861:main.c        ****         escribeDisplay2(displayStr);
 4308              		.loc 1 861 0
 4309 0342 2846     		mov	r0, r5
 4310 0344 FFF7FEFF 		bl	escribeDisplay2
 4311              	.LVL368:
 4312              	.L279:
 862:main.c        ****       }
 863:main.c        ****       
 864:main.c        ****       if(Rx_Buffer[3]==0x0f){//0f, recibe caracteres ingresados desde el Display
 4313              		.loc 1 864 0
 4314 0348 AD4B     		ldr	r3, .L455+8
 4315 034a DB78     		ldrb	r3, [r3, #3]	@ zero_extendqisi2
 4316 034c 0F2B     		cmp	r3, #15
 4317 034e 40F07481 		bne	.L276
 865:main.c        ****          if(TipoClave==0){
 4318              		.loc 1 865 0
 4319 0352 AC4B     		ldr	r3, .L455+12
 4320 0354 1B78     		ldrb	r3, [r3]	@ zero_extendqisi2
 4321 0356 002B     		cmp	r3, #0
 4322 0358 7CD1     		bne	.L283
 866:main.c        ****             if(Rx_Buffer[4]>=0x30 && Rx_Buffer[5]>=0x30 && Rx_Buffer[6]>=0x30 && Rx_Buffer[7]>=0x30
 4323              		.loc 1 866 0
ARM GAS  C:\Users\JPELEC~1\AppData\Local\Temp\ccEetrge.s 			page 101


 4324 035a A94B     		ldr	r3, .L455+8
 4325 035c 1B79     		ldrb	r3, [r3, #4]	@ zero_extendqisi2
 4326 035e 2F2B     		cmp	r3, #47
 4327 0360 39D9     		bls	.L284
 4328              		.loc 1 866 0 is_stmt 0 discriminator 1
 4329 0362 A74A     		ldr	r2, .L455+8
 4330 0364 5279     		ldrb	r2, [r2, #5]	@ zero_extendqisi2
 4331 0366 2F2A     		cmp	r2, #47
 4332 0368 35D9     		bls	.L284
 4333              		.loc 1 866 0 discriminator 2
 4334 036a A549     		ldr	r1, .L455+8
 4335 036c 8979     		ldrb	r1, [r1, #6]	@ zero_extendqisi2
 4336 036e 2F29     		cmp	r1, #47
 4337 0370 31D9     		bls	.L284
 4338              		.loc 1 866 0 discriminator 3
 4339 0372 A348     		ldr	r0, .L455+8
 4340 0374 C079     		ldrb	r0, [r0, #7]	@ zero_extendqisi2
 4341 0376 2F28     		cmp	r0, #47
 4342 0378 2DD9     		bls	.L284
 867:main.c        ****             && Rx_Buffer[4]<=0x39 && Rx_Buffer[5]<=0x39 && Rx_Buffer[6]<=0x39 && Rx_Buffer[7]<=0x39
 4343              		.loc 1 867 0 is_stmt 1
 4344 037a 392B     		cmp	r3, #57
 4345 037c 2BD8     		bhi	.L284
 4346              		.loc 1 867 0 is_stmt 0 discriminator 1
 4347 037e 392A     		cmp	r2, #57
 4348 0380 29D8     		bhi	.L284
 4349              		.loc 1 867 0 discriminator 2
 4350 0382 3929     		cmp	r1, #57
 4351 0384 27D8     		bhi	.L284
 4352              		.loc 1 867 0 discriminator 3
 4353 0386 3928     		cmp	r0, #57
 4354 0388 25D8     		bhi	.L284
 868:main.c        ****             if(Rx_Buffer[4]==0x33&&Rx_Buffer[5]==0x38&&Rx_Buffer[6]==0x39&&Rx_Buffer[7]==0x32){ // 
 4355              		.loc 1 868 0 is_stmt 1
 4356 038a 332B     		cmp	r3, #51
 4357 038c 23D1     		bne	.L284
 4358              		.loc 1 868 0 is_stmt 0 discriminator 1
 4359 038e 382A     		cmp	r2, #56
 4360 0390 21D1     		bne	.L284
 4361              		.loc 1 868 0 discriminator 2
 4362 0392 3929     		cmp	r1, #57
 4363 0394 1FD1     		bne	.L284
 4364              		.loc 1 868 0 discriminator 3
 4365 0396 3228     		cmp	r0, #50
 4366 0398 1DD1     		bne	.L284
 869:main.c        ****                EEPROM_WriteByte(0,0);CyDelay(20);EEPROM_WriteByte(0,1);CyDelay(20);// Reestablece a
 4367              		.loc 1 869 0 is_stmt 1
 4368 039a 0021     		movs	r1, #0
 4369 039c 0846     		mov	r0, r1
 4370 039e FFF7FEFF 		bl	EEPROM_WriteByte
 4371              	.LVL369:
 4372 03a2 1420     		movs	r0, #20
 4373 03a4 FFF7FEFF 		bl	CyDelay
 4374              	.LVL370:
 4375 03a8 0121     		movs	r1, #1
 4376 03aa 0020     		movs	r0, #0
 4377 03ac FFF7FEFF 		bl	EEPROM_WriteByte
ARM GAS  C:\Users\JPELEC~1\AppData\Local\Temp\ccEetrge.s 			page 102


 4378              	.LVL371:
 4379 03b0 1420     		movs	r0, #20
 4380 03b2 FFF7FEFF 		bl	CyDelay
 4381              	.LVL372:
 870:main.c        ****                EEPROM_WriteByte(0,2);CyDelay(20);EEPROM_WriteByte(0,3);CyDelay(20);
 4382              		.loc 1 870 0
 4383 03b6 0221     		movs	r1, #2
 4384 03b8 0020     		movs	r0, #0
 4385 03ba FFF7FEFF 		bl	EEPROM_WriteByte
 4386              	.LVL373:
 4387 03be 1420     		movs	r0, #20
 4388 03c0 FFF7FEFF 		bl	CyDelay
 4389              	.LVL374:
 4390 03c4 0321     		movs	r1, #3
 4391 03c6 0020     		movs	r0, #0
 4392 03c8 FFF7FEFF 		bl	EEPROM_WriteByte
 4393              	.LVL375:
 4394 03cc 1420     		movs	r0, #20
 4395 03ce FFF7FEFF 		bl	CyDelay
 4396              	.LVL376:
 871:main.c        ****                CySoftwareReset();
 4397              		.loc 1 871 0
 4398 03d2 FFF7FEFF 		bl	CySoftwareReset
 4399              	.LVL377:
 4400              	.L284:
 872:main.c        ****             }
 873:main.c        ****             }
 874:main.c        ****             
 875:main.c        ****             if(Rx_Buffer[4]>=0x30 && Rx_Buffer[5]>=0x30 && Rx_Buffer[6]>=0x30 && Rx_Buffer[7]>=0x30
 4401              		.loc 1 875 0
 4402 03d6 8A4B     		ldr	r3, .L455+8
 4403 03d8 1B79     		ldrb	r3, [r3, #4]	@ zero_extendqisi2
 4404 03da 2F2B     		cmp	r3, #47
 4405 03dc 40F22D81 		bls	.L276
 4406              		.loc 1 875 0 is_stmt 0 discriminator 1
 4407 03e0 874A     		ldr	r2, .L455+8
 4408 03e2 5279     		ldrb	r2, [r2, #5]	@ zero_extendqisi2
 4409 03e4 2F2A     		cmp	r2, #47
 4410 03e6 40F22881 		bls	.L276
 4411              		.loc 1 875 0 discriminator 2
 4412 03ea 8549     		ldr	r1, .L455+8
 4413 03ec 8979     		ldrb	r1, [r1, #6]	@ zero_extendqisi2
 4414 03ee 2F29     		cmp	r1, #47
 4415 03f0 40F22381 		bls	.L276
 4416              		.loc 1 875 0 discriminator 3
 4417 03f4 8248     		ldr	r0, .L455+8
 4418 03f6 C079     		ldrb	r0, [r0, #7]	@ zero_extendqisi2
 4419 03f8 2F28     		cmp	r0, #47
 4420 03fa 40F21E81 		bls	.L276
 876:main.c        ****             && Rx_Buffer[4]<=0x39 && Rx_Buffer[5]<=0x39 && Rx_Buffer[6]<=0x39 && Rx_Buffer[7]<=0x39
 4421              		.loc 1 876 0 is_stmt 1
 4422 03fe 392B     		cmp	r3, #57
 4423 0400 00F21B81 		bhi	.L276
 4424              		.loc 1 876 0 is_stmt 0 discriminator 1
 4425 0404 392A     		cmp	r2, #57
 4426 0406 00F21881 		bhi	.L276
 4427              		.loc 1 876 0 discriminator 2
ARM GAS  C:\Users\JPELEC~1\AppData\Local\Temp\ccEetrge.s 			page 103


 4428 040a 3929     		cmp	r1, #57
 4429 040c 00F21581 		bhi	.L276
 4430              		.loc 1 876 0 discriminator 3
 4431 0410 3928     		cmp	r0, #57
 4432 0412 00F21281 		bhi	.L276
 877:main.c        ****             if((Rx_Buffer[4]==Password[0]+0x30)&&(Rx_Buffer[5]==Password[1]+0x30)&&(Rx_Buffer[6]==P
 4433              		.loc 1 877 0 is_stmt 1
 4434 0416 7C4C     		ldr	r4, .L455+16
 4435 0418 2478     		ldrb	r4, [r4]	@ zero_extendqisi2
 4436 041a 3034     		adds	r4, r4, #48
 4437 041c A342     		cmp	r3, r4
 4438 041e 15D1     		bne	.L285
 4439              		.loc 1 877 0 is_stmt 0 discriminator 1
 4440 0420 794B     		ldr	r3, .L455+16
 4441 0422 5B78     		ldrb	r3, [r3, #1]	@ zero_extendqisi2
 4442 0424 3033     		adds	r3, r3, #48
 4443 0426 9A42     		cmp	r2, r3
 4444 0428 10D1     		bne	.L285
 4445              		.loc 1 877 0 discriminator 2
 4446 042a 774B     		ldr	r3, .L455+16
 4447 042c 9B78     		ldrb	r3, [r3, #2]	@ zero_extendqisi2
 4448 042e 3033     		adds	r3, r3, #48
 4449 0430 9942     		cmp	r1, r3
 4450 0432 0BD1     		bne	.L285
 4451              		.loc 1 877 0 discriminator 3
 4452 0434 744B     		ldr	r3, .L455+16
 4453 0436 DB78     		ldrb	r3, [r3, #3]	@ zero_extendqisi2
 4454 0438 3033     		adds	r3, r3, #48
 4455 043a 9842     		cmp	r0, r3
 4456 043c 06D1     		bne	.L285
 878:main.c        ****                   escribeDisplay2("page ClaveCorrecta");
 4457              		.loc 1 878 0 is_stmt 1
 4458 043e 7348     		ldr	r0, .L455+20
 4459 0440 FFF7FEFF 		bl	escribeDisplay2
 4460              	.LVL378:
 879:main.c        ****                   dibujo=OFF;
 4461              		.loc 1 879 0
 4462 0444 0022     		movs	r2, #0
 4463 0446 724B     		ldr	r3, .L455+24
 4464 0448 1A80     		strh	r2, [r3]	@ movhi
 4465 044a F6E0     		b	.L276
 4466              	.L285:
 880:main.c        ****                   //RX_Buffer[3]=0x00;RX_Buffer2[3]=0x00;  
 881:main.c        ****                }else{
 882:main.c        ****                   escribeDisplay2("page ClaveBad");
 4467              		.loc 1 882 0
 4468 044c 7148     		ldr	r0, .L455+28
 4469 044e FFF7FEFF 		bl	escribeDisplay2
 4470              	.LVL379:
 4471 0452 F2E0     		b	.L276
 4472              	.L283:
 883:main.c        ****                   //RX_Buffer[3]=0x00;RX_Buffer2[3]=0x00;  
 884:main.c        ****                } 
 885:main.c        ****             }
 886:main.c        ****          }else if(TipoClave==1){
 4473              		.loc 1 886 0
 4474 0454 012B     		cmp	r3, #1
ARM GAS  C:\Users\JPELEC~1\AppData\Local\Temp\ccEetrge.s 			page 104


 4475 0456 2ED1     		bne	.L286
 887:main.c        ****             if(Rx_Buffer[4]>=0x30 && Rx_Buffer[5]>=0x30 && Rx_Buffer[6]>=0x30 && Rx_Buffer[7]>=0x30
 4476              		.loc 1 887 0
 4477 0458 694B     		ldr	r3, .L455+8
 4478 045a 1B79     		ldrb	r3, [r3, #4]	@ zero_extendqisi2
 4479 045c 2F2B     		cmp	r3, #47
 4480 045e 40F2EC80 		bls	.L276
 4481              		.loc 1 887 0 is_stmt 0 discriminator 1
 4482 0462 674A     		ldr	r2, .L455+8
 4483 0464 5279     		ldrb	r2, [r2, #5]	@ zero_extendqisi2
 4484 0466 2F2A     		cmp	r2, #47
 4485 0468 40F2E780 		bls	.L276
 4486              		.loc 1 887 0 discriminator 2
 4487 046c 6449     		ldr	r1, .L455+8
 4488 046e 8879     		ldrb	r0, [r1, #6]	@ zero_extendqisi2
 4489 0470 2F28     		cmp	r0, #47
 4490 0472 40F2E280 		bls	.L276
 4491              		.loc 1 887 0 discriminator 3
 4492 0476 C979     		ldrb	r1, [r1, #7]	@ zero_extendqisi2
 4493 0478 2F29     		cmp	r1, #47
 4494 047a 40F2DE80 		bls	.L276
 888:main.c        ****             && Rx_Buffer[4]<=0x39 && Rx_Buffer[5]<=0x39 && Rx_Buffer[6]<=0x39 && Rx_Buffer[7]<=0x39
 4495              		.loc 1 888 0 is_stmt 1
 4496 047e 392B     		cmp	r3, #57
 4497 0480 00F2DB80 		bhi	.L276
 4498              		.loc 1 888 0 is_stmt 0 discriminator 1
 4499 0484 392A     		cmp	r2, #57
 4500 0486 00F2D880 		bhi	.L276
 4501              		.loc 1 888 0 discriminator 2
 4502 048a 3928     		cmp	r0, #57
 4503 048c 00F2D580 		bhi	.L276
 4504              		.loc 1 888 0 discriminator 3
 4505 0490 3929     		cmp	r1, #57
 4506 0492 00F2D280 		bhi	.L276
 889:main.c        ****             if(Rx_Buffer[4]==0x34&&Rx_Buffer[5]==0x34&&Rx_Buffer[6]==0x34&&Rx_Buffer[7]==0x34){ // 
 4507              		.loc 1 889 0 is_stmt 1
 4508 0496 342B     		cmp	r3, #52
 4509 0498 09D1     		bne	.L287
 4510              		.loc 1 889 0 is_stmt 0 discriminator 1
 4511 049a 342A     		cmp	r2, #52
 4512 049c 07D1     		bne	.L287
 4513              		.loc 1 889 0 discriminator 2
 4514 049e 3428     		cmp	r0, #52
 4515 04a0 05D1     		bne	.L287
 4516              		.loc 1 889 0 discriminator 3
 4517 04a2 3429     		cmp	r1, #52
 4518 04a4 03D1     		bne	.L287
 890:main.c        ****                escribeDisplay2("page Config");
 4519              		.loc 1 890 0 is_stmt 1
 4520 04a6 5C48     		ldr	r0, .L455+32
 4521 04a8 FFF7FEFF 		bl	escribeDisplay2
 4522              	.LVL380:
 4523 04ac C5E0     		b	.L276
 4524              	.L287:
 891:main.c        ****             }else{
 892:main.c        ****                escribeDisplay2("page MenuPrincipal");
 4525              		.loc 1 892 0
ARM GAS  C:\Users\JPELEC~1\AppData\Local\Temp\ccEetrge.s 			page 105


 4526 04ae 5B48     		ldr	r0, .L455+36
 4527 04b0 FFF7FEFF 		bl	escribeDisplay2
 4528              	.LVL381:
 4529 04b4 C1E0     		b	.L276
 4530              	.L286:
 893:main.c        ****             }
 894:main.c        ****             }
 895:main.c        ****          }else if(TipoClave==2){
 4531              		.loc 1 895 0
 4532 04b6 022B     		cmp	r3, #2
 4533 04b8 44D1     		bne	.L288
 896:main.c        ****             if(Rx_Buffer[4]>=0x30 && Rx_Buffer[5]>=0x30 && Rx_Buffer[6]>=0x30 && Rx_Buffer[7]>=0x30
 4534              		.loc 1 896 0
 4535 04ba 514B     		ldr	r3, .L455+8
 4536 04bc 1B79     		ldrb	r3, [r3, #4]	@ zero_extendqisi2
 4537 04be 2F2B     		cmp	r3, #47
 4538 04c0 40F2BB80 		bls	.L276
 4539              		.loc 1 896 0 is_stmt 0 discriminator 1
 4540 04c4 4E4A     		ldr	r2, .L455+8
 4541 04c6 5079     		ldrb	r0, [r2, #5]	@ zero_extendqisi2
 4542 04c8 2F28     		cmp	r0, #47
 4543 04ca 40F2B680 		bls	.L276
 4544              		.loc 1 896 0 discriminator 2
 4545 04ce 9179     		ldrb	r1, [r2, #6]	@ zero_extendqisi2
 4546 04d0 2F29     		cmp	r1, #47
 4547 04d2 40F2B280 		bls	.L276
 4548              		.loc 1 896 0 discriminator 3
 4549 04d6 D279     		ldrb	r2, [r2, #7]	@ zero_extendqisi2
 4550 04d8 2F2A     		cmp	r2, #47
 4551 04da 40F2AE80 		bls	.L276
 897:main.c        ****             && Rx_Buffer[4]<=0x39 && Rx_Buffer[5]<=0x39 && Rx_Buffer[6]<=0x39 && Rx_Buffer[7]<=0x39
 4552              		.loc 1 897 0 is_stmt 1
 4553 04de 392B     		cmp	r3, #57
 4554 04e0 00F2AB80 		bhi	.L276
 4555              		.loc 1 897 0 is_stmt 0 discriminator 1
 4556 04e4 3928     		cmp	r0, #57
 4557 04e6 00F2A880 		bhi	.L276
 4558              		.loc 1 897 0 discriminator 2
 4559 04ea 3929     		cmp	r1, #57
 4560 04ec 00F2A580 		bhi	.L276
 4561              		.loc 1 897 0 discriminator 3
 4562 04f0 392A     		cmp	r2, #57
 4563 04f2 00F2A280 		bhi	.L276
 898:main.c        ****             if((Rx_Buffer[4]==Password[0]+0x30)&&(Rx_Buffer[5]==Password[1]+0x30)&&(Rx_Buffer[6]==P
 4564              		.loc 1 898 0 is_stmt 1
 4565 04f6 444C     		ldr	r4, .L455+16
 4566 04f8 2478     		ldrb	r4, [r4]	@ zero_extendqisi2
 4567 04fa 3034     		adds	r4, r4, #48
 4568 04fc A342     		cmp	r3, r4
 4569 04fe 1DD1     		bne	.L289
 4570              		.loc 1 898 0 is_stmt 0 discriminator 1
 4571 0500 414B     		ldr	r3, .L455+16
 4572 0502 5B78     		ldrb	r3, [r3, #1]	@ zero_extendqisi2
 4573 0504 3033     		adds	r3, r3, #48
 4574 0506 9842     		cmp	r0, r3
 4575 0508 18D1     		bne	.L289
 4576              		.loc 1 898 0 discriminator 2
ARM GAS  C:\Users\JPELEC~1\AppData\Local\Temp\ccEetrge.s 			page 106


 4577 050a 3F4B     		ldr	r3, .L455+16
 4578 050c 9B78     		ldrb	r3, [r3, #2]	@ zero_extendqisi2
 4579 050e 3033     		adds	r3, r3, #48
 4580 0510 9942     		cmp	r1, r3
 4581 0512 13D1     		bne	.L289
 4582              		.loc 1 898 0 discriminator 3
 4583 0514 3C4B     		ldr	r3, .L455+16
 4584 0516 DB78     		ldrb	r3, [r3, #3]	@ zero_extendqisi2
 4585 0518 3033     		adds	r3, r3, #48
 4586 051a 9A42     		cmp	r2, r3
 4587 051c 0ED1     		bne	.L289
 899:main.c        ****                escribeDisplay2("page Clave");
 4588              		.loc 1 899 0 is_stmt 1
 4589 051e 4048     		ldr	r0, .L455+40
 4590 0520 FFF7FEFF 		bl	escribeDisplay2
 4591              	.LVL382:
 900:main.c        ****                escribeDisplay2("titulo.txt=\"Clave Nueva\"");
 4592              		.loc 1 900 0
 4593 0524 3F48     		ldr	r0, .L455+44
 4594 0526 FFF7FEFF 		bl	escribeDisplay2
 4595              	.LVL383:
 901:main.c        ****                TipoClave=3;
 4596              		.loc 1 901 0
 4597 052a 0322     		movs	r2, #3
 4598 052c 354B     		ldr	r3, .L455+12
 4599 052e 1A70     		strb	r2, [r3]
 902:main.c        ****                Rx_Buffer[3]=0x00;
 4600              		.loc 1 902 0
 4601 0530 0023     		movs	r3, #0
 4602 0532 334A     		ldr	r2, .L455+8
 4603 0534 D370     		strb	r3, [r2, #3]
 903:main.c        ****                Rx_Buffer2[3]=0x00;
 4604              		.loc 1 903 0
 4605 0536 3C4A     		ldr	r2, .L455+48
 4606 0538 D370     		strb	r3, [r2, #3]
 4607 053a 7EE0     		b	.L276
 4608              	.L289:
 904:main.c        ****             }else{
 905:main.c        ****                escribeDisplay2("page MenuPrincipal");
 4609              		.loc 1 905 0
 4610 053c 3748     		ldr	r0, .L455+36
 4611 053e FFF7FEFF 		bl	escribeDisplay2
 4612              	.LVL384:
 4613 0542 7AE0     		b	.L276
 4614              	.L288:
 906:main.c        ****                //RX_Buffer[3]=0x00;
 907:main.c        ****                //RX_Buffer2[3]=0x00;
 908:main.c        ****             } 
 909:main.c        ****             }
 910:main.c        ****          }else if(TipoClave==3){
 4615              		.loc 1 910 0
 4616 0544 032B     		cmp	r3, #3
 4617 0546 40D1     		bne	.L290
 911:main.c        ****             escribeDisplay2("titulo.txt=\"Clave Nueva\"");
 4618              		.loc 1 911 0
 4619 0548 3648     		ldr	r0, .L455+44
 4620 054a FFF7FEFF 		bl	escribeDisplay2
ARM GAS  C:\Users\JPELEC~1\AppData\Local\Temp\ccEetrge.s 			page 107


 4621              	.LVL385:
 912:main.c        ****             escribeDisplay2("page MenuPrincipal");
 4622              		.loc 1 912 0
 4623 054e 3348     		ldr	r0, .L455+36
 4624 0550 FFF7FEFF 		bl	escribeDisplay2
 4625              	.LVL386:
 913:main.c        ****             if(!GuardaEEPROM){
 4626              		.loc 1 913 0
 4627 0554 354B     		ldr	r3, .L455+52
 4628 0556 B3F90030 		ldrsh	r3, [r3]
 4629 055a 3BBB     		cbnz	r3, .L291
 914:main.c        ****                //write_eeprom(10,Rx_Buffer[4]-0x30);delay_ms(20);write_eeprom(11,Rx_Buffer[5]-0x30)
 915:main.c        ****                EEPROM_WriteByte(Rx_Buffer[4]-0x30,0);CyDelay(20);
 4630              		.loc 1 915 0
 4631 055c 284C     		ldr	r4, .L455+8
 4632 055e 2079     		ldrb	r0, [r4, #4]	@ zero_extendqisi2
 4633 0560 3038     		subs	r0, r0, #48
 4634 0562 0021     		movs	r1, #0
 4635 0564 C0B2     		uxtb	r0, r0
 4636 0566 FFF7FEFF 		bl	EEPROM_WriteByte
 4637              	.LVL387:
 4638 056a 1420     		movs	r0, #20
 4639 056c FFF7FEFF 		bl	CyDelay
 4640              	.LVL388:
 916:main.c        ****                EEPROM_WriteByte(Rx_Buffer[5]-0x30,1);CyDelay(20);
 4641              		.loc 1 916 0
 4642 0570 6079     		ldrb	r0, [r4, #5]	@ zero_extendqisi2
 4643 0572 3038     		subs	r0, r0, #48
 4644 0574 0121     		movs	r1, #1
 4645 0576 C0B2     		uxtb	r0, r0
 4646 0578 FFF7FEFF 		bl	EEPROM_WriteByte
 4647              	.LVL389:
 4648 057c 1420     		movs	r0, #20
 4649 057e FFF7FEFF 		bl	CyDelay
 4650              	.LVL390:
 917:main.c        ****                EEPROM_WriteByte(Rx_Buffer[6]-0x30,2);CyDelay(20);
 4651              		.loc 1 917 0
 4652 0582 A079     		ldrb	r0, [r4, #6]	@ zero_extendqisi2
 4653 0584 3038     		subs	r0, r0, #48
 4654 0586 0221     		movs	r1, #2
 4655 0588 C0B2     		uxtb	r0, r0
 4656 058a FFF7FEFF 		bl	EEPROM_WriteByte
 4657              	.LVL391:
 4658 058e 1420     		movs	r0, #20
 4659 0590 FFF7FEFF 		bl	CyDelay
 4660              	.LVL392:
 918:main.c        ****                EEPROM_WriteByte(Rx_Buffer[7]-0x30,3);CyDelay(20);
 4661              		.loc 1 918 0
 4662 0594 E079     		ldrb	r0, [r4, #7]	@ zero_extendqisi2
 4663 0596 3038     		subs	r0, r0, #48
 4664 0598 0321     		movs	r1, #3
 4665 059a C0B2     		uxtb	r0, r0
 4666 059c FFF7FEFF 		bl	EEPROM_WriteByte
 4667              	.LVL393:
 4668 05a0 1420     		movs	r0, #20
 4669 05a2 FFF7FEFF 		bl	CyDelay
 4670              	.LVL394:
ARM GAS  C:\Users\JPELEC~1\AppData\Local\Temp\ccEetrge.s 			page 108


 919:main.c        ****                GuardaEEPROM=ON;
 4671              		.loc 1 919 0
 4672 05a6 0122     		movs	r2, #1
 4673 05a8 204B     		ldr	r3, .L455+52
 4674 05aa 1A80     		strh	r2, [r3]	@ movhi
 4675              	.L291:
 920:main.c        ****             }
 921:main.c        ****             Password[0]=Rx_Buffer[4]-0x30;Password[1]=Rx_Buffer[5]-0x30;Password[2]=Rx_Buffer[6]-0x
 4676              		.loc 1 921 0
 4677 05ac 144A     		ldr	r2, .L455+8
 4678 05ae 1179     		ldrb	r1, [r2, #4]	@ zero_extendqisi2
 4679 05b0 154B     		ldr	r3, .L455+16
 4680 05b2 3039     		subs	r1, r1, #48
 4681 05b4 1970     		strb	r1, [r3]
 4682 05b6 5179     		ldrb	r1, [r2, #5]	@ zero_extendqisi2
 4683 05b8 3039     		subs	r1, r1, #48
 4684 05ba 5970     		strb	r1, [r3, #1]
 4685 05bc 9179     		ldrb	r1, [r2, #6]	@ zero_extendqisi2
 4686 05be 3039     		subs	r1, r1, #48
 4687 05c0 9970     		strb	r1, [r3, #2]
 4688 05c2 D279     		ldrb	r2, [r2, #7]	@ zero_extendqisi2
 4689 05c4 303A     		subs	r2, r2, #48
 4690 05c6 DA70     		strb	r2, [r3, #3]
 4691 05c8 37E0     		b	.L276
 4692              	.L290:
 922:main.c        ****             //RX_Buffer[3]=0x00;
 923:main.c        ****             //RX_Buffer2[3]=0x00;
 924:main.c        ****          }else if(TipoClave==4){
 4693              		.loc 1 924 0
 4694 05ca 042B     		cmp	r3, #4
 4695 05cc 35D1     		bne	.L276
 925:main.c        ****             if(Rx_Buffer[4]==0x34&&Rx_Buffer[5]==0x34&&Rx_Buffer[6]==0x34&&Rx_Buffer[7]==0x34){ // 
 4696              		.loc 1 925 0
 4697 05ce 0C4B     		ldr	r3, .L455+8
 4698 05d0 1B79     		ldrb	r3, [r3, #4]	@ zero_extendqisi2
 4699 05d2 342B     		cmp	r3, #52
 4700 05d4 2ED1     		bne	.L292
 4701              		.loc 1 925 0 is_stmt 0 discriminator 1
 4702 05d6 0A4B     		ldr	r3, .L455+8
 4703 05d8 5B79     		ldrb	r3, [r3, #5]	@ zero_extendqisi2
 4704 05da 342B     		cmp	r3, #52
 4705 05dc 2AD1     		bne	.L292
 4706              		.loc 1 925 0 discriminator 2
 4707 05de 084B     		ldr	r3, .L455+8
 4708 05e0 9B79     		ldrb	r3, [r3, #6]	@ zero_extendqisi2
 4709 05e2 342B     		cmp	r3, #52
 4710 05e4 26D1     		bne	.L292
 4711              		.loc 1 925 0 discriminator 3
 4712 05e6 064B     		ldr	r3, .L455+8
 4713 05e8 DB79     		ldrb	r3, [r3, #7]	@ zero_extendqisi2
 4714 05ea 342B     		cmp	r3, #52
 4715 05ec 22D1     		bne	.L292
 926:main.c        ****                escribeDisplay2("page Test");
 4716              		.loc 1 926 0 is_stmt 1
 4717 05ee 1048     		ldr	r0, .L455+56
 4718 05f0 FFF7FEFF 		bl	escribeDisplay2
 4719              	.LVL395:
ARM GAS  C:\Users\JPELEC~1\AppData\Local\Temp\ccEetrge.s 			page 109


 4720 05f4 21E0     		b	.L276
 4721              	.L456:
 4722 05f6 00BF     		.align	2
 4723              	.L455:
 4724 05f8 00000000 		.word	displayStr
 4725 05fc 30010000 		.word	.LC18
 4726 0600 00000000 		.word	Rx_Buffer
 4727 0604 00000000 		.word	TipoClave
 4728 0608 00000000 		.word	Password
 4729 060c 4C010000 		.word	.LC19
 4730 0610 00000000 		.word	dibujo
 4731 0614 60010000 		.word	.LC20
 4732 0618 70010000 		.word	.LC21
 4733 061c 7C010000 		.word	.LC22
 4734 0620 B4000000 		.word	.LC12
 4735 0624 D0000000 		.word	.LC14
 4736 0628 00000000 		.word	Rx_Buffer2
 4737 062c 00000000 		.word	GuardaEEPROM
 4738 0630 90010000 		.word	.LC23
 4739              	.L292:
 927:main.c        ****             }else{
 928:main.c        ****                escribeDisplay2("page MenuPrincipal");
 4740              		.loc 1 928 0
 4741 0634 9E48     		ldr	r0, .L457
 4742 0636 FFF7FEFF 		bl	escribeDisplay2
 4743              	.LVL396:
 4744              	.L276:
 929:main.c        ****             }
 930:main.c        ****             //RX_Buffer[3]=0x00;
 931:main.c        ****             //RX_Buffer2[3]=0x00;
 932:main.c        ****          }
 933:main.c        ****       }
 934:main.c        ****     }
 935:main.c        **** //_------------------------------------------------------------------------------------------------
 936:main.c        **** 
 937:main.c        **** //_------------------------------------------------------------------------------------------------
 938:main.c        ****    if(Menu==1){ //Menu Principal.
 4745              		.loc 1 938 0
 4746 063a 9E4B     		ldr	r3, .L457+4
 4747 063c 1B78     		ldrb	r3, [r3]	@ zero_extendqisi2
 4748 063e 012B     		cmp	r3, #1
 4749 0640 40F0D681 		bne	.L293
 939:main.c        ****       GuardaEEPROM=OFF;
 4750              		.loc 1 939 0
 4751 0644 0023     		movs	r3, #0
 4752 0646 9C4A     		ldr	r2, .L457+8
 4753 0648 1380     		strh	r3, [r2]	@ movhi
 940:main.c        ****       Test=OFF;
 4754              		.loc 1 940 0
 4755 064a 9C4A     		ldr	r2, .L457+12
 4756 064c 1380     		strh	r3, [r2]	@ movhi
 941:main.c        ****       dibujo=OFF;
 4757              		.loc 1 941 0
 4758 064e 9C4A     		ldr	r2, .L457+16
 4759 0650 1380     		strh	r3, [r2]	@ movhi
 942:main.c        ****       if(Rx_Buffer[3]==0x0f){//0f, recibe caracteres ingresados desde el Display
 4760              		.loc 1 942 0
ARM GAS  C:\Users\JPELEC~1\AppData\Local\Temp\ccEetrge.s 			page 110


 4761 0652 9C4B     		ldr	r3, .L457+20
 4762 0654 DB78     		ldrb	r3, [r3, #3]	@ zero_extendqisi2
 4763 0656 0F2B     		cmp	r3, #15
 4764 0658 7FD1     		bne	.L294
 943:main.c        ****          CyDelay(5);
 4765              		.loc 1 943 0
 4766 065a 0520     		movs	r0, #5
 4767 065c FFF7FEFF 		bl	CyDelay
 4768              	.LVL397:
 944:main.c        ****          if(Rx_Buffer[3]==0x0f){
 4769              		.loc 1 944 0
 4770 0660 984B     		ldr	r3, .L457+20
 4771 0662 DB78     		ldrb	r3, [r3, #3]	@ zero_extendqisi2
 4772 0664 0F2B     		cmp	r3, #15
 4773 0666 40F0C381 		bne	.L293
 945:main.c        ****             if(Rx_Buffer[4]==0x37){//Ajustes y pasa a solicitud de password de tecnico
 4774              		.loc 1 945 0
 4775 066a 964B     		ldr	r3, .L457+20
 4776 066c 1B79     		ldrb	r3, [r3, #4]	@ zero_extendqisi2
 4777 066e 372B     		cmp	r3, #55
 4778 0670 10D1     		bne	.L295
 946:main.c        ****                escribeDisplay2("page Clave");
 4779              		.loc 1 946 0
 4780 0672 9548     		ldr	r0, .L457+24
 4781 0674 FFF7FEFF 		bl	escribeDisplay2
 4782              	.LVL398:
 947:main.c        ****                MenuAnt=Menu;
 4783              		.loc 1 947 0
 4784 0678 8E4B     		ldr	r3, .L457+4
 4785 067a 1A78     		ldrb	r2, [r3]	@ zero_extendqisi2
 4786 067c 934B     		ldr	r3, .L457+28
 4787 067e 1A70     		strb	r2, [r3]
 948:main.c        ****                TipoClave=1;
 4788              		.loc 1 948 0
 4789 0680 0122     		movs	r2, #1
 4790 0682 934B     		ldr	r3, .L457+32
 4791 0684 1A70     		strb	r2, [r3]
 949:main.c        ****                Rx_Buffer[3]=0x00;
 4792              		.loc 1 949 0
 4793 0686 0023     		movs	r3, #0
 4794 0688 8E4A     		ldr	r2, .L457+20
 4795 068a D370     		strb	r3, [r2, #3]
 950:main.c        ****                Rx_Buffer2[3]=0x00;
 4796              		.loc 1 950 0
 4797 068c 914A     		ldr	r2, .L457+36
 4798 068e D370     		strb	r3, [r2, #3]
 951:main.c        ****                Opcion=0;
 4799              		.loc 1 951 0
 4800 0690 914A     		ldr	r2, .L457+40
 4801 0692 1370     		strb	r3, [r2]
 4802              	.L295:
 952:main.c        ****             } 
 953:main.c        ****             if(Opcion==7){// Cambio de Clave
 4803              		.loc 1 953 0
 4804 0694 904B     		ldr	r3, .L457+40
 4805 0696 1B78     		ldrb	r3, [r3]	@ zero_extendqisi2
 4806 0698 072B     		cmp	r3, #7
ARM GAS  C:\Users\JPELEC~1\AppData\Local\Temp\ccEetrge.s 			page 111


 4807 069a 11D1     		bne	.L296
 954:main.c        ****                escribeDisplay2("page Clave");
 4808              		.loc 1 954 0
 4809 069c 8A48     		ldr	r0, .L457+24
 4810 069e FFF7FEFF 		bl	escribeDisplay2
 4811              	.LVL399:
 955:main.c        ****                MenuAnt=Menu;
 4812              		.loc 1 955 0
 4813 06a2 844B     		ldr	r3, .L457+4
 4814 06a4 1A78     		ldrb	r2, [r3]	@ zero_extendqisi2
 4815 06a6 894B     		ldr	r3, .L457+28
 4816 06a8 1A70     		strb	r2, [r3]
 956:main.c        ****                TipoClave=2;
 4817              		.loc 1 956 0
 4818 06aa 0222     		movs	r2, #2
 4819 06ac 884B     		ldr	r3, .L457+32
 4820 06ae 1A70     		strb	r2, [r3]
 957:main.c        ****                Rx_Buffer[3]=0x00;
 4821              		.loc 1 957 0
 4822 06b0 0023     		movs	r3, #0
 4823 06b2 844A     		ldr	r2, .L457+20
 4824 06b4 D370     		strb	r3, [r2, #3]
 958:main.c        ****                Rx_Buffer2[3]=0x00;
 4825              		.loc 1 958 0
 4826 06b6 874A     		ldr	r2, .L457+36
 4827 06b8 D370     		strb	r3, [r2, #3]
 959:main.c        ****                Opcion=0;
 4828              		.loc 1 959 0
 4829 06ba 874A     		ldr	r2, .L457+40
 4830 06bc 1370     		strb	r3, [r2]
 4831 06be 97E1     		b	.L293
 4832              	.L296:
 960:main.c        ****             }else if(Opcion==6){//Test
 4833              		.loc 1 960 0
 4834 06c0 062B     		cmp	r3, #6
 4835 06c2 0AD1     		bne	.L297
 961:main.c        ****                escribeDisplay2("page Test");
 4836              		.loc 1 961 0
 4837 06c4 8548     		ldr	r0, .L457+44
 4838 06c6 FFF7FEFF 		bl	escribeDisplay2
 4839              	.LVL400:
 962:main.c        ****                PantallaPrincipal=0;
 4840              		.loc 1 962 0
 4841 06ca 0022     		movs	r2, #0
 4842 06cc 844B     		ldr	r3, .L457+48
 4843 06ce 1A70     		strb	r2, [r3]
 963:main.c        ****                MenuAnt=Menu;
 4844              		.loc 1 963 0
 4845 06d0 784B     		ldr	r3, .L457+4
 4846 06d2 1A78     		ldrb	r2, [r3]	@ zero_extendqisi2
 4847 06d4 7D4B     		ldr	r3, .L457+28
 4848 06d6 1A70     		strb	r2, [r3]
 4849 06d8 8AE1     		b	.L293
 4850              	.L297:
 964:main.c        ****             }else if(Opcion==5){//Programa 5
 4851              		.loc 1 964 0
 4852 06da 052B     		cmp	r3, #5
ARM GAS  C:\Users\JPELEC~1\AppData\Local\Temp\ccEetrge.s 			page 112


 4853 06dc 0AD1     		bne	.L298
 965:main.c        ****                escribeDisplay2("page Rampas");
 4854              		.loc 1 965 0
 4855 06de 8148     		ldr	r0, .L457+52
 4856 06e0 FFF7FEFF 		bl	escribeDisplay2
 4857              	.LVL401:
 966:main.c        ****                MenuAnt=Menu;
 4858              		.loc 1 966 0
 4859 06e4 734B     		ldr	r3, .L457+4
 4860 06e6 1A78     		ldrb	r2, [r3]	@ zero_extendqisi2
 4861 06e8 784B     		ldr	r3, .L457+28
 4862 06ea 1A70     		strb	r2, [r3]
 967:main.c        ****                Programa=5;
 4863              		.loc 1 967 0
 4864 06ec 0522     		movs	r2, #5
 4865 06ee 7E4B     		ldr	r3, .L457+56
 4866 06f0 1A70     		strb	r2, [r3]
 4867 06f2 7DE1     		b	.L293
 4868              	.L298:
 968:main.c        ****             }else if(Opcion==4){//Programa 4
 4869              		.loc 1 968 0
 4870 06f4 042B     		cmp	r3, #4
 4871 06f6 09D1     		bne	.L299
 969:main.c        ****                escribeDisplay2("page Rampas");
 4872              		.loc 1 969 0
 4873 06f8 7A48     		ldr	r0, .L457+52
 4874 06fa FFF7FEFF 		bl	escribeDisplay2
 4875              	.LVL402:
 970:main.c        ****                MenuAnt=2;
 4876              		.loc 1 970 0
 4877 06fe 0222     		movs	r2, #2
 4878 0700 724B     		ldr	r3, .L457+28
 4879 0702 1A70     		strb	r2, [r3]
 971:main.c        ****                Programa=4;
 4880              		.loc 1 971 0
 4881 0704 0422     		movs	r2, #4
 4882 0706 784B     		ldr	r3, .L457+56
 4883 0708 1A70     		strb	r2, [r3]
 4884 070a 71E1     		b	.L293
 4885              	.L299:
 972:main.c        ****             }else if(Opcion==1){//Programa 1
 4886              		.loc 1 972 0
 4887 070c 012B     		cmp	r3, #1
 4888 070e 09D1     		bne	.L300
 973:main.c        ****                escribeDisplay2("page Rampas");
 4889              		.loc 1 973 0
 4890 0710 7448     		ldr	r0, .L457+52
 4891 0712 FFF7FEFF 		bl	escribeDisplay2
 4892              	.LVL403:
 974:main.c        ****                MenuAnt=2;
 4893              		.loc 1 974 0
 4894 0716 0222     		movs	r2, #2
 4895 0718 6C4B     		ldr	r3, .L457+28
 4896 071a 1A70     		strb	r2, [r3]
 975:main.c        ****                Programa=1;
 4897              		.loc 1 975 0
 4898 071c 0122     		movs	r2, #1
ARM GAS  C:\Users\JPELEC~1\AppData\Local\Temp\ccEetrge.s 			page 113


 4899 071e 724B     		ldr	r3, .L457+56
 4900 0720 1A70     		strb	r2, [r3]
 4901 0722 65E1     		b	.L293
 4902              	.L300:
 976:main.c        ****             }else if(Opcion==3){//Programa 3
 4903              		.loc 1 976 0
 4904 0724 032B     		cmp	r3, #3
 4905 0726 0AD1     		bne	.L301
 977:main.c        ****                escribeDisplay2("page Rampas");
 4906              		.loc 1 977 0
 4907 0728 6E48     		ldr	r0, .L457+52
 4908 072a FFF7FEFF 		bl	escribeDisplay2
 4909              	.LVL404:
 978:main.c        ****                MenuAnt=Menu;               
 4910              		.loc 1 978 0
 4911 072e 614B     		ldr	r3, .L457+4
 4912 0730 1A78     		ldrb	r2, [r3]	@ zero_extendqisi2
 4913 0732 664B     		ldr	r3, .L457+28
 4914 0734 1A70     		strb	r2, [r3]
 979:main.c        ****                Programa=3;
 4915              		.loc 1 979 0
 4916 0736 0322     		movs	r2, #3
 4917 0738 6B4B     		ldr	r3, .L457+56
 4918 073a 1A70     		strb	r2, [r3]
 4919 073c 58E1     		b	.L293
 4920              	.L301:
 980:main.c        ****             }else if(Opcion==2){//Programa 2
 4921              		.loc 1 980 0
 4922 073e 022B     		cmp	r3, #2
 4923 0740 40F05681 		bne	.L293
 981:main.c        ****                escribeDisplay2("page Rampas");
 4924              		.loc 1 981 0
 4925 0744 6748     		ldr	r0, .L457+52
 4926 0746 FFF7FEFF 		bl	escribeDisplay2
 4927              	.LVL405:
 982:main.c        ****                MenuAnt=Menu;
 4928              		.loc 1 982 0
 4929 074a 5A4B     		ldr	r3, .L457+4
 4930 074c 1A78     		ldrb	r2, [r3]	@ zero_extendqisi2
 4931 074e 5F4B     		ldr	r3, .L457+28
 4932 0750 1A70     		strb	r2, [r3]
 983:main.c        ****                Programa=2;
 4933              		.loc 1 983 0
 4934 0752 0222     		movs	r2, #2
 4935 0754 644B     		ldr	r3, .L457+56
 4936 0756 1A70     		strb	r2, [r3]
 4937 0758 4AE1     		b	.L293
 4938              	.L294:
 984:main.c        ****             }
 985:main.c        ****          }
 986:main.c        ****       }else {
 987:main.c        ****          if(Opcion>7)
 4939              		.loc 1 987 0
 4940 075a 5F4B     		ldr	r3, .L457+40
 4941 075c 1B78     		ldrb	r3, [r3]	@ zero_extendqisi2
 4942 075e 072B     		cmp	r3, #7
 4943 0760 02D9     		bls	.L302
ARM GAS  C:\Users\JPELEC~1\AppData\Local\Temp\ccEetrge.s 			page 114


 988:main.c        ****             Opcion=1;
 4944              		.loc 1 988 0
 4945 0762 0122     		movs	r2, #1
 4946 0764 5C4B     		ldr	r3, .L457+40
 4947 0766 1A70     		strb	r2, [r3]
 4948              	.L302:
 989:main.c        ****             
 990:main.c        ****          if(Opcion<1)
 4949              		.loc 1 990 0
 4950 0768 5B4B     		ldr	r3, .L457+40
 4951 076a 1B78     		ldrb	r3, [r3]	@ zero_extendqisi2
 4952 076c 13B9     		cbnz	r3, .L303
 991:main.c        ****             Opcion=7;
 4953              		.loc 1 991 0
 4954 076e 0722     		movs	r2, #7
 4955 0770 594B     		ldr	r3, .L457+40
 4956 0772 1A70     		strb	r2, [r3]
 4957              	.L303:
 992:main.c        ****          
 993:main.c        ****          if(Opcion==1){
 4958              		.loc 1 993 0
 4959 0774 584B     		ldr	r3, .L457+40
 4960 0776 1B78     		ldrb	r3, [r3]	@ zero_extendqisi2
 4961 0778 012B     		cmp	r3, #1
 4962 077a 4AD1     		bne	.L304
 994:main.c        ****             sprintf(displayStr,"bc.pic=%u",iconoGrande[Opcion-1]);
 4963              		.loc 1 994 0
 4964 077c 013B     		subs	r3, r3, #1
 4965 077e 5B4D     		ldr	r5, .L457+60
 4966 0780 2B44     		add	r3, r3, r5
 4967 0782 5B4C     		ldr	r4, .L457+64
 4968 0784 1A79     		ldrb	r2, [r3, #4]	@ zero_extendqisi2
 4969 0786 5B49     		ldr	r1, .L457+68
 4970 0788 2046     		mov	r0, r4
 4971 078a FFF7FEFF 		bl	sprintf
 4972              	.LVL406:
 995:main.c        ****             escribeDisplay2(displayStr);
 4973              		.loc 1 995 0
 4974 078e 2046     		mov	r0, r4
 4975 0790 FFF7FEFF 		bl	escribeDisplay2
 4976              	.LVL407:
 996:main.c        ****             sprintf(displayStr,"bd.pic=%u",iconoPeque[Opcion]);
 4977              		.loc 1 996 0
 4978 0794 504E     		ldr	r6, .L457+40
 4979 0796 3378     		ldrb	r3, [r6]	@ zero_extendqisi2
 4980 0798 2B44     		add	r3, r3, r5
 4981 079a 1A7D     		ldrb	r2, [r3, #20]	@ zero_extendqisi2
 4982 079c 5649     		ldr	r1, .L457+72
 4983 079e 2046     		mov	r0, r4
 4984 07a0 FFF7FEFF 		bl	sprintf
 4985              	.LVL408:
 997:main.c        ****             escribeDisplay2(displayStr);
 4986              		.loc 1 997 0
 4987 07a4 2046     		mov	r0, r4
 4988 07a6 FFF7FEFF 		bl	escribeDisplay2
 4989              	.LVL409:
 998:main.c        ****             sprintf(displayStr,"bi.pic=%u",iconoPeque[6]);
ARM GAS  C:\Users\JPELEC~1\AppData\Local\Temp\ccEetrge.s 			page 115


 4990              		.loc 1 998 0
 4991 07aa AA7E     		ldrb	r2, [r5, #26]	@ zero_extendqisi2
 4992 07ac 5349     		ldr	r1, .L457+76
 4993 07ae 2046     		mov	r0, r4
 4994 07b0 FFF7FEFF 		bl	sprintf
 4995              	.LVL410:
 999:main.c        ****             escribeDisplay2(displayStr);
 4996              		.loc 1 999 0
 4997 07b4 2046     		mov	r0, r4
 4998 07b6 FFF7FEFF 		bl	escribeDisplay2
 4999              	.LVL411:
1000:main.c        ****             sprintf(displayStr,"bc.pic2=%u",iconoGrande[Opcion-1]);
 5000              		.loc 1 1000 0
 5001 07ba 3378     		ldrb	r3, [r6]	@ zero_extendqisi2
 5002 07bc 013B     		subs	r3, r3, #1
 5003 07be 2B44     		add	r3, r3, r5
 5004 07c0 1A79     		ldrb	r2, [r3, #4]	@ zero_extendqisi2
 5005 07c2 4F49     		ldr	r1, .L457+80
 5006 07c4 2046     		mov	r0, r4
 5007 07c6 FFF7FEFF 		bl	sprintf
 5008              	.LVL412:
1001:main.c        ****             escribeDisplay2(displayStr);
 5009              		.loc 1 1001 0
 5010 07ca 2046     		mov	r0, r4
 5011 07cc FFF7FEFF 		bl	escribeDisplay2
 5012              	.LVL413:
1002:main.c        ****             sprintf(displayStr,"bd.pic2=%u",iconoPeque[Opcion]);
 5013              		.loc 1 1002 0
 5014 07d0 3378     		ldrb	r3, [r6]	@ zero_extendqisi2
 5015 07d2 2B44     		add	r3, r3, r5
 5016 07d4 1A7D     		ldrb	r2, [r3, #20]	@ zero_extendqisi2
 5017 07d6 4B49     		ldr	r1, .L457+84
 5018 07d8 2046     		mov	r0, r4
 5019 07da FFF7FEFF 		bl	sprintf
 5020              	.LVL414:
1003:main.c        ****             escribeDisplay2(displayStr);
 5021              		.loc 1 1003 0
 5022 07de 2046     		mov	r0, r4
 5023 07e0 FFF7FEFF 		bl	escribeDisplay2
 5024              	.LVL415:
1004:main.c        ****             sprintf(displayStr,"bi.pic2=%u",iconoPeque[6]);
 5025              		.loc 1 1004 0
 5026 07e4 AA7E     		ldrb	r2, [r5, #26]	@ zero_extendqisi2
 5027 07e6 4849     		ldr	r1, .L457+88
 5028 07e8 2046     		mov	r0, r4
 5029 07ea FFF7FEFF 		bl	sprintf
 5030              	.LVL416:
1005:main.c        ****             escribeDisplay2(displayStr);
 5031              		.loc 1 1005 0
 5032 07ee 2046     		mov	r0, r4
 5033 07f0 FFF7FEFF 		bl	escribeDisplay2
 5034              	.LVL417:
1006:main.c        ****             sprintf(displayStr,"textop.txt=\"%s\"",texto[Opcion-1]);
 5035              		.loc 1 1006 0
 5036 07f4 3378     		ldrb	r3, [r6]	@ zero_extendqisi2
 5037 07f6 013B     		subs	r3, r3, #1
 5038 07f8 03EB8303 		add	r3, r3, r3, lsl #2
ARM GAS  C:\Users\JPELEC~1\AppData\Local\Temp\ccEetrge.s 			page 116


 5039 07fc 9A00     		lsls	r2, r3, #2
 5040 07fe 434B     		ldr	r3, .L457+92
 5041 0800 1A44     		add	r2, r2, r3
 5042 0802 4349     		ldr	r1, .L457+96
 5043 0804 2046     		mov	r0, r4
 5044 0806 FFF7FEFF 		bl	sprintf
 5045              	.LVL418:
1007:main.c        ****             escribeDisplay2(displayStr);
 5046              		.loc 1 1007 0
 5047 080a 2046     		mov	r0, r4
 5048 080c FFF7FEFF 		bl	escribeDisplay2
 5049              	.LVL419:
 5050 0810 D0E0     		b	.L305
 5051              	.L304:
1008:main.c        ****          }else if(Opcion==7){
 5052              		.loc 1 1008 0
 5053 0812 072B     		cmp	r3, #7
 5054 0814 7ED1     		bne	.L306
1009:main.c        ****             sprintf(displayStr,"bc.pic=%u",iconoGrande[Opcion-1]);
 5055              		.loc 1 1009 0
 5056 0816 013B     		subs	r3, r3, #1
 5057 0818 344D     		ldr	r5, .L457+60
 5058 081a 2B44     		add	r3, r3, r5
 5059 081c 344C     		ldr	r4, .L457+64
 5060 081e 1A79     		ldrb	r2, [r3, #4]	@ zero_extendqisi2
 5061 0820 3449     		ldr	r1, .L457+68
 5062 0822 2046     		mov	r0, r4
 5063 0824 FFF7FEFF 		bl	sprintf
 5064              	.LVL420:
1010:main.c        ****             escribeDisplay2(displayStr);
 5065              		.loc 1 1010 0
 5066 0828 2046     		mov	r0, r4
 5067 082a FFF7FEFF 		bl	escribeDisplay2
 5068              	.LVL421:
1011:main.c        ****             sprintf(displayStr,"bd.pic=%u",iconoPeque[0]);
 5069              		.loc 1 1011 0
 5070 082e 2A7D     		ldrb	r2, [r5, #20]	@ zero_extendqisi2
 5071 0830 3149     		ldr	r1, .L457+72
 5072 0832 2046     		mov	r0, r4
 5073 0834 FFF7FEFF 		bl	sprintf
 5074              	.LVL422:
1012:main.c        ****             escribeDisplay2(displayStr);
 5075              		.loc 1 1012 0
 5076 0838 2046     		mov	r0, r4
 5077 083a FFF7FEFF 		bl	escribeDisplay2
 5078              	.LVL423:
1013:main.c        ****             sprintf(displayStr,"bi.pic=%u",iconoPeque[Opcion-2]);
 5079              		.loc 1 1013 0
 5080 083e 264E     		ldr	r6, .L457+40
 5081 0840 3378     		ldrb	r3, [r6]	@ zero_extendqisi2
 5082 0842 023B     		subs	r3, r3, #2
 5083 0844 2B44     		add	r3, r3, r5
 5084 0846 1A7D     		ldrb	r2, [r3, #20]	@ zero_extendqisi2
 5085 0848 2C49     		ldr	r1, .L457+76
 5086 084a 2046     		mov	r0, r4
 5087 084c FFF7FEFF 		bl	sprintf
 5088              	.LVL424:
ARM GAS  C:\Users\JPELEC~1\AppData\Local\Temp\ccEetrge.s 			page 117


1014:main.c        ****             escribeDisplay2(displayStr);
 5089              		.loc 1 1014 0
 5090 0850 2046     		mov	r0, r4
 5091 0852 FFF7FEFF 		bl	escribeDisplay2
 5092              	.LVL425:
1015:main.c        ****             sprintf(displayStr,"bc.pic2=%u",iconoGrande[Opcion-1]);
 5093              		.loc 1 1015 0
 5094 0856 3378     		ldrb	r3, [r6]	@ zero_extendqisi2
 5095 0858 013B     		subs	r3, r3, #1
 5096 085a 2B44     		add	r3, r3, r5
 5097 085c 1A79     		ldrb	r2, [r3, #4]	@ zero_extendqisi2
 5098 085e 2849     		ldr	r1, .L457+80
 5099 0860 2046     		mov	r0, r4
 5100 0862 FFF7FEFF 		bl	sprintf
 5101              	.LVL426:
1016:main.c        ****             escribeDisplay2(displayStr);
 5102              		.loc 1 1016 0
 5103 0866 2046     		mov	r0, r4
 5104 0868 FFF7FEFF 		bl	escribeDisplay2
 5105              	.LVL427:
1017:main.c        ****             sprintf(displayStr,"bd.pic2=%u",iconoPeque[0]);
 5106              		.loc 1 1017 0
 5107 086c 2A7D     		ldrb	r2, [r5, #20]	@ zero_extendqisi2
 5108 086e 2549     		ldr	r1, .L457+84
 5109 0870 2046     		mov	r0, r4
 5110 0872 FFF7FEFF 		bl	sprintf
 5111              	.LVL428:
1018:main.c        ****             escribeDisplay2(displayStr);
 5112              		.loc 1 1018 0
 5113 0876 2046     		mov	r0, r4
 5114 0878 FFF7FEFF 		bl	escribeDisplay2
 5115              	.LVL429:
1019:main.c        ****             sprintf(displayStr,"bi.pic2=%u",iconoPeque[Opcion-2]);
 5116              		.loc 1 1019 0
 5117 087c 3378     		ldrb	r3, [r6]	@ zero_extendqisi2
 5118 087e 023B     		subs	r3, r3, #2
 5119 0880 1D44     		add	r5, r5, r3
 5120 0882 2A7D     		ldrb	r2, [r5, #20]	@ zero_extendqisi2
 5121 0884 2049     		ldr	r1, .L457+88
 5122 0886 2046     		mov	r0, r4
 5123 0888 FFF7FEFF 		bl	sprintf
 5124              	.LVL430:
1020:main.c        ****             escribeDisplay2(displayStr);
 5125              		.loc 1 1020 0
 5126 088c 2046     		mov	r0, r4
 5127 088e FFF7FEFF 		bl	escribeDisplay2
 5128              	.LVL431:
1021:main.c        ****             sprintf(displayStr,"textop.txt=\"%s\"",texto[Opcion-1]);
 5129              		.loc 1 1021 0
 5130 0892 3378     		ldrb	r3, [r6]	@ zero_extendqisi2
 5131 0894 013B     		subs	r3, r3, #1
 5132 0896 03EB8303 		add	r3, r3, r3, lsl #2
 5133 089a 9A00     		lsls	r2, r3, #2
 5134 089c 1B4B     		ldr	r3, .L457+92
 5135 089e 1A44     		add	r2, r2, r3
 5136 08a0 1B49     		ldr	r1, .L457+96
 5137 08a2 2046     		mov	r0, r4
ARM GAS  C:\Users\JPELEC~1\AppData\Local\Temp\ccEetrge.s 			page 118


 5138 08a4 FFF7FEFF 		bl	sprintf
 5139              	.LVL432:
1022:main.c        ****             escribeDisplay2(displayStr);
 5140              		.loc 1 1022 0
 5141 08a8 2046     		mov	r0, r4
 5142 08aa FFF7FEFF 		bl	escribeDisplay2
 5143              	.LVL433:
 5144 08ae 81E0     		b	.L305
 5145              	.L458:
 5146              		.align	2
 5147              	.L457:
 5148 08b0 7C010000 		.word	.LC22
 5149 08b4 00000000 		.word	Menu
 5150 08b8 00000000 		.word	GuardaEEPROM
 5151 08bc 00000000 		.word	Test
 5152 08c0 00000000 		.word	dibujo
 5153 08c4 00000000 		.word	Rx_Buffer
 5154 08c8 B4000000 		.word	.LC12
 5155 08cc 00000000 		.word	MenuAnt
 5156 08d0 00000000 		.word	TipoClave
 5157 08d4 00000000 		.word	Rx_Buffer2
 5158 08d8 00000000 		.word	Opcion
 5159 08dc 90010000 		.word	.LC23
 5160 08e0 00000000 		.word	PantallaPrincipal
 5161 08e4 9C010000 		.word	.LC24
 5162 08e8 00000000 		.word	Programa
 5163 08ec 00000000 		.word	.LANCHOR1
 5164 08f0 00000000 		.word	displayStr
 5165 08f4 A8010000 		.word	.LC25
 5166 08f8 B4010000 		.word	.LC26
 5167 08fc C0010000 		.word	.LC27
 5168 0900 CC010000 		.word	.LC28
 5169 0904 D8010000 		.word	.LC29
 5170 0908 E4010000 		.word	.LC30
 5171 090c 00000000 		.word	.LANCHOR2
 5172 0910 F0010000 		.word	.LC31
 5173              	.L306:
1023:main.c        ****          }else{
1024:main.c        ****             sprintf(displayStr,"bc.pic=%u",iconoGrande[Opcion-1]);
 5174              		.loc 1 1024 0
 5175 0914 013B     		subs	r3, r3, #1
 5176 0916 B34E     		ldr	r6, .L459
 5177 0918 3344     		add	r3, r3, r6
 5178 091a B34C     		ldr	r4, .L459+4
 5179 091c 1A79     		ldrb	r2, [r3, #4]	@ zero_extendqisi2
 5180 091e B349     		ldr	r1, .L459+8
 5181 0920 2046     		mov	r0, r4
 5182 0922 FFF7FEFF 		bl	sprintf
 5183              	.LVL434:
1025:main.c        ****             escribeDisplay2(displayStr);
 5184              		.loc 1 1025 0
 5185 0926 2046     		mov	r0, r4
 5186 0928 FFF7FEFF 		bl	escribeDisplay2
 5187              	.LVL435:
1026:main.c        ****             sprintf(displayStr,"bd.pic=%u",iconoPeque[Opcion]);
 5188              		.loc 1 1026 0
 5189 092c B04D     		ldr	r5, .L459+12
ARM GAS  C:\Users\JPELEC~1\AppData\Local\Temp\ccEetrge.s 			page 119


 5190 092e 2B78     		ldrb	r3, [r5]	@ zero_extendqisi2
 5191 0930 3344     		add	r3, r3, r6
 5192 0932 1A7D     		ldrb	r2, [r3, #20]	@ zero_extendqisi2
 5193 0934 AF49     		ldr	r1, .L459+16
 5194 0936 2046     		mov	r0, r4
 5195 0938 FFF7FEFF 		bl	sprintf
 5196              	.LVL436:
1027:main.c        ****             escribeDisplay2(displayStr);
 5197              		.loc 1 1027 0
 5198 093c 2046     		mov	r0, r4
 5199 093e FFF7FEFF 		bl	escribeDisplay2
 5200              	.LVL437:
1028:main.c        ****             sprintf(displayStr,"bi.pic=%u",iconoPeque[Opcion-2]);
 5201              		.loc 1 1028 0
 5202 0942 2B78     		ldrb	r3, [r5]	@ zero_extendqisi2
 5203 0944 023B     		subs	r3, r3, #2
 5204 0946 3344     		add	r3, r3, r6
 5205 0948 1A7D     		ldrb	r2, [r3, #20]	@ zero_extendqisi2
 5206 094a AB49     		ldr	r1, .L459+20
 5207 094c 2046     		mov	r0, r4
 5208 094e FFF7FEFF 		bl	sprintf
 5209              	.LVL438:
1029:main.c        ****             escribeDisplay2(displayStr);
 5210              		.loc 1 1029 0
 5211 0952 2046     		mov	r0, r4
 5212 0954 FFF7FEFF 		bl	escribeDisplay2
 5213              	.LVL439:
1030:main.c        ****             sprintf(displayStr,"bc.pic2=%u",iconoGrande[Opcion-1]);
 5214              		.loc 1 1030 0
 5215 0958 2B78     		ldrb	r3, [r5]	@ zero_extendqisi2
 5216 095a 013B     		subs	r3, r3, #1
 5217 095c 3344     		add	r3, r3, r6
 5218 095e 1A79     		ldrb	r2, [r3, #4]	@ zero_extendqisi2
 5219 0960 A649     		ldr	r1, .L459+24
 5220 0962 2046     		mov	r0, r4
 5221 0964 FFF7FEFF 		bl	sprintf
 5222              	.LVL440:
1031:main.c        ****             escribeDisplay2(displayStr);
 5223              		.loc 1 1031 0
 5224 0968 2046     		mov	r0, r4
 5225 096a FFF7FEFF 		bl	escribeDisplay2
 5226              	.LVL441:
1032:main.c        ****             sprintf(displayStr,"bd.pic2=%u",iconoPeque[Opcion]);
 5227              		.loc 1 1032 0
 5228 096e 2B78     		ldrb	r3, [r5]	@ zero_extendqisi2
 5229 0970 3344     		add	r3, r3, r6
 5230 0972 1A7D     		ldrb	r2, [r3, #20]	@ zero_extendqisi2
 5231 0974 A249     		ldr	r1, .L459+28
 5232 0976 2046     		mov	r0, r4
 5233 0978 FFF7FEFF 		bl	sprintf
 5234              	.LVL442:
1033:main.c        ****             escribeDisplay2(displayStr);
 5235              		.loc 1 1033 0
 5236 097c 2046     		mov	r0, r4
 5237 097e FFF7FEFF 		bl	escribeDisplay2
 5238              	.LVL443:
1034:main.c        ****             sprintf(displayStr,"bi.pic2=%u",iconoPeque[Opcion-2]);
ARM GAS  C:\Users\JPELEC~1\AppData\Local\Temp\ccEetrge.s 			page 120


 5239              		.loc 1 1034 0
 5240 0982 2B78     		ldrb	r3, [r5]	@ zero_extendqisi2
 5241 0984 023B     		subs	r3, r3, #2
 5242 0986 1E44     		add	r6, r6, r3
 5243 0988 327D     		ldrb	r2, [r6, #20]	@ zero_extendqisi2
 5244 098a 9E49     		ldr	r1, .L459+32
 5245 098c 2046     		mov	r0, r4
 5246 098e FFF7FEFF 		bl	sprintf
 5247              	.LVL444:
1035:main.c        ****             escribeDisplay2(displayStr);
 5248              		.loc 1 1035 0
 5249 0992 2046     		mov	r0, r4
 5250 0994 FFF7FEFF 		bl	escribeDisplay2
 5251              	.LVL445:
1036:main.c        ****             sprintf(displayStr,"textop.txt=\"%s\"",texto[Opcion-1]);
 5252              		.loc 1 1036 0
 5253 0998 2B78     		ldrb	r3, [r5]	@ zero_extendqisi2
 5254 099a 013B     		subs	r3, r3, #1
 5255 099c 03EB8303 		add	r3, r3, r3, lsl #2
 5256 09a0 9A00     		lsls	r2, r3, #2
 5257 09a2 994B     		ldr	r3, .L459+36
 5258 09a4 1A44     		add	r2, r2, r3
 5259 09a6 9949     		ldr	r1, .L459+40
 5260 09a8 2046     		mov	r0, r4
 5261 09aa FFF7FEFF 		bl	sprintf
 5262              	.LVL446:
1037:main.c        ****             escribeDisplay2(displayStr);
 5263              		.loc 1 1037 0
 5264 09ae 2046     		mov	r0, r4
 5265 09b0 FFF7FEFF 		bl	escribeDisplay2
 5266              	.LVL447:
 5267              	.L305:
1038:main.c        ****          }
1039:main.c        ****                   
1040:main.c        ****          if(Rx_Buffer[4]==0x0d || Rx_Buffer[4]==0x0c){//Tecla Derecha Oprimida
 5268              		.loc 1 1040 0
 5269 09b4 964B     		ldr	r3, .L459+44
 5270 09b6 1B79     		ldrb	r3, [r3, #4]	@ zero_extendqisi2
 5271 09b8 0C3B     		subs	r3, r3, #12
 5272 09ba DBB2     		uxtb	r3, r3
 5273 09bc 012B     		cmp	r3, #1
 5274 09be 08D8     		bhi	.L307
1041:main.c        ****             Opcion++;
 5275              		.loc 1 1041 0
 5276 09c0 8B4A     		ldr	r2, .L459+12
 5277 09c2 1378     		ldrb	r3, [r2]	@ zero_extendqisi2
 5278 09c4 0133     		adds	r3, r3, #1
 5279 09c6 1370     		strb	r3, [r2]
1042:main.c        ****             Rx_Buffer[4]=0x00;
 5280              		.loc 1 1042 0
 5281 09c8 0023     		movs	r3, #0
 5282 09ca 914A     		ldr	r2, .L459+44
 5283 09cc 1371     		strb	r3, [r2, #4]
1043:main.c        ****             Rx_Buffer2[4]=0x00;
 5284              		.loc 1 1043 0
 5285 09ce 914A     		ldr	r2, .L459+48
 5286 09d0 1371     		strb	r3, [r2, #4]
ARM GAS  C:\Users\JPELEC~1\AppData\Local\Temp\ccEetrge.s 			page 121


 5287              	.L307:
1044:main.c        ****          }
1045:main.c        ****          
1046:main.c        ****          if(Rx_Buffer[4]==0x0e || Rx_Buffer[4]==0x0f){//Tecla Izquierda Oprimida
 5288              		.loc 1 1046 0
 5289 09d2 8F4B     		ldr	r3, .L459+44
 5290 09d4 1B79     		ldrb	r3, [r3, #4]	@ zero_extendqisi2
 5291 09d6 0E3B     		subs	r3, r3, #14
 5292 09d8 DBB2     		uxtb	r3, r3
 5293 09da 012B     		cmp	r3, #1
 5294 09dc 08D8     		bhi	.L293
1047:main.c        ****             Opcion--;
 5295              		.loc 1 1047 0
 5296 09de 844A     		ldr	r2, .L459+12
 5297 09e0 1378     		ldrb	r3, [r2]	@ zero_extendqisi2
 5298 09e2 013B     		subs	r3, r3, #1
 5299 09e4 1370     		strb	r3, [r2]
1048:main.c        ****             Rx_Buffer[4]=0x00;
 5300              		.loc 1 1048 0
 5301 09e6 0023     		movs	r3, #0
 5302 09e8 894A     		ldr	r2, .L459+44
 5303 09ea 1371     		strb	r3, [r2, #4]
1049:main.c        ****             Rx_Buffer2[4]=0x00;
 5304              		.loc 1 1049 0
 5305 09ec 894A     		ldr	r2, .L459+48
 5306 09ee 1371     		strb	r3, [r2, #4]
 5307              	.L293:
1050:main.c        ****          }
1051:main.c        ****                   
1052:main.c        ****       }
1053:main.c        ****    }
1054:main.c        **** //_------------------------------------------------------------------------------------------------
1055:main.c        ****     
1056:main.c        **** //_------------------------------------------------------------------------------------------------
1057:main.c        ****     if(Menu==2){ //Menu de Tiempo de Duraciòn
 5308              		.loc 1 1057 0
 5309 09f0 894B     		ldr	r3, .L459+52
 5310 09f2 1B78     		ldrb	r3, [r3]	@ zero_extendqisi2
 5311 09f4 022B     		cmp	r3, #2
 5312 09f6 40F0B881 		bne	.L308
1058:main.c        ****         dibujo=OFF;
 5313              		.loc 1 1058 0
 5314 09fa 0023     		movs	r3, #0
 5315 09fc 874A     		ldr	r2, .L459+56
 5316 09fe 1380     		strh	r3, [r2]	@ movhi
1059:main.c        ****         imprime=OFF;
 5317              		.loc 1 1059 0
 5318 0a00 874A     		ldr	r2, .L459+60
 5319 0a02 1380     		strh	r3, [r2]	@ movhi
1060:main.c        ****             if(Rx_Buffer[4]==0x0a){//Selecciono Minutos
 5320              		.loc 1 1060 0
 5321 0a04 824B     		ldr	r3, .L459+44
 5322 0a06 1B79     		ldrb	r3, [r3, #4]	@ zero_extendqisi2
 5323 0a08 0A2B     		cmp	r3, #10
 5324 0a0a 05D1     		bne	.L309
1061:main.c        ****                Minutos=OFF;
 5325              		.loc 1 1061 0
ARM GAS  C:\Users\JPELEC~1\AppData\Local\Temp\ccEetrge.s 			page 122


 5326 0a0c 0021     		movs	r1, #0
 5327 0a0e 854A     		ldr	r2, .L459+64
 5328 0a10 1180     		strh	r1, [r2]	@ movhi
1062:main.c        ****                Horas=ON;
 5329              		.loc 1 1062 0
 5330 0a12 0121     		movs	r1, #1
 5331 0a14 844A     		ldr	r2, .L459+68
 5332 0a16 1180     		strh	r1, [r2]	@ movhi
 5333              	.L309:
1063:main.c        ****             }
1064:main.c        ****             
1065:main.c        ****             if(Rx_Buffer[4]==0x0b){//Selecciono Segundos
 5334              		.loc 1 1065 0
 5335 0a18 0B2B     		cmp	r3, #11
 5336 0a1a 05D1     		bne	.L310
1066:main.c        ****                Minutos=ON;
 5337              		.loc 1 1066 0
 5338 0a1c 0121     		movs	r1, #1
 5339 0a1e 814A     		ldr	r2, .L459+64
 5340 0a20 1180     		strh	r1, [r2]	@ movhi
1067:main.c        ****                Horas=OFF;
 5341              		.loc 1 1067 0
 5342 0a22 0021     		movs	r1, #0
 5343 0a24 804A     		ldr	r2, .L459+68
 5344 0a26 1180     		strh	r1, [r2]	@ movhi
 5345              	.L310:
1068:main.c        ****             }           
1069:main.c        ****             
1070:main.c        ****             if(Rx_Buffer[4]==0x11){//Selecciono Regresar
 5346              		.loc 1 1070 0
 5347 0a28 112B     		cmp	r3, #17
 5348 0a2a 55D1     		bne	.L311
1071:main.c        ****                n=0;
 5349              		.loc 1 1071 0
 5350 0a2c 0023     		movs	r3, #0
 5351 0a2e 7F4A     		ldr	r2, .L459+72
 5352 0a30 1370     		strb	r3, [r2]
1072:main.c        ****                conteo=0;
 5353              		.loc 1 1072 0
 5354 0a32 7F4A     		ldr	r2, .L459+76
 5355 0a34 1370     		strb	r3, [r2]
1073:main.c        ****                CyDelay(200);
 5356              		.loc 1 1073 0
 5357 0a36 C820     		movs	r0, #200
 5358 0a38 FFF7FEFF 		bl	CyDelay
 5359              	.LVL448:
1074:main.c        ****                if(Rx_Buffer[4]==0x11){
 5360              		.loc 1 1074 0
 5361 0a3c 744B     		ldr	r3, .L459+44
 5362 0a3e 1B79     		ldrb	r3, [r3, #4]	@ zero_extendqisi2
 5363 0a40 112B     		cmp	r3, #17
 5364 0a42 46D1     		bne	.L312
1075:main.c        ****                   Minutos=OFF;
 5365              		.loc 1 1075 0
 5366 0a44 0023     		movs	r3, #0
 5367 0a46 774A     		ldr	r2, .L459+64
 5368 0a48 1380     		strh	r3, [r2]	@ movhi
ARM GAS  C:\Users\JPELEC~1\AppData\Local\Temp\ccEetrge.s 			page 123


1076:main.c        ****                   Horas=OFF;
 5369              		.loc 1 1076 0
 5370 0a4a 774A     		ldr	r2, .L459+68
 5371 0a4c 1380     		strh	r3, [r2]	@ movhi
1077:main.c        ****                   escribeDisplay2("page Rampas");
 5372              		.loc 1 1077 0
 5373 0a4e 7948     		ldr	r0, .L459+80
 5374 0a50 FFF7FEFF 		bl	escribeDisplay2
 5375              	.LVL449:
1078:main.c        ****                   if(!GuardaEEPROM){
 5376              		.loc 1 1078 0
 5377 0a54 784B     		ldr	r3, .L459+84
 5378 0a56 B3F90030 		ldrsh	r3, [r3]
 5379 0a5a 002B     		cmp	r3, #0
 5380 0a5c 39D1     		bne	.L312
1079:main.c        ****                      EEPROM_WriteByte((int8)Programas[Programa-1].rampas[CicloLibre-1].Horas,103+((
 5381              		.loc 1 1079 0
 5382 0a5e 774E     		ldr	r6, .L459+88
 5383 0a60 3278     		ldrb	r2, [r6]	@ zero_extendqisi2
 5384 0a62 013A     		subs	r2, r2, #1
 5385 0a64 764D     		ldr	r5, .L459+92
 5386 0a66 2B78     		ldrb	r3, [r5]	@ zero_extendqisi2
 5387 0a68 013B     		subs	r3, r3, #1
 5388 0a6a 02EB8200 		add	r0, r2, r2, lsl #2
 5389 0a6e 00EB8000 		add	r0, r0, r0, lsl #2
 5390 0a72 4400     		lsls	r4, r0, #1
 5391 0a74 03EB8301 		add	r1, r3, r3, lsl #2
 5392 0a78 2144     		add	r1, r1, r4
 5393 0a7a 6731     		adds	r1, r1, #103
 5394 0a7c 714C     		ldr	r4, .L459+96
 5395 0a7e 02EB8202 		add	r2, r2, r2, lsl #2
 5396 0a82 9000     		lsls	r0, r2, #2
 5397 0a84 0344     		add	r3, r3, r0
 5398 0a86 04EBC303 		add	r3, r4, r3, lsl #3
 5399 0a8a 89B2     		uxth	r1, r1
 5400 0a8c D878     		ldrb	r0, [r3, #3]	@ zero_extendqisi2
 5401 0a8e FFF7FEFF 		bl	EEPROM_WriteByte
 5402              	.LVL450:
1080:main.c        ****                      CyDelay(10);
 5403              		.loc 1 1080 0
 5404 0a92 0A20     		movs	r0, #10
 5405 0a94 FFF7FEFF 		bl	CyDelay
 5406              	.LVL451:
1081:main.c        ****                      EEPROM_WriteByte((int8)Programas[Programa-1].rampas[CicloLibre-1].Minutos,104+
 5407              		.loc 1 1081 0
 5408 0a98 3378     		ldrb	r3, [r6]	@ zero_extendqisi2
 5409 0a9a 013B     		subs	r3, r3, #1
 5410 0a9c 2A78     		ldrb	r2, [r5]	@ zero_extendqisi2
 5411 0a9e 013A     		subs	r2, r2, #1
 5412 0aa0 03EB8300 		add	r0, r3, r3, lsl #2
 5413 0aa4 00EB8000 		add	r0, r0, r0, lsl #2
 5414 0aa8 4500     		lsls	r5, r0, #1
 5415 0aaa 02EB8201 		add	r1, r2, r2, lsl #2
 5416 0aae 2944     		add	r1, r1, r5
 5417 0ab0 6831     		adds	r1, r1, #104
 5418 0ab2 03EB8303 		add	r3, r3, r3, lsl #2
 5419 0ab6 9800     		lsls	r0, r3, #2
ARM GAS  C:\Users\JPELEC~1\AppData\Local\Temp\ccEetrge.s 			page 124


 5420 0ab8 0244     		add	r2, r2, r0
 5421 0aba 04EBC202 		add	r2, r4, r2, lsl #3
 5422 0abe 89B2     		uxth	r1, r1
 5423 0ac0 1079     		ldrb	r0, [r2, #4]	@ zero_extendqisi2
 5424 0ac2 FFF7FEFF 		bl	EEPROM_WriteByte
 5425              	.LVL452:
1082:main.c        ****                      CyDelay(10);
 5426              		.loc 1 1082 0
 5427 0ac6 0A20     		movs	r0, #10
 5428 0ac8 FFF7FEFF 		bl	CyDelay
 5429              	.LVL453:
1083:main.c        ****                      GuardaEEPROM=ON;
 5430              		.loc 1 1083 0
 5431 0acc 0122     		movs	r2, #1
 5432 0ace 5A4B     		ldr	r3, .L459+84
 5433 0ad0 1A80     		strh	r2, [r3]	@ movhi
 5434              	.L312:
1084:main.c        ****                   }
1085:main.c        ****                }
1086:main.c        ****             escribeDisplay1("page Grafica");
 5435              		.loc 1 1086 0
 5436 0ad2 5D48     		ldr	r0, .L459+100
 5437 0ad4 FFF7FEFF 		bl	escribeDisplay1
 5438              	.LVL454:
 5439              	.L311:
1087:main.c        ****             }
1088:main.c        ****             
1089:main.c        ****             if(Rx_Buffer[4]==0x0d){//Tecla Arriba Oprimida
 5440              		.loc 1 1089 0
 5441 0ad8 4D4B     		ldr	r3, .L459+44
 5442 0ada 1B79     		ldrb	r3, [r3, #4]	@ zero_extendqisi2
 5443 0adc 0D2B     		cmp	r3, #13
 5444 0ade 07D1     		bne	.L313
1090:main.c        ****                 pulsoAumentar=ON;
 5445              		.loc 1 1090 0
 5446 0ae0 0122     		movs	r2, #1
 5447 0ae2 5A4B     		ldr	r3, .L459+104
 5448 0ae4 1A80     		strh	r2, [r3]	@ movhi
1091:main.c        ****                 Rx_Buffer[4]=0x00;  
 5449              		.loc 1 1091 0
 5450 0ae6 0023     		movs	r3, #0
 5451 0ae8 494A     		ldr	r2, .L459+44
 5452 0aea 1371     		strb	r3, [r2, #4]
1092:main.c        ****                 Rx_Buffer2[4]=0x00;            
 5453              		.loc 1 1092 0
 5454 0aec 494A     		ldr	r2, .L459+48
 5455 0aee 1371     		strb	r3, [r2, #4]
 5456              	.L313:
1093:main.c        ****             }
1094:main.c        ****         
1095:main.c        ****             if(Rx_Buffer[4]==0x0e){//Tecla Arriba Suelta
 5457              		.loc 1 1095 0
 5458 0af0 474B     		ldr	r3, .L459+44
 5459 0af2 1B79     		ldrb	r3, [r3, #4]	@ zero_extendqisi2
 5460 0af4 0E2B     		cmp	r3, #14
 5461 0af6 06D1     		bne	.L314
1096:main.c        ****                 pulsoAumentar=OFF;
ARM GAS  C:\Users\JPELEC~1\AppData\Local\Temp\ccEetrge.s 			page 125


 5462              		.loc 1 1096 0
 5463 0af8 0023     		movs	r3, #0
 5464 0afa 544A     		ldr	r2, .L459+104
 5465 0afc 1380     		strh	r3, [r2]	@ movhi
1097:main.c        ****                 Rx_Buffer[4]=0x00;  
 5466              		.loc 1 1097 0
 5467 0afe 444A     		ldr	r2, .L459+44
 5468 0b00 1371     		strb	r3, [r2, #4]
1098:main.c        ****                 Rx_Buffer2[4]=0x00;            
 5469              		.loc 1 1098 0
 5470 0b02 444A     		ldr	r2, .L459+48
 5471 0b04 1371     		strb	r3, [r2, #4]
 5472              	.L314:
1099:main.c        ****             }
1100:main.c        ****             
1101:main.c        ****             if(Rx_Buffer[4]==0x0c){//Tecla Abajo Oprimida
 5473              		.loc 1 1101 0
 5474 0b06 424B     		ldr	r3, .L459+44
 5475 0b08 1B79     		ldrb	r3, [r3, #4]	@ zero_extendqisi2
 5476 0b0a 0C2B     		cmp	r3, #12
 5477 0b0c 07D1     		bne	.L315
1102:main.c        ****                 pulsoDisminuir=ON;
 5478              		.loc 1 1102 0
 5479 0b0e 0122     		movs	r2, #1
 5480 0b10 4F4B     		ldr	r3, .L459+108
 5481 0b12 1A80     		strh	r2, [r3]	@ movhi
1103:main.c        ****                 Rx_Buffer[4]=0x00;
 5482              		.loc 1 1103 0
 5483 0b14 0023     		movs	r3, #0
 5484 0b16 3E4A     		ldr	r2, .L459+44
 5485 0b18 1371     		strb	r3, [r2, #4]
1104:main.c        ****                 Rx_Buffer2[4]=0x00;                        
 5486              		.loc 1 1104 0
 5487 0b1a 3E4A     		ldr	r2, .L459+48
 5488 0b1c 1371     		strb	r3, [r2, #4]
 5489              	.L315:
1105:main.c        ****             }
1106:main.c        ****         
1107:main.c        ****             if(Rx_Buffer[4]==0x10){//Tecla Abajo Suelta
 5490              		.loc 1 1107 0
 5491 0b1e 3C4B     		ldr	r3, .L459+44
 5492 0b20 1B79     		ldrb	r3, [r3, #4]	@ zero_extendqisi2
 5493 0b22 102B     		cmp	r3, #16
 5494 0b24 06D1     		bne	.L316
1108:main.c        ****                 pulsoDisminuir=OFF;
 5495              		.loc 1 1108 0
 5496 0b26 0023     		movs	r3, #0
 5497 0b28 494A     		ldr	r2, .L459+108
 5498 0b2a 1380     		strh	r3, [r2]	@ movhi
1109:main.c        ****                 Rx_Buffer[4]=0x00;
 5499              		.loc 1 1109 0
 5500 0b2c 384A     		ldr	r2, .L459+44
 5501 0b2e 1371     		strb	r3, [r2, #4]
1110:main.c        ****                 Rx_Buffer2[4]=0x00;                        
 5502              		.loc 1 1110 0
 5503 0b30 384A     		ldr	r2, .L459+48
 5504 0b32 1371     		strb	r3, [r2, #4]
ARM GAS  C:\Users\JPELEC~1\AppData\Local\Temp\ccEetrge.s 			page 126


 5505              	.L316:
1111:main.c        ****             }  
1112:main.c        ****             
1113:main.c        ****             
1114:main.c        ****             if(pulsoAumentar){//Tecla arriba Oprimida
 5506              		.loc 1 1114 0
 5507 0b34 454B     		ldr	r3, .L459+104
 5508 0b36 B3F90030 		ldrsh	r3, [r3]
 5509 0b3a 002B     		cmp	r3, #0
 5510 0b3c 39D0     		beq	.L317
1115:main.c        ****                if(Minutos){
 5511              		.loc 1 1115 0
 5512 0b3e 394B     		ldr	r3, .L459+64
 5513 0b40 B3F90030 		ldrsh	r3, [r3]
 5514 0b44 B3B1     		cbz	r3, .L318
1116:main.c        ****                   Programas[Programa-1].rampas[CicloLibre-1].Minutos+=1.0;
 5515              		.loc 1 1116 0
 5516 0b46 3D4B     		ldr	r3, .L459+88
 5517 0b48 1B78     		ldrb	r3, [r3]	@ zero_extendqisi2
 5518 0b4a 013B     		subs	r3, r3, #1
 5519 0b4c 3C4A     		ldr	r2, .L459+92
 5520 0b4e 1278     		ldrb	r2, [r2]	@ zero_extendqisi2
 5521 0b50 013A     		subs	r2, r2, #1
 5522 0b52 3C49     		ldr	r1, .L459+96
 5523 0b54 9D00     		lsls	r5, r3, #2
 5524 0b56 EC18     		adds	r4, r5, r3
 5525 0b58 A000     		lsls	r0, r4, #2
 5526 0b5a 1044     		add	r0, r0, r2
 5527 0b5c 01EBC004 		add	r4, r1, r0, lsl #3
 5528 0b60 2079     		ldrb	r0, [r4, #4]	@ zero_extendqisi2
 5529 0b62 FFF7FEFF 		bl	__aeabi_i2d
 5530              	.LVL455:
 5531 0b66 0022     		movs	r2, #0
 5532 0b68 3A4B     		ldr	r3, .L459+112
 5533 0b6a FFF7FEFF 		bl	__aeabi_dadd
 5534              	.LVL456:
 5535 0b6e FFF7FEFF 		bl	__aeabi_d2uiz
 5536              	.LVL457:
 5537 0b72 2071     		strb	r0, [r4, #4]
 5538              	.L318:
1117:main.c        ****                }
1118:main.c        ****                if(Horas){
 5539              		.loc 1 1118 0
 5540 0b74 2C4B     		ldr	r3, .L459+68
 5541 0b76 B3F90030 		ldrsh	r3, [r3]
 5542 0b7a B3B1     		cbz	r3, .L319
1119:main.c        ****                   Programas[Programa-1].rampas[CicloLibre-1].Horas+=1.0;
 5543              		.loc 1 1119 0
 5544 0b7c 2F4B     		ldr	r3, .L459+88
 5545 0b7e 1B78     		ldrb	r3, [r3]	@ zero_extendqisi2
 5546 0b80 013B     		subs	r3, r3, #1
 5547 0b82 2F4A     		ldr	r2, .L459+92
 5548 0b84 1278     		ldrb	r2, [r2]	@ zero_extendqisi2
 5549 0b86 013A     		subs	r2, r2, #1
 5550 0b88 2E49     		ldr	r1, .L459+96
 5551 0b8a 9D00     		lsls	r5, r3, #2
 5552 0b8c EC18     		adds	r4, r5, r3
ARM GAS  C:\Users\JPELEC~1\AppData\Local\Temp\ccEetrge.s 			page 127


 5553 0b8e A000     		lsls	r0, r4, #2
 5554 0b90 1044     		add	r0, r0, r2
 5555 0b92 01EBC004 		add	r4, r1, r0, lsl #3
 5556 0b96 E078     		ldrb	r0, [r4, #3]	@ zero_extendqisi2
 5557 0b98 FFF7FEFF 		bl	__aeabi_i2d
 5558              	.LVL458:
 5559 0b9c 0022     		movs	r2, #0
 5560 0b9e 2D4B     		ldr	r3, .L459+112
 5561 0ba0 FFF7FEFF 		bl	__aeabi_dadd
 5562              	.LVL459:
 5563 0ba4 FFF7FEFF 		bl	__aeabi_d2uiz
 5564              	.LVL460:
 5565 0ba8 E070     		strb	r0, [r4, #3]
 5566              	.L319:
1120:main.c        ****                }  
1121:main.c        ****                CyDelay(300);
 5567              		.loc 1 1121 0
 5568 0baa 4FF49670 		mov	r0, #300
 5569 0bae FFF7FEFF 		bl	CyDelay
 5570              	.LVL461:
 5571              	.L317:
1122:main.c        ****             }
1123:main.c        ****             
1124:main.c        ****             if(pulsoDisminuir){//Tecla abajo oprimida
 5572              		.loc 1 1124 0
 5573 0bb2 274B     		ldr	r3, .L459+108
 5574 0bb4 B3F90030 		ldrsh	r3, [r3]
 5575 0bb8 002B     		cmp	r3, #0
 5576 0bba 00F08680 		beq	.L320
1125:main.c        ****                if(Minutos && Programas[Programa-1].rampas[CicloLibre-1].Minutos>0){
 5577              		.loc 1 1125 0
 5578 0bbe 194B     		ldr	r3, .L459+64
 5579 0bc0 B3F90030 		ldrsh	r3, [r3]
 5580 0bc4 002B     		cmp	r3, #0
 5581 0bc6 59D0     		beq	.L321
 5582              		.loc 1 1125 0 is_stmt 0 discriminator 1
 5583 0bc8 1C4B     		ldr	r3, .L459+88
 5584 0bca 1B78     		ldrb	r3, [r3]	@ zero_extendqisi2
 5585 0bcc 013B     		subs	r3, r3, #1
 5586 0bce 1C4A     		ldr	r2, .L459+92
 5587 0bd0 1278     		ldrb	r2, [r2]	@ zero_extendqisi2
 5588 0bd2 013A     		subs	r2, r2, #1
 5589 0bd4 03EB8300 		add	r0, r3, r3, lsl #2
 5590 0bd8 8100     		lsls	r1, r0, #2
 5591 0bda 1144     		add	r1, r1, r2
 5592 0bdc 1948     		ldr	r0, .L459+96
 5593 0bde 00EBC101 		add	r1, r0, r1, lsl #3
 5594 0be2 39E0     		b	.L460
 5595              	.L461:
 5596              		.align	2
 5597              	.L459:
 5598 0be4 00000000 		.word	.LANCHOR1
 5599 0be8 00000000 		.word	displayStr
 5600 0bec A8010000 		.word	.LC25
 5601 0bf0 00000000 		.word	Opcion
 5602 0bf4 B4010000 		.word	.LC26
 5603 0bf8 C0010000 		.word	.LC27
ARM GAS  C:\Users\JPELEC~1\AppData\Local\Temp\ccEetrge.s 			page 128


 5604 0bfc CC010000 		.word	.LC28
 5605 0c00 D8010000 		.word	.LC29
 5606 0c04 E4010000 		.word	.LC30
 5607 0c08 00000000 		.word	.LANCHOR2
 5608 0c0c F0010000 		.word	.LC31
 5609 0c10 00000000 		.word	Rx_Buffer
 5610 0c14 00000000 		.word	Rx_Buffer2
 5611 0c18 00000000 		.word	Menu
 5612 0c1c 00000000 		.word	dibujo
 5613 0c20 00000000 		.word	imprime
 5614 0c24 00000000 		.word	Minutos
 5615 0c28 00000000 		.word	Horas
 5616 0c2c 00000000 		.word	n
 5617 0c30 00000000 		.word	conteo
 5618 0c34 9C010000 		.word	.LC24
 5619 0c38 00000000 		.word	GuardaEEPROM
 5620 0c3c 00000000 		.word	Programa
 5621 0c40 00000000 		.word	CicloLibre
 5622 0c44 00000000 		.word	Programas
 5623 0c48 00020000 		.word	.LC32
 5624 0c4c 00000000 		.word	pulsoAumentar
 5625 0c50 00000000 		.word	pulsoDisminuir
 5626 0c54 0000F03F 		.word	1072693248
 5627              	.L460:
 5628 0c58 0879     		ldrb	r0, [r1, #4]	@ zero_extendqisi2
 5629 0c5a 78B1     		cbz	r0, .L321
1126:main.c        ****                   Programas[Programa-1].rampas[CicloLibre-1].Minutos-=1.0;
 5630              		.loc 1 1126 0 is_stmt 1
 5631 0c5c 03EB8303 		add	r3, r3, r3, lsl #2
 5632 0c60 9900     		lsls	r1, r3, #2
 5633 0c62 0A44     		add	r2, r2, r1
 5634 0c64 B64C     		ldr	r4, .L462
 5635 0c66 04EBC204 		add	r4, r4, r2, lsl #3
 5636 0c6a FFF7FEFF 		bl	__aeabi_i2d
 5637              	.LVL462:
 5638 0c6e 0022     		movs	r2, #0
 5639 0c70 B44B     		ldr	r3, .L462+4
 5640 0c72 FFF7FEFF 		bl	__aeabi_dsub
 5641              	.LVL463:
 5642 0c76 FFF7FEFF 		bl	__aeabi_d2uiz
 5643              	.LVL464:
 5644 0c7a 2071     		strb	r0, [r4, #4]
 5645              	.L321:
1127:main.c        ****                }
1128:main.c        ****                if(Horas  && Programas[Programa-1].rampas[CicloLibre-1].Horas>0){
 5646              		.loc 1 1128 0
 5647 0c7c B24B     		ldr	r3, .L462+8
 5648 0c7e B3F90030 		ldrsh	r3, [r3]
 5649 0c82 F3B1     		cbz	r3, .L322
 5650              		.loc 1 1128 0 is_stmt 0 discriminator 1
 5651 0c84 B14B     		ldr	r3, .L462+12
 5652 0c86 1B78     		ldrb	r3, [r3]	@ zero_extendqisi2
 5653 0c88 013B     		subs	r3, r3, #1
 5654 0c8a B14A     		ldr	r2, .L462+16
 5655 0c8c 1278     		ldrb	r2, [r2]	@ zero_extendqisi2
 5656 0c8e 013A     		subs	r2, r2, #1
 5657 0c90 03EB8300 		add	r0, r3, r3, lsl #2
ARM GAS  C:\Users\JPELEC~1\AppData\Local\Temp\ccEetrge.s 			page 129


 5658 0c94 8100     		lsls	r1, r0, #2
 5659 0c96 1144     		add	r1, r1, r2
 5660 0c98 A948     		ldr	r0, .L462
 5661 0c9a 00EBC101 		add	r1, r0, r1, lsl #3
 5662 0c9e C878     		ldrb	r0, [r1, #3]	@ zero_extendqisi2
 5663 0ca0 78B1     		cbz	r0, .L322
1129:main.c        ****                   Programas[Programa-1].rampas[CicloLibre-1].Horas-=1.0;
 5664              		.loc 1 1129 0 is_stmt 1
 5665 0ca2 03EB8303 		add	r3, r3, r3, lsl #2
 5666 0ca6 9900     		lsls	r1, r3, #2
 5667 0ca8 0A44     		add	r2, r2, r1
 5668 0caa A54C     		ldr	r4, .L462
 5669 0cac 04EBC204 		add	r4, r4, r2, lsl #3
 5670 0cb0 FFF7FEFF 		bl	__aeabi_i2d
 5671              	.LVL465:
 5672 0cb4 0022     		movs	r2, #0
 5673 0cb6 A34B     		ldr	r3, .L462+4
 5674 0cb8 FFF7FEFF 		bl	__aeabi_dsub
 5675              	.LVL466:
 5676 0cbc FFF7FEFF 		bl	__aeabi_d2uiz
 5677              	.LVL467:
 5678 0cc0 E070     		strb	r0, [r4, #3]
 5679              	.L322:
1130:main.c        ****                }
1131:main.c        ****                CyDelay(300);
 5680              		.loc 1 1131 0
 5681 0cc2 4FF49670 		mov	r0, #300
 5682 0cc6 FFF7FEFF 		bl	CyDelay
 5683              	.LVL468:
 5684              	.L320:
1132:main.c        ****             }
1133:main.c        ****             
1134:main.c        ****             if(Programas[Programa-1].rampas[CicloLibre-1].Horas>99)Programas[Programa-1].rampas[Cic
 5685              		.loc 1 1134 0
 5686 0cca A04B     		ldr	r3, .L462+12
 5687 0ccc 1B78     		ldrb	r3, [r3]	@ zero_extendqisi2
 5688 0cce 013B     		subs	r3, r3, #1
 5689 0cd0 9F4A     		ldr	r2, .L462+16
 5690 0cd2 1278     		ldrb	r2, [r2]	@ zero_extendqisi2
 5691 0cd4 013A     		subs	r2, r2, #1
 5692 0cd6 03EB8300 		add	r0, r3, r3, lsl #2
 5693 0cda 8100     		lsls	r1, r0, #2
 5694 0cdc 1144     		add	r1, r1, r2
 5695 0cde 9848     		ldr	r0, .L462
 5696 0ce0 00EBC101 		add	r1, r0, r1, lsl #3
 5697 0ce4 C978     		ldrb	r1, [r1, #3]	@ zero_extendqisi2
 5698 0ce6 6329     		cmp	r1, #99
 5699 0ce8 08D9     		bls	.L323
 5700              		.loc 1 1134 0 is_stmt 0 discriminator 1
 5701 0cea 03EB8300 		add	r0, r3, r3, lsl #2
 5702 0cee 8100     		lsls	r1, r0, #2
 5703 0cf0 1144     		add	r1, r1, r2
 5704 0cf2 9348     		ldr	r0, .L462
 5705 0cf4 00EBC101 		add	r1, r0, r1, lsl #3
 5706 0cf8 0120     		movs	r0, #1
 5707 0cfa C870     		strb	r0, [r1, #3]
 5708              	.L323:
ARM GAS  C:\Users\JPELEC~1\AppData\Local\Temp\ccEetrge.s 			page 130


1135:main.c        ****             if(Programas[Programa-1].rampas[CicloLibre-1].Minutos>59)Programas[Programa-1].rampas[C
 5709              		.loc 1 1135 0 is_stmt 1
 5710 0cfc 03EB8300 		add	r0, r3, r3, lsl #2
 5711 0d00 8100     		lsls	r1, r0, #2
 5712 0d02 1144     		add	r1, r1, r2
 5713 0d04 8E48     		ldr	r0, .L462
 5714 0d06 00EBC101 		add	r1, r0, r1, lsl #3
 5715 0d0a 0979     		ldrb	r1, [r1, #4]	@ zero_extendqisi2
 5716 0d0c 3B29     		cmp	r1, #59
 5717 0d0e 08D9     		bls	.L324
 5718              		.loc 1 1135 0 is_stmt 0 discriminator 1
 5719 0d10 03EB8300 		add	r0, r3, r3, lsl #2
 5720 0d14 8100     		lsls	r1, r0, #2
 5721 0d16 1144     		add	r1, r1, r2
 5722 0d18 8948     		ldr	r0, .L462
 5723 0d1a 00EBC101 		add	r1, r0, r1, lsl #3
 5724 0d1e 0020     		movs	r0, #0
 5725 0d20 0871     		strb	r0, [r1, #4]
 5726              	.L324:
1136:main.c        ****                
1137:main.c        ****             sprintf(displayStr,"tminsec.txt=\"%02u\"",Programas[Programa-1].rampas[CicloLibre-1].Ho
 5727              		.loc 1 1137 0 is_stmt 1
 5728 0d22 874C     		ldr	r4, .L462
 5729 0d24 03EB8303 		add	r3, r3, r3, lsl #2
 5730 0d28 9900     		lsls	r1, r3, #2
 5731 0d2a 0A44     		add	r2, r2, r1
 5732 0d2c 04EBC202 		add	r2, r4, r2, lsl #3
 5733 0d30 884D     		ldr	r5, .L462+20
 5734 0d32 D278     		ldrb	r2, [r2, #3]	@ zero_extendqisi2
 5735 0d34 8849     		ldr	r1, .L462+24
 5736 0d36 2846     		mov	r0, r5
 5737 0d38 FFF7FEFF 		bl	sprintf
 5738              	.LVL469:
1138:main.c        ****             escribeDisplay2(displayStr);
 5739              		.loc 1 1138 0
 5740 0d3c 2846     		mov	r0, r5
 5741 0d3e FFF7FEFF 		bl	escribeDisplay2
 5742              	.LVL470:
1139:main.c        ****             sprintf(displayStr,"tsecsec.txt=\"%02u\"",Programas[Programa-1].rampas[CicloLibre-1].Mi
 5743              		.loc 1 1139 0
 5744 0d42 824B     		ldr	r3, .L462+12
 5745 0d44 1B78     		ldrb	r3, [r3]	@ zero_extendqisi2
 5746 0d46 013B     		subs	r3, r3, #1
 5747 0d48 814A     		ldr	r2, .L462+16
 5748 0d4a 1278     		ldrb	r2, [r2]	@ zero_extendqisi2
 5749 0d4c 013A     		subs	r2, r2, #1
 5750 0d4e 03EB8303 		add	r3, r3, r3, lsl #2
 5751 0d52 9900     		lsls	r1, r3, #2
 5752 0d54 8B18     		adds	r3, r1, r2
 5753 0d56 04EBC304 		add	r4, r4, r3, lsl #3
 5754 0d5a 2279     		ldrb	r2, [r4, #4]	@ zero_extendqisi2
 5755 0d5c 7F49     		ldr	r1, .L462+28
 5756 0d5e 2846     		mov	r0, r5
 5757 0d60 FFF7FEFF 		bl	sprintf
 5758              	.LVL471:
1140:main.c        ****             escribeDisplay2(displayStr);
 5759              		.loc 1 1140 0
ARM GAS  C:\Users\JPELEC~1\AppData\Local\Temp\ccEetrge.s 			page 131


 5760 0d64 2846     		mov	r0, r5
 5761 0d66 FFF7FEFF 		bl	escribeDisplay2
 5762              	.LVL472:
 5763              	.L308:
1141:main.c        ****          
1142:main.c        ****     }
1143:main.c        **** //_------------------------------------------------------------------------------------------------
1144:main.c        **** 
1145:main.c        **** //_------------------------------------------------------------------------------------------------
1146:main.c        ****     if(Menu==3){ //Menu de Temperatura
 5764              		.loc 1 1146 0
 5765 0d6a 7D4B     		ldr	r3, .L462+32
 5766 0d6c 1B78     		ldrb	r3, [r3]	@ zero_extendqisi2
 5767 0d6e 032B     		cmp	r3, #3
 5768 0d70 40F0DF81 		bne	.L325
1147:main.c        ****          dibujo=OFF;
 5769              		.loc 1 1147 0
 5770 0d74 0023     		movs	r3, #0
 5771 0d76 7B4A     		ldr	r2, .L462+36
 5772 0d78 1380     		strh	r3, [r2]	@ movhi
1148:main.c        ****         imprime=OFF;
 5773              		.loc 1 1148 0
 5774 0d7a 7B4A     		ldr	r2, .L462+40
 5775 0d7c 1380     		strh	r3, [r2]	@ movhi
1149:main.c        ****          if(Programas[Programa-1].rampas[CicloLibre-1].Temperatura<10)
 5776              		.loc 1 1149 0
 5777 0d7e 734B     		ldr	r3, .L462+12
 5778 0d80 1B78     		ldrb	r3, [r3]	@ zero_extendqisi2
 5779 0d82 013B     		subs	r3, r3, #1
 5780 0d84 724A     		ldr	r2, .L462+16
 5781 0d86 1278     		ldrb	r2, [r2]	@ zero_extendqisi2
 5782 0d88 013A     		subs	r2, r2, #1
 5783 0d8a 03EB8300 		add	r0, r3, r3, lsl #2
 5784 0d8e 8100     		lsls	r1, r0, #2
 5785 0d90 1144     		add	r1, r1, r2
 5786 0d92 6B48     		ldr	r0, .L462
 5787 0d94 00EBC101 		add	r1, r0, r1, lsl #3
 5788 0d98 C988     		ldrh	r1, [r1, #6]
 5789 0d9a 0929     		cmp	r1, #9
 5790 0d9c 09D8     		bhi	.L326
1150:main.c        ****             Programas[Programa-1].rampas[CicloLibre-1].Temperatura=1200;
 5791              		.loc 1 1150 0
 5792 0d9e 03EB8300 		add	r0, r3, r3, lsl #2
 5793 0da2 8100     		lsls	r1, r0, #2
 5794 0da4 1144     		add	r1, r1, r2
 5795 0da6 6648     		ldr	r0, .L462
 5796 0da8 00EBC101 		add	r1, r0, r1, lsl #3
 5797 0dac 4FF49660 		mov	r0, #1200
 5798 0db0 C880     		strh	r0, [r1, #6]	@ movhi
 5799              	.L326:
1151:main.c        ****          if(Programas[Programa-1].rampas[CicloLibre-1].Temperatura>1200)
 5800              		.loc 1 1151 0
 5801 0db2 03EB8300 		add	r0, r3, r3, lsl #2
 5802 0db6 8100     		lsls	r1, r0, #2
 5803 0db8 1144     		add	r1, r1, r2
 5804 0dba 6148     		ldr	r0, .L462
 5805 0dbc 00EBC101 		add	r1, r0, r1, lsl #3
ARM GAS  C:\Users\JPELEC~1\AppData\Local\Temp\ccEetrge.s 			page 132


 5806 0dc0 C988     		ldrh	r1, [r1, #6]
 5807 0dc2 B1F5966F 		cmp	r1, #1200
 5808 0dc6 07D9     		bls	.L327
1152:main.c        ****             Programas[Programa-1].rampas[CicloLibre-1].Temperatura=10;
 5809              		.loc 1 1152 0
 5810 0dc8 03EB8303 		add	r3, r3, r3, lsl #2
 5811 0dcc 9900     		lsls	r1, r3, #2
 5812 0dce 0A44     		add	r2, r2, r1
 5813 0dd0 00EBC202 		add	r2, r0, r2, lsl #3
 5814 0dd4 0A23     		movs	r3, #10
 5815 0dd6 D380     		strh	r3, [r2, #6]	@ movhi
 5816              	.L327:
1153:main.c        ****          
1154:main.c        ****          if(Rx_Buffer[4]==0x0d){//Tecla Arriba Oprimida
 5817              		.loc 1 1154 0
 5818 0dd8 644B     		ldr	r3, .L462+44
 5819 0dda 1B79     		ldrb	r3, [r3, #4]	@ zero_extendqisi2
 5820 0ddc 0D2B     		cmp	r3, #13
 5821 0dde 07D1     		bne	.L328
1155:main.c        ****            pulsoAumentar=ON;
 5822              		.loc 1 1155 0
 5823 0de0 0122     		movs	r2, #1
 5824 0de2 634B     		ldr	r3, .L462+48
 5825 0de4 1A80     		strh	r2, [r3]	@ movhi
1156:main.c        ****            Rx_Buffer[4]=0x00;  
 5826              		.loc 1 1156 0
 5827 0de6 0023     		movs	r3, #0
 5828 0de8 604A     		ldr	r2, .L462+44
 5829 0dea 1371     		strb	r3, [r2, #4]
1157:main.c        ****            Rx_Buffer2[4]=0x00;            
 5830              		.loc 1 1157 0
 5831 0dec 614A     		ldr	r2, .L462+52
 5832 0dee 1371     		strb	r3, [r2, #4]
 5833              	.L328:
1158:main.c        ****          }
1159:main.c        ****         
1160:main.c        ****          if(Rx_Buffer[4]==0x0e){//Tecla Arriba Suelta
 5834              		.loc 1 1160 0
 5835 0df0 5E4B     		ldr	r3, .L462+44
 5836 0df2 1B79     		ldrb	r3, [r3, #4]	@ zero_extendqisi2
 5837 0df4 0E2B     		cmp	r3, #14
 5838 0df6 06D1     		bne	.L329
1161:main.c        ****             pulsoAumentar=OFF;
 5839              		.loc 1 1161 0
 5840 0df8 0023     		movs	r3, #0
 5841 0dfa 5D4A     		ldr	r2, .L462+48
 5842 0dfc 1380     		strh	r3, [r2]	@ movhi
1162:main.c        ****             Rx_Buffer[4]=0x00;  
 5843              		.loc 1 1162 0
 5844 0dfe 5B4A     		ldr	r2, .L462+44
 5845 0e00 1371     		strb	r3, [r2, #4]
1163:main.c        ****             Rx_Buffer2[4]=0x00;            
 5846              		.loc 1 1163 0
 5847 0e02 5C4A     		ldr	r2, .L462+52
 5848 0e04 1371     		strb	r3, [r2, #4]
 5849              	.L329:
1164:main.c        ****          }
ARM GAS  C:\Users\JPELEC~1\AppData\Local\Temp\ccEetrge.s 			page 133


1165:main.c        ****         
1166:main.c        ****          if(Rx_Buffer[4]==0x0c){//Tecla Abajo Oprimida
 5850              		.loc 1 1166 0
 5851 0e06 594B     		ldr	r3, .L462+44
 5852 0e08 1B79     		ldrb	r3, [r3, #4]	@ zero_extendqisi2
 5853 0e0a 0C2B     		cmp	r3, #12
 5854 0e0c 07D1     		bne	.L330
1167:main.c        ****            pulsoDisminuir=ON;
 5855              		.loc 1 1167 0
 5856 0e0e 0122     		movs	r2, #1
 5857 0e10 594B     		ldr	r3, .L462+56
 5858 0e12 1A80     		strh	r2, [r3]	@ movhi
1168:main.c        ****            Rx_Buffer[4]=0x00;
 5859              		.loc 1 1168 0
 5860 0e14 0023     		movs	r3, #0
 5861 0e16 554A     		ldr	r2, .L462+44
 5862 0e18 1371     		strb	r3, [r2, #4]
1169:main.c        ****            Rx_Buffer2[4]=0x00;                        
 5863              		.loc 1 1169 0
 5864 0e1a 564A     		ldr	r2, .L462+52
 5865 0e1c 1371     		strb	r3, [r2, #4]
 5866              	.L330:
1170:main.c        ****          }
1171:main.c        ****         
1172:main.c        ****          if(Rx_Buffer[4]==0x0b){//Tecla Abajo Oprimida
 5867              		.loc 1 1172 0
 5868 0e1e 534B     		ldr	r3, .L462+44
 5869 0e20 1B79     		ldrb	r3, [r3, #4]	@ zero_extendqisi2
 5870 0e22 0B2B     		cmp	r3, #11
 5871 0e24 06D1     		bne	.L331
1173:main.c        ****             pulsoDisminuir=OFF;
 5872              		.loc 1 1173 0
 5873 0e26 0023     		movs	r3, #0
 5874 0e28 534A     		ldr	r2, .L462+56
 5875 0e2a 1380     		strh	r3, [r2]	@ movhi
1174:main.c        ****             Rx_Buffer[4]=0x00;
 5876              		.loc 1 1174 0
 5877 0e2c 4F4A     		ldr	r2, .L462+44
 5878 0e2e 1371     		strb	r3, [r2, #4]
1175:main.c        ****             Rx_Buffer2[4]=0x00;                        
 5879              		.loc 1 1175 0
 5880 0e30 504A     		ldr	r2, .L462+52
 5881 0e32 1371     		strb	r3, [r2, #4]
 5882              	.L331:
1176:main.c        ****          }   
1177:main.c        ****             
1178:main.c        ****          if(Rx_Buffer[4]==0x11){//Selecciono Regresar
 5883              		.loc 1 1178 0
 5884 0e34 4D4B     		ldr	r3, .L462+44
 5885 0e36 1B79     		ldrb	r3, [r3, #4]	@ zero_extendqisi2
 5886 0e38 112B     		cmp	r3, #17
 5887 0e3a 51D1     		bne	.L332
1179:main.c        ****             n=0;
 5888              		.loc 1 1179 0
 5889 0e3c 0023     		movs	r3, #0
 5890 0e3e 4F4A     		ldr	r2, .L462+60
 5891 0e40 1370     		strb	r3, [r2]
ARM GAS  C:\Users\JPELEC~1\AppData\Local\Temp\ccEetrge.s 			page 134


1180:main.c        ****             conteo=0;
 5892              		.loc 1 1180 0
 5893 0e42 4F4A     		ldr	r2, .L462+64
 5894 0e44 1370     		strb	r3, [r2]
1181:main.c        ****             Horas=OFF;
 5895              		.loc 1 1181 0
 5896 0e46 404A     		ldr	r2, .L462+8
 5897 0e48 1380     		strh	r3, [r2]	@ movhi
1182:main.c        ****             Minutos=OFF;
 5898              		.loc 1 1182 0
 5899 0e4a 4E4A     		ldr	r2, .L462+68
 5900 0e4c 1380     		strh	r3, [r2]	@ movhi
1183:main.c        ****             escribeDisplay2("page Rampas");
 5901              		.loc 1 1183 0
 5902 0e4e 4E48     		ldr	r0, .L462+72
 5903 0e50 FFF7FEFF 		bl	escribeDisplay2
 5904              	.LVL473:
1184:main.c        ****             if(!GuardaEEPROM){
 5905              		.loc 1 1184 0
 5906 0e54 4D4B     		ldr	r3, .L462+76
 5907 0e56 B3F90030 		ldrsh	r3, [r3]
 5908 0e5a 002B     		cmp	r3, #0
 5909 0e5c 3DD1     		bne	.L333
1185:main.c        ****                EEPROM_WriteByte((int8)Programas[Programa-1].rampas[CicloLibre-1].Temperatura,100+((
 5910              		.loc 1 1185 0
 5911 0e5e 3B4D     		ldr	r5, .L462+12
 5912 0e60 2B78     		ldrb	r3, [r5]	@ zero_extendqisi2
 5913 0e62 013B     		subs	r3, r3, #1
 5914 0e64 3A4E     		ldr	r6, .L462+16
 5915 0e66 3278     		ldrb	r2, [r6]	@ zero_extendqisi2
 5916 0e68 013A     		subs	r2, r2, #1
 5917 0e6a 354C     		ldr	r4, .L462
 5918 0e6c 03EB8300 		add	r0, r3, r3, lsl #2
 5919 0e70 8100     		lsls	r1, r0, #2
 5920 0e72 1144     		add	r1, r1, r2
 5921 0e74 04EBC100 		add	r0, r4, r1, lsl #3
 5922 0e78 03EB8303 		add	r3, r3, r3, lsl #2
 5923 0e7c 03EB8303 		add	r3, r3, r3, lsl #2
 5924 0e80 5900     		lsls	r1, r3, #1
 5925 0e82 02EB8202 		add	r2, r2, r2, lsl #2
 5926 0e86 1144     		add	r1, r1, r2
 5927 0e88 6431     		adds	r1, r1, #100
 5928 0e8a 89B2     		uxth	r1, r1
 5929 0e8c 8079     		ldrb	r0, [r0, #6]	@ zero_extendqisi2
 5930 0e8e FFF7FEFF 		bl	EEPROM_WriteByte
 5931              	.LVL474:
1186:main.c        ****                EEPROM_WriteByte(convert8(Programas[Programa-1].rampas[CicloLibre-1].Temperatura,1),
 5932              		.loc 1 1186 0
 5933 0e92 2B78     		ldrb	r3, [r5]	@ zero_extendqisi2
 5934 0e94 013B     		subs	r3, r3, #1
 5935 0e96 3278     		ldrb	r2, [r6]	@ zero_extendqisi2
 5936 0e98 013A     		subs	r2, r2, #1
 5937 0e9a 03EB8303 		add	r3, r3, r3, lsl #2
 5938 0e9e 9900     		lsls	r1, r3, #2
 5939 0ea0 8B18     		adds	r3, r1, r2
 5940 0ea2 04EBC303 		add	r3, r4, r3, lsl #3
 5941 0ea6 0121     		movs	r1, #1
ARM GAS  C:\Users\JPELEC~1\AppData\Local\Temp\ccEetrge.s 			page 135


 5942 0ea8 D888     		ldrh	r0, [r3, #6]
 5943 0eaa FFF7FEFF 		bl	convert8
 5944              	.LVL475:
 5945 0eae 2A78     		ldrb	r2, [r5]	@ zero_extendqisi2
 5946 0eb0 013A     		subs	r2, r2, #1
 5947 0eb2 3378     		ldrb	r3, [r6]	@ zero_extendqisi2
 5948 0eb4 013B     		subs	r3, r3, #1
 5949 0eb6 02EB8202 		add	r2, r2, r2, lsl #2
 5950 0eba 02EB8202 		add	r2, r2, r2, lsl #2
 5951 0ebe 5100     		lsls	r1, r2, #1
 5952 0ec0 03EB8303 		add	r3, r3, r3, lsl #2
 5953 0ec4 1944     		add	r1, r1, r3
 5954 0ec6 6531     		adds	r1, r1, #101
 5955 0ec8 89B2     		uxth	r1, r1
 5956 0eca FFF7FEFF 		bl	EEPROM_WriteByte
 5957              	.LVL476:
1187:main.c        ****                CyDelay(10);
 5958              		.loc 1 1187 0
 5959 0ece 0A20     		movs	r0, #10
 5960 0ed0 FFF7FEFF 		bl	CyDelay
 5961              	.LVL477:
1188:main.c        ****                GuardaEEPROM=ON;
 5962              		.loc 1 1188 0
 5963 0ed4 0122     		movs	r2, #1
 5964 0ed6 2D4B     		ldr	r3, .L462+76
 5965 0ed8 1A80     		strh	r2, [r3]	@ movhi
 5966              	.L333:
1189:main.c        ****             }
1190:main.c        ****             escribeDisplay1("page Grafica");
 5967              		.loc 1 1190 0
 5968 0eda 2D48     		ldr	r0, .L462+80
 5969 0edc FFF7FEFF 		bl	escribeDisplay1
 5970              	.LVL478:
 5971              	.L332:
1191:main.c        ****          }
1192:main.c        ****         
1193:main.c        ****         if(Rx_Buffer[4]==0x20){//Selecciono x1
 5972              		.loc 1 1193 0
 5973 0ee0 224B     		ldr	r3, .L462+44
 5974 0ee2 1B79     		ldrb	r3, [r3, #4]	@ zero_extendqisi2
 5975 0ee4 202B     		cmp	r3, #32
 5976 0ee6 14D1     		bne	.L334
1194:main.c        ****             x1=ON;
 5977              		.loc 1 1194 0
 5978 0ee8 0122     		movs	r2, #1
 5979 0eea 2A4B     		ldr	r3, .L462+84
 5980 0eec 1A80     		strh	r2, [r3]	@ movhi
1195:main.c        ****             x10=OFF;
 5981              		.loc 1 1195 0
 5982 0eee 0024     		movs	r4, #0
 5983 0ef0 294B     		ldr	r3, .L462+88
 5984 0ef2 1C80     		strh	r4, [r3]	@ movhi
1196:main.c        ****             x100=OFF;
 5985              		.loc 1 1196 0
 5986 0ef4 294B     		ldr	r3, .L462+92
 5987 0ef6 1C80     		strh	r4, [r3]	@ movhi
1197:main.c        ****             escribeDisplay2("c0.val=1");
ARM GAS  C:\Users\JPELEC~1\AppData\Local\Temp\ccEetrge.s 			page 136


 5988              		.loc 1 1197 0
 5989 0ef8 2948     		ldr	r0, .L462+96
 5990 0efa FFF7FEFF 		bl	escribeDisplay2
 5991              	.LVL479:
1198:main.c        ****             escribeDisplay2("c1.val=0");
 5992              		.loc 1 1198 0
 5993 0efe 2948     		ldr	r0, .L462+100
 5994 0f00 FFF7FEFF 		bl	escribeDisplay2
 5995              	.LVL480:
1199:main.c        ****             escribeDisplay2("c2.val=0");
 5996              		.loc 1 1199 0
 5997 0f04 2848     		ldr	r0, .L462+104
 5998 0f06 FFF7FEFF 		bl	escribeDisplay2
 5999              	.LVL481:
1200:main.c        ****             Rx_Buffer[4]=0x00;  
 6000              		.loc 1 1200 0
 6001 0f0a 184B     		ldr	r3, .L462+44
 6002 0f0c 1C71     		strb	r4, [r3, #4]
1201:main.c        ****             Rx_Buffer2[4]=0x00;     
 6003              		.loc 1 1201 0
 6004 0f0e 194B     		ldr	r3, .L462+52
 6005 0f10 1C71     		strb	r4, [r3, #4]
 6006              	.L334:
1202:main.c        ****         }
1203:main.c        ****         
1204:main.c        ****         if(Rx_Buffer[4]==0x21){//Selecciono x10
 6007              		.loc 1 1204 0
 6008 0f12 164B     		ldr	r3, .L462+44
 6009 0f14 1B79     		ldrb	r3, [r3, #4]	@ zero_extendqisi2
 6010 0f16 212B     		cmp	r3, #33
 6011 0f18 50D1     		bne	.L335
1205:main.c        ****             x1=OFF;
 6012              		.loc 1 1205 0
 6013 0f1a 0024     		movs	r4, #0
 6014 0f1c 1D4B     		ldr	r3, .L462+84
 6015 0f1e 1C80     		strh	r4, [r3]	@ movhi
1206:main.c        ****             x10=ON;
 6016              		.loc 1 1206 0
 6017 0f20 0122     		movs	r2, #1
 6018 0f22 1D4B     		ldr	r3, .L462+88
 6019 0f24 1A80     		strh	r2, [r3]	@ movhi
1207:main.c        ****             x100=OFF;
 6020              		.loc 1 1207 0
 6021 0f26 1D4B     		ldr	r3, .L462+92
 6022 0f28 1C80     		strh	r4, [r3]	@ movhi
1208:main.c        ****             escribeDisplay2("c0.val=0");
 6023              		.loc 1 1208 0
 6024 0f2a 2048     		ldr	r0, .L462+108
 6025 0f2c FFF7FEFF 		bl	escribeDisplay2
 6026              	.LVL482:
1209:main.c        ****             escribeDisplay2("c1.val=1");
 6027              		.loc 1 1209 0
 6028 0f30 1F48     		ldr	r0, .L462+112
 6029 0f32 FFF7FEFF 		bl	escribeDisplay2
 6030              	.LVL483:
1210:main.c        ****             escribeDisplay2("c2.val=0");
 6031              		.loc 1 1210 0
ARM GAS  C:\Users\JPELEC~1\AppData\Local\Temp\ccEetrge.s 			page 137


 6032 0f36 1C48     		ldr	r0, .L462+104
 6033 0f38 FFF7FEFF 		bl	escribeDisplay2
 6034              	.LVL484:
 6035 0f3c 3AE0     		b	.L463
 6036              	.L464:
 6037 0f3e 00BF     		.align	2
 6038              	.L462:
 6039 0f40 00000000 		.word	Programas
 6040 0f44 0000F03F 		.word	1072693248
 6041 0f48 00000000 		.word	Horas
 6042 0f4c 00000000 		.word	Programa
 6043 0f50 00000000 		.word	CicloLibre
 6044 0f54 00000000 		.word	displayStr
 6045 0f58 10020000 		.word	.LC33
 6046 0f5c 24020000 		.word	.LC34
 6047 0f60 00000000 		.word	Menu
 6048 0f64 00000000 		.word	dibujo
 6049 0f68 00000000 		.word	imprime
 6050 0f6c 00000000 		.word	Rx_Buffer
 6051 0f70 00000000 		.word	pulsoAumentar
 6052 0f74 00000000 		.word	Rx_Buffer2
 6053 0f78 00000000 		.word	pulsoDisminuir
 6054 0f7c 00000000 		.word	n
 6055 0f80 00000000 		.word	conteo
 6056 0f84 00000000 		.word	Minutos
 6057 0f88 9C010000 		.word	.LC24
 6058 0f8c 00000000 		.word	GuardaEEPROM
 6059 0f90 00020000 		.word	.LC32
 6060 0f94 00000000 		.word	x1
 6061 0f98 00000000 		.word	x10
 6062 0f9c 00000000 		.word	x100
 6063 0fa0 38020000 		.word	.LC35
 6064 0fa4 44020000 		.word	.LC36
 6065 0fa8 50020000 		.word	.LC37
 6066 0fac 5C020000 		.word	.LC38
 6067 0fb0 68020000 		.word	.LC39
 6068              	.L463:
1211:main.c        ****             Rx_Buffer[4]=0x00;  
 6069              		.loc 1 1211 0
 6070 0fb4 A14B     		ldr	r3, .L465
 6071 0fb6 1C71     		strb	r4, [r3, #4]
1212:main.c        ****             Rx_Buffer2[4]=0x00;     
 6072              		.loc 1 1212 0
 6073 0fb8 A14B     		ldr	r3, .L465+4
 6074 0fba 1C71     		strb	r4, [r3, #4]
 6075              	.L335:
1213:main.c        ****         }
1214:main.c        ****         
1215:main.c        ****         if(Rx_Buffer[4]==0x22){//Selecciono x100
 6076              		.loc 1 1215 0
 6077 0fbc 9F4B     		ldr	r3, .L465
 6078 0fbe 1B79     		ldrb	r3, [r3, #4]	@ zero_extendqisi2
 6079 0fc0 222B     		cmp	r3, #34
 6080 0fc2 14D1     		bne	.L336
1216:main.c        ****             x1=OFF;
 6081              		.loc 1 1216 0
 6082 0fc4 0024     		movs	r4, #0
ARM GAS  C:\Users\JPELEC~1\AppData\Local\Temp\ccEetrge.s 			page 138


 6083 0fc6 9F4B     		ldr	r3, .L465+8
 6084 0fc8 1C80     		strh	r4, [r3]	@ movhi
1217:main.c        ****             x10=OFF;
 6085              		.loc 1 1217 0
 6086 0fca 9F4B     		ldr	r3, .L465+12
 6087 0fcc 1C80     		strh	r4, [r3]	@ movhi
1218:main.c        ****             x100=ON;
 6088              		.loc 1 1218 0
 6089 0fce 0122     		movs	r2, #1
 6090 0fd0 9E4B     		ldr	r3, .L465+16
 6091 0fd2 1A80     		strh	r2, [r3]	@ movhi
1219:main.c        ****             escribeDisplay2("c0.val=0");
 6092              		.loc 1 1219 0
 6093 0fd4 9E48     		ldr	r0, .L465+20
 6094 0fd6 FFF7FEFF 		bl	escribeDisplay2
 6095              	.LVL485:
1220:main.c        ****             escribeDisplay2("c1.val=0");
 6096              		.loc 1 1220 0
 6097 0fda 9E48     		ldr	r0, .L465+24
 6098 0fdc FFF7FEFF 		bl	escribeDisplay2
 6099              	.LVL486:
1221:main.c        ****             escribeDisplay2("c2.val=1");
 6100              		.loc 1 1221 0
 6101 0fe0 9D48     		ldr	r0, .L465+28
 6102 0fe2 FFF7FEFF 		bl	escribeDisplay2
 6103              	.LVL487:
1222:main.c        ****             Rx_Buffer[4]=0x00;  
 6104              		.loc 1 1222 0
 6105 0fe6 954B     		ldr	r3, .L465
 6106 0fe8 1C71     		strb	r4, [r3, #4]
1223:main.c        ****             Rx_Buffer2[4]=0x00;     
 6107              		.loc 1 1223 0
 6108 0fea 954B     		ldr	r3, .L465+4
 6109 0fec 1C71     		strb	r4, [r3, #4]
 6110              	.L336:
1224:main.c        ****         }
1225:main.c        ****         if(pulsoAumentar){
 6111              		.loc 1 1225 0
 6112 0fee 9B4B     		ldr	r3, .L465+32
 6113 0ff0 B3F90030 		ldrsh	r3, [r3]
 6114 0ff4 002B     		cmp	r3, #0
 6115 0ff6 40D0     		beq	.L337
1226:main.c        ****             if(x1)
 6116              		.loc 1 1226 0
 6117 0ff8 924B     		ldr	r3, .L465+8
 6118 0ffa B3F90030 		ldrsh	r3, [r3]
 6119 0ffe 83B1     		cbz	r3, .L338
1227:main.c        ****                 Programas[Programa-1].rampas[CicloLibre-1].Temperatura+=1;    
 6120              		.loc 1 1227 0
 6121 1000 974B     		ldr	r3, .L465+36
 6122 1002 1B78     		ldrb	r3, [r3]	@ zero_extendqisi2
 6123 1004 013B     		subs	r3, r3, #1
 6124 1006 974A     		ldr	r2, .L465+40
 6125 1008 1178     		ldrb	r1, [r2]	@ zero_extendqisi2
 6126 100a 0139     		subs	r1, r1, #1
 6127 100c 9648     		ldr	r0, .L465+44
 6128 100e 9C00     		lsls	r4, r3, #2
ARM GAS  C:\Users\JPELEC~1\AppData\Local\Temp\ccEetrge.s 			page 139


 6129 1010 E518     		adds	r5, r4, r3
 6130 1012 AA00     		lsls	r2, r5, #2
 6131 1014 0A44     		add	r2, r2, r1
 6132 1016 00EBC202 		add	r2, r0, r2, lsl #3
 6133 101a D388     		ldrh	r3, [r2, #6]
 6134 101c 0133     		adds	r3, r3, #1
 6135 101e D380     		strh	r3, [r2, #6]	@ movhi
 6136 1020 28E0     		b	.L339
 6137              	.L338:
1228:main.c        ****             else if(x10)    
 6138              		.loc 1 1228 0
 6139 1022 894B     		ldr	r3, .L465+12
 6140 1024 B3F90030 		ldrsh	r3, [r3]
 6141 1028 83B1     		cbz	r3, .L340
1229:main.c        ****                 Programas[Programa-1].rampas[CicloLibre-1].Temperatura+=10;    
 6142              		.loc 1 1229 0
 6143 102a 8D4B     		ldr	r3, .L465+36
 6144 102c 1B78     		ldrb	r3, [r3]	@ zero_extendqisi2
 6145 102e 013B     		subs	r3, r3, #1
 6146 1030 8C4A     		ldr	r2, .L465+40
 6147 1032 1178     		ldrb	r1, [r2]	@ zero_extendqisi2
 6148 1034 0139     		subs	r1, r1, #1
 6149 1036 8C48     		ldr	r0, .L465+44
 6150 1038 9C00     		lsls	r4, r3, #2
 6151 103a E518     		adds	r5, r4, r3
 6152 103c AA00     		lsls	r2, r5, #2
 6153 103e 0A44     		add	r2, r2, r1
 6154 1040 00EBC202 		add	r2, r0, r2, lsl #3
 6155 1044 D388     		ldrh	r3, [r2, #6]
 6156 1046 0A33     		adds	r3, r3, #10
 6157 1048 D380     		strh	r3, [r2, #6]	@ movhi
 6158 104a 13E0     		b	.L339
 6159              	.L340:
1230:main.c        ****             else if(x100)    
 6160              		.loc 1 1230 0
 6161 104c 7F4B     		ldr	r3, .L465+16
 6162 104e B3F90030 		ldrsh	r3, [r3]
 6163 1052 7BB1     		cbz	r3, .L339
1231:main.c        ****                 Programas[Programa-1].rampas[CicloLibre-1].Temperatura+=100;
 6164              		.loc 1 1231 0
 6165 1054 824B     		ldr	r3, .L465+36
 6166 1056 1B78     		ldrb	r3, [r3]	@ zero_extendqisi2
 6167 1058 013B     		subs	r3, r3, #1
 6168 105a 824A     		ldr	r2, .L465+40
 6169 105c 1178     		ldrb	r1, [r2]	@ zero_extendqisi2
 6170 105e 0139     		subs	r1, r1, #1
 6171 1060 8148     		ldr	r0, .L465+44
 6172 1062 9C00     		lsls	r4, r3, #2
 6173 1064 E518     		adds	r5, r4, r3
 6174 1066 AA00     		lsls	r2, r5, #2
 6175 1068 0A44     		add	r2, r2, r1
 6176 106a 00EBC202 		add	r2, r0, r2, lsl #3
 6177 106e D388     		ldrh	r3, [r2, #6]
 6178 1070 6433     		adds	r3, r3, #100
 6179 1072 D380     		strh	r3, [r2, #6]	@ movhi
 6180              	.L339:
1232:main.c        ****                 
ARM GAS  C:\Users\JPELEC~1\AppData\Local\Temp\ccEetrge.s 			page 140


1233:main.c        ****             CyDelay(200);    
 6181              		.loc 1 1233 0
 6182 1074 C820     		movs	r0, #200
 6183 1076 FFF7FEFF 		bl	CyDelay
 6184              	.LVL488:
 6185              	.L337:
1234:main.c        ****         }
1235:main.c        ****         
1236:main.c        ****         if(pulsoDisminuir){
 6186              		.loc 1 1236 0
 6187 107a 7C4B     		ldr	r3, .L465+48
 6188 107c B3F90030 		ldrsh	r3, [r3]
 6189 1080 002B     		cmp	r3, #0
 6190 1082 40D0     		beq	.L341
1237:main.c        ****             if(x1)
 6191              		.loc 1 1237 0
 6192 1084 6F4B     		ldr	r3, .L465+8
 6193 1086 B3F90030 		ldrsh	r3, [r3]
 6194 108a 83B1     		cbz	r3, .L342
1238:main.c        ****                 Programas[Programa-1].rampas[CicloLibre-1].Temperatura-=1;    
 6195              		.loc 1 1238 0
 6196 108c 744B     		ldr	r3, .L465+36
 6197 108e 1B78     		ldrb	r3, [r3]	@ zero_extendqisi2
 6198 1090 013B     		subs	r3, r3, #1
 6199 1092 744A     		ldr	r2, .L465+40
 6200 1094 1178     		ldrb	r1, [r2]	@ zero_extendqisi2
 6201 1096 0139     		subs	r1, r1, #1
 6202 1098 7348     		ldr	r0, .L465+44
 6203 109a 9C00     		lsls	r4, r3, #2
 6204 109c E518     		adds	r5, r4, r3
 6205 109e AA00     		lsls	r2, r5, #2
 6206 10a0 0A44     		add	r2, r2, r1
 6207 10a2 00EBC202 		add	r2, r0, r2, lsl #3
 6208 10a6 D388     		ldrh	r3, [r2, #6]
 6209 10a8 013B     		subs	r3, r3, #1
 6210 10aa D380     		strh	r3, [r2, #6]	@ movhi
 6211 10ac 28E0     		b	.L343
 6212              	.L342:
1239:main.c        ****             else if(x10)    
 6213              		.loc 1 1239 0
 6214 10ae 664B     		ldr	r3, .L465+12
 6215 10b0 B3F90030 		ldrsh	r3, [r3]
 6216 10b4 83B1     		cbz	r3, .L344
1240:main.c        ****                 Programas[Programa-1].rampas[CicloLibre-1].Temperatura-=10;    
 6217              		.loc 1 1240 0
 6218 10b6 6A4B     		ldr	r3, .L465+36
 6219 10b8 1B78     		ldrb	r3, [r3]	@ zero_extendqisi2
 6220 10ba 013B     		subs	r3, r3, #1
 6221 10bc 694A     		ldr	r2, .L465+40
 6222 10be 1178     		ldrb	r1, [r2]	@ zero_extendqisi2
 6223 10c0 0139     		subs	r1, r1, #1
 6224 10c2 6948     		ldr	r0, .L465+44
 6225 10c4 9C00     		lsls	r4, r3, #2
 6226 10c6 E518     		adds	r5, r4, r3
 6227 10c8 AA00     		lsls	r2, r5, #2
 6228 10ca 0A44     		add	r2, r2, r1
 6229 10cc 00EBC202 		add	r2, r0, r2, lsl #3
ARM GAS  C:\Users\JPELEC~1\AppData\Local\Temp\ccEetrge.s 			page 141


 6230 10d0 D388     		ldrh	r3, [r2, #6]
 6231 10d2 0A3B     		subs	r3, r3, #10
 6232 10d4 D380     		strh	r3, [r2, #6]	@ movhi
 6233 10d6 13E0     		b	.L343
 6234              	.L344:
1241:main.c        ****             else if(x100)    
 6235              		.loc 1 1241 0
 6236 10d8 5C4B     		ldr	r3, .L465+16
 6237 10da B3F90030 		ldrsh	r3, [r3]
 6238 10de 7BB1     		cbz	r3, .L343
1242:main.c        ****                 Programas[Programa-1].rampas[CicloLibre-1].Temperatura-=100;
 6239              		.loc 1 1242 0
 6240 10e0 5F4B     		ldr	r3, .L465+36
 6241 10e2 1B78     		ldrb	r3, [r3]	@ zero_extendqisi2
 6242 10e4 013B     		subs	r3, r3, #1
 6243 10e6 5F4A     		ldr	r2, .L465+40
 6244 10e8 1178     		ldrb	r1, [r2]	@ zero_extendqisi2
 6245 10ea 0139     		subs	r1, r1, #1
 6246 10ec 5E48     		ldr	r0, .L465+44
 6247 10ee 9C00     		lsls	r4, r3, #2
 6248 10f0 E518     		adds	r5, r4, r3
 6249 10f2 AA00     		lsls	r2, r5, #2
 6250 10f4 0A44     		add	r2, r2, r1
 6251 10f6 00EBC202 		add	r2, r0, r2, lsl #3
 6252 10fa D388     		ldrh	r3, [r2, #6]
 6253 10fc 643B     		subs	r3, r3, #100
 6254 10fe D380     		strh	r3, [r2, #6]	@ movhi
 6255              	.L343:
1243:main.c        ****                 
1244:main.c        ****             CyDelay(200);
 6256              		.loc 1 1244 0
 6257 1100 C820     		movs	r0, #200
 6258 1102 FFF7FEFF 		bl	CyDelay
 6259              	.LVL489:
 6260              	.L341:
1245:main.c        ****         }
1246:main.c        ****         
1247:main.c        ****          sprintf(displayStr,"tsettem.txt=\"%04u\"",Programas[Programa-1].rampas[CicloLibre-1].Tempe
 6261              		.loc 1 1247 0
 6262 1106 564B     		ldr	r3, .L465+36
 6263 1108 1B78     		ldrb	r3, [r3]	@ zero_extendqisi2
 6264 110a 013B     		subs	r3, r3, #1
 6265 110c 554A     		ldr	r2, .L465+40
 6266 110e 1278     		ldrb	r2, [r2]	@ zero_extendqisi2
 6267 1110 013A     		subs	r2, r2, #1
 6268 1112 03EB8303 		add	r3, r3, r3, lsl #2
 6269 1116 9900     		lsls	r1, r3, #2
 6270 1118 8B18     		adds	r3, r1, r2
 6271 111a 534A     		ldr	r2, .L465+44
 6272 111c 02EBC303 		add	r3, r2, r3, lsl #3
 6273 1120 534C     		ldr	r4, .L465+52
 6274 1122 DA88     		ldrh	r2, [r3, #6]
 6275 1124 5349     		ldr	r1, .L465+56
 6276 1126 2046     		mov	r0, r4
 6277 1128 FFF7FEFF 		bl	sprintf
 6278              	.LVL490:
1248:main.c        ****          escribeDisplay2(displayStr);
ARM GAS  C:\Users\JPELEC~1\AppData\Local\Temp\ccEetrge.s 			page 142


 6279              		.loc 1 1248 0
 6280 112c 2046     		mov	r0, r4
 6281 112e FFF7FEFF 		bl	escribeDisplay2
 6282              	.LVL491:
 6283              	.L325:
1249:main.c        ****       
1250:main.c        ****     }
1251:main.c        **** //_------------------------------------------------------------------------------------------------
1252:main.c        **** 
1253:main.c        **** //_------------------------------------------------------------------------------------------------
1254:main.c        ****     if(Menu==6){//Menu de Test
 6284              		.loc 1 1254 0
 6285 1132 514B     		ldr	r3, .L465+60
 6286 1134 1B78     		ldrb	r3, [r3]	@ zero_extendqisi2
 6287 1136 062B     		cmp	r3, #6
 6288 1138 40F0F980 		bne	.L345
1255:main.c        ****         Test=ON;
 6289              		.loc 1 1255 0
 6290 113c 0122     		movs	r2, #1
 6291 113e 4F4B     		ldr	r3, .L465+64
 6292 1140 1A80     		strh	r2, [r3]	@ movhi
1256:main.c        ****         if(Rx_Buffer[4]==0x50){
 6293              		.loc 1 1256 0
 6294 1142 3E4B     		ldr	r3, .L465
 6295 1144 1B79     		ldrb	r3, [r3, #4]	@ zero_extendqisi2
 6296 1146 502B     		cmp	r3, #80
 6297 1148 0CD1     		bne	.L346
1257:main.c        ****             escribeDisplay2("page MenuPrincipal");
 6298              		.loc 1 1257 0
 6299 114a 4D48     		ldr	r0, .L465+68
 6300 114c FFF7FEFF 		bl	escribeDisplay2
 6301              	.LVL492:
1258:main.c        ****             escribeDisplay1("page Bienvenida");
 6302              		.loc 1 1258 0
 6303 1150 4C48     		ldr	r0, .L465+72
 6304 1152 FFF7FEFF 		bl	escribeDisplay1
 6305              	.LVL493:
1259:main.c        ****             Test=OFF;
 6306              		.loc 1 1259 0
 6307 1156 0023     		movs	r3, #0
 6308 1158 484A     		ldr	r2, .L465+64
 6309 115a 1380     		strh	r3, [r2]	@ movhi
1260:main.c        ****             Rx_Buffer[4]=0x00;
 6310              		.loc 1 1260 0
 6311 115c 374A     		ldr	r2, .L465
 6312 115e 1371     		strb	r3, [r2, #4]
1261:main.c        ****             Rx_Buffer2[4]=0x00;   
 6313              		.loc 1 1261 0
 6314 1160 374A     		ldr	r2, .L465+4
 6315 1162 1371     		strb	r3, [r2, #4]
 6316              	.L346:
1262:main.c        ****         }
1263:main.c        ****         
1264:main.c        ****         if(Rx_Buffer[4]==0x01){
 6317              		.loc 1 1264 0
 6318 1164 354B     		ldr	r3, .L465
 6319 1166 1B79     		ldrb	r3, [r3, #4]	@ zero_extendqisi2
ARM GAS  C:\Users\JPELEC~1\AppData\Local\Temp\ccEetrge.s 			page 143


 6320 1168 012B     		cmp	r3, #1
 6321 116a 0BD1     		bne	.L347
1265:main.c        ****             estadoSSR=!estadoSSR;
 6322              		.loc 1 1265 0
 6323 116c 464A     		ldr	r2, .L465+76
 6324 116e B2F90030 		ldrsh	r3, [r2]
 6325 1172 B3FA83F3 		clz	r3, r3
 6326 1176 5B09     		lsrs	r3, r3, #5
 6327 1178 1380     		strh	r3, [r2]	@ movhi
1266:main.c        ****             Rx_Buffer[4]=0x00;
 6328              		.loc 1 1266 0
 6329 117a 0023     		movs	r3, #0
 6330 117c 2F4A     		ldr	r2, .L465
 6331 117e 1371     		strb	r3, [r2, #4]
1267:main.c        ****             Rx_Buffer2[4]=0x00;   
 6332              		.loc 1 1267 0
 6333 1180 2F4A     		ldr	r2, .L465+4
 6334 1182 1371     		strb	r3, [r2, #4]
 6335              	.L347:
1268:main.c        ****         }
1269:main.c        ****         
1270:main.c        ****         if(Rx_Buffer[4]==0x02){
 6336              		.loc 1 1270 0
 6337 1184 2D4B     		ldr	r3, .L465
 6338 1186 1B79     		ldrb	r3, [r3, #4]	@ zero_extendqisi2
 6339 1188 022B     		cmp	r3, #2
 6340 118a 0BD1     		bne	.L348
1271:main.c        ****             estadoBuzzer=!estadoBuzzer;
 6341              		.loc 1 1271 0
 6342 118c 3F4A     		ldr	r2, .L465+80
 6343 118e B2F90030 		ldrsh	r3, [r2]
 6344 1192 B3FA83F3 		clz	r3, r3
 6345 1196 5B09     		lsrs	r3, r3, #5
 6346 1198 1380     		strh	r3, [r2]	@ movhi
1272:main.c        ****             Rx_Buffer[4]=0x00;
 6347              		.loc 1 1272 0
 6348 119a 0023     		movs	r3, #0
 6349 119c 274A     		ldr	r2, .L465
 6350 119e 1371     		strb	r3, [r2, #4]
1273:main.c        ****             Rx_Buffer2[4]=0x00;   
 6351              		.loc 1 1273 0
 6352 11a0 274A     		ldr	r2, .L465+4
 6353 11a2 1371     		strb	r3, [r2, #4]
 6354              	.L348:
1274:main.c        ****         }
1275:main.c        ****         
1276:main.c        ****         if(Rx_Buffer[4]==0x03){
 6355              		.loc 1 1276 0
 6356 11a4 254B     		ldr	r3, .L465
 6357 11a6 1B79     		ldrb	r3, [r3, #4]	@ zero_extendqisi2
 6358 11a8 032B     		cmp	r3, #3
 6359 11aa 0BD1     		bne	.L349
1277:main.c        ****             estadoVentilador=!estadoVentilador;
 6360              		.loc 1 1277 0
 6361 11ac 384A     		ldr	r2, .L465+84
 6362 11ae B2F90030 		ldrsh	r3, [r2]
 6363 11b2 B3FA83F3 		clz	r3, r3
ARM GAS  C:\Users\JPELEC~1\AppData\Local\Temp\ccEetrge.s 			page 144


 6364 11b6 5B09     		lsrs	r3, r3, #5
 6365 11b8 1380     		strh	r3, [r2]	@ movhi
1278:main.c        ****             Rx_Buffer[4]=0x00;
 6366              		.loc 1 1278 0
 6367 11ba 0023     		movs	r3, #0
 6368 11bc 1F4A     		ldr	r2, .L465
 6369 11be 1371     		strb	r3, [r2, #4]
1279:main.c        ****             Rx_Buffer2[4]=0x00;   
 6370              		.loc 1 1279 0
 6371 11c0 1F4A     		ldr	r2, .L465+4
 6372 11c2 1371     		strb	r3, [r2, #4]
 6373              	.L349:
1280:main.c        ****         }
1281:main.c        ****         
1282:main.c        ****         if(estadoSSR){
 6374              		.loc 1 1282 0
 6375 11c4 304B     		ldr	r3, .L465+76
 6376 11c6 B3F90030 		ldrsh	r3, [r3]
 6377 11ca 33B1     		cbz	r3, .L350
1283:main.c        ****             SSR_Write(1); 
 6378              		.loc 1 1283 0
 6379 11cc 0120     		movs	r0, #1
 6380 11ce FFF7FEFF 		bl	SSR_Write
 6381              	.LVL494:
1284:main.c        ****             escribeDisplay2("b0.bco=1024");
 6382              		.loc 1 1284 0
 6383 11d2 3048     		ldr	r0, .L465+88
 6384 11d4 FFF7FEFF 		bl	escribeDisplay2
 6385              	.LVL495:
 6386 11d8 05E0     		b	.L351
 6387              	.L350:
1285:main.c        ****         }else{
1286:main.c        ****             SSR_Write(0);
 6388              		.loc 1 1286 0
 6389 11da 0020     		movs	r0, #0
 6390 11dc FFF7FEFF 		bl	SSR_Write
 6391              	.LVL496:
1287:main.c        ****             escribeDisplay2("b0.bco=63488");
 6392              		.loc 1 1287 0
 6393 11e0 2D48     		ldr	r0, .L465+92
 6394 11e2 FFF7FEFF 		bl	escribeDisplay2
 6395              	.LVL497:
 6396              	.L351:
1288:main.c        ****         }
1289:main.c        ****         
1290:main.c        ****         if(estadoBuzzer){
 6397              		.loc 1 1290 0
 6398 11e6 294B     		ldr	r3, .L465+80
 6399 11e8 B3F90030 		ldrsh	r3, [r3]
 6400 11ec 33B1     		cbz	r3, .L352
1291:main.c        ****             LED_Write(1);    
 6401              		.loc 1 1291 0
 6402 11ee 0120     		movs	r0, #1
 6403 11f0 FFF7FEFF 		bl	LED_Write
 6404              	.LVL498:
1292:main.c        ****             escribeDisplay2("b1.bco=1024");
 6405              		.loc 1 1292 0
ARM GAS  C:\Users\JPELEC~1\AppData\Local\Temp\ccEetrge.s 			page 145


 6406 11f4 2948     		ldr	r0, .L465+96
 6407 11f6 FFF7FEFF 		bl	escribeDisplay2
 6408              	.LVL499:
 6409 11fa 05E0     		b	.L353
 6410              	.L352:
1293:main.c        ****         }else{
1294:main.c        ****             LED_Write(0);
 6411              		.loc 1 1294 0
 6412 11fc 0020     		movs	r0, #0
 6413 11fe FFF7FEFF 		bl	LED_Write
 6414              	.LVL500:
1295:main.c        ****             escribeDisplay2("b1.bco=63488");
 6415              		.loc 1 1295 0
 6416 1202 2748     		ldr	r0, .L465+100
 6417 1204 FFF7FEFF 		bl	escribeDisplay2
 6418              	.LVL501:
 6419              	.L353:
1296:main.c        ****         }
1297:main.c        ****         
1298:main.c        ****         if(estadoVentilador){
 6420              		.loc 1 1298 0
 6421 1208 214B     		ldr	r3, .L465+84
 6422 120a B3F90030 		ldrsh	r3, [r3]
 6423 120e 33B1     		cbz	r3, .L354
1299:main.c        ****             VENT1_Write(0);    
 6424              		.loc 1 1299 0
 6425 1210 0020     		movs	r0, #0
 6426 1212 FFF7FEFF 		bl	VENT1_Write
 6427              	.LVL502:
1300:main.c        ****             escribeDisplay2("b2.bco=1024");
 6428              		.loc 1 1300 0
 6429 1216 2348     		ldr	r0, .L465+104
 6430 1218 FFF7FEFF 		bl	escribeDisplay2
 6431              	.LVL503:
 6432 121c 05E0     		b	.L355
 6433              	.L354:
1301:main.c        ****         }else{
1302:main.c        ****             VENT1_Write(1);
 6434              		.loc 1 1302 0
 6435 121e 0120     		movs	r0, #1
 6436 1220 FFF7FEFF 		bl	VENT1_Write
 6437              	.LVL504:
1303:main.c        ****             escribeDisplay2("b2.bco=63488");
 6438              		.loc 1 1303 0
 6439 1224 2048     		ldr	r0, .L465+108
 6440 1226 FFF7FEFF 		bl	escribeDisplay2
 6441              	.LVL505:
 6442              	.L355:
1304:main.c        ****         }
1305:main.c        ****         
1306:main.c        ****         if(DOOR_Read()==0)
 6443              		.loc 1 1306 0
 6444 122a FFF7FEFF 		bl	DOOR_Read
 6445              	.LVL506:
 6446 122e 0028     		cmp	r0, #0
 6447 1230 3ED1     		bne	.L356
1307:main.c        ****             escribeDisplay2("b3.bco=1024");
ARM GAS  C:\Users\JPELEC~1\AppData\Local\Temp\ccEetrge.s 			page 146


 6448              		.loc 1 1307 0
 6449 1232 1E48     		ldr	r0, .L465+112
 6450 1234 FFF7FEFF 		bl	escribeDisplay2
 6451              	.LVL507:
 6452 1238 3DE0     		b	.L357
 6453              	.L466:
 6454 123a 00BF     		.align	2
 6455              	.L465:
 6456 123c 00000000 		.word	Rx_Buffer
 6457 1240 00000000 		.word	Rx_Buffer2
 6458 1244 00000000 		.word	x1
 6459 1248 00000000 		.word	x10
 6460 124c 00000000 		.word	x100
 6461 1250 5C020000 		.word	.LC38
 6462 1254 44020000 		.word	.LC36
 6463 1258 74020000 		.word	.LC40
 6464 125c 00000000 		.word	pulsoAumentar
 6465 1260 00000000 		.word	Programa
 6466 1264 00000000 		.word	CicloLibre
 6467 1268 00000000 		.word	Programas
 6468 126c 00000000 		.word	pulsoDisminuir
 6469 1270 00000000 		.word	displayStr
 6470 1274 80020000 		.word	.LC41
 6471 1278 00000000 		.word	Menu
 6472 127c 00000000 		.word	Test
 6473 1280 7C010000 		.word	.LC22
 6474 1284 70000000 		.word	.LC6
 6475 1288 00000000 		.word	estadoSSR
 6476 128c 00000000 		.word	estadoBuzzer
 6477 1290 00000000 		.word	estadoVentilador
 6478 1294 94020000 		.word	.LC42
 6479 1298 A0020000 		.word	.LC43
 6480 129c B0020000 		.word	.LC44
 6481 12a0 BC020000 		.word	.LC45
 6482 12a4 CC020000 		.word	.LC46
 6483 12a8 D8020000 		.word	.LC47
 6484 12ac E8020000 		.word	.LC48
 6485              	.L356:
1308:main.c        ****         else
1309:main.c        ****             escribeDisplay2("b3.bco=63488");
 6486              		.loc 1 1309 0
 6487 12b0 AF48     		ldr	r0, .L467
 6488 12b2 FFF7FEFF 		bl	escribeDisplay2
 6489              	.LVL508:
 6490              	.L357:
1310:main.c        ****         
1311:main.c        ****       sprintf(displayStr,"b8.txt=\"%u \"",coldJnTemp);
 6491              		.loc 1 1311 0
 6492 12b6 AF4C     		ldr	r4, .L467+4
 6493 12b8 AF4B     		ldr	r3, .L467+8
 6494 12ba B3F90020 		ldrsh	r2, [r3]
 6495 12be AF49     		ldr	r1, .L467+12
 6496 12c0 2046     		mov	r0, r4
 6497 12c2 FFF7FEFF 		bl	sprintf
 6498              	.LVL509:
1312:main.c        ****       escribeDisplay2(displayStr);
 6499              		.loc 1 1312 0
ARM GAS  C:\Users\JPELEC~1\AppData\Local\Temp\ccEetrge.s 			page 147


 6500 12c6 2046     		mov	r0, r4
 6501 12c8 FFF7FEFF 		bl	escribeDisplay2
 6502              	.LVL510:
1313:main.c        ****       sprintf(displayStr,"b7.txt=\"A0:%ld\"",hotJnCount);
 6503              		.loc 1 1313 0
 6504 12cc AC4B     		ldr	r3, .L467+16
 6505 12ce 1A68     		ldr	r2, [r3]
 6506 12d0 AC49     		ldr	r1, .L467+20
 6507 12d2 2046     		mov	r0, r4
 6508 12d4 FFF7FEFF 		bl	sprintf
 6509              	.LVL511:
1314:main.c        ****       escribeDisplay2(displayStr);
 6510              		.loc 1 1314 0
 6511 12d8 2046     		mov	r0, r4
 6512 12da FFF7FEFF 		bl	escribeDisplay2
 6513              	.LVL512:
1315:main.c        ****       sprintf(displayStr,"b6.txt=\"TK:%+1.2f V0:%1.1f\"",Temperatura,V0);
 6514              		.loc 1 1315 0
 6515 12de AA4B     		ldr	r3, .L467+24
 6516 12e0 1868     		ldr	r0, [r3]	@ float
 6517 12e2 FFF7FEFF 		bl	__aeabi_f2d
 6518              	.LVL513:
 6519 12e6 0646     		mov	r6, r0
 6520 12e8 0F46     		mov	r7, r1
 6521 12ea A84B     		ldr	r3, .L467+28
 6522 12ec 1868     		ldr	r0, [r3]	@ float
 6523 12ee FFF7FEFF 		bl	__aeabi_f2d
 6524              	.LVL514:
 6525 12f2 CDE90001 		strd	r0, [sp]
 6526 12f6 3246     		mov	r2, r6
 6527 12f8 3B46     		mov	r3, r7
 6528 12fa A549     		ldr	r1, .L467+32
 6529 12fc 2046     		mov	r0, r4
 6530 12fe FFF7FEFF 		bl	sprintf
 6531              	.LVL515:
1316:main.c        ****       escribeDisplay2(displayStr);
 6532              		.loc 1 1316 0
 6533 1302 2046     		mov	r0, r4
 6534 1304 FFF7FEFF 		bl	escribeDisplay2
 6535              	.LVL516:
1317:main.c        ****       sprintf(displayStr,"b4.txt=\"T:%ld.%ld \"",tcTemp/100,tcTemp-((tcTemp/100)*100));
 6536              		.loc 1 1317 0
 6537 1308 A24B     		ldr	r3, .L467+36
 6538 130a 1968     		ldr	r1, [r3]
 6539 130c A24A     		ldr	r2, .L467+40
 6540 130e 82FB0132 		smull	r3, r2, r2, r1
 6541 1312 5211     		asrs	r2, r2, #5
 6542 1314 C817     		asrs	r0, r1, #31
 6543 1316 131A     		subs	r3, r2, r0
 6544 1318 6425     		movs	r5, #100
 6545 131a 05FB1313 		mls	r3, r5, r3, r1
 6546 131e 121A     		subs	r2, r2, r0
 6547 1320 9E49     		ldr	r1, .L467+44
 6548 1322 2046     		mov	r0, r4
 6549 1324 FFF7FEFF 		bl	sprintf
 6550              	.LVL517:
1318:main.c        ****       escribeDisplay2(displayStr);
ARM GAS  C:\Users\JPELEC~1\AppData\Local\Temp\ccEetrge.s 			page 148


 6551              		.loc 1 1318 0
 6552 1328 2046     		mov	r0, r4
 6553 132a FFF7FEFF 		bl	escribeDisplay2
 6554              	.LVL518:
 6555              	.L345:
1319:main.c        ****    }
1320:main.c        **** //_------------------------------------------------------------------------------------------------
1321:main.c        ****     
1322:main.c        **** //_------------------------------------------------------------------------------------------------
1323:main.c        ****    if(Menu==8){ //Menu de Rampas
 6556              		.loc 1 1323 0
 6557 132e 9C4B     		ldr	r3, .L467+48
 6558 1330 1B78     		ldrb	r3, [r3]	@ zero_extendqisi2
 6559 1332 082B     		cmp	r3, #8
 6560 1334 40F0FE82 		bne	.L358
1324:main.c        ****         flagBorrado=OFF;
 6561              		.loc 1 1324 0
 6562 1338 0023     		movs	r3, #0
 6563 133a 9A4A     		ldr	r2, .L467+52
 6564 133c 1380     		strh	r3, [r2]	@ movhi
1325:main.c        ****         for(i=0;i<10;i++){
 6565              		.loc 1 1325 0
 6566 133e 9A4A     		ldr	r2, .L467+56
 6567 1340 1370     		strb	r3, [r2]
 6568 1342 1CE0     		b	.L359
 6569              	.L362:
1326:main.c        ****             if(Programas[Programa-1].rampas[i].Horas==0 && Programas[Programa-1].rampas[i].Minutos=
 6570              		.loc 1 1326 0
 6571 1344 994A     		ldr	r2, .L467+60
 6572 1346 1278     		ldrb	r2, [r2]	@ zero_extendqisi2
 6573 1348 013A     		subs	r2, r2, #1
 6574 134a 02EB8200 		add	r0, r2, r2, lsl #2
 6575 134e 8100     		lsls	r1, r0, #2
 6576 1350 1944     		add	r1, r1, r3
 6577 1352 9748     		ldr	r0, .L467+64
 6578 1354 00EBC101 		add	r1, r0, r1, lsl #3
 6579 1358 C978     		ldrb	r1, [r1, #3]	@ zero_extendqisi2
 6580 135a 51B9     		cbnz	r1, .L360
 6581              		.loc 1 1326 0 is_stmt 0 discriminator 1
 6582 135c 02EB8202 		add	r2, r2, r2, lsl #2
 6583 1360 9100     		lsls	r1, r2, #2
 6584 1362 1944     		add	r1, r1, r3
 6585 1364 00EBC101 		add	r1, r0, r1, lsl #3
 6586 1368 0A79     		ldrb	r2, [r1, #4]	@ zero_extendqisi2
 6587 136a 12B9     		cbnz	r2, .L360
1327:main.c        ****                 Segmentos=i;  
 6588              		.loc 1 1327 0 is_stmt 1
 6589 136c 914A     		ldr	r2, .L467+68
 6590 136e 1370     		strb	r3, [r2]
1328:main.c        ****                 break;
 6591              		.loc 1 1328 0
 6592 1370 09E0     		b	.L361
 6593              	.L360:
1329:main.c        ****             }else{
1330:main.c        ****                 Segmentos=i+1;  
 6594              		.loc 1 1330 0 discriminator 2
 6595 1372 0133     		adds	r3, r3, #1
ARM GAS  C:\Users\JPELEC~1\AppData\Local\Temp\ccEetrge.s 			page 149


 6596 1374 DBB2     		uxtb	r3, r3
 6597 1376 8F4A     		ldr	r2, .L467+68
 6598 1378 1370     		strb	r3, [r2]
1325:main.c        ****             if(Programas[Programa-1].rampas[i].Horas==0 && Programas[Programa-1].rampas[i].Minutos=
 6599              		.loc 1 1325 0 discriminator 2
 6600 137a 8B4A     		ldr	r2, .L467+56
 6601 137c 1370     		strb	r3, [r2]
 6602              	.L359:
1325:main.c        ****             if(Programas[Programa-1].rampas[i].Horas==0 && Programas[Programa-1].rampas[i].Minutos=
 6603              		.loc 1 1325 0 is_stmt 0 discriminator 1
 6604 137e 8A4B     		ldr	r3, .L467+56
 6605 1380 1B78     		ldrb	r3, [r3]	@ zero_extendqisi2
 6606 1382 092B     		cmp	r3, #9
 6607 1384 DED9     		bls	.L362
 6608              	.L361:
1331:main.c        ****             }
1332:main.c        ****         }
1333:main.c        ****     
1334:main.c        ****         if(Menu2!=9){
 6609              		.loc 1 1334 0 is_stmt 1
 6610 1386 8C4B     		ldr	r3, .L467+72
 6611 1388 1B78     		ldrb	r3, [r3]	@ zero_extendqisi2
 6612 138a 092B     		cmp	r3, #9
 6613 138c 06D0     		beq	.L363
1335:main.c        ****             escribeDisplay1("page Grafica");
 6614              		.loc 1 1335 0
 6615 138e 8B48     		ldr	r0, .L467+76
 6616 1390 FFF7FEFF 		bl	escribeDisplay1
 6617              	.LVL519:
1336:main.c        ****             CyDelay(10);
 6618              		.loc 1 1336 0
 6619 1394 0A20     		movs	r0, #10
 6620 1396 FFF7FEFF 		bl	CyDelay
 6621              	.LVL520:
 6622 139a BBE0     		b	.L364
 6623              	.L363:
1337:main.c        ****         }else{
1338:main.c        ****             if(Segmentos>0){
 6624              		.loc 1 1338 0
 6625 139c 854B     		ldr	r3, .L467+68
 6626 139e 1B78     		ldrb	r3, [r3]	@ zero_extendqisi2
 6627 13a0 002B     		cmp	r3, #0
 6628 13a2 00F0B780 		beq	.L364
1339:main.c        ****                 if(!dibujo){
 6629              		.loc 1 1339 0
 6630 13a6 864B     		ldr	r3, .L467+80
 6631 13a8 B3F90030 		ldrsh	r3, [r3]
 6632 13ac 002B     		cmp	r3, #0
 6633 13ae 40F0AE80 		bne	.L365
1340:main.c        ****                     escribeDisplay1("t5.txt=\"DIBUJANDO GRAFICA DE RAMPA PROGRAMADA...\"");
 6634              		.loc 1 1340 0
 6635 13b2 8448     		ldr	r0, .L467+84
 6636 13b4 FFF7FEFF 		bl	escribeDisplay1
 6637              	.LVL521:
1341:main.c        ****                     sprintf(displayStr,"t6.txt=\"%02u:%02u\"",Programas[Programa-1].rampas[0].Horas
 6638              		.loc 1 1341 0
 6639 13b8 7C4E     		ldr	r6, .L467+60
ARM GAS  C:\Users\JPELEC~1\AppData\Local\Temp\ccEetrge.s 			page 150


 6640 13ba 3378     		ldrb	r3, [r6]	@ zero_extendqisi2
 6641 13bc 013B     		subs	r3, r3, #1
 6642 13be 7C4D     		ldr	r5, .L467+64
 6643 13c0 9900     		lsls	r1, r3, #2
 6644 13c2 C818     		adds	r0, r1, r3
 6645 13c4 4201     		lsls	r2, r0, #5
 6646 13c6 2A44     		add	r2, r2, r5
 6647 13c8 6A4C     		ldr	r4, .L467+4
 6648 13ca 1379     		ldrb	r3, [r2, #4]	@ zero_extendqisi2
 6649 13cc D278     		ldrb	r2, [r2, #3]	@ zero_extendqisi2
 6650 13ce 7E49     		ldr	r1, .L467+88
 6651 13d0 2046     		mov	r0, r4
 6652 13d2 FFF7FEFF 		bl	sprintf
 6653              	.LVL522:
1342:main.c        ****                     escribeDisplay1(displayStr); 
 6654              		.loc 1 1342 0
 6655 13d6 2046     		mov	r0, r4
 6656 13d8 FFF7FEFF 		bl	escribeDisplay1
 6657              	.LVL523:
1343:main.c        ****                     sprintf(displayStr,"t7.txt=\"%02u:%02u\"",Programas[Programa-1].rampas[1].Horas
 6658              		.loc 1 1343 0
 6659 13dc 3378     		ldrb	r3, [r6]	@ zero_extendqisi2
 6660 13de 013B     		subs	r3, r3, #1
 6661 13e0 9900     		lsls	r1, r3, #2
 6662 13e2 C818     		adds	r0, r1, r3
 6663 13e4 4201     		lsls	r2, r0, #5
 6664 13e6 2A44     		add	r2, r2, r5
 6665 13e8 137B     		ldrb	r3, [r2, #12]	@ zero_extendqisi2
 6666 13ea D27A     		ldrb	r2, [r2, #11]	@ zero_extendqisi2
 6667 13ec 7749     		ldr	r1, .L467+92
 6668 13ee 2046     		mov	r0, r4
 6669 13f0 FFF7FEFF 		bl	sprintf
 6670              	.LVL524:
1344:main.c        ****                     escribeDisplay1(displayStr); 
 6671              		.loc 1 1344 0
 6672 13f4 2046     		mov	r0, r4
 6673 13f6 FFF7FEFF 		bl	escribeDisplay1
 6674              	.LVL525:
1345:main.c        ****                     sprintf(displayStr,"t8.txt=\"%02u:%02u\"",Programas[Programa-1].rampas[2].Horas
 6675              		.loc 1 1345 0
 6676 13fa 3378     		ldrb	r3, [r6]	@ zero_extendqisi2
 6677 13fc 013B     		subs	r3, r3, #1
 6678 13fe 9900     		lsls	r1, r3, #2
 6679 1400 C818     		adds	r0, r1, r3
 6680 1402 4201     		lsls	r2, r0, #5
 6681 1404 2A44     		add	r2, r2, r5
 6682 1406 137D     		ldrb	r3, [r2, #20]	@ zero_extendqisi2
 6683 1408 D27C     		ldrb	r2, [r2, #19]	@ zero_extendqisi2
 6684 140a 7149     		ldr	r1, .L467+96
 6685 140c 2046     		mov	r0, r4
 6686 140e FFF7FEFF 		bl	sprintf
 6687              	.LVL526:
1346:main.c        ****                     escribeDisplay1(displayStr); 
 6688              		.loc 1 1346 0
 6689 1412 2046     		mov	r0, r4
 6690 1414 FFF7FEFF 		bl	escribeDisplay1
 6691              	.LVL527:
ARM GAS  C:\Users\JPELEC~1\AppData\Local\Temp\ccEetrge.s 			page 151


1347:main.c        ****                     sprintf(displayStr,"t9.txt=\"%02u:%02u\"",Programas[Programa-1].rampas[3].Horas
 6692              		.loc 1 1347 0
 6693 1418 3378     		ldrb	r3, [r6]	@ zero_extendqisi2
 6694 141a 013B     		subs	r3, r3, #1
 6695 141c 9900     		lsls	r1, r3, #2
 6696 141e C818     		adds	r0, r1, r3
 6697 1420 4201     		lsls	r2, r0, #5
 6698 1422 2A44     		add	r2, r2, r5
 6699 1424 137F     		ldrb	r3, [r2, #28]	@ zero_extendqisi2
 6700 1426 D27E     		ldrb	r2, [r2, #27]	@ zero_extendqisi2
 6701 1428 6A49     		ldr	r1, .L467+100
 6702 142a 2046     		mov	r0, r4
 6703 142c FFF7FEFF 		bl	sprintf
 6704              	.LVL528:
1348:main.c        ****                     escribeDisplay1(displayStr); 
 6705              		.loc 1 1348 0
 6706 1430 2046     		mov	r0, r4
 6707 1432 FFF7FEFF 		bl	escribeDisplay1
 6708              	.LVL529:
1349:main.c        ****                     sprintf(displayStr,"t10.txt=\"%02u:%02u\"",Programas[Programa-1].rampas[4].Hora
 6709              		.loc 1 1349 0
 6710 1436 3378     		ldrb	r3, [r6]	@ zero_extendqisi2
 6711 1438 013B     		subs	r3, r3, #1
 6712 143a 9900     		lsls	r1, r3, #2
 6713 143c C818     		adds	r0, r1, r3
 6714 143e 4201     		lsls	r2, r0, #5
 6715 1440 2A44     		add	r2, r2, r5
 6716 1442 92F82430 		ldrb	r3, [r2, #36]	@ zero_extendqisi2
 6717 1446 92F82320 		ldrb	r2, [r2, #35]	@ zero_extendqisi2
 6718 144a 6349     		ldr	r1, .L467+104
 6719 144c 2046     		mov	r0, r4
 6720 144e FFF7FEFF 		bl	sprintf
 6721              	.LVL530:
1350:main.c        ****                     escribeDisplay1(displayStr); 
 6722              		.loc 1 1350 0
 6723 1452 2046     		mov	r0, r4
 6724 1454 FFF7FEFF 		bl	escribeDisplay1
 6725              	.LVL531:
1351:main.c        ****                     sprintf(displayStr,"t11.txt=\"%02u:%02u\"",Programas[Programa-1].rampas[5].Hora
 6726              		.loc 1 1351 0
 6727 1458 3378     		ldrb	r3, [r6]	@ zero_extendqisi2
 6728 145a 013B     		subs	r3, r3, #1
 6729 145c 9900     		lsls	r1, r3, #2
 6730 145e C818     		adds	r0, r1, r3
 6731 1460 4201     		lsls	r2, r0, #5
 6732 1462 2A44     		add	r2, r2, r5
 6733 1464 92F82C30 		ldrb	r3, [r2, #44]	@ zero_extendqisi2
 6734 1468 92F82B20 		ldrb	r2, [r2, #43]	@ zero_extendqisi2
 6735 146c 5B49     		ldr	r1, .L467+108
 6736 146e 2046     		mov	r0, r4
 6737 1470 FFF7FEFF 		bl	sprintf
 6738              	.LVL532:
1352:main.c        ****                     escribeDisplay1(displayStr); 
 6739              		.loc 1 1352 0
 6740 1474 2046     		mov	r0, r4
 6741 1476 FFF7FEFF 		bl	escribeDisplay1
 6742              	.LVL533:
ARM GAS  C:\Users\JPELEC~1\AppData\Local\Temp\ccEetrge.s 			page 152


1353:main.c        ****                     sprintf(displayStr,"t12.txt=\"%02u:%02u\"",Programas[Programa-1].rampas[6].Hora
 6743              		.loc 1 1353 0
 6744 147a 3378     		ldrb	r3, [r6]	@ zero_extendqisi2
 6745 147c 013B     		subs	r3, r3, #1
 6746 147e 9900     		lsls	r1, r3, #2
 6747 1480 C818     		adds	r0, r1, r3
 6748 1482 4201     		lsls	r2, r0, #5
 6749 1484 2A44     		add	r2, r2, r5
 6750 1486 92F83430 		ldrb	r3, [r2, #52]	@ zero_extendqisi2
 6751 148a 92F83320 		ldrb	r2, [r2, #51]	@ zero_extendqisi2
 6752 148e 5449     		ldr	r1, .L467+112
 6753 1490 2046     		mov	r0, r4
 6754 1492 FFF7FEFF 		bl	sprintf
 6755              	.LVL534:
1354:main.c        ****                     escribeDisplay1(displayStr); 
 6756              		.loc 1 1354 0
 6757 1496 2046     		mov	r0, r4
 6758 1498 FFF7FEFF 		bl	escribeDisplay1
 6759              	.LVL535:
1355:main.c        ****                     sprintf(displayStr,"t13.txt=\"%02u:%02u\"",Programas[Programa-1].rampas[7].Hora
 6760              		.loc 1 1355 0
 6761 149c 3378     		ldrb	r3, [r6]	@ zero_extendqisi2
 6762 149e 013B     		subs	r3, r3, #1
 6763 14a0 9900     		lsls	r1, r3, #2
 6764 14a2 C818     		adds	r0, r1, r3
 6765 14a4 4201     		lsls	r2, r0, #5
 6766 14a6 2A44     		add	r2, r2, r5
 6767 14a8 92F83C30 		ldrb	r3, [r2, #60]	@ zero_extendqisi2
 6768 14ac 92F83B20 		ldrb	r2, [r2, #59]	@ zero_extendqisi2
 6769 14b0 4C49     		ldr	r1, .L467+116
 6770 14b2 2046     		mov	r0, r4
 6771 14b4 FFF7FEFF 		bl	sprintf
 6772              	.LVL536:
1356:main.c        ****                     escribeDisplay1(displayStr); 
 6773              		.loc 1 1356 0
 6774 14b8 2046     		mov	r0, r4
 6775 14ba FFF7FEFF 		bl	escribeDisplay1
 6776              	.LVL537:
1357:main.c        ****                     sprintf(displayStr,"t14.txt=\"%02u:%02u\"",Programas[Programa-1].rampas[8].Hora
 6777              		.loc 1 1357 0
 6778 14be 3378     		ldrb	r3, [r6]	@ zero_extendqisi2
 6779 14c0 013B     		subs	r3, r3, #1
 6780 14c2 9900     		lsls	r1, r3, #2
 6781 14c4 C818     		adds	r0, r1, r3
 6782 14c6 4201     		lsls	r2, r0, #5
 6783 14c8 2A44     		add	r2, r2, r5
 6784 14ca 92F84430 		ldrb	r3, [r2, #68]	@ zero_extendqisi2
 6785 14ce 92F84320 		ldrb	r2, [r2, #67]	@ zero_extendqisi2
 6786 14d2 4549     		ldr	r1, .L467+120
 6787 14d4 2046     		mov	r0, r4
 6788 14d6 FFF7FEFF 		bl	sprintf
 6789              	.LVL538:
1358:main.c        ****                     escribeDisplay1(displayStr); 
 6790              		.loc 1 1358 0
 6791 14da 2046     		mov	r0, r4
 6792 14dc FFF7FEFF 		bl	escribeDisplay1
 6793              	.LVL539:
ARM GAS  C:\Users\JPELEC~1\AppData\Local\Temp\ccEetrge.s 			page 153


1359:main.c        ****                     sprintf(displayStr,"t15.txt=\"%02u:%02u\"",Programas[Programa-1].rampas[9].Hora
 6794              		.loc 1 1359 0
 6795 14e0 3378     		ldrb	r3, [r6]	@ zero_extendqisi2
 6796 14e2 013B     		subs	r3, r3, #1
 6797 14e4 9900     		lsls	r1, r3, #2
 6798 14e6 C818     		adds	r0, r1, r3
 6799 14e8 4201     		lsls	r2, r0, #5
 6800 14ea 2A44     		add	r2, r2, r5
 6801 14ec 92F84C30 		ldrb	r3, [r2, #76]	@ zero_extendqisi2
 6802 14f0 92F84B20 		ldrb	r2, [r2, #75]	@ zero_extendqisi2
 6803 14f4 3D49     		ldr	r1, .L467+124
 6804 14f6 2046     		mov	r0, r4
 6805 14f8 FFF7FEFF 		bl	sprintf
 6806              	.LVL540:
1360:main.c        ****                     escribeDisplay1(displayStr);     
 6807              		.loc 1 1360 0
 6808 14fc 2046     		mov	r0, r4
 6809 14fe FFF7FEFF 		bl	escribeDisplay1
 6810              	.LVL541:
1361:main.c        ****                     dibujaGrafico();
 6811              		.loc 1 1361 0
 6812 1502 FFF7FEFF 		bl	dibujaGrafico
 6813              	.LVL542:
1362:main.c        ****                     dibujo=ON;
 6814              		.loc 1 1362 0
 6815 1506 0122     		movs	r2, #1
 6816 1508 2D4B     		ldr	r3, .L467+80
 6817 150a 1A80     		strh	r2, [r3]	@ movhi
 6818 150c 02E0     		b	.L364
 6819              	.L365:
1363:main.c        ****                 }else{
1364:main.c        ****                     escribeDisplay1("t5.txt=\"GRAFICA DE RAMPA PROGRAMADA\"");      
 6820              		.loc 1 1364 0
 6821 150e 3848     		ldr	r0, .L467+128
 6822 1510 FFF7FEFF 		bl	escribeDisplay1
 6823              	.LVL543:
 6824              	.L364:
1365:main.c        ****                 }
1366:main.c        ****             }
1367:main.c        ****         }
1368:main.c        ****     
1369:main.c        ****         sprintf(displayStr,"t0.txt=\"Pasos Programados %02u; Paso: %02u\"",Segmentos,CicloLibre);
 6825              		.loc 1 1369 0
 6826 1514 174C     		ldr	r4, .L467+4
 6827 1516 374B     		ldr	r3, .L467+132
 6828 1518 1B78     		ldrb	r3, [r3]	@ zero_extendqisi2
 6829 151a 264A     		ldr	r2, .L467+68
 6830 151c 1278     		ldrb	r2, [r2]	@ zero_extendqisi2
 6831 151e 3649     		ldr	r1, .L467+136
 6832 1520 2046     		mov	r0, r4
 6833 1522 FFF7FEFF 		bl	sprintf
 6834              	.LVL544:
1370:main.c        ****         escribeDisplay2(displayStr);
 6835              		.loc 1 1370 0
 6836 1526 2046     		mov	r0, r4
 6837 1528 FFF7FEFF 		bl	escribeDisplay2
 6838              	.LVL545:
ARM GAS  C:\Users\JPELEC~1\AppData\Local\Temp\ccEetrge.s 			page 154


1371:main.c        ****         GuardaEEPROM=OFF;
 6839              		.loc 1 1371 0
 6840 152c 0022     		movs	r2, #0
 6841 152e 334B     		ldr	r3, .L467+140
 6842 1530 1A80     		strh	r2, [r3]	@ movhi
1372:main.c        ****       
1373:main.c        ****         if(Rx_Buffer[4]>0x00 && Rx_Buffer[4]<11){//Personalizados
 6843              		.loc 1 1373 0
 6844 1532 334B     		ldr	r3, .L467+144
 6845 1534 1B79     		ldrb	r3, [r3, #4]	@ zero_extendqisi2
 6846 1536 013B     		subs	r3, r3, #1
 6847 1538 DBB2     		uxtb	r3, r3
 6848 153a 092B     		cmp	r3, #9
 6849 153c 00F29B80 		bhi	.L366
1374:main.c        ****             if(CicloLibre>1){
 6850              		.loc 1 1374 0
 6851 1540 2C4B     		ldr	r3, .L467+132
 6852 1542 1A78     		ldrb	r2, [r3]	@ zero_extendqisi2
 6853 1544 012A     		cmp	r2, #1
 6854 1546 5FD9     		bls	.L367
1375:main.c        ****                 sprintf(displayStr,"t2.txt=\"TA:%04u°C\"",Programas[Programa-1].rampas[CicloLibre-
 6855              		.loc 1 1375 0
 6856 1548 184B     		ldr	r3, .L467+60
 6857 154a 1B78     		ldrb	r3, [r3]	@ zero_extendqisi2
 6858 154c 013B     		subs	r3, r3, #1
 6859 154e 023A     		subs	r2, r2, #2
 6860 1550 03EB8303 		add	r3, r3, r3, lsl #2
 6861 1554 9900     		lsls	r1, r3, #2
 6862 1556 0A44     		add	r2, r2, r1
 6863 1558 154B     		ldr	r3, .L467+64
 6864 155a 03EBC202 		add	r2, r3, r2, lsl #3
 6865 155e D288     		ldrh	r2, [r2, #6]
 6866 1560 2849     		ldr	r1, .L467+148
 6867 1562 2046     		mov	r0, r4
 6868 1564 FFF7FEFF 		bl	sprintf
 6869              	.LVL546:
1376:main.c        ****                 escribeDisplay2(displayStr); 
 6870              		.loc 1 1376 0
 6871 1568 2046     		mov	r0, r4
 6872 156a FFF7FEFF 		bl	escribeDisplay2
 6873              	.LVL547:
 6874 156e 55E0     		b	.L368
 6875              	.L468:
 6876              		.align	2
 6877              	.L467:
 6878 1570 F4020000 		.word	.LC49
 6879 1574 00000000 		.word	displayStr
 6880 1578 00000000 		.word	coldJnTemp
 6881 157c 04030000 		.word	.LC50
 6882 1580 00000000 		.word	hotJnCount
 6883 1584 14030000 		.word	.LC51
 6884 1588 00000000 		.word	Temperatura
 6885 158c 00000000 		.word	V0
 6886 1590 24030000 		.word	.LC52
 6887 1594 00000000 		.word	tcTemp
 6888 1598 1F85EB51 		.word	1374389535
 6889 159c 40030000 		.word	.LC53
ARM GAS  C:\Users\JPELEC~1\AppData\Local\Temp\ccEetrge.s 			page 155


 6890 15a0 00000000 		.word	Menu
 6891 15a4 00000000 		.word	flagBorrado
 6892 15a8 00000000 		.word	i
 6893 15ac 00000000 		.word	Programa
 6894 15b0 00000000 		.word	Programas
 6895 15b4 00000000 		.word	Segmentos
 6896 15b8 00000000 		.word	Menu2
 6897 15bc 00020000 		.word	.LC32
 6898 15c0 00000000 		.word	dibujo
 6899 15c4 54030000 		.word	.LC54
 6900 15c8 88030000 		.word	.LC55
 6901 15cc 9C030000 		.word	.LC56
 6902 15d0 B0030000 		.word	.LC57
 6903 15d4 C4030000 		.word	.LC58
 6904 15d8 D8030000 		.word	.LC59
 6905 15dc EC030000 		.word	.LC60
 6906 15e0 00040000 		.word	.LC61
 6907 15e4 14040000 		.word	.LC62
 6908 15e8 28040000 		.word	.LC63
 6909 15ec 3C040000 		.word	.LC64
 6910 15f0 50040000 		.word	.LC65
 6911 15f4 00000000 		.word	CicloLibre
 6912 15f8 78040000 		.word	.LC66
 6913 15fc 00000000 		.word	GuardaEEPROM
 6914 1600 00000000 		.word	Rx_Buffer
 6915 1604 A4040000 		.word	.LC67
 6916              	.L367:
1377:main.c        ****             }else{
1378:main.c        ****                 sprintf(displayStr,"t2.txt=\"TA:---\"");
 6917              		.loc 1 1378 0
 6918 1608 7C4D     		ldr	r5, .L469
 6919 160a 7D4C     		ldr	r4, .L469+4
 6920 160c 0FCC     		ldmia	r4!, {r0, r1, r2, r3}
 6921 160e 2860     		str	r0, [r5]	@ unaligned
 6922 1610 6960     		str	r1, [r5, #4]	@ unaligned
 6923 1612 AA60     		str	r2, [r5, #8]	@ unaligned
 6924 1614 EB60     		str	r3, [r5, #12]	@ unaligned
1379:main.c        ****                 escribeDisplay2(displayStr); 
 6925              		.loc 1 1379 0
 6926 1616 2846     		mov	r0, r5
 6927 1618 FFF7FEFF 		bl	escribeDisplay2
 6928              	.LVL548:
 6929              	.L368:
1380:main.c        ****             }
1381:main.c        ****             sprintf(displayStr,"temp.txt=\"T:%04u°C\"",Programas[Programa-1].rampas[Rx_Buffer[4]-1
 6930              		.loc 1 1381 0
 6931 161c 794E     		ldr	r6, .L469+8
 6932 161e 3278     		ldrb	r2, [r6]	@ zero_extendqisi2
 6933 1620 013A     		subs	r2, r2, #1
 6934 1622 794C     		ldr	r4, .L469+12
 6935 1624 2379     		ldrb	r3, [r4, #4]	@ zero_extendqisi2
 6936 1626 013B     		subs	r3, r3, #1
 6937 1628 784D     		ldr	r5, .L469+16
 6938 162a 02EB8202 		add	r2, r2, r2, lsl #2
 6939 162e 9100     		lsls	r1, r2, #2
 6940 1630 0B44     		add	r3, r3, r1
 6941 1632 05EBC303 		add	r3, r5, r3, lsl #3
ARM GAS  C:\Users\JPELEC~1\AppData\Local\Temp\ccEetrge.s 			page 156


 6942 1636 714F     		ldr	r7, .L469
 6943 1638 DA88     		ldrh	r2, [r3, #6]
 6944 163a 7549     		ldr	r1, .L469+20
 6945 163c 3846     		mov	r0, r7
 6946 163e FFF7FEFF 		bl	sprintf
 6947              	.LVL549:
1382:main.c        ****             escribeDisplay2(displayStr); 
 6948              		.loc 1 1382 0
 6949 1642 3846     		mov	r0, r7
 6950 1644 FFF7FEFF 		bl	escribeDisplay2
 6951              	.LVL550:
1383:main.c        ****             sprintf(displayStr,"tiempo.txt=\"%02u:%02u \"",Programas[Programa-1].rampas[Rx_Buffer[4
 6952              		.loc 1 1383 0
 6953 1648 3378     		ldrb	r3, [r6]	@ zero_extendqisi2
 6954 164a 013B     		subs	r3, r3, #1
 6955 164c 2179     		ldrb	r1, [r4, #4]	@ zero_extendqisi2
 6956 164e 0139     		subs	r1, r1, #1
 6957 1650 9800     		lsls	r0, r3, #2
 6958 1652 C618     		adds	r6, r0, r3
 6959 1654 B200     		lsls	r2, r6, #2
 6960 1656 0A44     		add	r2, r2, r1
 6961 1658 05EBC202 		add	r2, r5, r2, lsl #3
 6962 165c 1379     		ldrb	r3, [r2, #4]	@ zero_extendqisi2
 6963 165e D278     		ldrb	r2, [r2, #3]	@ zero_extendqisi2
 6964 1660 6C49     		ldr	r1, .L469+24
 6965 1662 3846     		mov	r0, r7
 6966 1664 FFF7FEFF 		bl	sprintf
 6967              	.LVL551:
1384:main.c        ****             escribeDisplay2(displayStr); 
 6968              		.loc 1 1384 0
 6969 1668 3846     		mov	r0, r7
 6970 166a FFF7FEFF 		bl	escribeDisplay2
 6971              	.LVL552:
1385:main.c        ****             CicloLibre=Rx_Buffer[4];
 6972              		.loc 1 1385 0
 6973 166e 2279     		ldrb	r2, [r4, #4]	@ zero_extendqisi2
 6974 1670 694B     		ldr	r3, .L469+28
 6975 1672 1A70     		strb	r2, [r3]
 6976 1674 73E0     		b	.L369
 6977              	.L366:
1386:main.c        ****         }else if(CicloLibre==0x00){
 6978              		.loc 1 1386 0
 6979 1676 684B     		ldr	r3, .L469+28
 6980 1678 1B78     		ldrb	r3, [r3]	@ zero_extendqisi2
 6981 167a 13BB     		cbnz	r3, .L370
1387:main.c        ****             sprintf(displayStr,"t2.txt=\"TA:---\"");
 6982              		.loc 1 1387 0
 6983 167c 5F4C     		ldr	r4, .L469
 6984 167e 604D     		ldr	r5, .L469+4
 6985 1680 0FCD     		ldmia	r5!, {r0, r1, r2, r3}
 6986 1682 2060     		str	r0, [r4]	@ unaligned
 6987 1684 6160     		str	r1, [r4, #4]	@ unaligned
 6988 1686 A260     		str	r2, [r4, #8]	@ unaligned
 6989 1688 E360     		str	r3, [r4, #12]	@ unaligned
1388:main.c        ****             escribeDisplay2(displayStr); 
 6990              		.loc 1 1388 0
 6991 168a 2046     		mov	r0, r4
ARM GAS  C:\Users\JPELEC~1\AppData\Local\Temp\ccEetrge.s 			page 157


 6992 168c FFF7FEFF 		bl	escribeDisplay2
 6993              	.LVL553:
1389:main.c        ****             sprintf(displayStr,"temp.txt=\"T: --\"");
 6994              		.loc 1 1389 0
 6995 1690 624D     		ldr	r5, .L469+32
 6996 1692 0FCD     		ldmia	r5!, {r0, r1, r2, r3}
 6997 1694 2060     		str	r0, [r4]	@ unaligned
 6998 1696 6160     		str	r1, [r4, #4]	@ unaligned
 6999 1698 A260     		str	r2, [r4, #8]	@ unaligned
 7000 169a E360     		str	r3, [r4, #12]	@ unaligned
 7001 169c 2B78     		ldrb	r3, [r5]	@ zero_extendqisi2
 7002 169e 2374     		strb	r3, [r4, #16]
1390:main.c        ****             escribeDisplay2(displayStr); 
 7003              		.loc 1 1390 0
 7004 16a0 2046     		mov	r0, r4
 7005 16a2 FFF7FEFF 		bl	escribeDisplay2
 7006              	.LVL554:
1391:main.c        ****             sprintf(displayStr,"tiempo.txt=\"--:--\"");
 7007              		.loc 1 1391 0
 7008 16a6 5E4D     		ldr	r5, .L469+36
 7009 16a8 0FCD     		ldmia	r5!, {r0, r1, r2, r3}
 7010 16aa 2060     		str	r0, [r4]	@ unaligned
 7011 16ac 6160     		str	r1, [r4, #4]	@ unaligned
 7012 16ae A260     		str	r2, [r4, #8]	@ unaligned
 7013 16b0 E360     		str	r3, [r4, #12]	@ unaligned
 7014 16b2 2A88     		ldrh	r2, [r5]	@ unaligned
 7015 16b4 AB78     		ldrb	r3, [r5, #2]	@ zero_extendqisi2
 7016 16b6 2282     		strh	r2, [r4, #16]	@ unaligned
 7017 16b8 A374     		strb	r3, [r4, #18]
1392:main.c        ****             escribeDisplay2(displayStr); 
 7018              		.loc 1 1392 0
 7019 16ba 2046     		mov	r0, r4
 7020 16bc FFF7FEFF 		bl	escribeDisplay2
 7021              	.LVL555:
 7022 16c0 4DE0     		b	.L369
 7023              	.L370:
1393:main.c        ****         }else if(CicloLibre>0 && CicloLibre<11){
 7024              		.loc 1 1393 0
 7025 16c2 5A1E     		subs	r2, r3, #1
 7026 16c4 D2B2     		uxtb	r2, r2
 7027 16c6 092A     		cmp	r2, #9
 7028 16c8 49D8     		bhi	.L369
1394:main.c        ****             if(CicloLibre>1){
 7029              		.loc 1 1394 0
 7030 16ca 012B     		cmp	r3, #1
 7031 16cc 14D9     		bls	.L371
1395:main.c        ****                 sprintf(displayStr,"t2.txt=\"TA:%04u°C\"",Programas[Programa-1].rampas[CicloLibre-
 7032              		.loc 1 1395 0
 7033 16ce 4D4A     		ldr	r2, .L469+8
 7034 16d0 1278     		ldrb	r2, [r2]	@ zero_extendqisi2
 7035 16d2 013A     		subs	r2, r2, #1
 7036 16d4 023B     		subs	r3, r3, #2
 7037 16d6 02EB8202 		add	r2, r2, r2, lsl #2
 7038 16da 9100     		lsls	r1, r2, #2
 7039 16dc 0B44     		add	r3, r3, r1
 7040 16de 4B4A     		ldr	r2, .L469+16
 7041 16e0 02EBC303 		add	r3, r2, r3, lsl #3
ARM GAS  C:\Users\JPELEC~1\AppData\Local\Temp\ccEetrge.s 			page 158


 7042 16e4 454C     		ldr	r4, .L469
 7043 16e6 DA88     		ldrh	r2, [r3, #6]
 7044 16e8 4E49     		ldr	r1, .L469+40
 7045 16ea 2046     		mov	r0, r4
 7046 16ec FFF7FEFF 		bl	sprintf
 7047              	.LVL556:
1396:main.c        ****                 escribeDisplay2(displayStr); 
 7048              		.loc 1 1396 0
 7049 16f0 2046     		mov	r0, r4
 7050 16f2 FFF7FEFF 		bl	escribeDisplay2
 7051              	.LVL557:
 7052 16f6 09E0     		b	.L372
 7053              	.L371:
1397:main.c        ****             }else{
1398:main.c        ****                 sprintf(displayStr,"t2.txt=\"TA:---\"");
 7054              		.loc 1 1398 0
 7055 16f8 404D     		ldr	r5, .L469
 7056 16fa 414C     		ldr	r4, .L469+4
 7057 16fc 0FCC     		ldmia	r4!, {r0, r1, r2, r3}
 7058 16fe 2860     		str	r0, [r5]	@ unaligned
 7059 1700 6960     		str	r1, [r5, #4]	@ unaligned
 7060 1702 AA60     		str	r2, [r5, #8]	@ unaligned
 7061 1704 EB60     		str	r3, [r5, #12]	@ unaligned
1399:main.c        ****                 escribeDisplay2(displayStr); 
 7062              		.loc 1 1399 0
 7063 1706 2846     		mov	r0, r5
 7064 1708 FFF7FEFF 		bl	escribeDisplay2
 7065              	.LVL558:
 7066              	.L372:
1400:main.c        ****             }
1401:main.c        ****             sprintf(displayStr,"temp.txt=\"T:%04u°C\"",Programas[Programa-1].rampas[CicloLibre-1].
 7067              		.loc 1 1401 0
 7068 170c 3D4E     		ldr	r6, .L469+8
 7069 170e 3278     		ldrb	r2, [r6]	@ zero_extendqisi2
 7070 1710 013A     		subs	r2, r2, #1
 7071 1712 414D     		ldr	r5, .L469+28
 7072 1714 2B78     		ldrb	r3, [r5]	@ zero_extendqisi2
 7073 1716 013B     		subs	r3, r3, #1
 7074 1718 3C4C     		ldr	r4, .L469+16
 7075 171a 02EB8202 		add	r2, r2, r2, lsl #2
 7076 171e 9100     		lsls	r1, r2, #2
 7077 1720 0B44     		add	r3, r3, r1
 7078 1722 04EBC303 		add	r3, r4, r3, lsl #3
 7079 1726 354F     		ldr	r7, .L469
 7080 1728 DA88     		ldrh	r2, [r3, #6]
 7081 172a 3949     		ldr	r1, .L469+20
 7082 172c 3846     		mov	r0, r7
 7083 172e FFF7FEFF 		bl	sprintf
 7084              	.LVL559:
1402:main.c        ****             escribeDisplay2(displayStr); 
 7085              		.loc 1 1402 0
 7086 1732 3846     		mov	r0, r7
 7087 1734 FFF7FEFF 		bl	escribeDisplay2
 7088              	.LVL560:
1403:main.c        ****             sprintf(displayStr,"tiempo.txt=\"%02u:%02u \"",Programas[Programa-1].rampas[CicloLibre-
 7089              		.loc 1 1403 0
 7090 1738 3378     		ldrb	r3, [r6]	@ zero_extendqisi2
ARM GAS  C:\Users\JPELEC~1\AppData\Local\Temp\ccEetrge.s 			page 159


 7091 173a 013B     		subs	r3, r3, #1
 7092 173c 2978     		ldrb	r1, [r5]	@ zero_extendqisi2
 7093 173e 0139     		subs	r1, r1, #1
 7094 1740 9800     		lsls	r0, r3, #2
 7095 1742 C518     		adds	r5, r0, r3
 7096 1744 AA00     		lsls	r2, r5, #2
 7097 1746 0A44     		add	r2, r2, r1
 7098 1748 04EBC202 		add	r2, r4, r2, lsl #3
 7099 174c 1379     		ldrb	r3, [r2, #4]	@ zero_extendqisi2
 7100 174e D278     		ldrb	r2, [r2, #3]	@ zero_extendqisi2
 7101 1750 3049     		ldr	r1, .L469+24
 7102 1752 3846     		mov	r0, r7
 7103 1754 FFF7FEFF 		bl	sprintf
 7104              	.LVL561:
1404:main.c        ****             escribeDisplay2(displayStr); 
 7105              		.loc 1 1404 0
 7106 1758 3846     		mov	r0, r7
 7107 175a FFF7FEFF 		bl	escribeDisplay2
 7108              	.LVL562:
 7109              	.L369:
1405:main.c        ****         }
1406:main.c        ****       
1407:main.c        ****         if(Rx_Buffer[4]==0x20 && CicloLibre>0){//20, Temperatura
 7110              		.loc 1 1407 0
 7111 175e 2A4B     		ldr	r3, .L469+12
 7112 1760 1B79     		ldrb	r3, [r3, #4]	@ zero_extendqisi2
 7113 1762 202B     		cmp	r3, #32
 7114 1764 0FD1     		bne	.L373
 7115              		.loc 1 1407 0 is_stmt 0 discriminator 1
 7116 1766 2C4B     		ldr	r3, .L469+28
 7117 1768 1B78     		ldrb	r3, [r3]	@ zero_extendqisi2
 7118 176a 63B1     		cbz	r3, .L373
1408:main.c        ****             escribeDisplay2("page Temperatura");
 7119              		.loc 1 1408 0 is_stmt 1
 7120 176c 2E48     		ldr	r0, .L469+44
 7121 176e FFF7FEFF 		bl	escribeDisplay2
 7122              	.LVL563:
1409:main.c        ****             rampa=ON;
 7123              		.loc 1 1409 0
 7124 1772 0123     		movs	r3, #1
 7125 1774 2D4A     		ldr	r2, .L469+48
 7126 1776 1380     		strh	r3, [r2]	@ movhi
1410:main.c        ****             x1=ON;
 7127              		.loc 1 1410 0
 7128 1778 2D4A     		ldr	r2, .L469+52
 7129 177a 1380     		strh	r3, [r2]	@ movhi
1411:main.c        ****             x10=OFF;
 7130              		.loc 1 1411 0
 7131 177c 0023     		movs	r3, #0
 7132 177e 2D4A     		ldr	r2, .L469+56
 7133 1780 1380     		strh	r3, [r2]	@ movhi
1412:main.c        ****             x100=OFF;
 7134              		.loc 1 1412 0
 7135 1782 2D4A     		ldr	r2, .L469+60
 7136 1784 1380     		strh	r3, [r2]	@ movhi
 7137              	.L373:
1413:main.c        ****         }
ARM GAS  C:\Users\JPELEC~1\AppData\Local\Temp\ccEetrge.s 			page 160


1414:main.c        ****       
1415:main.c        ****         if(Rx_Buffer[4]==0x40 && CicloLibre>0){//40, Tiempo
 7138              		.loc 1 1415 0
 7139 1786 204B     		ldr	r3, .L469+12
 7140 1788 1B79     		ldrb	r3, [r3, #4]	@ zero_extendqisi2
 7141 178a 402B     		cmp	r3, #64
 7142 178c 08D1     		bne	.L374
 7143              		.loc 1 1415 0 is_stmt 0 discriminator 1
 7144 178e 224B     		ldr	r3, .L469+28
 7145 1790 1B78     		ldrb	r3, [r3]	@ zero_extendqisi2
 7146 1792 2BB1     		cbz	r3, .L374
1416:main.c        ****             escribeDisplay2("page Tiempo");
 7147              		.loc 1 1416 0 is_stmt 1
 7148 1794 2948     		ldr	r0, .L469+64
 7149 1796 FFF7FEFF 		bl	escribeDisplay2
 7150              	.LVL564:
1417:main.c        ****             rampa=ON;
 7151              		.loc 1 1417 0
 7152 179a 0122     		movs	r2, #1
 7153 179c 234B     		ldr	r3, .L469+48
 7154 179e 1A80     		strh	r2, [r3]	@ movhi
 7155              	.L374:
1418:main.c        ****         }
1419:main.c        ****       
1420:main.c        ****         if(Rx_Buffer[4]==0x50){//50, Iniciar
 7156              		.loc 1 1420 0
 7157 17a0 194B     		ldr	r3, .L469+12
 7158 17a2 1B79     		ldrb	r3, [r3, #4]	@ zero_extendqisi2
 7159 17a4 502B     		cmp	r3, #80
 7160 17a6 0ED1     		bne	.L375
1421:main.c        ****             rampa=OFF;
 7161              		.loc 1 1421 0
 7162 17a8 0023     		movs	r3, #0
 7163 17aa 204A     		ldr	r2, .L469+48
 7164 17ac 1380     		strh	r3, [r2]	@ movhi
1422:main.c        ****             flagRampa=ON;
 7165              		.loc 1 1422 0
 7166 17ae 0121     		movs	r1, #1
 7167 17b0 234A     		ldr	r2, .L469+68
 7168 17b2 1180     		strh	r1, [r2]	@ movhi
1423:main.c        ****             TempeInicial=Temperatura;
 7169              		.loc 1 1423 0
 7170 17b4 234A     		ldr	r2, .L469+72
 7171 17b6 1168     		ldr	r1, [r2]	@ float
 7172 17b8 234A     		ldr	r2, .L469+76
 7173 17ba 1160     		str	r1, [r2]	@ float
1424:main.c        ****             flagFinalizo=OFF;
 7174              		.loc 1 1424 0
 7175 17bc 234A     		ldr	r2, .L469+80
 7176 17be 1380     		strh	r3, [r2]	@ movhi
1425:main.c        ****             escribeDisplay2("page Funcionamiento");
 7177              		.loc 1 1425 0
 7178 17c0 2348     		ldr	r0, .L469+84
 7179 17c2 FFF7FEFF 		bl	escribeDisplay2
 7180              	.LVL565:
 7181              	.L375:
1426:main.c        ****         }
ARM GAS  C:\Users\JPELEC~1\AppData\Local\Temp\ccEetrge.s 			page 161


1427:main.c        ****     
1428:main.c        ****         if(Rx_Buffer[4]==0x60){//60, Regresar
 7182              		.loc 1 1428 0
 7183 17c6 104B     		ldr	r3, .L469+12
 7184 17c8 1B79     		ldrb	r3, [r3, #4]	@ zero_extendqisi2
 7185 17ca 602B     		cmp	r3, #96
 7186 17cc 0AD1     		bne	.L376
1429:main.c        ****             rampa=OFF;
 7187              		.loc 1 1429 0
 7188 17ce 0024     		movs	r4, #0
 7189 17d0 164B     		ldr	r3, .L469+48
 7190 17d2 1C80     		strh	r4, [r3]	@ movhi
1430:main.c        ****             escribeDisplay2("page MenuPrincipal");
 7191              		.loc 1 1430 0
 7192 17d4 1F48     		ldr	r0, .L469+88
 7193 17d6 FFF7FEFF 		bl	escribeDisplay2
 7194              	.LVL566:
1431:main.c        ****             escribeDisplay1("page Bienvenida");
 7195              		.loc 1 1431 0
 7196 17da 1F48     		ldr	r0, .L469+92
 7197 17dc FFF7FEFF 		bl	escribeDisplay1
 7198              	.LVL567:
1432:main.c        ****             CicloLibre=0;
 7199              		.loc 1 1432 0
 7200 17e0 0D4B     		ldr	r3, .L469+28
 7201 17e2 1C70     		strb	r4, [r3]
 7202              	.L376:
1433:main.c        ****         }
1434:main.c        ****         
1435:main.c        ****         if(Rx_Buffer[4]==0x70){//70, Borrar  
 7203              		.loc 1 1435 0
 7204 17e4 084B     		ldr	r3, .L469+12
 7205 17e6 1B79     		ldrb	r3, [r3, #4]	@ zero_extendqisi2
 7206 17e8 702B     		cmp	r3, #112
 7207 17ea 40F0A380 		bne	.L358
1436:main.c        ****             rampa=OFF;
 7208              		.loc 1 1436 0
 7209 17ee 0023     		movs	r3, #0
 7210 17f0 0E4A     		ldr	r2, .L469+48
 7211 17f2 1380     		strh	r3, [r2]	@ movhi
1437:main.c        ****             for(i=0;i<10;i++){
 7212              		.loc 1 1437 0
 7213 17f4 194A     		ldr	r2, .L469+96
 7214 17f6 1370     		strb	r3, [r2]
 7215 17f8 95E0     		b	.L377
 7216              	.L470:
 7217 17fa 00BF     		.align	2
 7218              	.L469:
 7219 17fc 00000000 		.word	displayStr
 7220 1800 B8040000 		.word	.LC68
 7221 1804 00000000 		.word	Programa
 7222 1808 00000000 		.word	Rx_Buffer
 7223 180c 00000000 		.word	Programas
 7224 1810 C8040000 		.word	.LC69
 7225 1814 E0040000 		.word	.LC70
 7226 1818 00000000 		.word	CicloLibre
 7227 181c F8040000 		.word	.LC71
ARM GAS  C:\Users\JPELEC~1\AppData\Local\Temp\ccEetrge.s 			page 162


 7228 1820 0C050000 		.word	.LC72
 7229 1824 A4040000 		.word	.LC67
 7230 1828 20050000 		.word	.LC73
 7231 182c 00000000 		.word	rampa
 7232 1830 00000000 		.word	x1
 7233 1834 00000000 		.word	x10
 7234 1838 00000000 		.word	x100
 7235 183c 34050000 		.word	.LC74
 7236 1840 00000000 		.word	flagRampa
 7237 1844 00000000 		.word	Temperatura
 7238 1848 00000000 		.word	TempeInicial
 7239 184c 00000000 		.word	flagFinalizo
 7240 1850 40050000 		.word	.LC75
 7241 1854 7C010000 		.word	.LC22
 7242 1858 70000000 		.word	.LC6
 7243 185c 00000000 		.word	i
 7244              	.L378:
1438:main.c        ****                 LED_Write(1);
 7245              		.loc 1 1438 0 discriminator 3
 7246 1860 0120     		movs	r0, #1
 7247 1862 FFF7FEFF 		bl	LED_Write
 7248              	.LVL568:
1439:main.c        ****                 CyDelay(50);
 7249              		.loc 1 1439 0 discriminator 3
 7250 1866 3220     		movs	r0, #50
 7251 1868 FFF7FEFF 		bl	CyDelay
 7252              	.LVL569:
1440:main.c        ****                 LED_Write(0);
 7253              		.loc 1 1440 0 discriminator 3
 7254 186c 0020     		movs	r0, #0
 7255 186e FFF7FEFF 		bl	LED_Write
 7256              	.LVL570:
1441:main.c        ****                 CyDelay(50);
 7257              		.loc 1 1441 0 discriminator 3
 7258 1872 3220     		movs	r0, #50
 7259 1874 FFF7FEFF 		bl	CyDelay
 7260              	.LVL571:
1442:main.c        ****                 Programas[Programa-1].rampas[i].Horas=0;
 7261              		.loc 1 1442 0 discriminator 3
 7262 1878 AF4D     		ldr	r5, .L471
 7263 187a 2B78     		ldrb	r3, [r5]	@ zero_extendqisi2
 7264 187c 013B     		subs	r3, r3, #1
 7265 187e AF4C     		ldr	r4, .L471+4
 7266 1880 2278     		ldrb	r2, [r4]	@ zero_extendqisi2
 7267 1882 AF4E     		ldr	r6, .L471+8
 7268 1884 9800     		lsls	r0, r3, #2
 7269 1886 1844     		add	r0, r0, r3
 7270 1888 8100     		lsls	r1, r0, #2
 7271 188a 1144     		add	r1, r1, r2
 7272 188c 06EBC101 		add	r1, r6, r1, lsl #3
 7273 1890 0027     		movs	r7, #0
 7274 1892 CF70     		strb	r7, [r1, #3]
1443:main.c        ****                 Programas[Programa-1].rampas[i].Minutos=0;
 7275              		.loc 1 1443 0 discriminator 3
 7276 1894 0F71     		strb	r7, [r1, #4]
1444:main.c        ****                 EEPROM_WriteByte(0,103+((Programa-1)*50)+((i)*5));
 7277              		.loc 1 1444 0 discriminator 3
ARM GAS  C:\Users\JPELEC~1\AppData\Local\Temp\ccEetrge.s 			page 163


 7278 1896 03EB8303 		add	r3, r3, r3, lsl #2
 7279 189a 03EB8303 		add	r3, r3, r3, lsl #2
 7280 189e 5900     		lsls	r1, r3, #1
 7281 18a0 02EB8202 		add	r2, r2, r2, lsl #2
 7282 18a4 1144     		add	r1, r1, r2
 7283 18a6 6731     		adds	r1, r1, #103
 7284 18a8 89B2     		uxth	r1, r1
 7285 18aa 3846     		mov	r0, r7
 7286 18ac FFF7FEFF 		bl	EEPROM_WriteByte
 7287              	.LVL572:
1445:main.c        ****                 EEPROM_WriteByte(0,104+((Programa-1)*50)+((i)*5));
 7288              		.loc 1 1445 0 discriminator 3
 7289 18b0 2B78     		ldrb	r3, [r5]	@ zero_extendqisi2
 7290 18b2 013B     		subs	r3, r3, #1
 7291 18b4 2178     		ldrb	r1, [r4]	@ zero_extendqisi2
 7292 18b6 01EB8101 		add	r1, r1, r1, lsl #2
 7293 18ba 03EB8303 		add	r3, r3, r3, lsl #2
 7294 18be 03EB8303 		add	r3, r3, r3, lsl #2
 7295 18c2 5A00     		lsls	r2, r3, #1
 7296 18c4 1144     		add	r1, r1, r2
 7297 18c6 6831     		adds	r1, r1, #104
 7298 18c8 89B2     		uxth	r1, r1
 7299 18ca 3846     		mov	r0, r7
 7300 18cc FFF7FEFF 		bl	EEPROM_WriteByte
 7301              	.LVL573:
1446:main.c        ****                 Programas[Programa-1].rampas[i].Temperatura=10;
 7302              		.loc 1 1446 0 discriminator 3
 7303 18d0 2B78     		ldrb	r3, [r5]	@ zero_extendqisi2
 7304 18d2 013B     		subs	r3, r3, #1
 7305 18d4 2278     		ldrb	r2, [r4]	@ zero_extendqisi2
 7306 18d6 03EB8300 		add	r0, r3, r3, lsl #2
 7307 18da 8100     		lsls	r1, r0, #2
 7308 18dc 1144     		add	r1, r1, r2
 7309 18de 06EBC101 		add	r1, r6, r1, lsl #3
 7310 18e2 0A26     		movs	r6, #10
 7311 18e4 CE80     		strh	r6, [r1, #6]	@ movhi
1447:main.c        ****                 EEPROM_WriteByte(10,100+((Programa-1)*50)+((i)*5));
 7312              		.loc 1 1447 0 discriminator 3
 7313 18e6 03EB8303 		add	r3, r3, r3, lsl #2
 7314 18ea 03EB8303 		add	r3, r3, r3, lsl #2
 7315 18ee 5900     		lsls	r1, r3, #1
 7316 18f0 02EB8202 		add	r2, r2, r2, lsl #2
 7317 18f4 1144     		add	r1, r1, r2
 7318 18f6 6431     		adds	r1, r1, #100
 7319 18f8 89B2     		uxth	r1, r1
 7320 18fa 3046     		mov	r0, r6
 7321 18fc FFF7FEFF 		bl	EEPROM_WriteByte
 7322              	.LVL574:
1448:main.c        ****                 EEPROM_WriteByte(10,101+((Programa-1)*50)+((i)*5));
 7323              		.loc 1 1448 0 discriminator 3
 7324 1900 2B78     		ldrb	r3, [r5]	@ zero_extendqisi2
 7325 1902 013B     		subs	r3, r3, #1
 7326 1904 2178     		ldrb	r1, [r4]	@ zero_extendqisi2
 7327 1906 01EB8101 		add	r1, r1, r1, lsl #2
 7328 190a 03EB8303 		add	r3, r3, r3, lsl #2
 7329 190e 03EB8303 		add	r3, r3, r3, lsl #2
 7330 1912 5A00     		lsls	r2, r3, #1
ARM GAS  C:\Users\JPELEC~1\AppData\Local\Temp\ccEetrge.s 			page 164


 7331 1914 1144     		add	r1, r1, r2
 7332 1916 6531     		adds	r1, r1, #101
 7333 1918 89B2     		uxth	r1, r1
 7334 191a 3046     		mov	r0, r6
 7335 191c FFF7FEFF 		bl	EEPROM_WriteByte
 7336              	.LVL575:
1437:main.c        ****                 LED_Write(1);
 7337              		.loc 1 1437 0 discriminator 3
 7338 1920 2378     		ldrb	r3, [r4]	@ zero_extendqisi2
 7339 1922 0133     		adds	r3, r3, #1
 7340 1924 2370     		strb	r3, [r4]
 7341              	.L377:
1437:main.c        ****                 LED_Write(1);
 7342              		.loc 1 1437 0 is_stmt 0 discriminator 1
 7343 1926 854B     		ldr	r3, .L471+4
 7344 1928 1B78     		ldrb	r3, [r3]	@ zero_extendqisi2
 7345 192a 092B     		cmp	r3, #9
 7346 192c 98D9     		bls	.L378
1449:main.c        ****             }
1450:main.c        ****             escribeDisplay2("page Eliminado");
 7347              		.loc 1 1450 0 is_stmt 1
 7348 192e 8548     		ldr	r0, .L471+12
 7349 1930 FFF7FEFF 		bl	escribeDisplay2
 7350              	.LVL576:
 7351              	.L358:
1451:main.c        ****         }
1452:main.c        ****    }
1453:main.c        **** //_------------------------------------------------------------------------------------------------
1454:main.c        ****         
1455:main.c        **** //_------------------------------------------------------------------------------------------------
1456:main.c        ****     if(Menu==15){//Menu de Clave Correcta
 7352              		.loc 1 1456 0
 7353 1934 844B     		ldr	r3, .L471+16
 7354 1936 1B78     		ldrb	r3, [r3]	@ zero_extendqisi2
 7355 1938 0F2B     		cmp	r3, #15
 7356 193a 0DD1     		bne	.L379
1457:main.c        ****       if(!entro){
 7357              		.loc 1 1457 0
 7358 193c 834B     		ldr	r3, .L471+20
 7359 193e B3F90030 		ldrsh	r3, [r3]
 7360 1942 33B9     		cbnz	r3, .L380
1458:main.c        ****          CyDelay(2000);
 7361              		.loc 1 1458 0
 7362 1944 4FF4FA60 		mov	r0, #2000
 7363 1948 FFF7FEFF 		bl	CyDelay
 7364              	.LVL577:
1459:main.c        ****          entro=ON;
 7365              		.loc 1 1459 0
 7366 194c 0122     		movs	r2, #1
 7367 194e 7F4B     		ldr	r3, .L471+20
 7368 1950 1A80     		strh	r2, [r3]	@ movhi
 7369              	.L380:
1460:main.c        ****       }
1461:main.c        ****       escribeDisplay2("page MenuPrincipal");
 7370              		.loc 1 1461 0
 7371 1952 7F48     		ldr	r0, .L471+24
 7372 1954 FFF7FEFF 		bl	escribeDisplay2
ARM GAS  C:\Users\JPELEC~1\AppData\Local\Temp\ccEetrge.s 			page 165


 7373              	.LVL578:
 7374              	.L379:
1462:main.c        ****    }
1463:main.c        **** //_------------------------------------------------------------------------------------------------
1464:main.c        **** 
1465:main.c        **** //_------------------------------------------------------------------------------------------------
1466:main.c        ****     if(Menu==16){//Menu de Clave InCorrecta
 7375              		.loc 1 1466 0
 7376 1958 7B4B     		ldr	r3, .L471+16
 7377 195a 1B78     		ldrb	r3, [r3]	@ zero_extendqisi2
 7378 195c 102B     		cmp	r3, #16
 7379 195e 0DD1     		bne	.L381
1467:main.c        ****       if(!entro){
 7380              		.loc 1 1467 0
 7381 1960 7A4B     		ldr	r3, .L471+20
 7382 1962 B3F90030 		ldrsh	r3, [r3]
 7383 1966 33B9     		cbnz	r3, .L382
1468:main.c        ****          CyDelay(2000);
 7384              		.loc 1 1468 0
 7385 1968 4FF4FA60 		mov	r0, #2000
 7386 196c FFF7FEFF 		bl	CyDelay
 7387              	.LVL579:
1469:main.c        ****          entro=ON;
 7388              		.loc 1 1469 0
 7389 1970 0122     		movs	r2, #1
 7390 1972 764B     		ldr	r3, .L471+20
 7391 1974 1A80     		strh	r2, [r3]	@ movhi
 7392              	.L382:
1470:main.c        ****       }
1471:main.c        ****       escribeDisplay2("page Clave");
 7393              		.loc 1 1471 0
 7394 1976 7748     		ldr	r0, .L471+28
 7395 1978 FFF7FEFF 		bl	escribeDisplay2
 7396              	.LVL580:
 7397              	.L381:
1472:main.c        ****    }
1473:main.c        **** //_------------------------------------------------------------------------------------------------
1474:main.c        ****     
1475:main.c        **** //_------------------------------------------------------------------------------------------------
1476:main.c        ****     if(Menu==17){//Menu de Programa Eliminado
 7398              		.loc 1 1476 0
 7399 197c 724B     		ldr	r3, .L471+16
 7400 197e 1B78     		ldrb	r3, [r3]	@ zero_extendqisi2
 7401 1980 112B     		cmp	r3, #17
 7402 1982 0DD1     		bne	.L383
1477:main.c        ****       if(!flagBorrado){
 7403              		.loc 1 1477 0
 7404 1984 744B     		ldr	r3, .L471+32
 7405 1986 B3F90030 		ldrsh	r3, [r3]
 7406 198a 33B9     		cbnz	r3, .L384
1478:main.c        ****          CyDelay(2000);
 7407              		.loc 1 1478 0
 7408 198c 4FF4FA60 		mov	r0, #2000
 7409 1990 FFF7FEFF 		bl	CyDelay
 7410              	.LVL581:
1479:main.c        ****          flagBorrado=ON;
 7411              		.loc 1 1479 0
ARM GAS  C:\Users\JPELEC~1\AppData\Local\Temp\ccEetrge.s 			page 166


 7412 1994 0122     		movs	r2, #1
 7413 1996 704B     		ldr	r3, .L471+32
 7414 1998 1A80     		strh	r2, [r3]	@ movhi
 7415              	.L384:
1480:main.c        ****       }
1481:main.c        ****       escribeDisplay2("page MenuPrincipal");
 7416              		.loc 1 1481 0
 7417 199a 6D48     		ldr	r0, .L471+24
 7418 199c FFF7FEFF 		bl	escribeDisplay2
 7419              	.LVL582:
 7420              	.L383:
1482:main.c        ****    }
1483:main.c        **** //_------------------------------------------------------------------------------------------------
1484:main.c        **** 
1485:main.c        **** //_------------------------------------------------------------------------------------------------
1486:main.c        ****     if(Menu==18){//Menu de Pegunta
 7421              		.loc 1 1486 0
 7422 19a0 694B     		ldr	r3, .L471+16
 7423 19a2 1B78     		ldrb	r3, [r3]	@ zero_extendqisi2
 7424 19a4 122B     		cmp	r3, #18
 7425 19a6 52D1     		bne	.L385
1487:main.c        ****         conteoPregunta=ON;
 7426              		.loc 1 1487 0
 7427 19a8 0122     		movs	r2, #1
 7428 19aa 6C4B     		ldr	r3, .L471+36
 7429 19ac 1A80     		strh	r2, [r3]	@ movhi
1488:main.c        ****         if(tPregunta>10){
 7430              		.loc 1 1488 0
 7431 19ae 6C4B     		ldr	r3, .L471+40
 7432 19b0 1B88     		ldrh	r3, [r3]
 7433 19b2 0A2B     		cmp	r3, #10
 7434 19b4 02D9     		bls	.L386
1489:main.c        ****             escribeDisplay2("page Funcionamiento");
 7435              		.loc 1 1489 0
 7436 19b6 6B48     		ldr	r0, .L471+44
 7437 19b8 FFF7FEFF 		bl	escribeDisplay2
 7438              	.LVL583:
 7439              	.L386:
1490:main.c        ****         }
1491:main.c        ****         
1492:main.c        ****       if(Rx_Buffer[4]==0x01){//Si
 7440              		.loc 1 1492 0
 7441 19bc 6A4B     		ldr	r3, .L471+48
 7442 19be 1B79     		ldrb	r3, [r3, #4]	@ zero_extendqisi2
 7443 19c0 012B     		cmp	r3, #1
 7444 19c2 38D1     		bne	.L387
1493:main.c        ****          escribeDisplay2("page MenuPrincipal");
 7445              		.loc 1 1493 0
 7446 19c4 6248     		ldr	r0, .L471+24
 7447 19c6 FFF7FEFF 		bl	escribeDisplay2
 7448              	.LVL584:
1494:main.c        ****          escribeDisplay1("page Bienvenida");
 7449              		.loc 1 1494 0
 7450 19ca 6848     		ldr	r0, .L471+52
 7451 19cc FFF7FEFF 		bl	escribeDisplay1
 7452              	.LVL585:
1495:main.c        ****          mEst=0;
ARM GAS  C:\Users\JPELEC~1\AppData\Local\Temp\ccEetrge.s 			page 167


 7453              		.loc 1 1495 0
 7454 19d0 0024     		movs	r4, #0
 7455 19d2 674B     		ldr	r3, .L471+56
 7456 19d4 1C70     		strb	r4, [r3]
1496:main.c        ****          hEst=0;
 7457              		.loc 1 1496 0
 7458 19d6 674B     		ldr	r3, .L471+60
 7459 19d8 1C70     		strb	r4, [r3]
1497:main.c        ****          CicloLibre=0;
 7460              		.loc 1 1497 0
 7461 19da 674B     		ldr	r3, .L471+64
 7462 19dc 1C70     		strb	r4, [r3]
1498:main.c        ****          SSR_Write(0);         
 7463              		.loc 1 1498 0
 7464 19de 2046     		mov	r0, r4
 7465 19e0 FFF7FEFF 		bl	SSR_Write
 7466              	.LVL586:
1499:main.c        ****          Control=0;
 7467              		.loc 1 1499 0
 7468 19e4 654B     		ldr	r3, .L471+68
 7469 19e6 1C80     		strh	r4, [r3]	@ movhi
1500:main.c        ****          Tpulso=0.0;
 7470              		.loc 1 1500 0
 7471 19e8 0022     		movs	r2, #0
 7472 19ea 654B     		ldr	r3, .L471+72
 7473 19ec 1A60     		str	r2, [r3]	@ float
1501:main.c        ****          tiempo_esterilizacion=0;
 7474              		.loc 1 1501 0
 7475 19ee 654B     		ldr	r3, .L471+76
 7476 19f0 1C70     		strb	r4, [r3]
1502:main.c        ****          flag_tiempocalentamiento=0;
 7477              		.loc 1 1502 0
 7478 19f2 654B     		ldr	r3, .L471+80
 7479 19f4 1C80     		strh	r4, [r3]	@ movhi
1503:main.c        ****          Segmento=0;
 7480              		.loc 1 1503 0
 7481 19f6 654B     		ldr	r3, .L471+84
 7482 19f8 1C70     		strb	r4, [r3]
1504:main.c        ****          Ganancia=GananciaIn*(Setpoint/100);
 7483              		.loc 1 1504 0
 7484 19fa 654B     		ldr	r3, .L471+88
 7485 19fc 1B88     		ldrh	r3, [r3]
 7486 19fe 6548     		ldr	r0, .L471+92
 7487 1a00 A0FB0330 		umull	r3, r0, r0, r3
 7488 1a04 4009     		lsrs	r0, r0, #5
 7489 1a06 FFF7FEFF 		bl	__aeabi_i2f
 7490              	.LVL587:
 7491 1a0a 634B     		ldr	r3, .L471+96
 7492 1a0c 1968     		ldr	r1, [r3]	@ float
 7493 1a0e FFF7FEFF 		bl	__aeabi_fmul
 7494              	.LVL588:
 7495 1a12 624B     		ldr	r3, .L471+100
 7496 1a14 1860     		str	r0, [r3]	@ float
1505:main.c        ****          tinicio=0;
 7497              		.loc 1 1505 0
 7498 1a16 624B     		ldr	r3, .L471+104
 7499 1a18 1C80     		strh	r4, [r3]	@ movhi
ARM GAS  C:\Users\JPELEC~1\AppData\Local\Temp\ccEetrge.s 			page 168


1506:main.c        ****          Finalizo=OFF;
 7500              		.loc 1 1506 0
 7501 1a1a 624B     		ldr	r3, .L471+108
 7502 1a1c 1C80     		strh	r4, [r3]	@ movhi
1507:main.c        ****          flag_calcula=OFF;
 7503              		.loc 1 1507 0
 7504 1a1e 624B     		ldr	r3, .L471+112
 7505 1a20 1C80     		strh	r4, [r3]	@ movhi
1508:main.c        ****          flagTemperatura=OFF;
 7506              		.loc 1 1508 0
 7507 1a22 624B     		ldr	r3, .L471+116
 7508 1a24 1C80     		strh	r4, [r3]	@ movhi
1509:main.c        ****          flagRampa=OFF;
 7509              		.loc 1 1509 0
 7510 1a26 624B     		ldr	r3, .L471+120
 7511 1a28 1C80     		strh	r4, [r3]	@ movhi
1510:main.c        ****          flagFinalizo=OFF;
 7512              		.loc 1 1510 0
 7513 1a2a 624B     		ldr	r3, .L471+124
 7514 1a2c 1C80     		strh	r4, [r3]	@ movhi
1511:main.c        ****          Rx_Buffer[4]=0x00;
 7515              		.loc 1 1511 0
 7516 1a2e 4E4B     		ldr	r3, .L471+48
 7517 1a30 1C71     		strb	r4, [r3, #4]
1512:main.c        ****          Rx_Buffer2[4]=0x00;
 7518              		.loc 1 1512 0
 7519 1a32 614B     		ldr	r3, .L471+128
 7520 1a34 1C71     		strb	r4, [r3, #4]
 7521              	.L387:
1513:main.c        ****       }
1514:main.c        ****     
1515:main.c        ****       if(Rx_Buffer[4]==0x02){//No
 7522              		.loc 1 1515 0
 7523 1a36 4C4B     		ldr	r3, .L471+48
 7524 1a38 1B79     		ldrb	r3, [r3, #4]	@ zero_extendqisi2
 7525 1a3a 022B     		cmp	r3, #2
 7526 1a3c 07D1     		bne	.L385
1516:main.c        ****          escribeDisplay2("page Funcionamiento");
 7527              		.loc 1 1516 0
 7528 1a3e 4948     		ldr	r0, .L471+44
 7529 1a40 FFF7FEFF 		bl	escribeDisplay2
 7530              	.LVL589:
1517:main.c        ****          Rx_Buffer[4]=0x00;
 7531              		.loc 1 1517 0
 7532 1a44 0023     		movs	r3, #0
 7533 1a46 484A     		ldr	r2, .L471+48
 7534 1a48 1371     		strb	r3, [r2, #4]
1518:main.c        ****          Rx_Buffer2[4]=0x00;
 7535              		.loc 1 1518 0
 7536 1a4a 5B4A     		ldr	r2, .L471+128
 7537 1a4c 1371     		strb	r3, [r2, #4]
 7538              	.L385:
1519:main.c        ****       }
1520:main.c        ****    }
1521:main.c        **** //_------------------------------------------------------------------------------------------------
1522:main.c        **** 
1523:main.c        **** //_------------------------------------------------------------------------------------------------
ARM GAS  C:\Users\JPELEC~1\AppData\Local\Temp\ccEetrge.s 			page 169


1524:main.c        ****       if(Menu==20){ //Menu de Funcionamiento
 7539              		.loc 1 1524 0
 7540 1a4e 3E4B     		ldr	r3, .L471+16
 7541 1a50 1B78     		ldrb	r3, [r3]	@ zero_extendqisi2
 7542 1a52 142B     		cmp	r3, #20
 7543 1a54 40F0A282 		bne	.L388
1525:main.c        ****       GuardaEEPROM=OFF;
 7544              		.loc 1 1525 0
 7545 1a58 0023     		movs	r3, #0
 7546 1a5a 584A     		ldr	r2, .L471+132
 7547 1a5c 1380     		strh	r3, [r2]	@ movhi
1526:main.c        ****       dibujo=OFF;
 7548              		.loc 1 1526 0
 7549 1a5e 584A     		ldr	r2, .L471+136
 7550 1a60 1380     		strh	r3, [r2]	@ movhi
1527:main.c        ****       conteoPregunta=OFF;
 7551              		.loc 1 1527 0
 7552 1a62 3E4A     		ldr	r2, .L471+36
 7553 1a64 1380     		strh	r3, [r2]	@ movhi
1528:main.c        ****       tPregunta=0;
 7554              		.loc 1 1528 0
 7555 1a66 3E4A     		ldr	r2, .L471+40
 7556 1a68 1380     		strh	r3, [r2]	@ movhi
1529:main.c        ****       sprintf(displayStr,"t5.txt=\"Temperatura Ideal:%u°C  TA:%02u°C \"",(uint16)TemperaturaIdeal
 7557              		.loc 1 1529 0
 7558 1a6a 564B     		ldr	r3, .L471+140
 7559 1a6c 1868     		ldr	r0, [r3]	@ float
 7560 1a6e FFF7FEFF 		bl	__aeabi_f2uiz
 7561              	.LVL590:
 7562 1a72 554B     		ldr	r3, .L471+144
 7563 1a74 B3F90020 		ldrsh	r2, [r3]
 7564 1a78 464B     		ldr	r3, .L471+92
 7565 1a7a 83FB0213 		smull	r1, r3, r3, r2
 7566 1a7e D217     		asrs	r2, r2, #31
 7567 1a80 C2EB6313 		rsb	r3, r2, r3, asr #5
 7568 1a84 514C     		ldr	r4, .L471+148
 7569 1a86 1BB2     		sxth	r3, r3
 7570 1a88 82B2     		uxth	r2, r0
 7571 1a8a 5149     		ldr	r1, .L471+152
 7572 1a8c 2046     		mov	r0, r4
 7573 1a8e FFF7FEFF 		bl	sprintf
 7574              	.LVL591:
1530:main.c        ****       escribeDisplay1(displayStr);
 7575              		.loc 1 1530 0
 7576 1a92 2046     		mov	r0, r4
 7577 1a94 FFF7FEFF 		bl	escribeDisplay1
 7578              	.LVL592:
1531:main.c        ****       escribeDisplay2("t0.txt=\"Mufla Digital JP Inglobal \"");  
 7579              		.loc 1 1531 0
 7580 1a98 4E48     		ldr	r0, .L471+156
 7581 1a9a FFF7FEFF 		bl	escribeDisplay2
 7582              	.LVL593:
1532:main.c        ****       if(Rx_Buffer[4]==0x01){//Temperatura
 7583              		.loc 1 1532 0
 7584 1a9e 324B     		ldr	r3, .L471+48
 7585 1aa0 1B79     		ldrb	r3, [r3, #4]	@ zero_extendqisi2
 7586 1aa2 012B     		cmp	r3, #1
ARM GAS  C:\Users\JPELEC~1\AppData\Local\Temp\ccEetrge.s 			page 170


 7587 1aa4 02D1     		bne	.L389
1533:main.c        ****          escribeDisplay2("page Pregunta");
 7588              		.loc 1 1533 0
 7589 1aa6 4C48     		ldr	r0, .L471+160
 7590 1aa8 FFF7FEFF 		bl	escribeDisplay2
 7591              	.LVL594:
 7592              	.L389:
1534:main.c        ****       }
1535:main.c        ****       
1536:main.c        ****       if(Rx_Buffer[4]==0x02){//Inicia Control Rampa
 7593              		.loc 1 1536 0
 7594 1aac 2E4B     		ldr	r3, .L471+48
 7595 1aae 1B79     		ldrb	r3, [r3, #4]	@ zero_extendqisi2
 7596 1ab0 022B     		cmp	r3, #2
 7597 1ab2 40F0A780 		bne	.L390
1537:main.c        ****          flagRampa=!flagRampa;
 7598              		.loc 1 1537 0
 7599 1ab6 3E4A     		ldr	r2, .L471+120
 7600 1ab8 B2F90030 		ldrsh	r3, [r2]
 7601 1abc B3FA83F3 		clz	r3, r3
 7602 1ac0 5B09     		lsrs	r3, r3, #5
 7603 1ac2 1380     		strh	r3, [r2]	@ movhi
1538:main.c        ****          // Configura parametros para inicio de rampa 
1539:main.c        ****         if(flagRampa){
 7604              		.loc 1 1539 0
 7605 1ac4 002B     		cmp	r3, #0
 7606 1ac6 00F09880 		beq	.L391
1540:main.c        ****             TempeInicial=Temperatura;
 7607              		.loc 1 1540 0
 7608 1aca 444B     		ldr	r3, .L471+164
 7609 1acc 1D68     		ldr	r5, [r3]	@ float
 7610 1ace 444B     		ldr	r3, .L471+168
 7611 1ad0 1D60     		str	r5, [r3]	@ float
1541:main.c        ****             Tiempo=(Programas[Programa-1].rampas[Segmento].Horas*3600)+(Programas[Programa-1].rampa
 7612              		.loc 1 1541 0
 7613 1ad2 194B     		ldr	r3, .L471
 7614 1ad4 1B78     		ldrb	r3, [r3]	@ zero_extendqisi2
 7615 1ad6 013B     		subs	r3, r3, #1
 7616 1ad8 2C4A     		ldr	r2, .L471+84
 7617 1ada 1078     		ldrb	r0, [r2]	@ zero_extendqisi2
 7618 1adc 1849     		ldr	r1, .L471+8
 7619 1ade 4FEA830E 		lsl	lr, r3, #2
 7620 1ae2 0EEB0304 		add	r4, lr, r3
 7621 1ae6 A200     		lsls	r2, r4, #2
 7622 1ae8 0244     		add	r2, r2, r0
 7623 1aea 01EBC202 		add	r2, r1, r2, lsl #3
 7624 1aee D678     		ldrb	r6, [r2, #3]	@ zero_extendqisi2
 7625 1af0 1779     		ldrb	r7, [r2, #4]	@ zero_extendqisi2
 7626 1af2 C6EB0612 		rsb	r2, r6, r6, lsl #4
 7627 1af6 C2EB0212 		rsb	r2, r2, r2, lsl #4
 7628 1afa 1401     		lsls	r4, r2, #4
 7629 1afc C7EB071C 		rsb	ip, r7, r7, lsl #4
 7630 1b00 4FEA8C02 		lsl	r2, ip, #2
 7631 1b04 2244     		add	r2, r2, r4
 7632 1b06 94B2     		uxth	r4, r2
 7633 1b08 364A     		ldr	r2, .L471+172
 7634 1b0a 1480     		strh	r4, [r2]	@ movhi
ARM GAS  C:\Users\JPELEC~1\AppData\Local\Temp\ccEetrge.s 			page 171


1542:main.c        ****             Setpoint=Programas[Programa-1].rampas[Segmento].Temperatura;
 7635              		.loc 1 1542 0
 7636 1b0c 7344     		add	r3, r3, lr
 7637 1b0e 9A00     		lsls	r2, r3, #2
 7638 1b10 1044     		add	r0, r0, r2
 7639 1b12 01EBC001 		add	r1, r1, r0, lsl #3
 7640 1b16 C888     		ldrh	r0, [r1, #6]
 7641 1b18 1D4B     		ldr	r3, .L471+88
 7642 1b1a 1880     		strh	r0, [r3]	@ movhi
1543:main.c        ****             Pendiente=((Setpoint-TempeInicial)/Tiempo);
 7643              		.loc 1 1543 0
 7644 1b1c FFF7FEFF 		bl	__aeabi_i2f
 7645              	.LVL595:
 7646 1b20 2946     		mov	r1, r5
 7647 1b22 FFF7FEFF 		bl	__aeabi_fsub
 7648              	.LVL596:
 7649 1b26 0546     		mov	r5, r0
 7650 1b28 2046     		mov	r0, r4
 7651 1b2a FFF7FEFF 		bl	__aeabi_i2f
 7652              	.LVL597:
 7653 1b2e 0146     		mov	r1, r0
 7654 1b30 2846     		mov	r0, r5
 7655 1b32 FFF7FEFF 		bl	__aeabi_fdiv
 7656              	.LVL598:
 7657 1b36 57E0     		b	.L472
 7658              	.L473:
 7659              		.align	2
 7660              	.L471:
 7661 1b38 00000000 		.word	Programa
 7662 1b3c 00000000 		.word	i
 7663 1b40 00000000 		.word	Programas
 7664 1b44 54050000 		.word	.LC76
 7665 1b48 00000000 		.word	Menu
 7666 1b4c 00000000 		.word	entro
 7667 1b50 7C010000 		.word	.LC22
 7668 1b54 B4000000 		.word	.LC12
 7669 1b58 00000000 		.word	flagBorrado
 7670 1b5c 00000000 		.word	conteoPregunta
 7671 1b60 00000000 		.word	tPregunta
 7672 1b64 40050000 		.word	.LC75
 7673 1b68 00000000 		.word	Rx_Buffer
 7674 1b6c 70000000 		.word	.LC6
 7675 1b70 00000000 		.word	mEst
 7676 1b74 00000000 		.word	hEst
 7677 1b78 00000000 		.word	CicloLibre
 7678 1b7c 00000000 		.word	Control
 7679 1b80 00000000 		.word	Tpulso
 7680 1b84 00000000 		.word	tiempo_esterilizacion
 7681 1b88 00000000 		.word	flag_tiempocalentamiento
 7682 1b8c 00000000 		.word	Segmento
 7683 1b90 00000000 		.word	Setpoint
 7684 1b94 1F85EB51 		.word	1374389535
 7685 1b98 00000000 		.word	GananciaIn
 7686 1b9c 00000000 		.word	Ganancia
 7687 1ba0 00000000 		.word	tinicio
 7688 1ba4 00000000 		.word	Finalizo
 7689 1ba8 00000000 		.word	flag_calcula
ARM GAS  C:\Users\JPELEC~1\AppData\Local\Temp\ccEetrge.s 			page 172


 7690 1bac 00000000 		.word	flagTemperatura
 7691 1bb0 00000000 		.word	flagRampa
 7692 1bb4 00000000 		.word	flagFinalizo
 7693 1bb8 00000000 		.word	Rx_Buffer2
 7694 1bbc 00000000 		.word	GuardaEEPROM
 7695 1bc0 00000000 		.word	dibujo
 7696 1bc4 00000000 		.word	TemperaturaIdeal
 7697 1bc8 00000000 		.word	coldJnTemp
 7698 1bcc 00000000 		.word	displayStr
 7699 1bd0 64050000 		.word	.LC77
 7700 1bd4 94050000 		.word	.LC78
 7701 1bd8 B8050000 		.word	.LC79
 7702 1bdc 00000000 		.word	Temperatura
 7703 1be0 00000000 		.word	TempeInicial
 7704 1be4 00000000 		.word	Tiempo
 7705              	.L472:
 7706 1be8 794B     		ldr	r3, .L474
 7707 1bea 1860     		str	r0, [r3]	@ float
1544:main.c        ****             hEstp=Programas[Programa-1].rampas[Segmento].Horas;
 7708              		.loc 1 1544 0
 7709 1bec 794B     		ldr	r3, .L474+4
 7710 1bee 1E70     		strb	r6, [r3]
1545:main.c        ****             mEstp=Programas[Programa-1].rampas[Segmento].Minutos;
 7711              		.loc 1 1545 0
 7712 1bf0 794B     		ldr	r3, .L474+8
 7713 1bf2 1F70     		strb	r7, [r3]
1546:main.c        ****             escribeDisplay2("b1.pic=72");       
 7714              		.loc 1 1546 0
 7715 1bf4 7948     		ldr	r0, .L474+12
 7716 1bf6 FFF7FEFF 		bl	escribeDisplay2
 7717              	.LVL599:
 7718              	.L391:
1547:main.c        ****         }
1548:main.c        ****         Rx_Buffer[4]=0x00;
 7719              		.loc 1 1548 0
 7720 1bfa 0023     		movs	r3, #0
 7721 1bfc 784A     		ldr	r2, .L474+16
 7722 1bfe 1371     		strb	r3, [r2, #4]
1549:main.c        ****         Rx_Buffer2[4]=0x00;
 7723              		.loc 1 1549 0
 7724 1c00 784A     		ldr	r2, .L474+20
 7725 1c02 1371     		strb	r3, [r2, #4]
 7726              	.L390:
1550:main.c        ****       }
1551:main.c        ****       
1552:main.c        ****       if(!Finalizo){
 7727              		.loc 1 1552 0
 7728 1c04 784B     		ldr	r3, .L474+24
 7729 1c06 B3F90030 		ldrsh	r3, [r3]
 7730 1c0a 002B     		cmp	r3, #0
 7731 1c0c 53D1     		bne	.L392
1553:main.c        ****            if(DOOR_Read()==1){
 7732              		.loc 1 1553 0
 7733 1c0e FFF7FEFF 		bl	DOOR_Read
 7734              	.LVL600:
 7735 1c12 0128     		cmp	r0, #1
 7736 1c14 2CD1     		bne	.L393
ARM GAS  C:\Users\JPELEC~1\AppData\Local\Temp\ccEetrge.s 			page 173


1554:main.c        ****                Control=0;
 7737              		.loc 1 1554 0
 7738 1c16 0024     		movs	r4, #0
 7739 1c18 744B     		ldr	r3, .L474+28
 7740 1c1a 1C80     		strh	r4, [r3]	@ movhi
1555:main.c        ****                flag_tiempocalentamiento=0;
 7741              		.loc 1 1555 0
 7742 1c1c 744B     		ldr	r3, .L474+32
 7743 1c1e 1C80     		strh	r4, [r3]	@ movhi
1556:main.c        ****                Ganancia=GananciaIn*(Setpoint/100);
 7744              		.loc 1 1556 0
 7745 1c20 744B     		ldr	r3, .L474+36
 7746 1c22 1B88     		ldrh	r3, [r3]
 7747 1c24 7448     		ldr	r0, .L474+40
 7748 1c26 A0FB0330 		umull	r3, r0, r0, r3
 7749 1c2a 4009     		lsrs	r0, r0, #5
 7750 1c2c FFF7FEFF 		bl	__aeabi_i2f
 7751              	.LVL601:
 7752 1c30 724B     		ldr	r3, .L474+44
 7753 1c32 1968     		ldr	r1, [r3]	@ float
 7754 1c34 FFF7FEFF 		bl	__aeabi_fmul
 7755              	.LVL602:
 7756 1c38 714B     		ldr	r3, .L474+48
 7757 1c3a 1860     		str	r0, [r3]	@ float
1557:main.c        ****                tiempo_esterilizacion=0;
 7758              		.loc 1 1557 0
 7759 1c3c 714B     		ldr	r3, .L474+52
 7760 1c3e 1C70     		strb	r4, [r3]
1558:main.c        ****                SSR_Write(0);
 7761              		.loc 1 1558 0
 7762 1c40 2046     		mov	r0, r4
 7763 1c42 FFF7FEFF 		bl	SSR_Write
 7764              	.LVL603:
1559:main.c        ****                Tpulso=0.0;
 7765              		.loc 1 1559 0
 7766 1c46 0022     		movs	r2, #0
 7767 1c48 6F4B     		ldr	r3, .L474+56
 7768 1c4a 1A60     		str	r2, [r3]	@ float
1560:main.c        ****                escribeDisplay2("t1.txt=\"Puerta Abierta\"");
 7769              		.loc 1 1560 0
 7770 1c4c 6F48     		ldr	r0, .L474+60
 7771 1c4e FFF7FEFF 		bl	escribeDisplay2
 7772              	.LVL604:
1561:main.c        ****                 LED_Write(1);
 7773              		.loc 1 1561 0
 7774 1c52 0120     		movs	r0, #1
 7775 1c54 FFF7FEFF 		bl	LED_Write
 7776              	.LVL605:
1562:main.c        ****                 CyDelay(500);
 7777              		.loc 1 1562 0
 7778 1c58 4FF4FA70 		mov	r0, #500
 7779 1c5c FFF7FEFF 		bl	CyDelay
 7780              	.LVL606:
1563:main.c        ****                 LED_Write(0);
 7781              		.loc 1 1563 0
 7782 1c60 2046     		mov	r0, r4
 7783 1c62 FFF7FEFF 		bl	LED_Write
ARM GAS  C:\Users\JPELEC~1\AppData\Local\Temp\ccEetrge.s 			page 174


 7784              	.LVL607:
1564:main.c        ****                 CyDelay(500);
 7785              		.loc 1 1564 0
 7786 1c66 4FF4FA70 		mov	r0, #500
 7787 1c6a FFF7FEFF 		bl	CyDelay
 7788              	.LVL608:
 7789 1c6e 55E0     		b	.L394
 7790              	.L393:
1565:main.c        ****             }else{
1566:main.c        ****                 if(flagRampa){
 7791              		.loc 1 1566 0
 7792 1c70 674B     		ldr	r3, .L474+64
 7793 1c72 B3F90030 		ldrsh	r3, [r3]
 7794 1c76 3BB1     		cbz	r3, .L395
1567:main.c        ****                     escribeDisplay2("b1.pic=72");
 7795              		.loc 1 1567 0
 7796 1c78 5848     		ldr	r0, .L474+12
 7797 1c7a FFF7FEFF 		bl	escribeDisplay2
 7798              	.LVL609:
1568:main.c        ****                     iniciaConteo(); 
 7799              		.loc 1 1568 0
 7800 1c7e FFF7FEFF 		bl	iniciaConteo
 7801              	.LVL610:
1569:main.c        ****                     controlaRampa();         
 7802              		.loc 1 1569 0
 7803 1c82 FFF7FEFF 		bl	controlaRampa
 7804              	.LVL611:
 7805 1c86 49E0     		b	.L394
 7806              	.L395:
1570:main.c        ****                 }else{
1571:main.c        ****                     escribeDisplay2("b1.pic=73");  
 7807              		.loc 1 1571 0
 7808 1c88 6248     		ldr	r0, .L474+68
 7809 1c8a FFF7FEFF 		bl	escribeDisplay2
 7810              	.LVL612:
1572:main.c        ****                     Control=0;
 7811              		.loc 1 1572 0
 7812 1c8e 0020     		movs	r0, #0
 7813 1c90 564B     		ldr	r3, .L474+28
 7814 1c92 1880     		strh	r0, [r3]	@ movhi
1573:main.c        ****                     flag_tiempocalentamiento=0;
 7815              		.loc 1 1573 0
 7816 1c94 564B     		ldr	r3, .L474+32
 7817 1c96 1880     		strh	r0, [r3]	@ movhi
1574:main.c        ****                     tiempo_esterilizacion=0;
 7818              		.loc 1 1574 0
 7819 1c98 5A4B     		ldr	r3, .L474+52
 7820 1c9a 1870     		strb	r0, [r3]
1575:main.c        ****                     SSR_Write(0);
 7821              		.loc 1 1575 0
 7822 1c9c FFF7FEFF 		bl	SSR_Write
 7823              	.LVL613:
1576:main.c        ****                     Tpulso=0.0;
 7824              		.loc 1 1576 0
 7825 1ca0 0022     		movs	r2, #0
 7826 1ca2 594B     		ldr	r3, .L474+56
 7827 1ca4 1A60     		str	r2, [r3]	@ float
ARM GAS  C:\Users\JPELEC~1\AppData\Local\Temp\ccEetrge.s 			page 175


1577:main.c        ****                     if(DOOR_Read()==0)
 7828              		.loc 1 1577 0
 7829 1ca6 FFF7FEFF 		bl	DOOR_Read
 7830              	.LVL614:
 7831 1caa 0028     		cmp	r0, #0
 7832 1cac 36D1     		bne	.L394
1578:main.c        ****                         escribeDisplay2("t1.txt=\"Pausado\"");   
 7833              		.loc 1 1578 0
 7834 1cae 5A48     		ldr	r0, .L474+72
 7835 1cb0 FFF7FEFF 		bl	escribeDisplay2
 7836              	.LVL615:
 7837 1cb4 32E0     		b	.L394
 7838              	.L392:
1579:main.c        ****                 }
1580:main.c        ****             }
1581:main.c        ****       }else{
1582:main.c        ****          if(!flagFinalizo){
 7839              		.loc 1 1582 0
 7840 1cb6 594B     		ldr	r3, .L474+76
 7841 1cb8 B3F90030 		ldrsh	r3, [r3]
 7842 1cbc E3B9     		cbnz	r3, .L396
1583:main.c        ****             for(i=0;i<5;i++){
 7843              		.loc 1 1583 0
 7844 1cbe 0022     		movs	r2, #0
 7845 1cc0 574B     		ldr	r3, .L474+80
 7846 1cc2 1A70     		strb	r2, [r3]
 7847 1cc4 11E0     		b	.L397
 7848              	.L398:
1584:main.c        ****                 LED_Write(1);
 7849              		.loc 1 1584 0 discriminator 3
 7850 1cc6 0120     		movs	r0, #1
 7851 1cc8 FFF7FEFF 		bl	LED_Write
 7852              	.LVL616:
1585:main.c        ****                 CyDelay(1000);
 7853              		.loc 1 1585 0 discriminator 3
 7854 1ccc 4FF47A70 		mov	r0, #1000
 7855 1cd0 FFF7FEFF 		bl	CyDelay
 7856              	.LVL617:
1586:main.c        ****                 LED_Write(0);
 7857              		.loc 1 1586 0 discriminator 3
 7858 1cd4 0020     		movs	r0, #0
 7859 1cd6 FFF7FEFF 		bl	LED_Write
 7860              	.LVL618:
1587:main.c        ****                 CyDelay(1000);
 7861              		.loc 1 1587 0 discriminator 3
 7862 1cda 4FF47A70 		mov	r0, #1000
 7863 1cde FFF7FEFF 		bl	CyDelay
 7864              	.LVL619:
1583:main.c        ****                 LED_Write(1);
 7865              		.loc 1 1583 0 discriminator 3
 7866 1ce2 4F4A     		ldr	r2, .L474+80
 7867 1ce4 1378     		ldrb	r3, [r2]	@ zero_extendqisi2
 7868 1ce6 0133     		adds	r3, r3, #1
 7869 1ce8 1370     		strb	r3, [r2]
 7870              	.L397:
1583:main.c        ****                 LED_Write(1);
 7871              		.loc 1 1583 0 is_stmt 0 discriminator 1
ARM GAS  C:\Users\JPELEC~1\AppData\Local\Temp\ccEetrge.s 			page 176


 7872 1cea 4D4B     		ldr	r3, .L474+80
 7873 1cec 1B78     		ldrb	r3, [r3]	@ zero_extendqisi2
 7874 1cee 042B     		cmp	r3, #4
 7875 1cf0 E9D9     		bls	.L398
1588:main.c        ****             }
1589:main.c        ****             flagFinalizo=ON;
 7876              		.loc 1 1589 0 is_stmt 1
 7877 1cf2 0122     		movs	r2, #1
 7878 1cf4 494B     		ldr	r3, .L474+76
 7879 1cf6 1A80     		strh	r2, [r3]	@ movhi
 7880              	.L396:
1590:main.c        ****          }
1591:main.c        ****          escribeDisplay2("t1.txt=\"Proceso Finalizado\"");
 7881              		.loc 1 1591 0
 7882 1cf8 4A48     		ldr	r0, .L474+84
 7883 1cfa FFF7FEFF 		bl	escribeDisplay2
 7884              	.LVL620:
1592:main.c        ****          SSR_Write(0);         
 7885              		.loc 1 1592 0
 7886 1cfe 0020     		movs	r0, #0
 7887 1d00 FFF7FEFF 		bl	SSR_Write
 7888              	.LVL621:
1593:main.c        ****          Control=0;
 7889              		.loc 1 1593 0
 7890 1d04 0023     		movs	r3, #0
 7891 1d06 394A     		ldr	r2, .L474+28
 7892 1d08 1380     		strh	r3, [r2]	@ movhi
1594:main.c        ****          Tpulso=0.0;
 7893              		.loc 1 1594 0
 7894 1d0a 0021     		movs	r1, #0
 7895 1d0c 3E4A     		ldr	r2, .L474+56
 7896 1d0e 1160     		str	r1, [r2]	@ float
1595:main.c        ****          tiempo_esterilizacion=0;
 7897              		.loc 1 1595 0
 7898 1d10 3C4A     		ldr	r2, .L474+52
 7899 1d12 1370     		strb	r3, [r2]
1596:main.c        ****          flagTemperatura=OFF;
 7900              		.loc 1 1596 0
 7901 1d14 444A     		ldr	r2, .L474+88
 7902 1d16 1380     		strh	r3, [r2]	@ movhi
1597:main.c        ****          flagRampa=OFF;
 7903              		.loc 1 1597 0
 7904 1d18 3D4A     		ldr	r2, .L474+64
 7905 1d1a 1380     		strh	r3, [r2]	@ movhi
 7906              	.L394:
1598:main.c        ****       }
1599:main.c        ****       
1600:main.c        ****       if(Lectura==1){// Utilizado para visualizar la lectura de la temperatura
 7907              		.loc 1 1600 0
 7908 1d1c 434B     		ldr	r3, .L474+92
 7909 1d1e B3F90030 		ldrsh	r3, [r3]
 7910 1d22 012B     		cmp	r3, #1
 7911 1d24 40F0F180 		bne	.L399
1601:main.c        ****          Lectura=0;
 7912              		.loc 1 1601 0
 7913 1d28 0022     		movs	r2, #0
 7914 1d2a 404B     		ldr	r3, .L474+92
ARM GAS  C:\Users\JPELEC~1\AppData\Local\Temp\ccEetrge.s 			page 177


 7915 1d2c 1A80     		strh	r2, [r3]	@ movhi
1602:main.c        ****          Potencia=(100.0/Tciclo)*Tpulso; 
 7916              		.loc 1 1602 0
 7917 1d2e 404B     		ldr	r3, .L474+96
 7918 1d30 1878     		ldrb	r0, [r3]	@ zero_extendqisi2
 7919 1d32 FFF7FEFF 		bl	__aeabi_i2d
 7920              	.LVL622:
 7921 1d36 0246     		mov	r2, r0
 7922 1d38 0B46     		mov	r3, r1
 7923 1d3a 0020     		movs	r0, #0
 7924 1d3c 3D49     		ldr	r1, .L474+100
 7925 1d3e FFF7FEFF 		bl	__aeabi_ddiv
 7926              	.LVL623:
 7927 1d42 0446     		mov	r4, r0
 7928 1d44 0D46     		mov	r5, r1
 7929 1d46 304B     		ldr	r3, .L474+56
 7930 1d48 1868     		ldr	r0, [r3]	@ float
 7931 1d4a FFF7FEFF 		bl	__aeabi_f2d
 7932              	.LVL624:
 7933 1d4e 2246     		mov	r2, r4
 7934 1d50 2B46     		mov	r3, r5
 7935 1d52 FFF7FEFF 		bl	__aeabi_dmul
 7936              	.LVL625:
 7937 1d56 FFF7FEFF 		bl	__aeabi_d2f
 7938              	.LVL626:
 7939 1d5a 374B     		ldr	r3, .L474+104
 7940 1d5c 1860     		str	r0, [r3]	@ float
1603:main.c        ****          if (tcHotJnuVolt < BROKEN_TC_THRESHOLD){
 7941              		.loc 1 1603 0
 7942 1d5e 374B     		ldr	r3, .L474+108
 7943 1d60 1A68     		ldr	r2, [r3]
 7944 1d62 374B     		ldr	r3, .L474+112
 7945 1d64 9A42     		cmp	r2, r3
 7946 1d66 1CDA     		bge	.L400
1604:main.c        **** 		    sprintf(displayStr,"t2.txt=\"T:---\"");
 7947              		.loc 1 1604 0
 7948 1d68 364C     		ldr	r4, .L474+116
 7949 1d6a 374B     		ldr	r3, .L474+120
 7950 1d6c 07CB     		ldmia	r3!, {r0, r1, r2}
 7951 1d6e 2060     		str	r0, [r4]	@ unaligned
 7952 1d70 6160     		str	r1, [r4, #4]	@ unaligned
 7953 1d72 A260     		str	r2, [r4, #8]	@ unaligned
 7954 1d74 1A88     		ldrh	r2, [r3]	@ unaligned
 7955 1d76 9B78     		ldrb	r3, [r3, #2]	@ zero_extendqisi2
 7956 1d78 A281     		strh	r2, [r4, #12]	@ unaligned
 7957 1d7a A373     		strb	r3, [r4, #14]
1605:main.c        ****             escribeDisplay2(displayStr);	
 7958              		.loc 1 1605 0
 7959 1d7c 2046     		mov	r0, r4
 7960 1d7e FFF7FEFF 		bl	escribeDisplay2
 7961              	.LVL627:
1606:main.c        ****             SSR_Write(0);         
 7962              		.loc 1 1606 0
 7963 1d82 0020     		movs	r0, #0
 7964 1d84 FFF7FEFF 		bl	SSR_Write
 7965              	.LVL628:
1607:main.c        ****             Control=0;
ARM GAS  C:\Users\JPELEC~1\AppData\Local\Temp\ccEetrge.s 			page 178


 7966              		.loc 1 1607 0
 7967 1d88 0023     		movs	r3, #0
 7968 1d8a 184A     		ldr	r2, .L474+28
 7969 1d8c 1380     		strh	r3, [r2]	@ movhi
1608:main.c        ****             Tpulso=0.0;
 7970              		.loc 1 1608 0
 7971 1d8e 0021     		movs	r1, #0
 7972 1d90 1D4A     		ldr	r2, .L474+56
 7973 1d92 1160     		str	r1, [r2]	@ float
1609:main.c        ****             tiempo_esterilizacion=0;
 7974              		.loc 1 1609 0
 7975 1d94 1B4A     		ldr	r2, .L474+52
 7976 1d96 1370     		strb	r3, [r2]
1610:main.c        ****             flagTemperatura=OFF;
 7977              		.loc 1 1610 0
 7978 1d98 234A     		ldr	r2, .L474+88
 7979 1d9a 1380     		strh	r3, [r2]	@ movhi
1611:main.c        ****             flagRampa=OFF;
 7980              		.loc 1 1611 0
 7981 1d9c 1C4A     		ldr	r2, .L474+64
 7982 1d9e 1380     		strh	r3, [r2]	@ movhi
 7983 1da0 67E0     		b	.L401
 7984              	.L400:
1612:main.c        **** 		 }else{	
1613:main.c        ****             if(Temperatura<1000){
 7985              		.loc 1 1613 0
 7986 1da2 2A4B     		ldr	r3, .L474+124
 7987 1da4 1C68     		ldr	r4, [r3]	@ float
 7988 1da6 2A49     		ldr	r1, .L474+128
 7989 1da8 2046     		mov	r0, r4
 7990 1daa FFF7FEFF 		bl	__aeabi_fcmplt
 7991              	.LVL629:
 7992 1dae 0028     		cmp	r0, #0
 7993 1db0 52D0     		beq	.L451
1614:main.c        ****                 sprintf(displayStr,"t2.txt=\"T:%1.1f°C\"",Temperatura);
 7994              		.loc 1 1614 0
 7995 1db2 2046     		mov	r0, r4
 7996 1db4 FFF7FEFF 		bl	__aeabi_f2d
 7997              	.LVL630:
 7998 1db8 224C     		ldr	r4, .L474+116
 7999 1dba 0246     		mov	r2, r0
 8000 1dbc 0B46     		mov	r3, r1
 8001 1dbe 2549     		ldr	r1, .L474+132
 8002 1dc0 2046     		mov	r0, r4
 8003 1dc2 FFF7FEFF 		bl	sprintf
 8004              	.LVL631:
1615:main.c        ****                 escribeDisplay2(displayStr);
 8005              		.loc 1 1615 0
 8006 1dc6 2046     		mov	r0, r4
 8007 1dc8 FFF7FEFF 		bl	escribeDisplay2
 8008              	.LVL632:
 8009 1dcc 51E0     		b	.L401
 8010              	.L475:
 8011 1dce 00BF     		.align	2
 8012              	.L474:
 8013 1dd0 00000000 		.word	Pendiente
 8014 1dd4 00000000 		.word	hEstp
ARM GAS  C:\Users\JPELEC~1\AppData\Local\Temp\ccEetrge.s 			page 179


 8015 1dd8 00000000 		.word	mEstp
 8016 1ddc C8050000 		.word	.LC80
 8017 1de0 00000000 		.word	Rx_Buffer
 8018 1de4 00000000 		.word	Rx_Buffer2
 8019 1de8 00000000 		.word	Finalizo
 8020 1dec 00000000 		.word	Control
 8021 1df0 00000000 		.word	flag_tiempocalentamiento
 8022 1df4 00000000 		.word	Setpoint
 8023 1df8 1F85EB51 		.word	1374389535
 8024 1dfc 00000000 		.word	GananciaIn
 8025 1e00 00000000 		.word	Ganancia
 8026 1e04 00000000 		.word	tiempo_esterilizacion
 8027 1e08 00000000 		.word	Tpulso
 8028 1e0c D4050000 		.word	.LC81
 8029 1e10 00000000 		.word	flagRampa
 8030 1e14 EC050000 		.word	.LC82
 8031 1e18 F8050000 		.word	.LC83
 8032 1e1c 00000000 		.word	flagFinalizo
 8033 1e20 00000000 		.word	i
 8034 1e24 0C060000 		.word	.LC84
 8035 1e28 00000000 		.word	flagTemperatura
 8036 1e2c 00000000 		.word	Lectura
 8037 1e30 00000000 		.word	Tciclo
 8038 1e34 00005940 		.word	1079574528
 8039 1e38 00000000 		.word	Potencia
 8040 1e3c 00000000 		.word	tcHotJnuVolt
 8041 1e40 F0D8FFFF 		.word	-10000
 8042 1e44 00000000 		.word	displayStr
 8043 1e48 28060000 		.word	.LC85
 8044 1e4c 00000000 		.word	Temperatura
 8045 1e50 00007A44 		.word	1148846080
 8046 1e54 38060000 		.word	.LC86
 8047              	.L451:
1616:main.c        ****             }else{
1617:main.c        ****                 sprintf(displayStr,"t2.txt=\"T:%1.0f°C\"",Temperatura);
 8048              		.loc 1 1617 0
 8049 1e58 2046     		mov	r0, r4
 8050 1e5a FFF7FEFF 		bl	__aeabi_f2d
 8051              	.LVL633:
 8052 1e5e A94C     		ldr	r4, .L476
 8053 1e60 0246     		mov	r2, r0
 8054 1e62 0B46     		mov	r3, r1
 8055 1e64 A849     		ldr	r1, .L476+4
 8056 1e66 2046     		mov	r0, r4
 8057 1e68 FFF7FEFF 		bl	sprintf
 8058              	.LVL634:
1618:main.c        ****                 escribeDisplay2(displayStr);
 8059              		.loc 1 1618 0
 8060 1e6c 2046     		mov	r0, r4
 8061 1e6e FFF7FEFF 		bl	escribeDisplay2
 8062              	.LVL635:
 8063              	.L401:
1619:main.c        ****             }
1620:main.c        **** 		 }
1621:main.c        ****          
1622:main.c        ****          sprintf(displayStr,"t3.txt=\"SET:%04u°C\"",Setpoint);
 8064              		.loc 1 1622 0
ARM GAS  C:\Users\JPELEC~1\AppData\Local\Temp\ccEetrge.s 			page 180


 8065 1e72 A44C     		ldr	r4, .L476
 8066 1e74 A54B     		ldr	r3, .L476+8
 8067 1e76 1A88     		ldrh	r2, [r3]
 8068 1e78 A549     		ldr	r1, .L476+12
 8069 1e7a 2046     		mov	r0, r4
 8070 1e7c FFF7FEFF 		bl	sprintf
 8071              	.LVL636:
1623:main.c        ****          escribeDisplay2(displayStr);
 8072              		.loc 1 1623 0
 8073 1e80 2046     		mov	r0, r4
 8074 1e82 FFF7FEFF 		bl	escribeDisplay2
 8075              	.LVL637:
1624:main.c        ****          sprintf(displayStr,"t4.txt=\"SET:%02u:%02u (HH:MM)\"",hEstp,mEstp);
 8076              		.loc 1 1624 0
 8077 1e86 A34B     		ldr	r3, .L476+16
 8078 1e88 1B78     		ldrb	r3, [r3]	@ zero_extendqisi2
 8079 1e8a A34A     		ldr	r2, .L476+20
 8080 1e8c 1278     		ldrb	r2, [r2]	@ zero_extendqisi2
 8081 1e8e A349     		ldr	r1, .L476+24
 8082 1e90 2046     		mov	r0, r4
 8083 1e92 FFF7FEFF 		bl	sprintf
 8084              	.LVL638:
1625:main.c        ****          escribeDisplay2(displayStr);
 8085              		.loc 1 1625 0
 8086 1e96 2046     		mov	r0, r4
 8087 1e98 FFF7FEFF 		bl	escribeDisplay2
 8088              	.LVL639:
1626:main.c        ****          sprintf(displayStr,"t5.txt=\"%02u:%02u\"",hEst,mEst);
 8089              		.loc 1 1626 0
 8090 1e9c A04B     		ldr	r3, .L476+28
 8091 1e9e 1B78     		ldrb	r3, [r3]	@ zero_extendqisi2
 8092 1ea0 A04A     		ldr	r2, .L476+32
 8093 1ea2 1278     		ldrb	r2, [r2]	@ zero_extendqisi2
 8094 1ea4 A049     		ldr	r1, .L476+36
 8095 1ea6 2046     		mov	r0, r4
 8096 1ea8 FFF7FEFF 		bl	sprintf
 8097              	.LVL640:
1627:main.c        ****          escribeDisplay2(displayStr);
 8098              		.loc 1 1627 0
 8099 1eac 2046     		mov	r0, r4
 8100 1eae FFF7FEFF 		bl	escribeDisplay2
 8101              	.LVL641:
1628:main.c        ****          sprintf(displayStr,"t8.txt=\"Pasos: %02u \"",Segmentos);
 8102              		.loc 1 1628 0
 8103 1eb2 9E4B     		ldr	r3, .L476+40
 8104 1eb4 1A78     		ldrb	r2, [r3]	@ zero_extendqisi2
 8105 1eb6 9E49     		ldr	r1, .L476+44
 8106 1eb8 2046     		mov	r0, r4
 8107 1eba FFF7FEFF 		bl	sprintf
 8108              	.LVL642:
1629:main.c        ****          escribeDisplay2(displayStr);         
 8109              		.loc 1 1629 0
 8110 1ebe 2046     		mov	r0, r4
 8111 1ec0 FFF7FEFF 		bl	escribeDisplay2
 8112              	.LVL643:
1630:main.c        ****          sprintf(displayStr,"t9.txt=\"Paso Actual: %02u \"",Segmento+1);
 8113              		.loc 1 1630 0
ARM GAS  C:\Users\JPELEC~1\AppData\Local\Temp\ccEetrge.s 			page 181


 8114 1ec4 9B4B     		ldr	r3, .L476+48
 8115 1ec6 1A78     		ldrb	r2, [r3]	@ zero_extendqisi2
 8116 1ec8 0132     		adds	r2, r2, #1
 8117 1eca 9B49     		ldr	r1, .L476+52
 8118 1ecc 2046     		mov	r0, r4
 8119 1ece FFF7FEFF 		bl	sprintf
 8120              	.LVL644:
1631:main.c        ****          escribeDisplay2(displayStr);         
 8121              		.loc 1 1631 0
 8122 1ed2 2046     		mov	r0, r4
 8123 1ed4 FFF7FEFF 		bl	escribeDisplay2
 8124              	.LVL645:
1632:main.c        ****          sprintf(displayStr,"t10.txt=\"Potencia:%03u%% \"",(uint8)Potencia);
 8125              		.loc 1 1632 0
 8126 1ed8 984B     		ldr	r3, .L476+56
 8127 1eda 1868     		ldr	r0, [r3]	@ float
 8128 1edc FFF7FEFF 		bl	__aeabi_f2uiz
 8129              	.LVL646:
 8130 1ee0 C2B2     		uxtb	r2, r0
 8131 1ee2 9749     		ldr	r1, .L476+60
 8132 1ee4 2046     		mov	r0, r4
 8133 1ee6 FFF7FEFF 		bl	sprintf
 8134              	.LVL647:
1633:main.c        ****          escribeDisplay2(displayStr);         
 8135              		.loc 1 1633 0
 8136 1eea 2046     		mov	r0, r4
 8137 1eec FFF7FEFF 		bl	escribeDisplay2
 8138              	.LVL648:
1634:main.c        ****          sprintf(displayStr,"t11.txt=\"Pendiente:%2.2f°C/s \"",Pendiente);
 8139              		.loc 1 1634 0
 8140 1ef0 944B     		ldr	r3, .L476+64
 8141 1ef2 1868     		ldr	r0, [r3]	@ float
 8142 1ef4 FFF7FEFF 		bl	__aeabi_f2d
 8143              	.LVL649:
 8144 1ef8 0246     		mov	r2, r0
 8145 1efa 0B46     		mov	r3, r1
 8146 1efc 9249     		ldr	r1, .L476+68
 8147 1efe 2046     		mov	r0, r4
 8148 1f00 FFF7FEFF 		bl	sprintf
 8149              	.LVL650:
1635:main.c        ****          escribeDisplay2(displayStr);
 8150              		.loc 1 1635 0
 8151 1f04 2046     		mov	r0, r4
 8152 1f06 FFF7FEFF 		bl	escribeDisplay2
 8153              	.LVL651:
 8154              	.L399:
1636:main.c        ****       } 
1637:main.c        ****       
1638:main.c        ****     
1639:main.c        ****       // Si cumplio el tiempo de esterilización, Muestre ciclo finalizado y detenga control de tem
1640:main.c        ****       if((mEstp>0)||(hEstp>0)){
 8155              		.loc 1 1640 0
 8156 1f0a 824B     		ldr	r3, .L476+16
 8157 1f0c 1B78     		ldrb	r3, [r3]	@ zero_extendqisi2
 8158 1f0e 1BB9     		cbnz	r3, .L404
 8159              		.loc 1 1640 0 is_stmt 0 discriminator 1
 8160 1f10 814B     		ldr	r3, .L476+20
ARM GAS  C:\Users\JPELEC~1\AppData\Local\Temp\ccEetrge.s 			page 182


 8161 1f12 1B78     		ldrb	r3, [r3]	@ zero_extendqisi2
 8162 1f14 002B     		cmp	r3, #0
 8163 1f16 41D0     		beq	.L388
 8164              	.L404:
1641:main.c        ****          CuentaTiempo();  
 8165              		.loc 1 1641 0 is_stmt 1
 8166 1f18 FFF7FEFF 		bl	CuentaTiempo
 8167              	.LVL652:
1642:main.c        ****          if((mEst>=mEstp)&&(hEst>=hEstp)&& Finalizo==0){
 8168              		.loc 1 1642 0
 8169 1f1c 804B     		ldr	r3, .L476+28
 8170 1f1e 1A78     		ldrb	r2, [r3]	@ zero_extendqisi2
 8171 1f20 7C4B     		ldr	r3, .L476+16
 8172 1f22 1B78     		ldrb	r3, [r3]	@ zero_extendqisi2
 8173 1f24 9A42     		cmp	r2, r3
 8174 1f26 39D3     		bcc	.L388
 8175              		.loc 1 1642 0 is_stmt 0 discriminator 1
 8176 1f28 7E4B     		ldr	r3, .L476+32
 8177 1f2a 1A78     		ldrb	r2, [r3]	@ zero_extendqisi2
 8178 1f2c 7A4B     		ldr	r3, .L476+20
 8179 1f2e 1B78     		ldrb	r3, [r3]	@ zero_extendqisi2
 8180 1f30 9A42     		cmp	r2, r3
 8181 1f32 33D3     		bcc	.L388
 8182              		.loc 1 1642 0 discriminator 2
 8183 1f34 854B     		ldr	r3, .L476+72
 8184 1f36 B3F90030 		ldrsh	r3, [r3]
 8185 1f3a 7BBB     		cbnz	r3, .L388
1643:main.c        ****             flag_calcula=0;
 8186              		.loc 1 1643 0 is_stmt 1
 8187 1f3c 0022     		movs	r2, #0
 8188 1f3e 844B     		ldr	r3, .L476+76
 8189 1f40 1A80     		strh	r2, [r3]	@ movhi
1644:main.c        ****             if(Segmento<Segmentos-1){
 8190              		.loc 1 1644 0
 8191 1f42 7C4B     		ldr	r3, .L476+48
 8192 1f44 1A78     		ldrb	r2, [r3]	@ zero_extendqisi2
 8193 1f46 794B     		ldr	r3, .L476+40
 8194 1f48 1B78     		ldrb	r3, [r3]	@ zero_extendqisi2
 8195 1f4a 013B     		subs	r3, r3, #1
 8196 1f4c 9A42     		cmp	r2, r3
 8197 1f4e 08DA     		bge	.L405
1645:main.c        ****                Segmento++;
 8198              		.loc 1 1645 0
 8199 1f50 0132     		adds	r2, r2, #1
 8200 1f52 784B     		ldr	r3, .L476+48
 8201 1f54 1A70     		strb	r2, [r3]
1646:main.c        ****                hEst=0;
 8202              		.loc 1 1646 0
 8203 1f56 0023     		movs	r3, #0
 8204 1f58 724A     		ldr	r2, .L476+32
 8205 1f5a 1370     		strb	r3, [r2]
1647:main.c        ****                mEst=0;
 8206              		.loc 1 1647 0
 8207 1f5c 704A     		ldr	r2, .L476+28
 8208 1f5e 1370     		strb	r3, [r2]
 8209 1f60 02E0     		b	.L406
 8210              	.L405:
ARM GAS  C:\Users\JPELEC~1\AppData\Local\Temp\ccEetrge.s 			page 183


1648:main.c        ****             }else{
1649:main.c        ****                Finalizo=ON;
 8211              		.loc 1 1649 0
 8212 1f62 0122     		movs	r2, #1
 8213 1f64 794B     		ldr	r3, .L476+72
 8214 1f66 1A80     		strh	r2, [r3]	@ movhi
 8215              	.L406:
1650:main.c        ****             }
1651:main.c        ****             for(i=0;i<2;i++){
 8216              		.loc 1 1651 0
 8217 1f68 0022     		movs	r2, #0
 8218 1f6a 7A4B     		ldr	r3, .L476+80
 8219 1f6c 1A70     		strb	r2, [r3]
 8220 1f6e 11E0     		b	.L407
 8221              	.L408:
1652:main.c        ****                LED_Write(1);
 8222              		.loc 1 1652 0 discriminator 3
 8223 1f70 0120     		movs	r0, #1
 8224 1f72 FFF7FEFF 		bl	LED_Write
 8225              	.LVL653:
1653:main.c        ****                CyDelay(1000);
 8226              		.loc 1 1653 0 discriminator 3
 8227 1f76 4FF47A70 		mov	r0, #1000
 8228 1f7a FFF7FEFF 		bl	CyDelay
 8229              	.LVL654:
1654:main.c        ****                LED_Write(0);
 8230              		.loc 1 1654 0 discriminator 3
 8231 1f7e 0020     		movs	r0, #0
 8232 1f80 FFF7FEFF 		bl	LED_Write
 8233              	.LVL655:
1655:main.c        ****                CyDelay(1000);
 8234              		.loc 1 1655 0 discriminator 3
 8235 1f84 4FF47A70 		mov	r0, #1000
 8236 1f88 FFF7FEFF 		bl	CyDelay
 8237              	.LVL656:
1651:main.c        ****                LED_Write(1);
 8238              		.loc 1 1651 0 discriminator 3
 8239 1f8c 714A     		ldr	r2, .L476+80
 8240 1f8e 1378     		ldrb	r3, [r2]	@ zero_extendqisi2
 8241 1f90 0133     		adds	r3, r3, #1
 8242 1f92 1370     		strb	r3, [r2]
 8243              	.L407:
1651:main.c        ****                LED_Write(1);
 8244              		.loc 1 1651 0 is_stmt 0 discriminator 1
 8245 1f94 6F4B     		ldr	r3, .L476+80
 8246 1f96 1B78     		ldrb	r3, [r3]	@ zero_extendqisi2
 8247 1f98 012B     		cmp	r3, #1
 8248 1f9a E9D9     		bls	.L408
 8249              	.L388:
1656:main.c        ****             }
1657:main.c        ****          }
1658:main.c        ****       }
1659:main.c        ****     }
1660:main.c        **** //_------------------------------------------------------------------------------------------------
1661:main.c        ****      
1662:main.c        **** //_------------------------------------------------------------------------------------------------
1663:main.c        ****       if(Menu==100){ //Menu de Configuración de Parametros de Control
ARM GAS  C:\Users\JPELEC~1\AppData\Local\Temp\ccEetrge.s 			page 184


 8250              		.loc 1 1663 0 is_stmt 1
 8251 1f9c 6E4B     		ldr	r3, .L476+84
 8252 1f9e 1B78     		ldrb	r3, [r3]	@ zero_extendqisi2
 8253 1fa0 642B     		cmp	r3, #100
 8254 1fa2 7EF496A8 		bne	.L409
1664:main.c        ****      
1665:main.c        ****       if(Opcion2>7)
 8255              		.loc 1 1665 0
 8256 1fa6 6D4B     		ldr	r3, .L476+88
 8257 1fa8 1B78     		ldrb	r3, [r3]	@ zero_extendqisi2
 8258 1faa 072B     		cmp	r3, #7
 8259 1fac 02D9     		bls	.L410
1666:main.c        ****          Opcion2=1;
 8260              		.loc 1 1666 0
 8261 1fae 0122     		movs	r2, #1
 8262 1fb0 6A4B     		ldr	r3, .L476+88
 8263 1fb2 1A70     		strb	r2, [r3]
 8264              	.L410:
1667:main.c        ****       if(Opcion2<1)
 8265              		.loc 1 1667 0
 8266 1fb4 694B     		ldr	r3, .L476+88
 8267 1fb6 1B78     		ldrb	r3, [r3]	@ zero_extendqisi2
 8268 1fb8 13B9     		cbnz	r3, .L411
1668:main.c        ****          Opcion2=7;
 8269              		.loc 1 1668 0
 8270 1fba 0722     		movs	r2, #7
 8271 1fbc 674B     		ldr	r3, .L476+88
 8272 1fbe 1A70     		strb	r2, [r3]
 8273              	.L411:
1669:main.c        ****       
1670:main.c        ****       if(Opcion2==1){
 8274              		.loc 1 1670 0
 8275 1fc0 664B     		ldr	r3, .L476+88
 8276 1fc2 1B78     		ldrb	r3, [r3]	@ zero_extendqisi2
 8277 1fc4 012B     		cmp	r3, #1
 8278 1fc6 54D1     		bne	.L412
1671:main.c        ****          escribeDisplay2("Config.t2c.txt=\"Proporcional\"");      
 8279              		.loc 1 1671 0
 8280 1fc8 6548     		ldr	r0, .L476+92
 8281 1fca FFF7FEFF 		bl	escribeDisplay2
 8282              	.LVL657:
1672:main.c        ****          sprintf(displayStr,"t3c.txt=\"%u\"",(uint8)Ganancia);
 8283              		.loc 1 1672 0
 8284 1fce 654B     		ldr	r3, .L476+96
 8285 1fd0 1868     		ldr	r0, [r3]	@ float
 8286 1fd2 FFF7FEFF 		bl	__aeabi_f2uiz
 8287              	.LVL658:
 8288 1fd6 4B4C     		ldr	r4, .L476
 8289 1fd8 C2B2     		uxtb	r2, r0
 8290 1fda 6349     		ldr	r1, .L476+100
 8291 1fdc 2046     		mov	r0, r4
 8292 1fde FFF7FEFF 		bl	sprintf
 8293              	.LVL659:
1673:main.c        ****          escribeDisplay2(displayStr);
 8294              		.loc 1 1673 0
 8295 1fe2 2046     		mov	r0, r4
 8296 1fe4 FFF7FEFF 		bl	escribeDisplay2
ARM GAS  C:\Users\JPELEC~1\AppData\Local\Temp\ccEetrge.s 			page 185


 8297              	.LVL660:
1674:main.c        ****          
1675:main.c        ****          if(Rx_Buffer[4]==0x0a){//Tecla Arriba Oprimida
 8298              		.loc 1 1675 0
 8299 1fe8 604B     		ldr	r3, .L476+104
 8300 1fea 1B79     		ldrb	r3, [r3, #4]	@ zero_extendqisi2
 8301 1fec 0A2B     		cmp	r3, #10
 8302 1fee 12D1     		bne	.L413
1676:main.c        ****             CyDelay(20);
 8303              		.loc 1 1676 0
 8304 1ff0 1420     		movs	r0, #20
 8305 1ff2 FFF7FEFF 		bl	CyDelay
 8306              	.LVL661:
1677:main.c        ****             if(Rx_Buffer[4]==0x0a){
 8307              		.loc 1 1677 0
 8308 1ff6 5D4B     		ldr	r3, .L476+104
 8309 1ff8 1B79     		ldrb	r3, [r3, #4]	@ zero_extendqisi2
 8310 1ffa 0A2B     		cmp	r3, #10
 8311 1ffc 0BD1     		bne	.L413
1678:main.c        ****                Ganancia+=1.0;
 8312              		.loc 1 1678 0
 8313 1ffe 594C     		ldr	r4, .L476+96
 8314 2000 4FF07E51 		mov	r1, #1065353216
 8315 2004 2068     		ldr	r0, [r4]	@ float
 8316 2006 FFF7FEFF 		bl	__aeabi_fadd
 8317              	.LVL662:
 8318 200a 2060     		str	r0, [r4]	@ float
1679:main.c        ****                Rx_Buffer[4]=0x00;  
 8319              		.loc 1 1679 0
 8320 200c 0023     		movs	r3, #0
 8321 200e 574A     		ldr	r2, .L476+104
 8322 2010 1371     		strb	r3, [r2, #4]
1680:main.c        ****                Rx_Buffer2[4]=0x00;            
 8323              		.loc 1 1680 0
 8324 2012 574A     		ldr	r2, .L476+108
 8325 2014 1371     		strb	r3, [r2, #4]
 8326              	.L413:
1681:main.c        ****             }
1682:main.c        ****          }
1683:main.c        ****             
1684:main.c        ****          if(Rx_Buffer[4]==0x0b){//Tecla Abajo Oprimida
 8327              		.loc 1 1684 0
 8328 2016 554B     		ldr	r3, .L476+104
 8329 2018 1B79     		ldrb	r3, [r3, #4]	@ zero_extendqisi2
 8330 201a 0B2B     		cmp	r3, #11
 8331 201c 12D1     		bne	.L414
1685:main.c        ****             CyDelay(20);
 8332              		.loc 1 1685 0
 8333 201e 1420     		movs	r0, #20
 8334 2020 FFF7FEFF 		bl	CyDelay
 8335              	.LVL663:
1686:main.c        ****             if(Rx_Buffer[4]==0x0b){
 8336              		.loc 1 1686 0
 8337 2024 514B     		ldr	r3, .L476+104
 8338 2026 1B79     		ldrb	r3, [r3, #4]	@ zero_extendqisi2
 8339 2028 0B2B     		cmp	r3, #11
 8340 202a 0BD1     		bne	.L414
ARM GAS  C:\Users\JPELEC~1\AppData\Local\Temp\ccEetrge.s 			page 186


1687:main.c        ****                Ganancia-=1.0;
 8341              		.loc 1 1687 0
 8342 202c 4D4C     		ldr	r4, .L476+96
 8343 202e 4FF07E51 		mov	r1, #1065353216
 8344 2032 2068     		ldr	r0, [r4]	@ float
 8345 2034 FFF7FEFF 		bl	__aeabi_fsub
 8346              	.LVL664:
 8347 2038 2060     		str	r0, [r4]	@ float
1688:main.c        ****                Rx_Buffer[4]=0x00;
 8348              		.loc 1 1688 0
 8349 203a 0023     		movs	r3, #0
 8350 203c 4B4A     		ldr	r2, .L476+104
 8351 203e 1371     		strb	r3, [r2, #4]
1689:main.c        ****                Rx_Buffer2[4]=0x00;            
 8352              		.loc 1 1689 0
 8353 2040 4B4A     		ldr	r2, .L476+108
 8354 2042 1371     		strb	r3, [r2, #4]
 8355              	.L414:
1690:main.c        ****             }
1691:main.c        ****          }
1692:main.c        ****          
1693:main.c        ****          if(Ganancia>20)
 8356              		.loc 1 1693 0
 8357 2044 4B49     		ldr	r1, .L476+112
 8358 2046 474B     		ldr	r3, .L476+96
 8359 2048 1868     		ldr	r0, [r3]	@ float
 8360 204a FFF7FEFF 		bl	__aeabi_fcmpgt
 8361              	.LVL665:
 8362 204e 18B1     		cbz	r0, .L415
1694:main.c        ****             Ganancia=1;
 8363              		.loc 1 1694 0
 8364 2050 4FF07E52 		mov	r2, #1065353216
 8365 2054 434B     		ldr	r3, .L476+96
 8366 2056 1A60     		str	r2, [r3]	@ float
 8367              	.L415:
1695:main.c        ****          if(Ganancia<1)
 8368              		.loc 1 1695 0
 8369 2058 4FF07E51 		mov	r1, #1065353216
 8370 205c 414B     		ldr	r3, .L476+96
 8371 205e 1868     		ldr	r0, [r3]	@ float
 8372 2060 FFF7FEFF 		bl	__aeabi_fcmplt
 8373              	.LVL666:
 8374 2064 0028     		cmp	r0, #0
 8375 2066 00F0FA81 		beq	.L417
1696:main.c        ****             Ganancia=20;
 8376              		.loc 1 1696 0
 8377 206a 424A     		ldr	r2, .L476+112
 8378 206c 3D4B     		ldr	r3, .L476+96
 8379 206e 1A60     		str	r2, [r3]	@ float
 8380 2070 F5E1     		b	.L417
 8381              	.L412:
1697:main.c        ****       }else if(Opcion2==2){
 8382              		.loc 1 1697 0
 8383 2072 022B     		cmp	r3, #2
 8384 2074 40F08480 		bne	.L419
1698:main.c        ****          escribeDisplay2("Config.t2c.txt=\"Derivativo\"");
 8385              		.loc 1 1698 0
ARM GAS  C:\Users\JPELEC~1\AppData\Local\Temp\ccEetrge.s 			page 187


 8386 2078 3F48     		ldr	r0, .L476+116
 8387 207a FFF7FEFF 		bl	escribeDisplay2
 8388              	.LVL667:
1699:main.c        ****          sprintf(displayStr,"t3c.txt=\"%u\"",Derivativo);
 8389              		.loc 1 1699 0
 8390 207e 214C     		ldr	r4, .L476
 8391 2080 3E4B     		ldr	r3, .L476+120
 8392 2082 1A78     		ldrb	r2, [r3]	@ zero_extendqisi2
 8393 2084 3849     		ldr	r1, .L476+100
 8394 2086 2046     		mov	r0, r4
 8395 2088 FFF7FEFF 		bl	sprintf
 8396              	.LVL668:
1700:main.c        ****          escribeDisplay2(displayStr); 
 8397              		.loc 1 1700 0
 8398 208c 2046     		mov	r0, r4
 8399 208e FFF7FEFF 		bl	escribeDisplay2
 8400              	.LVL669:
1701:main.c        ****         
1702:main.c        ****          if(Rx_Buffer[4]==0x0a){//Tecla Arriba Oprimida
 8401              		.loc 1 1702 0
 8402 2092 364B     		ldr	r3, .L476+104
 8403 2094 1B79     		ldrb	r3, [r3, #4]	@ zero_extendqisi2
 8404 2096 0A2B     		cmp	r3, #10
 8405 2098 0FD1     		bne	.L420
1703:main.c        ****             CyDelay(20);
 8406              		.loc 1 1703 0
 8407 209a 1420     		movs	r0, #20
 8408 209c FFF7FEFF 		bl	CyDelay
 8409              	.LVL670:
1704:main.c        ****             if(Rx_Buffer[4]==0x0a){
 8410              		.loc 1 1704 0
 8411 20a0 324B     		ldr	r3, .L476+104
 8412 20a2 1B79     		ldrb	r3, [r3, #4]	@ zero_extendqisi2
 8413 20a4 0A2B     		cmp	r3, #10
 8414 20a6 08D1     		bne	.L420
1705:main.c        ****                Derivativo++;
 8415              		.loc 1 1705 0
 8416 20a8 344A     		ldr	r2, .L476+120
 8417 20aa 1378     		ldrb	r3, [r2]	@ zero_extendqisi2
 8418 20ac 0133     		adds	r3, r3, #1
 8419 20ae 1370     		strb	r3, [r2]
1706:main.c        ****                Rx_Buffer[4]=0x00;  
 8420              		.loc 1 1706 0
 8421 20b0 0023     		movs	r3, #0
 8422 20b2 2E4A     		ldr	r2, .L476+104
 8423 20b4 1371     		strb	r3, [r2, #4]
1707:main.c        ****                Rx_Buffer2[4]=0x00;                           
 8424              		.loc 1 1707 0
 8425 20b6 2E4A     		ldr	r2, .L476+108
 8426 20b8 1371     		strb	r3, [r2, #4]
 8427              	.L420:
1708:main.c        ****             }
1709:main.c        ****          }
1710:main.c        ****             
1711:main.c        ****          if(Rx_Buffer[4]==0x0b){//Tecla Abajo Oprimida
 8428              		.loc 1 1711 0
 8429 20ba 2C4B     		ldr	r3, .L476+104
ARM GAS  C:\Users\JPELEC~1\AppData\Local\Temp\ccEetrge.s 			page 188


 8430 20bc 1B79     		ldrb	r3, [r3, #4]	@ zero_extendqisi2
 8431 20be 0B2B     		cmp	r3, #11
 8432 20c0 0FD1     		bne	.L421
1712:main.c        ****             CyDelay(20);
 8433              		.loc 1 1712 0
 8434 20c2 1420     		movs	r0, #20
 8435 20c4 FFF7FEFF 		bl	CyDelay
 8436              	.LVL671:
1713:main.c        ****             if(Rx_Buffer[4]==0x0b){
 8437              		.loc 1 1713 0
 8438 20c8 284B     		ldr	r3, .L476+104
 8439 20ca 1B79     		ldrb	r3, [r3, #4]	@ zero_extendqisi2
 8440 20cc 0B2B     		cmp	r3, #11
 8441 20ce 08D1     		bne	.L421
1714:main.c        ****                Derivativo--;
 8442              		.loc 1 1714 0
 8443 20d0 2A4A     		ldr	r2, .L476+120
 8444 20d2 1378     		ldrb	r3, [r2]	@ zero_extendqisi2
 8445 20d4 013B     		subs	r3, r3, #1
 8446 20d6 1370     		strb	r3, [r2]
1715:main.c        ****                Rx_Buffer[4]=0x00;
 8447              		.loc 1 1715 0
 8448 20d8 0023     		movs	r3, #0
 8449 20da 244A     		ldr	r2, .L476+104
 8450 20dc 1371     		strb	r3, [r2, #4]
1716:main.c        ****                Rx_Buffer2[4]=0x00;                           
 8451              		.loc 1 1716 0
 8452 20de 244A     		ldr	r2, .L476+108
 8453 20e0 1371     		strb	r3, [r2, #4]
 8454              	.L421:
1717:main.c        ****             }
1718:main.c        ****          }
1719:main.c        ****          
1720:main.c        ****          if(Derivativo>80)
 8455              		.loc 1 1720 0
 8456 20e2 264B     		ldr	r3, .L476+120
 8457 20e4 1B78     		ldrb	r3, [r3]	@ zero_extendqisi2
 8458 20e6 502B     		cmp	r3, #80
 8459 20e8 02D9     		bls	.L422
1721:main.c        ****             Derivativo=1;
 8460              		.loc 1 1721 0
 8461 20ea 0122     		movs	r2, #1
 8462 20ec 234B     		ldr	r3, .L476+120
 8463 20ee 1A70     		strb	r2, [r3]
 8464              	.L422:
1722:main.c        ****          if(Derivativo<1)
 8465              		.loc 1 1722 0
 8466 20f0 224B     		ldr	r3, .L476+120
 8467 20f2 1B78     		ldrb	r3, [r3]	@ zero_extendqisi2
 8468 20f4 002B     		cmp	r3, #0
 8469 20f6 40F0B281 		bne	.L417
1723:main.c        ****             Derivativo=80;
 8470              		.loc 1 1723 0
 8471 20fa 5022     		movs	r2, #80
 8472 20fc 1F4B     		ldr	r3, .L476+120
 8473 20fe 1A70     		strb	r2, [r3]
 8474 2100 ADE1     		b	.L417
ARM GAS  C:\Users\JPELEC~1\AppData\Local\Temp\ccEetrge.s 			page 189


 8475              	.L477:
 8476 2102 00BF     		.align	2
 8477              	.L476:
 8478 2104 00000000 		.word	displayStr
 8479 2108 4C060000 		.word	.LC87
 8480 210c 00000000 		.word	Setpoint
 8481 2110 60060000 		.word	.LC88
 8482 2114 00000000 		.word	mEstp
 8483 2118 00000000 		.word	hEstp
 8484 211c 78060000 		.word	.LC89
 8485 2120 00000000 		.word	mEst
 8486 2124 00000000 		.word	hEst
 8487 2128 98060000 		.word	.LC90
 8488 212c 00000000 		.word	Segmentos
 8489 2130 AC060000 		.word	.LC91
 8490 2134 00000000 		.word	Segmento
 8491 2138 C4060000 		.word	.LC92
 8492 213c 00000000 		.word	Potencia
 8493 2140 E0060000 		.word	.LC93
 8494 2144 00000000 		.word	Pendiente
 8495 2148 FC060000 		.word	.LC94
 8496 214c 00000000 		.word	Finalizo
 8497 2150 00000000 		.word	flag_calcula
 8498 2154 00000000 		.word	i
 8499 2158 00000000 		.word	Menu
 8500 215c 00000000 		.word	Opcion2
 8501 2160 1C070000 		.word	.LC95
 8502 2164 00000000 		.word	Ganancia
 8503 2168 3C070000 		.word	.LC96
 8504 216c 00000000 		.word	Rx_Buffer
 8505 2170 00000000 		.word	Rx_Buffer2
 8506 2174 0000A041 		.word	1101004800
 8507 2178 4C070000 		.word	.LC97
 8508 217c 00000000 		.word	Derivativo
 8509              	.L419:
1724:main.c        ****       }else if(Opcion2==3){
 8510              		.loc 1 1724 0
 8511 2180 032B     		cmp	r3, #3
 8512 2182 44D1     		bne	.L423
1725:main.c        ****          escribeDisplay2("Config.t2c.txt=\"Integral\"");
 8513              		.loc 1 1725 0
 8514 2184 8A48     		ldr	r0, .L478
 8515 2186 FFF7FEFF 		bl	escribeDisplay2
 8516              	.LVL672:
1726:main.c        ****          sprintf(displayStr,"t3c.txt=\"%u\"",Integral);
 8517              		.loc 1 1726 0
 8518 218a 8A4C     		ldr	r4, .L478+4
 8519 218c 8A4B     		ldr	r3, .L478+8
 8520 218e 1A78     		ldrb	r2, [r3]	@ zero_extendqisi2
 8521 2190 8A49     		ldr	r1, .L478+12
 8522 2192 2046     		mov	r0, r4
 8523 2194 FFF7FEFF 		bl	sprintf
 8524              	.LVL673:
1727:main.c        ****          escribeDisplay2(displayStr); 
 8525              		.loc 1 1727 0
 8526 2198 2046     		mov	r0, r4
 8527 219a FFF7FEFF 		bl	escribeDisplay2
ARM GAS  C:\Users\JPELEC~1\AppData\Local\Temp\ccEetrge.s 			page 190


 8528              	.LVL674:
1728:main.c        ****          if(Rx_Buffer[4]==0x0a){//Tecla Arriba Oprimida
 8529              		.loc 1 1728 0
 8530 219e 884B     		ldr	r3, .L478+16
 8531 21a0 1B79     		ldrb	r3, [r3, #4]	@ zero_extendqisi2
 8532 21a2 0A2B     		cmp	r3, #10
 8533 21a4 0FD1     		bne	.L424
1729:main.c        ****             CyDelay(20);
 8534              		.loc 1 1729 0
 8535 21a6 1420     		movs	r0, #20
 8536 21a8 FFF7FEFF 		bl	CyDelay
 8537              	.LVL675:
1730:main.c        ****             if(Rx_Buffer[4]==0x0a){
 8538              		.loc 1 1730 0
 8539 21ac 844B     		ldr	r3, .L478+16
 8540 21ae 1B79     		ldrb	r3, [r3, #4]	@ zero_extendqisi2
 8541 21b0 0A2B     		cmp	r3, #10
 8542 21b2 08D1     		bne	.L424
1731:main.c        ****                Integral++;
 8543              		.loc 1 1731 0
 8544 21b4 804A     		ldr	r2, .L478+8
 8545 21b6 1378     		ldrb	r3, [r2]	@ zero_extendqisi2
 8546 21b8 0133     		adds	r3, r3, #1
 8547 21ba 1370     		strb	r3, [r2]
1732:main.c        ****                Rx_Buffer[4]=0x00;  
 8548              		.loc 1 1732 0
 8549 21bc 0023     		movs	r3, #0
 8550 21be 804A     		ldr	r2, .L478+16
 8551 21c0 1371     		strb	r3, [r2, #4]
1733:main.c        ****                Rx_Buffer2[4]=0x00;            
 8552              		.loc 1 1733 0
 8553 21c2 804A     		ldr	r2, .L478+20
 8554 21c4 1371     		strb	r3, [r2, #4]
 8555              	.L424:
1734:main.c        ****             }
1735:main.c        ****          }
1736:main.c        ****             
1737:main.c        ****          if(Rx_Buffer[4]==0x0b){//Tecla Abajo Oprimida
 8556              		.loc 1 1737 0
 8557 21c6 7E4B     		ldr	r3, .L478+16
 8558 21c8 1B79     		ldrb	r3, [r3, #4]	@ zero_extendqisi2
 8559 21ca 0B2B     		cmp	r3, #11
 8560 21cc 0FD1     		bne	.L425
1738:main.c        ****             CyDelay(20);
 8561              		.loc 1 1738 0
 8562 21ce 1420     		movs	r0, #20
 8563 21d0 FFF7FEFF 		bl	CyDelay
 8564              	.LVL676:
1739:main.c        ****             if(Rx_Buffer[4]==0x0b){
 8565              		.loc 1 1739 0
 8566 21d4 7A4B     		ldr	r3, .L478+16
 8567 21d6 1B79     		ldrb	r3, [r3, #4]	@ zero_extendqisi2
 8568 21d8 0B2B     		cmp	r3, #11
 8569 21da 08D1     		bne	.L425
1740:main.c        ****                Integral--;
 8570              		.loc 1 1740 0
 8571 21dc 764A     		ldr	r2, .L478+8
ARM GAS  C:\Users\JPELEC~1\AppData\Local\Temp\ccEetrge.s 			page 191


 8572 21de 1378     		ldrb	r3, [r2]	@ zero_extendqisi2
 8573 21e0 013B     		subs	r3, r3, #1
 8574 21e2 1370     		strb	r3, [r2]
1741:main.c        ****                Rx_Buffer[4]=0x00;
 8575              		.loc 1 1741 0
 8576 21e4 0023     		movs	r3, #0
 8577 21e6 764A     		ldr	r2, .L478+16
 8578 21e8 1371     		strb	r3, [r2, #4]
1742:main.c        ****                Rx_Buffer2[4]=0x00;                           
 8579              		.loc 1 1742 0
 8580 21ea 764A     		ldr	r2, .L478+20
 8581 21ec 1371     		strb	r3, [r2, #4]
 8582              	.L425:
1743:main.c        ****             }
1744:main.c        ****          }
1745:main.c        ****          
1746:main.c        ****          if(Integral>4)
 8583              		.loc 1 1746 0
 8584 21ee 724B     		ldr	r3, .L478+8
 8585 21f0 1B78     		ldrb	r3, [r3]	@ zero_extendqisi2
 8586 21f2 042B     		cmp	r3, #4
 8587 21f4 02D9     		bls	.L426
1747:main.c        ****             Integral=1;
 8588              		.loc 1 1747 0
 8589 21f6 0122     		movs	r2, #1
 8590 21f8 6F4B     		ldr	r3, .L478+8
 8591 21fa 1A70     		strb	r2, [r3]
 8592              	.L426:
1748:main.c        ****          if(Integral<1)
 8593              		.loc 1 1748 0
 8594 21fc 6E4B     		ldr	r3, .L478+8
 8595 21fe 1B78     		ldrb	r3, [r3]	@ zero_extendqisi2
 8596 2200 002B     		cmp	r3, #0
 8597 2202 40F02C81 		bne	.L417
1749:main.c        ****             Integral=4;
 8598              		.loc 1 1749 0
 8599 2206 0422     		movs	r2, #4
 8600 2208 6B4B     		ldr	r3, .L478+8
 8601 220a 1A70     		strb	r2, [r3]
 8602 220c 27E1     		b	.L417
 8603              	.L423:
1750:main.c        ****       }else if(Opcion2==4){
 8604              		.loc 1 1750 0
 8605 220e 042B     		cmp	r3, #4
 8606 2210 52D1     		bne	.L427
1751:main.c        ****          escribeDisplay2("Config.t2c.txt=\"Tciclo\"");
 8607              		.loc 1 1751 0
 8608 2212 6D48     		ldr	r0, .L478+24
 8609 2214 FFF7FEFF 		bl	escribeDisplay2
 8610              	.LVL677:
1752:main.c        ****          sprintf(displayStr,"t3c.txt=\"%u\"",Tciclo);
 8611              		.loc 1 1752 0
 8612 2218 664C     		ldr	r4, .L478+4
 8613 221a 6C4B     		ldr	r3, .L478+28
 8614 221c 1A78     		ldrb	r2, [r3]	@ zero_extendqisi2
 8615 221e 6749     		ldr	r1, .L478+12
 8616 2220 2046     		mov	r0, r4
ARM GAS  C:\Users\JPELEC~1\AppData\Local\Temp\ccEetrge.s 			page 192


 8617 2222 FFF7FEFF 		bl	sprintf
 8618              	.LVL678:
1753:main.c        ****          escribeDisplay2(displayStr); 
 8619              		.loc 1 1753 0
 8620 2226 2046     		mov	r0, r4
 8621 2228 FFF7FEFF 		bl	escribeDisplay2
 8622              	.LVL679:
1754:main.c        ****          if(Rx_Buffer[4]==0x0a){//Tecla Arriba Oprimida
 8623              		.loc 1 1754 0
 8624 222c 644B     		ldr	r3, .L478+16
 8625 222e 1B79     		ldrb	r3, [r3, #4]	@ zero_extendqisi2
 8626 2230 0A2B     		cmp	r3, #10
 8627 2232 16D1     		bne	.L428
1755:main.c        ****             CyDelay(20);
 8628              		.loc 1 1755 0
 8629 2234 1420     		movs	r0, #20
 8630 2236 FFF7FEFF 		bl	CyDelay
 8631              	.LVL680:
1756:main.c        ****             if(Rx_Buffer[4]==0x0a){
 8632              		.loc 1 1756 0
 8633 223a 614B     		ldr	r3, .L478+16
 8634 223c 1B79     		ldrb	r3, [r3, #4]	@ zero_extendqisi2
 8635 223e 0A2B     		cmp	r3, #10
 8636 2240 0FD1     		bne	.L428
1757:main.c        ****                Tciclo+=1.0;
 8637              		.loc 1 1757 0
 8638 2242 624C     		ldr	r4, .L478+28
 8639 2244 2078     		ldrb	r0, [r4]	@ zero_extendqisi2
 8640 2246 FFF7FEFF 		bl	__aeabi_i2d
 8641              	.LVL681:
 8642 224a 0022     		movs	r2, #0
 8643 224c 604B     		ldr	r3, .L478+32
 8644 224e FFF7FEFF 		bl	__aeabi_dadd
 8645              	.LVL682:
 8646 2252 FFF7FEFF 		bl	__aeabi_d2uiz
 8647              	.LVL683:
 8648 2256 2070     		strb	r0, [r4]
1758:main.c        ****                Rx_Buffer[4]=0x00;  
 8649              		.loc 1 1758 0
 8650 2258 0023     		movs	r3, #0
 8651 225a 594A     		ldr	r2, .L478+16
 8652 225c 1371     		strb	r3, [r2, #4]
1759:main.c        ****                Rx_Buffer2[4]=0x00;            
 8653              		.loc 1 1759 0
 8654 225e 594A     		ldr	r2, .L478+20
 8655 2260 1371     		strb	r3, [r2, #4]
 8656              	.L428:
1760:main.c        ****             }
1761:main.c        ****          }
1762:main.c        ****             
1763:main.c        ****          if(Rx_Buffer[4]==0x0b){//Tecla Abajo Oprimida
 8657              		.loc 1 1763 0
 8658 2262 574B     		ldr	r3, .L478+16
 8659 2264 1B79     		ldrb	r3, [r3, #4]	@ zero_extendqisi2
 8660 2266 0B2B     		cmp	r3, #11
 8661 2268 16D1     		bne	.L429
1764:main.c        ****             CyDelay(20);
ARM GAS  C:\Users\JPELEC~1\AppData\Local\Temp\ccEetrge.s 			page 193


 8662              		.loc 1 1764 0
 8663 226a 1420     		movs	r0, #20
 8664 226c FFF7FEFF 		bl	CyDelay
 8665              	.LVL684:
1765:main.c        ****             if(Rx_Buffer[4]==0x0b){
 8666              		.loc 1 1765 0
 8667 2270 534B     		ldr	r3, .L478+16
 8668 2272 1B79     		ldrb	r3, [r3, #4]	@ zero_extendqisi2
 8669 2274 0B2B     		cmp	r3, #11
 8670 2276 0FD1     		bne	.L429
1766:main.c        ****                Tciclo-=1.0;
 8671              		.loc 1 1766 0
 8672 2278 544C     		ldr	r4, .L478+28
 8673 227a 2078     		ldrb	r0, [r4]	@ zero_extendqisi2
 8674 227c FFF7FEFF 		bl	__aeabi_i2d
 8675              	.LVL685:
 8676 2280 0022     		movs	r2, #0
 8677 2282 534B     		ldr	r3, .L478+32
 8678 2284 FFF7FEFF 		bl	__aeabi_dsub
 8679              	.LVL686:
 8680 2288 FFF7FEFF 		bl	__aeabi_d2uiz
 8681              	.LVL687:
 8682 228c 2070     		strb	r0, [r4]
1767:main.c        ****                Rx_Buffer[4]=0x00;
 8683              		.loc 1 1767 0
 8684 228e 0023     		movs	r3, #0
 8685 2290 4B4A     		ldr	r2, .L478+16
 8686 2292 1371     		strb	r3, [r2, #4]
1768:main.c        ****                Rx_Buffer2[4]=0x00;            
 8687              		.loc 1 1768 0
 8688 2294 4B4A     		ldr	r2, .L478+20
 8689 2296 1371     		strb	r3, [r2, #4]
 8690              	.L429:
1769:main.c        ****             }
1770:main.c        ****          }
1771:main.c        ****          
1772:main.c        ****          if(Tciclo>20)
 8691              		.loc 1 1772 0
 8692 2298 4C4B     		ldr	r3, .L478+28
 8693 229a 1B78     		ldrb	r3, [r3]	@ zero_extendqisi2
 8694 229c 142B     		cmp	r3, #20
 8695 229e 02D9     		bls	.L430
1773:main.c        ****             Tciclo=5;
 8696              		.loc 1 1773 0
 8697 22a0 0522     		movs	r2, #5
 8698 22a2 4A4B     		ldr	r3, .L478+28
 8699 22a4 1A70     		strb	r2, [r3]
 8700              	.L430:
1774:main.c        ****          if(Tciclo<5)
 8701              		.loc 1 1774 0
 8702 22a6 494B     		ldr	r3, .L478+28
 8703 22a8 1B78     		ldrb	r3, [r3]	@ zero_extendqisi2
 8704 22aa 042B     		cmp	r3, #4
 8705 22ac 00F2D780 		bhi	.L417
1775:main.c        ****             Tciclo=20;
 8706              		.loc 1 1775 0
 8707 22b0 1422     		movs	r2, #20
ARM GAS  C:\Users\JPELEC~1\AppData\Local\Temp\ccEetrge.s 			page 194


 8708 22b2 464B     		ldr	r3, .L478+28
 8709 22b4 1A70     		strb	r2, [r3]
 8710 22b6 D2E0     		b	.L417
 8711              	.L427:
1776:main.c        ****       }else if(Opcion2==5){
 8712              		.loc 1 1776 0
 8713 22b8 052B     		cmp	r3, #5
 8714 22ba 3CD1     		bne	.L431
1777:main.c        ****          escribeDisplay2("Config.t2c.txt=\"Ajuste +\"");  
 8715              		.loc 1 1777 0
 8716 22bc 4548     		ldr	r0, .L478+36
 8717 22be FFF7FEFF 		bl	escribeDisplay2
 8718              	.LVL688:
1778:main.c        ****          sprintf(displayStr,"t3c.txt=\"%u\"",Ajuste);
 8719              		.loc 1 1778 0
 8720 22c2 3C4C     		ldr	r4, .L478+4
 8721 22c4 444B     		ldr	r3, .L478+40
 8722 22c6 1A78     		ldrb	r2, [r3]	@ zero_extendqisi2
 8723 22c8 3C49     		ldr	r1, .L478+12
 8724 22ca 2046     		mov	r0, r4
 8725 22cc FFF7FEFF 		bl	sprintf
 8726              	.LVL689:
1779:main.c        ****          escribeDisplay2(displayStr); 
 8727              		.loc 1 1779 0
 8728 22d0 2046     		mov	r0, r4
 8729 22d2 FFF7FEFF 		bl	escribeDisplay2
 8730              	.LVL690:
1780:main.c        ****          if(Rx_Buffer[4]==0x0a){//Tecla Arriba Oprimida
 8731              		.loc 1 1780 0
 8732 22d6 3A4B     		ldr	r3, .L478+16
 8733 22d8 1B79     		ldrb	r3, [r3, #4]	@ zero_extendqisi2
 8734 22da 0A2B     		cmp	r3, #10
 8735 22dc 12D1     		bne	.L432
1781:main.c        ****             CyDelay(20);
 8736              		.loc 1 1781 0
 8737 22de 1420     		movs	r0, #20
 8738 22e0 FFF7FEFF 		bl	CyDelay
 8739              	.LVL691:
1782:main.c        ****             if(Rx_Buffer[4]==0x0a){
 8740              		.loc 1 1782 0
 8741 22e4 364B     		ldr	r3, .L478+16
 8742 22e6 1B79     		ldrb	r3, [r3, #4]	@ zero_extendqisi2
 8743 22e8 0A2B     		cmp	r3, #10
 8744 22ea 0BD1     		bne	.L432
1783:main.c        ****                if(Ajuste<40)
 8745              		.loc 1 1783 0
 8746 22ec 3A4B     		ldr	r3, .L478+40
 8747 22ee 1B78     		ldrb	r3, [r3]	@ zero_extendqisi2
 8748 22f0 272B     		cmp	r3, #39
 8749 22f2 02D8     		bhi	.L433
1784:main.c        ****                   Ajuste++;
 8750              		.loc 1 1784 0
 8751 22f4 0133     		adds	r3, r3, #1
 8752 22f6 384A     		ldr	r2, .L478+40
 8753 22f8 1370     		strb	r3, [r2]
 8754              	.L433:
1785:main.c        ****                Rx_Buffer[4]=0x00;  
ARM GAS  C:\Users\JPELEC~1\AppData\Local\Temp\ccEetrge.s 			page 195


 8755              		.loc 1 1785 0
 8756 22fa 0023     		movs	r3, #0
 8757 22fc 304A     		ldr	r2, .L478+16
 8758 22fe 1371     		strb	r3, [r2, #4]
1786:main.c        ****                Rx_Buffer2[4]=0x00;            
 8759              		.loc 1 1786 0
 8760 2300 304A     		ldr	r2, .L478+20
 8761 2302 1371     		strb	r3, [r2, #4]
 8762              	.L432:
1787:main.c        ****             }
1788:main.c        ****          }
1789:main.c        ****             
1790:main.c        ****          if(Rx_Buffer[4]==0x0b){//Tecla Abajo Oprimida
 8763              		.loc 1 1790 0
 8764 2304 2E4B     		ldr	r3, .L478+16
 8765 2306 1B79     		ldrb	r3, [r3, #4]	@ zero_extendqisi2
 8766 2308 0B2B     		cmp	r3, #11
 8767 230a 40F0A880 		bne	.L417
1791:main.c        ****             CyDelay(20);
 8768              		.loc 1 1791 0
 8769 230e 1420     		movs	r0, #20
 8770 2310 FFF7FEFF 		bl	CyDelay
 8771              	.LVL692:
1792:main.c        ****             if(Rx_Buffer[4]==0x0b){
 8772              		.loc 1 1792 0
 8773 2314 2A4B     		ldr	r3, .L478+16
 8774 2316 1B79     		ldrb	r3, [r3, #4]	@ zero_extendqisi2
 8775 2318 0B2B     		cmp	r3, #11
 8776 231a 40F0A080 		bne	.L417
1793:main.c        ****                if(Ajuste>0)
 8777              		.loc 1 1793 0
 8778 231e 2E4B     		ldr	r3, .L478+40
 8779 2320 1B78     		ldrb	r3, [r3]	@ zero_extendqisi2
 8780 2322 13B1     		cbz	r3, .L434
1794:main.c        ****                   Ajuste--;
 8781              		.loc 1 1794 0
 8782 2324 013B     		subs	r3, r3, #1
 8783 2326 2C4A     		ldr	r2, .L478+40
 8784 2328 1370     		strb	r3, [r2]
 8785              	.L434:
1795:main.c        ****                Rx_Buffer[4]=0x00;
 8786              		.loc 1 1795 0
 8787 232a 0023     		movs	r3, #0
 8788 232c 244A     		ldr	r2, .L478+16
 8789 232e 1371     		strb	r3, [r2, #4]
1796:main.c        ****                Rx_Buffer2[4]=0x00;            
 8790              		.loc 1 1796 0
 8791 2330 244A     		ldr	r2, .L478+20
 8792 2332 1371     		strb	r3, [r2, #4]
 8793 2334 93E0     		b	.L417
 8794              	.L431:
1797:main.c        ****             }
1798:main.c        ****          }
1799:main.c        ****       }else if(Opcion2==6){
 8795              		.loc 1 1799 0
 8796 2336 062B     		cmp	r3, #6
 8797 2338 54D1     		bne	.L435
ARM GAS  C:\Users\JPELEC~1\AppData\Local\Temp\ccEetrge.s 			page 196


1800:main.c        ****          escribeDisplay2("Config.t2c.txt=\"Ajuste -\"");
 8798              		.loc 1 1800 0
 8799 233a 2848     		ldr	r0, .L478+44
 8800 233c FFF7FEFF 		bl	escribeDisplay2
 8801              	.LVL693:
1801:main.c        ****          sprintf(displayStr,"t3c.txt=\"%u\"",Ajusten);
 8802              		.loc 1 1801 0
 8803 2340 1C4C     		ldr	r4, .L478+4
 8804 2342 274B     		ldr	r3, .L478+48
 8805 2344 1A78     		ldrb	r2, [r3]	@ zero_extendqisi2
 8806 2346 1D49     		ldr	r1, .L478+12
 8807 2348 2046     		mov	r0, r4
 8808 234a FFF7FEFF 		bl	sprintf
 8809              	.LVL694:
1802:main.c        ****          escribeDisplay2(displayStr); 
 8810              		.loc 1 1802 0
 8811 234e 2046     		mov	r0, r4
 8812 2350 FFF7FEFF 		bl	escribeDisplay2
 8813              	.LVL695:
1803:main.c        ****          if(Rx_Buffer[4]==0x0a){//Tecla Arriba Oprimida
 8814              		.loc 1 1803 0
 8815 2354 1A4B     		ldr	r3, .L478+16
 8816 2356 1B79     		ldrb	r3, [r3, #4]	@ zero_extendqisi2
 8817 2358 0A2B     		cmp	r3, #10
 8818 235a 12D1     		bne	.L436
1804:main.c        ****             CyDelay(20);
 8819              		.loc 1 1804 0
 8820 235c 1420     		movs	r0, #20
 8821 235e FFF7FEFF 		bl	CyDelay
 8822              	.LVL696:
1805:main.c        ****             if(Rx_Buffer[4]==0x0a){
 8823              		.loc 1 1805 0
 8824 2362 174B     		ldr	r3, .L478+16
 8825 2364 1B79     		ldrb	r3, [r3, #4]	@ zero_extendqisi2
 8826 2366 0A2B     		cmp	r3, #10
 8827 2368 0BD1     		bne	.L436
1806:main.c        ****                if(Ajusten<40)
 8828              		.loc 1 1806 0
 8829 236a 1D4B     		ldr	r3, .L478+48
 8830 236c 1B78     		ldrb	r3, [r3]	@ zero_extendqisi2
 8831 236e 272B     		cmp	r3, #39
 8832 2370 02D8     		bhi	.L437
1807:main.c        ****                   Ajusten++;
 8833              		.loc 1 1807 0
 8834 2372 0133     		adds	r3, r3, #1
 8835 2374 1A4A     		ldr	r2, .L478+48
 8836 2376 1370     		strb	r3, [r2]
 8837              	.L437:
1808:main.c        ****                Rx_Buffer[4]=0x00;  
 8838              		.loc 1 1808 0
 8839 2378 0023     		movs	r3, #0
 8840 237a 114A     		ldr	r2, .L478+16
 8841 237c 1371     		strb	r3, [r2, #4]
1809:main.c        ****                Rx_Buffer2[4]=0x00;            
 8842              		.loc 1 1809 0
 8843 237e 114A     		ldr	r2, .L478+20
 8844 2380 1371     		strb	r3, [r2, #4]
ARM GAS  C:\Users\JPELEC~1\AppData\Local\Temp\ccEetrge.s 			page 197


 8845              	.L436:
1810:main.c        ****             }         
1811:main.c        ****          }
1812:main.c        ****             
1813:main.c        ****          if(Rx_Buffer[4]==0x0b){//Tecla Abajo Oprimida
 8846              		.loc 1 1813 0
 8847 2382 0F4B     		ldr	r3, .L478+16
 8848 2384 1B79     		ldrb	r3, [r3, #4]	@ zero_extendqisi2
 8849 2386 0B2B     		cmp	r3, #11
 8850 2388 69D1     		bne	.L417
1814:main.c        ****             CyDelay(20);
 8851              		.loc 1 1814 0
 8852 238a 1420     		movs	r0, #20
 8853 238c FFF7FEFF 		bl	CyDelay
 8854              	.LVL697:
1815:main.c        ****             if(Rx_Buffer[4]==0x0b){
 8855              		.loc 1 1815 0
 8856 2390 0B4B     		ldr	r3, .L478+16
 8857 2392 1B79     		ldrb	r3, [r3, #4]	@ zero_extendqisi2
 8858 2394 0B2B     		cmp	r3, #11
 8859 2396 62D1     		bne	.L417
1816:main.c        ****                if(Ajusten>0)
 8860              		.loc 1 1816 0
 8861 2398 114B     		ldr	r3, .L478+48
 8862 239a 1B78     		ldrb	r3, [r3]	@ zero_extendqisi2
 8863 239c 13B1     		cbz	r3, .L438
1817:main.c        ****                   Ajusten--;
 8864              		.loc 1 1817 0
 8865 239e 013B     		subs	r3, r3, #1
 8866 23a0 0F4A     		ldr	r2, .L478+48
 8867 23a2 1370     		strb	r3, [r2]
 8868              	.L438:
1818:main.c        ****                Rx_Buffer[4]=0x00;
 8869              		.loc 1 1818 0
 8870 23a4 0023     		movs	r3, #0
 8871 23a6 064A     		ldr	r2, .L478+16
 8872 23a8 1371     		strb	r3, [r2, #4]
1819:main.c        ****                Rx_Buffer2[4]=0x00;            
 8873              		.loc 1 1819 0
 8874 23aa 064A     		ldr	r2, .L478+20
 8875 23ac 1371     		strb	r3, [r2, #4]
 8876 23ae 56E0     		b	.L417
 8877              	.L479:
 8878              		.align	2
 8879              	.L478:
 8880 23b0 68070000 		.word	.LC98
 8881 23b4 00000000 		.word	displayStr
 8882 23b8 00000000 		.word	Integral
 8883 23bc 3C070000 		.word	.LC96
 8884 23c0 00000000 		.word	Rx_Buffer
 8885 23c4 00000000 		.word	Rx_Buffer2
 8886 23c8 84070000 		.word	.LC99
 8887 23cc 00000000 		.word	Tciclo
 8888 23d0 0000F03F 		.word	1072693248
 8889 23d4 9C070000 		.word	.LC100
 8890 23d8 00000000 		.word	Ajuste
 8891 23dc B8070000 		.word	.LC101
ARM GAS  C:\Users\JPELEC~1\AppData\Local\Temp\ccEetrge.s 			page 198


 8892 23e0 00000000 		.word	Ajusten
 8893              	.L435:
1820:main.c        ****             }
1821:main.c        ****          }
1822:main.c        ****       }else if(Opcion2==7){
 8894              		.loc 1 1822 0
 8895 23e4 072B     		cmp	r3, #7
 8896 23e6 3AD1     		bne	.L417
1823:main.c        ****          escribeDisplay2("Config.t2c.txt=\"Media\"");    
 8897              		.loc 1 1823 0
 8898 23e8 5B48     		ldr	r0, .L480
 8899 23ea FFF7FEFF 		bl	escribeDisplay2
 8900              	.LVL698:
1824:main.c        ****          sprintf(displayStr,"t3c.txt=\"%u\"",MediaMovil);
 8901              		.loc 1 1824 0
 8902 23ee 5B4C     		ldr	r4, .L480+4
 8903 23f0 5B4B     		ldr	r3, .L480+8
 8904 23f2 1A78     		ldrb	r2, [r3]	@ zero_extendqisi2
 8905 23f4 5B49     		ldr	r1, .L480+12
 8906 23f6 2046     		mov	r0, r4
 8907 23f8 FFF7FEFF 		bl	sprintf
 8908              	.LVL699:
1825:main.c        ****          escribeDisplay2(displayStr);
 8909              		.loc 1 1825 0
 8910 23fc 2046     		mov	r0, r4
 8911 23fe FFF7FEFF 		bl	escribeDisplay2
 8912              	.LVL700:
1826:main.c        ****          if(Rx_Buffer[4]==0x0a){//Tecla Arriba Oprimida
 8913              		.loc 1 1826 0
 8914 2402 594B     		ldr	r3, .L480+16
 8915 2404 1B79     		ldrb	r3, [r3, #4]	@ zero_extendqisi2
 8916 2406 0A2B     		cmp	r3, #10
 8917 2408 12D1     		bne	.L439
1827:main.c        ****             CyDelay(20);
 8918              		.loc 1 1827 0
 8919 240a 1420     		movs	r0, #20
 8920 240c FFF7FEFF 		bl	CyDelay
 8921              	.LVL701:
1828:main.c        ****             if(Rx_Buffer[4]==0x0a){
 8922              		.loc 1 1828 0
 8923 2410 554B     		ldr	r3, .L480+16
 8924 2412 1B79     		ldrb	r3, [r3, #4]	@ zero_extendqisi2
 8925 2414 0A2B     		cmp	r3, #10
 8926 2416 0BD1     		bne	.L439
1829:main.c        ****                if(MediaMovil<80)
 8927              		.loc 1 1829 0
 8928 2418 514B     		ldr	r3, .L480+8
 8929 241a 1B78     		ldrb	r3, [r3]	@ zero_extendqisi2
 8930 241c 4F2B     		cmp	r3, #79
 8931 241e 02D8     		bhi	.L440
1830:main.c        ****                   MediaMovil++;
 8932              		.loc 1 1830 0
 8933 2420 0133     		adds	r3, r3, #1
 8934 2422 4F4A     		ldr	r2, .L480+8
 8935 2424 1370     		strb	r3, [r2]
 8936              	.L440:
1831:main.c        ****                Rx_Buffer[4]=0x00;  
ARM GAS  C:\Users\JPELEC~1\AppData\Local\Temp\ccEetrge.s 			page 199


 8937              		.loc 1 1831 0
 8938 2426 0023     		movs	r3, #0
 8939 2428 4F4A     		ldr	r2, .L480+16
 8940 242a 1371     		strb	r3, [r2, #4]
1832:main.c        ****                Rx_Buffer2[4]=0x00;            
 8941              		.loc 1 1832 0
 8942 242c 4F4A     		ldr	r2, .L480+20
 8943 242e 1371     		strb	r3, [r2, #4]
 8944              	.L439:
1833:main.c        ****             }
1834:main.c        ****          }
1835:main.c        ****             
1836:main.c        ****          if(Rx_Buffer[4]==0x0b){//Tecla Abajo Oprimida
 8945              		.loc 1 1836 0
 8946 2430 4D4B     		ldr	r3, .L480+16
 8947 2432 1B79     		ldrb	r3, [r3, #4]	@ zero_extendqisi2
 8948 2434 0B2B     		cmp	r3, #11
 8949 2436 12D1     		bne	.L417
1837:main.c        ****             CyDelay(20);
 8950              		.loc 1 1837 0
 8951 2438 1420     		movs	r0, #20
 8952 243a FFF7FEFF 		bl	CyDelay
 8953              	.LVL702:
1838:main.c        ****             if(Rx_Buffer[4]==0x0b){
 8954              		.loc 1 1838 0
 8955 243e 4A4B     		ldr	r3, .L480+16
 8956 2440 1B79     		ldrb	r3, [r3, #4]	@ zero_extendqisi2
 8957 2442 0B2B     		cmp	r3, #11
 8958 2444 0BD1     		bne	.L417
1839:main.c        ****                if(MediaMovil>10)
 8959              		.loc 1 1839 0
 8960 2446 464B     		ldr	r3, .L480+8
 8961 2448 1B78     		ldrb	r3, [r3]	@ zero_extendqisi2
 8962 244a 0A2B     		cmp	r3, #10
 8963 244c 02D9     		bls	.L441
1840:main.c        ****                   MediaMovil--;
 8964              		.loc 1 1840 0
 8965 244e 013B     		subs	r3, r3, #1
 8966 2450 434A     		ldr	r2, .L480+8
 8967 2452 1370     		strb	r3, [r2]
 8968              	.L441:
1841:main.c        ****                Rx_Buffer[4]=0x00;
 8969              		.loc 1 1841 0
 8970 2454 0023     		movs	r3, #0
 8971 2456 444A     		ldr	r2, .L480+16
 8972 2458 1371     		strb	r3, [r2, #4]
1842:main.c        ****                Rx_Buffer2[4]=0x00;            
 8973              		.loc 1 1842 0
 8974 245a 444A     		ldr	r2, .L480+20
 8975 245c 1371     		strb	r3, [r2, #4]
 8976              	.L417:
1843:main.c        ****             }            
1844:main.c        ****          }
1845:main.c        ****       }
1846:main.c        ****       
1847:main.c        ****       if(Rx_Buffer[4]==0x0c){//Tecla Izquierda Oprimida
 8977              		.loc 1 1847 0
ARM GAS  C:\Users\JPELEC~1\AppData\Local\Temp\ccEetrge.s 			page 200


 8978 245e 424B     		ldr	r3, .L480+16
 8979 2460 1B79     		ldrb	r3, [r3, #4]	@ zero_extendqisi2
 8980 2462 0C2B     		cmp	r3, #12
 8981 2464 0FD1     		bne	.L442
1848:main.c        ****          CyDelay(20);
 8982              		.loc 1 1848 0
 8983 2466 1420     		movs	r0, #20
 8984 2468 FFF7FEFF 		bl	CyDelay
 8985              	.LVL703:
1849:main.c        ****          if(Rx_Buffer[4]==0x0c){
 8986              		.loc 1 1849 0
 8987 246c 3E4B     		ldr	r3, .L480+16
 8988 246e 1B79     		ldrb	r3, [r3, #4]	@ zero_extendqisi2
 8989 2470 0C2B     		cmp	r3, #12
 8990 2472 08D1     		bne	.L442
1850:main.c        ****             Opcion2++;
 8991              		.loc 1 1850 0
 8992 2474 3E4A     		ldr	r2, .L480+24
 8993 2476 1378     		ldrb	r3, [r2]	@ zero_extendqisi2
 8994 2478 0133     		adds	r3, r3, #1
 8995 247a 1370     		strb	r3, [r2]
1851:main.c        ****             Rx_Buffer[4]=0x00;  
 8996              		.loc 1 1851 0
 8997 247c 0023     		movs	r3, #0
 8998 247e 3A4A     		ldr	r2, .L480+16
 8999 2480 1371     		strb	r3, [r2, #4]
1852:main.c        ****             Rx_Buffer2[4]=0x00;            
 9000              		.loc 1 1852 0
 9001 2482 3A4A     		ldr	r2, .L480+20
 9002 2484 1371     		strb	r3, [r2, #4]
 9003              	.L442:
1853:main.c        ****          }
1854:main.c        ****       }
1855:main.c        ****          
1856:main.c        ****       if(Rx_Buffer[4]==0x0d){//Tecla Derecha Oprimida
 9004              		.loc 1 1856 0
 9005 2486 384B     		ldr	r3, .L480+16
 9006 2488 1B79     		ldrb	r3, [r3, #4]	@ zero_extendqisi2
 9007 248a 0D2B     		cmp	r3, #13
 9008 248c 0FD1     		bne	.L443
1857:main.c        ****          CyDelay(20);
 9009              		.loc 1 1857 0
 9010 248e 1420     		movs	r0, #20
 9011 2490 FFF7FEFF 		bl	CyDelay
 9012              	.LVL704:
1858:main.c        ****          if(Rx_Buffer[4]==0x0d){
 9013              		.loc 1 1858 0
 9014 2494 344B     		ldr	r3, .L480+16
 9015 2496 1B79     		ldrb	r3, [r3, #4]	@ zero_extendqisi2
 9016 2498 0D2B     		cmp	r3, #13
 9017 249a 08D1     		bne	.L443
1859:main.c        ****             Opcion2--;
 9018              		.loc 1 1859 0
 9019 249c 344A     		ldr	r2, .L480+24
 9020 249e 1378     		ldrb	r3, [r2]	@ zero_extendqisi2
 9021 24a0 013B     		subs	r3, r3, #1
 9022 24a2 1370     		strb	r3, [r2]
ARM GAS  C:\Users\JPELEC~1\AppData\Local\Temp\ccEetrge.s 			page 201


1860:main.c        ****             Rx_Buffer[4]=0x00;
 9023              		.loc 1 1860 0
 9024 24a4 0023     		movs	r3, #0
 9025 24a6 304A     		ldr	r2, .L480+16
 9026 24a8 1371     		strb	r3, [r2, #4]
1861:main.c        ****             Rx_Buffer2[4]=0x00;            
 9027              		.loc 1 1861 0
 9028 24aa 304A     		ldr	r2, .L480+20
 9029 24ac 1371     		strb	r3, [r2, #4]
 9030              	.L443:
1862:main.c        ****          }
1863:main.c        ****       }
1864:main.c        ****       
1865:main.c        ****       if(Rx_Buffer[4]==0x11){//Tecla Regresar
 9031              		.loc 1 1865 0
 9032 24ae 2E4B     		ldr	r3, .L480+16
 9033 24b0 1B79     		ldrb	r3, [r3, #4]	@ zero_extendqisi2
 9034 24b2 112B     		cmp	r3, #17
 9035 24b4 7DF40DAE 		bne	.L409
1866:main.c        ****          CyDelay(20);
 9036              		.loc 1 1866 0
 9037 24b8 1420     		movs	r0, #20
 9038 24ba FFF7FEFF 		bl	CyDelay
 9039              	.LVL705:
1867:main.c        ****          if(Rx_Buffer[4]==0x11){
 9040              		.loc 1 1867 0
 9041 24be 2A4B     		ldr	r3, .L480+16
 9042 24c0 1B79     		ldrb	r3, [r3, #4]	@ zero_extendqisi2
 9043 24c2 112B     		cmp	r3, #17
 9044 24c4 7DF405AE 		bne	.L409
1868:main.c        ****             if(!GuardaEEPROM){
 9045              		.loc 1 1868 0
 9046 24c8 2A4B     		ldr	r3, .L480+28
 9047 24ca B3F90030 		ldrsh	r3, [r3]
 9048 24ce 002B     		cmp	r3, #0
 9049 24d0 3DD1     		bne	.L446
1869:main.c        ****                EEPROM_WriteByte(Integral,32);
 9050              		.loc 1 1869 0
 9051 24d2 2021     		movs	r1, #32
 9052 24d4 284B     		ldr	r3, .L480+32
 9053 24d6 1878     		ldrb	r0, [r3]	@ zero_extendqisi2
 9054 24d8 FFF7FEFF 		bl	EEPROM_WriteByte
 9055              	.LVL706:
1870:main.c        ****                CyDelay(10);
 9056              		.loc 1 1870 0
 9057 24dc 0A20     		movs	r0, #10
 9058 24de FFF7FEFF 		bl	CyDelay
 9059              	.LVL707:
1871:main.c        ****                EEPROM_WriteByte(Derivativo,31);
 9060              		.loc 1 1871 0
 9061 24e2 1F21     		movs	r1, #31
 9062 24e4 254B     		ldr	r3, .L480+36
 9063 24e6 1878     		ldrb	r0, [r3]	@ zero_extendqisi2
 9064 24e8 FFF7FEFF 		bl	EEPROM_WriteByte
 9065              	.LVL708:
1872:main.c        ****                CyDelay(10);
 9066              		.loc 1 1872 0
ARM GAS  C:\Users\JPELEC~1\AppData\Local\Temp\ccEetrge.s 			page 202


 9067 24ec 0A20     		movs	r0, #10
 9068 24ee FFF7FEFF 		bl	CyDelay
 9069              	.LVL709:
1873:main.c        ****                EEPROM_WriteByte((uint8)Ganancia,30);
 9070              		.loc 1 1873 0
 9071 24f2 234B     		ldr	r3, .L480+40
 9072 24f4 1868     		ldr	r0, [r3]	@ float
 9073 24f6 FFF7FEFF 		bl	__aeabi_f2uiz
 9074              	.LVL710:
 9075 24fa 1E21     		movs	r1, #30
 9076 24fc C0B2     		uxtb	r0, r0
 9077 24fe FFF7FEFF 		bl	EEPROM_WriteByte
 9078              	.LVL711:
1874:main.c        ****                CyDelay(10);
 9079              		.loc 1 1874 0
 9080 2502 0A20     		movs	r0, #10
 9081 2504 FFF7FEFF 		bl	CyDelay
 9082              	.LVL712:
1875:main.c        ****                EEPROM_WriteByte(Ajuste,34);
 9083              		.loc 1 1875 0
 9084 2508 2221     		movs	r1, #34
 9085 250a 1E4B     		ldr	r3, .L480+44
 9086 250c 1878     		ldrb	r0, [r3]	@ zero_extendqisi2
 9087 250e FFF7FEFF 		bl	EEPROM_WriteByte
 9088              	.LVL713:
1876:main.c        ****                CyDelay(10);
 9089              		.loc 1 1876 0
 9090 2512 0A20     		movs	r0, #10
 9091 2514 FFF7FEFF 		bl	CyDelay
 9092              	.LVL714:
1877:main.c        ****                EEPROM_WriteByte(Ajusten,35);
 9093              		.loc 1 1877 0
 9094 2518 2321     		movs	r1, #35
 9095 251a 1B4B     		ldr	r3, .L480+48
 9096 251c 1878     		ldrb	r0, [r3]	@ zero_extendqisi2
 9097 251e FFF7FEFF 		bl	EEPROM_WriteByte
 9098              	.LVL715:
1878:main.c        ****                CyDelay(10);
 9099              		.loc 1 1878 0
 9100 2522 0A20     		movs	r0, #10
 9101 2524 FFF7FEFF 		bl	CyDelay
 9102              	.LVL716:
1879:main.c        ****                EEPROM_WriteByte(MediaMovil,36);
 9103              		.loc 1 1879 0
 9104 2528 2421     		movs	r1, #36
 9105 252a 0D4B     		ldr	r3, .L480+8
 9106 252c 1878     		ldrb	r0, [r3]	@ zero_extendqisi2
 9107 252e FFF7FEFF 		bl	EEPROM_WriteByte
 9108              	.LVL717:
1880:main.c        ****                CyDelay(10);
 9109              		.loc 1 1880 0
 9110 2532 0A20     		movs	r0, #10
 9111 2534 FFF7FEFF 		bl	CyDelay
 9112              	.LVL718:
1881:main.c        ****                EEPROM_WriteByte(Tciclo,33);
 9113              		.loc 1 1881 0
 9114 2538 2121     		movs	r1, #33
ARM GAS  C:\Users\JPELEC~1\AppData\Local\Temp\ccEetrge.s 			page 203


 9115 253a 144B     		ldr	r3, .L480+52
 9116 253c 1878     		ldrb	r0, [r3]	@ zero_extendqisi2
 9117 253e FFF7FEFF 		bl	EEPROM_WriteByte
 9118              	.LVL719:
1882:main.c        ****                CyDelay(10);
 9119              		.loc 1 1882 0
 9120 2542 0A20     		movs	r0, #10
 9121 2544 FFF7FEFF 		bl	CyDelay
 9122              	.LVL720:
1883:main.c        ****                GuardaEEPROM=ON;
 9123              		.loc 1 1883 0
 9124 2548 0122     		movs	r2, #1
 9125 254a 0A4B     		ldr	r3, .L480+28
 9126 254c 1A80     		strh	r2, [r3]	@ movhi
 9127              	.L446:
1884:main.c        ****             }
1885:main.c        ****             escribeDisplay2("page MenuPrincipal");
 9128              		.loc 1 1885 0
 9129 254e 1048     		ldr	r0, .L480+56
 9130 2550 FFF7FEFF 		bl	escribeDisplay2
 9131              	.LVL721:
 9132 2554 FDF7BDBD 		b	.L409
 9133              	.L481:
 9134              		.align	2
 9135              	.L480:
 9136 2558 D4070000 		.word	.LC102
 9137 255c 00000000 		.word	displayStr
 9138 2560 00000000 		.word	MediaMovil
 9139 2564 3C070000 		.word	.LC96
 9140 2568 00000000 		.word	Rx_Buffer
 9141 256c 00000000 		.word	Rx_Buffer2
 9142 2570 00000000 		.word	Opcion2
 9143 2574 00000000 		.word	GuardaEEPROM
 9144 2578 00000000 		.word	Integral
 9145 257c 00000000 		.word	Derivativo
 9146 2580 00000000 		.word	Ganancia
 9147 2584 00000000 		.word	Ajuste
 9148 2588 00000000 		.word	Ajusten
 9149 258c 00000000 		.word	Tciclo
 9150 2590 7C010000 		.word	.LC22
 9151              		.cfi_endproc
 9152              	.LFE79:
 9153              		.size	main, .-main
 9154              		.comm	Temperature,4,4
 9155              		.comm	V0,4,4
 9156              		.comm	Prom,4,4
 9157              		.comm	result,2,2
 9158              		.global	dataReady
 9159              		.comm	tPregunta,2,2
 9160              		.comm	TiempoRampa,2,2
 9161              		.comm	Tiempo,2,2
 9162              		.comm	HorasActual,2,2
 9163              		.comm	MinutosActual,2,2
 9164              		.comm	TiempoActual,2,2
 9165              		.comm	Potencia,4,4
 9166              		.comm	error,4,4
 9167              		.global	penMufla
ARM GAS  C:\Users\JPELEC~1\AppData\Local\Temp\ccEetrge.s 			page 204


 9168              		.comm	penInicial,4,4
 9169              		.comm	Tpulso,4,4
 9170              		.comm	PotenciaEntregada,4,4
 9171              		.comm	TemperaturaIdeal,4,4
 9172              		.comm	Pendiente,4,4
 9173              		.comm	TempeInicial,4,4
 9174              		.comm	DifPendiente,4,4
 9175              		.comm	PendienteActual,4,4
 9176              		.comm	Aumento,4,4
 9177              		.comm	Temperatura,4,4
 9178              		.global	X
 9179              		.comm	imprime,2,2
 9180              		.comm	grafica,2,2
 9181              		.comm	conteoPregunta,2,2
 9182              		.comm	Finalizo,2,2
 9183              		.comm	flag_calcula,2,2
 9184              		.comm	flagRampa,2,2
 9185              		.comm	flagdn,2,2
 9186              		.comm	flagup,2,2
 9187              		.comm	Lectura,2,2
 9188              		.comm	flag_tiempocalentamiento,2,2
 9189              		.comm	flag_setpoint,2,2
 9190              		.comm	Lectura2,2,2
 9191              		.comm	mensaje,2,2
 9192              		.comm	tiempodn,2,2
 9193              		.comm	tiempoup,2,2
 9194              		.comm	tiempocalentamiento,2,2
 9195              		.comm	tinicio,2,2
 9196              		.comm	tiemposetpoint,2,2
 9197              		.comm	tiemporecta,2,2
 9198              		.comm	TiempoControl,2,2
 9199              		.comm	tiemporeset,2,2
 9200              		.comm	Tp,2,2
 9201              		.comm	Tc,2,2
 9202              		.comm	tiempoctrl,2,2
 9203              		.comm	tiempos3,2,2
 9204              		.comm	tiempos,2,2
 9205              		.comm	conteo,1,1
 9206              		.comm	Segmento,1,1
 9207              		.comm	mEstp,1,1
 9208              		.comm	hEstp,1,1
 9209              		.comm	mEst,1,1
 9210              		.comm	hEst,1,1
 9211              		.comm	y,1,1
 9212              		.comm	tiempo_esterilizacion,1,1
 9213              		.comm	Password,4,4
 9214              		.comm	x100,2,2
 9215              		.comm	x10,2,2
 9216              		.comm	x1,2,2
 9217              		.comm	Test,2,2
 9218              		.comm	flagTemperatura,2,2
 9219              		.comm	Horas,2,2
 9220              		.comm	Minutos,2,2
 9221              		.comm	rampa,2,2
 9222              		.comm	GuardaEEPROM,2,2
 9223              		.comm	entro,2,2
 9224              		.comm	EstadoPaso,2,2
ARM GAS  C:\Users\JPELEC~1\AppData\Local\Temp\ccEetrge.s 			page 205


 9225              		.comm	Inicio2,2,2
 9226              		.comm	Inicio,2,2
 9227              		.comm	l,1,1
 9228              		.comm	h,1,1
 9229              		.comm	Opcion,1,1
 9230              		.comm	CicloLibre,1,1
 9231              		.comm	Segmentos,1,1
 9232              		.comm	TipoClave,1,1
 9233              		.comm	z,1,1
 9234              		.comm	MenuAntt2,1,1
 9235              		.comm	Menu2,1,1
 9236              		.comm	MenuAnt,1,1
 9237              		.comm	MenuAntt,1,1
 9238              		.comm	Menu,1,1
 9239              		.comm	Dato_Exitoso2,1,1
 9240              		.comm	Dato_Exitoso,1,1
 9241              		.comm	Dato3,1,1
 9242              		.comm	Dato2,1,1
 9243              		.comm	promedio,360,4
 9244              		.global	texto
 9245              		.global	iconoPeque
 9246              		.global	iconoGrande
 9247              		.comm	i2cbuf,4,4
 9248              		.global	RX_Counter2
 9249              		.global	RX_Rd_Index2
 9250              		.global	RX_Wr_Index2
 9251              		.comm	Rx_Buffer4,11,4
 9252              		.comm	Rx_Buffer3,11,4
 9253              		.global	RX_Counter
 9254              		.global	RX_Rd_Index
 9255              		.global	RX_Wr_Index
 9256              		.comm	Rx_Buffer2,11,4
 9257              		.comm	Rx_Buffer,11,4
 9258              		.comm	GananciaIn,4,4
 9259              		.comm	Ganancia,4,4
 9260              		.comm	b,4,4
 9261              		.comm	pendiente,4,4
 9262              		.comm	valor,4,4
 9263              		.comm	flagFinalizo,2,2
 9264              		.comm	estadoVentilador,2,2
 9265              		.comm	estadoBuzzer,2,2
 9266              		.comm	estadoSSR,2,2
 9267              		.comm	Control,2,2
 9268              		.comm	flagBorrado,2,2
 9269              		.comm	pulsoDisminuir,2,2
 9270              		.comm	pulsoAumentar,2,2
 9271              		.comm	dibujo,2,2
 9272              		.comm	flagButton3,2,2
 9273              		.comm	flagButton2,2,2
 9274              		.comm	flagButton1,2,2
 9275              		.comm	flagButton0,2,2
 9276              		.comm	tGrafica,4,4
 9277              		.comm	output,4,4
 9278              		.comm	Setpoint,2,2
 9279              		.comm	ctr,2,2
 9280              		.comm	Ajusten,1,1
 9281              		.comm	Ajuste,1,1
ARM GAS  C:\Users\JPELEC~1\AppData\Local\Temp\ccEetrge.s 			page 206


 9282              		.comm	Tciclo,1,1
 9283              		.comm	MediaMovil,1,1
 9284              		.comm	Integral,1,1
 9285              		.comm	Derivativo,1,1
 9286              		.comm	Opcion2,1,1
 9287              		.comm	Programa,1,1
 9288              		.comm	PantallaPrincipal,1,1
 9289              		.comm	n,1,1
 9290              		.comm	pwm2,1,1
 9291              		.comm	pwm1,1,1
 9292              		.comm	i,1,1
 9293              		.global	first
 9294              		.comm	displayStr,100,4
 9295              		.comm	tcTemp,4,4
 9296              		.comm	tcuVolt,4,4
 9297              		.comm	tcHotJnuVolt,4,4
 9298              		.comm	filHotJnCount,4,4
 9299              		.comm	hotJnCount,4,4
 9300              		.comm	tcColdJnuVolt,4,4
 9301              		.comm	coldJnTemp,2,2
 9302              		.comm	offset,2,2
 9303              		.comm	Programas,800,4
 9304              		.section	.rodata
 9305              		.align	2
 9306              		.set	.LANCHOR2,. + 0
 9307              		.type	texto, %object
 9308              		.size	texto, 180
 9309              	texto:
 9310 0000 50524F47 		.ascii	"PROGRAMA 1\000"
 9310      52414D41 
 9310      203100
 9311 000b 00000000 		.space	9
 9311      00000000 
 9311      00
 9312 0014 50524F47 		.ascii	"PROGRAMA 2\000"
 9312      52414D41 
 9312      203200
 9313 001f 00000000 		.space	9
 9313      00000000 
 9313      00
 9314 0028 50524F47 		.ascii	"PROGRAMA 3\000"
 9314      52414D41 
 9314      203300
 9315 0033 00000000 		.space	9
 9315      00000000 
 9315      00
 9316 003c 50524F47 		.ascii	"PROGRAMA 4\000"
 9316      52414D41 
 9316      203400
 9317 0047 00000000 		.space	9
 9317      00000000 
 9317      00
 9318 0050 50524F47 		.ascii	"PROGRAMA 5\000"
 9318      52414D41 
 9318      203500
 9319 005b 00000000 		.space	9
 9319      00000000 
ARM GAS  C:\Users\JPELEC~1\AppData\Local\Temp\ccEetrge.s 			page 207


 9319      00
 9320 0064 54455354 		.ascii	"TEST\000"
 9320      00
 9321 0069 00000000 		.space	15
 9321      00000000 
 9321      00000000 
 9321      000000
 9322 0078 434C4156 		.ascii	"CLAVE\000"
 9322      4500
 9323 007e 00000000 		.space	14
 9323      00000000 
 9323      00000000 
 9323      0000
 9324 008c 00000000 		.space	40
 9324      00000000 
 9324      00000000 
 9324      00000000 
 9324      00000000 
 9325              		.data
 9326              		.align	2
 9327              		.set	.LANCHOR1,. + 0
 9328              		.type	penMufla, %object
 9329              		.size	penMufla, 4
 9330              	penMufla:
 9331 0000 00004842 		.word	1112014848
 9332              		.type	iconoGrande, %object
 9333              		.size	iconoGrande, 15
 9334              	iconoGrande:
 9335 0004 4B       		.byte	75
 9336 0005 4C       		.byte	76
 9337 0006 4D       		.byte	77
 9338 0007 4E       		.byte	78
 9339 0008 4F       		.byte	79
 9340 0009 1B       		.byte	27
 9341 000a 2D       		.byte	45
 9342 000b 00000000 		.space	8
 9342      00000000 
 9343 0013 00       		.space	1
 9344              		.type	iconoPeque, %object
 9345              		.size	iconoPeque, 15
 9346              	iconoPeque:
 9347 0014 50       		.byte	80
 9348 0015 51       		.byte	81
 9349 0016 52       		.byte	82
 9350 0017 53       		.byte	83
 9351 0018 54       		.byte	84
 9352 0019 25       		.byte	37
 9353 001a 10       		.byte	16
 9354 001b 00000000 		.space	8
 9354      00000000 
 9355              		.section	.rodata.str1.4,"aMS",%progbits,1
 9356              		.align	2
 9357              	.LC0:
 9358 0000 61646420 		.ascii	"add 1,0,%u\000"
 9358      312C302C 
 9358      257500
 9359 000b 00       		.space	1
ARM GAS  C:\Users\JPELEC~1\AppData\Local\Temp\ccEetrge.s 			page 208


 9360              	.LC1:
 9361 000c 74312E74 		.ascii	"t1.txt=\"Controlando\"\000"
 9361      78743D22 
 9361      436F6E74 
 9361      726F6C61 
 9361      6E646F22 
 9362 0021 000000   		.space	3
 9363              	.LC2:
 9364 0024 74312E74 		.ascii	"t1.txt=\"Meseta\"\000"
 9364      78743D22 
 9364      4D657365 
 9364      74612200 
 9365              	.LC3:
 9366 0034 74312E74 		.ascii	"t1.txt=\"Rampa +\"\000"
 9366      78743D22 
 9366      52616D70 
 9366      61202B22 
 9366      00
 9367 0045 000000   		.space	3
 9368              	.LC4:
 9369 0048 74312E74 		.ascii	"t1.txt=\"Rampa -\"\000"
 9369      78743D22 
 9369      52616D70 
 9369      61202D22 
 9369      00
 9370 0059 000000   		.space	3
 9371              	.LC5:
 9372 005c 74312E74 		.ascii	"t1.txt=\"Calentando\"\000"
 9372      78743D22 
 9372      43616C65 
 9372      6E74616E 
 9372      646F2200 
 9373              	.LC6:
 9374 0070 70616765 		.ascii	"page Bienvenida\000"
 9374      20426965 
 9374      6E76656E 
 9374      69646100 
 9375              	.LC7:
 9376 0080 626B636D 		.ascii	"bkcmd=0\000"
 9376      643D3000 
 9377              	.LC8:
 9378 0088 636F6465 		.ascii	"code_c\000"
 9378      5F6300
 9379 008f 00       		.space	1
 9380              	.LC9:
 9381 0090 61646420 		.ascii	"add 1,1,%u\000"
 9381      312C312C 
 9381      257500
 9382 009b 00       		.space	1
 9383              	.LC10:
 9384 009c 543A2D2D 		.ascii	"T:----- \015\012\000"
 9384      2D2D2D20 
 9384      0D0A00
 9385 00a7 00       		.space	1
 9386              	.LC11:
 9387 00a8 543A2531 		.ascii	"T:%1.2fC \015\012\000"
 9387      2E326643 
ARM GAS  C:\Users\JPELEC~1\AppData\Local\Temp\ccEetrge.s 			page 209


 9387      200D0A00 
 9388              	.LC12:
 9389 00b4 70616765 		.ascii	"page Clave\000"
 9389      20436C61 
 9389      766500
 9390 00bf 00       		.space	1
 9391              	.LC13:
 9392 00c0 70616765 		.ascii	"page Principal\000"
 9392      20507269 
 9392      6E636970 
 9392      616C00
 9393 00cf 00       		.space	1
 9394              	.LC14:
 9395 00d0 74697475 		.ascii	"titulo.txt=\"Clave Nueva\"\000"
 9395      6C6F2E74 
 9395      78743D22 
 9395      436C6176 
 9395      65204E75 
 9396 00e9 000000   		.space	3
 9397              	.LC15:
 9398 00ec 646F6576 		.ascii	"doevents\000"
 9398      656E7473 
 9398      00
 9399 00f5 000000   		.space	3
 9400              	.LC16:
 9401 00f8 74697475 		.ascii	"titulo.txt=\"Clave Actual\"\000"
 9401      6C6F2E74 
 9401      78743D22 
 9401      436C6176 
 9401      65204163 
 9402 0112 0000     		.space	2
 9403              	.LC17:
 9404 0114 74697475 		.ascii	"titulo.txt=\"Clave Tecnico\"\000"
 9404      6C6F2E74 
 9404      78743D22 
 9404      436C6176 
 9404      65205465 
 9405 012f 00       		.space	1
 9406              	.LC18:
 9407 0130 74697475 		.ascii	"titulo.txt=\"Ingrese Clave\"\000"
 9407      6C6F2E74 
 9407      78743D22 
 9407      496E6772 
 9407      65736520 
 9408 014b 00       		.space	1
 9409              	.LC19:
 9410 014c 70616765 		.ascii	"page ClaveCorrecta\000"
 9410      20436C61 
 9410      7665436F 
 9410      72726563 
 9410      746100
 9411 015f 00       		.space	1
 9412              	.LC20:
 9413 0160 70616765 		.ascii	"page ClaveBad\000"
 9413      20436C61 
 9413      76654261 
 9413      6400
ARM GAS  C:\Users\JPELEC~1\AppData\Local\Temp\ccEetrge.s 			page 210


 9414 016e 0000     		.space	2
 9415              	.LC21:
 9416 0170 70616765 		.ascii	"page Config\000"
 9416      20436F6E 
 9416      66696700 
 9417              	.LC22:
 9418 017c 70616765 		.ascii	"page MenuPrincipal\000"
 9418      204D656E 
 9418      75507269 
 9418      6E636970 
 9418      616C00
 9419 018f 00       		.space	1
 9420              	.LC23:
 9421 0190 70616765 		.ascii	"page Test\000"
 9421      20546573 
 9421      7400
 9422 019a 0000     		.space	2
 9423              	.LC24:
 9424 019c 70616765 		.ascii	"page Rampas\000"
 9424      2052616D 
 9424      70617300 
 9425              	.LC25:
 9426 01a8 62632E70 		.ascii	"bc.pic=%u\000"
 9426      69633D25 
 9426      7500
 9427 01b2 0000     		.space	2
 9428              	.LC26:
 9429 01b4 62642E70 		.ascii	"bd.pic=%u\000"
 9429      69633D25 
 9429      7500
 9430 01be 0000     		.space	2
 9431              	.LC27:
 9432 01c0 62692E70 		.ascii	"bi.pic=%u\000"
 9432      69633D25 
 9432      7500
 9433 01ca 0000     		.space	2
 9434              	.LC28:
 9435 01cc 62632E70 		.ascii	"bc.pic2=%u\000"
 9435      6963323D 
 9435      257500
 9436 01d7 00       		.space	1
 9437              	.LC29:
 9438 01d8 62642E70 		.ascii	"bd.pic2=%u\000"
 9438      6963323D 
 9438      257500
 9439 01e3 00       		.space	1
 9440              	.LC30:
 9441 01e4 62692E70 		.ascii	"bi.pic2=%u\000"
 9441      6963323D 
 9441      257500
 9442 01ef 00       		.space	1
 9443              	.LC31:
 9444 01f0 74657874 		.ascii	"textop.txt=\"%s\"\000"
 9444      6F702E74 
 9444      78743D22 
 9444      25732200 
 9445              	.LC32:
ARM GAS  C:\Users\JPELEC~1\AppData\Local\Temp\ccEetrge.s 			page 211


 9446 0200 70616765 		.ascii	"page Grafica\000"
 9446      20477261 
 9446      66696361 
 9446      00
 9447 020d 000000   		.space	3
 9448              	.LC33:
 9449 0210 746D696E 		.ascii	"tminsec.txt=\"%02u\"\000"
 9449      7365632E 
 9449      7478743D 
 9449      22253032 
 9449      752200
 9450 0223 00       		.space	1
 9451              	.LC34:
 9452 0224 74736563 		.ascii	"tsecsec.txt=\"%02u\"\000"
 9452      7365632E 
 9452      7478743D 
 9452      22253032 
 9452      752200
 9453 0237 00       		.space	1
 9454              	.LC35:
 9455 0238 63302E76 		.ascii	"c0.val=1\000"
 9455      616C3D31 
 9455      00
 9456 0241 000000   		.space	3
 9457              	.LC36:
 9458 0244 63312E76 		.ascii	"c1.val=0\000"
 9458      616C3D30 
 9458      00
 9459 024d 000000   		.space	3
 9460              	.LC37:
 9461 0250 63322E76 		.ascii	"c2.val=0\000"
 9461      616C3D30 
 9461      00
 9462 0259 000000   		.space	3
 9463              	.LC38:
 9464 025c 63302E76 		.ascii	"c0.val=0\000"
 9464      616C3D30 
 9464      00
 9465 0265 000000   		.space	3
 9466              	.LC39:
 9467 0268 63312E76 		.ascii	"c1.val=1\000"
 9467      616C3D31 
 9467      00
 9468 0271 000000   		.space	3
 9469              	.LC40:
 9470 0274 63322E76 		.ascii	"c2.val=1\000"
 9470      616C3D31 
 9470      00
 9471 027d 000000   		.space	3
 9472              	.LC41:
 9473 0280 74736574 		.ascii	"tsettem.txt=\"%04u\"\000"
 9473      74656D2E 
 9473      7478743D 
 9473      22253034 
 9473      752200
 9474 0293 00       		.space	1
 9475              	.LC42:
ARM GAS  C:\Users\JPELEC~1\AppData\Local\Temp\ccEetrge.s 			page 212


 9476 0294 62302E62 		.ascii	"b0.bco=1024\000"
 9476      636F3D31 
 9476      30323400 
 9477              	.LC43:
 9478 02a0 62302E62 		.ascii	"b0.bco=63488\000"
 9478      636F3D36 
 9478      33343838 
 9478      00
 9479 02ad 000000   		.space	3
 9480              	.LC44:
 9481 02b0 62312E62 		.ascii	"b1.bco=1024\000"
 9481      636F3D31 
 9481      30323400 
 9482              	.LC45:
 9483 02bc 62312E62 		.ascii	"b1.bco=63488\000"
 9483      636F3D36 
 9483      33343838 
 9483      00
 9484 02c9 000000   		.space	3
 9485              	.LC46:
 9486 02cc 62322E62 		.ascii	"b2.bco=1024\000"
 9486      636F3D31 
 9486      30323400 
 9487              	.LC47:
 9488 02d8 62322E62 		.ascii	"b2.bco=63488\000"
 9488      636F3D36 
 9488      33343838 
 9488      00
 9489 02e5 000000   		.space	3
 9490              	.LC48:
 9491 02e8 62332E62 		.ascii	"b3.bco=1024\000"
 9491      636F3D31 
 9491      30323400 
 9492              	.LC49:
 9493 02f4 62332E62 		.ascii	"b3.bco=63488\000"
 9493      636F3D36 
 9493      33343838 
 9493      00
 9494 0301 000000   		.space	3
 9495              	.LC50:
 9496 0304 62382E74 		.ascii	"b8.txt=\"%u \"\000"
 9496      78743D22 
 9496      25752022 
 9496      00
 9497 0311 000000   		.space	3
 9498              	.LC51:
 9499 0314 62372E74 		.ascii	"b7.txt=\"A0:%ld\"\000"
 9499      78743D22 
 9499      41303A25 
 9499      6C642200 
 9500              	.LC52:
 9501 0324 62362E74 		.ascii	"b6.txt=\"TK:%+1.2f V0:%1.1f\"\000"
 9501      78743D22 
 9501      544B3A25 
 9501      2B312E32 
 9501      66205630 
 9502              	.LC53:
ARM GAS  C:\Users\JPELEC~1\AppData\Local\Temp\ccEetrge.s 			page 213


 9503 0340 62342E74 		.ascii	"b4.txt=\"T:%ld.%ld \"\000"
 9503      78743D22 
 9503      543A256C 
 9503      642E256C 
 9503      64202200 
 9504              	.LC54:
 9505 0354 74352E74 		.ascii	"t5.txt=\"DIBUJANDO GRAFICA DE RAMPA PROGRAMADA...\""
 9505      78743D22 
 9505      44494255 
 9505      4A414E44 
 9505      4F204752 
 9506 0385 00       		.ascii	"\000"
 9507 0386 0000     		.space	2
 9508              	.LC55:
 9509 0388 74362E74 		.ascii	"t6.txt=\"%02u:%02u\"\000"
 9509      78743D22 
 9509      25303275 
 9509      3A253032 
 9509      752200
 9510 039b 00       		.space	1
 9511              	.LC56:
 9512 039c 74372E74 		.ascii	"t7.txt=\"%02u:%02u\"\000"
 9512      78743D22 
 9512      25303275 
 9512      3A253032 
 9512      752200
 9513 03af 00       		.space	1
 9514              	.LC57:
 9515 03b0 74382E74 		.ascii	"t8.txt=\"%02u:%02u\"\000"
 9515      78743D22 
 9515      25303275 
 9515      3A253032 
 9515      752200
 9516 03c3 00       		.space	1
 9517              	.LC58:
 9518 03c4 74392E74 		.ascii	"t9.txt=\"%02u:%02u\"\000"
 9518      78743D22 
 9518      25303275 
 9518      3A253032 
 9518      752200
 9519 03d7 00       		.space	1
 9520              	.LC59:
 9521 03d8 7431302E 		.ascii	"t10.txt=\"%02u:%02u\"\000"
 9521      7478743D 
 9521      22253032 
 9521      753A2530 
 9521      32752200 
 9522              	.LC60:
 9523 03ec 7431312E 		.ascii	"t11.txt=\"%02u:%02u\"\000"
 9523      7478743D 
 9523      22253032 
 9523      753A2530 
 9523      32752200 
 9524              	.LC61:
 9525 0400 7431322E 		.ascii	"t12.txt=\"%02u:%02u\"\000"
 9525      7478743D 
 9525      22253032 
ARM GAS  C:\Users\JPELEC~1\AppData\Local\Temp\ccEetrge.s 			page 214


 9525      753A2530 
 9525      32752200 
 9526              	.LC62:
 9527 0414 7431332E 		.ascii	"t13.txt=\"%02u:%02u\"\000"
 9527      7478743D 
 9527      22253032 
 9527      753A2530 
 9527      32752200 
 9528              	.LC63:
 9529 0428 7431342E 		.ascii	"t14.txt=\"%02u:%02u\"\000"
 9529      7478743D 
 9529      22253032 
 9529      753A2530 
 9529      32752200 
 9530              	.LC64:
 9531 043c 7431352E 		.ascii	"t15.txt=\"%02u:%02u\"\000"
 9531      7478743D 
 9531      22253032 
 9531      753A2530 
 9531      32752200 
 9532              	.LC65:
 9533 0450 74352E74 		.ascii	"t5.txt=\"GRAFICA DE RAMPA PROGRAMADA\"\000"
 9533      78743D22 
 9533      47524146 
 9533      49434120 
 9533      44452052 
 9534 0475 000000   		.space	3
 9535              	.LC66:
 9536 0478 74302E74 		.ascii	"t0.txt=\"Pasos Programados %02u; Paso: %02u\"\000"
 9536      78743D22 
 9536      5061736F 
 9536      73205072 
 9536      6F677261 
 9537              	.LC67:
 9538 04a4 74322E74 		.ascii	"t2.txt=\"TA:%04u\302\260C\"\000"
 9538      78743D22 
 9538      54413A25 
 9538      303475C2 
 9538      B0432200 
 9539              	.LC68:
 9540 04b8 74322E74 		.ascii	"t2.txt=\"TA:---\"\000"
 9540      78743D22 
 9540      54413A2D 
 9540      2D2D2200 
 9541              	.LC69:
 9542 04c8 74656D70 		.ascii	"temp.txt=\"T:%04u\302\260C\"\000"
 9542      2E747874 
 9542      3D22543A 
 9542      25303475 
 9542      C2B04322 
 9543 04dd 000000   		.space	3
 9544              	.LC70:
 9545 04e0 7469656D 		.ascii	"tiempo.txt=\"%02u:%02u \"\000"
 9545      706F2E74 
 9545      78743D22 
 9545      25303275 
 9545      3A253032 
ARM GAS  C:\Users\JPELEC~1\AppData\Local\Temp\ccEetrge.s 			page 215


 9546              	.LC71:
 9547 04f8 74656D70 		.ascii	"temp.txt=\"T: --\"\000"
 9547      2E747874 
 9547      3D22543A 
 9547      202D2D22 
 9547      00
 9548 0509 000000   		.space	3
 9549              	.LC72:
 9550 050c 7469656D 		.ascii	"tiempo.txt=\"--:--\"\000"
 9550      706F2E74 
 9550      78743D22 
 9550      2D2D3A2D 
 9550      2D2200
 9551 051f 00       		.space	1
 9552              	.LC73:
 9553 0520 70616765 		.ascii	"page Temperatura\000"
 9553      2054656D 
 9553      70657261 
 9553      74757261 
 9553      00
 9554 0531 000000   		.space	3
 9555              	.LC74:
 9556 0534 70616765 		.ascii	"page Tiempo\000"
 9556      20546965 
 9556      6D706F00 
 9557              	.LC75:
 9558 0540 70616765 		.ascii	"page Funcionamiento\000"
 9558      2046756E 
 9558      63696F6E 
 9558      616D6965 
 9558      6E746F00 
 9559              	.LC76:
 9560 0554 70616765 		.ascii	"page Eliminado\000"
 9560      20456C69 
 9560      6D696E61 
 9560      646F00
 9561 0563 00       		.space	1
 9562              	.LC77:
 9563 0564 74352E74 		.ascii	"t5.txt=\"Temperatura Ideal:%u\302\260C  TA:%02u\302"
 9563      78743D22 
 9563      54656D70 
 9563      65726174 
 9563      75726120 
 9564 058d B0432022 		.ascii	"\260C \"\000"
 9564      00
 9565 0592 0000     		.space	2
 9566              	.LC78:
 9567 0594 74302E74 		.ascii	"t0.txt=\"Mufla Digital JP Inglobal \"\000"
 9567      78743D22 
 9567      4D75666C 
 9567      61204469 
 9567      67697461 
 9568              	.LC79:
 9569 05b8 70616765 		.ascii	"page Pregunta\000"
 9569      20507265 
 9569      67756E74 
 9569      6100
ARM GAS  C:\Users\JPELEC~1\AppData\Local\Temp\ccEetrge.s 			page 216


 9570 05c6 0000     		.space	2
 9571              	.LC80:
 9572 05c8 62312E70 		.ascii	"b1.pic=72\000"
 9572      69633D37 
 9572      3200
 9573 05d2 0000     		.space	2
 9574              	.LC81:
 9575 05d4 74312E74 		.ascii	"t1.txt=\"Puerta Abierta\"\000"
 9575      78743D22 
 9575      50756572 
 9575      74612041 
 9575      62696572 
 9576              	.LC82:
 9577 05ec 62312E70 		.ascii	"b1.pic=73\000"
 9577      69633D37 
 9577      3300
 9578 05f6 0000     		.space	2
 9579              	.LC83:
 9580 05f8 74312E74 		.ascii	"t1.txt=\"Pausado\"\000"
 9580      78743D22 
 9580      50617573 
 9580      61646F22 
 9580      00
 9581 0609 000000   		.space	3
 9582              	.LC84:
 9583 060c 74312E74 		.ascii	"t1.txt=\"Proceso Finalizado\"\000"
 9583      78743D22 
 9583      50726F63 
 9583      65736F20 
 9583      46696E61 
 9584              	.LC85:
 9585 0628 74322E74 		.ascii	"t2.txt=\"T:---\"\000"
 9585      78743D22 
 9585      543A2D2D 
 9585      2D2200
 9586 0637 00       		.space	1
 9587              	.LC86:
 9588 0638 74322E74 		.ascii	"t2.txt=\"T:%1.1f\302\260C\"\000"
 9588      78743D22 
 9588      543A2531 
 9588      2E3166C2 
 9588      B0432200 
 9589              	.LC87:
 9590 064c 74322E74 		.ascii	"t2.txt=\"T:%1.0f\302\260C\"\000"
 9590      78743D22 
 9590      543A2531 
 9590      2E3066C2 
 9590      B0432200 
 9591              	.LC88:
 9592 0660 74332E74 		.ascii	"t3.txt=\"SET:%04u\302\260C\"\000"
 9592      78743D22 
 9592      5345543A 
 9592      25303475 
 9592      C2B04322 
 9593 0675 000000   		.space	3
 9594              	.LC89:
 9595 0678 74342E74 		.ascii	"t4.txt=\"SET:%02u:%02u (HH:MM)\"\000"
ARM GAS  C:\Users\JPELEC~1\AppData\Local\Temp\ccEetrge.s 			page 217


 9595      78743D22 
 9595      5345543A 
 9595      25303275 
 9595      3A253032 
 9596 0697 00       		.space	1
 9597              	.LC90:
 9598 0698 74352E74 		.ascii	"t5.txt=\"%02u:%02u\"\000"
 9598      78743D22 
 9598      25303275 
 9598      3A253032 
 9598      752200
 9599 06ab 00       		.space	1
 9600              	.LC91:
 9601 06ac 74382E74 		.ascii	"t8.txt=\"Pasos: %02u \"\000"
 9601      78743D22 
 9601      5061736F 
 9601      733A2025 
 9601      30327520 
 9602 06c2 0000     		.space	2
 9603              	.LC92:
 9604 06c4 74392E74 		.ascii	"t9.txt=\"Paso Actual: %02u \"\000"
 9604      78743D22 
 9604      5061736F 
 9604      20416374 
 9604      75616C3A 
 9605              	.LC93:
 9606 06e0 7431302E 		.ascii	"t10.txt=\"Potencia:%03u%% \"\000"
 9606      7478743D 
 9606      22506F74 
 9606      656E6369 
 9606      613A2530 
 9607 06fb 00       		.space	1
 9608              	.LC94:
 9609 06fc 7431312E 		.ascii	"t11.txt=\"Pendiente:%2.2f\302\260C/s \"\000"
 9609      7478743D 
 9609      2250656E 
 9609      6469656E 
 9609      74653A25 
 9610              	.LC95:
 9611 071c 436F6E66 		.ascii	"Config.t2c.txt=\"Proporcional\"\000"
 9611      69672E74 
 9611      32632E74 
 9611      78743D22 
 9611      50726F70 
 9612 073a 0000     		.space	2
 9613              	.LC96:
 9614 073c 7433632E 		.ascii	"t3c.txt=\"%u\"\000"
 9614      7478743D 
 9614      22257522 
 9614      00
 9615 0749 000000   		.space	3
 9616              	.LC97:
 9617 074c 436F6E66 		.ascii	"Config.t2c.txt=\"Derivativo\"\000"
 9617      69672E74 
 9617      32632E74 
 9617      78743D22 
 9617      44657269 
ARM GAS  C:\Users\JPELEC~1\AppData\Local\Temp\ccEetrge.s 			page 218


 9618              	.LC98:
 9619 0768 436F6E66 		.ascii	"Config.t2c.txt=\"Integral\"\000"
 9619      69672E74 
 9619      32632E74 
 9619      78743D22 
 9619      496E7465 
 9620 0782 0000     		.space	2
 9621              	.LC99:
 9622 0784 436F6E66 		.ascii	"Config.t2c.txt=\"Tciclo\"\000"
 9622      69672E74 
 9622      32632E74 
 9622      78743D22 
 9622      54636963 
 9623              	.LC100:
 9624 079c 436F6E66 		.ascii	"Config.t2c.txt=\"Ajuste +\"\000"
 9624      69672E74 
 9624      32632E74 
 9624      78743D22 
 9624      416A7573 
 9625 07b6 0000     		.space	2
 9626              	.LC101:
 9627 07b8 436F6E66 		.ascii	"Config.t2c.txt=\"Ajuste -\"\000"
 9627      69672E74 
 9627      32632E74 
 9627      78743D22 
 9627      416A7573 
 9628 07d2 0000     		.space	2
 9629              	.LC102:
 9630 07d4 436F6E66 		.ascii	"Config.t2c.txt=\"Media\"\000"
 9630      69672E74 
 9630      32632E74 
 9630      78743D22 
 9630      4D656469 
 9631              		.bss
 9632              		.align	2
 9633              		.set	.LANCHOR0,. + 0
 9634              		.type	dataReady, %object
 9635              		.size	dataReady, 1
 9636              	dataReady:
 9637 0000 00       		.space	1
 9638              		.type	RX_Wr_Index, %object
 9639              		.size	RX_Wr_Index, 1
 9640              	RX_Wr_Index:
 9641 0001 00       		.space	1
 9642              		.type	RX_Wr_Index2, %object
 9643              		.size	RX_Wr_Index2, 1
 9644              	RX_Wr_Index2:
 9645 0002 00       		.space	1
 9646 0003 00       		.space	1
 9647              		.type	X, %object
 9648              		.size	X, 8
 9649              	X:
 9650 0004 00000000 		.space	8
 9650      00000000 
 9651              		.type	RX_Counter2, %object
 9652              		.size	RX_Counter2, 1
 9653              	RX_Counter2:
ARM GAS  C:\Users\JPELEC~1\AppData\Local\Temp\ccEetrge.s 			page 219


 9654 000c 00       		.space	1
 9655              		.type	RX_Rd_Index2, %object
 9656              		.size	RX_Rd_Index2, 1
 9657              	RX_Rd_Index2:
 9658 000d 00       		.space	1
 9659              		.type	RX_Counter, %object
 9660              		.size	RX_Counter, 1
 9661              	RX_Counter:
 9662 000e 00       		.space	1
 9663              		.type	RX_Rd_Index, %object
 9664              		.size	RX_Rd_Index, 1
 9665              	RX_Rd_Index:
 9666 000f 00       		.space	1
 9667              		.type	first, %object
 9668              		.size	first, 1
 9669              	first:
 9670 0010 00       		.space	1
 9671              		.text
 9672              	.Letext0:
 9673              		.file 2 "c:\\program files\\cypress\\psoc creator\\4.3\\psoc creator\\import\\gnu\\arm\\5.4.1\\arm
 9674              		.file 3 "c:\\program files\\cypress\\psoc creator\\4.3\\psoc creator\\import\\gnu\\arm\\5.4.1\\arm
 9675              		.file 4 "Generated_Source\\PSoC5/cytypes.h"
 9676              		.file 5 "./main.h"
 9677              		.file 6 "Generated_Source\\PSoC5/core_cm3.h"
 9678              		.file 7 "Generated_Source\\PSoC5/SSR.h"
 9679              		.file 8 "Generated_Source\\PSoC5/UART_2.h"
 9680              		.file 9 "Generated_Source\\PSoC5/UART_1.h"
 9681              		.file 10 "Generated_Source\\PSoC5/CyLib.h"
 9682              		.file 11 "c:\\program files\\cypress\\psoc creator\\4.3\\psoc creator\\import\\gnu\\arm\\5.4.1\\ar
 9683              		.file 12 "Generated_Source\\PSoC5/Thermocouple_1.h"
 9684              		.file 13 "Generated_Source\\PSoC5/ADC.h"
 9685              		.file 14 "Generated_Source\\PSoC5/Reloj.h"
 9686              		.file 15 "Generated_Source\\PSoC5/leeT.h"
 9687              		.file 16 "Generated_Source\\PSoC5/UART_3.h"
 9688              		.file 17 "Generated_Source\\PSoC5/RX2.h"
 9689              		.file 18 "Generated_Source\\PSoC5/RX1.h"
 9690              		.file 19 "Generated_Source\\PSoC5/Timer.h"
 9691              		.file 20 "Generated_Source\\PSoC5/Timer2.h"
 9692              		.file 21 "Generated_Source\\PSoC5/EEPROM.h"
 9693              		.file 22 "Generated_Source\\PSoC5/ADC_SAR.h"
 9694              		.file 23 "Generated_Source\\PSoC5/ADC_SAR_IRQ.h"
 9695              		.file 24 "Generated_Source\\PSoC5/I2C.h"
 9696              		.file 25 "Generated_Source\\PSoC5/LCD2.h"
 9697              		.file 26 "Generated_Source\\PSoC5/LCD1.h"
 9698              		.file 27 "Generated_Source\\PSoC5/LED.h"
 9699              		.file 28 "Generated_Source\\PSoC5/VENT1.h"
 9700              		.file 29 "Generated_Source\\PSoC5/DOOR.h"
 9701              		.section	.debug_info,"",%progbits
 9702              	.Ldebug_info0:
 9703 0000 02330000 		.4byte	0x3302
 9704 0004 0400     		.2byte	0x4
 9705 0006 00000000 		.4byte	.Ldebug_abbrev0
 9706 000a 04       		.byte	0x4
 9707 000b 01       		.uleb128 0x1
 9708 000c 76070000 		.4byte	.LASF232
 9709 0010 0C       		.byte	0xc
 9710 0011 62040000 		.4byte	.LASF233
ARM GAS  C:\Users\JPELEC~1\AppData\Local\Temp\ccEetrge.s 			page 220


 9711 0015 B5000000 		.4byte	.LASF234
 9712 0019 00000000 		.4byte	.Ldebug_ranges0+0
 9713 001d 00000000 		.4byte	0
 9714 0021 00000000 		.4byte	.Ldebug_line0
 9715 0025 02       		.uleb128 0x2
 9716 0026 04       		.byte	0x4
 9717 0027 04       		.byte	0x4
 9718 0028 81060000 		.4byte	.LASF0
 9719 002c 02       		.uleb128 0x2
 9720 002d 01       		.byte	0x1
 9721 002e 06       		.byte	0x6
 9722 002f 80010000 		.4byte	.LASF1
 9723 0033 03       		.uleb128 0x3
 9724 0034 7A000000 		.4byte	.LASF5
 9725 0038 02       		.byte	0x2
 9726 0039 1D       		.byte	0x1d
 9727 003a 3E000000 		.4byte	0x3e
 9728 003e 02       		.uleb128 0x2
 9729 003f 01       		.byte	0x1
 9730 0040 08       		.byte	0x8
 9731 0041 19070000 		.4byte	.LASF2
 9732 0045 02       		.uleb128 0x2
 9733 0046 02       		.byte	0x2
 9734 0047 05       		.byte	0x5
 9735 0048 5E070000 		.4byte	.LASF3
 9736 004c 02       		.uleb128 0x2
 9737 004d 02       		.byte	0x2
 9738 004e 07       		.byte	0x7
 9739 004f 1A090000 		.4byte	.LASF4
 9740 0053 03       		.uleb128 0x3
 9741 0054 8F040000 		.4byte	.LASF6
 9742 0058 02       		.byte	0x2
 9743 0059 3F       		.byte	0x3f
 9744 005a 5E000000 		.4byte	0x5e
 9745 005e 02       		.uleb128 0x2
 9746 005f 04       		.byte	0x4
 9747 0060 05       		.byte	0x5
 9748 0061 D0010000 		.4byte	.LASF7
 9749 0065 03       		.uleb128 0x3
 9750 0066 ED020000 		.4byte	.LASF8
 9751 006a 02       		.byte	0x2
 9752 006b 41       		.byte	0x41
 9753 006c 70000000 		.4byte	0x70
 9754 0070 02       		.uleb128 0x2
 9755 0071 04       		.byte	0x4
 9756 0072 07       		.byte	0x7
 9757 0073 04060000 		.4byte	.LASF9
 9758 0077 02       		.uleb128 0x2
 9759 0078 08       		.byte	0x8
 9760 0079 05       		.byte	0x5
 9761 007a 72010000 		.4byte	.LASF10
 9762 007e 02       		.uleb128 0x2
 9763 007f 08       		.byte	0x8
 9764 0080 07       		.byte	0x7
 9765 0081 E2000000 		.4byte	.LASF11
 9766 0085 04       		.uleb128 0x4
 9767 0086 04       		.byte	0x4
ARM GAS  C:\Users\JPELEC~1\AppData\Local\Temp\ccEetrge.s 			page 221


 9768 0087 05       		.byte	0x5
 9769 0088 696E7400 		.ascii	"int\000"
 9770 008c 02       		.uleb128 0x2
 9771 008d 04       		.byte	0x4
 9772 008e 07       		.byte	0x7
 9773 008f 6E030000 		.4byte	.LASF12
 9774 0093 03       		.uleb128 0x3
 9775 0094 E7090000 		.4byte	.LASF13
 9776 0098 03       		.byte	0x3
 9777 0099 18       		.byte	0x18
 9778 009a 33000000 		.4byte	0x33
 9779 009e 03       		.uleb128 0x3
 9780 009f 11070000 		.4byte	.LASF14
 9781 00a3 03       		.byte	0x3
 9782 00a4 2C       		.byte	0x2c
 9783 00a5 53000000 		.4byte	0x53
 9784 00a9 03       		.uleb128 0x3
 9785 00aa D3030000 		.4byte	.LASF15
 9786 00ae 03       		.byte	0x3
 9787 00af 30       		.byte	0x30
 9788 00b0 65000000 		.4byte	0x65
 9789 00b4 05       		.uleb128 0x5
 9790 00b5 30020000 		.4byte	.LASF16
 9791 00b9 04       		.byte	0x4
 9792 00ba 9201     		.2byte	0x192
 9793 00bc 3E000000 		.4byte	0x3e
 9794 00c0 05       		.uleb128 0x5
 9795 00c1 09000000 		.4byte	.LASF17
 9796 00c5 04       		.byte	0x4
 9797 00c6 9301     		.2byte	0x193
 9798 00c8 4C000000 		.4byte	0x4c
 9799 00cc 05       		.uleb128 0x5
 9800 00cd A7020000 		.4byte	.LASF18
 9801 00d1 04       		.byte	0x4
 9802 00d2 9401     		.2byte	0x194
 9803 00d4 70000000 		.4byte	0x70
 9804 00d8 05       		.uleb128 0x5
 9805 00d9 53040000 		.4byte	.LASF19
 9806 00dd 04       		.byte	0x4
 9807 00de 9501     		.2byte	0x195
 9808 00e0 2C000000 		.4byte	0x2c
 9809 00e4 05       		.uleb128 0x5
 9810 00e5 2D0A0000 		.4byte	.LASF20
 9811 00e9 04       		.byte	0x4
 9812 00ea 9601     		.2byte	0x196
 9813 00ec 45000000 		.4byte	0x45
 9814 00f0 05       		.uleb128 0x5
 9815 00f1 A7010000 		.4byte	.LASF21
 9816 00f5 04       		.byte	0x4
 9817 00f6 9701     		.2byte	0x197
 9818 00f8 5E000000 		.4byte	0x5e
 9819 00fc 02       		.uleb128 0x2
 9820 00fd 08       		.byte	0x8
 9821 00fe 04       		.byte	0x4
 9822 00ff 60020000 		.4byte	.LASF22
 9823 0103 02       		.uleb128 0x2
 9824 0104 01       		.byte	0x1
ARM GAS  C:\Users\JPELEC~1\AppData\Local\Temp\ccEetrge.s 			page 222


 9825 0105 08       		.byte	0x8
 9826 0106 7D080000 		.4byte	.LASF23
 9827 010a 05       		.uleb128 0x5
 9828 010b A1020000 		.4byte	.LASF24
 9829 010f 04       		.byte	0x4
 9830 0110 3D02     		.2byte	0x23d
 9831 0112 16010000 		.4byte	0x116
 9832 0116 06       		.uleb128 0x6
 9833 0117 C0000000 		.4byte	0xc0
 9834 011b 02       		.uleb128 0x2
 9835 011c 08       		.byte	0x8
 9836 011d 04       		.byte	0x4
 9837 011e 5B050000 		.4byte	.LASF25
 9838 0122 02       		.uleb128 0x2
 9839 0123 04       		.byte	0x4
 9840 0124 07       		.byte	0x7
 9841 0125 45050000 		.4byte	.LASF26
 9842 0129 07       		.uleb128 0x7
 9843 012a 04       		.byte	0x4
 9844 012b 03010000 		.4byte	0x103
 9845 012f 08       		.uleb128 0x8
 9846 0130 03010000 		.4byte	0x103
 9847 0134 09       		.uleb128 0x9
 9848 0135 08       		.byte	0x8
 9849 0136 05       		.byte	0x5
 9850 0137 4D       		.byte	0x4d
 9851 0138 85010000 		.4byte	0x185
 9852 013c 0A       		.uleb128 0xa
 9853 013d 8A000000 		.4byte	.LASF27
 9854 0141 05       		.byte	0x5
 9855 0142 4E       		.byte	0x4e
 9856 0143 B4000000 		.4byte	0xb4
 9857 0147 00       		.byte	0
 9858 0148 0A       		.uleb128 0xa
 9859 0149 F3030000 		.4byte	.LASF28
 9860 014d 05       		.byte	0x5
 9861 014e 4F       		.byte	0x4f
 9862 014f B4000000 		.4byte	0xb4
 9863 0153 01       		.byte	0x1
 9864 0154 0A       		.uleb128 0xa
 9865 0155 ED080000 		.4byte	.LASF29
 9866 0159 05       		.byte	0x5
 9867 015a 50       		.byte	0x50
 9868 015b D8000000 		.4byte	0xd8
 9869 015f 02       		.byte	0x2
 9870 0160 0A       		.uleb128 0xa
 9871 0161 4A090000 		.4byte	.LASF30
 9872 0165 05       		.byte	0x5
 9873 0166 51       		.byte	0x51
 9874 0167 B4000000 		.4byte	0xb4
 9875 016b 03       		.byte	0x3
 9876 016c 0A       		.uleb128 0xa
 9877 016d 42090000 		.4byte	.LASF31
 9878 0171 05       		.byte	0x5
 9879 0172 52       		.byte	0x52
 9880 0173 B4000000 		.4byte	0xb4
 9881 0177 04       		.byte	0x4
ARM GAS  C:\Users\JPELEC~1\AppData\Local\Temp\ccEetrge.s 			page 223


 9882 0178 0A       		.uleb128 0xa
 9883 0179 92090000 		.4byte	.LASF32
 9884 017d 05       		.byte	0x5
 9885 017e 53       		.byte	0x53
 9886 017f C0000000 		.4byte	0xc0
 9887 0183 06       		.byte	0x6
 9888 0184 00       		.byte	0
 9889 0185 03       		.uleb128 0x3
 9890 0186 C6090000 		.4byte	.LASF33
 9891 018a 05       		.byte	0x5
 9892 018b 54       		.byte	0x54
 9893 018c 34010000 		.4byte	0x134
 9894 0190 09       		.uleb128 0x9
 9895 0191 A0       		.byte	0xa0
 9896 0192 05       		.byte	0x5
 9897 0193 57       		.byte	0x57
 9898 0194 A5010000 		.4byte	0x1a5
 9899 0198 0A       		.uleb128 0xa
 9900 0199 64060000 		.4byte	.LASF34
 9901 019d 05       		.byte	0x5
 9902 019e 58       		.byte	0x58
 9903 019f A5010000 		.4byte	0x1a5
 9904 01a3 00       		.byte	0
 9905 01a4 00       		.byte	0
 9906 01a5 0B       		.uleb128 0xb
 9907 01a6 85010000 		.4byte	0x185
 9908 01aa B5010000 		.4byte	0x1b5
 9909 01ae 0C       		.uleb128 0xc
 9910 01af 22010000 		.4byte	0x122
 9911 01b3 13       		.byte	0x13
 9912 01b4 00       		.byte	0
 9913 01b5 03       		.uleb128 0x3
 9914 01b6 DA000000 		.4byte	.LASF35
 9915 01ba 05       		.byte	0x5
 9916 01bb 59       		.byte	0x59
 9917 01bc 90010000 		.4byte	0x190
 9918 01c0 0D       		.uleb128 0xd
 9919 01c1 E0060000 		.4byte	.LASF36
 9920 01c5 01       		.byte	0x1
 9921 01c6 50       		.byte	0x50
 9922 01c7 00000000 		.4byte	.LFB64
 9923 01cb 1C000000 		.4byte	.LFE64-.LFB64
 9924 01cf 01       		.uleb128 0x1
 9925 01d0 9C       		.byte	0x9c
 9926 01d1 0E       		.uleb128 0xe
 9927 01d2 6C656500 		.ascii	"lee\000"
 9928 01d6 01       		.byte	0x1
 9929 01d7 EF02     		.2byte	0x2ef
 9930 01d9 00000000 		.4byte	.LFB78
 9931 01dd 02000000 		.4byte	.LFE78-.LFB78
 9932 01e1 01       		.uleb128 0x1
 9933 01e2 9C       		.byte	0x9c
 9934 01e3 0F       		.uleb128 0xf
 9935 01e4 0D080000 		.4byte	.LASF37
 9936 01e8 01       		.byte	0x1
 9937 01e9 9202     		.2byte	0x292
 9938 01eb 00000000 		.4byte	.LFB75
ARM GAS  C:\Users\JPELEC~1\AppData\Local\Temp\ccEetrge.s 			page 224


 9939 01ef 9C010000 		.4byte	.LFE75-.LFB75
 9940 01f3 01       		.uleb128 0x1
 9941 01f4 9C       		.byte	0x9c
 9942 01f5 2F020000 		.4byte	0x22f
 9943 01f9 10       		.uleb128 0x10
 9944 01fa 50000000 		.4byte	.LVL0
 9945 01fe 00310000 		.4byte	0x3100
 9946 0202 0C020000 		.4byte	0x20c
 9947 0206 11       		.uleb128 0x11
 9948 0207 01       		.uleb128 0x1
 9949 0208 50       		.byte	0x50
 9950 0209 01       		.uleb128 0x1
 9951 020a 31       		.byte	0x31
 9952 020b 00       		.byte	0
 9953 020c 10       		.uleb128 0x10
 9954 020d 58000000 		.4byte	.LVL1
 9955 0211 00310000 		.4byte	0x3100
 9956 0215 1F020000 		.4byte	0x21f
 9957 0219 11       		.uleb128 0x11
 9958 021a 01       		.uleb128 0x1
 9959 021b 50       		.byte	0x50
 9960 021c 01       		.uleb128 0x1
 9961 021d 30       		.byte	0x30
 9962 021e 00       		.byte	0
 9963 021f 12       		.uleb128 0x12
 9964 0220 68000000 		.4byte	.LVL2
 9965 0224 00310000 		.4byte	0x3100
 9966 0228 11       		.uleb128 0x11
 9967 0229 01       		.uleb128 0x1
 9968 022a 50       		.byte	0x50
 9969 022b 01       		.uleb128 0x1
 9970 022c 30       		.byte	0x30
 9971 022d 00       		.byte	0
 9972 022e 00       		.byte	0
 9973 022f 0F       		.uleb128 0xf
 9974 0230 330A0000 		.4byte	.LASF38
 9975 0234 01       		.byte	0x1
 9976 0235 C102     		.2byte	0x2c1
 9977 0237 00000000 		.4byte	.LFB76
 9978 023b 94000000 		.4byte	.LFE76-.LFB76
 9979 023f 01       		.uleb128 0x1
 9980 0240 9C       		.byte	0x9c
 9981 0241 4F020000 		.4byte	0x24f
 9982 0245 13       		.uleb128 0x13
 9983 0246 06000000 		.4byte	.LVL3
 9984 024a 0B310000 		.4byte	0x310b
 9985 024e 00       		.byte	0
 9986 024f 0F       		.uleb128 0xf
 9987 0250 3F030000 		.4byte	.LASF39
 9988 0254 01       		.byte	0x1
 9989 0255 D902     		.2byte	0x2d9
 9990 0257 00000000 		.4byte	.LFB77
 9991 025b 94000000 		.4byte	.LFE77-.LFB77
 9992 025f 01       		.uleb128 0x1
 9993 0260 9C       		.byte	0x9c
 9994 0261 6F020000 		.4byte	0x26f
 9995 0265 13       		.uleb128 0x13
ARM GAS  C:\Users\JPELEC~1\AppData\Local\Temp\ccEetrge.s 			page 225


 9996 0266 06000000 		.4byte	.LVL4
 9997 026a 16310000 		.4byte	0x3116
 9998 026e 00       		.byte	0
 9999 026f 14       		.uleb128 0x14
 10000 0270 FE000000 		.4byte	.LASF40
 10001 0274 01       		.byte	0x1
 10002 0275 56       		.byte	0x56
 10003 0276 00000000 		.4byte	.LFB65
 10004 027a E0000000 		.4byte	.LFE65-.LFB65
 10005 027e 01       		.uleb128 0x1
 10006 027f 9C       		.byte	0x9c
 10007 0280 15       		.uleb128 0x15
 10008 0281 71000000 		.4byte	.LASF46
 10009 0285 01       		.byte	0x1
 10010 0286 65       		.byte	0x65
 10011 0287 00000000 		.4byte	.LFB66
 10012 028b A4050000 		.4byte	.LFE66-.LFB66
 10013 028f 01       		.uleb128 0x1
 10014 0290 9C       		.byte	0x9c
 10015 0291 AE020000 		.4byte	0x2ae
 10016 0295 16       		.uleb128 0x16
 10017 0296 746D7000 		.ascii	"tmp\000"
 10018 029a 01       		.byte	0x1
 10019 029b 67       		.byte	0x67
 10020 029c 25000000 		.4byte	0x25
 10021 02a0 00000000 		.4byte	.LLST0
 10022 02a4 13       		.uleb128 0x13
 10023 02a5 12000000 		.4byte	.LVL14
 10024 02a9 6F020000 		.4byte	0x26f
 10025 02ad 00       		.byte	0
 10026 02ae 14       		.uleb128 0x14
 10027 02af E30A0000 		.4byte	.LASF41
 10028 02b3 01       		.byte	0x1
 10029 02b4 D7       		.byte	0xd7
 10030 02b5 00000000 		.4byte	.LFB67
 10031 02b9 5C000000 		.4byte	.LFE67-.LFB67
 10032 02bd 01       		.uleb128 0x1
 10033 02be 9C       		.byte	0x9c
 10034 02bf 14       		.uleb128 0x14
 10035 02c0 25030000 		.4byte	.LASF42
 10036 02c4 01       		.byte	0x1
 10037 02c5 E2       		.byte	0xe2
 10038 02c6 00000000 		.4byte	.LFB68
 10039 02ca 64000000 		.4byte	.LFE68-.LFB68
 10040 02ce 01       		.uleb128 0x1
 10041 02cf 9C       		.byte	0x9c
 10042 02d0 17       		.uleb128 0x17
 10043 02d1 A0050000 		.4byte	.LASF43
 10044 02d5 01       		.byte	0x1
 10045 02d6 F0       		.byte	0xf0
 10046 02d7 00000000 		.4byte	.LFB69
 10047 02db 32000000 		.4byte	.LFE69-.LFB69
 10048 02df 01       		.uleb128 0x1
 10049 02e0 9C       		.byte	0x9c
 10050 02e1 8E030000 		.4byte	0x38e
 10051 02e5 18       		.uleb128 0x18
 10052 02e6 7A090000 		.4byte	.LASF45
ARM GAS  C:\Users\JPELEC~1\AppData\Local\Temp\ccEetrge.s 			page 226


 10053 02ea 01       		.byte	0x1
 10054 02eb F0       		.byte	0xf0
 10055 02ec 29010000 		.4byte	0x129
 10056 02f0 2E000000 		.4byte	.LLST1
 10057 02f4 10       		.uleb128 0x10
 10058 02f5 06000000 		.4byte	.LVL113
 10059 02f9 21310000 		.4byte	0x3121
 10060 02fd 09030000 		.4byte	0x309
 10061 0301 11       		.uleb128 0x11
 10062 0302 01       		.uleb128 0x1
 10063 0303 50       		.byte	0x50
 10064 0304 03       		.uleb128 0x3
 10065 0305 F3       		.byte	0xf3
 10066 0306 01       		.uleb128 0x1
 10067 0307 50       		.byte	0x50
 10068 0308 00       		.byte	0
 10069 0309 10       		.uleb128 0x10
 10070 030a 0C000000 		.4byte	.LVL114
 10071 030e 2C310000 		.4byte	0x312c
 10072 0312 1C030000 		.4byte	0x31c
 10073 0316 11       		.uleb128 0x11
 10074 0317 01       		.uleb128 0x1
 10075 0318 50       		.byte	0x50
 10076 0319 01       		.uleb128 0x1
 10077 031a 3A       		.byte	0x3a
 10078 031b 00       		.byte	0
 10079 031c 10       		.uleb128 0x10
 10080 031d 12000000 		.4byte	.LVL115
 10081 0321 37310000 		.4byte	0x3137
 10082 0325 30030000 		.4byte	0x330
 10083 0329 11       		.uleb128 0x11
 10084 032a 01       		.uleb128 0x1
 10085 032b 50       		.byte	0x50
 10086 032c 02       		.uleb128 0x2
 10087 032d 09       		.byte	0x9
 10088 032e FF       		.byte	0xff
 10089 032f 00       		.byte	0
 10090 0330 10       		.uleb128 0x10
 10091 0331 18000000 		.4byte	.LVL116
 10092 0335 2C310000 		.4byte	0x312c
 10093 0339 43030000 		.4byte	0x343
 10094 033d 11       		.uleb128 0x11
 10095 033e 01       		.uleb128 0x1
 10096 033f 50       		.byte	0x50
 10097 0340 01       		.uleb128 0x1
 10098 0341 3A       		.byte	0x3a
 10099 0342 00       		.byte	0
 10100 0343 10       		.uleb128 0x10
 10101 0344 1E000000 		.4byte	.LVL117
 10102 0348 37310000 		.4byte	0x3137
 10103 034c 57030000 		.4byte	0x357
 10104 0350 11       		.uleb128 0x11
 10105 0351 01       		.uleb128 0x1
 10106 0352 50       		.byte	0x50
 10107 0353 02       		.uleb128 0x2
 10108 0354 09       		.byte	0x9
 10109 0355 FF       		.byte	0xff
ARM GAS  C:\Users\JPELEC~1\AppData\Local\Temp\ccEetrge.s 			page 227


 10110 0356 00       		.byte	0
 10111 0357 10       		.uleb128 0x10
 10112 0358 24000000 		.4byte	.LVL118
 10113 035c 2C310000 		.4byte	0x312c
 10114 0360 6A030000 		.4byte	0x36a
 10115 0364 11       		.uleb128 0x11
 10116 0365 01       		.uleb128 0x1
 10117 0366 50       		.byte	0x50
 10118 0367 01       		.uleb128 0x1
 10119 0368 3A       		.byte	0x3a
 10120 0369 00       		.byte	0
 10121 036a 10       		.uleb128 0x10
 10122 036b 2A000000 		.4byte	.LVL119
 10123 036f 37310000 		.4byte	0x3137
 10124 0373 7E030000 		.4byte	0x37e
 10125 0377 11       		.uleb128 0x11
 10126 0378 01       		.uleb128 0x1
 10127 0379 50       		.byte	0x50
 10128 037a 02       		.uleb128 0x2
 10129 037b 09       		.byte	0x9
 10130 037c FF       		.byte	0xff
 10131 037d 00       		.byte	0
 10132 037e 12       		.uleb128 0x12
 10133 037f 30000000 		.4byte	.LVL120
 10134 0383 2C310000 		.4byte	0x312c
 10135 0387 11       		.uleb128 0x11
 10136 0388 01       		.uleb128 0x1
 10137 0389 50       		.byte	0x50
 10138 038a 01       		.uleb128 0x1
 10139 038b 3A       		.byte	0x3a
 10140 038c 00       		.byte	0
 10141 038d 00       		.byte	0
 10142 038e 17       		.uleb128 0x17
 10143 038f B0050000 		.4byte	.LASF44
 10144 0393 01       		.byte	0x1
 10145 0394 FB       		.byte	0xfb
 10146 0395 00000000 		.4byte	.LFB70
 10147 0399 32000000 		.4byte	.LFE70-.LFB70
 10148 039d 01       		.uleb128 0x1
 10149 039e 9C       		.byte	0x9c
 10150 039f 4C040000 		.4byte	0x44c
 10151 03a3 18       		.uleb128 0x18
 10152 03a4 7A090000 		.4byte	.LASF45
 10153 03a8 01       		.byte	0x1
 10154 03a9 FB       		.byte	0xfb
 10155 03aa 29010000 		.4byte	0x129
 10156 03ae 4F000000 		.4byte	.LLST2
 10157 03b2 10       		.uleb128 0x10
 10158 03b3 06000000 		.4byte	.LVL122
 10159 03b7 42310000 		.4byte	0x3142
 10160 03bb C7030000 		.4byte	0x3c7
 10161 03bf 11       		.uleb128 0x11
 10162 03c0 01       		.uleb128 0x1
 10163 03c1 50       		.byte	0x50
 10164 03c2 03       		.uleb128 0x3
 10165 03c3 F3       		.byte	0xf3
 10166 03c4 01       		.uleb128 0x1
ARM GAS  C:\Users\JPELEC~1\AppData\Local\Temp\ccEetrge.s 			page 228


 10167 03c5 50       		.byte	0x50
 10168 03c6 00       		.byte	0
 10169 03c7 10       		.uleb128 0x10
 10170 03c8 0C000000 		.4byte	.LVL123
 10171 03cc 2C310000 		.4byte	0x312c
 10172 03d0 DA030000 		.4byte	0x3da
 10173 03d4 11       		.uleb128 0x11
 10174 03d5 01       		.uleb128 0x1
 10175 03d6 50       		.byte	0x50
 10176 03d7 01       		.uleb128 0x1
 10177 03d8 3A       		.byte	0x3a
 10178 03d9 00       		.byte	0
 10179 03da 10       		.uleb128 0x10
 10180 03db 12000000 		.4byte	.LVL124
 10181 03df 4D310000 		.4byte	0x314d
 10182 03e3 EE030000 		.4byte	0x3ee
 10183 03e7 11       		.uleb128 0x11
 10184 03e8 01       		.uleb128 0x1
 10185 03e9 50       		.byte	0x50
 10186 03ea 02       		.uleb128 0x2
 10187 03eb 09       		.byte	0x9
 10188 03ec FF       		.byte	0xff
 10189 03ed 00       		.byte	0
 10190 03ee 10       		.uleb128 0x10
 10191 03ef 18000000 		.4byte	.LVL125
 10192 03f3 2C310000 		.4byte	0x312c
 10193 03f7 01040000 		.4byte	0x401
 10194 03fb 11       		.uleb128 0x11
 10195 03fc 01       		.uleb128 0x1
 10196 03fd 50       		.byte	0x50
 10197 03fe 01       		.uleb128 0x1
 10198 03ff 3A       		.byte	0x3a
 10199 0400 00       		.byte	0
 10200 0401 10       		.uleb128 0x10
 10201 0402 1E000000 		.4byte	.LVL126
 10202 0406 4D310000 		.4byte	0x314d
 10203 040a 15040000 		.4byte	0x415
 10204 040e 11       		.uleb128 0x11
 10205 040f 01       		.uleb128 0x1
 10206 0410 50       		.byte	0x50
 10207 0411 02       		.uleb128 0x2
 10208 0412 09       		.byte	0x9
 10209 0413 FF       		.byte	0xff
 10210 0414 00       		.byte	0
 10211 0415 10       		.uleb128 0x10
 10212 0416 24000000 		.4byte	.LVL127
 10213 041a 2C310000 		.4byte	0x312c
 10214 041e 28040000 		.4byte	0x428
 10215 0422 11       		.uleb128 0x11
 10216 0423 01       		.uleb128 0x1
 10217 0424 50       		.byte	0x50
 10218 0425 01       		.uleb128 0x1
 10219 0426 3A       		.byte	0x3a
 10220 0427 00       		.byte	0
 10221 0428 10       		.uleb128 0x10
 10222 0429 2A000000 		.4byte	.LVL128
 10223 042d 4D310000 		.4byte	0x314d
ARM GAS  C:\Users\JPELEC~1\AppData\Local\Temp\ccEetrge.s 			page 229


 10224 0431 3C040000 		.4byte	0x43c
 10225 0435 11       		.uleb128 0x11
 10226 0436 01       		.uleb128 0x1
 10227 0437 50       		.byte	0x50
 10228 0438 02       		.uleb128 0x2
 10229 0439 09       		.byte	0x9
 10230 043a FF       		.byte	0xff
 10231 043b 00       		.byte	0
 10232 043c 12       		.uleb128 0x12
 10233 043d 30000000 		.4byte	.LVL129
 10234 0441 2C310000 		.4byte	0x312c
 10235 0445 11       		.uleb128 0x11
 10236 0446 01       		.uleb128 0x1
 10237 0447 50       		.byte	0x50
 10238 0448 01       		.uleb128 0x1
 10239 0449 3A       		.byte	0x3a
 10240 044a 00       		.byte	0
 10241 044b 00       		.byte	0
 10242 044c 19       		.uleb128 0x19
 10243 044d BE020000 		.4byte	.LASF47
 10244 0451 01       		.byte	0x1
 10245 0452 0601     		.2byte	0x106
 10246 0454 00000000 		.4byte	.LFB71
 10247 0458 10080000 		.4byte	.LFE71-.LFB71
 10248 045c 01       		.uleb128 0x1
 10249 045d 9C       		.byte	0x9c
 10250 045e 07070000 		.4byte	0x707
 10251 0462 10       		.uleb128 0x10
 10252 0463 70000000 		.4byte	.LVL139
 10253 0467 58310000 		.4byte	0x3158
 10254 046b 7F040000 		.4byte	0x47f
 10255 046f 11       		.uleb128 0x11
 10256 0470 01       		.uleb128 0x1
 10257 0471 50       		.byte	0x50
 10258 0472 02       		.uleb128 0x2
 10259 0473 74       		.byte	0x74
 10260 0474 00       		.sleb128 0
 10261 0475 11       		.uleb128 0x11
 10262 0476 01       		.uleb128 0x1
 10263 0477 51       		.byte	0x51
 10264 0478 05       		.uleb128 0x5
 10265 0479 03       		.byte	0x3
 10266 047a 00000000 		.4byte	.LC0
 10267 047e 00       		.byte	0
 10268 047f 10       		.uleb128 0x10
 10269 0480 76000000 		.4byte	.LVL140
 10270 0484 D0020000 		.4byte	0x2d0
 10271 0488 93040000 		.4byte	0x493
 10272 048c 11       		.uleb128 0x11
 10273 048d 01       		.uleb128 0x1
 10274 048e 50       		.byte	0x50
 10275 048f 02       		.uleb128 0x2
 10276 0490 74       		.byte	0x74
 10277 0491 00       		.sleb128 0
 10278 0492 00       		.byte	0
 10279 0493 10       		.uleb128 0x10
 10280 0494 7C000000 		.4byte	.LVL141
ARM GAS  C:\Users\JPELEC~1\AppData\Local\Temp\ccEetrge.s 			page 230


 10281 0498 2C310000 		.4byte	0x312c
 10282 049c A6040000 		.4byte	0x4a6
 10283 04a0 11       		.uleb128 0x11
 10284 04a1 01       		.uleb128 0x1
 10285 04a2 50       		.byte	0x50
 10286 04a3 01       		.uleb128 0x1
 10287 04a4 31       		.byte	0x31
 10288 04a5 00       		.byte	0
 10289 04a6 10       		.uleb128 0x10
 10290 04a7 30010000 		.4byte	.LVL153
 10291 04ab 58310000 		.4byte	0x3158
 10292 04af C3040000 		.4byte	0x4c3
 10293 04b3 11       		.uleb128 0x11
 10294 04b4 01       		.uleb128 0x1
 10295 04b5 50       		.byte	0x50
 10296 04b6 02       		.uleb128 0x2
 10297 04b7 74       		.byte	0x74
 10298 04b8 00       		.sleb128 0
 10299 04b9 11       		.uleb128 0x11
 10300 04ba 01       		.uleb128 0x1
 10301 04bb 51       		.byte	0x51
 10302 04bc 05       		.uleb128 0x5
 10303 04bd 03       		.byte	0x3
 10304 04be 00000000 		.4byte	.LC0
 10305 04c2 00       		.byte	0
 10306 04c3 10       		.uleb128 0x10
 10307 04c4 36010000 		.4byte	.LVL154
 10308 04c8 D0020000 		.4byte	0x2d0
 10309 04cc D7040000 		.4byte	0x4d7
 10310 04d0 11       		.uleb128 0x11
 10311 04d1 01       		.uleb128 0x1
 10312 04d2 50       		.byte	0x50
 10313 04d3 02       		.uleb128 0x2
 10314 04d4 74       		.byte	0x74
 10315 04d5 00       		.sleb128 0
 10316 04d6 00       		.byte	0
 10317 04d7 10       		.uleb128 0x10
 10318 04d8 3C010000 		.4byte	.LVL155
 10319 04dc 2C310000 		.4byte	0x312c
 10320 04e0 EA040000 		.4byte	0x4ea
 10321 04e4 11       		.uleb128 0x11
 10322 04e5 01       		.uleb128 0x1
 10323 04e6 50       		.byte	0x50
 10324 04e7 01       		.uleb128 0x1
 10325 04e8 31       		.byte	0x31
 10326 04e9 00       		.byte	0
 10327 04ea 10       		.uleb128 0x10
 10328 04eb F0010000 		.4byte	.LVL167
 10329 04ef 58310000 		.4byte	0x3158
 10330 04f3 07050000 		.4byte	0x507
 10331 04f7 11       		.uleb128 0x11
 10332 04f8 01       		.uleb128 0x1
 10333 04f9 50       		.byte	0x50
 10334 04fa 02       		.uleb128 0x2
 10335 04fb 74       		.byte	0x74
 10336 04fc 00       		.sleb128 0
 10337 04fd 11       		.uleb128 0x11
ARM GAS  C:\Users\JPELEC~1\AppData\Local\Temp\ccEetrge.s 			page 231


 10338 04fe 01       		.uleb128 0x1
 10339 04ff 51       		.byte	0x51
 10340 0500 05       		.uleb128 0x5
 10341 0501 03       		.byte	0x3
 10342 0502 00000000 		.4byte	.LC0
 10343 0506 00       		.byte	0
 10344 0507 10       		.uleb128 0x10
 10345 0508 F6010000 		.4byte	.LVL168
 10346 050c D0020000 		.4byte	0x2d0
 10347 0510 1B050000 		.4byte	0x51b
 10348 0514 11       		.uleb128 0x11
 10349 0515 01       		.uleb128 0x1
 10350 0516 50       		.byte	0x50
 10351 0517 02       		.uleb128 0x2
 10352 0518 74       		.byte	0x74
 10353 0519 00       		.sleb128 0
 10354 051a 00       		.byte	0
 10355 051b 10       		.uleb128 0x10
 10356 051c FC010000 		.4byte	.LVL169
 10357 0520 2C310000 		.4byte	0x312c
 10358 0524 2E050000 		.4byte	0x52e
 10359 0528 11       		.uleb128 0x11
 10360 0529 01       		.uleb128 0x1
 10361 052a 50       		.byte	0x50
 10362 052b 01       		.uleb128 0x1
 10363 052c 31       		.byte	0x31
 10364 052d 00       		.byte	0
 10365 052e 10       		.uleb128 0x10
 10366 052f E4020000 		.4byte	.LVL181
 10367 0533 58310000 		.4byte	0x3158
 10368 0537 4B050000 		.4byte	0x54b
 10369 053b 11       		.uleb128 0x11
 10370 053c 01       		.uleb128 0x1
 10371 053d 50       		.byte	0x50
 10372 053e 02       		.uleb128 0x2
 10373 053f 74       		.byte	0x74
 10374 0540 00       		.sleb128 0
 10375 0541 11       		.uleb128 0x11
 10376 0542 01       		.uleb128 0x1
 10377 0543 51       		.byte	0x51
 10378 0544 05       		.uleb128 0x5
 10379 0545 03       		.byte	0x3
 10380 0546 00000000 		.4byte	.LC0
 10381 054a 00       		.byte	0
 10382 054b 10       		.uleb128 0x10
 10383 054c EA020000 		.4byte	.LVL182
 10384 0550 D0020000 		.4byte	0x2d0
 10385 0554 5F050000 		.4byte	0x55f
 10386 0558 11       		.uleb128 0x11
 10387 0559 01       		.uleb128 0x1
 10388 055a 50       		.byte	0x50
 10389 055b 02       		.uleb128 0x2
 10390 055c 74       		.byte	0x74
 10391 055d 00       		.sleb128 0
 10392 055e 00       		.byte	0
 10393 055f 10       		.uleb128 0x10
 10394 0560 F0020000 		.4byte	.LVL183
ARM GAS  C:\Users\JPELEC~1\AppData\Local\Temp\ccEetrge.s 			page 232


 10395 0564 2C310000 		.4byte	0x312c
 10396 0568 72050000 		.4byte	0x572
 10397 056c 11       		.uleb128 0x11
 10398 056d 01       		.uleb128 0x1
 10399 056e 50       		.byte	0x50
 10400 056f 01       		.uleb128 0x1
 10401 0570 31       		.byte	0x31
 10402 0571 00       		.byte	0
 10403 0572 10       		.uleb128 0x10
 10404 0573 A8030000 		.4byte	.LVL195
 10405 0577 58310000 		.4byte	0x3158
 10406 057b 8F050000 		.4byte	0x58f
 10407 057f 11       		.uleb128 0x11
 10408 0580 01       		.uleb128 0x1
 10409 0581 50       		.byte	0x50
 10410 0582 02       		.uleb128 0x2
 10411 0583 74       		.byte	0x74
 10412 0584 00       		.sleb128 0
 10413 0585 11       		.uleb128 0x11
 10414 0586 01       		.uleb128 0x1
 10415 0587 51       		.byte	0x51
 10416 0588 05       		.uleb128 0x5
 10417 0589 03       		.byte	0x3
 10418 058a 00000000 		.4byte	.LC0
 10419 058e 00       		.byte	0
 10420 058f 10       		.uleb128 0x10
 10421 0590 AE030000 		.4byte	.LVL196
 10422 0594 D0020000 		.4byte	0x2d0
 10423 0598 A3050000 		.4byte	0x5a3
 10424 059c 11       		.uleb128 0x11
 10425 059d 01       		.uleb128 0x1
 10426 059e 50       		.byte	0x50
 10427 059f 02       		.uleb128 0x2
 10428 05a0 74       		.byte	0x74
 10429 05a1 00       		.sleb128 0
 10430 05a2 00       		.byte	0
 10431 05a3 10       		.uleb128 0x10
 10432 05a4 B4030000 		.4byte	.LVL197
 10433 05a8 2C310000 		.4byte	0x312c
 10434 05ac B6050000 		.4byte	0x5b6
 10435 05b0 11       		.uleb128 0x11
 10436 05b1 01       		.uleb128 0x1
 10437 05b2 50       		.byte	0x50
 10438 05b3 01       		.uleb128 0x1
 10439 05b4 31       		.byte	0x31
 10440 05b5 00       		.byte	0
 10441 05b6 10       		.uleb128 0x10
 10442 05b7 6C040000 		.4byte	.LVL209
 10443 05bb 58310000 		.4byte	0x3158
 10444 05bf D3050000 		.4byte	0x5d3
 10445 05c3 11       		.uleb128 0x11
 10446 05c4 01       		.uleb128 0x1
 10447 05c5 50       		.byte	0x50
 10448 05c6 02       		.uleb128 0x2
 10449 05c7 74       		.byte	0x74
 10450 05c8 00       		.sleb128 0
 10451 05c9 11       		.uleb128 0x11
ARM GAS  C:\Users\JPELEC~1\AppData\Local\Temp\ccEetrge.s 			page 233


 10452 05ca 01       		.uleb128 0x1
 10453 05cb 51       		.byte	0x51
 10454 05cc 05       		.uleb128 0x5
 10455 05cd 03       		.byte	0x3
 10456 05ce 00000000 		.4byte	.LC0
 10457 05d2 00       		.byte	0
 10458 05d3 10       		.uleb128 0x10
 10459 05d4 72040000 		.4byte	.LVL210
 10460 05d8 D0020000 		.4byte	0x2d0
 10461 05dc E7050000 		.4byte	0x5e7
 10462 05e0 11       		.uleb128 0x11
 10463 05e1 01       		.uleb128 0x1
 10464 05e2 50       		.byte	0x50
 10465 05e3 02       		.uleb128 0x2
 10466 05e4 74       		.byte	0x74
 10467 05e5 00       		.sleb128 0
 10468 05e6 00       		.byte	0
 10469 05e7 10       		.uleb128 0x10
 10470 05e8 78040000 		.4byte	.LVL211
 10471 05ec 2C310000 		.4byte	0x312c
 10472 05f0 FA050000 		.4byte	0x5fa
 10473 05f4 11       		.uleb128 0x11
 10474 05f5 01       		.uleb128 0x1
 10475 05f6 50       		.byte	0x50
 10476 05f7 01       		.uleb128 0x1
 10477 05f8 31       		.byte	0x31
 10478 05f9 00       		.byte	0
 10479 05fa 10       		.uleb128 0x10
 10480 05fb 60050000 		.4byte	.LVL223
 10481 05ff 58310000 		.4byte	0x3158
 10482 0603 17060000 		.4byte	0x617
 10483 0607 11       		.uleb128 0x11
 10484 0608 01       		.uleb128 0x1
 10485 0609 50       		.byte	0x50
 10486 060a 02       		.uleb128 0x2
 10487 060b 74       		.byte	0x74
 10488 060c 00       		.sleb128 0
 10489 060d 11       		.uleb128 0x11
 10490 060e 01       		.uleb128 0x1
 10491 060f 51       		.byte	0x51
 10492 0610 05       		.uleb128 0x5
 10493 0611 03       		.byte	0x3
 10494 0612 00000000 		.4byte	.LC0
 10495 0616 00       		.byte	0
 10496 0617 10       		.uleb128 0x10
 10497 0618 66050000 		.4byte	.LVL224
 10498 061c D0020000 		.4byte	0x2d0
 10499 0620 2B060000 		.4byte	0x62b
 10500 0624 11       		.uleb128 0x11
 10501 0625 01       		.uleb128 0x1
 10502 0626 50       		.byte	0x50
 10503 0627 02       		.uleb128 0x2
 10504 0628 74       		.byte	0x74
 10505 0629 00       		.sleb128 0
 10506 062a 00       		.byte	0
 10507 062b 10       		.uleb128 0x10
 10508 062c 6C050000 		.4byte	.LVL225
ARM GAS  C:\Users\JPELEC~1\AppData\Local\Temp\ccEetrge.s 			page 234


 10509 0630 2C310000 		.4byte	0x312c
 10510 0634 3E060000 		.4byte	0x63e
 10511 0638 11       		.uleb128 0x11
 10512 0639 01       		.uleb128 0x1
 10513 063a 50       		.byte	0x50
 10514 063b 01       		.uleb128 0x1
 10515 063c 31       		.byte	0x31
 10516 063d 00       		.byte	0
 10517 063e 10       		.uleb128 0x10
 10518 063f 24060000 		.4byte	.LVL237
 10519 0643 58310000 		.4byte	0x3158
 10520 0647 5B060000 		.4byte	0x65b
 10521 064b 11       		.uleb128 0x11
 10522 064c 01       		.uleb128 0x1
 10523 064d 50       		.byte	0x50
 10524 064e 02       		.uleb128 0x2
 10525 064f 74       		.byte	0x74
 10526 0650 00       		.sleb128 0
 10527 0651 11       		.uleb128 0x11
 10528 0652 01       		.uleb128 0x1
 10529 0653 51       		.byte	0x51
 10530 0654 05       		.uleb128 0x5
 10531 0655 03       		.byte	0x3
 10532 0656 00000000 		.4byte	.LC0
 10533 065a 00       		.byte	0
 10534 065b 10       		.uleb128 0x10
 10535 065c 2A060000 		.4byte	.LVL238
 10536 0660 D0020000 		.4byte	0x2d0
 10537 0664 6F060000 		.4byte	0x66f
 10538 0668 11       		.uleb128 0x11
 10539 0669 01       		.uleb128 0x1
 10540 066a 50       		.byte	0x50
 10541 066b 02       		.uleb128 0x2
 10542 066c 74       		.byte	0x74
 10543 066d 00       		.sleb128 0
 10544 066e 00       		.byte	0
 10545 066f 10       		.uleb128 0x10
 10546 0670 30060000 		.4byte	.LVL239
 10547 0674 2C310000 		.4byte	0x312c
 10548 0678 82060000 		.4byte	0x682
 10549 067c 11       		.uleb128 0x11
 10550 067d 01       		.uleb128 0x1
 10551 067e 50       		.byte	0x50
 10552 067f 01       		.uleb128 0x1
 10553 0680 31       		.byte	0x31
 10554 0681 00       		.byte	0
 10555 0682 10       		.uleb128 0x10
 10556 0683 EA060000 		.4byte	.LVL251
 10557 0687 58310000 		.4byte	0x3158
 10558 068b 9F060000 		.4byte	0x69f
 10559 068f 11       		.uleb128 0x11
 10560 0690 01       		.uleb128 0x1
 10561 0691 50       		.byte	0x50
 10562 0692 02       		.uleb128 0x2
 10563 0693 74       		.byte	0x74
 10564 0694 00       		.sleb128 0
 10565 0695 11       		.uleb128 0x11
ARM GAS  C:\Users\JPELEC~1\AppData\Local\Temp\ccEetrge.s 			page 235


 10566 0696 01       		.uleb128 0x1
 10567 0697 51       		.byte	0x51
 10568 0698 05       		.uleb128 0x5
 10569 0699 03       		.byte	0x3
 10570 069a 00000000 		.4byte	.LC0
 10571 069e 00       		.byte	0
 10572 069f 10       		.uleb128 0x10
 10573 06a0 F0060000 		.4byte	.LVL252
 10574 06a4 D0020000 		.4byte	0x2d0
 10575 06a8 B3060000 		.4byte	0x6b3
 10576 06ac 11       		.uleb128 0x11
 10577 06ad 01       		.uleb128 0x1
 10578 06ae 50       		.byte	0x50
 10579 06af 02       		.uleb128 0x2
 10580 06b0 74       		.byte	0x74
 10581 06b1 00       		.sleb128 0
 10582 06b2 00       		.byte	0
 10583 06b3 10       		.uleb128 0x10
 10584 06b4 F6060000 		.4byte	.LVL253
 10585 06b8 2C310000 		.4byte	0x312c
 10586 06bc C6060000 		.4byte	0x6c6
 10587 06c0 11       		.uleb128 0x11
 10588 06c1 01       		.uleb128 0x1
 10589 06c2 50       		.byte	0x50
 10590 06c3 01       		.uleb128 0x1
 10591 06c4 31       		.byte	0x31
 10592 06c5 00       		.byte	0
 10593 06c6 10       		.uleb128 0x10
 10594 06c7 B2070000 		.4byte	.LVL265
 10595 06cb 58310000 		.4byte	0x3158
 10596 06cf E3060000 		.4byte	0x6e3
 10597 06d3 11       		.uleb128 0x11
 10598 06d4 01       		.uleb128 0x1
 10599 06d5 50       		.byte	0x50
 10600 06d6 02       		.uleb128 0x2
 10601 06d7 74       		.byte	0x74
 10602 06d8 00       		.sleb128 0
 10603 06d9 11       		.uleb128 0x11
 10604 06da 01       		.uleb128 0x1
 10605 06db 51       		.byte	0x51
 10606 06dc 05       		.uleb128 0x5
 10607 06dd 03       		.byte	0x3
 10608 06de 00000000 		.4byte	.LC0
 10609 06e2 00       		.byte	0
 10610 06e3 10       		.uleb128 0x10
 10611 06e4 B8070000 		.4byte	.LVL266
 10612 06e8 D0020000 		.4byte	0x2d0
 10613 06ec F7060000 		.4byte	0x6f7
 10614 06f0 11       		.uleb128 0x11
 10615 06f1 01       		.uleb128 0x1
 10616 06f2 50       		.byte	0x50
 10617 06f3 02       		.uleb128 0x2
 10618 06f4 74       		.byte	0x74
 10619 06f5 00       		.sleb128 0
 10620 06f6 00       		.byte	0
 10621 06f7 12       		.uleb128 0x12
 10622 06f8 BE070000 		.4byte	.LVL267
ARM GAS  C:\Users\JPELEC~1\AppData\Local\Temp\ccEetrge.s 			page 236


 10623 06fc 2C310000 		.4byte	0x312c
 10624 0700 11       		.uleb128 0x11
 10625 0701 01       		.uleb128 0x1
 10626 0702 50       		.byte	0x50
 10627 0703 01       		.uleb128 0x1
 10628 0704 31       		.byte	0x31
 10629 0705 00       		.byte	0
 10630 0706 00       		.byte	0
 10631 0707 1A       		.uleb128 0x1a
 10632 0708 76050000 		.4byte	.LASF48
 10633 070c 01       		.byte	0x1
 10634 070d A201     		.2byte	0x1a2
 10635 070f 00000000 		.4byte	.LFB72
 10636 0713 A8030000 		.4byte	.LFE72-.LFB72
 10637 0717 01       		.uleb128 0x1
 10638 0718 9C       		.byte	0x9c
 10639 0719 19       		.uleb128 0x19
 10640 071a FD090000 		.4byte	.LASF49
 10641 071e 01       		.byte	0x1
 10642 071f 4802     		.2byte	0x248
 10643 0721 00000000 		.4byte	.LFB73
 10644 0725 00010000 		.4byte	.LFE73-.LFB73
 10645 0729 01       		.uleb128 0x1
 10646 072a 9C       		.byte	0x9c
 10647 072b B5070000 		.4byte	0x7b5
 10648 072f 10       		.uleb128 0x10
 10649 0730 54000000 		.4byte	.LVL277
 10650 0734 8E030000 		.4byte	0x38e
 10651 0738 46070000 		.4byte	0x746
 10652 073c 11       		.uleb128 0x11
 10653 073d 01       		.uleb128 0x1
 10654 073e 50       		.byte	0x50
 10655 073f 05       		.uleb128 0x5
 10656 0740 03       		.byte	0x3
 10657 0741 0C000000 		.4byte	.LC1
 10658 0745 00       		.byte	0
 10659 0746 10       		.uleb128 0x10
 10660 0747 6C000000 		.4byte	.LVL279
 10661 074b 8E030000 		.4byte	0x38e
 10662 074f 5D070000 		.4byte	0x75d
 10663 0753 11       		.uleb128 0x11
 10664 0754 01       		.uleb128 0x1
 10665 0755 50       		.byte	0x50
 10666 0756 05       		.uleb128 0x5
 10667 0757 03       		.byte	0x3
 10668 0758 24000000 		.4byte	.LC2
 10669 075c 00       		.byte	0
 10670 075d 13       		.uleb128 0x13
 10671 075e 76000000 		.4byte	.LVL280
 10672 0762 80020000 		.4byte	0x280
 10673 0766 10       		.uleb128 0x10
 10674 0767 9C000000 		.4byte	.LVL283
 10675 076b 8E030000 		.4byte	0x38e
 10676 076f 7D070000 		.4byte	0x77d
 10677 0773 11       		.uleb128 0x11
 10678 0774 01       		.uleb128 0x1
 10679 0775 50       		.byte	0x50
ARM GAS  C:\Users\JPELEC~1\AppData\Local\Temp\ccEetrge.s 			page 237


 10680 0776 05       		.uleb128 0x5
 10681 0777 03       		.byte	0x3
 10682 0778 34000000 		.4byte	.LC3
 10683 077c 00       		.byte	0
 10684 077d 10       		.uleb128 0x10
 10685 077e AE000000 		.4byte	.LVL285
 10686 0782 8E030000 		.4byte	0x38e
 10687 0786 94070000 		.4byte	0x794
 10688 078a 11       		.uleb128 0x11
 10689 078b 01       		.uleb128 0x1
 10690 078c 50       		.byte	0x50
 10691 078d 05       		.uleb128 0x5
 10692 078e 03       		.byte	0x3
 10693 078f 48000000 		.4byte	.LC4
 10694 0793 00       		.byte	0
 10695 0794 10       		.uleb128 0x10
 10696 0795 C6000000 		.4byte	.LVL287
 10697 0799 8E030000 		.4byte	0x38e
 10698 079d AB070000 		.4byte	0x7ab
 10699 07a1 11       		.uleb128 0x11
 10700 07a2 01       		.uleb128 0x1
 10701 07a3 50       		.byte	0x50
 10702 07a4 05       		.uleb128 0x5
 10703 07a5 03       		.byte	0x3
 10704 07a6 5C000000 		.4byte	.LC5
 10705 07aa 00       		.byte	0
 10706 07ab 13       		.uleb128 0x13
 10707 07ac D0000000 		.4byte	.LVL288
 10708 07b0 80020000 		.4byte	0x280
 10709 07b4 00       		.byte	0
 10710 07b5 1B       		.uleb128 0x1b
 10711 07b6 56010000 		.4byte	.LASF235
 10712 07ba 01       		.byte	0x1
 10713 07bb 6502     		.2byte	0x265
 10714 07bd 25000000 		.4byte	0x25
 10715 07c1 00000000 		.4byte	.LFB74
 10716 07c5 54010000 		.4byte	.LFE74-.LFB74
 10717 07c9 01       		.uleb128 0x1
 10718 07ca 9C       		.byte	0x9c
 10719 07cb 53080000 		.4byte	0x853
 10720 07cf 1C       		.uleb128 0x1c
 10721 07d0 A8080000 		.4byte	.LASF50
 10722 07d4 01       		.byte	0x1
 10723 07d5 6502     		.2byte	0x265
 10724 07d7 B4000000 		.4byte	0xb4
 10725 07db 70000000 		.4byte	.LLST3
 10726 07df 13       		.uleb128 0x13
 10727 07e0 0E000000 		.4byte	.LVL290
 10728 07e4 63310000 		.4byte	0x3163
 10729 07e8 13       		.uleb128 0x13
 10730 07e9 18000000 		.4byte	.LVL291
 10731 07ed 6E310000 		.4byte	0x316e
 10732 07f1 10       		.uleb128 0x10
 10733 07f2 24000000 		.4byte	.LVL292
 10734 07f6 79310000 		.4byte	0x3179
 10735 07fa 09080000 		.4byte	0x809
 10736 07fe 11       		.uleb128 0x11
ARM GAS  C:\Users\JPELEC~1\AppData\Local\Temp\ccEetrge.s 			page 238


 10737 07ff 01       		.uleb128 0x1
 10738 0800 50       		.byte	0x50
 10739 0801 01       		.uleb128 0x1
 10740 0802 32       		.byte	0x32
 10741 0803 11       		.uleb128 0x11
 10742 0804 01       		.uleb128 0x1
 10743 0805 51       		.byte	0x51
 10744 0806 01       		.uleb128 0x1
 10745 0807 31       		.byte	0x31
 10746 0808 00       		.byte	0
 10747 0809 13       		.uleb128 0x13
 10748 080a 28000000 		.4byte	.LVL293
 10749 080e 84310000 		.4byte	0x3184
 10750 0812 10       		.uleb128 0x10
 10751 0813 2E000000 		.4byte	.LVL294
 10752 0817 8F310000 		.4byte	0x318f
 10753 081b 25080000 		.4byte	0x825
 10754 081f 11       		.uleb128 0x11
 10755 0820 01       		.uleb128 0x1
 10756 0821 50       		.byte	0x50
 10757 0822 01       		.uleb128 0x1
 10758 0823 30       		.byte	0x30
 10759 0824 00       		.byte	0
 10760 0825 13       		.uleb128 0x13
 10761 0826 32000000 		.4byte	.LVL295
 10762 082a 9A310000 		.4byte	0x319a
 10763 082e 13       		.uleb128 0x13
 10764 082f 36000000 		.4byte	.LVL296
 10765 0833 A5310000 		.4byte	0x31a5
 10766 0837 13       		.uleb128 0x13
 10767 0838 44000000 		.4byte	.LVL297
 10768 083c B0310000 		.4byte	0x31b0
 10769 0840 13       		.uleb128 0x13
 10770 0841 4C000000 		.4byte	.LVL298
 10771 0845 BB310000 		.4byte	0x31bb
 10772 0849 13       		.uleb128 0x13
 10773 084a 5C000000 		.4byte	.LVL299
 10774 084e C6310000 		.4byte	0x31c6
 10775 0852 00       		.byte	0
 10776 0853 1D       		.uleb128 0x1d
 10777 0854 9E0A0000 		.4byte	.LASF236
 10778 0858 01       		.byte	0x1
 10779 0859 F302     		.2byte	0x2f3
 10780 085b 85000000 		.4byte	0x85
 10781 085f 00000000 		.4byte	.LFB79
 10782 0863 94250000 		.4byte	.LFE79-.LFB79
 10783 0867 01       		.uleb128 0x1
 10784 0868 9C       		.byte	0x9c
 10785 0869 82260000 		.4byte	0x2682
 10786 086d 10       		.uleb128 0x10
 10787 086e 0C000000 		.4byte	.LVL311
 10788 0872 D1310000 		.4byte	0x31d1
 10789 0876 84080000 		.4byte	0x884
 10790 087a 11       		.uleb128 0x11
 10791 087b 01       		.uleb128 0x1
 10792 087c 50       		.byte	0x50
 10793 087d 05       		.uleb128 0x5
ARM GAS  C:\Users\JPELEC~1\AppData\Local\Temp\ccEetrge.s 			page 239


 10794 087e 03       		.byte	0x3
 10795 087f 00000000 		.4byte	Reloj2
 10796 0883 00       		.byte	0
 10797 0884 10       		.uleb128 0x10
 10798 0885 12000000 		.4byte	.LVL312
 10799 0889 DC310000 		.4byte	0x31dc
 10800 088d 9B080000 		.4byte	0x89b
 10801 0891 11       		.uleb128 0x11
 10802 0892 01       		.uleb128 0x1
 10803 0893 50       		.byte	0x50
 10804 0894 05       		.uleb128 0x5
 10805 0895 03       		.byte	0x3
 10806 0896 00000000 		.4byte	lee
 10807 089a 00       		.byte	0
 10808 089b 13       		.uleb128 0x13
 10809 089c 16000000 		.4byte	.LVL313
 10810 08a0 E7310000 		.4byte	0x31e7
 10811 08a4 13       		.uleb128 0x13
 10812 08a5 1A000000 		.4byte	.LVL314
 10813 08a9 F2310000 		.4byte	0x31f2
 10814 08ad 13       		.uleb128 0x13
 10815 08ae 1E000000 		.4byte	.LVL315
 10816 08b2 FD310000 		.4byte	0x31fd
 10817 08b6 10       		.uleb128 0x10
 10818 08b7 24000000 		.4byte	.LVL316
 10819 08bb 08320000 		.4byte	0x3208
 10820 08bf CD080000 		.4byte	0x8cd
 10821 08c3 11       		.uleb128 0x11
 10822 08c4 01       		.uleb128 0x1
 10823 08c5 50       		.byte	0x50
 10824 08c6 05       		.uleb128 0x5
 10825 08c7 03       		.byte	0x3
 10826 08c8 00000000 		.4byte	inteRX
 10827 08cc 00       		.byte	0
 10828 08cd 10       		.uleb128 0x10
 10829 08ce 2A000000 		.4byte	.LVL317
 10830 08d2 13320000 		.4byte	0x3213
 10831 08d6 E4080000 		.4byte	0x8e4
 10832 08da 11       		.uleb128 0x11
 10833 08db 01       		.uleb128 0x1
 10834 08dc 50       		.byte	0x50
 10835 08dd 05       		.uleb128 0x5
 10836 08de 03       		.byte	0x3
 10837 08df 00000000 		.4byte	inteRX1
 10838 08e3 00       		.byte	0
 10839 08e4 13       		.uleb128 0x13
 10840 08e5 2E000000 		.4byte	.LVL318
 10841 08e9 1E320000 		.4byte	0x321e
 10842 08ed 13       		.uleb128 0x13
 10843 08ee 32000000 		.4byte	.LVL319
 10844 08f2 29320000 		.4byte	0x3229
 10845 08f6 13       		.uleb128 0x13
 10846 08f7 36000000 		.4byte	.LVL320
 10847 08fb 34320000 		.4byte	0x3234
 10848 08ff 13       		.uleb128 0x13
 10849 0900 3A000000 		.4byte	.LVL321
 10850 0904 3F320000 		.4byte	0x323f
ARM GAS  C:\Users\JPELEC~1\AppData\Local\Temp\ccEetrge.s 			page 240


 10851 0908 13       		.uleb128 0x13
 10852 0909 3E000000 		.4byte	.LVL322
 10853 090d 4A320000 		.4byte	0x324a
 10854 0911 10       		.uleb128 0x10
 10855 0912 44000000 		.4byte	.LVL323
 10856 0916 55320000 		.4byte	0x3255
 10857 091a 28090000 		.4byte	0x928
 10858 091e 11       		.uleb128 0x11
 10859 091f 01       		.uleb128 0x1
 10860 0920 50       		.byte	0x50
 10861 0921 05       		.uleb128 0x5
 10862 0922 03       		.byte	0x3
 10863 0923 00000000 		.4byte	ADC_SAR_ISR_LOC
 10864 0927 00       		.byte	0
 10865 0928 13       		.uleb128 0x13
 10866 0929 48000000 		.4byte	.LVL324
 10867 092d 60320000 		.4byte	0x3260
 10868 0931 13       		.uleb128 0x13
 10869 0932 4C000000 		.4byte	.LVL325
 10870 0936 6B320000 		.4byte	0x326b
 10871 093a 10       		.uleb128 0x10
 10872 093b 52000000 		.4byte	.LVL326
 10873 093f 76320000 		.4byte	0x3276
 10874 0943 4D090000 		.4byte	0x94d
 10875 0947 11       		.uleb128 0x11
 10876 0948 01       		.uleb128 0x1
 10877 0949 50       		.byte	0x50
 10878 094a 01       		.uleb128 0x1
 10879 094b 31       		.byte	0x31
 10880 094c 00       		.byte	0
 10881 094d 10       		.uleb128 0x10
 10882 094e 58000000 		.4byte	.LVL327
 10883 0952 81320000 		.4byte	0x3281
 10884 0956 60090000 		.4byte	0x960
 10885 095a 11       		.uleb128 0x11
 10886 095b 01       		.uleb128 0x1
 10887 095c 50       		.byte	0x50
 10888 095d 01       		.uleb128 0x1
 10889 095e 31       		.byte	0x31
 10890 095f 00       		.byte	0
 10891 0960 10       		.uleb128 0x10
 10892 0961 5E000000 		.4byte	.LVL328
 10893 0965 8C320000 		.4byte	0x328c
 10894 0969 74090000 		.4byte	0x974
 10895 096d 11       		.uleb128 0x11
 10896 096e 01       		.uleb128 0x1
 10897 096f 50       		.byte	0x50
 10898 0970 02       		.uleb128 0x2
 10899 0971 08       		.byte	0x8
 10900 0972 64       		.byte	0x64
 10901 0973 00       		.byte	0
 10902 0974 13       		.uleb128 0x13
 10903 0975 6E000000 		.4byte	.LVL329
 10904 0979 B5070000 		.4byte	0x7b5
 10905 097d 10       		.uleb128 0x10
 10906 097e A8000000 		.4byte	.LVL330
 10907 0982 D0020000 		.4byte	0x2d0
ARM GAS  C:\Users\JPELEC~1\AppData\Local\Temp\ccEetrge.s 			page 241


 10908 0986 91090000 		.4byte	0x991
 10909 098a 11       		.uleb128 0x11
 10910 098b 01       		.uleb128 0x1
 10911 098c 50       		.byte	0x50
 10912 098d 02       		.uleb128 0x2
 10913 098e 77       		.byte	0x77
 10914 098f 00       		.sleb128 0
 10915 0990 00       		.byte	0
 10916 0991 10       		.uleb128 0x10
 10917 0992 B0000000 		.4byte	.LVL331
 10918 0996 D0020000 		.4byte	0x2d0
 10919 099a A5090000 		.4byte	0x9a5
 10920 099e 11       		.uleb128 0x11
 10921 099f 01       		.uleb128 0x1
 10922 09a0 50       		.byte	0x50
 10923 09a1 02       		.uleb128 0x2
 10924 09a2 76       		.byte	0x76
 10925 09a3 00       		.sleb128 0
 10926 09a4 00       		.byte	0
 10927 09a5 10       		.uleb128 0x10
 10928 09a6 B6000000 		.4byte	.LVL332
 10929 09aa 8C320000 		.4byte	0x328c
 10930 09ae B8090000 		.4byte	0x9b8
 10931 09b2 11       		.uleb128 0x11
 10932 09b3 01       		.uleb128 0x1
 10933 09b4 50       		.byte	0x50
 10934 09b5 01       		.uleb128 0x1
 10935 09b6 3A       		.byte	0x3a
 10936 09b7 00       		.byte	0
 10937 09b8 10       		.uleb128 0x10
 10938 09b9 BC000000 		.4byte	.LVL333
 10939 09bd 8E030000 		.4byte	0x38e
 10940 09c1 CC090000 		.4byte	0x9cc
 10941 09c5 11       		.uleb128 0x11
 10942 09c6 01       		.uleb128 0x1
 10943 09c7 50       		.byte	0x50
 10944 09c8 02       		.uleb128 0x2
 10945 09c9 77       		.byte	0x77
 10946 09ca 00       		.sleb128 0
 10947 09cb 00       		.byte	0
 10948 09cc 10       		.uleb128 0x10
 10949 09cd C2000000 		.4byte	.LVL334
 10950 09d1 8E030000 		.4byte	0x38e
 10951 09d5 E0090000 		.4byte	0x9e0
 10952 09d9 11       		.uleb128 0x11
 10953 09da 01       		.uleb128 0x1
 10954 09db 50       		.byte	0x50
 10955 09dc 02       		.uleb128 0x2
 10956 09dd 76       		.byte	0x76
 10957 09de 00       		.sleb128 0
 10958 09df 00       		.byte	0
 10959 09e0 10       		.uleb128 0x10
 10960 09e1 C8000000 		.4byte	.LVL335
 10961 09e5 97320000 		.4byte	0x3297
 10962 09e9 F4090000 		.4byte	0x9f4
 10963 09ed 11       		.uleb128 0x11
 10964 09ee 01       		.uleb128 0x1
ARM GAS  C:\Users\JPELEC~1\AppData\Local\Temp\ccEetrge.s 			page 242


 10965 09ef 50       		.byte	0x50
 10966 09f0 02       		.uleb128 0x2
 10967 09f1 75       		.byte	0x75
 10968 09f2 00       		.sleb128 0
 10969 09f3 00       		.byte	0
 10970 09f4 13       		.uleb128 0x13
 10971 09f5 CC000000 		.4byte	.LVL336
 10972 09f9 A2320000 		.4byte	0x32a2
 10973 09fd 10       		.uleb128 0x10
 10974 09fe D2000000 		.4byte	.LVL337
 10975 0a02 97320000 		.4byte	0x3297
 10976 0a06 110A0000 		.4byte	0xa11
 10977 0a0a 11       		.uleb128 0x11
 10978 0a0b 01       		.uleb128 0x1
 10979 0a0c 50       		.byte	0x50
 10980 0a0d 02       		.uleb128 0x2
 10981 0a0e 74       		.byte	0x74
 10982 0a0f 00       		.sleb128 0
 10983 0a10 00       		.byte	0
 10984 0a11 10       		.uleb128 0x10
 10985 0a12 14010000 		.4byte	.LVL341
 10986 0a16 D0020000 		.4byte	0x2d0
 10987 0a1a 280A0000 		.4byte	0xa28
 10988 0a1e 11       		.uleb128 0x11
 10989 0a1f 01       		.uleb128 0x1
 10990 0a20 50       		.byte	0x50
 10991 0a21 05       		.uleb128 0x5
 10992 0a22 03       		.byte	0x3
 10993 0a23 88000000 		.4byte	.LC8
 10994 0a27 00       		.byte	0
 10995 0a28 10       		.uleb128 0x10
 10996 0a29 36010000 		.4byte	.LVL345
 10997 0a2d 58310000 		.4byte	0x3158
 10998 0a31 450A0000 		.4byte	0xa45
 10999 0a35 11       		.uleb128 0x11
 11000 0a36 01       		.uleb128 0x1
 11001 0a37 50       		.byte	0x50
 11002 0a38 02       		.uleb128 0x2
 11003 0a39 74       		.byte	0x74
 11004 0a3a 00       		.sleb128 0
 11005 0a3b 11       		.uleb128 0x11
 11006 0a3c 01       		.uleb128 0x1
 11007 0a3d 51       		.byte	0x51
 11008 0a3e 05       		.uleb128 0x5
 11009 0a3f 03       		.byte	0x3
 11010 0a40 90000000 		.4byte	.LC9
 11011 0a44 00       		.byte	0
 11012 0a45 10       		.uleb128 0x10
 11013 0a46 3C010000 		.4byte	.LVL346
 11014 0a4a D0020000 		.4byte	0x2d0
 11015 0a4e 590A0000 		.4byte	0xa59
 11016 0a52 11       		.uleb128 0x11
 11017 0a53 01       		.uleb128 0x1
 11018 0a54 50       		.byte	0x50
 11019 0a55 02       		.uleb128 0x2
 11020 0a56 74       		.byte	0x74
 11021 0a57 00       		.sleb128 0
ARM GAS  C:\Users\JPELEC~1\AppData\Local\Temp\ccEetrge.s 			page 243


 11022 0a58 00       		.byte	0
 11023 0a59 13       		.uleb128 0x13
 11024 0a5a 5A010000 		.4byte	.LVL347
 11025 0a5e B5070000 		.4byte	0x7b5
 11026 0a62 10       		.uleb128 0x10
 11027 0a63 6E010000 		.4byte	.LVL349
 11028 0a67 AD320000 		.4byte	0x32ad
 11029 0a6b 770A0000 		.4byte	0xa77
 11030 0a6f 11       		.uleb128 0x11
 11031 0a70 01       		.uleb128 0x1
 11032 0a71 50       		.byte	0x50
 11033 0a72 03       		.uleb128 0x3
 11034 0a73 F5       		.byte	0xf5
 11035 0a74 07       		.uleb128 0x7
 11036 0a75 25       		.uleb128 0x25
 11037 0a76 00       		.byte	0
 11038 0a77 10       		.uleb128 0x10
 11039 0a78 84010000 		.4byte	.LVL350
 11040 0a7c B8320000 		.4byte	0x32b8
 11041 0a80 9D0A0000 		.4byte	0xa9d
 11042 0a84 11       		.uleb128 0x11
 11043 0a85 01       		.uleb128 0x1
 11044 0a86 50       		.byte	0x50
 11045 0a87 02       		.uleb128 0x2
 11046 0a88 09       		.byte	0x9
 11047 0a89 B0       		.byte	0xb0
 11048 0a8a 11       		.uleb128 0x11
 11049 0a8b 01       		.uleb128 0x1
 11050 0a8c 51       		.byte	0x51
 11051 0a8d 02       		.uleb128 0x2
 11052 0a8e 74       		.byte	0x74
 11053 0a8f 00       		.sleb128 0
 11054 0a90 11       		.uleb128 0x11
 11055 0a91 01       		.uleb128 0x1
 11056 0a92 52       		.byte	0x52
 11057 0a93 02       		.uleb128 0x2
 11058 0a94 75       		.byte	0x75
 11059 0a95 00       		.sleb128 0
 11060 0a96 11       		.uleb128 0x11
 11061 0a97 01       		.uleb128 0x1
 11062 0a98 53       		.byte	0x53
 11063 0a99 02       		.uleb128 0x2
 11064 0a9a 76       		.byte	0x76
 11065 0a9b 00       		.sleb128 0
 11066 0a9c 00       		.byte	0
 11067 0a9d 10       		.uleb128 0x10
 11068 0a9e B6010000 		.4byte	.LVL352
 11069 0aa2 58310000 		.4byte	0x3158
 11070 0aa6 BD0A0000 		.4byte	0xabd
 11071 0aaa 11       		.uleb128 0x11
 11072 0aab 01       		.uleb128 0x1
 11073 0aac 50       		.byte	0x50
 11074 0aad 05       		.uleb128 0x5
 11075 0aae 03       		.byte	0x3
 11076 0aaf 00000000 		.4byte	displayStr
 11077 0ab3 11       		.uleb128 0x11
 11078 0ab4 01       		.uleb128 0x1
ARM GAS  C:\Users\JPELEC~1\AppData\Local\Temp\ccEetrge.s 			page 244


 11079 0ab5 51       		.byte	0x51
 11080 0ab6 05       		.uleb128 0x5
 11081 0ab7 03       		.byte	0x3
 11082 0ab8 A8000000 		.4byte	.LC11
 11083 0abc 00       		.byte	0
 11084 0abd 10       		.uleb128 0x10
 11085 0abe BC010000 		.4byte	.LVL353
 11086 0ac2 C3320000 		.4byte	0x32c3
 11087 0ac6 D40A0000 		.4byte	0xad4
 11088 0aca 11       		.uleb128 0x11
 11089 0acb 01       		.uleb128 0x1
 11090 0acc 50       		.byte	0x50
 11091 0acd 05       		.uleb128 0x5
 11092 0ace 03       		.byte	0x3
 11093 0acf 00000000 		.4byte	displayStr
 11094 0ad3 00       		.byte	0
 11095 0ad4 10       		.uleb128 0x10
 11096 0ad5 D8010000 		.4byte	.LVL354
 11097 0ad9 CE320000 		.4byte	0x32ce
 11098 0add E80A0000 		.4byte	0xae8
 11099 0ae1 11       		.uleb128 0x11
 11100 0ae2 01       		.uleb128 0x1
 11101 0ae3 50       		.byte	0x50
 11102 0ae4 02       		.uleb128 0x2
 11103 0ae5 76       		.byte	0x76
 11104 0ae6 00       		.sleb128 0
 11105 0ae7 00       		.byte	0
 11106 0ae8 10       		.uleb128 0x10
 11107 0ae9 E8010000 		.4byte	.LVL355
 11108 0aed CE320000 		.4byte	0x32ce
 11109 0af1 FC0A0000 		.4byte	0xafc
 11110 0af5 11       		.uleb128 0x11
 11111 0af6 01       		.uleb128 0x1
 11112 0af7 50       		.byte	0x50
 11113 0af8 02       		.uleb128 0x2
 11114 0af9 75       		.byte	0x75
 11115 0afa 00       		.sleb128 0
 11116 0afb 00       		.byte	0
 11117 0afc 13       		.uleb128 0x13
 11118 0afd EC010000 		.4byte	.LVL356
 11119 0b01 07070000 		.4byte	0x707
 11120 0b05 10       		.uleb128 0x10
 11121 0b06 FC010000 		.4byte	.LVL357
 11122 0b0a 8E030000 		.4byte	0x38e
 11123 0b0e 190B0000 		.4byte	0xb19
 11124 0b12 11       		.uleb128 0x11
 11125 0b13 01       		.uleb128 0x1
 11126 0b14 50       		.byte	0x50
 11127 0b15 02       		.uleb128 0x2
 11128 0b16 74       		.byte	0x74
 11129 0b17 00       		.sleb128 0
 11130 0b18 00       		.byte	0
 11131 0b19 10       		.uleb128 0x10
 11132 0b1a 02020000 		.4byte	.LVL358
 11133 0b1e D0020000 		.4byte	0x2d0
 11134 0b22 2D0B0000 		.4byte	0xb2d
 11135 0b26 11       		.uleb128 0x11
ARM GAS  C:\Users\JPELEC~1\AppData\Local\Temp\ccEetrge.s 			page 245


 11136 0b27 01       		.uleb128 0x1
 11137 0b28 50       		.byte	0x50
 11138 0b29 02       		.uleb128 0x2
 11139 0b2a 74       		.byte	0x74
 11140 0b2b 00       		.sleb128 0
 11141 0b2c 00       		.byte	0
 11142 0b2d 10       		.uleb128 0x10
 11143 0b2e 0A020000 		.4byte	.LVL359
 11144 0b32 8C320000 		.4byte	0x328c
 11145 0b36 420B0000 		.4byte	0xb42
 11146 0b3a 11       		.uleb128 0x11
 11147 0b3b 01       		.uleb128 0x1
 11148 0b3c 50       		.byte	0x50
 11149 0b3d 03       		.uleb128 0x3
 11150 0b3e 0A       		.byte	0xa
 11151 0b3f DC05     		.2byte	0x5dc
 11152 0b41 00       		.byte	0
 11153 0b42 10       		.uleb128 0x10
 11154 0b43 10020000 		.4byte	.LVL360
 11155 0b47 8E030000 		.4byte	0x38e
 11156 0b4b 590B0000 		.4byte	0xb59
 11157 0b4f 11       		.uleb128 0x11
 11158 0b50 01       		.uleb128 0x1
 11159 0b51 50       		.byte	0x50
 11160 0b52 05       		.uleb128 0x5
 11161 0b53 03       		.byte	0x3
 11162 0b54 B4000000 		.4byte	.LC12
 11163 0b58 00       		.byte	0
 11164 0b59 10       		.uleb128 0x10
 11165 0b5a 34020000 		.4byte	.LVL361
 11166 0b5e 8E030000 		.4byte	0x38e
 11167 0b62 700B0000 		.4byte	0xb70
 11168 0b66 11       		.uleb128 0x11
 11169 0b67 01       		.uleb128 0x1
 11170 0b68 50       		.byte	0x50
 11171 0b69 05       		.uleb128 0x5
 11172 0b6a 03       		.byte	0x3
 11173 0b6b C0000000 		.4byte	.LC13
 11174 0b6f 00       		.byte	0
 11175 0b70 10       		.uleb128 0x10
 11176 0b71 42020000 		.4byte	.LVL362
 11177 0b75 8E030000 		.4byte	0x38e
 11178 0b79 870B0000 		.4byte	0xb87
 11179 0b7d 11       		.uleb128 0x11
 11180 0b7e 01       		.uleb128 0x1
 11181 0b7f 50       		.byte	0x50
 11182 0b80 05       		.uleb128 0x5
 11183 0b81 03       		.byte	0x3
 11184 0b82 D0000000 		.4byte	.LC14
 11185 0b86 00       		.byte	0
 11186 0b87 10       		.uleb128 0x10
 11187 0b88 48020000 		.4byte	.LVL363
 11188 0b8c 8E030000 		.4byte	0x38e
 11189 0b90 9E0B0000 		.4byte	0xb9e
 11190 0b94 11       		.uleb128 0x11
 11191 0b95 01       		.uleb128 0x1
 11192 0b96 50       		.byte	0x50
ARM GAS  C:\Users\JPELEC~1\AppData\Local\Temp\ccEetrge.s 			page 246


 11193 0b97 05       		.uleb128 0x5
 11194 0b98 03       		.byte	0x3
 11195 0b99 EC000000 		.4byte	.LC15
 11196 0b9d 00       		.byte	0
 11197 0b9e 10       		.uleb128 0x10
 11198 0b9f 54020000 		.4byte	.LVL364
 11199 0ba3 8E030000 		.4byte	0x38e
 11200 0ba7 B50B0000 		.4byte	0xbb5
 11201 0bab 11       		.uleb128 0x11
 11202 0bac 01       		.uleb128 0x1
 11203 0bad 50       		.byte	0x50
 11204 0bae 05       		.uleb128 0x5
 11205 0baf 03       		.byte	0x3
 11206 0bb0 F8000000 		.4byte	.LC16
 11207 0bb4 00       		.byte	0
 11208 0bb5 10       		.uleb128 0x10
 11209 0bb6 5A020000 		.4byte	.LVL365
 11210 0bba 8E030000 		.4byte	0x38e
 11211 0bbe CC0B0000 		.4byte	0xbcc
 11212 0bc2 11       		.uleb128 0x11
 11213 0bc3 01       		.uleb128 0x1
 11214 0bc4 50       		.byte	0x50
 11215 0bc5 05       		.uleb128 0x5
 11216 0bc6 03       		.byte	0x3
 11217 0bc7 EC000000 		.4byte	.LC15
 11218 0bcb 00       		.byte	0
 11219 0bcc 10       		.uleb128 0x10
 11220 0bcd 6A020000 		.4byte	.LVL366
 11221 0bd1 8E030000 		.4byte	0x38e
 11222 0bd5 E30B0000 		.4byte	0xbe3
 11223 0bd9 11       		.uleb128 0x11
 11224 0bda 01       		.uleb128 0x1
 11225 0bdb 50       		.byte	0x50
 11226 0bdc 05       		.uleb128 0x5
 11227 0bdd 03       		.byte	0x3
 11228 0bde 14010000 		.4byte	.LC17
 11229 0be2 00       		.byte	0
 11230 0be3 10       		.uleb128 0x10
 11231 0be4 70020000 		.4byte	.LVL367
 11232 0be8 8E030000 		.4byte	0x38e
 11233 0bec FA0B0000 		.4byte	0xbfa
 11234 0bf0 11       		.uleb128 0x11
 11235 0bf1 01       		.uleb128 0x1
 11236 0bf2 50       		.byte	0x50
 11237 0bf3 05       		.uleb128 0x5
 11238 0bf4 03       		.byte	0x3
 11239 0bf5 EC000000 		.4byte	.LC15
 11240 0bf9 00       		.byte	0
 11241 0bfa 10       		.uleb128 0x10
 11242 0bfb 48030000 		.4byte	.LVL368
 11243 0bff 8E030000 		.4byte	0x38e
 11244 0c03 0E0C0000 		.4byte	0xc0e
 11245 0c07 11       		.uleb128 0x11
 11246 0c08 01       		.uleb128 0x1
 11247 0c09 50       		.byte	0x50
 11248 0c0a 02       		.uleb128 0x2
 11249 0c0b 75       		.byte	0x75
ARM GAS  C:\Users\JPELEC~1\AppData\Local\Temp\ccEetrge.s 			page 247


 11250 0c0c 00       		.sleb128 0
 11251 0c0d 00       		.byte	0
 11252 0c0e 10       		.uleb128 0x10
 11253 0c0f A2030000 		.4byte	.LVL369
 11254 0c13 D9320000 		.4byte	0x32d9
 11255 0c17 260C0000 		.4byte	0xc26
 11256 0c1b 11       		.uleb128 0x11
 11257 0c1c 01       		.uleb128 0x1
 11258 0c1d 50       		.byte	0x50
 11259 0c1e 01       		.uleb128 0x1
 11260 0c1f 30       		.byte	0x30
 11261 0c20 11       		.uleb128 0x11
 11262 0c21 01       		.uleb128 0x1
 11263 0c22 51       		.byte	0x51
 11264 0c23 01       		.uleb128 0x1
 11265 0c24 30       		.byte	0x30
 11266 0c25 00       		.byte	0
 11267 0c26 10       		.uleb128 0x10
 11268 0c27 A8030000 		.4byte	.LVL370
 11269 0c2b 8C320000 		.4byte	0x328c
 11270 0c2f 390C0000 		.4byte	0xc39
 11271 0c33 11       		.uleb128 0x11
 11272 0c34 01       		.uleb128 0x1
 11273 0c35 50       		.byte	0x50
 11274 0c36 01       		.uleb128 0x1
 11275 0c37 44       		.byte	0x44
 11276 0c38 00       		.byte	0
 11277 0c39 10       		.uleb128 0x10
 11278 0c3a B0030000 		.4byte	.LVL371
 11279 0c3e D9320000 		.4byte	0x32d9
 11280 0c42 510C0000 		.4byte	0xc51
 11281 0c46 11       		.uleb128 0x11
 11282 0c47 01       		.uleb128 0x1
 11283 0c48 50       		.byte	0x50
 11284 0c49 01       		.uleb128 0x1
 11285 0c4a 30       		.byte	0x30
 11286 0c4b 11       		.uleb128 0x11
 11287 0c4c 01       		.uleb128 0x1
 11288 0c4d 51       		.byte	0x51
 11289 0c4e 01       		.uleb128 0x1
 11290 0c4f 31       		.byte	0x31
 11291 0c50 00       		.byte	0
 11292 0c51 10       		.uleb128 0x10
 11293 0c52 B6030000 		.4byte	.LVL372
 11294 0c56 8C320000 		.4byte	0x328c
 11295 0c5a 640C0000 		.4byte	0xc64
 11296 0c5e 11       		.uleb128 0x11
 11297 0c5f 01       		.uleb128 0x1
 11298 0c60 50       		.byte	0x50
 11299 0c61 01       		.uleb128 0x1
 11300 0c62 44       		.byte	0x44
 11301 0c63 00       		.byte	0
 11302 0c64 10       		.uleb128 0x10
 11303 0c65 BE030000 		.4byte	.LVL373
 11304 0c69 D9320000 		.4byte	0x32d9
 11305 0c6d 7C0C0000 		.4byte	0xc7c
 11306 0c71 11       		.uleb128 0x11
ARM GAS  C:\Users\JPELEC~1\AppData\Local\Temp\ccEetrge.s 			page 248


 11307 0c72 01       		.uleb128 0x1
 11308 0c73 50       		.byte	0x50
 11309 0c74 01       		.uleb128 0x1
 11310 0c75 30       		.byte	0x30
 11311 0c76 11       		.uleb128 0x11
 11312 0c77 01       		.uleb128 0x1
 11313 0c78 51       		.byte	0x51
 11314 0c79 01       		.uleb128 0x1
 11315 0c7a 32       		.byte	0x32
 11316 0c7b 00       		.byte	0
 11317 0c7c 10       		.uleb128 0x10
 11318 0c7d C4030000 		.4byte	.LVL374
 11319 0c81 8C320000 		.4byte	0x328c
 11320 0c85 8F0C0000 		.4byte	0xc8f
 11321 0c89 11       		.uleb128 0x11
 11322 0c8a 01       		.uleb128 0x1
 11323 0c8b 50       		.byte	0x50
 11324 0c8c 01       		.uleb128 0x1
 11325 0c8d 44       		.byte	0x44
 11326 0c8e 00       		.byte	0
 11327 0c8f 10       		.uleb128 0x10
 11328 0c90 CC030000 		.4byte	.LVL375
 11329 0c94 D9320000 		.4byte	0x32d9
 11330 0c98 A70C0000 		.4byte	0xca7
 11331 0c9c 11       		.uleb128 0x11
 11332 0c9d 01       		.uleb128 0x1
 11333 0c9e 50       		.byte	0x50
 11334 0c9f 01       		.uleb128 0x1
 11335 0ca0 30       		.byte	0x30
 11336 0ca1 11       		.uleb128 0x11
 11337 0ca2 01       		.uleb128 0x1
 11338 0ca3 51       		.byte	0x51
 11339 0ca4 01       		.uleb128 0x1
 11340 0ca5 33       		.byte	0x33
 11341 0ca6 00       		.byte	0
 11342 0ca7 10       		.uleb128 0x10
 11343 0ca8 D2030000 		.4byte	.LVL376
 11344 0cac 8C320000 		.4byte	0x328c
 11345 0cb0 BA0C0000 		.4byte	0xcba
 11346 0cb4 11       		.uleb128 0x11
 11347 0cb5 01       		.uleb128 0x1
 11348 0cb6 50       		.byte	0x50
 11349 0cb7 01       		.uleb128 0x1
 11350 0cb8 44       		.byte	0x44
 11351 0cb9 00       		.byte	0
 11352 0cba 13       		.uleb128 0x13
 11353 0cbb D6030000 		.4byte	.LVL377
 11354 0cbf E4320000 		.4byte	0x32e4
 11355 0cc3 10       		.uleb128 0x10
 11356 0cc4 44040000 		.4byte	.LVL378
 11357 0cc8 8E030000 		.4byte	0x38e
 11358 0ccc DA0C0000 		.4byte	0xcda
 11359 0cd0 11       		.uleb128 0x11
 11360 0cd1 01       		.uleb128 0x1
 11361 0cd2 50       		.byte	0x50
 11362 0cd3 05       		.uleb128 0x5
 11363 0cd4 03       		.byte	0x3
ARM GAS  C:\Users\JPELEC~1\AppData\Local\Temp\ccEetrge.s 			page 249


 11364 0cd5 4C010000 		.4byte	.LC19
 11365 0cd9 00       		.byte	0
 11366 0cda 10       		.uleb128 0x10
 11367 0cdb 52040000 		.4byte	.LVL379
 11368 0cdf 8E030000 		.4byte	0x38e
 11369 0ce3 F10C0000 		.4byte	0xcf1
 11370 0ce7 11       		.uleb128 0x11
 11371 0ce8 01       		.uleb128 0x1
 11372 0ce9 50       		.byte	0x50
 11373 0cea 05       		.uleb128 0x5
 11374 0ceb 03       		.byte	0x3
 11375 0cec 60010000 		.4byte	.LC20
 11376 0cf0 00       		.byte	0
 11377 0cf1 10       		.uleb128 0x10
 11378 0cf2 AC040000 		.4byte	.LVL380
 11379 0cf6 8E030000 		.4byte	0x38e
 11380 0cfa 080D0000 		.4byte	0xd08
 11381 0cfe 11       		.uleb128 0x11
 11382 0cff 01       		.uleb128 0x1
 11383 0d00 50       		.byte	0x50
 11384 0d01 05       		.uleb128 0x5
 11385 0d02 03       		.byte	0x3
 11386 0d03 70010000 		.4byte	.LC21
 11387 0d07 00       		.byte	0
 11388 0d08 10       		.uleb128 0x10
 11389 0d09 B4040000 		.4byte	.LVL381
 11390 0d0d 8E030000 		.4byte	0x38e
 11391 0d11 1F0D0000 		.4byte	0xd1f
 11392 0d15 11       		.uleb128 0x11
 11393 0d16 01       		.uleb128 0x1
 11394 0d17 50       		.byte	0x50
 11395 0d18 05       		.uleb128 0x5
 11396 0d19 03       		.byte	0x3
 11397 0d1a 7C010000 		.4byte	.LC22
 11398 0d1e 00       		.byte	0
 11399 0d1f 10       		.uleb128 0x10
 11400 0d20 24050000 		.4byte	.LVL382
 11401 0d24 8E030000 		.4byte	0x38e
 11402 0d28 360D0000 		.4byte	0xd36
 11403 0d2c 11       		.uleb128 0x11
 11404 0d2d 01       		.uleb128 0x1
 11405 0d2e 50       		.byte	0x50
 11406 0d2f 05       		.uleb128 0x5
 11407 0d30 03       		.byte	0x3
 11408 0d31 B4000000 		.4byte	.LC12
 11409 0d35 00       		.byte	0
 11410 0d36 10       		.uleb128 0x10
 11411 0d37 2A050000 		.4byte	.LVL383
 11412 0d3b 8E030000 		.4byte	0x38e
 11413 0d3f 4D0D0000 		.4byte	0xd4d
 11414 0d43 11       		.uleb128 0x11
 11415 0d44 01       		.uleb128 0x1
 11416 0d45 50       		.byte	0x50
 11417 0d46 05       		.uleb128 0x5
 11418 0d47 03       		.byte	0x3
 11419 0d48 D0000000 		.4byte	.LC14
 11420 0d4c 00       		.byte	0
ARM GAS  C:\Users\JPELEC~1\AppData\Local\Temp\ccEetrge.s 			page 250


 11421 0d4d 10       		.uleb128 0x10
 11422 0d4e 42050000 		.4byte	.LVL384
 11423 0d52 8E030000 		.4byte	0x38e
 11424 0d56 640D0000 		.4byte	0xd64
 11425 0d5a 11       		.uleb128 0x11
 11426 0d5b 01       		.uleb128 0x1
 11427 0d5c 50       		.byte	0x50
 11428 0d5d 05       		.uleb128 0x5
 11429 0d5e 03       		.byte	0x3
 11430 0d5f 7C010000 		.4byte	.LC22
 11431 0d63 00       		.byte	0
 11432 0d64 10       		.uleb128 0x10
 11433 0d65 4E050000 		.4byte	.LVL385
 11434 0d69 8E030000 		.4byte	0x38e
 11435 0d6d 7B0D0000 		.4byte	0xd7b
 11436 0d71 11       		.uleb128 0x11
 11437 0d72 01       		.uleb128 0x1
 11438 0d73 50       		.byte	0x50
 11439 0d74 05       		.uleb128 0x5
 11440 0d75 03       		.byte	0x3
 11441 0d76 D0000000 		.4byte	.LC14
 11442 0d7a 00       		.byte	0
 11443 0d7b 10       		.uleb128 0x10
 11444 0d7c 54050000 		.4byte	.LVL386
 11445 0d80 8E030000 		.4byte	0x38e
 11446 0d84 920D0000 		.4byte	0xd92
 11447 0d88 11       		.uleb128 0x11
 11448 0d89 01       		.uleb128 0x1
 11449 0d8a 50       		.byte	0x50
 11450 0d8b 05       		.uleb128 0x5
 11451 0d8c 03       		.byte	0x3
 11452 0d8d 7C010000 		.4byte	.LC22
 11453 0d91 00       		.byte	0
 11454 0d92 10       		.uleb128 0x10
 11455 0d93 6A050000 		.4byte	.LVL387
 11456 0d97 D9320000 		.4byte	0x32d9
 11457 0d9b A50D0000 		.4byte	0xda5
 11458 0d9f 11       		.uleb128 0x11
 11459 0da0 01       		.uleb128 0x1
 11460 0da1 51       		.byte	0x51
 11461 0da2 01       		.uleb128 0x1
 11462 0da3 30       		.byte	0x30
 11463 0da4 00       		.byte	0
 11464 0da5 10       		.uleb128 0x10
 11465 0da6 70050000 		.4byte	.LVL388
 11466 0daa 8C320000 		.4byte	0x328c
 11467 0dae B80D0000 		.4byte	0xdb8
 11468 0db2 11       		.uleb128 0x11
 11469 0db3 01       		.uleb128 0x1
 11470 0db4 50       		.byte	0x50
 11471 0db5 01       		.uleb128 0x1
 11472 0db6 44       		.byte	0x44
 11473 0db7 00       		.byte	0
 11474 0db8 10       		.uleb128 0x10
 11475 0db9 7C050000 		.4byte	.LVL389
 11476 0dbd D9320000 		.4byte	0x32d9
 11477 0dc1 CB0D0000 		.4byte	0xdcb
ARM GAS  C:\Users\JPELEC~1\AppData\Local\Temp\ccEetrge.s 			page 251


 11478 0dc5 11       		.uleb128 0x11
 11479 0dc6 01       		.uleb128 0x1
 11480 0dc7 51       		.byte	0x51
 11481 0dc8 01       		.uleb128 0x1
 11482 0dc9 31       		.byte	0x31
 11483 0dca 00       		.byte	0
 11484 0dcb 10       		.uleb128 0x10
 11485 0dcc 82050000 		.4byte	.LVL390
 11486 0dd0 8C320000 		.4byte	0x328c
 11487 0dd4 DE0D0000 		.4byte	0xdde
 11488 0dd8 11       		.uleb128 0x11
 11489 0dd9 01       		.uleb128 0x1
 11490 0dda 50       		.byte	0x50
 11491 0ddb 01       		.uleb128 0x1
 11492 0ddc 44       		.byte	0x44
 11493 0ddd 00       		.byte	0
 11494 0dde 10       		.uleb128 0x10
 11495 0ddf 8E050000 		.4byte	.LVL391
 11496 0de3 D9320000 		.4byte	0x32d9
 11497 0de7 F10D0000 		.4byte	0xdf1
 11498 0deb 11       		.uleb128 0x11
 11499 0dec 01       		.uleb128 0x1
 11500 0ded 51       		.byte	0x51
 11501 0dee 01       		.uleb128 0x1
 11502 0def 32       		.byte	0x32
 11503 0df0 00       		.byte	0
 11504 0df1 10       		.uleb128 0x10
 11505 0df2 94050000 		.4byte	.LVL392
 11506 0df6 8C320000 		.4byte	0x328c
 11507 0dfa 040E0000 		.4byte	0xe04
 11508 0dfe 11       		.uleb128 0x11
 11509 0dff 01       		.uleb128 0x1
 11510 0e00 50       		.byte	0x50
 11511 0e01 01       		.uleb128 0x1
 11512 0e02 44       		.byte	0x44
 11513 0e03 00       		.byte	0
 11514 0e04 10       		.uleb128 0x10
 11515 0e05 A0050000 		.4byte	.LVL393
 11516 0e09 D9320000 		.4byte	0x32d9
 11517 0e0d 170E0000 		.4byte	0xe17
 11518 0e11 11       		.uleb128 0x11
 11519 0e12 01       		.uleb128 0x1
 11520 0e13 51       		.byte	0x51
 11521 0e14 01       		.uleb128 0x1
 11522 0e15 33       		.byte	0x33
 11523 0e16 00       		.byte	0
 11524 0e17 10       		.uleb128 0x10
 11525 0e18 A6050000 		.4byte	.LVL394
 11526 0e1c 8C320000 		.4byte	0x328c
 11527 0e20 2A0E0000 		.4byte	0xe2a
 11528 0e24 11       		.uleb128 0x11
 11529 0e25 01       		.uleb128 0x1
 11530 0e26 50       		.byte	0x50
 11531 0e27 01       		.uleb128 0x1
 11532 0e28 44       		.byte	0x44
 11533 0e29 00       		.byte	0
 11534 0e2a 10       		.uleb128 0x10
ARM GAS  C:\Users\JPELEC~1\AppData\Local\Temp\ccEetrge.s 			page 252


 11535 0e2b F4050000 		.4byte	.LVL395
 11536 0e2f 8E030000 		.4byte	0x38e
 11537 0e33 410E0000 		.4byte	0xe41
 11538 0e37 11       		.uleb128 0x11
 11539 0e38 01       		.uleb128 0x1
 11540 0e39 50       		.byte	0x50
 11541 0e3a 05       		.uleb128 0x5
 11542 0e3b 03       		.byte	0x3
 11543 0e3c 90010000 		.4byte	.LC23
 11544 0e40 00       		.byte	0
 11545 0e41 10       		.uleb128 0x10
 11546 0e42 3A060000 		.4byte	.LVL396
 11547 0e46 8E030000 		.4byte	0x38e
 11548 0e4a 580E0000 		.4byte	0xe58
 11549 0e4e 11       		.uleb128 0x11
 11550 0e4f 01       		.uleb128 0x1
 11551 0e50 50       		.byte	0x50
 11552 0e51 05       		.uleb128 0x5
 11553 0e52 03       		.byte	0x3
 11554 0e53 7C010000 		.4byte	.LC22
 11555 0e57 00       		.byte	0
 11556 0e58 10       		.uleb128 0x10
 11557 0e59 60060000 		.4byte	.LVL397
 11558 0e5d 8C320000 		.4byte	0x328c
 11559 0e61 6B0E0000 		.4byte	0xe6b
 11560 0e65 11       		.uleb128 0x11
 11561 0e66 01       		.uleb128 0x1
 11562 0e67 50       		.byte	0x50
 11563 0e68 01       		.uleb128 0x1
 11564 0e69 35       		.byte	0x35
 11565 0e6a 00       		.byte	0
 11566 0e6b 10       		.uleb128 0x10
 11567 0e6c 78060000 		.4byte	.LVL398
 11568 0e70 8E030000 		.4byte	0x38e
 11569 0e74 820E0000 		.4byte	0xe82
 11570 0e78 11       		.uleb128 0x11
 11571 0e79 01       		.uleb128 0x1
 11572 0e7a 50       		.byte	0x50
 11573 0e7b 05       		.uleb128 0x5
 11574 0e7c 03       		.byte	0x3
 11575 0e7d B4000000 		.4byte	.LC12
 11576 0e81 00       		.byte	0
 11577 0e82 10       		.uleb128 0x10
 11578 0e83 A2060000 		.4byte	.LVL399
 11579 0e87 8E030000 		.4byte	0x38e
 11580 0e8b 990E0000 		.4byte	0xe99
 11581 0e8f 11       		.uleb128 0x11
 11582 0e90 01       		.uleb128 0x1
 11583 0e91 50       		.byte	0x50
 11584 0e92 05       		.uleb128 0x5
 11585 0e93 03       		.byte	0x3
 11586 0e94 B4000000 		.4byte	.LC12
 11587 0e98 00       		.byte	0
 11588 0e99 10       		.uleb128 0x10
 11589 0e9a CA060000 		.4byte	.LVL400
 11590 0e9e 8E030000 		.4byte	0x38e
 11591 0ea2 B00E0000 		.4byte	0xeb0
ARM GAS  C:\Users\JPELEC~1\AppData\Local\Temp\ccEetrge.s 			page 253


 11592 0ea6 11       		.uleb128 0x11
 11593 0ea7 01       		.uleb128 0x1
 11594 0ea8 50       		.byte	0x50
 11595 0ea9 05       		.uleb128 0x5
 11596 0eaa 03       		.byte	0x3
 11597 0eab 90010000 		.4byte	.LC23
 11598 0eaf 00       		.byte	0
 11599 0eb0 10       		.uleb128 0x10
 11600 0eb1 E4060000 		.4byte	.LVL401
 11601 0eb5 8E030000 		.4byte	0x38e
 11602 0eb9 C70E0000 		.4byte	0xec7
 11603 0ebd 11       		.uleb128 0x11
 11604 0ebe 01       		.uleb128 0x1
 11605 0ebf 50       		.byte	0x50
 11606 0ec0 05       		.uleb128 0x5
 11607 0ec1 03       		.byte	0x3
 11608 0ec2 9C010000 		.4byte	.LC24
 11609 0ec6 00       		.byte	0
 11610 0ec7 10       		.uleb128 0x10
 11611 0ec8 FE060000 		.4byte	.LVL402
 11612 0ecc 8E030000 		.4byte	0x38e
 11613 0ed0 DE0E0000 		.4byte	0xede
 11614 0ed4 11       		.uleb128 0x11
 11615 0ed5 01       		.uleb128 0x1
 11616 0ed6 50       		.byte	0x50
 11617 0ed7 05       		.uleb128 0x5
 11618 0ed8 03       		.byte	0x3
 11619 0ed9 9C010000 		.4byte	.LC24
 11620 0edd 00       		.byte	0
 11621 0ede 10       		.uleb128 0x10
 11622 0edf 16070000 		.4byte	.LVL403
 11623 0ee3 8E030000 		.4byte	0x38e
 11624 0ee7 F50E0000 		.4byte	0xef5
 11625 0eeb 11       		.uleb128 0x11
 11626 0eec 01       		.uleb128 0x1
 11627 0eed 50       		.byte	0x50
 11628 0eee 05       		.uleb128 0x5
 11629 0eef 03       		.byte	0x3
 11630 0ef0 9C010000 		.4byte	.LC24
 11631 0ef4 00       		.byte	0
 11632 0ef5 10       		.uleb128 0x10
 11633 0ef6 2E070000 		.4byte	.LVL404
 11634 0efa 8E030000 		.4byte	0x38e
 11635 0efe 0C0F0000 		.4byte	0xf0c
 11636 0f02 11       		.uleb128 0x11
 11637 0f03 01       		.uleb128 0x1
 11638 0f04 50       		.byte	0x50
 11639 0f05 05       		.uleb128 0x5
 11640 0f06 03       		.byte	0x3
 11641 0f07 9C010000 		.4byte	.LC24
 11642 0f0b 00       		.byte	0
 11643 0f0c 10       		.uleb128 0x10
 11644 0f0d 4A070000 		.4byte	.LVL405
 11645 0f11 8E030000 		.4byte	0x38e
 11646 0f15 230F0000 		.4byte	0xf23
 11647 0f19 11       		.uleb128 0x11
 11648 0f1a 01       		.uleb128 0x1
ARM GAS  C:\Users\JPELEC~1\AppData\Local\Temp\ccEetrge.s 			page 254


 11649 0f1b 50       		.byte	0x50
 11650 0f1c 05       		.uleb128 0x5
 11651 0f1d 03       		.byte	0x3
 11652 0f1e 9C010000 		.4byte	.LC24
 11653 0f22 00       		.byte	0
 11654 0f23 10       		.uleb128 0x10
 11655 0f24 8E070000 		.4byte	.LVL406
 11656 0f28 58310000 		.4byte	0x3158
 11657 0f2c 400F0000 		.4byte	0xf40
 11658 0f30 11       		.uleb128 0x11
 11659 0f31 01       		.uleb128 0x1
 11660 0f32 50       		.byte	0x50
 11661 0f33 02       		.uleb128 0x2
 11662 0f34 74       		.byte	0x74
 11663 0f35 00       		.sleb128 0
 11664 0f36 11       		.uleb128 0x11
 11665 0f37 01       		.uleb128 0x1
 11666 0f38 51       		.byte	0x51
 11667 0f39 05       		.uleb128 0x5
 11668 0f3a 03       		.byte	0x3
 11669 0f3b A8010000 		.4byte	.LC25
 11670 0f3f 00       		.byte	0
 11671 0f40 10       		.uleb128 0x10
 11672 0f41 94070000 		.4byte	.LVL407
 11673 0f45 8E030000 		.4byte	0x38e
 11674 0f49 540F0000 		.4byte	0xf54
 11675 0f4d 11       		.uleb128 0x11
 11676 0f4e 01       		.uleb128 0x1
 11677 0f4f 50       		.byte	0x50
 11678 0f50 02       		.uleb128 0x2
 11679 0f51 74       		.byte	0x74
 11680 0f52 00       		.sleb128 0
 11681 0f53 00       		.byte	0
 11682 0f54 10       		.uleb128 0x10
 11683 0f55 A4070000 		.4byte	.LVL408
 11684 0f59 58310000 		.4byte	0x3158
 11685 0f5d 710F0000 		.4byte	0xf71
 11686 0f61 11       		.uleb128 0x11
 11687 0f62 01       		.uleb128 0x1
 11688 0f63 50       		.byte	0x50
 11689 0f64 02       		.uleb128 0x2
 11690 0f65 74       		.byte	0x74
 11691 0f66 00       		.sleb128 0
 11692 0f67 11       		.uleb128 0x11
 11693 0f68 01       		.uleb128 0x1
 11694 0f69 51       		.byte	0x51
 11695 0f6a 05       		.uleb128 0x5
 11696 0f6b 03       		.byte	0x3
 11697 0f6c B4010000 		.4byte	.LC26
 11698 0f70 00       		.byte	0
 11699 0f71 10       		.uleb128 0x10
 11700 0f72 AA070000 		.4byte	.LVL409
 11701 0f76 8E030000 		.4byte	0x38e
 11702 0f7a 850F0000 		.4byte	0xf85
 11703 0f7e 11       		.uleb128 0x11
 11704 0f7f 01       		.uleb128 0x1
 11705 0f80 50       		.byte	0x50
ARM GAS  C:\Users\JPELEC~1\AppData\Local\Temp\ccEetrge.s 			page 255


 11706 0f81 02       		.uleb128 0x2
 11707 0f82 74       		.byte	0x74
 11708 0f83 00       		.sleb128 0
 11709 0f84 00       		.byte	0
 11710 0f85 10       		.uleb128 0x10
 11711 0f86 B4070000 		.4byte	.LVL410
 11712 0f8a 58310000 		.4byte	0x3158
 11713 0f8e A20F0000 		.4byte	0xfa2
 11714 0f92 11       		.uleb128 0x11
 11715 0f93 01       		.uleb128 0x1
 11716 0f94 50       		.byte	0x50
 11717 0f95 02       		.uleb128 0x2
 11718 0f96 74       		.byte	0x74
 11719 0f97 00       		.sleb128 0
 11720 0f98 11       		.uleb128 0x11
 11721 0f99 01       		.uleb128 0x1
 11722 0f9a 51       		.byte	0x51
 11723 0f9b 05       		.uleb128 0x5
 11724 0f9c 03       		.byte	0x3
 11725 0f9d C0010000 		.4byte	.LC27
 11726 0fa1 00       		.byte	0
 11727 0fa2 10       		.uleb128 0x10
 11728 0fa3 BA070000 		.4byte	.LVL411
 11729 0fa7 8E030000 		.4byte	0x38e
 11730 0fab B60F0000 		.4byte	0xfb6
 11731 0faf 11       		.uleb128 0x11
 11732 0fb0 01       		.uleb128 0x1
 11733 0fb1 50       		.byte	0x50
 11734 0fb2 02       		.uleb128 0x2
 11735 0fb3 74       		.byte	0x74
 11736 0fb4 00       		.sleb128 0
 11737 0fb5 00       		.byte	0
 11738 0fb6 10       		.uleb128 0x10
 11739 0fb7 CA070000 		.4byte	.LVL412
 11740 0fbb 58310000 		.4byte	0x3158
 11741 0fbf D30F0000 		.4byte	0xfd3
 11742 0fc3 11       		.uleb128 0x11
 11743 0fc4 01       		.uleb128 0x1
 11744 0fc5 50       		.byte	0x50
 11745 0fc6 02       		.uleb128 0x2
 11746 0fc7 74       		.byte	0x74
 11747 0fc8 00       		.sleb128 0
 11748 0fc9 11       		.uleb128 0x11
 11749 0fca 01       		.uleb128 0x1
 11750 0fcb 51       		.byte	0x51
 11751 0fcc 05       		.uleb128 0x5
 11752 0fcd 03       		.byte	0x3
 11753 0fce CC010000 		.4byte	.LC28
 11754 0fd2 00       		.byte	0
 11755 0fd3 10       		.uleb128 0x10
 11756 0fd4 D0070000 		.4byte	.LVL413
 11757 0fd8 8E030000 		.4byte	0x38e
 11758 0fdc E70F0000 		.4byte	0xfe7
 11759 0fe0 11       		.uleb128 0x11
 11760 0fe1 01       		.uleb128 0x1
 11761 0fe2 50       		.byte	0x50
 11762 0fe3 02       		.uleb128 0x2
ARM GAS  C:\Users\JPELEC~1\AppData\Local\Temp\ccEetrge.s 			page 256


 11763 0fe4 74       		.byte	0x74
 11764 0fe5 00       		.sleb128 0
 11765 0fe6 00       		.byte	0
 11766 0fe7 10       		.uleb128 0x10
 11767 0fe8 DE070000 		.4byte	.LVL414
 11768 0fec 58310000 		.4byte	0x3158
 11769 0ff0 04100000 		.4byte	0x1004
 11770 0ff4 11       		.uleb128 0x11
 11771 0ff5 01       		.uleb128 0x1
 11772 0ff6 50       		.byte	0x50
 11773 0ff7 02       		.uleb128 0x2
 11774 0ff8 74       		.byte	0x74
 11775 0ff9 00       		.sleb128 0
 11776 0ffa 11       		.uleb128 0x11
 11777 0ffb 01       		.uleb128 0x1
 11778 0ffc 51       		.byte	0x51
 11779 0ffd 05       		.uleb128 0x5
 11780 0ffe 03       		.byte	0x3
 11781 0fff D8010000 		.4byte	.LC29
 11782 1003 00       		.byte	0
 11783 1004 10       		.uleb128 0x10
 11784 1005 E4070000 		.4byte	.LVL415
 11785 1009 8E030000 		.4byte	0x38e
 11786 100d 18100000 		.4byte	0x1018
 11787 1011 11       		.uleb128 0x11
 11788 1012 01       		.uleb128 0x1
 11789 1013 50       		.byte	0x50
 11790 1014 02       		.uleb128 0x2
 11791 1015 74       		.byte	0x74
 11792 1016 00       		.sleb128 0
 11793 1017 00       		.byte	0
 11794 1018 10       		.uleb128 0x10
 11795 1019 EE070000 		.4byte	.LVL416
 11796 101d 58310000 		.4byte	0x3158
 11797 1021 35100000 		.4byte	0x1035
 11798 1025 11       		.uleb128 0x11
 11799 1026 01       		.uleb128 0x1
 11800 1027 50       		.byte	0x50
 11801 1028 02       		.uleb128 0x2
 11802 1029 74       		.byte	0x74
 11803 102a 00       		.sleb128 0
 11804 102b 11       		.uleb128 0x11
 11805 102c 01       		.uleb128 0x1
 11806 102d 51       		.byte	0x51
 11807 102e 05       		.uleb128 0x5
 11808 102f 03       		.byte	0x3
 11809 1030 E4010000 		.4byte	.LC30
 11810 1034 00       		.byte	0
 11811 1035 10       		.uleb128 0x10
 11812 1036 F4070000 		.4byte	.LVL417
 11813 103a 8E030000 		.4byte	0x38e
 11814 103e 49100000 		.4byte	0x1049
 11815 1042 11       		.uleb128 0x11
 11816 1043 01       		.uleb128 0x1
 11817 1044 50       		.byte	0x50
 11818 1045 02       		.uleb128 0x2
 11819 1046 74       		.byte	0x74
ARM GAS  C:\Users\JPELEC~1\AppData\Local\Temp\ccEetrge.s 			page 257


 11820 1047 00       		.sleb128 0
 11821 1048 00       		.byte	0
 11822 1049 10       		.uleb128 0x10
 11823 104a 0A080000 		.4byte	.LVL418
 11824 104e 58310000 		.4byte	0x3158
 11825 1052 66100000 		.4byte	0x1066
 11826 1056 11       		.uleb128 0x11
 11827 1057 01       		.uleb128 0x1
 11828 1058 50       		.byte	0x50
 11829 1059 02       		.uleb128 0x2
 11830 105a 74       		.byte	0x74
 11831 105b 00       		.sleb128 0
 11832 105c 11       		.uleb128 0x11
 11833 105d 01       		.uleb128 0x1
 11834 105e 51       		.byte	0x51
 11835 105f 05       		.uleb128 0x5
 11836 1060 03       		.byte	0x3
 11837 1061 F0010000 		.4byte	.LC31
 11838 1065 00       		.byte	0
 11839 1066 10       		.uleb128 0x10
 11840 1067 10080000 		.4byte	.LVL419
 11841 106b 8E030000 		.4byte	0x38e
 11842 106f 7A100000 		.4byte	0x107a
 11843 1073 11       		.uleb128 0x11
 11844 1074 01       		.uleb128 0x1
 11845 1075 50       		.byte	0x50
 11846 1076 02       		.uleb128 0x2
 11847 1077 74       		.byte	0x74
 11848 1078 00       		.sleb128 0
 11849 1079 00       		.byte	0
 11850 107a 10       		.uleb128 0x10
 11851 107b 28080000 		.4byte	.LVL420
 11852 107f 58310000 		.4byte	0x3158
 11853 1083 97100000 		.4byte	0x1097
 11854 1087 11       		.uleb128 0x11
 11855 1088 01       		.uleb128 0x1
 11856 1089 50       		.byte	0x50
 11857 108a 02       		.uleb128 0x2
 11858 108b 74       		.byte	0x74
 11859 108c 00       		.sleb128 0
 11860 108d 11       		.uleb128 0x11
 11861 108e 01       		.uleb128 0x1
 11862 108f 51       		.byte	0x51
 11863 1090 05       		.uleb128 0x5
 11864 1091 03       		.byte	0x3
 11865 1092 A8010000 		.4byte	.LC25
 11866 1096 00       		.byte	0
 11867 1097 10       		.uleb128 0x10
 11868 1098 2E080000 		.4byte	.LVL421
 11869 109c 8E030000 		.4byte	0x38e
 11870 10a0 AB100000 		.4byte	0x10ab
 11871 10a4 11       		.uleb128 0x11
 11872 10a5 01       		.uleb128 0x1
 11873 10a6 50       		.byte	0x50
 11874 10a7 02       		.uleb128 0x2
 11875 10a8 74       		.byte	0x74
 11876 10a9 00       		.sleb128 0
ARM GAS  C:\Users\JPELEC~1\AppData\Local\Temp\ccEetrge.s 			page 258


 11877 10aa 00       		.byte	0
 11878 10ab 10       		.uleb128 0x10
 11879 10ac 38080000 		.4byte	.LVL422
 11880 10b0 58310000 		.4byte	0x3158
 11881 10b4 C8100000 		.4byte	0x10c8
 11882 10b8 11       		.uleb128 0x11
 11883 10b9 01       		.uleb128 0x1
 11884 10ba 50       		.byte	0x50
 11885 10bb 02       		.uleb128 0x2
 11886 10bc 74       		.byte	0x74
 11887 10bd 00       		.sleb128 0
 11888 10be 11       		.uleb128 0x11
 11889 10bf 01       		.uleb128 0x1
 11890 10c0 51       		.byte	0x51
 11891 10c1 05       		.uleb128 0x5
 11892 10c2 03       		.byte	0x3
 11893 10c3 B4010000 		.4byte	.LC26
 11894 10c7 00       		.byte	0
 11895 10c8 10       		.uleb128 0x10
 11896 10c9 3E080000 		.4byte	.LVL423
 11897 10cd 8E030000 		.4byte	0x38e
 11898 10d1 DC100000 		.4byte	0x10dc
 11899 10d5 11       		.uleb128 0x11
 11900 10d6 01       		.uleb128 0x1
 11901 10d7 50       		.byte	0x50
 11902 10d8 02       		.uleb128 0x2
 11903 10d9 74       		.byte	0x74
 11904 10da 00       		.sleb128 0
 11905 10db 00       		.byte	0
 11906 10dc 10       		.uleb128 0x10
 11907 10dd 50080000 		.4byte	.LVL424
 11908 10e1 58310000 		.4byte	0x3158
 11909 10e5 F9100000 		.4byte	0x10f9
 11910 10e9 11       		.uleb128 0x11
 11911 10ea 01       		.uleb128 0x1
 11912 10eb 50       		.byte	0x50
 11913 10ec 02       		.uleb128 0x2
 11914 10ed 74       		.byte	0x74
 11915 10ee 00       		.sleb128 0
 11916 10ef 11       		.uleb128 0x11
 11917 10f0 01       		.uleb128 0x1
 11918 10f1 51       		.byte	0x51
 11919 10f2 05       		.uleb128 0x5
 11920 10f3 03       		.byte	0x3
 11921 10f4 C0010000 		.4byte	.LC27
 11922 10f8 00       		.byte	0
 11923 10f9 10       		.uleb128 0x10
 11924 10fa 56080000 		.4byte	.LVL425
 11925 10fe 8E030000 		.4byte	0x38e
 11926 1102 0D110000 		.4byte	0x110d
 11927 1106 11       		.uleb128 0x11
 11928 1107 01       		.uleb128 0x1
 11929 1108 50       		.byte	0x50
 11930 1109 02       		.uleb128 0x2
 11931 110a 74       		.byte	0x74
 11932 110b 00       		.sleb128 0
 11933 110c 00       		.byte	0
ARM GAS  C:\Users\JPELEC~1\AppData\Local\Temp\ccEetrge.s 			page 259


 11934 110d 10       		.uleb128 0x10
 11935 110e 66080000 		.4byte	.LVL426
 11936 1112 58310000 		.4byte	0x3158
 11937 1116 2A110000 		.4byte	0x112a
 11938 111a 11       		.uleb128 0x11
 11939 111b 01       		.uleb128 0x1
 11940 111c 50       		.byte	0x50
 11941 111d 02       		.uleb128 0x2
 11942 111e 74       		.byte	0x74
 11943 111f 00       		.sleb128 0
 11944 1120 11       		.uleb128 0x11
 11945 1121 01       		.uleb128 0x1
 11946 1122 51       		.byte	0x51
 11947 1123 05       		.uleb128 0x5
 11948 1124 03       		.byte	0x3
 11949 1125 CC010000 		.4byte	.LC28
 11950 1129 00       		.byte	0
 11951 112a 10       		.uleb128 0x10
 11952 112b 6C080000 		.4byte	.LVL427
 11953 112f 8E030000 		.4byte	0x38e
 11954 1133 3E110000 		.4byte	0x113e
 11955 1137 11       		.uleb128 0x11
 11956 1138 01       		.uleb128 0x1
 11957 1139 50       		.byte	0x50
 11958 113a 02       		.uleb128 0x2
 11959 113b 74       		.byte	0x74
 11960 113c 00       		.sleb128 0
 11961 113d 00       		.byte	0
 11962 113e 10       		.uleb128 0x10
 11963 113f 76080000 		.4byte	.LVL428
 11964 1143 58310000 		.4byte	0x3158
 11965 1147 5B110000 		.4byte	0x115b
 11966 114b 11       		.uleb128 0x11
 11967 114c 01       		.uleb128 0x1
 11968 114d 50       		.byte	0x50
 11969 114e 02       		.uleb128 0x2
 11970 114f 74       		.byte	0x74
 11971 1150 00       		.sleb128 0
 11972 1151 11       		.uleb128 0x11
 11973 1152 01       		.uleb128 0x1
 11974 1153 51       		.byte	0x51
 11975 1154 05       		.uleb128 0x5
 11976 1155 03       		.byte	0x3
 11977 1156 D8010000 		.4byte	.LC29
 11978 115a 00       		.byte	0
 11979 115b 10       		.uleb128 0x10
 11980 115c 7C080000 		.4byte	.LVL429
 11981 1160 8E030000 		.4byte	0x38e
 11982 1164 6F110000 		.4byte	0x116f
 11983 1168 11       		.uleb128 0x11
 11984 1169 01       		.uleb128 0x1
 11985 116a 50       		.byte	0x50
 11986 116b 02       		.uleb128 0x2
 11987 116c 74       		.byte	0x74
 11988 116d 00       		.sleb128 0
 11989 116e 00       		.byte	0
 11990 116f 10       		.uleb128 0x10
ARM GAS  C:\Users\JPELEC~1\AppData\Local\Temp\ccEetrge.s 			page 260


 11991 1170 8C080000 		.4byte	.LVL430
 11992 1174 58310000 		.4byte	0x3158
 11993 1178 8C110000 		.4byte	0x118c
 11994 117c 11       		.uleb128 0x11
 11995 117d 01       		.uleb128 0x1
 11996 117e 50       		.byte	0x50
 11997 117f 02       		.uleb128 0x2
 11998 1180 74       		.byte	0x74
 11999 1181 00       		.sleb128 0
 12000 1182 11       		.uleb128 0x11
 12001 1183 01       		.uleb128 0x1
 12002 1184 51       		.byte	0x51
 12003 1185 05       		.uleb128 0x5
 12004 1186 03       		.byte	0x3
 12005 1187 E4010000 		.4byte	.LC30
 12006 118b 00       		.byte	0
 12007 118c 10       		.uleb128 0x10
 12008 118d 92080000 		.4byte	.LVL431
 12009 1191 8E030000 		.4byte	0x38e
 12010 1195 A0110000 		.4byte	0x11a0
 12011 1199 11       		.uleb128 0x11
 12012 119a 01       		.uleb128 0x1
 12013 119b 50       		.byte	0x50
 12014 119c 02       		.uleb128 0x2
 12015 119d 74       		.byte	0x74
 12016 119e 00       		.sleb128 0
 12017 119f 00       		.byte	0
 12018 11a0 10       		.uleb128 0x10
 12019 11a1 A8080000 		.4byte	.LVL432
 12020 11a5 58310000 		.4byte	0x3158
 12021 11a9 BD110000 		.4byte	0x11bd
 12022 11ad 11       		.uleb128 0x11
 12023 11ae 01       		.uleb128 0x1
 12024 11af 50       		.byte	0x50
 12025 11b0 02       		.uleb128 0x2
 12026 11b1 74       		.byte	0x74
 12027 11b2 00       		.sleb128 0
 12028 11b3 11       		.uleb128 0x11
 12029 11b4 01       		.uleb128 0x1
 12030 11b5 51       		.byte	0x51
 12031 11b6 05       		.uleb128 0x5
 12032 11b7 03       		.byte	0x3
 12033 11b8 F0010000 		.4byte	.LC31
 12034 11bc 00       		.byte	0
 12035 11bd 10       		.uleb128 0x10
 12036 11be AE080000 		.4byte	.LVL433
 12037 11c2 8E030000 		.4byte	0x38e
 12038 11c6 D1110000 		.4byte	0x11d1
 12039 11ca 11       		.uleb128 0x11
 12040 11cb 01       		.uleb128 0x1
 12041 11cc 50       		.byte	0x50
 12042 11cd 02       		.uleb128 0x2
 12043 11ce 74       		.byte	0x74
 12044 11cf 00       		.sleb128 0
 12045 11d0 00       		.byte	0
 12046 11d1 10       		.uleb128 0x10
 12047 11d2 26090000 		.4byte	.LVL434
ARM GAS  C:\Users\JPELEC~1\AppData\Local\Temp\ccEetrge.s 			page 261


 12048 11d6 58310000 		.4byte	0x3158
 12049 11da EE110000 		.4byte	0x11ee
 12050 11de 11       		.uleb128 0x11
 12051 11df 01       		.uleb128 0x1
 12052 11e0 50       		.byte	0x50
 12053 11e1 02       		.uleb128 0x2
 12054 11e2 74       		.byte	0x74
 12055 11e3 00       		.sleb128 0
 12056 11e4 11       		.uleb128 0x11
 12057 11e5 01       		.uleb128 0x1
 12058 11e6 51       		.byte	0x51
 12059 11e7 05       		.uleb128 0x5
 12060 11e8 03       		.byte	0x3
 12061 11e9 A8010000 		.4byte	.LC25
 12062 11ed 00       		.byte	0
 12063 11ee 10       		.uleb128 0x10
 12064 11ef 2C090000 		.4byte	.LVL435
 12065 11f3 8E030000 		.4byte	0x38e
 12066 11f7 02120000 		.4byte	0x1202
 12067 11fb 11       		.uleb128 0x11
 12068 11fc 01       		.uleb128 0x1
 12069 11fd 50       		.byte	0x50
 12070 11fe 02       		.uleb128 0x2
 12071 11ff 74       		.byte	0x74
 12072 1200 00       		.sleb128 0
 12073 1201 00       		.byte	0
 12074 1202 10       		.uleb128 0x10
 12075 1203 3C090000 		.4byte	.LVL436
 12076 1207 58310000 		.4byte	0x3158
 12077 120b 1F120000 		.4byte	0x121f
 12078 120f 11       		.uleb128 0x11
 12079 1210 01       		.uleb128 0x1
 12080 1211 50       		.byte	0x50
 12081 1212 02       		.uleb128 0x2
 12082 1213 74       		.byte	0x74
 12083 1214 00       		.sleb128 0
 12084 1215 11       		.uleb128 0x11
 12085 1216 01       		.uleb128 0x1
 12086 1217 51       		.byte	0x51
 12087 1218 05       		.uleb128 0x5
 12088 1219 03       		.byte	0x3
 12089 121a B4010000 		.4byte	.LC26
 12090 121e 00       		.byte	0
 12091 121f 10       		.uleb128 0x10
 12092 1220 42090000 		.4byte	.LVL437
 12093 1224 8E030000 		.4byte	0x38e
 12094 1228 33120000 		.4byte	0x1233
 12095 122c 11       		.uleb128 0x11
 12096 122d 01       		.uleb128 0x1
 12097 122e 50       		.byte	0x50
 12098 122f 02       		.uleb128 0x2
 12099 1230 74       		.byte	0x74
 12100 1231 00       		.sleb128 0
 12101 1232 00       		.byte	0
 12102 1233 10       		.uleb128 0x10
 12103 1234 52090000 		.4byte	.LVL438
 12104 1238 58310000 		.4byte	0x3158
ARM GAS  C:\Users\JPELEC~1\AppData\Local\Temp\ccEetrge.s 			page 262


 12105 123c 50120000 		.4byte	0x1250
 12106 1240 11       		.uleb128 0x11
 12107 1241 01       		.uleb128 0x1
 12108 1242 50       		.byte	0x50
 12109 1243 02       		.uleb128 0x2
 12110 1244 74       		.byte	0x74
 12111 1245 00       		.sleb128 0
 12112 1246 11       		.uleb128 0x11
 12113 1247 01       		.uleb128 0x1
 12114 1248 51       		.byte	0x51
 12115 1249 05       		.uleb128 0x5
 12116 124a 03       		.byte	0x3
 12117 124b C0010000 		.4byte	.LC27
 12118 124f 00       		.byte	0
 12119 1250 10       		.uleb128 0x10
 12120 1251 58090000 		.4byte	.LVL439
 12121 1255 8E030000 		.4byte	0x38e
 12122 1259 64120000 		.4byte	0x1264
 12123 125d 11       		.uleb128 0x11
 12124 125e 01       		.uleb128 0x1
 12125 125f 50       		.byte	0x50
 12126 1260 02       		.uleb128 0x2
 12127 1261 74       		.byte	0x74
 12128 1262 00       		.sleb128 0
 12129 1263 00       		.byte	0
 12130 1264 10       		.uleb128 0x10
 12131 1265 68090000 		.4byte	.LVL440
 12132 1269 58310000 		.4byte	0x3158
 12133 126d 81120000 		.4byte	0x1281
 12134 1271 11       		.uleb128 0x11
 12135 1272 01       		.uleb128 0x1
 12136 1273 50       		.byte	0x50
 12137 1274 02       		.uleb128 0x2
 12138 1275 74       		.byte	0x74
 12139 1276 00       		.sleb128 0
 12140 1277 11       		.uleb128 0x11
 12141 1278 01       		.uleb128 0x1
 12142 1279 51       		.byte	0x51
 12143 127a 05       		.uleb128 0x5
 12144 127b 03       		.byte	0x3
 12145 127c CC010000 		.4byte	.LC28
 12146 1280 00       		.byte	0
 12147 1281 10       		.uleb128 0x10
 12148 1282 6E090000 		.4byte	.LVL441
 12149 1286 8E030000 		.4byte	0x38e
 12150 128a 95120000 		.4byte	0x1295
 12151 128e 11       		.uleb128 0x11
 12152 128f 01       		.uleb128 0x1
 12153 1290 50       		.byte	0x50
 12154 1291 02       		.uleb128 0x2
 12155 1292 74       		.byte	0x74
 12156 1293 00       		.sleb128 0
 12157 1294 00       		.byte	0
 12158 1295 10       		.uleb128 0x10
 12159 1296 7C090000 		.4byte	.LVL442
 12160 129a 58310000 		.4byte	0x3158
 12161 129e B2120000 		.4byte	0x12b2
ARM GAS  C:\Users\JPELEC~1\AppData\Local\Temp\ccEetrge.s 			page 263


 12162 12a2 11       		.uleb128 0x11
 12163 12a3 01       		.uleb128 0x1
 12164 12a4 50       		.byte	0x50
 12165 12a5 02       		.uleb128 0x2
 12166 12a6 74       		.byte	0x74
 12167 12a7 00       		.sleb128 0
 12168 12a8 11       		.uleb128 0x11
 12169 12a9 01       		.uleb128 0x1
 12170 12aa 51       		.byte	0x51
 12171 12ab 05       		.uleb128 0x5
 12172 12ac 03       		.byte	0x3
 12173 12ad D8010000 		.4byte	.LC29
 12174 12b1 00       		.byte	0
 12175 12b2 10       		.uleb128 0x10
 12176 12b3 82090000 		.4byte	.LVL443
 12177 12b7 8E030000 		.4byte	0x38e
 12178 12bb C6120000 		.4byte	0x12c6
 12179 12bf 11       		.uleb128 0x11
 12180 12c0 01       		.uleb128 0x1
 12181 12c1 50       		.byte	0x50
 12182 12c2 02       		.uleb128 0x2
 12183 12c3 74       		.byte	0x74
 12184 12c4 00       		.sleb128 0
 12185 12c5 00       		.byte	0
 12186 12c6 10       		.uleb128 0x10
 12187 12c7 92090000 		.4byte	.LVL444
 12188 12cb 58310000 		.4byte	0x3158
 12189 12cf E3120000 		.4byte	0x12e3
 12190 12d3 11       		.uleb128 0x11
 12191 12d4 01       		.uleb128 0x1
 12192 12d5 50       		.byte	0x50
 12193 12d6 02       		.uleb128 0x2
 12194 12d7 74       		.byte	0x74
 12195 12d8 00       		.sleb128 0
 12196 12d9 11       		.uleb128 0x11
 12197 12da 01       		.uleb128 0x1
 12198 12db 51       		.byte	0x51
 12199 12dc 05       		.uleb128 0x5
 12200 12dd 03       		.byte	0x3
 12201 12de E4010000 		.4byte	.LC30
 12202 12e2 00       		.byte	0
 12203 12e3 10       		.uleb128 0x10
 12204 12e4 98090000 		.4byte	.LVL445
 12205 12e8 8E030000 		.4byte	0x38e
 12206 12ec F7120000 		.4byte	0x12f7
 12207 12f0 11       		.uleb128 0x11
 12208 12f1 01       		.uleb128 0x1
 12209 12f2 50       		.byte	0x50
 12210 12f3 02       		.uleb128 0x2
 12211 12f4 74       		.byte	0x74
 12212 12f5 00       		.sleb128 0
 12213 12f6 00       		.byte	0
 12214 12f7 10       		.uleb128 0x10
 12215 12f8 AE090000 		.4byte	.LVL446
 12216 12fc 58310000 		.4byte	0x3158
 12217 1300 14130000 		.4byte	0x1314
 12218 1304 11       		.uleb128 0x11
ARM GAS  C:\Users\JPELEC~1\AppData\Local\Temp\ccEetrge.s 			page 264


 12219 1305 01       		.uleb128 0x1
 12220 1306 50       		.byte	0x50
 12221 1307 02       		.uleb128 0x2
 12222 1308 74       		.byte	0x74
 12223 1309 00       		.sleb128 0
 12224 130a 11       		.uleb128 0x11
 12225 130b 01       		.uleb128 0x1
 12226 130c 51       		.byte	0x51
 12227 130d 05       		.uleb128 0x5
 12228 130e 03       		.byte	0x3
 12229 130f F0010000 		.4byte	.LC31
 12230 1313 00       		.byte	0
 12231 1314 10       		.uleb128 0x10
 12232 1315 B4090000 		.4byte	.LVL447
 12233 1319 8E030000 		.4byte	0x38e
 12234 131d 28130000 		.4byte	0x1328
 12235 1321 11       		.uleb128 0x11
 12236 1322 01       		.uleb128 0x1
 12237 1323 50       		.byte	0x50
 12238 1324 02       		.uleb128 0x2
 12239 1325 74       		.byte	0x74
 12240 1326 00       		.sleb128 0
 12241 1327 00       		.byte	0
 12242 1328 10       		.uleb128 0x10
 12243 1329 3C0A0000 		.4byte	.LVL448
 12244 132d 8C320000 		.4byte	0x328c
 12245 1331 3C130000 		.4byte	0x133c
 12246 1335 11       		.uleb128 0x11
 12247 1336 01       		.uleb128 0x1
 12248 1337 50       		.byte	0x50
 12249 1338 02       		.uleb128 0x2
 12250 1339 08       		.byte	0x8
 12251 133a C8       		.byte	0xc8
 12252 133b 00       		.byte	0
 12253 133c 10       		.uleb128 0x10
 12254 133d 540A0000 		.4byte	.LVL449
 12255 1341 8E030000 		.4byte	0x38e
 12256 1345 53130000 		.4byte	0x1353
 12257 1349 11       		.uleb128 0x11
 12258 134a 01       		.uleb128 0x1
 12259 134b 50       		.byte	0x50
 12260 134c 05       		.uleb128 0x5
 12261 134d 03       		.byte	0x3
 12262 134e 9C010000 		.4byte	.LC24
 12263 1352 00       		.byte	0
 12264 1353 13       		.uleb128 0x13
 12265 1354 920A0000 		.4byte	.LVL450
 12266 1358 D9320000 		.4byte	0x32d9
 12267 135c 10       		.uleb128 0x10
 12268 135d 980A0000 		.4byte	.LVL451
 12269 1361 8C320000 		.4byte	0x328c
 12270 1365 6F130000 		.4byte	0x136f
 12271 1369 11       		.uleb128 0x11
 12272 136a 01       		.uleb128 0x1
 12273 136b 50       		.byte	0x50
 12274 136c 01       		.uleb128 0x1
 12275 136d 3A       		.byte	0x3a
ARM GAS  C:\Users\JPELEC~1\AppData\Local\Temp\ccEetrge.s 			page 265


 12276 136e 00       		.byte	0
 12277 136f 13       		.uleb128 0x13
 12278 1370 C60A0000 		.4byte	.LVL452
 12279 1374 D9320000 		.4byte	0x32d9
 12280 1378 10       		.uleb128 0x10
 12281 1379 CC0A0000 		.4byte	.LVL453
 12282 137d 8C320000 		.4byte	0x328c
 12283 1381 8B130000 		.4byte	0x138b
 12284 1385 11       		.uleb128 0x11
 12285 1386 01       		.uleb128 0x1
 12286 1387 50       		.byte	0x50
 12287 1388 01       		.uleb128 0x1
 12288 1389 3A       		.byte	0x3a
 12289 138a 00       		.byte	0
 12290 138b 10       		.uleb128 0x10
 12291 138c D80A0000 		.4byte	.LVL454
 12292 1390 D0020000 		.4byte	0x2d0
 12293 1394 A2130000 		.4byte	0x13a2
 12294 1398 11       		.uleb128 0x11
 12295 1399 01       		.uleb128 0x1
 12296 139a 50       		.byte	0x50
 12297 139b 05       		.uleb128 0x5
 12298 139c 03       		.byte	0x3
 12299 139d 00020000 		.4byte	.LC32
 12300 13a1 00       		.byte	0
 12301 13a2 10       		.uleb128 0x10
 12302 13a3 B20B0000 		.4byte	.LVL461
 12303 13a7 8C320000 		.4byte	0x328c
 12304 13ab B7130000 		.4byte	0x13b7
 12305 13af 11       		.uleb128 0x11
 12306 13b0 01       		.uleb128 0x1
 12307 13b1 50       		.byte	0x50
 12308 13b2 03       		.uleb128 0x3
 12309 13b3 0A       		.byte	0xa
 12310 13b4 2C01     		.2byte	0x12c
 12311 13b6 00       		.byte	0
 12312 13b7 10       		.uleb128 0x10
 12313 13b8 CA0C0000 		.4byte	.LVL468
 12314 13bc 8C320000 		.4byte	0x328c
 12315 13c0 CC130000 		.4byte	0x13cc
 12316 13c4 11       		.uleb128 0x11
 12317 13c5 01       		.uleb128 0x1
 12318 13c6 50       		.byte	0x50
 12319 13c7 03       		.uleb128 0x3
 12320 13c8 0A       		.byte	0xa
 12321 13c9 2C01     		.2byte	0x12c
 12322 13cb 00       		.byte	0
 12323 13cc 10       		.uleb128 0x10
 12324 13cd 3C0D0000 		.4byte	.LVL469
 12325 13d1 58310000 		.4byte	0x3158
 12326 13d5 E9130000 		.4byte	0x13e9
 12327 13d9 11       		.uleb128 0x11
 12328 13da 01       		.uleb128 0x1
 12329 13db 50       		.byte	0x50
 12330 13dc 02       		.uleb128 0x2
 12331 13dd 75       		.byte	0x75
 12332 13de 00       		.sleb128 0
ARM GAS  C:\Users\JPELEC~1\AppData\Local\Temp\ccEetrge.s 			page 266


 12333 13df 11       		.uleb128 0x11
 12334 13e0 01       		.uleb128 0x1
 12335 13e1 51       		.byte	0x51
 12336 13e2 05       		.uleb128 0x5
 12337 13e3 03       		.byte	0x3
 12338 13e4 10020000 		.4byte	.LC33
 12339 13e8 00       		.byte	0
 12340 13e9 10       		.uleb128 0x10
 12341 13ea 420D0000 		.4byte	.LVL470
 12342 13ee 8E030000 		.4byte	0x38e
 12343 13f2 FD130000 		.4byte	0x13fd
 12344 13f6 11       		.uleb128 0x11
 12345 13f7 01       		.uleb128 0x1
 12346 13f8 50       		.byte	0x50
 12347 13f9 02       		.uleb128 0x2
 12348 13fa 75       		.byte	0x75
 12349 13fb 00       		.sleb128 0
 12350 13fc 00       		.byte	0
 12351 13fd 10       		.uleb128 0x10
 12352 13fe 640D0000 		.4byte	.LVL471
 12353 1402 58310000 		.4byte	0x3158
 12354 1406 1A140000 		.4byte	0x141a
 12355 140a 11       		.uleb128 0x11
 12356 140b 01       		.uleb128 0x1
 12357 140c 50       		.byte	0x50
 12358 140d 02       		.uleb128 0x2
 12359 140e 75       		.byte	0x75
 12360 140f 00       		.sleb128 0
 12361 1410 11       		.uleb128 0x11
 12362 1411 01       		.uleb128 0x1
 12363 1412 51       		.byte	0x51
 12364 1413 05       		.uleb128 0x5
 12365 1414 03       		.byte	0x3
 12366 1415 24020000 		.4byte	.LC34
 12367 1419 00       		.byte	0
 12368 141a 10       		.uleb128 0x10
 12369 141b 6A0D0000 		.4byte	.LVL472
 12370 141f 8E030000 		.4byte	0x38e
 12371 1423 2E140000 		.4byte	0x142e
 12372 1427 11       		.uleb128 0x11
 12373 1428 01       		.uleb128 0x1
 12374 1429 50       		.byte	0x50
 12375 142a 02       		.uleb128 0x2
 12376 142b 75       		.byte	0x75
 12377 142c 00       		.sleb128 0
 12378 142d 00       		.byte	0
 12379 142e 10       		.uleb128 0x10
 12380 142f 540E0000 		.4byte	.LVL473
 12381 1433 8E030000 		.4byte	0x38e
 12382 1437 45140000 		.4byte	0x1445
 12383 143b 11       		.uleb128 0x11
 12384 143c 01       		.uleb128 0x1
 12385 143d 50       		.byte	0x50
 12386 143e 05       		.uleb128 0x5
 12387 143f 03       		.byte	0x3
 12388 1440 9C010000 		.4byte	.LC24
 12389 1444 00       		.byte	0
ARM GAS  C:\Users\JPELEC~1\AppData\Local\Temp\ccEetrge.s 			page 267


 12390 1445 13       		.uleb128 0x13
 12391 1446 920E0000 		.4byte	.LVL474
 12392 144a D9320000 		.4byte	0x32d9
 12393 144e 10       		.uleb128 0x10
 12394 144f AE0E0000 		.4byte	.LVL475
 12395 1453 EF320000 		.4byte	0x32ef
 12396 1457 61140000 		.4byte	0x1461
 12397 145b 11       		.uleb128 0x11
 12398 145c 01       		.uleb128 0x1
 12399 145d 51       		.byte	0x51
 12400 145e 01       		.uleb128 0x1
 12401 145f 31       		.byte	0x31
 12402 1460 00       		.byte	0
 12403 1461 13       		.uleb128 0x13
 12404 1462 CE0E0000 		.4byte	.LVL476
 12405 1466 D9320000 		.4byte	0x32d9
 12406 146a 10       		.uleb128 0x10
 12407 146b D40E0000 		.4byte	.LVL477
 12408 146f 8C320000 		.4byte	0x328c
 12409 1473 7D140000 		.4byte	0x147d
 12410 1477 11       		.uleb128 0x11
 12411 1478 01       		.uleb128 0x1
 12412 1479 50       		.byte	0x50
 12413 147a 01       		.uleb128 0x1
 12414 147b 3A       		.byte	0x3a
 12415 147c 00       		.byte	0
 12416 147d 10       		.uleb128 0x10
 12417 147e E00E0000 		.4byte	.LVL478
 12418 1482 D0020000 		.4byte	0x2d0
 12419 1486 94140000 		.4byte	0x1494
 12420 148a 11       		.uleb128 0x11
 12421 148b 01       		.uleb128 0x1
 12422 148c 50       		.byte	0x50
 12423 148d 05       		.uleb128 0x5
 12424 148e 03       		.byte	0x3
 12425 148f 00020000 		.4byte	.LC32
 12426 1493 00       		.byte	0
 12427 1494 10       		.uleb128 0x10
 12428 1495 FE0E0000 		.4byte	.LVL479
 12429 1499 8E030000 		.4byte	0x38e
 12430 149d AB140000 		.4byte	0x14ab
 12431 14a1 11       		.uleb128 0x11
 12432 14a2 01       		.uleb128 0x1
 12433 14a3 50       		.byte	0x50
 12434 14a4 05       		.uleb128 0x5
 12435 14a5 03       		.byte	0x3
 12436 14a6 38020000 		.4byte	.LC35
 12437 14aa 00       		.byte	0
 12438 14ab 10       		.uleb128 0x10
 12439 14ac 040F0000 		.4byte	.LVL480
 12440 14b0 8E030000 		.4byte	0x38e
 12441 14b4 C2140000 		.4byte	0x14c2
 12442 14b8 11       		.uleb128 0x11
 12443 14b9 01       		.uleb128 0x1
 12444 14ba 50       		.byte	0x50
 12445 14bb 05       		.uleb128 0x5
 12446 14bc 03       		.byte	0x3
ARM GAS  C:\Users\JPELEC~1\AppData\Local\Temp\ccEetrge.s 			page 268


 12447 14bd 44020000 		.4byte	.LC36
 12448 14c1 00       		.byte	0
 12449 14c2 10       		.uleb128 0x10
 12450 14c3 0A0F0000 		.4byte	.LVL481
 12451 14c7 8E030000 		.4byte	0x38e
 12452 14cb D9140000 		.4byte	0x14d9
 12453 14cf 11       		.uleb128 0x11
 12454 14d0 01       		.uleb128 0x1
 12455 14d1 50       		.byte	0x50
 12456 14d2 05       		.uleb128 0x5
 12457 14d3 03       		.byte	0x3
 12458 14d4 50020000 		.4byte	.LC37
 12459 14d8 00       		.byte	0
 12460 14d9 10       		.uleb128 0x10
 12461 14da 300F0000 		.4byte	.LVL482
 12462 14de 8E030000 		.4byte	0x38e
 12463 14e2 F0140000 		.4byte	0x14f0
 12464 14e6 11       		.uleb128 0x11
 12465 14e7 01       		.uleb128 0x1
 12466 14e8 50       		.byte	0x50
 12467 14e9 05       		.uleb128 0x5
 12468 14ea 03       		.byte	0x3
 12469 14eb 5C020000 		.4byte	.LC38
 12470 14ef 00       		.byte	0
 12471 14f0 10       		.uleb128 0x10
 12472 14f1 360F0000 		.4byte	.LVL483
 12473 14f5 8E030000 		.4byte	0x38e
 12474 14f9 07150000 		.4byte	0x1507
 12475 14fd 11       		.uleb128 0x11
 12476 14fe 01       		.uleb128 0x1
 12477 14ff 50       		.byte	0x50
 12478 1500 05       		.uleb128 0x5
 12479 1501 03       		.byte	0x3
 12480 1502 68020000 		.4byte	.LC39
 12481 1506 00       		.byte	0
 12482 1507 10       		.uleb128 0x10
 12483 1508 3C0F0000 		.4byte	.LVL484
 12484 150c 8E030000 		.4byte	0x38e
 12485 1510 1E150000 		.4byte	0x151e
 12486 1514 11       		.uleb128 0x11
 12487 1515 01       		.uleb128 0x1
 12488 1516 50       		.byte	0x50
 12489 1517 05       		.uleb128 0x5
 12490 1518 03       		.byte	0x3
 12491 1519 50020000 		.4byte	.LC37
 12492 151d 00       		.byte	0
 12493 151e 10       		.uleb128 0x10
 12494 151f DA0F0000 		.4byte	.LVL485
 12495 1523 8E030000 		.4byte	0x38e
 12496 1527 35150000 		.4byte	0x1535
 12497 152b 11       		.uleb128 0x11
 12498 152c 01       		.uleb128 0x1
 12499 152d 50       		.byte	0x50
 12500 152e 05       		.uleb128 0x5
 12501 152f 03       		.byte	0x3
 12502 1530 5C020000 		.4byte	.LC38
 12503 1534 00       		.byte	0
ARM GAS  C:\Users\JPELEC~1\AppData\Local\Temp\ccEetrge.s 			page 269


 12504 1535 10       		.uleb128 0x10
 12505 1536 E00F0000 		.4byte	.LVL486
 12506 153a 8E030000 		.4byte	0x38e
 12507 153e 4C150000 		.4byte	0x154c
 12508 1542 11       		.uleb128 0x11
 12509 1543 01       		.uleb128 0x1
 12510 1544 50       		.byte	0x50
 12511 1545 05       		.uleb128 0x5
 12512 1546 03       		.byte	0x3
 12513 1547 44020000 		.4byte	.LC36
 12514 154b 00       		.byte	0
 12515 154c 10       		.uleb128 0x10
 12516 154d E60F0000 		.4byte	.LVL487
 12517 1551 8E030000 		.4byte	0x38e
 12518 1555 63150000 		.4byte	0x1563
 12519 1559 11       		.uleb128 0x11
 12520 155a 01       		.uleb128 0x1
 12521 155b 50       		.byte	0x50
 12522 155c 05       		.uleb128 0x5
 12523 155d 03       		.byte	0x3
 12524 155e 74020000 		.4byte	.LC40
 12525 1562 00       		.byte	0
 12526 1563 10       		.uleb128 0x10
 12527 1564 7A100000 		.4byte	.LVL488
 12528 1568 8C320000 		.4byte	0x328c
 12529 156c 77150000 		.4byte	0x1577
 12530 1570 11       		.uleb128 0x11
 12531 1571 01       		.uleb128 0x1
 12532 1572 50       		.byte	0x50
 12533 1573 02       		.uleb128 0x2
 12534 1574 08       		.byte	0x8
 12535 1575 C8       		.byte	0xc8
 12536 1576 00       		.byte	0
 12537 1577 10       		.uleb128 0x10
 12538 1578 06110000 		.4byte	.LVL489
 12539 157c 8C320000 		.4byte	0x328c
 12540 1580 8B150000 		.4byte	0x158b
 12541 1584 11       		.uleb128 0x11
 12542 1585 01       		.uleb128 0x1
 12543 1586 50       		.byte	0x50
 12544 1587 02       		.uleb128 0x2
 12545 1588 08       		.byte	0x8
 12546 1589 C8       		.byte	0xc8
 12547 158a 00       		.byte	0
 12548 158b 10       		.uleb128 0x10
 12549 158c 2C110000 		.4byte	.LVL490
 12550 1590 58310000 		.4byte	0x3158
 12551 1594 A8150000 		.4byte	0x15a8
 12552 1598 11       		.uleb128 0x11
 12553 1599 01       		.uleb128 0x1
 12554 159a 50       		.byte	0x50
 12555 159b 02       		.uleb128 0x2
 12556 159c 74       		.byte	0x74
 12557 159d 00       		.sleb128 0
 12558 159e 11       		.uleb128 0x11
 12559 159f 01       		.uleb128 0x1
 12560 15a0 51       		.byte	0x51
ARM GAS  C:\Users\JPELEC~1\AppData\Local\Temp\ccEetrge.s 			page 270


 12561 15a1 05       		.uleb128 0x5
 12562 15a2 03       		.byte	0x3
 12563 15a3 80020000 		.4byte	.LC41
 12564 15a7 00       		.byte	0
 12565 15a8 10       		.uleb128 0x10
 12566 15a9 32110000 		.4byte	.LVL491
 12567 15ad 8E030000 		.4byte	0x38e
 12568 15b1 BC150000 		.4byte	0x15bc
 12569 15b5 11       		.uleb128 0x11
 12570 15b6 01       		.uleb128 0x1
 12571 15b7 50       		.byte	0x50
 12572 15b8 02       		.uleb128 0x2
 12573 15b9 74       		.byte	0x74
 12574 15ba 00       		.sleb128 0
 12575 15bb 00       		.byte	0
 12576 15bc 10       		.uleb128 0x10
 12577 15bd 50110000 		.4byte	.LVL492
 12578 15c1 8E030000 		.4byte	0x38e
 12579 15c5 D3150000 		.4byte	0x15d3
 12580 15c9 11       		.uleb128 0x11
 12581 15ca 01       		.uleb128 0x1
 12582 15cb 50       		.byte	0x50
 12583 15cc 05       		.uleb128 0x5
 12584 15cd 03       		.byte	0x3
 12585 15ce 7C010000 		.4byte	.LC22
 12586 15d2 00       		.byte	0
 12587 15d3 10       		.uleb128 0x10
 12588 15d4 56110000 		.4byte	.LVL493
 12589 15d8 D0020000 		.4byte	0x2d0
 12590 15dc EA150000 		.4byte	0x15ea
 12591 15e0 11       		.uleb128 0x11
 12592 15e1 01       		.uleb128 0x1
 12593 15e2 50       		.byte	0x50
 12594 15e3 05       		.uleb128 0x5
 12595 15e4 03       		.byte	0x3
 12596 15e5 70000000 		.4byte	.LC6
 12597 15e9 00       		.byte	0
 12598 15ea 10       		.uleb128 0x10
 12599 15eb D2110000 		.4byte	.LVL494
 12600 15ef 00310000 		.4byte	0x3100
 12601 15f3 FD150000 		.4byte	0x15fd
 12602 15f7 11       		.uleb128 0x11
 12603 15f8 01       		.uleb128 0x1
 12604 15f9 50       		.byte	0x50
 12605 15fa 01       		.uleb128 0x1
 12606 15fb 31       		.byte	0x31
 12607 15fc 00       		.byte	0
 12608 15fd 10       		.uleb128 0x10
 12609 15fe D8110000 		.4byte	.LVL495
 12610 1602 8E030000 		.4byte	0x38e
 12611 1606 14160000 		.4byte	0x1614
 12612 160a 11       		.uleb128 0x11
 12613 160b 01       		.uleb128 0x1
 12614 160c 50       		.byte	0x50
 12615 160d 05       		.uleb128 0x5
 12616 160e 03       		.byte	0x3
 12617 160f 94020000 		.4byte	.LC42
ARM GAS  C:\Users\JPELEC~1\AppData\Local\Temp\ccEetrge.s 			page 271


 12618 1613 00       		.byte	0
 12619 1614 10       		.uleb128 0x10
 12620 1615 E0110000 		.4byte	.LVL496
 12621 1619 00310000 		.4byte	0x3100
 12622 161d 27160000 		.4byte	0x1627
 12623 1621 11       		.uleb128 0x11
 12624 1622 01       		.uleb128 0x1
 12625 1623 50       		.byte	0x50
 12626 1624 01       		.uleb128 0x1
 12627 1625 30       		.byte	0x30
 12628 1626 00       		.byte	0
 12629 1627 10       		.uleb128 0x10
 12630 1628 E6110000 		.4byte	.LVL497
 12631 162c 8E030000 		.4byte	0x38e
 12632 1630 3E160000 		.4byte	0x163e
 12633 1634 11       		.uleb128 0x11
 12634 1635 01       		.uleb128 0x1
 12635 1636 50       		.byte	0x50
 12636 1637 05       		.uleb128 0x5
 12637 1638 03       		.byte	0x3
 12638 1639 A0020000 		.4byte	.LC43
 12639 163d 00       		.byte	0
 12640 163e 10       		.uleb128 0x10
 12641 163f F4110000 		.4byte	.LVL498
 12642 1643 97320000 		.4byte	0x3297
 12643 1647 51160000 		.4byte	0x1651
 12644 164b 11       		.uleb128 0x11
 12645 164c 01       		.uleb128 0x1
 12646 164d 50       		.byte	0x50
 12647 164e 01       		.uleb128 0x1
 12648 164f 31       		.byte	0x31
 12649 1650 00       		.byte	0
 12650 1651 10       		.uleb128 0x10
 12651 1652 FA110000 		.4byte	.LVL499
 12652 1656 8E030000 		.4byte	0x38e
 12653 165a 68160000 		.4byte	0x1668
 12654 165e 11       		.uleb128 0x11
 12655 165f 01       		.uleb128 0x1
 12656 1660 50       		.byte	0x50
 12657 1661 05       		.uleb128 0x5
 12658 1662 03       		.byte	0x3
 12659 1663 B0020000 		.4byte	.LC44
 12660 1667 00       		.byte	0
 12661 1668 10       		.uleb128 0x10
 12662 1669 02120000 		.4byte	.LVL500
 12663 166d 97320000 		.4byte	0x3297
 12664 1671 7B160000 		.4byte	0x167b
 12665 1675 11       		.uleb128 0x11
 12666 1676 01       		.uleb128 0x1
 12667 1677 50       		.byte	0x50
 12668 1678 01       		.uleb128 0x1
 12669 1679 30       		.byte	0x30
 12670 167a 00       		.byte	0
 12671 167b 10       		.uleb128 0x10
 12672 167c 08120000 		.4byte	.LVL501
 12673 1680 8E030000 		.4byte	0x38e
 12674 1684 92160000 		.4byte	0x1692
ARM GAS  C:\Users\JPELEC~1\AppData\Local\Temp\ccEetrge.s 			page 272


 12675 1688 11       		.uleb128 0x11
 12676 1689 01       		.uleb128 0x1
 12677 168a 50       		.byte	0x50
 12678 168b 05       		.uleb128 0x5
 12679 168c 03       		.byte	0x3
 12680 168d BC020000 		.4byte	.LC45
 12681 1691 00       		.byte	0
 12682 1692 10       		.uleb128 0x10
 12683 1693 16120000 		.4byte	.LVL502
 12684 1697 CE320000 		.4byte	0x32ce
 12685 169b A5160000 		.4byte	0x16a5
 12686 169f 11       		.uleb128 0x11
 12687 16a0 01       		.uleb128 0x1
 12688 16a1 50       		.byte	0x50
 12689 16a2 01       		.uleb128 0x1
 12690 16a3 30       		.byte	0x30
 12691 16a4 00       		.byte	0
 12692 16a5 10       		.uleb128 0x10
 12693 16a6 1C120000 		.4byte	.LVL503
 12694 16aa 8E030000 		.4byte	0x38e
 12695 16ae BC160000 		.4byte	0x16bc
 12696 16b2 11       		.uleb128 0x11
 12697 16b3 01       		.uleb128 0x1
 12698 16b4 50       		.byte	0x50
 12699 16b5 05       		.uleb128 0x5
 12700 16b6 03       		.byte	0x3
 12701 16b7 CC020000 		.4byte	.LC46
 12702 16bb 00       		.byte	0
 12703 16bc 10       		.uleb128 0x10
 12704 16bd 24120000 		.4byte	.LVL504
 12705 16c1 CE320000 		.4byte	0x32ce
 12706 16c5 CF160000 		.4byte	0x16cf
 12707 16c9 11       		.uleb128 0x11
 12708 16ca 01       		.uleb128 0x1
 12709 16cb 50       		.byte	0x50
 12710 16cc 01       		.uleb128 0x1
 12711 16cd 31       		.byte	0x31
 12712 16ce 00       		.byte	0
 12713 16cf 10       		.uleb128 0x10
 12714 16d0 2A120000 		.4byte	.LVL505
 12715 16d4 8E030000 		.4byte	0x38e
 12716 16d8 E6160000 		.4byte	0x16e6
 12717 16dc 11       		.uleb128 0x11
 12718 16dd 01       		.uleb128 0x1
 12719 16de 50       		.byte	0x50
 12720 16df 05       		.uleb128 0x5
 12721 16e0 03       		.byte	0x3
 12722 16e1 D8020000 		.4byte	.LC47
 12723 16e5 00       		.byte	0
 12724 16e6 13       		.uleb128 0x13
 12725 16e7 2E120000 		.4byte	.LVL506
 12726 16eb FA320000 		.4byte	0x32fa
 12727 16ef 10       		.uleb128 0x10
 12728 16f0 38120000 		.4byte	.LVL507
 12729 16f4 8E030000 		.4byte	0x38e
 12730 16f8 06170000 		.4byte	0x1706
 12731 16fc 11       		.uleb128 0x11
ARM GAS  C:\Users\JPELEC~1\AppData\Local\Temp\ccEetrge.s 			page 273


 12732 16fd 01       		.uleb128 0x1
 12733 16fe 50       		.byte	0x50
 12734 16ff 05       		.uleb128 0x5
 12735 1700 03       		.byte	0x3
 12736 1701 E8020000 		.4byte	.LC48
 12737 1705 00       		.byte	0
 12738 1706 10       		.uleb128 0x10
 12739 1707 B6120000 		.4byte	.LVL508
 12740 170b 8E030000 		.4byte	0x38e
 12741 170f 1D170000 		.4byte	0x171d
 12742 1713 11       		.uleb128 0x11
 12743 1714 01       		.uleb128 0x1
 12744 1715 50       		.byte	0x50
 12745 1716 05       		.uleb128 0x5
 12746 1717 03       		.byte	0x3
 12747 1718 F4020000 		.4byte	.LC49
 12748 171c 00       		.byte	0
 12749 171d 10       		.uleb128 0x10
 12750 171e C6120000 		.4byte	.LVL509
 12751 1722 58310000 		.4byte	0x3158
 12752 1726 3A170000 		.4byte	0x173a
 12753 172a 11       		.uleb128 0x11
 12754 172b 01       		.uleb128 0x1
 12755 172c 50       		.byte	0x50
 12756 172d 02       		.uleb128 0x2
 12757 172e 74       		.byte	0x74
 12758 172f 00       		.sleb128 0
 12759 1730 11       		.uleb128 0x11
 12760 1731 01       		.uleb128 0x1
 12761 1732 51       		.byte	0x51
 12762 1733 05       		.uleb128 0x5
 12763 1734 03       		.byte	0x3
 12764 1735 04030000 		.4byte	.LC50
 12765 1739 00       		.byte	0
 12766 173a 10       		.uleb128 0x10
 12767 173b CC120000 		.4byte	.LVL510
 12768 173f 8E030000 		.4byte	0x38e
 12769 1743 4E170000 		.4byte	0x174e
 12770 1747 11       		.uleb128 0x11
 12771 1748 01       		.uleb128 0x1
 12772 1749 50       		.byte	0x50
 12773 174a 02       		.uleb128 0x2
 12774 174b 74       		.byte	0x74
 12775 174c 00       		.sleb128 0
 12776 174d 00       		.byte	0
 12777 174e 10       		.uleb128 0x10
 12778 174f D8120000 		.4byte	.LVL511
 12779 1753 58310000 		.4byte	0x3158
 12780 1757 6B170000 		.4byte	0x176b
 12781 175b 11       		.uleb128 0x11
 12782 175c 01       		.uleb128 0x1
 12783 175d 50       		.byte	0x50
 12784 175e 02       		.uleb128 0x2
 12785 175f 74       		.byte	0x74
 12786 1760 00       		.sleb128 0
 12787 1761 11       		.uleb128 0x11
 12788 1762 01       		.uleb128 0x1
ARM GAS  C:\Users\JPELEC~1\AppData\Local\Temp\ccEetrge.s 			page 274


 12789 1763 51       		.byte	0x51
 12790 1764 05       		.uleb128 0x5
 12791 1765 03       		.byte	0x3
 12792 1766 14030000 		.4byte	.LC51
 12793 176a 00       		.byte	0
 12794 176b 10       		.uleb128 0x10
 12795 176c DE120000 		.4byte	.LVL512
 12796 1770 8E030000 		.4byte	0x38e
 12797 1774 7F170000 		.4byte	0x177f
 12798 1778 11       		.uleb128 0x11
 12799 1779 01       		.uleb128 0x1
 12800 177a 50       		.byte	0x50
 12801 177b 02       		.uleb128 0x2
 12802 177c 74       		.byte	0x74
 12803 177d 00       		.sleb128 0
 12804 177e 00       		.byte	0
 12805 177f 10       		.uleb128 0x10
 12806 1780 02130000 		.4byte	.LVL515
 12807 1784 58310000 		.4byte	0x3158
 12808 1788 9C170000 		.4byte	0x179c
 12809 178c 11       		.uleb128 0x11
 12810 178d 01       		.uleb128 0x1
 12811 178e 50       		.byte	0x50
 12812 178f 02       		.uleb128 0x2
 12813 1790 74       		.byte	0x74
 12814 1791 00       		.sleb128 0
 12815 1792 11       		.uleb128 0x11
 12816 1793 01       		.uleb128 0x1
 12817 1794 51       		.byte	0x51
 12818 1795 05       		.uleb128 0x5
 12819 1796 03       		.byte	0x3
 12820 1797 24030000 		.4byte	.LC52
 12821 179b 00       		.byte	0
 12822 179c 10       		.uleb128 0x10
 12823 179d 08130000 		.4byte	.LVL516
 12824 17a1 8E030000 		.4byte	0x38e
 12825 17a5 B0170000 		.4byte	0x17b0
 12826 17a9 11       		.uleb128 0x11
 12827 17aa 01       		.uleb128 0x1
 12828 17ab 50       		.byte	0x50
 12829 17ac 02       		.uleb128 0x2
 12830 17ad 74       		.byte	0x74
 12831 17ae 00       		.sleb128 0
 12832 17af 00       		.byte	0
 12833 17b0 10       		.uleb128 0x10
 12834 17b1 28130000 		.4byte	.LVL517
 12835 17b5 58310000 		.4byte	0x3158
 12836 17b9 CD170000 		.4byte	0x17cd
 12837 17bd 11       		.uleb128 0x11
 12838 17be 01       		.uleb128 0x1
 12839 17bf 50       		.byte	0x50
 12840 17c0 02       		.uleb128 0x2
 12841 17c1 74       		.byte	0x74
 12842 17c2 00       		.sleb128 0
 12843 17c3 11       		.uleb128 0x11
 12844 17c4 01       		.uleb128 0x1
 12845 17c5 51       		.byte	0x51
ARM GAS  C:\Users\JPELEC~1\AppData\Local\Temp\ccEetrge.s 			page 275


 12846 17c6 05       		.uleb128 0x5
 12847 17c7 03       		.byte	0x3
 12848 17c8 40030000 		.4byte	.LC53
 12849 17cc 00       		.byte	0
 12850 17cd 10       		.uleb128 0x10
 12851 17ce 2E130000 		.4byte	.LVL518
 12852 17d2 8E030000 		.4byte	0x38e
 12853 17d6 E1170000 		.4byte	0x17e1
 12854 17da 11       		.uleb128 0x11
 12855 17db 01       		.uleb128 0x1
 12856 17dc 50       		.byte	0x50
 12857 17dd 02       		.uleb128 0x2
 12858 17de 74       		.byte	0x74
 12859 17df 00       		.sleb128 0
 12860 17e0 00       		.byte	0
 12861 17e1 10       		.uleb128 0x10
 12862 17e2 94130000 		.4byte	.LVL519
 12863 17e6 D0020000 		.4byte	0x2d0
 12864 17ea F8170000 		.4byte	0x17f8
 12865 17ee 11       		.uleb128 0x11
 12866 17ef 01       		.uleb128 0x1
 12867 17f0 50       		.byte	0x50
 12868 17f1 05       		.uleb128 0x5
 12869 17f2 03       		.byte	0x3
 12870 17f3 00020000 		.4byte	.LC32
 12871 17f7 00       		.byte	0
 12872 17f8 10       		.uleb128 0x10
 12873 17f9 9A130000 		.4byte	.LVL520
 12874 17fd 8C320000 		.4byte	0x328c
 12875 1801 0B180000 		.4byte	0x180b
 12876 1805 11       		.uleb128 0x11
 12877 1806 01       		.uleb128 0x1
 12878 1807 50       		.byte	0x50
 12879 1808 01       		.uleb128 0x1
 12880 1809 3A       		.byte	0x3a
 12881 180a 00       		.byte	0
 12882 180b 10       		.uleb128 0x10
 12883 180c B8130000 		.4byte	.LVL521
 12884 1810 D0020000 		.4byte	0x2d0
 12885 1814 22180000 		.4byte	0x1822
 12886 1818 11       		.uleb128 0x11
 12887 1819 01       		.uleb128 0x1
 12888 181a 50       		.byte	0x50
 12889 181b 05       		.uleb128 0x5
 12890 181c 03       		.byte	0x3
 12891 181d 54030000 		.4byte	.LC54
 12892 1821 00       		.byte	0
 12893 1822 10       		.uleb128 0x10
 12894 1823 D6130000 		.4byte	.LVL522
 12895 1827 58310000 		.4byte	0x3158
 12896 182b 3F180000 		.4byte	0x183f
 12897 182f 11       		.uleb128 0x11
 12898 1830 01       		.uleb128 0x1
 12899 1831 50       		.byte	0x50
 12900 1832 02       		.uleb128 0x2
 12901 1833 74       		.byte	0x74
 12902 1834 00       		.sleb128 0
ARM GAS  C:\Users\JPELEC~1\AppData\Local\Temp\ccEetrge.s 			page 276


 12903 1835 11       		.uleb128 0x11
 12904 1836 01       		.uleb128 0x1
 12905 1837 51       		.byte	0x51
 12906 1838 05       		.uleb128 0x5
 12907 1839 03       		.byte	0x3
 12908 183a 88030000 		.4byte	.LC55
 12909 183e 00       		.byte	0
 12910 183f 10       		.uleb128 0x10
 12911 1840 DC130000 		.4byte	.LVL523
 12912 1844 D0020000 		.4byte	0x2d0
 12913 1848 53180000 		.4byte	0x1853
 12914 184c 11       		.uleb128 0x11
 12915 184d 01       		.uleb128 0x1
 12916 184e 50       		.byte	0x50
 12917 184f 02       		.uleb128 0x2
 12918 1850 74       		.byte	0x74
 12919 1851 00       		.sleb128 0
 12920 1852 00       		.byte	0
 12921 1853 10       		.uleb128 0x10
 12922 1854 F4130000 		.4byte	.LVL524
 12923 1858 58310000 		.4byte	0x3158
 12924 185c 70180000 		.4byte	0x1870
 12925 1860 11       		.uleb128 0x11
 12926 1861 01       		.uleb128 0x1
 12927 1862 50       		.byte	0x50
 12928 1863 02       		.uleb128 0x2
 12929 1864 74       		.byte	0x74
 12930 1865 00       		.sleb128 0
 12931 1866 11       		.uleb128 0x11
 12932 1867 01       		.uleb128 0x1
 12933 1868 51       		.byte	0x51
 12934 1869 05       		.uleb128 0x5
 12935 186a 03       		.byte	0x3
 12936 186b 9C030000 		.4byte	.LC56
 12937 186f 00       		.byte	0
 12938 1870 10       		.uleb128 0x10
 12939 1871 FA130000 		.4byte	.LVL525
 12940 1875 D0020000 		.4byte	0x2d0
 12941 1879 84180000 		.4byte	0x1884
 12942 187d 11       		.uleb128 0x11
 12943 187e 01       		.uleb128 0x1
 12944 187f 50       		.byte	0x50
 12945 1880 02       		.uleb128 0x2
 12946 1881 74       		.byte	0x74
 12947 1882 00       		.sleb128 0
 12948 1883 00       		.byte	0
 12949 1884 10       		.uleb128 0x10
 12950 1885 12140000 		.4byte	.LVL526
 12951 1889 58310000 		.4byte	0x3158
 12952 188d A1180000 		.4byte	0x18a1
 12953 1891 11       		.uleb128 0x11
 12954 1892 01       		.uleb128 0x1
 12955 1893 50       		.byte	0x50
 12956 1894 02       		.uleb128 0x2
 12957 1895 74       		.byte	0x74
 12958 1896 00       		.sleb128 0
 12959 1897 11       		.uleb128 0x11
ARM GAS  C:\Users\JPELEC~1\AppData\Local\Temp\ccEetrge.s 			page 277


 12960 1898 01       		.uleb128 0x1
 12961 1899 51       		.byte	0x51
 12962 189a 05       		.uleb128 0x5
 12963 189b 03       		.byte	0x3
 12964 189c B0030000 		.4byte	.LC57
 12965 18a0 00       		.byte	0
 12966 18a1 10       		.uleb128 0x10
 12967 18a2 18140000 		.4byte	.LVL527
 12968 18a6 D0020000 		.4byte	0x2d0
 12969 18aa B5180000 		.4byte	0x18b5
 12970 18ae 11       		.uleb128 0x11
 12971 18af 01       		.uleb128 0x1
 12972 18b0 50       		.byte	0x50
 12973 18b1 02       		.uleb128 0x2
 12974 18b2 74       		.byte	0x74
 12975 18b3 00       		.sleb128 0
 12976 18b4 00       		.byte	0
 12977 18b5 10       		.uleb128 0x10
 12978 18b6 30140000 		.4byte	.LVL528
 12979 18ba 58310000 		.4byte	0x3158
 12980 18be D2180000 		.4byte	0x18d2
 12981 18c2 11       		.uleb128 0x11
 12982 18c3 01       		.uleb128 0x1
 12983 18c4 50       		.byte	0x50
 12984 18c5 02       		.uleb128 0x2
 12985 18c6 74       		.byte	0x74
 12986 18c7 00       		.sleb128 0
 12987 18c8 11       		.uleb128 0x11
 12988 18c9 01       		.uleb128 0x1
 12989 18ca 51       		.byte	0x51
 12990 18cb 05       		.uleb128 0x5
 12991 18cc 03       		.byte	0x3
 12992 18cd C4030000 		.4byte	.LC58
 12993 18d1 00       		.byte	0
 12994 18d2 10       		.uleb128 0x10
 12995 18d3 36140000 		.4byte	.LVL529
 12996 18d7 D0020000 		.4byte	0x2d0
 12997 18db E6180000 		.4byte	0x18e6
 12998 18df 11       		.uleb128 0x11
 12999 18e0 01       		.uleb128 0x1
 13000 18e1 50       		.byte	0x50
 13001 18e2 02       		.uleb128 0x2
 13002 18e3 74       		.byte	0x74
 13003 18e4 00       		.sleb128 0
 13004 18e5 00       		.byte	0
 13005 18e6 10       		.uleb128 0x10
 13006 18e7 52140000 		.4byte	.LVL530
 13007 18eb 58310000 		.4byte	0x3158
 13008 18ef 03190000 		.4byte	0x1903
 13009 18f3 11       		.uleb128 0x11
 13010 18f4 01       		.uleb128 0x1
 13011 18f5 50       		.byte	0x50
 13012 18f6 02       		.uleb128 0x2
 13013 18f7 74       		.byte	0x74
 13014 18f8 00       		.sleb128 0
 13015 18f9 11       		.uleb128 0x11
 13016 18fa 01       		.uleb128 0x1
ARM GAS  C:\Users\JPELEC~1\AppData\Local\Temp\ccEetrge.s 			page 278


 13017 18fb 51       		.byte	0x51
 13018 18fc 05       		.uleb128 0x5
 13019 18fd 03       		.byte	0x3
 13020 18fe D8030000 		.4byte	.LC59
 13021 1902 00       		.byte	0
 13022 1903 10       		.uleb128 0x10
 13023 1904 58140000 		.4byte	.LVL531
 13024 1908 D0020000 		.4byte	0x2d0
 13025 190c 17190000 		.4byte	0x1917
 13026 1910 11       		.uleb128 0x11
 13027 1911 01       		.uleb128 0x1
 13028 1912 50       		.byte	0x50
 13029 1913 02       		.uleb128 0x2
 13030 1914 74       		.byte	0x74
 13031 1915 00       		.sleb128 0
 13032 1916 00       		.byte	0
 13033 1917 10       		.uleb128 0x10
 13034 1918 74140000 		.4byte	.LVL532
 13035 191c 58310000 		.4byte	0x3158
 13036 1920 34190000 		.4byte	0x1934
 13037 1924 11       		.uleb128 0x11
 13038 1925 01       		.uleb128 0x1
 13039 1926 50       		.byte	0x50
 13040 1927 02       		.uleb128 0x2
 13041 1928 74       		.byte	0x74
 13042 1929 00       		.sleb128 0
 13043 192a 11       		.uleb128 0x11
 13044 192b 01       		.uleb128 0x1
 13045 192c 51       		.byte	0x51
 13046 192d 05       		.uleb128 0x5
 13047 192e 03       		.byte	0x3
 13048 192f EC030000 		.4byte	.LC60
 13049 1933 00       		.byte	0
 13050 1934 10       		.uleb128 0x10
 13051 1935 7A140000 		.4byte	.LVL533
 13052 1939 D0020000 		.4byte	0x2d0
 13053 193d 48190000 		.4byte	0x1948
 13054 1941 11       		.uleb128 0x11
 13055 1942 01       		.uleb128 0x1
 13056 1943 50       		.byte	0x50
 13057 1944 02       		.uleb128 0x2
 13058 1945 74       		.byte	0x74
 13059 1946 00       		.sleb128 0
 13060 1947 00       		.byte	0
 13061 1948 10       		.uleb128 0x10
 13062 1949 96140000 		.4byte	.LVL534
 13063 194d 58310000 		.4byte	0x3158
 13064 1951 65190000 		.4byte	0x1965
 13065 1955 11       		.uleb128 0x11
 13066 1956 01       		.uleb128 0x1
 13067 1957 50       		.byte	0x50
 13068 1958 02       		.uleb128 0x2
 13069 1959 74       		.byte	0x74
 13070 195a 00       		.sleb128 0
 13071 195b 11       		.uleb128 0x11
 13072 195c 01       		.uleb128 0x1
 13073 195d 51       		.byte	0x51
ARM GAS  C:\Users\JPELEC~1\AppData\Local\Temp\ccEetrge.s 			page 279


 13074 195e 05       		.uleb128 0x5
 13075 195f 03       		.byte	0x3
 13076 1960 00040000 		.4byte	.LC61
 13077 1964 00       		.byte	0
 13078 1965 10       		.uleb128 0x10
 13079 1966 9C140000 		.4byte	.LVL535
 13080 196a D0020000 		.4byte	0x2d0
 13081 196e 79190000 		.4byte	0x1979
 13082 1972 11       		.uleb128 0x11
 13083 1973 01       		.uleb128 0x1
 13084 1974 50       		.byte	0x50
 13085 1975 02       		.uleb128 0x2
 13086 1976 74       		.byte	0x74
 13087 1977 00       		.sleb128 0
 13088 1978 00       		.byte	0
 13089 1979 10       		.uleb128 0x10
 13090 197a B8140000 		.4byte	.LVL536
 13091 197e 58310000 		.4byte	0x3158
 13092 1982 96190000 		.4byte	0x1996
 13093 1986 11       		.uleb128 0x11
 13094 1987 01       		.uleb128 0x1
 13095 1988 50       		.byte	0x50
 13096 1989 02       		.uleb128 0x2
 13097 198a 74       		.byte	0x74
 13098 198b 00       		.sleb128 0
 13099 198c 11       		.uleb128 0x11
 13100 198d 01       		.uleb128 0x1
 13101 198e 51       		.byte	0x51
 13102 198f 05       		.uleb128 0x5
 13103 1990 03       		.byte	0x3
 13104 1991 14040000 		.4byte	.LC62
 13105 1995 00       		.byte	0
 13106 1996 10       		.uleb128 0x10
 13107 1997 BE140000 		.4byte	.LVL537
 13108 199b D0020000 		.4byte	0x2d0
 13109 199f AA190000 		.4byte	0x19aa
 13110 19a3 11       		.uleb128 0x11
 13111 19a4 01       		.uleb128 0x1
 13112 19a5 50       		.byte	0x50
 13113 19a6 02       		.uleb128 0x2
 13114 19a7 74       		.byte	0x74
 13115 19a8 00       		.sleb128 0
 13116 19a9 00       		.byte	0
 13117 19aa 10       		.uleb128 0x10
 13118 19ab DA140000 		.4byte	.LVL538
 13119 19af 58310000 		.4byte	0x3158
 13120 19b3 C7190000 		.4byte	0x19c7
 13121 19b7 11       		.uleb128 0x11
 13122 19b8 01       		.uleb128 0x1
 13123 19b9 50       		.byte	0x50
 13124 19ba 02       		.uleb128 0x2
 13125 19bb 74       		.byte	0x74
 13126 19bc 00       		.sleb128 0
 13127 19bd 11       		.uleb128 0x11
 13128 19be 01       		.uleb128 0x1
 13129 19bf 51       		.byte	0x51
 13130 19c0 05       		.uleb128 0x5
ARM GAS  C:\Users\JPELEC~1\AppData\Local\Temp\ccEetrge.s 			page 280


 13131 19c1 03       		.byte	0x3
 13132 19c2 28040000 		.4byte	.LC63
 13133 19c6 00       		.byte	0
 13134 19c7 10       		.uleb128 0x10
 13135 19c8 E0140000 		.4byte	.LVL539
 13136 19cc D0020000 		.4byte	0x2d0
 13137 19d0 DB190000 		.4byte	0x19db
 13138 19d4 11       		.uleb128 0x11
 13139 19d5 01       		.uleb128 0x1
 13140 19d6 50       		.byte	0x50
 13141 19d7 02       		.uleb128 0x2
 13142 19d8 74       		.byte	0x74
 13143 19d9 00       		.sleb128 0
 13144 19da 00       		.byte	0
 13145 19db 10       		.uleb128 0x10
 13146 19dc FC140000 		.4byte	.LVL540
 13147 19e0 58310000 		.4byte	0x3158
 13148 19e4 F8190000 		.4byte	0x19f8
 13149 19e8 11       		.uleb128 0x11
 13150 19e9 01       		.uleb128 0x1
 13151 19ea 50       		.byte	0x50
 13152 19eb 02       		.uleb128 0x2
 13153 19ec 74       		.byte	0x74
 13154 19ed 00       		.sleb128 0
 13155 19ee 11       		.uleb128 0x11
 13156 19ef 01       		.uleb128 0x1
 13157 19f0 51       		.byte	0x51
 13158 19f1 05       		.uleb128 0x5
 13159 19f2 03       		.byte	0x3
 13160 19f3 3C040000 		.4byte	.LC64
 13161 19f7 00       		.byte	0
 13162 19f8 10       		.uleb128 0x10
 13163 19f9 02150000 		.4byte	.LVL541
 13164 19fd D0020000 		.4byte	0x2d0
 13165 1a01 0C1A0000 		.4byte	0x1a0c
 13166 1a05 11       		.uleb128 0x11
 13167 1a06 01       		.uleb128 0x1
 13168 1a07 50       		.byte	0x50
 13169 1a08 02       		.uleb128 0x2
 13170 1a09 74       		.byte	0x74
 13171 1a0a 00       		.sleb128 0
 13172 1a0b 00       		.byte	0
 13173 1a0c 13       		.uleb128 0x13
 13174 1a0d 06150000 		.4byte	.LVL542
 13175 1a11 4C040000 		.4byte	0x44c
 13176 1a15 10       		.uleb128 0x10
 13177 1a16 14150000 		.4byte	.LVL543
 13178 1a1a D0020000 		.4byte	0x2d0
 13179 1a1e 2C1A0000 		.4byte	0x1a2c
 13180 1a22 11       		.uleb128 0x11
 13181 1a23 01       		.uleb128 0x1
 13182 1a24 50       		.byte	0x50
 13183 1a25 05       		.uleb128 0x5
 13184 1a26 03       		.byte	0x3
 13185 1a27 50040000 		.4byte	.LC65
 13186 1a2b 00       		.byte	0
 13187 1a2c 10       		.uleb128 0x10
ARM GAS  C:\Users\JPELEC~1\AppData\Local\Temp\ccEetrge.s 			page 281


 13188 1a2d 26150000 		.4byte	.LVL544
 13189 1a31 58310000 		.4byte	0x3158
 13190 1a35 491A0000 		.4byte	0x1a49
 13191 1a39 11       		.uleb128 0x11
 13192 1a3a 01       		.uleb128 0x1
 13193 1a3b 50       		.byte	0x50
 13194 1a3c 02       		.uleb128 0x2
 13195 1a3d 74       		.byte	0x74
 13196 1a3e 00       		.sleb128 0
 13197 1a3f 11       		.uleb128 0x11
 13198 1a40 01       		.uleb128 0x1
 13199 1a41 51       		.byte	0x51
 13200 1a42 05       		.uleb128 0x5
 13201 1a43 03       		.byte	0x3
 13202 1a44 78040000 		.4byte	.LC66
 13203 1a48 00       		.byte	0
 13204 1a49 10       		.uleb128 0x10
 13205 1a4a 2C150000 		.4byte	.LVL545
 13206 1a4e 8E030000 		.4byte	0x38e
 13207 1a52 5D1A0000 		.4byte	0x1a5d
 13208 1a56 11       		.uleb128 0x11
 13209 1a57 01       		.uleb128 0x1
 13210 1a58 50       		.byte	0x50
 13211 1a59 02       		.uleb128 0x2
 13212 1a5a 74       		.byte	0x74
 13213 1a5b 00       		.sleb128 0
 13214 1a5c 00       		.byte	0
 13215 1a5d 10       		.uleb128 0x10
 13216 1a5e 68150000 		.4byte	.LVL546
 13217 1a62 58310000 		.4byte	0x3158
 13218 1a66 7A1A0000 		.4byte	0x1a7a
 13219 1a6a 11       		.uleb128 0x11
 13220 1a6b 01       		.uleb128 0x1
 13221 1a6c 50       		.byte	0x50
 13222 1a6d 02       		.uleb128 0x2
 13223 1a6e 74       		.byte	0x74
 13224 1a6f 00       		.sleb128 0
 13225 1a70 11       		.uleb128 0x11
 13226 1a71 01       		.uleb128 0x1
 13227 1a72 51       		.byte	0x51
 13228 1a73 05       		.uleb128 0x5
 13229 1a74 03       		.byte	0x3
 13230 1a75 A4040000 		.4byte	.LC67
 13231 1a79 00       		.byte	0
 13232 1a7a 10       		.uleb128 0x10
 13233 1a7b 6E150000 		.4byte	.LVL547
 13234 1a7f 8E030000 		.4byte	0x38e
 13235 1a83 8E1A0000 		.4byte	0x1a8e
 13236 1a87 11       		.uleb128 0x11
 13237 1a88 01       		.uleb128 0x1
 13238 1a89 50       		.byte	0x50
 13239 1a8a 02       		.uleb128 0x2
 13240 1a8b 74       		.byte	0x74
 13241 1a8c 00       		.sleb128 0
 13242 1a8d 00       		.byte	0
 13243 1a8e 10       		.uleb128 0x10
 13244 1a8f 1C160000 		.4byte	.LVL548
ARM GAS  C:\Users\JPELEC~1\AppData\Local\Temp\ccEetrge.s 			page 282


 13245 1a93 8E030000 		.4byte	0x38e
 13246 1a97 A21A0000 		.4byte	0x1aa2
 13247 1a9b 11       		.uleb128 0x11
 13248 1a9c 01       		.uleb128 0x1
 13249 1a9d 50       		.byte	0x50
 13250 1a9e 02       		.uleb128 0x2
 13251 1a9f 75       		.byte	0x75
 13252 1aa0 00       		.sleb128 0
 13253 1aa1 00       		.byte	0
 13254 1aa2 10       		.uleb128 0x10
 13255 1aa3 42160000 		.4byte	.LVL549
 13256 1aa7 58310000 		.4byte	0x3158
 13257 1aab BF1A0000 		.4byte	0x1abf
 13258 1aaf 11       		.uleb128 0x11
 13259 1ab0 01       		.uleb128 0x1
 13260 1ab1 50       		.byte	0x50
 13261 1ab2 02       		.uleb128 0x2
 13262 1ab3 77       		.byte	0x77
 13263 1ab4 00       		.sleb128 0
 13264 1ab5 11       		.uleb128 0x11
 13265 1ab6 01       		.uleb128 0x1
 13266 1ab7 51       		.byte	0x51
 13267 1ab8 05       		.uleb128 0x5
 13268 1ab9 03       		.byte	0x3
 13269 1aba C8040000 		.4byte	.LC69
 13270 1abe 00       		.byte	0
 13271 1abf 10       		.uleb128 0x10
 13272 1ac0 48160000 		.4byte	.LVL550
 13273 1ac4 8E030000 		.4byte	0x38e
 13274 1ac8 D31A0000 		.4byte	0x1ad3
 13275 1acc 11       		.uleb128 0x11
 13276 1acd 01       		.uleb128 0x1
 13277 1ace 50       		.byte	0x50
 13278 1acf 02       		.uleb128 0x2
 13279 1ad0 77       		.byte	0x77
 13280 1ad1 00       		.sleb128 0
 13281 1ad2 00       		.byte	0
 13282 1ad3 10       		.uleb128 0x10
 13283 1ad4 68160000 		.4byte	.LVL551
 13284 1ad8 58310000 		.4byte	0x3158
 13285 1adc F01A0000 		.4byte	0x1af0
 13286 1ae0 11       		.uleb128 0x11
 13287 1ae1 01       		.uleb128 0x1
 13288 1ae2 50       		.byte	0x50
 13289 1ae3 02       		.uleb128 0x2
 13290 1ae4 77       		.byte	0x77
 13291 1ae5 00       		.sleb128 0
 13292 1ae6 11       		.uleb128 0x11
 13293 1ae7 01       		.uleb128 0x1
 13294 1ae8 51       		.byte	0x51
 13295 1ae9 05       		.uleb128 0x5
 13296 1aea 03       		.byte	0x3
 13297 1aeb E0040000 		.4byte	.LC70
 13298 1aef 00       		.byte	0
 13299 1af0 10       		.uleb128 0x10
 13300 1af1 6E160000 		.4byte	.LVL552
 13301 1af5 8E030000 		.4byte	0x38e
ARM GAS  C:\Users\JPELEC~1\AppData\Local\Temp\ccEetrge.s 			page 283


 13302 1af9 041B0000 		.4byte	0x1b04
 13303 1afd 11       		.uleb128 0x11
 13304 1afe 01       		.uleb128 0x1
 13305 1aff 50       		.byte	0x50
 13306 1b00 02       		.uleb128 0x2
 13307 1b01 77       		.byte	0x77
 13308 1b02 00       		.sleb128 0
 13309 1b03 00       		.byte	0
 13310 1b04 10       		.uleb128 0x10
 13311 1b05 90160000 		.4byte	.LVL553
 13312 1b09 8E030000 		.4byte	0x38e
 13313 1b0d 181B0000 		.4byte	0x1b18
 13314 1b11 11       		.uleb128 0x11
 13315 1b12 01       		.uleb128 0x1
 13316 1b13 50       		.byte	0x50
 13317 1b14 02       		.uleb128 0x2
 13318 1b15 74       		.byte	0x74
 13319 1b16 00       		.sleb128 0
 13320 1b17 00       		.byte	0
 13321 1b18 10       		.uleb128 0x10
 13322 1b19 A6160000 		.4byte	.LVL554
 13323 1b1d 8E030000 		.4byte	0x38e
 13324 1b21 2C1B0000 		.4byte	0x1b2c
 13325 1b25 11       		.uleb128 0x11
 13326 1b26 01       		.uleb128 0x1
 13327 1b27 50       		.byte	0x50
 13328 1b28 02       		.uleb128 0x2
 13329 1b29 74       		.byte	0x74
 13330 1b2a 00       		.sleb128 0
 13331 1b2b 00       		.byte	0
 13332 1b2c 10       		.uleb128 0x10
 13333 1b2d C0160000 		.4byte	.LVL555
 13334 1b31 8E030000 		.4byte	0x38e
 13335 1b35 401B0000 		.4byte	0x1b40
 13336 1b39 11       		.uleb128 0x11
 13337 1b3a 01       		.uleb128 0x1
 13338 1b3b 50       		.byte	0x50
 13339 1b3c 02       		.uleb128 0x2
 13340 1b3d 74       		.byte	0x74
 13341 1b3e 00       		.sleb128 0
 13342 1b3f 00       		.byte	0
 13343 1b40 10       		.uleb128 0x10
 13344 1b41 F0160000 		.4byte	.LVL556
 13345 1b45 58310000 		.4byte	0x3158
 13346 1b49 5D1B0000 		.4byte	0x1b5d
 13347 1b4d 11       		.uleb128 0x11
 13348 1b4e 01       		.uleb128 0x1
 13349 1b4f 50       		.byte	0x50
 13350 1b50 02       		.uleb128 0x2
 13351 1b51 74       		.byte	0x74
 13352 1b52 00       		.sleb128 0
 13353 1b53 11       		.uleb128 0x11
 13354 1b54 01       		.uleb128 0x1
 13355 1b55 51       		.byte	0x51
 13356 1b56 05       		.uleb128 0x5
 13357 1b57 03       		.byte	0x3
 13358 1b58 A4040000 		.4byte	.LC67
ARM GAS  C:\Users\JPELEC~1\AppData\Local\Temp\ccEetrge.s 			page 284


 13359 1b5c 00       		.byte	0
 13360 1b5d 10       		.uleb128 0x10
 13361 1b5e F6160000 		.4byte	.LVL557
 13362 1b62 8E030000 		.4byte	0x38e
 13363 1b66 711B0000 		.4byte	0x1b71
 13364 1b6a 11       		.uleb128 0x11
 13365 1b6b 01       		.uleb128 0x1
 13366 1b6c 50       		.byte	0x50
 13367 1b6d 02       		.uleb128 0x2
 13368 1b6e 74       		.byte	0x74
 13369 1b6f 00       		.sleb128 0
 13370 1b70 00       		.byte	0
 13371 1b71 10       		.uleb128 0x10
 13372 1b72 0C170000 		.4byte	.LVL558
 13373 1b76 8E030000 		.4byte	0x38e
 13374 1b7a 851B0000 		.4byte	0x1b85
 13375 1b7e 11       		.uleb128 0x11
 13376 1b7f 01       		.uleb128 0x1
 13377 1b80 50       		.byte	0x50
 13378 1b81 02       		.uleb128 0x2
 13379 1b82 74       		.byte	0x74
 13380 1b83 00       		.sleb128 0
 13381 1b84 00       		.byte	0
 13382 1b85 10       		.uleb128 0x10
 13383 1b86 32170000 		.4byte	.LVL559
 13384 1b8a 58310000 		.4byte	0x3158
 13385 1b8e A21B0000 		.4byte	0x1ba2
 13386 1b92 11       		.uleb128 0x11
 13387 1b93 01       		.uleb128 0x1
 13388 1b94 50       		.byte	0x50
 13389 1b95 02       		.uleb128 0x2
 13390 1b96 77       		.byte	0x77
 13391 1b97 00       		.sleb128 0
 13392 1b98 11       		.uleb128 0x11
 13393 1b99 01       		.uleb128 0x1
 13394 1b9a 51       		.byte	0x51
 13395 1b9b 05       		.uleb128 0x5
 13396 1b9c 03       		.byte	0x3
 13397 1b9d C8040000 		.4byte	.LC69
 13398 1ba1 00       		.byte	0
 13399 1ba2 10       		.uleb128 0x10
 13400 1ba3 38170000 		.4byte	.LVL560
 13401 1ba7 8E030000 		.4byte	0x38e
 13402 1bab B61B0000 		.4byte	0x1bb6
 13403 1baf 11       		.uleb128 0x11
 13404 1bb0 01       		.uleb128 0x1
 13405 1bb1 50       		.byte	0x50
 13406 1bb2 02       		.uleb128 0x2
 13407 1bb3 77       		.byte	0x77
 13408 1bb4 00       		.sleb128 0
 13409 1bb5 00       		.byte	0
 13410 1bb6 10       		.uleb128 0x10
 13411 1bb7 58170000 		.4byte	.LVL561
 13412 1bbb 58310000 		.4byte	0x3158
 13413 1bbf D31B0000 		.4byte	0x1bd3
 13414 1bc3 11       		.uleb128 0x11
 13415 1bc4 01       		.uleb128 0x1
ARM GAS  C:\Users\JPELEC~1\AppData\Local\Temp\ccEetrge.s 			page 285


 13416 1bc5 50       		.byte	0x50
 13417 1bc6 02       		.uleb128 0x2
 13418 1bc7 77       		.byte	0x77
 13419 1bc8 00       		.sleb128 0
 13420 1bc9 11       		.uleb128 0x11
 13421 1bca 01       		.uleb128 0x1
 13422 1bcb 51       		.byte	0x51
 13423 1bcc 05       		.uleb128 0x5
 13424 1bcd 03       		.byte	0x3
 13425 1bce E0040000 		.4byte	.LC70
 13426 1bd2 00       		.byte	0
 13427 1bd3 10       		.uleb128 0x10
 13428 1bd4 5E170000 		.4byte	.LVL562
 13429 1bd8 8E030000 		.4byte	0x38e
 13430 1bdc E71B0000 		.4byte	0x1be7
 13431 1be0 11       		.uleb128 0x11
 13432 1be1 01       		.uleb128 0x1
 13433 1be2 50       		.byte	0x50
 13434 1be3 02       		.uleb128 0x2
 13435 1be4 77       		.byte	0x77
 13436 1be5 00       		.sleb128 0
 13437 1be6 00       		.byte	0
 13438 1be7 10       		.uleb128 0x10
 13439 1be8 72170000 		.4byte	.LVL563
 13440 1bec 8E030000 		.4byte	0x38e
 13441 1bf0 FE1B0000 		.4byte	0x1bfe
 13442 1bf4 11       		.uleb128 0x11
 13443 1bf5 01       		.uleb128 0x1
 13444 1bf6 50       		.byte	0x50
 13445 1bf7 05       		.uleb128 0x5
 13446 1bf8 03       		.byte	0x3
 13447 1bf9 20050000 		.4byte	.LC73
 13448 1bfd 00       		.byte	0
 13449 1bfe 10       		.uleb128 0x10
 13450 1bff 9A170000 		.4byte	.LVL564
 13451 1c03 8E030000 		.4byte	0x38e
 13452 1c07 151C0000 		.4byte	0x1c15
 13453 1c0b 11       		.uleb128 0x11
 13454 1c0c 01       		.uleb128 0x1
 13455 1c0d 50       		.byte	0x50
 13456 1c0e 05       		.uleb128 0x5
 13457 1c0f 03       		.byte	0x3
 13458 1c10 34050000 		.4byte	.LC74
 13459 1c14 00       		.byte	0
 13460 1c15 10       		.uleb128 0x10
 13461 1c16 C6170000 		.4byte	.LVL565
 13462 1c1a 8E030000 		.4byte	0x38e
 13463 1c1e 2C1C0000 		.4byte	0x1c2c
 13464 1c22 11       		.uleb128 0x11
 13465 1c23 01       		.uleb128 0x1
 13466 1c24 50       		.byte	0x50
 13467 1c25 05       		.uleb128 0x5
 13468 1c26 03       		.byte	0x3
 13469 1c27 40050000 		.4byte	.LC75
 13470 1c2b 00       		.byte	0
 13471 1c2c 10       		.uleb128 0x10
 13472 1c2d DA170000 		.4byte	.LVL566
ARM GAS  C:\Users\JPELEC~1\AppData\Local\Temp\ccEetrge.s 			page 286


 13473 1c31 8E030000 		.4byte	0x38e
 13474 1c35 431C0000 		.4byte	0x1c43
 13475 1c39 11       		.uleb128 0x11
 13476 1c3a 01       		.uleb128 0x1
 13477 1c3b 50       		.byte	0x50
 13478 1c3c 05       		.uleb128 0x5
 13479 1c3d 03       		.byte	0x3
 13480 1c3e 7C010000 		.4byte	.LC22
 13481 1c42 00       		.byte	0
 13482 1c43 10       		.uleb128 0x10
 13483 1c44 E0170000 		.4byte	.LVL567
 13484 1c48 D0020000 		.4byte	0x2d0
 13485 1c4c 5A1C0000 		.4byte	0x1c5a
 13486 1c50 11       		.uleb128 0x11
 13487 1c51 01       		.uleb128 0x1
 13488 1c52 50       		.byte	0x50
 13489 1c53 05       		.uleb128 0x5
 13490 1c54 03       		.byte	0x3
 13491 1c55 70000000 		.4byte	.LC6
 13492 1c59 00       		.byte	0
 13493 1c5a 10       		.uleb128 0x10
 13494 1c5b 66180000 		.4byte	.LVL568
 13495 1c5f 97320000 		.4byte	0x3297
 13496 1c63 6D1C0000 		.4byte	0x1c6d
 13497 1c67 11       		.uleb128 0x11
 13498 1c68 01       		.uleb128 0x1
 13499 1c69 50       		.byte	0x50
 13500 1c6a 01       		.uleb128 0x1
 13501 1c6b 31       		.byte	0x31
 13502 1c6c 00       		.byte	0
 13503 1c6d 10       		.uleb128 0x10
 13504 1c6e 6C180000 		.4byte	.LVL569
 13505 1c72 8C320000 		.4byte	0x328c
 13506 1c76 811C0000 		.4byte	0x1c81
 13507 1c7a 11       		.uleb128 0x11
 13508 1c7b 01       		.uleb128 0x1
 13509 1c7c 50       		.byte	0x50
 13510 1c7d 02       		.uleb128 0x2
 13511 1c7e 08       		.byte	0x8
 13512 1c7f 32       		.byte	0x32
 13513 1c80 00       		.byte	0
 13514 1c81 10       		.uleb128 0x10
 13515 1c82 72180000 		.4byte	.LVL570
 13516 1c86 97320000 		.4byte	0x3297
 13517 1c8a 941C0000 		.4byte	0x1c94
 13518 1c8e 11       		.uleb128 0x11
 13519 1c8f 01       		.uleb128 0x1
 13520 1c90 50       		.byte	0x50
 13521 1c91 01       		.uleb128 0x1
 13522 1c92 30       		.byte	0x30
 13523 1c93 00       		.byte	0
 13524 1c94 10       		.uleb128 0x10
 13525 1c95 78180000 		.4byte	.LVL571
 13526 1c99 8C320000 		.4byte	0x328c
 13527 1c9d A81C0000 		.4byte	0x1ca8
 13528 1ca1 11       		.uleb128 0x11
 13529 1ca2 01       		.uleb128 0x1
ARM GAS  C:\Users\JPELEC~1\AppData\Local\Temp\ccEetrge.s 			page 287


 13530 1ca3 50       		.byte	0x50
 13531 1ca4 02       		.uleb128 0x2
 13532 1ca5 08       		.byte	0x8
 13533 1ca6 32       		.byte	0x32
 13534 1ca7 00       		.byte	0
 13535 1ca8 10       		.uleb128 0x10
 13536 1ca9 B0180000 		.4byte	.LVL572
 13537 1cad D9320000 		.4byte	0x32d9
 13538 1cb1 BC1C0000 		.4byte	0x1cbc
 13539 1cb5 11       		.uleb128 0x11
 13540 1cb6 01       		.uleb128 0x1
 13541 1cb7 50       		.byte	0x50
 13542 1cb8 02       		.uleb128 0x2
 13543 1cb9 77       		.byte	0x77
 13544 1cba 00       		.sleb128 0
 13545 1cbb 00       		.byte	0
 13546 1cbc 10       		.uleb128 0x10
 13547 1cbd D0180000 		.4byte	.LVL573
 13548 1cc1 D9320000 		.4byte	0x32d9
 13549 1cc5 D01C0000 		.4byte	0x1cd0
 13550 1cc9 11       		.uleb128 0x11
 13551 1cca 01       		.uleb128 0x1
 13552 1ccb 50       		.byte	0x50
 13553 1ccc 02       		.uleb128 0x2
 13554 1ccd 77       		.byte	0x77
 13555 1cce 00       		.sleb128 0
 13556 1ccf 00       		.byte	0
 13557 1cd0 10       		.uleb128 0x10
 13558 1cd1 00190000 		.4byte	.LVL574
 13559 1cd5 D9320000 		.4byte	0x32d9
 13560 1cd9 E41C0000 		.4byte	0x1ce4
 13561 1cdd 11       		.uleb128 0x11
 13562 1cde 01       		.uleb128 0x1
 13563 1cdf 50       		.byte	0x50
 13564 1ce0 02       		.uleb128 0x2
 13565 1ce1 76       		.byte	0x76
 13566 1ce2 00       		.sleb128 0
 13567 1ce3 00       		.byte	0
 13568 1ce4 10       		.uleb128 0x10
 13569 1ce5 20190000 		.4byte	.LVL575
 13570 1ce9 D9320000 		.4byte	0x32d9
 13571 1ced F81C0000 		.4byte	0x1cf8
 13572 1cf1 11       		.uleb128 0x11
 13573 1cf2 01       		.uleb128 0x1
 13574 1cf3 50       		.byte	0x50
 13575 1cf4 02       		.uleb128 0x2
 13576 1cf5 76       		.byte	0x76
 13577 1cf6 00       		.sleb128 0
 13578 1cf7 00       		.byte	0
 13579 1cf8 10       		.uleb128 0x10
 13580 1cf9 34190000 		.4byte	.LVL576
 13581 1cfd 8E030000 		.4byte	0x38e
 13582 1d01 0F1D0000 		.4byte	0x1d0f
 13583 1d05 11       		.uleb128 0x11
 13584 1d06 01       		.uleb128 0x1
 13585 1d07 50       		.byte	0x50
 13586 1d08 05       		.uleb128 0x5
ARM GAS  C:\Users\JPELEC~1\AppData\Local\Temp\ccEetrge.s 			page 288


 13587 1d09 03       		.byte	0x3
 13588 1d0a 54050000 		.4byte	.LC76
 13589 1d0e 00       		.byte	0
 13590 1d0f 10       		.uleb128 0x10
 13591 1d10 4C190000 		.4byte	.LVL577
 13592 1d14 8C320000 		.4byte	0x328c
 13593 1d18 241D0000 		.4byte	0x1d24
 13594 1d1c 11       		.uleb128 0x11
 13595 1d1d 01       		.uleb128 0x1
 13596 1d1e 50       		.byte	0x50
 13597 1d1f 03       		.uleb128 0x3
 13598 1d20 0A       		.byte	0xa
 13599 1d21 D007     		.2byte	0x7d0
 13600 1d23 00       		.byte	0
 13601 1d24 10       		.uleb128 0x10
 13602 1d25 58190000 		.4byte	.LVL578
 13603 1d29 8E030000 		.4byte	0x38e
 13604 1d2d 3B1D0000 		.4byte	0x1d3b
 13605 1d31 11       		.uleb128 0x11
 13606 1d32 01       		.uleb128 0x1
 13607 1d33 50       		.byte	0x50
 13608 1d34 05       		.uleb128 0x5
 13609 1d35 03       		.byte	0x3
 13610 1d36 7C010000 		.4byte	.LC22
 13611 1d3a 00       		.byte	0
 13612 1d3b 10       		.uleb128 0x10
 13613 1d3c 70190000 		.4byte	.LVL579
 13614 1d40 8C320000 		.4byte	0x328c
 13615 1d44 501D0000 		.4byte	0x1d50
 13616 1d48 11       		.uleb128 0x11
 13617 1d49 01       		.uleb128 0x1
 13618 1d4a 50       		.byte	0x50
 13619 1d4b 03       		.uleb128 0x3
 13620 1d4c 0A       		.byte	0xa
 13621 1d4d D007     		.2byte	0x7d0
 13622 1d4f 00       		.byte	0
 13623 1d50 10       		.uleb128 0x10
 13624 1d51 7C190000 		.4byte	.LVL580
 13625 1d55 8E030000 		.4byte	0x38e
 13626 1d59 671D0000 		.4byte	0x1d67
 13627 1d5d 11       		.uleb128 0x11
 13628 1d5e 01       		.uleb128 0x1
 13629 1d5f 50       		.byte	0x50
 13630 1d60 05       		.uleb128 0x5
 13631 1d61 03       		.byte	0x3
 13632 1d62 B4000000 		.4byte	.LC12
 13633 1d66 00       		.byte	0
 13634 1d67 10       		.uleb128 0x10
 13635 1d68 94190000 		.4byte	.LVL581
 13636 1d6c 8C320000 		.4byte	0x328c
 13637 1d70 7C1D0000 		.4byte	0x1d7c
 13638 1d74 11       		.uleb128 0x11
 13639 1d75 01       		.uleb128 0x1
 13640 1d76 50       		.byte	0x50
 13641 1d77 03       		.uleb128 0x3
 13642 1d78 0A       		.byte	0xa
 13643 1d79 D007     		.2byte	0x7d0
ARM GAS  C:\Users\JPELEC~1\AppData\Local\Temp\ccEetrge.s 			page 289


 13644 1d7b 00       		.byte	0
 13645 1d7c 10       		.uleb128 0x10
 13646 1d7d A0190000 		.4byte	.LVL582
 13647 1d81 8E030000 		.4byte	0x38e
 13648 1d85 931D0000 		.4byte	0x1d93
 13649 1d89 11       		.uleb128 0x11
 13650 1d8a 01       		.uleb128 0x1
 13651 1d8b 50       		.byte	0x50
 13652 1d8c 05       		.uleb128 0x5
 13653 1d8d 03       		.byte	0x3
 13654 1d8e 7C010000 		.4byte	.LC22
 13655 1d92 00       		.byte	0
 13656 1d93 10       		.uleb128 0x10
 13657 1d94 BC190000 		.4byte	.LVL583
 13658 1d98 8E030000 		.4byte	0x38e
 13659 1d9c AA1D0000 		.4byte	0x1daa
 13660 1da0 11       		.uleb128 0x11
 13661 1da1 01       		.uleb128 0x1
 13662 1da2 50       		.byte	0x50
 13663 1da3 05       		.uleb128 0x5
 13664 1da4 03       		.byte	0x3
 13665 1da5 40050000 		.4byte	.LC75
 13666 1da9 00       		.byte	0
 13667 1daa 10       		.uleb128 0x10
 13668 1dab CA190000 		.4byte	.LVL584
 13669 1daf 8E030000 		.4byte	0x38e
 13670 1db3 C11D0000 		.4byte	0x1dc1
 13671 1db7 11       		.uleb128 0x11
 13672 1db8 01       		.uleb128 0x1
 13673 1db9 50       		.byte	0x50
 13674 1dba 05       		.uleb128 0x5
 13675 1dbb 03       		.byte	0x3
 13676 1dbc 7C010000 		.4byte	.LC22
 13677 1dc0 00       		.byte	0
 13678 1dc1 10       		.uleb128 0x10
 13679 1dc2 D0190000 		.4byte	.LVL585
 13680 1dc6 D0020000 		.4byte	0x2d0
 13681 1dca D81D0000 		.4byte	0x1dd8
 13682 1dce 11       		.uleb128 0x11
 13683 1dcf 01       		.uleb128 0x1
 13684 1dd0 50       		.byte	0x50
 13685 1dd1 05       		.uleb128 0x5
 13686 1dd2 03       		.byte	0x3
 13687 1dd3 70000000 		.4byte	.LC6
 13688 1dd7 00       		.byte	0
 13689 1dd8 10       		.uleb128 0x10
 13690 1dd9 E4190000 		.4byte	.LVL586
 13691 1ddd 00310000 		.4byte	0x3100
 13692 1de1 EC1D0000 		.4byte	0x1dec
 13693 1de5 11       		.uleb128 0x11
 13694 1de6 01       		.uleb128 0x1
 13695 1de7 50       		.byte	0x50
 13696 1de8 02       		.uleb128 0x2
 13697 1de9 74       		.byte	0x74
 13698 1dea 00       		.sleb128 0
 13699 1deb 00       		.byte	0
 13700 1dec 10       		.uleb128 0x10
ARM GAS  C:\Users\JPELEC~1\AppData\Local\Temp\ccEetrge.s 			page 290


 13701 1ded 441A0000 		.4byte	.LVL589
 13702 1df1 8E030000 		.4byte	0x38e
 13703 1df5 031E0000 		.4byte	0x1e03
 13704 1df9 11       		.uleb128 0x11
 13705 1dfa 01       		.uleb128 0x1
 13706 1dfb 50       		.byte	0x50
 13707 1dfc 05       		.uleb128 0x5
 13708 1dfd 03       		.byte	0x3
 13709 1dfe 40050000 		.4byte	.LC75
 13710 1e02 00       		.byte	0
 13711 1e03 10       		.uleb128 0x10
 13712 1e04 921A0000 		.4byte	.LVL591
 13713 1e08 58310000 		.4byte	0x3158
 13714 1e0c 201E0000 		.4byte	0x1e20
 13715 1e10 11       		.uleb128 0x11
 13716 1e11 01       		.uleb128 0x1
 13717 1e12 50       		.byte	0x50
 13718 1e13 02       		.uleb128 0x2
 13719 1e14 74       		.byte	0x74
 13720 1e15 00       		.sleb128 0
 13721 1e16 11       		.uleb128 0x11
 13722 1e17 01       		.uleb128 0x1
 13723 1e18 51       		.byte	0x51
 13724 1e19 05       		.uleb128 0x5
 13725 1e1a 03       		.byte	0x3
 13726 1e1b 64050000 		.4byte	.LC77
 13727 1e1f 00       		.byte	0
 13728 1e20 10       		.uleb128 0x10
 13729 1e21 981A0000 		.4byte	.LVL592
 13730 1e25 D0020000 		.4byte	0x2d0
 13731 1e29 341E0000 		.4byte	0x1e34
 13732 1e2d 11       		.uleb128 0x11
 13733 1e2e 01       		.uleb128 0x1
 13734 1e2f 50       		.byte	0x50
 13735 1e30 02       		.uleb128 0x2
 13736 1e31 74       		.byte	0x74
 13737 1e32 00       		.sleb128 0
 13738 1e33 00       		.byte	0
 13739 1e34 10       		.uleb128 0x10
 13740 1e35 9E1A0000 		.4byte	.LVL593
 13741 1e39 8E030000 		.4byte	0x38e
 13742 1e3d 4B1E0000 		.4byte	0x1e4b
 13743 1e41 11       		.uleb128 0x11
 13744 1e42 01       		.uleb128 0x1
 13745 1e43 50       		.byte	0x50
 13746 1e44 05       		.uleb128 0x5
 13747 1e45 03       		.byte	0x3
 13748 1e46 94050000 		.4byte	.LC78
 13749 1e4a 00       		.byte	0
 13750 1e4b 10       		.uleb128 0x10
 13751 1e4c AC1A0000 		.4byte	.LVL594
 13752 1e50 8E030000 		.4byte	0x38e
 13753 1e54 621E0000 		.4byte	0x1e62
 13754 1e58 11       		.uleb128 0x11
 13755 1e59 01       		.uleb128 0x1
 13756 1e5a 50       		.byte	0x50
 13757 1e5b 05       		.uleb128 0x5
ARM GAS  C:\Users\JPELEC~1\AppData\Local\Temp\ccEetrge.s 			page 291


 13758 1e5c 03       		.byte	0x3
 13759 1e5d B8050000 		.4byte	.LC79
 13760 1e61 00       		.byte	0
 13761 1e62 10       		.uleb128 0x10
 13762 1e63 FA1B0000 		.4byte	.LVL599
 13763 1e67 8E030000 		.4byte	0x38e
 13764 1e6b 791E0000 		.4byte	0x1e79
 13765 1e6f 11       		.uleb128 0x11
 13766 1e70 01       		.uleb128 0x1
 13767 1e71 50       		.byte	0x50
 13768 1e72 05       		.uleb128 0x5
 13769 1e73 03       		.byte	0x3
 13770 1e74 C8050000 		.4byte	.LC80
 13771 1e78 00       		.byte	0
 13772 1e79 13       		.uleb128 0x13
 13773 1e7a 121C0000 		.4byte	.LVL600
 13774 1e7e FA320000 		.4byte	0x32fa
 13775 1e82 10       		.uleb128 0x10
 13776 1e83 461C0000 		.4byte	.LVL603
 13777 1e87 00310000 		.4byte	0x3100
 13778 1e8b 961E0000 		.4byte	0x1e96
 13779 1e8f 11       		.uleb128 0x11
 13780 1e90 01       		.uleb128 0x1
 13781 1e91 50       		.byte	0x50
 13782 1e92 02       		.uleb128 0x2
 13783 1e93 74       		.byte	0x74
 13784 1e94 00       		.sleb128 0
 13785 1e95 00       		.byte	0
 13786 1e96 10       		.uleb128 0x10
 13787 1e97 521C0000 		.4byte	.LVL604
 13788 1e9b 8E030000 		.4byte	0x38e
 13789 1e9f AD1E0000 		.4byte	0x1ead
 13790 1ea3 11       		.uleb128 0x11
 13791 1ea4 01       		.uleb128 0x1
 13792 1ea5 50       		.byte	0x50
 13793 1ea6 05       		.uleb128 0x5
 13794 1ea7 03       		.byte	0x3
 13795 1ea8 D4050000 		.4byte	.LC81
 13796 1eac 00       		.byte	0
 13797 1ead 10       		.uleb128 0x10
 13798 1eae 581C0000 		.4byte	.LVL605
 13799 1eb2 97320000 		.4byte	0x3297
 13800 1eb6 C01E0000 		.4byte	0x1ec0
 13801 1eba 11       		.uleb128 0x11
 13802 1ebb 01       		.uleb128 0x1
 13803 1ebc 50       		.byte	0x50
 13804 1ebd 01       		.uleb128 0x1
 13805 1ebe 31       		.byte	0x31
 13806 1ebf 00       		.byte	0
 13807 1ec0 10       		.uleb128 0x10
 13808 1ec1 601C0000 		.4byte	.LVL606
 13809 1ec5 8C320000 		.4byte	0x328c
 13810 1ec9 D51E0000 		.4byte	0x1ed5
 13811 1ecd 11       		.uleb128 0x11
 13812 1ece 01       		.uleb128 0x1
 13813 1ecf 50       		.byte	0x50
 13814 1ed0 03       		.uleb128 0x3
ARM GAS  C:\Users\JPELEC~1\AppData\Local\Temp\ccEetrge.s 			page 292


 13815 1ed1 0A       		.byte	0xa
 13816 1ed2 F401     		.2byte	0x1f4
 13817 1ed4 00       		.byte	0
 13818 1ed5 10       		.uleb128 0x10
 13819 1ed6 661C0000 		.4byte	.LVL607
 13820 1eda 97320000 		.4byte	0x3297
 13821 1ede E91E0000 		.4byte	0x1ee9
 13822 1ee2 11       		.uleb128 0x11
 13823 1ee3 01       		.uleb128 0x1
 13824 1ee4 50       		.byte	0x50
 13825 1ee5 02       		.uleb128 0x2
 13826 1ee6 74       		.byte	0x74
 13827 1ee7 00       		.sleb128 0
 13828 1ee8 00       		.byte	0
 13829 1ee9 10       		.uleb128 0x10
 13830 1eea 6E1C0000 		.4byte	.LVL608
 13831 1eee 8C320000 		.4byte	0x328c
 13832 1ef2 FE1E0000 		.4byte	0x1efe
 13833 1ef6 11       		.uleb128 0x11
 13834 1ef7 01       		.uleb128 0x1
 13835 1ef8 50       		.byte	0x50
 13836 1ef9 03       		.uleb128 0x3
 13837 1efa 0A       		.byte	0xa
 13838 1efb F401     		.2byte	0x1f4
 13839 1efd 00       		.byte	0
 13840 1efe 10       		.uleb128 0x10
 13841 1eff 7E1C0000 		.4byte	.LVL609
 13842 1f03 8E030000 		.4byte	0x38e
 13843 1f07 151F0000 		.4byte	0x1f15
 13844 1f0b 11       		.uleb128 0x11
 13845 1f0c 01       		.uleb128 0x1
 13846 1f0d 50       		.byte	0x50
 13847 1f0e 05       		.uleb128 0x5
 13848 1f0f 03       		.byte	0x3
 13849 1f10 C8050000 		.4byte	.LC80
 13850 1f14 00       		.byte	0
 13851 1f15 13       		.uleb128 0x13
 13852 1f16 821C0000 		.4byte	.LVL610
 13853 1f1a BF020000 		.4byte	0x2bf
 13854 1f1e 13       		.uleb128 0x13
 13855 1f1f 861C0000 		.4byte	.LVL611
 13856 1f23 19070000 		.4byte	0x719
 13857 1f27 10       		.uleb128 0x10
 13858 1f28 8E1C0000 		.4byte	.LVL612
 13859 1f2c 8E030000 		.4byte	0x38e
 13860 1f30 3E1F0000 		.4byte	0x1f3e
 13861 1f34 11       		.uleb128 0x11
 13862 1f35 01       		.uleb128 0x1
 13863 1f36 50       		.byte	0x50
 13864 1f37 05       		.uleb128 0x5
 13865 1f38 03       		.byte	0x3
 13866 1f39 EC050000 		.4byte	.LC82
 13867 1f3d 00       		.byte	0
 13868 1f3e 10       		.uleb128 0x10
 13869 1f3f A01C0000 		.4byte	.LVL613
 13870 1f43 00310000 		.4byte	0x3100
 13871 1f47 511F0000 		.4byte	0x1f51
ARM GAS  C:\Users\JPELEC~1\AppData\Local\Temp\ccEetrge.s 			page 293


 13872 1f4b 11       		.uleb128 0x11
 13873 1f4c 01       		.uleb128 0x1
 13874 1f4d 50       		.byte	0x50
 13875 1f4e 01       		.uleb128 0x1
 13876 1f4f 30       		.byte	0x30
 13877 1f50 00       		.byte	0
 13878 1f51 13       		.uleb128 0x13
 13879 1f52 AA1C0000 		.4byte	.LVL614
 13880 1f56 FA320000 		.4byte	0x32fa
 13881 1f5a 10       		.uleb128 0x10
 13882 1f5b B41C0000 		.4byte	.LVL615
 13883 1f5f 8E030000 		.4byte	0x38e
 13884 1f63 711F0000 		.4byte	0x1f71
 13885 1f67 11       		.uleb128 0x11
 13886 1f68 01       		.uleb128 0x1
 13887 1f69 50       		.byte	0x50
 13888 1f6a 05       		.uleb128 0x5
 13889 1f6b 03       		.byte	0x3
 13890 1f6c F8050000 		.4byte	.LC83
 13891 1f70 00       		.byte	0
 13892 1f71 10       		.uleb128 0x10
 13893 1f72 CC1C0000 		.4byte	.LVL616
 13894 1f76 97320000 		.4byte	0x3297
 13895 1f7a 841F0000 		.4byte	0x1f84
 13896 1f7e 11       		.uleb128 0x11
 13897 1f7f 01       		.uleb128 0x1
 13898 1f80 50       		.byte	0x50
 13899 1f81 01       		.uleb128 0x1
 13900 1f82 31       		.byte	0x31
 13901 1f83 00       		.byte	0
 13902 1f84 10       		.uleb128 0x10
 13903 1f85 D41C0000 		.4byte	.LVL617
 13904 1f89 8C320000 		.4byte	0x328c
 13905 1f8d 991F0000 		.4byte	0x1f99
 13906 1f91 11       		.uleb128 0x11
 13907 1f92 01       		.uleb128 0x1
 13908 1f93 50       		.byte	0x50
 13909 1f94 03       		.uleb128 0x3
 13910 1f95 0A       		.byte	0xa
 13911 1f96 E803     		.2byte	0x3e8
 13912 1f98 00       		.byte	0
 13913 1f99 10       		.uleb128 0x10
 13914 1f9a DA1C0000 		.4byte	.LVL618
 13915 1f9e 97320000 		.4byte	0x3297
 13916 1fa2 AC1F0000 		.4byte	0x1fac
 13917 1fa6 11       		.uleb128 0x11
 13918 1fa7 01       		.uleb128 0x1
 13919 1fa8 50       		.byte	0x50
 13920 1fa9 01       		.uleb128 0x1
 13921 1faa 30       		.byte	0x30
 13922 1fab 00       		.byte	0
 13923 1fac 10       		.uleb128 0x10
 13924 1fad E21C0000 		.4byte	.LVL619
 13925 1fb1 8C320000 		.4byte	0x328c
 13926 1fb5 C11F0000 		.4byte	0x1fc1
 13927 1fb9 11       		.uleb128 0x11
 13928 1fba 01       		.uleb128 0x1
ARM GAS  C:\Users\JPELEC~1\AppData\Local\Temp\ccEetrge.s 			page 294


 13929 1fbb 50       		.byte	0x50
 13930 1fbc 03       		.uleb128 0x3
 13931 1fbd 0A       		.byte	0xa
 13932 1fbe E803     		.2byte	0x3e8
 13933 1fc0 00       		.byte	0
 13934 1fc1 10       		.uleb128 0x10
 13935 1fc2 FE1C0000 		.4byte	.LVL620
 13936 1fc6 8E030000 		.4byte	0x38e
 13937 1fca D81F0000 		.4byte	0x1fd8
 13938 1fce 11       		.uleb128 0x11
 13939 1fcf 01       		.uleb128 0x1
 13940 1fd0 50       		.byte	0x50
 13941 1fd1 05       		.uleb128 0x5
 13942 1fd2 03       		.byte	0x3
 13943 1fd3 0C060000 		.4byte	.LC84
 13944 1fd7 00       		.byte	0
 13945 1fd8 10       		.uleb128 0x10
 13946 1fd9 041D0000 		.4byte	.LVL621
 13947 1fdd 00310000 		.4byte	0x3100
 13948 1fe1 EB1F0000 		.4byte	0x1feb
 13949 1fe5 11       		.uleb128 0x11
 13950 1fe6 01       		.uleb128 0x1
 13951 1fe7 50       		.byte	0x50
 13952 1fe8 01       		.uleb128 0x1
 13953 1fe9 30       		.byte	0x30
 13954 1fea 00       		.byte	0
 13955 1feb 10       		.uleb128 0x10
 13956 1fec 821D0000 		.4byte	.LVL627
 13957 1ff0 8E030000 		.4byte	0x38e
 13958 1ff4 FF1F0000 		.4byte	0x1fff
 13959 1ff8 11       		.uleb128 0x11
 13960 1ff9 01       		.uleb128 0x1
 13961 1ffa 50       		.byte	0x50
 13962 1ffb 02       		.uleb128 0x2
 13963 1ffc 74       		.byte	0x74
 13964 1ffd 00       		.sleb128 0
 13965 1ffe 00       		.byte	0
 13966 1fff 10       		.uleb128 0x10
 13967 2000 881D0000 		.4byte	.LVL628
 13968 2004 00310000 		.4byte	0x3100
 13969 2008 12200000 		.4byte	0x2012
 13970 200c 11       		.uleb128 0x11
 13971 200d 01       		.uleb128 0x1
 13972 200e 50       		.byte	0x50
 13973 200f 01       		.uleb128 0x1
 13974 2010 30       		.byte	0x30
 13975 2011 00       		.byte	0
 13976 2012 10       		.uleb128 0x10
 13977 2013 C61D0000 		.4byte	.LVL631
 13978 2017 58310000 		.4byte	0x3158
 13979 201b 2F200000 		.4byte	0x202f
 13980 201f 11       		.uleb128 0x11
 13981 2020 01       		.uleb128 0x1
 13982 2021 50       		.byte	0x50
 13983 2022 02       		.uleb128 0x2
 13984 2023 74       		.byte	0x74
 13985 2024 00       		.sleb128 0
ARM GAS  C:\Users\JPELEC~1\AppData\Local\Temp\ccEetrge.s 			page 295


 13986 2025 11       		.uleb128 0x11
 13987 2026 01       		.uleb128 0x1
 13988 2027 51       		.byte	0x51
 13989 2028 05       		.uleb128 0x5
 13990 2029 03       		.byte	0x3
 13991 202a 38060000 		.4byte	.LC86
 13992 202e 00       		.byte	0
 13993 202f 10       		.uleb128 0x10
 13994 2030 CC1D0000 		.4byte	.LVL632
 13995 2034 8E030000 		.4byte	0x38e
 13996 2038 43200000 		.4byte	0x2043
 13997 203c 11       		.uleb128 0x11
 13998 203d 01       		.uleb128 0x1
 13999 203e 50       		.byte	0x50
 14000 203f 02       		.uleb128 0x2
 14001 2040 74       		.byte	0x74
 14002 2041 00       		.sleb128 0
 14003 2042 00       		.byte	0
 14004 2043 10       		.uleb128 0x10
 14005 2044 6C1E0000 		.4byte	.LVL634
 14006 2048 58310000 		.4byte	0x3158
 14007 204c 60200000 		.4byte	0x2060
 14008 2050 11       		.uleb128 0x11
 14009 2051 01       		.uleb128 0x1
 14010 2052 50       		.byte	0x50
 14011 2053 02       		.uleb128 0x2
 14012 2054 74       		.byte	0x74
 14013 2055 00       		.sleb128 0
 14014 2056 11       		.uleb128 0x11
 14015 2057 01       		.uleb128 0x1
 14016 2058 51       		.byte	0x51
 14017 2059 05       		.uleb128 0x5
 14018 205a 03       		.byte	0x3
 14019 205b 4C060000 		.4byte	.LC87
 14020 205f 00       		.byte	0
 14021 2060 10       		.uleb128 0x10
 14022 2061 721E0000 		.4byte	.LVL635
 14023 2065 8E030000 		.4byte	0x38e
 14024 2069 74200000 		.4byte	0x2074
 14025 206d 11       		.uleb128 0x11
 14026 206e 01       		.uleb128 0x1
 14027 206f 50       		.byte	0x50
 14028 2070 02       		.uleb128 0x2
 14029 2071 74       		.byte	0x74
 14030 2072 00       		.sleb128 0
 14031 2073 00       		.byte	0
 14032 2074 10       		.uleb128 0x10
 14033 2075 801E0000 		.4byte	.LVL636
 14034 2079 58310000 		.4byte	0x3158
 14035 207d 91200000 		.4byte	0x2091
 14036 2081 11       		.uleb128 0x11
 14037 2082 01       		.uleb128 0x1
 14038 2083 50       		.byte	0x50
 14039 2084 02       		.uleb128 0x2
 14040 2085 74       		.byte	0x74
 14041 2086 00       		.sleb128 0
 14042 2087 11       		.uleb128 0x11
ARM GAS  C:\Users\JPELEC~1\AppData\Local\Temp\ccEetrge.s 			page 296


 14043 2088 01       		.uleb128 0x1
 14044 2089 51       		.byte	0x51
 14045 208a 05       		.uleb128 0x5
 14046 208b 03       		.byte	0x3
 14047 208c 60060000 		.4byte	.LC88
 14048 2090 00       		.byte	0
 14049 2091 10       		.uleb128 0x10
 14050 2092 861E0000 		.4byte	.LVL637
 14051 2096 8E030000 		.4byte	0x38e
 14052 209a A5200000 		.4byte	0x20a5
 14053 209e 11       		.uleb128 0x11
 14054 209f 01       		.uleb128 0x1
 14055 20a0 50       		.byte	0x50
 14056 20a1 02       		.uleb128 0x2
 14057 20a2 74       		.byte	0x74
 14058 20a3 00       		.sleb128 0
 14059 20a4 00       		.byte	0
 14060 20a5 10       		.uleb128 0x10
 14061 20a6 961E0000 		.4byte	.LVL638
 14062 20aa 58310000 		.4byte	0x3158
 14063 20ae C2200000 		.4byte	0x20c2
 14064 20b2 11       		.uleb128 0x11
 14065 20b3 01       		.uleb128 0x1
 14066 20b4 50       		.byte	0x50
 14067 20b5 02       		.uleb128 0x2
 14068 20b6 74       		.byte	0x74
 14069 20b7 00       		.sleb128 0
 14070 20b8 11       		.uleb128 0x11
 14071 20b9 01       		.uleb128 0x1
 14072 20ba 51       		.byte	0x51
 14073 20bb 05       		.uleb128 0x5
 14074 20bc 03       		.byte	0x3
 14075 20bd 78060000 		.4byte	.LC89
 14076 20c1 00       		.byte	0
 14077 20c2 10       		.uleb128 0x10
 14078 20c3 9C1E0000 		.4byte	.LVL639
 14079 20c7 8E030000 		.4byte	0x38e
 14080 20cb D6200000 		.4byte	0x20d6
 14081 20cf 11       		.uleb128 0x11
 14082 20d0 01       		.uleb128 0x1
 14083 20d1 50       		.byte	0x50
 14084 20d2 02       		.uleb128 0x2
 14085 20d3 74       		.byte	0x74
 14086 20d4 00       		.sleb128 0
 14087 20d5 00       		.byte	0
 14088 20d6 10       		.uleb128 0x10
 14089 20d7 AC1E0000 		.4byte	.LVL640
 14090 20db 58310000 		.4byte	0x3158
 14091 20df F3200000 		.4byte	0x20f3
 14092 20e3 11       		.uleb128 0x11
 14093 20e4 01       		.uleb128 0x1
 14094 20e5 50       		.byte	0x50
 14095 20e6 02       		.uleb128 0x2
 14096 20e7 74       		.byte	0x74
 14097 20e8 00       		.sleb128 0
 14098 20e9 11       		.uleb128 0x11
 14099 20ea 01       		.uleb128 0x1
ARM GAS  C:\Users\JPELEC~1\AppData\Local\Temp\ccEetrge.s 			page 297


 14100 20eb 51       		.byte	0x51
 14101 20ec 05       		.uleb128 0x5
 14102 20ed 03       		.byte	0x3
 14103 20ee 98060000 		.4byte	.LC90
 14104 20f2 00       		.byte	0
 14105 20f3 10       		.uleb128 0x10
 14106 20f4 B21E0000 		.4byte	.LVL641
 14107 20f8 8E030000 		.4byte	0x38e
 14108 20fc 07210000 		.4byte	0x2107
 14109 2100 11       		.uleb128 0x11
 14110 2101 01       		.uleb128 0x1
 14111 2102 50       		.byte	0x50
 14112 2103 02       		.uleb128 0x2
 14113 2104 74       		.byte	0x74
 14114 2105 00       		.sleb128 0
 14115 2106 00       		.byte	0
 14116 2107 10       		.uleb128 0x10
 14117 2108 BE1E0000 		.4byte	.LVL642
 14118 210c 58310000 		.4byte	0x3158
 14119 2110 24210000 		.4byte	0x2124
 14120 2114 11       		.uleb128 0x11
 14121 2115 01       		.uleb128 0x1
 14122 2116 50       		.byte	0x50
 14123 2117 02       		.uleb128 0x2
 14124 2118 74       		.byte	0x74
 14125 2119 00       		.sleb128 0
 14126 211a 11       		.uleb128 0x11
 14127 211b 01       		.uleb128 0x1
 14128 211c 51       		.byte	0x51
 14129 211d 05       		.uleb128 0x5
 14130 211e 03       		.byte	0x3
 14131 211f AC060000 		.4byte	.LC91
 14132 2123 00       		.byte	0
 14133 2124 10       		.uleb128 0x10
 14134 2125 C41E0000 		.4byte	.LVL643
 14135 2129 8E030000 		.4byte	0x38e
 14136 212d 38210000 		.4byte	0x2138
 14137 2131 11       		.uleb128 0x11
 14138 2132 01       		.uleb128 0x1
 14139 2133 50       		.byte	0x50
 14140 2134 02       		.uleb128 0x2
 14141 2135 74       		.byte	0x74
 14142 2136 00       		.sleb128 0
 14143 2137 00       		.byte	0
 14144 2138 10       		.uleb128 0x10
 14145 2139 D21E0000 		.4byte	.LVL644
 14146 213d 58310000 		.4byte	0x3158
 14147 2141 55210000 		.4byte	0x2155
 14148 2145 11       		.uleb128 0x11
 14149 2146 01       		.uleb128 0x1
 14150 2147 50       		.byte	0x50
 14151 2148 02       		.uleb128 0x2
 14152 2149 74       		.byte	0x74
 14153 214a 00       		.sleb128 0
 14154 214b 11       		.uleb128 0x11
 14155 214c 01       		.uleb128 0x1
 14156 214d 51       		.byte	0x51
ARM GAS  C:\Users\JPELEC~1\AppData\Local\Temp\ccEetrge.s 			page 298


 14157 214e 05       		.uleb128 0x5
 14158 214f 03       		.byte	0x3
 14159 2150 C4060000 		.4byte	.LC92
 14160 2154 00       		.byte	0
 14161 2155 10       		.uleb128 0x10
 14162 2156 D81E0000 		.4byte	.LVL645
 14163 215a 8E030000 		.4byte	0x38e
 14164 215e 69210000 		.4byte	0x2169
 14165 2162 11       		.uleb128 0x11
 14166 2163 01       		.uleb128 0x1
 14167 2164 50       		.byte	0x50
 14168 2165 02       		.uleb128 0x2
 14169 2166 74       		.byte	0x74
 14170 2167 00       		.sleb128 0
 14171 2168 00       		.byte	0
 14172 2169 10       		.uleb128 0x10
 14173 216a EA1E0000 		.4byte	.LVL647
 14174 216e 58310000 		.4byte	0x3158
 14175 2172 86210000 		.4byte	0x2186
 14176 2176 11       		.uleb128 0x11
 14177 2177 01       		.uleb128 0x1
 14178 2178 50       		.byte	0x50
 14179 2179 02       		.uleb128 0x2
 14180 217a 74       		.byte	0x74
 14181 217b 00       		.sleb128 0
 14182 217c 11       		.uleb128 0x11
 14183 217d 01       		.uleb128 0x1
 14184 217e 51       		.byte	0x51
 14185 217f 05       		.uleb128 0x5
 14186 2180 03       		.byte	0x3
 14187 2181 E0060000 		.4byte	.LC93
 14188 2185 00       		.byte	0
 14189 2186 10       		.uleb128 0x10
 14190 2187 F01E0000 		.4byte	.LVL648
 14191 218b 8E030000 		.4byte	0x38e
 14192 218f 9A210000 		.4byte	0x219a
 14193 2193 11       		.uleb128 0x11
 14194 2194 01       		.uleb128 0x1
 14195 2195 50       		.byte	0x50
 14196 2196 02       		.uleb128 0x2
 14197 2197 74       		.byte	0x74
 14198 2198 00       		.sleb128 0
 14199 2199 00       		.byte	0
 14200 219a 10       		.uleb128 0x10
 14201 219b 041F0000 		.4byte	.LVL650
 14202 219f 58310000 		.4byte	0x3158
 14203 21a3 B7210000 		.4byte	0x21b7
 14204 21a7 11       		.uleb128 0x11
 14205 21a8 01       		.uleb128 0x1
 14206 21a9 50       		.byte	0x50
 14207 21aa 02       		.uleb128 0x2
 14208 21ab 74       		.byte	0x74
 14209 21ac 00       		.sleb128 0
 14210 21ad 11       		.uleb128 0x11
 14211 21ae 01       		.uleb128 0x1
 14212 21af 51       		.byte	0x51
 14213 21b0 05       		.uleb128 0x5
ARM GAS  C:\Users\JPELEC~1\AppData\Local\Temp\ccEetrge.s 			page 299


 14214 21b1 03       		.byte	0x3
 14215 21b2 FC060000 		.4byte	.LC94
 14216 21b6 00       		.byte	0
 14217 21b7 10       		.uleb128 0x10
 14218 21b8 0A1F0000 		.4byte	.LVL651
 14219 21bc 8E030000 		.4byte	0x38e
 14220 21c0 CB210000 		.4byte	0x21cb
 14221 21c4 11       		.uleb128 0x11
 14222 21c5 01       		.uleb128 0x1
 14223 21c6 50       		.byte	0x50
 14224 21c7 02       		.uleb128 0x2
 14225 21c8 74       		.byte	0x74
 14226 21c9 00       		.sleb128 0
 14227 21ca 00       		.byte	0
 14228 21cb 13       		.uleb128 0x13
 14229 21cc 1C1F0000 		.4byte	.LVL652
 14230 21d0 AE020000 		.4byte	0x2ae
 14231 21d4 10       		.uleb128 0x10
 14232 21d5 761F0000 		.4byte	.LVL653
 14233 21d9 97320000 		.4byte	0x3297
 14234 21dd E7210000 		.4byte	0x21e7
 14235 21e1 11       		.uleb128 0x11
 14236 21e2 01       		.uleb128 0x1
 14237 21e3 50       		.byte	0x50
 14238 21e4 01       		.uleb128 0x1
 14239 21e5 31       		.byte	0x31
 14240 21e6 00       		.byte	0
 14241 21e7 10       		.uleb128 0x10
 14242 21e8 7E1F0000 		.4byte	.LVL654
 14243 21ec 8C320000 		.4byte	0x328c
 14244 21f0 FC210000 		.4byte	0x21fc
 14245 21f4 11       		.uleb128 0x11
 14246 21f5 01       		.uleb128 0x1
 14247 21f6 50       		.byte	0x50
 14248 21f7 03       		.uleb128 0x3
 14249 21f8 0A       		.byte	0xa
 14250 21f9 E803     		.2byte	0x3e8
 14251 21fb 00       		.byte	0
 14252 21fc 10       		.uleb128 0x10
 14253 21fd 841F0000 		.4byte	.LVL655
 14254 2201 97320000 		.4byte	0x3297
 14255 2205 0F220000 		.4byte	0x220f
 14256 2209 11       		.uleb128 0x11
 14257 220a 01       		.uleb128 0x1
 14258 220b 50       		.byte	0x50
 14259 220c 01       		.uleb128 0x1
 14260 220d 30       		.byte	0x30
 14261 220e 00       		.byte	0
 14262 220f 10       		.uleb128 0x10
 14263 2210 8C1F0000 		.4byte	.LVL656
 14264 2214 8C320000 		.4byte	0x328c
 14265 2218 24220000 		.4byte	0x2224
 14266 221c 11       		.uleb128 0x11
 14267 221d 01       		.uleb128 0x1
 14268 221e 50       		.byte	0x50
 14269 221f 03       		.uleb128 0x3
 14270 2220 0A       		.byte	0xa
ARM GAS  C:\Users\JPELEC~1\AppData\Local\Temp\ccEetrge.s 			page 300


 14271 2221 E803     		.2byte	0x3e8
 14272 2223 00       		.byte	0
 14273 2224 10       		.uleb128 0x10
 14274 2225 CE1F0000 		.4byte	.LVL657
 14275 2229 8E030000 		.4byte	0x38e
 14276 222d 3B220000 		.4byte	0x223b
 14277 2231 11       		.uleb128 0x11
 14278 2232 01       		.uleb128 0x1
 14279 2233 50       		.byte	0x50
 14280 2234 05       		.uleb128 0x5
 14281 2235 03       		.byte	0x3
 14282 2236 1C070000 		.4byte	.LC95
 14283 223a 00       		.byte	0
 14284 223b 10       		.uleb128 0x10
 14285 223c E21F0000 		.4byte	.LVL659
 14286 2240 58310000 		.4byte	0x3158
 14287 2244 58220000 		.4byte	0x2258
 14288 2248 11       		.uleb128 0x11
 14289 2249 01       		.uleb128 0x1
 14290 224a 50       		.byte	0x50
 14291 224b 02       		.uleb128 0x2
 14292 224c 74       		.byte	0x74
 14293 224d 00       		.sleb128 0
 14294 224e 11       		.uleb128 0x11
 14295 224f 01       		.uleb128 0x1
 14296 2250 51       		.byte	0x51
 14297 2251 05       		.uleb128 0x5
 14298 2252 03       		.byte	0x3
 14299 2253 3C070000 		.4byte	.LC96
 14300 2257 00       		.byte	0
 14301 2258 10       		.uleb128 0x10
 14302 2259 E81F0000 		.4byte	.LVL660
 14303 225d 8E030000 		.4byte	0x38e
 14304 2261 6C220000 		.4byte	0x226c
 14305 2265 11       		.uleb128 0x11
 14306 2266 01       		.uleb128 0x1
 14307 2267 50       		.byte	0x50
 14308 2268 02       		.uleb128 0x2
 14309 2269 74       		.byte	0x74
 14310 226a 00       		.sleb128 0
 14311 226b 00       		.byte	0
 14312 226c 10       		.uleb128 0x10
 14313 226d F61F0000 		.4byte	.LVL661
 14314 2271 8C320000 		.4byte	0x328c
 14315 2275 7F220000 		.4byte	0x227f
 14316 2279 11       		.uleb128 0x11
 14317 227a 01       		.uleb128 0x1
 14318 227b 50       		.byte	0x50
 14319 227c 01       		.uleb128 0x1
 14320 227d 44       		.byte	0x44
 14321 227e 00       		.byte	0
 14322 227f 10       		.uleb128 0x10
 14323 2280 24200000 		.4byte	.LVL663
 14324 2284 8C320000 		.4byte	0x328c
 14325 2288 92220000 		.4byte	0x2292
 14326 228c 11       		.uleb128 0x11
 14327 228d 01       		.uleb128 0x1
ARM GAS  C:\Users\JPELEC~1\AppData\Local\Temp\ccEetrge.s 			page 301


 14328 228e 50       		.byte	0x50
 14329 228f 01       		.uleb128 0x1
 14330 2290 44       		.byte	0x44
 14331 2291 00       		.byte	0
 14332 2292 10       		.uleb128 0x10
 14333 2293 7E200000 		.4byte	.LVL667
 14334 2297 8E030000 		.4byte	0x38e
 14335 229b A9220000 		.4byte	0x22a9
 14336 229f 11       		.uleb128 0x11
 14337 22a0 01       		.uleb128 0x1
 14338 22a1 50       		.byte	0x50
 14339 22a2 05       		.uleb128 0x5
 14340 22a3 03       		.byte	0x3
 14341 22a4 4C070000 		.4byte	.LC97
 14342 22a8 00       		.byte	0
 14343 22a9 10       		.uleb128 0x10
 14344 22aa 8C200000 		.4byte	.LVL668
 14345 22ae 58310000 		.4byte	0x3158
 14346 22b2 C6220000 		.4byte	0x22c6
 14347 22b6 11       		.uleb128 0x11
 14348 22b7 01       		.uleb128 0x1
 14349 22b8 50       		.byte	0x50
 14350 22b9 02       		.uleb128 0x2
 14351 22ba 74       		.byte	0x74
 14352 22bb 00       		.sleb128 0
 14353 22bc 11       		.uleb128 0x11
 14354 22bd 01       		.uleb128 0x1
 14355 22be 51       		.byte	0x51
 14356 22bf 05       		.uleb128 0x5
 14357 22c0 03       		.byte	0x3
 14358 22c1 3C070000 		.4byte	.LC96
 14359 22c5 00       		.byte	0
 14360 22c6 10       		.uleb128 0x10
 14361 22c7 92200000 		.4byte	.LVL669
 14362 22cb 8E030000 		.4byte	0x38e
 14363 22cf DA220000 		.4byte	0x22da
 14364 22d3 11       		.uleb128 0x11
 14365 22d4 01       		.uleb128 0x1
 14366 22d5 50       		.byte	0x50
 14367 22d6 02       		.uleb128 0x2
 14368 22d7 74       		.byte	0x74
 14369 22d8 00       		.sleb128 0
 14370 22d9 00       		.byte	0
 14371 22da 10       		.uleb128 0x10
 14372 22db A0200000 		.4byte	.LVL670
 14373 22df 8C320000 		.4byte	0x328c
 14374 22e3 ED220000 		.4byte	0x22ed
 14375 22e7 11       		.uleb128 0x11
 14376 22e8 01       		.uleb128 0x1
 14377 22e9 50       		.byte	0x50
 14378 22ea 01       		.uleb128 0x1
 14379 22eb 44       		.byte	0x44
 14380 22ec 00       		.byte	0
 14381 22ed 10       		.uleb128 0x10
 14382 22ee C8200000 		.4byte	.LVL671
 14383 22f2 8C320000 		.4byte	0x328c
 14384 22f6 00230000 		.4byte	0x2300
ARM GAS  C:\Users\JPELEC~1\AppData\Local\Temp\ccEetrge.s 			page 302


 14385 22fa 11       		.uleb128 0x11
 14386 22fb 01       		.uleb128 0x1
 14387 22fc 50       		.byte	0x50
 14388 22fd 01       		.uleb128 0x1
 14389 22fe 44       		.byte	0x44
 14390 22ff 00       		.byte	0
 14391 2300 10       		.uleb128 0x10
 14392 2301 8A210000 		.4byte	.LVL672
 14393 2305 8E030000 		.4byte	0x38e
 14394 2309 17230000 		.4byte	0x2317
 14395 230d 11       		.uleb128 0x11
 14396 230e 01       		.uleb128 0x1
 14397 230f 50       		.byte	0x50
 14398 2310 05       		.uleb128 0x5
 14399 2311 03       		.byte	0x3
 14400 2312 68070000 		.4byte	.LC98
 14401 2316 00       		.byte	0
 14402 2317 10       		.uleb128 0x10
 14403 2318 98210000 		.4byte	.LVL673
 14404 231c 58310000 		.4byte	0x3158
 14405 2320 34230000 		.4byte	0x2334
 14406 2324 11       		.uleb128 0x11
 14407 2325 01       		.uleb128 0x1
 14408 2326 50       		.byte	0x50
 14409 2327 02       		.uleb128 0x2
 14410 2328 74       		.byte	0x74
 14411 2329 00       		.sleb128 0
 14412 232a 11       		.uleb128 0x11
 14413 232b 01       		.uleb128 0x1
 14414 232c 51       		.byte	0x51
 14415 232d 05       		.uleb128 0x5
 14416 232e 03       		.byte	0x3
 14417 232f 3C070000 		.4byte	.LC96
 14418 2333 00       		.byte	0
 14419 2334 10       		.uleb128 0x10
 14420 2335 9E210000 		.4byte	.LVL674
 14421 2339 8E030000 		.4byte	0x38e
 14422 233d 48230000 		.4byte	0x2348
 14423 2341 11       		.uleb128 0x11
 14424 2342 01       		.uleb128 0x1
 14425 2343 50       		.byte	0x50
 14426 2344 02       		.uleb128 0x2
 14427 2345 74       		.byte	0x74
 14428 2346 00       		.sleb128 0
 14429 2347 00       		.byte	0
 14430 2348 10       		.uleb128 0x10
 14431 2349 AC210000 		.4byte	.LVL675
 14432 234d 8C320000 		.4byte	0x328c
 14433 2351 5B230000 		.4byte	0x235b
 14434 2355 11       		.uleb128 0x11
 14435 2356 01       		.uleb128 0x1
 14436 2357 50       		.byte	0x50
 14437 2358 01       		.uleb128 0x1
 14438 2359 44       		.byte	0x44
 14439 235a 00       		.byte	0
 14440 235b 10       		.uleb128 0x10
 14441 235c D4210000 		.4byte	.LVL676
ARM GAS  C:\Users\JPELEC~1\AppData\Local\Temp\ccEetrge.s 			page 303


 14442 2360 8C320000 		.4byte	0x328c
 14443 2364 6E230000 		.4byte	0x236e
 14444 2368 11       		.uleb128 0x11
 14445 2369 01       		.uleb128 0x1
 14446 236a 50       		.byte	0x50
 14447 236b 01       		.uleb128 0x1
 14448 236c 44       		.byte	0x44
 14449 236d 00       		.byte	0
 14450 236e 10       		.uleb128 0x10
 14451 236f 18220000 		.4byte	.LVL677
 14452 2373 8E030000 		.4byte	0x38e
 14453 2377 85230000 		.4byte	0x2385
 14454 237b 11       		.uleb128 0x11
 14455 237c 01       		.uleb128 0x1
 14456 237d 50       		.byte	0x50
 14457 237e 05       		.uleb128 0x5
 14458 237f 03       		.byte	0x3
 14459 2380 84070000 		.4byte	.LC99
 14460 2384 00       		.byte	0
 14461 2385 10       		.uleb128 0x10
 14462 2386 26220000 		.4byte	.LVL678
 14463 238a 58310000 		.4byte	0x3158
 14464 238e A2230000 		.4byte	0x23a2
 14465 2392 11       		.uleb128 0x11
 14466 2393 01       		.uleb128 0x1
 14467 2394 50       		.byte	0x50
 14468 2395 02       		.uleb128 0x2
 14469 2396 74       		.byte	0x74
 14470 2397 00       		.sleb128 0
 14471 2398 11       		.uleb128 0x11
 14472 2399 01       		.uleb128 0x1
 14473 239a 51       		.byte	0x51
 14474 239b 05       		.uleb128 0x5
 14475 239c 03       		.byte	0x3
 14476 239d 3C070000 		.4byte	.LC96
 14477 23a1 00       		.byte	0
 14478 23a2 10       		.uleb128 0x10
 14479 23a3 2C220000 		.4byte	.LVL679
 14480 23a7 8E030000 		.4byte	0x38e
 14481 23ab B6230000 		.4byte	0x23b6
 14482 23af 11       		.uleb128 0x11
 14483 23b0 01       		.uleb128 0x1
 14484 23b1 50       		.byte	0x50
 14485 23b2 02       		.uleb128 0x2
 14486 23b3 74       		.byte	0x74
 14487 23b4 00       		.sleb128 0
 14488 23b5 00       		.byte	0
 14489 23b6 10       		.uleb128 0x10
 14490 23b7 3A220000 		.4byte	.LVL680
 14491 23bb 8C320000 		.4byte	0x328c
 14492 23bf C9230000 		.4byte	0x23c9
 14493 23c3 11       		.uleb128 0x11
 14494 23c4 01       		.uleb128 0x1
 14495 23c5 50       		.byte	0x50
 14496 23c6 01       		.uleb128 0x1
 14497 23c7 44       		.byte	0x44
 14498 23c8 00       		.byte	0
ARM GAS  C:\Users\JPELEC~1\AppData\Local\Temp\ccEetrge.s 			page 304


 14499 23c9 10       		.uleb128 0x10
 14500 23ca 70220000 		.4byte	.LVL684
 14501 23ce 8C320000 		.4byte	0x328c
 14502 23d2 DC230000 		.4byte	0x23dc
 14503 23d6 11       		.uleb128 0x11
 14504 23d7 01       		.uleb128 0x1
 14505 23d8 50       		.byte	0x50
 14506 23d9 01       		.uleb128 0x1
 14507 23da 44       		.byte	0x44
 14508 23db 00       		.byte	0
 14509 23dc 10       		.uleb128 0x10
 14510 23dd C2220000 		.4byte	.LVL688
 14511 23e1 8E030000 		.4byte	0x38e
 14512 23e5 F3230000 		.4byte	0x23f3
 14513 23e9 11       		.uleb128 0x11
 14514 23ea 01       		.uleb128 0x1
 14515 23eb 50       		.byte	0x50
 14516 23ec 05       		.uleb128 0x5
 14517 23ed 03       		.byte	0x3
 14518 23ee 9C070000 		.4byte	.LC100
 14519 23f2 00       		.byte	0
 14520 23f3 10       		.uleb128 0x10
 14521 23f4 D0220000 		.4byte	.LVL689
 14522 23f8 58310000 		.4byte	0x3158
 14523 23fc 10240000 		.4byte	0x2410
 14524 2400 11       		.uleb128 0x11
 14525 2401 01       		.uleb128 0x1
 14526 2402 50       		.byte	0x50
 14527 2403 02       		.uleb128 0x2
 14528 2404 74       		.byte	0x74
 14529 2405 00       		.sleb128 0
 14530 2406 11       		.uleb128 0x11
 14531 2407 01       		.uleb128 0x1
 14532 2408 51       		.byte	0x51
 14533 2409 05       		.uleb128 0x5
 14534 240a 03       		.byte	0x3
 14535 240b 3C070000 		.4byte	.LC96
 14536 240f 00       		.byte	0
 14537 2410 10       		.uleb128 0x10
 14538 2411 D6220000 		.4byte	.LVL690
 14539 2415 8E030000 		.4byte	0x38e
 14540 2419 24240000 		.4byte	0x2424
 14541 241d 11       		.uleb128 0x11
 14542 241e 01       		.uleb128 0x1
 14543 241f 50       		.byte	0x50
 14544 2420 02       		.uleb128 0x2
 14545 2421 74       		.byte	0x74
 14546 2422 00       		.sleb128 0
 14547 2423 00       		.byte	0
 14548 2424 10       		.uleb128 0x10
 14549 2425 E4220000 		.4byte	.LVL691
 14550 2429 8C320000 		.4byte	0x328c
 14551 242d 37240000 		.4byte	0x2437
 14552 2431 11       		.uleb128 0x11
 14553 2432 01       		.uleb128 0x1
 14554 2433 50       		.byte	0x50
 14555 2434 01       		.uleb128 0x1
ARM GAS  C:\Users\JPELEC~1\AppData\Local\Temp\ccEetrge.s 			page 305


 14556 2435 44       		.byte	0x44
 14557 2436 00       		.byte	0
 14558 2437 10       		.uleb128 0x10
 14559 2438 14230000 		.4byte	.LVL692
 14560 243c 8C320000 		.4byte	0x328c
 14561 2440 4A240000 		.4byte	0x244a
 14562 2444 11       		.uleb128 0x11
 14563 2445 01       		.uleb128 0x1
 14564 2446 50       		.byte	0x50
 14565 2447 01       		.uleb128 0x1
 14566 2448 44       		.byte	0x44
 14567 2449 00       		.byte	0
 14568 244a 10       		.uleb128 0x10
 14569 244b 40230000 		.4byte	.LVL693
 14570 244f 8E030000 		.4byte	0x38e
 14571 2453 61240000 		.4byte	0x2461
 14572 2457 11       		.uleb128 0x11
 14573 2458 01       		.uleb128 0x1
 14574 2459 50       		.byte	0x50
 14575 245a 05       		.uleb128 0x5
 14576 245b 03       		.byte	0x3
 14577 245c B8070000 		.4byte	.LC101
 14578 2460 00       		.byte	0
 14579 2461 10       		.uleb128 0x10
 14580 2462 4E230000 		.4byte	.LVL694
 14581 2466 58310000 		.4byte	0x3158
 14582 246a 7E240000 		.4byte	0x247e
 14583 246e 11       		.uleb128 0x11
 14584 246f 01       		.uleb128 0x1
 14585 2470 50       		.byte	0x50
 14586 2471 02       		.uleb128 0x2
 14587 2472 74       		.byte	0x74
 14588 2473 00       		.sleb128 0
 14589 2474 11       		.uleb128 0x11
 14590 2475 01       		.uleb128 0x1
 14591 2476 51       		.byte	0x51
 14592 2477 05       		.uleb128 0x5
 14593 2478 03       		.byte	0x3
 14594 2479 3C070000 		.4byte	.LC96
 14595 247d 00       		.byte	0
 14596 247e 10       		.uleb128 0x10
 14597 247f 54230000 		.4byte	.LVL695
 14598 2483 8E030000 		.4byte	0x38e
 14599 2487 92240000 		.4byte	0x2492
 14600 248b 11       		.uleb128 0x11
 14601 248c 01       		.uleb128 0x1
 14602 248d 50       		.byte	0x50
 14603 248e 02       		.uleb128 0x2
 14604 248f 74       		.byte	0x74
 14605 2490 00       		.sleb128 0
 14606 2491 00       		.byte	0
 14607 2492 10       		.uleb128 0x10
 14608 2493 62230000 		.4byte	.LVL696
 14609 2497 8C320000 		.4byte	0x328c
 14610 249b A5240000 		.4byte	0x24a5
 14611 249f 11       		.uleb128 0x11
 14612 24a0 01       		.uleb128 0x1
ARM GAS  C:\Users\JPELEC~1\AppData\Local\Temp\ccEetrge.s 			page 306


 14613 24a1 50       		.byte	0x50
 14614 24a2 01       		.uleb128 0x1
 14615 24a3 44       		.byte	0x44
 14616 24a4 00       		.byte	0
 14617 24a5 10       		.uleb128 0x10
 14618 24a6 90230000 		.4byte	.LVL697
 14619 24aa 8C320000 		.4byte	0x328c
 14620 24ae B8240000 		.4byte	0x24b8
 14621 24b2 11       		.uleb128 0x11
 14622 24b3 01       		.uleb128 0x1
 14623 24b4 50       		.byte	0x50
 14624 24b5 01       		.uleb128 0x1
 14625 24b6 44       		.byte	0x44
 14626 24b7 00       		.byte	0
 14627 24b8 10       		.uleb128 0x10
 14628 24b9 EE230000 		.4byte	.LVL698
 14629 24bd 8E030000 		.4byte	0x38e
 14630 24c1 CF240000 		.4byte	0x24cf
 14631 24c5 11       		.uleb128 0x11
 14632 24c6 01       		.uleb128 0x1
 14633 24c7 50       		.byte	0x50
 14634 24c8 05       		.uleb128 0x5
 14635 24c9 03       		.byte	0x3
 14636 24ca D4070000 		.4byte	.LC102
 14637 24ce 00       		.byte	0
 14638 24cf 10       		.uleb128 0x10
 14639 24d0 FC230000 		.4byte	.LVL699
 14640 24d4 58310000 		.4byte	0x3158
 14641 24d8 EC240000 		.4byte	0x24ec
 14642 24dc 11       		.uleb128 0x11
 14643 24dd 01       		.uleb128 0x1
 14644 24de 50       		.byte	0x50
 14645 24df 02       		.uleb128 0x2
 14646 24e0 74       		.byte	0x74
 14647 24e1 00       		.sleb128 0
 14648 24e2 11       		.uleb128 0x11
 14649 24e3 01       		.uleb128 0x1
 14650 24e4 51       		.byte	0x51
 14651 24e5 05       		.uleb128 0x5
 14652 24e6 03       		.byte	0x3
 14653 24e7 3C070000 		.4byte	.LC96
 14654 24eb 00       		.byte	0
 14655 24ec 10       		.uleb128 0x10
 14656 24ed 02240000 		.4byte	.LVL700
 14657 24f1 8E030000 		.4byte	0x38e
 14658 24f5 00250000 		.4byte	0x2500
 14659 24f9 11       		.uleb128 0x11
 14660 24fa 01       		.uleb128 0x1
 14661 24fb 50       		.byte	0x50
 14662 24fc 02       		.uleb128 0x2
 14663 24fd 74       		.byte	0x74
 14664 24fe 00       		.sleb128 0
 14665 24ff 00       		.byte	0
 14666 2500 10       		.uleb128 0x10
 14667 2501 10240000 		.4byte	.LVL701
 14668 2505 8C320000 		.4byte	0x328c
 14669 2509 13250000 		.4byte	0x2513
ARM GAS  C:\Users\JPELEC~1\AppData\Local\Temp\ccEetrge.s 			page 307


 14670 250d 11       		.uleb128 0x11
 14671 250e 01       		.uleb128 0x1
 14672 250f 50       		.byte	0x50
 14673 2510 01       		.uleb128 0x1
 14674 2511 44       		.byte	0x44
 14675 2512 00       		.byte	0
 14676 2513 10       		.uleb128 0x10
 14677 2514 3E240000 		.4byte	.LVL702
 14678 2518 8C320000 		.4byte	0x328c
 14679 251c 26250000 		.4byte	0x2526
 14680 2520 11       		.uleb128 0x11
 14681 2521 01       		.uleb128 0x1
 14682 2522 50       		.byte	0x50
 14683 2523 01       		.uleb128 0x1
 14684 2524 44       		.byte	0x44
 14685 2525 00       		.byte	0
 14686 2526 10       		.uleb128 0x10
 14687 2527 6C240000 		.4byte	.LVL703
 14688 252b 8C320000 		.4byte	0x328c
 14689 252f 39250000 		.4byte	0x2539
 14690 2533 11       		.uleb128 0x11
 14691 2534 01       		.uleb128 0x1
 14692 2535 50       		.byte	0x50
 14693 2536 01       		.uleb128 0x1
 14694 2537 44       		.byte	0x44
 14695 2538 00       		.byte	0
 14696 2539 10       		.uleb128 0x10
 14697 253a 94240000 		.4byte	.LVL704
 14698 253e 8C320000 		.4byte	0x328c
 14699 2542 4C250000 		.4byte	0x254c
 14700 2546 11       		.uleb128 0x11
 14701 2547 01       		.uleb128 0x1
 14702 2548 50       		.byte	0x50
 14703 2549 01       		.uleb128 0x1
 14704 254a 44       		.byte	0x44
 14705 254b 00       		.byte	0
 14706 254c 10       		.uleb128 0x10
 14707 254d BE240000 		.4byte	.LVL705
 14708 2551 8C320000 		.4byte	0x328c
 14709 2555 5F250000 		.4byte	0x255f
 14710 2559 11       		.uleb128 0x11
 14711 255a 01       		.uleb128 0x1
 14712 255b 50       		.byte	0x50
 14713 255c 01       		.uleb128 0x1
 14714 255d 44       		.byte	0x44
 14715 255e 00       		.byte	0
 14716 255f 10       		.uleb128 0x10
 14717 2560 DC240000 		.4byte	.LVL706
 14718 2564 D9320000 		.4byte	0x32d9
 14719 2568 73250000 		.4byte	0x2573
 14720 256c 11       		.uleb128 0x11
 14721 256d 01       		.uleb128 0x1
 14722 256e 51       		.byte	0x51
 14723 256f 02       		.uleb128 0x2
 14724 2570 08       		.byte	0x8
 14725 2571 20       		.byte	0x20
 14726 2572 00       		.byte	0
ARM GAS  C:\Users\JPELEC~1\AppData\Local\Temp\ccEetrge.s 			page 308


 14727 2573 10       		.uleb128 0x10
 14728 2574 E2240000 		.4byte	.LVL707
 14729 2578 8C320000 		.4byte	0x328c
 14730 257c 86250000 		.4byte	0x2586
 14731 2580 11       		.uleb128 0x11
 14732 2581 01       		.uleb128 0x1
 14733 2582 50       		.byte	0x50
 14734 2583 01       		.uleb128 0x1
 14735 2584 3A       		.byte	0x3a
 14736 2585 00       		.byte	0
 14737 2586 10       		.uleb128 0x10
 14738 2587 EC240000 		.4byte	.LVL708
 14739 258b D9320000 		.4byte	0x32d9
 14740 258f 99250000 		.4byte	0x2599
 14741 2593 11       		.uleb128 0x11
 14742 2594 01       		.uleb128 0x1
 14743 2595 51       		.byte	0x51
 14744 2596 01       		.uleb128 0x1
 14745 2597 4F       		.byte	0x4f
 14746 2598 00       		.byte	0
 14747 2599 10       		.uleb128 0x10
 14748 259a F2240000 		.4byte	.LVL709
 14749 259e 8C320000 		.4byte	0x328c
 14750 25a2 AC250000 		.4byte	0x25ac
 14751 25a6 11       		.uleb128 0x11
 14752 25a7 01       		.uleb128 0x1
 14753 25a8 50       		.byte	0x50
 14754 25a9 01       		.uleb128 0x1
 14755 25aa 3A       		.byte	0x3a
 14756 25ab 00       		.byte	0
 14757 25ac 10       		.uleb128 0x10
 14758 25ad 02250000 		.4byte	.LVL711
 14759 25b1 D9320000 		.4byte	0x32d9
 14760 25b5 BF250000 		.4byte	0x25bf
 14761 25b9 11       		.uleb128 0x11
 14762 25ba 01       		.uleb128 0x1
 14763 25bb 51       		.byte	0x51
 14764 25bc 01       		.uleb128 0x1
 14765 25bd 4E       		.byte	0x4e
 14766 25be 00       		.byte	0
 14767 25bf 10       		.uleb128 0x10
 14768 25c0 08250000 		.4byte	.LVL712
 14769 25c4 8C320000 		.4byte	0x328c
 14770 25c8 D2250000 		.4byte	0x25d2
 14771 25cc 11       		.uleb128 0x11
 14772 25cd 01       		.uleb128 0x1
 14773 25ce 50       		.byte	0x50
 14774 25cf 01       		.uleb128 0x1
 14775 25d0 3A       		.byte	0x3a
 14776 25d1 00       		.byte	0
 14777 25d2 10       		.uleb128 0x10
 14778 25d3 12250000 		.4byte	.LVL713
 14779 25d7 D9320000 		.4byte	0x32d9
 14780 25db E6250000 		.4byte	0x25e6
 14781 25df 11       		.uleb128 0x11
 14782 25e0 01       		.uleb128 0x1
 14783 25e1 51       		.byte	0x51
ARM GAS  C:\Users\JPELEC~1\AppData\Local\Temp\ccEetrge.s 			page 309


 14784 25e2 02       		.uleb128 0x2
 14785 25e3 08       		.byte	0x8
 14786 25e4 22       		.byte	0x22
 14787 25e5 00       		.byte	0
 14788 25e6 10       		.uleb128 0x10
 14789 25e7 18250000 		.4byte	.LVL714
 14790 25eb 8C320000 		.4byte	0x328c
 14791 25ef F9250000 		.4byte	0x25f9
 14792 25f3 11       		.uleb128 0x11
 14793 25f4 01       		.uleb128 0x1
 14794 25f5 50       		.byte	0x50
 14795 25f6 01       		.uleb128 0x1
 14796 25f7 3A       		.byte	0x3a
 14797 25f8 00       		.byte	0
 14798 25f9 10       		.uleb128 0x10
 14799 25fa 22250000 		.4byte	.LVL715
 14800 25fe D9320000 		.4byte	0x32d9
 14801 2602 0D260000 		.4byte	0x260d
 14802 2606 11       		.uleb128 0x11
 14803 2607 01       		.uleb128 0x1
 14804 2608 51       		.byte	0x51
 14805 2609 02       		.uleb128 0x2
 14806 260a 08       		.byte	0x8
 14807 260b 23       		.byte	0x23
 14808 260c 00       		.byte	0
 14809 260d 10       		.uleb128 0x10
 14810 260e 28250000 		.4byte	.LVL716
 14811 2612 8C320000 		.4byte	0x328c
 14812 2616 20260000 		.4byte	0x2620
 14813 261a 11       		.uleb128 0x11
 14814 261b 01       		.uleb128 0x1
 14815 261c 50       		.byte	0x50
 14816 261d 01       		.uleb128 0x1
 14817 261e 3A       		.byte	0x3a
 14818 261f 00       		.byte	0
 14819 2620 10       		.uleb128 0x10
 14820 2621 32250000 		.4byte	.LVL717
 14821 2625 D9320000 		.4byte	0x32d9
 14822 2629 34260000 		.4byte	0x2634
 14823 262d 11       		.uleb128 0x11
 14824 262e 01       		.uleb128 0x1
 14825 262f 51       		.byte	0x51
 14826 2630 02       		.uleb128 0x2
 14827 2631 08       		.byte	0x8
 14828 2632 24       		.byte	0x24
 14829 2633 00       		.byte	0
 14830 2634 10       		.uleb128 0x10
 14831 2635 38250000 		.4byte	.LVL718
 14832 2639 8C320000 		.4byte	0x328c
 14833 263d 47260000 		.4byte	0x2647
 14834 2641 11       		.uleb128 0x11
 14835 2642 01       		.uleb128 0x1
 14836 2643 50       		.byte	0x50
 14837 2644 01       		.uleb128 0x1
 14838 2645 3A       		.byte	0x3a
 14839 2646 00       		.byte	0
 14840 2647 10       		.uleb128 0x10
ARM GAS  C:\Users\JPELEC~1\AppData\Local\Temp\ccEetrge.s 			page 310


 14841 2648 42250000 		.4byte	.LVL719
 14842 264c D9320000 		.4byte	0x32d9
 14843 2650 5B260000 		.4byte	0x265b
 14844 2654 11       		.uleb128 0x11
 14845 2655 01       		.uleb128 0x1
 14846 2656 51       		.byte	0x51
 14847 2657 02       		.uleb128 0x2
 14848 2658 08       		.byte	0x8
 14849 2659 21       		.byte	0x21
 14850 265a 00       		.byte	0
 14851 265b 10       		.uleb128 0x10
 14852 265c 48250000 		.4byte	.LVL720
 14853 2660 8C320000 		.4byte	0x328c
 14854 2664 6E260000 		.4byte	0x266e
 14855 2668 11       		.uleb128 0x11
 14856 2669 01       		.uleb128 0x1
 14857 266a 50       		.byte	0x50
 14858 266b 01       		.uleb128 0x1
 14859 266c 3A       		.byte	0x3a
 14860 266d 00       		.byte	0
 14861 266e 12       		.uleb128 0x12
 14862 266f 54250000 		.4byte	.LVL721
 14863 2673 8E030000 		.4byte	0x38e
 14864 2677 11       		.uleb128 0x11
 14865 2678 01       		.uleb128 0x1
 14866 2679 50       		.byte	0x50
 14867 267a 05       		.uleb128 0x5
 14868 267b 03       		.byte	0x3
 14869 267c 7C010000 		.4byte	.LC22
 14870 2680 00       		.byte	0
 14871 2681 00       		.byte	0
 14872 2682 1E       		.uleb128 0x1e
 14873 2683 31010000 		.4byte	.LASF51
 14874 2687 06       		.byte	0x6
 14875 2688 1207     		.2byte	0x712
 14876 268a 8E260000 		.4byte	0x268e
 14877 268e 06       		.uleb128 0x6
 14878 268f 9E000000 		.4byte	0x9e
 14879 2693 0B       		.uleb128 0xb
 14880 2694 B4000000 		.4byte	0xb4
 14881 2698 A3260000 		.4byte	0x26a3
 14882 269c 0C       		.uleb128 0xc
 14883 269d 22010000 		.4byte	0x122
 14884 26a1 03       		.byte	0x3
 14885 26a2 00       		.byte	0
 14886 26a3 1F       		.uleb128 0x1f
 14887 26a4 DB050000 		.4byte	.LASF52
 14888 26a8 01       		.byte	0x1
 14889 26a9 43       		.byte	0x43
 14890 26aa 93260000 		.4byte	0x2693
 14891 26ae 05       		.uleb128 0x5
 14892 26af 03       		.byte	0x3
 14893 26b0 00000000 		.4byte	Password
 14894 26b4 1F       		.uleb128 0x1f
 14895 26b5 A30A0000 		.4byte	.LASF53
 14896 26b9 01       		.byte	0x1
 14897 26ba 28       		.byte	0x28
ARM GAS  C:\Users\JPELEC~1\AppData\Local\Temp\ccEetrge.s 			page 311


 14898 26bb 93000000 		.4byte	0x93
 14899 26bf 05       		.uleb128 0x5
 14900 26c0 03       		.byte	0x3
 14901 26c1 00000000 		.4byte	Derivativo
 14902 26c5 1F       		.uleb128 0x1f
 14903 26c6 AE020000 		.4byte	.LASF54
 14904 26ca 01       		.byte	0x1
 14905 26cb 28       		.byte	0x28
 14906 26cc 93000000 		.4byte	0x93
 14907 26d0 05       		.uleb128 0x5
 14908 26d1 03       		.byte	0x3
 14909 26d2 00000000 		.4byte	Integral
 14910 26d6 1F       		.uleb128 0x1f
 14911 26d7 55000000 		.4byte	.LASF55
 14912 26db 01       		.byte	0x1
 14913 26dc 28       		.byte	0x28
 14914 26dd 93000000 		.4byte	0x93
 14915 26e1 05       		.uleb128 0x5
 14916 26e2 03       		.byte	0x3
 14917 26e3 00000000 		.4byte	MediaMovil
 14918 26e7 1F       		.uleb128 0x1f
 14919 26e8 1F040000 		.4byte	.LASF56
 14920 26ec 01       		.byte	0x1
 14921 26ed 28       		.byte	0x28
 14922 26ee 93000000 		.4byte	0x93
 14923 26f2 05       		.uleb128 0x5
 14924 26f3 03       		.byte	0x3
 14925 26f4 00000000 		.4byte	Tciclo
 14926 26f8 1F       		.uleb128 0x1f
 14927 26f9 F9040000 		.4byte	.LASF57
 14928 26fd 01       		.byte	0x1
 14929 26fe 28       		.byte	0x28
 14930 26ff 93000000 		.4byte	0x93
 14931 2703 05       		.uleb128 0x5
 14932 2704 03       		.byte	0x3
 14933 2705 00000000 		.4byte	Ajuste
 14934 2709 1F       		.uleb128 0x1f
 14935 270a D5080000 		.4byte	.LASF58
 14936 270e 01       		.byte	0x1
 14937 270f 28       		.byte	0x28
 14938 2710 93000000 		.4byte	0x93
 14939 2714 05       		.uleb128 0x5
 14940 2715 03       		.byte	0x3
 14941 2716 00000000 		.4byte	Ajusten
 14942 271a 1F       		.uleb128 0x1f
 14943 271b 58040000 		.4byte	.LASF59
 14944 271f 01       		.byte	0x1
 14945 2720 4C       		.byte	0x4c
 14946 2721 B4000000 		.4byte	0xb4
 14947 2725 05       		.uleb128 0x5
 14948 2726 03       		.byte	0x3
 14949 2727 00000000 		.4byte	dataReady
 14950 272b 1F       		.uleb128 0x1f
 14951 272c 86040000 		.4byte	.LASF60
 14952 2730 01       		.byte	0x1
 14953 2731 2C       		.byte	0x2c
 14954 2732 25000000 		.4byte	0x25
ARM GAS  C:\Users\JPELEC~1\AppData\Local\Temp\ccEetrge.s 			page 312


 14955 2736 05       		.uleb128 0x5
 14956 2737 03       		.byte	0x3
 14957 2738 00000000 		.4byte	Ganancia
 14958 273c 1F       		.uleb128 0x1f
 14959 273d 72080000 		.4byte	.LASF61
 14960 2741 01       		.byte	0x1
 14961 2742 2C       		.byte	0x2c
 14962 2743 25000000 		.4byte	0x25
 14963 2747 05       		.uleb128 0x5
 14964 2748 03       		.byte	0x3
 14965 2749 00000000 		.4byte	GananciaIn
 14966 274d 1F       		.uleb128 0x1f
 14967 274e 4F020000 		.4byte	.LASF62
 14968 2752 01       		.byte	0x1
 14969 2753 4D       		.byte	0x4d
 14970 2754 C0000000 		.4byte	0xc0
 14971 2758 05       		.uleb128 0x5
 14972 2759 03       		.byte	0x3
 14973 275a 00000000 		.4byte	result
 14974 275e 0B       		.uleb128 0xb
 14975 275f B5010000 		.4byte	0x1b5
 14976 2763 6E270000 		.4byte	0x276e
 14977 2767 0C       		.uleb128 0xc
 14978 2768 22010000 		.4byte	0x122
 14979 276c 04       		.byte	0x4
 14980 276d 00       		.byte	0
 14981 276e 1F       		.uleb128 0x1f
 14982 276f FD080000 		.4byte	.LASF63
 14983 2773 05       		.byte	0x5
 14984 2774 5A       		.byte	0x5a
 14985 2775 5E270000 		.4byte	0x275e
 14986 2779 05       		.uleb128 0x5
 14987 277a 03       		.byte	0x3
 14988 277b 00000000 		.4byte	Programas
 14989 277f 1F       		.uleb128 0x1f
 14990 2780 07090000 		.4byte	.LASF64
 14991 2784 01       		.byte	0x1
 14992 2785 1D       		.byte	0x1d
 14993 2786 E4000000 		.4byte	0xe4
 14994 278a 05       		.uleb128 0x5
 14995 278b 03       		.byte	0x3
 14996 278c 00000000 		.4byte	offset
 14997 2790 1F       		.uleb128 0x1f
 14998 2791 28080000 		.4byte	.LASF65
 14999 2795 01       		.byte	0x1
 15000 2796 1E       		.byte	0x1e
 15001 2797 E4000000 		.4byte	0xe4
 15002 279b 05       		.uleb128 0x5
 15003 279c 03       		.byte	0x3
 15004 279d 00000000 		.4byte	coldJnTemp
 15005 27a1 1F       		.uleb128 0x1f
 15006 27a2 23010000 		.4byte	.LASF66
 15007 27a6 01       		.byte	0x1
 15008 27a7 1F       		.byte	0x1f
 15009 27a8 F0000000 		.4byte	0xf0
 15010 27ac 05       		.uleb128 0x5
 15011 27ad 03       		.byte	0x3
ARM GAS  C:\Users\JPELEC~1\AppData\Local\Temp\ccEetrge.s 			page 313


 15012 27ae 00000000 		.4byte	tcColdJnuVolt
 15013 27b2 1F       		.uleb128 0x1f
 15014 27b3 87060000 		.4byte	.LASF67
 15015 27b7 01       		.byte	0x1
 15016 27b8 20       		.byte	0x20
 15017 27b9 F0000000 		.4byte	0xf0
 15018 27bd 05       		.uleb128 0x5
 15019 27be 03       		.byte	0x3
 15020 27bf 00000000 		.4byte	hotJnCount
 15021 27c3 1F       		.uleb128 0x1f
 15022 27c4 41020000 		.4byte	.LASF68
 15023 27c8 01       		.byte	0x1
 15024 27c9 21       		.byte	0x21
 15025 27ca F0000000 		.4byte	0xf0
 15026 27ce 05       		.uleb128 0x5
 15027 27cf 03       		.byte	0x3
 15028 27d0 00000000 		.4byte	filHotJnCount
 15029 27d4 1F       		.uleb128 0x1f
 15030 27d5 6B060000 		.4byte	.LASF69
 15031 27d9 01       		.byte	0x1
 15032 27da 22       		.byte	0x22
 15033 27db F0000000 		.4byte	0xf0
 15034 27df 05       		.uleb128 0x5
 15035 27e0 03       		.byte	0x3
 15036 27e1 00000000 		.4byte	tcHotJnuVolt
 15037 27e5 1F       		.uleb128 0x1f
 15038 27e6 6E050000 		.4byte	.LASF70
 15039 27ea 01       		.byte	0x1
 15040 27eb 23       		.byte	0x23
 15041 27ec F0000000 		.4byte	0xf0
 15042 27f0 05       		.uleb128 0x5
 15043 27f1 03       		.byte	0x3
 15044 27f2 00000000 		.4byte	tcuVolt
 15045 27f6 1F       		.uleb128 0x1f
 15046 27f7 67050000 		.4byte	.LASF71
 15047 27fb 01       		.byte	0x1
 15048 27fc 24       		.byte	0x24
 15049 27fd F0000000 		.4byte	0xf0
 15050 2801 05       		.uleb128 0x5
 15051 2802 03       		.byte	0x3
 15052 2803 00000000 		.4byte	tcTemp
 15053 2807 0B       		.uleb128 0xb
 15054 2808 03010000 		.4byte	0x103
 15055 280c 17280000 		.4byte	0x2817
 15056 2810 0C       		.uleb128 0xc
 15057 2811 22010000 		.4byte	0x122
 15058 2815 63       		.byte	0x63
 15059 2816 00       		.byte	0
 15060 2817 1F       		.uleb128 0x1f
 15061 2818 98060000 		.4byte	.LASF72
 15062 281c 01       		.byte	0x1
 15063 281d 25       		.byte	0x25
 15064 281e 07280000 		.4byte	0x2807
 15065 2822 05       		.uleb128 0x5
 15066 2823 03       		.byte	0x3
 15067 2824 00000000 		.4byte	displayStr
 15068 2828 1F       		.uleb128 0x1f
ARM GAS  C:\Users\JPELEC~1\AppData\Local\Temp\ccEetrge.s 			page 314


 15069 2829 60080000 		.4byte	.LASF73
 15070 282d 01       		.byte	0x1
 15071 282e 26       		.byte	0x26
 15072 282f B4000000 		.4byte	0xb4
 15073 2833 05       		.uleb128 0x5
 15074 2834 03       		.byte	0x3
 15075 2835 00000000 		.4byte	first
 15076 2839 20       		.uleb128 0x20
 15077 283a 6900     		.ascii	"i\000"
 15078 283c 01       		.byte	0x1
 15079 283d 28       		.byte	0x28
 15080 283e 93000000 		.4byte	0x93
 15081 2842 05       		.uleb128 0x5
 15082 2843 03       		.byte	0x3
 15083 2844 00000000 		.4byte	i
 15084 2848 1F       		.uleb128 0x1f
 15085 2849 10020000 		.4byte	.LASF74
 15086 284d 01       		.byte	0x1
 15087 284e 28       		.byte	0x28
 15088 284f 93000000 		.4byte	0x93
 15089 2853 05       		.uleb128 0x5
 15090 2854 03       		.byte	0x3
 15091 2855 00000000 		.4byte	pwm1
 15092 2859 1F       		.uleb128 0x1f
 15093 285a D5000000 		.4byte	.LASF75
 15094 285e 01       		.byte	0x1
 15095 285f 28       		.byte	0x28
 15096 2860 93000000 		.4byte	0x93
 15097 2864 05       		.uleb128 0x5
 15098 2865 03       		.byte	0x3
 15099 2866 00000000 		.4byte	pwm2
 15100 286a 20       		.uleb128 0x20
 15101 286b 6E00     		.ascii	"n\000"
 15102 286d 01       		.byte	0x1
 15103 286e 28       		.byte	0x28
 15104 286f 93000000 		.4byte	0x93
 15105 2873 05       		.uleb128 0x5
 15106 2874 03       		.byte	0x3
 15107 2875 00000000 		.4byte	n
 15108 2879 1F       		.uleb128 0x1f
 15109 287a 0B0A0000 		.4byte	.LASF76
 15110 287e 01       		.byte	0x1
 15111 287f 28       		.byte	0x28
 15112 2880 93000000 		.4byte	0x93
 15113 2884 05       		.uleb128 0x5
 15114 2885 03       		.byte	0x3
 15115 2886 00000000 		.4byte	PantallaPrincipal
 15116 288a 1F       		.uleb128 0x1f
 15117 288b 0D010000 		.4byte	.LASF77
 15118 288f 01       		.byte	0x1
 15119 2890 28       		.byte	0x28
 15120 2891 93000000 		.4byte	0x93
 15121 2895 05       		.uleb128 0x5
 15122 2896 03       		.byte	0x3
 15123 2897 00000000 		.4byte	Programa
 15124 289b 1F       		.uleb128 0x1f
 15125 289c 26040000 		.4byte	.LASF78
ARM GAS  C:\Users\JPELEC~1\AppData\Local\Temp\ccEetrge.s 			page 315


 15126 28a0 01       		.byte	0x1
 15127 28a1 28       		.byte	0x28
 15128 28a2 93000000 		.4byte	0x93
 15129 28a6 05       		.uleb128 0x5
 15130 28a7 03       		.byte	0x3
 15131 28a8 00000000 		.4byte	Opcion2
 15132 28ac 20       		.uleb128 0x20
 15133 28ad 63747200 		.ascii	"ctr\000"
 15134 28b1 01       		.byte	0x1
 15135 28b2 29       		.byte	0x29
 15136 28b3 C0000000 		.4byte	0xc0
 15137 28b7 05       		.uleb128 0x5
 15138 28b8 03       		.byte	0x3
 15139 28b9 00000000 		.4byte	ctr
 15140 28bd 1F       		.uleb128 0x1f
 15141 28be 04080000 		.4byte	.LASF79
 15142 28c2 01       		.byte	0x1
 15143 28c3 29       		.byte	0x29
 15144 28c4 C0000000 		.4byte	0xc0
 15145 28c8 05       		.uleb128 0x5
 15146 28c9 03       		.byte	0x3
 15147 28ca 00000000 		.4byte	Setpoint
 15148 28ce 1F       		.uleb128 0x1f
 15149 28cf BA030000 		.4byte	.LASF80
 15150 28d3 01       		.byte	0x1
 15151 28d4 2A       		.byte	0x2a
 15152 28d5 A9000000 		.4byte	0xa9
 15153 28d9 05       		.uleb128 0x5
 15154 28da 03       		.byte	0x3
 15155 28db 00000000 		.4byte	output
 15156 28df 1F       		.uleb128 0x1f
 15157 28e0 1F080000 		.4byte	.LASF81
 15158 28e4 01       		.byte	0x1
 15159 28e5 2A       		.byte	0x2a
 15160 28e6 A9000000 		.4byte	0xa9
 15161 28ea 05       		.uleb128 0x5
 15162 28eb 03       		.byte	0x3
 15163 28ec 00000000 		.4byte	tGrafica
 15164 28f0 1F       		.uleb128 0x1f
 15165 28f1 16060000 		.4byte	.LASF82
 15166 28f5 01       		.byte	0x1
 15167 28f6 2B       		.byte	0x2b
 15168 28f7 45000000 		.4byte	0x45
 15169 28fb 05       		.uleb128 0x5
 15170 28fc 03       		.byte	0x3
 15171 28fd 00000000 		.4byte	flagButton0
 15172 2901 1F       		.uleb128 0x1f
 15173 2902 9C080000 		.4byte	.LASF83
 15174 2906 01       		.byte	0x1
 15175 2907 2B       		.byte	0x2b
 15176 2908 45000000 		.4byte	0x45
 15177 290c 05       		.uleb128 0x5
 15178 290d 03       		.byte	0x3
 15179 290e 00000000 		.4byte	flagButton1
 15180 2912 1F       		.uleb128 0x1f
 15181 2913 2D060000 		.4byte	.LASF84
 15182 2917 01       		.byte	0x1
ARM GAS  C:\Users\JPELEC~1\AppData\Local\Temp\ccEetrge.s 			page 316


 15183 2918 2B       		.byte	0x2b
 15184 2919 45000000 		.4byte	0x45
 15185 291d 05       		.uleb128 0x5
 15186 291e 03       		.byte	0x3
 15187 291f 00000000 		.4byte	flagButton2
 15188 2923 1F       		.uleb128 0x1f
 15189 2924 39060000 		.4byte	.LASF85
 15190 2928 01       		.byte	0x1
 15191 2929 2B       		.byte	0x2b
 15192 292a 45000000 		.4byte	0x45
 15193 292e 05       		.uleb128 0x5
 15194 292f 03       		.byte	0x3
 15195 2930 00000000 		.4byte	flagButton3
 15196 2934 1F       		.uleb128 0x1f
 15197 2935 8B090000 		.4byte	.LASF86
 15198 2939 01       		.byte	0x1
 15199 293a 2B       		.byte	0x2b
 15200 293b 45000000 		.4byte	0x45
 15201 293f 05       		.uleb128 0x5
 15202 2940 03       		.byte	0x3
 15203 2941 00000000 		.4byte	dibujo
 15204 2945 1F       		.uleb128 0x1f
 15205 2946 E5030000 		.4byte	.LASF87
 15206 294a 01       		.byte	0x1
 15207 294b 2B       		.byte	0x2b
 15208 294c 45000000 		.4byte	0x45
 15209 2950 05       		.uleb128 0x5
 15210 2951 03       		.byte	0x3
 15211 2952 00000000 		.4byte	pulsoAumentar
 15212 2956 1F       		.uleb128 0x1f
 15213 2957 DE020000 		.4byte	.LASF88
 15214 295b 01       		.byte	0x1
 15215 295c 2B       		.byte	0x2b
 15216 295d 45000000 		.4byte	0x45
 15217 2961 05       		.uleb128 0x5
 15218 2962 03       		.byte	0x3
 15219 2963 00000000 		.4byte	pulsoDisminuir
 15220 2967 1F       		.uleb128 0x1f
 15221 2968 6F0A0000 		.4byte	.LASF89
 15222 296c 01       		.byte	0x1
 15223 296d 2B       		.byte	0x2b
 15224 296e 45000000 		.4byte	0x45
 15225 2972 05       		.uleb128 0x5
 15226 2973 03       		.byte	0x3
 15227 2974 00000000 		.4byte	flagBorrado
 15228 2978 1F       		.uleb128 0x1f
 15229 2979 E4010000 		.4byte	.LASF90
 15230 297d 01       		.byte	0x1
 15231 297e 2B       		.byte	0x2b
 15232 297f 45000000 		.4byte	0x45
 15233 2983 05       		.uleb128 0x5
 15234 2984 03       		.byte	0x3
 15235 2985 00000000 		.4byte	Control
 15236 2989 1F       		.uleb128 0x1f
 15237 298a 15040000 		.4byte	.LASF91
 15238 298e 01       		.byte	0x1
 15239 298f 2B       		.byte	0x2b
ARM GAS  C:\Users\JPELEC~1\AppData\Local\Temp\ccEetrge.s 			page 317


 15240 2990 45000000 		.4byte	0x45
 15241 2994 05       		.uleb128 0x5
 15242 2995 03       		.byte	0x3
 15243 2996 00000000 		.4byte	estadoSSR
 15244 299a 1F       		.uleb128 0x1f
 15245 299b 36040000 		.4byte	.LASF92
 15246 299f 01       		.byte	0x1
 15247 29a0 2B       		.byte	0x2b
 15248 29a1 45000000 		.4byte	0x45
 15249 29a5 05       		.uleb128 0x5
 15250 29a6 03       		.byte	0x3
 15251 29a7 00000000 		.4byte	estadoBuzzer
 15252 29ab 1F       		.uleb128 0x1f
 15253 29ac 81050000 		.4byte	.LASF93
 15254 29b0 01       		.byte	0x1
 15255 29b1 2B       		.byte	0x2b
 15256 29b2 45000000 		.4byte	0x45
 15257 29b6 05       		.uleb128 0x5
 15258 29b7 03       		.byte	0x3
 15259 29b8 00000000 		.4byte	estadoVentilador
 15260 29bc 1F       		.uleb128 0x1f
 15261 29bd 4E050000 		.4byte	.LASF94
 15262 29c1 01       		.byte	0x1
 15263 29c2 2B       		.byte	0x2b
 15264 29c3 45000000 		.4byte	0x45
 15265 29c7 05       		.uleb128 0x5
 15266 29c8 03       		.byte	0x3
 15267 29c9 00000000 		.4byte	flagFinalizo
 15268 29cd 1F       		.uleb128 0x1f
 15269 29ce E4050000 		.4byte	.LASF95
 15270 29d2 01       		.byte	0x1
 15271 29d3 2C       		.byte	0x2c
 15272 29d4 25000000 		.4byte	0x25
 15273 29d8 05       		.uleb128 0x5
 15274 29d9 03       		.byte	0x3
 15275 29da 00000000 		.4byte	valor
 15276 29de 1F       		.uleb128 0x1f
 15277 29df 4F080000 		.4byte	.LASF96
 15278 29e3 01       		.byte	0x1
 15279 29e4 2C       		.byte	0x2c
 15280 29e5 25000000 		.4byte	0x25
 15281 29e9 05       		.uleb128 0x5
 15282 29ea 03       		.byte	0x3
 15283 29eb 00000000 		.4byte	pendiente
 15284 29ef 20       		.uleb128 0x20
 15285 29f0 6200     		.ascii	"b\000"
 15286 29f2 01       		.byte	0x1
 15287 29f3 2C       		.byte	0x2c
 15288 29f4 25000000 		.4byte	0x25
 15289 29f8 05       		.uleb128 0x5
 15290 29f9 03       		.byte	0x3
 15291 29fa 00000000 		.4byte	b
 15292 29fe 0B       		.uleb128 0xb
 15293 29ff 03010000 		.4byte	0x103
 15294 2a03 0E2A0000 		.4byte	0x2a0e
 15295 2a07 0C       		.uleb128 0xc
 15296 2a08 22010000 		.4byte	0x122
ARM GAS  C:\Users\JPELEC~1\AppData\Local\Temp\ccEetrge.s 			page 318


 15297 2a0c 0A       		.byte	0xa
 15298 2a0d 00       		.byte	0
 15299 2a0e 1F       		.uleb128 0x1f
 15300 2a0f 50090000 		.4byte	.LASF97
 15301 2a13 01       		.byte	0x1
 15302 2a14 2F       		.byte	0x2f
 15303 2a15 FE290000 		.4byte	0x29fe
 15304 2a19 05       		.uleb128 0x5
 15305 2a1a 03       		.byte	0x3
 15306 2a1b 00000000 		.4byte	Rx_Buffer
 15307 2a1f 1F       		.uleb128 0x1f
 15308 2a20 C7050000 		.4byte	.LASF98
 15309 2a24 01       		.byte	0x1
 15310 2a25 30       		.byte	0x30
 15311 2a26 FE290000 		.4byte	0x29fe
 15312 2a2a 05       		.uleb128 0x5
 15313 2a2b 03       		.byte	0x3
 15314 2a2c 00000000 		.4byte	Rx_Buffer2
 15315 2a30 1F       		.uleb128 0x1f
 15316 2a31 8D030000 		.4byte	.LASF99
 15317 2a35 01       		.byte	0x1
 15318 2a36 31       		.byte	0x31
 15319 2a37 B4000000 		.4byte	0xb4
 15320 2a3b 05       		.uleb128 0x5
 15321 2a3c 03       		.byte	0x3
 15322 2a3d 00000000 		.4byte	RX_Wr_Index
 15323 2a41 1F       		.uleb128 0x1f
 15324 2a42 A6030000 		.4byte	.LASF100
 15325 2a46 01       		.byte	0x1
 15326 2a47 32       		.byte	0x32
 15327 2a48 B4000000 		.4byte	0xb4
 15328 2a4c 05       		.uleb128 0x5
 15329 2a4d 03       		.byte	0x3
 15330 2a4e 00000000 		.4byte	RX_Rd_Index
 15331 2a52 1F       		.uleb128 0x1f
 15332 2a53 0C050000 		.4byte	.LASF101
 15333 2a57 01       		.byte	0x1
 15334 2a58 33       		.byte	0x33
 15335 2a59 B4000000 		.4byte	0xb4
 15336 2a5d 05       		.uleb128 0x5
 15337 2a5e 03       		.byte	0x3
 15338 2a5f 00000000 		.4byte	RX_Counter
 15339 2a63 1F       		.uleb128 0x1f
 15340 2a64 EA050000 		.4byte	.LASF102
 15341 2a68 01       		.byte	0x1
 15342 2a69 35       		.byte	0x35
 15343 2a6a FE290000 		.4byte	0x29fe
 15344 2a6e 05       		.uleb128 0x5
 15345 2a6f 03       		.byte	0x3
 15346 2a70 00000000 		.4byte	Rx_Buffer3
 15347 2a74 1F       		.uleb128 0x1f
 15348 2a75 22060000 		.4byte	.LASF103
 15349 2a79 01       		.byte	0x1
 15350 2a7a 36       		.byte	0x36
 15351 2a7b FE290000 		.4byte	0x29fe
 15352 2a7f 05       		.uleb128 0x5
 15353 2a80 03       		.byte	0x3
ARM GAS  C:\Users\JPELEC~1\AppData\Local\Temp\ccEetrge.s 			page 319


 15354 2a81 00000000 		.4byte	Rx_Buffer4
 15355 2a85 1F       		.uleb128 0x1f
 15356 2a86 C1030000 		.4byte	.LASF104
 15357 2a8a 01       		.byte	0x1
 15358 2a8b 37       		.byte	0x37
 15359 2a8c B4000000 		.4byte	0xb4
 15360 2a90 05       		.uleb128 0x5
 15361 2a91 03       		.byte	0x3
 15362 2a92 00000000 		.4byte	RX_Wr_Index2
 15363 2a96 1F       		.uleb128 0x1f
 15364 2a97 99040000 		.4byte	.LASF105
 15365 2a9b 01       		.byte	0x1
 15366 2a9c 38       		.byte	0x38
 15367 2a9d B4000000 		.4byte	0xb4
 15368 2aa1 05       		.uleb128 0x5
 15369 2aa2 03       		.byte	0x3
 15370 2aa3 00000000 		.4byte	RX_Rd_Index2
 15371 2aa7 1F       		.uleb128 0x1f
 15372 2aa8 24000000 		.4byte	.LASF106
 15373 2aac 01       		.byte	0x1
 15374 2aad 39       		.byte	0x39
 15375 2aae B4000000 		.4byte	0xb4
 15376 2ab2 05       		.uleb128 0x5
 15377 2ab3 03       		.byte	0x3
 15378 2ab4 00000000 		.4byte	RX_Counter2
 15379 2ab8 1F       		.uleb128 0x1f
 15380 2ab9 B7020000 		.4byte	.LASF107
 15381 2abd 01       		.byte	0x1
 15382 2abe 3B       		.byte	0x3b
 15383 2abf 93260000 		.4byte	0x2693
 15384 2ac3 05       		.uleb128 0x5
 15385 2ac4 03       		.byte	0x3
 15386 2ac5 00000000 		.4byte	i2cbuf
 15387 2ac9 0B       		.uleb128 0xb
 15388 2aca B4000000 		.4byte	0xb4
 15389 2ace D92A0000 		.4byte	0x2ad9
 15390 2ad2 0C       		.uleb128 0xc
 15391 2ad3 22010000 		.4byte	0x122
 15392 2ad7 0E       		.byte	0xe
 15393 2ad8 00       		.byte	0
 15394 2ad9 1F       		.uleb128 0x1f
 15395 2ada 00050000 		.4byte	.LASF108
 15396 2ade 01       		.byte	0x1
 15397 2adf 3C       		.byte	0x3c
 15398 2ae0 C92A0000 		.4byte	0x2ac9
 15399 2ae4 05       		.uleb128 0x5
 15400 2ae5 03       		.byte	0x3
 15401 2ae6 00000000 		.4byte	iconoGrande
 15402 2aea 1F       		.uleb128 0x1f
 15403 2aeb D9040000 		.4byte	.LASF109
 15404 2aef 01       		.byte	0x1
 15405 2af0 3D       		.byte	0x3d
 15406 2af1 C92A0000 		.4byte	0x2ac9
 15407 2af5 05       		.uleb128 0x5
 15408 2af6 03       		.byte	0x3
 15409 2af7 00000000 		.4byte	iconoPeque
 15410 2afb 0B       		.uleb128 0xb
ARM GAS  C:\Users\JPELEC~1\AppData\Local\Temp\ccEetrge.s 			page 320


 15411 2afc 2F010000 		.4byte	0x12f
 15412 2b00 112B0000 		.4byte	0x2b11
 15413 2b04 0C       		.uleb128 0xc
 15414 2b05 22010000 		.4byte	0x122
 15415 2b09 08       		.byte	0x8
 15416 2b0a 0C       		.uleb128 0xc
 15417 2b0b 22010000 		.4byte	0x122
 15418 2b0f 13       		.byte	0x13
 15419 2b10 00       		.byte	0
 15420 2b11 1F       		.uleb128 0x1f
 15421 2b12 A6040000 		.4byte	.LASF110
 15422 2b16 01       		.byte	0x1
 15423 2b17 3E       		.byte	0x3e
 15424 2b18 222B0000 		.4byte	0x2b22
 15425 2b1c 05       		.uleb128 0x5
 15426 2b1d 03       		.byte	0x3
 15427 2b1e 00000000 		.4byte	texto
 15428 2b22 08       		.uleb128 0x8
 15429 2b23 FB2A0000 		.4byte	0x2afb
 15430 2b27 0B       		.uleb128 0xb
 15431 2b28 25000000 		.4byte	0x25
 15432 2b2c 372B0000 		.4byte	0x2b37
 15433 2b30 0C       		.uleb128 0xc
 15434 2b31 22010000 		.4byte	0x122
 15435 2b35 59       		.byte	0x59
 15436 2b36 00       		.byte	0
 15437 2b37 1F       		.uleb128 0x1f
 15438 2b38 DC030000 		.4byte	.LASF111
 15439 2b3c 01       		.byte	0x1
 15440 2b3d 3F       		.byte	0x3f
 15441 2b3e 272B0000 		.4byte	0x2b27
 15442 2b42 05       		.uleb128 0x5
 15443 2b43 03       		.byte	0x3
 15444 2b44 00000000 		.4byte	promedio
 15445 2b48 1F       		.uleb128 0x1f
 15446 2b49 67020000 		.4byte	.LASF112
 15447 2b4d 01       		.byte	0x1
 15448 2b4e 41       		.byte	0x41
 15449 2b4f B4000000 		.4byte	0xb4
 15450 2b53 05       		.uleb128 0x5
 15451 2b54 03       		.byte	0x3
 15452 2b55 00000000 		.4byte	Dato2
 15453 2b59 1F       		.uleb128 0x1f
 15454 2b5a 6D020000 		.4byte	.LASF113
 15455 2b5e 01       		.byte	0x1
 15456 2b5f 41       		.byte	0x41
 15457 2b60 B4000000 		.4byte	0xb4
 15458 2b64 05       		.uleb128 0x5
 15459 2b65 03       		.byte	0x3
 15460 2b66 00000000 		.4byte	Dato3
 15461 2b6a 1F       		.uleb128 0x1f
 15462 2b6b 51030000 		.4byte	.LASF114
 15463 2b6f 01       		.byte	0x1
 15464 2b70 41       		.byte	0x41
 15465 2b71 B4000000 		.4byte	0xb4
 15466 2b75 05       		.uleb128 0x5
 15467 2b76 03       		.byte	0x3
ARM GAS  C:\Users\JPELEC~1\AppData\Local\Temp\ccEetrge.s 			page 321


 15468 2b77 00000000 		.4byte	Dato_Exitoso
 15469 2b7b 1F       		.uleb128 0x1f
 15470 2b7c 15020000 		.4byte	.LASF115
 15471 2b80 01       		.byte	0x1
 15472 2b81 41       		.byte	0x41
 15473 2b82 B4000000 		.4byte	0xb4
 15474 2b86 05       		.uleb128 0x5
 15475 2b87 03       		.byte	0x3
 15476 2b88 00000000 		.4byte	Dato_Exitoso2
 15477 2b8c 1F       		.uleb128 0x1f
 15478 2b8d 4A080000 		.4byte	.LASF116
 15479 2b91 01       		.byte	0x1
 15480 2b92 41       		.byte	0x41
 15481 2b93 B4000000 		.4byte	0xb4
 15482 2b97 05       		.uleb128 0x5
 15483 2b98 03       		.byte	0x3
 15484 2b99 00000000 		.4byte	Menu
 15485 2b9d 1F       		.uleb128 0x1f
 15486 2b9e CC020000 		.4byte	.LASF117
 15487 2ba2 01       		.byte	0x1
 15488 2ba3 41       		.byte	0x41
 15489 2ba4 B4000000 		.4byte	0xb4
 15490 2ba8 05       		.uleb128 0x5
 15491 2ba9 03       		.byte	0x3
 15492 2baa 00000000 		.4byte	MenuAntt
 15493 2bae 1F       		.uleb128 0x1f
 15494 2baf 8C010000 		.4byte	.LASF118
 15495 2bb3 01       		.byte	0x1
 15496 2bb4 41       		.byte	0x41
 15497 2bb5 B4000000 		.4byte	0xb4
 15498 2bb9 05       		.uleb128 0x5
 15499 2bba 03       		.byte	0x3
 15500 2bbb 00000000 		.4byte	MenuAnt
 15501 2bbf 1F       		.uleb128 0x1f
 15502 2bc0 7B030000 		.4byte	.LASF119
 15503 2bc4 01       		.byte	0x1
 15504 2bc5 41       		.byte	0x41
 15505 2bc6 B4000000 		.4byte	0xb4
 15506 2bca 05       		.uleb128 0x5
 15507 2bcb 03       		.byte	0x3
 15508 2bcc 00000000 		.4byte	Menu2
 15509 2bd0 1F       		.uleb128 0x1f
 15510 2bd1 AE080000 		.4byte	.LASF120
 15511 2bd5 01       		.byte	0x1
 15512 2bd6 41       		.byte	0x41
 15513 2bd7 B4000000 		.4byte	0xb4
 15514 2bdb 05       		.uleb128 0x5
 15515 2bdc 03       		.byte	0x3
 15516 2bdd 00000000 		.4byte	MenuAntt2
 15517 2be1 20       		.uleb128 0x20
 15518 2be2 7A00     		.ascii	"z\000"
 15519 2be4 01       		.byte	0x1
 15520 2be5 41       		.byte	0x41
 15521 2be6 B4000000 		.4byte	0xb4
 15522 2bea 05       		.uleb128 0x5
 15523 2beb 03       		.byte	0x3
 15524 2bec 00000000 		.4byte	z
ARM GAS  C:\Users\JPELEC~1\AppData\Local\Temp\ccEetrge.s 			page 322


 15525 2bf0 1F       		.uleb128 0x1f
 15526 2bf1 B0090000 		.4byte	.LASF121
 15527 2bf5 01       		.byte	0x1
 15528 2bf6 41       		.byte	0x41
 15529 2bf7 B4000000 		.4byte	0xb4
 15530 2bfb 05       		.uleb128 0x5
 15531 2bfc 03       		.byte	0x3
 15532 2bfd 00000000 		.4byte	TipoClave
 15533 2c01 1F       		.uleb128 0x1f
 15534 2c02 FD020000 		.4byte	.LASF122
 15535 2c06 01       		.byte	0x1
 15536 2c07 41       		.byte	0x41
 15537 2c08 B4000000 		.4byte	0xb4
 15538 2c0c 05       		.uleb128 0x5
 15539 2c0d 03       		.byte	0x3
 15540 2c0e 00000000 		.4byte	Segmentos
 15541 2c12 1F       		.uleb128 0x1f
 15542 2c13 B8080000 		.4byte	.LASF123
 15543 2c17 01       		.byte	0x1
 15544 2c18 41       		.byte	0x41
 15545 2c19 B4000000 		.4byte	0xb4
 15546 2c1d 05       		.uleb128 0x5
 15547 2c1e 03       		.byte	0x3
 15548 2c1f 00000000 		.4byte	CicloLibre
 15549 2c23 1F       		.uleb128 0x1f
 15550 2c24 D1060000 		.4byte	.LASF124
 15551 2c28 01       		.byte	0x1
 15552 2c29 41       		.byte	0x41
 15553 2c2a B4000000 		.4byte	0xb4
 15554 2c2e 05       		.uleb128 0x5
 15555 2c2f 03       		.byte	0x3
 15556 2c30 00000000 		.4byte	Opcion
 15557 2c34 20       		.uleb128 0x20
 15558 2c35 6800     		.ascii	"h\000"
 15559 2c37 01       		.byte	0x1
 15560 2c38 41       		.byte	0x41
 15561 2c39 B4000000 		.4byte	0xb4
 15562 2c3d 05       		.uleb128 0x5
 15563 2c3e 03       		.byte	0x3
 15564 2c3f 00000000 		.4byte	h
 15565 2c43 20       		.uleb128 0x20
 15566 2c44 6C00     		.ascii	"l\000"
 15567 2c46 01       		.byte	0x1
 15568 2c47 41       		.byte	0x41
 15569 2c48 B4000000 		.4byte	0xb4
 15570 2c4c 05       		.uleb128 0x5
 15571 2c4d 03       		.byte	0x3
 15572 2c4e 00000000 		.4byte	l
 15573 2c52 1F       		.uleb128 0x1f
 15574 2c53 3F070000 		.4byte	.LASF125
 15575 2c57 01       		.byte	0x1
 15576 2c58 42       		.byte	0x42
 15577 2c59 45000000 		.4byte	0x45
 15578 2c5d 05       		.uleb128 0x5
 15579 2c5e 03       		.byte	0x3
 15580 2c5f 00000000 		.4byte	Inicio
 15581 2c63 1F       		.uleb128 0x1f
ARM GAS  C:\Users\JPELEC~1\AppData\Local\Temp\ccEetrge.s 			page 323


 15582 2c64 3A090000 		.4byte	.LASF126
 15583 2c68 01       		.byte	0x1
 15584 2c69 42       		.byte	0x42
 15585 2c6a 45000000 		.4byte	0x45
 15586 2c6e 05       		.uleb128 0x5
 15587 2c6f 03       		.byte	0x3
 15588 2c70 00000000 		.4byte	Inicio2
 15589 2c74 1F       		.uleb128 0x1f
 15590 2c75 45060000 		.4byte	.LASF127
 15591 2c79 01       		.byte	0x1
 15592 2c7a 42       		.byte	0x42
 15593 2c7b 45000000 		.4byte	0x45
 15594 2c7f 05       		.uleb128 0x5
 15595 2c80 03       		.byte	0x3
 15596 2c81 00000000 		.4byte	EstadoPaso
 15597 2c85 1F       		.uleb128 0x1f
 15598 2c86 AF000000 		.4byte	.LASF128
 15599 2c8a 01       		.byte	0x1
 15600 2c8b 42       		.byte	0x42
 15601 2c8c 45000000 		.4byte	0x45
 15602 2c90 05       		.uleb128 0x5
 15603 2c91 03       		.byte	0x3
 15604 2c92 00000000 		.4byte	entro
 15605 2c96 1F       		.uleb128 0x1f
 15606 2c97 BB040000 		.4byte	.LASF129
 15607 2c9b 01       		.byte	0x1
 15608 2c9c 42       		.byte	0x42
 15609 2c9d 45000000 		.4byte	0x45
 15610 2ca1 05       		.uleb128 0x5
 15611 2ca2 03       		.byte	0x3
 15612 2ca3 00000000 		.4byte	GuardaEEPROM
 15613 2ca7 1F       		.uleb128 0x1f
 15614 2ca8 FE060000 		.4byte	.LASF130
 15615 2cac 01       		.byte	0x1
 15616 2cad 42       		.byte	0x42
 15617 2cae 45000000 		.4byte	0x45
 15618 2cb2 05       		.uleb128 0x5
 15619 2cb3 03       		.byte	0x3
 15620 2cb4 00000000 		.4byte	rampa
 15621 2cb8 1F       		.uleb128 0x1f
 15622 2cb9 42090000 		.4byte	.LASF31
 15623 2cbd 01       		.byte	0x1
 15624 2cbe 42       		.byte	0x42
 15625 2cbf 45000000 		.4byte	0x45
 15626 2cc3 05       		.uleb128 0x5
 15627 2cc4 03       		.byte	0x3
 15628 2cc5 00000000 		.4byte	Minutos
 15629 2cc9 1F       		.uleb128 0x1f
 15630 2cca 4A090000 		.4byte	.LASF30
 15631 2cce 01       		.byte	0x1
 15632 2ccf 42       		.byte	0x42
 15633 2cd0 45000000 		.4byte	0x45
 15634 2cd4 05       		.uleb128 0x5
 15635 2cd5 03       		.byte	0x3
 15636 2cd6 00000000 		.4byte	Horas
 15637 2cda 1F       		.uleb128 0x1f
 15638 2cdb 15030000 		.4byte	.LASF131
ARM GAS  C:\Users\JPELEC~1\AppData\Local\Temp\ccEetrge.s 			page 324


 15639 2cdf 01       		.byte	0x1
 15640 2ce0 42       		.byte	0x42
 15641 2ce1 45000000 		.4byte	0x45
 15642 2ce5 05       		.uleb128 0x5
 15643 2ce6 03       		.byte	0x3
 15644 2ce7 00000000 		.4byte	flagTemperatura
 15645 2ceb 1F       		.uleb128 0x1f
 15646 2cec 2D090000 		.4byte	.LASF132
 15647 2cf0 01       		.byte	0x1
 15648 2cf1 42       		.byte	0x42
 15649 2cf2 45000000 		.4byte	0x45
 15650 2cf6 05       		.uleb128 0x5
 15651 2cf7 03       		.byte	0x3
 15652 2cf8 00000000 		.4byte	Test
 15653 2cfc 20       		.uleb128 0x20
 15654 2cfd 783100   		.ascii	"x1\000"
 15655 2d00 01       		.byte	0x1
 15656 2d01 42       		.byte	0x42
 15657 2d02 45000000 		.4byte	0x45
 15658 2d06 05       		.uleb128 0x5
 15659 2d07 03       		.byte	0x3
 15660 2d08 00000000 		.4byte	x1
 15661 2d0c 20       		.uleb128 0x20
 15662 2d0d 78313000 		.ascii	"x10\000"
 15663 2d11 01       		.byte	0x1
 15664 2d12 42       		.byte	0x42
 15665 2d13 45000000 		.4byte	0x45
 15666 2d17 05       		.uleb128 0x5
 15667 2d18 03       		.byte	0x3
 15668 2d19 00000000 		.4byte	x10
 15669 2d1d 1F       		.uleb128 0x1f
 15670 2d1e F8020000 		.4byte	.LASF133
 15671 2d22 01       		.byte	0x1
 15672 2d23 42       		.byte	0x42
 15673 2d24 45000000 		.4byte	0x45
 15674 2d28 05       		.uleb128 0x5
 15675 2d29 03       		.byte	0x3
 15676 2d2a 00000000 		.4byte	x100
 15677 2d2e 1F       		.uleb128 0x1f
 15678 2d2f 30000000 		.4byte	.LASF134
 15679 2d33 01       		.byte	0x1
 15680 2d34 44       		.byte	0x44
 15681 2d35 B4000000 		.4byte	0xb4
 15682 2d39 05       		.uleb128 0x5
 15683 2d3a 03       		.byte	0x3
 15684 2d3b 00000000 		.4byte	tiempo_esterilizacion
 15685 2d3f 20       		.uleb128 0x20
 15686 2d40 7900     		.ascii	"y\000"
 15687 2d42 01       		.byte	0x1
 15688 2d43 44       		.byte	0x44
 15689 2d44 B4000000 		.4byte	0xb4
 15690 2d48 05       		.uleb128 0x5
 15691 2d49 03       		.byte	0x3
 15692 2d4a 00000000 		.4byte	y
 15693 2d4e 1F       		.uleb128 0x1f
 15694 2d4f F9000000 		.4byte	.LASF135
 15695 2d53 01       		.byte	0x1
ARM GAS  C:\Users\JPELEC~1\AppData\Local\Temp\ccEetrge.s 			page 325


 15696 2d54 44       		.byte	0x44
 15697 2d55 B4000000 		.4byte	0xb4
 15698 2d59 05       		.uleb128 0x5
 15699 2d5a 03       		.byte	0x3
 15700 2d5b 00000000 		.4byte	hEst
 15701 2d5f 1F       		.uleb128 0x1f
 15702 2d60 CE030000 		.4byte	.LASF136
 15703 2d64 01       		.byte	0x1
 15704 2d65 44       		.byte	0x44
 15705 2d66 B4000000 		.4byte	0xb4
 15706 2d6a 05       		.uleb128 0x5
 15707 2d6b 03       		.byte	0x3
 15708 2d6c 00000000 		.4byte	mEst
 15709 2d70 1F       		.uleb128 0x1f
 15710 2d71 1D0A0000 		.4byte	.LASF137
 15711 2d75 01       		.byte	0x1
 15712 2d76 44       		.byte	0x44
 15713 2d77 B4000000 		.4byte	0xb4
 15714 2d7b 05       		.uleb128 0x5
 15715 2d7c 03       		.byte	0x3
 15716 2d7d 00000000 		.4byte	hEstp
 15717 2d81 1F       		.uleb128 0x1f
 15718 2d82 84000000 		.4byte	.LASF138
 15719 2d86 01       		.byte	0x1
 15720 2d87 44       		.byte	0x44
 15721 2d88 B4000000 		.4byte	0xb4
 15722 2d8c 05       		.uleb128 0x5
 15723 2d8d 03       		.byte	0x3
 15724 2d8e 00000000 		.4byte	mEstp
 15725 2d92 1F       		.uleb128 0x1f
 15726 2d93 00000000 		.4byte	.LASF139
 15727 2d97 01       		.byte	0x1
 15728 2d98 44       		.byte	0x44
 15729 2d99 B4000000 		.4byte	0xb4
 15730 2d9d 05       		.uleb128 0x5
 15731 2d9e 03       		.byte	0x3
 15732 2d9f 00000000 		.4byte	Segmento
 15733 2da3 1F       		.uleb128 0x1f
 15734 2da4 59080000 		.4byte	.LASF140
 15735 2da8 01       		.byte	0x1
 15736 2da9 44       		.byte	0x44
 15737 2daa B4000000 		.4byte	0xb4
 15738 2dae 05       		.uleb128 0x5
 15739 2daf 03       		.byte	0x3
 15740 2db0 00000000 		.4byte	conteo
 15741 2db4 1F       		.uleb128 0x1f
 15742 2db5 F1040000 		.4byte	.LASF141
 15743 2db9 01       		.byte	0x1
 15744 2dba 45       		.byte	0x45
 15745 2dbb C0000000 		.4byte	0xc0
 15746 2dbf 05       		.uleb128 0x5
 15747 2dc0 03       		.byte	0x3
 15748 2dc1 00000000 		.4byte	tiempos
 15749 2dc5 1F       		.uleb128 0x1f
 15750 2dc6 4A040000 		.4byte	.LASF142
 15751 2dca 01       		.byte	0x1
 15752 2dcb 45       		.byte	0x45
ARM GAS  C:\Users\JPELEC~1\AppData\Local\Temp\ccEetrge.s 			page 326


 15753 2dcc C0000000 		.4byte	0xc0
 15754 2dd0 05       		.uleb128 0x5
 15755 2dd1 03       		.byte	0x3
 15756 2dd2 00000000 		.4byte	tiempos3
 15757 2dd6 1F       		.uleb128 0x1f
 15758 2dd7 36020000 		.4byte	.LASF143
 15759 2ddb 01       		.byte	0x1
 15760 2ddc 45       		.byte	0x45
 15761 2ddd C0000000 		.4byte	0xc0
 15762 2de1 05       		.uleb128 0x5
 15763 2de2 03       		.byte	0x3
 15764 2de3 00000000 		.4byte	tiempoctrl
 15765 2de7 20       		.uleb128 0x20
 15766 2de8 546300   		.ascii	"Tc\000"
 15767 2deb 01       		.byte	0x1
 15768 2dec 45       		.byte	0x45
 15769 2ded C0000000 		.4byte	0xc0
 15770 2df1 05       		.uleb128 0x5
 15771 2df2 03       		.byte	0x3
 15772 2df3 00000000 		.4byte	Tc
 15773 2df7 20       		.uleb128 0x20
 15774 2df8 547000   		.ascii	"Tp\000"
 15775 2dfb 01       		.byte	0x1
 15776 2dfc 45       		.byte	0x45
 15777 2dfd C0000000 		.4byte	0xc0
 15778 2e01 05       		.uleb128 0x5
 15779 2e02 03       		.byte	0x3
 15780 2e03 00000000 		.4byte	Tp
 15781 2e07 1F       		.uleb128 0x1f
 15782 2e08 CC0A0000 		.4byte	.LASF144
 15783 2e0c 01       		.byte	0x1
 15784 2e0d 45       		.byte	0x45
 15785 2e0e C0000000 		.4byte	0xc0
 15786 2e12 05       		.uleb128 0x5
 15787 2e13 03       		.byte	0x3
 15788 2e14 00000000 		.4byte	tiemporeset
 15789 2e18 1F       		.uleb128 0x1f
 15790 2e19 92050000 		.4byte	.LASF145
 15791 2e1d 01       		.byte	0x1
 15792 2e1e 45       		.byte	0x45
 15793 2e1f C0000000 		.4byte	0xc0
 15794 2e23 05       		.uleb128 0x5
 15795 2e24 03       		.byte	0x3
 15796 2e25 00000000 		.4byte	TiempoControl
 15797 2e29 1F       		.uleb128 0x1f
 15798 2e2a 0E090000 		.4byte	.LASF146
 15799 2e2e 01       		.byte	0x1
 15800 2e2f 45       		.byte	0x45
 15801 2e30 C0000000 		.4byte	0xc0
 15802 2e34 05       		.uleb128 0x5
 15803 2e35 03       		.byte	0x3
 15804 2e36 00000000 		.4byte	tiemporecta
 15805 2e3a 1F       		.uleb128 0x1f
 15806 2e3b 5A090000 		.4byte	.LASF147
 15807 2e3f 01       		.byte	0x1
 15808 2e40 45       		.byte	0x45
 15809 2e41 C0000000 		.4byte	0xc0
ARM GAS  C:\Users\JPELEC~1\AppData\Local\Temp\ccEetrge.s 			page 327


 15810 2e45 05       		.uleb128 0x5
 15811 2e46 03       		.byte	0x3
 15812 2e47 00000000 		.4byte	tiemposetpoint
 15813 2e4b 1F       		.uleb128 0x1f
 15814 2e4c 4E010000 		.4byte	.LASF148
 15815 2e50 01       		.byte	0x1
 15816 2e51 45       		.byte	0x45
 15817 2e52 C0000000 		.4byte	0xc0
 15818 2e56 05       		.uleb128 0x5
 15819 2e57 03       		.byte	0x3
 15820 2e58 00000000 		.4byte	tinicio
 15821 2e5c 1F       		.uleb128 0x1f
 15822 2e5d 17050000 		.4byte	.LASF149
 15823 2e61 01       		.byte	0x1
 15824 2e62 45       		.byte	0x45
 15825 2e63 C0000000 		.4byte	0xc0
 15826 2e67 05       		.uleb128 0x5
 15827 2e68 03       		.byte	0x3
 15828 2e69 00000000 		.4byte	tiempocalentamiento
 15829 2e6d 1F       		.uleb128 0x1f
 15830 2e6e D5020000 		.4byte	.LASF150
 15831 2e72 01       		.byte	0x1
 15832 2e73 45       		.byte	0x45
 15833 2e74 C0000000 		.4byte	0xc0
 15834 2e78 05       		.uleb128 0x5
 15835 2e79 03       		.byte	0x3
 15836 2e7a 00000000 		.4byte	tiempoup
 15837 2e7e 1F       		.uleb128 0x1f
 15838 2e7f D2050000 		.4byte	.LASF151
 15839 2e83 01       		.byte	0x1
 15840 2e84 45       		.byte	0x45
 15841 2e85 C0000000 		.4byte	0xc0
 15842 2e89 05       		.uleb128 0x5
 15843 2e8a 03       		.byte	0x3
 15844 2e8b 00000000 		.4byte	tiempodn
 15845 2e8f 1F       		.uleb128 0x1f
 15846 2e90 F5080000 		.4byte	.LASF152
 15847 2e94 01       		.byte	0x1
 15848 2e95 46       		.byte	0x46
 15849 2e96 45000000 		.4byte	0x45
 15850 2e9a 05       		.uleb128 0x5
 15851 2e9b 03       		.byte	0x3
 15852 2e9c 00000000 		.4byte	mensaje
 15853 2ea0 1F       		.uleb128 0x1f
 15854 2ea1 65030000 		.4byte	.LASF153
 15855 2ea5 01       		.byte	0x1
 15856 2ea6 46       		.byte	0x46
 15857 2ea7 45000000 		.4byte	0x45
 15858 2eab 05       		.uleb128 0x5
 15859 2eac 03       		.byte	0x3
 15860 2ead 00000000 		.4byte	Lectura2
 15861 2eb1 1F       		.uleb128 0x1f
 15862 2eb2 68070000 		.4byte	.LASF154
 15863 2eb6 01       		.byte	0x1
 15864 2eb7 46       		.byte	0x46
 15865 2eb8 45000000 		.4byte	0x45
 15866 2ebc 05       		.uleb128 0x5
ARM GAS  C:\Users\JPELEC~1\AppData\Local\Temp\ccEetrge.s 			page 328


 15867 2ebd 03       		.byte	0x3
 15868 2ebe 00000000 		.4byte	flag_setpoint
 15869 2ec2 1F       		.uleb128 0x1f
 15870 2ec3 7B0A0000 		.4byte	.LASF155
 15871 2ec7 01       		.byte	0x1
 15872 2ec8 46       		.byte	0x46
 15873 2ec9 45000000 		.4byte	0x45
 15874 2ecd 05       		.uleb128 0x5
 15875 2ece 03       		.byte	0x3
 15876 2ecf 00000000 		.4byte	flag_tiempocalentamiento
 15877 2ed3 1F       		.uleb128 0x1f
 15878 2ed4 D8060000 		.4byte	.LASF156
 15879 2ed8 01       		.byte	0x1
 15880 2ed9 46       		.byte	0x46
 15881 2eda 45000000 		.4byte	0x45
 15882 2ede 05       		.uleb128 0x5
 15883 2edf 03       		.byte	0x3
 15884 2ee0 00000000 		.4byte	Lectura
 15885 2ee4 1F       		.uleb128 0x1f
 15886 2ee5 43040000 		.4byte	.LASF157
 15887 2ee9 01       		.byte	0x1
 15888 2eea 46       		.byte	0x46
 15889 2eeb 45000000 		.4byte	0x45
 15890 2eef 05       		.uleb128 0x5
 15891 2ef0 03       		.byte	0x3
 15892 2ef1 00000000 		.4byte	flagup
 15893 2ef5 1F       		.uleb128 0x1f
 15894 2ef6 94010000 		.4byte	.LASF158
 15895 2efa 01       		.byte	0x1
 15896 2efb 46       		.byte	0x46
 15897 2efc 45000000 		.4byte	0x45
 15898 2f00 05       		.uleb128 0x5
 15899 2f01 03       		.byte	0x3
 15900 2f02 00000000 		.4byte	flagdn
 15901 2f06 1F       		.uleb128 0x1f
 15902 2f07 40080000 		.4byte	.LASF159
 15903 2f0b 01       		.byte	0x1
 15904 2f0c 46       		.byte	0x46
 15905 2f0d 45000000 		.4byte	0x45
 15906 2f11 05       		.uleb128 0x5
 15907 2f12 03       		.byte	0x3
 15908 2f13 00000000 		.4byte	flagRampa
 15909 2f17 1F       		.uleb128 0x1f
 15910 2f18 99030000 		.4byte	.LASF160
 15911 2f1c 01       		.byte	0x1
 15912 2f1d 46       		.byte	0x46
 15913 2f1e 45000000 		.4byte	0x45
 15914 2f22 05       		.uleb128 0x5
 15915 2f23 03       		.byte	0x3
 15916 2f24 00000000 		.4byte	flag_calcula
 15917 2f28 1F       		.uleb128 0x1f
 15918 2f29 78060000 		.4byte	.LASF161
 15919 2f2d 01       		.byte	0x1
 15920 2f2e 47       		.byte	0x47
 15921 2f2f 45000000 		.4byte	0x45
 15922 2f33 05       		.uleb128 0x5
 15923 2f34 03       		.byte	0x3
ARM GAS  C:\Users\JPELEC~1\AppData\Local\Temp\ccEetrge.s 			page 329


 15924 2f35 00000000 		.4byte	Finalizo
 15925 2f39 1F       		.uleb128 0x1f
 15926 2f3a F5050000 		.4byte	.LASF162
 15927 2f3e 01       		.byte	0x1
 15928 2f3f 47       		.byte	0x47
 15929 2f40 45000000 		.4byte	0x45
 15930 2f44 05       		.uleb128 0x5
 15931 2f45 03       		.byte	0x3
 15932 2f46 00000000 		.4byte	conteoPregunta
 15933 2f4a 1F       		.uleb128 0x1f
 15934 2f4b 2E040000 		.4byte	.LASF163
 15935 2f4f 01       		.byte	0x1
 15936 2f50 47       		.byte	0x47
 15937 2f51 45000000 		.4byte	0x45
 15938 2f55 05       		.uleb128 0x5
 15939 2f56 03       		.byte	0x3
 15940 2f57 00000000 		.4byte	grafica
 15941 2f5b 1F       		.uleb128 0x1f
 15942 2f5c 3A0A0000 		.4byte	.LASF164
 15943 2f60 01       		.byte	0x1
 15944 2f61 47       		.byte	0x47
 15945 2f62 45000000 		.4byte	0x45
 15946 2f66 05       		.uleb128 0x5
 15947 2f67 03       		.byte	0x3
 15948 2f68 00000000 		.4byte	imprime
 15949 2f6c 0B       		.uleb128 0xb
 15950 2f6d 25000000 		.4byte	0x25
 15951 2f71 7C2F0000 		.4byte	0x2f7c
 15952 2f75 0C       		.uleb128 0xc
 15953 2f76 22010000 		.4byte	0x122
 15954 2f7a 01       		.byte	0x1
 15955 2f7b 00       		.byte	0
 15956 2f7c 20       		.uleb128 0x20
 15957 2f7d 5800     		.ascii	"X\000"
 15958 2f7f 01       		.byte	0x1
 15959 2f80 48       		.byte	0x48
 15960 2f81 6C2F0000 		.4byte	0x2f6c
 15961 2f85 05       		.uleb128 0x5
 15962 2f86 03       		.byte	0x3
 15963 2f87 00000000 		.4byte	X
 15964 2f8b 1F       		.uleb128 0x1f
 15965 2f8c 92090000 		.4byte	.LASF32
 15966 2f90 01       		.byte	0x1
 15967 2f91 49       		.byte	0x49
 15968 2f92 25000000 		.4byte	0x25
 15969 2f96 05       		.uleb128 0x5
 15970 2f97 03       		.byte	0x3
 15971 2f98 00000000 		.4byte	Temperatura
 15972 2f9c 1F       		.uleb128 0x1f
 15973 2f9d B2030000 		.4byte	.LASF165
 15974 2fa1 01       		.byte	0x1
 15975 2fa2 49       		.byte	0x49
 15976 2fa3 25000000 		.4byte	0x25
 15977 2fa7 05       		.uleb128 0x5
 15978 2fa8 03       		.byte	0x3
 15979 2fa9 00000000 		.4byte	Aumento
 15980 2fad 1F       		.uleb128 0x1f
ARM GAS  C:\Users\JPELEC~1\AppData\Local\Temp\ccEetrge.s 			page 330


 15981 2fae DD080000 		.4byte	.LASF166
 15982 2fb2 01       		.byte	0x1
 15983 2fb3 49       		.byte	0x49
 15984 2fb4 25000000 		.4byte	0x25
 15985 2fb8 05       		.uleb128 0x5
 15986 2fb9 03       		.byte	0x3
 15987 2fba 00000000 		.4byte	PendienteActual
 15988 2fbe 1F       		.uleb128 0x1f
 15989 2fbf C4060000 		.4byte	.LASF167
 15990 2fc3 01       		.byte	0x1
 15991 2fc4 49       		.byte	0x49
 15992 2fc5 25000000 		.4byte	0x25
 15993 2fc9 05       		.uleb128 0x5
 15994 2fca 03       		.byte	0x3
 15995 2fcb 00000000 		.4byte	DifPendiente
 15996 2fcf 1F       		.uleb128 0x1f
 15997 2fd0 E4040000 		.4byte	.LASF168
 15998 2fd4 01       		.byte	0x1
 15999 2fd5 49       		.byte	0x49
 16000 2fd6 25000000 		.4byte	0x25
 16001 2fda 05       		.uleb128 0x5
 16002 2fdb 03       		.byte	0x3
 16003 2fdc 00000000 		.4byte	TempeInicial
 16004 2fe0 1F       		.uleb128 0x1f
 16005 2fe1 940A0000 		.4byte	.LASF169
 16006 2fe5 01       		.byte	0x1
 16007 2fe6 49       		.byte	0x49
 16008 2fe7 25000000 		.4byte	0x25
 16009 2feb 05       		.uleb128 0x5
 16010 2fec 03       		.byte	0x3
 16011 2fed 00000000 		.4byte	Pendiente
 16012 2ff1 1F       		.uleb128 0x1f
 16013 2ff2 69090000 		.4byte	.LASF170
 16014 2ff6 01       		.byte	0x1
 16015 2ff7 49       		.byte	0x49
 16016 2ff8 25000000 		.4byte	0x25
 16017 2ffc 05       		.uleb128 0x5
 16018 2ffd 03       		.byte	0x3
 16019 2ffe 00000000 		.4byte	TemperaturaIdeal
 16020 3002 1F       		.uleb128 0x1f
 16021 3003 9E090000 		.4byte	.LASF171
 16022 3007 01       		.byte	0x1
 16023 3008 49       		.byte	0x49
 16024 3009 25000000 		.4byte	0x25
 16025 300d 05       		.uleb128 0x5
 16026 300e 03       		.byte	0x3
 16027 300f 00000000 		.4byte	PotenciaEntregada
 16028 3013 1F       		.uleb128 0x1f
 16029 3014 C0050000 		.4byte	.LASF172
 16030 3018 01       		.byte	0x1
 16031 3019 49       		.byte	0x49
 16032 301a 25000000 		.4byte	0x25
 16033 301e 05       		.uleb128 0x5
 16034 301f 03       		.byte	0x3
 16035 3020 00000000 		.4byte	Tpulso
 16036 3024 1F       		.uleb128 0x1f
 16037 3025 D80A0000 		.4byte	.LASF173
ARM GAS  C:\Users\JPELEC~1\AppData\Local\Temp\ccEetrge.s 			page 331


 16038 3029 01       		.byte	0x1
 16039 302a 49       		.byte	0x49
 16040 302b 25000000 		.4byte	0x25
 16041 302f 05       		.uleb128 0x5
 16042 3030 03       		.byte	0x3
 16043 3031 00000000 		.4byte	penInicial
 16044 3035 1F       		.uleb128 0x1f
 16045 3036 0C040000 		.4byte	.LASF174
 16046 303a 01       		.byte	0x1
 16047 303b 49       		.byte	0x49
 16048 303c 25000000 		.4byte	0x25
 16049 3040 05       		.uleb128 0x5
 16050 3041 03       		.byte	0x3
 16051 3042 00000000 		.4byte	penMufla
 16052 3046 1F       		.uleb128 0x1f
 16053 3047 92060000 		.4byte	.LASF175
 16054 304b 01       		.byte	0x1
 16055 304c 4A       		.byte	0x4a
 16056 304d 25000000 		.4byte	0x25
 16057 3051 05       		.uleb128 0x5
 16058 3052 03       		.byte	0x3
 16059 3053 00000000 		.4byte	error
 16060 3057 1F       		.uleb128 0x1f
 16061 3058 27070000 		.4byte	.LASF176
 16062 305c 01       		.byte	0x1
 16063 305d 4A       		.byte	0x4a
 16064 305e 25000000 		.4byte	0x25
 16065 3062 05       		.uleb128 0x5
 16066 3063 03       		.byte	0x3
 16067 3064 00000000 		.4byte	Potencia
 16068 3068 1F       		.uleb128 0x1f
 16069 3069 32030000 		.4byte	.LASF177
 16070 306d 01       		.byte	0x1
 16071 306e 4B       		.byte	0x4b
 16072 306f C0000000 		.4byte	0xc0
 16073 3073 05       		.uleb128 0x5
 16074 3074 03       		.byte	0x3
 16075 3075 00000000 		.4byte	TiempoActual
 16076 3079 1F       		.uleb128 0x1f
 16077 307a F0060000 		.4byte	.LASF178
 16078 307e 01       		.byte	0x1
 16079 307f 4B       		.byte	0x4b
 16080 3080 C0000000 		.4byte	0xc0
 16081 3084 05       		.uleb128 0x5
 16082 3085 03       		.byte	0x3
 16083 3086 00000000 		.4byte	MinutosActual
 16084 308a 1F       		.uleb128 0x1f
 16085 308b 66080000 		.4byte	.LASF179
 16086 308f 01       		.byte	0x1
 16087 3090 4B       		.byte	0x4b
 16088 3091 C0000000 		.4byte	0xc0
 16089 3095 05       		.uleb128 0x5
 16090 3096 03       		.byte	0x3
 16091 3097 00000000 		.4byte	HorasActual
 16092 309b 1F       		.uleb128 0x1f
 16093 309c 5E030000 		.4byte	.LASF180
 16094 30a0 01       		.byte	0x1
ARM GAS  C:\Users\JPELEC~1\AppData\Local\Temp\ccEetrge.s 			page 332


 16095 30a1 4B       		.byte	0x4b
 16096 30a2 C0000000 		.4byte	0xc0
 16097 30a6 05       		.uleb128 0x5
 16098 30a7 03       		.byte	0x3
 16099 30a8 00000000 		.4byte	Tiempo
 16100 30ac 1F       		.uleb128 0x1f
 16101 30ad 7A040000 		.4byte	.LASF181
 16102 30b1 01       		.byte	0x1
 16103 30b2 4B       		.byte	0x4b
 16104 30b3 C0000000 		.4byte	0xc0
 16105 30b7 05       		.uleb128 0x5
 16106 30b8 03       		.byte	0x3
 16107 30b9 00000000 		.4byte	TiempoRampa
 16108 30bd 1F       		.uleb128 0x1f
 16109 30be 02040000 		.4byte	.LASF182
 16110 30c2 01       		.byte	0x1
 16111 30c3 4B       		.byte	0x4b
 16112 30c4 C0000000 		.4byte	0xc0
 16113 30c8 05       		.uleb128 0x5
 16114 30c9 03       		.byte	0x3
 16115 30ca 00000000 		.4byte	tPregunta
 16116 30ce 1F       		.uleb128 0x1f
 16117 30cf D0080000 		.4byte	.LASF183
 16118 30d3 01       		.byte	0x1
 16119 30d4 4E       		.byte	0x4e
 16120 30d5 25000000 		.4byte	0x25
 16121 30d9 05       		.uleb128 0x5
 16122 30da 03       		.byte	0x3
 16123 30db 00000000 		.4byte	Prom
 16124 30df 20       		.uleb128 0x20
 16125 30e0 563000   		.ascii	"V0\000"
 16126 30e3 01       		.byte	0x1
 16127 30e4 4E       		.byte	0x4e
 16128 30e5 25000000 		.4byte	0x25
 16129 30e9 05       		.uleb128 0x5
 16130 30ea 03       		.byte	0x3
 16131 30eb 00000000 		.4byte	V0
 16132 30ef 1F       		.uleb128 0x1f
 16133 30f0 BA090000 		.4byte	.LASF184
 16134 30f4 01       		.byte	0x1
 16135 30f5 4E       		.byte	0x4e
 16136 30f6 25000000 		.4byte	0x25
 16137 30fa 05       		.uleb128 0x5
 16138 30fb 03       		.byte	0x3
 16139 30fc 00000000 		.4byte	Temperature
 16140 3100 21       		.uleb128 0x21
 16141 3101 AD010000 		.4byte	.LASF185
 16142 3105 AD010000 		.4byte	.LASF185
 16143 3109 07       		.byte	0x7
 16144 310a 26       		.byte	0x26
 16145 310b 21       		.uleb128 0x21
 16146 310c 30070000 		.4byte	.LASF186
 16147 3110 30070000 		.4byte	.LASF186
 16148 3114 08       		.byte	0x8
 16149 3115 72       		.byte	0x72
 16150 3116 21       		.uleb128 0x21
 16151 3117 AC040000 		.4byte	.LASF187
ARM GAS  C:\Users\JPELEC~1\AppData\Local\Temp\ccEetrge.s 			page 333


 16152 311b AC040000 		.4byte	.LASF187
 16153 311f 09       		.byte	0x9
 16154 3120 72       		.byte	0x72
 16155 3121 21       		.uleb128 0x21
 16156 3122 C8040000 		.4byte	.LASF188
 16157 3126 C8040000 		.4byte	.LASF188
 16158 312a 09       		.byte	0x9
 16159 312b 8B       		.byte	0x8b
 16160 312c 21       		.uleb128 0x21
 16161 312d 56020000 		.4byte	.LASF189
 16162 3131 56020000 		.4byte	.LASF189
 16163 3135 0A       		.byte	0xa
 16164 3136 77       		.byte	0x77
 16165 3137 21       		.uleb128 0x21
 16166 3138 46000000 		.4byte	.LASF190
 16167 313c 46000000 		.4byte	.LASF190
 16168 3140 09       		.byte	0x9
 16169 3141 8A       		.byte	0x8a
 16170 3142 21       		.uleb128 0x21
 16171 3143 60000000 		.4byte	.LASF191
 16172 3147 60000000 		.4byte	.LASF191
 16173 314b 08       		.byte	0x8
 16174 314c 8B       		.byte	0x8b
 16175 314d 21       		.uleb128 0x21
 16176 314e C1010000 		.4byte	.LASF192
 16177 3152 C1010000 		.4byte	.LASF192
 16178 3156 08       		.byte	0x8
 16179 3157 8A       		.byte	0x8a
 16180 3158 21       		.uleb128 0x21
 16181 3159 1C000000 		.4byte	.LASF193
 16182 315d 1C000000 		.4byte	.LASF193
 16183 3161 0B       		.byte	0xb
 16184 3162 E7       		.byte	0xe7
 16185 3163 21       		.uleb128 0x21
 16186 3164 420A0000 		.4byte	.LASF194
 16187 3168 420A0000 		.4byte	.LASF194
 16188 316c 05       		.byte	0x5
 16189 316d 37       		.byte	0x37
 16190 316e 21       		.uleb128 0x21
 16191 316f 82080000 		.4byte	.LASF195
 16192 3173 82080000 		.4byte	.LASF195
 16193 3177 0C       		.byte	0xc
 16194 3178 63       		.byte	0x63
 16195 3179 21       		.uleb128 0x21
 16196 317a 46070000 		.4byte	.LASF196
 16197 317e 46070000 		.4byte	.LASF196
 16198 3182 0D       		.byte	0xd
 16199 3183 44       		.byte	0x44
 16200 3184 21       		.uleb128 0x21
 16201 3185 83020000 		.4byte	.LASF197
 16202 3189 83020000 		.4byte	.LASF197
 16203 318d 0D       		.byte	0xd
 16204 318e 3D       		.byte	0x3d
 16205 318f 21       		.uleb128 0x21
 16206 3190 50060000 		.4byte	.LASF198
 16207 3194 50060000 		.4byte	.LASF198
 16208 3198 0D       		.byte	0xd
ARM GAS  C:\Users\JPELEC~1\AppData\Local\Temp\ccEetrge.s 			page 334


 16209 3199 3F       		.byte	0x3f
 16210 319a 21       		.uleb128 0x21
 16211 319b 00020000 		.4byte	.LASF199
 16212 319f 00020000 		.4byte	.LASF199
 16213 31a3 0D       		.byte	0xd
 16214 31a4 3E       		.byte	0x3e
 16215 31a5 21       		.uleb128 0x21
 16216 31a6 73020000 		.4byte	.LASF200
 16217 31aa 73020000 		.4byte	.LASF200
 16218 31ae 0D       		.byte	0xd
 16219 31af 42       		.byte	0x42
 16220 31b0 21       		.uleb128 0x21
 16221 31b1 B7060000 		.4byte	.LASF201
 16222 31b5 B7060000 		.4byte	.LASF201
 16223 31b9 05       		.byte	0x5
 16224 31ba 40       		.byte	0x40
 16225 31bb 21       		.uleb128 0x21
 16226 31bc EC010000 		.4byte	.LASF202
 16227 31c0 EC010000 		.4byte	.LASF202
 16228 31c4 0D       		.byte	0xd
 16229 31c5 48       		.byte	0x48
 16230 31c6 21       		.uleb128 0x21
 16231 31c7 AE0A0000 		.4byte	.LASF203
 16232 31cb AE0A0000 		.4byte	.LASF203
 16233 31cf 0C       		.byte	0xc
 16234 31d0 62       		.byte	0x62
 16235 31d1 21       		.uleb128 0x21
 16236 31d2 07030000 		.4byte	.LASF204
 16237 31d6 07030000 		.4byte	.LASF204
 16238 31da 0E       		.byte	0xe
 16239 31db 18       		.byte	0x18
 16240 31dc 21       		.uleb128 0x21
 16241 31dd C3080000 		.4byte	.LASF205
 16242 31e1 C3080000 		.4byte	.LASF205
 16243 31e5 0F       		.byte	0xf
 16244 31e6 18       		.byte	0x18
 16245 31e7 21       		.uleb128 0x21
 16246 31e8 23020000 		.4byte	.LASF206
 16247 31ec 23020000 		.4byte	.LASF206
 16248 31f0 09       		.byte	0x9
 16249 31f1 54       		.byte	0x54
 16250 31f2 21       		.uleb128 0x21
 16251 31f3 33080000 		.4byte	.LASF207
 16252 31f7 33080000 		.4byte	.LASF207
 16253 31fb 08       		.byte	0x8
 16254 31fc 54       		.byte	0x54
 16255 31fd 21       		.uleb128 0x21
 16256 31fe 94020000 		.4byte	.LASF208
 16257 3202 94020000 		.4byte	.LASF208
 16258 3206 10       		.byte	0x10
 16259 3207 54       		.byte	0x54
 16260 3208 21       		.uleb128 0x21
 16261 3209 9B010000 		.4byte	.LASF209
 16262 320d 9B010000 		.4byte	.LASF209
 16263 3211 11       		.byte	0x11
 16264 3212 18       		.byte	0x18
 16265 3213 21       		.uleb128 0x21
ARM GAS  C:\Users\JPELEC~1\AppData\Local\Temp\ccEetrge.s 			page 335


 16266 3214 10000000 		.4byte	.LASF210
 16267 3218 10000000 		.4byte	.LASF210
 16268 321c 12       		.byte	0x12
 16269 321d 18       		.byte	0x18
 16270 321e 21       		.uleb128 0x21
 16271 321f 81030000 		.4byte	.LASF211
 16272 3223 81030000 		.4byte	.LASF211
 16273 3227 13       		.byte	0x13
 16274 3228 5A       		.byte	0x5a
 16275 3229 21       		.uleb128 0x21
 16276 322a 16010000 		.4byte	.LASF212
 16277 322e 16010000 		.4byte	.LASF212
 16278 3232 14       		.byte	0x14
 16279 3233 5A       		.byte	0x5a
 16280 3234 21       		.uleb128 0x21
 16281 3235 04070000 		.4byte	.LASF213
 16282 3239 04070000 		.4byte	.LASF213
 16283 323d 15       		.byte	0x15
 16284 323e 1F       		.byte	0x1f
 16285 323f 21       		.uleb128 0x21
 16286 3240 B7010000 		.4byte	.LASF214
 16287 3244 B7010000 		.4byte	.LASF214
 16288 3248 0D       		.byte	0xd
 16289 3249 3A       		.byte	0x3a
 16290 324a 21       		.uleb128 0x21
 16291 324b 64010000 		.4byte	.LASF215
 16292 324f 64010000 		.4byte	.LASF215
 16293 3253 16       		.byte	0x16
 16294 3254 34       		.byte	0x34
 16295 3255 21       		.uleb128 0x21
 16296 3256 A3060000 		.4byte	.LASF216
 16297 325a A3060000 		.4byte	.LASF216
 16298 325e 17       		.byte	0x17
 16299 325f 18       		.byte	0x18
 16300 3260 21       		.uleb128 0x21
 16301 3261 5A0A0000 		.4byte	.LASF217
 16302 3265 5A0A0000 		.4byte	.LASF217
 16303 3269 16       		.byte	0x16
 16304 326a D1       		.byte	0xd1
 16305 326b 21       		.uleb128 0x21
 16306 326c 230A0000 		.4byte	.LASF218
 16307 3270 230A0000 		.4byte	.LASF218
 16308 3274 18       		.byte	0x18
 16309 3275 93       		.byte	0x93
 16310 3276 21       		.uleb128 0x21
 16311 3277 14080000 		.4byte	.LASF219
 16312 327b 14080000 		.4byte	.LASF219
 16313 327f 19       		.byte	0x19
 16314 3280 26       		.byte	0x26
 16315 3281 21       		.uleb128 0x21
 16316 3282 D9010000 		.4byte	.LASF220
 16317 3286 D9010000 		.4byte	.LASF220
 16318 328a 1A       		.byte	0x1a
 16319 328b 26       		.byte	0x26
 16320 328c 21       		.uleb128 0x21
 16321 328d 32090000 		.4byte	.LASF221
 16322 3291 32090000 		.4byte	.LASF221
ARM GAS  C:\Users\JPELEC~1\AppData\Local\Temp\ccEetrge.s 			page 336


 16323 3295 0A       		.byte	0xa
 16324 3296 76       		.byte	0x76
 16325 3297 21       		.uleb128 0x21
 16326 3298 81090000 		.4byte	.LASF222
 16327 329c 81090000 		.4byte	.LASF222
 16328 32a0 1B       		.byte	0x1b
 16329 32a1 26       		.byte	0x26
 16330 32a2 21       		.uleb128 0x21
 16331 32a3 A5000000 		.4byte	.LASF223
 16332 32a7 A5000000 		.4byte	.LASF223
 16333 32ab 05       		.byte	0x5
 16334 32ac 5C       		.byte	0x5c
 16335 32ad 21       		.uleb128 0x21
 16336 32ae EF090000 		.4byte	.LASF224
 16337 32b2 EF090000 		.4byte	.LASF224
 16338 32b6 05       		.byte	0x5
 16339 32b7 5E       		.byte	0x5e
 16340 32b8 21       		.uleb128 0x21
 16341 32b9 D4090000 		.4byte	.LASF225
 16342 32bd D4090000 		.4byte	.LASF225
 16343 32c1 18       		.byte	0x18
 16344 32c2 A7       		.byte	0xa7
 16345 32c3 21       		.uleb128 0x21
 16346 32c4 2B050000 		.4byte	.LASF226
 16347 32c8 2B050000 		.4byte	.LASF226
 16348 32cc 10       		.byte	0x10
 16349 32cd 8B       		.byte	0x8b
 16350 32ce 21       		.uleb128 0x21
 16351 32cf 99000000 		.4byte	.LASF227
 16352 32d3 99000000 		.4byte	.LASF227
 16353 32d7 1C       		.byte	0x1c
 16354 32d8 26       		.byte	0x26
 16355 32d9 21       		.uleb128 0x21
 16356 32da 69040000 		.4byte	.LASF228
 16357 32de 69040000 		.4byte	.LASF228
 16358 32e2 15       		.byte	0x15
 16359 32e3 21       		.byte	0x21
 16360 32e4 21       		.uleb128 0x21
 16361 32e5 3E010000 		.4byte	.LASF229
 16362 32e9 3E010000 		.4byte	.LASF229
 16363 32ed 0A       		.byte	0xa
 16364 32ee 7B       		.byte	0x7b
 16365 32ef 21       		.uleb128 0x21
 16366 32f0 3C050000 		.4byte	.LASF230
 16367 32f4 3C050000 		.4byte	.LASF230
 16368 32f8 05       		.byte	0x5
 16369 32f9 62       		.byte	0x62
 16370 32fa 21       		.uleb128 0x21
 16371 32fb 47030000 		.4byte	.LASF231
 16372 32ff 47030000 		.4byte	.LASF231
 16373 3303 1D       		.byte	0x1d
 16374 3304 29       		.byte	0x29
 16375 3305 00       		.byte	0
 16376              		.section	.debug_abbrev,"",%progbits
 16377              	.Ldebug_abbrev0:
 16378 0000 01       		.uleb128 0x1
 16379 0001 11       		.uleb128 0x11
ARM GAS  C:\Users\JPELEC~1\AppData\Local\Temp\ccEetrge.s 			page 337


 16380 0002 01       		.byte	0x1
 16381 0003 25       		.uleb128 0x25
 16382 0004 0E       		.uleb128 0xe
 16383 0005 13       		.uleb128 0x13
 16384 0006 0B       		.uleb128 0xb
 16385 0007 03       		.uleb128 0x3
 16386 0008 0E       		.uleb128 0xe
 16387 0009 1B       		.uleb128 0x1b
 16388 000a 0E       		.uleb128 0xe
 16389 000b 55       		.uleb128 0x55
 16390 000c 17       		.uleb128 0x17
 16391 000d 11       		.uleb128 0x11
 16392 000e 01       		.uleb128 0x1
 16393 000f 10       		.uleb128 0x10
 16394 0010 17       		.uleb128 0x17
 16395 0011 00       		.byte	0
 16396 0012 00       		.byte	0
 16397 0013 02       		.uleb128 0x2
 16398 0014 24       		.uleb128 0x24
 16399 0015 00       		.byte	0
 16400 0016 0B       		.uleb128 0xb
 16401 0017 0B       		.uleb128 0xb
 16402 0018 3E       		.uleb128 0x3e
 16403 0019 0B       		.uleb128 0xb
 16404 001a 03       		.uleb128 0x3
 16405 001b 0E       		.uleb128 0xe
 16406 001c 00       		.byte	0
 16407 001d 00       		.byte	0
 16408 001e 03       		.uleb128 0x3
 16409 001f 16       		.uleb128 0x16
 16410 0020 00       		.byte	0
 16411 0021 03       		.uleb128 0x3
 16412 0022 0E       		.uleb128 0xe
 16413 0023 3A       		.uleb128 0x3a
 16414 0024 0B       		.uleb128 0xb
 16415 0025 3B       		.uleb128 0x3b
 16416 0026 0B       		.uleb128 0xb
 16417 0027 49       		.uleb128 0x49
 16418 0028 13       		.uleb128 0x13
 16419 0029 00       		.byte	0
 16420 002a 00       		.byte	0
 16421 002b 04       		.uleb128 0x4
 16422 002c 24       		.uleb128 0x24
 16423 002d 00       		.byte	0
 16424 002e 0B       		.uleb128 0xb
 16425 002f 0B       		.uleb128 0xb
 16426 0030 3E       		.uleb128 0x3e
 16427 0031 0B       		.uleb128 0xb
 16428 0032 03       		.uleb128 0x3
 16429 0033 08       		.uleb128 0x8
 16430 0034 00       		.byte	0
 16431 0035 00       		.byte	0
 16432 0036 05       		.uleb128 0x5
 16433 0037 16       		.uleb128 0x16
 16434 0038 00       		.byte	0
 16435 0039 03       		.uleb128 0x3
 16436 003a 0E       		.uleb128 0xe
ARM GAS  C:\Users\JPELEC~1\AppData\Local\Temp\ccEetrge.s 			page 338


 16437 003b 3A       		.uleb128 0x3a
 16438 003c 0B       		.uleb128 0xb
 16439 003d 3B       		.uleb128 0x3b
 16440 003e 05       		.uleb128 0x5
 16441 003f 49       		.uleb128 0x49
 16442 0040 13       		.uleb128 0x13
 16443 0041 00       		.byte	0
 16444 0042 00       		.byte	0
 16445 0043 06       		.uleb128 0x6
 16446 0044 35       		.uleb128 0x35
 16447 0045 00       		.byte	0
 16448 0046 49       		.uleb128 0x49
 16449 0047 13       		.uleb128 0x13
 16450 0048 00       		.byte	0
 16451 0049 00       		.byte	0
 16452 004a 07       		.uleb128 0x7
 16453 004b 0F       		.uleb128 0xf
 16454 004c 00       		.byte	0
 16455 004d 0B       		.uleb128 0xb
 16456 004e 0B       		.uleb128 0xb
 16457 004f 49       		.uleb128 0x49
 16458 0050 13       		.uleb128 0x13
 16459 0051 00       		.byte	0
 16460 0052 00       		.byte	0
 16461 0053 08       		.uleb128 0x8
 16462 0054 26       		.uleb128 0x26
 16463 0055 00       		.byte	0
 16464 0056 49       		.uleb128 0x49
 16465 0057 13       		.uleb128 0x13
 16466 0058 00       		.byte	0
 16467 0059 00       		.byte	0
 16468 005a 09       		.uleb128 0x9
 16469 005b 13       		.uleb128 0x13
 16470 005c 01       		.byte	0x1
 16471 005d 0B       		.uleb128 0xb
 16472 005e 0B       		.uleb128 0xb
 16473 005f 3A       		.uleb128 0x3a
 16474 0060 0B       		.uleb128 0xb
 16475 0061 3B       		.uleb128 0x3b
 16476 0062 0B       		.uleb128 0xb
 16477 0063 01       		.uleb128 0x1
 16478 0064 13       		.uleb128 0x13
 16479 0065 00       		.byte	0
 16480 0066 00       		.byte	0
 16481 0067 0A       		.uleb128 0xa
 16482 0068 0D       		.uleb128 0xd
 16483 0069 00       		.byte	0
 16484 006a 03       		.uleb128 0x3
 16485 006b 0E       		.uleb128 0xe
 16486 006c 3A       		.uleb128 0x3a
 16487 006d 0B       		.uleb128 0xb
 16488 006e 3B       		.uleb128 0x3b
 16489 006f 0B       		.uleb128 0xb
 16490 0070 49       		.uleb128 0x49
 16491 0071 13       		.uleb128 0x13
 16492 0072 38       		.uleb128 0x38
 16493 0073 0B       		.uleb128 0xb
ARM GAS  C:\Users\JPELEC~1\AppData\Local\Temp\ccEetrge.s 			page 339


 16494 0074 00       		.byte	0
 16495 0075 00       		.byte	0
 16496 0076 0B       		.uleb128 0xb
 16497 0077 01       		.uleb128 0x1
 16498 0078 01       		.byte	0x1
 16499 0079 49       		.uleb128 0x49
 16500 007a 13       		.uleb128 0x13
 16501 007b 01       		.uleb128 0x1
 16502 007c 13       		.uleb128 0x13
 16503 007d 00       		.byte	0
 16504 007e 00       		.byte	0
 16505 007f 0C       		.uleb128 0xc
 16506 0080 21       		.uleb128 0x21
 16507 0081 00       		.byte	0
 16508 0082 49       		.uleb128 0x49
 16509 0083 13       		.uleb128 0x13
 16510 0084 2F       		.uleb128 0x2f
 16511 0085 0B       		.uleb128 0xb
 16512 0086 00       		.byte	0
 16513 0087 00       		.byte	0
 16514 0088 0D       		.uleb128 0xd
 16515 0089 2E       		.uleb128 0x2e
 16516 008a 00       		.byte	0
 16517 008b 3F       		.uleb128 0x3f
 16518 008c 19       		.uleb128 0x19
 16519 008d 03       		.uleb128 0x3
 16520 008e 0E       		.uleb128 0xe
 16521 008f 3A       		.uleb128 0x3a
 16522 0090 0B       		.uleb128 0xb
 16523 0091 3B       		.uleb128 0x3b
 16524 0092 0B       		.uleb128 0xb
 16525 0093 27       		.uleb128 0x27
 16526 0094 19       		.uleb128 0x19
 16527 0095 11       		.uleb128 0x11
 16528 0096 01       		.uleb128 0x1
 16529 0097 12       		.uleb128 0x12
 16530 0098 06       		.uleb128 0x6
 16531 0099 40       		.uleb128 0x40
 16532 009a 18       		.uleb128 0x18
 16533 009b 9742     		.uleb128 0x2117
 16534 009d 19       		.uleb128 0x19
 16535 009e 00       		.byte	0
 16536 009f 00       		.byte	0
 16537 00a0 0E       		.uleb128 0xe
 16538 00a1 2E       		.uleb128 0x2e
 16539 00a2 00       		.byte	0
 16540 00a3 3F       		.uleb128 0x3f
 16541 00a4 19       		.uleb128 0x19
 16542 00a5 03       		.uleb128 0x3
 16543 00a6 08       		.uleb128 0x8
 16544 00a7 3A       		.uleb128 0x3a
 16545 00a8 0B       		.uleb128 0xb
 16546 00a9 3B       		.uleb128 0x3b
 16547 00aa 05       		.uleb128 0x5
 16548 00ab 27       		.uleb128 0x27
 16549 00ac 19       		.uleb128 0x19
 16550 00ad 11       		.uleb128 0x11
ARM GAS  C:\Users\JPELEC~1\AppData\Local\Temp\ccEetrge.s 			page 340


 16551 00ae 01       		.uleb128 0x1
 16552 00af 12       		.uleb128 0x12
 16553 00b0 06       		.uleb128 0x6
 16554 00b1 40       		.uleb128 0x40
 16555 00b2 18       		.uleb128 0x18
 16556 00b3 9742     		.uleb128 0x2117
 16557 00b5 19       		.uleb128 0x19
 16558 00b6 00       		.byte	0
 16559 00b7 00       		.byte	0
 16560 00b8 0F       		.uleb128 0xf
 16561 00b9 2E       		.uleb128 0x2e
 16562 00ba 01       		.byte	0x1
 16563 00bb 3F       		.uleb128 0x3f
 16564 00bc 19       		.uleb128 0x19
 16565 00bd 03       		.uleb128 0x3
 16566 00be 0E       		.uleb128 0xe
 16567 00bf 3A       		.uleb128 0x3a
 16568 00c0 0B       		.uleb128 0xb
 16569 00c1 3B       		.uleb128 0x3b
 16570 00c2 05       		.uleb128 0x5
 16571 00c3 27       		.uleb128 0x27
 16572 00c4 19       		.uleb128 0x19
 16573 00c5 11       		.uleb128 0x11
 16574 00c6 01       		.uleb128 0x1
 16575 00c7 12       		.uleb128 0x12
 16576 00c8 06       		.uleb128 0x6
 16577 00c9 40       		.uleb128 0x40
 16578 00ca 18       		.uleb128 0x18
 16579 00cb 9742     		.uleb128 0x2117
 16580 00cd 19       		.uleb128 0x19
 16581 00ce 01       		.uleb128 0x1
 16582 00cf 13       		.uleb128 0x13
 16583 00d0 00       		.byte	0
 16584 00d1 00       		.byte	0
 16585 00d2 10       		.uleb128 0x10
 16586 00d3 898201   		.uleb128 0x4109
 16587 00d6 01       		.byte	0x1
 16588 00d7 11       		.uleb128 0x11
 16589 00d8 01       		.uleb128 0x1
 16590 00d9 31       		.uleb128 0x31
 16591 00da 13       		.uleb128 0x13
 16592 00db 01       		.uleb128 0x1
 16593 00dc 13       		.uleb128 0x13
 16594 00dd 00       		.byte	0
 16595 00de 00       		.byte	0
 16596 00df 11       		.uleb128 0x11
 16597 00e0 8A8201   		.uleb128 0x410a
 16598 00e3 00       		.byte	0
 16599 00e4 02       		.uleb128 0x2
 16600 00e5 18       		.uleb128 0x18
 16601 00e6 9142     		.uleb128 0x2111
 16602 00e8 18       		.uleb128 0x18
 16603 00e9 00       		.byte	0
 16604 00ea 00       		.byte	0
 16605 00eb 12       		.uleb128 0x12
 16606 00ec 898201   		.uleb128 0x4109
 16607 00ef 01       		.byte	0x1
ARM GAS  C:\Users\JPELEC~1\AppData\Local\Temp\ccEetrge.s 			page 341


 16608 00f0 11       		.uleb128 0x11
 16609 00f1 01       		.uleb128 0x1
 16610 00f2 31       		.uleb128 0x31
 16611 00f3 13       		.uleb128 0x13
 16612 00f4 00       		.byte	0
 16613 00f5 00       		.byte	0
 16614 00f6 13       		.uleb128 0x13
 16615 00f7 898201   		.uleb128 0x4109
 16616 00fa 00       		.byte	0
 16617 00fb 11       		.uleb128 0x11
 16618 00fc 01       		.uleb128 0x1
 16619 00fd 31       		.uleb128 0x31
 16620 00fe 13       		.uleb128 0x13
 16621 00ff 00       		.byte	0
 16622 0100 00       		.byte	0
 16623 0101 14       		.uleb128 0x14
 16624 0102 2E       		.uleb128 0x2e
 16625 0103 00       		.byte	0
 16626 0104 3F       		.uleb128 0x3f
 16627 0105 19       		.uleb128 0x19
 16628 0106 03       		.uleb128 0x3
 16629 0107 0E       		.uleb128 0xe
 16630 0108 3A       		.uleb128 0x3a
 16631 0109 0B       		.uleb128 0xb
 16632 010a 3B       		.uleb128 0x3b
 16633 010b 0B       		.uleb128 0xb
 16634 010c 11       		.uleb128 0x11
 16635 010d 01       		.uleb128 0x1
 16636 010e 12       		.uleb128 0x12
 16637 010f 06       		.uleb128 0x6
 16638 0110 40       		.uleb128 0x40
 16639 0111 18       		.uleb128 0x18
 16640 0112 9642     		.uleb128 0x2116
 16641 0114 19       		.uleb128 0x19
 16642 0115 00       		.byte	0
 16643 0116 00       		.byte	0
 16644 0117 15       		.uleb128 0x15
 16645 0118 2E       		.uleb128 0x2e
 16646 0119 01       		.byte	0x1
 16647 011a 3F       		.uleb128 0x3f
 16648 011b 19       		.uleb128 0x19
 16649 011c 03       		.uleb128 0x3
 16650 011d 0E       		.uleb128 0xe
 16651 011e 3A       		.uleb128 0x3a
 16652 011f 0B       		.uleb128 0xb
 16653 0120 3B       		.uleb128 0x3b
 16654 0121 0B       		.uleb128 0xb
 16655 0122 11       		.uleb128 0x11
 16656 0123 01       		.uleb128 0x1
 16657 0124 12       		.uleb128 0x12
 16658 0125 06       		.uleb128 0x6
 16659 0126 40       		.uleb128 0x40
 16660 0127 18       		.uleb128 0x18
 16661 0128 9642     		.uleb128 0x2116
 16662 012a 19       		.uleb128 0x19
 16663 012b 01       		.uleb128 0x1
 16664 012c 13       		.uleb128 0x13
ARM GAS  C:\Users\JPELEC~1\AppData\Local\Temp\ccEetrge.s 			page 342


 16665 012d 00       		.byte	0
 16666 012e 00       		.byte	0
 16667 012f 16       		.uleb128 0x16
 16668 0130 34       		.uleb128 0x34
 16669 0131 00       		.byte	0
 16670 0132 03       		.uleb128 0x3
 16671 0133 08       		.uleb128 0x8
 16672 0134 3A       		.uleb128 0x3a
 16673 0135 0B       		.uleb128 0xb
 16674 0136 3B       		.uleb128 0x3b
 16675 0137 0B       		.uleb128 0xb
 16676 0138 49       		.uleb128 0x49
 16677 0139 13       		.uleb128 0x13
 16678 013a 02       		.uleb128 0x2
 16679 013b 17       		.uleb128 0x17
 16680 013c 00       		.byte	0
 16681 013d 00       		.byte	0
 16682 013e 17       		.uleb128 0x17
 16683 013f 2E       		.uleb128 0x2e
 16684 0140 01       		.byte	0x1
 16685 0141 3F       		.uleb128 0x3f
 16686 0142 19       		.uleb128 0x19
 16687 0143 03       		.uleb128 0x3
 16688 0144 0E       		.uleb128 0xe
 16689 0145 3A       		.uleb128 0x3a
 16690 0146 0B       		.uleb128 0xb
 16691 0147 3B       		.uleb128 0x3b
 16692 0148 0B       		.uleb128 0xb
 16693 0149 27       		.uleb128 0x27
 16694 014a 19       		.uleb128 0x19
 16695 014b 11       		.uleb128 0x11
 16696 014c 01       		.uleb128 0x1
 16697 014d 12       		.uleb128 0x12
 16698 014e 06       		.uleb128 0x6
 16699 014f 40       		.uleb128 0x40
 16700 0150 18       		.uleb128 0x18
 16701 0151 9742     		.uleb128 0x2117
 16702 0153 19       		.uleb128 0x19
 16703 0154 01       		.uleb128 0x1
 16704 0155 13       		.uleb128 0x13
 16705 0156 00       		.byte	0
 16706 0157 00       		.byte	0
 16707 0158 18       		.uleb128 0x18
 16708 0159 05       		.uleb128 0x5
 16709 015a 00       		.byte	0
 16710 015b 03       		.uleb128 0x3
 16711 015c 0E       		.uleb128 0xe
 16712 015d 3A       		.uleb128 0x3a
 16713 015e 0B       		.uleb128 0xb
 16714 015f 3B       		.uleb128 0x3b
 16715 0160 0B       		.uleb128 0xb
 16716 0161 49       		.uleb128 0x49
 16717 0162 13       		.uleb128 0x13
 16718 0163 02       		.uleb128 0x2
 16719 0164 17       		.uleb128 0x17
 16720 0165 00       		.byte	0
 16721 0166 00       		.byte	0
ARM GAS  C:\Users\JPELEC~1\AppData\Local\Temp\ccEetrge.s 			page 343


 16722 0167 19       		.uleb128 0x19
 16723 0168 2E       		.uleb128 0x2e
 16724 0169 01       		.byte	0x1
 16725 016a 3F       		.uleb128 0x3f
 16726 016b 19       		.uleb128 0x19
 16727 016c 03       		.uleb128 0x3
 16728 016d 0E       		.uleb128 0xe
 16729 016e 3A       		.uleb128 0x3a
 16730 016f 0B       		.uleb128 0xb
 16731 0170 3B       		.uleb128 0x3b
 16732 0171 05       		.uleb128 0x5
 16733 0172 11       		.uleb128 0x11
 16734 0173 01       		.uleb128 0x1
 16735 0174 12       		.uleb128 0x12
 16736 0175 06       		.uleb128 0x6
 16737 0176 40       		.uleb128 0x40
 16738 0177 18       		.uleb128 0x18
 16739 0178 9642     		.uleb128 0x2116
 16740 017a 19       		.uleb128 0x19
 16741 017b 01       		.uleb128 0x1
 16742 017c 13       		.uleb128 0x13
 16743 017d 00       		.byte	0
 16744 017e 00       		.byte	0
 16745 017f 1A       		.uleb128 0x1a
 16746 0180 2E       		.uleb128 0x2e
 16747 0181 00       		.byte	0
 16748 0182 3F       		.uleb128 0x3f
 16749 0183 19       		.uleb128 0x19
 16750 0184 03       		.uleb128 0x3
 16751 0185 0E       		.uleb128 0xe
 16752 0186 3A       		.uleb128 0x3a
 16753 0187 0B       		.uleb128 0xb
 16754 0188 3B       		.uleb128 0x3b
 16755 0189 05       		.uleb128 0x5
 16756 018a 27       		.uleb128 0x27
 16757 018b 19       		.uleb128 0x19
 16758 018c 11       		.uleb128 0x11
 16759 018d 01       		.uleb128 0x1
 16760 018e 12       		.uleb128 0x12
 16761 018f 06       		.uleb128 0x6
 16762 0190 40       		.uleb128 0x40
 16763 0191 18       		.uleb128 0x18
 16764 0192 9742     		.uleb128 0x2117
 16765 0194 19       		.uleb128 0x19
 16766 0195 00       		.byte	0
 16767 0196 00       		.byte	0
 16768 0197 1B       		.uleb128 0x1b
 16769 0198 2E       		.uleb128 0x2e
 16770 0199 01       		.byte	0x1
 16771 019a 3F       		.uleb128 0x3f
 16772 019b 19       		.uleb128 0x19
 16773 019c 03       		.uleb128 0x3
 16774 019d 0E       		.uleb128 0xe
 16775 019e 3A       		.uleb128 0x3a
 16776 019f 0B       		.uleb128 0xb
 16777 01a0 3B       		.uleb128 0x3b
 16778 01a1 05       		.uleb128 0x5
ARM GAS  C:\Users\JPELEC~1\AppData\Local\Temp\ccEetrge.s 			page 344


 16779 01a2 27       		.uleb128 0x27
 16780 01a3 19       		.uleb128 0x19
 16781 01a4 49       		.uleb128 0x49
 16782 01a5 13       		.uleb128 0x13
 16783 01a6 11       		.uleb128 0x11
 16784 01a7 01       		.uleb128 0x1
 16785 01a8 12       		.uleb128 0x12
 16786 01a9 06       		.uleb128 0x6
 16787 01aa 40       		.uleb128 0x40
 16788 01ab 18       		.uleb128 0x18
 16789 01ac 9642     		.uleb128 0x2116
 16790 01ae 19       		.uleb128 0x19
 16791 01af 01       		.uleb128 0x1
 16792 01b0 13       		.uleb128 0x13
 16793 01b1 00       		.byte	0
 16794 01b2 00       		.byte	0
 16795 01b3 1C       		.uleb128 0x1c
 16796 01b4 05       		.uleb128 0x5
 16797 01b5 00       		.byte	0
 16798 01b6 03       		.uleb128 0x3
 16799 01b7 0E       		.uleb128 0xe
 16800 01b8 3A       		.uleb128 0x3a
 16801 01b9 0B       		.uleb128 0xb
 16802 01ba 3B       		.uleb128 0x3b
 16803 01bb 05       		.uleb128 0x5
 16804 01bc 49       		.uleb128 0x49
 16805 01bd 13       		.uleb128 0x13
 16806 01be 02       		.uleb128 0x2
 16807 01bf 17       		.uleb128 0x17
 16808 01c0 00       		.byte	0
 16809 01c1 00       		.byte	0
 16810 01c2 1D       		.uleb128 0x1d
 16811 01c3 2E       		.uleb128 0x2e
 16812 01c4 01       		.byte	0x1
 16813 01c5 3F       		.uleb128 0x3f
 16814 01c6 19       		.uleb128 0x19
 16815 01c7 03       		.uleb128 0x3
 16816 01c8 0E       		.uleb128 0xe
 16817 01c9 3A       		.uleb128 0x3a
 16818 01ca 0B       		.uleb128 0xb
 16819 01cb 3B       		.uleb128 0x3b
 16820 01cc 05       		.uleb128 0x5
 16821 01cd 27       		.uleb128 0x27
 16822 01ce 19       		.uleb128 0x19
 16823 01cf 49       		.uleb128 0x49
 16824 01d0 13       		.uleb128 0x13
 16825 01d1 8701     		.uleb128 0x87
 16826 01d3 19       		.uleb128 0x19
 16827 01d4 11       		.uleb128 0x11
 16828 01d5 01       		.uleb128 0x1
 16829 01d6 12       		.uleb128 0x12
 16830 01d7 06       		.uleb128 0x6
 16831 01d8 40       		.uleb128 0x40
 16832 01d9 18       		.uleb128 0x18
 16833 01da 9642     		.uleb128 0x2116
 16834 01dc 19       		.uleb128 0x19
 16835 01dd 01       		.uleb128 0x1
ARM GAS  C:\Users\JPELEC~1\AppData\Local\Temp\ccEetrge.s 			page 345


 16836 01de 13       		.uleb128 0x13
 16837 01df 00       		.byte	0
 16838 01e0 00       		.byte	0
 16839 01e1 1E       		.uleb128 0x1e
 16840 01e2 34       		.uleb128 0x34
 16841 01e3 00       		.byte	0
 16842 01e4 03       		.uleb128 0x3
 16843 01e5 0E       		.uleb128 0xe
 16844 01e6 3A       		.uleb128 0x3a
 16845 01e7 0B       		.uleb128 0xb
 16846 01e8 3B       		.uleb128 0x3b
 16847 01e9 05       		.uleb128 0x5
 16848 01ea 49       		.uleb128 0x49
 16849 01eb 13       		.uleb128 0x13
 16850 01ec 3F       		.uleb128 0x3f
 16851 01ed 19       		.uleb128 0x19
 16852 01ee 3C       		.uleb128 0x3c
 16853 01ef 19       		.uleb128 0x19
 16854 01f0 00       		.byte	0
 16855 01f1 00       		.byte	0
 16856 01f2 1F       		.uleb128 0x1f
 16857 01f3 34       		.uleb128 0x34
 16858 01f4 00       		.byte	0
 16859 01f5 03       		.uleb128 0x3
 16860 01f6 0E       		.uleb128 0xe
 16861 01f7 3A       		.uleb128 0x3a
 16862 01f8 0B       		.uleb128 0xb
 16863 01f9 3B       		.uleb128 0x3b
 16864 01fa 0B       		.uleb128 0xb
 16865 01fb 49       		.uleb128 0x49
 16866 01fc 13       		.uleb128 0x13
 16867 01fd 3F       		.uleb128 0x3f
 16868 01fe 19       		.uleb128 0x19
 16869 01ff 02       		.uleb128 0x2
 16870 0200 18       		.uleb128 0x18
 16871 0201 00       		.byte	0
 16872 0202 00       		.byte	0
 16873 0203 20       		.uleb128 0x20
 16874 0204 34       		.uleb128 0x34
 16875 0205 00       		.byte	0
 16876 0206 03       		.uleb128 0x3
 16877 0207 08       		.uleb128 0x8
 16878 0208 3A       		.uleb128 0x3a
 16879 0209 0B       		.uleb128 0xb
 16880 020a 3B       		.uleb128 0x3b
 16881 020b 0B       		.uleb128 0xb
 16882 020c 49       		.uleb128 0x49
 16883 020d 13       		.uleb128 0x13
 16884 020e 3F       		.uleb128 0x3f
 16885 020f 19       		.uleb128 0x19
 16886 0210 02       		.uleb128 0x2
 16887 0211 18       		.uleb128 0x18
 16888 0212 00       		.byte	0
 16889 0213 00       		.byte	0
 16890 0214 21       		.uleb128 0x21
 16891 0215 2E       		.uleb128 0x2e
 16892 0216 00       		.byte	0
ARM GAS  C:\Users\JPELEC~1\AppData\Local\Temp\ccEetrge.s 			page 346


 16893 0217 3F       		.uleb128 0x3f
 16894 0218 19       		.uleb128 0x19
 16895 0219 3C       		.uleb128 0x3c
 16896 021a 19       		.uleb128 0x19
 16897 021b 6E       		.uleb128 0x6e
 16898 021c 0E       		.uleb128 0xe
 16899 021d 03       		.uleb128 0x3
 16900 021e 0E       		.uleb128 0xe
 16901 021f 3A       		.uleb128 0x3a
 16902 0220 0B       		.uleb128 0xb
 16903 0221 3B       		.uleb128 0x3b
 16904 0222 0B       		.uleb128 0xb
 16905 0223 00       		.byte	0
 16906 0224 00       		.byte	0
 16907 0225 00       		.byte	0
 16908              		.section	.debug_loc,"",%progbits
 16909              	.Ldebug_loc0:
 16910              	.LLST0:
 16911 0000 06000000 		.4byte	.LVL13
 16912 0004 F2040000 		.4byte	.LVL86
 16913 0008 0600     		.2byte	0x6
 16914 000a 9E       		.byte	0x9e
 16915 000b 04       		.uleb128 0x4
 16916 000c 00000000 		.4byte	0
 16917 0010 F2040000 		.4byte	.LVL86
 16918 0014 F4040000 		.4byte	.LVL87
 16919 0018 0100     		.2byte	0x1
 16920 001a 50       		.byte	0x50
 16921 001b F4040000 		.4byte	.LVL87
 16922 001f 22050000 		.4byte	.LVL95
 16923 0023 0100     		.2byte	0x1
 16924 0025 54       		.byte	0x54
 16925 0026 00000000 		.4byte	0
 16926 002a 00000000 		.4byte	0
 16927              	.LLST1:
 16928 002e 00000000 		.4byte	.LVL112
 16929 0032 05000000 		.4byte	.LVL113-1
 16930 0036 0100     		.2byte	0x1
 16931 0038 50       		.byte	0x50
 16932 0039 05000000 		.4byte	.LVL113-1
 16933 003d 32000000 		.4byte	.LFE69
 16934 0041 0400     		.2byte	0x4
 16935 0043 F3       		.byte	0xf3
 16936 0044 01       		.uleb128 0x1
 16937 0045 50       		.byte	0x50
 16938 0046 9F       		.byte	0x9f
 16939 0047 00000000 		.4byte	0
 16940 004b 00000000 		.4byte	0
 16941              	.LLST2:
 16942 004f 00000000 		.4byte	.LVL121
 16943 0053 05000000 		.4byte	.LVL122-1
 16944 0057 0100     		.2byte	0x1
 16945 0059 50       		.byte	0x50
 16946 005a 05000000 		.4byte	.LVL122-1
 16947 005e 32000000 		.4byte	.LFE70
 16948 0062 0400     		.2byte	0x4
 16949 0064 F3       		.byte	0xf3
ARM GAS  C:\Users\JPELEC~1\AppData\Local\Temp\ccEetrge.s 			page 347


 16950 0065 01       		.uleb128 0x1
 16951 0066 50       		.byte	0x50
 16952 0067 9F       		.byte	0x9f
 16953 0068 00000000 		.4byte	0
 16954 006c 00000000 		.4byte	0
 16955              	.LLST3:
 16956 0070 00000000 		.4byte	.LVL289
 16957 0074 0D000000 		.4byte	.LVL290-1
 16958 0078 0100     		.2byte	0x1
 16959 007a 50       		.byte	0x50
 16960 007b 0D000000 		.4byte	.LVL290-1
 16961 007f 54010000 		.4byte	.LFE74
 16962 0083 0400     		.2byte	0x4
 16963 0085 F3       		.byte	0xf3
 16964 0086 01       		.uleb128 0x1
 16965 0087 50       		.byte	0x50
 16966 0088 9F       		.byte	0x9f
 16967 0089 00000000 		.4byte	0
 16968 008d 00000000 		.4byte	0
 16969              		.section	.debug_aranges,"",%progbits
 16970 0000 94000000 		.4byte	0x94
 16971 0004 0200     		.2byte	0x2
 16972 0006 00000000 		.4byte	.Ldebug_info0
 16973 000a 04       		.byte	0x4
 16974 000b 00       		.byte	0
 16975 000c 0000     		.2byte	0
 16976 000e 0000     		.2byte	0
 16977 0010 00000000 		.4byte	.LFB64
 16978 0014 1C000000 		.4byte	.LFE64-.LFB64
 16979 0018 00000000 		.4byte	.LFB78
 16980 001c 02000000 		.4byte	.LFE78-.LFB78
 16981 0020 00000000 		.4byte	.LFB75
 16982 0024 9C010000 		.4byte	.LFE75-.LFB75
 16983 0028 00000000 		.4byte	.LFB76
 16984 002c 94000000 		.4byte	.LFE76-.LFB76
 16985 0030 00000000 		.4byte	.LFB77
 16986 0034 94000000 		.4byte	.LFE77-.LFB77
 16987 0038 00000000 		.4byte	.LFB65
 16988 003c E0000000 		.4byte	.LFE65-.LFB65
 16989 0040 00000000 		.4byte	.LFB66
 16990 0044 A4050000 		.4byte	.LFE66-.LFB66
 16991 0048 00000000 		.4byte	.LFB67
 16992 004c 5C000000 		.4byte	.LFE67-.LFB67
 16993 0050 00000000 		.4byte	.LFB68
 16994 0054 64000000 		.4byte	.LFE68-.LFB68
 16995 0058 00000000 		.4byte	.LFB69
 16996 005c 32000000 		.4byte	.LFE69-.LFB69
 16997 0060 00000000 		.4byte	.LFB70
 16998 0064 32000000 		.4byte	.LFE70-.LFB70
 16999 0068 00000000 		.4byte	.LFB71
 17000 006c 10080000 		.4byte	.LFE71-.LFB71
 17001 0070 00000000 		.4byte	.LFB72
 17002 0074 A8030000 		.4byte	.LFE72-.LFB72
 17003 0078 00000000 		.4byte	.LFB73
 17004 007c 00010000 		.4byte	.LFE73-.LFB73
 17005 0080 00000000 		.4byte	.LFB74
 17006 0084 54010000 		.4byte	.LFE74-.LFB74
ARM GAS  C:\Users\JPELEC~1\AppData\Local\Temp\ccEetrge.s 			page 348


 17007 0088 00000000 		.4byte	.LFB79
 17008 008c 94250000 		.4byte	.LFE79-.LFB79
 17009 0090 00000000 		.4byte	0
 17010 0094 00000000 		.4byte	0
 17011              		.section	.debug_ranges,"",%progbits
 17012              	.Ldebug_ranges0:
 17013 0000 00000000 		.4byte	.LFB64
 17014 0004 1C000000 		.4byte	.LFE64
 17015 0008 00000000 		.4byte	.LFB78
 17016 000c 02000000 		.4byte	.LFE78
 17017 0010 00000000 		.4byte	.LFB75
 17018 0014 9C010000 		.4byte	.LFE75
 17019 0018 00000000 		.4byte	.LFB76
 17020 001c 94000000 		.4byte	.LFE76
 17021 0020 00000000 		.4byte	.LFB77
 17022 0024 94000000 		.4byte	.LFE77
 17023 0028 00000000 		.4byte	.LFB65
 17024 002c E0000000 		.4byte	.LFE65
 17025 0030 00000000 		.4byte	.LFB66
 17026 0034 A4050000 		.4byte	.LFE66
 17027 0038 00000000 		.4byte	.LFB67
 17028 003c 5C000000 		.4byte	.LFE67
 17029 0040 00000000 		.4byte	.LFB68
 17030 0044 64000000 		.4byte	.LFE68
 17031 0048 00000000 		.4byte	.LFB69
 17032 004c 32000000 		.4byte	.LFE69
 17033 0050 00000000 		.4byte	.LFB70
 17034 0054 32000000 		.4byte	.LFE70
 17035 0058 00000000 		.4byte	.LFB71
 17036 005c 10080000 		.4byte	.LFE71
 17037 0060 00000000 		.4byte	.LFB72
 17038 0064 A8030000 		.4byte	.LFE72
 17039 0068 00000000 		.4byte	.LFB73
 17040 006c 00010000 		.4byte	.LFE73
 17041 0070 00000000 		.4byte	.LFB74
 17042 0074 54010000 		.4byte	.LFE74
 17043 0078 00000000 		.4byte	.LFB79
 17044 007c 94250000 		.4byte	.LFE79
 17045 0080 00000000 		.4byte	0
 17046 0084 00000000 		.4byte	0
 17047              		.section	.debug_line,"",%progbits
 17048              	.Ldebug_line0:
 17049 0000 AC0C0000 		.section	.debug_str,"MS",%progbits,1
 17049      0200B102 
 17049      00000201 
 17049      FB0E0D00 
 17049      01010101 
 17050              	.LASF139:
 17051 0000 5365676D 		.ascii	"Segmento\000"
 17051      656E746F 
 17051      00
 17052              	.LASF17:
 17053 0009 75696E74 		.ascii	"uint16\000"
 17053      313600
 17054              	.LASF210:
 17055 0010 5258315F 		.ascii	"RX1_StartEx\000"
 17055      53746172 
ARM GAS  C:\Users\JPELEC~1\AppData\Local\Temp\ccEetrge.s 			page 349


 17055      74457800 
 17056              	.LASF193:
 17057 001c 73707269 		.ascii	"sprintf\000"
 17057      6E746600 
 17058              	.LASF106:
 17059 0024 52585F43 		.ascii	"RX_Counter2\000"
 17059      6F756E74 
 17059      65723200 
 17060              	.LASF134:
 17061 0030 7469656D 		.ascii	"tiempo_esterilizacion\000"
 17061      706F5F65 
 17061      73746572 
 17061      696C697A 
 17061      6163696F 
 17062              	.LASF190:
 17063 0046 55415254 		.ascii	"UART_1_PutChar\000"
 17063      5F315F50 
 17063      75744368 
 17063      617200
 17064              	.LASF55:
 17065 0055 4D656469 		.ascii	"MediaMovil\000"
 17065      614D6F76 
 17065      696C00
 17066              	.LASF191:
 17067 0060 55415254 		.ascii	"UART_2_PutString\000"
 17067      5F325F50 
 17067      75745374 
 17067      72696E67 
 17067      00
 17068              	.LASF46:
 17069 0071 436F6E74 		.ascii	"Controla\000"
 17069      726F6C61 
 17069      00
 17070              	.LASF5:
 17071 007a 5F5F7569 		.ascii	"__uint8_t\000"
 17071      6E74385F 
 17071      7400
 17072              	.LASF138:
 17073 0084 6D457374 		.ascii	"mEstp\000"
 17073      7000
 17074              	.LASF27:
 17075 008a 54656D70 		.ascii	"TemperaturaDec\000"
 17075      65726174 
 17075      75726144 
 17075      656300
 17076              	.LASF227:
 17077 0099 56454E54 		.ascii	"VENT1_Write\000"
 17077      315F5772 
 17077      69746500 
 17078              	.LASF223:
 17079 00a5 6C656545 		.ascii	"leeEEPROM\000"
 17079      4550524F 
 17079      4D00
 17080              	.LASF128:
 17081 00af 656E7472 		.ascii	"entro\000"
 17081      6F00
 17082              	.LASF234:
ARM GAS  C:\Users\JPELEC~1\AppData\Local\Temp\ccEetrge.s 			page 350


 17083 00b5 463A5C46 		.ascii	"F:\\Firmware Psoc\\LCD2\\LCD.cydsn\000"
 17083      69726D77 
 17083      61726520 
 17083      50736F63 
 17083      5C4C4344 
 17084              	.LASF75:
 17085 00d5 70776D32 		.ascii	"pwm2\000"
 17085      00
 17086              	.LASF35:
 17087 00da 50726F67 		.ascii	"Program\000"
 17087      72616D00 
 17088              	.LASF11:
 17089 00e2 6C6F6E67 		.ascii	"long long unsigned int\000"
 17089      206C6F6E 
 17089      6720756E 
 17089      7369676E 
 17089      65642069 
 17090              	.LASF135:
 17091 00f9 68457374 		.ascii	"hEst\000"
 17091      00
 17092              	.LASF40:
 17093 00fe 41637475 		.ascii	"ActualizaRecta\000"
 17093      616C697A 
 17093      61526563 
 17093      746100
 17094              	.LASF77:
 17095 010d 50726F67 		.ascii	"Programa\000"
 17095      72616D61 
 17095      00
 17096              	.LASF212:
 17097 0116 54696D65 		.ascii	"Timer2_Start\000"
 17097      72325F53 
 17097      74617274 
 17097      00
 17098              	.LASF66:
 17099 0123 7463436F 		.ascii	"tcColdJnuVolt\000"
 17099      6C644A6E 
 17099      75566F6C 
 17099      7400
 17100              	.LASF51:
 17101 0131 49544D5F 		.ascii	"ITM_RxBuffer\000"
 17101      52784275 
 17101      66666572 
 17101      00
 17102              	.LASF229:
 17103 013e 4379536F 		.ascii	"CySoftwareReset\000"
 17103      66747761 
 17103      72655265 
 17103      73657400 
 17104              	.LASF148:
 17105 014e 74696E69 		.ascii	"tinicio\000"
 17105      63696F00 
 17106              	.LASF235:
 17107 0156 6C656554 		.ascii	"leeTermocupla\000"
 17107      65726D6F 
 17107      6375706C 
 17107      6100
ARM GAS  C:\Users\JPELEC~1\AppData\Local\Temp\ccEetrge.s 			page 351


 17108              	.LASF215:
 17109 0164 4144435F 		.ascii	"ADC_SAR_Start\000"
 17109      5341525F 
 17109      53746172 
 17109      7400
 17110              	.LASF10:
 17111 0172 6C6F6E67 		.ascii	"long long int\000"
 17111      206C6F6E 
 17111      6720696E 
 17111      7400
 17112              	.LASF1:
 17113 0180 7369676E 		.ascii	"signed char\000"
 17113      65642063 
 17113      68617200 
 17114              	.LASF118:
 17115 018c 4D656E75 		.ascii	"MenuAnt\000"
 17115      416E7400 
 17116              	.LASF158:
 17117 0194 666C6167 		.ascii	"flagdn\000"
 17117      646E00
 17118              	.LASF209:
 17119 019b 5258325F 		.ascii	"RX2_StartEx\000"
 17119      53746172 
 17119      74457800 
 17120              	.LASF21:
 17121 01a7 696E7433 		.ascii	"int32\000"
 17121      3200
 17122              	.LASF185:
 17123 01ad 5353525F 		.ascii	"SSR_Write\000"
 17123      57726974 
 17123      6500
 17124              	.LASF214:
 17125 01b7 4144435F 		.ascii	"ADC_Start\000"
 17125      53746172 
 17125      7400
 17126              	.LASF192:
 17127 01c1 55415254 		.ascii	"UART_2_PutChar\000"
 17127      5F325F50 
 17127      75744368 
 17127      617200
 17128              	.LASF7:
 17129 01d0 6C6F6E67 		.ascii	"long int\000"
 17129      20696E74 
 17129      00
 17130              	.LASF220:
 17131 01d9 4C434431 		.ascii	"LCD1_Write\000"
 17131      5F577269 
 17131      746500
 17132              	.LASF90:
 17133 01e4 436F6E74 		.ascii	"Control\000"
 17133      726F6C00 
 17134              	.LASF202:
 17135 01ec 4144435F 		.ascii	"ADC_CountsTo_uVolts\000"
 17135      436F756E 
 17135      7473546F 
 17135      5F75566F 
 17135      6C747300 
ARM GAS  C:\Users\JPELEC~1\AppData\Local\Temp\ccEetrge.s 			page 352


 17136              	.LASF199:
 17137 0200 4144435F 		.ascii	"ADC_StopConvert\000"
 17137      53746F70 
 17137      436F6E76 
 17137      65727400 
 17138              	.LASF74:
 17139 0210 70776D31 		.ascii	"pwm1\000"
 17139      00
 17140              	.LASF115:
 17141 0215 4461746F 		.ascii	"Dato_Exitoso2\000"
 17141      5F457869 
 17141      746F736F 
 17141      3200
 17142              	.LASF206:
 17143 0223 55415254 		.ascii	"UART_1_Start\000"
 17143      5F315F53 
 17143      74617274 
 17143      00
 17144              	.LASF16:
 17145 0230 75696E74 		.ascii	"uint8\000"
 17145      3800
 17146              	.LASF143:
 17147 0236 7469656D 		.ascii	"tiempoctrl\000"
 17147      706F6374 
 17147      726C00
 17148              	.LASF68:
 17149 0241 66696C48 		.ascii	"filHotJnCount\000"
 17149      6F744A6E 
 17149      436F756E 
 17149      7400
 17150              	.LASF62:
 17151 024f 72657375 		.ascii	"result\000"
 17151      6C7400
 17152              	.LASF189:
 17153 0256 43794465 		.ascii	"CyDelayUs\000"
 17153      6C617955 
 17153      7300
 17154              	.LASF22:
 17155 0260 646F7562 		.ascii	"double\000"
 17155      6C6500
 17156              	.LASF112:
 17157 0267 4461746F 		.ascii	"Dato2\000"
 17157      3200
 17158              	.LASF113:
 17159 026d 4461746F 		.ascii	"Dato3\000"
 17159      3300
 17160              	.LASF200:
 17161 0273 4144435F 		.ascii	"ADC_GetResult32\000"
 17161      47657452 
 17161      6573756C 
 17161      74333200 
 17162              	.LASF197:
 17163 0283 4144435F 		.ascii	"ADC_StartConvert\000"
 17163      53746172 
 17163      74436F6E 
 17163      76657274 
 17163      00
ARM GAS  C:\Users\JPELEC~1\AppData\Local\Temp\ccEetrge.s 			page 353


 17164              	.LASF208:
 17165 0294 55415254 		.ascii	"UART_3_Start\000"
 17165      5F335F53 
 17165      74617274 
 17165      00
 17166              	.LASF24:
 17167 02a1 72656731 		.ascii	"reg16\000"
 17167      3600
 17168              	.LASF18:
 17169 02a7 75696E74 		.ascii	"uint32\000"
 17169      333200
 17170              	.LASF54:
 17171 02ae 496E7465 		.ascii	"Integral\000"
 17171      6772616C 
 17171      00
 17172              	.LASF107:
 17173 02b7 69326362 		.ascii	"i2cbuf\000"
 17173      756600
 17174              	.LASF47:
 17175 02be 64696275 		.ascii	"dibujaGrafico\000"
 17175      6A614772 
 17175      61666963 
 17175      6F00
 17176              	.LASF117:
 17177 02cc 4D656E75 		.ascii	"MenuAntt\000"
 17177      416E7474 
 17177      00
 17178              	.LASF150:
 17179 02d5 7469656D 		.ascii	"tiempoup\000"
 17179      706F7570 
 17179      00
 17180              	.LASF88:
 17181 02de 70756C73 		.ascii	"pulsoDisminuir\000"
 17181      6F446973 
 17181      6D696E75 
 17181      697200
 17182              	.LASF8:
 17183 02ed 5F5F7569 		.ascii	"__uint32_t\000"
 17183      6E743332 
 17183      5F7400
 17184              	.LASF133:
 17185 02f8 78313030 		.ascii	"x100\000"
 17185      00
 17186              	.LASF122:
 17187 02fd 5365676D 		.ascii	"Segmentos\000"
 17187      656E746F 
 17187      7300
 17188              	.LASF204:
 17189 0307 52656C6F 		.ascii	"Reloj_StartEx\000"
 17189      6A5F5374 
 17189      61727445 
 17189      7800
 17190              	.LASF131:
 17191 0315 666C6167 		.ascii	"flagTemperatura\000"
 17191      54656D70 
 17191      65726174 
 17191      75726100 
ARM GAS  C:\Users\JPELEC~1\AppData\Local\Temp\ccEetrge.s 			page 354


 17192              	.LASF42:
 17193 0325 696E6963 		.ascii	"iniciaConteo\000"
 17193      6961436F 
 17193      6E74656F 
 17193      00
 17194              	.LASF177:
 17195 0332 5469656D 		.ascii	"TiempoActual\000"
 17195      706F4163 
 17195      7475616C 
 17195      00
 17196              	.LASF39:
 17197 033f 696E7465 		.ascii	"inteRX1\000"
 17197      52583100 
 17198              	.LASF231:
 17199 0347 444F4F52 		.ascii	"DOOR_Read\000"
 17199      5F526561 
 17199      6400
 17200              	.LASF114:
 17201 0351 4461746F 		.ascii	"Dato_Exitoso\000"
 17201      5F457869 
 17201      746F736F 
 17201      00
 17202              	.LASF180:
 17203 035e 5469656D 		.ascii	"Tiempo\000"
 17203      706F00
 17204              	.LASF153:
 17205 0365 4C656374 		.ascii	"Lectura2\000"
 17205      75726132 
 17205      00
 17206              	.LASF12:
 17207 036e 756E7369 		.ascii	"unsigned int\000"
 17207      676E6564 
 17207      20696E74 
 17207      00
 17208              	.LASF119:
 17209 037b 4D656E75 		.ascii	"Menu2\000"
 17209      3200
 17210              	.LASF211:
 17211 0381 54696D65 		.ascii	"Timer_Start\000"
 17211      725F5374 
 17211      61727400 
 17212              	.LASF99:
 17213 038d 52585F57 		.ascii	"RX_Wr_Index\000"
 17213      725F496E 
 17213      64657800 
 17214              	.LASF160:
 17215 0399 666C6167 		.ascii	"flag_calcula\000"
 17215      5F63616C 
 17215      63756C61 
 17215      00
 17216              	.LASF100:
 17217 03a6 52585F52 		.ascii	"RX_Rd_Index\000"
 17217      645F496E 
 17217      64657800 
 17218              	.LASF165:
 17219 03b2 41756D65 		.ascii	"Aumento\000"
 17219      6E746F00 
ARM GAS  C:\Users\JPELEC~1\AppData\Local\Temp\ccEetrge.s 			page 355


 17220              	.LASF80:
 17221 03ba 6F757470 		.ascii	"output\000"
 17221      757400
 17222              	.LASF104:
 17223 03c1 52585F57 		.ascii	"RX_Wr_Index2\000"
 17223      725F496E 
 17223      64657832 
 17223      00
 17224              	.LASF136:
 17225 03ce 6D457374 		.ascii	"mEst\000"
 17225      00
 17226              	.LASF15:
 17227 03d3 75696E74 		.ascii	"uint32_t\000"
 17227      33325F74 
 17227      00
 17228              	.LASF111:
 17229 03dc 70726F6D 		.ascii	"promedio\000"
 17229      6564696F 
 17229      00
 17230              	.LASF87:
 17231 03e5 70756C73 		.ascii	"pulsoAumentar\000"
 17231      6F41756D 
 17231      656E7461 
 17231      7200
 17232              	.LASF28:
 17233 03f3 54656D70 		.ascii	"TemperaturaInt\000"
 17233      65726174 
 17233      75726149 
 17233      6E7400
 17234              	.LASF182:
 17235 0402 74507265 		.ascii	"tPregunta\000"
 17235      67756E74 
 17235      6100
 17236              	.LASF174:
 17237 040c 70656E4D 		.ascii	"penMufla\000"
 17237      75666C61 
 17237      00
 17238              	.LASF91:
 17239 0415 65737461 		.ascii	"estadoSSR\000"
 17239      646F5353 
 17239      5200
 17240              	.LASF56:
 17241 041f 54636963 		.ascii	"Tciclo\000"
 17241      6C6F00
 17242              	.LASF78:
 17243 0426 4F706369 		.ascii	"Opcion2\000"
 17243      6F6E3200 
 17244              	.LASF163:
 17245 042e 67726166 		.ascii	"grafica\000"
 17245      69636100 
 17246              	.LASF92:
 17247 0436 65737461 		.ascii	"estadoBuzzer\000"
 17247      646F4275 
 17247      7A7A6572 
 17247      00
 17248              	.LASF157:
 17249 0443 666C6167 		.ascii	"flagup\000"
ARM GAS  C:\Users\JPELEC~1\AppData\Local\Temp\ccEetrge.s 			page 356


 17249      757000
 17250              	.LASF142:
 17251 044a 7469656D 		.ascii	"tiempos3\000"
 17251      706F7333 
 17251      00
 17252              	.LASF19:
 17253 0453 696E7438 		.ascii	"int8\000"
 17253      00
 17254              	.LASF59:
 17255 0458 64617461 		.ascii	"dataReady\000"
 17255      52656164 
 17255      7900
 17256              	.LASF233:
 17257 0462 6D61696E 		.ascii	"main.c\000"
 17257      2E6300
 17258              	.LASF228:
 17259 0469 45455052 		.ascii	"EEPROM_WriteByte\000"
 17259      4F4D5F57 
 17259      72697465 
 17259      42797465 
 17259      00
 17260              	.LASF181:
 17261 047a 5469656D 		.ascii	"TiempoRampa\000"
 17261      706F5261 
 17261      6D706100 
 17262              	.LASF60:
 17263 0486 47616E61 		.ascii	"Ganancia\000"
 17263      6E636961 
 17263      00
 17264              	.LASF6:
 17265 048f 5F5F696E 		.ascii	"__int32_t\000"
 17265      7433325F 
 17265      7400
 17266              	.LASF105:
 17267 0499 52585F52 		.ascii	"RX_Rd_Index2\000"
 17267      645F496E 
 17267      64657832 
 17267      00
 17268              	.LASF110:
 17269 04a6 74657874 		.ascii	"texto\000"
 17269      6F00
 17270              	.LASF187:
 17271 04ac 55415254 		.ascii	"UART_1_GetByte\000"
 17271      5F315F47 
 17271      65744279 
 17271      746500
 17272              	.LASF129:
 17273 04bb 47756172 		.ascii	"GuardaEEPROM\000"
 17273      64614545 
 17273      50524F4D 
 17273      00
 17274              	.LASF188:
 17275 04c8 55415254 		.ascii	"UART_1_PutString\000"
 17275      5F315F50 
 17275      75745374 
 17275      72696E67 
 17275      00
ARM GAS  C:\Users\JPELEC~1\AppData\Local\Temp\ccEetrge.s 			page 357


 17276              	.LASF109:
 17277 04d9 69636F6E 		.ascii	"iconoPeque\000"
 17277      6F506571 
 17277      756500
 17278              	.LASF168:
 17279 04e4 54656D70 		.ascii	"TempeInicial\000"
 17279      65496E69 
 17279      6369616C 
 17279      00
 17280              	.LASF141:
 17281 04f1 7469656D 		.ascii	"tiempos\000"
 17281      706F7300 
 17282              	.LASF57:
 17283 04f9 416A7573 		.ascii	"Ajuste\000"
 17283      746500
 17284              	.LASF108:
 17285 0500 69636F6E 		.ascii	"iconoGrande\000"
 17285      6F477261 
 17285      6E646500 
 17286              	.LASF101:
 17287 050c 52585F43 		.ascii	"RX_Counter\000"
 17287      6F756E74 
 17287      657200
 17288              	.LASF149:
 17289 0517 7469656D 		.ascii	"tiempocalentamiento\000"
 17289      706F6361 
 17289      6C656E74 
 17289      616D6965 
 17289      6E746F00 
 17290              	.LASF226:
 17291 052b 55415254 		.ascii	"UART_3_PutString\000"
 17291      5F335F50 
 17291      75745374 
 17291      72696E67 
 17291      00
 17292              	.LASF230:
 17293 053c 636F6E76 		.ascii	"convert8\000"
 17293      65727438 
 17293      00
 17294              	.LASF26:
 17295 0545 73697A65 		.ascii	"sizetype\000"
 17295      74797065 
 17295      00
 17296              	.LASF94:
 17297 054e 666C6167 		.ascii	"flagFinalizo\000"
 17297      46696E61 
 17297      6C697A6F 
 17297      00
 17298              	.LASF25:
 17299 055b 6C6F6E67 		.ascii	"long double\000"
 17299      20646F75 
 17299      626C6500 
 17300              	.LASF71:
 17301 0567 74635465 		.ascii	"tcTemp\000"
 17301      6D7000
 17302              	.LASF70:
 17303 056e 74637556 		.ascii	"tcuVolt\000"
ARM GAS  C:\Users\JPELEC~1\AppData\Local\Temp\ccEetrge.s 			page 358


 17303      6F6C7400 
 17304              	.LASF48:
 17305 0576 4C656544 		.ascii	"LeeDisplay\000"
 17305      6973706C 
 17305      617900
 17306              	.LASF93:
 17307 0581 65737461 		.ascii	"estadoVentilador\000"
 17307      646F5665 
 17307      6E74696C 
 17307      61646F72 
 17307      00
 17308              	.LASF145:
 17309 0592 5469656D 		.ascii	"TiempoControl\000"
 17309      706F436F 
 17309      6E74726F 
 17309      6C00
 17310              	.LASF43:
 17311 05a0 65736372 		.ascii	"escribeDisplay1\000"
 17311      69626544 
 17311      6973706C 
 17311      61793100 
 17312              	.LASF44:
 17313 05b0 65736372 		.ascii	"escribeDisplay2\000"
 17313      69626544 
 17313      6973706C 
 17313      61793200 
 17314              	.LASF172:
 17315 05c0 5470756C 		.ascii	"Tpulso\000"
 17315      736F00
 17316              	.LASF98:
 17317 05c7 52785F42 		.ascii	"Rx_Buffer2\000"
 17317      75666665 
 17317      723200
 17318              	.LASF151:
 17319 05d2 7469656D 		.ascii	"tiempodn\000"
 17319      706F646E 
 17319      00
 17320              	.LASF52:
 17321 05db 50617373 		.ascii	"Password\000"
 17321      776F7264 
 17321      00
 17322              	.LASF95:
 17323 05e4 76616C6F 		.ascii	"valor\000"
 17323      7200
 17324              	.LASF102:
 17325 05ea 52785F42 		.ascii	"Rx_Buffer3\000"
 17325      75666665 
 17325      723300
 17326              	.LASF162:
 17327 05f5 636F6E74 		.ascii	"conteoPregunta\000"
 17327      656F5072 
 17327      6567756E 
 17327      746100
 17328              	.LASF9:
 17329 0604 6C6F6E67 		.ascii	"long unsigned int\000"
 17329      20756E73 
 17329      69676E65 
ARM GAS  C:\Users\JPELEC~1\AppData\Local\Temp\ccEetrge.s 			page 359


 17329      6420696E 
 17329      7400
 17330              	.LASF82:
 17331 0616 666C6167 		.ascii	"flagButton0\000"
 17331      42757474 
 17331      6F6E3000 
 17332              	.LASF103:
 17333 0622 52785F42 		.ascii	"Rx_Buffer4\000"
 17333      75666665 
 17333      723400
 17334              	.LASF84:
 17335 062d 666C6167 		.ascii	"flagButton2\000"
 17335      42757474 
 17335      6F6E3200 
 17336              	.LASF85:
 17337 0639 666C6167 		.ascii	"flagButton3\000"
 17337      42757474 
 17337      6F6E3300 
 17338              	.LASF127:
 17339 0645 45737461 		.ascii	"EstadoPaso\000"
 17339      646F5061 
 17339      736F00
 17340              	.LASF198:
 17341 0650 4144435F 		.ascii	"ADC_IsEndConversion\000"
 17341      4973456E 
 17341      64436F6E 
 17341      76657273 
 17341      696F6E00 
 17342              	.LASF34:
 17343 0664 72616D70 		.ascii	"rampas\000"
 17343      617300
 17344              	.LASF69:
 17345 066b 7463486F 		.ascii	"tcHotJnuVolt\000"
 17345      744A6E75 
 17345      566F6C74 
 17345      00
 17346              	.LASF161:
 17347 0678 46696E61 		.ascii	"Finalizo\000"
 17347      6C697A6F 
 17347      00
 17348              	.LASF0:
 17349 0681 666C6F61 		.ascii	"float\000"
 17349      7400
 17350              	.LASF67:
 17351 0687 686F744A 		.ascii	"hotJnCount\000"
 17351      6E436F75 
 17351      6E7400
 17352              	.LASF175:
 17353 0692 6572726F 		.ascii	"error\000"
 17353      7200
 17354              	.LASF72:
 17355 0698 64697370 		.ascii	"displayStr\000"
 17355      6C617953 
 17355      747200
 17356              	.LASF216:
 17357 06a3 4144435F 		.ascii	"ADC_SAR_IRQ_StartEx\000"
 17357      5341525F 
ARM GAS  C:\Users\JPELEC~1\AppData\Local\Temp\ccEetrge.s 			page 360


 17357      4952515F 
 17357      53746172 
 17357      74457800 
 17358              	.LASF201:
 17359 06b7 46696C74 		.ascii	"FilterSignal\000"
 17359      65725369 
 17359      676E616C 
 17359      00
 17360              	.LASF167:
 17361 06c4 44696650 		.ascii	"DifPendiente\000"
 17361      656E6469 
 17361      656E7465 
 17361      00
 17362              	.LASF124:
 17363 06d1 4F706369 		.ascii	"Opcion\000"
 17363      6F6E00
 17364              	.LASF156:
 17365 06d8 4C656374 		.ascii	"Lectura\000"
 17365      75726100 
 17366              	.LASF36:
 17367 06e0 4144435F 		.ascii	"ADC_SAR_ISR_LOC\000"
 17367      5341525F 
 17367      4953525F 
 17367      4C4F4300 
 17368              	.LASF178:
 17369 06f0 4D696E75 		.ascii	"MinutosActual\000"
 17369      746F7341 
 17369      63747561 
 17369      6C00
 17370              	.LASF130:
 17371 06fe 72616D70 		.ascii	"rampa\000"
 17371      6100
 17372              	.LASF213:
 17373 0704 45455052 		.ascii	"EEPROM_Start\000"
 17373      4F4D5F53 
 17373      74617274 
 17373      00
 17374              	.LASF14:
 17375 0711 696E7433 		.ascii	"int32_t\000"
 17375      325F7400 
 17376              	.LASF2:
 17377 0719 756E7369 		.ascii	"unsigned char\000"
 17377      676E6564 
 17377      20636861 
 17377      7200
 17378              	.LASF176:
 17379 0727 506F7465 		.ascii	"Potencia\000"
 17379      6E636961 
 17379      00
 17380              	.LASF186:
 17381 0730 55415254 		.ascii	"UART_2_GetByte\000"
 17381      5F325F47 
 17381      65744279 
 17381      746500
 17382              	.LASF125:
 17383 073f 496E6963 		.ascii	"Inicio\000"
 17383      696F00
ARM GAS  C:\Users\JPELEC~1\AppData\Local\Temp\ccEetrge.s 			page 361


 17384              	.LASF196:
 17385 0746 4144435F 		.ascii	"ADC_SelectConfiguration\000"
 17385      53656C65 
 17385      6374436F 
 17385      6E666967 
 17385      75726174 
 17386              	.LASF3:
 17387 075e 73686F72 		.ascii	"short int\000"
 17387      7420696E 
 17387      7400
 17388              	.LASF154:
 17389 0768 666C6167 		.ascii	"flag_setpoint\000"
 17389      5F736574 
 17389      706F696E 
 17389      7400
 17390              	.LASF232:
 17391 0776 474E5520 		.ascii	"GNU C11 5.4.1 20160609 (release) [ARM/embedded-5-br"
 17391      43313120 
 17391      352E342E 
 17391      31203230 
 17391      31363036 
 17392 07a9 616E6368 		.ascii	"anch revision 237715] -mcpu=cortex-m3 -mthumb -g -O"
 17392      20726576 
 17392      6973696F 
 17392      6E203233 
 17392      37373135 
 17393 07dc 67202D66 		.ascii	"g -ffunction-sections -ffat-lto-objects\000"
 17393      66756E63 
 17393      74696F6E 
 17393      2D736563 
 17393      74696F6E 
 17394              	.LASF79:
 17395 0804 53657470 		.ascii	"Setpoint\000"
 17395      6F696E74 
 17395      00
 17396              	.LASF37:
 17397 080d 52656C6F 		.ascii	"Reloj2\000"
 17397      6A3200
 17398              	.LASF219:
 17399 0814 4C434432 		.ascii	"LCD2_Write\000"
 17399      5F577269 
 17399      746500
 17400              	.LASF81:
 17401 081f 74477261 		.ascii	"tGrafica\000"
 17401      66696361 
 17401      00
 17402              	.LASF65:
 17403 0828 636F6C64 		.ascii	"coldJnTemp\000"
 17403      4A6E5465 
 17403      6D7000
 17404              	.LASF207:
 17405 0833 55415254 		.ascii	"UART_2_Start\000"
 17405      5F325F53 
 17405      74617274 
 17405      00
 17406              	.LASF159:
 17407 0840 666C6167 		.ascii	"flagRampa\000"
ARM GAS  C:\Users\JPELEC~1\AppData\Local\Temp\ccEetrge.s 			page 362


 17407      52616D70 
 17407      6100
 17408              	.LASF116:
 17409 084a 4D656E75 		.ascii	"Menu\000"
 17409      00
 17410              	.LASF96:
 17411 084f 70656E64 		.ascii	"pendiente\000"
 17411      69656E74 
 17411      6500
 17412              	.LASF140:
 17413 0859 636F6E74 		.ascii	"conteo\000"
 17413      656F00
 17414              	.LASF73:
 17415 0860 66697273 		.ascii	"first\000"
 17415      7400
 17416              	.LASF179:
 17417 0866 486F7261 		.ascii	"HorasActual\000"
 17417      73416374 
 17417      75616C00 
 17418              	.LASF61:
 17419 0872 47616E61 		.ascii	"GananciaIn\000"
 17419      6E636961 
 17419      496E00
 17420              	.LASF23:
 17421 087d 63686172 		.ascii	"char\000"
 17421      00
 17422              	.LASF195:
 17423 0882 54686572 		.ascii	"Thermocouple_1_GetVoltage\000"
 17423      6D6F636F 
 17423      75706C65 
 17423      5F315F47 
 17423      6574566F 
 17424              	.LASF83:
 17425 089c 666C6167 		.ascii	"flagButton1\000"
 17425      42757474 
 17425      6F6E3100 
 17426              	.LASF50:
 17427 08a8 6D656469 		.ascii	"media\000"
 17427      6100
 17428              	.LASF120:
 17429 08ae 4D656E75 		.ascii	"MenuAntt2\000"
 17429      416E7474 
 17429      3200
 17430              	.LASF123:
 17431 08b8 4369636C 		.ascii	"CicloLibre\000"
 17431      6F4C6962 
 17431      726500
 17432              	.LASF205:
 17433 08c3 6C656554 		.ascii	"leeT_StartEx\000"
 17433      5F537461 
 17433      72744578 
 17433      00
 17434              	.LASF183:
 17435 08d0 50726F6D 		.ascii	"Prom\000"
 17435      00
 17436              	.LASF58:
 17437 08d5 416A7573 		.ascii	"Ajusten\000"
ARM GAS  C:\Users\JPELEC~1\AppData\Local\Temp\ccEetrge.s 			page 363


 17437      74656E00 
 17438              	.LASF166:
 17439 08dd 50656E64 		.ascii	"PendienteActual\000"
 17439      69656E74 
 17439      65416374 
 17439      75616C00 
 17440              	.LASF29:
 17441 08ed 48756D65 		.ascii	"Humedad\000"
 17441      64616400 
 17442              	.LASF152:
 17443 08f5 6D656E73 		.ascii	"mensaje\000"
 17443      616A6500 
 17444              	.LASF63:
 17445 08fd 50726F67 		.ascii	"Programas\000"
 17445      72616D61 
 17445      7300
 17446              	.LASF64:
 17447 0907 6F666673 		.ascii	"offset\000"
 17447      657400
 17448              	.LASF146:
 17449 090e 7469656D 		.ascii	"tiemporecta\000"
 17449      706F7265 
 17449      63746100 
 17450              	.LASF4:
 17451 091a 73686F72 		.ascii	"short unsigned int\000"
 17451      7420756E 
 17451      7369676E 
 17451      65642069 
 17451      6E7400
 17452              	.LASF132:
 17453 092d 54657374 		.ascii	"Test\000"
 17453      00
 17454              	.LASF221:
 17455 0932 43794465 		.ascii	"CyDelay\000"
 17455      6C617900 
 17456              	.LASF126:
 17457 093a 496E6963 		.ascii	"Inicio2\000"
 17457      696F3200 
 17458              	.LASF31:
 17459 0942 4D696E75 		.ascii	"Minutos\000"
 17459      746F7300 
 17460              	.LASF30:
 17461 094a 486F7261 		.ascii	"Horas\000"
 17461      7300
 17462              	.LASF97:
 17463 0950 52785F42 		.ascii	"Rx_Buffer\000"
 17463      75666665 
 17463      7200
 17464              	.LASF147:
 17465 095a 7469656D 		.ascii	"tiemposetpoint\000"
 17465      706F7365 
 17465      74706F69 
 17465      6E7400
 17466              	.LASF170:
 17467 0969 54656D70 		.ascii	"TemperaturaIdeal\000"
 17467      65726174 
 17467      75726149 
ARM GAS  C:\Users\JPELEC~1\AppData\Local\Temp\ccEetrge.s 			page 364


 17467      6465616C 
 17467      00
 17468              	.LASF45:
 17469 097a 42756666 		.ascii	"Buffer\000"
 17469      657200
 17470              	.LASF222:
 17471 0981 4C45445F 		.ascii	"LED_Write\000"
 17471      57726974 
 17471      6500
 17472              	.LASF86:
 17473 098b 64696275 		.ascii	"dibujo\000"
 17473      6A6F00
 17474              	.LASF32:
 17475 0992 54656D70 		.ascii	"Temperatura\000"
 17475      65726174 
 17475      75726100 
 17476              	.LASF171:
 17477 099e 506F7465 		.ascii	"PotenciaEntregada\000"
 17477      6E636961 
 17477      456E7472 
 17477      65676164 
 17477      6100
 17478              	.LASF121:
 17479 09b0 5469706F 		.ascii	"TipoClave\000"
 17479      436C6176 
 17479      6500
 17480              	.LASF184:
 17481 09ba 54656D70 		.ascii	"Temperature\000"
 17481      65726174 
 17481      75726500 
 17482              	.LASF33:
 17483 09c6 50657273 		.ascii	"Personalizado\000"
 17483      6F6E616C 
 17483      697A6164 
 17483      6F00
 17484              	.LASF225:
 17485 09d4 4932435F 		.ascii	"I2C_MasterWriteBuf\000"
 17485      4D617374 
 17485      65725772 
 17485      69746542 
 17485      756600
 17486              	.LASF13:
 17487 09e7 75696E74 		.ascii	"uint8_t\000"
 17487      385F7400 
 17488              	.LASF224:
 17489 09ef 65787472 		.ascii	"extraeDecimal\000"
 17489      61654465 
 17489      63696D61 
 17489      6C00
 17490              	.LASF49:
 17491 09fd 636F6E74 		.ascii	"controlaRampa\000"
 17491      726F6C61 
 17491      52616D70 
 17491      6100
 17492              	.LASF76:
 17493 0a0b 50616E74 		.ascii	"PantallaPrincipal\000"
 17493      616C6C61 
ARM GAS  C:\Users\JPELEC~1\AppData\Local\Temp\ccEetrge.s 			page 365


 17493      5072696E 
 17493      63697061 
 17493      6C00
 17494              	.LASF137:
 17495 0a1d 68457374 		.ascii	"hEstp\000"
 17495      7000
 17496              	.LASF218:
 17497 0a23 4932435F 		.ascii	"I2C_Start\000"
 17497      53746172 
 17497      7400
 17498              	.LASF20:
 17499 0a2d 696E7431 		.ascii	"int16\000"
 17499      3600
 17500              	.LASF38:
 17501 0a33 696E7465 		.ascii	"inteRX\000"
 17501      525800
 17502              	.LASF164:
 17503 0a3a 696D7072 		.ascii	"imprime\000"
 17503      696D6500 
 17504              	.LASF194:
 17505 0a42 4D656173 		.ascii	"MeasureColdJnSensorTemp\000"
 17505      75726543 
 17505      6F6C644A 
 17505      6E53656E 
 17505      736F7254 
 17506              	.LASF217:
 17507 0a5a 4144435F 		.ascii	"ADC_SAR_StartConvert\000"
 17507      5341525F 
 17507      53746172 
 17507      74436F6E 
 17507      76657274 
 17508              	.LASF89:
 17509 0a6f 666C6167 		.ascii	"flagBorrado\000"
 17509      426F7272 
 17509      61646F00 
 17510              	.LASF155:
 17511 0a7b 666C6167 		.ascii	"flag_tiempocalentamiento\000"
 17511      5F746965 
 17511      6D706F63 
 17511      616C656E 
 17511      74616D69 
 17512              	.LASF169:
 17513 0a94 50656E64 		.ascii	"Pendiente\000"
 17513      69656E74 
 17513      6500
 17514              	.LASF236:
 17515 0a9e 6D61696E 		.ascii	"main\000"
 17515      00
 17516              	.LASF53:
 17517 0aa3 44657269 		.ascii	"Derivativo\000"
 17517      76617469 
 17517      766F00
 17518              	.LASF203:
 17519 0aae 54686572 		.ascii	"Thermocouple_1_GetTemperature\000"
 17519      6D6F636F 
 17519      75706C65 
 17519      5F315F47 
ARM GAS  C:\Users\JPELEC~1\AppData\Local\Temp\ccEetrge.s 			page 366


 17519      65745465 
 17520              	.LASF144:
 17521 0acc 7469656D 		.ascii	"tiemporeset\000"
 17521      706F7265 
 17521      73657400 
 17522              	.LASF173:
 17523 0ad8 70656E49 		.ascii	"penInicial\000"
 17523      6E696369 
 17523      616C00
 17524              	.LASF41:
 17525 0ae3 4375656E 		.ascii	"CuentaTiempo\000"
 17525      74615469 
 17525      656D706F 
 17525      00
 17526              		.ident	"GCC: (GNU Tools for ARM Embedded Processors) 5.4.1 20160609 (release) [ARM/embedded-5-bran
