ARM GAS  C:\Users\JPELEC~1\AppData\Local\Temp\ccEetrge.s 			page 1


   1              		.syntax unified
   2              		.cpu cortex-m3
   3              		.fpu softvfp
   4              		.eabi_attribute 20, 1
   5              		.eabi_attribute 21, 1
   6              		.eabi_attribute 23, 3
   7              		.eabi_attribute 24, 1
   8              		.eabi_attribute 25, 1
   9              		.eabi_attribute 26, 1
  10              		.eabi_attribute 30, 1
  11              		.eabi_attribute 34, 1
  12              		.eabi_attribute 18, 4
  13              		.thumb
  14              		.syntax unified
  15              		.file	"main.c"
  16              		.text
  17              	.Ltext0:
  18              		.cfi_sections	.debug_frame
  19              		.syntax unified
  20              		.global _printf_float
  21              		.thumb
  22              		.syntax unified
  23              		.section	.text.ADC_SAR_ISR_LOC,"ax",%progbits
  24              		.align	2
  25              		.global	ADC_SAR_ISR_LOC
  26              		.thumb
  27              		.thumb_func
  28              		.type	ADC_SAR_ISR_LOC, %function
  29              	ADC_SAR_ISR_LOC:
  30              	.LFB64:
  31              		.file 1 "main.c"
   1:main.c        **** 
   2:main.c        **** /* ========================================
   3:main.c        ****  *
   4:main.c        ****  * Copyright YOUR COMPANY, THE YEAR
   5:main.c        ****  * All Rights Reserved
   6:main.c        ****  * UNPUBLISHED, LICENSED SOFTWARE.
   7:main.c        ****  *
   8:main.c        ****  * CONFIDENTIAL AND PROPRIETARY INFORMATION
   9:main.c        ****  * WHICH IS THE PROPERTY OF your company.
  10:main.c        ****  *
  11:main.c        ****  * ========================================
  12:main.c        **** */
  13:main.c        **** #include <project.h>
  14:main.c        **** #include <stdio.h>
  15:main.c        **** #include <main.h>
  16:main.c        **** #include <math.h>
  17:main.c        **** #include <stdlib.h>
  18:main.c        **** 
  19:main.c        **** #if defined (__GNUC__)
  20:main.c        ****     /* Add an explicit reference to the floating point printf library */
  21:main.c        ****     /* to allow the usage of floating point conversion specifiers. */
  22:main.c        ****     /* This is not linked in by default with the newlib-nano library. */
  23:main.c        ****     asm (".global _printf_float");
  24:main.c        **** #endif
  25:main.c        **** 
  26:main.c        **** #define OFF 0
ARM GAS  C:\Users\JPELEC~1\AppData\Local\Temp\ccEetrge.s 			page 2


  27:main.c        **** #define ON  1
  28:main.c        **** 
  29:main.c        **** int16 offset;
  30:main.c        **** int16 coldJnTemp;
  31:main.c        **** int32 tcColdJnuVolt;
  32:main.c        **** int32 hotJnCount;
  33:main.c        **** int32 filHotJnCount;
  34:main.c        **** int32 tcHotJnuVolt;
  35:main.c        **** int32 tcuVolt;
  36:main.c        **** int32 tcTemp;
  37:main.c        **** char displayStr[100];	
  38:main.c        **** uint8 first = 0;
  39:main.c        **** extern uint8 const CYCODE LCD_customFonts[];  
  40:main.c        **** uint8_t i,pwm1,pwm2,n,PantallaPrincipal,Programa,Opcion2,Derivativo,Integral,MediaMovil,Tciclo,Ajus
  41:main.c        **** uint16 ctr,Setpoint;
  42:main.c        **** uint32_t output,tGrafica;
  43:main.c        **** short flagButton0,flagButton1,flagButton2,flagButton3,dibujo,pulsoAumentar,pulsoDisminuir,flagBorra
  44:main.c        **** float valor,pendiente,b,Ganancia,GananciaIn;
  45:main.c        **** 
  46:main.c        **** #define RX_BUFFER_SIZE  10
  47:main.c        **** char Rx_Buffer[RX_BUFFER_SIZE+1];
  48:main.c        **** char Rx_Buffer2[RX_BUFFER_SIZE+1];
  49:main.c        **** uint8 RX_Wr_Index=0;
  50:main.c        **** uint8 RX_Rd_Index=0;
  51:main.c        **** uint8 RX_Counter=0;
  52:main.c        **** 
  53:main.c        **** char Rx_Buffer3[RX_BUFFER_SIZE+1];
  54:main.c        **** char Rx_Buffer4[RX_BUFFER_SIZE+1];
  55:main.c        **** uint8 RX_Wr_Index2=0;
  56:main.c        **** uint8 RX_Rd_Index2=0;
  57:main.c        **** uint8 RX_Counter2=0;
  58:main.c        **** 
  59:main.c        **** uint8 i2cbuf[4];
  60:main.c        **** uint8 iconoGrande[15]={75,76,77,78,79,27,45};
  61:main.c        **** uint8 iconoPeque[15]={80,81,82,83,84,37,16};
  62:main.c        **** char const texto[9][20]={"PROGRAMA 1","PROGRAMA 2","PROGRAMA 3","PROGRAMA 4","PROGRAMA 5","TEST","C
  63:main.c        **** float promedio[90];
  64:main.c        **** 
  65:main.c        **** uint8 Dato2,Dato3,Dato_Exitoso,Dato_Exitoso2,Menu,MenuAntt,MenuAnt,Menu2,MenuAntt2,z,TipoClave,Segm
  66:main.c        **** short Inicio,Inicio2,EstadoPaso,entro,GuardaEEPROM,rampa,Minutos,Horas,flagTemperatura,Test,x1,x10,
  67:main.c        **** uint8 Password[4];
  68:main.c        **** uint8 tiempo_esterilizacion,y,hEst,mEst,hEstp,mEstp,Segmento,conteo;
  69:main.c        **** uint16 tiempos,tiempos3,tiempoctrl,Tc,Tp,tiemporeset,TiempoControl,tiemporecta,tiemposetpoint,tinic
  70:main.c        **** short mensaje,Lectura2,flag_setpoint,flag_tiempocalentamiento,Lectura,flagup,flagdn,flagRampa,flag_
  71:main.c        **** short Finalizo,conteoPregunta,grafica,imprime;
  72:main.c        **** float X[2]={0.0,0.0};
  73:main.c        **** float Temperatura,Aumento,PendienteActual,DifPendiente,TempeInicial,Pendiente,TemperaturaIdeal,Pote
  74:main.c        **** float error,Potencia;
  75:main.c        **** uint16 TiempoActual,MinutosActual,HorasActual,Tiempo,TiempoRampa,tPregunta;
  76:main.c        **** uint8 dataReady = 0u;
  77:main.c        **** uint16 result;
  78:main.c        **** float Prom,V0,Temperature;
  79:main.c        **** 
  80:main.c        **** CY_ISR(ADC_SAR_ISR_LOC)
  81:main.c        **** {
  32              		.loc 1 81 0
  33              		.cfi_startproc
ARM GAS  C:\Users\JPELEC~1\AppData\Local\Temp\ccEetrge.s 			page 3


  34              		@ args = 0, pretend = 0, frame = 0
  35              		@ frame_needed = 0, uses_anonymous_args = 0
  36              		@ link register save eliminated.
  82:main.c        ****         result = CY_GET_REG16(ADC_SAR_SAR_WRK_PTR);
  37              		.loc 1 82 0
  38 0000 034B     		ldr	r3, .L2
  39 0002 1A88     		ldrh	r2, [r3]
  40 0004 034B     		ldr	r3, .L2+4
  41 0006 1A80     		strh	r2, [r3]	@ movhi
  83:main.c        ****         dataReady = 1u;
  42              		.loc 1 83 0
  43 0008 0122     		movs	r2, #1
  44 000a 034B     		ldr	r3, .L2+8
  45 000c 1A70     		strb	r2, [r3]
  46 000e 7047     		bx	lr
  47              	.L3:
  48              		.align	2
  49              	.L2:
  50 0010 A05B0040 		.word	1073765280
  51 0014 00000000 		.word	result
  52 0018 00000000 		.word	.LANCHOR0
  53              		.cfi_endproc
  54              	.LFE64:
  55              		.size	ADC_SAR_ISR_LOC, .-ADC_SAR_ISR_LOC
  56              		.section	.text.lee,"ax",%progbits
  57              		.align	2
  58              		.global	lee
  59              		.thumb
  60              		.thumb_func
  61              		.type	lee, %function
  62              	lee:
  63              	.LFB78:
  84:main.c        **** }
  85:main.c        **** 
  86:main.c        **** void ActualizaRecta(){
  87:main.c        ****    X[y]=Temperatura;
  88:main.c        ****    y++;
  89:main.c        ****    if(y>=2){
  90:main.c        ****       y=0;
  91:main.c        ****       Aumento=X[1]-X[0];
  92:main.c        ****       HorasActual=hEst;
  93:main.c        ****       MinutosActual=mEst;
  94:main.c        ****       TiempoActual=Tiempo-((HorasActual*3600)+(MinutosActual*60)+tinicio);
  95:main.c        ****       PendienteActual=((Setpoint-Temperatura)/TiempoActual);
  96:main.c        ****       DifPendiente=(PendienteActual*20)-Aumento;
  97:main.c        ****       DifPendiente=DifPendiente*5;
  98:main.c        ****    }
  99:main.c        **** }
 100:main.c        **** 
 101:main.c        **** void Controla(){
 102:main.c        **** //-------------------------------Control de Calentamiento------------------------------------------
 103:main.c        ****    float tmp=0.0;
 104:main.c        ****       if(tiemporecta>=10){
 105:main.c        ****          ActualizaRecta();
 106:main.c        ****          tiemporecta=0;
 107:main.c        ****       }
 108:main.c        ****     
ARM GAS  C:\Users\JPELEC~1\AppData\Local\Temp\ccEetrge.s 			page 4


 109:main.c        ****       if(Segmento==0){
 110:main.c        ****          if(flag_calcula==0){
 111:main.c        ****             Tiempo=(Programas[Programa-1].rampas[0].Horas*3600)+(Programas[Programa-1].rampas[0].Mi
 112:main.c        ****             Setpoint=Programas[Programa-1].rampas[0].Temperatura;
 113:main.c        ****             Pendiente=(((float)Setpoint-TempeInicial)/(float)Tiempo);
 114:main.c        ****             hEstp=Programas[Programa-1].rampas[0].Horas;
 115:main.c        ****             mEstp=Programas[Programa-1].rampas[0].Minutos;
 116:main.c        ****             flag_calcula=1;
 117:main.c        ****             Ganancia=GananciaIn*(Setpoint/100);
 118:main.c        ****          }
 119:main.c        ****       }else{
 120:main.c        ****          if(flag_calcula==0){
 121:main.c        ****             Tiempo=(Programas[Programa-1].rampas[Segmento].Horas*3600)+(Programas[Programa-1].rampa
 122:main.c        ****             Setpoint=Programas[Programa-1].rampas[Segmento].Temperatura;
 123:main.c        ****             Pendiente=(((float)Programas[Programa-1].rampas[Segmento].Temperatura-(float)Programas[
 124:main.c        ****             hEstp=Programas[Programa-1].rampas[Segmento].Horas;
 125:main.c        ****             mEstp=Programas[Programa-1].rampas[Segmento].Minutos;
 126:main.c        ****             flag_calcula=1;
 127:main.c        ****             Ganancia=GananciaIn*(Setpoint/100);
 128:main.c        ****          }
 129:main.c        ****       }
 130:main.c        ****    
 131:main.c        ****   
 132:main.c        ****    if(Pendiente!=0){// Si Esta realizando una Rampa debe realizar el control de acuerdo a la pendie
 133:main.c        ****       //PendienteActual=((Setpoint-Temperatura)/TiempoActual);
 134:main.c        ****       //PendienteMinutos=PendienteActual*60;
 135:main.c        ****       //PotenciaEntregada=((PendienteMinutos+DifPendiente)*100)/penMufla;
 136:main.c        ****       TiempoRampa=((hEst*3600)+(mEst*60)+tinicio);
 137:main.c        ****       if(Segmento==0){
 138:main.c        ****          TemperaturaIdeal=(Pendiente*TiempoRampa)+TempeInicial;
 139:main.c        ****       }else{
 140:main.c        ****          TemperaturaIdeal=(Pendiente*TiempoRampa)+Programas[Programa-1].rampas[Segmento-1].Temperat
 141:main.c        ****       }
 142:main.c        ****       PotenciaEntregada=((TemperaturaIdeal-Temperatura)*100)/penMufla;
 143:main.c        **** // Pendiente determinar si el comportamiento de la mufla es lineal 10°C/min o si tiene un comporta
 144:main.c        ****       
 145:main.c        ****       if(Temperatura<450 && Temperatura>=200)
 146:main.c        ****          penMufla=penInicial*0.9;
 147:main.c        ****          
 148:main.c        ****       if(Temperatura<600 && Temperatura>=450)
 149:main.c        ****          penMufla=penInicial*0.8;
 150:main.c        ****          
 151:main.c        ****       if(Temperatura<900 && Temperatura>=600)
 152:main.c        ****          penMufla=penInicial*0.7;  
 153:main.c        ****          
 154:main.c        ****       if(Temperatura<=1200 && Temperatura>=900)
 155:main.c        ****          penMufla=penInicial*0.6;   
 156:main.c        ****       
 157:main.c        ****       if(PotenciaEntregada>100.0){
 158:main.c        ****          PotenciaEntregada=100.0;
 159:main.c        ****       }
 160:main.c        ****       
 161:main.c        ****       if(PotenciaEntregada<0){
 162:main.c        ****          PotenciaEntregada=0;
 163:main.c        ****       }
 164:main.c        ****       
 165:main.c        ****       Tpulso=(PotenciaEntregada*Tciclo)/100;  
ARM GAS  C:\Users\JPELEC~1\AppData\Local\Temp\ccEetrge.s 			page 5


 166:main.c        ****    }else{
 167:main.c        ****                
 168:main.c        ****       error=desvio+Setpoint-Temperatura;      // Cálculo del error ******
 169:main.c        ****       
 170:main.c        ****       if(error>3.0 && Aumento<1){
 171:main.c        ****          if(Potencia<90.0){
 172:main.c        ****             if(TiempoControl>=Derivativo){
 173:main.c        ****                TiempoControl=0;
 174:main.c        ****                if(Aumento<-2){
 175:main.c        ****                   Ganancia+=Integral+1;
 176:main.c        ****                }else{
 177:main.c        ****                   if(Aumento<-1){
 178:main.c        ****                      Ganancia+=Integral;
 179:main.c        ****                   }else{
 180:main.c        ****                      Ganancia+=Integral-0.5;
 181:main.c        ****                   }
 182:main.c        ****                }
 183:main.c        ****             }
 184:main.c        ****          }
 185:main.c        ****       }
 186:main.c        ****       
 187:main.c        ****       if(Ganancia<0.5){
 188:main.c        ****          Ganancia=0.5;
 189:main.c        ****       }
 190:main.c        ****       
 191:main.c        ****       
 192:main.c        ****       if(error<0.0)     // Anti Wind_DOWN    
 193:main.c        ****          error=0.0;
 194:main.c        ****    
 195:main.c        ****       tmp=error*Ganancia;  // Control Proporcional.
 196:main.c        ****             
 197:main.c        ****       if(tmp>Setpoint)   // Anti Wind-UP      
 198:main.c        ****          tmp=Setpoint;
 199:main.c        ****                   
 200:main.c        ****       if(tmp<0.0)     // Anti Wind_DOWN    
 201:main.c        ****          tmp=0.0;
 202:main.c        ****       
 203:main.c        ****       // Tpulso(t)= Tciclo*(y(t)-ymin)/(ymax - ymin); calculo de ciclo util para control de resiste
 204:main.c        ****       // Tpulso es float, hay que pasar ese ciclo a una salida de un puerto usando el TMR1.
 205:main.c        ****       Tpulso=(tmp/Setpoint)*Tciclo; 
 206:main.c        ****       
 207:main.c        ****    }
 208:main.c        ****    Tp=(Tpulso/0.002);
 209:main.c        ****    Tc=(Tciclo/0.002);
 210:main.c        ****    Control=1;     
 211:main.c        **** //-------------------------------------------------------------------------------------------------
 212:main.c        ****   
 213:main.c        **** }
 214:main.c        **** 
 215:main.c        **** void CuentaTiempo(){
 216:main.c        ****       if(tinicio>=60){
 217:main.c        ****          tinicio=0;
 218:main.c        ****          mEst+=1.0;
 219:main.c        ****          if(mEst>59){
 220:main.c        ****             mEst=0;
 221:main.c        ****             hEst+=1.0;
 222:main.c        ****          }
ARM GAS  C:\Users\JPELEC~1\AppData\Local\Temp\ccEetrge.s 			page 6


 223:main.c        ****       }
 224:main.c        **** }
 225:main.c        **** 
 226:main.c        **** void iniciaConteo(){
 227:main.c        ****    if(Pendiente!=0){
 228:main.c        ****         if(flagRampa)
 229:main.c        ****             tiempo_esterilizacion=1;
 230:main.c        ****         else
 231:main.c        ****             tiempo_esterilizacion=0;
 232:main.c        ****    }else if(Pendiente==0){
 233:main.c        ****       if(flagTemperatura && flagRampa)
 234:main.c        ****          tiempo_esterilizacion=1;
 235:main.c        ****       else
 236:main.c        ****          tiempo_esterilizacion=0;
 237:main.c        ****    }
 238:main.c        **** }
 239:main.c        **** 
 240:main.c        **** void escribeDisplay1(char Buffer[30]){
 241:main.c        ****     UART_1_PutString(Buffer);
 242:main.c        ****     CyDelayUs(10);
 243:main.c        ****     UART_1_PutChar(0xFF);
 244:main.c        ****     CyDelayUs(10);
 245:main.c        ****     UART_1_PutChar(0xFF);
 246:main.c        ****     CyDelayUs(10);
 247:main.c        ****     UART_1_PutChar(0xFF);
 248:main.c        ****     CyDelayUs(10);
 249:main.c        **** }
 250:main.c        **** 
 251:main.c        **** void escribeDisplay2(char Buffer[30]){
 252:main.c        ****     UART_2_PutString(Buffer);
 253:main.c        ****     CyDelayUs(10);
 254:main.c        ****     UART_2_PutChar(0xFF);
 255:main.c        ****     CyDelayUs(10);
 256:main.c        ****     UART_2_PutChar(0xFF);
 257:main.c        ****     CyDelayUs(10);
 258:main.c        ****     UART_2_PutChar(0xFF);
 259:main.c        ****     CyDelayUs(10);
 260:main.c        **** }
 261:main.c        **** 
 262:main.c        **** void dibujaGrafico(){
 263:main.c        ****              
 264:main.c        ****                 //Segmento 1
 265:main.c        ****                 pendiente=(float)(Programas[Programa-1].rampas[0].Temperatura-Temperatura)/ANCHO;
 266:main.c        ****                 b=Temperatura;
 267:main.c        ****                 
 268:main.c        ****                 for(n=0;n<ANCHO;n++){
 269:main.c        ****                     valor=(pendiente*n)+b;
 270:main.c        ****                     sprintf(displayStr,"add 1,0,%u",(uint8)(valor*DIVISION));
 271:main.c        ****                     escribeDisplay1(displayStr);  
 272:main.c        ****                     CyDelayUs(1);
 273:main.c        ****                 }  
 274:main.c        ****                                         
 275:main.c        ****                 //Segmento 2
 276:main.c        ****                 if(Programas[Programa-1].rampas[1].Horas!=0 || Programas[Programa-1].rampas[1].Minu
 277:main.c        ****                     pendiente=(float)(Programas[Programa-1].rampas[1].Temperatura-Programas[Program
 278:main.c        ****                     b=Programas[Programa-1].rampas[0].Temperatura;
 279:main.c        ****                 }else{
ARM GAS  C:\Users\JPELEC~1\AppData\Local\Temp\ccEetrge.s 			page 7


 280:main.c        ****                     pendiente=0;
 281:main.c        ****                     b=0;
 282:main.c        ****                 }
 283:main.c        ****                 for(n=0;n<ANCHO;n++){
 284:main.c        ****                     valor=(pendiente*n)+b;
 285:main.c        ****                     sprintf(displayStr,"add 1,0,%u",(uint8)(valor*DIVISION));
 286:main.c        ****                     escribeDisplay1(displayStr);  
 287:main.c        ****                     CyDelayUs(1);
 288:main.c        ****                 }
 289:main.c        **** 
 290:main.c        ****                 //Segmento 3
 291:main.c        ****                 if(Programas[Programa-1].rampas[2].Horas!=0 || Programas[Programa-1].rampas[2].Minu
 292:main.c        ****                     pendiente=(float)(Programas[Programa-1].rampas[2].Temperatura-Programas[Program
 293:main.c        ****                     b=Programas[Programa-1].rampas[1].Temperatura;
 294:main.c        ****                 }else{
 295:main.c        ****                     pendiente=0;
 296:main.c        ****                     b=0;
 297:main.c        ****                 }  
 298:main.c        ****                   
 299:main.c        ****                 for(n=0;n<ANCHO;n++){
 300:main.c        ****                     valor=(pendiente*n)+b;
 301:main.c        ****                     sprintf(displayStr,"add 1,0,%u",(uint8)(valor*DIVISION));
 302:main.c        ****                     escribeDisplay1(displayStr);  
 303:main.c        ****                     CyDelayUs(1);
 304:main.c        ****                 }
 305:main.c        ****             
 306:main.c        ****                 //Segmento 4
 307:main.c        ****                 if(Programas[Programa-1].rampas[3].Horas!=0 || Programas[Programa-1].rampas[3].Minu
 308:main.c        ****                     pendiente=(float)(Programas[Programa-1].rampas[3].Temperatura-Programas[Program
 309:main.c        ****                     b=Programas[Programa-1].rampas[2].Temperatura;
 310:main.c        ****                 }else{
 311:main.c        ****                     pendiente=0;
 312:main.c        ****                     b=0;
 313:main.c        ****                 } 
 314:main.c        ****                     
 315:main.c        ****                 for(n=0;n<ANCHO;n++){
 316:main.c        ****                     valor=(pendiente*n)+b;
 317:main.c        ****                     sprintf(displayStr,"add 1,0,%u",(uint8)(valor*DIVISION));
 318:main.c        ****                     escribeDisplay1(displayStr);  
 319:main.c        ****                     CyDelayUs(1);
 320:main.c        ****                 }
 321:main.c        ****              
 322:main.c        ****             
 323:main.c        ****                 //Segmento 5
 324:main.c        ****                 if(Programas[Programa-1].rampas[4].Horas!=0 || Programas[Programa-1].rampas[4].Minu
 325:main.c        ****                     pendiente=(float)(Programas[Programa-1].rampas[4].Temperatura-Programas[Program
 326:main.c        ****                     b=Programas[Programa-1].rampas[3].Temperatura;
 327:main.c        ****                 }else{
 328:main.c        ****                     pendiente=0;
 329:main.c        ****                     b=0;
 330:main.c        ****                 }   
 331:main.c        ****                    
 332:main.c        ****                 for(n=0;n<ANCHO;n++){
 333:main.c        ****                     valor=(pendiente*n)+b;
 334:main.c        ****                     sprintf(displayStr,"add 1,0,%u",(uint8)(valor*DIVISION));
 335:main.c        ****                     escribeDisplay1(displayStr);  
 336:main.c        ****                     CyDelayUs(1);
ARM GAS  C:\Users\JPELEC~1\AppData\Local\Temp\ccEetrge.s 			page 8


 337:main.c        ****                 }
 338:main.c        ****              
 339:main.c        ****              
 340:main.c        ****             
 341:main.c        ****                 //Segmento 6
 342:main.c        ****                 if(Programas[Programa-1].rampas[5].Horas!=0 || Programas[Programa-1].rampas[5].Minu
 343:main.c        ****                     pendiente=(float)(Programas[Programa-1].rampas[5].Temperatura-Programas[Program
 344:main.c        ****                     b=Programas[Programa-1].rampas[4].Temperatura;
 345:main.c        ****                 }else{
 346:main.c        ****                     pendiente=0;
 347:main.c        ****                     b=0;
 348:main.c        ****                 }  
 349:main.c        ****                 for(n=0;n<ANCHO;n++){
 350:main.c        ****                     valor=(pendiente*n)+b;
 351:main.c        ****                     sprintf(displayStr,"add 1,0,%u",(uint8)(valor*DIVISION));
 352:main.c        ****                     escribeDisplay1(displayStr);  
 353:main.c        ****                     CyDelayUs(1);
 354:main.c        ****                 }
 355:main.c        ****             
 356:main.c        ****                 //Segmento 7
 357:main.c        ****                 if(Programas[Programa-1].rampas[6].Horas!=0 || Programas[Programa-1].rampas[6].Minu
 358:main.c        ****                     pendiente=(float)(Programas[Programa-1].rampas[6].Temperatura-Programas[Program
 359:main.c        ****                     b=Programas[Programa-1].rampas[5].Temperatura;
 360:main.c        ****                 }else{
 361:main.c        ****                     pendiente=0;
 362:main.c        ****                     b=0;
 363:main.c        ****                 }   
 364:main.c        ****                 for(n=0;n<ANCHO;n++){
 365:main.c        ****                     valor=(pendiente*n)+b;
 366:main.c        ****                     sprintf(displayStr,"add 1,0,%u",(uint8)(valor*DIVISION));
 367:main.c        ****                     escribeDisplay1(displayStr);  
 368:main.c        ****                     CyDelayUs(1);
 369:main.c        ****                 }
 370:main.c        ****             
 371:main.c        ****                 //Segmento 8
 372:main.c        ****                 if(Programas[Programa-1].rampas[7].Horas!=0 || Programas[Programa-1].rampas[7].Minu
 373:main.c        ****                     pendiente=(float)(Programas[Programa-1].rampas[7].Temperatura-Programas[Program
 374:main.c        ****                     b=Programas[Programa-1].rampas[6].Temperatura;
 375:main.c        ****                 }else{
 376:main.c        ****                     pendiente=0;
 377:main.c        ****                     b=0;
 378:main.c        ****                 }    
 379:main.c        ****                 for(n=0;n<ANCHO;n++){
 380:main.c        ****                     valor=(pendiente*n)+b;
 381:main.c        ****                     sprintf(displayStr,"add 1,0,%u",(uint8)(valor*DIVISION));
 382:main.c        ****                     escribeDisplay1(displayStr);  
 383:main.c        ****                     CyDelayUs(1);
 384:main.c        ****                 }
 385:main.c        ****             
 386:main.c        ****                 //Segmento 9
 387:main.c        ****                 if(Programas[Programa-1].rampas[8].Horas!=0 || Programas[Programa-1].rampas[8].Minu
 388:main.c        ****                     pendiente=(float)(Programas[Programa-1].rampas[8].Temperatura-Programas[Program
 389:main.c        ****                     b=Programas[Programa-1].rampas[7].Temperatura;
 390:main.c        ****                 }else{
 391:main.c        ****                     pendiente=0;
 392:main.c        ****                     b=0;
 393:main.c        ****                 }   
ARM GAS  C:\Users\JPELEC~1\AppData\Local\Temp\ccEetrge.s 			page 9


 394:main.c        ****                 for(n=0;n<ANCHO;n++){
 395:main.c        ****                     valor=(pendiente*n)+b;
 396:main.c        ****                     sprintf(displayStr,"add 1,0,%u",(uint8)(valor*DIVISION));
 397:main.c        ****                     escribeDisplay1(displayStr);  
 398:main.c        ****                     CyDelayUs(1);
 399:main.c        ****                 }
 400:main.c        ****             
 401:main.c        ****                 //Segmento 10
 402:main.c        ****                 if(Programas[Programa-1].rampas[9].Horas!=0 || Programas[Programa-1].rampas[9].Minu
 403:main.c        ****                     pendiente=(float)(Programas[Programa-1].rampas[9].Temperatura-Programas[Program
 404:main.c        ****                     b=Programas[Programa-1].rampas[8].Temperatura;
 405:main.c        ****                 }else{
 406:main.c        ****                     pendiente=0;
 407:main.c        ****                     b=0;
 408:main.c        ****                 }
 409:main.c        ****                 
 410:main.c        ****                 for(n=0;n<ANCHO;n++){
 411:main.c        ****                     valor=(pendiente*n)+b;
 412:main.c        ****                     sprintf(displayStr,"add 1,0,%u",(uint8)(valor*DIVISION));
 413:main.c        ****                     escribeDisplay1(displayStr);  
 414:main.c        ****                     CyDelayUs(1);
 415:main.c        ****                 }                
 416:main.c        **** }
 417:main.c        **** 
 418:main.c        **** void LeeDisplay(void){    
 419:main.c        ****     if(Dato_Exitoso==5){
 420:main.c        ****          Rx_Buffer[0]=Rx_Buffer2[0];
 421:main.c        ****          Rx_Buffer[1]=Rx_Buffer2[1];
 422:main.c        ****          Rx_Buffer[2]=Rx_Buffer2[2];
 423:main.c        ****          Rx_Buffer[3]=Rx_Buffer2[3];
 424:main.c        ****          Rx_Buffer[4]=Rx_Buffer2[4];
 425:main.c        ****          Rx_Buffer[5]=Rx_Buffer2[5];
 426:main.c        ****          Rx_Buffer[6]=Rx_Buffer2[6];
 427:main.c        ****          Rx_Buffer[7]=Rx_Buffer2[7];
 428:main.c        ****          Rx_Buffer[8]=Rx_Buffer2[8];
 429:main.c        ****          Rx_Buffer[9]=Rx_Buffer2[9];
 430:main.c        ****          
 431:main.c        ****       if(Rx_Buffer[3]==0x01){// Pregunta por la pagina en la que esta el display,01 es Contraseña 
 432:main.c        ****          Menu=0;
 433:main.c        ****          if(MenuAntt!=Menu)
 434:main.c        ****             MenuAntt=Menu;
 435:main.c        ****       }else if(Rx_Buffer[3]==0x02){//02 es Menu Principal con PantallaPriincipal=0, y con PantallaP
 436:main.c        ****          Menu=1;
 437:main.c        ****          if(MenuAntt!=Menu)
 438:main.c        ****             MenuAntt=Menu;
 439:main.c        ****       }else if(Rx_Buffer[3]==0x04){//03 es Tiempo Esterilizacion
 440:main.c        ****          Menu=2;
 441:main.c        ****          if(MenuAntt!=Menu)
 442:main.c        ****             MenuAntt=Menu;
 443:main.c        ****       }else if(Rx_Buffer[3]==0x05){//05 es Temperatura
 444:main.c        ****          Menu=3;
 445:main.c        ****          if(MenuAntt!=Menu)
 446:main.c        ****             MenuAntt=Menu;
 447:main.c        ****       }else if(Rx_Buffer[3]==0x06){//06 es Nivel
 448:main.c        ****          Menu=5;
 449:main.c        ****          if(MenuAntt!=Menu)
 450:main.c        ****             MenuAntt=Menu;
ARM GAS  C:\Users\JPELEC~1\AppData\Local\Temp\ccEetrge.s 			page 10


 451:main.c        ****       }else if(Rx_Buffer[3]==0x07){//07 es Test de Componentes
 452:main.c        ****          Menu=6;
 453:main.c        ****          if(MenuAntt!=Menu)
 454:main.c        ****             MenuAntt=Menu;
 455:main.c        ****       }else if(Rx_Buffer[3]==0x08){//08 es Fecha y hora
 456:main.c        ****          Menu=7;
 457:main.c        ****          if(MenuAntt!=Menu)
 458:main.c        ****             MenuAntt=Menu;
 459:main.c        ****       }else if(Rx_Buffer[3]==0x09){//09 es Rampas
 460:main.c        ****          Menu=8;
 461:main.c        ****          if(MenuAntt!=Menu)
 462:main.c        ****             MenuAntt=Menu;
 463:main.c        ****       }else if(Rx_Buffer[3]==0x0a){//0a es Pulsos de Vacio
 464:main.c        ****          Menu=9;
 465:main.c        ****          if(MenuAntt!=Menu)
 466:main.c        ****             MenuAntt=Menu;
 467:main.c        ****       }else if(Rx_Buffer[3]==0x0f){//0f es Recibe caracteres de contraseña desde display
 468:main.c        ****          
 469:main.c        ****       }else if(Rx_Buffer[3]==0x1a){//1a es Menu de Funcionamiento
 470:main.c        ****          Menu=20;
 471:main.c        ****          if(MenuAntt!=Menu)
 472:main.c        ****             MenuAntt=Menu;
 473:main.c        ****       }else if(Rx_Buffer[3]==0x1b){//1b es Menu de clave correcta
 474:main.c        ****          Menu=15;
 475:main.c        ****          if(MenuAntt!=Menu)
 476:main.c        ****             MenuAntt=Menu;
 477:main.c        ****       }else if(Rx_Buffer[3]==0x1c){//1c es Menu de clave incorrecta
 478:main.c        ****          Menu=16;
 479:main.c        ****          if(MenuAntt!=Menu)
 480:main.c        ****             MenuAntt=Menu;
 481:main.c        ****       }else if(Rx_Buffer[3]==0x1d){//1d es Menu de Eliminado Programa
 482:main.c        ****          Menu=17;
 483:main.c        ****          if(MenuAntt!=Menu)
 484:main.c        ****             MenuAntt=Menu;
 485:main.c        ****       }else if(Rx_Buffer[3]==0x1e){//1d es Menu de Pregunta
 486:main.c        ****          Menu=18;
 487:main.c        ****          if(MenuAntt!=Menu)
 488:main.c        ****             MenuAntt=Menu;
 489:main.c        ****       }else if(Rx_Buffer[3]==0x2c){//2c es Menu de Configuracion de Parametros
 490:main.c        ****          Menu=100;
 491:main.c        ****          if(MenuAntt!=Menu)
 492:main.c        ****             MenuAntt=Menu;
 493:main.c        ****       }else if(Rx_Buffer[3]==0xcc){//cc es Menu de Bienvenida
 494:main.c        ****          Menu=120;
 495:main.c        ****          //if(MenuAntt!=120)
 496:main.c        ****             //reset_cpu();
 497:main.c        ****       }
 498:main.c        ****    }else{
 499:main.c        ****       for(z=0;z<RX_BUFFER_SIZE;z++){
 500:main.c        ****             //Rx_Buffer[z]=0;
 501:main.c        ****             //Rx_Buffer2[z]=0;
 502:main.c        ****          }
 503:main.c        ****    }
 504:main.c        **** 
 505:main.c        ****        if(Dato_Exitoso2==5){
 506:main.c        ****          Rx_Buffer3[0]=Rx_Buffer4[0];
 507:main.c        ****          Rx_Buffer3[1]=Rx_Buffer4[1];
ARM GAS  C:\Users\JPELEC~1\AppData\Local\Temp\ccEetrge.s 			page 11


 508:main.c        ****          Rx_Buffer3[2]=Rx_Buffer4[2];
 509:main.c        ****          Rx_Buffer3[3]=Rx_Buffer4[3];
 510:main.c        ****          Rx_Buffer3[4]=Rx_Buffer4[4];
 511:main.c        ****          Rx_Buffer3[5]=Rx_Buffer4[5];
 512:main.c        ****          Rx_Buffer3[6]=Rx_Buffer4[6];
 513:main.c        ****          Rx_Buffer3[7]=Rx_Buffer4[7];
 514:main.c        ****          Rx_Buffer3[8]=Rx_Buffer4[8];
 515:main.c        ****          Rx_Buffer3[9]=Rx_Buffer4[9];
 516:main.c        ****          
 517:main.c        ****       if(Rx_Buffer3[3]==0x01){// Pregunta por la pagina en la que esta el display,01 es Contraseña
 518:main.c        ****          Menu2=0;
 519:main.c        ****          if(MenuAntt2!=Menu2)
 520:main.c        ****             MenuAntt2=Menu2;
 521:main.c        ****       }else if(Rx_Buffer3[3]==0x02){//02 es Menu Principal con PantallaPriincipal=0, y con Pantalla
 522:main.c        ****          Menu2=1;
 523:main.c        ****          if(MenuAntt2!=Menu2)
 524:main.c        ****             MenuAntt2=Menu2;
 525:main.c        ****       }else if(Rx_Buffer3[3]==0x04){//03 es Tiempo Esterilizacion
 526:main.c        ****          Menu2=2;
 527:main.c        ****          if(MenuAntt2!=Menu2)
 528:main.c        ****             MenuAntt2=Menu2;
 529:main.c        ****       }else if(Rx_Buffer3[3]==0x05){//05 es Temperatura
 530:main.c        ****          Menu2=3;
 531:main.c        ****          if(MenuAntt2!=Menu2)
 532:main.c        ****             MenuAntt2=Menu2;
 533:main.c        ****       }else if(Rx_Buffer3[3]==0x06){//06 es Nivel
 534:main.c        ****          Menu2=5;
 535:main.c        ****          if(MenuAntt2!=Menu2)
 536:main.c        ****             MenuAntt2=Menu2;
 537:main.c        ****       }else if(Rx_Buffer3[3]==0x07){//07 es Test de Componentes
 538:main.c        ****          Menu2=6;
 539:main.c        ****          if(MenuAntt2!=Menu2)
 540:main.c        ****             MenuAntt2=Menu2;
 541:main.c        ****       }else if(Rx_Buffer3[3]==0x08){//08 es Fecha y hora
 542:main.c        ****          Menu2=7;
 543:main.c        ****          if(MenuAntt2!=Menu2)
 544:main.c        ****             MenuAntt2=Menu2;
 545:main.c        ****       }else if(Rx_Buffer3[3]==0x09){//09 es Rampas
 546:main.c        ****          Menu2=8;
 547:main.c        ****          if(MenuAntt2!=Menu2)
 548:main.c        ****             MenuAntt2=Menu2;
 549:main.c        ****       }else if(Rx_Buffer3[3]==0x0a){//0a es Grafica
 550:main.c        ****          Menu2=9;
 551:main.c        ****          if(MenuAntt2!=Menu2)
 552:main.c        ****             MenuAntt2=Menu2;
 553:main.c        ****       }else if(Rx_Buffer3[3]==0x0f){//0f es Recibe caracteres de contraseña desde display
 554:main.c        ****          
 555:main.c        ****       }else if(Rx_Buffer3[3]==0x1a){//1a es Menu de Funcionamiento
 556:main.c        ****          Menu2=20;
 557:main.c        ****          if(MenuAntt2!=Menu2)
 558:main.c        ****             MenuAntt2=Menu2;
 559:main.c        ****       }else if(Rx_Buffer3[3]==0x1b){//1b es Menu de clave correcta
 560:main.c        ****          Menu2=15;
 561:main.c        ****          if(MenuAntt2!=Menu2)
 562:main.c        ****             MenuAntt2=Menu2;
 563:main.c        ****       }else if(Rx_Buffer3[3]==0x1c){//1c es Menu de clave incorrecta
 564:main.c        ****          Menu2=16;
ARM GAS  C:\Users\JPELEC~1\AppData\Local\Temp\ccEetrge.s 			page 12


 565:main.c        ****          if(MenuAntt2!=Menu2)
 566:main.c        ****             MenuAntt2=Menu2;
 567:main.c        ****       }else if(Rx_Buffer3[3]==0x2c){//2c es Menu de Configuracion de Parametros
 568:main.c        ****          Menu2=100;
 569:main.c        ****          if(MenuAntt2!=Menu2)
 570:main.c        ****             MenuAntt2=Menu2;
 571:main.c        ****       }else if(Rx_Buffer3[3]==0xcc){//cc es Menu de Bienvenida
 572:main.c        ****          Menu2=120;
 573:main.c        ****          //if(MenuAntt!=120)
 574:main.c        ****             //reset_cpu();
 575:main.c        ****       }
 576:main.c        ****    }else{
 577:main.c        ****          for(z=0;z<RX_BUFFER_SIZE;z++){
 578:main.c        ****             //Rx_Buffer[z]=0;
 579:main.c        ****             //Rx_Buffer2[z]=0;
 580:main.c        ****          }
 581:main.c        ****    }
 582:main.c        **** }
 583:main.c        **** 
 584:main.c        **** void controlaRampa(){
 585:main.c        ****       if(Temperatura>=Setpoint-10.0 && Temperatura<=Setpoint+40){
 586:main.c        ****          if(Pendiente!=0){
 587:main.c        ****             escribeDisplay2("t1.txt=\"Controlando\"");
 588:main.c        ****             flagTemperatura=ON;            
 589:main.c        ****          }
 590:main.c        ****          
 591:main.c        ****          if(Pendiente==0){
 592:main.c        ****             escribeDisplay2("t1.txt=\"Meseta\"");
 593:main.c        ****             flagTemperatura=ON;
 594:main.c        ****          }
 595:main.c        ****          Controla();
 596:main.c        ****          flag_tiempocalentamiento=0;
 597:main.c        ****       }else{
 598:main.c        ****          if(Pendiente!=0){
 599:main.c        ****             if(Pendiente>0)
 600:main.c        ****                 escribeDisplay2("t1.txt=\"Rampa +\"");
 601:main.c        ****             if(Pendiente<0)
 602:main.c        ****                 escribeDisplay2("t1.txt=\"Rampa -\"");    
 603:main.c        ****             flagTemperatura=ON;            
 604:main.c        ****          }
 605:main.c        ****          if(Pendiente==0){
 606:main.c        ****             escribeDisplay2("t1.txt=\"Calentando\"");
 607:main.c        ****             flagTemperatura=OFF;            
 608:main.c        ****          }
 609:main.c        ****          Controla();
 610:main.c        ****       }
 611:main.c        **** }
 612:main.c        **** 
 613:main.c        **** float leeTermocupla(uint8 media){
 614:main.c        ****     Prom=0.0;
 615:main.c        ****     /* Measure cold junction temperature */
 616:main.c        **** 	coldJnTemp = MeasureColdJnSensorTemp();
 617:main.c        **** 	/* Convert cold junction temp to cold junction compensation voltage */
 618:main.c        **** 	tcColdJnuVolt = Thermocouple_1_GetVoltage(coldJnTemp);
 619:main.c        **** 	/* Read thermocouple hot junction voltage */
 620:main.c        **** 	//ADCMux_FastSelect(TC_HOT_JN_CHANNEL);
 621:main.c        **** 	ADC_SelectConfiguration(ADC_TC_Config,1);
ARM GAS  C:\Users\JPELEC~1\AppData\Local\Temp\ccEetrge.s 			page 13


 622:main.c        **** 	ADC_StartConvert();
 623:main.c        ****     /*Note in this example a blocking call is used, this can be replaced
 624:main.c        ****     with a polling method is required in your application*/
 625:main.c        **** 	ADC_IsEndConversion(ADC_WAIT_FOR_RESULT); 
 626:main.c        **** 	ADC_StopConvert();
 627:main.c        **** 	hotJnCount = ADC_GetResult32();
 628:main.c        **** 	/* Read ground reference voltage */
 629:main.c        **** 	offset = 0;//MeasureOffset();
 630:main.c        **** 	/* Correlated double sampling to remove ADC offset */
 631:main.c        **** 	hotJnCount -= offset;
 632:main.c        **** 	/* Filter signal */
 633:main.c        **** 	filHotJnCount = FilterSignal(hotJnCount);
 634:main.c        **** 	/* Find thermo-emf in microvolts */
 635:main.c        **** 	tcHotJnuVolt = ADC_CountsTo_uVolts(filHotJnCount);
 636:main.c        **** 	/* Perform Cold junction compensation */
 637:main.c        **** 	tcuVolt = tcColdJnuVolt + tcHotJnuVolt;
 638:main.c        **** 	/* Convert thermo-emf to temperature */
 639:main.c        **** 	tcTemp = Thermocouple_1_GetTemperature(tcuVolt);
 640:main.c        ****     V0=(float)(tcTemp/100)+(float)(tcTemp-((tcTemp/100)*100))/100;
 641:main.c        ****             
 642:main.c        ****     if(l>(media-1))
 643:main.c        ****         l=0;
 644:main.c        ****    //promedio[l]=Temperature;l++;
 645:main.c        ****     promedio[l]=V0;l++;
 646:main.c        ****          
 647:main.c        ****     for(h=0;h<media;h++){
 648:main.c        ****         Prom+=promedio[h];
 649:main.c        ****     } 
 650:main.c        ****     Prom=Prom/media;   
 651:main.c        ****    
 652:main.c        ****     Prom+=((float)Ajuste-(float)Ajusten);
 653:main.c        ****    
 654:main.c        ****     return Prom;
 655:main.c        ****     //return Temperature;
 656:main.c        **** }
 657:main.c        **** 
 658:main.c        **** CY_ISR(Reloj2){ 
 659:main.c        ****     //CapSense_DisplayState();
 660:main.c        ****     tiempos++;
 661:main.c        ****     tiempos3++;
 662:main.c        ****     tiempoctrl++;
 663:main.c        ****     
 664:main.c        ****     if(Control==1 && tcHotJnuVolt > BROKEN_TC_THRESHOLD){
 665:main.c        ****         if(tiempoctrl>=Tc) // Si el tiempo de control es mayor al tiempo de ciclo se reinicia tiemp
 666:main.c        ****             tiempoctrl=0;
 667:main.c        ****         // tiempoctrl incrementa una unidad cada 5ms, por eso se dividen los tiempos por 0.005.
 668:main.c        ****       
 669:main.c        ****         if(tiempoctrl<=Tp) // Si el tiempo es menor o igual al tiempo de control se enciende la res
 670:main.c        ****             SSR_Write(1);
 671:main.c        ****         else         
 672:main.c        ****             SSR_Write(0);
 673:main.c        ****     }else{
 674:main.c        ****         if(!Test)
 675:main.c        ****             SSR_Write(0);
 676:main.c        ****     }
 677:main.c        ****    
 678:main.c        ****     if(tiempos3>=200){
ARM GAS  C:\Users\JPELEC~1\AppData\Local\Temp\ccEetrge.s 			page 14


 679:main.c        ****         Lectura2=1;
 680:main.c        ****         if(flagup)
 681:main.c        ****             tiempoup++;
 682:main.c        ****         if(flagdn)
 683:main.c        ****             tiempodn++;   
 684:main.c        ****         tiempos3=0;
 685:main.c        ****     }
 686:main.c        ****     
 687:main.c        ****     if(tiempos>=500){  // Cuenta cada 2ms        
 688:main.c        ****         tiempos=0;Lectura=1;tiemporeset++;TiempoControl++;tiemporecta++;mensaje=!mensaje;
 689:main.c        ****    
 690:main.c        ****         if(conteoPregunta)tPregunta++;
 691:main.c        ****         
 692:main.c        ****         if(flag_setpoint==1)
 693:main.c        ****             tiemposetpoint++;
 694:main.c        ****       
 695:main.c        ****         if(tiempo_esterilizacion==1 || tiempo_esterilizacion==2){               
 696:main.c        ****             tinicio++;
 697:main.c        ****             tGrafica++;
 698:main.c        ****         }
 699:main.c        ****              
 700:main.c        ****         if(flag_tiempocalentamiento==1)
 701:main.c        ****             tiempocalentamiento++;
 702:main.c        ****     }     
 703:main.c        **** }
 704:main.c        **** 
 705:main.c        **** CY_ISR(inteRX){
 706:main.c        ****     Dato2=UART_2_GetByte();
 707:main.c        ****    if(Dato2==0x65){//Inicio Comunicacion
 708:main.c        ****       Inicio=1;
 709:main.c        ****       RX_Wr_Index =0;
 710:main.c        ****    }
 711:main.c        ****    if(Inicio==1){
 712:main.c        ****       Rx_Buffer2[RX_Wr_Index] = Dato2;
 713:main.c        ****       RX_Wr_Index++;
 714:main.c        ****    }
 715:main.c        ****    if(RX_Wr_Index >= RX_BUFFER_SIZE){
 716:main.c        ****       RX_Wr_Index =0;
 717:main.c        ****       Inicio=0;
 718:main.c        ****    }
 719:main.c        ****    if(RX_Wr_Index==0){
 720:main.c        ****       if(Rx_Buffer2[0]==0x65 && Rx_Buffer2[1]==0xff && Rx_Buffer2[2]==0xff && Rx_Buffer2[8]==0x00 &
 721:main.c        ****          Dato_Exitoso=5;
 722:main.c        ****       else
 723:main.c        ****          Dato_Exitoso=10;
 724:main.c        ****    }
 725:main.c        ****    //if(Menu==20)
 726:main.c        **** //     Buzzer_on;
 727:main.c        **** }
 728:main.c        **** 
 729:main.c        **** CY_ISR(inteRX1){
 730:main.c        ****     Dato3=UART_1_GetByte();
 731:main.c        ****    if(Dato3==0x65){//Inicio Comunicacion
 732:main.c        ****       Inicio2=1;
 733:main.c        ****       RX_Wr_Index2 =0;
 734:main.c        ****    }
 735:main.c        ****    if(Inicio2==1){
ARM GAS  C:\Users\JPELEC~1\AppData\Local\Temp\ccEetrge.s 			page 15


 736:main.c        ****       Rx_Buffer4[RX_Wr_Index2] = Dato3;
 737:main.c        ****       RX_Wr_Index2++;
 738:main.c        ****    }
 739:main.c        ****    if(RX_Wr_Index2 >= RX_BUFFER_SIZE){
 740:main.c        ****       RX_Wr_Index2 =0;
 741:main.c        ****       Inicio2=0;
 742:main.c        ****    }
 743:main.c        ****    if(RX_Wr_Index2==0){
 744:main.c        ****       if(Rx_Buffer4[0]==0x65 && Rx_Buffer4[1]==0xff && Rx_Buffer4[2]==0xff && Rx_Buffer4[8]==0x00 &
 745:main.c        ****          Dato_Exitoso2=5;
 746:main.c        ****       else
 747:main.c        ****          Dato_Exitoso2=10;
 748:main.c        ****    }
 749:main.c        **** }
 750:main.c        **** 
 751:main.c        **** CY_ISR(lee){
  64              		.loc 1 751 0
  65              		.cfi_startproc
  66              		@ args = 0, pretend = 0, frame = 0
  67              		@ frame_needed = 0, uses_anonymous_args = 0
  68              		@ link register save eliminated.
  69 0000 7047     		bx	lr
  70              		.cfi_endproc
  71              	.LFE78:
  72              		.size	lee, .-lee
  73 0002 00BF     		.section	.text.Reloj2,"ax",%progbits
  74              		.align	2
  75              		.global	Reloj2
  76              		.thumb
  77              		.thumb_func
  78              		.type	Reloj2, %function
  79              	Reloj2:
  80              	.LFB75:
 658:main.c        ****     //CapSense_DisplayState();
  81              		.loc 1 658 0
  82              		.cfi_startproc
  83              		@ args = 0, pretend = 0, frame = 0
  84              		@ frame_needed = 0, uses_anonymous_args = 0
 658:main.c        ****     //CapSense_DisplayState();
  85              		.loc 1 658 0
  86 0000 08B5     		push	{r3, lr}
  87              		.cfi_def_cfa_offset 8
  88              		.cfi_offset 3, -8
  89              		.cfi_offset 14, -4
 660:main.c        ****     tiempos3++;
  90              		.loc 1 660 0
  91 0002 4A4A     		ldr	r2, .L18
  92 0004 1388     		ldrh	r3, [r2]
  93 0006 0133     		adds	r3, r3, #1
  94 0008 1380     		strh	r3, [r2]	@ movhi
 661:main.c        ****     tiempoctrl++;
  95              		.loc 1 661 0
  96 000a 494A     		ldr	r2, .L18+4
  97 000c 1388     		ldrh	r3, [r2]
  98 000e 0133     		adds	r3, r3, #1
  99 0010 1380     		strh	r3, [r2]	@ movhi
 662:main.c        ****     
ARM GAS  C:\Users\JPELEC~1\AppData\Local\Temp\ccEetrge.s 			page 16


 100              		.loc 1 662 0
 101 0012 484A     		ldr	r2, .L18+8
 102 0014 1388     		ldrh	r3, [r2]
 103 0016 0133     		adds	r3, r3, #1
 104 0018 9BB2     		uxth	r3, r3
 105 001a 1380     		strh	r3, [r2]	@ movhi
 664:main.c        ****         if(tiempoctrl>=Tc) // Si el tiempo de control es mayor al tiempo de ciclo se reinicia tiemp
 106              		.loc 1 664 0
 107 001c 464A     		ldr	r2, .L18+12
 108 001e B2F90020 		ldrsh	r2, [r2]
 109 0022 012A     		cmp	r2, #1
 110 0024 19D1     		bne	.L6
 664:main.c        ****         if(tiempoctrl>=Tc) // Si el tiempo de control es mayor al tiempo de ciclo se reinicia tiemp
 111              		.loc 1 664 0 is_stmt 0 discriminator 1
 112 0026 454A     		ldr	r2, .L18+16
 113 0028 1168     		ldr	r1, [r2]
 114 002a 454A     		ldr	r2, .L18+20
 115 002c 9142     		cmp	r1, r2
 116 002e 14DB     		blt	.L6
 665:main.c        ****             tiempoctrl=0;
 117              		.loc 1 665 0 is_stmt 1
 118 0030 444A     		ldr	r2, .L18+24
 119 0032 1288     		ldrh	r2, [r2]
 120 0034 9342     		cmp	r3, r2
 121 0036 02D3     		bcc	.L7
 666:main.c        ****         // tiempoctrl incrementa una unidad cada 5ms, por eso se dividen los tiempos por 0.005.
 122              		.loc 1 666 0
 123 0038 0022     		movs	r2, #0
 124 003a 3E4B     		ldr	r3, .L18+8
 125 003c 1A80     		strh	r2, [r3]	@ movhi
 126              	.L7:
 669:main.c        ****             SSR_Write(1);
 127              		.loc 1 669 0
 128 003e 3D4B     		ldr	r3, .L18+8
 129 0040 1A88     		ldrh	r2, [r3]
 130 0042 414B     		ldr	r3, .L18+28
 131 0044 1B88     		ldrh	r3, [r3]
 132 0046 9A42     		cmp	r2, r3
 133 0048 03D8     		bhi	.L8
 670:main.c        ****         else         
 134              		.loc 1 670 0
 135 004a 0120     		movs	r0, #1
 136 004c FFF7FEFF 		bl	SSR_Write
 137              	.LVL0:
 138 0050 0AE0     		b	.L9
 139              	.L8:
 672:main.c        ****     }else{
 140              		.loc 1 672 0
 141 0052 0020     		movs	r0, #0
 142 0054 FFF7FEFF 		bl	SSR_Write
 143              	.LVL1:
 144 0058 06E0     		b	.L9
 145              	.L6:
 674:main.c        ****             SSR_Write(0);
 146              		.loc 1 674 0
 147 005a 3C4B     		ldr	r3, .L18+32
 148 005c B3F90030 		ldrsh	r3, [r3]
ARM GAS  C:\Users\JPELEC~1\AppData\Local\Temp\ccEetrge.s 			page 17


 149 0060 13B9     		cbnz	r3, .L9
 675:main.c        ****     }
 150              		.loc 1 675 0
 151 0062 0020     		movs	r0, #0
 152 0064 FFF7FEFF 		bl	SSR_Write
 153              	.LVL2:
 154              	.L9:
 678:main.c        ****         Lectura2=1;
 155              		.loc 1 678 0
 156 0068 314B     		ldr	r3, .L18+4
 157 006a 1B88     		ldrh	r3, [r3]
 158 006c C72B     		cmp	r3, #199
 159 006e 15D9     		bls	.L10
 679:main.c        ****         if(flagup)
 160              		.loc 1 679 0
 161 0070 0122     		movs	r2, #1
 162 0072 374B     		ldr	r3, .L18+36
 163 0074 1A80     		strh	r2, [r3]	@ movhi
 680:main.c        ****             tiempoup++;
 164              		.loc 1 680 0
 165 0076 374B     		ldr	r3, .L18+40
 166 0078 B3F90030 		ldrsh	r3, [r3]
 167 007c 1BB1     		cbz	r3, .L11
 681:main.c        ****         if(flagdn)
 168              		.loc 1 681 0
 169 007e 364A     		ldr	r2, .L18+44
 170 0080 1388     		ldrh	r3, [r2]
 171 0082 0133     		adds	r3, r3, #1
 172 0084 1380     		strh	r3, [r2]	@ movhi
 173              	.L11:
 682:main.c        ****             tiempodn++;   
 174              		.loc 1 682 0
 175 0086 354B     		ldr	r3, .L18+48
 176 0088 B3F90030 		ldrsh	r3, [r3]
 177 008c 1BB1     		cbz	r3, .L12
 683:main.c        ****         tiempos3=0;
 178              		.loc 1 683 0
 179 008e 344A     		ldr	r2, .L18+52
 180 0090 1388     		ldrh	r3, [r2]
 181 0092 0133     		adds	r3, r3, #1
 182 0094 1380     		strh	r3, [r2]	@ movhi
 183              	.L12:
 684:main.c        ****     }
 184              		.loc 1 684 0
 185 0096 0022     		movs	r2, #0
 186 0098 254B     		ldr	r3, .L18+4
 187 009a 1A80     		strh	r2, [r3]	@ movhi
 188              	.L10:
 687:main.c        ****         tiempos=0;Lectura=1;tiemporeset++;TiempoControl++;tiemporecta++;mensaje=!mensaje;
 189              		.loc 1 687 0
 190 009c 234B     		ldr	r3, .L18
 191 009e 1B88     		ldrh	r3, [r3]
 192 00a0 B3F5FA7F 		cmp	r3, #500
 193 00a4 40D3     		bcc	.L5
 688:main.c        ****    
 194              		.loc 1 688 0
 195 00a6 0022     		movs	r2, #0
ARM GAS  C:\Users\JPELEC~1\AppData\Local\Temp\ccEetrge.s 			page 18


 196 00a8 204B     		ldr	r3, .L18
 197 00aa 1A80     		strh	r2, [r3]	@ movhi
 198 00ac 0122     		movs	r2, #1
 199 00ae 2D4B     		ldr	r3, .L18+56
 200 00b0 1A80     		strh	r2, [r3]	@ movhi
 201 00b2 2D4A     		ldr	r2, .L18+60
 202 00b4 1388     		ldrh	r3, [r2]
 203 00b6 0133     		adds	r3, r3, #1
 204 00b8 1380     		strh	r3, [r2]	@ movhi
 205 00ba 2C4A     		ldr	r2, .L18+64
 206 00bc 1388     		ldrh	r3, [r2]
 207 00be 0133     		adds	r3, r3, #1
 208 00c0 1380     		strh	r3, [r2]	@ movhi
 209 00c2 2B4A     		ldr	r2, .L18+68
 210 00c4 1388     		ldrh	r3, [r2]
 211 00c6 0133     		adds	r3, r3, #1
 212 00c8 1380     		strh	r3, [r2]	@ movhi
 213 00ca 2A4A     		ldr	r2, .L18+72
 214 00cc B2F90030 		ldrsh	r3, [r2]
 215 00d0 B3FA83F3 		clz	r3, r3
 216 00d4 5B09     		lsrs	r3, r3, #5
 217 00d6 1380     		strh	r3, [r2]	@ movhi
 690:main.c        ****         
 218              		.loc 1 690 0
 219 00d8 274B     		ldr	r3, .L18+76
 220 00da B3F90030 		ldrsh	r3, [r3]
 221 00de 1BB1     		cbz	r3, .L14
 690:main.c        ****         
 222              		.loc 1 690 0 is_stmt 0 discriminator 1
 223 00e0 264A     		ldr	r2, .L18+80
 224 00e2 1388     		ldrh	r3, [r2]
 225 00e4 0133     		adds	r3, r3, #1
 226 00e6 1380     		strh	r3, [r2]	@ movhi
 227              	.L14:
 692:main.c        ****             tiemposetpoint++;
 228              		.loc 1 692 0 is_stmt 1
 229 00e8 254B     		ldr	r3, .L18+84
 230 00ea B3F90030 		ldrsh	r3, [r3]
 231 00ee 012B     		cmp	r3, #1
 232 00f0 03D1     		bne	.L15
 693:main.c        ****       
 233              		.loc 1 693 0
 234 00f2 244A     		ldr	r2, .L18+88
 235 00f4 1388     		ldrh	r3, [r2]
 236 00f6 0133     		adds	r3, r3, #1
 237 00f8 1380     		strh	r3, [r2]	@ movhi
 238              	.L15:
 695:main.c        ****             tinicio++;
 239              		.loc 1 695 0
 240 00fa 234B     		ldr	r3, .L18+92
 241 00fc 1B78     		ldrb	r3, [r3]	@ zero_extendqisi2
 242 00fe 013B     		subs	r3, r3, #1
 243 0100 DBB2     		uxtb	r3, r3
 244 0102 012B     		cmp	r3, #1
 245 0104 07D8     		bhi	.L16
 696:main.c        ****             tGrafica++;
 246              		.loc 1 696 0
ARM GAS  C:\Users\JPELEC~1\AppData\Local\Temp\ccEetrge.s 			page 19


 247 0106 214A     		ldr	r2, .L18+96
 248 0108 1388     		ldrh	r3, [r2]
 249 010a 0133     		adds	r3, r3, #1
 250 010c 1380     		strh	r3, [r2]	@ movhi
 697:main.c        ****         }
 251              		.loc 1 697 0
 252 010e 204A     		ldr	r2, .L18+100
 253 0110 1368     		ldr	r3, [r2]
 254 0112 0133     		adds	r3, r3, #1
 255 0114 1360     		str	r3, [r2]
 256              	.L16:
 700:main.c        ****             tiempocalentamiento++;
 257              		.loc 1 700 0
 258 0116 1F4B     		ldr	r3, .L18+104
 259 0118 B3F90030 		ldrsh	r3, [r3]
 260 011c 012B     		cmp	r3, #1
 261 011e 03D1     		bne	.L5
 701:main.c        ****     }     
 262              		.loc 1 701 0
 263 0120 1D4A     		ldr	r2, .L18+108
 264 0122 1388     		ldrh	r3, [r2]
 265 0124 0133     		adds	r3, r3, #1
 266 0126 1380     		strh	r3, [r2]	@ movhi
 267              	.L5:
 268 0128 08BD     		pop	{r3, pc}
 269              	.L19:
 270 012a 00BF     		.align	2
 271              	.L18:
 272 012c 00000000 		.word	tiempos
 273 0130 00000000 		.word	tiempos3
 274 0134 00000000 		.word	tiempoctrl
 275 0138 00000000 		.word	Control
 276 013c 00000000 		.word	tcHotJnuVolt
 277 0140 F1D8FFFF 		.word	-9999
 278 0144 00000000 		.word	Tc
 279 0148 00000000 		.word	Tp
 280 014c 00000000 		.word	Test
 281 0150 00000000 		.word	Lectura2
 282 0154 00000000 		.word	flagup
 283 0158 00000000 		.word	tiempoup
 284 015c 00000000 		.word	flagdn
 285 0160 00000000 		.word	tiempodn
 286 0164 00000000 		.word	Lectura
 287 0168 00000000 		.word	tiemporeset
 288 016c 00000000 		.word	TiempoControl
 289 0170 00000000 		.word	tiemporecta
 290 0174 00000000 		.word	mensaje
 291 0178 00000000 		.word	conteoPregunta
 292 017c 00000000 		.word	tPregunta
 293 0180 00000000 		.word	flag_setpoint
 294 0184 00000000 		.word	tiemposetpoint
 295 0188 00000000 		.word	tiempo_esterilizacion
 296 018c 00000000 		.word	tinicio
 297 0190 00000000 		.word	tGrafica
 298 0194 00000000 		.word	flag_tiempocalentamiento
 299 0198 00000000 		.word	tiempocalentamiento
 300              		.cfi_endproc
ARM GAS  C:\Users\JPELEC~1\AppData\Local\Temp\ccEetrge.s 			page 20


 301              	.LFE75:
 302              		.size	Reloj2, .-Reloj2
 303              		.section	.text.inteRX,"ax",%progbits
 304              		.align	2
 305              		.global	inteRX
 306              		.thumb
 307              		.thumb_func
 308              		.type	inteRX, %function
 309              	inteRX:
 310              	.LFB76:
 705:main.c        ****     Dato2=UART_2_GetByte();
 311              		.loc 1 705 0
 312              		.cfi_startproc
 313              		@ args = 0, pretend = 0, frame = 0
 314              		@ frame_needed = 0, uses_anonymous_args = 0
 315 0000 08B5     		push	{r3, lr}
 316              		.cfi_def_cfa_offset 8
 317              		.cfi_offset 3, -8
 318              		.cfi_offset 14, -4
 706:main.c        ****    if(Dato2==0x65){//Inicio Comunicacion
 319              		.loc 1 706 0
 320 0002 FFF7FEFF 		bl	UART_2_GetByte
 321              	.LVL3:
 322 0006 C0B2     		uxtb	r0, r0
 323 0008 1D4B     		ldr	r3, .L27
 324 000a 1870     		strb	r0, [r3]
 707:main.c        ****       Inicio=1;
 325              		.loc 1 707 0
 326 000c 6528     		cmp	r0, #101
 327 000e 05D1     		bne	.L21
 708:main.c        ****       RX_Wr_Index =0;
 328              		.loc 1 708 0
 329 0010 0122     		movs	r2, #1
 330 0012 1C4B     		ldr	r3, .L27+4
 331 0014 1A80     		strh	r2, [r3]	@ movhi
 709:main.c        ****    }
 332              		.loc 1 709 0
 333 0016 0022     		movs	r2, #0
 334 0018 1B4B     		ldr	r3, .L27+8
 335 001a 5A70     		strb	r2, [r3, #1]
 336              	.L21:
 711:main.c        ****       Rx_Buffer2[RX_Wr_Index] = Dato2;
 337              		.loc 1 711 0
 338 001c 194B     		ldr	r3, .L27+4
 339 001e B3F90030 		ldrsh	r3, [r3]
 340 0022 012B     		cmp	r3, #1
 341 0024 05D1     		bne	.L22
 712:main.c        ****       RX_Wr_Index++;
 342              		.loc 1 712 0
 343 0026 184A     		ldr	r2, .L27+8
 344 0028 5378     		ldrb	r3, [r2, #1]	@ zero_extendqisi2
 345 002a 1849     		ldr	r1, .L27+12
 346 002c C854     		strb	r0, [r1, r3]
 713:main.c        ****    }
 347              		.loc 1 713 0
 348 002e 0133     		adds	r3, r3, #1
 349 0030 5370     		strb	r3, [r2, #1]
ARM GAS  C:\Users\JPELEC~1\AppData\Local\Temp\ccEetrge.s 			page 21


 350              	.L22:
 715:main.c        ****       RX_Wr_Index =0;
 351              		.loc 1 715 0
 352 0032 154B     		ldr	r3, .L27+8
 353 0034 5B78     		ldrb	r3, [r3, #1]	@ zero_extendqisi2
 354 0036 092B     		cmp	r3, #9
 355 0038 04D9     		bls	.L23
 716:main.c        ****       Inicio=0;
 356              		.loc 1 716 0
 357 003a 0023     		movs	r3, #0
 358 003c 124A     		ldr	r2, .L27+8
 359 003e 5370     		strb	r3, [r2, #1]
 717:main.c        ****    }
 360              		.loc 1 717 0
 361 0040 104A     		ldr	r2, .L27+4
 362 0042 1380     		strh	r3, [r2]	@ movhi
 363              	.L23:
 719:main.c        ****       if(Rx_Buffer2[0]==0x65 && Rx_Buffer2[1]==0xff && Rx_Buffer2[2]==0xff && Rx_Buffer2[8]==0x00 &
 364              		.loc 1 719 0
 365 0044 104B     		ldr	r3, .L27+8
 366 0046 5B78     		ldrb	r3, [r3, #1]	@ zero_extendqisi2
 367 0048 CBB9     		cbnz	r3, .L20
 720:main.c        ****          Dato_Exitoso=5;
 368              		.loc 1 720 0
 369 004a 104B     		ldr	r3, .L27+12
 370 004c 1B78     		ldrb	r3, [r3]	@ zero_extendqisi2
 371 004e 652B     		cmp	r3, #101
 372 0050 12D1     		bne	.L25
 720:main.c        ****          Dato_Exitoso=5;
 373              		.loc 1 720 0 is_stmt 0 discriminator 1
 374 0052 0E4B     		ldr	r3, .L27+12
 375 0054 5B78     		ldrb	r3, [r3, #1]	@ zero_extendqisi2
 376 0056 FF2B     		cmp	r3, #255
 377 0058 0ED1     		bne	.L25
 720:main.c        ****          Dato_Exitoso=5;
 378              		.loc 1 720 0 discriminator 2
 379 005a 0C4B     		ldr	r3, .L27+12
 380 005c 9B78     		ldrb	r3, [r3, #2]	@ zero_extendqisi2
 381 005e FF2B     		cmp	r3, #255
 382 0060 0AD1     		bne	.L25
 720:main.c        ****          Dato_Exitoso=5;
 383              		.loc 1 720 0 discriminator 3
 384 0062 0A4B     		ldr	r3, .L27+12
 385 0064 1B7A     		ldrb	r3, [r3, #8]	@ zero_extendqisi2
 386 0066 3BB9     		cbnz	r3, .L25
 720:main.c        ****          Dato_Exitoso=5;
 387              		.loc 1 720 0 discriminator 4
 388 0068 084B     		ldr	r3, .L27+12
 389 006a 5B7A     		ldrb	r3, [r3, #9]	@ zero_extendqisi2
 390 006c FF2B     		cmp	r3, #255
 391 006e 03D1     		bne	.L25
 721:main.c        ****       else
 392              		.loc 1 721 0 is_stmt 1
 393 0070 0522     		movs	r2, #5
 394 0072 074B     		ldr	r3, .L27+16
 395 0074 1A70     		strb	r2, [r3]
 396 0076 08BD     		pop	{r3, pc}
ARM GAS  C:\Users\JPELEC~1\AppData\Local\Temp\ccEetrge.s 			page 22


 397              	.L25:
 723:main.c        ****    }
 398              		.loc 1 723 0
 399 0078 0A22     		movs	r2, #10
 400 007a 054B     		ldr	r3, .L27+16
 401 007c 1A70     		strb	r2, [r3]
 402              	.L20:
 403 007e 08BD     		pop	{r3, pc}
 404              	.L28:
 405              		.align	2
 406              	.L27:
 407 0080 00000000 		.word	Dato2
 408 0084 00000000 		.word	Inicio
 409 0088 00000000 		.word	.LANCHOR0
 410 008c 00000000 		.word	Rx_Buffer2
 411 0090 00000000 		.word	Dato_Exitoso
 412              		.cfi_endproc
 413              	.LFE76:
 414              		.size	inteRX, .-inteRX
 415              		.section	.text.inteRX1,"ax",%progbits
 416              		.align	2
 417              		.global	inteRX1
 418              		.thumb
 419              		.thumb_func
 420              		.type	inteRX1, %function
 421              	inteRX1:
 422              	.LFB77:
 729:main.c        ****     Dato3=UART_1_GetByte();
 423              		.loc 1 729 0
 424              		.cfi_startproc
 425              		@ args = 0, pretend = 0, frame = 0
 426              		@ frame_needed = 0, uses_anonymous_args = 0
 427 0000 08B5     		push	{r3, lr}
 428              		.cfi_def_cfa_offset 8
 429              		.cfi_offset 3, -8
 430              		.cfi_offset 14, -4
 730:main.c        ****    if(Dato3==0x65){//Inicio Comunicacion
 431              		.loc 1 730 0
 432 0002 FFF7FEFF 		bl	UART_1_GetByte
 433              	.LVL4:
 434 0006 C0B2     		uxtb	r0, r0
 435 0008 1D4B     		ldr	r3, .L36
 436 000a 1870     		strb	r0, [r3]
 731:main.c        ****       Inicio2=1;
 437              		.loc 1 731 0
 438 000c 6528     		cmp	r0, #101
 439 000e 05D1     		bne	.L30
 732:main.c        ****       RX_Wr_Index2 =0;
 440              		.loc 1 732 0
 441 0010 0122     		movs	r2, #1
 442 0012 1C4B     		ldr	r3, .L36+4
 443 0014 1A80     		strh	r2, [r3]	@ movhi
 733:main.c        ****    }
 444              		.loc 1 733 0
 445 0016 0022     		movs	r2, #0
 446 0018 1B4B     		ldr	r3, .L36+8
 447 001a 9A70     		strb	r2, [r3, #2]
ARM GAS  C:\Users\JPELEC~1\AppData\Local\Temp\ccEetrge.s 			page 23


 448              	.L30:
 735:main.c        ****       Rx_Buffer4[RX_Wr_Index2] = Dato3;
 449              		.loc 1 735 0
 450 001c 194B     		ldr	r3, .L36+4
 451 001e B3F90030 		ldrsh	r3, [r3]
 452 0022 012B     		cmp	r3, #1
 453 0024 05D1     		bne	.L31
 736:main.c        ****       RX_Wr_Index2++;
 454              		.loc 1 736 0
 455 0026 184A     		ldr	r2, .L36+8
 456 0028 9378     		ldrb	r3, [r2, #2]	@ zero_extendqisi2
 457 002a 1849     		ldr	r1, .L36+12
 458 002c C854     		strb	r0, [r1, r3]
 737:main.c        ****    }
 459              		.loc 1 737 0
 460 002e 0133     		adds	r3, r3, #1
 461 0030 9370     		strb	r3, [r2, #2]
 462              	.L31:
 739:main.c        ****       RX_Wr_Index2 =0;
 463              		.loc 1 739 0
 464 0032 154B     		ldr	r3, .L36+8
 465 0034 9B78     		ldrb	r3, [r3, #2]	@ zero_extendqisi2
 466 0036 092B     		cmp	r3, #9
 467 0038 04D9     		bls	.L32
 740:main.c        ****       Inicio2=0;
 468              		.loc 1 740 0
 469 003a 0023     		movs	r3, #0
 470 003c 124A     		ldr	r2, .L36+8
 471 003e 9370     		strb	r3, [r2, #2]
 741:main.c        ****    }
 472              		.loc 1 741 0
 473 0040 104A     		ldr	r2, .L36+4
 474 0042 1380     		strh	r3, [r2]	@ movhi
 475              	.L32:
 743:main.c        ****       if(Rx_Buffer4[0]==0x65 && Rx_Buffer4[1]==0xff && Rx_Buffer4[2]==0xff && Rx_Buffer4[8]==0x00 &
 476              		.loc 1 743 0
 477 0044 104B     		ldr	r3, .L36+8
 478 0046 9B78     		ldrb	r3, [r3, #2]	@ zero_extendqisi2
 479 0048 CBB9     		cbnz	r3, .L29
 744:main.c        ****          Dato_Exitoso2=5;
 480              		.loc 1 744 0
 481 004a 104B     		ldr	r3, .L36+12
 482 004c 1B78     		ldrb	r3, [r3]	@ zero_extendqisi2
 483 004e 652B     		cmp	r3, #101
 484 0050 12D1     		bne	.L34
 744:main.c        ****          Dato_Exitoso2=5;
 485              		.loc 1 744 0 is_stmt 0 discriminator 1
 486 0052 0E4B     		ldr	r3, .L36+12
 487 0054 5B78     		ldrb	r3, [r3, #1]	@ zero_extendqisi2
 488 0056 FF2B     		cmp	r3, #255
 489 0058 0ED1     		bne	.L34
 744:main.c        ****          Dato_Exitoso2=5;
 490              		.loc 1 744 0 discriminator 2
 491 005a 0C4B     		ldr	r3, .L36+12
 492 005c 9B78     		ldrb	r3, [r3, #2]	@ zero_extendqisi2
 493 005e FF2B     		cmp	r3, #255
 494 0060 0AD1     		bne	.L34
ARM GAS  C:\Users\JPELEC~1\AppData\Local\Temp\ccEetrge.s 			page 24


 744:main.c        ****          Dato_Exitoso2=5;
 495              		.loc 1 744 0 discriminator 3
 496 0062 0A4B     		ldr	r3, .L36+12
 497 0064 1B7A     		ldrb	r3, [r3, #8]	@ zero_extendqisi2
 498 0066 3BB9     		cbnz	r3, .L34
 744:main.c        ****          Dato_Exitoso2=5;
 499              		.loc 1 744 0 discriminator 4
 500 0068 084B     		ldr	r3, .L36+12
 501 006a 5B7A     		ldrb	r3, [r3, #9]	@ zero_extendqisi2
 502 006c FF2B     		cmp	r3, #255
 503 006e 03D1     		bne	.L34
 745:main.c        ****       else
 504              		.loc 1 745 0 is_stmt 1
 505 0070 0522     		movs	r2, #5
 506 0072 074B     		ldr	r3, .L36+16
 507 0074 1A70     		strb	r2, [r3]
 508 0076 08BD     		pop	{r3, pc}
 509              	.L34:
 747:main.c        ****    }
 510              		.loc 1 747 0
 511 0078 0A22     		movs	r2, #10
 512 007a 054B     		ldr	r3, .L36+16
 513 007c 1A70     		strb	r2, [r3]
 514              	.L29:
 515 007e 08BD     		pop	{r3, pc}
 516              	.L37:
 517              		.align	2
 518              	.L36:
 519 0080 00000000 		.word	Dato3
 520 0084 00000000 		.word	Inicio2
 521 0088 00000000 		.word	.LANCHOR0
 522 008c 00000000 		.word	Rx_Buffer4
 523 0090 00000000 		.word	Dato_Exitoso2
 524              		.cfi_endproc
 525              	.LFE77:
 526              		.size	inteRX1, .-inteRX1
 527              		.global	__aeabi_fsub
 528              		.global	__aeabi_i2f
 529              		.global	__aeabi_fdiv
 530              		.global	__aeabi_fmul
 531              		.section	.text.ActualizaRecta,"ax",%progbits
 532              		.align	2
 533              		.global	ActualizaRecta
 534              		.thumb
 535              		.thumb_func
 536              		.type	ActualizaRecta, %function
 537              	ActualizaRecta:
 538              	.LFB65:
  86:main.c        ****    X[y]=Temperatura;
 539              		.loc 1 86 0
 540              		.cfi_startproc
 541              		@ args = 0, pretend = 0, frame = 0
 542              		@ frame_needed = 0, uses_anonymous_args = 0
 543 0000 70B5     		push	{r4, r5, r6, lr}
 544              		.cfi_def_cfa_offset 16
 545              		.cfi_offset 4, -16
 546              		.cfi_offset 5, -12
ARM GAS  C:\Users\JPELEC~1\AppData\Local\Temp\ccEetrge.s 			page 25


 547              		.cfi_offset 6, -8
 548              		.cfi_offset 14, -4
  87:main.c        ****    y++;
 549              		.loc 1 87 0
 550 0002 2749     		ldr	r1, .L41
 551 0004 0B78     		ldrb	r3, [r1]	@ zero_extendqisi2
 552 0006 274A     		ldr	r2, .L41+4
 553 0008 1468     		ldr	r4, [r2]	@ float
 554 000a 274A     		ldr	r2, .L41+8
 555 000c 02EB8302 		add	r2, r2, r3, lsl #2
 556 0010 5460     		str	r4, [r2, #4]	@ float
  88:main.c        ****    if(y>=2){
 557              		.loc 1 88 0
 558 0012 0133     		adds	r3, r3, #1
 559 0014 DBB2     		uxtb	r3, r3
 560 0016 0B70     		strb	r3, [r1]
  89:main.c        ****       y=0;
 561              		.loc 1 89 0
 562 0018 012B     		cmp	r3, #1
 563 001a 3FD9     		bls	.L38
  90:main.c        ****       Aumento=X[1]-X[0];
 564              		.loc 1 90 0
 565 001c 0022     		movs	r2, #0
 566 001e 0A70     		strb	r2, [r1]
  91:main.c        ****       HorasActual=hEst;
 567              		.loc 1 91 0
 568 0020 214B     		ldr	r3, .L41+8
 569 0022 5968     		ldr	r1, [r3, #4]	@ float
 570 0024 9868     		ldr	r0, [r3, #8]	@ float
 571 0026 FFF7FEFF 		bl	__aeabi_fsub
 572              	.LVL5:
 573 002a 0546     		mov	r5, r0
 574 002c 1F4B     		ldr	r3, .L41+12
 575 002e 1860     		str	r0, [r3]	@ float
  92:main.c        ****       MinutosActual=mEst;
 576              		.loc 1 92 0
 577 0030 1F4B     		ldr	r3, .L41+16
 578 0032 1A78     		ldrb	r2, [r3]	@ zero_extendqisi2
 579 0034 1F4B     		ldr	r3, .L41+20
 580 0036 1A80     		strh	r2, [r3]	@ movhi
  93:main.c        ****       TiempoActual=Tiempo-((HorasActual*3600)+(MinutosActual*60)+tinicio);
 581              		.loc 1 93 0
 582 0038 1F4B     		ldr	r3, .L41+24
 583 003a 1B78     		ldrb	r3, [r3]	@ zero_extendqisi2
 584 003c 1F49     		ldr	r1, .L41+28
 585 003e 0B80     		strh	r3, [r1]	@ movhi
  94:main.c        ****       PendienteActual=((Setpoint-Temperatura)/TiempoActual);
 586              		.loc 1 94 0
 587 0040 C2EB0212 		rsb	r2, r2, r2, lsl #4
 588 0044 C2EB0212 		rsb	r2, r2, r2, lsl #4
 589 0048 C3EB0313 		rsb	r3, r3, r3, lsl #4
 590 004c 9B00     		lsls	r3, r3, #2
 591 004e 03EB0213 		add	r3, r3, r2, lsl #4
 592 0052 1B4A     		ldr	r2, .L41+32
 593 0054 1688     		ldrh	r6, [r2]
 594 0056 1E44     		add	r6, r6, r3
 595 0058 1A4B     		ldr	r3, .L41+36
ARM GAS  C:\Users\JPELEC~1\AppData\Local\Temp\ccEetrge.s 			page 26


 596 005a 1A88     		ldrh	r2, [r3]
 597 005c 961B     		subs	r6, r2, r6
 598 005e B6B2     		uxth	r6, r6
 599 0060 194B     		ldr	r3, .L41+40
 600 0062 1E80     		strh	r6, [r3]	@ movhi
  95:main.c        ****       DifPendiente=(PendienteActual*20)-Aumento;
 601              		.loc 1 95 0
 602 0064 194B     		ldr	r3, .L41+44
 603 0066 1888     		ldrh	r0, [r3]
 604 0068 FFF7FEFF 		bl	__aeabi_i2f
 605              	.LVL6:
 606 006c 2146     		mov	r1, r4
 607 006e FFF7FEFF 		bl	__aeabi_fsub
 608              	.LVL7:
 609 0072 0446     		mov	r4, r0
 610 0074 3046     		mov	r0, r6
 611 0076 FFF7FEFF 		bl	__aeabi_i2f
 612              	.LVL8:
 613 007a 0146     		mov	r1, r0
 614 007c 2046     		mov	r0, r4
 615 007e FFF7FEFF 		bl	__aeabi_fdiv
 616              	.LVL9:
 617 0082 134B     		ldr	r3, .L41+48
 618 0084 1860     		str	r0, [r3]	@ float
  96:main.c        ****       DifPendiente=DifPendiente*5;
 619              		.loc 1 96 0
 620 0086 1349     		ldr	r1, .L41+52
 621 0088 FFF7FEFF 		bl	__aeabi_fmul
 622              	.LVL10:
 623 008c 2946     		mov	r1, r5
 624 008e FFF7FEFF 		bl	__aeabi_fsub
 625              	.LVL11:
  97:main.c        ****    }
 626              		.loc 1 97 0
 627 0092 1149     		ldr	r1, .L41+56
 628 0094 FFF7FEFF 		bl	__aeabi_fmul
 629              	.LVL12:
 630 0098 104B     		ldr	r3, .L41+60
 631 009a 1860     		str	r0, [r3]	@ float
 632              	.L38:
 633 009c 70BD     		pop	{r4, r5, r6, pc}
 634              	.L42:
 635 009e 00BF     		.align	2
 636              	.L41:
 637 00a0 00000000 		.word	y
 638 00a4 00000000 		.word	Temperatura
 639 00a8 00000000 		.word	.LANCHOR0
 640 00ac 00000000 		.word	Aumento
 641 00b0 00000000 		.word	hEst
 642 00b4 00000000 		.word	HorasActual
 643 00b8 00000000 		.word	mEst
 644 00bc 00000000 		.word	MinutosActual
 645 00c0 00000000 		.word	tinicio
 646 00c4 00000000 		.word	Tiempo
 647 00c8 00000000 		.word	TiempoActual
 648 00cc 00000000 		.word	Setpoint
 649 00d0 00000000 		.word	PendienteActual
ARM GAS  C:\Users\JPELEC~1\AppData\Local\Temp\ccEetrge.s 			page 27


 650 00d4 0000A041 		.word	1101004800
 651 00d8 0000A040 		.word	1084227584
 652 00dc 00000000 		.word	DifPendiente
 653              		.cfi_endproc
 654              	.LFE65:
 655              		.size	ActualizaRecta, .-ActualizaRecta
 656              		.global	__aeabi_ui2f
 657              		.global	__aeabi_fcmpeq
 658              		.global	__aeabi_fadd
 659              		.global	__aeabi_fcmplt
 660              		.global	__aeabi_fcmpge
 661              		.global	__aeabi_f2d
 662              		.global	__aeabi_dmul
 663              		.global	__aeabi_d2f
 664              		.global	__aeabi_fcmple
 665              		.global	__aeabi_fcmpgt
 666              		.global	__aeabi_i2d
 667              		.global	__aeabi_dadd
 668              		.global	__aeabi_dsub
 669              		.global	__aeabi_ddiv
 670              		.global	__aeabi_d2uiz
 671              		.section	.text.Controla,"ax",%progbits
 672              		.align	2
 673              		.global	Controla
 674              		.thumb
 675              		.thumb_func
 676              		.type	Controla, %function
 677              	Controla:
 678              	.LFB66:
 101:main.c        **** //-------------------------------Control de Calentamiento------------------------------------------
 679              		.loc 1 101 0
 680              		.cfi_startproc
 681              		@ args = 0, pretend = 0, frame = 8
 682              		@ frame_needed = 0, uses_anonymous_args = 0
 683 0000 2DE9F04F 		push	{r4, r5, r6, r7, r8, r9, r10, fp, lr}
 684              		.cfi_def_cfa_offset 36
 685              		.cfi_offset 4, -36
 686              		.cfi_offset 5, -32
 687              		.cfi_offset 6, -28
 688              		.cfi_offset 7, -24
 689              		.cfi_offset 8, -20
 690              		.cfi_offset 9, -16
 691              		.cfi_offset 10, -12
 692              		.cfi_offset 11, -8
 693              		.cfi_offset 14, -4
 694 0004 83B0     		sub	sp, sp, #12
 695              		.cfi_def_cfa_offset 48
 696              	.LVL13:
 104:main.c        ****          ActualizaRecta();
 697              		.loc 1 104 0
 698 0006 6B4B     		ldr	r3, .L107
 699 0008 1B88     		ldrh	r3, [r3]
 700 000a 092B     		cmp	r3, #9
 701 000c 04D9     		bls	.L44
 105:main.c        ****          tiemporecta=0;
 702              		.loc 1 105 0
 703 000e FFF7FEFF 		bl	ActualizaRecta
ARM GAS  C:\Users\JPELEC~1\AppData\Local\Temp\ccEetrge.s 			page 28


 704              	.LVL14:
 106:main.c        ****       }
 705              		.loc 1 106 0
 706 0012 0022     		movs	r2, #0
 707 0014 674B     		ldr	r3, .L107
 708 0016 1A80     		strh	r2, [r3]	@ movhi
 709              	.L44:
 109:main.c        ****          if(flag_calcula==0){
 710              		.loc 1 109 0
 711 0018 674B     		ldr	r3, .L107+4
 712 001a 1C78     		ldrb	r4, [r3]	@ zero_extendqisi2
 713 001c 002C     		cmp	r4, #0
 714 001e 49D1     		bne	.L45
 110:main.c        ****             Tiempo=(Programas[Programa-1].rampas[0].Horas*3600)+(Programas[Programa-1].rampas[0].Mi
 715              		.loc 1 110 0
 716 0020 664B     		ldr	r3, .L107+8
 717 0022 B3F90030 		ldrsh	r3, [r3]
 718 0026 002B     		cmp	r3, #0
 719 0028 40F09A80 		bne	.L46
 111:main.c        ****             Setpoint=Programas[Programa-1].rampas[0].Temperatura;
 720              		.loc 1 111 0
 721 002c 644B     		ldr	r3, .L107+12
 722 002e 1B78     		ldrb	r3, [r3]	@ zero_extendqisi2
 723 0030 013B     		subs	r3, r3, #1
 724 0032 6448     		ldr	r0, .L107+16
 725 0034 9D00     		lsls	r5, r3, #2
 726 0036 E918     		adds	r1, r5, r3
 727 0038 4A01     		lsls	r2, r1, #5
 728 003a 0244     		add	r2, r2, r0
 729 003c D678     		ldrb	r6, [r2, #3]	@ zero_extendqisi2
 730 003e 1779     		ldrb	r7, [r2, #4]	@ zero_extendqisi2
 731 0040 C6EB0612 		rsb	r2, r6, r6, lsl #4
 732 0044 C2EB0212 		rsb	r2, r2, r2, lsl #4
 733 0048 4FEA0218 		lsl	r8, r2, #4
 734 004c C7EB0712 		rsb	r2, r7, r7, lsl #4
 735 0050 9100     		lsls	r1, r2, #2
 736 0052 8844     		add	r8, r8, r1
 737 0054 1FFA88F8 		uxth	r8, r8
 738 0058 5B4A     		ldr	r2, .L107+20
 739 005a A2F80080 		strh	r8, [r2]	@ movhi
 112:main.c        ****             Pendiente=(((float)Setpoint-TempeInicial)/(float)Tiempo);
 740              		.loc 1 112 0
 741 005e 2B44     		add	r3, r3, r5
 742 0060 5A01     		lsls	r2, r3, #5
 743 0062 0244     		add	r2, r2, r0
 744 0064 D588     		ldrh	r5, [r2, #6]
 745 0066 594B     		ldr	r3, .L107+24
 746 0068 1D80     		strh	r5, [r3]	@ movhi
 113:main.c        ****             hEstp=Programas[Programa-1].rampas[0].Horas;
 747              		.loc 1 113 0
 748 006a 2846     		mov	r0, r5
 749 006c FFF7FEFF 		bl	__aeabi_ui2f
 750              	.LVL15:
 751 0070 574B     		ldr	r3, .L107+28
 752 0072 1968     		ldr	r1, [r3]	@ float
 753 0074 FFF7FEFF 		bl	__aeabi_fsub
 754              	.LVL16:
ARM GAS  C:\Users\JPELEC~1\AppData\Local\Temp\ccEetrge.s 			page 29


 755 0078 8146     		mov	r9, r0
 756 007a 4046     		mov	r0, r8
 757 007c FFF7FEFF 		bl	__aeabi_ui2f
 758              	.LVL17:
 759 0080 0146     		mov	r1, r0
 760 0082 4846     		mov	r0, r9
 761 0084 FFF7FEFF 		bl	__aeabi_fdiv
 762              	.LVL18:
 763 0088 524B     		ldr	r3, .L107+32
 764 008a 1860     		str	r0, [r3]	@ float
 114:main.c        ****             mEstp=Programas[Programa-1].rampas[0].Minutos;
 765              		.loc 1 114 0
 766 008c 524B     		ldr	r3, .L107+36
 767 008e 1E70     		strb	r6, [r3]
 115:main.c        ****             flag_calcula=1;
 768              		.loc 1 115 0
 769 0090 524B     		ldr	r3, .L107+40
 770 0092 1F70     		strb	r7, [r3]
 116:main.c        ****             Ganancia=GananciaIn*(Setpoint/100);
 771              		.loc 1 116 0
 772 0094 0122     		movs	r2, #1
 773 0096 494B     		ldr	r3, .L107+8
 774 0098 1A80     		strh	r2, [r3]	@ movhi
 117:main.c        ****          }
 775              		.loc 1 117 0
 776 009a 5148     		ldr	r0, .L107+44
 777 009c A0FB0530 		umull	r3, r0, r0, r5
 778 00a0 4009     		lsrs	r0, r0, #5
 779 00a2 FFF7FEFF 		bl	__aeabi_i2f
 780              	.LVL19:
 781 00a6 4F4B     		ldr	r3, .L107+48
 782 00a8 1968     		ldr	r1, [r3]	@ float
 783 00aa FFF7FEFF 		bl	__aeabi_fmul
 784              	.LVL20:
 785 00ae 4E4B     		ldr	r3, .L107+52
 786 00b0 1860     		str	r0, [r3]	@ float
 787 00b2 55E0     		b	.L46
 788              	.L45:
 120:main.c        ****             Tiempo=(Programas[Programa-1].rampas[Segmento].Horas*3600)+(Programas[Programa-1].rampa
 789              		.loc 1 120 0
 790 00b4 414B     		ldr	r3, .L107+8
 791 00b6 B3F90030 		ldrsh	r3, [r3]
 792 00ba 002B     		cmp	r3, #0
 793 00bc 50D1     		bne	.L46
 121:main.c        ****             Setpoint=Programas[Programa-1].rampas[Segmento].Temperatura;
 794              		.loc 1 121 0
 795 00be 404B     		ldr	r3, .L107+12
 796 00c0 1D78     		ldrb	r5, [r3]	@ zero_extendqisi2
 797 00c2 013D     		subs	r5, r5, #1
 798 00c4 DFF8FC80 		ldr	r8, .L107+16
 799 00c8 4FEA850B 		lsl	fp, r5, #2
 800 00cc 0BEB0502 		add	r2, fp, r5
 801 00d0 9300     		lsls	r3, r2, #2
 802 00d2 2344     		add	r3, r3, r4
 803 00d4 08EBC303 		add	r3, r8, r3, lsl #3
 804 00d8 93F803A0 		ldrb	r10, [r3, #3]	@ zero_extendqisi2
 805 00dc 93F80490 		ldrb	r9, [r3, #4]	@ zero_extendqisi2
ARM GAS  C:\Users\JPELEC~1\AppData\Local\Temp\ccEetrge.s 			page 30


 806 00e0 CAEB0A12 		rsb	r2, r10, r10, lsl #4
 807 00e4 C2EB0212 		rsb	r2, r2, r2, lsl #4
 808 00e8 1601     		lsls	r6, r2, #4
 809 00ea C9EB0911 		rsb	r1, r9, r9, lsl #4
 810 00ee 8A00     		lsls	r2, r1, #2
 811 00f0 1644     		add	r6, r6, r2
 812 00f2 B6B2     		uxth	r6, r6
 813 00f4 344A     		ldr	r2, .L107+20
 814 00f6 1680     		strh	r6, [r2]	@ movhi
 122:main.c        ****             Pendiente=(((float)Programas[Programa-1].rampas[Segmento].Temperatura-(float)Programas[
 815              		.loc 1 122 0
 816 00f8 DF88     		ldrh	r7, [r3, #6]
 817 00fa 344B     		ldr	r3, .L107+24
 818 00fc 1F80     		strh	r7, [r3]	@ movhi
 123:main.c        ****             hEstp=Programas[Programa-1].rampas[Segmento].Horas;
 819              		.loc 1 123 0
 820 00fe 3846     		mov	r0, r7
 821 0100 FFF7FEFF 		bl	__aeabi_ui2f
 822              	.LVL21:
 823 0104 0190     		str	r0, [sp, #4]	@ float
 824 0106 631E     		subs	r3, r4, #1
 825 0108 5D44     		add	r5, r5, fp
 826 010a AA00     		lsls	r2, r5, #2
 827 010c 1344     		add	r3, r3, r2
 828 010e 08EBC308 		add	r8, r8, r3, lsl #3
 829 0112 B8F80600 		ldrh	r0, [r8, #6]
 830 0116 FFF7FEFF 		bl	__aeabi_ui2f
 831              	.LVL22:
 832 011a 0146     		mov	r1, r0
 833 011c 0198     		ldr	r0, [sp, #4]	@ float
 834 011e FFF7FEFF 		bl	__aeabi_fsub
 835              	.LVL23:
 836 0122 0546     		mov	r5, r0
 837 0124 3046     		mov	r0, r6
 838 0126 FFF7FEFF 		bl	__aeabi_ui2f
 839              	.LVL24:
 840 012a 0146     		mov	r1, r0
 841 012c 2846     		mov	r0, r5
 842 012e FFF7FEFF 		bl	__aeabi_fdiv
 843              	.LVL25:
 844 0132 284B     		ldr	r3, .L107+32
 845 0134 1860     		str	r0, [r3]	@ float
 124:main.c        ****             mEstp=Programas[Programa-1].rampas[Segmento].Minutos;
 846              		.loc 1 124 0
 847 0136 284B     		ldr	r3, .L107+36
 848 0138 83F800A0 		strb	r10, [r3]
 125:main.c        ****             flag_calcula=1;
 849              		.loc 1 125 0
 850 013c 274B     		ldr	r3, .L107+40
 851 013e 83F80090 		strb	r9, [r3]
 126:main.c        ****             Ganancia=GananciaIn*(Setpoint/100);
 852              		.loc 1 126 0
 853 0142 0122     		movs	r2, #1
 854 0144 1D4B     		ldr	r3, .L107+8
 855 0146 1A80     		strh	r2, [r3]	@ movhi
 127:main.c        ****          }
 856              		.loc 1 127 0
ARM GAS  C:\Users\JPELEC~1\AppData\Local\Temp\ccEetrge.s 			page 31


 857 0148 2548     		ldr	r0, .L107+44
 858 014a A0FB0730 		umull	r3, r0, r0, r7
 859 014e 4009     		lsrs	r0, r0, #5
 860 0150 FFF7FEFF 		bl	__aeabi_i2f
 861              	.LVL26:
 862 0154 234B     		ldr	r3, .L107+48
 863 0156 1968     		ldr	r1, [r3]	@ float
 864 0158 FFF7FEFF 		bl	__aeabi_fmul
 865              	.LVL27:
 866 015c 224B     		ldr	r3, .L107+52
 867 015e 1860     		str	r0, [r3]	@ float
 868              	.L46:
 132:main.c        ****       //PendienteActual=((Setpoint-Temperatura)/TiempoActual);
 869              		.loc 1 132 0
 870 0160 1C4B     		ldr	r3, .L107+32
 871 0162 1D68     		ldr	r5, [r3]	@ float
 872 0164 0021     		movs	r1, #0
 873 0166 2846     		mov	r0, r5
 874 0168 FFF7FEFF 		bl	__aeabi_fcmpeq
 875              	.LVL28:
 876 016c 0028     		cmp	r0, #0
 877 016e 40F0EC80 		bne	.L103
 136:main.c        ****       if(Segmento==0){
 878              		.loc 1 136 0
 879 0172 1E4B     		ldr	r3, .L107+56
 880 0174 1B78     		ldrb	r3, [r3]	@ zero_extendqisi2
 881 0176 C3EB0313 		rsb	r3, r3, r3, lsl #4
 882 017a C3EB0313 		rsb	r3, r3, r3, lsl #4
 883 017e 1801     		lsls	r0, r3, #4
 884 0180 1B4B     		ldr	r3, .L107+60
 885 0182 1B78     		ldrb	r3, [r3]	@ zero_extendqisi2
 886 0184 C3EB0313 		rsb	r3, r3, r3, lsl #4
 887 0188 9A00     		lsls	r2, r3, #2
 888 018a 1044     		add	r0, r0, r2
 889 018c 194B     		ldr	r3, .L107+64
 890 018e 1B88     		ldrh	r3, [r3]
 891 0190 1844     		add	r0, r0, r3
 892 0192 80B2     		uxth	r0, r0
 893 0194 184B     		ldr	r3, .L107+68
 894 0196 1880     		strh	r0, [r3]	@ movhi
 137:main.c        ****          TemperaturaIdeal=(Pendiente*TiempoRampa)+TempeInicial;
 895              		.loc 1 137 0
 896 0198 94BB     		cbnz	r4, .L49
 138:main.c        ****       }else{
 897              		.loc 1 138 0
 898 019a FFF7FEFF 		bl	__aeabi_i2f
 899              	.LVL29:
 900 019e 2946     		mov	r1, r5
 901 01a0 FFF7FEFF 		bl	__aeabi_fmul
 902              	.LVL30:
 903 01a4 0A4B     		ldr	r3, .L107+28
 904 01a6 1968     		ldr	r1, [r3]	@ float
 905 01a8 FFF7FEFF 		bl	__aeabi_fadd
 906              	.LVL31:
 907 01ac 134B     		ldr	r3, .L107+72
 908 01ae 1860     		str	r0, [r3]	@ float
 909 01b0 3FE0     		b	.L50
ARM GAS  C:\Users\JPELEC~1\AppData\Local\Temp\ccEetrge.s 			page 32


 910              	.L108:
 911 01b2 00BF     		.align	2
 912              	.L107:
 913 01b4 00000000 		.word	tiemporecta
 914 01b8 00000000 		.word	Segmento
 915 01bc 00000000 		.word	flag_calcula
 916 01c0 00000000 		.word	Programa
 917 01c4 00000000 		.word	Programas
 918 01c8 00000000 		.word	Tiempo
 919 01cc 00000000 		.word	Setpoint
 920 01d0 00000000 		.word	TempeInicial
 921 01d4 00000000 		.word	Pendiente
 922 01d8 00000000 		.word	hEstp
 923 01dc 00000000 		.word	mEstp
 924 01e0 1F85EB51 		.word	1374389535
 925 01e4 00000000 		.word	GananciaIn
 926 01e8 00000000 		.word	Ganancia
 927 01ec 00000000 		.word	hEst
 928 01f0 00000000 		.word	mEst
 929 01f4 00000000 		.word	tinicio
 930 01f8 00000000 		.word	TiempoRampa
 931 01fc 00000000 		.word	TemperaturaIdeal
 932              	.L49:
 140:main.c        ****       }
 933              		.loc 1 140 0
 934 0200 FFF7FEFF 		bl	__aeabi_i2f
 935              	.LVL32:
 936 0204 2946     		mov	r1, r5
 937 0206 FFF7FEFF 		bl	__aeabi_fmul
 938              	.LVL33:
 939 020a 0546     		mov	r5, r0
 940 020c 864B     		ldr	r3, .L109+32
 941 020e 1B78     		ldrb	r3, [r3]	@ zero_extendqisi2
 942 0210 013B     		subs	r3, r3, #1
 943 0212 013C     		subs	r4, r4, #1
 944 0214 03EB8303 		add	r3, r3, r3, lsl #2
 945 0218 9A00     		lsls	r2, r3, #2
 946 021a 1444     		add	r4, r4, r2
 947 021c 834B     		ldr	r3, .L109+36
 948 021e 03EBC404 		add	r4, r3, r4, lsl #3
 949 0222 E088     		ldrh	r0, [r4, #6]
 950 0224 FFF7FEFF 		bl	__aeabi_i2f
 951              	.LVL34:
 952 0228 2946     		mov	r1, r5
 953 022a FFF7FEFF 		bl	__aeabi_fadd
 954              	.LVL35:
 955 022e 804B     		ldr	r3, .L109+40
 956 0230 1860     		str	r0, [r3]	@ float
 957              	.L50:
 142:main.c        **** // Pendiente determinar si el comportamiento de la mufla es lineal 10°C/min o si tiene un comporta
 958              		.loc 1 142 0
 959 0232 804B     		ldr	r3, .L109+44
 960 0234 1C68     		ldr	r4, [r3]	@ float
 961 0236 2146     		mov	r1, r4
 962 0238 7D4B     		ldr	r3, .L109+40
 963 023a 1868     		ldr	r0, [r3]	@ float
 964 023c FFF7FEFF 		bl	__aeabi_fsub
ARM GAS  C:\Users\JPELEC~1\AppData\Local\Temp\ccEetrge.s 			page 33


 965              	.LVL36:
 966 0240 7D49     		ldr	r1, .L109+48
 967 0242 FFF7FEFF 		bl	__aeabi_fmul
 968              	.LVL37:
 969 0246 7D4B     		ldr	r3, .L109+52
 970 0248 1968     		ldr	r1, [r3]	@ float
 971 024a FFF7FEFF 		bl	__aeabi_fdiv
 972              	.LVL38:
 973 024e 0546     		mov	r5, r0
 974 0250 7B4B     		ldr	r3, .L109+56
 975 0252 1860     		str	r0, [r3]	@ float
 145:main.c        ****          penMufla=penInicial*0.9;
 976              		.loc 1 145 0
 977 0254 7B49     		ldr	r1, .L109+60
 978 0256 2046     		mov	r0, r4
 979 0258 FFF7FEFF 		bl	__aeabi_fcmplt
 980              	.LVL39:
 981 025c 88B1     		cbz	r0, .L51
 145:main.c        ****          penMufla=penInicial*0.9;
 982              		.loc 1 145 0 is_stmt 0 discriminator 1
 983 025e 7A49     		ldr	r1, .L109+64
 984 0260 2046     		mov	r0, r4
 985 0262 FFF7FEFF 		bl	__aeabi_fcmpge
 986              	.LVL40:
 987 0266 60B1     		cbz	r0, .L51
 146:main.c        ****          
 988              		.loc 1 146 0 is_stmt 1
 989 0268 784B     		ldr	r3, .L109+68
 990 026a 1868     		ldr	r0, [r3]	@ float
 991 026c FFF7FEFF 		bl	__aeabi_f2d
 992              	.LVL41:
 993 0270 65A3     		adr	r3, .L109
 994 0272 D3E90023 		ldrd	r2, [r3]
 995 0276 FFF7FEFF 		bl	__aeabi_dmul
 996              	.LVL42:
 997 027a FFF7FEFF 		bl	__aeabi_d2f
 998              	.LVL43:
 999 027e 6F4B     		ldr	r3, .L109+52
 1000 0280 1860     		str	r0, [r3]	@ float
 1001              	.L51:
 148:main.c        ****          penMufla=penInicial*0.8;
 1002              		.loc 1 148 0
 1003 0282 7349     		ldr	r1, .L109+72
 1004 0284 2046     		mov	r0, r4
 1005 0286 FFF7FEFF 		bl	__aeabi_fcmplt
 1006              	.LVL44:
 1007 028a 88B1     		cbz	r0, .L54
 148:main.c        ****          penMufla=penInicial*0.8;
 1008              		.loc 1 148 0 is_stmt 0 discriminator 1
 1009 028c 6D49     		ldr	r1, .L109+60
 1010 028e 2046     		mov	r0, r4
 1011 0290 FFF7FEFF 		bl	__aeabi_fcmpge
 1012              	.LVL45:
 1013 0294 60B1     		cbz	r0, .L54
 149:main.c        ****          
 1014              		.loc 1 149 0 is_stmt 1
 1015 0296 6D4B     		ldr	r3, .L109+68
ARM GAS  C:\Users\JPELEC~1\AppData\Local\Temp\ccEetrge.s 			page 34


 1016 0298 1868     		ldr	r0, [r3]	@ float
 1017 029a FFF7FEFF 		bl	__aeabi_f2d
 1018              	.LVL46:
 1019 029e 5CA3     		adr	r3, .L109+8
 1020 02a0 D3E90023 		ldrd	r2, [r3]
 1021 02a4 FFF7FEFF 		bl	__aeabi_dmul
 1022              	.LVL47:
 1023 02a8 FFF7FEFF 		bl	__aeabi_d2f
 1024              	.LVL48:
 1025 02ac 634B     		ldr	r3, .L109+52
 1026 02ae 1860     		str	r0, [r3]	@ float
 1027              	.L54:
 151:main.c        ****          penMufla=penInicial*0.7;  
 1028              		.loc 1 151 0
 1029 02b0 6849     		ldr	r1, .L109+76
 1030 02b2 2046     		mov	r0, r4
 1031 02b4 FFF7FEFF 		bl	__aeabi_fcmplt
 1032              	.LVL49:
 1033 02b8 88B1     		cbz	r0, .L57
 151:main.c        ****          penMufla=penInicial*0.7;  
 1034              		.loc 1 151 0 is_stmt 0 discriminator 1
 1035 02ba 6549     		ldr	r1, .L109+72
 1036 02bc 2046     		mov	r0, r4
 1037 02be FFF7FEFF 		bl	__aeabi_fcmpge
 1038              	.LVL50:
 1039 02c2 60B1     		cbz	r0, .L57
 152:main.c        ****          
 1040              		.loc 1 152 0 is_stmt 1
 1041 02c4 614B     		ldr	r3, .L109+68
 1042 02c6 1868     		ldr	r0, [r3]	@ float
 1043 02c8 FFF7FEFF 		bl	__aeabi_f2d
 1044              	.LVL51:
 1045 02cc 52A3     		adr	r3, .L109+16
 1046 02ce D3E90023 		ldrd	r2, [r3]
 1047 02d2 FFF7FEFF 		bl	__aeabi_dmul
 1048              	.LVL52:
 1049 02d6 FFF7FEFF 		bl	__aeabi_d2f
 1050              	.LVL53:
 1051 02da 584B     		ldr	r3, .L109+52
 1052 02dc 1860     		str	r0, [r3]	@ float
 1053              	.L57:
 154:main.c        ****          penMufla=penInicial*0.6;   
 1054              		.loc 1 154 0
 1055 02de 5E49     		ldr	r1, .L109+80
 1056 02e0 2046     		mov	r0, r4
 1057 02e2 FFF7FEFF 		bl	__aeabi_fcmple
 1058              	.LVL54:
 1059 02e6 88B1     		cbz	r0, .L60
 154:main.c        ****          penMufla=penInicial*0.6;   
 1060              		.loc 1 154 0 is_stmt 0 discriminator 1
 1061 02e8 5A49     		ldr	r1, .L109+76
 1062 02ea 2046     		mov	r0, r4
 1063 02ec FFF7FEFF 		bl	__aeabi_fcmpge
 1064              	.LVL55:
 1065 02f0 60B1     		cbz	r0, .L60
 155:main.c        ****       
 1066              		.loc 1 155 0 is_stmt 1
ARM GAS  C:\Users\JPELEC~1\AppData\Local\Temp\ccEetrge.s 			page 35


 1067 02f2 564B     		ldr	r3, .L109+68
 1068 02f4 1868     		ldr	r0, [r3]	@ float
 1069 02f6 FFF7FEFF 		bl	__aeabi_f2d
 1070              	.LVL56:
 1071 02fa 49A3     		adr	r3, .L109+24
 1072 02fc D3E90023 		ldrd	r2, [r3]
 1073 0300 FFF7FEFF 		bl	__aeabi_dmul
 1074              	.LVL57:
 1075 0304 FFF7FEFF 		bl	__aeabi_d2f
 1076              	.LVL58:
 1077 0308 4C4B     		ldr	r3, .L109+52
 1078 030a 1860     		str	r0, [r3]	@ float
 1079              	.L60:
 157:main.c        ****          PotenciaEntregada=100.0;
 1080              		.loc 1 157 0
 1081 030c 4A49     		ldr	r1, .L109+48
 1082 030e 2846     		mov	r0, r5
 1083 0310 FFF7FEFF 		bl	__aeabi_fcmpgt
 1084              	.LVL59:
 1085 0314 10B1     		cbz	r0, .L63
 158:main.c        ****       }
 1086              		.loc 1 158 0
 1087 0316 484A     		ldr	r2, .L109+48
 1088 0318 494B     		ldr	r3, .L109+56
 1089 031a 1A60     		str	r2, [r3]	@ float
 1090              	.L63:
 161:main.c        ****          PotenciaEntregada=0;
 1091              		.loc 1 161 0
 1092 031c 0021     		movs	r1, #0
 1093 031e 484B     		ldr	r3, .L109+56
 1094 0320 1868     		ldr	r0, [r3]	@ float
 1095 0322 FFF7FEFF 		bl	__aeabi_fcmplt
 1096              	.LVL60:
 1097 0326 10B1     		cbz	r0, .L65
 162:main.c        ****       }
 1098              		.loc 1 162 0
 1099 0328 0022     		movs	r2, #0
 1100 032a 454B     		ldr	r3, .L109+56
 1101 032c 1A60     		str	r2, [r3]	@ float
 1102              	.L65:
 165:main.c        ****    }else{
 1103              		.loc 1 165 0
 1104 032e 4B4B     		ldr	r3, .L109+84
 1105 0330 1878     		ldrb	r0, [r3]	@ zero_extendqisi2
 1106 0332 FFF7FEFF 		bl	__aeabi_i2f
 1107              	.LVL61:
 1108 0336 424B     		ldr	r3, .L109+56
 1109 0338 1968     		ldr	r1, [r3]	@ float
 1110 033a FFF7FEFF 		bl	__aeabi_fmul
 1111              	.LVL62:
 1112 033e 3E49     		ldr	r1, .L109+48
 1113 0340 FFF7FEFF 		bl	__aeabi_fdiv
 1114              	.LVL63:
 1115 0344 464B     		ldr	r3, .L109+88
 1116 0346 1860     		str	r0, [r3]	@ float
 1117 0348 F4E0     		b	.L67
 1118              	.L103:
ARM GAS  C:\Users\JPELEC~1\AppData\Local\Temp\ccEetrge.s 			page 36


 168:main.c        ****       
 1119              		.loc 1 168 0
 1120 034a 464B     		ldr	r3, .L109+92
 1121 034c 1E88     		ldrh	r6, [r3]
 1122 034e 3046     		mov	r0, r6
 1123 0350 FFF7FEFF 		bl	__aeabi_i2d
 1124              	.LVL64:
 1125 0354 0022     		movs	r2, #0
 1126 0356 444B     		ldr	r3, .L109+96
 1127 0358 FFF7FEFF 		bl	__aeabi_dadd
 1128              	.LVL65:
 1129 035c 0446     		mov	r4, r0
 1130 035e 0D46     		mov	r5, r1
 1131 0360 344B     		ldr	r3, .L109+44
 1132 0362 1868     		ldr	r0, [r3]	@ float
 1133 0364 FFF7FEFF 		bl	__aeabi_f2d
 1134              	.LVL66:
 1135 0368 0246     		mov	r2, r0
 1136 036a 0B46     		mov	r3, r1
 1137 036c 2046     		mov	r0, r4
 1138 036e 2946     		mov	r1, r5
 1139 0370 FFF7FEFF 		bl	__aeabi_dsub
 1140              	.LVL67:
 1141 0374 FFF7FEFF 		bl	__aeabi_d2f
 1142              	.LVL68:
 1143 0378 0446     		mov	r4, r0
 1144 037a 3C4B     		ldr	r3, .L109+100
 1145 037c 1860     		str	r0, [r3]	@ float
 170:main.c        ****          if(Potencia<90.0){
 1146              		.loc 1 170 0
 1147 037e 3C49     		ldr	r1, .L109+104
 1148 0380 FFF7FEFF 		bl	__aeabi_fcmpgt
 1149              	.LVL69:
 1150 0384 0028     		cmp	r0, #0
 1151 0386 00F09A80 		beq	.L68
 170:main.c        ****          if(Potencia<90.0){
 1152              		.loc 1 170 0 is_stmt 0 discriminator 1
 1153 038a 3A4B     		ldr	r3, .L109+108
 1154 038c 1D68     		ldr	r5, [r3]	@ float
 1155 038e 4FF07E51 		mov	r1, #1065353216
 1156 0392 2846     		mov	r0, r5
 1157 0394 FFF7FEFF 		bl	__aeabi_fcmplt
 1158              	.LVL70:
 1159 0398 0028     		cmp	r0, #0
 1160 039a 00F09080 		beq	.L68
 171:main.c        ****             if(TiempoControl>=Derivativo){
 1161              		.loc 1 171 0 is_stmt 1
 1162 039e 3649     		ldr	r1, .L109+112
 1163 03a0 364B     		ldr	r3, .L109+116
 1164 03a2 1868     		ldr	r0, [r3]	@ float
 1165 03a4 FFF7FEFF 		bl	__aeabi_fcmplt
 1166              	.LVL71:
 1167 03a8 0028     		cmp	r0, #0
 1168 03aa 00F08880 		beq	.L68
 172:main.c        ****                TiempoControl=0;
 1169              		.loc 1 172 0
 1170 03ae 344B     		ldr	r3, .L109+120
ARM GAS  C:\Users\JPELEC~1\AppData\Local\Temp\ccEetrge.s 			page 37


 1171 03b0 1A78     		ldrb	r2, [r3]	@ zero_extendqisi2
 1172 03b2 344B     		ldr	r3, .L109+124
 1173 03b4 1B88     		ldrh	r3, [r3]
 1174 03b6 9A42     		cmp	r2, r3
 1175 03b8 00F28180 		bhi	.L68
 173:main.c        ****                if(Aumento<-2){
 1176              		.loc 1 173 0
 1177 03bc 0022     		movs	r2, #0
 1178 03be 314B     		ldr	r3, .L109+124
 1179 03c0 1A80     		strh	r2, [r3]	@ movhi
 174:main.c        ****                   Ganancia+=Integral+1;
 1180              		.loc 1 174 0
 1181 03c2 4FF04041 		mov	r1, #-1073741824
 1182 03c6 2846     		mov	r0, r5
 1183 03c8 FFF7FEFF 		bl	__aeabi_fcmplt
 1184              	.LVL72:
 1185 03cc 50B1     		cbz	r0, .L104
 175:main.c        ****                }else{
 1186              		.loc 1 175 0
 1187 03ce 2E4B     		ldr	r3, .L109+128
 1188 03d0 1878     		ldrb	r0, [r3]	@ zero_extendqisi2
 1189 03d2 2E4D     		ldr	r5, .L109+132
 1190 03d4 0130     		adds	r0, r0, #1
 1191 03d6 FFF7FEFF 		bl	__aeabi_i2f
 1192              	.LVL73:
 1193 03da 2968     		ldr	r1, [r5]	@ float
 1194 03dc FFF7FEFF 		bl	__aeabi_fadd
 1195              	.LVL74:
 1196 03e0 2860     		str	r0, [r5]	@ float
 1197 03e2 6CE0     		b	.L68
 1198              	.L104:
 177:main.c        ****                      Ganancia+=Integral;
 1199              		.loc 1 177 0
 1200 03e4 2A49     		ldr	r1, .L109+136
 1201 03e6 2846     		mov	r0, r5
 1202 03e8 FFF7FEFF 		bl	__aeabi_fcmplt
 1203              	.LVL75:
 1204 03ec 0028     		cmp	r0, #0
 1205 03ee 51D0     		beq	.L105
 178:main.c        ****                   }else{
 1206              		.loc 1 178 0
 1207 03f0 264D     		ldr	r5, .L109+132
 1208 03f2 254B     		ldr	r3, .L109+128
 1209 03f4 1878     		ldrb	r0, [r3]	@ zero_extendqisi2
 1210 03f6 FFF7FEFF 		bl	__aeabi_i2f
 1211              	.LVL76:
 1212 03fa 2968     		ldr	r1, [r5]	@ float
 1213 03fc FFF7FEFF 		bl	__aeabi_fadd
 1214              	.LVL77:
 1215 0400 2860     		str	r0, [r5]	@ float
 1216 0402 5CE0     		b	.L68
 1217              	.L110:
 1218 0404 AFF30080 		.align	3
 1219              	.L109:
 1220 0408 CDCCCCCC 		.word	-858993459
 1221 040c CCCCEC3F 		.word	1072483532
 1222 0410 9A999999 		.word	-1717986918
ARM GAS  C:\Users\JPELEC~1\AppData\Local\Temp\ccEetrge.s 			page 38


 1223 0414 9999E93F 		.word	1072273817
 1224 0418 66666666 		.word	1717986918
 1225 041c 6666E63F 		.word	1072064102
 1226 0420 33333333 		.word	858993459
 1227 0424 3333E33F 		.word	1071854387
 1228 0428 00000000 		.word	Programa
 1229 042c 00000000 		.word	Programas
 1230 0430 00000000 		.word	TemperaturaIdeal
 1231 0434 00000000 		.word	Temperatura
 1232 0438 0000C842 		.word	1120403456
 1233 043c 00000000 		.word	.LANCHOR1
 1234 0440 00000000 		.word	PotenciaEntregada
 1235 0444 0000E143 		.word	1138819072
 1236 0448 00004843 		.word	1128792064
 1237 044c 00000000 		.word	penInicial
 1238 0450 00001644 		.word	1142292480
 1239 0454 00006144 		.word	1147207680
 1240 0458 00009644 		.word	1150681088
 1241 045c 00000000 		.word	Tciclo
 1242 0460 00000000 		.word	Tpulso
 1243 0464 00000000 		.word	Setpoint
 1244 0468 00000840 		.word	1074266112
 1245 046c 00000000 		.word	error
 1246 0470 00004040 		.word	1077936128
 1247 0474 00000000 		.word	Aumento
 1248 0478 0000B442 		.word	1119092736
 1249 047c 00000000 		.word	Potencia
 1250 0480 00000000 		.word	Derivativo
 1251 0484 00000000 		.word	TiempoControl
 1252 0488 00000000 		.word	Integral
 1253 048c 00000000 		.word	Ganancia
 1254 0490 000080BF 		.word	-1082130432
 1255              	.L105:
 180:main.c        ****                   }
 1256              		.loc 1 180 0
 1257 0494 3A4B     		ldr	r3, .L111+8
 1258 0496 1878     		ldrb	r0, [r3]	@ zero_extendqisi2
 1259 0498 FFF7FEFF 		bl	__aeabi_i2d
 1260              	.LVL78:
 1261 049c 0022     		movs	r2, #0
 1262 049e 394B     		ldr	r3, .L111+12
 1263 04a0 FFF7FEFF 		bl	__aeabi_dsub
 1264              	.LVL79:
 1265 04a4 8046     		mov	r8, r0
 1266 04a6 8946     		mov	r9, r1
 1267 04a8 374D     		ldr	r5, .L111+16
 1268 04aa 2868     		ldr	r0, [r5]	@ float
 1269 04ac FFF7FEFF 		bl	__aeabi_f2d
 1270              	.LVL80:
 1271 04b0 4246     		mov	r2, r8
 1272 04b2 4B46     		mov	r3, r9
 1273 04b4 FFF7FEFF 		bl	__aeabi_dadd
 1274              	.LVL81:
 1275 04b8 FFF7FEFF 		bl	__aeabi_d2f
 1276              	.LVL82:
 1277 04bc 2860     		str	r0, [r5]	@ float
 1278              	.L68:
ARM GAS  C:\Users\JPELEC~1\AppData\Local\Temp\ccEetrge.s 			page 39


 187:main.c        ****          Ganancia=0.5;
 1279              		.loc 1 187 0
 1280 04be 4FF07C51 		mov	r1, #1056964608
 1281 04c2 314B     		ldr	r3, .L111+16
 1282 04c4 1868     		ldr	r0, [r3]	@ float
 1283 04c6 FFF7FEFF 		bl	__aeabi_fcmplt
 1284              	.LVL83:
 1285 04ca 18B1     		cbz	r0, .L76
 188:main.c        ****       }
 1286              		.loc 1 188 0
 1287 04cc 4FF07C52 		mov	r2, #1056964608
 1288 04d0 2D4B     		ldr	r3, .L111+16
 1289 04d2 1A60     		str	r2, [r3]	@ float
 1290              	.L76:
 192:main.c        ****          error=0.0;
 1291              		.loc 1 192 0
 1292 04d4 0021     		movs	r1, #0
 1293 04d6 2046     		mov	r0, r4
 1294 04d8 FFF7FEFF 		bl	__aeabi_fcmplt
 1295              	.LVL84:
 1296 04dc 10B1     		cbz	r0, .L78
 193:main.c        ****    
 1297              		.loc 1 193 0
 1298 04de 0022     		movs	r2, #0
 1299 04e0 2A4B     		ldr	r3, .L111+20
 1300 04e2 1A60     		str	r2, [r3]	@ float
 1301              	.L78:
 195:main.c        ****             
 1302              		.loc 1 195 0
 1303 04e4 284B     		ldr	r3, .L111+16
 1304 04e6 1968     		ldr	r1, [r3]	@ float
 1305 04e8 284B     		ldr	r3, .L111+20
 1306 04ea 1868     		ldr	r0, [r3]	@ float
 1307 04ec FFF7FEFF 		bl	__aeabi_fmul
 1308              	.LVL85:
 1309 04f0 0446     		mov	r4, r0
 1310              	.LVL86:
 197:main.c        ****          tmp=Setpoint;
 1311              		.loc 1 197 0
 1312 04f2 3046     		mov	r0, r6
 1313              	.LVL87:
 1314 04f4 FFF7FEFF 		bl	__aeabi_i2f
 1315              	.LVL88:
 1316 04f8 0546     		mov	r5, r0
 1317 04fa 0146     		mov	r1, r0
 1318 04fc 2046     		mov	r0, r4
 1319 04fe FFF7FEFF 		bl	__aeabi_fcmpgt
 1320              	.LVL89:
 1321 0502 18B1     		cbz	r0, .L80
 198:main.c        ****                   
 1322              		.loc 1 198 0
 1323 0504 3046     		mov	r0, r6
 1324 0506 FFF7FEFF 		bl	__aeabi_ui2f
 1325              	.LVL90:
 1326 050a 0446     		mov	r4, r0
 1327              	.LVL91:
 1328              	.L80:
ARM GAS  C:\Users\JPELEC~1\AppData\Local\Temp\ccEetrge.s 			page 40


 200:main.c        ****          tmp=0.0;
 1329              		.loc 1 200 0
 1330 050c 0021     		movs	r1, #0
 1331 050e 2046     		mov	r0, r4
 1332 0510 FFF7FEFF 		bl	__aeabi_fcmplt
 1333              	.LVL92:
 1334 0514 00B1     		cbz	r0, .L82
 201:main.c        ****       
 1335              		.loc 1 201 0
 1336 0516 0024     		movs	r4, #0
 1337              	.LVL93:
 1338              	.L82:
 205:main.c        ****       
 1339              		.loc 1 205 0
 1340 0518 2946     		mov	r1, r5
 1341 051a 2046     		mov	r0, r4
 1342 051c FFF7FEFF 		bl	__aeabi_fdiv
 1343              	.LVL94:
 1344 0520 0446     		mov	r4, r0
 1345              	.LVL95:
 1346 0522 1B4B     		ldr	r3, .L111+24
 1347 0524 1878     		ldrb	r0, [r3]	@ zero_extendqisi2
 1348 0526 FFF7FEFF 		bl	__aeabi_i2f
 1349              	.LVL96:
 1350 052a 2146     		mov	r1, r4
 1351 052c FFF7FEFF 		bl	__aeabi_fmul
 1352              	.LVL97:
 1353 0530 184B     		ldr	r3, .L111+28
 1354 0532 1860     		str	r0, [r3]	@ float
 1355              	.L67:
 208:main.c        ****    Tc=(Tciclo/0.002);
 1356              		.loc 1 208 0
 1357 0534 174B     		ldr	r3, .L111+28
 1358 0536 1868     		ldr	r0, [r3]	@ float
 1359 0538 FFF7FEFF 		bl	__aeabi_f2d
 1360              	.LVL98:
 1361 053c 0EA3     		adr	r3, .L111
 1362 053e D3E90023 		ldrd	r2, [r3]
 1363 0542 FFF7FEFF 		bl	__aeabi_ddiv
 1364              	.LVL99:
 1365 0546 FFF7FEFF 		bl	__aeabi_d2uiz
 1366              	.LVL100:
 1367 054a 134B     		ldr	r3, .L111+32
 1368 054c 1880     		strh	r0, [r3]	@ movhi
 209:main.c        ****    Control=1;     
 1369              		.loc 1 209 0
 1370 054e 104B     		ldr	r3, .L111+24
 1371 0550 1878     		ldrb	r0, [r3]	@ zero_extendqisi2
 1372 0552 FFF7FEFF 		bl	__aeabi_i2d
 1373              	.LVL101:
 1374 0556 08A3     		adr	r3, .L111
 1375 0558 D3E90023 		ldrd	r2, [r3]
 1376 055c FFF7FEFF 		bl	__aeabi_ddiv
 1377              	.LVL102:
 1378 0560 FFF7FEFF 		bl	__aeabi_d2uiz
 1379              	.LVL103:
 1380 0564 0D4B     		ldr	r3, .L111+36
ARM GAS  C:\Users\JPELEC~1\AppData\Local\Temp\ccEetrge.s 			page 41


 1381 0566 1880     		strh	r0, [r3]	@ movhi
 210:main.c        **** //-------------------------------------------------------------------------------------------------
 1382              		.loc 1 210 0
 1383 0568 0122     		movs	r2, #1
 1384 056a 0D4B     		ldr	r3, .L111+40
 1385 056c 1A80     		strh	r2, [r3]	@ movhi
 213:main.c        **** 
 1386              		.loc 1 213 0
 1387 056e 03B0     		add	sp, sp, #12
 1388              		.cfi_def_cfa_offset 36
 1389              		@ sp needed
 1390 0570 BDE8F08F 		pop	{r4, r5, r6, r7, r8, r9, r10, fp, pc}
 1391              	.L112:
 1392 0574 AFF30080 		.align	3
 1393              	.L111:
 1394 0578 FCA9F1D2 		.word	-755914244
 1395 057c 4D62603F 		.word	1063281229
 1396 0580 00000000 		.word	Integral
 1397 0584 0000E03F 		.word	1071644672
 1398 0588 00000000 		.word	Ganancia
 1399 058c 00000000 		.word	error
 1400 0590 00000000 		.word	Tciclo
 1401 0594 00000000 		.word	Tpulso
 1402 0598 00000000 		.word	Tp
 1403 059c 00000000 		.word	Tc
 1404 05a0 00000000 		.word	Control
 1405              		.cfi_endproc
 1406              	.LFE66:
 1407              		.size	Controla, .-Controla
 1408              		.section	.text.CuentaTiempo,"ax",%progbits
 1409              		.align	2
 1410              		.global	CuentaTiempo
 1411              		.thumb
 1412              		.thumb_func
 1413              		.type	CuentaTiempo, %function
 1414              	CuentaTiempo:
 1415              	.LFB67:
 215:main.c        ****       if(tinicio>=60){
 1416              		.loc 1 215 0
 1417              		.cfi_startproc
 1418              		@ args = 0, pretend = 0, frame = 0
 1419              		@ frame_needed = 0, uses_anonymous_args = 0
 216:main.c        ****          tinicio=0;
 1420              		.loc 1 216 0
 1421 0000 124B     		ldr	r3, .L117
 1422 0002 1B88     		ldrh	r3, [r3]
 1423 0004 3B2B     		cmp	r3, #59
 1424 0006 1FD9     		bls	.L116
 215:main.c        ****       if(tinicio>=60){
 1425              		.loc 1 215 0
 1426 0008 10B5     		push	{r4, lr}
 1427              		.cfi_def_cfa_offset 8
 1428              		.cfi_offset 4, -8
 1429              		.cfi_offset 14, -4
 217:main.c        ****          mEst+=1.0;
 1430              		.loc 1 217 0
 1431 000a 0022     		movs	r2, #0
ARM GAS  C:\Users\JPELEC~1\AppData\Local\Temp\ccEetrge.s 			page 42


 1432 000c 0F4B     		ldr	r3, .L117
 1433 000e 1A80     		strh	r2, [r3]	@ movhi
 218:main.c        ****          if(mEst>59){
 1434              		.loc 1 218 0
 1435 0010 0F4C     		ldr	r4, .L117+4
 1436 0012 2078     		ldrb	r0, [r4]	@ zero_extendqisi2
 1437 0014 FFF7FEFF 		bl	__aeabi_i2d
 1438              	.LVL104:
 1439 0018 0022     		movs	r2, #0
 1440 001a 0E4B     		ldr	r3, .L117+8
 1441 001c FFF7FEFF 		bl	__aeabi_dadd
 1442              	.LVL105:
 1443 0020 FFF7FEFF 		bl	__aeabi_d2uiz
 1444              	.LVL106:
 1445 0024 C0B2     		uxtb	r0, r0
 1446 0026 2070     		strb	r0, [r4]
 219:main.c        ****             mEst=0;
 1447              		.loc 1 219 0
 1448 0028 3B28     		cmp	r0, #59
 1449 002a 0CD9     		bls	.L113
 220:main.c        ****             hEst+=1.0;
 1450              		.loc 1 220 0
 1451 002c 0022     		movs	r2, #0
 1452 002e 2270     		strb	r2, [r4]
 221:main.c        ****          }
 1453              		.loc 1 221 0
 1454 0030 094C     		ldr	r4, .L117+12
 1455 0032 2078     		ldrb	r0, [r4]	@ zero_extendqisi2
 1456 0034 FFF7FEFF 		bl	__aeabi_i2d
 1457              	.LVL107:
 1458 0038 0022     		movs	r2, #0
 1459 003a 064B     		ldr	r3, .L117+8
 1460 003c FFF7FEFF 		bl	__aeabi_dadd
 1461              	.LVL108:
 1462 0040 FFF7FEFF 		bl	__aeabi_d2uiz
 1463              	.LVL109:
 1464 0044 2070     		strb	r0, [r4]
 1465              	.L113:
 1466 0046 10BD     		pop	{r4, pc}
 1467              	.L116:
 1468              		.cfi_def_cfa_offset 0
 1469              		.cfi_restore 4
 1470              		.cfi_restore 14
 1471 0048 7047     		bx	lr
 1472              	.L118:
 1473 004a 00BF     		.align	2
 1474              	.L117:
 1475 004c 00000000 		.word	tinicio
 1476 0050 00000000 		.word	mEst
 1477 0054 0000F03F 		.word	1072693248
 1478 0058 00000000 		.word	hEst
 1479              		.cfi_endproc
 1480              	.LFE67:
 1481              		.size	CuentaTiempo, .-CuentaTiempo
 1482              		.section	.text.iniciaConteo,"ax",%progbits
 1483              		.align	2
 1484              		.global	iniciaConteo
ARM GAS  C:\Users\JPELEC~1\AppData\Local\Temp\ccEetrge.s 			page 43


 1485              		.thumb
 1486              		.thumb_func
 1487              		.type	iniciaConteo, %function
 1488              	iniciaConteo:
 1489              	.LFB68:
 226:main.c        ****    if(Pendiente!=0){
 1490              		.loc 1 226 0
 1491              		.cfi_startproc
 1492              		@ args = 0, pretend = 0, frame = 0
 1493              		@ frame_needed = 0, uses_anonymous_args = 0
 1494 0000 10B5     		push	{r4, lr}
 1495              		.cfi_def_cfa_offset 8
 1496              		.cfi_offset 4, -8
 1497              		.cfi_offset 14, -4
 227:main.c        ****         if(flagRampa)
 1498              		.loc 1 227 0
 1499 0002 144B     		ldr	r3, .L130
 1500 0004 1C68     		ldr	r4, [r3]	@ float
 1501 0006 0021     		movs	r1, #0
 1502 0008 2046     		mov	r0, r4
 1503 000a FFF7FEFF 		bl	__aeabi_fcmpeq
 1504              	.LVL110:
 1505 000e 58B9     		cbnz	r0, .L128
 228:main.c        ****             tiempo_esterilizacion=1;
 1506              		.loc 1 228 0
 1507 0010 114B     		ldr	r3, .L130+4
 1508 0012 B3F90030 		ldrsh	r3, [r3]
 1509 0016 1BB1     		cbz	r3, .L122
 229:main.c        ****         else
 1510              		.loc 1 229 0
 1511 0018 0122     		movs	r2, #1
 1512 001a 104B     		ldr	r3, .L130+8
 1513 001c 1A70     		strb	r2, [r3]
 1514 001e 10BD     		pop	{r4, pc}
 1515              	.L122:
 231:main.c        ****    }else if(Pendiente==0){
 1516              		.loc 1 231 0
 1517 0020 0022     		movs	r2, #0
 1518 0022 0E4B     		ldr	r3, .L130+8
 1519 0024 1A70     		strb	r2, [r3]
 1520 0026 10BD     		pop	{r4, pc}
 1521              	.L128:
 232:main.c        ****       if(flagTemperatura && flagRampa)
 1522              		.loc 1 232 0
 1523 0028 0021     		movs	r1, #0
 1524 002a 2046     		mov	r0, r4
 1525 002c FFF7FEFF 		bl	__aeabi_fcmpeq
 1526              	.LVL111:
 1527 0030 70B1     		cbz	r0, .L119
 233:main.c        ****          tiempo_esterilizacion=1;
 1528              		.loc 1 233 0
 1529 0032 0B4B     		ldr	r3, .L130+12
 1530 0034 B3F90030 		ldrsh	r3, [r3]
 1531 0038 3BB1     		cbz	r3, .L125
 233:main.c        ****          tiempo_esterilizacion=1;
 1532              		.loc 1 233 0 is_stmt 0 discriminator 1
 1533 003a 074B     		ldr	r3, .L130+4
ARM GAS  C:\Users\JPELEC~1\AppData\Local\Temp\ccEetrge.s 			page 44


 1534 003c B3F90030 		ldrsh	r3, [r3]
 1535 0040 1BB1     		cbz	r3, .L125
 234:main.c        ****       else
 1536              		.loc 1 234 0 is_stmt 1
 1537 0042 0122     		movs	r2, #1
 1538 0044 054B     		ldr	r3, .L130+8
 1539 0046 1A70     		strb	r2, [r3]
 1540 0048 10BD     		pop	{r4, pc}
 1541              	.L125:
 236:main.c        ****    }
 1542              		.loc 1 236 0
 1543 004a 0022     		movs	r2, #0
 1544 004c 034B     		ldr	r3, .L130+8
 1545 004e 1A70     		strb	r2, [r3]
 1546              	.L119:
 1547 0050 10BD     		pop	{r4, pc}
 1548              	.L131:
 1549 0052 00BF     		.align	2
 1550              	.L130:
 1551 0054 00000000 		.word	Pendiente
 1552 0058 00000000 		.word	flagRampa
 1553 005c 00000000 		.word	tiempo_esterilizacion
 1554 0060 00000000 		.word	flagTemperatura
 1555              		.cfi_endproc
 1556              	.LFE68:
 1557              		.size	iniciaConteo, .-iniciaConteo
 1558              		.section	.text.escribeDisplay1,"ax",%progbits
 1559              		.align	2
 1560              		.global	escribeDisplay1
 1561              		.thumb
 1562              		.thumb_func
 1563              		.type	escribeDisplay1, %function
 1564              	escribeDisplay1:
 1565              	.LFB69:
 240:main.c        ****     UART_1_PutString(Buffer);
 1566              		.loc 1 240 0
 1567              		.cfi_startproc
 1568              		@ args = 0, pretend = 0, frame = 0
 1569              		@ frame_needed = 0, uses_anonymous_args = 0
 1570              	.LVL112:
 1571 0000 08B5     		push	{r3, lr}
 1572              		.cfi_def_cfa_offset 8
 1573              		.cfi_offset 3, -8
 1574              		.cfi_offset 14, -4
 241:main.c        ****     CyDelayUs(10);
 1575              		.loc 1 241 0
 1576 0002 FFF7FEFF 		bl	UART_1_PutString
 1577              	.LVL113:
 242:main.c        ****     UART_1_PutChar(0xFF);
 1578              		.loc 1 242 0
 1579 0006 0A20     		movs	r0, #10
 1580 0008 FFF7FEFF 		bl	CyDelayUs
 1581              	.LVL114:
 243:main.c        ****     CyDelayUs(10);
 1582              		.loc 1 243 0
 1583 000c FF20     		movs	r0, #255
 1584 000e FFF7FEFF 		bl	UART_1_PutChar
ARM GAS  C:\Users\JPELEC~1\AppData\Local\Temp\ccEetrge.s 			page 45


 1585              	.LVL115:
 244:main.c        ****     UART_1_PutChar(0xFF);
 1586              		.loc 1 244 0
 1587 0012 0A20     		movs	r0, #10
 1588 0014 FFF7FEFF 		bl	CyDelayUs
 1589              	.LVL116:
 245:main.c        ****     CyDelayUs(10);
 1590              		.loc 1 245 0
 1591 0018 FF20     		movs	r0, #255
 1592 001a FFF7FEFF 		bl	UART_1_PutChar
 1593              	.LVL117:
 246:main.c        ****     UART_1_PutChar(0xFF);
 1594              		.loc 1 246 0
 1595 001e 0A20     		movs	r0, #10
 1596 0020 FFF7FEFF 		bl	CyDelayUs
 1597              	.LVL118:
 247:main.c        ****     CyDelayUs(10);
 1598              		.loc 1 247 0
 1599 0024 FF20     		movs	r0, #255
 1600 0026 FFF7FEFF 		bl	UART_1_PutChar
 1601              	.LVL119:
 248:main.c        **** }
 1602              		.loc 1 248 0
 1603 002a 0A20     		movs	r0, #10
 1604 002c FFF7FEFF 		bl	CyDelayUs
 1605              	.LVL120:
 1606 0030 08BD     		pop	{r3, pc}
 1607              		.cfi_endproc
 1608              	.LFE69:
 1609              		.size	escribeDisplay1, .-escribeDisplay1
 1610 0032 00BF     		.section	.text.escribeDisplay2,"ax",%progbits
 1611              		.align	2
 1612              		.global	escribeDisplay2
 1613              		.thumb
 1614              		.thumb_func
 1615              		.type	escribeDisplay2, %function
 1616              	escribeDisplay2:
 1617              	.LFB70:
 251:main.c        ****     UART_2_PutString(Buffer);
 1618              		.loc 1 251 0
 1619              		.cfi_startproc
 1620              		@ args = 0, pretend = 0, frame = 0
 1621              		@ frame_needed = 0, uses_anonymous_args = 0
 1622              	.LVL121:
 1623 0000 08B5     		push	{r3, lr}
 1624              		.cfi_def_cfa_offset 8
 1625              		.cfi_offset 3, -8
 1626              		.cfi_offset 14, -4
 252:main.c        ****     CyDelayUs(10);
 1627              		.loc 1 252 0
 1628 0002 FFF7FEFF 		bl	UART_2_PutString
 1629              	.LVL122:
 253:main.c        ****     UART_2_PutChar(0xFF);
 1630              		.loc 1 253 0
 1631 0006 0A20     		movs	r0, #10
 1632 0008 FFF7FEFF 		bl	CyDelayUs
 1633              	.LVL123:
ARM GAS  C:\Users\JPELEC~1\AppData\Local\Temp\ccEetrge.s 			page 46


 254:main.c        ****     CyDelayUs(10);
 1634              		.loc 1 254 0
 1635 000c FF20     		movs	r0, #255
 1636 000e FFF7FEFF 		bl	UART_2_PutChar
 1637              	.LVL124:
 255:main.c        ****     UART_2_PutChar(0xFF);
 1638              		.loc 1 255 0
 1639 0012 0A20     		movs	r0, #10
 1640 0014 FFF7FEFF 		bl	CyDelayUs
 1641              	.LVL125:
 256:main.c        ****     CyDelayUs(10);
 1642              		.loc 1 256 0
 1643 0018 FF20     		movs	r0, #255
 1644 001a FFF7FEFF 		bl	UART_2_PutChar
 1645              	.LVL126:
 257:main.c        ****     UART_2_PutChar(0xFF);
 1646              		.loc 1 257 0
 1647 001e 0A20     		movs	r0, #10
 1648 0020 FFF7FEFF 		bl	CyDelayUs
 1649              	.LVL127:
 258:main.c        ****     CyDelayUs(10);
 1650              		.loc 1 258 0
 1651 0024 FF20     		movs	r0, #255
 1652 0026 FFF7FEFF 		bl	UART_2_PutChar
 1653              	.LVL128:
 259:main.c        **** }
 1654              		.loc 1 259 0
 1655 002a 0A20     		movs	r0, #10
 1656 002c FFF7FEFF 		bl	CyDelayUs
 1657              	.LVL129:
 1658 0030 08BD     		pop	{r3, pc}
 1659              		.cfi_endproc
 1660              	.LFE70:
 1661              		.size	escribeDisplay2, .-escribeDisplay2
 1662              		.global	__aeabi_dcmplt
 1663 0032 00BF     		.section	.text.dibujaGrafico,"ax",%progbits
 1664              		.align	2
 1665              		.global	dibujaGrafico
 1666              		.thumb
 1667              		.thumb_func
 1668              		.type	dibujaGrafico, %function
 1669              	dibujaGrafico:
 1670              	.LFB71:
 262:main.c        ****              
 1671              		.loc 1 262 0
 1672              		.cfi_startproc
 1673              		@ args = 0, pretend = 0, frame = 0
 1674              		@ frame_needed = 0, uses_anonymous_args = 0
 1675 0000 10B5     		push	{r4, lr}
 1676              		.cfi_def_cfa_offset 8
 1677              		.cfi_offset 4, -8
 1678              		.cfi_offset 14, -4
 265:main.c        ****                 b=Temperatura;
 1679              		.loc 1 265 0
 1680 0002 9F4B     		ldr	r3, .L185+8
 1681 0004 1B78     		ldrb	r3, [r3]	@ zero_extendqisi2
 1682 0006 013B     		subs	r3, r3, #1
ARM GAS  C:\Users\JPELEC~1\AppData\Local\Temp\ccEetrge.s 			page 47


 1683 0008 03EB8303 		add	r3, r3, r3, lsl #2
 1684 000c 5A01     		lsls	r2, r3, #5
 1685 000e 9D4B     		ldr	r3, .L185+12
 1686 0010 1A44     		add	r2, r2, r3
 1687 0012 9D4B     		ldr	r3, .L185+16
 1688 0014 1C68     		ldr	r4, [r3]	@ float
 1689 0016 D088     		ldrh	r0, [r2, #6]
 1690 0018 FFF7FEFF 		bl	__aeabi_i2f
 1691              	.LVL130:
 1692 001c 2146     		mov	r1, r4
 1693 001e FFF7FEFF 		bl	__aeabi_fsub
 1694              	.LVL131:
 1695 0022 9A49     		ldr	r1, .L185+20
 1696 0024 FFF7FEFF 		bl	__aeabi_fdiv
 1697              	.LVL132:
 1698 0028 994B     		ldr	r3, .L185+24
 1699 002a 1860     		str	r0, [r3]	@ float
 266:main.c        ****                 
 1700              		.loc 1 266 0
 1701 002c 994B     		ldr	r3, .L185+28
 1702 002e 1C60     		str	r4, [r3]	@ float
 268:main.c        ****                     valor=(pendiente*n)+b;
 1703              		.loc 1 268 0
 1704 0030 0022     		movs	r2, #0
 1705 0032 994B     		ldr	r3, .L185+32
 1706 0034 1A70     		strb	r2, [r3]
 1707 0036 25E0     		b	.L137
 1708              	.L138:
 269:main.c        ****                     sprintf(displayStr,"add 1,0,%u",(uint8)(valor*DIVISION));
 1709              		.loc 1 269 0 discriminator 3
 1710 0038 2046     		mov	r0, r4
 1711 003a FFF7FEFF 		bl	__aeabi_i2f
 1712              	.LVL133:
 1713 003e 944B     		ldr	r3, .L185+24
 1714 0040 1968     		ldr	r1, [r3]	@ float
 1715 0042 FFF7FEFF 		bl	__aeabi_fmul
 1716              	.LVL134:
 1717 0046 934B     		ldr	r3, .L185+28
 1718 0048 1968     		ldr	r1, [r3]	@ float
 1719 004a FFF7FEFF 		bl	__aeabi_fadd
 1720              	.LVL135:
 1721 004e 934B     		ldr	r3, .L185+36
 1722 0050 1860     		str	r0, [r3]	@ float
 270:main.c        ****                     escribeDisplay1(displayStr);  
 1723              		.loc 1 270 0 discriminator 3
 1724 0052 FFF7FEFF 		bl	__aeabi_f2d
 1725              	.LVL136:
 1726 0056 88A3     		adr	r3, .L185
 1727 0058 D3E90023 		ldrd	r2, [r3]
 1728 005c FFF7FEFF 		bl	__aeabi_dmul
 1729              	.LVL137:
 1730 0060 FFF7FEFF 		bl	__aeabi_d2uiz
 1731              	.LVL138:
 1732 0064 8E4C     		ldr	r4, .L185+40
 1733 0066 C2B2     		uxtb	r2, r0
 1734 0068 8E49     		ldr	r1, .L185+44
 1735 006a 2046     		mov	r0, r4
ARM GAS  C:\Users\JPELEC~1\AppData\Local\Temp\ccEetrge.s 			page 48


 1736 006c FFF7FEFF 		bl	sprintf
 1737              	.LVL139:
 271:main.c        ****                     CyDelayUs(1);
 1738              		.loc 1 271 0 discriminator 3
 1739 0070 2046     		mov	r0, r4
 1740 0072 FFF7FEFF 		bl	escribeDisplay1
 1741              	.LVL140:
 272:main.c        ****                 }  
 1742              		.loc 1 272 0 discriminator 3
 1743 0076 0120     		movs	r0, #1
 1744 0078 FFF7FEFF 		bl	CyDelayUs
 1745              	.LVL141:
 268:main.c        ****                     valor=(pendiente*n)+b;
 1746              		.loc 1 268 0 discriminator 3
 1747 007c 864A     		ldr	r2, .L185+32
 1748 007e 1378     		ldrb	r3, [r2]	@ zero_extendqisi2
 1749 0080 0133     		adds	r3, r3, #1
 1750 0082 1370     		strb	r3, [r2]
 1751              	.L137:
 268:main.c        ****                     valor=(pendiente*n)+b;
 1752              		.loc 1 268 0 is_stmt 0 discriminator 1
 1753 0084 844B     		ldr	r3, .L185+32
 1754 0086 1C78     		ldrb	r4, [r3]	@ zero_extendqisi2
 1755 0088 2046     		mov	r0, r4
 1756 008a FFF7FEFF 		bl	__aeabi_i2d
 1757              	.LVL142:
 1758 008e 0022     		movs	r2, #0
 1759 0090 854B     		ldr	r3, .L185+48
 1760 0092 FFF7FEFF 		bl	__aeabi_dcmplt
 1761              	.LVL143:
 1762 0096 0028     		cmp	r0, #0
 1763 0098 CED1     		bne	.L138
 276:main.c        ****                     pendiente=(float)(Programas[Programa-1].rampas[1].Temperatura-Programas[Program
 1764              		.loc 1 276 0 is_stmt 1
 1765 009a 794B     		ldr	r3, .L185+8
 1766 009c 1B78     		ldrb	r3, [r3]	@ zero_extendqisi2
 1767 009e 013B     		subs	r3, r3, #1
 1768 00a0 03EB8301 		add	r1, r3, r3, lsl #2
 1769 00a4 4A01     		lsls	r2, r1, #5
 1770 00a6 7749     		ldr	r1, .L185+12
 1771 00a8 0A44     		add	r2, r2, r1
 1772 00aa D27A     		ldrb	r2, [r2, #11]	@ zero_extendqisi2
 1773 00ac 32B9     		cbnz	r2, .L139
 276:main.c        ****                     pendiente=(float)(Programas[Programa-1].rampas[1].Temperatura-Programas[Program
 1774              		.loc 1 276 0 is_stmt 0 discriminator 1
 1775 00ae 03EB8301 		add	r1, r3, r3, lsl #2
 1776 00b2 4A01     		lsls	r2, r1, #5
 1777 00b4 7349     		ldr	r1, .L185+12
 1778 00b6 0A44     		add	r2, r2, r1
 1779 00b8 127B     		ldrb	r2, [r2, #12]	@ zero_extendqisi2
 1780 00ba A2B1     		cbz	r2, .L140
 1781              	.L139:
 277:main.c        ****                     b=Programas[Programa-1].rampas[0].Temperatura;
 1782              		.loc 1 277 0 is_stmt 1
 1783 00bc 714C     		ldr	r4, .L185+12
 1784 00be 9A00     		lsls	r2, r3, #2
 1785 00c0 D018     		adds	r0, r2, r3
ARM GAS  C:\Users\JPELEC~1\AppData\Local\Temp\ccEetrge.s 			page 49


 1786 00c2 4101     		lsls	r1, r0, #5
 1787 00c4 2144     		add	r1, r1, r4
 1788 00c6 C889     		ldrh	r0, [r1, #14]
 1789 00c8 CC88     		ldrh	r4, [r1, #6]
 1790 00ca 001B     		subs	r0, r0, r4
 1791 00cc FFF7FEFF 		bl	__aeabi_i2f
 1792              	.LVL144:
 1793 00d0 6E49     		ldr	r1, .L185+20
 1794 00d2 FFF7FEFF 		bl	__aeabi_fdiv
 1795              	.LVL145:
 1796 00d6 6E4B     		ldr	r3, .L185+24
 1797 00d8 1860     		str	r0, [r3]	@ float
 278:main.c        ****                 }else{
 1798              		.loc 1 278 0
 1799 00da 2046     		mov	r0, r4
 1800 00dc FFF7FEFF 		bl	__aeabi_ui2f
 1801              	.LVL146:
 1802 00e0 6C4B     		ldr	r3, .L185+28
 1803 00e2 1860     		str	r0, [r3]	@ float
 1804 00e4 04E0     		b	.L141
 1805              	.L140:
 280:main.c        ****                     b=0;
 1806              		.loc 1 280 0
 1807 00e6 0023     		movs	r3, #0
 1808 00e8 694A     		ldr	r2, .L185+24
 1809 00ea 1360     		str	r3, [r2]	@ float
 281:main.c        ****                 }
 1810              		.loc 1 281 0
 1811 00ec 694A     		ldr	r2, .L185+28
 1812 00ee 1360     		str	r3, [r2]	@ float
 1813              	.L141:
 283:main.c        ****                     valor=(pendiente*n)+b;
 1814              		.loc 1 283 0
 1815 00f0 0022     		movs	r2, #0
 1816 00f2 694B     		ldr	r3, .L185+32
 1817 00f4 1A70     		strb	r2, [r3]
 1818 00f6 25E0     		b	.L142
 1819              	.L143:
 284:main.c        ****                     sprintf(displayStr,"add 1,0,%u",(uint8)(valor*DIVISION));
 1820              		.loc 1 284 0 discriminator 3
 1821 00f8 2046     		mov	r0, r4
 1822 00fa FFF7FEFF 		bl	__aeabi_i2f
 1823              	.LVL147:
 1824 00fe 644B     		ldr	r3, .L185+24
 1825 0100 1968     		ldr	r1, [r3]	@ float
 1826 0102 FFF7FEFF 		bl	__aeabi_fmul
 1827              	.LVL148:
 1828 0106 634B     		ldr	r3, .L185+28
 1829 0108 1968     		ldr	r1, [r3]	@ float
 1830 010a FFF7FEFF 		bl	__aeabi_fadd
 1831              	.LVL149:
 1832 010e 634B     		ldr	r3, .L185+36
 1833 0110 1860     		str	r0, [r3]	@ float
 285:main.c        ****                     escribeDisplay1(displayStr);  
 1834              		.loc 1 285 0 discriminator 3
 1835 0112 FFF7FEFF 		bl	__aeabi_f2d
 1836              	.LVL150:
ARM GAS  C:\Users\JPELEC~1\AppData\Local\Temp\ccEetrge.s 			page 50


 1837 0116 58A3     		adr	r3, .L185
 1838 0118 D3E90023 		ldrd	r2, [r3]
 1839 011c FFF7FEFF 		bl	__aeabi_dmul
 1840              	.LVL151:
 1841 0120 FFF7FEFF 		bl	__aeabi_d2uiz
 1842              	.LVL152:
 1843 0124 5E4C     		ldr	r4, .L185+40
 1844 0126 C2B2     		uxtb	r2, r0
 1845 0128 5E49     		ldr	r1, .L185+44
 1846 012a 2046     		mov	r0, r4
 1847 012c FFF7FEFF 		bl	sprintf
 1848              	.LVL153:
 286:main.c        ****                     CyDelayUs(1);
 1849              		.loc 1 286 0 discriminator 3
 1850 0130 2046     		mov	r0, r4
 1851 0132 FFF7FEFF 		bl	escribeDisplay1
 1852              	.LVL154:
 287:main.c        ****                 }
 1853              		.loc 1 287 0 discriminator 3
 1854 0136 0120     		movs	r0, #1
 1855 0138 FFF7FEFF 		bl	CyDelayUs
 1856              	.LVL155:
 283:main.c        ****                     valor=(pendiente*n)+b;
 1857              		.loc 1 283 0 discriminator 3
 1858 013c 564A     		ldr	r2, .L185+32
 1859 013e 1378     		ldrb	r3, [r2]	@ zero_extendqisi2
 1860 0140 0133     		adds	r3, r3, #1
 1861 0142 1370     		strb	r3, [r2]
 1862              	.L142:
 283:main.c        ****                     valor=(pendiente*n)+b;
 1863              		.loc 1 283 0 is_stmt 0 discriminator 1
 1864 0144 544B     		ldr	r3, .L185+32
 1865 0146 1C78     		ldrb	r4, [r3]	@ zero_extendqisi2
 1866 0148 2046     		mov	r0, r4
 1867 014a FFF7FEFF 		bl	__aeabi_i2d
 1868              	.LVL156:
 1869 014e 0022     		movs	r2, #0
 1870 0150 554B     		ldr	r3, .L185+48
 1871 0152 FFF7FEFF 		bl	__aeabi_dcmplt
 1872              	.LVL157:
 1873 0156 0028     		cmp	r0, #0
 1874 0158 CED1     		bne	.L143
 291:main.c        ****                     pendiente=(float)(Programas[Programa-1].rampas[2].Temperatura-Programas[Program
 1875              		.loc 1 291 0 is_stmt 1
 1876 015a 494B     		ldr	r3, .L185+8
 1877 015c 1B78     		ldrb	r3, [r3]	@ zero_extendqisi2
 1878 015e 013B     		subs	r3, r3, #1
 1879 0160 03EB8301 		add	r1, r3, r3, lsl #2
 1880 0164 4A01     		lsls	r2, r1, #5
 1881 0166 4749     		ldr	r1, .L185+12
 1882 0168 0A44     		add	r2, r2, r1
 1883 016a D27C     		ldrb	r2, [r2, #19]	@ zero_extendqisi2
 1884 016c 32B9     		cbnz	r2, .L144
 291:main.c        ****                     pendiente=(float)(Programas[Programa-1].rampas[2].Temperatura-Programas[Program
 1885              		.loc 1 291 0 is_stmt 0 discriminator 1
 1886 016e 03EB8301 		add	r1, r3, r3, lsl #2
 1887 0172 4A01     		lsls	r2, r1, #5
ARM GAS  C:\Users\JPELEC~1\AppData\Local\Temp\ccEetrge.s 			page 51


 1888 0174 4349     		ldr	r1, .L185+12
 1889 0176 0A44     		add	r2, r2, r1
 1890 0178 127D     		ldrb	r2, [r2, #20]	@ zero_extendqisi2
 1891 017a A2B1     		cbz	r2, .L145
 1892              	.L144:
 292:main.c        ****                     b=Programas[Programa-1].rampas[1].Temperatura;
 1893              		.loc 1 292 0 is_stmt 1
 1894 017c 414C     		ldr	r4, .L185+12
 1895 017e 9A00     		lsls	r2, r3, #2
 1896 0180 D018     		adds	r0, r2, r3
 1897 0182 4101     		lsls	r1, r0, #5
 1898 0184 2144     		add	r1, r1, r4
 1899 0186 C88A     		ldrh	r0, [r1, #22]
 1900 0188 CC89     		ldrh	r4, [r1, #14]
 1901 018a 001B     		subs	r0, r0, r4
 1902 018c FFF7FEFF 		bl	__aeabi_i2f
 1903              	.LVL158:
 1904 0190 3E49     		ldr	r1, .L185+20
 1905 0192 FFF7FEFF 		bl	__aeabi_fdiv
 1906              	.LVL159:
 1907 0196 3E4B     		ldr	r3, .L185+24
 1908 0198 1860     		str	r0, [r3]	@ float
 293:main.c        ****                 }else{
 1909              		.loc 1 293 0
 1910 019a 2046     		mov	r0, r4
 1911 019c FFF7FEFF 		bl	__aeabi_ui2f
 1912              	.LVL160:
 1913 01a0 3C4B     		ldr	r3, .L185+28
 1914 01a2 1860     		str	r0, [r3]	@ float
 1915 01a4 04E0     		b	.L146
 1916              	.L145:
 295:main.c        ****                     b=0;
 1917              		.loc 1 295 0
 1918 01a6 0023     		movs	r3, #0
 1919 01a8 394A     		ldr	r2, .L185+24
 1920 01aa 1360     		str	r3, [r2]	@ float
 296:main.c        ****                 }  
 1921              		.loc 1 296 0
 1922 01ac 394A     		ldr	r2, .L185+28
 1923 01ae 1360     		str	r3, [r2]	@ float
 1924              	.L146:
 299:main.c        ****                     valor=(pendiente*n)+b;
 1925              		.loc 1 299 0
 1926 01b0 0022     		movs	r2, #0
 1927 01b2 394B     		ldr	r3, .L185+32
 1928 01b4 1A70     		strb	r2, [r3]
 1929 01b6 25E0     		b	.L147
 1930              	.L148:
 300:main.c        ****                     sprintf(displayStr,"add 1,0,%u",(uint8)(valor*DIVISION));
 1931              		.loc 1 300 0 discriminator 3
 1932 01b8 2046     		mov	r0, r4
 1933 01ba FFF7FEFF 		bl	__aeabi_i2f
 1934              	.LVL161:
 1935 01be 344B     		ldr	r3, .L185+24
 1936 01c0 1968     		ldr	r1, [r3]	@ float
 1937 01c2 FFF7FEFF 		bl	__aeabi_fmul
 1938              	.LVL162:
ARM GAS  C:\Users\JPELEC~1\AppData\Local\Temp\ccEetrge.s 			page 52


 1939 01c6 334B     		ldr	r3, .L185+28
 1940 01c8 1968     		ldr	r1, [r3]	@ float
 1941 01ca FFF7FEFF 		bl	__aeabi_fadd
 1942              	.LVL163:
 1943 01ce 334B     		ldr	r3, .L185+36
 1944 01d0 1860     		str	r0, [r3]	@ float
 301:main.c        ****                     escribeDisplay1(displayStr);  
 1945              		.loc 1 301 0 discriminator 3
 1946 01d2 FFF7FEFF 		bl	__aeabi_f2d
 1947              	.LVL164:
 1948 01d6 28A3     		adr	r3, .L185
 1949 01d8 D3E90023 		ldrd	r2, [r3]
 1950 01dc FFF7FEFF 		bl	__aeabi_dmul
 1951              	.LVL165:
 1952 01e0 FFF7FEFF 		bl	__aeabi_d2uiz
 1953              	.LVL166:
 1954 01e4 2E4C     		ldr	r4, .L185+40
 1955 01e6 C2B2     		uxtb	r2, r0
 1956 01e8 2E49     		ldr	r1, .L185+44
 1957 01ea 2046     		mov	r0, r4
 1958 01ec FFF7FEFF 		bl	sprintf
 1959              	.LVL167:
 302:main.c        ****                     CyDelayUs(1);
 1960              		.loc 1 302 0 discriminator 3
 1961 01f0 2046     		mov	r0, r4
 1962 01f2 FFF7FEFF 		bl	escribeDisplay1
 1963              	.LVL168:
 303:main.c        ****                 }
 1964              		.loc 1 303 0 discriminator 3
 1965 01f6 0120     		movs	r0, #1
 1966 01f8 FFF7FEFF 		bl	CyDelayUs
 1967              	.LVL169:
 299:main.c        ****                     valor=(pendiente*n)+b;
 1968              		.loc 1 299 0 discriminator 3
 1969 01fc 264A     		ldr	r2, .L185+32
 1970 01fe 1378     		ldrb	r3, [r2]	@ zero_extendqisi2
 1971 0200 0133     		adds	r3, r3, #1
 1972 0202 1370     		strb	r3, [r2]
 1973              	.L147:
 299:main.c        ****                     valor=(pendiente*n)+b;
 1974              		.loc 1 299 0 is_stmt 0 discriminator 1
 1975 0204 244B     		ldr	r3, .L185+32
 1976 0206 1C78     		ldrb	r4, [r3]	@ zero_extendqisi2
 1977 0208 2046     		mov	r0, r4
 1978 020a FFF7FEFF 		bl	__aeabi_i2d
 1979              	.LVL170:
 1980 020e 0022     		movs	r2, #0
 1981 0210 254B     		ldr	r3, .L185+48
 1982 0212 FFF7FEFF 		bl	__aeabi_dcmplt
 1983              	.LVL171:
 1984 0216 0028     		cmp	r0, #0
 1985 0218 CED1     		bne	.L148
 307:main.c        ****                     pendiente=(float)(Programas[Programa-1].rampas[3].Temperatura-Programas[Program
 1986              		.loc 1 307 0 is_stmt 1
 1987 021a 194B     		ldr	r3, .L185+8
 1988 021c 1B78     		ldrb	r3, [r3]	@ zero_extendqisi2
 1989 021e 013B     		subs	r3, r3, #1
ARM GAS  C:\Users\JPELEC~1\AppData\Local\Temp\ccEetrge.s 			page 53


 1990 0220 03EB8301 		add	r1, r3, r3, lsl #2
 1991 0224 4A01     		lsls	r2, r1, #5
 1992 0226 1749     		ldr	r1, .L185+12
 1993 0228 0A44     		add	r2, r2, r1
 1994 022a D27E     		ldrb	r2, [r2, #27]	@ zero_extendqisi2
 1995 022c 32B9     		cbnz	r2, .L149
 307:main.c        ****                     pendiente=(float)(Programas[Programa-1].rampas[3].Temperatura-Programas[Program
 1996              		.loc 1 307 0 is_stmt 0 discriminator 1
 1997 022e 03EB8301 		add	r1, r3, r3, lsl #2
 1998 0232 4A01     		lsls	r2, r1, #5
 1999 0234 1349     		ldr	r1, .L185+12
 2000 0236 0A44     		add	r2, r2, r1
 2001 0238 127F     		ldrb	r2, [r2, #28]	@ zero_extendqisi2
 2002 023a A2B1     		cbz	r2, .L150
 2003              	.L149:
 308:main.c        ****                     b=Programas[Programa-1].rampas[2].Temperatura;
 2004              		.loc 1 308 0 is_stmt 1
 2005 023c 114C     		ldr	r4, .L185+12
 2006 023e 9A00     		lsls	r2, r3, #2
 2007 0240 D018     		adds	r0, r2, r3
 2008 0242 4101     		lsls	r1, r0, #5
 2009 0244 2144     		add	r1, r1, r4
 2010 0246 C88B     		ldrh	r0, [r1, #30]
 2011 0248 CC8A     		ldrh	r4, [r1, #22]
 2012 024a 001B     		subs	r0, r0, r4
 2013 024c FFF7FEFF 		bl	__aeabi_i2f
 2014              	.LVL172:
 2015 0250 0E49     		ldr	r1, .L185+20
 2016 0252 FFF7FEFF 		bl	__aeabi_fdiv
 2017              	.LVL173:
 2018 0256 0E4B     		ldr	r3, .L185+24
 2019 0258 1860     		str	r0, [r3]	@ float
 309:main.c        ****                 }else{
 2020              		.loc 1 309 0
 2021 025a 2046     		mov	r0, r4
 2022 025c FFF7FEFF 		bl	__aeabi_ui2f
 2023              	.LVL174:
 2024 0260 0C4B     		ldr	r3, .L185+28
 2025 0262 1860     		str	r0, [r3]	@ float
 2026 0264 04E0     		b	.L151
 2027              	.L150:
 311:main.c        ****                     b=0;
 2028              		.loc 1 311 0
 2029 0266 0023     		movs	r3, #0
 2030 0268 094A     		ldr	r2, .L185+24
 2031 026a 1360     		str	r3, [r2]	@ float
 312:main.c        ****                 } 
 2032              		.loc 1 312 0
 2033 026c 094A     		ldr	r2, .L185+28
 2034 026e 1360     		str	r3, [r2]	@ float
 2035              	.L151:
 315:main.c        ****                     valor=(pendiente*n)+b;
 2036              		.loc 1 315 0
 2037 0270 0022     		movs	r2, #0
 2038 0272 094B     		ldr	r3, .L185+32
 2039 0274 1A70     		strb	r2, [r3]
 2040 0276 3FE0     		b	.L152
ARM GAS  C:\Users\JPELEC~1\AppData\Local\Temp\ccEetrge.s 			page 54


 2041              	.L186:
 2042              		.align	3
 2043              	.L185:
 2044 0278 295C8FC2 		.word	-1030792151
 2045 027c F528CC3F 		.word	1070344437
 2046 0280 00000000 		.word	Programa
 2047 0284 00000000 		.word	Programas
 2048 0288 00000000 		.word	Temperatura
 2049 028c 00002C42 		.word	1110179840
 2050 0290 00000000 		.word	pendiente
 2051 0294 00000000 		.word	b
 2052 0298 00000000 		.word	n
 2053 029c 00000000 		.word	valor
 2054 02a0 00000000 		.word	displayStr
 2055 02a4 00000000 		.word	.LC0
 2056 02a8 00804540 		.word	1078296576
 2057              	.L153:
 316:main.c        ****                     sprintf(displayStr,"add 1,0,%u",(uint8)(valor*DIVISION));
 2058              		.loc 1 316 0 discriminator 3
 2059 02ac 2046     		mov	r0, r4
 2060 02ae FFF7FEFF 		bl	__aeabi_i2f
 2061              	.LVL175:
 2062 02b2 934B     		ldr	r3, .L187+8
 2063 02b4 1968     		ldr	r1, [r3]	@ float
 2064 02b6 FFF7FEFF 		bl	__aeabi_fmul
 2065              	.LVL176:
 2066 02ba 924B     		ldr	r3, .L187+12
 2067 02bc 1968     		ldr	r1, [r3]	@ float
 2068 02be FFF7FEFF 		bl	__aeabi_fadd
 2069              	.LVL177:
 2070 02c2 914B     		ldr	r3, .L187+16
 2071 02c4 1860     		str	r0, [r3]	@ float
 317:main.c        ****                     escribeDisplay1(displayStr);  
 2072              		.loc 1 317 0 discriminator 3
 2073 02c6 FFF7FEFF 		bl	__aeabi_f2d
 2074              	.LVL178:
 2075 02ca 8BA3     		adr	r3, .L187
 2076 02cc D3E90023 		ldrd	r2, [r3]
 2077 02d0 FFF7FEFF 		bl	__aeabi_dmul
 2078              	.LVL179:
 2079 02d4 FFF7FEFF 		bl	__aeabi_d2uiz
 2080              	.LVL180:
 2081 02d8 8C4C     		ldr	r4, .L187+20
 2082 02da C2B2     		uxtb	r2, r0
 2083 02dc 8C49     		ldr	r1, .L187+24
 2084 02de 2046     		mov	r0, r4
 2085 02e0 FFF7FEFF 		bl	sprintf
 2086              	.LVL181:
 318:main.c        ****                     CyDelayUs(1);
 2087              		.loc 1 318 0 discriminator 3
 2088 02e4 2046     		mov	r0, r4
 2089 02e6 FFF7FEFF 		bl	escribeDisplay1
 2090              	.LVL182:
 319:main.c        ****                 }
 2091              		.loc 1 319 0 discriminator 3
 2092 02ea 0120     		movs	r0, #1
 2093 02ec FFF7FEFF 		bl	CyDelayUs
ARM GAS  C:\Users\JPELEC~1\AppData\Local\Temp\ccEetrge.s 			page 55


 2094              	.LVL183:
 315:main.c        ****                     valor=(pendiente*n)+b;
 2095              		.loc 1 315 0 discriminator 3
 2096 02f0 884A     		ldr	r2, .L187+28
 2097 02f2 1378     		ldrb	r3, [r2]	@ zero_extendqisi2
 2098 02f4 0133     		adds	r3, r3, #1
 2099 02f6 1370     		strb	r3, [r2]
 2100              	.L152:
 315:main.c        ****                     valor=(pendiente*n)+b;
 2101              		.loc 1 315 0 is_stmt 0 discriminator 1
 2102 02f8 864B     		ldr	r3, .L187+28
 2103 02fa 1C78     		ldrb	r4, [r3]	@ zero_extendqisi2
 2104 02fc 2046     		mov	r0, r4
 2105 02fe FFF7FEFF 		bl	__aeabi_i2d
 2106              	.LVL184:
 2107 0302 0022     		movs	r2, #0
 2108 0304 844B     		ldr	r3, .L187+32
 2109 0306 FFF7FEFF 		bl	__aeabi_dcmplt
 2110              	.LVL185:
 2111 030a 0028     		cmp	r0, #0
 2112 030c CED1     		bne	.L153
 324:main.c        ****                     pendiente=(float)(Programas[Programa-1].rampas[4].Temperatura-Programas[Program
 2113              		.loc 1 324 0 is_stmt 1
 2114 030e 834B     		ldr	r3, .L187+36
 2115 0310 1B78     		ldrb	r3, [r3]	@ zero_extendqisi2
 2116 0312 013B     		subs	r3, r3, #1
 2117 0314 03EB8301 		add	r1, r3, r3, lsl #2
 2118 0318 4A01     		lsls	r2, r1, #5
 2119 031a 8149     		ldr	r1, .L187+40
 2120 031c 0A44     		add	r2, r2, r1
 2121 031e 92F82320 		ldrb	r2, [r2, #35]	@ zero_extendqisi2
 2122 0322 3AB9     		cbnz	r2, .L154
 324:main.c        ****                     pendiente=(float)(Programas[Programa-1].rampas[4].Temperatura-Programas[Program
 2123              		.loc 1 324 0 is_stmt 0 discriminator 1
 2124 0324 03EB8301 		add	r1, r3, r3, lsl #2
 2125 0328 4A01     		lsls	r2, r1, #5
 2126 032a 7D49     		ldr	r1, .L187+40
 2127 032c 0A44     		add	r2, r2, r1
 2128 032e 92F82420 		ldrb	r2, [r2, #36]	@ zero_extendqisi2
 2129 0332 A2B1     		cbz	r2, .L155
 2130              	.L154:
 325:main.c        ****                     b=Programas[Programa-1].rampas[3].Temperatura;
 2131              		.loc 1 325 0 is_stmt 1
 2132 0334 7A4C     		ldr	r4, .L187+40
 2133 0336 9A00     		lsls	r2, r3, #2
 2134 0338 D018     		adds	r0, r2, r3
 2135 033a 4101     		lsls	r1, r0, #5
 2136 033c 2144     		add	r1, r1, r4
 2137 033e C88C     		ldrh	r0, [r1, #38]
 2138 0340 CC8B     		ldrh	r4, [r1, #30]
 2139 0342 001B     		subs	r0, r0, r4
 2140 0344 FFF7FEFF 		bl	__aeabi_i2f
 2141              	.LVL186:
 2142 0348 7649     		ldr	r1, .L187+44
 2143 034a FFF7FEFF 		bl	__aeabi_fdiv
 2144              	.LVL187:
 2145 034e 6C4B     		ldr	r3, .L187+8
ARM GAS  C:\Users\JPELEC~1\AppData\Local\Temp\ccEetrge.s 			page 56


 2146 0350 1860     		str	r0, [r3]	@ float
 326:main.c        ****                 }else{
 2147              		.loc 1 326 0
 2148 0352 2046     		mov	r0, r4
 2149 0354 FFF7FEFF 		bl	__aeabi_ui2f
 2150              	.LVL188:
 2151 0358 6A4B     		ldr	r3, .L187+12
 2152 035a 1860     		str	r0, [r3]	@ float
 2153 035c 04E0     		b	.L156
 2154              	.L155:
 328:main.c        ****                     b=0;
 2155              		.loc 1 328 0
 2156 035e 0023     		movs	r3, #0
 2157 0360 674A     		ldr	r2, .L187+8
 2158 0362 1360     		str	r3, [r2]	@ float
 329:main.c        ****                 }   
 2159              		.loc 1 329 0
 2160 0364 674A     		ldr	r2, .L187+12
 2161 0366 1360     		str	r3, [r2]	@ float
 2162              	.L156:
 332:main.c        ****                     valor=(pendiente*n)+b;
 2163              		.loc 1 332 0
 2164 0368 0022     		movs	r2, #0
 2165 036a 6A4B     		ldr	r3, .L187+28
 2166 036c 1A70     		strb	r2, [r3]
 2167 036e 25E0     		b	.L157
 2168              	.L158:
 333:main.c        ****                     sprintf(displayStr,"add 1,0,%u",(uint8)(valor*DIVISION));
 2169              		.loc 1 333 0 discriminator 3
 2170 0370 2046     		mov	r0, r4
 2171 0372 FFF7FEFF 		bl	__aeabi_i2f
 2172              	.LVL189:
 2173 0376 624B     		ldr	r3, .L187+8
 2174 0378 1968     		ldr	r1, [r3]	@ float
 2175 037a FFF7FEFF 		bl	__aeabi_fmul
 2176              	.LVL190:
 2177 037e 614B     		ldr	r3, .L187+12
 2178 0380 1968     		ldr	r1, [r3]	@ float
 2179 0382 FFF7FEFF 		bl	__aeabi_fadd
 2180              	.LVL191:
 2181 0386 604B     		ldr	r3, .L187+16
 2182 0388 1860     		str	r0, [r3]	@ float
 334:main.c        ****                     escribeDisplay1(displayStr);  
 2183              		.loc 1 334 0 discriminator 3
 2184 038a FFF7FEFF 		bl	__aeabi_f2d
 2185              	.LVL192:
 2186 038e 5AA3     		adr	r3, .L187
 2187 0390 D3E90023 		ldrd	r2, [r3]
 2188 0394 FFF7FEFF 		bl	__aeabi_dmul
 2189              	.LVL193:
 2190 0398 FFF7FEFF 		bl	__aeabi_d2uiz
 2191              	.LVL194:
 2192 039c 5B4C     		ldr	r4, .L187+20
 2193 039e C2B2     		uxtb	r2, r0
 2194 03a0 5B49     		ldr	r1, .L187+24
 2195 03a2 2046     		mov	r0, r4
 2196 03a4 FFF7FEFF 		bl	sprintf
ARM GAS  C:\Users\JPELEC~1\AppData\Local\Temp\ccEetrge.s 			page 57


 2197              	.LVL195:
 335:main.c        ****                     CyDelayUs(1);
 2198              		.loc 1 335 0 discriminator 3
 2199 03a8 2046     		mov	r0, r4
 2200 03aa FFF7FEFF 		bl	escribeDisplay1
 2201              	.LVL196:
 336:main.c        ****                 }
 2202              		.loc 1 336 0 discriminator 3
 2203 03ae 0120     		movs	r0, #1
 2204 03b0 FFF7FEFF 		bl	CyDelayUs
 2205              	.LVL197:
 332:main.c        ****                     valor=(pendiente*n)+b;
 2206              		.loc 1 332 0 discriminator 3
 2207 03b4 574A     		ldr	r2, .L187+28
 2208 03b6 1378     		ldrb	r3, [r2]	@ zero_extendqisi2
 2209 03b8 0133     		adds	r3, r3, #1
 2210 03ba 1370     		strb	r3, [r2]
 2211              	.L157:
 332:main.c        ****                     valor=(pendiente*n)+b;
 2212              		.loc 1 332 0 is_stmt 0 discriminator 1
 2213 03bc 554B     		ldr	r3, .L187+28
 2214 03be 1C78     		ldrb	r4, [r3]	@ zero_extendqisi2
 2215 03c0 2046     		mov	r0, r4
 2216 03c2 FFF7FEFF 		bl	__aeabi_i2d
 2217              	.LVL198:
 2218 03c6 0022     		movs	r2, #0
 2219 03c8 534B     		ldr	r3, .L187+32
 2220 03ca FFF7FEFF 		bl	__aeabi_dcmplt
 2221              	.LVL199:
 2222 03ce 0028     		cmp	r0, #0
 2223 03d0 CED1     		bne	.L158
 342:main.c        ****                     pendiente=(float)(Programas[Programa-1].rampas[5].Temperatura-Programas[Program
 2224              		.loc 1 342 0 is_stmt 1
 2225 03d2 524B     		ldr	r3, .L187+36
 2226 03d4 1B78     		ldrb	r3, [r3]	@ zero_extendqisi2
 2227 03d6 013B     		subs	r3, r3, #1
 2228 03d8 03EB8301 		add	r1, r3, r3, lsl #2
 2229 03dc 4A01     		lsls	r2, r1, #5
 2230 03de 5049     		ldr	r1, .L187+40
 2231 03e0 0A44     		add	r2, r2, r1
 2232 03e2 92F82B20 		ldrb	r2, [r2, #43]	@ zero_extendqisi2
 2233 03e6 3AB9     		cbnz	r2, .L159
 342:main.c        ****                     pendiente=(float)(Programas[Programa-1].rampas[5].Temperatura-Programas[Program
 2234              		.loc 1 342 0 is_stmt 0 discriminator 1
 2235 03e8 03EB8301 		add	r1, r3, r3, lsl #2
 2236 03ec 4A01     		lsls	r2, r1, #5
 2237 03ee 4C49     		ldr	r1, .L187+40
 2238 03f0 0A44     		add	r2, r2, r1
 2239 03f2 92F82C20 		ldrb	r2, [r2, #44]	@ zero_extendqisi2
 2240 03f6 A2B1     		cbz	r2, .L160
 2241              	.L159:
 343:main.c        ****                     b=Programas[Programa-1].rampas[4].Temperatura;
 2242              		.loc 1 343 0 is_stmt 1
 2243 03f8 494C     		ldr	r4, .L187+40
 2244 03fa 9A00     		lsls	r2, r3, #2
 2245 03fc D018     		adds	r0, r2, r3
 2246 03fe 4101     		lsls	r1, r0, #5
ARM GAS  C:\Users\JPELEC~1\AppData\Local\Temp\ccEetrge.s 			page 58


 2247 0400 2144     		add	r1, r1, r4
 2248 0402 C88D     		ldrh	r0, [r1, #46]
 2249 0404 CC8C     		ldrh	r4, [r1, #38]
 2250 0406 001B     		subs	r0, r0, r4
 2251 0408 FFF7FEFF 		bl	__aeabi_i2f
 2252              	.LVL200:
 2253 040c 4549     		ldr	r1, .L187+44
 2254 040e FFF7FEFF 		bl	__aeabi_fdiv
 2255              	.LVL201:
 2256 0412 3B4B     		ldr	r3, .L187+8
 2257 0414 1860     		str	r0, [r3]	@ float
 344:main.c        ****                 }else{
 2258              		.loc 1 344 0
 2259 0416 2046     		mov	r0, r4
 2260 0418 FFF7FEFF 		bl	__aeabi_ui2f
 2261              	.LVL202:
 2262 041c 394B     		ldr	r3, .L187+12
 2263 041e 1860     		str	r0, [r3]	@ float
 2264 0420 04E0     		b	.L161
 2265              	.L160:
 346:main.c        ****                     b=0;
 2266              		.loc 1 346 0
 2267 0422 0023     		movs	r3, #0
 2268 0424 364A     		ldr	r2, .L187+8
 2269 0426 1360     		str	r3, [r2]	@ float
 347:main.c        ****                 }  
 2270              		.loc 1 347 0
 2271 0428 364A     		ldr	r2, .L187+12
 2272 042a 1360     		str	r3, [r2]	@ float
 2273              	.L161:
 349:main.c        ****                     valor=(pendiente*n)+b;
 2274              		.loc 1 349 0
 2275 042c 0022     		movs	r2, #0
 2276 042e 394B     		ldr	r3, .L187+28
 2277 0430 1A70     		strb	r2, [r3]
 2278 0432 25E0     		b	.L162
 2279              	.L163:
 350:main.c        ****                     sprintf(displayStr,"add 1,0,%u",(uint8)(valor*DIVISION));
 2280              		.loc 1 350 0 discriminator 3
 2281 0434 2046     		mov	r0, r4
 2282 0436 FFF7FEFF 		bl	__aeabi_i2f
 2283              	.LVL203:
 2284 043a 314B     		ldr	r3, .L187+8
 2285 043c 1968     		ldr	r1, [r3]	@ float
 2286 043e FFF7FEFF 		bl	__aeabi_fmul
 2287              	.LVL204:
 2288 0442 304B     		ldr	r3, .L187+12
 2289 0444 1968     		ldr	r1, [r3]	@ float
 2290 0446 FFF7FEFF 		bl	__aeabi_fadd
 2291              	.LVL205:
 2292 044a 2F4B     		ldr	r3, .L187+16
 2293 044c 1860     		str	r0, [r3]	@ float
 351:main.c        ****                     escribeDisplay1(displayStr);  
 2294              		.loc 1 351 0 discriminator 3
 2295 044e FFF7FEFF 		bl	__aeabi_f2d
 2296              	.LVL206:
 2297 0452 29A3     		adr	r3, .L187
ARM GAS  C:\Users\JPELEC~1\AppData\Local\Temp\ccEetrge.s 			page 59


 2298 0454 D3E90023 		ldrd	r2, [r3]
 2299 0458 FFF7FEFF 		bl	__aeabi_dmul
 2300              	.LVL207:
 2301 045c FFF7FEFF 		bl	__aeabi_d2uiz
 2302              	.LVL208:
 2303 0460 2A4C     		ldr	r4, .L187+20
 2304 0462 C2B2     		uxtb	r2, r0
 2305 0464 2A49     		ldr	r1, .L187+24
 2306 0466 2046     		mov	r0, r4
 2307 0468 FFF7FEFF 		bl	sprintf
 2308              	.LVL209:
 352:main.c        ****                     CyDelayUs(1);
 2309              		.loc 1 352 0 discriminator 3
 2310 046c 2046     		mov	r0, r4
 2311 046e FFF7FEFF 		bl	escribeDisplay1
 2312              	.LVL210:
 353:main.c        ****                 }
 2313              		.loc 1 353 0 discriminator 3
 2314 0472 0120     		movs	r0, #1
 2315 0474 FFF7FEFF 		bl	CyDelayUs
 2316              	.LVL211:
 349:main.c        ****                     valor=(pendiente*n)+b;
 2317              		.loc 1 349 0 discriminator 3
 2318 0478 264A     		ldr	r2, .L187+28
 2319 047a 1378     		ldrb	r3, [r2]	@ zero_extendqisi2
 2320 047c 0133     		adds	r3, r3, #1
 2321 047e 1370     		strb	r3, [r2]
 2322              	.L162:
 349:main.c        ****                     valor=(pendiente*n)+b;
 2323              		.loc 1 349 0 is_stmt 0 discriminator 1
 2324 0480 244B     		ldr	r3, .L187+28
 2325 0482 1C78     		ldrb	r4, [r3]	@ zero_extendqisi2
 2326 0484 2046     		mov	r0, r4
 2327 0486 FFF7FEFF 		bl	__aeabi_i2d
 2328              	.LVL212:
 2329 048a 0022     		movs	r2, #0
 2330 048c 224B     		ldr	r3, .L187+32
 2331 048e FFF7FEFF 		bl	__aeabi_dcmplt
 2332              	.LVL213:
 2333 0492 0028     		cmp	r0, #0
 2334 0494 CED1     		bne	.L163
 357:main.c        ****                     pendiente=(float)(Programas[Programa-1].rampas[6].Temperatura-Programas[Program
 2335              		.loc 1 357 0 is_stmt 1
 2336 0496 214B     		ldr	r3, .L187+36
 2337 0498 1B78     		ldrb	r3, [r3]	@ zero_extendqisi2
 2338 049a 013B     		subs	r3, r3, #1
 2339 049c 03EB8301 		add	r1, r3, r3, lsl #2
 2340 04a0 4A01     		lsls	r2, r1, #5
 2341 04a2 1F49     		ldr	r1, .L187+40
 2342 04a4 0A44     		add	r2, r2, r1
 2343 04a6 92F83320 		ldrb	r2, [r2, #51]	@ zero_extendqisi2
 2344 04aa 3AB9     		cbnz	r2, .L164
 357:main.c        ****                     pendiente=(float)(Programas[Programa-1].rampas[6].Temperatura-Programas[Program
 2345              		.loc 1 357 0 is_stmt 0 discriminator 1
 2346 04ac 03EB8301 		add	r1, r3, r3, lsl #2
 2347 04b0 4A01     		lsls	r2, r1, #5
 2348 04b2 1B49     		ldr	r1, .L187+40
ARM GAS  C:\Users\JPELEC~1\AppData\Local\Temp\ccEetrge.s 			page 60


 2349 04b4 0A44     		add	r2, r2, r1
 2350 04b6 92F83420 		ldrb	r2, [r2, #52]	@ zero_extendqisi2
 2351 04ba A2B1     		cbz	r2, .L165
 2352              	.L164:
 358:main.c        ****                     b=Programas[Programa-1].rampas[5].Temperatura;
 2353              		.loc 1 358 0 is_stmt 1
 2354 04bc 184C     		ldr	r4, .L187+40
 2355 04be 9A00     		lsls	r2, r3, #2
 2356 04c0 D018     		adds	r0, r2, r3
 2357 04c2 4101     		lsls	r1, r0, #5
 2358 04c4 2144     		add	r1, r1, r4
 2359 04c6 C88E     		ldrh	r0, [r1, #54]
 2360 04c8 CC8D     		ldrh	r4, [r1, #46]
 2361 04ca 001B     		subs	r0, r0, r4
 2362 04cc FFF7FEFF 		bl	__aeabi_i2f
 2363              	.LVL214:
 2364 04d0 1449     		ldr	r1, .L187+44
 2365 04d2 FFF7FEFF 		bl	__aeabi_fdiv
 2366              	.LVL215:
 2367 04d6 0A4B     		ldr	r3, .L187+8
 2368 04d8 1860     		str	r0, [r3]	@ float
 359:main.c        ****                 }else{
 2369              		.loc 1 359 0
 2370 04da 2046     		mov	r0, r4
 2371 04dc FFF7FEFF 		bl	__aeabi_ui2f
 2372              	.LVL216:
 2373 04e0 084B     		ldr	r3, .L187+12
 2374 04e2 1860     		str	r0, [r3]	@ float
 2375 04e4 04E0     		b	.L166
 2376              	.L165:
 361:main.c        ****                     b=0;
 2377              		.loc 1 361 0
 2378 04e6 0023     		movs	r3, #0
 2379 04e8 054A     		ldr	r2, .L187+8
 2380 04ea 1360     		str	r3, [r2]	@ float
 362:main.c        ****                 }   
 2381              		.loc 1 362 0
 2382 04ec 054A     		ldr	r2, .L187+12
 2383 04ee 1360     		str	r3, [r2]	@ float
 2384              	.L166:
 364:main.c        ****                     valor=(pendiente*n)+b;
 2385              		.loc 1 364 0
 2386 04f0 0022     		movs	r2, #0
 2387 04f2 084B     		ldr	r3, .L187+28
 2388 04f4 1A70     		strb	r2, [r3]
 2389 04f6 3DE0     		b	.L167
 2390              	.L188:
 2391              		.align	3
 2392              	.L187:
 2393 04f8 295C8FC2 		.word	-1030792151
 2394 04fc F528CC3F 		.word	1070344437
 2395 0500 00000000 		.word	pendiente
 2396 0504 00000000 		.word	b
 2397 0508 00000000 		.word	valor
 2398 050c 00000000 		.word	displayStr
 2399 0510 00000000 		.word	.LC0
 2400 0514 00000000 		.word	n
ARM GAS  C:\Users\JPELEC~1\AppData\Local\Temp\ccEetrge.s 			page 61


 2401 0518 00804540 		.word	1078296576
 2402 051c 00000000 		.word	Programa
 2403 0520 00000000 		.word	Programas
 2404 0524 00002C42 		.word	1110179840
 2405              	.L168:
 365:main.c        ****                     sprintf(displayStr,"add 1,0,%u",(uint8)(valor*DIVISION));
 2406              		.loc 1 365 0 discriminator 3
 2407 0528 2046     		mov	r0, r4
 2408 052a FFF7FEFF 		bl	__aeabi_i2f
 2409              	.LVL217:
 2410 052e AE4B     		ldr	r3, .L189+8
 2411 0530 1968     		ldr	r1, [r3]	@ float
 2412 0532 FFF7FEFF 		bl	__aeabi_fmul
 2413              	.LVL218:
 2414 0536 AD4B     		ldr	r3, .L189+12
 2415 0538 1968     		ldr	r1, [r3]	@ float
 2416 053a FFF7FEFF 		bl	__aeabi_fadd
 2417              	.LVL219:
 2418 053e AC4B     		ldr	r3, .L189+16
 2419 0540 1860     		str	r0, [r3]	@ float
 366:main.c        ****                     escribeDisplay1(displayStr);  
 2420              		.loc 1 366 0 discriminator 3
 2421 0542 FFF7FEFF 		bl	__aeabi_f2d
 2422              	.LVL220:
 2423 0546 A6A3     		adr	r3, .L189
 2424 0548 D3E90023 		ldrd	r2, [r3]
 2425 054c FFF7FEFF 		bl	__aeabi_dmul
 2426              	.LVL221:
 2427 0550 FFF7FEFF 		bl	__aeabi_d2uiz
 2428              	.LVL222:
 2429 0554 A74C     		ldr	r4, .L189+20
 2430 0556 C2B2     		uxtb	r2, r0
 2431 0558 A749     		ldr	r1, .L189+24
 2432 055a 2046     		mov	r0, r4
 2433 055c FFF7FEFF 		bl	sprintf
 2434              	.LVL223:
 367:main.c        ****                     CyDelayUs(1);
 2435              		.loc 1 367 0 discriminator 3
 2436 0560 2046     		mov	r0, r4
 2437 0562 FFF7FEFF 		bl	escribeDisplay1
 2438              	.LVL224:
 368:main.c        ****                 }
 2439              		.loc 1 368 0 discriminator 3
 2440 0566 0120     		movs	r0, #1
 2441 0568 FFF7FEFF 		bl	CyDelayUs
 2442              	.LVL225:
 364:main.c        ****                     valor=(pendiente*n)+b;
 2443              		.loc 1 364 0 discriminator 3
 2444 056c A34A     		ldr	r2, .L189+28
 2445 056e 1378     		ldrb	r3, [r2]	@ zero_extendqisi2
 2446 0570 0133     		adds	r3, r3, #1
 2447 0572 1370     		strb	r3, [r2]
 2448              	.L167:
 364:main.c        ****                     valor=(pendiente*n)+b;
 2449              		.loc 1 364 0 is_stmt 0 discriminator 1
 2450 0574 A14B     		ldr	r3, .L189+28
 2451 0576 1C78     		ldrb	r4, [r3]	@ zero_extendqisi2
ARM GAS  C:\Users\JPELEC~1\AppData\Local\Temp\ccEetrge.s 			page 62


 2452 0578 2046     		mov	r0, r4
 2453 057a FFF7FEFF 		bl	__aeabi_i2d
 2454              	.LVL226:
 2455 057e 0022     		movs	r2, #0
 2456 0580 9F4B     		ldr	r3, .L189+32
 2457 0582 FFF7FEFF 		bl	__aeabi_dcmplt
 2458              	.LVL227:
 2459 0586 0028     		cmp	r0, #0
 2460 0588 CED1     		bne	.L168
 372:main.c        ****                     pendiente=(float)(Programas[Programa-1].rampas[7].Temperatura-Programas[Program
 2461              		.loc 1 372 0 is_stmt 1
 2462 058a 9E4B     		ldr	r3, .L189+36
 2463 058c 1B78     		ldrb	r3, [r3]	@ zero_extendqisi2
 2464 058e 013B     		subs	r3, r3, #1
 2465 0590 03EB8301 		add	r1, r3, r3, lsl #2
 2466 0594 4A01     		lsls	r2, r1, #5
 2467 0596 9C49     		ldr	r1, .L189+40
 2468 0598 0A44     		add	r2, r2, r1
 2469 059a 92F83B20 		ldrb	r2, [r2, #59]	@ zero_extendqisi2
 2470 059e 3AB9     		cbnz	r2, .L169
 372:main.c        ****                     pendiente=(float)(Programas[Programa-1].rampas[7].Temperatura-Programas[Program
 2471              		.loc 1 372 0 is_stmt 0 discriminator 1
 2472 05a0 03EB8301 		add	r1, r3, r3, lsl #2
 2473 05a4 4A01     		lsls	r2, r1, #5
 2474 05a6 9849     		ldr	r1, .L189+40
 2475 05a8 0A44     		add	r2, r2, r1
 2476 05aa 92F83C20 		ldrb	r2, [r2, #60]	@ zero_extendqisi2
 2477 05ae A2B1     		cbz	r2, .L170
 2478              	.L169:
 373:main.c        ****                     b=Programas[Programa-1].rampas[6].Temperatura;
 2479              		.loc 1 373 0 is_stmt 1
 2480 05b0 954C     		ldr	r4, .L189+40
 2481 05b2 9A00     		lsls	r2, r3, #2
 2482 05b4 D018     		adds	r0, r2, r3
 2483 05b6 4101     		lsls	r1, r0, #5
 2484 05b8 2144     		add	r1, r1, r4
 2485 05ba C88F     		ldrh	r0, [r1, #62]
 2486 05bc CC8E     		ldrh	r4, [r1, #54]
 2487 05be 001B     		subs	r0, r0, r4
 2488 05c0 FFF7FEFF 		bl	__aeabi_i2f
 2489              	.LVL228:
 2490 05c4 9149     		ldr	r1, .L189+44
 2491 05c6 FFF7FEFF 		bl	__aeabi_fdiv
 2492              	.LVL229:
 2493 05ca 874B     		ldr	r3, .L189+8
 2494 05cc 1860     		str	r0, [r3]	@ float
 374:main.c        ****                 }else{
 2495              		.loc 1 374 0
 2496 05ce 2046     		mov	r0, r4
 2497 05d0 FFF7FEFF 		bl	__aeabi_ui2f
 2498              	.LVL230:
 2499 05d4 854B     		ldr	r3, .L189+12
 2500 05d6 1860     		str	r0, [r3]	@ float
 2501 05d8 04E0     		b	.L171
 2502              	.L170:
 376:main.c        ****                     b=0;
 2503              		.loc 1 376 0
ARM GAS  C:\Users\JPELEC~1\AppData\Local\Temp\ccEetrge.s 			page 63


 2504 05da 0023     		movs	r3, #0
 2505 05dc 824A     		ldr	r2, .L189+8
 2506 05de 1360     		str	r3, [r2]	@ float
 377:main.c        ****                 }    
 2507              		.loc 1 377 0
 2508 05e0 824A     		ldr	r2, .L189+12
 2509 05e2 1360     		str	r3, [r2]	@ float
 2510              	.L171:
 379:main.c        ****                     valor=(pendiente*n)+b;
 2511              		.loc 1 379 0
 2512 05e4 0022     		movs	r2, #0
 2513 05e6 854B     		ldr	r3, .L189+28
 2514 05e8 1A70     		strb	r2, [r3]
 2515 05ea 25E0     		b	.L172
 2516              	.L173:
 380:main.c        ****                     sprintf(displayStr,"add 1,0,%u",(uint8)(valor*DIVISION));
 2517              		.loc 1 380 0 discriminator 3
 2518 05ec 2046     		mov	r0, r4
 2519 05ee FFF7FEFF 		bl	__aeabi_i2f
 2520              	.LVL231:
 2521 05f2 7D4B     		ldr	r3, .L189+8
 2522 05f4 1968     		ldr	r1, [r3]	@ float
 2523 05f6 FFF7FEFF 		bl	__aeabi_fmul
 2524              	.LVL232:
 2525 05fa 7C4B     		ldr	r3, .L189+12
 2526 05fc 1968     		ldr	r1, [r3]	@ float
 2527 05fe FFF7FEFF 		bl	__aeabi_fadd
 2528              	.LVL233:
 2529 0602 7B4B     		ldr	r3, .L189+16
 2530 0604 1860     		str	r0, [r3]	@ float
 381:main.c        ****                     escribeDisplay1(displayStr);  
 2531              		.loc 1 381 0 discriminator 3
 2532 0606 FFF7FEFF 		bl	__aeabi_f2d
 2533              	.LVL234:
 2534 060a 75A3     		adr	r3, .L189
 2535 060c D3E90023 		ldrd	r2, [r3]
 2536 0610 FFF7FEFF 		bl	__aeabi_dmul
 2537              	.LVL235:
 2538 0614 FFF7FEFF 		bl	__aeabi_d2uiz
 2539              	.LVL236:
 2540 0618 764C     		ldr	r4, .L189+20
 2541 061a C2B2     		uxtb	r2, r0
 2542 061c 7649     		ldr	r1, .L189+24
 2543 061e 2046     		mov	r0, r4
 2544 0620 FFF7FEFF 		bl	sprintf
 2545              	.LVL237:
 382:main.c        ****                     CyDelayUs(1);
 2546              		.loc 1 382 0 discriminator 3
 2547 0624 2046     		mov	r0, r4
 2548 0626 FFF7FEFF 		bl	escribeDisplay1
 2549              	.LVL238:
 383:main.c        ****                 }
 2550              		.loc 1 383 0 discriminator 3
 2551 062a 0120     		movs	r0, #1
 2552 062c FFF7FEFF 		bl	CyDelayUs
 2553              	.LVL239:
 379:main.c        ****                     valor=(pendiente*n)+b;
ARM GAS  C:\Users\JPELEC~1\AppData\Local\Temp\ccEetrge.s 			page 64


 2554              		.loc 1 379 0 discriminator 3
 2555 0630 724A     		ldr	r2, .L189+28
 2556 0632 1378     		ldrb	r3, [r2]	@ zero_extendqisi2
 2557 0634 0133     		adds	r3, r3, #1
 2558 0636 1370     		strb	r3, [r2]
 2559              	.L172:
 379:main.c        ****                     valor=(pendiente*n)+b;
 2560              		.loc 1 379 0 is_stmt 0 discriminator 1
 2561 0638 704B     		ldr	r3, .L189+28
 2562 063a 1C78     		ldrb	r4, [r3]	@ zero_extendqisi2
 2563 063c 2046     		mov	r0, r4
 2564 063e FFF7FEFF 		bl	__aeabi_i2d
 2565              	.LVL240:
 2566 0642 0022     		movs	r2, #0
 2567 0644 6E4B     		ldr	r3, .L189+32
 2568 0646 FFF7FEFF 		bl	__aeabi_dcmplt
 2569              	.LVL241:
 2570 064a 0028     		cmp	r0, #0
 2571 064c CED1     		bne	.L173
 387:main.c        ****                     pendiente=(float)(Programas[Programa-1].rampas[8].Temperatura-Programas[Program
 2572              		.loc 1 387 0 is_stmt 1
 2573 064e 6D4B     		ldr	r3, .L189+36
 2574 0650 1B78     		ldrb	r3, [r3]	@ zero_extendqisi2
 2575 0652 013B     		subs	r3, r3, #1
 2576 0654 03EB8301 		add	r1, r3, r3, lsl #2
 2577 0658 4A01     		lsls	r2, r1, #5
 2578 065a 6B49     		ldr	r1, .L189+40
 2579 065c 0A44     		add	r2, r2, r1
 2580 065e 92F84320 		ldrb	r2, [r2, #67]	@ zero_extendqisi2
 2581 0662 3AB9     		cbnz	r2, .L174
 387:main.c        ****                     pendiente=(float)(Programas[Programa-1].rampas[8].Temperatura-Programas[Program
 2582              		.loc 1 387 0 is_stmt 0 discriminator 1
 2583 0664 03EB8301 		add	r1, r3, r3, lsl #2
 2584 0668 4A01     		lsls	r2, r1, #5
 2585 066a 6749     		ldr	r1, .L189+40
 2586 066c 0A44     		add	r2, r2, r1
 2587 066e 92F84420 		ldrb	r2, [r2, #68]	@ zero_extendqisi2
 2588 0672 AAB1     		cbz	r2, .L175
 2589              	.L174:
 388:main.c        ****                     b=Programas[Programa-1].rampas[7].Temperatura;
 2590              		.loc 1 388 0 is_stmt 1
 2591 0674 644C     		ldr	r4, .L189+40
 2592 0676 9A00     		lsls	r2, r3, #2
 2593 0678 D018     		adds	r0, r2, r3
 2594 067a 4101     		lsls	r1, r0, #5
 2595 067c 2144     		add	r1, r1, r4
 2596 067e B1F84600 		ldrh	r0, [r1, #70]
 2597 0682 CC8F     		ldrh	r4, [r1, #62]
 2598 0684 001B     		subs	r0, r0, r4
 2599 0686 FFF7FEFF 		bl	__aeabi_i2f
 2600              	.LVL242:
 2601 068a 6049     		ldr	r1, .L189+44
 2602 068c FFF7FEFF 		bl	__aeabi_fdiv
 2603              	.LVL243:
 2604 0690 554B     		ldr	r3, .L189+8
 2605 0692 1860     		str	r0, [r3]	@ float
 389:main.c        ****                 }else{
ARM GAS  C:\Users\JPELEC~1\AppData\Local\Temp\ccEetrge.s 			page 65


 2606              		.loc 1 389 0
 2607 0694 2046     		mov	r0, r4
 2608 0696 FFF7FEFF 		bl	__aeabi_ui2f
 2609              	.LVL244:
 2610 069a 544B     		ldr	r3, .L189+12
 2611 069c 1860     		str	r0, [r3]	@ float
 2612 069e 04E0     		b	.L176
 2613              	.L175:
 391:main.c        ****                     b=0;
 2614              		.loc 1 391 0
 2615 06a0 0023     		movs	r3, #0
 2616 06a2 514A     		ldr	r2, .L189+8
 2617 06a4 1360     		str	r3, [r2]	@ float
 392:main.c        ****                 }   
 2618              		.loc 1 392 0
 2619 06a6 514A     		ldr	r2, .L189+12
 2620 06a8 1360     		str	r3, [r2]	@ float
 2621              	.L176:
 394:main.c        ****                     valor=(pendiente*n)+b;
 2622              		.loc 1 394 0
 2623 06aa 0022     		movs	r2, #0
 2624 06ac 534B     		ldr	r3, .L189+28
 2625 06ae 1A70     		strb	r2, [r3]
 2626 06b0 25E0     		b	.L177
 2627              	.L178:
 395:main.c        ****                     sprintf(displayStr,"add 1,0,%u",(uint8)(valor*DIVISION));
 2628              		.loc 1 395 0 discriminator 3
 2629 06b2 2046     		mov	r0, r4
 2630 06b4 FFF7FEFF 		bl	__aeabi_i2f
 2631              	.LVL245:
 2632 06b8 4B4B     		ldr	r3, .L189+8
 2633 06ba 1968     		ldr	r1, [r3]	@ float
 2634 06bc FFF7FEFF 		bl	__aeabi_fmul
 2635              	.LVL246:
 2636 06c0 4A4B     		ldr	r3, .L189+12
 2637 06c2 1968     		ldr	r1, [r3]	@ float
 2638 06c4 FFF7FEFF 		bl	__aeabi_fadd
 2639              	.LVL247:
 2640 06c8 494B     		ldr	r3, .L189+16
 2641 06ca 1860     		str	r0, [r3]	@ float
 396:main.c        ****                     escribeDisplay1(displayStr);  
 2642              		.loc 1 396 0 discriminator 3
 2643 06cc FFF7FEFF 		bl	__aeabi_f2d
 2644              	.LVL248:
 2645 06d0 43A3     		adr	r3, .L189
 2646 06d2 D3E90023 		ldrd	r2, [r3]
 2647 06d6 FFF7FEFF 		bl	__aeabi_dmul
 2648              	.LVL249:
 2649 06da FFF7FEFF 		bl	__aeabi_d2uiz
 2650              	.LVL250:
 2651 06de 454C     		ldr	r4, .L189+20
 2652 06e0 C2B2     		uxtb	r2, r0
 2653 06e2 4549     		ldr	r1, .L189+24
 2654 06e4 2046     		mov	r0, r4
 2655 06e6 FFF7FEFF 		bl	sprintf
 2656              	.LVL251:
 397:main.c        ****                     CyDelayUs(1);
ARM GAS  C:\Users\JPELEC~1\AppData\Local\Temp\ccEetrge.s 			page 66


 2657              		.loc 1 397 0 discriminator 3
 2658 06ea 2046     		mov	r0, r4
 2659 06ec FFF7FEFF 		bl	escribeDisplay1
 2660              	.LVL252:
 398:main.c        ****                 }
 2661              		.loc 1 398 0 discriminator 3
 2662 06f0 0120     		movs	r0, #1
 2663 06f2 FFF7FEFF 		bl	CyDelayUs
 2664              	.LVL253:
 394:main.c        ****                     valor=(pendiente*n)+b;
 2665              		.loc 1 394 0 discriminator 3
 2666 06f6 414A     		ldr	r2, .L189+28
 2667 06f8 1378     		ldrb	r3, [r2]	@ zero_extendqisi2
 2668 06fa 0133     		adds	r3, r3, #1
 2669 06fc 1370     		strb	r3, [r2]
 2670              	.L177:
 394:main.c        ****                     valor=(pendiente*n)+b;
 2671              		.loc 1 394 0 is_stmt 0 discriminator 1
 2672 06fe 3F4B     		ldr	r3, .L189+28
 2673 0700 1C78     		ldrb	r4, [r3]	@ zero_extendqisi2
 2674 0702 2046     		mov	r0, r4
 2675 0704 FFF7FEFF 		bl	__aeabi_i2d
 2676              	.LVL254:
 2677 0708 0022     		movs	r2, #0
 2678 070a 3D4B     		ldr	r3, .L189+32
 2679 070c FFF7FEFF 		bl	__aeabi_dcmplt
 2680              	.LVL255:
 2681 0710 0028     		cmp	r0, #0
 2682 0712 CED1     		bne	.L178
 402:main.c        ****                     pendiente=(float)(Programas[Programa-1].rampas[9].Temperatura-Programas[Program
 2683              		.loc 1 402 0 is_stmt 1
 2684 0714 3B4B     		ldr	r3, .L189+36
 2685 0716 1B78     		ldrb	r3, [r3]	@ zero_extendqisi2
 2686 0718 013B     		subs	r3, r3, #1
 2687 071a 03EB8301 		add	r1, r3, r3, lsl #2
 2688 071e 4A01     		lsls	r2, r1, #5
 2689 0720 3949     		ldr	r1, .L189+40
 2690 0722 0A44     		add	r2, r2, r1
 2691 0724 92F84B20 		ldrb	r2, [r2, #75]	@ zero_extendqisi2
 2692 0728 3AB9     		cbnz	r2, .L179
 402:main.c        ****                     pendiente=(float)(Programas[Programa-1].rampas[9].Temperatura-Programas[Program
 2693              		.loc 1 402 0 is_stmt 0 discriminator 1
 2694 072a 03EB8301 		add	r1, r3, r3, lsl #2
 2695 072e 4A01     		lsls	r2, r1, #5
 2696 0730 3549     		ldr	r1, .L189+40
 2697 0732 0A44     		add	r2, r2, r1
 2698 0734 92F84C20 		ldrb	r2, [r2, #76]	@ zero_extendqisi2
 2699 0738 B2B1     		cbz	r2, .L180
 2700              	.L179:
 403:main.c        ****                     b=Programas[Programa-1].rampas[8].Temperatura;
 2701              		.loc 1 403 0 is_stmt 1
 2702 073a 334C     		ldr	r4, .L189+40
 2703 073c 9A00     		lsls	r2, r3, #2
 2704 073e D018     		adds	r0, r2, r3
 2705 0740 4101     		lsls	r1, r0, #5
 2706 0742 2144     		add	r1, r1, r4
 2707 0744 B1F84E00 		ldrh	r0, [r1, #78]
ARM GAS  C:\Users\JPELEC~1\AppData\Local\Temp\ccEetrge.s 			page 67


 2708 0748 B1F84640 		ldrh	r4, [r1, #70]
 2709 074c 001B     		subs	r0, r0, r4
 2710 074e FFF7FEFF 		bl	__aeabi_i2f
 2711              	.LVL256:
 2712 0752 2E49     		ldr	r1, .L189+44
 2713 0754 FFF7FEFF 		bl	__aeabi_fdiv
 2714              	.LVL257:
 2715 0758 234B     		ldr	r3, .L189+8
 2716 075a 1860     		str	r0, [r3]	@ float
 404:main.c        ****                 }else{
 2717              		.loc 1 404 0
 2718 075c 2046     		mov	r0, r4
 2719 075e FFF7FEFF 		bl	__aeabi_ui2f
 2720              	.LVL258:
 2721 0762 224B     		ldr	r3, .L189+12
 2722 0764 1860     		str	r0, [r3]	@ float
 2723 0766 04E0     		b	.L181
 2724              	.L180:
 406:main.c        ****                     b=0;
 2725              		.loc 1 406 0
 2726 0768 0023     		movs	r3, #0
 2727 076a 1F4A     		ldr	r2, .L189+8
 2728 076c 1360     		str	r3, [r2]	@ float
 407:main.c        ****                 }
 2729              		.loc 1 407 0
 2730 076e 1F4A     		ldr	r2, .L189+12
 2731 0770 1360     		str	r3, [r2]	@ float
 2732              	.L181:
 410:main.c        ****                     valor=(pendiente*n)+b;
 2733              		.loc 1 410 0
 2734 0772 0022     		movs	r2, #0
 2735 0774 214B     		ldr	r3, .L189+28
 2736 0776 1A70     		strb	r2, [r3]
 2737 0778 25E0     		b	.L182
 2738              	.L183:
 411:main.c        ****                     sprintf(displayStr,"add 1,0,%u",(uint8)(valor*DIVISION));
 2739              		.loc 1 411 0 discriminator 3
 2740 077a 2046     		mov	r0, r4
 2741 077c FFF7FEFF 		bl	__aeabi_i2f
 2742              	.LVL259:
 2743 0780 194B     		ldr	r3, .L189+8
 2744 0782 1968     		ldr	r1, [r3]	@ float
 2745 0784 FFF7FEFF 		bl	__aeabi_fmul
 2746              	.LVL260:
 2747 0788 184B     		ldr	r3, .L189+12
 2748 078a 1968     		ldr	r1, [r3]	@ float
 2749 078c FFF7FEFF 		bl	__aeabi_fadd
 2750              	.LVL261:
 2751 0790 174B     		ldr	r3, .L189+16
 2752 0792 1860     		str	r0, [r3]	@ float
 412:main.c        ****                     escribeDisplay1(displayStr);  
 2753              		.loc 1 412 0 discriminator 3
 2754 0794 FFF7FEFF 		bl	__aeabi_f2d
 2755              	.LVL262:
 2756 0798 11A3     		adr	r3, .L189
 2757 079a D3E90023 		ldrd	r2, [r3]
 2758 079e FFF7FEFF 		bl	__aeabi_dmul
ARM GAS  C:\Users\JPELEC~1\AppData\Local\Temp\ccEetrge.s 			page 68


 2759              	.LVL263:
 2760 07a2 FFF7FEFF 		bl	__aeabi_d2uiz
 2761              	.LVL264:
 2762 07a6 134C     		ldr	r4, .L189+20
 2763 07a8 C2B2     		uxtb	r2, r0
 2764 07aa 1349     		ldr	r1, .L189+24
 2765 07ac 2046     		mov	r0, r4
 2766 07ae FFF7FEFF 		bl	sprintf
 2767              	.LVL265:
 413:main.c        ****                     CyDelayUs(1);
 2768              		.loc 1 413 0 discriminator 3
 2769 07b2 2046     		mov	r0, r4
 2770 07b4 FFF7FEFF 		bl	escribeDisplay1
 2771              	.LVL266:
 414:main.c        ****                 }                
 2772              		.loc 1 414 0 discriminator 3
 2773 07b8 0120     		movs	r0, #1
 2774 07ba FFF7FEFF 		bl	CyDelayUs
 2775              	.LVL267:
 410:main.c        ****                     valor=(pendiente*n)+b;
 2776              		.loc 1 410 0 discriminator 3
 2777 07be 0F4A     		ldr	r2, .L189+28
 2778 07c0 1378     		ldrb	r3, [r2]	@ zero_extendqisi2
 2779 07c2 0133     		adds	r3, r3, #1
 2780 07c4 1370     		strb	r3, [r2]
 2781              	.L182:
 410:main.c        ****                     valor=(pendiente*n)+b;
 2782              		.loc 1 410 0 is_stmt 0 discriminator 1
 2783 07c6 0D4B     		ldr	r3, .L189+28
 2784 07c8 1C78     		ldrb	r4, [r3]	@ zero_extendqisi2
 2785 07ca 2046     		mov	r0, r4
 2786 07cc FFF7FEFF 		bl	__aeabi_i2d
 2787              	.LVL268:
 2788 07d0 0022     		movs	r2, #0
 2789 07d2 0B4B     		ldr	r3, .L189+32
 2790 07d4 FFF7FEFF 		bl	__aeabi_dcmplt
 2791              	.LVL269:
 2792 07d8 0028     		cmp	r0, #0
 2793 07da CED1     		bne	.L183
 416:main.c        **** 
 2794              		.loc 1 416 0 is_stmt 1
 2795 07dc 10BD     		pop	{r4, pc}
 2796              	.L190:
 2797 07de 00BF     		.align	3
 2798              	.L189:
 2799 07e0 295C8FC2 		.word	-1030792151
 2800 07e4 F528CC3F 		.word	1070344437
 2801 07e8 00000000 		.word	pendiente
 2802 07ec 00000000 		.word	b
 2803 07f0 00000000 		.word	valor
 2804 07f4 00000000 		.word	displayStr
 2805 07f8 00000000 		.word	.LC0
 2806 07fc 00000000 		.word	n
 2807 0800 00804540 		.word	1078296576
 2808 0804 00000000 		.word	Programa
 2809 0808 00000000 		.word	Programas
 2810 080c 00002C42 		.word	1110179840
ARM GAS  C:\Users\JPELEC~1\AppData\Local\Temp\ccEetrge.s 			page 69


 2811              		.cfi_endproc
 2812              	.LFE71:
 2813              		.size	dibujaGrafico, .-dibujaGrafico
 2814              		.section	.text.LeeDisplay,"ax",%progbits
 2815              		.align	2
 2816              		.global	LeeDisplay
 2817              		.thumb
 2818              		.thumb_func
 2819              		.type	LeeDisplay, %function
 2820              	LeeDisplay:
 2821              	.LFB72:
 418:main.c        ****     if(Dato_Exitoso==5){
 2822              		.loc 1 418 0
 2823              		.cfi_startproc
 2824              		@ args = 0, pretend = 0, frame = 0
 2825              		@ frame_needed = 0, uses_anonymous_args = 0
 2826              		@ link register save eliminated.
 419:main.c        ****          Rx_Buffer[0]=Rx_Buffer2[0];
 2827              		.loc 1 419 0
 2828 0000 A14B     		ldr	r3, .L228
 2829 0002 1B78     		ldrb	r3, [r3]	@ zero_extendqisi2
 2830 0004 052B     		cmp	r3, #5
 2831 0006 40F0D880 		bne	.L192
 420:main.c        ****          Rx_Buffer[1]=Rx_Buffer2[1];
 2832              		.loc 1 420 0
 2833 000a A04A     		ldr	r2, .L228+4
 2834 000c 1178     		ldrb	r1, [r2]	@ zero_extendqisi2
 2835 000e A04B     		ldr	r3, .L228+8
 2836 0010 1970     		strb	r1, [r3]
 421:main.c        ****          Rx_Buffer[2]=Rx_Buffer2[2];
 2837              		.loc 1 421 0
 2838 0012 5178     		ldrb	r1, [r2, #1]	@ zero_extendqisi2
 2839 0014 5970     		strb	r1, [r3, #1]
 422:main.c        ****          Rx_Buffer[3]=Rx_Buffer2[3];
 2840              		.loc 1 422 0
 2841 0016 9178     		ldrb	r1, [r2, #2]	@ zero_extendqisi2
 2842 0018 9970     		strb	r1, [r3, #2]
 423:main.c        ****          Rx_Buffer[4]=Rx_Buffer2[4];
 2843              		.loc 1 423 0
 2844 001a D178     		ldrb	r1, [r2, #3]	@ zero_extendqisi2
 2845 001c D970     		strb	r1, [r3, #3]
 424:main.c        ****          Rx_Buffer[5]=Rx_Buffer2[5];
 2846              		.loc 1 424 0
 2847 001e 1079     		ldrb	r0, [r2, #4]	@ zero_extendqisi2
 2848 0020 1871     		strb	r0, [r3, #4]
 425:main.c        ****          Rx_Buffer[6]=Rx_Buffer2[6];
 2849              		.loc 1 425 0
 2850 0022 5079     		ldrb	r0, [r2, #5]	@ zero_extendqisi2
 2851 0024 5871     		strb	r0, [r3, #5]
 426:main.c        ****          Rx_Buffer[7]=Rx_Buffer2[7];
 2852              		.loc 1 426 0
 2853 0026 9079     		ldrb	r0, [r2, #6]	@ zero_extendqisi2
 2854 0028 9871     		strb	r0, [r3, #6]
 427:main.c        ****          Rx_Buffer[8]=Rx_Buffer2[8];
 2855              		.loc 1 427 0
 2856 002a D079     		ldrb	r0, [r2, #7]	@ zero_extendqisi2
 2857 002c D871     		strb	r0, [r3, #7]
ARM GAS  C:\Users\JPELEC~1\AppData\Local\Temp\ccEetrge.s 			page 70


 428:main.c        ****          Rx_Buffer[9]=Rx_Buffer2[9];
 2858              		.loc 1 428 0
 2859 002e 107A     		ldrb	r0, [r2, #8]	@ zero_extendqisi2
 2860 0030 1872     		strb	r0, [r3, #8]
 429:main.c        ****          
 2861              		.loc 1 429 0
 2862 0032 527A     		ldrb	r2, [r2, #9]	@ zero_extendqisi2
 2863 0034 5A72     		strb	r2, [r3, #9]
 431:main.c        ****          Menu=0;
 2864              		.loc 1 431 0
 2865 0036 0129     		cmp	r1, #1
 2866 0038 0AD1     		bne	.L193
 432:main.c        ****          if(MenuAntt!=Menu)
 2867              		.loc 1 432 0
 2868 003a 0022     		movs	r2, #0
 2869 003c 954B     		ldr	r3, .L228+12
 2870 003e 1A70     		strb	r2, [r3]
 433:main.c        ****             MenuAntt=Menu;
 2871              		.loc 1 433 0
 2872 0040 954B     		ldr	r3, .L228+16
 2873 0042 1B78     		ldrb	r3, [r3]	@ zero_extendqisi2
 2874 0044 002B     		cmp	r3, #0
 2875 0046 00F0C380 		beq	.L194
 434:main.c        ****       }else if(Rx_Buffer[3]==0x02){//02 es Menu Principal con PantallaPriincipal=0, y con PantallaP
 2876              		.loc 1 434 0
 2877 004a 934B     		ldr	r3, .L228+16
 2878 004c 1A70     		strb	r2, [r3]
 2879 004e BFE0     		b	.L194
 2880              	.L193:
 435:main.c        ****          Menu=1;
 2881              		.loc 1 435 0
 2882 0050 0229     		cmp	r1, #2
 2883 0052 0AD1     		bne	.L195
 436:main.c        ****          if(MenuAntt!=Menu)
 2884              		.loc 1 436 0
 2885 0054 0122     		movs	r2, #1
 2886 0056 8F4B     		ldr	r3, .L228+12
 2887 0058 1A70     		strb	r2, [r3]
 437:main.c        ****             MenuAntt=Menu;
 2888              		.loc 1 437 0
 2889 005a 8F4B     		ldr	r3, .L228+16
 2890 005c 1B78     		ldrb	r3, [r3]	@ zero_extendqisi2
 2891 005e 9342     		cmp	r3, r2
 2892 0060 00F0B680 		beq	.L194
 438:main.c        ****       }else if(Rx_Buffer[3]==0x04){//03 es Tiempo Esterilizacion
 2893              		.loc 1 438 0
 2894 0064 8C4B     		ldr	r3, .L228+16
 2895 0066 1A70     		strb	r2, [r3]
 2896 0068 B2E0     		b	.L194
 2897              	.L195:
 439:main.c        ****          Menu=2;
 2898              		.loc 1 439 0
 2899 006a 0429     		cmp	r1, #4
 2900 006c 0AD1     		bne	.L196
 440:main.c        ****          if(MenuAntt!=Menu)
 2901              		.loc 1 440 0
 2902 006e 0222     		movs	r2, #2
ARM GAS  C:\Users\JPELEC~1\AppData\Local\Temp\ccEetrge.s 			page 71


 2903 0070 884B     		ldr	r3, .L228+12
 2904 0072 1A70     		strb	r2, [r3]
 441:main.c        ****             MenuAntt=Menu;
 2905              		.loc 1 441 0
 2906 0074 884B     		ldr	r3, .L228+16
 2907 0076 1B78     		ldrb	r3, [r3]	@ zero_extendqisi2
 2908 0078 9342     		cmp	r3, r2
 2909 007a 00F0A980 		beq	.L194
 442:main.c        ****       }else if(Rx_Buffer[3]==0x05){//05 es Temperatura
 2910              		.loc 1 442 0
 2911 007e 864B     		ldr	r3, .L228+16
 2912 0080 1A70     		strb	r2, [r3]
 2913 0082 A5E0     		b	.L194
 2914              	.L196:
 443:main.c        ****          Menu=3;
 2915              		.loc 1 443 0
 2916 0084 0529     		cmp	r1, #5
 2917 0086 0AD1     		bne	.L197
 444:main.c        ****          if(MenuAntt!=Menu)
 2918              		.loc 1 444 0
 2919 0088 0322     		movs	r2, #3
 2920 008a 824B     		ldr	r3, .L228+12
 2921 008c 1A70     		strb	r2, [r3]
 445:main.c        ****             MenuAntt=Menu;
 2922              		.loc 1 445 0
 2923 008e 824B     		ldr	r3, .L228+16
 2924 0090 1B78     		ldrb	r3, [r3]	@ zero_extendqisi2
 2925 0092 9342     		cmp	r3, r2
 2926 0094 00F09C80 		beq	.L194
 446:main.c        ****       }else if(Rx_Buffer[3]==0x06){//06 es Nivel
 2927              		.loc 1 446 0
 2928 0098 7F4B     		ldr	r3, .L228+16
 2929 009a 1A70     		strb	r2, [r3]
 2930 009c 98E0     		b	.L194
 2931              	.L197:
 447:main.c        ****          Menu=5;
 2932              		.loc 1 447 0
 2933 009e 0629     		cmp	r1, #6
 2934 00a0 0AD1     		bne	.L198
 448:main.c        ****          if(MenuAntt!=Menu)
 2935              		.loc 1 448 0
 2936 00a2 0522     		movs	r2, #5
 2937 00a4 7B4B     		ldr	r3, .L228+12
 2938 00a6 1A70     		strb	r2, [r3]
 449:main.c        ****             MenuAntt=Menu;
 2939              		.loc 1 449 0
 2940 00a8 7B4B     		ldr	r3, .L228+16
 2941 00aa 1B78     		ldrb	r3, [r3]	@ zero_extendqisi2
 2942 00ac 9342     		cmp	r3, r2
 2943 00ae 00F08F80 		beq	.L194
 450:main.c        ****       }else if(Rx_Buffer[3]==0x07){//07 es Test de Componentes
 2944              		.loc 1 450 0
 2945 00b2 794B     		ldr	r3, .L228+16
 2946 00b4 1A70     		strb	r2, [r3]
 2947 00b6 8BE0     		b	.L194
 2948              	.L198:
 451:main.c        ****          Menu=6;
ARM GAS  C:\Users\JPELEC~1\AppData\Local\Temp\ccEetrge.s 			page 72


 2949              		.loc 1 451 0
 2950 00b8 0729     		cmp	r1, #7
 2951 00ba 0AD1     		bne	.L199
 452:main.c        ****          if(MenuAntt!=Menu)
 2952              		.loc 1 452 0
 2953 00bc 0622     		movs	r2, #6
 2954 00be 754B     		ldr	r3, .L228+12
 2955 00c0 1A70     		strb	r2, [r3]
 453:main.c        ****             MenuAntt=Menu;
 2956              		.loc 1 453 0
 2957 00c2 754B     		ldr	r3, .L228+16
 2958 00c4 1B78     		ldrb	r3, [r3]	@ zero_extendqisi2
 2959 00c6 9342     		cmp	r3, r2
 2960 00c8 00F08280 		beq	.L194
 454:main.c        ****       }else if(Rx_Buffer[3]==0x08){//08 es Fecha y hora
 2961              		.loc 1 454 0
 2962 00cc 724B     		ldr	r3, .L228+16
 2963 00ce 1A70     		strb	r2, [r3]
 2964 00d0 7EE0     		b	.L194
 2965              	.L199:
 455:main.c        ****          Menu=7;
 2966              		.loc 1 455 0
 2967 00d2 0829     		cmp	r1, #8
 2968 00d4 09D1     		bne	.L200
 456:main.c        ****          if(MenuAntt!=Menu)
 2969              		.loc 1 456 0
 2970 00d6 0722     		movs	r2, #7
 2971 00d8 6E4B     		ldr	r3, .L228+12
 2972 00da 1A70     		strb	r2, [r3]
 457:main.c        ****             MenuAntt=Menu;
 2973              		.loc 1 457 0
 2974 00dc 6E4B     		ldr	r3, .L228+16
 2975 00de 1B78     		ldrb	r3, [r3]	@ zero_extendqisi2
 2976 00e0 9342     		cmp	r3, r2
 2977 00e2 75D0     		beq	.L194
 458:main.c        ****       }else if(Rx_Buffer[3]==0x09){//09 es Rampas
 2978              		.loc 1 458 0
 2979 00e4 6C4B     		ldr	r3, .L228+16
 2980 00e6 1A70     		strb	r2, [r3]
 2981 00e8 72E0     		b	.L194
 2982              	.L200:
 459:main.c        ****          Menu=8;
 2983              		.loc 1 459 0
 2984 00ea 0929     		cmp	r1, #9
 2985 00ec 09D1     		bne	.L201
 460:main.c        ****          if(MenuAntt!=Menu)
 2986              		.loc 1 460 0
 2987 00ee 0822     		movs	r2, #8
 2988 00f0 684B     		ldr	r3, .L228+12
 2989 00f2 1A70     		strb	r2, [r3]
 461:main.c        ****             MenuAntt=Menu;
 2990              		.loc 1 461 0
 2991 00f4 684B     		ldr	r3, .L228+16
 2992 00f6 1B78     		ldrb	r3, [r3]	@ zero_extendqisi2
 2993 00f8 9342     		cmp	r3, r2
 2994 00fa 69D0     		beq	.L194
 462:main.c        ****       }else if(Rx_Buffer[3]==0x0a){//0a es Pulsos de Vacio
ARM GAS  C:\Users\JPELEC~1\AppData\Local\Temp\ccEetrge.s 			page 73


 2995              		.loc 1 462 0
 2996 00fc 664B     		ldr	r3, .L228+16
 2997 00fe 1A70     		strb	r2, [r3]
 2998 0100 66E0     		b	.L194
 2999              	.L201:
 463:main.c        ****          Menu=9;
 3000              		.loc 1 463 0
 3001 0102 0A29     		cmp	r1, #10
 3002 0104 09D1     		bne	.L202
 464:main.c        ****          if(MenuAntt!=Menu)
 3003              		.loc 1 464 0
 3004 0106 0922     		movs	r2, #9
 3005 0108 624B     		ldr	r3, .L228+12
 3006 010a 1A70     		strb	r2, [r3]
 465:main.c        ****             MenuAntt=Menu;
 3007              		.loc 1 465 0
 3008 010c 624B     		ldr	r3, .L228+16
 3009 010e 1B78     		ldrb	r3, [r3]	@ zero_extendqisi2
 3010 0110 9342     		cmp	r3, r2
 3011 0112 5DD0     		beq	.L194
 466:main.c        ****       }else if(Rx_Buffer[3]==0x0f){//0f es Recibe caracteres de contraseña desde display
 3012              		.loc 1 466 0
 3013 0114 604B     		ldr	r3, .L228+16
 3014 0116 1A70     		strb	r2, [r3]
 3015 0118 5AE0     		b	.L194
 3016              	.L202:
 467:main.c        ****          
 3017              		.loc 1 467 0
 3018 011a 0F29     		cmp	r1, #15
 3019 011c 58D0     		beq	.L194
 469:main.c        ****          Menu=20;
 3020              		.loc 1 469 0
 3021 011e 1A29     		cmp	r1, #26
 3022 0120 09D1     		bne	.L203
 470:main.c        ****          if(MenuAntt!=Menu)
 3023              		.loc 1 470 0
 3024 0122 1422     		movs	r2, #20
 3025 0124 5B4B     		ldr	r3, .L228+12
 3026 0126 1A70     		strb	r2, [r3]
 471:main.c        ****             MenuAntt=Menu;
 3027              		.loc 1 471 0
 3028 0128 5B4B     		ldr	r3, .L228+16
 3029 012a 1B78     		ldrb	r3, [r3]	@ zero_extendqisi2
 3030 012c 9342     		cmp	r3, r2
 3031 012e 4FD0     		beq	.L194
 472:main.c        ****       }else if(Rx_Buffer[3]==0x1b){//1b es Menu de clave correcta
 3032              		.loc 1 472 0
 3033 0130 594B     		ldr	r3, .L228+16
 3034 0132 1A70     		strb	r2, [r3]
 3035 0134 4CE0     		b	.L194
 3036              	.L203:
 473:main.c        ****          Menu=15;
 3037              		.loc 1 473 0
 3038 0136 1B29     		cmp	r1, #27
 3039 0138 09D1     		bne	.L204
 474:main.c        ****          if(MenuAntt!=Menu)
 3040              		.loc 1 474 0
ARM GAS  C:\Users\JPELEC~1\AppData\Local\Temp\ccEetrge.s 			page 74


 3041 013a 0F22     		movs	r2, #15
 3042 013c 554B     		ldr	r3, .L228+12
 3043 013e 1A70     		strb	r2, [r3]
 475:main.c        ****             MenuAntt=Menu;
 3044              		.loc 1 475 0
 3045 0140 554B     		ldr	r3, .L228+16
 3046 0142 1B78     		ldrb	r3, [r3]	@ zero_extendqisi2
 3047 0144 9342     		cmp	r3, r2
 3048 0146 43D0     		beq	.L194
 476:main.c        ****       }else if(Rx_Buffer[3]==0x1c){//1c es Menu de clave incorrecta
 3049              		.loc 1 476 0
 3050 0148 534B     		ldr	r3, .L228+16
 3051 014a 1A70     		strb	r2, [r3]
 3052 014c 40E0     		b	.L194
 3053              	.L204:
 477:main.c        ****          Menu=16;
 3054              		.loc 1 477 0
 3055 014e 1C29     		cmp	r1, #28
 3056 0150 09D1     		bne	.L205
 478:main.c        ****          if(MenuAntt!=Menu)
 3057              		.loc 1 478 0
 3058 0152 1022     		movs	r2, #16
 3059 0154 4F4B     		ldr	r3, .L228+12
 3060 0156 1A70     		strb	r2, [r3]
 479:main.c        ****             MenuAntt=Menu;
 3061              		.loc 1 479 0
 3062 0158 4F4B     		ldr	r3, .L228+16
 3063 015a 1B78     		ldrb	r3, [r3]	@ zero_extendqisi2
 3064 015c 9342     		cmp	r3, r2
 3065 015e 37D0     		beq	.L194
 480:main.c        ****       }else if(Rx_Buffer[3]==0x1d){//1d es Menu de Eliminado Programa
 3066              		.loc 1 480 0
 3067 0160 4D4B     		ldr	r3, .L228+16
 3068 0162 1A70     		strb	r2, [r3]
 3069 0164 34E0     		b	.L194
 3070              	.L205:
 481:main.c        ****          Menu=17;
 3071              		.loc 1 481 0
 3072 0166 1D29     		cmp	r1, #29
 3073 0168 09D1     		bne	.L206
 482:main.c        ****          if(MenuAntt!=Menu)
 3074              		.loc 1 482 0
 3075 016a 1122     		movs	r2, #17
 3076 016c 494B     		ldr	r3, .L228+12
 3077 016e 1A70     		strb	r2, [r3]
 483:main.c        ****             MenuAntt=Menu;
 3078              		.loc 1 483 0
 3079 0170 494B     		ldr	r3, .L228+16
 3080 0172 1B78     		ldrb	r3, [r3]	@ zero_extendqisi2
 3081 0174 9342     		cmp	r3, r2
 3082 0176 2BD0     		beq	.L194
 484:main.c        ****       }else if(Rx_Buffer[3]==0x1e){//1d es Menu de Pregunta
 3083              		.loc 1 484 0
 3084 0178 474B     		ldr	r3, .L228+16
 3085 017a 1A70     		strb	r2, [r3]
 3086 017c 28E0     		b	.L194
 3087              	.L206:
ARM GAS  C:\Users\JPELEC~1\AppData\Local\Temp\ccEetrge.s 			page 75


 485:main.c        ****          Menu=18;
 3088              		.loc 1 485 0
 3089 017e 1E29     		cmp	r1, #30
 3090 0180 09D1     		bne	.L207
 486:main.c        ****          if(MenuAntt!=Menu)
 3091              		.loc 1 486 0
 3092 0182 1222     		movs	r2, #18
 3093 0184 434B     		ldr	r3, .L228+12
 3094 0186 1A70     		strb	r2, [r3]
 487:main.c        ****             MenuAntt=Menu;
 3095              		.loc 1 487 0
 3096 0188 434B     		ldr	r3, .L228+16
 3097 018a 1B78     		ldrb	r3, [r3]	@ zero_extendqisi2
 3098 018c 9342     		cmp	r3, r2
 3099 018e 1FD0     		beq	.L194
 488:main.c        ****       }else if(Rx_Buffer[3]==0x2c){//2c es Menu de Configuracion de Parametros
 3100              		.loc 1 488 0
 3101 0190 414B     		ldr	r3, .L228+16
 3102 0192 1A70     		strb	r2, [r3]
 3103 0194 1CE0     		b	.L194
 3104              	.L207:
 489:main.c        ****          Menu=100;
 3105              		.loc 1 489 0
 3106 0196 2C29     		cmp	r1, #44
 3107 0198 09D1     		bne	.L208
 490:main.c        ****          if(MenuAntt!=Menu)
 3108              		.loc 1 490 0
 3109 019a 6422     		movs	r2, #100
 3110 019c 3D4B     		ldr	r3, .L228+12
 3111 019e 1A70     		strb	r2, [r3]
 491:main.c        ****             MenuAntt=Menu;
 3112              		.loc 1 491 0
 3113 01a0 3D4B     		ldr	r3, .L228+16
 3114 01a2 1B78     		ldrb	r3, [r3]	@ zero_extendqisi2
 3115 01a4 9342     		cmp	r3, r2
 3116 01a6 13D0     		beq	.L194
 492:main.c        ****       }else if(Rx_Buffer[3]==0xcc){//cc es Menu de Bienvenida
 3117              		.loc 1 492 0
 3118 01a8 3B4B     		ldr	r3, .L228+16
 3119 01aa 1A70     		strb	r2, [r3]
 3120 01ac 10E0     		b	.L194
 3121              	.L208:
 493:main.c        ****          Menu=120;
 3122              		.loc 1 493 0
 3123 01ae CC29     		cmp	r1, #204
 3124 01b0 0ED1     		bne	.L194
 494:main.c        ****          //if(MenuAntt!=120)
 3125              		.loc 1 494 0
 3126 01b2 7822     		movs	r2, #120
 3127 01b4 374B     		ldr	r3, .L228+12
 3128 01b6 1A70     		strb	r2, [r3]
 3129 01b8 0AE0     		b	.L194
 3130              	.L192:
 499:main.c        ****             //Rx_Buffer[z]=0;
 3131              		.loc 1 499 0
 3132 01ba 0022     		movs	r2, #0
 3133 01bc 374B     		ldr	r3, .L228+20
ARM GAS  C:\Users\JPELEC~1\AppData\Local\Temp\ccEetrge.s 			page 76


 3134 01be 1A70     		strb	r2, [r3]
 3135 01c0 02E0     		b	.L209
 3136              	.L210:
 499:main.c        ****             //Rx_Buffer[z]=0;
 3137              		.loc 1 499 0 is_stmt 0 discriminator 3
 3138 01c2 0133     		adds	r3, r3, #1
 3139 01c4 354A     		ldr	r2, .L228+20
 3140 01c6 1370     		strb	r3, [r2]
 3141              	.L209:
 499:main.c        ****             //Rx_Buffer[z]=0;
 3142              		.loc 1 499 0 discriminator 1
 3143 01c8 344B     		ldr	r3, .L228+20
 3144 01ca 1B78     		ldrb	r3, [r3]	@ zero_extendqisi2
 3145 01cc 092B     		cmp	r3, #9
 3146 01ce F8D9     		bls	.L210
 3147              	.L194:
 505:main.c        ****          Rx_Buffer3[0]=Rx_Buffer4[0];
 3148              		.loc 1 505 0 is_stmt 1
 3149 01d0 334B     		ldr	r3, .L228+24
 3150 01d2 1B78     		ldrb	r3, [r3]	@ zero_extendqisi2
 3151 01d4 052B     		cmp	r3, #5
 3152 01d6 40F0D580 		bne	.L211
 506:main.c        ****          Rx_Buffer3[1]=Rx_Buffer4[1];
 3153              		.loc 1 506 0
 3154 01da 324A     		ldr	r2, .L228+28
 3155 01dc 1178     		ldrb	r1, [r2]	@ zero_extendqisi2
 3156 01de 324B     		ldr	r3, .L228+32
 3157 01e0 1970     		strb	r1, [r3]
 507:main.c        ****          Rx_Buffer3[2]=Rx_Buffer4[2];
 3158              		.loc 1 507 0
 3159 01e2 5178     		ldrb	r1, [r2, #1]	@ zero_extendqisi2
 3160 01e4 5970     		strb	r1, [r3, #1]
 508:main.c        ****          Rx_Buffer3[3]=Rx_Buffer4[3];
 3161              		.loc 1 508 0
 3162 01e6 9178     		ldrb	r1, [r2, #2]	@ zero_extendqisi2
 3163 01e8 9970     		strb	r1, [r3, #2]
 509:main.c        ****          Rx_Buffer3[4]=Rx_Buffer4[4];
 3164              		.loc 1 509 0
 3165 01ea D178     		ldrb	r1, [r2, #3]	@ zero_extendqisi2
 3166 01ec D970     		strb	r1, [r3, #3]
 510:main.c        ****          Rx_Buffer3[5]=Rx_Buffer4[5];
 3167              		.loc 1 510 0
 3168 01ee 1079     		ldrb	r0, [r2, #4]	@ zero_extendqisi2
 3169 01f0 1871     		strb	r0, [r3, #4]
 511:main.c        ****          Rx_Buffer3[6]=Rx_Buffer4[6];
 3170              		.loc 1 511 0
 3171 01f2 5079     		ldrb	r0, [r2, #5]	@ zero_extendqisi2
 3172 01f4 5871     		strb	r0, [r3, #5]
 512:main.c        ****          Rx_Buffer3[7]=Rx_Buffer4[7];
 3173              		.loc 1 512 0
 3174 01f6 9079     		ldrb	r0, [r2, #6]	@ zero_extendqisi2
 3175 01f8 9871     		strb	r0, [r3, #6]
 513:main.c        ****          Rx_Buffer3[8]=Rx_Buffer4[8];
 3176              		.loc 1 513 0
 3177 01fa D079     		ldrb	r0, [r2, #7]	@ zero_extendqisi2
 3178 01fc D871     		strb	r0, [r3, #7]
 514:main.c        ****          Rx_Buffer3[9]=Rx_Buffer4[9];
ARM GAS  C:\Users\JPELEC~1\AppData\Local\Temp\ccEetrge.s 			page 77


 3179              		.loc 1 514 0
 3180 01fe 107A     		ldrb	r0, [r2, #8]	@ zero_extendqisi2
 3181 0200 1872     		strb	r0, [r3, #8]
 515:main.c        ****          
 3182              		.loc 1 515 0
 3183 0202 527A     		ldrb	r2, [r2, #9]	@ zero_extendqisi2
 3184 0204 5A72     		strb	r2, [r3, #9]
 517:main.c        ****          Menu2=0;
 3185              		.loc 1 517 0
 3186 0206 0129     		cmp	r1, #1
 3187 0208 0AD1     		bne	.L212
 518:main.c        ****          if(MenuAntt2!=Menu2)
 3188              		.loc 1 518 0
 3189 020a 0022     		movs	r2, #0
 3190 020c 274B     		ldr	r3, .L228+36
 3191 020e 1A70     		strb	r2, [r3]
 519:main.c        ****             MenuAntt2=Menu2;
 3192              		.loc 1 519 0
 3193 0210 274B     		ldr	r3, .L228+40
 3194 0212 1B78     		ldrb	r3, [r3]	@ zero_extendqisi2
 3195 0214 002B     		cmp	r3, #0
 3196 0216 00F0C080 		beq	.L191
 520:main.c        ****       }else if(Rx_Buffer3[3]==0x02){//02 es Menu Principal con PantallaPriincipal=0, y con Pantalla
 3197              		.loc 1 520 0
 3198 021a 254B     		ldr	r3, .L228+40
 3199 021c 1A70     		strb	r2, [r3]
 3200 021e 7047     		bx	lr
 3201              	.L212:
 521:main.c        ****          Menu2=1;
 3202              		.loc 1 521 0
 3203 0220 0229     		cmp	r1, #2
 3204 0222 0AD1     		bne	.L214
 522:main.c        ****          if(MenuAntt2!=Menu2)
 3205              		.loc 1 522 0
 3206 0224 0122     		movs	r2, #1
 3207 0226 214B     		ldr	r3, .L228+36
 3208 0228 1A70     		strb	r2, [r3]
 523:main.c        ****             MenuAntt2=Menu2;
 3209              		.loc 1 523 0
 3210 022a 214B     		ldr	r3, .L228+40
 3211 022c 1B78     		ldrb	r3, [r3]	@ zero_extendqisi2
 3212 022e 9342     		cmp	r3, r2
 3213 0230 00F0B380 		beq	.L191
 524:main.c        ****       }else if(Rx_Buffer3[3]==0x04){//03 es Tiempo Esterilizacion
 3214              		.loc 1 524 0
 3215 0234 1E4B     		ldr	r3, .L228+40
 3216 0236 1A70     		strb	r2, [r3]
 3217 0238 7047     		bx	lr
 3218              	.L214:
 525:main.c        ****          Menu2=2;
 3219              		.loc 1 525 0
 3220 023a 0429     		cmp	r1, #4
 3221 023c 0AD1     		bne	.L215
 526:main.c        ****          if(MenuAntt2!=Menu2)
 3222              		.loc 1 526 0
 3223 023e 0222     		movs	r2, #2
 3224 0240 1A4B     		ldr	r3, .L228+36
ARM GAS  C:\Users\JPELEC~1\AppData\Local\Temp\ccEetrge.s 			page 78


 3225 0242 1A70     		strb	r2, [r3]
 527:main.c        ****             MenuAntt2=Menu2;
 3226              		.loc 1 527 0
 3227 0244 1A4B     		ldr	r3, .L228+40
 3228 0246 1B78     		ldrb	r3, [r3]	@ zero_extendqisi2
 3229 0248 9342     		cmp	r3, r2
 3230 024a 00F0A680 		beq	.L191
 528:main.c        ****       }else if(Rx_Buffer3[3]==0x05){//05 es Temperatura
 3231              		.loc 1 528 0
 3232 024e 184B     		ldr	r3, .L228+40
 3233 0250 1A70     		strb	r2, [r3]
 3234 0252 7047     		bx	lr
 3235              	.L215:
 529:main.c        ****          Menu2=3;
 3236              		.loc 1 529 0
 3237 0254 0529     		cmp	r1, #5
 3238 0256 0AD1     		bne	.L216
 530:main.c        ****          if(MenuAntt2!=Menu2)
 3239              		.loc 1 530 0
 3240 0258 0322     		movs	r2, #3
 3241 025a 144B     		ldr	r3, .L228+36
 3242 025c 1A70     		strb	r2, [r3]
 531:main.c        ****             MenuAntt2=Menu2;
 3243              		.loc 1 531 0
 3244 025e 144B     		ldr	r3, .L228+40
 3245 0260 1B78     		ldrb	r3, [r3]	@ zero_extendqisi2
 3246 0262 9342     		cmp	r3, r2
 3247 0264 00F09980 		beq	.L191
 532:main.c        ****       }else if(Rx_Buffer3[3]==0x06){//06 es Nivel
 3248              		.loc 1 532 0
 3249 0268 114B     		ldr	r3, .L228+40
 3250 026a 1A70     		strb	r2, [r3]
 3251 026c 7047     		bx	lr
 3252              	.L216:
 533:main.c        ****          Menu2=5;
 3253              		.loc 1 533 0
 3254 026e 0629     		cmp	r1, #6
 3255 0270 20D1     		bne	.L217
 534:main.c        ****          if(MenuAntt2!=Menu2)
 3256              		.loc 1 534 0
 3257 0272 0522     		movs	r2, #5
 3258 0274 0D4B     		ldr	r3, .L228+36
 3259 0276 1A70     		strb	r2, [r3]
 535:main.c        ****             MenuAntt2=Menu2;
 3260              		.loc 1 535 0
 3261 0278 0D4B     		ldr	r3, .L228+40
 3262 027a 1B78     		ldrb	r3, [r3]	@ zero_extendqisi2
 3263 027c 9342     		cmp	r3, r2
 3264 027e 00F08C80 		beq	.L191
 536:main.c        ****       }else if(Rx_Buffer3[3]==0x07){//07 es Test de Componentes
 3265              		.loc 1 536 0
 3266 0282 0B4B     		ldr	r3, .L228+40
 3267 0284 1A70     		strb	r2, [r3]
 3268 0286 7047     		bx	lr
 3269              	.L229:
 3270              		.align	2
 3271              	.L228:
ARM GAS  C:\Users\JPELEC~1\AppData\Local\Temp\ccEetrge.s 			page 79


 3272 0288 00000000 		.word	Dato_Exitoso
 3273 028c 00000000 		.word	Rx_Buffer2
 3274 0290 00000000 		.word	Rx_Buffer
 3275 0294 00000000 		.word	Menu
 3276 0298 00000000 		.word	MenuAntt
 3277 029c 00000000 		.word	z
 3278 02a0 00000000 		.word	Dato_Exitoso2
 3279 02a4 00000000 		.word	Rx_Buffer4
 3280 02a8 00000000 		.word	Rx_Buffer3
 3281 02ac 00000000 		.word	Menu2
 3282 02b0 00000000 		.word	MenuAntt2
 3283              	.L217:
 537:main.c        ****          Menu2=6;
 3284              		.loc 1 537 0
 3285 02b4 0729     		cmp	r1, #7
 3286 02b6 09D1     		bne	.L218
 538:main.c        ****          if(MenuAntt2!=Menu2)
 3287              		.loc 1 538 0
 3288 02b8 0622     		movs	r2, #6
 3289 02ba 384B     		ldr	r3, .L230
 3290 02bc 1A70     		strb	r2, [r3]
 539:main.c        ****             MenuAntt2=Menu2;
 3291              		.loc 1 539 0
 3292 02be 384B     		ldr	r3, .L230+4
 3293 02c0 1B78     		ldrb	r3, [r3]	@ zero_extendqisi2
 3294 02c2 9342     		cmp	r3, r2
 3295 02c4 69D0     		beq	.L191
 540:main.c        ****       }else if(Rx_Buffer3[3]==0x08){//08 es Fecha y hora
 3296              		.loc 1 540 0
 3297 02c6 364B     		ldr	r3, .L230+4
 3298 02c8 1A70     		strb	r2, [r3]
 3299 02ca 7047     		bx	lr
 3300              	.L218:
 541:main.c        ****          Menu2=7;
 3301              		.loc 1 541 0
 3302 02cc 0829     		cmp	r1, #8
 3303 02ce 09D1     		bne	.L219
 542:main.c        ****          if(MenuAntt2!=Menu2)
 3304              		.loc 1 542 0
 3305 02d0 0722     		movs	r2, #7
 3306 02d2 324B     		ldr	r3, .L230
 3307 02d4 1A70     		strb	r2, [r3]
 543:main.c        ****             MenuAntt2=Menu2;
 3308              		.loc 1 543 0
 3309 02d6 324B     		ldr	r3, .L230+4
 3310 02d8 1B78     		ldrb	r3, [r3]	@ zero_extendqisi2
 3311 02da 9342     		cmp	r3, r2
 3312 02dc 5DD0     		beq	.L191
 544:main.c        ****       }else if(Rx_Buffer3[3]==0x09){//09 es Rampas
 3313              		.loc 1 544 0
 3314 02de 304B     		ldr	r3, .L230+4
 3315 02e0 1A70     		strb	r2, [r3]
 3316 02e2 7047     		bx	lr
 3317              	.L219:
 545:main.c        ****          Menu2=8;
 3318              		.loc 1 545 0
 3319 02e4 0929     		cmp	r1, #9
ARM GAS  C:\Users\JPELEC~1\AppData\Local\Temp\ccEetrge.s 			page 80


 3320 02e6 09D1     		bne	.L220
 546:main.c        ****          if(MenuAntt2!=Menu2)
 3321              		.loc 1 546 0
 3322 02e8 0822     		movs	r2, #8
 3323 02ea 2C4B     		ldr	r3, .L230
 3324 02ec 1A70     		strb	r2, [r3]
 547:main.c        ****             MenuAntt2=Menu2;
 3325              		.loc 1 547 0
 3326 02ee 2C4B     		ldr	r3, .L230+4
 3327 02f0 1B78     		ldrb	r3, [r3]	@ zero_extendqisi2
 3328 02f2 9342     		cmp	r3, r2
 3329 02f4 51D0     		beq	.L191
 548:main.c        ****       }else if(Rx_Buffer3[3]==0x0a){//0a es Grafica
 3330              		.loc 1 548 0
 3331 02f6 2A4B     		ldr	r3, .L230+4
 3332 02f8 1A70     		strb	r2, [r3]
 3333 02fa 7047     		bx	lr
 3334              	.L220:
 549:main.c        ****          Menu2=9;
 3335              		.loc 1 549 0
 3336 02fc 0A29     		cmp	r1, #10
 3337 02fe 09D1     		bne	.L221
 550:main.c        ****          if(MenuAntt2!=Menu2)
 3338              		.loc 1 550 0
 3339 0300 0922     		movs	r2, #9
 3340 0302 264B     		ldr	r3, .L230
 3341 0304 1A70     		strb	r2, [r3]
 551:main.c        ****             MenuAntt2=Menu2;
 3342              		.loc 1 551 0
 3343 0306 264B     		ldr	r3, .L230+4
 3344 0308 1B78     		ldrb	r3, [r3]	@ zero_extendqisi2
 3345 030a 9342     		cmp	r3, r2
 3346 030c 45D0     		beq	.L191
 552:main.c        ****       }else if(Rx_Buffer3[3]==0x0f){//0f es Recibe caracteres de contraseña desde display
 3347              		.loc 1 552 0
 3348 030e 244B     		ldr	r3, .L230+4
 3349 0310 1A70     		strb	r2, [r3]
 3350 0312 7047     		bx	lr
 3351              	.L221:
 553:main.c        ****          
 3352              		.loc 1 553 0
 3353 0314 0F29     		cmp	r1, #15
 3354 0316 40D0     		beq	.L191
 555:main.c        ****          Menu2=20;
 3355              		.loc 1 555 0
 3356 0318 1A29     		cmp	r1, #26
 3357 031a 09D1     		bne	.L222
 556:main.c        ****          if(MenuAntt2!=Menu2)
 3358              		.loc 1 556 0
 3359 031c 1422     		movs	r2, #20
 3360 031e 1F4B     		ldr	r3, .L230
 3361 0320 1A70     		strb	r2, [r3]
 557:main.c        ****             MenuAntt2=Menu2;
 3362              		.loc 1 557 0
 3363 0322 1F4B     		ldr	r3, .L230+4
 3364 0324 1B78     		ldrb	r3, [r3]	@ zero_extendqisi2
 3365 0326 9342     		cmp	r3, r2
ARM GAS  C:\Users\JPELEC~1\AppData\Local\Temp\ccEetrge.s 			page 81


 3366 0328 37D0     		beq	.L191
 558:main.c        ****       }else if(Rx_Buffer3[3]==0x1b){//1b es Menu de clave correcta
 3367              		.loc 1 558 0
 3368 032a 1D4B     		ldr	r3, .L230+4
 3369 032c 1A70     		strb	r2, [r3]
 3370 032e 7047     		bx	lr
 3371              	.L222:
 559:main.c        ****          Menu2=15;
 3372              		.loc 1 559 0
 3373 0330 1B29     		cmp	r1, #27
 3374 0332 09D1     		bne	.L223
 560:main.c        ****          if(MenuAntt2!=Menu2)
 3375              		.loc 1 560 0
 3376 0334 0F22     		movs	r2, #15
 3377 0336 194B     		ldr	r3, .L230
 3378 0338 1A70     		strb	r2, [r3]
 561:main.c        ****             MenuAntt2=Menu2;
 3379              		.loc 1 561 0
 3380 033a 194B     		ldr	r3, .L230+4
 3381 033c 1B78     		ldrb	r3, [r3]	@ zero_extendqisi2
 3382 033e 9342     		cmp	r3, r2
 3383 0340 2BD0     		beq	.L191
 562:main.c        ****       }else if(Rx_Buffer3[3]==0x1c){//1c es Menu de clave incorrecta
 3384              		.loc 1 562 0
 3385 0342 174B     		ldr	r3, .L230+4
 3386 0344 1A70     		strb	r2, [r3]
 3387 0346 7047     		bx	lr
 3388              	.L223:
 563:main.c        ****          Menu2=16;
 3389              		.loc 1 563 0
 3390 0348 1C29     		cmp	r1, #28
 3391 034a 09D1     		bne	.L224
 564:main.c        ****          if(MenuAntt2!=Menu2)
 3392              		.loc 1 564 0
 3393 034c 1022     		movs	r2, #16
 3394 034e 134B     		ldr	r3, .L230
 3395 0350 1A70     		strb	r2, [r3]
 565:main.c        ****             MenuAntt2=Menu2;
 3396              		.loc 1 565 0
 3397 0352 134B     		ldr	r3, .L230+4
 3398 0354 1B78     		ldrb	r3, [r3]	@ zero_extendqisi2
 3399 0356 9342     		cmp	r3, r2
 3400 0358 1FD0     		beq	.L191
 566:main.c        ****       }else if(Rx_Buffer3[3]==0x2c){//2c es Menu de Configuracion de Parametros
 3401              		.loc 1 566 0
 3402 035a 114B     		ldr	r3, .L230+4
 3403 035c 1A70     		strb	r2, [r3]
 3404 035e 7047     		bx	lr
 3405              	.L224:
 567:main.c        ****          Menu2=100;
 3406              		.loc 1 567 0
 3407 0360 2C29     		cmp	r1, #44
 3408 0362 09D1     		bne	.L225
 568:main.c        ****          if(MenuAntt2!=Menu2)
 3409              		.loc 1 568 0
 3410 0364 6422     		movs	r2, #100
 3411 0366 0D4B     		ldr	r3, .L230
ARM GAS  C:\Users\JPELEC~1\AppData\Local\Temp\ccEetrge.s 			page 82


 3412 0368 1A70     		strb	r2, [r3]
 569:main.c        ****             MenuAntt2=Menu2;
 3413              		.loc 1 569 0
 3414 036a 0D4B     		ldr	r3, .L230+4
 3415 036c 1B78     		ldrb	r3, [r3]	@ zero_extendqisi2
 3416 036e 9342     		cmp	r3, r2
 3417 0370 13D0     		beq	.L191
 570:main.c        ****       }else if(Rx_Buffer3[3]==0xcc){//cc es Menu de Bienvenida
 3418              		.loc 1 570 0
 3419 0372 0B4B     		ldr	r3, .L230+4
 3420 0374 1A70     		strb	r2, [r3]
 3421 0376 7047     		bx	lr
 3422              	.L225:
 571:main.c        ****          Menu2=120;
 3423              		.loc 1 571 0
 3424 0378 CC29     		cmp	r1, #204
 3425 037a 0ED1     		bne	.L191
 572:main.c        ****          //if(MenuAntt!=120)
 3426              		.loc 1 572 0
 3427 037c 7822     		movs	r2, #120
 3428 037e 074B     		ldr	r3, .L230
 3429 0380 1A70     		strb	r2, [r3]
 3430 0382 7047     		bx	lr
 3431              	.L211:
 577:main.c        ****             //Rx_Buffer[z]=0;
 3432              		.loc 1 577 0
 3433 0384 0022     		movs	r2, #0
 3434 0386 074B     		ldr	r3, .L230+8
 3435 0388 1A70     		strb	r2, [r3]
 3436 038a 02E0     		b	.L226
 3437              	.L227:
 577:main.c        ****             //Rx_Buffer[z]=0;
 3438              		.loc 1 577 0 is_stmt 0 discriminator 3
 3439 038c 0133     		adds	r3, r3, #1
 3440 038e 054A     		ldr	r2, .L230+8
 3441 0390 1370     		strb	r3, [r2]
 3442              	.L226:
 577:main.c        ****             //Rx_Buffer[z]=0;
 3443              		.loc 1 577 0 discriminator 1
 3444 0392 044B     		ldr	r3, .L230+8
 3445 0394 1B78     		ldrb	r3, [r3]	@ zero_extendqisi2
 3446 0396 092B     		cmp	r3, #9
 3447 0398 F8D9     		bls	.L227
 3448              	.L191:
 3449 039a 7047     		bx	lr
 3450              	.L231:
 3451              		.align	2
 3452              	.L230:
 3453 039c 00000000 		.word	Menu2
 3454 03a0 00000000 		.word	MenuAntt2
 3455 03a4 00000000 		.word	z
 3456              		.cfi_endproc
 3457              	.LFE72:
 3458              		.size	LeeDisplay, .-LeeDisplay
 3459              		.global	__aeabi_dcmpge
 3460              		.section	.text.controlaRampa,"ax",%progbits
 3461              		.align	2
ARM GAS  C:\Users\JPELEC~1\AppData\Local\Temp\ccEetrge.s 			page 83


 3462              		.global	controlaRampa
 3463              		.thumb
 3464              		.thumb_func
 3465              		.type	controlaRampa, %function
 3466              	controlaRampa:
 3467              	.LFB73:
 584:main.c        ****       if(Temperatura>=Setpoint-10.0 && Temperatura<=Setpoint+40){
 3468              		.loc 1 584 0 is_stmt 1
 3469              		.cfi_startproc
 3470              		@ args = 0, pretend = 0, frame = 0
 3471              		@ frame_needed = 0, uses_anonymous_args = 0
 3472 0000 F8B5     		push	{r3, r4, r5, r6, r7, lr}
 3473              		.cfi_def_cfa_offset 24
 3474              		.cfi_offset 3, -24
 3475              		.cfi_offset 4, -20
 3476              		.cfi_offset 5, -16
 3477              		.cfi_offset 6, -12
 3478              		.cfi_offset 7, -8
 3479              		.cfi_offset 14, -4
 585:main.c        ****          if(Pendiente!=0){
 3480              		.loc 1 585 0
 3481 0002 344B     		ldr	r3, .L258
 3482 0004 1C68     		ldr	r4, [r3]	@ float
 3483 0006 2046     		mov	r0, r4
 3484 0008 FFF7FEFF 		bl	__aeabi_f2d
 3485              	.LVL270:
 3486 000c 0646     		mov	r6, r0
 3487 000e 0F46     		mov	r7, r1
 3488 0010 314B     		ldr	r3, .L258+4
 3489 0012 1D88     		ldrh	r5, [r3]
 3490 0014 2846     		mov	r0, r5
 3491 0016 FFF7FEFF 		bl	__aeabi_i2d
 3492              	.LVL271:
 3493 001a 0022     		movs	r2, #0
 3494 001c 2F4B     		ldr	r3, .L258+8
 3495 001e FFF7FEFF 		bl	__aeabi_dsub
 3496              	.LVL272:
 3497 0022 0246     		mov	r2, r0
 3498 0024 0B46     		mov	r3, r1
 3499 0026 3046     		mov	r0, r6
 3500 0028 3946     		mov	r1, r7
 3501 002a FFF7FEFF 		bl	__aeabi_dcmpge
 3502              	.LVL273:
 3503 002e 30B3     		cbz	r0, .L233
 585:main.c        ****          if(Pendiente!=0){
 3504              		.loc 1 585 0 is_stmt 0 discriminator 1
 3505 0030 05F12800 		add	r0, r5, #40
 3506 0034 FFF7FEFF 		bl	__aeabi_i2f
 3507              	.LVL274:
 3508 0038 0146     		mov	r1, r0
 3509 003a 2046     		mov	r0, r4
 3510 003c FFF7FEFF 		bl	__aeabi_fcmple
 3511              	.LVL275:
 3512 0040 E8B1     		cbz	r0, .L233
 586:main.c        ****             escribeDisplay2("t1.txt=\"Controlando\"");
 3513              		.loc 1 586 0 is_stmt 1
 3514 0042 0021     		movs	r1, #0
ARM GAS  C:\Users\JPELEC~1\AppData\Local\Temp\ccEetrge.s 			page 84


 3515 0044 264B     		ldr	r3, .L258+12
 3516 0046 1868     		ldr	r0, [r3]	@ float
 3517 0048 FFF7FEFF 		bl	__aeabi_fcmpeq
 3518              	.LVL276:
 3519 004c 28B9     		cbnz	r0, .L236
 587:main.c        ****             flagTemperatura=ON;            
 3520              		.loc 1 587 0
 3521 004e 2548     		ldr	r0, .L258+16
 3522 0050 FFF7FEFF 		bl	escribeDisplay2
 3523              	.LVL277:
 588:main.c        ****          }
 3524              		.loc 1 588 0
 3525 0054 0122     		movs	r2, #1
 3526 0056 244B     		ldr	r3, .L258+20
 3527 0058 1A80     		strh	r2, [r3]	@ movhi
 3528              	.L236:
 591:main.c        ****             escribeDisplay2("t1.txt=\"Meseta\"");
 3529              		.loc 1 591 0
 3530 005a 0021     		movs	r1, #0
 3531 005c 204B     		ldr	r3, .L258+12
 3532 005e 1868     		ldr	r0, [r3]	@ float
 3533 0060 FFF7FEFF 		bl	__aeabi_fcmpeq
 3534              	.LVL278:
 3535 0064 28B1     		cbz	r0, .L238
 592:main.c        ****             flagTemperatura=ON;
 3536              		.loc 1 592 0
 3537 0066 2148     		ldr	r0, .L258+24
 3538 0068 FFF7FEFF 		bl	escribeDisplay2
 3539              	.LVL279:
 593:main.c        ****          }
 3540              		.loc 1 593 0
 3541 006c 0122     		movs	r2, #1
 3542 006e 1E4B     		ldr	r3, .L258+20
 3543 0070 1A80     		strh	r2, [r3]	@ movhi
 3544              	.L238:
 595:main.c        ****          flag_tiempocalentamiento=0;
 3545              		.loc 1 595 0
 3546 0072 FFF7FEFF 		bl	Controla
 3547              	.LVL280:
 596:main.c        ****       }else{
 3548              		.loc 1 596 0
 3549 0076 0022     		movs	r2, #0
 3550 0078 1D4B     		ldr	r3, .L258+28
 3551 007a 1A80     		strh	r2, [r3]	@ movhi
 3552 007c F8BD     		pop	{r3, r4, r5, r6, r7, pc}
 3553              	.L233:
 598:main.c        ****             if(Pendiente>0)
 3554              		.loc 1 598 0
 3555 007e 184B     		ldr	r3, .L258+12
 3556 0080 1C68     		ldr	r4, [r3]	@ float
 3557 0082 0021     		movs	r1, #0
 3558 0084 2046     		mov	r0, r4
 3559 0086 FFF7FEFF 		bl	__aeabi_fcmpeq
 3560              	.LVL281:
 3561 008a 98B9     		cbnz	r0, .L241
 599:main.c        ****                 escribeDisplay2("t1.txt=\"Rampa +\"");
 3562              		.loc 1 599 0
ARM GAS  C:\Users\JPELEC~1\AppData\Local\Temp\ccEetrge.s 			page 85


 3563 008c 0021     		movs	r1, #0
 3564 008e 2046     		mov	r0, r4
 3565 0090 FFF7FEFF 		bl	__aeabi_fcmpgt
 3566              	.LVL282:
 3567 0094 10B1     		cbz	r0, .L243
 600:main.c        ****             if(Pendiente<0)
 3568              		.loc 1 600 0
 3569 0096 1748     		ldr	r0, .L258+32
 3570 0098 FFF7FEFF 		bl	escribeDisplay2
 3571              	.LVL283:
 3572              	.L243:
 601:main.c        ****                 escribeDisplay2("t1.txt=\"Rampa -\"");    
 3573              		.loc 1 601 0
 3574 009c 0021     		movs	r1, #0
 3575 009e 104B     		ldr	r3, .L258+12
 3576 00a0 1868     		ldr	r0, [r3]	@ float
 3577 00a2 FFF7FEFF 		bl	__aeabi_fcmplt
 3578              	.LVL284:
 3579 00a6 10B1     		cbz	r0, .L245
 602:main.c        ****             flagTemperatura=ON;            
 3580              		.loc 1 602 0
 3581 00a8 1348     		ldr	r0, .L258+36
 3582 00aa FFF7FEFF 		bl	escribeDisplay2
 3583              	.LVL285:
 3584              	.L245:
 603:main.c        ****          }
 3585              		.loc 1 603 0
 3586 00ae 0122     		movs	r2, #1
 3587 00b0 0D4B     		ldr	r3, .L258+20
 3588 00b2 1A80     		strh	r2, [r3]	@ movhi
 3589              	.L241:
 605:main.c        ****             escribeDisplay2("t1.txt=\"Calentando\"");
 3590              		.loc 1 605 0
 3591 00b4 0021     		movs	r1, #0
 3592 00b6 0A4B     		ldr	r3, .L258+12
 3593 00b8 1868     		ldr	r0, [r3]	@ float
 3594 00ba FFF7FEFF 		bl	__aeabi_fcmpeq
 3595              	.LVL286:
 3596 00be 28B1     		cbz	r0, .L247
 606:main.c        ****             flagTemperatura=OFF;            
 3597              		.loc 1 606 0
 3598 00c0 0E48     		ldr	r0, .L258+40
 3599 00c2 FFF7FEFF 		bl	escribeDisplay2
 3600              	.LVL287:
 607:main.c        ****          }
 3601              		.loc 1 607 0
 3602 00c6 0022     		movs	r2, #0
 3603 00c8 074B     		ldr	r3, .L258+20
 3604 00ca 1A80     		strh	r2, [r3]	@ movhi
 3605              	.L247:
 609:main.c        ****       }
 3606              		.loc 1 609 0
 3607 00cc FFF7FEFF 		bl	Controla
 3608              	.LVL288:
 3609 00d0 F8BD     		pop	{r3, r4, r5, r6, r7, pc}
 3610              	.L259:
 3611 00d2 00BF     		.align	2
ARM GAS  C:\Users\JPELEC~1\AppData\Local\Temp\ccEetrge.s 			page 86


 3612              	.L258:
 3613 00d4 00000000 		.word	Temperatura
 3614 00d8 00000000 		.word	Setpoint
 3615 00dc 00002440 		.word	1076101120
 3616 00e0 00000000 		.word	Pendiente
 3617 00e4 0C000000 		.word	.LC1
 3618 00e8 00000000 		.word	flagTemperatura
 3619 00ec 24000000 		.word	.LC2
 3620 00f0 00000000 		.word	flag_tiempocalentamiento
 3621 00f4 34000000 		.word	.LC3
 3622 00f8 48000000 		.word	.LC4
 3623 00fc 5C000000 		.word	.LC5
 3624              		.cfi_endproc
 3625              	.LFE73:
 3626              		.size	controlaRampa, .-controlaRampa
 3627              		.section	.text.leeTermocupla,"ax",%progbits
 3628              		.align	2
 3629              		.global	leeTermocupla
 3630              		.thumb
 3631              		.thumb_func
 3632              		.type	leeTermocupla, %function
 3633              	leeTermocupla:
 3634              	.LFB74:
 613:main.c        ****     Prom=0.0;
 3635              		.loc 1 613 0
 3636              		.cfi_startproc
 3637              		@ args = 0, pretend = 0, frame = 0
 3638              		@ frame_needed = 0, uses_anonymous_args = 0
 3639              	.LVL289:
 3640 0000 F8B5     		push	{r3, r4, r5, r6, r7, lr}
 3641              		.cfi_def_cfa_offset 24
 3642              		.cfi_offset 3, -24
 3643              		.cfi_offset 4, -20
 3644              		.cfi_offset 5, -16
 3645              		.cfi_offset 6, -12
 3646              		.cfi_offset 7, -8
 3647              		.cfi_offset 14, -4
 3648 0002 0646     		mov	r6, r0
 614:main.c        ****     /* Measure cold junction temperature */
 3649              		.loc 1 614 0
 3650 0004 0022     		movs	r2, #0
 3651 0006 424B     		ldr	r3, .L265
 3652 0008 1A60     		str	r2, [r3]	@ float
 616:main.c        **** 	/* Convert cold junction temp to cold junction compensation voltage */
 3653              		.loc 1 616 0
 3654 000a FFF7FEFF 		bl	MeasureColdJnSensorTemp
 3655              	.LVL290:
 3656 000e 00B2     		sxth	r0, r0
 3657 0010 404B     		ldr	r3, .L265+4
 3658 0012 1880     		strh	r0, [r3]	@ movhi
 618:main.c        **** 	/* Read thermocouple hot junction voltage */
 3659              		.loc 1 618 0
 3660 0014 FFF7FEFF 		bl	Thermocouple_1_GetVoltage
 3661              	.LVL291:
 3662 0018 3F4C     		ldr	r4, .L265+8
 3663 001a 2060     		str	r0, [r4]
 621:main.c        **** 	ADC_StartConvert();
ARM GAS  C:\Users\JPELEC~1\AppData\Local\Temp\ccEetrge.s 			page 87


 3664              		.loc 1 621 0
 3665 001c 0121     		movs	r1, #1
 3666 001e 0220     		movs	r0, #2
 3667 0020 FFF7FEFF 		bl	ADC_SelectConfiguration
 3668              	.LVL292:
 622:main.c        ****     /*Note in this example a blocking call is used, this can be replaced
 3669              		.loc 1 622 0
 3670 0024 FFF7FEFF 		bl	ADC_StartConvert
 3671              	.LVL293:
 625:main.c        **** 	ADC_StopConvert();
 3672              		.loc 1 625 0
 3673 0028 0020     		movs	r0, #0
 3674 002a FFF7FEFF 		bl	ADC_IsEndConversion
 3675              	.LVL294:
 626:main.c        **** 	hotJnCount = ADC_GetResult32();
 3676              		.loc 1 626 0
 3677 002e FFF7FEFF 		bl	ADC_StopConvert
 3678              	.LVL295:
 627:main.c        **** 	/* Read ground reference voltage */
 3679              		.loc 1 627 0
 3680 0032 FFF7FEFF 		bl	ADC_GetResult32
 3681              	.LVL296:
 3682 0036 394B     		ldr	r3, .L265+12
 3683 0038 1860     		str	r0, [r3]
 629:main.c        **** 	/* Correlated double sampling to remove ADC offset */
 3684              		.loc 1 629 0
 3685 003a 0022     		movs	r2, #0
 3686 003c 384B     		ldr	r3, .L265+16
 3687 003e 1A80     		strh	r2, [r3]	@ movhi
 633:main.c        **** 	/* Find thermo-emf in microvolts */
 3688              		.loc 1 633 0
 3689 0040 FFF7FEFF 		bl	FilterSignal
 3690              	.LVL297:
 3691 0044 374B     		ldr	r3, .L265+20
 3692 0046 1860     		str	r0, [r3]
 635:main.c        **** 	/* Perform Cold junction compensation */
 3693              		.loc 1 635 0
 3694 0048 FFF7FEFF 		bl	ADC_CountsTo_uVolts
 3695              	.LVL298:
 3696 004c 364B     		ldr	r3, .L265+24
 3697 004e 1860     		str	r0, [r3]
 637:main.c        **** 	/* Convert thermo-emf to temperature */
 3698              		.loc 1 637 0
 3699 0050 2368     		ldr	r3, [r4]
 3700 0052 1844     		add	r0, r0, r3
 3701 0054 354B     		ldr	r3, .L265+28
 3702 0056 1860     		str	r0, [r3]
 639:main.c        ****     V0=(float)(tcTemp/100)+(float)(tcTemp-((tcTemp/100)*100))/100;
 3703              		.loc 1 639 0
 3704 0058 FFF7FEFF 		bl	Thermocouple_1_GetTemperature
 3705              	.LVL299:
 3706 005c 0546     		mov	r5, r0
 3707 005e 344B     		ldr	r3, .L265+32
 3708 0060 1860     		str	r0, [r3]
 640:main.c        ****             
 3709              		.loc 1 640 0
 3710 0062 344C     		ldr	r4, .L265+36
ARM GAS  C:\Users\JPELEC~1\AppData\Local\Temp\ccEetrge.s 			page 88


 3711 0064 84FB0034 		smull	r3, r4, r4, r0
 3712 0068 C317     		asrs	r3, r0, #31
 3713 006a C3EB6414 		rsb	r4, r3, r4, asr #5
 3714 006e 2046     		mov	r0, r4
 3715 0070 FFF7FEFF 		bl	__aeabi_i2f
 3716              	.LVL300:
 3717 0074 0746     		mov	r7, r0
 3718 0076 6420     		movs	r0, #100
 3719 0078 00FB1450 		mls	r0, r0, r4, r5
 3720 007c FFF7FEFF 		bl	__aeabi_i2f
 3721              	.LVL301:
 3722 0080 2D49     		ldr	r1, .L265+40
 3723 0082 FFF7FEFF 		bl	__aeabi_fdiv
 3724              	.LVL302:
 3725 0086 0146     		mov	r1, r0
 3726 0088 3846     		mov	r0, r7
 3727 008a FFF7FEFF 		bl	__aeabi_fadd
 3728              	.LVL303:
 3729 008e 2B4B     		ldr	r3, .L265+44
 3730 0090 1860     		str	r0, [r3]	@ float
 642:main.c        ****         l=0;
 3731              		.loc 1 642 0
 3732 0092 2B4B     		ldr	r3, .L265+48
 3733 0094 1A78     		ldrb	r2, [r3]	@ zero_extendqisi2
 3734 0096 731E     		subs	r3, r6, #1
 3735 0098 9A42     		cmp	r2, r3
 3736 009a 02DD     		ble	.L261
 643:main.c        ****    //promedio[l]=Temperature;l++;
 3737              		.loc 1 643 0
 3738 009c 0022     		movs	r2, #0
 3739 009e 284B     		ldr	r3, .L265+48
 3740 00a0 1A70     		strb	r2, [r3]
 3741              	.L261:
 645:main.c        ****          
 3742              		.loc 1 645 0
 3743 00a2 274A     		ldr	r2, .L265+48
 3744 00a4 1378     		ldrb	r3, [r2]	@ zero_extendqisi2
 3745 00a6 2749     		ldr	r1, .L265+52
 3746 00a8 41F82300 		str	r0, [r1, r3, lsl #2]	@ float
 3747 00ac 0133     		adds	r3, r3, #1
 3748 00ae 1370     		strb	r3, [r2]
 647:main.c        ****         Prom+=promedio[h];
 3749              		.loc 1 647 0
 3750 00b0 0022     		movs	r2, #0
 3751 00b2 254B     		ldr	r3, .L265+56
 3752 00b4 1A70     		strb	r2, [r3]
 3753 00b6 0AE0     		b	.L262
 3754              	.L263:
 648:main.c        ****     } 
 3755              		.loc 1 648 0 discriminator 3
 3756 00b8 154D     		ldr	r5, .L265
 3757 00ba 224B     		ldr	r3, .L265+52
 3758 00bc 53F82410 		ldr	r1, [r3, r4, lsl #2]	@ float
 3759 00c0 2868     		ldr	r0, [r5]	@ float
 3760 00c2 FFF7FEFF 		bl	__aeabi_fadd
 3761              	.LVL304:
 3762 00c6 2860     		str	r0, [r5]	@ float
ARM GAS  C:\Users\JPELEC~1\AppData\Local\Temp\ccEetrge.s 			page 89


 647:main.c        ****         Prom+=promedio[h];
 3763              		.loc 1 647 0 discriminator 3
 3764 00c8 0134     		adds	r4, r4, #1
 3765 00ca 1F4B     		ldr	r3, .L265+56
 3766 00cc 1C70     		strb	r4, [r3]
 3767              	.L262:
 647:main.c        ****         Prom+=promedio[h];
 3768              		.loc 1 647 0 is_stmt 0 discriminator 1
 3769 00ce 1E4B     		ldr	r3, .L265+56
 3770 00d0 1C78     		ldrb	r4, [r3]	@ zero_extendqisi2
 3771 00d2 A642     		cmp	r6, r4
 3772 00d4 F0D8     		bhi	.L263
 650:main.c        ****    
 3773              		.loc 1 650 0 is_stmt 1
 3774 00d6 0E4C     		ldr	r4, .L265
 3775 00d8 3046     		mov	r0, r6
 3776 00da FFF7FEFF 		bl	__aeabi_i2f
 3777              	.LVL305:
 3778 00de 0146     		mov	r1, r0
 3779 00e0 2068     		ldr	r0, [r4]	@ float
 3780 00e2 FFF7FEFF 		bl	__aeabi_fdiv
 3781              	.LVL306:
 3782 00e6 0546     		mov	r5, r0
 652:main.c        ****    
 3783              		.loc 1 652 0
 3784 00e8 184B     		ldr	r3, .L265+60
 3785 00ea 1878     		ldrb	r0, [r3]	@ zero_extendqisi2
 3786 00ec FFF7FEFF 		bl	__aeabi_ui2f
 3787              	.LVL307:
 3788 00f0 0646     		mov	r6, r0
 3789 00f2 174B     		ldr	r3, .L265+64
 3790 00f4 1878     		ldrb	r0, [r3]	@ zero_extendqisi2
 3791 00f6 FFF7FEFF 		bl	__aeabi_ui2f
 3792              	.LVL308:
 3793 00fa 0146     		mov	r1, r0
 3794 00fc 3046     		mov	r0, r6
 3795 00fe FFF7FEFF 		bl	__aeabi_fsub
 3796              	.LVL309:
 3797 0102 0146     		mov	r1, r0
 3798 0104 2846     		mov	r0, r5
 3799 0106 FFF7FEFF 		bl	__aeabi_fadd
 3800              	.LVL310:
 3801 010a 2060     		str	r0, [r4]	@ float
 656:main.c        **** 
 3802              		.loc 1 656 0
 3803 010c F8BD     		pop	{r3, r4, r5, r6, r7, pc}
 3804              	.L266:
 3805 010e 00BF     		.align	2
 3806              	.L265:
 3807 0110 00000000 		.word	Prom
 3808 0114 00000000 		.word	coldJnTemp
 3809 0118 00000000 		.word	tcColdJnuVolt
 3810 011c 00000000 		.word	hotJnCount
 3811 0120 00000000 		.word	offset
 3812 0124 00000000 		.word	filHotJnCount
 3813 0128 00000000 		.word	tcHotJnuVolt
 3814 012c 00000000 		.word	tcuVolt
ARM GAS  C:\Users\JPELEC~1\AppData\Local\Temp\ccEetrge.s 			page 90


 3815 0130 00000000 		.word	tcTemp
 3816 0134 1F85EB51 		.word	1374389535
 3817 0138 0000C842 		.word	1120403456
 3818 013c 00000000 		.word	V0
 3819 0140 00000000 		.word	l
 3820 0144 00000000 		.word	promedio
 3821 0148 00000000 		.word	h
 3822 014c 00000000 		.word	Ajuste
 3823 0150 00000000 		.word	Ajusten
 3824              		.cfi_endproc
 3825              	.LFE74:
 3826              		.size	leeTermocupla, .-leeTermocupla
 3827              		.global	__aeabi_f2uiz
 3828              		.section	.text.main,"ax",%progbits
 3829              		.align	2
 3830              		.global	main
 3831              		.thumb
 3832              		.thumb_func
 3833              		.type	main, %function
 3834              	main:
 3835              	.LFB79:
 752:main.c        ****     
 753:main.c        **** }
 754:main.c        **** 
 755:main.c        **** int main(void)
 756:main.c        **** { 
 3836              		.loc 1 756 0
 3837              		.cfi_startproc
 3838              		@ Volatile: function does not return.
 3839              		@ args = 0, pretend = 0, frame = 0
 3840              		@ frame_needed = 0, uses_anonymous_args = 0
 3841 0000 80B5     		push	{r7, lr}
 3842              		.cfi_def_cfa_offset 8
 3843              		.cfi_offset 7, -8
 3844              		.cfi_offset 14, -4
 3845 0002 82B0     		sub	sp, sp, #8
 3846              		.cfi_def_cfa_offset 16
 757:main.c        ****     CyGlobalIntEnable; /* Enable global interrupts. */    
 3847              		.loc 1 757 0
 3848              		.syntax unified
 3849              	@ 757 "main.c" 1
 3850 0004 62B6     		CPSIE   i
 3851              	@ 0 "" 2
 758:main.c        **** 
 759:main.c        ****     Reloj_StartEx(Reloj2);
 3852              		.loc 1 759 0
 3853              		.thumb
 3854              		.syntax unified
 3855 0006 9E48     		ldr	r0, .L453+8
 3856 0008 FFF7FEFF 		bl	Reloj_StartEx
 3857              	.LVL311:
 760:main.c        ****     leeT_StartEx(lee);
 3858              		.loc 1 760 0
 3859 000c 9D48     		ldr	r0, .L453+12
 3860 000e FFF7FEFF 		bl	leeT_StartEx
 3861              	.LVL312:
 761:main.c        ****     UART_1_Start();
ARM GAS  C:\Users\JPELEC~1\AppData\Local\Temp\ccEetrge.s 			page 91


 3862              		.loc 1 761 0
 3863 0012 FFF7FEFF 		bl	UART_1_Start
 3864              	.LVL313:
 762:main.c        ****     UART_2_Start();
 3865              		.loc 1 762 0
 3866 0016 FFF7FEFF 		bl	UART_2_Start
 3867              	.LVL314:
 763:main.c        ****     UART_3_Start();
 3868              		.loc 1 763 0
 3869 001a FFF7FEFF 		bl	UART_3_Start
 3870              	.LVL315:
 764:main.c        ****     RX2_StartEx(inteRX);
 3871              		.loc 1 764 0
 3872 001e 9A48     		ldr	r0, .L453+16
 3873 0020 FFF7FEFF 		bl	RX2_StartEx
 3874              	.LVL316:
 765:main.c        ****     RX1_StartEx(inteRX1);  
 3875              		.loc 1 765 0
 3876 0024 9948     		ldr	r0, .L453+20
 3877 0026 FFF7FEFF 		bl	RX1_StartEx
 3878              	.LVL317:
 766:main.c        ****     Timer_Start();  
 3879              		.loc 1 766 0
 3880 002a FFF7FEFF 		bl	Timer_Start
 3881              	.LVL318:
 767:main.c        ****     Timer2_Start();  
 3882              		.loc 1 767 0
 3883 002e FFF7FEFF 		bl	Timer2_Start
 3884              	.LVL319:
 768:main.c        ****     EEPROM_Start(); 
 3885              		.loc 1 768 0
 3886 0032 FFF7FEFF 		bl	EEPROM_Start
 3887              	.LVL320:
 769:main.c        ****     ADC_Start();
 3888              		.loc 1 769 0
 3889 0036 FFF7FEFF 		bl	ADC_Start
 3890              	.LVL321:
 770:main.c        ****     ADC_SAR_Start();
 3891              		.loc 1 770 0
 3892 003a FFF7FEFF 		bl	ADC_SAR_Start
 3893              	.LVL322:
 771:main.c        ****     ADC_SAR_IRQ_StartEx(ADC_SAR_ISR_LOC);
 3894              		.loc 1 771 0
 3895 003e 9448     		ldr	r0, .L453+24
 3896 0040 FFF7FEFF 		bl	ADC_SAR_IRQ_StartEx
 3897              	.LVL323:
 772:main.c        ****     ADC_SAR_StartConvert();
 3898              		.loc 1 772 0
 3899 0044 FFF7FEFF 		bl	ADC_SAR_StartConvert
 3900              	.LVL324:
 773:main.c        ****     I2C_Start();
 3901              		.loc 1 773 0
 3902 0048 FFF7FEFF 		bl	I2C_Start
 3903              	.LVL325:
 774:main.c        ****     
 775:main.c        ****     LCD2_Write(1);
 3904              		.loc 1 775 0
ARM GAS  C:\Users\JPELEC~1\AppData\Local\Temp\ccEetrge.s 			page 92


 3905 004c 0120     		movs	r0, #1
 3906 004e FFF7FEFF 		bl	LCD2_Write
 3907              	.LVL326:
 776:main.c        ****     LCD1_Write(1);
 3908              		.loc 1 776 0
 3909 0052 0120     		movs	r0, #1
 3910 0054 FFF7FEFF 		bl	LCD1_Write
 3911              	.LVL327:
 777:main.c        ****     CyDelay(100);
 3912              		.loc 1 777 0
 3913 0058 6420     		movs	r0, #100
 3914 005a FFF7FEFF 		bl	CyDelay
 3915              	.LVL328:
 778:main.c        ****     
 779:main.c        ****     for(i=0;i<80;i++){
 3916              		.loc 1 779 0
 3917 005e 0022     		movs	r2, #0
 3918 0060 8C4B     		ldr	r3, .L453+28
 3919 0062 1A70     		strb	r2, [r3]
 3920 0064 09E0     		b	.L268
 3921              	.L269:
 780:main.c        ****         Temperatura=leeTermocupla(MediaMovil);
 3922              		.loc 1 780 0 discriminator 3
 3923 0066 8C4B     		ldr	r3, .L453+32
 3924 0068 1878     		ldrb	r0, [r3]	@ zero_extendqisi2
 3925 006a FFF7FEFF 		bl	leeTermocupla
 3926              	.LVL329:
 3927 006e 8B4B     		ldr	r3, .L453+36
 3928 0070 1860     		str	r0, [r3]	@ float
 779:main.c        ****         Temperatura=leeTermocupla(MediaMovil);
 3929              		.loc 1 779 0 discriminator 3
 3930 0072 884A     		ldr	r2, .L453+28
 3931 0074 1378     		ldrb	r3, [r2]	@ zero_extendqisi2
 3932 0076 0133     		adds	r3, r3, #1
 3933 0078 1370     		strb	r3, [r2]
 3934              	.L268:
 779:main.c        ****         Temperatura=leeTermocupla(MediaMovil);
 3935              		.loc 1 779 0 is_stmt 0 discriminator 1
 3936 007a 864B     		ldr	r3, .L453+28
 3937 007c 1B78     		ldrb	r3, [r3]	@ zero_extendqisi2
 3938 007e 4F2B     		cmp	r3, #79
 3939 0080 F1D9     		bls	.L269
 781:main.c        ****     }
 782:main.c        ****     penInicial=penMufla;
 3940              		.loc 1 782 0 is_stmt 1
 3941 0082 874B     		ldr	r3, .L453+40
 3942 0084 1A68     		ldr	r2, [r3]	@ float
 3943 0086 874B     		ldr	r3, .L453+44
 3944 0088 1A60     		str	r2, [r3]	@ float
 783:main.c        ****     Opcion=1;Control=0;
 3945              		.loc 1 783 0
 3946 008a 0125     		movs	r5, #1
 3947 008c 864B     		ldr	r3, .L453+48
 3948 008e 1D70     		strb	r5, [r3]
 3949 0090 0024     		movs	r4, #0
 3950 0092 864B     		ldr	r3, .L453+52
 3951 0094 1C80     		strh	r4, [r3]	@ movhi
ARM GAS  C:\Users\JPELEC~1\AppData\Local\Temp\ccEetrge.s 			page 93


 784:main.c        ****     Menu=120;Menu2=120;
 3952              		.loc 1 784 0
 3953 0096 7823     		movs	r3, #120
 3954 0098 854A     		ldr	r2, .L453+56
 3955 009a 1370     		strb	r3, [r2]
 3956 009c 854A     		ldr	r2, .L453+60
 3957 009e 1370     		strb	r3, [r2]
 785:main.c        ****     
 786:main.c        ****     escribeDisplay1("page Bienvenida");
 3958              		.loc 1 786 0
 3959 00a0 854F     		ldr	r7, .L453+64
 3960 00a2 3846     		mov	r0, r7
 3961 00a4 FFF7FEFF 		bl	escribeDisplay1
 3962              	.LVL330:
 787:main.c        ****     escribeDisplay1("bkcmd=0");
 3963              		.loc 1 787 0
 3964 00a8 844E     		ldr	r6, .L453+68
 3965 00aa 3046     		mov	r0, r6
 3966 00ac FFF7FEFF 		bl	escribeDisplay1
 3967              	.LVL331:
 788:main.c        ****     CyDelay(10);
 3968              		.loc 1 788 0
 3969 00b0 0A20     		movs	r0, #10
 3970 00b2 FFF7FEFF 		bl	CyDelay
 3971              	.LVL332:
 789:main.c        ****     escribeDisplay2("page Bienvenida");
 3972              		.loc 1 789 0
 3973 00b6 3846     		mov	r0, r7
 3974 00b8 FFF7FEFF 		bl	escribeDisplay2
 3975              	.LVL333:
 790:main.c        ****     escribeDisplay2("bkcmd=0");
 3976              		.loc 1 790 0
 3977 00bc 3046     		mov	r0, r6
 3978 00be FFF7FEFF 		bl	escribeDisplay2
 3979              	.LVL334:
 791:main.c        ****     
 792:main.c        ****     LED_Write(1);
 3980              		.loc 1 792 0
 3981 00c2 2846     		mov	r0, r5
 3982 00c4 FFF7FEFF 		bl	LED_Write
 3983              	.LVL335:
 793:main.c        ****     leeEEPROM();
 3984              		.loc 1 793 0
 3985 00c8 FFF7FEFF 		bl	leeEEPROM
 3986              	.LVL336:
 794:main.c        ****     LED_Write(0);
 3987              		.loc 1 794 0
 3988 00cc 2046     		mov	r0, r4
 3989 00ce FFF7FEFF 		bl	LED_Write
 3990              	.LVL337:
 3991              	.L409:
 795:main.c        **** 
 796:main.c        ****     for(;;)
 797:main.c        ****     { 
 798:main.c        ****         if((tGrafica>=(uint32)(((hEstp*3600)+(mEstp*60))/ANCHO)) && Menu==20){
 3992              		.loc 1 798 0
 3993 00d2 7B4B     		ldr	r3, .L453+72
ARM GAS  C:\Users\JPELEC~1\AppData\Local\Temp\ccEetrge.s 			page 94


 3994 00d4 1978     		ldrb	r1, [r3]	@ zero_extendqisi2
 3995 00d6 7B4B     		ldr	r3, .L453+76
 3996 00d8 1B78     		ldrb	r3, [r3]	@ zero_extendqisi2
 3997 00da C3EB0313 		rsb	r3, r3, r3, lsl #4
 3998 00de 9A00     		lsls	r2, r3, #2
 3999 00e0 4FF46160 		mov	r0, #3600
 4000 00e4 00FB0120 		mla	r0, r0, r1, r2
 4001 00e8 FFF7FEFF 		bl	__aeabi_i2d
 4002              	.LVL338:
 4003 00ec 0022     		movs	r2, #0
 4004 00ee 764B     		ldr	r3, .L453+80
 4005 00f0 FFF7FEFF 		bl	__aeabi_ddiv
 4006              	.LVL339:
 4007 00f4 FFF7FEFF 		bl	__aeabi_d2uiz
 4008              	.LVL340:
 4009 00f8 744B     		ldr	r3, .L453+84
 4010 00fa 1B68     		ldr	r3, [r3]
 4011 00fc 9842     		cmp	r0, r3
 4012 00fe 1DD8     		bhi	.L270
 4013              		.loc 1 798 0 is_stmt 0 discriminator 1
 4014 0100 6B4B     		ldr	r3, .L453+56
 4015 0102 1B78     		ldrb	r3, [r3]	@ zero_extendqisi2
 4016 0104 142B     		cmp	r3, #20
 4017 0106 19D1     		bne	.L270
 799:main.c        ****             tGrafica=0;
 4018              		.loc 1 799 0 is_stmt 1
 4019 0108 0022     		movs	r2, #0
 4020 010a 704B     		ldr	r3, .L453+84
 4021 010c 1A60     		str	r2, [r3]
 800:main.c        ****             escribeDisplay1("code_c");
 4022              		.loc 1 800 0
 4023 010e 7048     		ldr	r0, .L453+88
 4024 0110 FFF7FEFF 		bl	escribeDisplay1
 4025              	.LVL341:
 801:main.c        ****             sprintf(displayStr,"add 1,1,%u",(uint8)(Temperatura*DIVISION));
 4026              		.loc 1 801 0
 4027 0114 614B     		ldr	r3, .L453+36
 4028 0116 1868     		ldr	r0, [r3]	@ float
 4029 0118 FFF7FEFF 		bl	__aeabi_f2d
 4030              	.LVL342:
 4031 011c 56A3     		adr	r3, .L453
 4032 011e D3E90023 		ldrd	r2, [r3]
 4033 0122 FFF7FEFF 		bl	__aeabi_dmul
 4034              	.LVL343:
 4035 0126 FFF7FEFF 		bl	__aeabi_d2uiz
 4036              	.LVL344:
 4037 012a 6A4C     		ldr	r4, .L453+92
 4038 012c C2B2     		uxtb	r2, r0
 4039 012e 6A49     		ldr	r1, .L453+96
 4040 0130 2046     		mov	r0, r4
 4041 0132 FFF7FEFF 		bl	sprintf
 4042              	.LVL345:
 802:main.c        ****             escribeDisplay1(displayStr);
 4043              		.loc 1 802 0
 4044 0136 2046     		mov	r0, r4
 4045 0138 FFF7FEFF 		bl	escribeDisplay1
 4046              	.LVL346:
ARM GAS  C:\Users\JPELEC~1\AppData\Local\Temp\ccEetrge.s 			page 95


 4047              	.L270:
 803:main.c        ****         }
 804:main.c        ****         if(Lectura2){
 4048              		.loc 1 804 0
 4049 013c 674B     		ldr	r3, .L453+100
 4050 013e B3F90030 		ldrsh	r3, [r3]
 4051 0142 002B     		cmp	r3, #0
 4052 0144 50D0     		beq	.L271
 805:main.c        ****             grafica=ON;
 4053              		.loc 1 805 0
 4054 0146 0125     		movs	r5, #1
 4055 0148 654B     		ldr	r3, .L453+104
 4056 014a 1D80     		strh	r5, [r3]	@ movhi
 806:main.c        ****             Lectura2=0;
 4057              		.loc 1 806 0
 4058 014c 0026     		movs	r6, #0
 4059 014e 634B     		ldr	r3, .L453+100
 4060 0150 1E80     		strh	r6, [r3]	@ movhi
 807:main.c        ****             Temperatura=leeTermocupla(MediaMovil);
 4061              		.loc 1 807 0
 4062 0152 514B     		ldr	r3, .L453+32
 4063 0154 1878     		ldrb	r0, [r3]	@ zero_extendqisi2
 4064 0156 FFF7FEFF 		bl	leeTermocupla
 4065              	.LVL347:
 4066 015a 0746     		mov	r7, r0
 4067 015c 4F4B     		ldr	r3, .L453+36
 4068 015e 1860     		str	r0, [r3]	@ float
 808:main.c        ****             i2cbuf[0]=(uint8)Temperatura;
 4069              		.loc 1 808 0
 4070 0160 FFF7FEFF 		bl	__aeabi_f2uiz
 4071              	.LVL348:
 4072 0164 5F4C     		ldr	r4, .L453+108
 4073 0166 2070     		strb	r0, [r4]
 809:main.c        ****             i2cbuf[1]=extraeDecimal(Temperatura);
 4074              		.loc 1 809 0
 4075 0168 3846     		mov	r0, r7
 4076 016a FFF7FEFF 		bl	extraeDecimal
 4077              	.LVL349:
 4078 016e 6070     		strb	r0, [r4, #1]
 810:main.c        ****             i2cbuf[2]=0xff;
 4079              		.loc 1 810 0
 4080 0170 FF23     		movs	r3, #255
 4081 0172 A370     		strb	r3, [r4, #2]
 811:main.c        ****             i2cbuf[3]=0x0e;
 4082              		.loc 1 811 0
 4083 0174 0E23     		movs	r3, #14
 4084 0176 E370     		strb	r3, [r4, #3]
 812:main.c        ****             I2C_MasterWriteBuf(0xB0,i2cbuf,1,I2C_MODE_COMPLETE_XFER);
 4085              		.loc 1 812 0
 4086 0178 3346     		mov	r3, r6
 4087 017a 2A46     		mov	r2, r5
 4088 017c 2146     		mov	r1, r4
 4089 017e B020     		movs	r0, #176
 4090 0180 FFF7FEFF 		bl	I2C_MasterWriteBuf
 4091              	.LVL350:
 813:main.c        ****             if (tcHotJnuVolt < BROKEN_TC_THRESHOLD){
 4092              		.loc 1 813 0
ARM GAS  C:\Users\JPELEC~1\AppData\Local\Temp\ccEetrge.s 			page 96


 4093 0184 584B     		ldr	r3, .L453+112
 4094 0186 1A68     		ldr	r2, [r3]
 4095 0188 584B     		ldr	r3, .L453+116
 4096 018a 9A42     		cmp	r2, r3
 4097 018c 09DA     		bge	.L272
 814:main.c        ****                 sprintf(displayStr,"T:----- \r\n");
 4098              		.loc 1 814 0
 4099 018e 514A     		ldr	r2, .L453+92
 4100 0190 574B     		ldr	r3, .L453+120
 4101 0192 03CB     		ldmia	r3!, {r0, r1}
 4102 0194 1060     		str	r0, [r2]	@ unaligned
 4103 0196 5160     		str	r1, [r2, #4]	@ unaligned
 4104 0198 1988     		ldrh	r1, [r3]	@ unaligned
 4105 019a 9B78     		ldrb	r3, [r3, #2]	@ zero_extendqisi2
 4106 019c 1181     		strh	r1, [r2, #8]	@ unaligned
 4107 019e 9372     		strb	r3, [r2, #10]
 4108 01a0 09E0     		b	.L273
 4109              	.L272:
 815:main.c        ****             }else{
 816:main.c        ****                 sprintf(displayStr,"T:%1.2fC \r\n",Temperatura);
 4110              		.loc 1 816 0
 4111 01a2 3E4B     		ldr	r3, .L453+36
 4112 01a4 1868     		ldr	r0, [r3]	@ float
 4113 01a6 FFF7FEFF 		bl	__aeabi_f2d
 4114              	.LVL351:
 4115 01aa 0246     		mov	r2, r0
 4116 01ac 0B46     		mov	r3, r1
 4117 01ae 5149     		ldr	r1, .L453+124
 4118 01b0 4848     		ldr	r0, .L453+92
 4119 01b2 FFF7FEFF 		bl	sprintf
 4120              	.LVL352:
 4121              	.L273:
 817:main.c        ****             }
 818:main.c        ****             UART_3_PutString(displayStr);
 4122              		.loc 1 818 0
 4123 01b6 4748     		ldr	r0, .L453+92
 4124 01b8 FFF7FEFF 		bl	UART_3_PutString
 4125              	.LVL353:
 819:main.c        ****             
 820:main.c        ****             if(!Test){
 4126              		.loc 1 820 0
 4127 01bc 4E4B     		ldr	r3, .L453+128
 4128 01be B3F90030 		ldrsh	r3, [r3]
 4129 01c2 8BB9     		cbnz	r3, .L271
 821:main.c        ****                 if(coldJnTemp>=3000){
 4130              		.loc 1 821 0
 4131 01c4 4D4B     		ldr	r3, .L453+132
 4132 01c6 B3F90030 		ldrsh	r3, [r3]
 4133 01ca 40F6B732 		movw	r2, #2999
 4134 01ce 9342     		cmp	r3, r2
 4135 01d0 03DD     		ble	.L274
 822:main.c        ****                     VENT1_Write(0);    
 4136              		.loc 1 822 0
 4137 01d2 0020     		movs	r0, #0
 4138 01d4 FFF7FEFF 		bl	VENT1_Write
 4139              	.LVL354:
 4140 01d8 06E0     		b	.L271
ARM GAS  C:\Users\JPELEC~1\AppData\Local\Temp\ccEetrge.s 			page 97


 4141              	.L274:
 823:main.c        ****                 }else if(coldJnTemp<2500){
 4142              		.loc 1 823 0
 4143 01da 40F6C312 		movw	r2, #2499
 4144 01de 9342     		cmp	r3, r2
 4145 01e0 02DC     		bgt	.L271
 824:main.c        ****                     VENT1_Write(1);   
 4146              		.loc 1 824 0
 4147 01e2 0120     		movs	r0, #1
 4148 01e4 FFF7FEFF 		bl	VENT1_Write
 4149              	.LVL355:
 4150              	.L271:
 825:main.c        ****                 }
 826:main.c        ****             }
 827:main.c        ****         }
 828:main.c        ****         LeeDisplay();
 4151              		.loc 1 828 0
 4152 01e8 FFF7FEFF 		bl	LeeDisplay
 4153              	.LVL356:
 829:main.c        ****         
 830:main.c        **** //_------------------------------------------------------------------------------------------------
 831:main.c        ****     if(Menu == 120){ //Menu de Bienvenida.
 4154              		.loc 1 831 0
 4155 01ec 304B     		ldr	r3, .L453+56
 4156 01ee 1B78     		ldrb	r3, [r3]	@ zero_extendqisi2
 4157 01f0 782B     		cmp	r3, #120
 4158 01f2 0DD1     		bne	.L275
 832:main.c        ****             escribeDisplay2("bkcmd=0");
 4159              		.loc 1 832 0
 4160 01f4 314C     		ldr	r4, .L453+68
 4161 01f6 2046     		mov	r0, r4
 4162 01f8 FFF7FEFF 		bl	escribeDisplay2
 4163              	.LVL357:
 833:main.c        ****             escribeDisplay1("bkcmd=0");
 4164              		.loc 1 833 0
 4165 01fc 2046     		mov	r0, r4
 4166 01fe FFF7FEFF 		bl	escribeDisplay1
 4167              	.LVL358:
 834:main.c        ****             CyDelay(1500);
 4168              		.loc 1 834 0
 4169 0202 40F2DC50 		movw	r0, #1500
 4170 0206 FFF7FEFF 		bl	CyDelay
 4171              	.LVL359:
 835:main.c        ****             escribeDisplay2("page Clave");
 4172              		.loc 1 835 0
 4173 020a 3D48     		ldr	r0, .L453+136
 4174 020c FFF7FEFF 		bl	escribeDisplay2
 4175              	.LVL360:
 4176              	.L275:
 836:main.c        ****             //escribeDisplay2("page Test");
 837:main.c        ****         }
 838:main.c        **** //_------------------------------------------------------------------------------------------------
 839:main.c        ****         
 840:main.c        **** //_------------------------------------------------------------------------------------------------
 841:main.c        ****     if(Menu==0){ //Menu de Contraseña de acceso.
 4177              		.loc 1 841 0
 4178 0210 274B     		ldr	r3, .L453+56
ARM GAS  C:\Users\JPELEC~1\AppData\Local\Temp\ccEetrge.s 			page 98


 4179 0212 1B78     		ldrb	r3, [r3]	@ zero_extendqisi2
 4180 0214 002B     		cmp	r3, #0
 4181 0216 40F01082 		bne	.L276
 842:main.c        ****       //ApagaSalidas();
 843:main.c        ****       entro=0;
 4182              		.loc 1 843 0
 4183 021a 0022     		movs	r2, #0
 4184 021c 394B     		ldr	r3, .L453+140
 4185 021e 1A80     		strh	r2, [r3]	@ movhi
 844:main.c        ****       if(Rx_Buffer[4]==0x11){//11
 4186              		.loc 1 844 0
 4187 0220 394B     		ldr	r3, .L453+144
 4188 0222 1B79     		ldrb	r3, [r3, #4]	@ zero_extendqisi2
 4189 0224 112B     		cmp	r3, #17
 4190 0226 05D1     		bne	.L277
 845:main.c        ****          if(TipoClave!=0){
 4191              		.loc 1 845 0
 4192 0228 384B     		ldr	r3, .L453+148
 4193 022a 1B78     		ldrb	r3, [r3]	@ zero_extendqisi2
 4194 022c 13B1     		cbz	r3, .L277
 846:main.c        ****             escribeDisplay2("page Principal");
 4195              		.loc 1 846 0
 4196 022e 3848     		ldr	r0, .L453+152
 4197 0230 FFF7FEFF 		bl	escribeDisplay2
 4198              	.LVL361:
 4199              	.L277:
 847:main.c        ****          }
 848:main.c        ****       }
 849:main.c        ****       
 850:main.c        ****       if(TipoClave==3){
 4200              		.loc 1 850 0
 4201 0234 354B     		ldr	r3, .L453+148
 4202 0236 1B78     		ldrb	r3, [r3]	@ zero_extendqisi2
 4203 0238 032B     		cmp	r3, #3
 4204 023a 06D1     		bne	.L278
 851:main.c        ****          escribeDisplay2("titulo.txt=\"Clave Nueva\"");
 4205              		.loc 1 851 0
 4206 023c 3548     		ldr	r0, .L453+156
 4207 023e FFF7FEFF 		bl	escribeDisplay2
 4208              	.LVL362:
 852:main.c        ****          escribeDisplay2("doevents");
 4209              		.loc 1 852 0
 4210 0242 3548     		ldr	r0, .L453+160
 4211 0244 FFF7FEFF 		bl	escribeDisplay2
 4212              	.LVL363:
 4213 0248 7EE0     		b	.L279
 4214              	.L278:
 853:main.c        ****       }else if(TipoClave==2){
 4215              		.loc 1 853 0
 4216 024a 022B     		cmp	r3, #2
 4217 024c 06D1     		bne	.L280
 854:main.c        ****          escribeDisplay2("titulo.txt=\"Clave Actual\"");         
 4218              		.loc 1 854 0
 4219 024e 3348     		ldr	r0, .L453+164
 4220 0250 FFF7FEFF 		bl	escribeDisplay2
 4221              	.LVL364:
 855:main.c        ****          escribeDisplay2("doevents");
ARM GAS  C:\Users\JPELEC~1\AppData\Local\Temp\ccEetrge.s 			page 99


 4222              		.loc 1 855 0
 4223 0254 3048     		ldr	r0, .L453+160
 4224 0256 FFF7FEFF 		bl	escribeDisplay2
 4225              	.LVL365:
 4226 025a 75E0     		b	.L279
 4227              	.L280:
 856:main.c        ****       }else if(TipoClave==1 || TipoClave==4){
 4228              		.loc 1 856 0
 4229 025c 012B     		cmp	r3, #1
 4230 025e 01D0     		beq	.L281
 4231              		.loc 1 856 0 is_stmt 0 discriminator 1
 4232 0260 042B     		cmp	r3, #4
 4233 0262 5FD1     		bne	.L282
 4234              	.L281:
 857:main.c        ****          escribeDisplay2("titulo.txt=\"Clave Tecnico\"");         
 4235              		.loc 1 857 0 is_stmt 1
 4236 0264 2E48     		ldr	r0, .L453+168
 4237 0266 FFF7FEFF 		bl	escribeDisplay2
 4238              	.LVL366:
 858:main.c        ****          escribeDisplay2("doevents");         
 4239              		.loc 1 858 0
 4240 026a 2B48     		ldr	r0, .L453+160
 4241 026c FFF7FEFF 		bl	escribeDisplay2
 4242              	.LVL367:
 4243 0270 6AE0     		b	.L279
 4244              	.L454:
 4245 0272 00BFAFF3 		.align	3
 4245      0080
 4246              	.L453:
 4247 0278 295C8FC2 		.word	-1030792151
 4248 027c F528CC3F 		.word	1070344437
 4249 0280 00000000 		.word	Reloj2
 4250 0284 00000000 		.word	lee
 4251 0288 00000000 		.word	inteRX
 4252 028c 00000000 		.word	inteRX1
 4253 0290 00000000 		.word	ADC_SAR_ISR_LOC
 4254 0294 00000000 		.word	i
 4255 0298 00000000 		.word	MediaMovil
 4256 029c 00000000 		.word	Temperatura
 4257 02a0 00000000 		.word	.LANCHOR1
 4258 02a4 00000000 		.word	penInicial
 4259 02a8 00000000 		.word	Opcion
 4260 02ac 00000000 		.word	Control
 4261 02b0 00000000 		.word	Menu
 4262 02b4 00000000 		.word	Menu2
 4263 02b8 70000000 		.word	.LC6
 4264 02bc 80000000 		.word	.LC7
 4265 02c0 00000000 		.word	hEstp
 4266 02c4 00000000 		.word	mEstp
 4267 02c8 00804540 		.word	1078296576
 4268 02cc 00000000 		.word	tGrafica
 4269 02d0 88000000 		.word	.LC8
 4270 02d4 00000000 		.word	displayStr
 4271 02d8 90000000 		.word	.LC9
 4272 02dc 00000000 		.word	Lectura2
 4273 02e0 00000000 		.word	grafica
 4274 02e4 00000000 		.word	i2cbuf
ARM GAS  C:\Users\JPELEC~1\AppData\Local\Temp\ccEetrge.s 			page 100


 4275 02e8 00000000 		.word	tcHotJnuVolt
 4276 02ec F0D8FFFF 		.word	-10000
 4277 02f0 9C000000 		.word	.LC10
 4278 02f4 A8000000 		.word	.LC11
 4279 02f8 00000000 		.word	Test
 4280 02fc 00000000 		.word	coldJnTemp
 4281 0300 B4000000 		.word	.LC12
 4282 0304 00000000 		.word	entro
 4283 0308 00000000 		.word	Rx_Buffer
 4284 030c 00000000 		.word	TipoClave
 4285 0310 C0000000 		.word	.LC13
 4286 0314 D0000000 		.word	.LC14
 4287 0318 EC000000 		.word	.LC15
 4288 031c F8000000 		.word	.LC16
 4289 0320 14010000 		.word	.LC17
 4290              	.L282:
 859:main.c        ****       }else if(TipoClave==0){
 4291              		.loc 1 859 0
 4292 0324 83B9     		cbnz	r3, .L279
 860:main.c        ****         sprintf(displayStr,"titulo.txt=\"Ingrese Clave\"");
 4293              		.loc 1 860 0
 4294 0326 B44D     		ldr	r5, .L455
 4295 0328 B44C     		ldr	r4, .L455+4
 4296 032a 0FCC     		ldmia	r4!, {r0, r1, r2, r3}
 4297 032c 2860     		str	r0, [r5]	@ unaligned
 4298 032e 6960     		str	r1, [r5, #4]	@ unaligned
 4299 0330 AA60     		str	r2, [r5, #8]	@ unaligned
 4300 0332 EB60     		str	r3, [r5, #12]	@ unaligned
 4301 0334 03CC     		ldmia	r4!, {r0, r1}
 4302 0336 2861     		str	r0, [r5, #16]	@ unaligned
 4303 0338 6961     		str	r1, [r5, #20]	@ unaligned
 4304 033a 2288     		ldrh	r2, [r4]	@ unaligned
 4305 033c A378     		ldrb	r3, [r4, #2]	@ zero_extendqisi2
 4306 033e 2A83     		strh	r2, [r5, #24]	@ unaligned
 4307 0340 AB76     		strb	r3, [r5, #26]
 861:main.c        ****         escribeDisplay2(displayStr);
 4308              		.loc 1 861 0
 4309 0342 2846     		mov	r0, r5
 4310 0344 FFF7FEFF 		bl	escribeDisplay2
 4311              	.LVL368:
 4312              	.L279:
 862:main.c        ****       }
 863:main.c        ****       
 864:main.c        ****       if(Rx_Buffer[3]==0x0f){//0f, recibe caracteres ingresados desde el Display
 4313              		.loc 1 864 0
 4314 0348 AD4B     		ldr	r3, .L455+8
 4315 034a DB78     		ldrb	r3, [r3, #3]	@ zero_extendqisi2
 4316 034c 0F2B     		cmp	r3, #15
 4317 034e 40F07481 		bne	.L276
 865:main.c        ****          if(TipoClave==0){
 4318              		.loc 1 865 0
 4319 0352 AC4B     		ldr	r3, .L455+12
 4320 0354 1B78     		ldrb	r3, [r3]	@ zero_extendqisi2
 4321 0356 002B     		cmp	r3, #0
 4322 0358 7CD1     		bne	.L283
 866:main.c        ****             if(Rx_Buffer[4]>=0x30 && Rx_Buffer[5]>=0x30 && Rx_Buffer[6]>=0x30 && Rx_Buffer[7]>=0x30
 4323              		.loc 1 866 0
ARM GAS  C:\Users\JPELEC~1\AppData\Local\Temp\ccEetrge.s 			page 101


 4324 035a A94B     		ldr	r3, .L455+8
 4325 035c 1B79     		ldrb	r3, [r3, #4]	@ zero_extendqisi2
 4326 035e 2F2B     		cmp	r3, #47
 4327 0360 39D9     		bls	.L284
 4328              		.loc 1 866 0 is_stmt 0 discriminator 1
 4329 0362 A74A     		ldr	r2, .L455+8
 4330 0364 5279     		ldrb	r2, [r2, #5]	@ zero_extendqisi2
 4331 0366 2F2A     		cmp	r2, #47
 4332 0368 35D9     		bls	.L284
 4333              		.loc 1 866 0 discriminator 2
 4334 036a A549     		ldr	r1, .L455+8
 4335 036c 8979     		ldrb	r1, [r1, #6]	@ zero_extendqisi2
 4336 036e 2F29     		cmp	r1, #47
 4337 0370 31D9     		bls	.L284
 4338              		.loc 1 866 0 discriminator 3
 4339 0372 A348     		ldr	r0, .L455+8
 4340 0374 C079     		ldrb	r0, [r0, #7]	@ zero_extendqisi2
 4341 0376 2F28     		cmp	r0, #47
 4342 0378 2DD9     		bls	.L284
 867:main.c        ****             && Rx_Buffer[4]<=0x39 && Rx_Buffer[5]<=0x39 && Rx_Buffer[6]<=0x39 && Rx_Buffer[7]<=0x39
 4343              		.loc 1 867 0 is_stmt 1
 4344 037a 392B     		cmp	r3, #57
 4345 037c 2BD8     		bhi	.L284
 4346              		.loc 1 867 0 is_stmt 0 discriminator 1
 4347 037e 392A     		cmp	r2, #57
 4348 0380 29D8     		bhi	.L284
 4349              		.loc 1 867 0 discriminator 2
 4350 0382 3929     		cmp	r1, #57
 4351 0384 27D8     		bhi	.L284
 4352              		.loc 1 867 0 discriminator 3
 4353 0386 3928     		cmp	r0, #57
 4354 0388 25D8     		bhi	.L284
 868:main.c        ****             if(Rx_Buffer[4]==0x33&&Rx_Buffer[5]==0x38&&Rx_Buffer[6]==0x39&&Rx_Buffer[7]==0x32){ // 
 4355              		.loc 1 868 0 is_stmt 1
 4356 038a 332B     		cmp	r3, #51
 4357 038c 23D1     		bne	.L284
 4358              		.loc 1 868 0 is_stmt 0 discriminator 1
 4359 038e 382A     		cmp	r2, #56
 4360 0390 21D1     		bne	.L284
 4361              		.loc 1 868 0 discriminator 2
 4362 0392 3929     		cmp	r1, #57
 4363 0394 1FD1     		bne	.L284
 4364              		.loc 1 868 0 discriminator 3
 4365 0396 3228     		cmp	r0, #50
 4366 0398 1DD1     		bne	.L284
 869:main.c        ****                EEPROM_WriteByte(0,0);CyDelay(20);EEPROM_WriteByte(0,1);CyDelay(20);// Reestablece a
 4367              		.loc 1 869 0 is_stmt 1
 4368 039a 0021     		movs	r1, #0
 4369 039c 0846     		mov	r0, r1
 4370 039e FFF7FEFF 		bl	EEPROM_WriteByte
 4371              	.LVL369:
 4372 03a2 1420     		movs	r0, #20
 4373 03a4 FFF7FEFF 		bl	CyDelay
 4374              	.LVL370:
 4375 03a8 0121     		movs	r1, #1
 4376 03aa 0020     		movs	r0, #0
 4377 03ac FFF7FEFF 		bl	EEPROM_WriteByte
ARM GAS  C:\Users\JPELEC~1\AppData\Local\Temp\ccEetrge.s 			page 102


 4378              	.LVL371:
 4379 03b0 1420     		movs	r0, #20
 4380 03b2 FFF7FEFF 		bl	CyDelay
 4381              	.LVL372:
 870:main.c        ****                EEPROM_WriteByte(0,2);CyDelay(20);EEPROM_WriteByte(0,3);CyDelay(20);
 4382              		.loc 1 870 0
 4383 03b6 0221     		movs	r1, #2
 4384 03b8 0020     		movs	r0, #0
 4385 03ba FFF7FEFF 		bl	EEPROM_WriteByte
 4386              	.LVL373:
 4387 03be 1420     		movs	r0, #20
 4388 03c0 FFF7FEFF 		bl	CyDelay
 4389              	.LVL374:
 4390 03c4 0321     		movs	r1, #3
 4391 03c6 0020     		movs	r0, #0
 4392 03c8 FFF7FEFF 		bl	EEPROM_WriteByte
 4393              	.LVL375:
 4394 03cc 1420     		movs	r0, #20
 4395 03ce FFF7FEFF 		bl	CyDelay
 4396              	.LVL376:
 871:main.c        ****                CySoftwareReset();
 4397              		.loc 1 871 0
 4398 03d2 FFF7FEFF 		bl	CySoftwareReset
 4399              	.LVL377:
 4400              	.L284:
 872:main.c        ****             }
 873:main.c        ****             }
 874:main.c        ****             
 875:main.c        ****             if(Rx_Buffer[4]>=0x30 && Rx_Buffer[5]>=0x30 && Rx_Buffer[6]>=0x30 && Rx_Buffer[7]>=0x30
 4401              		.loc 1 875 0
 4402 03d6 8A4B     		ldr	r3, .L455+8
 4403 03d8 1B79     		ldrb	r3, [r3, #4]	@ zero_extendqisi2
 4404 03da 2F2B     		cmp	r3, #47
 4405 03dc 40F22D81 		bls	.L276
