CCS PCH C Compiler, Version 4.104, 5967               15-abr.-21 11:13

               Filename: D:\Laboratorio\Mufla\2020\Mufla 2.2L Avantika #004588378-79 OP202094-95\Firmware\Firmware_Pruebas\Mufla.lst

               ROM used: 58006 bytes (59%)
                         Largest free fragment is 32768
               RAM used: 2357 (71%) at main() level
                         2420 (73%) worst case
               Stack:    6 worst case (5 in main + 1 for interrupts)

*
00000:  GOTO   6036
*
00008:  MOVWF  04
0000A:  MOVFF  FD8,05
0000E:  MOVFF  FE0,06
00012:  MOVLB  0
00014:  MOVFF  FE9,0C
00018:  MOVFF  FEA,07
0001C:  MOVFF  FE1,08
00020:  MOVFF  FE2,09
00024:  MOVFF  FD9,0A
00028:  MOVFF  FDA,0B
0002C:  MOVFF  FF3,12
00030:  MOVFF  FF4,13
00034:  MOVFF  FFA,14
00038:  MOVFF  FFB,15
0003C:  MOVFF  00,0E
00040:  MOVFF  01,0F
00044:  MOVFF  02,10
00048:  MOVFF  03,11
0004C:  BTFSS  F9D.0
0004E:  GOTO   0058
00052:  BTFSC  F9E.0
00054:  GOTO   1360
00058:  MOVFF  0E,00
0005C:  MOVFF  0F,01
00060:  MOVFF  10,02
00064:  MOVFF  11,03
00068:  MOVFF  0C,FE9
0006C:  MOVFF  07,FEA
00070:  BSF    07.7
00072:  MOVFF  08,FE1
00076:  MOVFF  09,FE2
0007A:  MOVFF  0A,FD9
0007E:  MOVFF  0B,FDA
00082:  MOVFF  12,FF3
00086:  MOVFF  13,FF4
0008A:  MOVFF  14,FFA
0008E:  MOVFF  15,FFB
00092:  MOVF   04,W
00094:  MOVFF  06,FE0
00098:  MOVFF  05,FD8
0009C:  RETFIE 0
.................... // Control para mufla con rampas  
.................... // Se pueden programar 5 Programas de 10 Segmentos cada Uno. 
.................... // En un segmento se puede programar una rampa o una meseta. 
....................  
....................  
.................... #include <18F4685.h> 
.................... //////// Standard Header file for the PIC18F4685 device //////////////// 
.................... #device PIC18F4685 
.................... #list 
....................  
.................... #device adc=10 
.................... #fuses HS,NOWDT,NOPROTECT,NOLVP,NODEBUG,NOSTVREN,NOPUT,NOCPD,NOWRT,NOIESO,NOFCMEN,NOPBADEN,NOWRTC,NOWRTB,NOEBTR,NOEBTRB,NOCPB,NOXINST,NOLPT1OSC,NOMCLR 
.................... #use delay(clock=20000000) 
*
01440:  MOVLW  09
01442:  MOVWF  FEA
01444:  MOVLW  4C
01446:  MOVWF  FE9
01448:  MOVF   FEF,W
0144A:  BZ    1466
0144C:  MOVLW  06
0144E:  MOVWF  01
01450:  CLRF   00
01452:  DECFSZ 00,F
01454:  BRA    1452
01456:  DECFSZ 01,F
01458:  BRA    1450
0145A:  MOVLW  7B
0145C:  MOVWF  00
0145E:  DECFSZ 00,F
01460:  BRA    145E
01462:  DECFSZ FEF,F
01464:  BRA    144C
01466:  RETLW  00
.................... #use i2c(Master,slow,sda=PIN_C4,scl=PIN_C3) 
*
02850:  MOVLW  08
02852:  MOVWF  01
02854:  MOVLW  05
02856:  MOVWF  00
02858:  DECFSZ 00,F
0285A:  BRA    2858
0285C:  BCF    F8B.3
0285E:  BCF    F94.3
02860:  MOVLW  06
02862:  MOVWF  00
02864:  DECFSZ 00,F
02866:  BRA    2864
02868:  MOVLB  9
0286A:  RLCF   x3A,F
0286C:  BCF    F8B.4
0286E:  BTFSC  FD8.0
02870:  BSF    F94.4
02872:  BTFSS  FD8.0
02874:  BCF    F94.4
02876:  BSF    F94.3
02878:  BTFSS  F82.3
0287A:  BRA    2878
0287C:  DECFSZ 01,F
0287E:  BRA    2882
02880:  BRA    2886
02882:  MOVLB  0
02884:  BRA    2854
02886:  MOVLW  05
02888:  MOVWF  00
0288A:  DECFSZ 00,F
0288C:  BRA    288A
0288E:  BCF    F8B.3
02890:  BCF    F94.3
02892:  NOP   
02894:  BSF    F94.4
02896:  MOVLW  06
02898:  MOVWF  00
0289A:  DECFSZ 00,F
0289C:  BRA    289A
0289E:  MOVLW  06
028A0:  MOVWF  00
028A2:  DECFSZ 00,F
028A4:  BRA    28A2
028A6:  BSF    F94.3
028A8:  BTFSS  F82.3
028AA:  BRA    28A8
028AC:  CLRF   01
028AE:  MOVLW  06
028B0:  MOVWF  00
028B2:  DECFSZ 00,F
028B4:  BRA    28B2
028B6:  BTFSC  F82.4
028B8:  BSF    01.0
028BA:  BCF    F8B.3
028BC:  BCF    F94.3
028BE:  BCF    F8B.4
028C0:  BCF    F94.4
028C2:  MOVLB  0
028C4:  RETLW  00
.................... #include "HDM64GS12.c" 
.................... ///////////////////////////////////////////////////////////////////////// 
.................... ////                           HDM64GS12.c                           //// 
.................... ////                                                                 //// 
.................... //// This file contains drivers for using a Hantronix HDM64GS12 with //// 
.................... //// a KS0108 display controller. The HDM64GS12 is 128 by 64 pixels. //// 
.................... //// The driver treats the upper left pixel as (0,0).                //// 
.................... ////                                                                 //// 
.................... //// Use #define FAST_GLCD if the target chip has at least 1k of RAM //// 
.................... //// to decrease the time it takes to update the display.            //// 
.................... //// glcd_update() must then be called to update the display after   //// 
.................... //// changing the pixel information.                                 //// 
.................... //// See ex_glcd.c for suggested usage.                              //// 
.................... //// See KS0108.c for controlling a single 64 by 64 display          //// 
.................... ///////////////////////////////////////////////////////////////////////// 
.................... ////                                                                 //// 
.................... //// LCD Pin connections:                                            //// 
.................... //// (These can be changed as needed in the following defines).      //// 
.................... ////  * 1: VSS is connected to GND                                   //// 
.................... ////  * 2: VDD is connected to +5V                                   //// 
.................... ////  * 3: V0  - LCD operating voltage (Constrast adjustment)        //// 
.................... ////  * 4: D/I - Data or Instruction is connected to B2              //// 
.................... ////  * 5: R/W - Read or Write is connected to B4                    //// 
.................... ////  * 6: Enable is connected to B5                                 //// 
.................... ////  *7-14: Data Bus 0 to 7 is connected to port d                  //// 
.................... ////  *15: Chip Select 1 is connected to B0                          //// 
.................... ////  *16: Chip Select 2 is connected to B1                          //// 
.................... ////  *17: Reset is connected to C0                                  //// 
.................... ////  *18: Negative voltage is also connected to the 20k Ohm POT     //// 
.................... ////  *19: Positive voltage for LED backlight is connected to +5V    //// 
.................... ////  *20: Negavtive voltage for LED backlight is connected to GND   //// 
.................... ////                                                                 //// 
.................... ///////////////////////////////////////////////////////////////////////// 
.................... ////                                                                 //// 
.................... ////  glcd_init(mode)                                                //// 
.................... ////     * Must be called before any other function.                 //// 
.................... ////       - mode can be ON or OFF to turn the LCD on or off         //// 
.................... ////                                                                 //// 
.................... ////  glcd_pixel(x,y,color)                                          //// 
.................... ////     * Sets the pixel to the given color.                        //// 
.................... ////       - color can be ON or OFF                                  //// 
.................... ////                                                                 //// 
.................... ////  glcd_fillScreen(color)                                         //// 
.................... ////     * Fills the entire LCD with the given color.                //// 
.................... ////       - color can be ON or OFF                                  //// 
.................... ////                                                                 //// 
.................... ////  glcd_update()                                                  //// 
.................... ////     * Write the display data stored in RAM to the LCD           //// 
.................... ////     * Only available if FAST_GLCD is defined                    //// 
.................... ////                                                                 //// 
.................... ///////////////////////////////////////////////////////////////////////// 
.................... ////        (C) Copyright 1996, 2004 Custom Computer Services        //// 
.................... //// This source code may only be used by licensed users of the CCS  //// 
.................... //// C compiler.  This source code may only be distributed to other  //// 
.................... //// licensed users of the CCS C compiler.  No other use,            //// 
.................... //// reproduction or distribution is permitted without written       //// 
.................... //// permission.  Derivative programs created using this software    //// 
.................... //// in object code form are not restricted in any way.              //// 
.................... ///////////////////////////////////////////////////////////////////////// 
....................  
....................  
....................  
.................... #ifndef HDM64GS12 
.................... #define HDM64GS12 
....................  
.................... #ifndef FAST_GLCD 
.................... #define FAST_GLCD 
....................  
.................... #ifndef GLCD_WIDTH 
.................... #define GLCD_WIDTH   128 
.................... #endif 
....................  
.................... #ifndef GLCD_CS1 
.................... #define GLCD_CS1     PIN_B2   // Chip Selection 1 
.................... #endif 
....................  
.................... #ifndef GLCD_CS2 
.................... #define GLCD_CS2     PIN_B3   // Chip Selection 2 
.................... #endif 
....................  
.................... #ifndef GLCD_DI 
.................... #define GLCD_DI      PIN_B5   // Data or Instruction input 
.................... #endif 
....................  
.................... #ifndef GLCD_RW 
.................... #define GLCD_RW      PIN_B6   // Read/Write 
.................... #endif 
....................  
.................... #ifndef GLCD_E 
.................... #define GLCD_E       PIN_B7   // Enable 
.................... #endif 
....................  
.................... #ifndef GLCD_RST 
.................... #define GLCD_RST     PIN_B4   // Reset 
.................... #endif 
....................  
.................... #define GLCD_LEFT    0 
.................... #define GLCD_RIGHT   1 
....................  
.................... #ifndef ON 
.................... #define ON           1 
.................... #endif 
....................  
.................... #ifndef OFF 
.................... #define OFF          0 
.................... #endif 
....................  
.................... ///////////////////////////////////////////////////////////////////////// 
.................... // Function Prototypes 
.................... ///////////////////////////////////////////////////////////////////////// 
.................... void glcd_init(int1 mode); 
.................... void glcd_pixel(int8 x, int8 y, int1 color); 
.................... void glcd_fillScreen(int1 color); 
.................... void glcd_writeByte(int1 side, BYTE data); 
.................... BYTE glcd_readByte(int1 side); 
.................... void glcd_update(); 
.................... ///////////////////////////////////////////////////////////////////////// 
....................  
.................... #ifdef FAST_GLCD 
.................... struct 
.................... { 
....................    int8 left[512]; 
....................    int8 right[512]; 
.................... } displayData; 
.................... #endif 
....................  
....................  
.................... // Purpose:       Initialize the LCD. 
.................... //                Call before using any other LCD function. 
.................... // Inputs:        OFF - Turns the LCD off 
.................... //                ON  - Turns the LCD on 
.................... void glcd_init(int1 mode) 
.................... { 
....................    // Initialze some pins 
....................    output_high(GLCD_RST); 
*
015D2:  BCF    F93.4
015D4:  BSF    F8A.4
....................    output_low(GLCD_E); 
015D6:  BCF    F93.7
015D8:  BCF    F8A.7
....................    output_low(GLCD_CS1); 
015DA:  BCF    F93.2
015DC:  BCF    F8A.2
....................    output_low(GLCD_CS2); 
015DE:  BCF    F93.3
015E0:  BCF    F8A.3
....................  
....................    output_low(GLCD_DI);                 // Set for instruction 
015E2:  BCF    F93.5
015E4:  BCF    F8A.5
....................    glcd_writeByte(GLCD_LEFT,  0xC0);    // Specify first RAM line at the top 
015E6:  MOVLB  9
015E8:  CLRF   x53
015EA:  MOVLW  C0
015EC:  MOVWF  x54
015EE:  MOVLB  0
015F0:  RCALL  148A
....................    glcd_writeByte(GLCD_RIGHT, 0xC0);    //   of the screen 
015F2:  MOVLW  01
015F4:  MOVLB  9
015F6:  MOVWF  x53
015F8:  MOVLW  C0
015FA:  MOVWF  x54
015FC:  MOVLB  0
015FE:  RCALL  148A
....................    glcd_writeByte(GLCD_LEFT,  0x40);    // Set the column address to 0 
01600:  MOVLB  9
01602:  CLRF   x53
01604:  MOVLW  40
01606:  MOVWF  x54
01608:  MOVLB  0
0160A:  RCALL  148A
....................    glcd_writeByte(GLCD_RIGHT, 0x40); 
0160C:  MOVLW  01
0160E:  MOVLB  9
01610:  MOVWF  x53
01612:  MOVLW  40
01614:  MOVWF  x54
01616:  MOVLB  0
01618:  RCALL  148A
....................    glcd_writeByte(GLCD_LEFT,  0xB8);    // Set the page address to 0 
0161A:  MOVLB  9
0161C:  CLRF   x53
0161E:  MOVLW  B8
01620:  MOVWF  x54
01622:  MOVLB  0
01624:  RCALL  148A
....................    glcd_writeByte(GLCD_RIGHT, 0xB8); 
01626:  MOVLW  01
01628:  MOVLB  9
0162A:  MOVWF  x53
0162C:  MOVLW  B8
0162E:  MOVWF  x54
01630:  MOVLB  0
01632:  RCALL  148A
....................  
....................    if(mode == ON) 
01634:  MOVLB  9
01636:  DECFSZ x36,W
01638:  BRA    1656
....................    { 
....................       glcd_writeByte(GLCD_LEFT,  0x3F); // Turn the display on 
0163A:  CLRF   x53
0163C:  MOVLW  3F
0163E:  MOVWF  x54
01640:  MOVLB  0
01642:  RCALL  148A
....................       glcd_writeByte(GLCD_RIGHT, 0x3F); 
01644:  MOVLW  01
01646:  MOVLB  9
01648:  MOVWF  x53
0164A:  MOVLW  3F
0164C:  MOVWF  x54
0164E:  MOVLB  0
01650:  RCALL  148A
....................    } 
....................    else 
01652:  BRA    166E
01654:  MOVLB  9
....................    { 
....................       glcd_writeByte(GLCD_LEFT,  0x3E); // Turn the display off 
01656:  CLRF   x53
01658:  MOVLW  3E
0165A:  MOVWF  x54
0165C:  MOVLB  0
0165E:  RCALL  148A
....................       glcd_writeByte(GLCD_RIGHT, 0x3E); 
01660:  MOVLW  01
01662:  MOVLB  9
01664:  MOVWF  x53
01666:  MOVLW  3E
01668:  MOVWF  x54
0166A:  MOVLB  0
0166C:  RCALL  148A
....................    } 
....................  
....................    glcd_fillScreen(OFF);                // Clear the display 
0166E:  MOVLB  9
01670:  CLRF   x3D
01672:  MOVLB  0
01674:  RCALL  14C0
....................  
....................    #ifdef FAST_GLCD 
....................    glcd_update(); 
01676:  RCALL  151A
....................    #endif 
.................... } 
01678:  RETLW  00
....................  
....................  
.................... // Purpose:    Update the LCD with data from the display arrays 
.................... #ifdef FAST_GLCD 
.................... void glcd_update() 
.................... { 
....................    int8 i, j; 
....................    int8 *p1, *p2; 
....................  
....................    p1 = displayData.left; 
*
0151A:  MOVLB  9
0151C:  CLRF   x4F
0151E:  MOVLW  17
01520:  MOVWF  x4E
....................    p2 = displayData.right; 
01522:  MOVLW  02
01524:  MOVWF  x51
01526:  MOVLW  17
01528:  MOVWF  x50
....................  
....................    // Loop through the vertical pages 
....................    for(i = 0; i < 8; ++i) 
0152A:  CLRF   x4C
0152C:  MOVF   x4C,W
0152E:  SUBLW  07
01530:  BNC   15CE
....................    { 
....................       output_low(GLCD_DI);                      // Set for instruction 
01532:  BCF    F93.5
01534:  BCF    F8A.5
....................       glcd_writeByte(GLCD_LEFT, 0x40);          // Set horizontal address to 0 
01536:  CLRF   x53
01538:  MOVLW  40
0153A:  MOVWF  x54
0153C:  MOVLB  0
0153E:  RCALL  148A
....................       glcd_writeByte(GLCD_RIGHT, 0x40); 
01540:  MOVLW  01
01542:  MOVLB  9
01544:  MOVWF  x53
01546:  MOVLW  40
01548:  MOVWF  x54
0154A:  MOVLB  0
0154C:  RCALL  148A
....................       glcd_writeByte(GLCD_LEFT, i | 0xB8);      // Set page address 
0154E:  MOVLB  9
01550:  MOVF   x4C,W
01552:  IORLW  B8
01554:  MOVWF  x52
01556:  CLRF   x53
01558:  MOVWF  x54
0155A:  MOVLB  0
0155C:  RCALL  148A
....................       glcd_writeByte(GLCD_RIGHT, i | 0xB8); 
0155E:  MOVLB  9
01560:  MOVF   x4C,W
01562:  IORLW  B8
01564:  MOVWF  x52
01566:  MOVLW  01
01568:  MOVWF  x53
0156A:  MOVFF  952,954
0156E:  MOVLB  0
01570:  RCALL  148A
....................       output_high(GLCD_DI);                     // Set for data 
01572:  BCF    F93.5
01574:  BSF    F8A.5
....................  
....................       // Loop through the horizontal sections 
....................       for(j = 0; j < 64; ++j) 
01576:  MOVLB  9
01578:  CLRF   x4D
0157A:  MOVF   x4D,W
0157C:  SUBLW  3F
0157E:  BNC   15CA
....................       { 
....................          glcd_writeByte(GLCD_LEFT, *p1++);      // Turn pixels on or off 
01580:  MOVFF  94F,03
01584:  MOVF   x4E,W
01586:  INCF   x4E,F
01588:  BTFSC  FD8.2
0158A:  INCF   x4F,F
0158C:  MOVWF  FE9
0158E:  MOVFF  03,FEA
01592:  MOVFF  FEF,952
01596:  CLRF   x53
01598:  MOVFF  952,954
0159C:  MOVLB  0
0159E:  RCALL  148A
....................          glcd_writeByte(GLCD_RIGHT, *p2++);     // Turn pixels on or off 
015A0:  MOVLB  9
015A2:  MOVFF  951,03
015A6:  MOVF   x50,W
015A8:  INCF   x50,F
015AA:  BTFSC  FD8.2
015AC:  INCF   x51,F
015AE:  MOVWF  FE9
015B0:  MOVFF  03,FEA
015B4:  MOVFF  FEF,952
015B8:  MOVLW  01
015BA:  MOVWF  x53
015BC:  MOVFF  952,954
015C0:  MOVLB  0
015C2:  RCALL  148A
....................       } 
015C4:  MOVLB  9
015C6:  INCF   x4D,F
015C8:  BRA    157A
....................    } 
015CA:  INCF   x4C,F
015CC:  BRA    152C
.................... } 
015CE:  MOVLB  0
015D0:  RETLW  00
.................... #endif 
....................  
....................  
.................... // Purpose:    Turn a pixel on a graphic LCD on or off 
.................... // Inputs:     1) x - the x coordinate of the pixel 
.................... //             2) y - the y coordinate of the pixel 
.................... //             3) color - ON or OFF 
.................... void glcd_pixel(int8 x, int8 y, int1 color) 
.................... #ifdef FAST_GLCD 
.................... { 
....................    int8* p; 
....................    int16 temp; 
....................    temp =  y/8; 
*
0167A:  MOVLB  9
0167C:  CLRF   x70
0167E:  RRCF   x6B,W
01680:  MOVWF  x6F
01682:  RRCF   x6F,F
01684:  RRCF   x6F,F
01686:  MOVLW  1F
01688:  ANDWF  x6F,F
....................    temp *= 64; 
0168A:  RLCF   x6F,F
0168C:  RLCF   x70,F
0168E:  RLCF   x6F,F
01690:  RLCF   x70,F
01692:  RLCF   x6F,F
01694:  RLCF   x70,F
01696:  RLCF   x6F,F
01698:  RLCF   x70,F
0169A:  RLCF   x6F,F
0169C:  RLCF   x70,F
0169E:  RLCF   x6F,F
016A0:  RLCF   x70,F
016A2:  MOVLW  C0
016A4:  ANDWF  x6F,F
....................    temp += x; 
016A6:  MOVF   x6A,W
016A8:  ADDWF  x6F,F
016AA:  MOVLW  00
016AC:  ADDWFC x70,F
....................  
....................    if(x > 63) 
016AE:  MOVF   x6A,W
016B0:  SUBLW  3F
016B2:  BC    16CE
....................    { 
....................       p = displayData.right + temp - 64; 
016B4:  MOVLW  17
016B6:  ADDWF  x6F,W
016B8:  MOVWF  x71
016BA:  MOVLW  02
016BC:  ADDWFC x70,W
016BE:  MOVWF  x72
016C0:  MOVLW  40
016C2:  SUBWF  x71,W
016C4:  MOVWF  x6D
016C6:  MOVLW  00
016C8:  SUBWFB x72,W
016CA:  MOVWF  x6E
....................    } 
....................    else 
016CC:  BRA    16DA
....................    { 
....................       p = displayData.left + temp; 
016CE:  MOVLW  17
016D0:  ADDWF  x6F,W
016D2:  MOVWF  x6D
016D4:  MOVLW  00
016D6:  ADDWFC x70,W
016D8:  MOVWF  x6E
....................    } 
....................  
....................    if(color) 
016DA:  MOVF   x6C,F
016DC:  BZ    1708
....................    { 
....................       bit_set(*p, y%8); 
016DE:  MOVFF  96E,03
016E2:  MOVFF  96D,FE9
016E6:  MOVFF  96E,FEA
016EA:  MOVF   x6B,W
016EC:  ANDLW  07
016EE:  MOVWF  x71
016F0:  MOVLW  01
016F2:  MOVWF  00
016F4:  MOVF   x71,W
016F6:  MOVWF  01
016F8:  BZ    1702
016FA:  BCF    FD8.0
016FC:  RLCF   00,F
016FE:  DECFSZ 01,F
01700:  BRA    16FA
01702:  MOVF   00,W
01704:  IORWF  FEF,F
....................    } 
....................    else 
01706:  BRA    1732
....................    { 
....................       bit_clear(*p, y%8); 
01708:  MOVFF  96E,03
0170C:  MOVFF  96D,FE9
01710:  MOVFF  96E,FEA
01714:  MOVF   x6B,W
01716:  ANDLW  07
01718:  MOVWF  x71
0171A:  MOVLW  01
0171C:  MOVWF  00
0171E:  MOVF   x71,W
01720:  MOVWF  01
01722:  BZ    172C
01724:  BCF    FD8.0
01726:  RLCF   00,F
01728:  DECFSZ 01,F
0172A:  BRA    1724
0172C:  MOVF   00,W
0172E:  XORLW  FF
01730:  ANDWF  FEF,F
....................    } 
.................... } 
01732:  MOVLB  0
01734:  RETLW  00
.................... #else 
.................... { 
....................    BYTE data; 
....................    int1 side = GLCD_LEFT;  // Stores which chip to use on the LCD 
....................  
....................    if(x > 63)              // Check for first or second display area 
....................    { 
....................       x -= 64; 
....................       side = GLCD_RIGHT; 
....................    } 
....................  
....................    output_low(GLCD_DI);                         // Set for instruction 
....................    bit_clear(x,7);                              // Clear the MSB. Part of an instruction code 
....................    bit_set(x,6);                                // Set bit 6. Also part of an instruction code 
....................    glcd_writeByte(side, x);                     // Set the horizontal address 
....................    glcd_writeByte(side, (y/8 & 0xBF) | 0xB8);   // Set the vertical page address 
....................    output_high(GLCD_DI);                        // Set for data 
....................    glcd_readByte(side);                         // Need two reads to get data 
....................    data = glcd_readByte(side);                  //  at new address 
....................  
....................    if(color == ON) 
....................       bit_set(data, y%8);        // Turn the pixel on 
....................    else                          // or 
....................       bit_clear(data, y%8);      // turn the pixel off 
....................  
....................    output_low(GLCD_DI);          // Set for instruction 
....................    glcd_writeByte(side, x);      // Set the horizontal address 
....................    output_high(GLCD_DI);         // Set for data 
....................    glcd_writeByte(side, data);   // Write the pixel data 
.................... } 
.................... #endif 
....................  
....................  
.................... // Purpose:    Fill the LCD screen with the passed in color 
.................... // Inputs:     ON  - turn all the pixels on 
.................... //             OFF - turn all the pixels off 
.................... void glcd_fillScreen(int1 color) 
.................... #ifdef FAST_GLCD 
.................... { 
....................    int8  data; 
....................    int8  *p1, *p2; 
....................    int16 i; 
....................  
....................    p1 = displayData.left; 
*
014C0:  MOVLB  9
014C2:  CLRF   x40
014C4:  MOVLW  17
014C6:  MOVWF  x3F
....................    p2 = displayData.right; 
014C8:  MOVLW  02
014CA:  MOVWF  x42
014CC:  MOVLW  17
014CE:  MOVWF  x41
....................    data = 0xFF * color; 
014D0:  MOVF   x3D,W
014D2:  MULLW  FF
014D4:  MOVFF  FF3,93E
....................  
....................    for(i=0; i<512; ++i) 
014D8:  CLRF   x44
014DA:  CLRF   x43
014DC:  MOVF   x44,W
014DE:  SUBLW  01
014E0:  BNC   1516
....................    { 
....................       *p1++ = data; 
014E2:  MOVFF  940,03
014E6:  MOVF   x3F,W
014E8:  INCF   x3F,F
014EA:  BTFSC  FD8.2
014EC:  INCF   x40,F
014EE:  MOVWF  FE9
014F0:  MOVFF  03,FEA
014F4:  MOVFF  93E,FEF
....................       *p2++ = data; 
014F8:  MOVFF  942,03
014FC:  MOVF   x41,W
014FE:  INCF   x41,F
01500:  BTFSC  FD8.2
01502:  INCF   x42,F
01504:  MOVWF  FE9
01506:  MOVFF  03,FEA
0150A:  MOVFF  93E,FEF
....................    } 
0150E:  INCF   x43,F
01510:  BTFSC  FD8.2
01512:  INCF   x44,F
01514:  BRA    14DC
.................... } 
01516:  MOVLB  0
01518:  RETLW  00
.................... #else 
.................... { 
....................    int8 i, j; 
....................  
....................    // Loop through the vertical pages 
....................    for(i = 0; i < 8; ++i) 
....................    { 
....................       output_low(GLCD_DI);                      // Set for instruction 
....................       glcd_writeByte(GLCD_LEFT, 0b01000000);    // Set horizontal address to 0 
....................       glcd_writeByte(GLCD_RIGHT, 0b01000000); 
....................       glcd_writeByte(GLCD_LEFT, i | 0b10111000);// Set page address 
....................       glcd_writeByte(GLCD_RIGHT, i | 0b10111000); 
....................       output_high(GLCD_DI);                     // Set for data 
....................  
....................       // Loop through the horizontal sections 
....................       for(j = 0; j < 64; ++j) 
....................       { 
....................          glcd_writeByte(GLCD_LEFT, 0xFF*color);  // Turn pixels on or off 
....................          glcd_writeByte(GLCD_RIGHT, 0xFF*color); // Turn pixels on or off 
....................       } 
....................    } 
.................... } 
.................... #endif 
....................  
....................  
.................... // Purpose:    Write a byte of data to the specified chip 
.................... // Inputs:     1) chipSelect - which chip to write the data to 
.................... //             2) data - the byte of data to write 
.................... void glcd_writeByte(int1 side, BYTE data) 
.................... { 
....................    if(side)                   // Choose which side to write to 
*
0148A:  MOVLB  9
0148C:  MOVF   x53,F
0148E:  BZ    1496
....................       output_high(GLCD_CS2); 
01490:  BCF    F93.3
01492:  BSF    F8A.3
....................    else 
01494:  BRA    149A
....................       output_high(GLCD_CS1); 
01496:  BCF    F93.2
01498:  BSF    F8A.2
....................  
....................    output_low(GLCD_RW);       // Set for writing 
0149A:  BCF    F93.6
0149C:  BCF    F8A.6
....................    output_d(data);            // Put the data on the port 
0149E:  CLRF   F95
014A0:  MOVFF  954,F8C
....................    delay_cycles(1); 
014A4:  NOP   
....................    output_high(GLCD_E);       // Pulse the enable pin 
014A6:  BCF    F93.7
014A8:  BSF    F8A.7
....................    delay_cycles(5); 
014AA:  BRA    14AC
014AC:  BRA    14AE
014AE:  NOP   
....................    output_low(GLCD_E); 
014B0:  BCF    F93.7
014B2:  BCF    F8A.7
....................  
....................    output_low(GLCD_CS1);      // Reset the chip select lines 
014B4:  BCF    F93.2
014B6:  BCF    F8A.2
....................    output_low(GLCD_CS2); 
014B8:  BCF    F93.3
014BA:  BCF    F8A.3
.................... } 
014BC:  MOVLB  0
014BE:  RETLW  00
....................  
....................  
.................... // Purpose:    Reads a byte of data from the specified chip 
.................... // Ouputs:     A byte of data read from the chip 
.................... BYTE glcd_readByte(int1 side) 
.................... { 
....................    BYTE data;                 // Stores the data read from the LCD 
....................  
....................    set_tris_d(0xFF);          // Set port d to input 
....................    output_high(GLCD_RW);      // Set for reading 
....................  
....................    if(side)                   // Choose which side to write to 
....................       output_high(GLCD_CS2); 
....................    else 
....................       output_high(GLCD_CS1); 
....................  
....................    delay_cycles(1); 
....................    output_high(GLCD_E);       // Pulse the enable pin 
....................    delay_cycles(4); 
....................    data = input_d();          // Get the data from the display's output register 
....................    output_low(GLCD_E); 
....................  
....................    output_low(GLCD_CS1);      // Reset the chip select lines 
....................    output_low(GLCD_CS2); 
....................    return data;               // Return the read data 
.................... } 
....................  
.................... #endif 
....................  
.................... #include "GRAPHICS.c" 
.................... ///////////////////////////////////////////////////////////////////////// 
.................... ////                          graphics.c                             //// 
.................... ////                                                                 //// 
.................... ////   This file contains functions to draw lines, rectangles, bars, //// 
.................... ////   circles and text to a display. A function which draws a       //// 
.................... ////   single pixel must be defined before calling the functions in  //// 
.................... ////   this file. Call it glcd_pixel(x, y, color) where x is the     //// 
.................... ////   horizontal coordinate, y is the vertical coordinate, and      //// 
.................... ////   color is 1 bit to turn the pixel on or off.                   //// 
.................... ////                                                                 //// 
.................... ////   * Note: (0, 0) is treated as the upper left corner            //// 
.................... ////                                                                 //// 
.................... ///////////////////////////////////////////////////////////////////////// 
.................... ////                                                                 //// 
.................... ////  glcd_line(x1, y1, x2, y2, color)                               //// 
.................... ////     * Draws a line from the first point to the second point     //// 
.................... ////       with the given color                                      //// 
.................... ////       - color can be ON or OFF                                  //// 
.................... ////                                                                 //// 
.................... ////  glcd_rect(x1, y1, x2, y2, fill, color)                         //// 
.................... ////     * Draws a rectangle with one corner at point (x1,y1) and    //// 
.................... ////       the other corner at point (x2,y2)                         //// 
.................... ////       - fill can be YES or NO                                   //// 
.................... ////       - color can be ON or OFF                                  //// 
.................... ////                                                                 //// 
.................... ////  glcd_bar(x1, y1, x2, y2, width, color)                         //// 
.................... ////     * Draws a bar (wide line) from the first point to the       //// 
.................... ////       second point                                              //// 
.................... ////       - width is the number of pixels wide                      //// 
.................... ////       - color is ON or OFF                                      //// 
.................... ////                                                                 //// 
.................... ////  glcd_circle(x, y, radius, fill, color)                         //// 
.................... ////     * Draws a circle with center at (x,y)                       //// 
.................... ////       - fill can be YES or NO                                   //// 
.................... ////       - color can be ON or OFF                                  //// 
.................... ////                                                                 //// 
.................... ////  glcd_text57(x, y, textptr, size, color)                        //// 
.................... ////     * Write the null terminated text pointed to by textptr with //// 
.................... ////       the upper left coordinate of the first character at (x,y) //// 
.................... ////       Characters are 5 pixels wide and 7 pixels tall            //// 
.................... ////       - size is an integer that scales the size of the text     //// 
.................... ////       - color is ON or OFF                                      //// 
.................... ////     * Note - This function wraps characters to the next line    //// 
.................... ////              use #define GLCD_WIDTH to specify a display width  //// 
.................... ////                                                                 //// 
.................... ///////////////////////////////////////////////////////////////////////// 
.................... ////        (C) Copyright 1996, 2004 Custom Computer Services        //// 
.................... //// This source code may only be used by licensed users of the CCS  //// 
.................... //// C compiler.  This source code may only be distributed to other  //// 
.................... //// licensed users of the CCS C compiler.  No other use,            //// 
.................... //// reproduction or distribution is permitted without written       //// 
.................... //// permission.  Derivative programs created using this software    //// 
.................... //// in object code form are not restricted in any way.              //// 
.................... ///////////////////////////////////////////////////////////////////////// 
....................  
....................  
.................... ///////////////////////////////////////////////////////////////////////// 
.................... #ifndef GRAPHICS_DRAWING_FUNCTIONS 
.................... #define GRAPHICS_DRAWING_FUNCTIONS 
.................... ///////////////////////////////////////////////////////////////////////// 
....................  
....................  
.................... ///////////////////////////////////////////////////////////////////////// 
.................... #ifndef ON 
.................... #define ON  1 
.................... #endif 
....................  
.................... #ifndef OFF 
.................... #define OFF 0 
.................... #endif 
....................  
.................... #ifndef YES 
.................... #define YES 1 
.................... #endif 
....................  
.................... #ifndef NO 
.................... #define NO  0 
.................... #endif 
.................... ///////////////////////////////////////////////////////////////////////// 
....................  
....................  
.................... ///////////////////////////////////////////////////////////////////////// 
.................... //// Defines a 5x7 font 
.................... ///////////////////////////////////////////////////////////////////////// 
.................... const int8 FONT[51][5] ={0x00, 0x00, 0x00, 0x00, 0x00, // SPACE 
....................                          0x00, 0x00, 0x5F, 0x00, 0x00, // ! 
....................                          0x00, 0x03, 0x00, 0x03, 0x00, // " 
....................                          0x14, 0x3E, 0x14, 0x3E, 0x14, // # 
....................                          0x24, 0x2A, 0x7F, 0x2A, 0x12, // $ 
....................                          0x43, 0x33, 0x08, 0x66, 0x61, // % 
....................                          0x36, 0x49, 0x55, 0x22, 0x50, // & 
....................                          0x00, 0x05, 0x03, 0x00, 0x00, // ' 
....................                          0x00, 0x1C, 0x22, 0x41, 0x00, // ( 
....................                          0x00, 0x41, 0x22, 0x1C, 0x00, // ) 
....................                          0x14, 0x08, 0x3E, 0x08, 0x14, // * 
....................                          0x08, 0x08, 0x3E, 0x08, 0x08, // + 
....................                          0x00, 0x50, 0x30, 0x00, 0x00, // , 
....................                          0x08, 0x08, 0x08, 0x08, 0x08, // - 
....................                          0x00, 0x60, 0x60, 0x00, 0x00, // . 
....................                          0x20, 0x10, 0x08, 0x04, 0x02, // / 
....................                          0x3E, 0x51, 0x49, 0x45, 0x3E, // 0 
....................                          0x00, 0x04, 0x02, 0x7F, 0x00, // 1 
....................                          0x42, 0x61, 0x51, 0x49, 0x46, // 2 
....................                          0x22, 0x41, 0x49, 0x49, 0x36, // 3 
....................                          0x18, 0x14, 0x12, 0x7F, 0x10, // 4 
....................                          0x27, 0x45, 0x45, 0x45, 0x39, // 5 
....................                          0x3E, 0x49, 0x49, 0x49, 0x32, // 6 
....................                          0x01, 0x01, 0x71, 0x09, 0x07, // 7 
....................                          0x36, 0x49, 0x49, 0x49, 0x36, // 8 
....................                          0x26, 0x49, 0x49, 0x49, 0x3E, // 9 
....................                          0x00, 0x36, 0x36, 0x00, 0x00, // : 
....................                          0x00, 0x56, 0x36, 0x00, 0x00, // ; 
....................                          0x08, 0x14, 0x22, 0x41, 0x00, // < 
....................                          0x14, 0x14, 0x14, 0x14, 0x14, // = 
....................                          0x00, 0x41, 0x22, 0x14, 0x08, // > 
....................                          0x02, 0x01, 0x51, 0x09, 0x06, // ? 
....................                          0x3E, 0x41, 0x59, 0x55, 0x5E, // @ 
....................                          0x7E, 0x09, 0x09, 0x09, 0x7E, // A 
....................                          0x7F, 0x49, 0x49, 0x49, 0x36, // B 
....................                          0x3E, 0x41, 0x41, 0x41, 0x22, // C 
....................                          0x7F, 0x41, 0x41, 0x41, 0x3E, // D 
....................                          0x7F, 0x49, 0x49, 0x49, 0x41, // E 
....................                          0x7F, 0x09, 0x09, 0x09, 0x01, // F 
....................                          0x3E, 0x41, 0x41, 0x49, 0x3A, // G 
....................                          0x7F, 0x08, 0x08, 0x08, 0x7F, // H 
....................                          0x00, 0x41, 0x7F, 0x41, 0x00, // I 
....................                          0x30, 0x40, 0x40, 0x40, 0x3F, // J 
....................                          0x7F, 0x08, 0x14, 0x22, 0x41, // K 
....................                          0x7F, 0x40, 0x40, 0x40, 0x40, // L 
....................                          0x7F, 0x02, 0x0C, 0x02, 0x7F, // M 
....................                          0x7F, 0x02, 0x04, 0x08, 0x7F, // N 
....................                          0x3E, 0x41, 0x41, 0x41, 0x3E, // O 
....................                          0x7F, 0x09, 0x09, 0x09, 0x06, // P 
....................                          0x1E, 0x21, 0x21, 0x21, 0x5E, // Q 
....................                          0x7F, 0x09, 0x09, 0x09, 0x76};// R 
....................  
.................... const int8 FONT2[44][5]={0x26, 0x49, 0x49, 0x49, 0x32, // S 
....................                          0x01, 0x01, 0x7F, 0x01, 0x01, // T 
....................                          0x3F, 0x40, 0x40, 0x40, 0x3F, // U 
....................                          0x1F, 0x20, 0x40, 0x20, 0x1F, // V 
....................                          0x7F, 0x20, 0x10, 0x20, 0x7F, // W 
....................                          0x41, 0x22, 0x1C, 0x22, 0x41, // X 
....................                          0x07, 0x08, 0x70, 0x08, 0x07, // Y 
....................                          0x61, 0x51, 0x49, 0x45, 0x43, // Z 
....................                          0x00, 0x7F, 0x41, 0x00, 0x00, // [ 
....................                          0x02, 0x04, 0x08, 0x10, 0x20, // \ 
....................                          0x00, 0x00, 0x41, 0x7F, 0x00, // ] 
....................                          0x04, 0x02, 0x01, 0x02, 0x04, // ^ 
....................                          0x40, 0x40, 0x40, 0x40, 0x40, // _ 
....................                          0x00, 0x01, 0x02, 0x04, 0x00, // ` 
....................                          0x20, 0x54, 0x54, 0x54, 0x78, // a 
....................                          0x7F, 0x44, 0x44, 0x44, 0x38, // b 
....................                          0x38, 0x44, 0x44, 0x44, 0x44, // c 
....................                          0x38, 0x44, 0x44, 0x44, 0x7F, // d 
....................                          0x38, 0x54, 0x54, 0x54, 0x18, // e 
....................                          0x04, 0x04, 0x7E, 0x05, 0x05, // f 
....................                          0x08, 0x54, 0x54, 0x54, 0x3C, // g 
....................                          0x7F, 0x08, 0x04, 0x04, 0x78, // h 
....................                          0x00, 0x44, 0x7D, 0x40, 0x00, // i 
....................                          0x20, 0x40, 0x44, 0x3D, 0x00, // j 
....................                          0x7F, 0x10, 0x28, 0x44, 0x00, // k 
....................                          0x00, 0x41, 0x7F, 0x40, 0x00, // l 
....................                          0x7C, 0x04, 0x78, 0x04, 0x78, // m 
....................                          0x7C, 0x08, 0x04, 0x04, 0x78, // n 
....................                          0x38, 0x44, 0x44, 0x44, 0x38, // o 
....................                          0x7C, 0x14, 0x14, 0x14, 0x08, // p 
....................                          0x08, 0x14, 0x14, 0x14, 0x7C, // q 
....................                          0x00, 0x7C, 0x08, 0x04, 0x04, // r 
....................                          0x48, 0x54, 0x54, 0x54, 0x20, // s 
....................                          0x04, 0x04, 0x3F, 0x44, 0x44, // t 
....................                          0x3C, 0x40, 0x40, 0x20, 0x7C, // u 
....................                          0x1C, 0x20, 0x40, 0x20, 0x1C, // v 
....................                          0x3C, 0x40, 0x30, 0x40, 0x3C, // w 
....................                          0x44, 0x28, 0x10, 0x28, 0x44, // x 
....................                          0x0C, 0x50, 0x50, 0x50, 0x3C, // y 
....................                          0x44, 0x64, 0x54, 0x4C, 0x44, // z 
....................                          0x00, 0x08, 0x36, 0x41, 0x41, // { 
....................                          0x00, 0x00, 0x7F, 0x00, 0x00, // | 
....................                          0x41, 0x41, 0x36, 0x08, 0x00, // } 
....................                          0x02, 0x01, 0x02, 0x04, 0x02};// ~ 
.................... ///////////////////////////////////////////////////////////////////////// 
....................  
....................  
.................... ///////////////////////////////////////////////////////////////////////// 
.................... // Purpose:       Draw a line on a graphic LCD using Bresenham's 
.................... //                line drawing algorithm 
.................... // Inputs:        (x1, y1) - the start coordinate 
.................... //                (x2, y2) - the end coordinate 
.................... //                color - ON or OFF 
.................... // Dependencies:  glcd_pixel() 
.................... ///////////////////////////////////////////////////////////////////////// 
.................... #ifdef LARGE_LCD 
.................... void glcd_line(int16 x1, int16 y1, int16 x2, int16 y2, int1 color) 
.................... #else 
.................... void glcd_line(int8 x1, int8 y1, int8 x2, int8 y2, int1 color) 
.................... #endif 
.................... { 
*
01736:  MOVLW  01
01738:  MOVLB  9
0173A:  MOVWF  x63
0173C:  MOVWF  x64
0173E:  CLRF   x69
....................    int16        dy, dx; 
....................    signed int8  addx=1, addy=1; 
....................    signed int16 P, diff; 
....................  
....................    #ifdef LARGE_LCD 
....................    int16 i=0; 
....................    dx = abs((signed int16)(x2 - x1)); 
....................    dy = abs((signed int16)(y2 - y1)); 
....................    #else 
....................    int8 i=0; 
....................    dx = abs((signed int8)(x2 - x1)); 
01740:  MOVF   x5A,W
01742:  SUBWF  x5C,W
01744:  MOVWF  x6A
01746:  MOVF   x6A,W
01748:  BTFSS  x6A.7
0174A:  BRA    1752
0174C:  MOVLW  00
0174E:  BSF    FD8.0
01750:  SUBFWB x6A,W
01752:  CLRF   03
01754:  MOVWF  x61
01756:  MOVFF  03,962
....................    dy = abs((signed int8)(y2 - y1)); 
0175A:  MOVF   x5B,W
0175C:  SUBWF  x5D,W
0175E:  MOVWF  x6A
01760:  MOVF   x6A,W
01762:  BTFSS  x6A.7
01764:  BRA    176C
01766:  MOVLW  00
01768:  BSF    FD8.0
0176A:  SUBFWB x6A,W
0176C:  CLRF   03
0176E:  MOVWF  x5F
01770:  MOVFF  03,960
....................    #endif 
....................  
....................    if(x1 > x2) 
01774:  MOVF   x5A,W
01776:  SUBWF  x5C,W
01778:  BC    177E
....................       addx = -1; 
0177A:  MOVLW  FF
0177C:  MOVWF  x63
....................    if(y1 > y2) 
0177E:  MOVF   x5B,W
01780:  SUBWF  x5D,W
01782:  BC    1788
....................       addy = -1; 
01784:  MOVLW  FF
01786:  MOVWF  x64
....................  
....................    if(dx >= dy) 
01788:  MOVF   x60,W
0178A:  SUBWF  x62,W
0178C:  BNC   1804
0178E:  BNZ   1796
01790:  MOVF   x5F,W
01792:  SUBWF  x61,W
01794:  BNC   1804
....................    { 
....................       dy *= 2; 
01796:  BCF    FD8.0
01798:  RLCF   x5F,F
0179A:  RLCF   x60,F
....................       P = dy - dx; 
0179C:  MOVF   x61,W
0179E:  SUBWF  x5F,W
017A0:  MOVWF  00
017A2:  MOVF   x62,W
017A4:  SUBWFB x60,W
017A6:  MOVFF  00,965
017AA:  MOVWF  x66
....................       diff = P - dx; 
017AC:  MOVF   x61,W
017AE:  SUBWF  x65,W
017B0:  MOVWF  x67
017B2:  MOVF   x62,W
017B4:  SUBWFB x66,W
017B6:  MOVWF  x68
....................  
....................       for(; i<=dx; ++i) 
017B8:  MOVF   x62,F
017BA:  BNZ   17C2
017BC:  MOVF   x69,W
017BE:  SUBWF  x61,W
017C0:  BNC   1802
....................       { 
....................          glcd_pixel(x1, y1, color); 
017C2:  MOVFF  95A,96A
017C6:  MOVFF  95B,96B
017CA:  MOVFF  95E,96C
017CE:  MOVLB  0
017D0:  RCALL  167A
....................  
....................          if(P < 0) 
017D2:  MOVLB  9
017D4:  BTFSC  x66.7
017D6:  BRA    17DA
017D8:  BRA    17EA
....................          { 
....................             P  += dy; 
017DA:  MOVF   x5F,W
017DC:  ADDWF  x65,F
017DE:  MOVF   x60,W
017E0:  ADDWFC x66,F
....................             x1 += addx; 
017E2:  MOVF   x63,W
017E4:  ADDWF  x5A,W
017E6:  MOVWF  x5A
....................          } 
....................          else 
017E8:  BRA    17FE
....................          { 
....................             P  += diff; 
017EA:  MOVF   x67,W
017EC:  ADDWF  x65,F
017EE:  MOVF   x68,W
017F0:  ADDWFC x66,F
....................             x1 += addx; 
017F2:  MOVF   x63,W
017F4:  ADDWF  x5A,W
017F6:  MOVWF  x5A
....................             y1 += addy; 
017F8:  MOVF   x64,W
017FA:  ADDWF  x5B,W
017FC:  MOVWF  x5B
....................          } 
....................       } 
017FE:  INCF   x69,F
01800:  BRA    17B8
....................    } 
....................    else 
01802:  BRA    1870
....................    { 
....................       dx *= 2; 
01804:  BCF    FD8.0
01806:  RLCF   x61,F
01808:  RLCF   x62,F
....................       P = dx - dy; 
0180A:  MOVF   x5F,W
0180C:  SUBWF  x61,W
0180E:  MOVWF  00
01810:  MOVF   x60,W
01812:  SUBWFB x62,W
01814:  MOVFF  00,965
01818:  MOVWF  x66
....................       diff = P - dy; 
0181A:  MOVF   x5F,W
0181C:  SUBWF  x65,W
0181E:  MOVWF  x67
01820:  MOVF   x60,W
01822:  SUBWFB x66,W
01824:  MOVWF  x68
....................  
....................       for(; i<=dy; ++i) 
01826:  MOVF   x60,F
01828:  BNZ   1830
0182A:  MOVF   x69,W
0182C:  SUBWF  x5F,W
0182E:  BNC   1870
....................       { 
....................          glcd_pixel(x1, y1, color); 
01830:  MOVFF  95A,96A
01834:  MOVFF  95B,96B
01838:  MOVFF  95E,96C
0183C:  MOVLB  0
0183E:  RCALL  167A
....................  
....................          if(P < 0) 
01840:  MOVLB  9
01842:  BTFSC  x66.7
01844:  BRA    1848
01846:  BRA    1858
....................          { 
....................             P  += dx; 
01848:  MOVF   x61,W
0184A:  ADDWF  x65,F
0184C:  MOVF   x62,W
0184E:  ADDWFC x66,F
....................             y1 += addy; 
01850:  MOVF   x64,W
01852:  ADDWF  x5B,W
01854:  MOVWF  x5B
....................          } 
....................          else 
01856:  BRA    186C
....................          { 
....................             P  += diff; 
01858:  MOVF   x67,W
0185A:  ADDWF  x65,F
0185C:  MOVF   x68,W
0185E:  ADDWFC x66,F
....................             x1 += addx; 
01860:  MOVF   x63,W
01862:  ADDWF  x5A,W
01864:  MOVWF  x5A
....................             y1 += addy; 
01866:  MOVF   x64,W
01868:  ADDWF  x5B,W
0186A:  MOVWF  x5B
....................          } 
....................       } 
0186C:  INCF   x69,F
0186E:  BRA    1826
....................    } 
.................... } 
01870:  MOVLB  0
01872:  RETLW  00
....................  
....................  
.................... ///////////////////////////////////////////////////////////////////////// 
.................... // Purpose:       Draw a rectangle on a graphic LCD 
.................... // Inputs:        (x1, y1) - the start coordinate 
.................... //                (x2, y2) - the end coordinate 
.................... //                fill  - YES or NO 
.................... //                color - ON or OFF 
.................... // Dependencies:  glcd_pixel(), glcd_line() 
.................... ///////////////////////////////////////////////////////////////////////// 
.................... #ifdef LARGE_LCD 
.................... void glcd_rect(int16 x1, int16 y1, int16 x2, int16 y2, int1 fill, int1 color) 
.................... #else 
.................... void glcd_rect(int8 x1, int8 y1, int8 x2, int8 y2, int1 fill, int1 color) 
.................... #endif 
.................... { 
....................    if(fill) 
01874:  MOVLB  9
01876:  MOVF   x52,F
01878:  BZ    18D6
....................    { 
....................       #ifdef LARGE_LCD 
....................       int16 i, xmin, xmax, ymin, ymax; 
....................       #else 
....................       int8  i, xmin, xmax, ymin, ymax; 
....................       #endif 
....................  
....................       if(x1 < x2)                            //  Find x min and max 
0187A:  MOVF   x50,W
0187C:  SUBWF  x4E,W
0187E:  BC    188A
....................       { 
....................          xmin = x1; 
01880:  MOVFF  94E,955
....................          xmax = x2; 
01884:  MOVFF  950,956
....................       } 
....................       else 
01888:  BRA    1892
....................       { 
....................          xmin = x2; 
0188A:  MOVFF  950,955
....................          xmax = x1; 
0188E:  MOVFF  94E,956
....................       } 
....................  
....................       if(y1 < y2)                            // Find the y min and max 
01892:  MOVF   x51,W
01894:  SUBWF  x4F,W
01896:  BC    18A2
....................       { 
....................          ymin = y1; 
01898:  MOVFF  94F,957
....................          ymax = y2; 
0189C:  MOVFF  951,958
....................       } 
....................       else 
018A0:  BRA    18AA
....................       { 
....................          ymin = y2; 
018A2:  MOVFF  951,957
....................          ymax = y1; 
018A6:  MOVFF  94F,958
....................       } 
....................  
....................       for(; xmin <= xmax; ++xmin) 
018AA:  MOVF   x55,W
018AC:  SUBWF  x56,W
018AE:  BNC   18D4
....................       { 
....................          for(i=ymin; i<=ymax; ++i) 
018B0:  MOVFF  957,954
018B4:  MOVF   x54,W
018B6:  SUBWF  x58,W
018B8:  BNC   18D0
....................          { 
....................             glcd_pixel(xmin, i, color); 
018BA:  MOVFF  955,96A
018BE:  MOVFF  954,96B
018C2:  MOVFF  953,96C
018C6:  MOVLB  0
018C8:  RCALL  167A
....................          } 
018CA:  MOVLB  9
018CC:  INCF   x54,F
018CE:  BRA    18B4
....................       } 
018D0:  INCF   x55,F
018D2:  BRA    18AA
....................    } 
....................    else 
018D4:  BRA    1932
....................    { 
....................       glcd_line(x1, y1, x2, y1, color);      // Draw the 4 sides 
018D6:  MOVFF  94E,95A
018DA:  MOVFF  94F,95B
018DE:  MOVFF  950,95C
018E2:  MOVFF  94F,95D
018E6:  MOVFF  953,95E
018EA:  MOVLB  0
018EC:  RCALL  1736
....................       glcd_line(x1, y2, x2, y2, color); 
018EE:  MOVFF  94E,95A
018F2:  MOVFF  951,95B
018F6:  MOVFF  950,95C
018FA:  MOVFF  951,95D
018FE:  MOVFF  953,95E
01902:  RCALL  1736
....................       glcd_line(x1, y1, x1, y2, color); 
01904:  MOVFF  94E,95A
01908:  MOVFF  94F,95B
0190C:  MOVFF  94E,95C
01910:  MOVFF  951,95D
01914:  MOVFF  953,95E
01918:  RCALL  1736
....................       glcd_line(x2, y1, x2, y2, color); 
0191A:  MOVFF  950,95A
0191E:  MOVFF  94F,95B
01922:  MOVFF  950,95C
01926:  MOVFF  951,95D
0192A:  MOVFF  953,95E
0192E:  RCALL  1736
01930:  MOVLB  9
....................    } 
.................... } 
01932:  MOVLB  0
01934:  RETLW  00
....................  
.................... ///////////////////////////////////////////////////////////////////////// 
.................... // Purpose:       Draw a bar (wide line) on a graphic LCD 
.................... // Inputs:        (x1, y1) - the start coordinate 
.................... //                (x2, y2) - the end coordinate 
.................... //                width  - The number of pixels wide 
.................... //                color - ON or OFF 
.................... ///////////////////////////////////////////////////////////////////////// 
.................... #ifdef LARGE_LCD 
.................... void glcd_bar(int16 x1, int16 y1, int16 x2, int16 y2, int8 width, int1 color) 
.................... #else 
.................... void glcd_bar(int8 x1, int8 y1, int8 x2, int8 y2, int8 width, int1 color) 
.................... #endif 
.................... { 
....................    int8         half_width; 
....................    signed int16 dy, dx; 
....................    signed int8  addx=1, addy=1, j; 
....................    signed int16 P, diff, c1, c2; 
....................  
....................    #ifdef LARGE_LCD 
....................    int16 i=0; 
....................    dx = abs((signed int16)(x2 - x1)); 
....................    dy = abs((signed int16)(y2 - y1)); 
....................    #else 
....................    int8 i=0; 
....................    dx = abs((signed int8)(x2 - x1)); 
....................    dy = abs((signed int8)(y2 - y1)); 
....................    #endif 
....................  
....................    half_width = width/2; 
....................    c1 = -(dx*x1 + dy*y1); 
....................    c2 = -(dx*x2 + dy*y2); 
....................  
....................    if(x1 > x2) 
....................    { 
....................       signed int16 temp; 
....................       temp = c1; 
....................       c1 = c2; 
....................       c2 = temp; 
....................       addx = -1; 
....................    } 
....................    if(y1 > y2) 
....................    { 
....................       signed int16 temp; 
....................       temp = c1; 
....................       c1 = c2; 
....................       c2 = temp; 
....................       addy = -1; 
....................    } 
....................  
....................    if(dx >= dy) 
....................    { 
....................       P = 2*dy - dx; 
....................       diff = P - dx; 
....................  
....................       for(i=0; i<=dx; ++i) 
....................       { 
....................          for(j=-half_width; j<half_width+width%2; ++j) 
....................          { 
....................             #ifdef LARGE_LCD 
....................             int16 temp; 
....................             #else 
....................             int8 temp; 
....................             #endif 
....................  
....................             temp = dx*x1+dy*(y1+j);    // Use more RAM to increase speed 
....................             if(temp+c1 >= 0 && temp+c2 <=0) 
....................                glcd_pixel(x1, y1+j, color); 
....................          } 
....................          if(P < 0) 
....................          { 
....................             P  += 2*dy; 
....................             x1 += addx; 
....................          } 
....................          else 
....................          { 
....................             P  += diff; 
....................             x1 += addx; 
....................             y1 += addy; 
....................          } 
....................       } 
....................    } 
....................    else 
....................    { 
....................       P = 2*dx - dy; 
....................       diff = P - dy; 
....................  
....................       for(i=0; i<=dy; ++i) 
....................       { 
....................          if(P < 0) 
....................          { 
....................             P  += 2*dx; 
....................             y1 += addy; 
....................          } 
....................          else 
....................          { 
....................             P  += diff; 
....................             x1 += addx; 
....................             y1 += addy; 
....................          } 
....................          for(j=-half_width; j<half_width+width%2; ++j) 
....................          { 
....................             #ifdef LARGE_LCD 
....................             int16 temp; 
....................             #else 
....................             int8 temp; 
....................             #endif 
....................  
....................             temp = dx*x1+dy*(y1+j);    // Use more RAM to increase speed 
....................             if(temp+c1 >= 0 && temp+c2 <=0) 
....................                glcd_pixel(x1+j, y1, color); 
....................          } 
....................       } 
....................    } 
.................... } 
....................  
....................  
.................... ///////////////////////////////////////////////////////////////////////// 
.................... // Purpose:       Draw a circle on a graphic LCD 
.................... // Inputs:        (x,y) - the center of the circle 
.................... //                radius - the radius of the circle 
.................... //                fill - YES or NO 
.................... //                color - ON or OFF 
.................... ///////////////////////////////////////////////////////////////////////// 
.................... #ifdef LARGE_LCD 
.................... void glcd_circle(int16 x, int16 y, int16 radius, int1 fill, int1 color) 
.................... #else 
.................... void glcd_circle(int8 x, int8 y, int8 radius, int1 fill, int1 color) 
.................... #endif 
.................... { 
....................    #ifdef LARGE_LCD 
....................    signed int16 a, b, P; 
....................    #else 
....................    signed int8  a, b, P; 
....................    #endif 
....................  
....................    a = 0; 
*
0357C:  MOVLB  9
0357E:  CLRF   x53
....................    b = radius; 
03580:  MOVFF  950,954
....................    P = 1 - radius; 
03584:  MOVLW  01
03586:  BSF    FD8.0
03588:  SUBFWB x50,W
0358A:  MOVWF  x55
....................  
....................    do 
....................    { 
....................       if(fill) 
0358C:  MOVF   x51,F
0358E:  BZ    365A
....................       { 
....................          glcd_line(x-a, y+b, x+a, y+b, color); 
03590:  MOVF   x53,W
03592:  SUBWF  x4E,W
03594:  MOVWF  x56
03596:  MOVF   x54,W
03598:  ADDWF  x4F,W
0359A:  MOVWF  x57
0359C:  MOVF   x53,W
0359E:  ADDWF  x4E,W
035A0:  MOVWF  x58
035A2:  MOVF   x54,W
035A4:  ADDWF  x4F,W
035A6:  MOVWF  x59
035A8:  MOVFF  956,95A
035AC:  MOVFF  957,95B
035B0:  MOVFF  958,95C
035B4:  MOVWF  x5D
035B6:  MOVFF  952,95E
035BA:  MOVLB  0
035BC:  CALL   1736
....................          glcd_line(x-a, y-b, x+a, y-b, color); 
035C0:  MOVLB  9
035C2:  MOVF   x53,W
035C4:  SUBWF  x4E,W
035C6:  MOVWF  x56
035C8:  MOVF   x54,W
035CA:  SUBWF  x4F,W
035CC:  MOVWF  x57
035CE:  MOVF   x53,W
035D0:  ADDWF  x4E,W
035D2:  MOVWF  x58
035D4:  MOVF   x54,W
035D6:  SUBWF  x4F,W
035D8:  MOVWF  x59
035DA:  MOVFF  956,95A
035DE:  MOVFF  957,95B
035E2:  MOVFF  958,95C
035E6:  MOVWF  x5D
035E8:  MOVFF  952,95E
035EC:  MOVLB  0
035EE:  CALL   1736
....................          glcd_line(x-b, y+a, x+b, y+a, color); 
035F2:  MOVLB  9
035F4:  MOVF   x54,W
035F6:  SUBWF  x4E,W
035F8:  MOVWF  x56
035FA:  MOVF   x53,W
035FC:  ADDWF  x4F,W
035FE:  MOVWF  x57
03600:  MOVF   x54,W
03602:  ADDWF  x4E,W
03604:  MOVWF  x58
03606:  MOVF   x53,W
03608:  ADDWF  x4F,W
0360A:  MOVWF  x59
0360C:  MOVFF  956,95A
03610:  MOVFF  957,95B
03614:  MOVFF  958,95C
03618:  MOVWF  x5D
0361A:  MOVFF  952,95E
0361E:  MOVLB  0
03620:  CALL   1736
....................          glcd_line(x-b, y-a, x+b, y-a, color); 
03624:  MOVLB  9
03626:  MOVF   x54,W
03628:  SUBWF  x4E,W
0362A:  MOVWF  x56
0362C:  MOVF   x53,W
0362E:  SUBWF  x4F,W
03630:  MOVWF  x57
03632:  MOVF   x54,W
03634:  ADDWF  x4E,W
03636:  MOVWF  x58
03638:  MOVF   x53,W
0363A:  SUBWF  x4F,W
0363C:  MOVWF  x59
0363E:  MOVFF  956,95A
03642:  MOVFF  957,95B
03646:  MOVFF  958,95C
0364A:  MOVWF  x5D
0364C:  MOVFF  952,95E
03650:  MOVLB  0
03652:  CALL   1736
....................       } 
....................       else 
03656:  BRA    3748
03658:  MOVLB  9
....................       { 
....................          glcd_pixel(a+x, b+y, color); 
0365A:  MOVF   x4E,W
0365C:  ADDWF  x53,W
0365E:  MOVWF  x56
03660:  MOVF   x4F,W
03662:  ADDWF  x54,W
03664:  MOVWF  x57
03666:  MOVFF  956,96A
0366A:  MOVWF  x6B
0366C:  MOVFF  952,96C
03670:  MOVLB  0
03672:  CALL   167A
....................          glcd_pixel(b+x, a+y, color); 
03676:  MOVLB  9
03678:  MOVF   x4E,W
0367A:  ADDWF  x54,W
0367C:  MOVWF  x56
0367E:  MOVF   x4F,W
03680:  ADDWF  x53,W
03682:  MOVWF  x57
03684:  MOVFF  956,96A
03688:  MOVWF  x6B
0368A:  MOVFF  952,96C
0368E:  MOVLB  0
03690:  CALL   167A
....................          glcd_pixel(x-a, b+y, color); 
03694:  MOVLB  9
03696:  MOVF   x53,W
03698:  SUBWF  x4E,W
0369A:  MOVWF  x56
0369C:  MOVF   x4F,W
0369E:  ADDWF  x54,W
036A0:  MOVWF  x57
036A2:  MOVFF  956,96A
036A6:  MOVWF  x6B
036A8:  MOVFF  952,96C
036AC:  MOVLB  0
036AE:  CALL   167A
....................          glcd_pixel(x-b, a+y, color); 
036B2:  MOVLB  9
036B4:  MOVF   x54,W
036B6:  SUBWF  x4E,W
036B8:  MOVWF  x56
036BA:  MOVF   x4F,W
036BC:  ADDWF  x53,W
036BE:  MOVWF  x57
036C0:  MOVFF  956,96A
036C4:  MOVWF  x6B
036C6:  MOVFF  952,96C
036CA:  MOVLB  0
036CC:  CALL   167A
....................          glcd_pixel(b+x, y-a, color); 
036D0:  MOVLB  9
036D2:  MOVF   x4E,W
036D4:  ADDWF  x54,W
036D6:  MOVWF  x56
036D8:  MOVF   x53,W
036DA:  SUBWF  x4F,W
036DC:  MOVWF  x57
036DE:  MOVFF  956,96A
036E2:  MOVWF  x6B
036E4:  MOVFF  952,96C
036E8:  MOVLB  0
036EA:  CALL   167A
....................          glcd_pixel(a+x, y-b, color); 
036EE:  MOVLB  9
036F0:  MOVF   x4E,W
036F2:  ADDWF  x53,W
036F4:  MOVWF  x56
036F6:  MOVF   x54,W
036F8:  SUBWF  x4F,W
036FA:  MOVWF  x57
036FC:  MOVFF  956,96A
03700:  MOVWF  x6B
03702:  MOVFF  952,96C
03706:  MOVLB  0
03708:  CALL   167A
....................          glcd_pixel(x-a, y-b, color); 
0370C:  MOVLB  9
0370E:  MOVF   x53,W
03710:  SUBWF  x4E,W
03712:  MOVWF  x56
03714:  MOVF   x54,W
03716:  SUBWF  x4F,W
03718:  MOVWF  x57
0371A:  MOVFF  956,96A
0371E:  MOVWF  x6B
03720:  MOVFF  952,96C
03724:  MOVLB  0
03726:  CALL   167A
....................          glcd_pixel(x-b, y-a, color); 
0372A:  MOVLB  9
0372C:  MOVF   x54,W
0372E:  SUBWF  x4E,W
03730:  MOVWF  x56
03732:  MOVF   x53,W
03734:  SUBWF  x4F,W
03736:  MOVWF  x57
03738:  MOVFF  956,96A
0373C:  MOVWF  x6B
0373E:  MOVFF  952,96C
03742:  MOVLB  0
03744:  CALL   167A
....................       } 
....................  
....................       if(P < 0) 
03748:  MOVLB  9
0374A:  BTFSC  x55.7
0374C:  BRA    3750
0374E:  BRA    376C
....................          P += 3 + 2 * a++; 
03750:  MOVF   x53,W
03752:  INCF   x53,F
03754:  MOVWF  x56
03756:  MOVLW  02
03758:  MOVWF  x57
0375A:  MOVFF  956,958
0375E:  MOVLB  0
03760:  RCALL  3240
03762:  MOVF   01,W
03764:  ADDLW  03
03766:  MOVLB  9
03768:  ADDWF  x55,F
....................       else 
0376A:  BRA    378E
....................          P += 5 + 2 * (a++ - b--); 
0376C:  MOVF   x53,W
0376E:  INCF   x53,F
03770:  MOVWF  x56
03772:  MOVF   x54,W
03774:  DECF   x54,F
03776:  SUBWF  x56,W
03778:  MOVWF  x56
0377A:  MOVLW  02
0377C:  MOVWF  x57
0377E:  MOVFF  956,958
03782:  MOVLB  0
03784:  RCALL  3240
03786:  MOVF   01,W
03788:  ADDLW  05
0378A:  MOVLB  9
0378C:  ADDWF  x55,F
....................     } while(a <= b); 
0378E:  MOVF   x53,W
03790:  XORLW  80
03792:  MOVWF  00
03794:  MOVF   x54,W
03796:  XORLW  80
03798:  SUBWF  00,W
0379A:  BTFSC  FD8.2
0379C:  BRA    358C
0379E:  BTFSS  FD8.0
037A0:  BRA    358C
.................... } 
037A2:  MOVLB  0
037A4:  RETLW  00
....................  
....................  
.................... ///////////////////////////////////////////////////////////////////////// 
.................... // Purpose:       Write text on a graphic LCD 
.................... // Inputs:        (x,y) - The upper left coordinate of the first letter 
.................... //                textptr - A pointer to an array of text to display 
.................... //                size - The size of the text: 1 = 5x7, 2 = 10x14, ... 
.................... //                color - ON or OFF 
.................... ///////////////////////////////////////////////////////////////////////// 
.................... #ifdef LARGE_LCD 
.................... void glcd_text57(int16 x, int16 y, char* textptr, int8 size, int1 color) 
.................... #else 
.................... void glcd_text57(int8 x, int8 y, char* textptr, int8 size, int1 color) 
.................... #endif 
.................... { 
....................    int8 j, k, l, m;                       // Loop counters 
....................    int8 pixelData[5];                     // Stores character data 
....................  
....................    for(; *textptr != '\0'; ++textptr, ++x)// Loop through the passed string 
*
01936:  MOVFF  951,03
0193A:  MOVLB  9
0193C:  MOVFF  950,FE9
01940:  MOVFF  951,FEA
01944:  MOVF   FEF,F
01946:  BTFSC  FD8.2
01948:  BRA    1AEA
....................    { 
....................       if(*textptr < 'S') // Checks if the letter is in the first font array 
0194A:  MOVFF  951,03
0194E:  MOVFF  950,FE9
01952:  MOVFF  951,FEA
01956:  MOVF   FEF,W
01958:  SUBLW  52
0195A:  BNC   19AA
....................          memcpy(pixelData, FONT[*textptr - ' '], 5); 
0195C:  MOVFF  951,03
01960:  MOVFF  950,FE9
01964:  MOVFF  951,FEA
01968:  MOVLW  20
0196A:  SUBWF  FEF,W
0196C:  MULLW  05
0196E:  MOVF   FF3,W
01970:  CLRF   03
01972:  MOVWF  x5D
01974:  MOVLW  09
01976:  MOVWF  FEA
01978:  MOVLW  58
0197A:  MOVWF  FE9
0197C:  CLRF   x61
0197E:  MOVFF  95D,960
01982:  MOVFF  FF2,95E
01986:  BCF    FF2.7
01988:  MOVLW  05
0198A:  MOVWF  01
0198C:  CLRF   FF7
0198E:  MOVF   x5D,W
01990:  MOVLB  0
01992:  CALL   009E
01996:  TBLRD*-
01998:  TBLRD*+
0199A:  MOVFF  FF5,FEE
0199E:  DECFSZ 01,F
019A0:  BRA    1998
019A2:  MOVLB  9
019A4:  BTFSC  x5E.7
019A6:  BSF    FF2.7
....................       else if(*textptr <= '~') // Check if the letter is in the second font array 
019A8:  BRA    1A14
019AA:  MOVFF  951,03
019AE:  MOVFF  950,FE9
019B2:  MOVFF  951,FEA
019B6:  MOVF   FEF,W
019B8:  SUBLW  7E
019BA:  BNC   1A0A
....................          memcpy(pixelData, FONT2[*textptr - 'S'], 5); 
019BC:  MOVFF  951,03
019C0:  MOVFF  950,FE9
019C4:  MOVFF  951,FEA
019C8:  MOVLW  53
019CA:  SUBWF  FEF,W
019CC:  MULLW  05
019CE:  MOVF   FF3,W
019D0:  CLRF   03
019D2:  MOVWF  x5D
019D4:  MOVLW  09
019D6:  MOVWF  FEA
019D8:  MOVLW  58
019DA:  MOVWF  FE9
019DC:  CLRF   x61
019DE:  MOVFF  95D,960
019E2:  MOVFF  FF2,95E
019E6:  BCF    FF2.7
019E8:  MOVLW  05
019EA:  MOVWF  01
019EC:  CLRF   FF7
019EE:  MOVF   x5D,W
019F0:  MOVLB  0
019F2:  CALL   01BC
019F6:  TBLRD*-
019F8:  TBLRD*+
019FA:  MOVFF  FF5,FEE
019FE:  DECFSZ 01,F
01A00:  BRA    19F8
01A02:  MOVLB  9
01A04:  BTFSC  x5E.7
01A06:  BSF    FF2.7
....................       else 
01A08:  BRA    1A14
....................          memcpy(pixelData, FONT[0], 5);   // Default to space 
01A0A:  CLRF   x58
01A0C:  CLRF   x59
01A0E:  CLRF   x5A
01A10:  CLRF   x5B
01A12:  CLRF   x5C
....................  
....................       // Handles newline and carriage returns 
....................       switch(*textptr) 
....................       { 
01A14:  MOVFF  951,03
01A18:  MOVF   x50,W
01A1A:  MOVWF  FE9
01A1C:  MOVFF  03,FEA
01A20:  MOVF   FEF,W
01A22:  XORLW  0A
01A24:  MOVLB  0
01A26:  BZ    1A2E
01A28:  XORLW  07
01A2A:  BZ    1A3E
01A2C:  BRA    1A44
....................          case '\n': 
....................             y += 7*size + 1; 
01A2E:  MOVLB  9
01A30:  MOVF   x52,W
01A32:  MULLW  07
01A34:  MOVF   FF3,W
01A36:  ADDLW  01
01A38:  ADDWF  x4F,F
....................             continue; 
01A3A:  BRA    1ADC
01A3C:  MOVLB  0
....................          case '\r': 
....................             x = 0; 
01A3E:  MOVLB  9
01A40:  CLRF   x4E
....................             continue; 
01A42:  BRA    1ADC
....................       } 
....................  
....................       if(x+5*size >= GLCD_WIDTH)          // Performs character wrapping 
01A44:  MOVLB  9
01A46:  MOVF   x52,W
01A48:  MULLW  05
01A4A:  MOVF   FF3,W
01A4C:  ADDWF  x4E,W
01A4E:  SUBLW  7F
01A50:  BC    1A5E
....................       { 
....................          x = 0;                           // Set x at far left position 
01A52:  CLRF   x4E
....................          y += 7*size + 1;                 // Set y at next position down 
01A54:  MOVF   x52,W
01A56:  MULLW  07
01A58:  MOVF   FF3,W
01A5A:  ADDLW  01
01A5C:  ADDWF  x4F,F
....................       } 
....................       for(j=0; j<5; ++j, x+=size)         // Loop through character byte data 
01A5E:  CLRF   x54
01A60:  MOVF   x54,W
01A62:  SUBLW  04
01A64:  BNC   1ADC
....................       { 
....................          for(k=0; k < 7; ++k)             // Loop through the vertical pixels 
01A66:  CLRF   x55
01A68:  MOVF   x55,W
01A6A:  SUBLW  06
01A6C:  BNC   1AD4
....................          { 
....................             if(bit_test(pixelData[j], k)) // Check if the pixel should be set 
01A6E:  CLRF   03
01A70:  MOVF   x54,W
01A72:  ADDLW  58
01A74:  MOVWF  FE9
01A76:  MOVLW  09
01A78:  ADDWFC 03,W
01A7A:  MOVWF  FEA
01A7C:  MOVFF  FEF,95D
01A80:  MOVFF  95D,00
01A84:  MOVF   x55,W
01A86:  MOVWF  01
01A88:  BZ    1A92
01A8A:  BCF    FD8.0
01A8C:  RRCF   00,F
01A8E:  DECFSZ 01,F
01A90:  BRA    1A8A
01A92:  BTFSS  00.0
01A94:  BRA    1AD0
....................             { 
....................                for(l=0; l < size; ++l)    // These two loops change the 
01A96:  CLRF   x56
01A98:  MOVF   x52,W
01A9A:  SUBWF  x56,W
01A9C:  BC    1AD0
....................                {                          // character's size 
....................                   for(m=0; m < size; ++m) 
01A9E:  CLRF   x57
01AA0:  MOVF   x52,W
01AA2:  SUBWF  x57,W
01AA4:  BC    1ACC
....................                   { 
....................                      glcd_pixel(x+m, y+k*size+l, color); // Draws the pixel 
01AA6:  MOVF   x57,W
01AA8:  ADDWF  x4E,W
01AAA:  MOVWF  x5D
01AAC:  MOVF   x55,W
01AAE:  MULWF  x52
01AB0:  MOVF   FF3,W
01AB2:  ADDWF  x4F,W
01AB4:  ADDWF  x56,W
01AB6:  MOVWF  x5E
01AB8:  MOVFF  95D,96A
01ABC:  MOVWF  x6B
01ABE:  MOVFF  953,96C
01AC2:  MOVLB  0
01AC4:  RCALL  167A
....................                   } 
01AC6:  MOVLB  9
01AC8:  INCF   x57,F
01ACA:  BRA    1AA0
....................                } 
01ACC:  INCF   x56,F
01ACE:  BRA    1A98
....................             } 
....................          } 
01AD0:  INCF   x55,F
01AD2:  BRA    1A68
....................       } 
01AD4:  INCF   x54,F
01AD6:  MOVF   x52,W
01AD8:  ADDWF  x4E,F
01ADA:  BRA    1A60
....................    } 
01ADC:  INCF   x50,F
01ADE:  BTFSC  FD8.2
01AE0:  INCF   x51,F
01AE2:  INCF   x4E,F
01AE4:  MOVLB  0
01AE6:  BRA    1936
01AE8:  MOVLB  9
.................... } 
01AEA:  MOVLB  0
01AEC:  RETLW  00
....................  
.................... #endif 
....................  
.................... #include "imagen.h" 
.................... const int8 Horno [64][16] = { 
.................... 0x00, 0x00, 0x00, 0x00, 0x00, 0x00, 0x00, 0x00, 0x00, 0x00, 0x00, 0x00, 0x00, 0x00, 0x00, 0x00, 
.................... 0x01, 0xC0, 0x00, 0x00, 0x00, 0x00, 0x00, 0x00, 0x00, 0x00, 0x00, 0x00, 0x00, 0x00, 0x00, 0x00, 
.................... 0x07, 0xF0, 0x00, 0x00, 0x00, 0x00, 0x00, 0x00, 0x00, 0x00, 0x00, 0x00, 0x00, 0x00, 0x00, 0x00, 
.................... 0x1C, 0x9C, 0x00, 0x00, 0x00, 0x00, 0x00, 0x00, 0x00, 0x00, 0x00, 0x00, 0x00, 0x00, 0x00, 0x00, 
.................... 0x18, 0x0C, 0x00, 0x00, 0x00, 0x00, 0x00, 0x00, 0x00, 0x00, 0x00, 0x00, 0x00, 0x00, 0x00, 0x00, 
.................... 0x30, 0x86, 0x00, 0x00, 0x00, 0x00, 0x00, 0x00, 0x00, 0x00, 0x00, 0x00, 0x00, 0x00, 0x00, 0x00, 
.................... 0x20, 0x82, 0x00, 0x00, 0x00, 0x00, 0x00, 0x00, 0x00, 0x00, 0x00, 0x00, 0x00, 0x00, 0x00, 0x00, 
.................... 0x60, 0x83, 0x00, 0x00, 0x00, 0x00, 0x00, 0x00, 0x00, 0x00, 0x00, 0x00, 0x00, 0x00, 0x00, 0x00, 
.................... 0x70, 0x87, 0x00, 0x00, 0x00, 0x00, 0x00, 0x00, 0x00, 0x00, 0x00, 0x00, 0x00, 0x00, 0x00, 0x00, 
.................... 0x60, 0xC3, 0x00, 0x00, 0x00, 0x00, 0x00, 0x00, 0x00, 0x00, 0x00, 0x00, 0x00, 0x00, 0x00, 0x00, 
.................... 0x20, 0x62, 0x00, 0x00, 0x00, 0x00, 0x00, 0x00, 0x00, 0x00, 0x00, 0x00, 0x00, 0x00, 0x00, 0x00, 
.................... 0x30, 0x26, 0x00, 0x00, 0x00, 0x00, 0x00, 0x00, 0x00, 0x00, 0x00, 0x00, 0x00, 0x00, 0x00, 0x00, 
.................... 0x18, 0x0C, 0x00, 0x00, 0x00, 0x00, 0x00, 0x00, 0x00, 0x00, 0x00, 0x00, 0x00, 0x00, 0x00, 0x00, 
.................... 0x1C, 0x9C, 0x00, 0x00, 0x00, 0x00, 0x00, 0x00, 0x00, 0x00, 0x00, 0x00, 0x00, 0x00, 0x00, 0x00, 
.................... 0x07, 0xF0, 0x00, 0x00, 0x00, 0x00, 0x00, 0x00, 0x00, 0x00, 0x00, 0x00, 0x00, 0x00, 0x00, 0x00, 
.................... 0x01, 0xC0, 0x00, 0x00, 0x00, 0x00, 0x00, 0x00, 0x00, 0x00, 0x00, 0x00, 0x00, 0x00, 0x00, 0x00, 
.................... 0x00, 0x00, 0x00, 0x00, 0x00, 0x00, 0x00, 0x00, 0x00, 0x00, 0x00, 0x00, 0x00, 0x00, 0x00, 0x00, 
.................... 0x00, 0x00, 0x00, 0x00, 0x00, 0x00, 0x00, 0x00, 0x00, 0x00, 0x00, 0x00, 0x00, 0x00, 0x00, 0x00, 
.................... 0x00, 0x00, 0x00, 0x00, 0x00, 0x00, 0x00, 0x00, 0x00, 0x00, 0x00, 0x00, 0x00, 0x00, 0x00, 0x00, 
.................... 0x00, 0x00, 0x00, 0x00, 0x00, 0x00, 0x00, 0x00, 0x00, 0x00, 0x00, 0x00, 0x00, 0x00, 0x00, 0x00, 
.................... 0x00, 0x00, 0x00, 0x00, 0x00, 0x00, 0x00, 0x00, 0x00, 0x00, 0x00, 0x00, 0x00, 0x00, 0x00, 0x00, 
.................... 0x00, 0x00, 0x00, 0x00, 0x00, 0x00, 0x00, 0x00, 0x00, 0x00, 0x00, 0x00, 0x00, 0x00, 0x00, 0x00, 
.................... 0x00, 0x00, 0x00, 0x00, 0x00, 0x00, 0x00, 0x00, 0x00, 0x00, 0x00, 0x00, 0x00, 0x00, 0x00, 0x00, 
.................... 0x00, 0x00, 0x00, 0x00, 0x00, 0x00, 0x00, 0x00, 0x00, 0x00, 0x00, 0x00, 0x00, 0x00, 0x00, 0x00, 
.................... 0x00, 0x00, 0x00, 0x00, 0x00, 0x00, 0x00, 0x00, 0x00, 0x00, 0x00, 0x00, 0x00, 0x00, 0x00, 0x00, 
.................... 0x00, 0x00, 0x00, 0x00, 0x00, 0x00, 0x00, 0x00, 0x00, 0x00, 0x00, 0x00, 0x00, 0x00, 0x00, 0x00, 
.................... 0x00, 0x00, 0x00, 0x00, 0x00, 0x00, 0x00, 0x00, 0x00, 0x00, 0x00, 0x00, 0x00, 0x00, 0x00, 0x00, 
.................... 0x00, 0x00, 0x00, 0x00, 0x00, 0x00, 0x00, 0x00, 0x00, 0x00, 0x00, 0x00, 0x00, 0x00, 0x00, 0x00, 
.................... 0x01, 0x80, 0x00, 0x00, 0x00, 0x00, 0x00, 0x00, 0x00, 0x00, 0x00, 0x00, 0x00, 0x00, 0x00, 0x00, 
.................... 0x02, 0x40, 0x00, 0x00, 0x00, 0x00, 0x00, 0x00, 0x00, 0x00, 0x00, 0x00, 0x00, 0x00, 0x00, 0x00, 
.................... 0x02, 0x70, 0x00, 0x00, 0x00, 0x00, 0x00, 0x00, 0x00, 0x00, 0x00, 0x00, 0x00, 0x00, 0x00, 0x00, 
.................... 0x02, 0x40, 0x00, 0x00, 0x00, 0x00, 0x00, 0x00, 0x00, 0x00, 0x00, 0x00, 0x00, 0x00, 0x00, 0x00, 
.................... 0x03, 0xC0, 0x00, 0x00, 0x00, 0x00, 0x00, 0x00, 0x00, 0x00, 0x00, 0x00, 0x00, 0x00, 0x00, 0x00, 
.................... 0x03, 0xF0, 0x00, 0x00, 0x00, 0x00, 0x00, 0x00, 0x00, 0x00, 0x00, 0x00, 0x00, 0x00, 0x00, 0x00, 
.................... 0x03, 0xC0, 0x00, 0x00, 0x00, 0x00, 0x00, 0x00, 0x00, 0x00, 0x00, 0x00, 0x00, 0x00, 0x00, 0x00, 
.................... 0x03, 0xC0, 0x00, 0x00, 0x00, 0x00, 0x00, 0x00, 0x00, 0x00, 0x00, 0x00, 0x00, 0x00, 0x00, 0x00, 
.................... 0x07, 0xE0, 0x00, 0x00, 0x00, 0x00, 0x00, 0x00, 0x00, 0x00, 0x00, 0x00, 0x00, 0x00, 0x00, 0x00, 
.................... 0x0F, 0xF0, 0x00, 0x00, 0x00, 0x00, 0x00, 0x00, 0x00, 0x00, 0x00, 0x00, 0x00, 0x00, 0x00, 0x00, 
.................... 0x0B, 0xF0, 0x00, 0x00, 0x00, 0x00, 0x00, 0x00, 0x00, 0x00, 0x00, 0x00, 0x00, 0x00, 0x00, 0x00, 
.................... 0x0B, 0xF0, 0x00, 0x00, 0x00, 0x00, 0x00, 0x00, 0x00, 0x00, 0x00, 0x00, 0x00, 0x00, 0x00, 0x00, 
.................... 0x0F, 0xF0, 0x00, 0x00, 0x00, 0x00, 0x00, 0x00, 0x00, 0x00, 0x00, 0x00, 0x00, 0x00, 0x00, 0x00, 
.................... 0x0F, 0xF0, 0x00, 0x00, 0x00, 0x00, 0x00, 0x00, 0x00, 0x00, 0x00, 0x00, 0x00, 0x00, 0x00, 0x00, 
.................... 0x07, 0xE0, 0x00, 0x00, 0x00, 0x00, 0x00, 0x00, 0x00, 0x00, 0x00, 0x00, 0x00, 0x00, 0x00, 0x00, 
.................... 0x03, 0xC0, 0x00, 0x00, 0x00, 0x00, 0x00, 0x00, 0x00, 0x00, 0x00, 0x00, 0x00, 0x00, 0x00, 0x00, 
.................... 0x00, 0x00, 0x00, 0x00, 0x00, 0x00, 0x00, 0x00, 0x00, 0x00, 0x00, 0x00, 0x00, 0x00, 0x00, 0x00, 
.................... 0x00, 0x00, 0x00, 0x00, 0x00, 0x00, 0x00, 0x00, 0x00, 0x00, 0x00, 0x00, 0x00, 0x00, 0x00, 0x00, 
.................... 0x00, 0x00, 0x00, 0x00, 0x00, 0x00, 0x00, 0x00, 0x00, 0x00, 0x00, 0x00, 0x00, 0x00, 0x00, 0x00, 
.................... 0x00, 0x00, 0x00, 0x00, 0x00, 0x00, 0x00, 0x00, 0x00, 0x00, 0x00, 0x00, 0x00, 0x00, 0x00, 0x00, 
.................... 0x00, 0x00, 0x00, 0x00, 0x00, 0x00, 0x00, 0x00, 0x00, 0x00, 0x00, 0x00, 0x00, 0x00, 0x00, 0x00, 
.................... 0x00, 0x00, 0x00, 0x00, 0x00, 0x00, 0x00, 0x00, 0x00, 0x00, 0x00, 0x00, 0x00, 0x00, 0x00, 0x00, 
.................... 0x00, 0x00, 0x00, 0x00, 0x00, 0x00, 0x00, 0x00, 0x00, 0x00, 0x00, 0x00, 0x00, 0x00, 0x00, 0x00, 
.................... 0x00, 0x00, 0x00, 0x00, 0x00, 0x00, 0x00, 0x00, 0x00, 0x00, 0x00, 0x00, 0x00, 0x00, 0x00, 0x00, 
.................... 0x00, 0x00, 0x00, 0x00, 0x00, 0x00, 0x00, 0x00, 0x00, 0x00, 0x00, 0x00, 0x00, 0x00, 0x00, 0x00, 
.................... 0x00, 0x00, 0x00, 0x00, 0x00, 0x00, 0x00, 0x00, 0x00, 0x00, 0x00, 0x00, 0x00, 0x00, 0x00, 0x00, 
.................... 0x00, 0x00, 0x00, 0x00, 0x00, 0x00, 0x00, 0x00, 0x00, 0x00, 0x00, 0x00, 0x00, 0x00, 0x00, 0x00, 
.................... 0x00, 0x00, 0x00, 0x00, 0x00, 0x00, 0x00, 0x00, 0x00, 0x00, 0x00, 0x00, 0x00, 0x00, 0x00, 0x00, 
.................... 0x00, 0x00, 0x00, 0x00, 0x00, 0x00, 0x00, 0x00, 0x00, 0x00, 0x00, 0x00, 0x00, 0x00, 0x00, 0x00, 
.................... 0x00, 0x00, 0x00, 0x00, 0x00, 0x00, 0x00, 0x00, 0x00, 0x00, 0x00, 0x00, 0x00, 0x00, 0x00, 0x00, 
.................... 0x00, 0x00, 0x00, 0x00, 0x00, 0x00, 0x00, 0x00, 0x00, 0x00, 0x00, 0x00, 0x00, 0x00, 0x00, 0x00, 
.................... 0x00, 0x00, 0x00, 0x00, 0x00, 0x00, 0x00, 0x00, 0x00, 0x00, 0x00, 0x00, 0x00, 0x00, 0x00, 0x00, 
.................... 0x00, 0x00, 0x00, 0x00, 0x00, 0x00, 0x00, 0x00, 0x00, 0x00, 0x00, 0x00, 0x00, 0x00, 0x00, 0x00, 
.................... 0x00, 0x00, 0x00, 0x00, 0x00, 0x00, 0x00, 0x00, 0x00, 0x00, 0x00, 0x00, 0x00, 0x00, 0x00, 0x00, 
.................... 0x00, 0x00, 0x00, 0x00, 0x00, 0x00, 0x00, 0x00, 0x00, 0x00, 0x00, 0x00, 0x00, 0x00, 0x00, 0x00, 
.................... 0x00, 0x00, 0x00, 0x00, 0x00, 0x00, 0x00, 0x00, 0x00, 0x00, 0x00, 0x00, 0x00, 0x00, 0x00, 0x00 
.................... }; 
....................  
....................  
.................... #include <MATH.h> 
.................... //////////////////////////////////////////////////////////////////////////// 
.................... ////        (C) Copyright 1996,2008 Custom Computer Services            //// 
.................... //// This source code may only be used by licensed users of the CCS C   //// 
.................... //// compiler.  This source code may only be distributed to other       //// 
.................... //// licensed users of the CCS C compiler.  No other use, reproduction  //// 
.................... //// or distribution is permitted without written permission.           //// 
.................... //// Derivative programs created using this software in object code     //// 
.................... //// form are not restricted in any way.                                //// 
.................... //////////////////////////////////////////////////////////////////////////// 
.................... ////                                                                    //// 
.................... //// History:                                                           //// 
.................... ////  * 9/20/2001 :  Improvments are made to sin/cos code.              //// 
.................... ////                 The code now is small, much faster,                //// 
.................... ////                 and more accurate.                                 //// 
.................... ////  * 2/21/2007 :  Compiler handles & operator differently and does 
.................... ////                 not return generic (int8 *) so type cast is done   //// 
.................... ////                                                                    //// 
.................... //////////////////////////////////////////////////////////////////////////// 
....................  
.................... #ifndef MATH_H 
.................... #define MATH_H 
....................  
.................... #ifdef PI 
.................... #undef  PI 
.................... #endif 
.................... #define PI     3.1415926535897932 
....................  
....................  
.................... #define SQRT2  1.4142135623730950 
....................  
.................... //float const ps[4] = {5.9304945, 21.125224, 8.9403076, 0.29730279}; 
.................... //float const qs[4] = {1.0000000, 15.035723, 17.764134, 2.4934718}; 
....................  
.................... ///////////////////////////// Round Functions ////////////////////////////// 
....................  
.................... float32 CEIL_FLOOR(float32 x, unsigned int8 n) 
.................... { 
....................    float32 y, res; 
....................    unsigned int16 l; 
....................    int1 s; 
....................  
....................    s = 0; 
....................    y = x; 
....................  
....................    if (x < 0) 
....................    { 
....................       s = 1; 
....................       y = -y; 
....................    } 
....................  
....................    if (y <= 32768.0) 
....................   res = (float32)(unsigned int16)y; 
....................  
....................  else if (y < 10000000.0) 
....................    { 
....................   l = (unsigned int16)(y/32768.0); 
....................       y = 32768.0*(y/32768.0 - (float32)l); 
....................   res = 32768.0*(float32)l; 
....................   res += (float32)(unsigned int16)y; 
....................  } 
....................  
....................  else 
....................   res = y; 
....................  
....................  y = y - (float32)(unsigned int16)y; 
....................  
....................  if (s) 
....................   res = -res; 
....................  
....................  if (y != 0) 
....................  { 
....................   if (s == 1 && n == 0) 
....................    res -= 1.0; 
....................  
....................   if (s == 0 && n == 1) 
....................    res += 1.0; 
....................  } 
....................  if (x == 0) 
....................     res = 0; 
....................  
....................  return (res); 
.................... } 
....................  
.................... // Overloaded Functions to take care for new Data types in PCD 
.................... // Overloaded function CEIL_FLOOR() for data type - Float48 
.................... #if defined(__PCD__) 
.................... float48 CEIL_FLOOR(float48 x, unsigned int8 n) 
.................... { 
....................    float48 y, res; 
....................    unsigned int16 l; 
....................    int1 s; 
....................  
....................    s = 0; 
....................    y = x; 
....................  
....................    if (x < 0) 
....................    { 
....................       s = 1; 
....................       y = -y; 
....................    } 
....................  
....................    if (y <= 32768.0) 
....................   res = (float48)(unsigned int16)y; 
....................  
....................  else if (y < 10000000.0) 
....................    { 
....................   l = (unsigned int16)(y/32768.0); 
....................       y = 32768.0*(y/32768.0 - (float48)l); 
....................   res = 32768.0*(float32)l; 
....................   res += (float48)(unsigned int16)y; 
....................  } 
....................  
....................  else 
....................   res = y; 
....................  
....................  y = y - (float48)(unsigned int16)y; 
....................  
....................  if (s) 
....................   res = -res; 
....................  
....................  if (y != 0) 
....................  { 
....................   if (s == 1 && n == 0) 
....................    res -= 1.0; 
....................  
....................   if (s == 0 && n == 1) 
....................    res += 1.0; 
....................  } 
....................  if (x == 0) 
....................     res = 0; 
....................  
....................  return (res); 
.................... } 
....................  
....................  
.................... // Overloaded function CEIL_FLOOR() for data type - Float64 
.................... float64 CEIL_FLOOR(float64 x, unsigned int8 n) 
.................... { 
....................    float64 y, res; 
....................    unsigned int16 l; 
....................    int1 s; 
....................  
....................    s = 0; 
....................    y = x; 
....................  
....................    if (x < 0) 
....................    { 
....................       s = 1; 
....................       y = -y; 
....................    } 
....................  
....................    if (y <= 32768.0) 
....................   res = (float64)(unsigned int16)y; 
....................  
....................  else if (y < 10000000.0) 
....................    { 
....................   l = (unsigned int16)(y/32768.0); 
....................       y = 32768.0*(y/32768.0 - (float64)l); 
....................   res = 32768.0*(float64)l; 
....................   res += (float64)(unsigned int16)y; 
....................  } 
....................  
....................  else 
....................   res = y; 
....................  
....................  y = y - (float64)(unsigned int16)y; 
....................  
....................  if (s) 
....................   res = -res; 
....................  
....................  if (y != 0) 
....................  { 
....................   if (s == 1 && n == 0) 
....................    res -= 1.0; 
....................  
....................   if (s == 0 && n == 1) 
....................    res += 1.0; 
....................  } 
....................  if (x == 0) 
....................     res = 0; 
....................  
....................  return (res); 
.................... } 
.................... #endif 
....................  
.................... //////////////////////////////////////////////////////////////////////////// 
.................... //   float floor(float x) 
.................... //////////////////////////////////////////////////////////////////////////// 
.................... // Description : rounds down the number x. 
.................... // Date : N/A 
.................... // 
.................... float32 floor(float32 x) 
.................... { 
....................    return CEIL_FLOOR(x, 0); 
.................... } 
.................... // Following 2 functions are overloaded functions of floor() for PCD 
.................... // Overloaded function floor() for data type - Float48 
.................... #if defined(__PCD__) 
.................... float48 floor(float48 x) 
.................... { 
....................    return CEIL_FLOOR(x, 0); 
.................... } 
....................  
.................... // Overloaded function floor() for data type - Float64 
.................... float64 floor(float64 x) 
.................... { 
....................    return CEIL_FLOOR(x, 0); 
.................... } 
.................... #endif 
....................  
....................  
.................... //////////////////////////////////////////////////////////////////////////// 
.................... //   float ceil(float x) 
.................... //////////////////////////////////////////////////////////////////////////// 
.................... // Description : rounds up the number x. 
.................... // Date : N/A 
.................... // 
.................... float32 ceil(float32 x) 
.................... { 
....................    return CEIL_FLOOR(x, 1); 
.................... } 
.................... // Following 2 functions are overloaded functions of ceil() for PCD 
.................... // Overloaded function ceil() for data type - Float48 
.................... #if defined(__PCD__) 
.................... float48 ceil(float48 x) 
.................... { 
....................    return CEIL_FLOOR(x, 1); 
.................... } 
....................  
.................... // Overloaded function ceil() for data type - Float64 
.................... float64 ceil(float64 x) 
.................... { 
....................    return CEIL_FLOOR(x, 1); 
.................... } 
.................... #endif 
....................  
....................  //////////////////////////////////////////////////////////////////////////// 
.................... //   float fabs(float x) 
.................... //////////////////////////////////////////////////////////////////////////// 
.................... // Description : Computes the absolute value of floating point number x 
.................... // Returns : returns the absolute value of x 
.................... // Date : N/A 
.................... // 
.................... #define fabs abs 
....................  
.................... //////////////////////////////////////////////////////////////////////////// 
.................... //   float fmod(float x) 
.................... //////////////////////////////////////////////////////////////////////////// 
.................... // Description : Computes the floating point remainder of x/y 
.................... // Returns : returns the value of x= i*y, for some integer i such that, if y 
.................... // is non zero, the result has the same isgn of x na dmagnitude less than the 
.................... // magnitude of y. If y is zero then a domain error occurs. 
.................... // Date : N/A 
.................... // 
....................  
.................... float fmod(float32 x,float32 y) 
.................... { 
....................    float32 i; 
....................    if (y!=0.0) 
....................    { 
....................       i=(x/y < 0.0)? ceil(x/y): floor(x/y); 
....................       return(x-(i*y)); 
....................    } 
....................    else 
....................    { 
....................    #ifdef _ERRNO 
....................    { 
....................       errno=EDOM; 
....................    } 
....................    #endif 
....................    } 
.................... } 
.................... //Overloaded function for fmod() for PCD 
.................... // Overloaded function fmod() for data type - Float48 
.................... #if defined(__PCD__) 
.................... float48 fmod(float48 x,float48 y) 
.................... { 
....................    float48 i; 
....................    if (y!=0.0) 
....................    { 
....................       i=(x/y < 0.0)? ceil(x/y): floor(x/y); 
....................       return(x-(i*y)); 
....................    } 
....................    else 
....................    { 
....................    #ifdef _ERRNO 
....................    { 
....................       errno=EDOM; 
....................    } 
....................    #endif 
....................    } 
.................... } 
.................... // Overloaded function fmod() for data type - Float64 
.................... float64 fmod(float64 x,float64 y) 
.................... { 
....................    float64 i; 
....................    if (y!=0.0) 
....................    { 
....................       i=(x/y < 0.0)? ceil(x/y): floor(x/y); 
....................       return(x-(i*y)); 
....................    } 
....................    else 
....................    { 
....................    #ifdef _ERRNO 
....................    { 
....................       errno=EDOM; 
....................    } 
....................    #endif 
....................    } 
.................... } 
.................... #endif 
.................... //////////////////// Exponential and logarithmic functions //////////////////// 
.................... //////////////////////////////////////////////////////////////////////////// 
.................... //   float exp(float x) 
.................... //////////////////////////////////////////////////////////////////////////// 
.................... // Description : returns the value (e^x) 
.................... // Date : N/A 
.................... // 
.................... #define LN2 0.6931471805599453 
....................  
.................... float const pe[6] = {0.000207455774, 0.00127100575, 0.00965065093, 
....................                      0.0554965651,  0.240227138,  0.693147172}; 
....................  
....................  
.................... float32 exp(float32 x) 
.................... { 
....................    float32 y, res, r; 
....................    #if defined(__PCD__) 
....................    int8 data1; 
....................    #endif 
....................    signed int8 n; 
....................    int1 s; 
....................    #ifdef _ERRNO 
....................    if(x > 88.722838) 
....................    { 
....................       errno=ERANGE; 
....................       return(0); 
....................    } 
....................    #endif 
....................    n = (signed int16)(x/LN2); 
....................    s = 0; 
....................    y = x; 
....................  
....................    if (x < 0) 
....................    { 
....................       s = 1; 
....................       n = -n; 
....................       y = -y; 
....................    } 
....................  
....................    res = 0.0; 
.................... #if !defined(__PCD__) 
....................    *((unsigned int8 *)(&res)) = n + 0x7F; 
.................... #endif 
....................  
.................... #if defined(__PCD__)  // Takes care of IEEE format for PCD 
....................    data1 = n+0x7F; 
....................    if(bit_test(data1,0)) 
....................    bit_set(*(((unsigned int8 *)(&res)+2)),7); 
....................    rotate_right(&data1,1); 
....................    bit_clear(data1,7); 
....................    *(((unsigned int8 *)(&res)+3)) = data1; 
.................... #endif 
....................  
....................    y = y/LN2 - (float32)n; 
....................  
....................    r = pe[0]*y + pe[1]; 
....................    r = r*y + pe[2]; 
....................    r = r*y + pe[3]; 
....................    r = r*y + pe[4]; 
....................    r = r*y + pe[5]; 
....................  
....................    res = res*(1.0 + y*r); 
....................  
....................    if (s) 
....................       res = 1.0/res; 
....................    return(res); 
.................... } 
....................  
....................  
.................... //Overloaded function for exp() for PCD 
.................... // Overloaded function exp() for data type - Float48 
.................... #if defined(__PCD__) 
.................... float48 exp(float48 x) 
.................... { 
....................    float48 y, res, r; 
....................    int8 data1; 
....................    signed int8 n; 
....................    int1 s; 
....................    #ifdef _ERRNO 
....................    if(x > 88.722838) 
....................    { 
....................       errno=ERANGE; 
....................       return(0); 
....................    } 
....................    #endif 
....................    n = (signed int16)(x/LN2); 
....................    s = 0; 
....................    y = x; 
....................  
....................    if (x < 0) 
....................    { 
....................       s = 1; 
....................       n = -n; 
....................       y = -y; 
....................    } 
....................  
....................    res = 0.0; 
....................  
....................    data1 = n+0x7F; 
....................    if(bit_test(data1,0)) 
....................    bit_set(*(((unsigned int8 *)(&res)+4)),7); 
....................    rotate_right(&data1,1); 
....................    bit_clear(data1,7); 
....................    *(((unsigned int8 *)(&res)+5)) = data1; 
....................  
....................    y = y/LN2 - (float48)n; 
....................  
....................    r = pe[0]*y + pe[1]; 
....................    r = r*y + pe[2]; 
....................    r = r*y + pe[3]; 
....................    r = r*y + pe[4]; 
....................    r = r*y + pe[5]; 
....................  
....................    res = res*(1.0 + y*r); 
....................  
....................    if (s) 
....................       res = 1.0/res; 
....................    return(res); 
.................... } 
....................  
.................... // Overloaded function exp() for data type - Float64 
.................... float64 exp(float64 x) 
.................... { 
....................    float64 y, res, r; 
....................    unsigned int16 data1, data2; 
....................    unsigned int16 *p; 
....................    signed int16 n; 
....................    int1 s; 
....................    #ifdef _ERRNO 
....................    if(x > 709.7827128) 
....................    { 
....................       errno=ERANGE; 
....................       return(0); 
....................    } 
....................    #endif 
....................    n = (signed int16)(x/LN2); 
....................    s = 0; 
....................    y = x; 
....................  
....................    if (x < 0) 
....................    { 
....................       s = 1; 
....................       n = -n; 
....................       y = -y; 
....................    } 
....................  
....................    res = 0.0; 
....................  
.................... #if !defined(__PCD__) 
....................    *((unsigned int16 *)(&res)) = n + 0x7F; 
.................... #endif 
....................    p= (((unsigned int16 *)(&res))+3); 
....................    data1 = *p; 
....................    data2 = *p;    
....................    data1 = n + 0x3FF; 
....................    data1 = data1 <<4; 
....................    if(bit_test(data2,15)) 
....................    bit_set(data1,15); 
....................    data2 = data2 & 0x000F; 
....................    data1 ^= data2; 
....................  
....................    *(((unsigned int16 *)(&res)+3)) = data1; 
....................  
....................  
....................    y = y/LN2 - (float64)n; 
....................  
....................    r = pe[0]*y + pe[1]; 
....................    r = r*y + pe[2]; 
....................    r = r*y + pe[3]; 
....................    r = r*y + pe[4]; 
....................    r = r*y + pe[5]; 
....................  
....................    res = res*(1.0 + y*r); 
....................  
....................    if (s) 
....................       res = 1.0/res; 
....................    return(res); 
.................... } 
....................  
.................... #ENDIF 
....................  
....................  
.................... /************************************************************/ 
....................  
.................... float32 const pl[4] = {0.45145214, -9.0558803, 26.940971, -19.860189}; 
.................... float32 const ql[4] = {1.0000000,  -8.1354259, 16.780517, -9.9300943}; 
....................  
.................... //////////////////////////////////////////////////////////////////////////// 
.................... //   float log(float x) 
.................... //////////////////////////////////////////////////////////////////////////// 
.................... // Description : returns the the natural log of x 
.................... // Date : N/A 
.................... // 
.................... float32 log(float32 x) 
.................... { 
....................    float32 y, res, r, y2; 
....................    #if defined(__PCD__) 
....................    unsigned int8  data1,data2; 
....................    #endif 
....................    signed int8 n; 
....................    #ifdef _ERRNO 
....................    if(x <0) 
....................    { 
....................       errno=EDOM; 
....................    } 
....................    if(x ==0) 
....................    { 
....................       errno=ERANGE; 
....................       return(0); 
....................    } 
....................    #endif 
....................    y = x; 
....................  
....................    if (y != 1.0) 
....................    { 
.................... #if !defined(__PCD__) 
....................     *((unsigned int8 *)(&y)) = 0x7E;  
.................... #endif 
....................  
.................... #if defined(__PCD__) // Takes care of IEEE format 
....................    data2 = *(((unsigned int8 *)(&y))+3); 
....................    *(((unsigned int8 *)(&y))+3) = 0x3F; 
....................    data1 = *(((unsigned int8 *)(&y))+2); 
....................    bit_clear(data1,7); 
....................    *(((unsigned int8 *)(&y))+2) = data1; 
....................    if(bit_test(data2,7)) 
....................    bit_set(*(((unsigned int8 *)(&y))+3),7); 
.................... #endif 
....................  
....................       y = (y - 1.0)/(y + 1.0); 
....................  
....................       y2=y*y; 
....................  
....................       res = pl[0]*y2 + pl[1]; 
....................       res = res*y2 + pl[2]; 
....................       res = res*y2 + pl[3]; 
....................  
....................       r = ql[0]*y2 + ql[1]; 
....................       r = r*y2 + ql[2]; 
....................       r = r*y2 + ql[3]; 
....................  
....................       res = y*res/r; 
.................... #if !defined(__PCD__) 
....................       n = *((unsigned int8 *)(&x)) - 0x7E; 
.................... #endif 
.................... #if defined(__PCD__)  
....................     data1 = *(((unsigned int8 *)(&x)+3)); 
....................     rotate_left(&data1,1); 
....................     data2 = *(((unsigned int8 *)(&x)+2)); 
....................     if(bit_test (data2,7)) 
....................       bit_set(data1,0); 
....................     n = data1 - 0x7E; 
.................... #endif 
....................  
....................       if (n<0)  
....................          r = -(float32)-n; 
....................       else 
....................          r = (float32)n; 
....................  
....................       res += r*LN2; 
....................    } 
....................  
....................    else 
....................       res = 0.0; 
....................  
....................    return(res); 
.................... } 
....................  
.................... //Overloaded function for log() for PCD 
.................... // Overloaded function log() for data type - Float48 
.................... #if defined(__PCD__) 
.................... float48 log(float48 x) 
.................... { 
....................    float48 y, res, r, y2; 
....................    unsigned int8  data1,data2; 
....................    signed int8 n; 
....................    #ifdef _ERRNO 
....................    if(x <0) 
....................    { 
....................       errno=EDOM; 
....................    } 
....................    if(x ==0) 
....................    { 
....................       errno=ERANGE; 
....................       return(0); 
....................    } 
....................    #endif 
....................    y = x; 
....................  
....................    if (y != 1.0) 
....................    { 
....................     
....................    #if !defined(__PCD__) 
....................        *((unsigned int8 *)(&y)) = 0x7E;  
....................    #endif 
....................       data2 = *(((unsigned int8 *)(&y))+5); 
....................       *(((unsigned int8 *)(&y))+5) = 0x3F; 
....................       data1 = *(((unsigned int8 *)(&y))+4); 
....................       bit_clear(data1,7); 
....................       *(((unsigned int8 *)(&y))+4) = data1; 
....................    
....................       if(bit_test(data2,7)) 
....................          bit_set(*(((unsigned int8 *)(&y))+4),7); 
....................       y = (y - 1.0)/(y + 1.0); 
....................  
....................       y2=y*y; 
....................  
....................       res = pl[0]*y2 + pl[1]; 
....................       res = res*y2 + pl[2]; 
....................       res = res*y2 + pl[3]; 
....................  
....................       r = ql[0]*y2 + ql[1]; 
....................       r = r*y2 + ql[2]; 
....................       r = r*y2 + ql[3]; 
....................  
....................       res = y*res/r; 
....................  
....................     data1 = *(((unsigned int8 *)(&x)+5)); 
....................     rotate_left(&data1,1); 
....................     data2 = *(((unsigned int8 *)(&x)+4)); 
....................     if(bit_test (data2,7)) 
....................        bit_set(data1,0); 
....................       
....................     n = data1 - 0x7E; 
....................  
....................       if (n<0) 
....................          r = -(float48)-n; 
....................       else 
....................          r = (float48)n; 
....................  
....................       res += r*LN2; 
....................    } 
....................  
....................    else 
....................       res = 0.0; 
....................  
....................    return(res); 
.................... } 
....................  
.................... // Overloaded function log() for data type - Float48 
.................... #if defined(__PCD__) 
.................... float32 const pl_64[4] = {0.45145214, -9.0558803, 26.940971, -19.860189}; 
.................... float32 const ql_64[4] = {1.0000000,  -8.1354259, 16.780517, -9.9300943}; 
.................... #endif 
.................... float64 log(float64 x) 
.................... { 
....................    float64 y, res, r, y2; 
....................    unsigned int16  data1,data2; 
....................    unsigned int16 *p; 
....................    signed int16 n; 
....................    #ifdef _ERRNO 
....................    if(x <0) 
....................    { 
....................       errno=EDOM; 
....................    } 
....................    if(x ==0) 
....................    { 
....................       errno=ERANGE; 
....................       return(0); 
....................    } 
....................    #endif 
....................    y = x; 
....................  
....................    if (y != 1.0) 
....................    { 
....................    #if !defined(__PCD__) 
....................        *((unsigned int8 *)(&y)) = 0x7E;  
....................    #endif 
....................       p= (((unsigned int16 *)(&y))+3); 
....................       data1 = *p; 
....................       data2 = *p; 
....................       data1 = 0x3FE; 
....................       data1 = data1 <<4; 
....................       if(bit_test (data2,15)) 
....................       bit_set(data1,15); 
....................       data2 = data2 & 0x000F; 
....................       data1 ^=data2; 
....................  
....................       *p = data1; 
....................  
....................       y = (y - 1.0)/(y + 1.0); 
....................  
....................       y2=y*y; 
....................  
....................       res = pl_64[0]*y2 + pl_64[1]; 
....................       res = res*y2 + pl_64[2]; 
....................       res = res*y2 + pl_64[3]; 
....................  
....................       r = ql_64[0]*y2 + ql_64[1]; 
....................       r = r*y2 + ql_64[2]; 
....................       r = r*y2 + ql_64[3]; 
....................  
....................       res = y*res/r; 
....................   
....................       p= (((unsigned int16 *)(&x))+3); 
....................       data1 = *p; 
....................       bit_clear(data1,15); 
....................       data1 = data1 >>4;     
....................       n = data1 - 0x3FE; 
....................  
....................  
....................       if (n<0) 
....................          r = -(float64)-n; 
....................       else 
....................          r = (float64)n; 
....................  
....................       res += r*LN2; 
....................    } 
....................  
....................    else 
....................       res = 0.0; 
....................  
....................    return(res); 
.................... } 
.................... #endif 
....................  
....................  
.................... #define LN10 2.3025850929940456 
....................  
.................... //////////////////////////////////////////////////////////////////////////// 
.................... //   float log10(float x) 
.................... //////////////////////////////////////////////////////////////////////////// 
.................... // Description : returns the the log base 10 of x 
.................... // Date : N/A 
.................... // 
.................... float32 log10(float32 x) 
.................... { 
....................    float32 r; 
....................  
....................    r = log(x); 
....................    r = r/LN10; 
....................    return(r); 
.................... } 
....................  
.................... //Overloaded functions for log10() for PCD 
.................... // Overloaded function log10() for data type - Float48 
.................... #if defined(__PCD__) 
.................... float48 log10(float48 x) 
.................... { 
....................    float48 r; 
....................  
....................    r = log(x); 
....................    r = r/LN10; 
....................    return(r); 
.................... } 
....................  
.................... // Overloaded function log10() for data type - Float64 
.................... float64 log10(float64 x) 
.................... { 
....................    float64 r; 
....................  
....................    r = log(x); 
....................    r = r/LN10; 
....................    return(r); 
.................... } 
.................... #endif 
.................... //////////////////////////////////////////////////////////////////////////// 
.................... //   float modf(float x) 
.................... //////////////////////////////////////////////////////////////////////////// 
.................... // Description :breaks the argument value int integral and fractional parts, 
.................... // ach of which have the same sign as the argument.  It stores the integral part 
.................... // as a float in the object pointed to by the iptr 
.................... // Returns : returns the signed fractional part of value. 
.................... // Date : N/A 
.................... // 
....................  
.................... float32 modf(float32 value,float32 *iptr) 
.................... { 
....................    *iptr=(value < 0.0)? ceil(value): floor(value); 
....................    return(value - *iptr); 
.................... } 
.................... //Overloaded functions for modf() for PCD 
.................... // Overloaded function modf() for data type - Float48 
.................... #if defined(__PCD__) 
.................... float48 modf(float48 value,float48 *iptr) 
.................... { 
....................    *iptr=(value < 0.0)? ceil(value): floor(value); 
....................    return(value - *iptr); 
.................... } 
.................... // Overloaded function modf() for data type - Float64 
.................... float64 modf(float64 value,float64 *iptr) 
.................... { 
....................    *iptr=(value < 0.0)? ceil(value): floor(value); 
....................    return(value - *iptr); 
.................... } 
.................... #endif 
....................  
.................... //////////////////////////////////////////////////////////////////////////// 
.................... //   float pwr(float x,float y) 
.................... //////////////////////////////////////////////////////////////////////////// 
.................... // Description : returns the value (x^y) 
.................... // Date : N/A 
.................... // Note : 0 is returned when the function will generate an imaginary number 
.................... // 
.................... float32 pwr(float32 x,float32 y) 
.................... { 
....................    if(0 > x && fmod(y, 1) == 0) { 
....................       if(fmod(y, 2) == 0) { 
....................          return (exp(log(-x) * y)); 
....................       } else { 
....................          return (-exp(log(-x) * y)); 
....................       } 
....................    } else if(0 > x && fmod(y, 1) != 0) { 
....................       return 0; 
....................    } else { 
....................       if(x != 0 || 0 >= y) { 
....................          return (exp(log(x) * y)); 
....................       } 
....................    } 
.................... } 
.................... //Overloaded functions for pwr() for PCD 
.................... // Overloaded function pwr() for data type - Float48 
.................... #if defined(__PCD__) 
.................... float48 pwr(float48 x,float48 y) 
.................... { 
....................    if(0 > x && fmod(y, 1) == 0) { 
....................       if(fmod(y, 2) == 0) { 
....................          return (exp(log(-x) * y)); 
....................       } else { 
....................          return (-exp(log(-x) * y)); 
....................       } 
....................    } else if(0 > x && fmod(y, 1) != 0) { 
....................       return 0; 
....................    } else { 
....................       if(x != 0 || 0 >= y) { 
....................          return (exp(log(x) * y)); 
....................       } 
....................    } 
.................... } 
.................... // Overloaded function pwr() for data type - Float64 
.................... float64 pwr(float64 x,float64 y) 
.................... { 
....................    if(0 > x && fmod(y, 1) == 0) { 
....................       if(fmod(y, 2) == 0) { 
....................          return (exp(log(-x) * y)); 
....................       } else { 
....................          return (-exp(log(-x) * y)); 
....................       } 
....................    } else if(0 > x && fmod(y, 1) != 0) { 
....................       return 0; 
....................    } else { 
....................       if(x != 0 || 0 >= y) { 
....................          return (exp(log(x) * y)); 
....................       } 
....................    } 
.................... } 
.................... #endif 
....................  
.................... //////////////////// Power functions //////////////////// 
....................  
.................... //////////////////////////////////////////////////////////////////////////// 
.................... //   float pow(float x,float y) 
.................... //////////////////////////////////////////////////////////////////////////// 
.................... // Description : returns the value (x^y) 
.................... // Date : N/A 
.................... // Note : 0 is returned when the function will generate an imaginary number 
.................... // 
.................... float32 pow(float32 x,float32 y) 
.................... { 
....................    if(0 > x && fmod(y, 1) == 0) { 
....................       if(fmod(y, 2) == 0) { 
....................          return (exp(log(-x) * y)); 
....................       } else { 
....................          return (-exp(log(-x) * y)); 
....................       } 
....................    } else if(0 > x && fmod(y, 1) != 0) { 
....................       return 0; 
....................    } else { 
....................       if(x != 0 || 0 >= y) { 
....................          return (exp(log(x) * y)); 
....................       } 
....................    } 
.................... } 
.................... //Overloaded functions for pow() for PCD 
.................... // Overloaded function for pow() data type - Float48 
.................... #if defined(__PCD__) 
.................... float48 pow(float48 x,float48 y) 
.................... { 
....................    if(0 > x && fmod(y, 1) == 0) { 
....................       if(fmod(y, 2) == 0) { 
....................          return (exp(log(-x) * y)); 
....................       } else { 
....................          return (-exp(log(-x) * y)); 
....................       } 
....................    } else if(0 > x && fmod(y, 1) != 0) { 
....................       return 0; 
....................    } else { 
....................       if(x != 0 || 0 >= y) { 
....................          return (exp(log(x) * y)); 
....................       } 
....................    } 
.................... } 
....................  
.................... // Overloaded function pow() for data type - Float64 
.................... float64 pow(float64 x,float64 y) 
.................... { 
....................    if(0 > x && fmod(y, 1) == 0) { 
....................       if(fmod(y, 2) == 0) { 
....................          return (exp(log(-x) * y)); 
....................       } else { 
....................          return (-exp(log(-x) * y)); 
....................       } 
....................    } else if(0 > x && fmod(y, 1) != 0) { 
....................       return 0; 
....................    } else { 
....................       if(x != 0 || 0 >= y) { 
....................          return (exp(log(x) * y)); 
....................       } 
....................    } 
.................... } 
.................... #endif 
....................  
.................... //////////////////////////////////////////////////////////////////////////// 
.................... //   float sqrt(float x) 
.................... //////////////////////////////////////////////////////////////////////////// 
.................... // Description : returns the square root of x 
.................... // Date : N/A 
.................... // 
.................... float32 sqrt(float32 x) 
.................... { 
....................    float32 y, res; 
....................    #if defined(__PCD__) 
....................    unsigned int16 data1,data2; 
....................    #endif 
....................    BYTE *p; 
....................  
....................    #ifdef _ERRNO 
....................    if(x < 0) 
....................    { 
....................       errno=EDOM; 
....................    } 
....................    #endif 
....................  
....................    if( x<=0.0) 
....................       return(0.0); 
....................  
....................    y=x; 
....................     
....................    #if !defined(__PCD__) 
....................     p=&y; 
....................    (*p)=(BYTE)((((unsigned int16)(*p)) + 127) >> 1); 
....................    #endif 
....................     
....................    #if defined(__PCD__) 
....................     p = (((unsigned int8 *)(&y))+3); 
....................     data1 = *(((unsigned int8 *)(&y))+3); 
....................     data2 = *(((unsigned int8 *)(&y))+2); 
....................     rotate_left(&data1,1);     
....................     if(bit_test(data2,7))     
....................     bit_set(data1,0);     
....................     data1 = ((data1+127) >>1); 
....................     bit_clear(data2,7); 
....................     if(bit_test(data1,0)) 
....................     bit_set(data2,7); 
....................     data1 = data1 >>1; 
....................     *(((unsigned int8 *)(&y))+3) = data1; 
....................     *(((unsigned int8 *)(&y))+2) = data2; 
....................      
....................   #endif 
....................  
....................    do { 
....................       res=y; 
....................       y+=(x/y); 
....................  
....................       #if !defined(__PCD__) 
....................      (*p)--; 
....................    #endif 
....................     
....................    #if defined(__PCD__) 
....................     data1 = *(((unsigned int8 *)(&y))+3); 
....................     data2 = *(((unsigned int8 *)(&y))+2); 
....................     rotate_left(&data1,1); 
....................     if(bit_test(data2,7)) 
....................     bit_set(data1,0);     
....................     data1--; 
....................     bit_clear(data2,7); 
....................     if(bit_test(data1,0)) 
....................     bit_set(data2,7); 
....................     data1 = data1 >>1; 
....................     *(((unsigned int8 *)(&y))+3) = data1; 
....................     *(((unsigned int8 *)(&y))+2) = data2; 
....................      
....................   #endif 
....................    } while(res != y); 
....................  
....................    return(res); 
.................... } 
.................... //Overloaded functions for sqrt() for PCD 
.................... // Overloaded function sqrt() for data type - Float48 
.................... #if defined(__PCD__) 
.................... float48 sqrt(float48 x) 
.................... { 
....................    float48 y, res; 
....................    unsigned int16 data1,data2; 
....................    BYTE *p; 
....................  
....................    #ifdef _ERRNO 
....................    if(x < 0) 
....................    { 
....................       errno=EDOM; 
....................    } 
....................    #endif 
....................  
....................    if( x<=0.0) 
....................       return(0.0); 
....................  
....................    y=x; 
....................     
....................    #if !defined(__PCD__) 
....................     p=&y; 
....................    (*p)=(BYTE)((((unsigned int16)(*p)) + 127) >> 1); 
....................    #endif 
....................     
....................    #if defined(__PCD__) 
....................     p = (((unsigned int8 *)(&y))+5); 
....................     data1 = *(((unsigned int8 *)(&y))+5); 
....................     data2 = *(((unsigned int8 *)(&y))+4); 
....................     rotate_left(&data1,1); 
....................     if(bit_test(data2,7)) 
....................     bit_set(data1,0);     
....................     data1 = ((data1+127) >>1); 
....................     bit_clear(data2,7); 
....................     if(bit_test(data1,0)) 
....................     bit_set(data2,7); 
....................     data1 = data1 >>1; 
....................     *(((unsigned int8 *)(&y))+5) = data1; 
....................     *(((unsigned int8 *)(&y))+4) = data2; 
....................      
....................   #endif 
....................  
....................    do { 
....................       res=y; 
....................       y+=(x/y); 
....................  
....................       #if !defined(__PCD__) 
....................      (*p)--; 
....................    #endif 
....................     
....................     data1 = *(((unsigned int8 *)(&y))+5); 
....................     data2 = *(((unsigned int8 *)(&y))+4); 
....................     rotate_left(&data1,1); 
....................     if(bit_test(data2,7)) 
....................     bit_set(data1,0);     
....................     data1--; 
....................     bit_clear(data2,7); 
....................     if(bit_test(data1,0)) 
....................     bit_set(data2,7); 
....................     data1 = data1 >>1; 
....................     *(((unsigned int8 *)(&y))+5) = data1; 
....................     *(((unsigned int8 *)(&y))+4) = data2; 
....................      
....................    } while(res != y); 
....................  
....................    return(res); 
.................... } 
....................  
.................... // Overloaded function sqrt() for data type - Float64 
.................... float64 sqrt(float64 x) 
.................... { 
....................    float64 y, res; 
....................    unsigned int16 *p; 
....................    unsigned int16 temp1,temp2; 
....................  
....................    #ifdef _ERRNO 
....................    if(x < 0) 
....................    { 
....................       errno=EDOM; 
....................    } 
....................    #endif 
....................  
....................    if( x<=0.0) 
....................       return(0.0); 
....................  
....................    y=x; 
....................    p= (((unsigned int16 *)(&y))+3); 
....................    temp1 = *p; 
....................    temp2 = *p; 
....................    bit_clear(temp1,15); 
....................    temp1 = (temp1>>4)+1023; 
....................    temp1 = temp1 >> 1; 
....................    temp1 = (temp1<<4) & 0xFFF0; 
....................    if(bit_test(temp2,15)) 
....................    bit_set(temp1,15); 
....................    temp2 = temp2 & 0x000F; 
....................    temp1 ^= temp2; 
....................     
....................    (*p) = temp1; 
....................     
....................    do { 
....................       res=y; 
....................       y+=(x/y); 
....................      temp1 = *p; 
....................      temp2 = *p; 
....................      bit_clear(temp1,15); 
....................      temp1 = (temp1>>4); 
....................      temp1--; 
....................      temp1 = (temp1<<4) & 0xFFF0; 
....................      if(bit_test(temp2,15)) 
....................      bit_set(temp1,15); 
....................      temp2 = temp2 & 0x000F; 
....................      temp1 ^= temp2; 
....................      (*p) = temp1; 
....................  
....................    } while(res != y); 
....................  
....................    return(res); 
.................... } 
.................... #endif 
....................  
.................... ////////////////////////////// Trig Functions ////////////////////////////// 
.................... #ifdef PI_DIV_BY_TWO 
.................... #undef PI_DIV_BY_TWO 
.................... #endif 
.................... #define PI_DIV_BY_TWO   1.5707963267948966 
.................... #ifdef TWOBYPI 
.................... #undef TWOBYPI 
.................... #define TWOBYPI          0.6366197723675813 
.................... #endif 
.................... //////////////////////////////////////////////////////////////////////////// 
.................... //   float cos(float x) 
.................... //////////////////////////////////////////////////////////////////////////// 
.................... // Description : returns the cosine value of the angle x, which is in radian 
.................... // Date : 9/20/2001 
.................... // 
.................... float32 cos(float32 x) 
.................... { 
....................    float32 y, t, t2 = 1.0; 
....................    unsigned int8 quad, i; 
....................    float32 frac; 
....................    float32 p[6] = {                    //by the series definition for cosine 
....................       -0.5,                            // sum ( ( (-1)^n * x^2n )/(2n)! ) 
....................        0.04166666666667, 
....................       -0.00138888888889, 
....................        0.00002480158730, 
....................       -0.00000027557319, 
....................        0.00000000208767, 
....................       //-0.00000000001147, 
....................       // 0.00000000000005 
....................    }; 
....................  
....................    if (x < 0) x = -x;                  // absolute value of input 
....................  
....................    quad = (unsigned int8)(x / PI_DIV_BY_TWO);    // quadrant 
....................    frac = (x / PI_DIV_BY_TWO) - quad;  // fractional part of input 
....................    quad = quad % 4;                    // quadrant (0 to 3) 
....................  
....................    if (quad == 0 || quad == 2) 
....................       t = frac * PI_DIV_BY_TWO; 
....................    else if (quad == 1) 
....................       t = (1-frac) * PI_DIV_BY_TWO; 
....................    else // should be 3 
....................       t = (frac-1) * PI_DIV_BY_TWO; 
....................  
....................    y = 1.0; 
....................    t = t * t; 
....................    for (i = 0; i <= 5; i++) 
....................    { 
....................       t2 = t2 * t; 
....................       y = y + p[i] * t2; 
....................    } 
....................  
....................    if (quad == 2 || quad == 1) 
....................       y = -y;  // correct sign 
....................  
....................    return (y); 
.................... } 
....................  
....................  
.................... //Overloaded functions for cos() for PCD 
.................... // Overloaded function cos() for data type - Float48 
.................... #if defined(__PCD__) 
.................... float48 cos(float48 x) 
.................... { 
....................    float48 y, t, t2 = 1.0; 
....................    unsigned int8 quad, i; 
....................    float48 frac; 
....................    float48 p[6] = {                    //by the series definition for cosine 
....................       -0.5,                            // sum ( ( (-1)^n * x^2n )/(2n)! ) 
....................        0.04166666666667, 
....................       -0.00138888888889, 
....................        0.00002480158730, 
....................       -0.00000027557319, 
....................        0.00000000208767, 
....................       //-0.00000000001147, 
....................       // 0.00000000000005 
....................    }; 
....................  
....................    if (x < 0) x = -x;                  // absolute value of input 
....................  
....................    quad = (unsigned int8)(x / PI_DIV_BY_TWO);    // quadrant 
....................    frac = (x / PI_DIV_BY_TWO) - quad;  // fractional part of input 
....................    quad = quad % 4;                    // quadrant (0 to 3) 
....................  
....................    if (quad == 0 || quad == 2) 
....................       t = frac * PI_DIV_BY_TWO; 
....................    else if (quad == 1) 
....................       t = (1-frac) * PI_DIV_BY_TWO; 
....................    else // should be 3 
....................       t = (frac-1) * PI_DIV_BY_TWO; 
....................  
....................    y = 0.999999999781; 
....................    t = t * t; 
....................    for (i = 0; i <= 5; i++) 
....................    { 
....................       t2 = t2 * t; 
....................       y = y + p[i] * t2; 
....................    } 
....................  
....................    if (quad == 2 || quad == 1) 
....................       y = -y;  // correct sign 
....................  
....................    return (y); 
.................... } 
....................  
.................... // Overloaded function cos() for data type - Float48 
.................... float64 cos(float64 x) 
.................... { 
....................    float64 y, t, t2 = 1.0; 
....................    unsigned int8 quad, i; 
....................    float64 frac; 
....................    float64 p[6] = {                    //by the series definition for cosine 
....................       -0.5,                            // sum ( ( (-1)^n * x^2n )/(2n)! ) 
....................        0.04166666666667, 
....................       -0.00138888888889, 
....................        0.00002480158730, 
....................       -0.00000027557319, 
....................        0.00000000208767, 
....................       //-0.00000000001147, 
....................       // 0.00000000000005 
....................    }; 
....................  
....................    if (x < 0) x = -x;                  // absolute value of input 
....................  
....................    quad = (unsigned int8)(x / PI_DIV_BY_TWO);    // quadrant 
....................    frac = (x / PI_DIV_BY_TWO) - quad;  // fractional part of input 
....................    quad = quad % 4;                    // quadrant (0 to 3) 
....................  
....................    if (quad == 0 || quad == 2) 
....................       t = frac * PI_DIV_BY_TWO; 
....................    else if (quad == 1) 
....................       t = (1-frac) * PI_DIV_BY_TWO; 
....................    else // should be 3 
....................       t = (frac-1) * PI_DIV_BY_TWO; 
....................  
....................    y = 0.999999999781; 
....................    t = t * t; 
....................    for (i = 0; i <= 5; i++) 
....................    { 
....................       t2 = t2 * t; 
....................       y = y + p[i] * t2; 
....................    } 
....................  
....................    if (quad == 2 || quad == 1) 
....................       y = -y;  // correct sign 
....................  
....................    return (y); 
.................... } 
....................  
.................... #endif 
....................  
.................... //////////////////////////////////////////////////////////////////////////// 
.................... //   float sin(float x) 
.................... //////////////////////////////////////////////////////////////////////////// 
.................... // Description : returns the sine value of the angle x, which is in radian 
.................... // Date : 9/20/2001 
.................... // 
.................... float32 sin(float32 x) 
.................... { 
....................    return cos(x - PI_DIV_BY_TWO); 
.................... } 
....................  
.................... //Overloaded functions for sin() for PCD 
.................... // Overloaded function sin() for data type - Float48 
.................... #if defined(__PCD__) 
.................... float48 sin(float48 x) 
.................... { 
....................    return cos(x - PI_DIV_BY_TWO); 
.................... } 
....................  
.................... // Overloaded function sin() for data type - Float48 
.................... float64 sin(float64 x) 
.................... { 
....................    return cos(x - PI_DIV_BY_TWO); 
.................... } 
.................... #endif 
....................  
.................... //////////////////////////////////////////////////////////////////////////// 
.................... //   float tan(float x) 
.................... //////////////////////////////////////////////////////////////////////////// 
.................... // Description : returns the tangent value of the angle x, which is in radian 
.................... // Date : 9/20/2001 
.................... // 
.................... float32 tan(float32 x) 
.................... { 
....................    float32 c, s; 
....................  
....................    c = cos(x); 
....................    if (c == 0.0) 
....................       return (1.0e+36); 
....................  
....................    s = sin(x); 
....................    return(s/c); 
.................... } 
.................... //Overloaded functions for tan() for PCD 
.................... // Overloaded function tan() for data type - Float48 
.................... #if defined(__PCD__) 
.................... float48 tan(float48 x) 
.................... { 
....................    float48 c, s; 
....................  
....................    c = cos(x); 
....................    if (c == 0.0) 
....................       return (1.0e+36); 
....................  
....................    s = sin(x); 
....................    return(s/c); 
.................... } 
....................  
.................... // Overloaded function tan() for data type - Float48 
.................... float64 tan(float64 x) 
.................... { 
....................    float64 c, s; 
....................  
....................    c = cos(x); 
....................    if (c == 0.0) 
....................       return (1.0e+36); 
....................  
....................    s = sin(x); 
....................    return(s/c); 
.................... } 
.................... #endif 
....................  
.................... float32 const pas[3] = {0.49559947, -4.6145309, 5.6036290}; 
.................... float32 const qas[3] = {1.0000000,  -5.5484666, 5.6036290}; 
....................  
.................... float32 ASIN_COS(float32 x, unsigned int8 n) 
.................... { 
....................    float32 y, res, r, y2; 
....................    int1 s; 
....................    #ifdef _ERRNO 
....................    if(x <-1 || x > 1) 
....................    { 
....................       errno=EDOM; 
....................    } 
....................    #endif 
....................    s = 0; 
....................    y = x; 
....................  
....................    if (x < 0) 
....................    { 
....................       s = 1; 
....................       y = -y; 
....................    } 
....................  
....................    if (y > 0.5) 
....................    { 
....................       y = sqrt((1.0 - y)/2.0); 
....................       n += 2; 
....................    } 
....................  
....................    y2=y*y; 
....................  
....................    res = pas[0]*y2 + pas[1]; 
....................    res = res*y2 + pas[2]; 
....................  
....................    r = qas[0]*y2 + qas[1]; 
....................    r = r*y2 + qas[2]; 
....................  
....................    res = y*res/r; 
....................  
....................    if (n & 2)     // |x| > 0.5 
....................       res = PI_DIV_BY_TWO - 2.0*res; 
....................    if (s) 
....................       res = -res; 
....................    if (n & 1)           // take arccos 
....................       res = PI_DIV_BY_TWO - res; 
....................  
....................    return(res); 
.................... } 
....................  
.................... //Overloaded functions for ASIN_COS() for PCD 
.................... // Overloaded function ASIN_COS() for data type - Float48 
.................... #if defined(__PCD__) 
.................... float48 ASIN_COS(float48 x, unsigned int8 n) 
.................... { 
....................    float48 y, res, r, y2; 
....................    int1 s; 
....................    #ifdef _ERRNO 
....................    if(x <-1 || x > 1) 
....................    { 
....................       errno=EDOM; 
....................    } 
....................    #endif 
....................    s = 0; 
....................    y = x; 
....................  
....................    if (x < 0) 
....................    { 
....................       s = 1; 
....................       y = -y; 
....................    } 
....................  
....................    if (y > 0.5) 
....................    { 
....................       y = sqrt((1.0 - y)/2.0); 
....................       n += 2; 
....................    } 
....................  
....................    y2=y*y; 
....................  
....................    res = pas[0]*y2 + pas[1]; 
....................    res = res*y2 + pas[2]; 
....................  
....................    r = qas[0]*y2 + qas[1]; 
....................    r = r*y2 + qas[2]; 
....................  
....................    res = y*res/r; 
....................  
....................    if (n & 2)     // |x| > 0.5 
....................       res = PI_DIV_BY_TWO - 2.0*res; 
....................    if (s) 
....................       res = -res; 
....................    if (n & 1)           // take arccos 
....................       res = PI_DIV_BY_TWO - res; 
....................  
....................    return(res); 
.................... } 
....................  
.................... // Overloaded function ASIN_COS() for data type - Float64 
.................... float64 ASIN_COS(float64 x, unsigned int8 n) 
.................... { 
....................    float64 y, res, r, y2; 
....................    int1 s; 
....................    #ifdef _ERRNO 
....................    if(x <-1 || x > 1) 
....................    { 
....................       errno=EDOM; 
....................    } 
....................    #endif 
....................    s = 0; 
....................    y = x; 
....................  
....................    if (x < 0) 
....................    { 
....................       s = 1; 
....................       y = -y; 
....................    } 
....................  
....................    if (y > 0.5) 
....................    { 
....................       y = sqrt((1.0 - y)/2.0); 
....................       n += 2; 
....................    } 
....................  
....................    y2=y*y; 
....................  
....................    res = pas[0]*y2 + pas[1]; 
....................    res = res*y2 + pas[2]; 
....................  
....................    r = qas[0]*y2 + qas[1]; 
....................    r = r*y2 + qas[2]; 
....................  
....................    res = y*res/r; 
....................  
....................    if (n & 2)     // |x| > 0.5 
....................       res = PI_DIV_BY_TWO - 2.0*res; 
....................    if (s) 
....................       res = -res; 
....................    if (n & 1)           // take arccos 
....................       res = PI_DIV_BY_TWO - res; 
....................  
....................    return(res); 
.................... } 
.................... #endif 
....................  
.................... //////////////////////////////////////////////////////////////////////////// 
.................... //   float asin(float x) 
.................... //////////////////////////////////////////////////////////////////////////// 
.................... // Description : returns the arcsine value of the value x. 
.................... // Date : N/A 
.................... // 
.................... float32 asin(float32 x) 
.................... { 
....................    float32 r; 
....................  
....................    r = ASIN_COS(x, 0); 
....................    return(r); 
.................... } 
.................... //Overloaded functions for asin() for PCD 
.................... // Overloaded function asin() for data type - Float48 
.................... #if defined(__PCD__) 
.................... float48 asin(float48 x) 
.................... { 
....................    float48 r; 
....................  
....................    r = ASIN_COS(x, 0); 
....................    return(r); 
.................... } 
....................  
.................... // Overloaded function asin() for data type - Float64 
.................... float64 asin(float64 x) 
.................... { 
....................    float64 r; 
....................  
....................    r = ASIN_COS(x, 0); 
....................    return(r); 
.................... } 
.................... #endif 
....................  
.................... //////////////////////////////////////////////////////////////////////////// 
.................... //   float acos(float x) 
.................... //////////////////////////////////////////////////////////////////////////// 
.................... // Description : returns the arccosine value of the value x. 
.................... // Date : N/A 
.................... // 
.................... float32 acos(float32 x) 
.................... { 
....................    float32 r; 
....................  
....................    r = ASIN_COS(x, 1); 
....................    return(r); 
.................... } 
.................... //Overloaded functions for acos() for PCD 
.................... // Overloaded function acos() for data type - Float48 
.................... #if defined(__PCD__) 
.................... float48 acos(float48 x) 
.................... { 
....................    float48 r; 
....................  
....................    r = ASIN_COS(x, 1); 
....................    return(r); 
.................... } 
....................  
.................... // Overloaded function acos() for data type - Float64 
.................... float64 acos(float64 x) 
.................... { 
....................    float64 r; 
....................  
....................    r = ASIN_COS(x, 1); 
....................    return(r); 
.................... } 
.................... #endif 
....................  
.................... float32 const pat[4] = {0.17630401, 5.6710795, 22.376096, 19.818457}; 
.................... float32 const qat[4] = {1.0000000,  11.368190, 28.982246, 19.818457}; 
....................  
.................... //////////////////////////////////////////////////////////////////////////// 
.................... //   float atan(float x) 
.................... //////////////////////////////////////////////////////////////////////////// 
.................... // Description : returns the arctangent value of the value x. 
.................... // Date : N/A 
.................... // 
.................... float32 atan(float32 x) 
.................... { 
....................    float32 y, res, r; 
....................    int1 s, flag; 
....................  
....................    s = 0; 
....................    flag = 0; 
....................    y = x; 
....................  
....................    if (x < 0) 
....................    { 
....................       s = 1; 
....................       y = -y; 
....................    } 
....................  
....................    if (y > 1.0) 
....................    { 
....................       y = 1.0/y; 
....................       flag = 1; 
....................    } 
....................  
....................    res = pat[0]*y*y + pat[1]; 
....................    res = res*y*y + pat[2]; 
....................    res = res*y*y + pat[3]; 
....................  
....................    r = qat[0]*y*y + qat[1]; 
....................    r = r*y*y + qat[2]; 
....................    r = r*y*y + qat[3]; 
....................  
....................    res = y*res/r; 
....................  
....................  
....................    if (flag)                              // for |x| > 1 
....................       res = PI_DIV_BY_TWO - res; 
....................    if (s) 
....................       res = -res; 
....................  
....................    return(res); 
.................... } 
.................... //Overloaded functions for atan() for PCD 
.................... // Overloaded function atan() for data type - Float48 
.................... #if defined(__PCD__) 
.................... float48 atan(float48 x) 
.................... { 
....................    float48 y, res, r; 
....................    int1 s, flag; 
....................  
....................    s = 0; 
....................    flag = 0; 
....................    y = x; 
....................  
....................    if (x < 0) 
....................    { 
....................       s = 1; 
....................       y = -y; 
....................    } 
....................  
....................    if (y > 1.0) 
....................    { 
....................       y = 1.0/y; 
....................       flag = 1; 
....................    } 
....................  
....................    res = pat[0]*y*y + pat[1]; 
....................    res = res*y*y + pat[2]; 
....................    res = res*y*y + pat[3]; 
....................  
....................    r = qat[0]*y*y + qat[1]; 
....................    r = r*y*y + qat[2]; 
....................    r = r*y*y + qat[3]; 
....................  
....................    res = y*res/r; 
....................  
....................  
....................    if (flag)                              // for |x| > 1 
....................       res = PI_DIV_BY_TWO - res; 
....................    if (s) 
....................       res = -res; 
....................  
....................    return(res); 
.................... } 
....................  
.................... // Overloaded function atan() for data type - Float64 
.................... float64 atan(float64 x) 
.................... { 
....................    float64 y, res, r; 
....................    int1 s, flag; 
....................  
....................    s = 0; 
....................    flag = 0; 
....................    y = x; 
....................  
....................    if (x < 0) 
....................    { 
....................       s = 1; 
....................       y = -y; 
....................    } 
....................  
....................    if (y > 1.0) 
....................    { 
....................       y = 1.0/y; 
....................       flag = 1; 
....................    } 
....................  
....................    res = pat[0]*y*y + pat[1]; 
....................    res = res*y*y + pat[2]; 
....................    res = res*y*y + pat[3]; 
....................  
....................    r = qat[0]*y*y + qat[1]; 
....................    r = r*y*y + qat[2]; 
....................    r = r*y*y + qat[3]; 
....................  
....................    res = y*res/r; 
....................  
....................  
....................    if (flag)                              // for |x| > 1 
....................       res = PI_DIV_BY_TWO - res; 
....................    if (s) 
....................       res = -res; 
....................  
....................    return(res); 
.................... } 
.................... #endif 
....................  
.................... ///////////////////////////////////////////////////////////////////////////// 
.................... //   float atan2(float y, float x) 
.................... ///////////////////////////////////////////////////////////////////////////// 
.................... // Description :computes the principal value of arc tangent of y/x, using the 
.................... // signs of both the arguments to determine the quadrant of the return value 
.................... // Returns : returns the arc tangent of y/x. 
.................... // Date : N/A 
.................... // 
....................  
.................... float32 atan2(float32 y,float32 x) 
.................... { 
....................    float32 z; 
....................    int1 sign; 
....................    unsigned int8 quad; 
....................    sign=0; 
....................    quad=0; //quadrant 
....................    quad=((y<=0.0)?((x<=0.0)?3:4):((x<0.0)?2:1)); 
....................    if(y<0.0) 
....................    { 
....................       sign=1; 
....................       y=-y; 
....................    } 
....................    if(x<0.0) 
....................    { 
....................       x=-x; 
....................    } 
....................    if (x==0.0) 
....................    { 
....................       if(y==0.0) 
....................       { 
....................       #ifdef _ERRNO 
....................       { 
....................          errno=EDOM; 
....................       } 
....................       #endif 
....................       } 
....................       else 
....................       { 
....................          if(sign) 
....................          { 
....................          return (-(PI_DIV_BY_TWO)); 
....................          } 
....................          else 
....................          { 
....................          return (PI_DIV_BY_TWO); 
....................          } 
....................       } 
....................    } 
....................    else 
....................    { 
....................       z=y/x; 
....................       switch(quad) 
....................       { 
....................          case 1: 
....................          { 
....................             return atan(z); 
....................             break; 
....................          } 
....................          case 2: 
....................          { 
.................... //            return (atan(z)+PI_DIV_BY_TWO);  //2L3122 
....................             return (PI-atan(z)); 
....................             break; 
....................          } 
....................          case 3: 
....................          { 
....................             return (atan(z)-PI); 
....................             break; 
....................          } 
....................          case 4: 
....................          { 
....................             return (-atan(z)); 
....................             break; 
....................          } 
....................       } 
....................    } 
.................... } 
....................  
.................... //Overloaded functions for atan2() for PCD 
.................... // Overloaded function atan2() for data type - Float48 
.................... #if defined(__PCD__) 
.................... float48 atan2(float48 y,float48 x) 
.................... { 
....................    float48 z; 
....................    int1 sign; 
....................    unsigned int8 quad; 
....................    sign=0; 
....................    quad=0; //quadrant 
....................    quad=((y<=0.0)?((x<=0.0)?3:4):((x<0.0)?2:1)); 
....................    if(y<0.0) 
....................    { 
....................       sign=1; 
....................       y=-y; 
....................    } 
....................    if(x<0.0) 
....................    { 
....................       x=-x; 
....................    } 
....................    if (x==0.0) 
....................    { 
....................       if(y==0.0) 
....................       { 
....................       #ifdef _ERRNO 
....................       { 
....................          errno=EDOM; 
....................       } 
....................       #endif 
....................       } 
....................       else 
....................       { 
....................          if(sign) 
....................          { 
....................          return (-(PI_DIV_BY_TWO)); 
....................          } 
....................          else 
....................          { 
....................          return (PI_DIV_BY_TWO); 
....................          } 
....................       } 
....................    } 
....................    else 
....................    { 
....................       z=y/x; 
....................       switch(quad) 
....................       { 
....................          case 1: 
....................          { 
....................             return atan(z); 
....................             break; 
....................          } 
....................          case 2: 
....................          { 
.................... //            return (atan(z)+PI_DIV_BY_TWO);  //2L3122 
....................             return (PI-atan(z)); 
....................             break; 
....................          } 
....................          case 3: 
....................          { 
....................             return (atan(z)-PI); 
....................             break; 
....................          } 
....................          case 4: 
....................          { 
....................             return (-atan(z)); 
....................             break; 
....................          } 
....................       } 
....................    } 
.................... } 
....................  
.................... // Overloaded function atan2() for data type - Float64 
.................... float64 atan2(float64 y,float64 x) 
.................... { 
....................    float64 z; 
....................    int1 sign; 
....................    unsigned int8 quad; 
....................    sign=0; 
....................    quad=0; //quadrant 
....................    quad=((y<=0.0)?((x<=0.0)?3:4):((x<0.0)?2:1)); 
....................    if(y<0.0) 
....................    { 
....................       sign=1; 
....................       y=-y; 
....................    } 
....................    if(x<0.0) 
....................    { 
....................       x=-x; 
....................    } 
....................    if (x==0.0) 
....................    { 
....................       if(y==0.0) 
....................       { 
....................       #ifdef _ERRNO 
....................       { 
....................          errno=EDOM; 
....................       } 
....................       #endif 
....................       } 
....................       else 
....................       { 
....................          if(sign) 
....................          { 
....................          return (-(PI_DIV_BY_TWO)); 
....................          } 
....................          else 
....................          { 
....................          return (PI_DIV_BY_TWO); 
....................          } 
....................       } 
....................    } 
....................    else 
....................    { 
....................       z=y/x; 
....................       switch(quad) 
....................       { 
....................          case 1: 
....................          { 
....................             return atan(z); 
....................             break; 
....................          } 
....................          case 2: 
....................          { 
.................... //            return (atan(z)+PI_DIV_BY_TWO);  //2L3122 
....................             return (PI-atan(z)); 
....................             break; 
....................          } 
....................          case 3: 
....................          { 
....................             return (atan(z)-PI); 
....................             break; 
....................          } 
....................          case 4: 
....................          { 
....................             return (-atan(z)); 
....................             break; 
....................          } 
....................       } 
....................    } 
.................... } 
.................... #endif 
....................  
.................... //////////////////// Hyperbolic functions //////////////////// 
....................  
.................... //////////////////////////////////////////////////////////////////////////// 
.................... //   float cosh(float x) 
.................... //////////////////////////////////////////////////////////////////////////// 
.................... // Description : Computes the hyperbolic cosine value of x 
.................... // Returns : returns the hyperbolic cosine value of x 
.................... // Date : N/A 
.................... // 
....................  
.................... float32 cosh(float32 x) 
.................... { 
....................    return ((exp(x)+exp(-x))/2); 
.................... } 
.................... //Overloaded functions for cosh() for PCD 
.................... // Overloaded function cosh() for data type - Float48 
.................... #if defined(__PCD__) 
.................... float48 cosh(float48 x) 
.................... { 
....................    return ((exp(x)+exp(-x))/2); 
.................... } 
....................  
.................... // Overloaded function cosh() for data type - Float64 
.................... float64 cosh(float64 x) 
.................... { 
....................    return ((exp(x)+exp(-x))/2); 
.................... } 
.................... #endif 
....................  
.................... //////////////////////////////////////////////////////////////////////////// 
.................... //   float sinh(float x) 
.................... //////////////////////////////////////////////////////////////////////////// 
.................... // Description : Computes the hyperbolic sine value of x 
.................... // Returns : returns the hyperbolic sine value of x 
.................... // Date : N/A 
.................... // 
....................  
.................... float32 sinh(float32 x) 
.................... { 
....................  
....................    return ((exp(x) - exp(-x))/2); 
.................... } 
.................... //Overloaded functions for sinh() for PCD 
.................... // Overloaded function sinh() for data type - Float48 
.................... #if defined(__PCD__) 
.................... float48 sinh(float48 x) 
.................... { 
....................  
....................    return ((exp(x) - exp(-x))/2); 
.................... } 
....................  
.................... // Overloaded function sinh() for data type - Float48 
.................... float64 sinh(float64 x) 
.................... { 
....................  
....................    return ((exp(x) - exp(-x))/2); 
.................... } 
.................... #endif 
....................  
.................... //////////////////////////////////////////////////////////////////////////// 
.................... //   float tanh(float x) 
.................... //////////////////////////////////////////////////////////////////////////// 
.................... // Description : Computes the hyperbolic tangent value of x 
.................... // Returns : returns the hyperbolic tangent value of x 
.................... // Date : N/A 
.................... // 
....................  
.................... float32 tanh(float32 x) 
.................... { 
....................    return(sinh(x)/cosh(x)); 
.................... } 
.................... //Overloaded functions for tanh() for PCD 
.................... // Overloaded function tanh() for data type - Float48 
.................... #if defined(__PCD__) 
.................... float48 tanh(float48 x) 
.................... { 
....................    return(sinh(x)/cosh(x)); 
.................... } 
....................  
.................... // Overloaded function tanh() for data type - Float64 
.................... float64 tanh(float64 x) 
.................... { 
....................    return(sinh(x)/cosh(x)); 
.................... } 
.................... #endif 
....................  
.................... //////////////////////////////////////////////////////////////////////////// 
.................... //   float frexp(float x, signed int *exp) 
.................... //////////////////////////////////////////////////////////////////////////// 
.................... // Description : breaks a floating point number into a normalized fraction and an integral 
.................... // power of 2. It stores the integer in the signed int object pointed to by exp. 
.................... // Returns : returns the value x, such that x is a double with magnitude in the interval 
.................... // [1/2,1) or zero, and value equals x times 2 raised to the power *exp.If value is zero, 
.................... // both parts of the result are zero. 
.................... // Date : N/A 
.................... // 
....................  
.................... #define LOG2 .30102999566398119521 
.................... float32 frexp(float32 x, signed int8 *exp) 
.................... { 
....................    float32 res; 
....................    int1 sign = 0; 
....................    if(x == 0.0) 
....................    { 
....................       *exp=0; 
....................       return (0.0); 
....................    } 
....................    if(x < 0.0) 
....................    { 
....................      x=-x; 
....................      sign=1; 
....................    } 
....................    if (x > 1.0) 
....................    { 
....................       *exp=(ceil(log10(x)/LOG2)); 
....................       res=x/(pow(2, *exp)); 
....................       if (res == 1) 
....................       { 
....................          *exp=*exp+1; 
....................           res=.5; 
....................       } 
....................    } 
....................    else 
....................    { 
....................       if(x < 0.5) 
....................       { 
....................          *exp=-1; 
....................          res=x*2; 
....................       } 
....................       else 
....................       { 
....................          *exp=0; 
....................           res=x; 
....................       } 
....................    } 
....................    if(sign) 
....................    { 
....................       res=-res; 
....................    } 
....................    return res; 
.................... } 
....................  
.................... //Overloaded functions for frexp() for PCD 
.................... // Overloaded function frexp() for data type - Float48 
.................... #if defined(__PCD__) 
.................... float48 frexp(float48 x, signed int8 *exp) 
.................... { 
....................    float48 res; 
....................    int1 sign = 0; 
....................    if(x == 0.0) 
....................    { 
....................       *exp=0; 
....................       return (0.0); 
....................    } 
....................    if(x < 0.0) 
....................    { 
....................      x=-x; 
....................      sign=1; 
....................    } 
....................    if (x > 1.0) 
....................    { 
....................       *exp=(ceil(log10(x)/LOG2)); 
....................       res=x/(pow(2, *exp)); 
....................       if (res == 1) 
....................       { 
....................          *exp=*exp+1; 
....................           res=.5; 
....................       } 
....................    } 
....................    else 
....................    { 
....................       if(x < 0.5) 
....................       { 
....................          *exp=-1; 
....................          res=x*2; 
....................       } 
....................       else 
....................       { 
....................          *exp=0; 
....................           res=x; 
....................       } 
....................    } 
....................    if(sign) 
....................    { 
....................       res=-res; 
....................    } 
....................    return res; 
.................... } 
....................  
.................... // Overloaded function frexp() for data type - Float64 
.................... float64 frexp(float64 x, signed int8 *exp) 
.................... { 
....................    float64 res; 
....................    int1 sign = 0; 
....................    if(x == 0.0) 
....................    { 
....................       *exp=0; 
....................       return (0.0); 
....................    } 
....................    if(x < 0.0) 
....................    { 
....................      x=-x; 
....................      sign=1; 
....................    } 
....................    if (x > 1.0) 
....................    { 
....................       *exp=(ceil(log10(x)/LOG2)); 
....................       res=x/(pow(2, *exp)); 
....................       if (res == 1) 
....................       { 
....................          *exp=*exp+1; 
....................           res=.5; 
....................       } 
....................    } 
....................    else 
....................    { 
....................       if(x < 0.5) 
....................       { 
....................          *exp=-1; 
....................          res=x*2; 
....................       } 
....................       else 
....................       { 
....................          *exp=0; 
....................           res=x; 
....................       } 
....................    } 
....................    if(sign) 
....................    { 
....................       res=-res; 
....................    } 
....................    return res; 
.................... } 
.................... #endif 
....................  
.................... ////////////////////////////////////////////////////////////////////////////// 
.................... //   float ldexp(float x, signed int *exp) 
.................... ////////////////////////////////////////////////////////////////////////////// 
.................... // Description : multiplies a floating point number by an integral power of 2. 
.................... // Returns : returns the value of x times 2 raised to the power exp. 
.................... // Date : N/A 
.................... // 
....................  
.................... float32 ldexp(float32 value, signed int8 exp) 
.................... { 
....................    return (value * pow(2,exp)); 
.................... } 
.................... //Overloaded functions for ldexp() for PCD 
.................... // Overloaded function ldexp() for data type - Float48 
....................  
.................... #if defined(__PCD__) 
.................... float48 ldexp(float48 value, signed int8 exp) 
.................... { 
....................    return (value * pow(2,exp)); 
.................... } 
.................... // Overloaded function ldexp() for data type - Float64 
.................... float64 ldexp(float64 value, signed int8 exp) 
.................... { 
....................    return (value * pow(2,exp)); 
.................... } 
.................... #endif 
....................  
.................... #endif 
....................  
....................  
.................... // Definicin de teclado - NO 
.................... #define   UP               !input(PIN_A5) 
.................... #define   DOWN             !input(PIN_E0) 
.................... #define   RIGHT            !input(PIN_E1) 
.................... #define   LEFT             !input(PIN_E2) 
....................  
.................... #define   DOOR             input(PIN_A4) 
.................... #define   TERM             input(PIN_A3) 
....................  
.................... #define   Resistencia_on   output_bit(PIN_C0,1) 
.................... #define   Resistencia_off  output_bit(PIN_C0,0) 
.................... #define   Buzz_on          output_bit(PIN_C5,1) 
.................... #define   Buzz_off         output_bit(PIN_C5,0) 
.................... #define   Vent1_on         output_bit(PIN_C1,0) 
.................... #define   Vent1_off        output_bit(PIN_C1,1) 
.................... #define   Vent2_on         output_bit(PIN_C2,0) 
.................... #define   Vent2_off        output_bit(PIN_C2,1) 
.................... #define   Display_on       output_bit(PIN_B1,1) 
.................... #define   Display_off      output_bit(PIN_B1,0) 
....................  
.................... #define Pasos 16 
....................  
.................... //Comunicacion//------------------------ 
.................... byte SlaveA0Tx[0X20]; 
.................... byte dato=0;            //Contendr la informacin a enviar o recibir 
.................... byte direccion=0;       //Contendr la direccin del esclavo en el bus I2C 
.................... byte posicion=0;  
.................... float promedio[90]={0.0,0.0,0.0,0.0,0.0,0.0,0.0,0.0,0.0,0.0,0.0,0.0,0.0,0.0,0.0,0.0,0.0,0.0,0.0,0.0,0.0,0.0,0.0,0.0,0.0,0.0,0.0,0.0,0.0,0.0,0.0,0.0,0.0,0.0,0.0,0.0,0.0,0.0,0.0,0.0,0.0,0.0,0.0,0.0,0.0,0.0,0.0,0.0,0.0,0.0,0.0,0.0,0.0,0.0,0.0,0.0,0.0,0.0,0.0,0.0,0.0,0.0,0.0,0.0,0.0,0.0,0.0,0.0,0.0,0.0,0.0,0.0,0.0,0.0}; 
.................... float promedio2[30]; 
.................... float X[2]={0.0,0.0}; 
.................... short flagup=0,flagdn=0,Desconectado=0,mensaje=0; 
.................... int8 h=0,l=0,Ajuste=0,Ajusten=0,MediaMovil=10,tiemporecta=0,flag_ganancia=0,Lectura2=0,tiempoup=0,tiempodn=0,Segmentos=0,Segmento=0,Modo=5; 
.................... short Flanco=0,Flanco1=0,Flanco2=0,visual=1,Lectura=0,flag_calcula=0; 
.................... short flag_clear2=0,flag_clear3=0,flag_tiempocalentamiento=0,flag_display=0,flag_setpoint=0,Dibuja=0; 
.................... int8 y=0,tiemporeset=0,Programa=1,Control=0,n=0,l2=0,h2=0; 
.................... int8 Menu=0, unidad=1,i=0,j=1,Pausa=0,Pausa_ant=0,TiempoControl=0; 
.................... int8 Opcion=1,tiempo_esterilizacion=0,ProgramaSeleccionado=0,Alarma=10,m_int=0,m_dec=0,b_int=0,b_dec=0; 
.................... int16 tiempos=0,tiempos3=0,tiempoctrl=0,tinicio=0,tiempocalentamiento=0,tiemposetpoint=0,Tp=0,Tc=0,AlTem=20.0,b16=0; 
.................... float PendienteMinutos=0,TempeInicial=20,Tiempo=0,TiempoActual=0,PendienteActual=0,HorasActual=0,MinutosActual=0,TiempoRampa=0; 
.................... float Potencia=0.0,PotenciaEntregada=0.0,ambiente=0.0; 
.................... signed int  Testerilizacion[4]={0,0,0,0};   // Tiempo transcurrido 
.................... signed int  Testerilizacionp[4]={0,0,0,0};   // Tiempo transcurrido 
.................... signed int  Contrasena[4]={0,0,0,0};      // Contrasena de 4 digitos 
.................... signed int  Password[4]={0,0,0,0};        // Contrasena Almacenada de 4 digitos 
.................... float V0=0.0,Tciclo=10.0,Tpulso=0.0,error=0.0,Prom=0.0,Temperature=0.0,tmp=0.0,GananciaIn=0,Ganancia=3.0,desvio=3.0,Coeficiente=150.0,resistencia=240.0; 
.................... float Aumento=0.0,Temperatura=0.0,Pendiente=0.0,DifPendiente=0.0,Setpoint=0,Integral=0,Derivativo=0,m=0,b=0,adcSup=0,adcInf=0,Tsup=1250,Tinf=0,penMufla=50; 
.................... float TemperaturaIdeal=0,penInicial=0; 
.................... signed int16 Temperatura1[Pasos*5]; 
.................... signed int16 Horas1[Pasos*5]; 
.................... signed int16 Minutos1[Pasos*5]; 
.................... float m1=0,m2=0,b1=0,b2=0,m3=0,b3=0; 
.................... int16 control1=0,control2=0,control3=0,patron1=0,patron2=0,patron3=0,calib=1; 
....................  
.................... #include <Funciones.h> 
.................... //Funciones utilizadas en la Mufla 
....................  
.................... typedef struct{ 
....................    char Letra[30]; 
.................... }MENUU; 
....................  
.................... MENUU Menus; 
....................  
.................... void ActualizaRecta(){ 
....................    X[y]=Temperatura; 
*
0490A:  MOVLB  6
0490C:  MOVF   x31,W
0490E:  MULLW  04
04910:  MOVF   FF3,W
04912:  CLRF   03
04914:  ADDLW  1A
04916:  MOVWF  FE9
04918:  MOVLW  06
0491A:  ADDWFC 03,W
0491C:  MOVWF  FEA
0491E:  MOVFF  6CB,FEF
04922:  MOVFF  6CC,FEC
04926:  MOVFF  6CD,FEC
0492A:  MOVFF  6CE,FEC
....................    y++; 
0492E:  INCF   x31,F
....................    if(y>=2) 
04930:  MOVF   x31,W
04932:  SUBLW  01
04934:  BTFSC  FD8.0
04936:  BRA    4BDE
....................    { 
....................       y=0; 
04938:  CLRF   x31
....................       Aumento=X[1]-X[0]; 
0493A:  BSF    FD8.1
0493C:  MOVFF  621,94C
04940:  MOVFF  620,94B
04944:  MOVFF  61F,94A
04948:  MOVFF  61E,949
0494C:  MOVFF  61D,950
04950:  MOVFF  61C,94F
04954:  MOVFF  61B,94E
04958:  MOVFF  61A,94D
0495C:  MOVLB  0
0495E:  CALL   1EA4
04962:  MOVFF  03,6CA
04966:  MOVFF  02,6C9
0496A:  MOVFF  01,6C8
0496E:  MOVFF  00,6C7
....................       HorasActual=(Testerilizacion[3]*10)+Testerilizacion[2]; 
04972:  MOVFF  68A,957
04976:  MOVLW  0A
04978:  MOVLB  9
0497A:  MOVWF  x58
0497C:  MOVLB  0
0497E:  CALL   3240
04982:  MOVLB  6
04984:  MOVF   x89,W
04986:  ADDWF  01,W
04988:  MOVLB  9
0498A:  CLRF   x3B
0498C:  MOVWF  x3A
0498E:  BTFSC  x3A.7
04990:  DECF   x3B,F
04992:  MOVLB  0
04994:  CALL   31F0
04998:  MOVFF  03,672
0499C:  MOVFF  02,671
049A0:  MOVFF  01,670
049A4:  MOVFF  00,66F
....................       MinutosActual=(Testerilizacion[1]*10)+Testerilizacion[0]; 
049A8:  MOVFF  688,957
049AC:  MOVLW  0A
049AE:  MOVLB  9
049B0:  MOVWF  x58
049B2:  MOVLB  0
049B4:  CALL   3240
049B8:  MOVLB  6
049BA:  MOVF   x87,W
049BC:  ADDWF  01,W
049BE:  MOVLB  9
049C0:  CLRF   x3B
049C2:  MOVWF  x3A
049C4:  BTFSC  x3A.7
049C6:  DECF   x3B,F
049C8:  MOVLB  0
049CA:  CALL   31F0
049CE:  MOVFF  03,676
049D2:  MOVFF  02,675
049D6:  MOVFF  01,674
049DA:  MOVFF  00,673
....................       TiempoActual=Tiempo-((HorasActual*3600)+(MinutosActual*60)+tinicio); 
049DE:  MOVFF  672,95A
049E2:  MOVFF  671,959
049E6:  MOVFF  670,958
049EA:  MOVFF  66F,957
049EE:  MOVLB  9
049F0:  CLRF   x5E
049F2:  CLRF   x5D
049F4:  MOVLW  61
049F6:  MOVWF  x5C
049F8:  MOVLW  8A
049FA:  MOVWF  x5B
049FC:  MOVLB  0
049FE:  CALL   227A
04A02:  MOVFF  00,936
04A06:  MOVFF  01,937
04A0A:  MOVFF  02,938
04A0E:  MOVFF  03,939
04A12:  MOVFF  676,95A
04A16:  MOVFF  675,959
04A1A:  MOVFF  674,958
04A1E:  MOVFF  673,957
04A22:  MOVLB  9
04A24:  CLRF   x5E
04A26:  CLRF   x5D
04A28:  MOVLW  70
04A2A:  MOVWF  x5C
04A2C:  MOVLW  84
04A2E:  MOVWF  x5B
04A30:  MOVLB  0
04A32:  CALL   227A
04A36:  BCF    FD8.1
04A38:  MOVFF  939,94C
04A3C:  MOVFF  938,94B
04A40:  MOVFF  937,94A
04A44:  MOVFF  936,949
04A48:  MOVFF  03,950
04A4C:  MOVFF  02,94F
04A50:  MOVFF  01,94E
04A54:  MOVFF  00,94D
04A58:  CALL   1EA4
04A5C:  MOVFF  00,936
04A60:  MOVFF  01,937
04A64:  MOVFF  02,938
04A68:  MOVFF  03,939
04A6C:  MOVFF  64E,94D
04A70:  MOVFF  64D,94C
04A74:  CALL   1DF6
04A78:  BCF    FD8.1
04A7A:  MOVFF  939,94C
04A7E:  MOVFF  938,94B
04A82:  MOVFF  937,94A
04A86:  MOVFF  936,949
04A8A:  MOVFF  03,950
04A8E:  MOVFF  02,94F
04A92:  MOVFF  01,94E
04A96:  MOVFF  00,94D
04A9A:  CALL   1EA4
04A9E:  BSF    FD8.1
04AA0:  MOVFF  666,94C
04AA4:  MOVFF  665,94B
04AA8:  MOVFF  664,94A
04AAC:  MOVFF  663,949
04AB0:  MOVFF  03,950
04AB4:  MOVFF  02,94F
04AB8:  MOVFF  01,94E
04ABC:  MOVFF  00,94D
04AC0:  CALL   1EA4
04AC4:  MOVFF  03,66A
04AC8:  MOVFF  02,669
04ACC:  MOVFF  01,668
04AD0:  MOVFF  00,667
....................       PendienteActual=((Setpoint-Temperatura)/TiempoActual); 
04AD4:  BSF    FD8.1
04AD6:  MOVFF  6DA,94C
04ADA:  MOVFF  6D9,94B
04ADE:  MOVFF  6D8,94A
04AE2:  MOVFF  6D7,949
04AE6:  MOVFF  6CE,950
04AEA:  MOVFF  6CD,94F
04AEE:  MOVFF  6CC,94E
04AF2:  MOVFF  6CB,94D
04AF6:  CALL   1EA4
04AFA:  MOVFF  00,936
04AFE:  MOVFF  01,937
04B02:  MOVFF  02,938
04B06:  MOVFF  03,939
04B0A:  MOVFF  03,94E
04B0E:  MOVFF  02,94D
04B12:  MOVFF  01,94C
04B16:  MOVFF  00,94B
04B1A:  MOVFF  66A,952
04B1E:  MOVFF  669,951
04B22:  MOVFF  668,950
04B26:  MOVFF  667,94F
04B2A:  CALL   211C
04B2E:  MOVFF  03,66E
04B32:  MOVFF  02,66D
04B36:  MOVFF  01,66C
04B3A:  MOVFF  00,66B
....................       DifPendiente=(PendienteActual*20)-Aumento; 
04B3E:  MOVFF  66E,95A
04B42:  MOVFF  66D,959
04B46:  MOVFF  66C,958
04B4A:  MOVFF  66B,957
04B4E:  MOVLB  9
04B50:  CLRF   x5E
04B52:  CLRF   x5D
04B54:  MOVLW  20
04B56:  MOVWF  x5C
04B58:  MOVLW  83
04B5A:  MOVWF  x5B
04B5C:  MOVLB  0
04B5E:  CALL   227A
04B62:  MOVFF  00,936
04B66:  MOVFF  01,937
04B6A:  MOVFF  02,938
04B6E:  MOVFF  03,939
04B72:  BSF    FD8.1
04B74:  MOVFF  03,94C
04B78:  MOVFF  02,94B
04B7C:  MOVFF  01,94A
04B80:  MOVFF  00,949
04B84:  MOVFF  6CA,950
04B88:  MOVFF  6C9,94F
04B8C:  MOVFF  6C8,94E
04B90:  MOVFF  6C7,94D
04B94:  CALL   1EA4
04B98:  MOVFF  03,6D6
04B9C:  MOVFF  02,6D5
04BA0:  MOVFF  01,6D4
04BA4:  MOVFF  00,6D3
....................       DifPendiente=DifPendiente*5; 
04BA8:  MOVFF  6D6,95A
04BAC:  MOVFF  6D5,959
04BB0:  MOVFF  6D4,958
04BB4:  MOVFF  6D3,957
04BB8:  MOVLB  9
04BBA:  CLRF   x5E
04BBC:  CLRF   x5D
04BBE:  MOVLW  20
04BC0:  MOVWF  x5C
04BC2:  MOVLW  81
04BC4:  MOVWF  x5B
04BC6:  MOVLB  0
04BC8:  CALL   227A
04BCC:  MOVFF  03,6D6
04BD0:  MOVFF  02,6D5
04BD4:  MOVFF  01,6D4
04BD8:  MOVFF  00,6D3
04BDC:  MOVLB  6
....................       //penMufla=(6000*(Aumento/20))/PotenciaEntregada; 
....................    } 
.................... } 
04BDE:  MOVLB  0
04BE0:  GOTO   4BF0 (RETURN)
....................  
.................... // Funcion para conversor analogo-digital 
.................... float sensores(int x){ 
.................... float y;set_adc_channel(x);delay_ms(1);y=read_adc();return (y); 
*
01E2C:  MOVLB  9
01E2E:  RLCF   x47,W
01E30:  MOVWF  00
01E32:  RLCF   00,F
01E34:  MOVLW  FC
01E36:  ANDWF  00,F
01E38:  MOVFF  00,01
01E3C:  MOVF   FC2,W
01E3E:  ANDLW  C3
01E40:  IORWF  00,W
01E42:  MOVWF  FC2
01E44:  MOVLW  01
01E46:  MOVWF  x4C
01E48:  MOVLB  0
01E4A:  CALL   1440
01E4E:  BSF    FC2.1
01E50:  BTFSC  FC2.1
01E52:  BRA    1E50
01E54:  MOVFF  FC4,94D
01E58:  MOVFF  FC3,94C
01E5C:  MOVLB  0
01E5E:  RCALL  1DF6
01E60:  MOVFF  03,94B
01E64:  MOVFF  02,94A
01E68:  MOVFF  01,949
01E6C:  MOVFF  00,948
01E70:  MOVFF  948,00
01E74:  MOVFF  949,01
01E78:  MOVFF  94A,02
01E7C:  MOVFF  94B,03
.................... } 
01E80:  RETLW  00
.................... float Leer_Sensor(int media) 
.................... { 
....................    Prom=0.0; 
*
02370:  MOVLB  6
02372:  CLRF   xAA
02374:  CLRF   xA9
02376:  CLRF   xA8
02378:  CLRF   xA7
....................    V0 = sensores(0);   //Lectura de Divisor de Voltaje de PT100 con resistencia de 6.18k (+-2%)    
0237A:  MOVLB  9
0237C:  CLRF   x47
0237E:  MOVLB  0
02380:  RCALL  1E2C
02382:  MOVFF  03,69A
02386:  MOVFF  02,699
0238A:  MOVFF  01,698
0238E:  MOVFF  00,697
....................              
....................    if(l>(media-1)) 
02392:  MOVLW  01
02394:  MOVLB  9
02396:  SUBWF  x36,W
02398:  MOVLB  6
0239A:  SUBWF  x24,W
0239C:  BZ    23A2
0239E:  BNC   23A2
....................    {l=0;} 
023A0:  CLRF   x24
....................    //promedio[l]=Temperature;l++; 
....................    promedio[l]=V0;l++; 
023A2:  MOVLB  9
023A4:  CLRF   x3B
023A6:  MOVFF  624,93A
023AA:  CLRF   x3D
023AC:  MOVLW  04
023AE:  MOVWF  x3C
023B0:  MOVLB  0
023B2:  RCALL  1E82
023B4:  MOVF   01,W
023B6:  ADDLW  3A
023B8:  MOVWF  FE9
023BA:  MOVLW  04
023BC:  ADDWFC 02,W
023BE:  MOVWF  FEA
023C0:  MOVFF  697,FEF
023C4:  MOVFF  698,FEC
023C8:  MOVFF  699,FEC
023CC:  MOVFF  69A,FEC
023D0:  MOVLB  6
023D2:  INCF   x24,F
....................           
....................    for(h=0;h<media;h++) 
023D4:  CLRF   x23
023D6:  MOVLB  9
023D8:  MOVF   x36,W
023DA:  MOVLB  6
023DC:  SUBWF  x23,W
023DE:  BC    245C
....................    { 
....................       Prom+=promedio[h]; 
023E0:  MOVLB  9
023E2:  CLRF   x3B
023E4:  MOVFF  623,93A
023E8:  CLRF   x3D
023EA:  MOVLW  04
023EC:  MOVWF  x3C
023EE:  MOVLB  0
023F0:  RCALL  1E82
023F2:  MOVFF  02,03
023F6:  MOVF   01,W
023F8:  ADDLW  3A
023FA:  MOVWF  FE9
023FC:  MOVLW  04
023FE:  ADDWFC 02,W
02400:  MOVWF  FEA
02402:  MOVFF  FEF,00
02406:  MOVFF  FEC,01
0240A:  MOVFF  FEC,02
0240E:  MOVFF  FEC,03
02412:  MOVFF  FEA,938
02416:  MOVFF  FE9,937
0241A:  BCF    FD8.1
0241C:  MOVFF  6AA,94C
02420:  MOVFF  6A9,94B
02424:  MOVFF  6A8,94A
02428:  MOVFF  6A7,949
0242C:  MOVFF  03,950
02430:  MOVFF  02,94F
02434:  MOVFF  01,94E
02438:  MOVFF  00,94D
0243C:  RCALL  1EA4
0243E:  MOVFF  938,FEA
02442:  MOVFF  937,FE9
02446:  MOVFF  03,6AA
0244A:  MOVFF  02,6A9
0244E:  MOVFF  01,6A8
02452:  MOVFF  00,6A7
....................    }  
02456:  MOVLB  6
02458:  INCF   x23,F
0245A:  BRA    23D6
....................    Prom=Prom/media;    
0245C:  MOVLB  9
0245E:  CLRF   x4D
02460:  MOVFF  936,94C
02464:  MOVLB  0
02466:  RCALL  1DF6
02468:  MOVFF  6AA,94E
0246C:  MOVFF  6A9,94D
02470:  MOVFF  6A8,94C
02474:  MOVFF  6A7,94B
02478:  MOVFF  03,952
0247C:  MOVFF  02,951
02480:  MOVFF  01,950
02484:  MOVFF  00,94F
02488:  RCALL  211C
0248A:  MOVFF  03,6AA
0248E:  MOVFF  02,6A9
02492:  MOVFF  01,6A8
02496:  MOVFF  00,6A7
....................    //Temperature=(Prom-100.0)/(0.385);  // Ecuacin determinada por linealizacin en Matlab. Revisar este polinomio.   
....................    //Temperature=(1.5275*Prom)-299.23; // Recta dada por T 0C-1200C y ADC Modo Real    
....................    Temperature=(m*Prom)-b; // Recta dada por T 0C-1200C y ADC Modo Real 
0249A:  MOVFF  6E6,95A
0249E:  MOVFF  6E5,959
024A2:  MOVFF  6E4,958
024A6:  MOVFF  6E3,957
024AA:  MOVFF  6AA,95E
024AE:  MOVFF  6A9,95D
024B2:  MOVFF  6A8,95C
024B6:  MOVFF  6A7,95B
024BA:  RCALL  227A
024BC:  MOVFF  00,937
024C0:  MOVFF  01,938
024C4:  MOVFF  02,939
024C8:  MOVFF  03,93A
024CC:  BSF    FD8.1
024CE:  MOVFF  03,94C
024D2:  MOVFF  02,94B
024D6:  MOVFF  01,94A
024DA:  MOVFF  00,949
024DE:  MOVFF  6EA,950
024E2:  MOVFF  6E9,94F
024E6:  MOVFF  6E8,94E
024EA:  MOVFF  6E7,94D
024EE:  RCALL  1EA4
024F0:  MOVFF  03,6AE
024F4:  MOVFF  02,6AD
024F8:  MOVFF  01,6AC
024FC:  MOVFF  00,6AB
....................     
....................    Temperature+=((float)Ajuste-(float)Ajusten); 
02500:  MOVLB  9
02502:  CLRF   x4D
02504:  MOVFF  625,94C
02508:  MOVLB  0
0250A:  RCALL  1DF6
0250C:  MOVFF  00,937
02510:  MOVFF  01,938
02514:  MOVFF  02,939
02518:  MOVFF  03,93A
0251C:  MOVLB  9
0251E:  CLRF   x4D
02520:  MOVFF  626,94C
02524:  MOVLB  0
02526:  RCALL  1DF6
02528:  BSF    FD8.1
0252A:  MOVFF  93A,94C
0252E:  MOVFF  939,94B
02532:  MOVFF  938,94A
02536:  MOVFF  937,949
0253A:  MOVFF  03,950
0253E:  MOVFF  02,94F
02542:  MOVFF  01,94E
02546:  MOVFF  00,94D
0254A:  RCALL  1EA4
0254C:  BCF    FD8.1
0254E:  MOVFF  6AE,94C
02552:  MOVFF  6AD,94B
02556:  MOVFF  6AC,94A
0255A:  MOVFF  6AB,949
0255E:  MOVFF  03,950
02562:  MOVFF  02,94F
02566:  MOVFF  01,94E
0256A:  MOVFF  00,94D
0256E:  RCALL  1EA4
02570:  MOVFF  03,6AE
02574:  MOVFF  02,6AD
02578:  MOVFF  01,6AC
0257C:  MOVFF  00,6AB
....................     
....................    //return Prom; 
....................    return Temperature; 
02580:  MOVFF  6AB,00
02584:  MOVFF  6AC,01
02588:  MOVFF  6AD,02
0258C:  MOVFF  6AE,03
.................... } 
02590:  RETLW  00
....................  
.................... float leeTemperatura(int8 media){ 
02592:  MOVLB  9
02594:  CLRF   x3A
02596:  CLRF   x39
02598:  CLRF   x38
0259A:  CLRF   x37
0259C:  CLRF   x3E
0259E:  CLRF   x3D
025A0:  CLRF   x3C
025A2:  CLRF   x3B
025A4:  CLRF   x42
025A6:  CLRF   x41
025A8:  CLRF   x40
025AA:  CLRF   x3F
025AC:  CLRF   x46
025AE:  CLRF   x45
025B0:  CLRF   x44
025B2:  CLRF   x43
....................    float ADC=0,V=0,T=0,Tempera=0; 
....................    ADC=sensores(2); 
025B4:  MOVLW  02
025B6:  MOVWF  x47
025B8:  MOVLB  0
025BA:  RCALL  1E2C
025BC:  MOVFF  03,93A
025C0:  MOVFF  02,939
025C4:  MOVFF  01,938
025C8:  MOVFF  00,937
....................    V=5*ADC/1023; 
025CC:  MOVLB  9
025CE:  CLRF   x5A
025D0:  CLRF   x59
025D2:  MOVLW  20
025D4:  MOVWF  x58
025D6:  MOVLW  81
025D8:  MOVWF  x57
025DA:  MOVFF  93A,95E
025DE:  MOVFF  939,95D
025E2:  MOVFF  938,95C
025E6:  MOVFF  937,95B
025EA:  MOVLB  0
025EC:  RCALL  227A
025EE:  MOVFF  00,947
025F2:  MOVFF  01,948
025F6:  MOVFF  02,949
025FA:  MOVFF  03,94A
025FE:  MOVFF  03,94E
02602:  MOVFF  02,94D
02606:  MOVFF  01,94C
0260A:  MOVFF  00,94B
0260E:  MOVLB  9
02610:  CLRF   x52
02612:  MOVLW  C0
02614:  MOVWF  x51
02616:  MOVLW  7F
02618:  MOVWF  x50
0261A:  MOVLW  88
0261C:  MOVWF  x4F
0261E:  MOVLB  0
02620:  RCALL  211C
02622:  MOVFF  03,93E
02626:  MOVFF  02,93D
0262A:  MOVFF  01,93C
0262E:  MOVFF  00,93B
....................    T=V/0.01; 
02632:  MOVFF  93E,94E
02636:  MOVFF  93D,94D
0263A:  MOVFF  93C,94C
0263E:  MOVFF  93B,94B
02642:  MOVLW  0A
02644:  MOVLB  9
02646:  MOVWF  x52
02648:  MOVLW  D7
0264A:  MOVWF  x51
0264C:  MOVLW  23
0264E:  MOVWF  x50
02650:  MOVLW  78
02652:  MOVWF  x4F
02654:  MOVLB  0
02656:  RCALL  211C
02658:  MOVFF  03,942
0265C:  MOVFF  02,941
02660:  MOVFF  01,940
02664:  MOVFF  00,93F
....................    if(l2>media) 
02668:  MOVLB  6
0266A:  MOVF   x36,W
0266C:  MOVLB  9
0266E:  SUBWF  x36,W
02670:  BC    2676
....................       l2=0; 
02672:  MOVLB  6
02674:  CLRF   x36
....................        
....................    promedio2[l2]=T;l2++; 
02676:  MOVLB  6
02678:  MOVF   x36,W
0267A:  MULLW  04
0267C:  MOVF   FF3,W
0267E:  CLRF   03
02680:  ADDLW  A2
02682:  MOVWF  FE9
02684:  MOVLW  05
02686:  ADDWFC 03,W
02688:  MOVWF  FEA
0268A:  MOVFF  93F,FEF
0268E:  MOVFF  940,FEC
02692:  MOVFF  941,FEC
02696:  MOVFF  942,FEC
0269A:  INCF   x36,F
....................    Tempera=0; 
0269C:  MOVLB  9
0269E:  CLRF   x46
026A0:  CLRF   x45
026A2:  CLRF   x44
026A4:  CLRF   x43
....................       
....................      for(h2=0;h2<=(media-1);h2++){ 
026A6:  MOVLB  6
026A8:  CLRF   x37
026AA:  MOVLW  01
026AC:  MOVLB  9
026AE:  SUBWF  x36,W
026B0:  MOVLB  6
026B2:  SUBWF  x37,W
026B4:  BZ    26B8
026B6:  BC    2728
....................         Tempera+=promedio2[h2]; 
026B8:  MOVF   x37,W
026BA:  MULLW  04
026BC:  MOVF   FF3,W
026BE:  CLRF   03
026C0:  ADDLW  A2
026C2:  MOVWF  FE9
026C4:  MOVLW  05
026C6:  ADDWFC 03,W
026C8:  MOVWF  FEA
026CA:  MOVFF  FEF,00
026CE:  MOVFF  FEC,01
026D2:  MOVFF  FEC,02
026D6:  MOVFF  FEC,03
026DA:  MOVFF  FEA,948
026DE:  MOVFF  FE9,947
026E2:  BCF    FD8.1
026E4:  MOVFF  946,94C
026E8:  MOVFF  945,94B
026EC:  MOVFF  944,94A
026F0:  MOVFF  943,949
026F4:  MOVFF  03,950
026F8:  MOVFF  02,94F
026FC:  MOVFF  01,94E
02700:  MOVFF  00,94D
02704:  MOVLB  0
02706:  CALL   1EA4
0270A:  MOVFF  948,FEA
0270E:  MOVFF  947,FE9
02712:  MOVFF  03,946
02716:  MOVFF  02,945
0271A:  MOVFF  01,944
0271E:  MOVFF  00,943
....................      }       
02722:  MOVLB  6
02724:  INCF   x37,F
02726:  BRA    26AA
....................    return Tempera/media; 
02728:  MOVLB  9
0272A:  CLRF   x4D
0272C:  MOVFF  936,94C
02730:  MOVLB  0
02732:  CALL   1DF6
02736:  MOVFF  946,94E
0273A:  MOVFF  945,94D
0273E:  MOVFF  944,94C
02742:  MOVFF  943,94B
02746:  MOVFF  03,952
0274A:  MOVFF  02,951
0274E:  MOVFF  01,950
02752:  MOVFF  00,94F
02756:  RCALL  211C
.................... } 
02758:  RETLW  00
....................  
.................... void Controla(){ 
.................... //-------------------------------Control de Calentamiento------------------------------------------------------------//          
....................    if(tiemporecta>=10) 
*
04BE4:  MOVLB  6
04BE6:  MOVF   x28,W
04BE8:  SUBLW  09
04BEA:  BC    4BF4
....................    { 
....................       ActualizaRecta(); 
04BEC:  MOVLB  0
04BEE:  BRA    490A
....................       tiemporecta=0; 
04BF0:  MOVLB  6
04BF2:  CLRF   x28
....................    } 
....................    
....................    if(Segmento==0){ 
04BF4:  MOVF   x2E,F
04BF6:  BTFSS  FD8.2
04BF8:  BRA    4ECE
....................       if(flag_calcula==0){ 
04BFA:  BTFSC  x30.1
04BFC:  BRA    4ECC
....................          Tiempo=(Horas1[ProgramaSeleccionado*Pasos]*3600)+(Minutos1[ProgramaSeleccionado*Pasos]*60);          
04BFE:  MOVF   x41,W
04C00:  MULLW  10
04C02:  MOVFF  FF3,00
04C06:  BCF    FD8.0
04C08:  RLCF   00,F
04C0A:  MOVF   00,W
04C0C:  CLRF   03
04C0E:  ADDLW  A7
04C10:  MOVWF  FE9
04C12:  MOVLW  07
04C14:  ADDWFC 03,W
04C16:  MOVWF  FEA
04C18:  MOVFF  FEC,937
04C1C:  MOVF   FED,F
04C1E:  MOVFF  FEF,936
04C22:  MOVFF  937,93B
04C26:  MOVFF  936,93A
04C2A:  MOVLW  0E
04C2C:  MOVLB  9
04C2E:  MOVWF  x3D
04C30:  MOVLW  10
04C32:  MOVWF  x3C
04C34:  MOVLB  0
04C36:  CALL   319C
04C3A:  MOVFF  02,937
04C3E:  MOVFF  01,936
04C42:  MOVLB  6
04C44:  MOVF   x41,W
04C46:  MULLW  10
04C48:  MOVFF  FF3,00
04C4C:  BCF    FD8.0
04C4E:  RLCF   00,F
04C50:  MOVF   00,W
04C52:  CLRF   03
04C54:  ADDLW  47
04C56:  MOVWF  FE9
04C58:  MOVLW  08
04C5A:  ADDWFC 03,W
04C5C:  MOVWF  FEA
04C5E:  MOVFF  FEC,939
04C62:  MOVF   FED,F
04C64:  MOVFF  FEF,938
04C68:  MOVFF  939,93B
04C6C:  MOVFF  938,93A
04C70:  MOVLB  9
04C72:  CLRF   x3D
04C74:  MOVLW  3C
04C76:  MOVWF  x3C
04C78:  MOVLB  0
04C7A:  CALL   319C
04C7E:  MOVFF  02,03
04C82:  MOVF   01,W
04C84:  MOVLB  9
04C86:  ADDWF  x36,W
04C88:  MOVWF  01
04C8A:  MOVF   x37,W
04C8C:  ADDWFC 03,F
04C8E:  MOVFF  01,93A
04C92:  MOVFF  03,93B
04C96:  MOVLB  0
04C98:  CALL   31F0
04C9C:  MOVFF  03,666
04CA0:  MOVFF  02,665
04CA4:  MOVFF  01,664
04CA8:  MOVFF  00,663
....................          Setpoint=Temperatura1[(ProgramaSeleccionado*Pasos)+Segmento]; 
04CAC:  MOVLB  6
04CAE:  MOVF   x41,W
04CB0:  MULLW  10
04CB2:  MOVF   FF3,W
04CB4:  ADDWF  x2E,W
04CB6:  MOVWF  00
04CB8:  BCF    FD8.0
04CBA:  RLCF   00,F
04CBC:  MOVF   00,W
04CBE:  CLRF   03
04CC0:  ADDLW  07
04CC2:  MOVWF  FE9
04CC4:  MOVLW  07
04CC6:  ADDWFC 03,W
04CC8:  MOVWF  FEA
04CCA:  MOVFF  FEC,03
04CCE:  MOVF   FED,F
04CD0:  MOVFF  FEF,93A
04CD4:  MOVFF  03,93B
04CD8:  MOVLB  0
04CDA:  CALL   31F0
04CDE:  MOVFF  03,6DA
04CE2:  MOVFF  02,6D9
04CE6:  MOVFF  01,6D8
04CEA:  MOVFF  00,6D7
....................          Pendiente=((Setpoint-TempeInicial)/Tiempo); 
04CEE:  BSF    FD8.1
04CF0:  MOVFF  6DA,94C
04CF4:  MOVFF  6D9,94B
04CF8:  MOVFF  6D8,94A
04CFC:  MOVFF  6D7,949
04D00:  MOVFF  662,950
04D04:  MOVFF  661,94F
04D08:  MOVFF  660,94E
04D0C:  MOVFF  65F,94D
04D10:  CALL   1EA4
04D14:  MOVFF  00,936
04D18:  MOVFF  01,937
04D1C:  MOVFF  02,938
04D20:  MOVFF  03,939
04D24:  MOVFF  03,94E
04D28:  MOVFF  02,94D
04D2C:  MOVFF  01,94C
04D30:  MOVFF  00,94B
04D34:  MOVFF  666,952
04D38:  MOVFF  665,951
04D3C:  MOVFF  664,950
04D40:  MOVFF  663,94F
04D44:  CALL   211C
04D48:  MOVFF  03,6D2
04D4C:  MOVFF  02,6D1
04D50:  MOVFF  01,6D0
04D54:  MOVFF  00,6CF
....................          Testerilizacionp[3]=(int8)Horas1[(ProgramaSeleccionado*Pasos)+Segmento]/10; 
04D58:  MOVLB  6
04D5A:  MOVF   x41,W
04D5C:  MULLW  10
04D5E:  MOVF   FF3,W
04D60:  ADDWF  x2E,W
04D62:  MOVWF  00
04D64:  BCF    FD8.0
04D66:  RLCF   00,F
04D68:  MOVF   00,W
04D6A:  CLRF   03
04D6C:  ADDLW  A7
04D6E:  MOVWF  FE9
04D70:  MOVLW  07
04D72:  ADDWFC 03,W
04D74:  MOVWF  FEA
04D76:  MOVFF  FEF,952
04D7A:  MOVLW  0A
04D7C:  MOVLB  9
04D7E:  MOVWF  x53
04D80:  MOVLB  0
04D82:  CALL   1C14
04D86:  MOVFF  01,68E
04D8A:  MOVLB  6
....................          Testerilizacionp[2]=Horas1[(ProgramaSeleccionado*Pasos)+Segmento]-(Testerilizacionp[3]*10); 
04D8C:  MOVF   x41,W
04D8E:  MULLW  10
04D90:  MOVF   FF3,W
04D92:  ADDWF  x2E,W
04D94:  MOVWF  00
04D96:  BCF    FD8.0
04D98:  RLCF   00,F
04D9A:  MOVF   00,W
04D9C:  CLRF   03
04D9E:  ADDLW  A7
04DA0:  MOVWF  FE9
04DA2:  MOVLW  07
04DA4:  ADDWFC 03,W
04DA6:  MOVWF  FEA
04DA8:  MOVFF  FEC,937
04DAC:  MOVF   FED,F
04DAE:  MOVFF  FEF,936
04DB2:  MOVFF  68E,957
04DB6:  MOVLW  0A
04DB8:  MOVLB  9
04DBA:  MOVWF  x58
04DBC:  MOVLB  0
04DBE:  CALL   3240
04DC2:  MOVF   01,W
04DC4:  CLRF   03
04DC6:  MOVWF  00
04DC8:  BTFSC  FE8.7
04DCA:  DECF   03,F
04DCC:  MOVLB  9
04DCE:  SUBWF  x36,W
04DD0:  MOVWF  00
04DD2:  MOVF   03,W
04DD4:  SUBWFB x37,W
04DD6:  MOVFF  00,68D
04DDA:  MOVLB  6
....................          Testerilizacionp[1]=Minutos1[(ProgramaSeleccionado*Pasos)+Segmento]/10; 
04DDC:  MOVF   x41,W
04DDE:  MULLW  10
04DE0:  MOVF   FF3,W
04DE2:  ADDWF  x2E,W
04DE4:  MOVWF  00
04DE6:  BCF    FD8.0
04DE8:  RLCF   00,F
04DEA:  MOVF   00,W
04DEC:  CLRF   03
04DEE:  ADDLW  47
04DF0:  MOVWF  FE9
04DF2:  MOVLW  08
04DF4:  ADDWFC 03,W
04DF6:  MOVWF  FEA
04DF8:  MOVFF  FEC,937
04DFC:  MOVF   FED,F
04DFE:  MOVFF  FEF,936
04E02:  MOVFF  937,939
04E06:  MOVFF  936,938
04E0A:  MOVLB  9
04E0C:  CLRF   x3B
04E0E:  MOVLW  0A
04E10:  MOVWF  x3A
04E12:  MOVLB  0
04E14:  CALL   328E
04E18:  MOVFF  01,68C
04E1C:  MOVLB  6
....................          Testerilizacionp[0]=Minutos1[(ProgramaSeleccionado*Pasos)+Segmento]-(Testerilizacionp[1]*10); 
04E1E:  MOVF   x41,W
04E20:  MULLW  10
04E22:  MOVF   FF3,W
04E24:  ADDWF  x2E,W
04E26:  MOVWF  00
04E28:  BCF    FD8.0
04E2A:  RLCF   00,F
04E2C:  MOVF   00,W
04E2E:  CLRF   03
04E30:  ADDLW  47
04E32:  MOVWF  FE9
04E34:  MOVLW  08
04E36:  ADDWFC 03,W
04E38:  MOVWF  FEA
04E3A:  MOVFF  FEC,937
04E3E:  MOVF   FED,F
04E40:  MOVFF  FEF,936
04E44:  MOVFF  68C,957
04E48:  MOVLW  0A
04E4A:  MOVLB  9
04E4C:  MOVWF  x58
04E4E:  MOVLB  0
04E50:  CALL   3240
04E54:  MOVF   01,W
04E56:  CLRF   03
04E58:  MOVWF  00
04E5A:  BTFSC  FE8.7
04E5C:  DECF   03,F
04E5E:  MOVLB  9
04E60:  SUBWF  x36,W
04E62:  MOVWF  00
04E64:  MOVF   03,W
04E66:  SUBWFB x37,W
04E68:  MOVFF  00,68B
04E6C:  MOVLB  6
....................          flag_calcula=1; 
04E6E:  BSF    x30.1
....................          Ganancia=GananciaIn*(Setpoint/Coeficiente); 
04E70:  MOVFF  6DA,94E
04E74:  MOVFF  6D9,94D
04E78:  MOVFF  6D8,94C
04E7C:  MOVFF  6D7,94B
04E80:  MOVFF  6C2,952
04E84:  MOVFF  6C1,951
04E88:  MOVFF  6C0,950
04E8C:  MOVFF  6BF,94F
04E90:  MOVLB  0
04E92:  CALL   211C
04E96:  MOVFF  6B6,95A
04E9A:  MOVFF  6B5,959
04E9E:  MOVFF  6B4,958
04EA2:  MOVFF  6B3,957
04EA6:  MOVFF  03,95E
04EAA:  MOVFF  02,95D
04EAE:  MOVFF  01,95C
04EB2:  MOVFF  00,95B
04EB6:  CALL   227A
04EBA:  MOVFF  03,6BA
04EBE:  MOVFF  02,6B9
04EC2:  MOVFF  01,6B8
04EC6:  MOVFF  00,6B7
04ECA:  MOVLB  6
....................       } 
....................    } 
....................    else{ 
04ECC:  BRA    51D2
....................       if(flag_calcula==0){ 
04ECE:  BTFSC  x30.1
04ED0:  BRA    51D2
....................          Tiempo=(Horas1[(ProgramaSeleccionado*Pasos)+Segmento]*3600)+(Minutos1[(ProgramaSeleccionado*Pasos)+Segmento]*60); 
04ED2:  MOVF   x41,W
04ED4:  MULLW  10
04ED6:  MOVF   FF3,W
04ED8:  ADDWF  x2E,W
04EDA:  MOVWF  00
04EDC:  BCF    FD8.0
04EDE:  RLCF   00,F
04EE0:  MOVF   00,W
04EE2:  CLRF   03
04EE4:  ADDLW  A7
04EE6:  MOVWF  FE9
04EE8:  MOVLW  07
04EEA:  ADDWFC 03,W
04EEC:  MOVWF  FEA
04EEE:  MOVFF  FEC,937
04EF2:  MOVF   FED,F
04EF4:  MOVFF  FEF,936
04EF8:  MOVFF  937,93B
04EFC:  MOVFF  936,93A
04F00:  MOVLW  0E
04F02:  MOVLB  9
04F04:  MOVWF  x3D
04F06:  MOVLW  10
04F08:  MOVWF  x3C
04F0A:  MOVLB  0
04F0C:  CALL   319C
04F10:  MOVFF  02,937
04F14:  MOVFF  01,936
04F18:  MOVLB  6
04F1A:  MOVF   x41,W
04F1C:  MULLW  10
04F1E:  MOVF   FF3,W
04F20:  ADDWF  x2E,W
04F22:  MOVWF  00
04F24:  BCF    FD8.0
04F26:  RLCF   00,F
04F28:  MOVF   00,W
04F2A:  CLRF   03
04F2C:  ADDLW  47
04F2E:  MOVWF  FE9
04F30:  MOVLW  08
04F32:  ADDWFC 03,W
04F34:  MOVWF  FEA
04F36:  MOVFF  FEC,939
04F3A:  MOVF   FED,F
04F3C:  MOVFF  FEF,938
04F40:  MOVFF  939,93B
04F44:  MOVFF  938,93A
04F48:  MOVLB  9
04F4A:  CLRF   x3D
04F4C:  MOVLW  3C
04F4E:  MOVWF  x3C
04F50:  MOVLB  0
04F52:  CALL   319C
04F56:  MOVFF  02,03
04F5A:  MOVF   01,W
04F5C:  MOVLB  9
04F5E:  ADDWF  x36,W
04F60:  MOVWF  01
04F62:  MOVF   x37,W
04F64:  ADDWFC 03,F
04F66:  MOVFF  01,93A
04F6A:  MOVFF  03,93B
04F6E:  MOVLB  0
04F70:  CALL   31F0
04F74:  MOVFF  03,666
04F78:  MOVFF  02,665
04F7C:  MOVFF  01,664
04F80:  MOVFF  00,663
....................          Pendiente=((Temperatura1[(ProgramaSeleccionado*Pasos)+Segmento]-Temperatura1[(ProgramaSeleccionado*Pasos)+Segmento-1])/Tiempo); 
04F84:  MOVLB  6
04F86:  MOVF   x41,W
04F88:  MULLW  10
04F8A:  MOVF   FF3,W
04F8C:  ADDWF  x2E,W
04F8E:  MOVWF  00
04F90:  BCF    FD8.0
04F92:  RLCF   00,F
04F94:  MOVF   00,W
04F96:  CLRF   03
04F98:  ADDLW  07
04F9A:  MOVWF  FE9
04F9C:  MOVLW  07
04F9E:  ADDWFC 03,W
04FA0:  MOVWF  FEA
04FA2:  MOVFF  FEC,937
04FA6:  MOVF   FED,F
04FA8:  MOVFF  FEF,936
04FAC:  MOVF   x41,W
04FAE:  MULLW  10
04FB0:  MOVF   FF3,W
04FB2:  ADDWF  x2E,W
04FB4:  ADDLW  FF
04FB6:  MOVWF  00
04FB8:  BCF    FD8.0
04FBA:  RLCF   00,F
04FBC:  MOVF   00,W
04FBE:  CLRF   03
04FC0:  ADDLW  07
04FC2:  MOVWF  FE9
04FC4:  MOVLW  07
04FC6:  ADDWFC 03,W
04FC8:  MOVWF  FEA
04FCA:  MOVFF  FEC,03
04FCE:  MOVF   FED,F
04FD0:  MOVF   FEF,W
04FD2:  MOVLB  9
04FD4:  SUBWF  x36,F
04FD6:  MOVF   03,W
04FD8:  SUBWFB x37,F
04FDA:  MOVFF  937,93B
04FDE:  MOVFF  936,93A
04FE2:  MOVLB  0
04FE4:  CALL   31F0
04FE8:  MOVFF  03,94E
04FEC:  MOVFF  02,94D
04FF0:  MOVFF  01,94C
04FF4:  MOVFF  00,94B
04FF8:  MOVFF  666,952
04FFC:  MOVFF  665,951
05000:  MOVFF  664,950
05004:  MOVFF  663,94F
05008:  CALL   211C
0500C:  MOVFF  03,6D2
05010:  MOVFF  02,6D1
05014:  MOVFF  01,6D0
05018:  MOVFF  00,6CF
....................          Setpoint=Temperatura1[(ProgramaSeleccionado*Pasos)+Segmento]; 
0501C:  MOVLB  6
0501E:  MOVF   x41,W
05020:  MULLW  10
05022:  MOVF   FF3,W
05024:  ADDWF  x2E,W
05026:  MOVWF  00
05028:  BCF    FD8.0
0502A:  RLCF   00,F
0502C:  MOVF   00,W
0502E:  CLRF   03
05030:  ADDLW  07
05032:  MOVWF  FE9
05034:  MOVLW  07
05036:  ADDWFC 03,W
05038:  MOVWF  FEA
0503A:  MOVFF  FEC,03
0503E:  MOVF   FED,F
05040:  MOVFF  FEF,93A
05044:  MOVFF  03,93B
05048:  MOVLB  0
0504A:  CALL   31F0
0504E:  MOVFF  03,6DA
05052:  MOVFF  02,6D9
05056:  MOVFF  01,6D8
0505A:  MOVFF  00,6D7
....................          Testerilizacionp[3]=(int8)Horas1[(ProgramaSeleccionado*Pasos)+Segmento]/10; 
0505E:  MOVLB  6
05060:  MOVF   x41,W
05062:  MULLW  10
05064:  MOVF   FF3,W
05066:  ADDWF  x2E,W
05068:  MOVWF  00
0506A:  BCF    FD8.0
0506C:  RLCF   00,F
0506E:  MOVF   00,W
05070:  CLRF   03
05072:  ADDLW  A7
05074:  MOVWF  FE9
05076:  MOVLW  07
05078:  ADDWFC 03,W
0507A:  MOVWF  FEA
0507C:  MOVFF  FEF,952
05080:  MOVLW  0A
05082:  MOVLB  9
05084:  MOVWF  x53
05086:  MOVLB  0
05088:  CALL   1C14
0508C:  MOVFF  01,68E
05090:  MOVLB  6
....................          Testerilizacionp[2]=Horas1[(ProgramaSeleccionado*Pasos)+Segmento]-(Testerilizacionp[3]*10); 
05092:  MOVF   x41,W
05094:  MULLW  10
05096:  MOVF   FF3,W
05098:  ADDWF  x2E,W
0509A:  MOVWF  00
0509C:  BCF    FD8.0
0509E:  RLCF   00,F
050A0:  MOVF   00,W
050A2:  CLRF   03
050A4:  ADDLW  A7
050A6:  MOVWF  FE9
050A8:  MOVLW  07
050AA:  ADDWFC 03,W
050AC:  MOVWF  FEA
050AE:  MOVFF  FEC,937
050B2:  MOVF   FED,F
050B4:  MOVFF  FEF,936
050B8:  MOVFF  68E,957
050BC:  MOVLW  0A
050BE:  MOVLB  9
050C0:  MOVWF  x58
050C2:  MOVLB  0
050C4:  CALL   3240
050C8:  MOVF   01,W
050CA:  CLRF   03
050CC:  MOVWF  00
050CE:  BTFSC  FE8.7
050D0:  DECF   03,F
050D2:  MOVLB  9
050D4:  SUBWF  x36,W
050D6:  MOVWF  00
050D8:  MOVF   03,W
050DA:  SUBWFB x37,W
050DC:  MOVFF  00,68D
050E0:  MOVLB  6
....................          Testerilizacionp[1]=Minutos1[(ProgramaSeleccionado*Pasos)+Segmento]/10; 
050E2:  MOVF   x41,W
050E4:  MULLW  10
050E6:  MOVF   FF3,W
050E8:  ADDWF  x2E,W
050EA:  MOVWF  00
050EC:  BCF    FD8.0
050EE:  RLCF   00,F
050F0:  MOVF   00,W
050F2:  CLRF   03
050F4:  ADDLW  47
050F6:  MOVWF  FE9
050F8:  MOVLW  08
050FA:  ADDWFC 03,W
050FC:  MOVWF  FEA
050FE:  MOVFF  FEC,937
05102:  MOVF   FED,F
05104:  MOVFF  FEF,936
05108:  MOVFF  937,939
0510C:  MOVFF  936,938
05110:  MOVLB  9
05112:  CLRF   x3B
05114:  MOVLW  0A
05116:  MOVWF  x3A
05118:  MOVLB  0
0511A:  CALL   328E
0511E:  MOVFF  01,68C
05122:  MOVLB  6
....................          Testerilizacionp[0]=Minutos1[(ProgramaSeleccionado*Pasos)+Segmento]-(Testerilizacionp[1]*10); 
05124:  MOVF   x41,W
05126:  MULLW  10
05128:  MOVF   FF3,W
0512A:  ADDWF  x2E,W
0512C:  MOVWF  00
0512E:  BCF    FD8.0
05130:  RLCF   00,F
05132:  MOVF   00,W
05134:  CLRF   03
05136:  ADDLW  47
05138:  MOVWF  FE9
0513A:  MOVLW  08
0513C:  ADDWFC 03,W
0513E:  MOVWF  FEA
05140:  MOVFF  FEC,937
05144:  MOVF   FED,F
05146:  MOVFF  FEF,936
0514A:  MOVFF  68C,957
0514E:  MOVLW  0A
05150:  MOVLB  9
05152:  MOVWF  x58
05154:  MOVLB  0
05156:  CALL   3240
0515A:  MOVF   01,W
0515C:  CLRF   03
0515E:  MOVWF  00
05160:  BTFSC  FE8.7
05162:  DECF   03,F
05164:  MOVLB  9
05166:  SUBWF  x36,W
05168:  MOVWF  00
0516A:  MOVF   03,W
0516C:  SUBWFB x37,W
0516E:  MOVFF  00,68B
05172:  MOVLB  6
....................          flag_calcula=1; 
05174:  BSF    x30.1
....................          Ganancia=GananciaIn*(Setpoint/Coeficiente); 
05176:  MOVFF  6DA,94E
0517A:  MOVFF  6D9,94D
0517E:  MOVFF  6D8,94C
05182:  MOVFF  6D7,94B
05186:  MOVFF  6C2,952
0518A:  MOVFF  6C1,951
0518E:  MOVFF  6C0,950
05192:  MOVFF  6BF,94F
05196:  MOVLB  0
05198:  CALL   211C
0519C:  MOVFF  6B6,95A
051A0:  MOVFF  6B5,959
051A4:  MOVFF  6B4,958
051A8:  MOVFF  6B3,957
051AC:  MOVFF  03,95E
051B0:  MOVFF  02,95D
051B4:  MOVFF  01,95C
051B8:  MOVFF  00,95B
051BC:  CALL   227A
051C0:  MOVFF  03,6BA
051C4:  MOVFF  02,6B9
051C8:  MOVFF  01,6B8
051CC:  MOVFF  00,6B7
051D0:  MOVLB  6
....................       } 
....................    } 
....................     
....................    if(Pendiente==0){// Si Esta realizando una Meseta debe realizar el control JuDifuso 
051D2:  MOVFF  6D2,939
051D6:  MOVFF  6D1,938
051DA:  MOVFF  6D0,937
051DE:  MOVFF  6CF,936
051E2:  MOVLB  9
051E4:  CLRF   x3D
051E6:  CLRF   x3C
051E8:  CLRF   x3B
051EA:  CLRF   x3A
051EC:  MOVLB  0
051EE:  CALL   275A
051F2:  BTFSS  FD8.2
051F4:  BRA    55AC
....................       error=desvio+Setpoint-Temperatura;      // Clculo del error ****** 
051F6:  BCF    FD8.1
051F8:  MOVFF  6BE,94C
051FC:  MOVFF  6BD,94B
05200:  MOVFF  6BC,94A
05204:  MOVFF  6BB,949
05208:  MOVFF  6DA,950
0520C:  MOVFF  6D9,94F
05210:  MOVFF  6D8,94E
05214:  MOVFF  6D7,94D
05218:  CALL   1EA4
0521C:  MOVFF  00,936
05220:  MOVFF  01,937
05224:  MOVFF  02,938
05228:  MOVFF  03,939
0522C:  BSF    FD8.1
0522E:  MOVFF  03,94C
05232:  MOVFF  02,94B
05236:  MOVFF  01,94A
0523A:  MOVFF  00,949
0523E:  MOVFF  6CE,950
05242:  MOVFF  6CD,94F
05246:  MOVFF  6CC,94E
0524A:  MOVFF  6CB,94D
0524E:  CALL   1EA4
05252:  MOVFF  03,6A6
05256:  MOVFF  02,6A5
0525A:  MOVFF  01,6A4
0525E:  MOVFF  00,6A3
....................        
....................       if(error>3.0 && Aumento<1) 
05262:  MOVLB  9
05264:  CLRF   x39
05266:  CLRF   x38
05268:  MOVLW  40
0526A:  MOVWF  x37
0526C:  MOVLW  80
0526E:  MOVWF  x36
05270:  MOVFF  6A6,93D
05274:  MOVFF  6A5,93C
05278:  MOVFF  6A4,93B
0527C:  MOVFF  6A3,93A
05280:  MOVLB  0
05282:  CALL   275A
05286:  BTFSS  FD8.0
05288:  BRA    544C
0528A:  MOVFF  6CA,939
0528E:  MOVFF  6C9,938
05292:  MOVFF  6C8,937
05296:  MOVFF  6C7,936
0529A:  MOVLB  9
0529C:  CLRF   x3D
0529E:  CLRF   x3C
052A0:  CLRF   x3B
052A2:  MOVLW  7F
052A4:  MOVWF  x3A
052A6:  MOVLB  0
052A8:  CALL   275A
052AC:  BTFSS  FD8.0
052AE:  BRA    544C
....................       { 
....................          if(Potencia<90.0) 
052B0:  MOVFF  67E,939
052B4:  MOVFF  67D,938
052B8:  MOVFF  67C,937
052BC:  MOVFF  67B,936
052C0:  MOVLB  9
052C2:  CLRF   x3D
052C4:  CLRF   x3C
052C6:  MOVLW  34
052C8:  MOVWF  x3B
052CA:  MOVLW  85
052CC:  MOVWF  x3A
052CE:  MOVLB  0
052D0:  CALL   275A
052D4:  BTFSS  FD8.0
052D6:  BRA    544C
....................          { 
....................             if(TiempoControl>=Derivativo) 
052D8:  MOVLB  9
052DA:  CLRF   x4D
052DC:  MOVFF  63E,94C
052E0:  MOVLB  0
052E2:  CALL   1DF6
052E6:  MOVFF  6E2,939
052EA:  MOVFF  6E1,938
052EE:  MOVFF  6E0,937
052F2:  MOVFF  6DF,936
052F6:  MOVFF  03,93D
052FA:  MOVFF  02,93C
052FE:  MOVFF  01,93B
05302:  MOVFF  00,93A
05306:  CALL   275A
0530A:  BC    5310
0530C:  BTFSS  FD8.2
0530E:  BRA    544C
....................             { 
....................                TiempoControl=0; 
05310:  MOVLB  6
05312:  CLRF   x3E
....................                if(Aumento<-2) 
05314:  MOVFF  6CA,939
05318:  MOVFF  6C9,938
0531C:  MOVFF  6C8,937
05320:  MOVFF  6C7,936
05324:  MOVLB  9
05326:  CLRF   x3D
05328:  CLRF   x3C
0532A:  MOVLW  80
0532C:  MOVWF  x3B
0532E:  MOVWF  x3A
05330:  MOVLB  0
05332:  CALL   275A
05336:  BNC   5394
....................                { 
....................                   Ganancia+=Integral+1; 
05338:  BCF    FD8.1
0533A:  MOVFF  6DE,94C
0533E:  MOVFF  6DD,94B
05342:  MOVFF  6DC,94A
05346:  MOVFF  6DB,949
0534A:  MOVLB  9
0534C:  CLRF   x50
0534E:  CLRF   x4F
05350:  CLRF   x4E
05352:  MOVLW  7F
05354:  MOVWF  x4D
05356:  MOVLB  0
05358:  CALL   1EA4
0535C:  BCF    FD8.1
0535E:  MOVFF  6BA,94C
05362:  MOVFF  6B9,94B
05366:  MOVFF  6B8,94A
0536A:  MOVFF  6B7,949
0536E:  MOVFF  03,950
05372:  MOVFF  02,94F
05376:  MOVFF  01,94E
0537A:  MOVFF  00,94D
0537E:  CALL   1EA4
05382:  MOVFF  03,6BA
05386:  MOVFF  02,6B9
0538A:  MOVFF  01,6B8
0538E:  MOVFF  00,6B7
....................                } 
....................                else 
05392:  BRA    544C
....................                { 
....................                   if(Aumento<-1) 
05394:  MOVFF  6CA,939
05398:  MOVFF  6C9,938
0539C:  MOVFF  6C8,937
053A0:  MOVFF  6C7,936
053A4:  MOVLB  9
053A6:  CLRF   x3D
053A8:  CLRF   x3C
053AA:  MOVLW  80
053AC:  MOVWF  x3B
053AE:  MOVLW  7F
053B0:  MOVWF  x3A
053B2:  MOVLB  0
053B4:  CALL   275A
053B8:  BNC   53F2
....................                   { 
....................                      Ganancia+=Integral; 
053BA:  BCF    FD8.1
053BC:  MOVFF  6BA,94C
053C0:  MOVFF  6B9,94B
053C4:  MOVFF  6B8,94A
053C8:  MOVFF  6B7,949
053CC:  MOVFF  6DE,950
053D0:  MOVFF  6DD,94F
053D4:  MOVFF  6DC,94E
053D8:  MOVFF  6DB,94D
053DC:  CALL   1EA4
053E0:  MOVFF  03,6BA
053E4:  MOVFF  02,6B9
053E8:  MOVFF  01,6B8
053EC:  MOVFF  00,6B7
....................                   }    
....................                   else 
053F0:  BRA    544C
....................                   { 
....................                      Ganancia+=Integral-0.5; 
053F2:  BSF    FD8.1
053F4:  MOVFF  6DE,94C
053F8:  MOVFF  6DD,94B
053FC:  MOVFF  6DC,94A
05400:  MOVFF  6DB,949
05404:  MOVLB  9
05406:  CLRF   x50
05408:  CLRF   x4F
0540A:  CLRF   x4E
0540C:  MOVLW  7E
0540E:  MOVWF  x4D
05410:  MOVLB  0
05412:  CALL   1EA4
05416:  BCF    FD8.1
05418:  MOVFF  6BA,94C
0541C:  MOVFF  6B9,94B
05420:  MOVFF  6B8,94A
05424:  MOVFF  6B7,949
05428:  MOVFF  03,950
0542C:  MOVFF  02,94F
05430:  MOVFF  01,94E
05434:  MOVFF  00,94D
05438:  CALL   1EA4
0543C:  MOVFF  03,6BA
05440:  MOVFF  02,6B9
05444:  MOVFF  01,6B8
05448:  MOVFF  00,6B7
....................                   } 
....................                } 
....................             } 
....................          } 
....................       } 
....................        
....................       //if(error<-5) 
....................       //{ 
....................       //   Ganancia=6*(Setpoint/100); 
....................       //} 
....................        
....................       if(Ganancia<0.5) 
0544C:  MOVFF  6BA,939
05450:  MOVFF  6B9,938
05454:  MOVFF  6B8,937
05458:  MOVFF  6B7,936
0545C:  MOVLB  9
0545E:  CLRF   x3D
05460:  CLRF   x3C
05462:  CLRF   x3B
05464:  MOVLW  7E
05466:  MOVWF  x3A
05468:  MOVLB  0
0546A:  CALL   275A
0546E:  BNC   547C
....................       { 
....................          Ganancia=0.5; 
05470:  MOVLB  6
05472:  CLRF   xBA
05474:  CLRF   xB9
05476:  CLRF   xB8
05478:  MOVLW  7E
0547A:  MOVWF  xB7
....................       } 
....................        
....................        
....................       if(error<0.0)     // Anti Wind_DOWN     
0547C:  MOVFF  6A6,939
05480:  MOVFF  6A5,938
05484:  MOVFF  6A4,937
05488:  MOVFF  6A3,936
0548C:  MOVLB  9
0548E:  CLRF   x3D
05490:  CLRF   x3C
05492:  CLRF   x3B
05494:  CLRF   x3A
05496:  MOVLB  0
05498:  CALL   275A
0549C:  BNC   54AA
....................       { 
....................          error=0.0; 
0549E:  MOVLB  6
054A0:  CLRF   xA6
054A2:  CLRF   xA5
054A4:  CLRF   xA4
054A6:  CLRF   xA3
054A8:  MOVLB  0
....................       } 
....................     
....................       tmp=error*Ganancia;  // Control Proporcional. 
054AA:  MOVFF  6A6,95A
054AE:  MOVFF  6A5,959
054B2:  MOVFF  6A4,958
054B6:  MOVFF  6A3,957
054BA:  MOVFF  6BA,95E
054BE:  MOVFF  6B9,95D
054C2:  MOVFF  6B8,95C
054C6:  MOVFF  6B7,95B
054CA:  CALL   227A
054CE:  MOVFF  03,6B2
054D2:  MOVFF  02,6B1
054D6:  MOVFF  01,6B0
054DA:  MOVFF  00,6AF
....................              
....................       if(tmp>Setpoint)   // Anti Wind-UP       
054DE:  MOVFF  6DA,939
054E2:  MOVFF  6D9,938
054E6:  MOVFF  6D8,937
054EA:  MOVFF  6D7,936
054EE:  MOVFF  6B2,93D
054F2:  MOVFF  6B1,93C
054F6:  MOVFF  6B0,93B
054FA:  MOVFF  6AF,93A
054FE:  CALL   275A
05502:  BNC   5514
....................       { 
....................          tmp=Setpoint; 
05504:  MOVFF  6DA,6B2
05508:  MOVFF  6D9,6B1
0550C:  MOVFF  6D8,6B0
05510:  MOVFF  6D7,6AF
....................       } 
....................                    
....................       if(tmp<0.0)     // Anti Wind_DOWN     
05514:  MOVFF  6B2,939
05518:  MOVFF  6B1,938
0551C:  MOVFF  6B0,937
05520:  MOVFF  6AF,936
05524:  MOVLB  9
05526:  CLRF   x3D
05528:  CLRF   x3C
0552A:  CLRF   x3B
0552C:  CLRF   x3A
0552E:  MOVLB  0
05530:  CALL   275A
05534:  BNC   5542
....................       { 
....................          tmp=0.0; 
05536:  MOVLB  6
05538:  CLRF   xB2
0553A:  CLRF   xB1
0553C:  CLRF   xB0
0553E:  CLRF   xAF
05540:  MOVLB  0
....................       } 
....................        
....................       // Tpulso(t)= Tciclo*(y(t)-ymin)/(ymax - ymin); calculo de ciclo util para control de resistencia.ymax=140.ymin=0; 
....................       // Tpulso es float, hay que pasar ese ciclo a una salida de un puerto usando el TMR1. 
....................       Tpulso=(tmp/Setpoint)*Tciclo;  
05542:  MOVFF  6B2,94E
05546:  MOVFF  6B1,94D
0554A:  MOVFF  6B0,94C
0554E:  MOVFF  6AF,94B
05552:  MOVFF  6DA,952
05556:  MOVFF  6D9,951
0555A:  MOVFF  6D8,950
0555E:  MOVFF  6D7,94F
05562:  CALL   211C
05566:  MOVFF  00,936
0556A:  MOVFF  01,937
0556E:  MOVFF  02,938
05572:  MOVFF  03,939
05576:  MOVFF  03,95A
0557A:  MOVFF  02,959
0557E:  MOVFF  01,958
05582:  MOVFF  00,957
05586:  MOVFF  69E,95E
0558A:  MOVFF  69D,95D
0558E:  MOVFF  69C,95C
05592:  MOVFF  69B,95B
05596:  CALL   227A
0559A:  MOVFF  03,6A2
0559E:  MOVFF  02,6A1
055A2:  MOVFF  01,6A0
055A6:  MOVFF  00,69F
....................    } 
....................    else{// Si Esta realizando una Rampa debe realizar el control de acuerdo a la pendiente de Temperatura. Aprox 10C * min Maximo Valor de Pendiente. 
055AA:  BRA    5B50
....................       PendienteMinutos=PendienteActual*60; 
055AC:  MOVFF  66E,95A
055B0:  MOVFF  66D,959
055B4:  MOVFF  66C,958
055B8:  MOVFF  66B,957
055BC:  MOVLB  9
055BE:  CLRF   x5E
055C0:  CLRF   x5D
055C2:  MOVLW  70
055C4:  MOVWF  x5C
055C6:  MOVLW  84
055C8:  MOVWF  x5B
055CA:  MOVLB  0
055CC:  CALL   227A
055D0:  MOVFF  03,65E
055D4:  MOVFF  02,65D
055D8:  MOVFF  01,65C
055DC:  MOVFF  00,65B
....................       //PotenciaEntregada=((PendienteMinutos+DifPendiente)*100)/penMufla; 
....................       TiempoRampa=((HorasActual*3600)+(MinutosActual*60)+tinicio); 
055E0:  MOVFF  672,95A
055E4:  MOVFF  671,959
055E8:  MOVFF  670,958
055EC:  MOVFF  66F,957
055F0:  MOVLB  9
055F2:  CLRF   x5E
055F4:  CLRF   x5D
055F6:  MOVLW  61
055F8:  MOVWF  x5C
055FA:  MOVLW  8A
055FC:  MOVWF  x5B
055FE:  MOVLB  0
05600:  CALL   227A
05604:  MOVFF  00,936
05608:  MOVFF  01,937
0560C:  MOVFF  02,938
05610:  MOVFF  03,939
05614:  MOVFF  676,95A
05618:  MOVFF  675,959
0561C:  MOVFF  674,958
05620:  MOVFF  673,957
05624:  MOVLB  9
05626:  CLRF   x5E
05628:  CLRF   x5D
0562A:  MOVLW  70
0562C:  MOVWF  x5C
0562E:  MOVLW  84
05630:  MOVWF  x5B
05632:  MOVLB  0
05634:  CALL   227A
05638:  BCF    FD8.1
0563A:  MOVFF  939,94C
0563E:  MOVFF  938,94B
05642:  MOVFF  937,94A
05646:  MOVFF  936,949
0564A:  MOVFF  03,950
0564E:  MOVFF  02,94F
05652:  MOVFF  01,94E
05656:  MOVFF  00,94D
0565A:  CALL   1EA4
0565E:  MOVFF  00,936
05662:  MOVFF  01,937
05666:  MOVFF  02,938
0566A:  MOVFF  03,939
0566E:  MOVFF  64E,94D
05672:  MOVFF  64D,94C
05676:  CALL   1DF6
0567A:  BCF    FD8.1
0567C:  MOVFF  939,94C
05680:  MOVFF  938,94B
05684:  MOVFF  937,94A
05688:  MOVFF  936,949
0568C:  MOVFF  03,950
05690:  MOVFF  02,94F
05694:  MOVFF  01,94E
05698:  MOVFF  00,94D
0569C:  CALL   1EA4
056A0:  MOVFF  03,67A
056A4:  MOVFF  02,679
056A8:  MOVFF  01,678
056AC:  MOVFF  00,677
....................       if(Segmento==0){ 
056B0:  MOVLB  6
056B2:  MOVF   x2E,F
056B4:  BNZ   5726
....................          TemperaturaIdeal=(Pendiente*TiempoRampa)+TempeInicial; 
056B6:  MOVFF  6D2,95A
056BA:  MOVFF  6D1,959
056BE:  MOVFF  6D0,958
056C2:  MOVFF  6CF,957
056C6:  MOVFF  67A,95E
056CA:  MOVFF  679,95D
056CE:  MOVFF  678,95C
056D2:  MOVFF  677,95B
056D6:  MOVLB  0
056D8:  CALL   227A
056DC:  MOVFF  00,936
056E0:  MOVFF  01,937
056E4:  MOVFF  02,938
056E8:  MOVFF  03,939
056EC:  BCF    FD8.1
056EE:  MOVFF  03,94C
056F2:  MOVFF  02,94B
056F6:  MOVFF  01,94A
056FA:  MOVFF  00,949
056FE:  MOVFF  662,950
05702:  MOVFF  661,94F
05706:  MOVFF  660,94E
0570A:  MOVFF  65F,94D
0570E:  CALL   1EA4
05712:  MOVFF  03,702
05716:  MOVFF  02,701
0571A:  MOVFF  01,700
0571E:  MOVFF  00,6FF
....................       }else{ 
05722:  BRA    57D6
05724:  MOVLB  6
....................          TemperaturaIdeal=(Pendiente*TiempoRampa)+Temperatura1[(ProgramaSeleccionado*Pasos)+Segmento-1]; 
05726:  MOVFF  6D2,95A
0572A:  MOVFF  6D1,959
0572E:  MOVFF  6D0,958
05732:  MOVFF  6CF,957
05736:  MOVFF  67A,95E
0573A:  MOVFF  679,95D
0573E:  MOVFF  678,95C
05742:  MOVFF  677,95B
05746:  MOVLB  0
05748:  CALL   227A
0574C:  MOVFF  00,936
05750:  MOVFF  01,937
05754:  MOVFF  02,938
05758:  MOVFF  03,939
0575C:  MOVLB  6
0575E:  MOVF   x41,W
05760:  MULLW  10
05762:  MOVF   FF3,W
05764:  ADDWF  x2E,W
05766:  ADDLW  FF
05768:  MOVWF  00
0576A:  BCF    FD8.0
0576C:  RLCF   00,F
0576E:  MOVF   00,W
05770:  CLRF   03
05772:  ADDLW  07
05774:  MOVWF  FE9
05776:  MOVLW  07
05778:  ADDWFC 03,W
0577A:  MOVWF  FEA
0577C:  MOVFF  FEC,03
05780:  MOVF   FED,F
05782:  MOVFF  FEF,93A
05786:  MOVFF  03,93B
0578A:  MOVLB  0
0578C:  CALL   31F0
05790:  MOVFF  FEA,93B
05794:  MOVFF  FE9,93A
05798:  BCF    FD8.1
0579A:  MOVFF  939,94C
0579E:  MOVFF  938,94B
057A2:  MOVFF  937,94A
057A6:  MOVFF  936,949
057AA:  MOVFF  03,950
057AE:  MOVFF  02,94F
057B2:  MOVFF  01,94E
057B6:  MOVFF  00,94D
057BA:  CALL   1EA4
057BE:  MOVFF  93B,FEA
057C2:  MOVFF  93A,FE9
057C6:  MOVFF  03,702
057CA:  MOVFF  02,701
057CE:  MOVFF  01,700
057D2:  MOVFF  00,6FF
....................       } 
....................       PotenciaEntregada=((TemperaturaIdeal-Temperatura)*100)/penMufla; 
057D6:  BSF    FD8.1
057D8:  MOVFF  702,94C
057DC:  MOVFF  701,94B
057E0:  MOVFF  700,94A
057E4:  MOVFF  6FF,949
057E8:  MOVFF  6CE,950
057EC:  MOVFF  6CD,94F
057F0:  MOVFF  6CC,94E
057F4:  MOVFF  6CB,94D
057F8:  CALL   1EA4
057FC:  MOVFF  00,936
05800:  MOVFF  01,937
05804:  MOVFF  02,938
05808:  MOVFF  03,939
0580C:  MOVFF  03,95A
05810:  MOVFF  02,959
05814:  MOVFF  01,958
05818:  MOVFF  00,957
0581C:  MOVLB  9
0581E:  CLRF   x5E
05820:  CLRF   x5D
05822:  MOVLW  48
05824:  MOVWF  x5C
05826:  MOVLW  85
05828:  MOVWF  x5B
0582A:  MOVLB  0
0582C:  CALL   227A
05830:  MOVFF  00,936
05834:  MOVFF  01,937
05838:  MOVFF  02,938
0583C:  MOVFF  03,939
05840:  MOVFF  03,94E
05844:  MOVFF  02,94D
05848:  MOVFF  01,94C
0584C:  MOVFF  00,94B
05850:  MOVFF  6FE,952
05854:  MOVFF  6FD,951
05858:  MOVFF  6FC,950
0585C:  MOVFF  6FB,94F
05860:  CALL   211C
05864:  MOVFF  03,682
05868:  MOVFF  02,681
0586C:  MOVFF  01,680
05870:  MOVFF  00,67F
.................... // Pendiente determinar si el comportamiento de la mufla es lineal 10C/min o si tiene un comportamiento diferente. 
....................           
....................       if(Temperatura<450 && Temperatura>=200) 
05874:  MOVFF  6CE,939
05878:  MOVFF  6CD,938
0587C:  MOVFF  6CC,937
05880:  MOVFF  6CB,936
05884:  MOVLB  9
05886:  CLRF   x3D
05888:  CLRF   x3C
0588A:  MOVLW  61
0588C:  MOVWF  x3B
0588E:  MOVLW  87
05890:  MOVWF  x3A
05892:  MOVLB  0
05894:  CALL   275A
05898:  BNC   58F6
0589A:  MOVLB  9
0589C:  CLRF   x39
0589E:  CLRF   x38
058A0:  MOVLW  48
058A2:  MOVWF  x37
058A4:  MOVLW  86
058A6:  MOVWF  x36
058A8:  MOVFF  6CE,93D
058AC:  MOVFF  6CD,93C
058B0:  MOVFF  6CC,93B
058B4:  MOVFF  6CB,93A
058B8:  MOVLB  0
058BA:  CALL   275A
058BE:  BC    58C2
058C0:  BNZ   58F6
....................          penMufla=penInicial*0.9; 
058C2:  MOVFF  706,95A
058C6:  MOVFF  705,959
058CA:  MOVFF  704,958
058CE:  MOVFF  703,957
058D2:  MOVLW  66
058D4:  MOVLB  9
058D6:  MOVWF  x5E
058D8:  MOVWF  x5D
058DA:  MOVWF  x5C
058DC:  MOVLW  7E
058DE:  MOVWF  x5B
058E0:  MOVLB  0
058E2:  CALL   227A
058E6:  MOVFF  03,6FE
058EA:  MOVFF  02,6FD
058EE:  MOVFF  01,6FC
058F2:  MOVFF  00,6FB
....................           
....................       if(Temperatura<600 && Temperatura>=450) 
058F6:  MOVFF  6CE,939
058FA:  MOVFF  6CD,938
058FE:  MOVFF  6CC,937
05902:  MOVFF  6CB,936
05906:  MOVLB  9
05908:  CLRF   x3D
0590A:  CLRF   x3C
0590C:  MOVLW  16
0590E:  MOVWF  x3B
05910:  MOVLW  88
05912:  MOVWF  x3A
05914:  MOVLB  0
05916:  CALL   275A
0591A:  BNC   597C
0591C:  MOVLB  9
0591E:  CLRF   x39
05920:  CLRF   x38
05922:  MOVLW  61
05924:  MOVWF  x37
05926:  MOVLW  87
05928:  MOVWF  x36
0592A:  MOVFF  6CE,93D
0592E:  MOVFF  6CD,93C
05932:  MOVFF  6CC,93B
05936:  MOVFF  6CB,93A
0593A:  MOVLB  0
0593C:  CALL   275A
05940:  BC    5944
05942:  BNZ   597C
....................          penMufla=penInicial*0.8; 
05944:  MOVFF  706,95A
05948:  MOVFF  705,959
0594C:  MOVFF  704,958
05950:  MOVFF  703,957
05954:  MOVLW  CD
05956:  MOVLB  9
05958:  MOVWF  x5E
0595A:  MOVLW  CC
0595C:  MOVWF  x5D
0595E:  MOVLW  4C
05960:  MOVWF  x5C
05962:  MOVLW  7E
05964:  MOVWF  x5B
05966:  MOVLB  0
05968:  CALL   227A
0596C:  MOVFF  03,6FE
05970:  MOVFF  02,6FD
05974:  MOVFF  01,6FC
05978:  MOVFF  00,6FB
....................           
....................       if(Temperatura<900 && Temperatura>=600) 
0597C:  MOVFF  6CE,939
05980:  MOVFF  6CD,938
05984:  MOVFF  6CC,937
05988:  MOVFF  6CB,936
0598C:  MOVLB  9
0598E:  CLRF   x3D
05990:  CLRF   x3C
05992:  MOVLW  61
05994:  MOVWF  x3B
05996:  MOVLW  88
05998:  MOVWF  x3A
0599A:  MOVLB  0
0599C:  CALL   275A
059A0:  BNC   59FE
059A2:  MOVLB  9
059A4:  CLRF   x39
059A6:  CLRF   x38
059A8:  MOVLW  16
059AA:  MOVWF  x37
059AC:  MOVLW  88
059AE:  MOVWF  x36
059B0:  MOVFF  6CE,93D
059B4:  MOVFF  6CD,93C
059B8:  MOVFF  6CC,93B
059BC:  MOVFF  6CB,93A
059C0:  MOVLB  0
059C2:  CALL   275A
059C6:  BC    59CA
059C8:  BNZ   59FE
....................          penMufla=penInicial*0.7;   
059CA:  MOVFF  706,95A
059CE:  MOVFF  705,959
059D2:  MOVFF  704,958
059D6:  MOVFF  703,957
059DA:  MOVLW  33
059DC:  MOVLB  9
059DE:  MOVWF  x5E
059E0:  MOVWF  x5D
059E2:  MOVWF  x5C
059E4:  MOVLW  7E
059E6:  MOVWF  x5B
059E8:  MOVLB  0
059EA:  CALL   227A
059EE:  MOVFF  03,6FE
059F2:  MOVFF  02,6FD
059F6:  MOVFF  01,6FC
059FA:  MOVFF  00,6FB
....................           
....................       if(Temperatura<=1200 && Temperatura>=900) 
059FE:  MOVFF  6CE,939
05A02:  MOVFF  6CD,938
05A06:  MOVFF  6CC,937
05A0A:  MOVFF  6CB,936
05A0E:  MOVLB  9
05A10:  CLRF   x3D
05A12:  CLRF   x3C
05A14:  MOVLW  16
05A16:  MOVWF  x3B
05A18:  MOVLW  89
05A1A:  MOVWF  x3A
05A1C:  MOVLB  0
05A1E:  CALL   275A
05A22:  BC    5A26
05A24:  BNZ   5A86
05A26:  MOVLB  9
05A28:  CLRF   x39
05A2A:  CLRF   x38
05A2C:  MOVLW  61
05A2E:  MOVWF  x37
05A30:  MOVLW  88
05A32:  MOVWF  x36
05A34:  MOVFF  6CE,93D
05A38:  MOVFF  6CD,93C
05A3C:  MOVFF  6CC,93B
05A40:  MOVFF  6CB,93A
05A44:  MOVLB  0
05A46:  CALL   275A
05A4A:  BC    5A4E
05A4C:  BNZ   5A86
....................          penMufla=penInicial*0.6;    
05A4E:  MOVFF  706,95A
05A52:  MOVFF  705,959
05A56:  MOVFF  704,958
05A5A:  MOVFF  703,957
05A5E:  MOVLW  9A
05A60:  MOVLB  9
05A62:  MOVWF  x5E
05A64:  MOVLW  99
05A66:  MOVWF  x5D
05A68:  MOVLW  19
05A6A:  MOVWF  x5C
05A6C:  MOVLW  7E
05A6E:  MOVWF  x5B
05A70:  MOVLB  0
05A72:  CALL   227A
05A76:  MOVFF  03,6FE
05A7A:  MOVFF  02,6FD
05A7E:  MOVFF  01,6FC
05A82:  MOVFF  00,6FB
....................        
....................       if(PotenciaEntregada>100.0){ 
05A86:  MOVLB  9
05A88:  CLRF   x39
05A8A:  CLRF   x38
05A8C:  MOVLW  48
05A8E:  MOVWF  x37
05A90:  MOVLW  85
05A92:  MOVWF  x36
05A94:  MOVFF  682,93D
05A98:  MOVFF  681,93C
05A9C:  MOVFF  680,93B
05AA0:  MOVFF  67F,93A
05AA4:  MOVLB  0
05AA6:  CALL   275A
05AAA:  BNC   5ABA
....................          PotenciaEntregada=100.0; 
05AAC:  MOVLB  6
05AAE:  CLRF   x82
05AB0:  CLRF   x81
05AB2:  MOVLW  48
05AB4:  MOVWF  x80
05AB6:  MOVLW  85
05AB8:  MOVWF  x7F
....................       } 
....................        
....................       if(PotenciaEntregada<0){ 
05ABA:  MOVFF  682,939
05ABE:  MOVFF  681,938
05AC2:  MOVFF  680,937
05AC6:  MOVFF  67F,936
05ACA:  MOVLB  9
05ACC:  CLRF   x3D
05ACE:  CLRF   x3C
05AD0:  CLRF   x3B
05AD2:  CLRF   x3A
05AD4:  MOVLB  0
05AD6:  CALL   275A
05ADA:  BNC   5AE8
....................          PotenciaEntregada=0; 
05ADC:  MOVLB  6
05ADE:  CLRF   x82
05AE0:  CLRF   x81
05AE2:  CLRF   x80
05AE4:  CLRF   x7F
05AE6:  MOVLB  0
....................       } 
....................        
....................       Tpulso=(PotenciaEntregada*Tciclo)/100; 
05AE8:  MOVFF  682,95A
05AEC:  MOVFF  681,959
05AF0:  MOVFF  680,958
05AF4:  MOVFF  67F,957
05AF8:  MOVFF  69E,95E
05AFC:  MOVFF  69D,95D
05B00:  MOVFF  69C,95C
05B04:  MOVFF  69B,95B
05B08:  CALL   227A
05B0C:  MOVFF  00,936
05B10:  MOVFF  01,937
05B14:  MOVFF  02,938
05B18:  MOVFF  03,939
05B1C:  MOVFF  03,94E
05B20:  MOVFF  02,94D
05B24:  MOVFF  01,94C
05B28:  MOVFF  00,94B
05B2C:  MOVLB  9
05B2E:  CLRF   x52
05B30:  CLRF   x51
05B32:  MOVLW  48
05B34:  MOVWF  x50
05B36:  MOVLW  85
05B38:  MOVWF  x4F
05B3A:  MOVLB  0
05B3C:  CALL   211C
05B40:  MOVFF  03,6A2
05B44:  MOVFF  02,6A1
05B48:  MOVFF  01,6A0
05B4C:  MOVFF  00,69F
....................    } 
....................    Tp=(int16)(Tpulso/0.005); 
05B50:  MOVFF  6A2,94E
05B54:  MOVFF  6A1,94D
05B58:  MOVFF  6A0,94C
05B5C:  MOVFF  69F,94B
05B60:  MOVLW  0A
05B62:  MOVLB  9
05B64:  MOVWF  x52
05B66:  MOVLW  D7
05B68:  MOVWF  x51
05B6A:  MOVLW  23
05B6C:  MOVWF  x50
05B6E:  MOVLW  77
05B70:  MOVWF  x4F
05B72:  MOVLB  0
05B74:  CALL   211C
05B78:  MOVFF  03,945
05B7C:  MOVFF  02,944
05B80:  MOVFF  01,943
05B84:  MOVFF  00,942
05B88:  CALL   27D4
05B8C:  MOVFF  02,654
05B90:  MOVFF  01,653
....................    Tc=(int16)(Tciclo/0.005); 
05B94:  MOVFF  69E,94E
05B98:  MOVFF  69D,94D
05B9C:  MOVFF  69C,94C
05BA0:  MOVFF  69B,94B
05BA4:  MOVLW  0A
05BA6:  MOVLB  9
05BA8:  MOVWF  x52
05BAA:  MOVLW  D7
05BAC:  MOVWF  x51
05BAE:  MOVLW  23
05BB0:  MOVWF  x50
05BB2:  MOVLW  77
05BB4:  MOVWF  x4F
05BB6:  MOVLB  0
05BB8:  CALL   211C
05BBC:  MOVFF  03,945
05BC0:  MOVFF  02,944
05BC4:  MOVFF  01,943
05BC8:  MOVFF  00,942
05BCC:  CALL   27D4
05BD0:  MOVFF  02,656
05BD4:  MOVFF  01,655
....................           
.................... //--------------------------------------------------------------------------------------------------------------------//    
.................... } 
05BD8:  RETLW  00
....................  
....................  
.................... void Envio_I2C(direccion, posicion, dato){ 
....................  
....................    i2c_start();            // Comienzo comunicacin 
*
028C6:  BSF    F94.4
028C8:  MOVLW  05
028CA:  MOVWF  00
028CC:  DECFSZ 00,F
028CE:  BRA    28CC
028D0:  BSF    F94.3
028D2:  MOVLW  06
028D4:  MOVWF  00
028D6:  DECFSZ 00,F
028D8:  BRA    28D6
028DA:  BCF    F8B.4
028DC:  BCF    F94.4
028DE:  MOVLW  05
028E0:  MOVWF  00
028E2:  DECFSZ 00,F
028E4:  BRA    28E2
028E6:  BCF    F8B.3
028E8:  BCF    F94.3
....................    i2c_write(direccion);   // Direccin del esclavo en el bus I2C 
028EA:  MOVFF  937,93A
028EE:  RCALL  2850
....................    i2c_write(posicion);    // Posicin donde se guardara el dato transmitido 
028F0:  MOVFF  938,93A
028F4:  RCALL  2850
....................    i2c_write(dato);        // Dato a transmitir 
028F6:  MOVFF  939,93A
028FA:  RCALL  2850
....................    i2c_stop();             // Fin comunicacin 
028FC:  BCF    F94.4
028FE:  NOP   
02900:  BSF    F94.3
02902:  BTFSS  F82.3
02904:  BRA    2902
02906:  MOVLW  05
02908:  MOVWF  00
0290A:  DECFSZ 00,F
0290C:  BRA    290A
0290E:  BRA    2910
02910:  NOP   
02912:  BSF    F94.4
02914:  MOVLW  05
02916:  MOVWF  00
02918:  DECFSZ 00,F
0291A:  BRA    2918
....................  } 
0291C:  GOTO   2956 (RETURN)
....................  
.................... void Lectura_I2C (byte direccion, byte posicion, byte &dato) { 
....................  
....................    i2c_start();            // Comienzo de la comunicacin 
....................    i2c_write(direccion);   // Direccin del esclavo en el bus I2C 
....................    i2c_write(posicion);    // Posicin de donde se leer el dato en el esclavo 
....................    i2c_start();            // Reinicio 
....................    i2c_write(direccion+1); // Direccin del esclavo en modo lectura 
....................    dato=i2c_read(0);       // Lectura del dato 
....................    i2c_stop();             // Fin comunicacin 
.................... } 
....................  
.................... void Carga_Vector(void){ 
....................    SlaveA0Tx[0]=make8((int16)Temperatura,0); 
*
02810:  MOVFF  6CE,945
02814:  MOVFF  6CD,944
02818:  MOVFF  6CC,943
0281C:  MOVFF  6CB,942
02820:  RCALL  27D4
02822:  MOVFF  01,417
02826:  MOVLB  4
....................    SlaveA0Tx[1]=make8((int16)Temperatura,1); 
02828:  MOVFF  6CE,945
0282C:  MOVFF  6CD,944
02830:  MOVFF  6CC,943
02834:  MOVFF  6CB,942
02838:  MOVLB  0
0283A:  RCALL  27D4
0283C:  MOVFF  02,418
02840:  MOVLB  4
....................    SlaveA0Tx[2]=0xff; 
02842:  MOVLW  FF
02844:  MOVWF  x19
....................    SlaveA0Tx[3]=0xe0; 
02846:  MOVLW  E0
02848:  MOVWF  x1A
.................... } 
0284A:  MOVLB  0
0284C:  GOTO   2922 (RETURN)
....................  
.................... void Lee_Vector(void){ 
....................    /*Dia=txbuf[0]; 
....................    Mess=txbuf[1]; 
....................    Year=txbuf[2]; 
....................    Hora=txbuf[3]; 
....................    Minuto=txbuf[4]; 
....................    Segundo=txbuf[5]; 
....................    dow=txbuf[6];*/ 
.................... } 
....................  
.................... void Envio_Esclavos(void){ 
....................    Carga_Vector(); 
*
02920:  BRA    2810
....................    for(n=0;n<4;n++) 
02922:  MOVLB  6
02924:  CLRF   x35
02926:  MOVF   x35,W
02928:  SUBLW  03
0292A:  BNC   295C
....................    { 
....................       direccion=0xB0; 
0292C:  MOVLW  B0
0292E:  MOVLB  4
02930:  MOVWF  x38
....................       Envio_I2C(direccion,n,SlaveA0Tx[n]); 
02932:  CLRF   03
02934:  MOVLB  6
02936:  MOVF   x35,W
02938:  ADDLW  17
0293A:  MOVWF  FE9
0293C:  MOVLW  04
0293E:  ADDWFC 03,W
02940:  MOVWF  FEA
02942:  MOVFF  FEF,936
02946:  MOVFF  438,937
0294A:  MOVFF  635,938
0294E:  MOVFF  936,939
02952:  MOVLB  0
02954:  BRA    28C6
....................    }  
02956:  MOVLB  6
02958:  INCF   x35,F
0295A:  BRA    2926
.................... } 
0295C:  MOVLB  0
0295E:  GOTO   686C (RETURN)
.................... void Lectura_Esclavos(void){ 
....................    //for(i=0;i<7;i++) 
....................    //{ 
....................    //   direccion=0xA0;                        //Direccin en el bus I2c 
....................    //   posicion=i;                         //Posicin de memoria a leer 
....................    //   Lectura_I2C(direccion, posicion, dato);    //Lectura por I2C 
....................    //   txbuf[i]=(int8)dato; 
....................    //} 
....................    //Lee_Vector(); 
.................... } 
....................  
.................... void displayMenu(char palabra[30], int x, int y, int sombreado, int tamano) 
.................... { 
....................    strcpy(Menus.Letra,palabra); 
*
01AEE:  MOVLB  9
01AF0:  MOVFF  93D,01
01AF4:  MOVFF  93E,03
01AF8:  MOVFF  93D,943
01AFC:  MOVFF  93E,944
01B00:  MOVLW  09
01B02:  MOVWF  FEA
01B04:  MOVLW  0D
01B06:  MOVWF  FE9
01B08:  MOVFF  93E,FE2
01B0C:  MOVFF  93D,FE1
01B10:  MOVF   FE7,F
01B12:  MOVFF  FE6,FEE
01B16:  BNZ   1B10
....................     
....................    if(sombreado==3) 
01B18:  MOVF   x41,W
01B1A:  SUBLW  03
01B1C:  BNZ   1B44
....................       {glcd_text57(x+1, y+1, Menus.Letra, tamano, OFF);} 
01B1E:  MOVLW  01
01B20:  ADDWF  x3F,W
01B22:  MOVWF  x43
01B24:  MOVLW  01
01B26:  ADDWF  x40,W
01B28:  MOVWF  x44
01B2A:  MOVFF  943,94E
01B2E:  MOVWF  x4F
01B30:  MOVLW  09
01B32:  MOVWF  x51
01B34:  MOVLW  0D
01B36:  MOVWF  x50
01B38:  MOVFF  942,952
01B3C:  CLRF   x53
01B3E:  MOVLB  0
01B40:  RCALL  1936
01B42:  MOVLB  9
....................    if(sombreado==2) 
01B44:  MOVF   x41,W
01B46:  SUBLW  02
01B48:  BNZ   1B72
....................       {glcd_text57(x+1, y+1, Menus.Letra, tamano, ON);} 
01B4A:  MOVLW  01
01B4C:  ADDWF  x3F,W
01B4E:  MOVWF  x43
01B50:  MOVLW  01
01B52:  ADDWF  x40,W
01B54:  MOVWF  x44
01B56:  MOVFF  943,94E
01B5A:  MOVWF  x4F
01B5C:  MOVLW  09
01B5E:  MOVWF  x51
01B60:  MOVLW  0D
01B62:  MOVWF  x50
01B64:  MOVFF  942,952
01B68:  MOVLW  01
01B6A:  MOVWF  x53
01B6C:  MOVLB  0
01B6E:  RCALL  1936
01B70:  MOVLB  9
....................    if(sombreado==1) 
01B72:  DECFSZ x41,W
01B74:  BRA    1BC0
....................       {glcd_rect(0, y, 127, y+(tamano*8), YES, ON);glcd_text57(x+1, y+1, Menus.Letra, tamano, OFF);} 
01B76:  MOVF   x42,W
01B78:  MULLW  08
01B7A:  MOVF   FF3,W
01B7C:  ADDWF  x40,W
01B7E:  MOVWF  x43
01B80:  CLRF   x4E
01B82:  MOVFF  940,94F
01B86:  MOVLW  7F
01B88:  MOVWF  x50
01B8A:  MOVFF  943,951
01B8E:  MOVLW  01
01B90:  MOVWF  x52
01B92:  MOVWF  x53
01B94:  MOVLB  0
01B96:  RCALL  1874
01B98:  MOVLW  01
01B9A:  MOVLB  9
01B9C:  ADDWF  x3F,W
01B9E:  MOVWF  x43
01BA0:  MOVLW  01
01BA2:  ADDWF  x40,W
01BA4:  MOVWF  x44
01BA6:  MOVFF  943,94E
01BAA:  MOVWF  x4F
01BAC:  MOVLW  09
01BAE:  MOVWF  x51
01BB0:  MOVLW  0D
01BB2:  MOVWF  x50
01BB4:  MOVFF  942,952
01BB8:  CLRF   x53
01BBA:  MOVLB  0
01BBC:  RCALL  1936
01BBE:  MOVLB  9
....................    if(sombreado==0) 
01BC0:  MOVF   x41,F
01BC2:  BNZ   1C0E
....................       {glcd_rect(0, y, 127, y+(tamano*8), YES, OFF);glcd_text57(x+1, y+1, Menus.Letra, tamano, ON);} 
01BC4:  MOVF   x42,W
01BC6:  MULLW  08
01BC8:  MOVF   FF3,W
01BCA:  ADDWF  x40,W
01BCC:  MOVWF  x43
01BCE:  CLRF   x4E
01BD0:  MOVFF  940,94F
01BD4:  MOVLW  7F
01BD6:  MOVWF  x50
01BD8:  MOVFF  943,951
01BDC:  MOVLW  01
01BDE:  MOVWF  x52
01BE0:  CLRF   x53
01BE2:  MOVLB  0
01BE4:  RCALL  1874
01BE6:  MOVLW  01
01BE8:  MOVLB  9
01BEA:  ADDWF  x3F,W
01BEC:  MOVWF  x43
01BEE:  MOVLW  01
01BF0:  ADDWF  x40,W
01BF2:  MOVWF  x44
01BF4:  MOVFF  943,94E
01BF8:  MOVWF  x4F
01BFA:  MOVLW  09
01BFC:  MOVWF  x51
01BFE:  MOVLW  0D
01C00:  MOVWF  x50
01C02:  MOVFF  942,952
01C06:  MOVLW  01
01C08:  MOVWF  x53
01C0A:  MOVLB  0
01C0C:  RCALL  1936
....................    glcd_update(); 
01C0E:  MOVLB  0
01C10:  RCALL  151A
.................... } 
01C12:  RETLW  00
....................  
.................... void displayTemps(char palabra[30], int16 digito, int x, int y, int sombreado, int tamano) 
.................... { 
....................    char voltage[9]; 
....................     
....................    if(sombreado==11) 
*
037A6:  MOVLB  9
037A8:  MOVF   x41,W
037AA:  SUBLW  0B
037AC:  BNZ   386C
....................    { 
....................       sprintf(voltage, "%02Lu", digito); 
037AE:  MOVLW  09
037B0:  MOVWF  x2C
037B2:  MOVLW  43
037B4:  MOVWF  x2B
037B6:  MOVLW  0B
037B8:  MOVWF  FE9
037BA:  MOVFF  93E,94D
037BE:  MOVFF  93D,94C
037C2:  MOVLB  0
037C4:  RCALL  3306
....................       glcd_rect(0, y-2, 127, y+(tamano*8), YES, ON); 
037C6:  MOVLW  02
037C8:  MOVLB  9
037CA:  SUBWF  x40,W
037CC:  MOVWF  x4C
037CE:  MOVF   x42,W
037D0:  MULLW  08
037D2:  MOVF   FF3,W
037D4:  ADDWF  x40,W
037D6:  MOVWF  x4D
037D8:  CLRF   x4E
037DA:  MOVFF  94C,94F
037DE:  MOVLW  7F
037E0:  MOVWF  x50
037E2:  MOVFF  94D,951
037E6:  MOVLW  01
037E8:  MOVWF  x52
037EA:  MOVWF  x53
037EC:  MOVLB  0
037EE:  CALL   1874
....................       strcpy(Menus.Letra,palabra); 
037F2:  MOVLB  9
037F4:  MOVFF  93B,01
037F8:  MOVFF  93C,03
037FC:  MOVFF  93B,94C
03800:  MOVFF  93C,94D
03804:  MOVLW  09
03806:  MOVWF  FEA
03808:  MOVLW  0D
0380A:  MOVWF  FE9
0380C:  MOVFF  93C,FE2
03810:  MOVFF  93B,FE1
03814:  MOVF   FE7,F
03816:  MOVFF  FE6,FEE
0381A:  BNZ   3814
....................       glcd_text57(x+90, y+1, voltage, tamano, OFF); 
0381C:  MOVLW  5A
0381E:  ADDWF  x3F,W
03820:  MOVWF  x4C
03822:  MOVLW  01
03824:  ADDWF  x40,W
03826:  MOVWF  x4D
03828:  MOVFF  94C,94E
0382C:  MOVWF  x4F
0382E:  MOVLW  09
03830:  MOVWF  x51
03832:  MOVLW  43
03834:  MOVWF  x50
03836:  MOVFF  942,952
0383A:  CLRF   x53
0383C:  MOVLB  0
0383E:  CALL   1936
....................       glcd_text57(x+1, y+1, Menus.Letra, tamano, OFF); 
03842:  MOVLW  01
03844:  MOVLB  9
03846:  ADDWF  x3F,W
03848:  MOVWF  x4C
0384A:  MOVLW  01
0384C:  ADDWF  x40,W
0384E:  MOVWF  x4D
03850:  MOVFF  94C,94E
03854:  MOVWF  x4F
03856:  MOVLW  09
03858:  MOVWF  x51
0385A:  MOVLW  0D
0385C:  MOVWF  x50
0385E:  MOVFF  942,952
03862:  CLRF   x53
03864:  MOVLB  0
03866:  CALL   1936
0386A:  MOVLB  9
....................    } 
....................    if(sombreado==10) 
0386C:  MOVF   x41,W
0386E:  SUBLW  0A
03870:  BNZ   3934
....................    { 
....................       sprintf(voltage, "%02Lu", digito); 
03872:  MOVLW  09
03874:  MOVWF  x2C
03876:  MOVLW  43
03878:  MOVWF  x2B
0387A:  MOVLW  0B
0387C:  MOVWF  FE9
0387E:  MOVFF  93E,94D
03882:  MOVFF  93D,94C
03886:  MOVLB  0
03888:  RCALL  3306
....................       glcd_rect(0, y-2, 127, y+(tamano*8), YES, OFF); 
0388A:  MOVLW  02
0388C:  MOVLB  9
0388E:  SUBWF  x40,W
03890:  MOVWF  x4C
03892:  MOVF   x42,W
03894:  MULLW  08
03896:  MOVF   FF3,W
03898:  ADDWF  x40,W
0389A:  MOVWF  x4D
0389C:  CLRF   x4E
0389E:  MOVFF  94C,94F
038A2:  MOVLW  7F
038A4:  MOVWF  x50
038A6:  MOVFF  94D,951
038AA:  MOVLW  01
038AC:  MOVWF  x52
038AE:  CLRF   x53
038B0:  MOVLB  0
038B2:  CALL   1874
....................       strcpy(Menus.Letra,palabra); 
038B6:  MOVLB  9
038B8:  MOVFF  93B,01
038BC:  MOVFF  93C,03
038C0:  MOVFF  93B,94C
038C4:  MOVFF  93C,94D
038C8:  MOVLW  09
038CA:  MOVWF  FEA
038CC:  MOVLW  0D
038CE:  MOVWF  FE9
038D0:  MOVFF  93C,FE2
038D4:  MOVFF  93B,FE1
038D8:  MOVF   FE7,F
038DA:  MOVFF  FE6,FEE
038DE:  BNZ   38D8
....................       glcd_text57(x+90, y+1, voltage, tamano, ON); 
038E0:  MOVLW  5A
038E2:  ADDWF  x3F,W
038E4:  MOVWF  x4C
038E6:  MOVLW  01
038E8:  ADDWF  x40,W
038EA:  MOVWF  x4D
038EC:  MOVFF  94C,94E
038F0:  MOVWF  x4F
038F2:  MOVLW  09
038F4:  MOVWF  x51
038F6:  MOVLW  43
038F8:  MOVWF  x50
038FA:  MOVFF  942,952
038FE:  MOVLW  01
03900:  MOVWF  x53
03902:  MOVLB  0
03904:  CALL   1936
....................       glcd_text57(x+1, y+1, Menus.Letra, tamano, ON); 
03908:  MOVLW  01
0390A:  MOVLB  9
0390C:  ADDWF  x3F,W
0390E:  MOVWF  x4C
03910:  MOVLW  01
03912:  ADDWF  x40,W
03914:  MOVWF  x4D
03916:  MOVFF  94C,94E
0391A:  MOVWF  x4F
0391C:  MOVLW  09
0391E:  MOVWF  x51
03920:  MOVLW  0D
03922:  MOVWF  x50
03924:  MOVFF  942,952
03928:  MOVLW  01
0392A:  MOVWF  x53
0392C:  MOVLB  0
0392E:  CALL   1936
03932:  MOVLB  9
....................    } 
....................     
....................    if(sombreado==1) 
03934:  DECFSZ x41,W
03936:  BRA    3A62
....................    { 
....................       sprintf(voltage, "%04Lu", digito); 
03938:  MOVLW  09
0393A:  MOVWF  x2C
0393C:  MOVLW  43
0393E:  MOVWF  x2B
03940:  MOVLW  09
03942:  MOVWF  FE9
03944:  MOVFF  93E,94D
03948:  MOVFF  93D,94C
0394C:  MOVLB  0
0394E:  RCALL  3306
....................       glcd_rect(0, y-2, 127, y+(tamano*8), YES, ON); 
03950:  MOVLW  02
03952:  MOVLB  9
03954:  SUBWF  x40,W
03956:  MOVWF  x4C
03958:  MOVF   x42,W
0395A:  MULLW  08
0395C:  MOVF   FF3,W
0395E:  ADDWF  x40,W
03960:  MOVWF  x4D
03962:  CLRF   x4E
03964:  MOVFF  94C,94F
03968:  MOVLW  7F
0396A:  MOVWF  x50
0396C:  MOVFF  94D,951
03970:  MOVLW  01
03972:  MOVWF  x52
03974:  MOVWF  x53
03976:  MOVLB  0
03978:  CALL   1874
....................       strcpy(Menus.Letra,palabra); 
0397C:  MOVLB  9
0397E:  MOVFF  93B,01
03982:  MOVFF  93C,03
03986:  MOVFF  93B,94C
0398A:  MOVFF  93C,94D
0398E:  MOVLW  09
03990:  MOVWF  FEA
03992:  MOVLW  0D
03994:  MOVWF  FE9
03996:  MOVFF  93C,FE2
0399A:  MOVFF  93B,FE1
0399E:  MOVF   FE7,F
039A0:  MOVFF  FE6,FEE
039A4:  BNZ   399E
....................       glcd_text57(x+90, y+1, voltage, tamano, OFF); 
039A6:  MOVLW  5A
039A8:  ADDWF  x3F,W
039AA:  MOVWF  x4C
039AC:  MOVLW  01
039AE:  ADDWF  x40,W
039B0:  MOVWF  x4D
039B2:  MOVFF  94C,94E
039B6:  MOVWF  x4F
039B8:  MOVLW  09
039BA:  MOVWF  x51
039BC:  MOVLW  43
039BE:  MOVWF  x50
039C0:  MOVFF  942,952
039C4:  CLRF   x53
039C6:  MOVLB  0
039C8:  CALL   1936
....................       glcd_text57(x+1, y+1, Menus.Letra, tamano, OFF); 
039CC:  MOVLW  01
039CE:  MOVLB  9
039D0:  ADDWF  x3F,W
039D2:  MOVWF  x4C
039D4:  MOVLW  01
039D6:  ADDWF  x40,W
039D8:  MOVWF  x4D
039DA:  MOVFF  94C,94E
039DE:  MOVWF  x4F
039E0:  MOVLW  09
039E2:  MOVWF  x51
039E4:  MOVLW  0D
039E6:  MOVWF  x50
039E8:  MOVFF  942,952
039EC:  CLRF   x53
039EE:  MOVLB  0
039F0:  CALL   1936
....................       strcpy(Menus.Letra,"C"); 
039F4:  MOVLW  09
039F6:  MOVWF  FEA
039F8:  MOVLW  0D
039FA:  MOVWF  FE9
039FC:  MOVFF  FF2,94C
03A00:  BCF    FF2.7
03A02:  MOVLW  00
03A04:  CALL   06D2
03A08:  TBLRD*-
03A0A:  TBLRD*+
03A0C:  MOVF   FF5,W
03A0E:  MOVWF  FEE
03A10:  IORLW  00
03A12:  BNZ   3A0A
03A14:  MOVLB  9
03A16:  BTFSC  x4C.7
03A18:  BSF    FF2.7
....................       glcd_text57(x+120, y+1, Menus.Letra, tamano, OFF); 
03A1A:  MOVLW  78
03A1C:  ADDWF  x3F,W
03A1E:  MOVWF  x4C
03A20:  MOVLW  01
03A22:  ADDWF  x40,W
03A24:  MOVWF  x4D
03A26:  MOVFF  94C,94E
03A2A:  MOVWF  x4F
03A2C:  MOVLW  09
03A2E:  MOVWF  x51
03A30:  MOVLW  0D
03A32:  MOVWF  x50
03A34:  MOVFF  942,952
03A38:  CLRF   x53
03A3A:  MOVLB  0
03A3C:  CALL   1936
....................       glcd_circle(x+115,y-1,1,NO,OFF); 
03A40:  MOVLW  73
03A42:  MOVLB  9
03A44:  ADDWF  x3F,W
03A46:  MOVWF  x4C
03A48:  MOVLW  01
03A4A:  SUBWF  x40,W
03A4C:  MOVWF  x4D
03A4E:  MOVFF  94C,94E
03A52:  MOVWF  x4F
03A54:  MOVLW  01
03A56:  MOVWF  x50
03A58:  CLRF   x51
03A5A:  CLRF   x52
03A5C:  MOVLB  0
03A5E:  RCALL  357C
03A60:  MOVLB  9
....................    } 
....................    if(sombreado==0) 
03A62:  MOVF   x41,F
03A64:  BTFSS  FD8.2
03A66:  BRA    3B96
....................    { 
....................       sprintf(voltage, "%04Lu", digito); 
03A68:  MOVLW  09
03A6A:  MOVWF  x2C
03A6C:  MOVLW  43
03A6E:  MOVWF  x2B
03A70:  MOVLW  09
03A72:  MOVWF  FE9
03A74:  MOVFF  93E,94D
03A78:  MOVFF  93D,94C
03A7C:  MOVLB  0
03A7E:  RCALL  3306
....................       glcd_rect(0, y-2, 127, y+(tamano*8), YES, OFF); 
03A80:  MOVLW  02
03A82:  MOVLB  9
03A84:  SUBWF  x40,W
03A86:  MOVWF  x4C
03A88:  MOVF   x42,W
03A8A:  MULLW  08
03A8C:  MOVF   FF3,W
03A8E:  ADDWF  x40,W
03A90:  MOVWF  x4D
03A92:  CLRF   x4E
03A94:  MOVFF  94C,94F
03A98:  MOVLW  7F
03A9A:  MOVWF  x50
03A9C:  MOVFF  94D,951
03AA0:  MOVLW  01
03AA2:  MOVWF  x52
03AA4:  CLRF   x53
03AA6:  MOVLB  0
03AA8:  CALL   1874
....................       strcpy(Menus.Letra,palabra); 
03AAC:  MOVLB  9
03AAE:  MOVFF  93B,01
03AB2:  MOVFF  93C,03
03AB6:  MOVFF  93B,94C
03ABA:  MOVFF  93C,94D
03ABE:  MOVLW  09
03AC0:  MOVWF  FEA
03AC2:  MOVLW  0D
03AC4:  MOVWF  FE9
03AC6:  MOVFF  93C,FE2
03ACA:  MOVFF  93B,FE1
03ACE:  MOVF   FE7,F
03AD0:  MOVFF  FE6,FEE
03AD4:  BNZ   3ACE
....................       glcd_text57(x+90, y+1, voltage, tamano, ON); 
03AD6:  MOVLW  5A
03AD8:  ADDWF  x3F,W
03ADA:  MOVWF  x4C
03ADC:  MOVLW  01
03ADE:  ADDWF  x40,W
03AE0:  MOVWF  x4D
03AE2:  MOVFF  94C,94E
03AE6:  MOVWF  x4F
03AE8:  MOVLW  09
03AEA:  MOVWF  x51
03AEC:  MOVLW  43
03AEE:  MOVWF  x50
03AF0:  MOVFF  942,952
03AF4:  MOVLW  01
03AF6:  MOVWF  x53
03AF8:  MOVLB  0
03AFA:  CALL   1936
....................       glcd_text57(x+1, y+1, Menus.Letra, tamano, ON); 
03AFE:  MOVLW  01
03B00:  MOVLB  9
03B02:  ADDWF  x3F,W
03B04:  MOVWF  x4C
03B06:  MOVLW  01
03B08:  ADDWF  x40,W
03B0A:  MOVWF  x4D
03B0C:  MOVFF  94C,94E
03B10:  MOVWF  x4F
03B12:  MOVLW  09
03B14:  MOVWF  x51
03B16:  MOVLW  0D
03B18:  MOVWF  x50
03B1A:  MOVFF  942,952
03B1E:  MOVLW  01
03B20:  MOVWF  x53
03B22:  MOVLB  0
03B24:  CALL   1936
....................       strcpy(Menus.Letra,"C"); 
03B28:  MOVLW  09
03B2A:  MOVWF  FEA
03B2C:  MOVLW  0D
03B2E:  MOVWF  FE9
03B30:  MOVFF  FF2,94C
03B34:  BCF    FF2.7
03B36:  MOVLW  00
03B38:  CALL   06D2
03B3C:  TBLRD*-
03B3E:  TBLRD*+
03B40:  MOVF   FF5,W
03B42:  MOVWF  FEE
03B44:  IORLW  00
03B46:  BNZ   3B3E
03B48:  MOVLB  9
03B4A:  BTFSC  x4C.7
03B4C:  BSF    FF2.7
....................       glcd_text57(x+120, y+1, Menus.Letra, tamano, ON); 
03B4E:  MOVLW  78
03B50:  ADDWF  x3F,W
03B52:  MOVWF  x4C
03B54:  MOVLW  01
03B56:  ADDWF  x40,W
03B58:  MOVWF  x4D
03B5A:  MOVFF  94C,94E
03B5E:  MOVWF  x4F
03B60:  MOVLW  09
03B62:  MOVWF  x51
03B64:  MOVLW  0D
03B66:  MOVWF  x50
03B68:  MOVFF  942,952
03B6C:  MOVLW  01
03B6E:  MOVWF  x53
03B70:  MOVLB  0
03B72:  CALL   1936
....................       glcd_circle(x+115,y-1,1,NO,ON); 
03B76:  MOVLW  73
03B78:  MOVLB  9
03B7A:  ADDWF  x3F,W
03B7C:  MOVWF  x4C
03B7E:  MOVLW  01
03B80:  SUBWF  x40,W
03B82:  MOVWF  x4D
03B84:  MOVFF  94C,94E
03B88:  MOVWF  x4F
03B8A:  MOVLW  01
03B8C:  MOVWF  x50
03B8E:  CLRF   x51
03B90:  MOVWF  x52
03B92:  MOVLB  0
03B94:  RCALL  357C
....................    } 
....................    glcd_update(); 
03B96:  MOVLB  0
03B98:  CALL   151A
.................... } 
03B9C:  RETLW  00
....................  
.................... void displayTiempo(int digito, int x, int y, int sombreado, int tamano) 
.................... { 
....................    char voltage[9]; 
....................     
....................    if(sombreado==2) 
*
02FD6:  MOVLB  9
02FD8:  MOVF   x3C,W
02FDA:  SUBLW  02
02FDC:  BNZ   304E
....................    { 
....................       sprintf(voltage, "%03u", digito); 
02FDE:  MOVLW  09
02FE0:  MOVWF  x2C
02FE2:  MOVLW  3E
02FE4:  MOVWF  x2B
02FE6:  MOVFF  939,947
02FEA:  MOVLW  03
02FEC:  MOVWF  x48
02FEE:  MOVLB  0
02FF0:  RCALL  2F50
....................       glcd_rect(x, y, x+(tamano*18), y+(tamano*8), YES, ON); 
02FF2:  MOVLB  9
02FF4:  MOVF   x3D,W
02FF6:  MULLW  12
02FF8:  MOVF   FF3,W
02FFA:  ADDWF  x3A,W
02FFC:  MOVWF  x47
02FFE:  MOVF   x3D,W
03000:  MULLW  08
03002:  MOVF   FF3,W
03004:  ADDWF  x3B,W
03006:  MOVWF  x48
03008:  MOVFF  93A,94E
0300C:  MOVFF  93B,94F
03010:  MOVFF  947,950
03014:  MOVWF  x51
03016:  MOVLW  01
03018:  MOVWF  x52
0301A:  MOVWF  x53
0301C:  MOVLB  0
0301E:  CALL   1874
....................       glcd_text57(x+1, y+1, voltage, tamano, OFF); 
03022:  MOVLW  01
03024:  MOVLB  9
03026:  ADDWF  x3A,W
03028:  MOVWF  x47
0302A:  MOVLW  01
0302C:  ADDWF  x3B,W
0302E:  MOVWF  x48
03030:  MOVFF  947,94E
03034:  MOVWF  x4F
03036:  MOVLW  09
03038:  MOVWF  x51
0303A:  MOVLW  3E
0303C:  MOVWF  x50
0303E:  MOVFF  93D,952
03042:  CLRF   x53
03044:  MOVLB  0
03046:  CALL   1936
....................    } 
....................    else 
0304A:  BRA    3192
0304C:  MOVLB  9
....................    { 
....................       if(sombreado==3) 
0304E:  MOVF   x3C,W
03050:  SUBLW  03
03052:  BNZ   30C4
....................       { 
....................          sprintf(voltage, "%03u", digito); 
03054:  MOVLW  09
03056:  MOVWF  x2C
03058:  MOVLW  3E
0305A:  MOVWF  x2B
0305C:  MOVFF  939,947
03060:  MOVLW  03
03062:  MOVWF  x48
03064:  MOVLB  0
03066:  RCALL  2F50
....................          glcd_rect(x, y, x+(tamano*18), y+(tamano*8), YES, OFF); 
03068:  MOVLB  9
0306A:  MOVF   x3D,W
0306C:  MULLW  12
0306E:  MOVF   FF3,W
03070:  ADDWF  x3A,W
03072:  MOVWF  x47
03074:  MOVF   x3D,W
03076:  MULLW  08
03078:  MOVF   FF3,W
0307A:  ADDWF  x3B,W
0307C:  MOVWF  x48
0307E:  MOVFF  93A,94E
03082:  MOVFF  93B,94F
03086:  MOVFF  947,950
0308A:  MOVWF  x51
0308C:  MOVLW  01
0308E:  MOVWF  x52
03090:  CLRF   x53
03092:  MOVLB  0
03094:  CALL   1874
....................          glcd_text57(x+1, y+1, voltage, tamano, ON); 
03098:  MOVLW  01
0309A:  MOVLB  9
0309C:  ADDWF  x3A,W
0309E:  MOVWF  x47
030A0:  MOVLW  01
030A2:  ADDWF  x3B,W
030A4:  MOVWF  x48
030A6:  MOVFF  947,94E
030AA:  MOVWF  x4F
030AC:  MOVLW  09
030AE:  MOVWF  x51
030B0:  MOVLW  3E
030B2:  MOVWF  x50
030B4:  MOVFF  93D,952
030B8:  MOVLW  01
030BA:  MOVWF  x53
030BC:  MOVLB  0
030BE:  CALL   1936
030C2:  MOVLB  9
....................       } 
....................       sprintf(voltage, "%u", digito); 
030C4:  MOVLW  09
030C6:  MOVWF  x2C
030C8:  MOVLW  3E
030CA:  MOVWF  x2B
030CC:  MOVFF  939,947
030D0:  MOVLW  1B
030D2:  MOVWF  x48
030D4:  MOVLB  0
030D6:  RCALL  2F50
....................       if(sombreado==1) 
030D8:  MOVLB  9
030DA:  DECFSZ x3C,W
030DC:  BRA    3136
....................          {glcd_rect(x, y, x+(tamano*5), y+(tamano*8), YES, ON);glcd_text57(x+1, y+1, voltage, tamano, OFF);} 
030DE:  MOVF   x3D,W
030E0:  MULLW  05
030E2:  MOVF   FF3,W
030E4:  ADDWF  x3A,W
030E6:  MOVWF  x47
030E8:  MOVF   x3D,W
030EA:  MULLW  08
030EC:  MOVF   FF3,W
030EE:  ADDWF  x3B,W
030F0:  MOVWF  x48
030F2:  MOVFF  93A,94E
030F6:  MOVFF  93B,94F
030FA:  MOVFF  947,950
030FE:  MOVWF  x51
03100:  MOVLW  01
03102:  MOVWF  x52
03104:  MOVWF  x53
03106:  MOVLB  0
03108:  CALL   1874
0310C:  MOVLW  01
0310E:  MOVLB  9
03110:  ADDWF  x3A,W
03112:  MOVWF  x47
03114:  MOVLW  01
03116:  ADDWF  x3B,W
03118:  MOVWF  x48
0311A:  MOVFF  947,94E
0311E:  MOVWF  x4F
03120:  MOVLW  09
03122:  MOVWF  x51
03124:  MOVLW  3E
03126:  MOVWF  x50
03128:  MOVFF  93D,952
0312C:  CLRF   x53
0312E:  MOVLB  0
03130:  CALL   1936
03134:  MOVLB  9
....................       if(sombreado==0) 
03136:  MOVF   x3C,F
03138:  BNZ   3194
....................          {glcd_rect(x, y, x+(tamano*5), y+(tamano*8), YES, OFF);glcd_text57(x+1, y+1, voltage, tamano, ON);} 
0313A:  MOVF   x3D,W
0313C:  MULLW  05
0313E:  MOVF   FF3,W
03140:  ADDWF  x3A,W
03142:  MOVWF  x47
03144:  MOVF   x3D,W
03146:  MULLW  08
03148:  MOVF   FF3,W
0314A:  ADDWF  x3B,W
0314C:  MOVWF  x48
0314E:  MOVFF  93A,94E
03152:  MOVFF  93B,94F
03156:  MOVFF  947,950
0315A:  MOVWF  x51
0315C:  MOVLW  01
0315E:  MOVWF  x52
03160:  CLRF   x53
03162:  MOVLB  0
03164:  CALL   1874
03168:  MOVLW  01
0316A:  MOVLB  9
0316C:  ADDWF  x3A,W
0316E:  MOVWF  x47
03170:  MOVLW  01
03172:  ADDWF  x3B,W
03174:  MOVWF  x48
03176:  MOVFF  947,94E
0317A:  MOVWF  x4F
0317C:  MOVLW  09
0317E:  MOVWF  x51
03180:  MOVLW  3E
03182:  MOVWF  x50
03184:  MOVFF  93D,952
03188:  MOVLW  01
0318A:  MOVWF  x53
0318C:  MOVLB  0
0318E:  CALL   1936
03192:  MOVLB  9
....................    } 
....................    glcd_update(); 
03194:  MOVLB  0
03196:  CALL   151A
.................... } 
0319A:  RETLW  00
....................  
.................... void displayTemperatura(int16 digito, int x, int y, int sombreado, int tamano) 
.................... { 
....................    char voltage[9]; 
....................     
....................    if(sombreado==2) 
*
033C4:  MOVLB  9
033C6:  MOVF   x3F,W
033C8:  SUBLW  02
033CA:  BNZ   3440
....................    { 
....................       sprintf(voltage, "%04Lu", digito); 
033CC:  MOVLW  09
033CE:  MOVWF  x2C
033D0:  MOVLW  41
033D2:  MOVWF  x2B
033D4:  MOVLW  09
033D6:  MOVWF  FE9
033D8:  MOVFF  93C,94D
033DC:  MOVFF  93B,94C
033E0:  MOVLB  0
033E2:  RCALL  3306
....................       glcd_rect(x, y, x+(tamano*18), y+(tamano*8), YES, ON); 
033E4:  MOVLB  9
033E6:  MOVF   x40,W
033E8:  MULLW  12
033EA:  MOVF   FF3,W
033EC:  ADDWF  x3D,W
033EE:  MOVWF  x4A
033F0:  MOVF   x40,W
033F2:  MULLW  08
033F4:  MOVF   FF3,W
033F6:  ADDWF  x3E,W
033F8:  MOVWF  x4B
033FA:  MOVFF  93D,94E
033FE:  MOVFF  93E,94F
03402:  MOVFF  94A,950
03406:  MOVWF  x51
03408:  MOVLW  01
0340A:  MOVWF  x52
0340C:  MOVWF  x53
0340E:  MOVLB  0
03410:  CALL   1874
....................       glcd_text57(x+1, y+1, voltage, tamano, OFF); 
03414:  MOVLW  01
03416:  MOVLB  9
03418:  ADDWF  x3D,W
0341A:  MOVWF  x4A
0341C:  MOVLW  01
0341E:  ADDWF  x3E,W
03420:  MOVWF  x4B
03422:  MOVFF  94A,94E
03426:  MOVWF  x4F
03428:  MOVLW  09
0342A:  MOVWF  x51
0342C:  MOVLW  41
0342E:  MOVWF  x50
03430:  MOVFF  940,952
03434:  CLRF   x53
03436:  MOVLB  0
03438:  CALL   1936
....................    } 
....................    else 
0343C:  BRA    3572
0343E:  MOVLB  9
....................    { 
....................       sprintf(voltage, "%04Lu", digito); 
03440:  MOVLW  09
03442:  MOVWF  x2C
03444:  MOVLW  41
03446:  MOVWF  x2B
03448:  MOVLW  09
0344A:  MOVWF  FE9
0344C:  MOVFF  93C,94D
03450:  MOVFF  93B,94C
03454:  MOVLB  0
03456:  RCALL  3306
....................     
....................       if(sombreado==4) 
03458:  MOVLB  9
0345A:  MOVF   x3F,W
0345C:  SUBLW  04
0345E:  BNZ   34BA
....................       { 
....................          glcd_rect(x, y, x+(tamano*16), y+(tamano*8), YES, OFF); 
03460:  MOVF   x40,W
03462:  MULLW  10
03464:  MOVF   FF3,W
03466:  ADDWF  x3D,W
03468:  MOVWF  x4A
0346A:  MOVF   x40,W
0346C:  MULLW  08
0346E:  MOVF   FF3,W
03470:  ADDWF  x3E,W
03472:  MOVWF  x4B
03474:  MOVFF  93D,94E
03478:  MOVFF  93E,94F
0347C:  MOVFF  94A,950
03480:  MOVWF  x51
03482:  MOVLW  01
03484:  MOVWF  x52
03486:  CLRF   x53
03488:  MOVLB  0
0348A:  CALL   1874
....................          glcd_text57(x+1, y+1, voltage, tamano, ON); 
0348E:  MOVLW  01
03490:  MOVLB  9
03492:  ADDWF  x3D,W
03494:  MOVWF  x4A
03496:  MOVLW  01
03498:  ADDWF  x3E,W
0349A:  MOVWF  x4B
0349C:  MOVFF  94A,94E
034A0:  MOVWF  x4F
034A2:  MOVLW  09
034A4:  MOVWF  x51
034A6:  MOVLW  41
034A8:  MOVWF  x50
034AA:  MOVFF  940,952
034AE:  MOVLW  01
034B0:  MOVWF  x53
034B2:  MOVLB  0
034B4:  CALL   1936
034B8:  MOVLB  9
....................       } 
....................       if(sombreado==1) 
034BA:  DECFSZ x3F,W
034BC:  BRA    3516
....................          {glcd_rect(x, y, x+(tamano*5), y+(tamano*8), YES, ON);glcd_text57(x+1, y+1, voltage, tamano, OFF);} 
034BE:  MOVF   x40,W
034C0:  MULLW  05
034C2:  MOVF   FF3,W
034C4:  ADDWF  x3D,W
034C6:  MOVWF  x4A
034C8:  MOVF   x40,W
034CA:  MULLW  08
034CC:  MOVF   FF3,W
034CE:  ADDWF  x3E,W
034D0:  MOVWF  x4B
034D2:  MOVFF  93D,94E
034D6:  MOVFF  93E,94F
034DA:  MOVFF  94A,950
034DE:  MOVWF  x51
034E0:  MOVLW  01
034E2:  MOVWF  x52
034E4:  MOVWF  x53
034E6:  MOVLB  0
034E8:  CALL   1874
034EC:  MOVLW  01
034EE:  MOVLB  9
034F0:  ADDWF  x3D,W
034F2:  MOVWF  x4A
034F4:  MOVLW  01
034F6:  ADDWF  x3E,W
034F8:  MOVWF  x4B
034FA:  MOVFF  94A,94E
034FE:  MOVWF  x4F
03500:  MOVLW  09
03502:  MOVWF  x51
03504:  MOVLW  41
03506:  MOVWF  x50
03508:  MOVFF  940,952
0350C:  CLRF   x53
0350E:  MOVLB  0
03510:  CALL   1936
03514:  MOVLB  9
....................       if(sombreado==0) 
03516:  MOVF   x3F,F
03518:  BNZ   3574
....................          {glcd_rect(x, y, x+(tamano*5), y+(tamano*8), YES, OFF);glcd_text57(x+1, y+1, voltage, tamano, ON);} 
0351A:  MOVF   x40,W
0351C:  MULLW  05
0351E:  MOVF   FF3,W
03520:  ADDWF  x3D,W
03522:  MOVWF  x4A
03524:  MOVF   x40,W
03526:  MULLW  08
03528:  MOVF   FF3,W
0352A:  ADDWF  x3E,W
0352C:  MOVWF  x4B
0352E:  MOVFF  93D,94E
03532:  MOVFF  93E,94F
03536:  MOVFF  94A,950
0353A:  MOVWF  x51
0353C:  MOVLW  01
0353E:  MOVWF  x52
03540:  CLRF   x53
03542:  MOVLB  0
03544:  CALL   1874
03548:  MOVLW  01
0354A:  MOVLB  9
0354C:  ADDWF  x3D,W
0354E:  MOVWF  x4A
03550:  MOVLW  01
03552:  ADDWF  x3E,W
03554:  MOVWF  x4B
03556:  MOVFF  94A,94E
0355A:  MOVWF  x4F
0355C:  MOVLW  09
0355E:  MOVWF  x51
03560:  MOVLW  41
03562:  MOVWF  x50
03564:  MOVFF  940,952
03568:  MOVLW  01
0356A:  MOVWF  x53
0356C:  MOVLB  0
0356E:  CALL   1936
03572:  MOVLB  9
....................    } 
....................    glcd_update(); 
03574:  MOVLB  0
03576:  CALL   151A
.................... } 
0357A:  RETLW  00
....................  
.................... void glcd_imagen(int8 x) 
.................... { 
....................    char i,j; 
....................    signed char k;  
....................     
....................    if(x==5){ 
*
04858:  MOVLB  9
0485A:  MOVF   x36,W
0485C:  SUBLW  05
0485E:  BNZ   4904
....................    for( i = 0 ; i < 64 ; i ++ ) 
04860:  CLRF   x37
04862:  MOVF   x37,W
04864:  SUBLW  3F
04866:  BNC   4904
....................    {   
....................       for( j = 0 ; j < 16 ; j ++) 
04868:  CLRF   x38
0486A:  MOVF   x38,W
0486C:  SUBLW  0F
0486E:  BNC   4900
....................       {     
....................          for(k=7;k>-1;k--) 
04870:  MOVLW  07
04872:  MOVWF  x39
04874:  MOVF   x39,W
04876:  XORLW  80
04878:  SUBLW  7F
0487A:  BC    48FC
....................          {       
....................             if( bit_test(Horno[i][j] ,7-k ))  
0487C:  CLRF   x3B
0487E:  MOVFF  937,93A
04882:  CLRF   x3D
04884:  MOVLW  10
04886:  MOVWF  x3C
04888:  MOVLB  0
0488A:  CALL   1E82
0488E:  MOVFF  02,93B
04892:  MOVFF  01,93A
04896:  MOVLB  9
04898:  MOVF   x38,W
0489A:  ADDWF  01,W
0489C:  MOVWF  01
0489E:  MOVLW  00
048A0:  ADDWFC 02,W
048A2:  MOVWF  03
048A4:  MOVF   01,W
048A6:  MOVFF  FF2,93A
048AA:  BCF    FF2.7
048AC:  MOVFF  03,FF7
048B0:  MOVLB  0
048B2:  CALL   02B6
048B6:  MOVLB  9
048B8:  BTFSC  x3A.7
048BA:  BSF    FF2.7
048BC:  MOVWF  x3A
048BE:  MOVLW  07
048C0:  BSF    FD8.0
048C2:  SUBFWB x39,W
048C4:  MOVWF  x3B
048C6:  MOVFF  93A,00
048CA:  MOVF   x3B,W
048CC:  MOVWF  01
048CE:  BZ    48D8
048D0:  BCF    FD8.0
048D2:  RRCF   00,F
048D4:  DECFSZ 01,F
048D6:  BRA    48D0
048D8:  BTFSS  00.0
048DA:  BRA    48F8
....................                glcd_pixel( j*8+k,i, ON ); 
048DC:  MOVF   x38,W
048DE:  MULLW  08
048E0:  MOVF   FF3,W
048E2:  ADDWF  x39,W
048E4:  MOVWF  x3A
048E6:  MOVWF  x6A
048E8:  MOVFF  937,96B
048EC:  MOVLW  01
048EE:  MOVWF  x6C
048F0:  MOVLB  0
048F2:  CALL   167A
048F6:  MOVLB  9
....................          }   
048F8:  DECF   x39,F
048FA:  BRA    4874
....................       } 
048FC:  INCF   x38,F
048FE:  BRA    486A
....................    } 
04900:  INCF   x37,F
04902:  BRA    4862
....................    } 
....................     
.................... } 
04904:  MOVLB  0
04906:  GOTO   8F18 (RETURN)
....................     
.................... void Limpia(int x1,int x2,int y){ 
....................    glcd_rect(x1, y, x2, y+7, YES, OFF); 
.................... } 
....................  
.................... void displayT(int16 adc,int x,int y,int w) { 
....................    char voltage[9];     
....................    sprintf(voltage, "%04Lu",adc); // Converts adc to text 
*
05BDA:  MOVLW  09
05BDC:  MOVLB  9
05BDE:  MOVWF  x2C
05BE0:  MOVLW  3D
05BE2:  MOVWF  x2B
05BE4:  MOVLW  09
05BE6:  MOVWF  FE9
05BE8:  MOVFF  939,94D
05BEC:  MOVFF  938,94C
05BF0:  MOVLB  0
05BF2:  CALL   3306
....................    glcd_rect(x, y, x+(w*27), y+(w*8), YES, OFF); 
05BF6:  MOVLB  9
05BF8:  MOVF   x3C,W
05BFA:  MULLW  1B
05BFC:  MOVF   FF3,W
05BFE:  ADDWF  x3A,W
05C00:  MOVWF  x46
05C02:  MOVF   x3C,W
05C04:  MULLW  08
05C06:  MOVF   FF3,W
05C08:  ADDWF  x3B,W
05C0A:  MOVWF  x47
05C0C:  MOVFF  93A,94E
05C10:  MOVFF  93B,94F
05C14:  MOVFF  946,950
05C18:  MOVWF  x51
05C1A:  MOVLW  01
05C1C:  MOVWF  x52
05C1E:  CLRF   x53
05C20:  MOVLB  0
05C22:  CALL   1874
....................    glcd_text57(x, y, voltage, w, ON); 
05C26:  MOVFF  93A,94E
05C2A:  MOVFF  93B,94F
05C2E:  MOVLW  09
05C30:  MOVLB  9
05C32:  MOVWF  x51
05C34:  MOVLW  3D
05C36:  MOVWF  x50
05C38:  MOVFF  93C,952
05C3C:  MOVLW  01
05C3E:  MOVWF  x53
05C40:  MOVLB  0
05C42:  CALL   1936
.................... } 
05C46:  GOTO   98B0 (RETURN)
....................  
.................... void displayFloat(float adc,int x,int y,int w) { 
....................    char voltage[9];     
....................    sprintf(voltage, "%03.2f",adc); // Converts adc to text 
*
05EC2:  MOVLW  09
05EC4:  MOVLB  9
05EC6:  MOVWF  x2C
05EC8:  MOVLW  41
05ECA:  MOVWF  x2B
05ECC:  MOVLW  42
05ECE:  MOVWF  FE9
05ED0:  MOVFF  93D,94D
05ED4:  MOVFF  93C,94C
05ED8:  MOVFF  93B,94B
05EDC:  MOVFF  93A,94A
05EE0:  MOVLW  02
05EE2:  MOVWF  x4E
05EE4:  MOVLB  0
05EE6:  RCALL  5D0E
....................    glcd_rect(x, y, x+(w*27), y+(w*8), YES, OFF); 
05EE8:  MOVLB  9
05EEA:  MOVF   x40,W
05EEC:  MULLW  1B
05EEE:  MOVF   FF3,W
05EF0:  ADDWF  x3E,W
05EF2:  MOVWF  x4A
05EF4:  MOVF   x40,W
05EF6:  MULLW  08
05EF8:  MOVF   FF3,W
05EFA:  ADDWF  x3F,W
05EFC:  MOVWF  x4B
05EFE:  MOVFF  93E,94E
05F02:  MOVFF  93F,94F
05F06:  MOVFF  94A,950
05F0A:  MOVWF  x51
05F0C:  MOVLW  01
05F0E:  MOVWF  x52
05F10:  CLRF   x53
05F12:  MOVLB  0
05F14:  CALL   1874
....................    glcd_text57(x, y, voltage, w, ON); 
05F18:  MOVFF  93E,94E
05F1C:  MOVFF  93F,94F
05F20:  MOVLW  09
05F22:  MOVLB  9
05F24:  MOVWF  x51
05F26:  MOVLW  41
05F28:  MOVWF  x50
05F2A:  MOVFF  940,952
05F2E:  MOVLW  01
05F30:  MOVWF  x53
05F32:  MOVLB  0
05F34:  CALL   1936
.................... } 
05F38:  RETLW  00
....................  
.................... void displayContrasena(int digito, int x, int y, int sombreado) 
.................... { 
....................    char voltage[9]; 
....................    sprintf(voltage, "%i", digito); 
*
01D40:  MOVLW  09
01D42:  MOVLB  9
01D44:  MOVWF  x2C
01D46:  MOVLW  43
01D48:  MOVWF  x2B
01D4A:  MOVFF  93F,94C
01D4E:  MOVLW  1F
01D50:  MOVWF  x4D
01D52:  MOVLB  0
01D54:  BRA    1C60
....................     
....................    if(sombreado==1) 
01D56:  MOVLB  9
01D58:  DECFSZ x42,W
01D5A:  BRA    1DAA
....................       {glcd_rect(x, y, x+18, y+24, YES, ON);glcd_text57(x+2, y+1, voltage, 2, OFF);} 
01D5C:  MOVLW  12
01D5E:  ADDWF  x40,W
01D60:  MOVWF  x4C
01D62:  MOVLW  18
01D64:  ADDWF  x41,W
01D66:  MOVWF  x4D
01D68:  MOVFF  940,94E
01D6C:  MOVFF  941,94F
01D70:  MOVFF  94C,950
01D74:  MOVWF  x51
01D76:  MOVLW  01
01D78:  MOVWF  x52
01D7A:  MOVWF  x53
01D7C:  MOVLB  0
01D7E:  RCALL  1874
01D80:  MOVLW  02
01D82:  MOVLB  9
01D84:  ADDWF  x40,W
01D86:  MOVWF  x4C
01D88:  MOVLW  01
01D8A:  ADDWF  x41,W
01D8C:  MOVWF  x4D
01D8E:  MOVFF  94C,94E
01D92:  MOVWF  x4F
01D94:  MOVLW  09
01D96:  MOVWF  x51
01D98:  MOVLW  43
01D9A:  MOVWF  x50
01D9C:  MOVLW  02
01D9E:  MOVWF  x52
01DA0:  CLRF   x53
01DA2:  MOVLB  0
01DA4:  RCALL  1936
....................    else    
01DA6:  BRA    1DF4
01DA8:  MOVLB  9
....................       {glcd_rect(x, y, x+18, y+24, NO, OFF);glcd_text57(x+2, y+1, voltage, 2, ON);} 
01DAA:  MOVLW  12
01DAC:  ADDWF  x40,W
01DAE:  MOVWF  x4C
01DB0:  MOVLW  18
01DB2:  ADDWF  x41,W
01DB4:  MOVWF  x4D
01DB6:  MOVFF  940,94E
01DBA:  MOVFF  941,94F
01DBE:  MOVFF  94C,950
01DC2:  MOVWF  x51
01DC4:  CLRF   x52
01DC6:  CLRF   x53
01DC8:  MOVLB  0
01DCA:  RCALL  1874
01DCC:  MOVLW  02
01DCE:  MOVLB  9
01DD0:  ADDWF  x40,W
01DD2:  MOVWF  x4C
01DD4:  MOVLW  01
01DD6:  ADDWF  x41,W
01DD8:  MOVWF  x4D
01DDA:  MOVFF  94C,94E
01DDE:  MOVWF  x4F
01DE0:  MOVLW  09
01DE2:  MOVWF  x51
01DE4:  MOVLW  43
01DE6:  MOVWF  x50
01DE8:  MOVLW  02
01DEA:  MOVWF  x52
01DEC:  MOVLW  01
01DEE:  MOVWF  x53
01DF0:  MOVLB  0
01DF2:  RCALL  1936
....................  
.................... } 
01DF4:  RETLW  00
....................  
.................... void displayTiempos(int digito, int x, int y, int sombreado, int tamano) 
.................... { 
....................    char voltage[9]; 
....................     
....................    if(sombreado==2) 
....................    { 
....................       sprintf(voltage, "%02d", digito); 
....................       glcd_rect(x, y, x+(tamano*12), y+(tamano*8), YES, OFF); 
....................       glcd_text57(x+1, y+1, voltage, tamano, ON); 
....................    } 
....................    else 
....................    { 
....................       if(sombreado==3) 
....................       { 
....................          sprintf(voltage, "%03u", digito); 
....................          glcd_rect(x, y, x+(tamano*18), y+(tamano*8), YES, OFF); 
....................          glcd_text57(x+1, y+1, voltage, tamano, ON); 
....................       } 
....................       sprintf(voltage, "%u", digito); 
....................       if(sombreado==1) 
....................          {glcd_rect(x, y, x+(tamano*5), y+(tamano*8), YES, ON);glcd_text57(x+1, y+1, voltage, tamano, OFF);} 
....................       if(sombreado==0) 
....................          {glcd_rect(x, y, x+(tamano*5), y+(tamano*8), YES, OFF);glcd_text57(x+1, y+1, voltage, tamano, ON);} 
....................    } 
....................    glcd_update(); 
.................... } 
....................  
.................... void MuestraSegmento(int8 Opcio,int8 l,int8 Prog ){ 
....................          if(Temperatura1[l+((Prog-1)*Pasos)]>1200) 
*
03B9E:  MOVLW  01
03BA0:  MOVLB  9
03BA2:  SUBWF  x38,W
03BA4:  MULLW  10
03BA6:  MOVF   FF3,W
03BA8:  ADDWF  x37,W
03BAA:  MOVWF  00
03BAC:  BCF    FD8.0
03BAE:  RLCF   00,F
03BB0:  MOVF   00,W
03BB2:  CLRF   03
03BB4:  ADDLW  07
03BB6:  MOVWF  FE9
03BB8:  MOVLW  07
03BBA:  ADDWFC 03,W
03BBC:  MOVWF  FEA
03BBE:  MOVFF  FEC,93A
03BC2:  MOVF   FED,F
03BC4:  MOVFF  FEF,939
03BC8:  BTFSC  x3A.7
03BCA:  BRA    3C00
03BCC:  MOVF   x3A,W
03BCE:  SUBLW  03
03BD0:  BC    3C00
03BD2:  XORLW  FF
03BD4:  BNZ   3BDC
03BD6:  MOVF   x39,W
03BD8:  SUBLW  B0
03BDA:  BC    3C00
....................             Temperatura1[l+((Prog-1)*Pasos)]=0; 
03BDC:  MOVLW  01
03BDE:  SUBWF  x38,W
03BE0:  MULLW  10
03BE2:  MOVF   FF3,W
03BE4:  ADDWF  x37,W
03BE6:  MOVWF  00
03BE8:  BCF    FD8.0
03BEA:  RLCF   00,F
03BEC:  MOVF   00,W
03BEE:  CLRF   03
03BF0:  ADDLW  07
03BF2:  MOVWF  FE9
03BF4:  MOVLW  07
03BF6:  ADDWFC 03,W
03BF8:  MOVWF  FEA
03BFA:  CLRF   FEC
03BFC:  MOVF   FED,F
03BFE:  CLRF   FEF
....................           
....................          if(Temperatura1[l+((Prog-1)*Pasos)]<0) 
03C00:  MOVLW  01
03C02:  SUBWF  x38,W
03C04:  MULLW  10
03C06:  MOVF   FF3,W
03C08:  ADDWF  x37,W
03C0A:  MOVWF  00
03C0C:  BCF    FD8.0
03C0E:  RLCF   00,F
03C10:  MOVF   00,W
03C12:  CLRF   03
03C14:  ADDLW  07
03C16:  MOVWF  FE9
03C18:  MOVLW  07
03C1A:  ADDWFC 03,W
03C1C:  MOVWF  FEA
03C1E:  MOVFF  FEC,93A
03C22:  MOVF   FED,F
03C24:  MOVFF  FEF,939
03C28:  BTFSC  x3A.7
03C2A:  BRA    3C2E
03C2C:  BRA    3C56
....................             Temperatura1[l+((Prog-1)*Pasos)]=1200; 
03C2E:  MOVLW  01
03C30:  SUBWF  x38,W
03C32:  MULLW  10
03C34:  MOVF   FF3,W
03C36:  ADDWF  x37,W
03C38:  MOVWF  00
03C3A:  BCF    FD8.0
03C3C:  RLCF   00,F
03C3E:  MOVF   00,W
03C40:  CLRF   03
03C42:  ADDLW  07
03C44:  MOVWF  FE9
03C46:  MOVLW  07
03C48:  ADDWFC 03,W
03C4A:  MOVWF  FEA
03C4C:  MOVLW  04
03C4E:  MOVWF  FEC
03C50:  MOVF   FED,F
03C52:  MOVLW  B0
03C54:  MOVWF  FEF
....................           
....................          if(Temperatura1[l+((Prog-1)*Pasos)]>1100) 
03C56:  MOVLW  01
03C58:  SUBWF  x38,W
03C5A:  MULLW  10
03C5C:  MOVF   FF3,W
03C5E:  ADDWF  x37,W
03C60:  MOVWF  00
03C62:  BCF    FD8.0
03C64:  RLCF   00,F
03C66:  MOVF   00,W
03C68:  CLRF   03
03C6A:  ADDLW  07
03C6C:  MOVWF  FE9
03C6E:  MOVLW  07
03C70:  ADDWFC 03,W
03C72:  MOVWF  FEA
03C74:  MOVFF  FEC,93A
03C78:  MOVF   FED,F
03C7A:  MOVFF  FEF,939
03C7E:  BTFSC  x3A.7
03C80:  BRA    3CB6
03C82:  MOVF   x3A,W
03C84:  SUBLW  03
03C86:  BC    3CB6
03C88:  XORLW  FF
03C8A:  BNZ   3C92
03C8C:  MOVF   x39,W
03C8E:  SUBLW  4C
03C90:  BC    3CB6
....................             Horas1[l+((Prog-1)*Pasos)]=0; 
03C92:  MOVLW  01
03C94:  SUBWF  x38,W
03C96:  MULLW  10
03C98:  MOVF   FF3,W
03C9A:  ADDWF  x37,W
03C9C:  MOVWF  00
03C9E:  BCF    FD8.0
03CA0:  RLCF   00,F
03CA2:  MOVF   00,W
03CA4:  CLRF   03
03CA6:  ADDLW  A7
03CA8:  MOVWF  FE9
03CAA:  MOVLW  07
03CAC:  ADDWFC 03,W
03CAE:  MOVWF  FEA
03CB0:  CLRF   FEC
03CB2:  MOVF   FED,F
03CB4:  CLRF   FEF
....................           
....................          strcpy(Menus.Letra,"P 0"); 
03CB6:  MOVLW  09
03CB8:  MOVWF  FEA
03CBA:  MOVLW  0D
03CBC:  MOVWF  FE9
03CBE:  MOVFF  FF2,939
03CC2:  BCF    FF2.7
03CC4:  MOVLW  00
03CC6:  MOVLB  0
03CC8:  CALL   06F2
03CCC:  TBLRD*-
03CCE:  TBLRD*+
03CD0:  MOVF   FF5,W
03CD2:  MOVWF  FEE
03CD4:  IORLW  00
03CD6:  BNZ   3CCE
03CD8:  MOVLB  9
03CDA:  BTFSC  x39.7
03CDC:  BSF    FF2.7
....................          displayMenu(Menus.Letra,30,0,1,2); 
03CDE:  MOVLW  09
03CE0:  MOVWF  x3E
03CE2:  MOVLW  0D
03CE4:  MOVWF  x3D
03CE6:  MOVLW  1E
03CE8:  MOVWF  x3F
03CEA:  CLRF   x40
03CEC:  MOVLW  01
03CEE:  MOVWF  x41
03CF0:  MOVLW  02
03CF2:  MOVWF  x42
03CF4:  MOVLB  0
03CF6:  CALL   1AEE
....................          displayTiempo(Prog,68,0,1,2); 
03CFA:  MOVFF  938,939
03CFE:  MOVLW  44
03D00:  MOVLB  9
03D02:  MOVWF  x3A
03D04:  CLRF   x3B
03D06:  MOVLW  01
03D08:  MOVWF  x3C
03D0A:  MOVLW  02
03D0C:  MOVWF  x3D
03D0E:  MOVLB  0
03D10:  CALL   2FD6
....................           
....................          strcpy(Menus.Letra,"Segmento "); 
03D14:  MOVLW  09
03D16:  MOVWF  FEA
03D18:  MOVLW  0D
03D1A:  MOVWF  FE9
03D1C:  MOVFF  FF2,939
03D20:  BCF    FF2.7
03D22:  MOVLW  00
03D24:  CALL   0714
03D28:  TBLRD*-
03D2A:  TBLRD*+
03D2C:  MOVF   FF5,W
03D2E:  MOVWF  FEE
03D30:  IORLW  00
03D32:  BNZ   3D2A
03D34:  MOVLB  9
03D36:  BTFSC  x39.7
03D38:  BSF    FF2.7
....................          displayMenu(Menus.Letra,0,20,1,1); 
03D3A:  MOVLW  09
03D3C:  MOVWF  x3E
03D3E:  MOVLW  0D
03D40:  MOVWF  x3D
03D42:  CLRF   x3F
03D44:  MOVLW  14
03D46:  MOVWF  x40
03D48:  MOVLW  01
03D4A:  MOVWF  x41
03D4C:  MOVWF  x42
03D4E:  MOVLB  0
03D50:  CALL   1AEE
....................          displayTiempo(l,63,20,1,1); 
03D54:  MOVFF  937,939
03D58:  MOVLW  3F
03D5A:  MOVLB  9
03D5C:  MOVWF  x3A
03D5E:  MOVLW  14
03D60:  MOVWF  x3B
03D62:  MOVLW  01
03D64:  MOVWF  x3C
03D66:  MOVWF  x3D
03D68:  MOVLB  0
03D6A:  CALL   2FD6
....................           
....................          strcpy(Menus.Letra,"TA:"); 
03D6E:  MOVLW  09
03D70:  MOVWF  FEA
03D72:  MOVLW  0D
03D74:  MOVWF  FE9
03D76:  MOVFF  FF2,939
03D7A:  BCF    FF2.7
03D7C:  MOVLW  00
03D7E:  CALL   073C
03D82:  TBLRD*-
03D84:  TBLRD*+
03D86:  MOVF   FF5,W
03D88:  MOVWF  FEE
03D8A:  IORLW  00
03D8C:  BNZ   3D84
03D8E:  MOVLB  9
03D90:  BTFSC  x39.7
03D92:  BSF    FF2.7
....................          displayMenu(Menus.Letra,80,20,3,1); 
03D94:  MOVLW  09
03D96:  MOVWF  x3E
03D98:  MOVLW  0D
03D9A:  MOVWF  x3D
03D9C:  MOVLW  50
03D9E:  MOVWF  x3F
03DA0:  MOVLW  14
03DA2:  MOVWF  x40
03DA4:  MOVLW  03
03DA6:  MOVWF  x41
03DA8:  MOVLW  01
03DAA:  MOVWF  x42
03DAC:  MOVLB  0
03DAE:  CALL   1AEE
....................           
....................          if(l>0) 
03DB2:  MOVLB  9
03DB4:  MOVF   x37,F
03DB6:  BZ    3E04
....................             displayTemperatura(Temperatura1[l-1+((Prog-1)*Pasos)],100,20,1,1); 
03DB8:  MOVLW  01
03DBA:  SUBWF  x37,W
03DBC:  MOVWF  x39
03DBE:  MOVLW  01
03DC0:  SUBWF  x38,W
03DC2:  MULLW  10
03DC4:  MOVF   FF3,W
03DC6:  ADDWF  x39,W
03DC8:  MOVWF  00
03DCA:  BCF    FD8.0
03DCC:  RLCF   00,F
03DCE:  MOVF   00,W
03DD0:  CLRF   03
03DD2:  ADDLW  07
03DD4:  MOVWF  FE9
03DD6:  MOVLW  07
03DD8:  ADDWFC 03,W
03DDA:  MOVWF  FEA
03DDC:  MOVFF  FEC,93A
03DE0:  MOVF   FED,F
03DE2:  MOVFF  FEF,939
03DE6:  MOVFF  93A,93C
03DEA:  MOVFF  939,93B
03DEE:  MOVLW  64
03DF0:  MOVWF  x3D
03DF2:  MOVLW  14
03DF4:  MOVWF  x3E
03DF6:  MOVLW  01
03DF8:  MOVWF  x3F
03DFA:  MOVWF  x40
03DFC:  MOVLB  0
03DFE:  CALL   33C4
03E02:  MOVLB  9
....................           
....................          if(Opcio==1){ 
03E04:  DECFSZ x36,W
03E06:  BRA    41F6
....................             strcpy(Menus.Letra,"Temperatura:"); 
03E08:  MOVLW  09
03E0A:  MOVWF  FEA
03E0C:  MOVLW  0D
03E0E:  MOVWF  FE9
03E10:  MOVFF  FF2,939
03E14:  BCF    FF2.7
03E16:  MOVLW  00
03E18:  MOVLB  0
03E1A:  CALL   075E
03E1E:  TBLRD*-
03E20:  TBLRD*+
03E22:  MOVF   FF5,W
03E24:  MOVWF  FEE
03E26:  IORLW  00
03E28:  BNZ   3E20
03E2A:  MOVLB  9
03E2C:  BTFSC  x39.7
03E2E:  BSF    FF2.7
....................             displayTemps(Menus.Letra,Temperatura1[l+((Prog-1)*Pasos)],0,32,1,1); 
03E30:  MOVLW  01
03E32:  SUBWF  x38,W
03E34:  MULLW  10
03E36:  MOVF   FF3,W
03E38:  ADDWF  x37,W
03E3A:  MOVWF  00
03E3C:  BCF    FD8.0
03E3E:  RLCF   00,F
03E40:  MOVF   00,W
03E42:  CLRF   03
03E44:  ADDLW  07
03E46:  MOVWF  FE9
03E48:  MOVLW  07
03E4A:  ADDWFC 03,W
03E4C:  MOVWF  FEA
03E4E:  MOVFF  FEC,93A
03E52:  MOVF   FED,F
03E54:  MOVFF  FEF,939
03E58:  MOVLW  09
03E5A:  MOVWF  x3C
03E5C:  MOVLW  0D
03E5E:  MOVWF  x3B
03E60:  MOVFF  93A,93E
03E64:  MOVFF  939,93D
03E68:  CLRF   x3F
03E6A:  MOVLW  20
03E6C:  MOVWF  x40
03E6E:  MOVLW  01
03E70:  MOVWF  x41
03E72:  MOVWF  x42
03E74:  MOVLB  0
03E76:  RCALL  37A6
....................             strcpy(Menus.Letra,"Horas:"); 
03E78:  MOVLW  09
03E7A:  MOVWF  FEA
03E7C:  MOVLW  0D
03E7E:  MOVWF  FE9
03E80:  MOVFF  FF2,939
03E84:  BCF    FF2.7
03E86:  MOVLW  00
03E88:  CALL   078A
03E8C:  TBLRD*-
03E8E:  TBLRD*+
03E90:  MOVF   FF5,W
03E92:  MOVWF  FEE
03E94:  IORLW  00
03E96:  BNZ   3E8E
03E98:  MOVLB  9
03E9A:  BTFSC  x39.7
03E9C:  BSF    FF2.7
....................             displayTemps(Menus.Letra,Horas1[l+((Prog-1)*Pasos)],0,44,10,1); 
03E9E:  MOVLW  01
03EA0:  SUBWF  x38,W
03EA2:  MULLW  10
03EA4:  MOVF   FF3,W
03EA6:  ADDWF  x37,W
03EA8:  MOVWF  00
03EAA:  BCF    FD8.0
03EAC:  RLCF   00,F
03EAE:  MOVF   00,W
03EB0:  CLRF   03
03EB2:  ADDLW  A7
03EB4:  MOVWF  FE9
03EB6:  MOVLW  07
03EB8:  ADDWFC 03,W
03EBA:  MOVWF  FEA
03EBC:  MOVFF  FEC,93A
03EC0:  MOVF   FED,F
03EC2:  MOVFF  FEF,939
03EC6:  MOVLW  09
03EC8:  MOVWF  x3C
03ECA:  MOVLW  0D
03ECC:  MOVWF  x3B
03ECE:  MOVFF  93A,93E
03ED2:  MOVFF  939,93D
03ED6:  CLRF   x3F
03ED8:  MOVLW  2C
03EDA:  MOVWF  x40
03EDC:  MOVLW  0A
03EDE:  MOVWF  x41
03EE0:  MOVLW  01
03EE2:  MOVWF  x42
03EE4:  MOVLB  0
03EE6:  RCALL  37A6
....................             strcpy(Menus.Letra,"Minutos:"); 
03EE8:  MOVLW  09
03EEA:  MOVWF  FEA
03EEC:  MOVLW  0D
03EEE:  MOVWF  FE9
03EF0:  MOVFF  FF2,939
03EF4:  BCF    FF2.7
03EF6:  MOVLW  00
03EF8:  CALL   07B0
03EFC:  TBLRD*-
03EFE:  TBLRD*+
03F00:  MOVF   FF5,W
03F02:  MOVWF  FEE
03F04:  IORLW  00
03F06:  BNZ   3EFE
03F08:  MOVLB  9
03F0A:  BTFSC  x39.7
03F0C:  BSF    FF2.7
....................             displayTemps(Menus.Letra,Minutos1[l+((Prog-1)*Pasos)],0,55,10,1); 
03F0E:  MOVLW  01
03F10:  SUBWF  x38,W
03F12:  MULLW  10
03F14:  MOVF   FF3,W
03F16:  ADDWF  x37,W
03F18:  MOVWF  00
03F1A:  BCF    FD8.0
03F1C:  RLCF   00,F
03F1E:  MOVF   00,W
03F20:  CLRF   03
03F22:  ADDLW  47
03F24:  MOVWF  FE9
03F26:  MOVLW  08
03F28:  ADDWFC 03,W
03F2A:  MOVWF  FEA
03F2C:  MOVFF  FEC,93A
03F30:  MOVF   FED,F
03F32:  MOVFF  FEF,939
03F36:  MOVLW  09
03F38:  MOVWF  x3C
03F3A:  MOVLW  0D
03F3C:  MOVWF  x3B
03F3E:  MOVFF  93A,93E
03F42:  MOVFF  939,93D
03F46:  CLRF   x3F
03F48:  MOVLW  37
03F4A:  MOVWF  x40
03F4C:  MOVLW  0A
03F4E:  MOVWF  x41
03F50:  MOVLW  01
03F52:  MOVWF  x42
03F54:  MOVLB  0
03F56:  RCALL  37A6
....................             if(UP)//Si oprime hacia arriba 
03F58:  BSF    F92.5
03F5A:  BTFSC  F80.5
03F5C:  BRA    40A6
....................             { 
....................                Buzz_on;delay_ms(10);Buzz_off; 
03F5E:  BSF    F8B.5
03F60:  BCF    F94.5
03F62:  MOVLW  0A
03F64:  MOVLB  9
03F66:  MOVWF  x4C
03F68:  MOVLB  0
03F6A:  CALL   1440
03F6E:  BCF    F8B.5
03F70:  BCF    F94.5
....................                if(tiempoup<4){ 
03F72:  MOVLB  6
03F74:  MOVF   x2B,W
03F76:  SUBLW  03
03F78:  BNC   3FA8
....................                   flagup=1; 
03F7A:  BSF    x22.0
....................                   Temperatura1[l+((Prog-1)*Pasos)]++; 
03F7C:  MOVLW  01
03F7E:  MOVLB  9
03F80:  SUBWF  x38,W
03F82:  MULLW  10
03F84:  MOVF   FF3,W
03F86:  ADDWF  x37,W
03F88:  MOVWF  00
03F8A:  BCF    FD8.0
03F8C:  RLCF   00,F
03F8E:  MOVF   00,W
03F90:  CLRF   03
03F92:  ADDLW  07
03F94:  MOVWF  FE9
03F96:  MOVLW  07
03F98:  ADDWFC 03,W
03F9A:  MOVWF  FEA
03F9C:  MOVLW  01
03F9E:  ADDWF  FEE,F
03FA0:  BNC   3FA4
03FA2:  INCF   FEF,F
....................                } 
....................                else{ 
03FA4:  BRA    3FDC
03FA6:  MOVLB  6
....................                   flagup=0; 
03FA8:  BCF    x22.0
....................                   Temperatura1[l+((Prog-1)*Pasos)]+=10; 
03FAA:  MOVLW  01
03FAC:  MOVLB  9
03FAE:  SUBWF  x38,W
03FB0:  MULLW  10
03FB2:  MOVF   FF3,W
03FB4:  ADDWF  x37,W
03FB6:  MOVWF  00
03FB8:  BCF    FD8.0
03FBA:  RLCF   00,F
03FBC:  MOVF   00,W
03FBE:  CLRF   03
03FC0:  ADDLW  07
03FC2:  MOVWF  FE9
03FC4:  MOVLW  07
03FC6:  ADDWFC 03,W
03FC8:  MOVWF  FEA
03FCA:  MOVLW  0A
03FCC:  ADDWF  FEF,W
03FCE:  MOVWF  01
03FD0:  MOVLW  00
03FD2:  ADDWFC FEC,W
03FD4:  MOVF   FED,F
03FD6:  MOVFF  01,FEF
03FDA:  MOVWF  FEC
....................                }  
....................                if(l<Pasos-1) 
03FDC:  MOVF   x37,W
03FDE:  SUBLW  0E
03FE0:  BNC   4042
....................                   Temperatura1[l+1+((Prog-1)*Pasos)]=Temperatura1[l+((Prog-1)*Pasos)];  
03FE2:  MOVLW  01
03FE4:  ADDWF  x37,W
03FE6:  MOVWF  x39
03FE8:  MOVLW  01
03FEA:  SUBWF  x38,W
03FEC:  MULLW  10
03FEE:  MOVF   FF3,W
03FF0:  ADDWF  x39,W
03FF2:  MOVWF  00
03FF4:  BCF    FD8.0
03FF6:  RLCF   00,F
03FF8:  MOVF   00,W
03FFA:  CLRF   03
03FFC:  ADDLW  07
03FFE:  MOVWF  01
04000:  MOVLW  07
04002:  ADDWFC 03,F
04004:  MOVFF  03,93A
04008:  MOVLW  01
0400A:  SUBWF  x38,W
0400C:  MULLW  10
0400E:  MOVF   FF3,W
04010:  ADDWF  x37,W
04012:  MOVWF  00
04014:  BCF    FD8.0
04016:  RLCF   00,F
04018:  MOVF   00,W
0401A:  CLRF   03
0401C:  ADDLW  07
0401E:  MOVWF  FE9
04020:  MOVLW  07
04022:  ADDWFC 03,W
04024:  MOVWF  FEA
04026:  MOVFF  FEC,03
0402A:  MOVF   FED,F
0402C:  MOVFF  FEF,93B
04030:  MOVFF  93A,FEA
04034:  MOVFF  01,FE9
04038:  MOVFF  03,FEC
0403C:  MOVF   FED,F
0403E:  MOVFF  93B,FEF
....................                    
....................                if(Temperatura1[l+((Prog-1)*Pasos)]>1200) 
04042:  MOVLW  01
04044:  SUBWF  x38,W
04046:  MULLW  10
04048:  MOVF   FF3,W
0404A:  ADDWF  x37,W
0404C:  MOVWF  00
0404E:  BCF    FD8.0
04050:  RLCF   00,F
04052:  MOVF   00,W
04054:  CLRF   03
04056:  ADDLW  07
04058:  MOVWF  FE9
0405A:  MOVLW  07
0405C:  ADDWFC 03,W
0405E:  MOVWF  FEA
04060:  MOVFF  FEC,93A
04064:  MOVF   FED,F
04066:  MOVFF  FEF,939
0406A:  BTFSC  x3A.7
0406C:  BRA    40A2
0406E:  MOVF   x3A,W
04070:  SUBLW  03
04072:  BC    40A2
04074:  XORLW  FF
04076:  BNZ   407E
04078:  MOVF   x39,W
0407A:  SUBLW  B0
0407C:  BC    40A2
....................                   Temperatura1[l+((Prog-1)*Pasos)]=0; 
0407E:  MOVLW  01
04080:  SUBWF  x38,W
04082:  MULLW  10
04084:  MOVF   FF3,W
04086:  ADDWF  x37,W
04088:  MOVWF  00
0408A:  BCF    FD8.0
0408C:  RLCF   00,F
0408E:  MOVF   00,W
04090:  CLRF   03
04092:  ADDLW  07
04094:  MOVWF  FE9
04096:  MOVLW  07
04098:  ADDWFC 03,W
0409A:  MOVWF  FEA
0409C:  CLRF   FEC
0409E:  MOVF   FED,F
040A0:  CLRF   FEF
....................             } 
....................             else 
040A2:  BRA    40AE
040A4:  MOVLB  0
....................             { 
....................                flagup=0;tiempoup=0; 
040A6:  MOVLB  6
040A8:  BCF    x22.0
040AA:  CLRF   x2B
040AC:  MOVLB  9
....................             } 
....................                       
....................             if(DOWN)//Si oprime hacia abajo 
040AE:  BSF    F96.0
040B0:  BTFSC  F84.0
040B2:  BRA    41EE
....................             { 
....................                Buzz_on;delay_ms(10);Buzz_off; 
040B4:  BSF    F8B.5
040B6:  BCF    F94.5
040B8:  MOVLW  0A
040BA:  MOVWF  x4C
040BC:  MOVLB  0
040BE:  CALL   1440
040C2:  BCF    F8B.5
040C4:  BCF    F94.5
....................                if(tiempodn<4){ 
040C6:  MOVLB  6
040C8:  MOVF   x2C,W
040CA:  SUBLW  03
040CC:  BNC   40FE
....................                   flagdn=1; 
040CE:  BSF    x22.1
....................                   Temperatura1[l+((Prog-1)*Pasos)]--; 
040D0:  MOVLW  01
040D2:  MOVLB  9
040D4:  SUBWF  x38,W
040D6:  MULLW  10
040D8:  MOVF   FF3,W
040DA:  ADDWF  x37,W
040DC:  MOVWF  00
040DE:  BCF    FD8.0
040E0:  RLCF   00,F
040E2:  MOVF   00,W
040E4:  CLRF   03
040E6:  ADDLW  07
040E8:  MOVWF  FE9
040EA:  MOVLW  07
040EC:  ADDWFC 03,W
040EE:  MOVWF  FEA
040F0:  MOVLW  FF
040F2:  ADDWF  FEF,F
040F4:  BC    40FA
040F6:  MOVF   FEE,F
040F8:  DECF   FED,F
....................                } 
....................                else{ 
040FA:  BRA    4136
040FC:  MOVLB  6
....................                   flagdn=0; 
040FE:  BCF    x22.1
....................                   Temperatura1[l+((Prog-1)*Pasos)]-=10; 
04100:  MOVLW  01
04102:  MOVLB  9
04104:  SUBWF  x38,W
04106:  MULLW  10
04108:  MOVF   FF3,W
0410A:  ADDWF  x37,W
0410C:  MOVWF  00
0410E:  BCF    FD8.0
04110:  RLCF   00,F
04112:  MOVF   00,W
04114:  CLRF   03
04116:  ADDLW  07
04118:  MOVWF  FE9
0411A:  MOVLW  07
0411C:  ADDWFC 03,W
0411E:  MOVWF  FEA
04120:  MOVLW  0A
04122:  SUBWF  FEF,W
04124:  MOVWF  00
04126:  MOVLW  00
04128:  SUBWFB FEC,W
0412A:  MOVWF  03
0412C:  MOVF   00,W
0412E:  MOVF   FED,F
04130:  MOVWF  FEF
04132:  MOVFF  03,FEC
....................                } 
....................                Temperatura1[l+1+((Prog-1)*Pasos)]=Temperatura1[l+((Prog-1)*Pasos)];  
04136:  MOVLW  01
04138:  ADDWF  x37,W
0413A:  MOVWF  x39
0413C:  MOVLW  01
0413E:  SUBWF  x38,W
04140:  MULLW  10
04142:  MOVF   FF3,W
04144:  ADDWF  x39,W
04146:  MOVWF  00
04148:  BCF    FD8.0
0414A:  RLCF   00,F
0414C:  MOVF   00,W
0414E:  CLRF   03
04150:  ADDLW  07
04152:  MOVWF  01
04154:  MOVLW  07
04156:  ADDWFC 03,F
04158:  MOVFF  03,93A
0415C:  MOVLW  01
0415E:  SUBWF  x38,W
04160:  MULLW  10
04162:  MOVF   FF3,W
04164:  ADDWF  x37,W
04166:  MOVWF  00
04168:  BCF    FD8.0
0416A:  RLCF   00,F
0416C:  MOVF   00,W
0416E:  CLRF   03
04170:  ADDLW  07
04172:  MOVWF  FE9
04174:  MOVLW  07
04176:  ADDWFC 03,W
04178:  MOVWF  FEA
0417A:  MOVFF  FEC,03
0417E:  MOVF   FED,F
04180:  MOVFF  FEF,93B
04184:  MOVFF  93A,FEA
04188:  MOVFF  01,FE9
0418C:  MOVFF  03,FEC
04190:  MOVF   FED,F
04192:  MOVFF  93B,FEF
....................                 
....................                if(Temperatura1[l+((Prog-1)*Pasos)]<0) 
04196:  MOVLW  01
04198:  SUBWF  x38,W
0419A:  MULLW  10
0419C:  MOVF   FF3,W
0419E:  ADDWF  x37,W
041A0:  MOVWF  00
041A2:  BCF    FD8.0
041A4:  RLCF   00,F
041A6:  MOVF   00,W
041A8:  CLRF   03
041AA:  ADDLW  07
041AC:  MOVWF  FE9
041AE:  MOVLW  07
041B0:  ADDWFC 03,W
041B2:  MOVWF  FEA
041B4:  MOVFF  FEC,93A
041B8:  MOVF   FED,F
041BA:  MOVFF  FEF,939
041BE:  BTFSC  x3A.7
041C0:  BRA    41C4
041C2:  BRA    41EC
....................                   Temperatura1[l+((Prog-1)*Pasos)]=1200; 
041C4:  MOVLW  01
041C6:  SUBWF  x38,W
041C8:  MULLW  10
041CA:  MOVF   FF3,W
041CC:  ADDWF  x37,W
041CE:  MOVWF  00
041D0:  BCF    FD8.0
041D2:  RLCF   00,F
041D4:  MOVF   00,W
041D6:  CLRF   03
041D8:  ADDLW  07
041DA:  MOVWF  FE9
041DC:  MOVLW  07
041DE:  ADDWFC 03,W
041E0:  MOVWF  FEA
041E2:  MOVLW  04
041E4:  MOVWF  FEC
041E6:  MOVF   FED,F
041E8:  MOVLW  B0
041EA:  MOVWF  FEF
....................             } 
....................             else{ 
041EC:  BRA    41F6
....................                flagdn=0;tiempodn=0; 
041EE:  MOVLB  6
041F0:  BCF    x22.1
041F2:  CLRF   x2C
041F4:  MOVLB  9
....................             } 
....................          } 
....................           
....................          if(Opcio==2){ 
041F6:  MOVF   x36,W
041F8:  SUBLW  02
041FA:  BTFSS  FD8.2
041FC:  BRA    4524
....................             strcpy(Menus.Letra,"Temperatura:"); 
041FE:  MOVLW  09
04200:  MOVWF  FEA
04202:  MOVLW  0D
04204:  MOVWF  FE9
04206:  MOVFF  FF2,939
0420A:  BCF    FF2.7
0420C:  MOVLW  00
0420E:  MOVLB  0
04210:  CALL   075E
04214:  TBLRD*-
04216:  TBLRD*+
04218:  MOVF   FF5,W
0421A:  MOVWF  FEE
0421C:  IORLW  00
0421E:  BNZ   4216
04220:  MOVLB  9
04222:  BTFSC  x39.7
04224:  BSF    FF2.7
....................             displayTemps(Menus.Letra,Temperatura1[l+((Prog-1)*Pasos)],0,32,0,1); 
04226:  MOVLW  01
04228:  SUBWF  x38,W
0422A:  MULLW  10
0422C:  MOVF   FF3,W
0422E:  ADDWF  x37,W
04230:  MOVWF  00
04232:  BCF    FD8.0
04234:  RLCF   00,F
04236:  MOVF   00,W
04238:  CLRF   03
0423A:  ADDLW  07
0423C:  MOVWF  FE9
0423E:  MOVLW  07
04240:  ADDWFC 03,W
04242:  MOVWF  FEA
04244:  MOVFF  FEC,93A
04248:  MOVF   FED,F
0424A:  MOVFF  FEF,939
0424E:  MOVLW  09
04250:  MOVWF  x3C
04252:  MOVLW  0D
04254:  MOVWF  x3B
04256:  MOVFF  93A,93E
0425A:  MOVFF  939,93D
0425E:  CLRF   x3F
04260:  MOVLW  20
04262:  MOVWF  x40
04264:  CLRF   x41
04266:  MOVLW  01
04268:  MOVWF  x42
0426A:  MOVLB  0
0426C:  CALL   37A6
....................             strcpy(Menus.Letra,"Horas:"); 
04270:  MOVLW  09
04272:  MOVWF  FEA
04274:  MOVLW  0D
04276:  MOVWF  FE9
04278:  MOVFF  FF2,939
0427C:  BCF    FF2.7
0427E:  MOVLW  00
04280:  CALL   078A
04284:  TBLRD*-
04286:  TBLRD*+
04288:  MOVF   FF5,W
0428A:  MOVWF  FEE
0428C:  IORLW  00
0428E:  BNZ   4286
04290:  MOVLB  9
04292:  BTFSC  x39.7
04294:  BSF    FF2.7
....................             displayTemps(Menus.Letra,Horas1[l+((Prog-1)*Pasos)],0,44,11,1); 
04296:  MOVLW  01
04298:  SUBWF  x38,W
0429A:  MULLW  10
0429C:  MOVF   FF3,W
0429E:  ADDWF  x37,W
042A0:  MOVWF  00
042A2:  BCF    FD8.0
042A4:  RLCF   00,F
042A6:  MOVF   00,W
042A8:  CLRF   03
042AA:  ADDLW  A7
042AC:  MOVWF  FE9
042AE:  MOVLW  07
042B0:  ADDWFC 03,W
042B2:  MOVWF  FEA
042B4:  MOVFF  FEC,93A
042B8:  MOVF   FED,F
042BA:  MOVFF  FEF,939
042BE:  MOVLW  09
042C0:  MOVWF  x3C
042C2:  MOVLW  0D
042C4:  MOVWF  x3B
042C6:  MOVFF  93A,93E
042CA:  MOVFF  939,93D
042CE:  CLRF   x3F
042D0:  MOVLW  2C
042D2:  MOVWF  x40
042D4:  MOVLW  0B
042D6:  MOVWF  x41
042D8:  MOVLW  01
042DA:  MOVWF  x42
042DC:  MOVLB  0
042DE:  CALL   37A6
....................             strcpy(Menus.Letra,"Minutos:"); 
042E2:  MOVLW  09
042E4:  MOVWF  FEA
042E6:  MOVLW  0D
042E8:  MOVWF  FE9
042EA:  MOVFF  FF2,939
042EE:  BCF    FF2.7
042F0:  MOVLW  00
042F2:  CALL   07B0
042F6:  TBLRD*-
042F8:  TBLRD*+
042FA:  MOVF   FF5,W
042FC:  MOVWF  FEE
042FE:  IORLW  00
04300:  BNZ   42F8
04302:  MOVLB  9
04304:  BTFSC  x39.7
04306:  BSF    FF2.7
....................             displayTemps(Menus.Letra,Minutos1[l+((Prog-1)*Pasos)],0,55,10,1); 
04308:  MOVLW  01
0430A:  SUBWF  x38,W
0430C:  MULLW  10
0430E:  MOVF   FF3,W
04310:  ADDWF  x37,W
04312:  MOVWF  00
04314:  BCF    FD8.0
04316:  RLCF   00,F
04318:  MOVF   00,W
0431A:  CLRF   03
0431C:  ADDLW  47
0431E:  MOVWF  FE9
04320:  MOVLW  08
04322:  ADDWFC 03,W
04324:  MOVWF  FEA
04326:  MOVFF  FEC,93A
0432A:  MOVF   FED,F
0432C:  MOVFF  FEF,939
04330:  MOVLW  09
04332:  MOVWF  x3C
04334:  MOVLW  0D
04336:  MOVWF  x3B
04338:  MOVFF  93A,93E
0433C:  MOVFF  939,93D
04340:  CLRF   x3F
04342:  MOVLW  37
04344:  MOVWF  x40
04346:  MOVLW  0A
04348:  MOVWF  x41
0434A:  MOVLW  01
0434C:  MOVWF  x42
0434E:  MOVLB  0
04350:  CALL   37A6
....................             if(UP)//Si oprime hacia arriba 
04354:  BSF    F92.5
04356:  BTFSC  F80.5
04358:  BRA    4436
....................             { 
....................                Buzz_on;delay_ms(10);Buzz_off; 
0435A:  BSF    F8B.5
0435C:  BCF    F94.5
0435E:  MOVLW  0A
04360:  MOVLB  9
04362:  MOVWF  x4C
04364:  MOVLB  0
04366:  CALL   1440
0436A:  BCF    F8B.5
0436C:  BCF    F94.5
....................                if(tiempoup<4){ 
0436E:  MOVLB  6
04370:  MOVF   x2B,W
04372:  SUBLW  03
04374:  BNC   43A4
....................                   flagup=1; 
04376:  BSF    x22.0
....................                   Horas1[l+((Prog-1)*Pasos)]++; 
04378:  MOVLW  01
0437A:  MOVLB  9
0437C:  SUBWF  x38,W
0437E:  MULLW  10
04380:  MOVF   FF3,W
04382:  ADDWF  x37,W
04384:  MOVWF  00
04386:  BCF    FD8.0
04388:  RLCF   00,F
0438A:  MOVF   00,W
0438C:  CLRF   03
0438E:  ADDLW  A7
04390:  MOVWF  FE9
04392:  MOVLW  07
04394:  ADDWFC 03,W
04396:  MOVWF  FEA
04398:  MOVLW  01
0439A:  ADDWF  FEE,F
0439C:  BNC   43A0
0439E:  INCF   FEF,F
....................                } 
....................                else{ 
043A0:  BRA    43D8
043A2:  MOVLB  6
....................                   flagup=0; 
043A4:  BCF    x22.0
....................                   Horas1[l+((Prog-1)*Pasos)]+=10; 
043A6:  MOVLW  01
043A8:  MOVLB  9
043AA:  SUBWF  x38,W
043AC:  MULLW  10
043AE:  MOVF   FF3,W
043B0:  ADDWF  x37,W
043B2:  MOVWF  00
043B4:  BCF    FD8.0
043B6:  RLCF   00,F
043B8:  MOVF   00,W
043BA:  CLRF   03
043BC:  ADDLW  A7
043BE:  MOVWF  FE9
043C0:  MOVLW  07
043C2:  ADDWFC 03,W
043C4:  MOVWF  FEA
043C6:  MOVLW  0A
043C8:  ADDWF  FEF,W
043CA:  MOVWF  01
043CC:  MOVLW  00
043CE:  ADDWFC FEC,W
043D0:  MOVF   FED,F
043D2:  MOVFF  01,FEF
043D6:  MOVWF  FEC
....................                } 
....................                if(Horas1[l+((Prog-1)*Pasos)]>99) 
043D8:  MOVLW  01
043DA:  SUBWF  x38,W
043DC:  MULLW  10
043DE:  MOVF   FF3,W
043E0:  ADDWF  x37,W
043E2:  MOVWF  00
043E4:  BCF    FD8.0
043E6:  RLCF   00,F
043E8:  MOVF   00,W
043EA:  CLRF   03
043EC:  ADDLW  A7
043EE:  MOVWF  FE9
043F0:  MOVLW  07
043F2:  ADDWFC 03,W
043F4:  MOVWF  FEA
043F6:  MOVFF  FEC,93A
043FA:  MOVF   FED,F
043FC:  MOVFF  FEF,939
04400:  BTFSC  x3A.7
04402:  BRA    4432
04404:  MOVF   x3A,F
04406:  BNZ   440E
04408:  MOVF   x39,W
0440A:  SUBLW  63
0440C:  BC    4432
....................                   Horas1[l+((Prog-1)*Pasos)]=0; 
0440E:  MOVLW  01
04410:  SUBWF  x38,W
04412:  MULLW  10
04414:  MOVF   FF3,W
04416:  ADDWF  x37,W
04418:  MOVWF  00
0441A:  BCF    FD8.0
0441C:  RLCF   00,F
0441E:  MOVF   00,W
04420:  CLRF   03
04422:  ADDLW  A7
04424:  MOVWF  FE9
04426:  MOVLW  07
04428:  ADDWFC 03,W
0442A:  MOVWF  FEA
0442C:  CLRF   FEC
0442E:  MOVF   FED,F
04430:  CLRF   FEF
....................             } 
....................             else{ 
04432:  BRA    443E
04434:  MOVLB  0
....................                flagup=0;tiempoup=0; 
04436:  MOVLB  6
04438:  BCF    x22.0
0443A:  CLRF   x2B
0443C:  MOVLB  9
....................             } 
....................                       
....................             if(DOWN)//Si oprime hacia abajo 
0443E:  BSF    F96.0
04440:  BTFSC  F84.0
04442:  BRA    451C
....................             { 
....................                Buzz_on;delay_ms(10);Buzz_off; 
04444:  BSF    F8B.5
04446:  BCF    F94.5
04448:  MOVLW  0A
0444A:  MOVWF  x4C
0444C:  MOVLB  0
0444E:  CALL   1440
04452:  BCF    F8B.5
04454:  BCF    F94.5
....................                if(tiempodn<4){ 
04456:  MOVLB  6
04458:  MOVF   x2C,W
0445A:  SUBLW  03
0445C:  BNC   448E
....................                   flagdn=1; 
0445E:  BSF    x22.1
....................                   Horas1[l+((Prog-1)*Pasos)]--; 
04460:  MOVLW  01
04462:  MOVLB  9
04464:  SUBWF  x38,W
04466:  MULLW  10
04468:  MOVF   FF3,W
0446A:  ADDWF  x37,W
0446C:  MOVWF  00
0446E:  BCF    FD8.0
04470:  RLCF   00,F
04472:  MOVF   00,W
04474:  CLRF   03
04476:  ADDLW  A7
04478:  MOVWF  FE9
0447A:  MOVLW  07
0447C:  ADDWFC 03,W
0447E:  MOVWF  FEA
04480:  MOVLW  FF
04482:  ADDWF  FEF,F
04484:  BC    448A
04486:  MOVF   FEE,F
04488:  DECF   FED,F
....................                } 
....................                else{ 
0448A:  BRA    44C6
0448C:  MOVLB  6
....................                   flagdn=0; 
0448E:  BCF    x22.1
....................                   Horas1[l+((Prog-1)*Pasos)]-=10; 
04490:  MOVLW  01
04492:  MOVLB  9
04494:  SUBWF  x38,W
04496:  MULLW  10
04498:  MOVF   FF3,W
0449A:  ADDWF  x37,W
0449C:  MOVWF  00
0449E:  BCF    FD8.0
044A0:  RLCF   00,F
044A2:  MOVF   00,W
044A4:  CLRF   03
044A6:  ADDLW  A7
044A8:  MOVWF  FE9
044AA:  MOVLW  07
044AC:  ADDWFC 03,W
044AE:  MOVWF  FEA
044B0:  MOVLW  0A
044B2:  SUBWF  FEF,W
044B4:  MOVWF  00
044B6:  MOVLW  00
044B8:  SUBWFB FEC,W
044BA:  MOVWF  03
044BC:  MOVF   00,W
044BE:  MOVF   FED,F
044C0:  MOVWF  FEF
044C2:  MOVFF  03,FEC
....................                } 
....................                if(Horas1[l+((Prog-1)*Pasos)]<0) 
044C6:  MOVLW  01
044C8:  SUBWF  x38,W
044CA:  MULLW  10
044CC:  MOVF   FF3,W
044CE:  ADDWF  x37,W
044D0:  MOVWF  00
044D2:  BCF    FD8.0
044D4:  RLCF   00,F
044D6:  MOVF   00,W
044D8:  CLRF   03
044DA:  ADDLW  A7
044DC:  MOVWF  FE9
044DE:  MOVLW  07
044E0:  ADDWFC 03,W
044E2:  MOVWF  FEA
044E4:  MOVFF  FEC,93A
044E8:  MOVF   FED,F
044EA:  MOVFF  FEF,939
044EE:  BTFSC  x3A.7
044F0:  BRA    44F4
044F2:  BRA    451A
....................                   Horas1[l+((Prog-1)*Pasos)]=99; 
044F4:  MOVLW  01
044F6:  SUBWF  x38,W
044F8:  MULLW  10
044FA:  MOVF   FF3,W
044FC:  ADDWF  x37,W
044FE:  MOVWF  00
04500:  BCF    FD8.0
04502:  RLCF   00,F
04504:  MOVF   00,W
04506:  CLRF   03
04508:  ADDLW  A7
0450A:  MOVWF  FE9
0450C:  MOVLW  07
0450E:  ADDWFC 03,W
04510:  MOVWF  FEA
04512:  CLRF   FEC
04514:  MOVF   FED,F
04516:  MOVLW  63
04518:  MOVWF  FEF
....................             } 
....................             else{ 
0451A:  BRA    4524
....................                flagdn=0;tiempodn=0; 
0451C:  MOVLB  6
0451E:  BCF    x22.1
04520:  CLRF   x2C
04522:  MOVLB  9
....................             } 
....................          } 
....................           
....................          if(Opcio==3){ 
04524:  MOVF   x36,W
04526:  SUBLW  03
04528:  BTFSS  FD8.2
0452A:  BRA    4852
....................             strcpy(Menus.Letra,"Temperatura:"); 
0452C:  MOVLW  09
0452E:  MOVWF  FEA
04530:  MOVLW  0D
04532:  MOVWF  FE9
04534:  MOVFF  FF2,939
04538:  BCF    FF2.7
0453A:  MOVLW  00
0453C:  MOVLB  0
0453E:  CALL   075E
04542:  TBLRD*-
04544:  TBLRD*+
04546:  MOVF   FF5,W
04548:  MOVWF  FEE
0454A:  IORLW  00
0454C:  BNZ   4544
0454E:  MOVLB  9
04550:  BTFSC  x39.7
04552:  BSF    FF2.7
....................             displayTemps(Menus.Letra,Temperatura1[l+((Prog-1)*Pasos)],0,32,0,1); 
04554:  MOVLW  01
04556:  SUBWF  x38,W
04558:  MULLW  10
0455A:  MOVF   FF3,W
0455C:  ADDWF  x37,W
0455E:  MOVWF  00
04560:  BCF    FD8.0
04562:  RLCF   00,F
04564:  MOVF   00,W
04566:  CLRF   03
04568:  ADDLW  07
0456A:  MOVWF  FE9
0456C:  MOVLW  07
0456E:  ADDWFC 03,W
04570:  MOVWF  FEA
04572:  MOVFF  FEC,93A
04576:  MOVF   FED,F
04578:  MOVFF  FEF,939
0457C:  MOVLW  09
0457E:  MOVWF  x3C
04580:  MOVLW  0D
04582:  MOVWF  x3B
04584:  MOVFF  93A,93E
04588:  MOVFF  939,93D
0458C:  CLRF   x3F
0458E:  MOVLW  20
04590:  MOVWF  x40
04592:  CLRF   x41
04594:  MOVLW  01
04596:  MOVWF  x42
04598:  MOVLB  0
0459A:  CALL   37A6
....................             strcpy(Menus.Letra,"Horas:"); 
0459E:  MOVLW  09
045A0:  MOVWF  FEA
045A2:  MOVLW  0D
045A4:  MOVWF  FE9
045A6:  MOVFF  FF2,939
045AA:  BCF    FF2.7
045AC:  MOVLW  00
045AE:  CALL   078A
045B2:  TBLRD*-
045B4:  TBLRD*+
045B6:  MOVF   FF5,W
045B8:  MOVWF  FEE
045BA:  IORLW  00
045BC:  BNZ   45B4
045BE:  MOVLB  9
045C0:  BTFSC  x39.7
045C2:  BSF    FF2.7
....................             displayTemps(Menus.Letra,Horas1[l+((Prog-1)*Pasos)],0,44,10,1); 
045C4:  MOVLW  01
045C6:  SUBWF  x38,W
045C8:  MULLW  10
045CA:  MOVF   FF3,W
045CC:  ADDWF  x37,W
045CE:  MOVWF  00
045D0:  BCF    FD8.0
045D2:  RLCF   00,F
045D4:  MOVF   00,W
045D6:  CLRF   03
045D8:  ADDLW  A7
045DA:  MOVWF  FE9
045DC:  MOVLW  07
045DE:  ADDWFC 03,W
045E0:  MOVWF  FEA
045E2:  MOVFF  FEC,93A
045E6:  MOVF   FED,F
045E8:  MOVFF  FEF,939
045EC:  MOVLW  09
045EE:  MOVWF  x3C
045F0:  MOVLW  0D
045F2:  MOVWF  x3B
045F4:  MOVFF  93A,93E
045F8:  MOVFF  939,93D
045FC:  CLRF   x3F
045FE:  MOVLW  2C
04600:  MOVWF  x40
04602:  MOVLW  0A
04604:  MOVWF  x41
04606:  MOVLW  01
04608:  MOVWF  x42
0460A:  MOVLB  0
0460C:  CALL   37A6
....................             strcpy(Menus.Letra,"Minutos:"); 
04610:  MOVLW  09
04612:  MOVWF  FEA
04614:  MOVLW  0D
04616:  MOVWF  FE9
04618:  MOVFF  FF2,939
0461C:  BCF    FF2.7
0461E:  MOVLW  00
04620:  CALL   07B0
04624:  TBLRD*-
04626:  TBLRD*+
04628:  MOVF   FF5,W
0462A:  MOVWF  FEE
0462C:  IORLW  00
0462E:  BNZ   4626
04630:  MOVLB  9
04632:  BTFSC  x39.7
04634:  BSF    FF2.7
....................             displayTemps(Menus.Letra,Minutos1[l+((Prog-1)*Pasos)],0,55,11,1); 
04636:  MOVLW  01
04638:  SUBWF  x38,W
0463A:  MULLW  10
0463C:  MOVF   FF3,W
0463E:  ADDWF  x37,W
04640:  MOVWF  00
04642:  BCF    FD8.0
04644:  RLCF   00,F
04646:  MOVF   00,W
04648:  CLRF   03
0464A:  ADDLW  47
0464C:  MOVWF  FE9
0464E:  MOVLW  08
04650:  ADDWFC 03,W
04652:  MOVWF  FEA
04654:  MOVFF  FEC,93A
04658:  MOVF   FED,F
0465A:  MOVFF  FEF,939
0465E:  MOVLW  09
04660:  MOVWF  x3C
04662:  MOVLW  0D
04664:  MOVWF  x3B
04666:  MOVFF  93A,93E
0466A:  MOVFF  939,93D
0466E:  CLRF   x3F
04670:  MOVLW  37
04672:  MOVWF  x40
04674:  MOVLW  0B
04676:  MOVWF  x41
04678:  MOVLW  01
0467A:  MOVWF  x42
0467C:  MOVLB  0
0467E:  CALL   37A6
....................             if(UP)//Si oprime hacia arriba 
04682:  BSF    F92.5
04684:  BTFSC  F80.5
04686:  BRA    4764
....................             { 
....................                Buzz_on;delay_ms(10);Buzz_off; 
04688:  BSF    F8B.5
0468A:  BCF    F94.5
0468C:  MOVLW  0A
0468E:  MOVLB  9
04690:  MOVWF  x4C
04692:  MOVLB  0
04694:  CALL   1440
04698:  BCF    F8B.5
0469A:  BCF    F94.5
....................                if(tiempoup<4){ 
0469C:  MOVLB  6
0469E:  MOVF   x2B,W
046A0:  SUBLW  03
046A2:  BNC   46D2
....................                   flagup=1; 
046A4:  BSF    x22.0
....................                   Minutos1[l+((Prog-1)*Pasos)]++; 
046A6:  MOVLW  01
046A8:  MOVLB  9
046AA:  SUBWF  x38,W
046AC:  MULLW  10
046AE:  MOVF   FF3,W
046B0:  ADDWF  x37,W
046B2:  MOVWF  00
046B4:  BCF    FD8.0
046B6:  RLCF   00,F
046B8:  MOVF   00,W
046BA:  CLRF   03
046BC:  ADDLW  47
046BE:  MOVWF  FE9
046C0:  MOVLW  08
046C2:  ADDWFC 03,W
046C4:  MOVWF  FEA
046C6:  MOVLW  01
046C8:  ADDWF  FEE,F
046CA:  BNC   46CE
046CC:  INCF   FEF,F
....................                }   
....................                else{ 
046CE:  BRA    4706
046D0:  MOVLB  6
....................                   flagup=0; 
046D2:  BCF    x22.0
....................                   Minutos1[l+((Prog-1)*Pasos)]+=10; 
046D4:  MOVLW  01
046D6:  MOVLB  9
046D8:  SUBWF  x38,W
046DA:  MULLW  10
046DC:  MOVF   FF3,W
046DE:  ADDWF  x37,W
046E0:  MOVWF  00
046E2:  BCF    FD8.0
046E4:  RLCF   00,F
046E6:  MOVF   00,W
046E8:  CLRF   03
046EA:  ADDLW  47
046EC:  MOVWF  FE9
046EE:  MOVLW  08
046F0:  ADDWFC 03,W
046F2:  MOVWF  FEA
046F4:  MOVLW  0A
046F6:  ADDWF  FEF,W
046F8:  MOVWF  01
046FA:  MOVLW  00
046FC:  ADDWFC FEC,W
046FE:  MOVF   FED,F
04700:  MOVFF  01,FEF
04704:  MOVWF  FEC
....................                } 
....................                if(Minutos1[l+((Prog-1)*Pasos)]>59) 
04706:  MOVLW  01
04708:  SUBWF  x38,W
0470A:  MULLW  10
0470C:  MOVF   FF3,W
0470E:  ADDWF  x37,W
04710:  MOVWF  00
04712:  BCF    FD8.0
04714:  RLCF   00,F
04716:  MOVF   00,W
04718:  CLRF   03
0471A:  ADDLW  47
0471C:  MOVWF  FE9
0471E:  MOVLW  08
04720:  ADDWFC 03,W
04722:  MOVWF  FEA
04724:  MOVFF  FEC,93A
04728:  MOVF   FED,F
0472A:  MOVFF  FEF,939
0472E:  BTFSC  x3A.7
04730:  BRA    4760
04732:  MOVF   x3A,F
04734:  BNZ   473C
04736:  MOVF   x39,W
04738:  SUBLW  3B
0473A:  BC    4760
....................                   Minutos1[l+((Prog-1)*Pasos)]=0; 
0473C:  MOVLW  01
0473E:  SUBWF  x38,W
04740:  MULLW  10
04742:  MOVF   FF3,W
04744:  ADDWF  x37,W
04746:  MOVWF  00
04748:  BCF    FD8.0
0474A:  RLCF   00,F
0474C:  MOVF   00,W
0474E:  CLRF   03
04750:  ADDLW  47
04752:  MOVWF  FE9
04754:  MOVLW  08
04756:  ADDWFC 03,W
04758:  MOVWF  FEA
0475A:  CLRF   FEC
0475C:  MOVF   FED,F
0475E:  CLRF   FEF
....................             } 
....................             else{ 
04760:  BRA    476C
04762:  MOVLB  0
....................                flagup=0;tiempoup=0; 
04764:  MOVLB  6
04766:  BCF    x22.0
04768:  CLRF   x2B
0476A:  MOVLB  9
....................             } 
....................                       
....................             if(DOWN)//Si oprime hacia abajo 
0476C:  BSF    F96.0
0476E:  BTFSC  F84.0
04770:  BRA    484A
....................             { 
....................                Buzz_on;delay_ms(10);Buzz_off; 
04772:  BSF    F8B.5
04774:  BCF    F94.5
04776:  MOVLW  0A
04778:  MOVWF  x4C
0477A:  MOVLB  0
0477C:  CALL   1440
04780:  BCF    F8B.5
04782:  BCF    F94.5
....................                if(tiempodn<4){ 
04784:  MOVLB  6
04786:  MOVF   x2C,W
04788:  SUBLW  03
0478A:  BNC   47BC
....................                   flagdn=1; 
0478C:  BSF    x22.1
....................                   Minutos1[l+((Prog-1)*Pasos)]--; 
0478E:  MOVLW  01
04790:  MOVLB  9
04792:  SUBWF  x38,W
04794:  MULLW  10
04796:  MOVF   FF3,W
04798:  ADDWF  x37,W
0479A:  MOVWF  00
0479C:  BCF    FD8.0
0479E:  RLCF   00,F
047A0:  MOVF   00,W
047A2:  CLRF   03
047A4:  ADDLW  47
047A6:  MOVWF  FE9
047A8:  MOVLW  08
047AA:  ADDWFC 03,W
047AC:  MOVWF  FEA
047AE:  MOVLW  FF
047B0:  ADDWF  FEF,F
047B2:  BC    47B8
047B4:  MOVF   FEE,F
047B6:  DECF   FED,F
....................                } 
....................                else{ 
047B8:  BRA    47F4
047BA:  MOVLB  6
....................                   flagdn=0; 
047BC:  BCF    x22.1
....................                   Minutos1[l+((Prog-1)*Pasos)]-=10; 
047BE:  MOVLW  01
047C0:  MOVLB  9
047C2:  SUBWF  x38,W
047C4:  MULLW  10
047C6:  MOVF   FF3,W
047C8:  ADDWF  x37,W
047CA:  MOVWF  00
047CC:  BCF    FD8.0
047CE:  RLCF   00,F
047D0:  MOVF   00,W
047D2:  CLRF   03
047D4:  ADDLW  47
047D6:  MOVWF  FE9
047D8:  MOVLW  08
047DA:  ADDWFC 03,W
047DC:  MOVWF  FEA
047DE:  MOVLW  0A
047E0:  SUBWF  FEF,W
047E2:  MOVWF  00
047E4:  MOVLW  00
047E6:  SUBWFB FEC,W
047E8:  MOVWF  03
047EA:  MOVF   00,W
047EC:  MOVF   FED,F
047EE:  MOVWF  FEF
047F0:  MOVFF  03,FEC
....................                } 
....................                if(Minutos1[l+((Prog-1)*Pasos)]<0) 
047F4:  MOVLW  01
047F6:  SUBWF  x38,W
047F8:  MULLW  10
047FA:  MOVF   FF3,W
047FC:  ADDWF  x37,W
047FE:  MOVWF  00
04800:  BCF    FD8.0
04802:  RLCF   00,F
04804:  MOVF   00,W
04806:  CLRF   03
04808:  ADDLW  47
0480A:  MOVWF  FE9
0480C:  MOVLW  08
0480E:  ADDWFC 03,W
04810:  MOVWF  FEA
04812:  MOVFF  FEC,93A
04816:  MOVF   FED,F
04818:  MOVFF  FEF,939
0481C:  BTFSC  x3A.7
0481E:  BRA    4822
04820:  BRA    4848
....................                   Minutos1[l+((Prog-1)*Pasos)]=59; 
04822:  MOVLW  01
04824:  SUBWF  x38,W
04826:  MULLW  10
04828:  MOVF   FF3,W
0482A:  ADDWF  x37,W
0482C:  MOVWF  00
0482E:  BCF    FD8.0
04830:  RLCF   00,F
04832:  MOVF   00,W
04834:  CLRF   03
04836:  ADDLW  47
04838:  MOVWF  FE9
0483A:  MOVLW  08
0483C:  ADDWFC 03,W
0483E:  MOVWF  FEA
04840:  CLRF   FEC
04842:  MOVF   FED,F
04844:  MOVLW  3B
04846:  MOVWF  FEF
....................             } 
....................             else{ 
04848:  BRA    4852
....................                flagdn=0;tiempodn=0; 
0484A:  MOVLB  6
0484C:  BCF    x22.1
0484E:  CLRF   x2C
04850:  MOVLB  9
....................             } 
....................          } 
.................... } 
04852:  MOVLB  0
04854:  GOTO   8C7C (RETURN)
....................  
.................... int8 extraeDecimal(float data){ 
*
05F3A:  MOVLB  9
05F3C:  CLRF   x3D
05F3E:  CLRF   x3C
05F40:  CLRF   x3B
05F42:  CLRF   x3A
05F44:  CLRF   x41
05F46:  CLRF   x40
05F48:  CLRF   x3F
05F4A:  CLRF   x3E
....................    float entero=0; 
....................    float tmp=0.0; 
....................     
....................    entero=(int8)data; 
05F4C:  MOVFF  939,945
05F50:  MOVFF  938,944
05F54:  MOVFF  937,943
05F58:  MOVFF  936,942
05F5C:  MOVLB  0
05F5E:  CALL   27D4
05F62:  MOVLB  9
05F64:  CLRF   x4D
05F66:  MOVFF  01,94C
05F6A:  MOVLB  0
05F6C:  CALL   1DF6
05F70:  MOVFF  03,93D
05F74:  MOVFF  02,93C
05F78:  MOVFF  01,93B
05F7C:  MOVFF  00,93A
....................    tmp=(data-entero)*100; 
05F80:  BSF    FD8.1
05F82:  MOVFF  939,94C
05F86:  MOVFF  938,94B
05F8A:  MOVFF  937,94A
05F8E:  MOVFF  936,949
05F92:  MOVFF  93D,950
05F96:  MOVFF  93C,94F
05F9A:  MOVFF  93B,94E
05F9E:  MOVFF  93A,94D
05FA2:  CALL   1EA4
05FA6:  MOVFF  00,942
05FAA:  MOVFF  01,943
05FAE:  MOVFF  02,944
05FB2:  MOVFF  03,945
05FB6:  MOVFF  03,95A
05FBA:  MOVFF  02,959
05FBE:  MOVFF  01,958
05FC2:  MOVFF  00,957
05FC6:  MOVLB  9
05FC8:  CLRF   x5E
05FCA:  CLRF   x5D
05FCC:  MOVLW  48
05FCE:  MOVWF  x5C
05FD0:  MOVLW  85
05FD2:  MOVWF  x5B
05FD4:  MOVLB  0
05FD6:  CALL   227A
05FDA:  MOVFF  03,941
05FDE:  MOVFF  02,940
05FE2:  MOVFF  01,93F
05FE6:  MOVFF  00,93E
....................    return (int8)tmp; 
05FEA:  MOVFF  941,945
05FEE:  MOVFF  940,944
05FF2:  MOVFF  93F,943
05FF6:  MOVFF  93E,942
05FFA:  CALL   27D4
05FFE:  MOVF   01,W
.................... } 
06000:  GOTO   C9DA (RETURN)
....................  
.................... float inttofloat(int8 decimal){ 
....................    float tmp; 
....................    tmp=decimal; 
....................    return tmp/100; 
.................... } 
....................  
.................... void ConfigInicial(){ 
....................    setup_timer_1(T1_INTERNAL|T1_DIV_BY_1); 
*
01468:  MOVLW  85
0146A:  MOVWF  FCD
....................    enable_interrupts(INT_TIMER1); 
0146C:  BSF    F9D.0
....................    setup_adc_ports(AN0_TO_AN2); 
0146E:  MOVF   FC1,W
01470:  ANDLW  C0
01472:  IORLW  0C
01474:  MOVWF  FC1
....................    setup_adc(ADC_CLOCK_DIV_64); 
01476:  MOVF   FC0,W
01478:  ANDLW  C0
0147A:  IORLW  06
0147C:  MOVWF  FC0
0147E:  BSF    FC0.7
01480:  BSF    FC2.0
....................    enable_interrupts(global); 
01482:  MOVLW  C0
01484:  IORWF  FF2,F
.................... } 
01486:  GOTO   65CA (RETURN)
....................  
.................... void LeeEEPROM(){  
....................    for(j=1;j<6;j++){ 
....................       for(i=0;i<Pasos;i++){ 
....................          delay_ms(10);  
....................          Temperatura1[i+((j-1)*Pasos)]=make16(read_eeprom((i*2)+1+((j-1)*(Pasos*4))),read_eeprom((i*2)+((j-1)*(Pasos*4)))); 
....................          if(Temperatura1[i+((j-1)*Pasos)]>1200 || Temperatura1[i+((j-1)*Pasos)]<0){ 
....................             Temperatura1[i+((j-1)*Pasos)]=0; 
....................             write_eeprom((i*2)+1+((j-1)*(Pasos*4)),0); 
....................             delay_ms(20); 
....................             write_eeprom((i*2)+((j-1)*(Pasos*4)),0); 
....................             delay_ms(20); 
....................          } 
....................          delay_ms(10); 
....................          Horas1[i+((j-1)*Pasos)]=read_eeprom(i+(((Pasos*4)*j)-(Pasos*2)));      
....................          if(Horas1[i+((j-1)*Pasos)]>99){ 
....................             Horas1[i+((j-1)*Pasos)]=0; 
....................             write_eeprom(i+(((Pasos*4)*j)-(Pasos*2)),0); 
....................             delay_ms(20); 
....................          } 
....................          delay_ms(10);     
....................          Minutos1[i+((j-1)*Pasos)]=read_eeprom(i+(((Pasos*4)*j)-Pasos)); 
....................          if(Minutos1[i+((j-1)*Pasos)]>59){ 
....................             Minutos1[i+((j-1)*Pasos)]=0; 
....................             write_eeprom(i+(((Pasos*4)*j)-Pasos),0); 
....................             delay_ms(20); 
....................          } 
....................           
....................       } 
....................    } 
....................     
....................    delay_ms(50);    
....................    Ganancia=read_eeprom(450); 
....................    delay_ms(50);    
....................    if(Ganancia>10){ 
....................       Ganancia=3; 
....................       write_eeprom(450,3); 
....................       delay_ms(20); 
....................    } 
....................    GananciaIn=Ganancia; 
....................    Tciclo=read_eeprom(451); 
....................    delay_ms(50);    
....................    if(Tciclo>10){ 
....................       Tciclo=10; 
....................       write_eeprom(451,10); 
....................       delay_ms(20); 
....................    } 
....................    Ajuste=read_eeprom(452); 
....................    delay_ms(50); 
....................    if(Ajuste>10){ 
....................       Ajuste=0; 
....................       write_eeprom(452,0); 
....................       delay_ms(20); 
....................    } 
....................    Ajusten=read_eeprom(453); 
....................    delay_ms(50); 
....................    if(Ajusten>10){ 
....................       Ajusten=0; 
....................       write_eeprom(453,0); 
....................       delay_ms(20); 
....................    } 
....................    MediaMovil=read_eeprom(454); 
....................    delay_ms(50);    
....................    if(MediaMovil>40){ 
....................       MediaMovil=20; 
....................       write_eeprom(454,20); 
....................       delay_ms(20); 
....................    } 
....................    Coeficiente=read_eeprom(455); 
....................    delay_ms(50);    
....................    resistencia=read_eeprom(457); 
....................    delay_ms(50);  
....................    if(resistencia>250){ 
....................       resistencia=238; 
....................       write_eeprom(457,240); 
....................       delay_ms(20); 
....................    } 
....................    penMufla=read_eeprom(458); 
....................    delay_ms(50);  
....................    if(penMufla>70){ 
....................       penMufla=50; 
....................       write_eeprom(458,100); 
....................       delay_ms(20); 
....................    } 
....................     
....................    Password[0]=read_eeprom(460); 
....................    delay_ms(50);    
....................    if(Password[0]>9 || Password[0]<0){ 
....................       Password[0]=0; 
....................       write_eeprom(460,0); 
....................       delay_ms(20); 
....................    } 
....................    Password[1]=read_eeprom(461); 
....................    delay_ms(50);    
....................    if(Password[1]>9 || Password[1]<0){ 
....................       Password[1]=0; 
....................       write_eeprom(461,0); 
....................       delay_ms(20); 
....................    } 
....................    Password[2]=read_eeprom(462); 
....................    delay_ms(50);    
....................    if(Password[2]>9 || Password[2]<0){ 
....................       Password[2]=0; 
....................       write_eeprom(462,0); 
....................       delay_ms(20); 
....................    } 
....................    Password[3]=read_eeprom(463); 
....................    delay_ms(50); 
....................    if(Password[3]>9 || Password[3]<0){ 
....................       Password[3]=0; 
....................       write_eeprom(463,0); 
....................       delay_ms(20); 
....................    } 
....................     
....................    Integral=read_eeprom(470); 
....................    delay_ms(50);  
....................    if(Integral>5){ 
....................       Integral=1; 
....................       write_eeprom(470,1); 
....................       delay_ms(20); 
....................    } 
....................    Derivativo=read_eeprom(471); 
....................    delay_ms(50);  
....................    if(Derivativo>40){ 
....................       Derivativo=30; 
....................       write_eeprom(471,30); 
....................       delay_ms(20); 
....................    } 
....................    AlTem=make16(read_eeprom(473),read_eeprom(472)); 
....................    delay_ms(50);  
....................    if(AlTem>500){ 
....................       AlTem=200; 
....................       write_eeprom(472,200); 
....................       delay_ms(20); 
....................       write_eeprom(473,0); 
....................       delay_ms(20); 
....................    } 
....................    Modo=read_eeprom(480); 
....................    delay_ms(50);  
....................    m_int=read_eeprom(490); 
....................    delay_ms(50);  
....................    m_dec=read_eeprom(491); 
....................    delay_ms(50);  
....................    m=m_int+((float)m_dec/100); 
....................    b16=make16(read_eeprom(493),read_eeprom(492)); 
....................    b_dec=read_eeprom(494); 
....................    delay_ms(50);  
....................    b=b16+((float)b_dec/100); 
....................    if(b<300 || b>400){ 
....................       b=347.66; 
....................       write_eeprom(492,make8(347,0)); 
....................       delay_ms(10); 
....................       write_eeprom(493,make8(347,1)); 
....................       delay_ms(10); 
....................       write_eeprom(494,66); 
....................       delay_ms(10); 
....................    } 
....................    if(m<1.0 || m>2.0){ 
....................       m=1.79; 
....................       write_eeprom(490,1); 
....................       delay_ms(10); 
....................       write_eeprom(491,79); 
....................       delay_ms(10); 
....................    } 
.................... } 
....................  
.................... short PidePassword(int8 MenuAnt, int8 MenuActual, int8 MenuPost, int8 clave0,int8 clave1, int8 clave2,int8 clave3){ 
....................       if(n==0) 
*
02962:  MOVLB  6
02964:  MOVF   x35,F
02966:  BNZ   2A0A
....................       { 
....................          displayContrasena(Contrasena[0],20,30,1);displayContrasena(Contrasena[1],40,30,0); 
02968:  MOVFF  68F,93F
0296C:  MOVLW  14
0296E:  MOVLB  9
02970:  MOVWF  x40
02972:  MOVLW  1E
02974:  MOVWF  x41
02976:  MOVLW  01
02978:  MOVWF  x42
0297A:  MOVLB  0
0297C:  CALL   1D40
02980:  MOVFF  690,93F
02984:  MOVLW  28
02986:  MOVLB  9
02988:  MOVWF  x40
0298A:  MOVLW  1E
0298C:  MOVWF  x41
0298E:  CLRF   x42
02990:  MOVLB  0
02992:  CALL   1D40
....................          displayContrasena(Contrasena[2],60,30,0);displayContrasena(Contrasena[0],80,30,0); 
02996:  MOVFF  691,93F
0299A:  MOVLW  3C
0299C:  MOVLB  9
0299E:  MOVWF  x40
029A0:  MOVLW  1E
029A2:  MOVWF  x41
029A4:  CLRF   x42
029A6:  MOVLB  0
029A8:  CALL   1D40
029AC:  MOVFF  68F,93F
029B0:  MOVLW  50
029B2:  MOVLB  9
029B4:  MOVWF  x40
029B6:  MOVLW  1E
029B8:  MOVWF  x41
029BA:  CLRF   x42
029BC:  MOVLB  0
029BE:  CALL   1D40
....................          strcpy(Menus.Letra,"Clave"); 
029C2:  MOVLW  09
029C4:  MOVWF  FEA
029C6:  MOVLW  0D
029C8:  MOVWF  FE9
029CA:  MOVFF  FF2,93D
029CE:  BCF    FF2.7
029D0:  MOVLW  00
029D2:  CALL   07D8
029D6:  TBLRD*-
029D8:  TBLRD*+
029DA:  MOVF   FF5,W
029DC:  MOVWF  FEE
029DE:  IORLW  00
029E0:  BNZ   29D8
029E2:  MOVLB  9
029E4:  BTFSC  x3D.7
029E6:  BSF    FF2.7
....................          displayMenu(Menus.Letra,20,0,1,3); 
029E8:  MOVLW  09
029EA:  MOVWF  x3E
029EC:  MOVLW  0D
029EE:  MOVWF  x3D
029F0:  MOVLW  14
029F2:  MOVWF  x3F
029F4:  CLRF   x40
029F6:  MOVLW  01
029F8:  MOVWF  x41
029FA:  MOVLW  03
029FC:  MOVWF  x42
029FE:  MOVLB  0
02A00:  CALL   1AEE
....................          n=1; 
02A04:  MOVLW  01
02A06:  MOVLB  6
02A08:  MOVWF  x35
....................       } 
....................        
....................       if(UP){ 
02A0A:  BSF    F92.5
02A0C:  BTFSC  F80.5
02A0E:  BRA    2AE4
....................          if(Flanco == 0){ 
02A10:  BTFSC  x22.4
02A12:  BRA    2AE2
....................             Flanco = 1;delay_ms(5); 
02A14:  BSF    x22.4
02A16:  MOVLW  05
02A18:  MOVLB  9
02A1A:  MOVWF  x4C
02A1C:  MOVLB  0
02A1E:  CALL   1440
....................             for(i=1;i<=4;i++){ 
02A22:  MOVLW  01
02A24:  MOVLB  6
02A26:  MOVWF  x3A
02A28:  MOVF   x3A,W
02A2A:  SUBLW  04
02A2C:  BNC   2AE2
....................                if(unidad==i){ 
02A2E:  MOVF   x3A,W
02A30:  SUBWF  x39,W
02A32:  BNZ   2AAA
....................                   Contrasena[i-1]++; 
02A34:  MOVLW  01
02A36:  SUBWF  x3A,W
02A38:  CLRF   03
02A3A:  ADDLW  8F
02A3C:  MOVWF  FE9
02A3E:  MOVLW  06
02A40:  ADDWFC 03,W
02A42:  MOVWF  FEA
02A44:  INCF   FEF,F
....................                   if(Contrasena[i-1]>9){ 
02A46:  MOVLW  01
02A48:  SUBWF  x3A,W
02A4A:  CLRF   03
02A4C:  ADDLW  8F
02A4E:  MOVWF  FE9
02A50:  MOVLW  06
02A52:  ADDWFC 03,W
02A54:  MOVWF  FEA
02A56:  BTFSC  FEF.7
02A58:  BRA    2A72
02A5A:  MOVF   FEF,W
02A5C:  SUBLW  09
02A5E:  BC    2A72
....................                      Contrasena[i-1]=0; 
02A60:  MOVLW  01
02A62:  SUBWF  x3A,W
02A64:  CLRF   03
02A66:  ADDLW  8F
02A68:  MOVWF  FE9
02A6A:  MOVLW  06
02A6C:  ADDWFC 03,W
02A6E:  MOVWF  FEA
02A70:  CLRF   FEF
....................                   } 
....................                   displayContrasena(Contrasena[i-1],i*20,30,1); 
02A72:  MOVLW  01
02A74:  SUBWF  x3A,W
02A76:  CLRF   03
02A78:  ADDLW  8F
02A7A:  MOVWF  FE9
02A7C:  MOVLW  06
02A7E:  ADDWFC 03,W
02A80:  MOVWF  FEA
02A82:  MOVFF  FEF,93D
02A86:  MOVF   x3A,W
02A88:  MULLW  14
02A8A:  MOVFF  FF3,93E
02A8E:  MOVLB  9
02A90:  MOVFF  93D,93F
02A94:  MOVFF  93E,940
02A98:  MOVLW  1E
02A9A:  MOVWF  x41
02A9C:  MOVLW  01
02A9E:  MOVWF  x42
02AA0:  MOVLB  0
02AA2:  CALL   1D40
....................                }else{ 
02AA6:  BRA    2ADC
02AA8:  MOVLB  6
....................                   displayContrasena(Contrasena[i-1],i*20,30,0); 
02AAA:  MOVLW  01
02AAC:  SUBWF  x3A,W
02AAE:  CLRF   03
02AB0:  ADDLW  8F
02AB2:  MOVWF  FE9
02AB4:  MOVLW  06
02AB6:  ADDWFC 03,W
02AB8:  MOVWF  FEA
02ABA:  MOVFF  FEF,93D
02ABE:  MOVF   x3A,W
02AC0:  MULLW  14
02AC2:  MOVFF  FF3,93E
02AC6:  MOVLB  9
02AC8:  MOVFF  93D,93F
02ACC:  MOVFF  93E,940
02AD0:  MOVLW  1E
02AD2:  MOVWF  x41
02AD4:  CLRF   x42
02AD6:  MOVLB  0
02AD8:  CALL   1D40
....................                } 
....................             } 
02ADC:  MOVLB  6
02ADE:  INCF   x3A,F
02AE0:  BRA    2A28
....................          } 
....................       }else{ 
02AE2:  BRA    2AE6
....................          Flanco = 0; 
02AE4:  BCF    x22.4
....................       } 
....................              
....................       if(DOWN){ 
02AE6:  BSF    F96.0
02AE8:  BTFSC  F84.0
02AEA:  BRA    2BBE
....................          if(Flanco2 == 0){ 
02AEC:  BTFSC  x22.6
02AEE:  BRA    2BBC
....................             Flanco2 = 1;delay_ms(5); 
02AF0:  BSF    x22.6
02AF2:  MOVLW  05
02AF4:  MOVLB  9
02AF6:  MOVWF  x4C
02AF8:  MOVLB  0
02AFA:  CALL   1440
....................             for(i=1;i<=4;i++){ 
02AFE:  MOVLW  01
02B00:  MOVLB  6
02B02:  MOVWF  x3A
02B04:  MOVF   x3A,W
02B06:  SUBLW  04
02B08:  BNC   2BBC
....................                if(unidad==i){ 
02B0A:  MOVF   x3A,W
02B0C:  SUBWF  x39,W
02B0E:  BNZ   2B84
....................                   Contrasena[i-1]--; 
02B10:  MOVLW  01
02B12:  SUBWF  x3A,W
02B14:  CLRF   03
02B16:  ADDLW  8F
02B18:  MOVWF  FE9
02B1A:  MOVLW  06
02B1C:  ADDWFC 03,W
02B1E:  MOVWF  FEA
02B20:  DECF   FEF,F
....................                   if(Contrasena[i-1]<0){ 
02B22:  MOVLW  01
02B24:  SUBWF  x3A,W
02B26:  CLRF   03
02B28:  ADDLW  8F
02B2A:  MOVWF  FE9
02B2C:  MOVLW  06
02B2E:  ADDWFC 03,W
02B30:  MOVWF  FEA
02B32:  BTFSC  FEF.7
02B34:  BRA    2B38
02B36:  BRA    2B4C
....................                      Contrasena[i-1]=9; 
02B38:  MOVLW  01
02B3A:  SUBWF  x3A,W
02B3C:  CLRF   03
02B3E:  ADDLW  8F
02B40:  MOVWF  FE9
02B42:  MOVLW  06
02B44:  ADDWFC 03,W
02B46:  MOVWF  FEA
02B48:  MOVLW  09
02B4A:  MOVWF  FEF
....................                   } 
....................                   displayContrasena(Contrasena[i-1],i*20,30,1); 
02B4C:  MOVLW  01
02B4E:  SUBWF  x3A,W
02B50:  CLRF   03
02B52:  ADDLW  8F
02B54:  MOVWF  FE9
02B56:  MOVLW  06
02B58:  ADDWFC 03,W
02B5A:  MOVWF  FEA
02B5C:  MOVFF  FEF,93D
02B60:  MOVF   x3A,W
02B62:  MULLW  14
02B64:  MOVFF  FF3,93E
02B68:  MOVLB  9
02B6A:  MOVFF  93D,93F
02B6E:  MOVFF  93E,940
02B72:  MOVLW  1E
02B74:  MOVWF  x41
02B76:  MOVLW  01
02B78:  MOVWF  x42
02B7A:  MOVLB  0
02B7C:  CALL   1D40
....................                }else{ 
02B80:  BRA    2BB6
02B82:  MOVLB  6
....................                   displayContrasena(Contrasena[i-1],i*20,30,0); 
02B84:  MOVLW  01
02B86:  SUBWF  x3A,W
02B88:  CLRF   03
02B8A:  ADDLW  8F
02B8C:  MOVWF  FE9
02B8E:  MOVLW  06
02B90:  ADDWFC 03,W
02B92:  MOVWF  FEA
02B94:  MOVFF  FEF,93D
02B98:  MOVF   x3A,W
02B9A:  MULLW  14
02B9C:  MOVFF  FF3,93E
02BA0:  MOVLB  9
02BA2:  MOVFF  93D,93F
02BA6:  MOVFF  93E,940
02BAA:  MOVLW  1E
02BAC:  MOVWF  x41
02BAE:  CLRF   x42
02BB0:  MOVLB  0
02BB2:  CALL   1D40
....................                } 
....................             }       
02BB6:  MOVLB  6
02BB8:  INCF   x3A,F
02BBA:  BRA    2B04
....................          }      
....................       }else{ 
02BBC:  BRA    2BC0
....................          Flanco2 = 0; 
02BBE:  BCF    x22.6
....................       } 
....................              
....................       if(RIGHT){ 
02BC0:  BSF    F96.1
02BC2:  BTFSC  F84.1
02BC4:  BRA    2C5E
....................          if(Flanco1 == 0){ 
02BC6:  BTFSC  x22.5
02BC8:  BRA    2C5C
....................             Flanco1 = 1;delay_ms(5);unidad++; 
02BCA:  BSF    x22.5
02BCC:  MOVLW  05
02BCE:  MOVLB  9
02BD0:  MOVWF  x4C
02BD2:  MOVLB  0
02BD4:  CALL   1440
02BD8:  MOVLB  6
02BDA:  INCF   x39,F
....................             for(i=1;i<=4;i++){ 
02BDC:  MOVLW  01
02BDE:  MOVWF  x3A
02BE0:  MOVF   x3A,W
02BE2:  SUBLW  04
02BE4:  BNC   2C5C
....................                if(unidad==i){ 
02BE6:  MOVF   x3A,W
02BE8:  SUBWF  x39,W
02BEA:  BNZ   2C24
....................                   displayContrasena(Contrasena[i-1],i*20,30,1); 
02BEC:  MOVLW  01
02BEE:  SUBWF  x3A,W
02BF0:  CLRF   03
02BF2:  ADDLW  8F
02BF4:  MOVWF  FE9
02BF6:  MOVLW  06
02BF8:  ADDWFC 03,W
02BFA:  MOVWF  FEA
02BFC:  MOVFF  FEF,93D
02C00:  MOVF   x3A,W
02C02:  MULLW  14
02C04:  MOVFF  FF3,93E
02C08:  MOVLB  9
02C0A:  MOVFF  93D,93F
02C0E:  MOVFF  93E,940
02C12:  MOVLW  1E
02C14:  MOVWF  x41
02C16:  MOVLW  01
02C18:  MOVWF  x42
02C1A:  MOVLB  0
02C1C:  CALL   1D40
....................                }else{ 
02C20:  BRA    2C56
02C22:  MOVLB  6
....................                   displayContrasena(Contrasena[i-1],i*20,30,0); 
02C24:  MOVLW  01
02C26:  SUBWF  x3A,W
02C28:  CLRF   03
02C2A:  ADDLW  8F
02C2C:  MOVWF  FE9
02C2E:  MOVLW  06
02C30:  ADDWFC 03,W
02C32:  MOVWF  FEA
02C34:  MOVFF  FEF,93D
02C38:  MOVF   x3A,W
02C3A:  MULLW  14
02C3C:  MOVFF  FF3,93E
02C40:  MOVLB  9
02C42:  MOVFF  93D,93F
02C46:  MOVFF  93E,940
02C4A:  MOVLW  1E
02C4C:  MOVWF  x41
02C4E:  CLRF   x42
02C50:  MOVLB  0
02C52:  CALL   1D40
....................                } 
....................             } 
02C56:  MOVLB  6
02C58:  INCF   x3A,F
02C5A:  BRA    2BE0
....................          } 
....................       }else{ 
02C5C:  BRA    2C60
....................          Flanco1 = 0; 
02C5E:  BCF    x22.5
....................       } 
....................        
....................       if(LEFT){ 
02C60:  BSF    F96.2
02C62:  BTFSC  F84.2
02C64:  BRA    2CAE
....................          delay_ms(100); 
02C66:  MOVLW  64
02C68:  MOVLB  9
02C6A:  MOVWF  x4C
02C6C:  MOVLB  0
02C6E:  CALL   1440
....................          if(LEFT){ 
02C72:  BSF    F96.2
02C74:  BTFSC  F84.2
02C76:  BRA    2CAC
....................             Menu=MenuAnt;glcd_fillScreen(OFF);n=0;Opcion=1;unidad=1; 
02C78:  MOVFF  936,638
02C7C:  MOVLB  9
02C7E:  CLRF   x3D
02C80:  MOVLB  0
02C82:  CALL   14C0
02C86:  MOVLB  6
02C88:  CLRF   x35
02C8A:  MOVLW  01
02C8C:  MOVWF  x3F
02C8E:  MOVWF  x39
....................             Contrasena[0]=0;Contrasena[1]=0;Contrasena[2]=0;Contrasena[3]=0; 
02C90:  CLRF   x8F
02C92:  CLRF   x90
02C94:  CLRF   x91
02C96:  CLRF   x92
....................             glcd_fillScreen(OFF);glcd_update(); 
02C98:  MOVLB  9
02C9A:  CLRF   x3D
02C9C:  MOVLB  0
02C9E:  CALL   14C0
02CA2:  CALL   151A
....................             return 1; 
02CA6:  MOVLW  01
02CA8:  MOVWF  01
02CAA:  BRA    2F4A
02CAC:  MOVLB  6
....................          } 
....................       } 
....................      
....................       if(unidad>4){ 
02CAE:  MOVF   x39,W
02CB0:  SUBLW  04
02CB2:  BTFSC  FD8.0
02CB4:  BRA    2F4C
....................          glcd_fillScreen(OFF);unidad=1; 
02CB6:  MOVLB  9
02CB8:  CLRF   x3D
02CBA:  MOVLB  0
02CBC:  CALL   14C0
02CC0:  MOVLW  01
02CC2:  MOVLB  6
02CC4:  MOVWF  x39
....................          /* 
....................          if(Contrasena[0]==3&&Contrasena[1]==8&&Contrasena[2]==9&&Contrasena[3]==2 && MenuActual==0){ // Si Ingresa clave para reset general del sistema. 
....................             write_eeprom(0,0);delay_ms(20);write_eeprom(1,0);delay_ms(20);// Reestablece a contrasea de Fabrica y reinicia Programa. 
....................             write_eeprom(2,0);delay_ms(20);write_eeprom(3,0);delay_ms(20); 
....................             reset_cpu(); 
....................          } 
....................       */ 
....................          if((Contrasena[0]==clave0)&&(Contrasena[1]==clave1)&&(Contrasena[2]==clave2)&&(Contrasena[3]==clave3)){ 
02CC6:  MOVLB  9
02CC8:  MOVF   x39,W
02CCA:  MOVLB  6
02CCC:  SUBWF  x8F,W
02CCE:  BTFSS  FD8.2
02CD0:  BRA    2DBA
02CD2:  MOVLB  9
02CD4:  MOVF   x3A,W
02CD6:  MOVLB  6
02CD8:  SUBWF  x90,W
02CDA:  BNZ   2DBA
02CDC:  MOVLB  9
02CDE:  MOVF   x3B,W
02CE0:  MOVLB  6
02CE2:  SUBWF  x91,W
02CE4:  BNZ   2DBA
02CE6:  MOVLB  9
02CE8:  MOVF   x3C,W
02CEA:  MOVLB  6
02CEC:  SUBWF  x92,W
02CEE:  BNZ   2DBA
....................             glcd_fillScreen(OFF); 
02CF0:  MOVLB  9
02CF2:  CLRF   x3D
02CF4:  MOVLB  0
02CF6:  CALL   14C0
....................             strcpy(Menus.Letra,"Clave"); 
02CFA:  MOVLW  09
02CFC:  MOVWF  FEA
02CFE:  MOVLW  0D
02D00:  MOVWF  FE9
02D02:  MOVFF  FF2,93D
02D06:  BCF    FF2.7
02D08:  MOVLW  00
02D0A:  CALL   07D8
02D0E:  TBLRD*-
02D10:  TBLRD*+
02D12:  MOVF   FF5,W
02D14:  MOVWF  FEE
02D16:  IORLW  00
02D18:  BNZ   2D10
02D1A:  MOVLB  9
02D1C:  BTFSC  x3D.7
02D1E:  BSF    FF2.7
....................             displayMenu(Menus.Letra,30,0,0,2); 
02D20:  MOVLW  09
02D22:  MOVWF  x3E
02D24:  MOVLW  0D
02D26:  MOVWF  x3D
02D28:  MOVLW  1E
02D2A:  MOVWF  x3F
02D2C:  CLRF   x40
02D2E:  CLRF   x41
02D30:  MOVLW  02
02D32:  MOVWF  x42
02D34:  MOVLB  0
02D36:  CALL   1AEE
....................             strcpy(Menus.Letra,"Correcta"); 
02D3A:  MOVLW  09
02D3C:  MOVWF  FEA
02D3E:  MOVLW  0D
02D40:  MOVWF  FE9
02D42:  MOVFF  FF2,93D
02D46:  BCF    FF2.7
02D48:  MOVLW  00
02D4A:  CALL   07FC
02D4E:  TBLRD*-
02D50:  TBLRD*+
02D52:  MOVF   FF5,W
02D54:  MOVWF  FEE
02D56:  IORLW  00
02D58:  BNZ   2D50
02D5A:  MOVLB  9
02D5C:  BTFSC  x3D.7
02D5E:  BSF    FF2.7
....................             displayMenu(Menus.Letra,15,30,0,2); 
02D60:  MOVLW  09
02D62:  MOVWF  x3E
02D64:  MOVLW  0D
02D66:  MOVWF  x3D
02D68:  MOVLW  0F
02D6A:  MOVWF  x3F
02D6C:  MOVLW  1E
02D6E:  MOVWF  x40
02D70:  CLRF   x41
02D72:  MOVLW  02
02D74:  MOVWF  x42
02D76:  MOVLB  0
02D78:  CALL   1AEE
....................             Menu=MenuPost;glcd_update();delay_ms(1000);glcd_fillScreen(OFF); 
02D7C:  MOVFF  938,638
02D80:  CALL   151A
02D84:  MOVLW  04
02D86:  MOVLB  9
02D88:  MOVWF  x3D
02D8A:  MOVLW  FA
02D8C:  MOVWF  x4C
02D8E:  MOVLB  0
02D90:  CALL   1440
02D94:  MOVLB  9
02D96:  DECFSZ x3D,F
02D98:  BRA    2D8A
02D9A:  CLRF   x3D
02D9C:  MOVLB  0
02D9E:  CALL   14C0
....................             Contrasena[0]=0;Contrasena[1]=0;Contrasena[2]=0;Contrasena[3]=0; 
02DA2:  MOVLB  6
02DA4:  CLRF   x8F
02DA6:  CLRF   x90
02DA8:  CLRF   x91
02DAA:  CLRF   x92
....................             n=0; 
02DAC:  CLRF   x35
....................             return 1; 
02DAE:  MOVLW  01
02DB0:  MOVWF  01
02DB2:  MOVLB  0
02DB4:  BRA    2F4A
....................          }else{ 
02DB6:  BRA    2F4A
02DB8:  MOVLB  6
....................             glcd_fillScreen(OFF); 
02DBA:  MOVLB  9
02DBC:  CLRF   x3D
02DBE:  MOVLB  0
02DC0:  CALL   14C0
....................             strcpy(Menus.Letra,"Clave"); 
02DC4:  MOVLW  09
02DC6:  MOVWF  FEA
02DC8:  MOVLW  0D
02DCA:  MOVWF  FE9
02DCC:  MOVFF  FF2,93D
02DD0:  BCF    FF2.7
02DD2:  MOVLW  00
02DD4:  CALL   07D8
02DD8:  TBLRD*-
02DDA:  TBLRD*+
02DDC:  MOVF   FF5,W
02DDE:  MOVWF  FEE
02DE0:  IORLW  00
02DE2:  BNZ   2DDA
02DE4:  MOVLB  9
02DE6:  BTFSC  x3D.7
02DE8:  BSF    FF2.7
....................             displayMenu(Menus.Letra,30,0,0,2); 
02DEA:  MOVLW  09
02DEC:  MOVWF  x3E
02DEE:  MOVLW  0D
02DF0:  MOVWF  x3D
02DF2:  MOVLW  1E
02DF4:  MOVWF  x3F
02DF6:  CLRF   x40
02DF8:  CLRF   x41
02DFA:  MOVLW  02
02DFC:  MOVWF  x42
02DFE:  MOVLB  0
02E00:  CALL   1AEE
....................             strcpy(Menus.Letra,"Incorrecta"); 
02E04:  MOVLW  09
02E06:  MOVWF  FEA
02E08:  MOVLW  0D
02E0A:  MOVWF  FE9
02E0C:  MOVFF  FF2,93D
02E10:  BCF    FF2.7
02E12:  MOVLW  00
02E14:  CALL   0824
02E18:  TBLRD*-
02E1A:  TBLRD*+
02E1C:  MOVF   FF5,W
02E1E:  MOVWF  FEE
02E20:  IORLW  00
02E22:  BNZ   2E1A
02E24:  MOVLB  9
02E26:  BTFSC  x3D.7
02E28:  BSF    FF2.7
....................             displayMenu(Menus.Letra,0,30,0,2); 
02E2A:  MOVLW  09
02E2C:  MOVWF  x3E
02E2E:  MOVLW  0D
02E30:  MOVWF  x3D
02E32:  CLRF   x3F
02E34:  MOVLW  1E
02E36:  MOVWF  x40
02E38:  CLRF   x41
02E3A:  MOVLW  02
02E3C:  MOVWF  x42
02E3E:  MOVLB  0
02E40:  CALL   1AEE
....................             unidad=1;glcd_update();delay_ms(1000);Contrasena[0]=0;Contrasena[1]=0;Contrasena[2]=0;Contrasena[3]=0;glcd_fillScreen(OFF); 
02E44:  MOVLW  01
02E46:  MOVLB  6
02E48:  MOVWF  x39
02E4A:  MOVLB  0
02E4C:  CALL   151A
02E50:  MOVLW  04
02E52:  MOVLB  9
02E54:  MOVWF  x3D
02E56:  MOVLW  FA
02E58:  MOVWF  x4C
02E5A:  MOVLB  0
02E5C:  CALL   1440
02E60:  MOVLB  9
02E62:  DECFSZ x3D,F
02E64:  BRA    2E56
02E66:  MOVLB  6
02E68:  CLRF   x8F
02E6A:  CLRF   x90
02E6C:  CLRF   x91
02E6E:  CLRF   x92
02E70:  MOVLB  9
02E72:  CLRF   x3D
02E74:  MOVLB  0
02E76:  CALL   14C0
....................             glcd_rect(0, 0, 127, 25, YES, ON);strcpy(Menus.Letra,"Clave");glcd_text57(25, 1, Menus.Letra, 3, OFF);displayContrasena(Contrasena[0],20,30,1); 
02E7A:  MOVLB  9
02E7C:  CLRF   x4E
02E7E:  CLRF   x4F
02E80:  MOVLW  7F
02E82:  MOVWF  x50
02E84:  MOVLW  19
02E86:  MOVWF  x51
02E88:  MOVLW  01
02E8A:  MOVWF  x52
02E8C:  MOVWF  x53
02E8E:  MOVLB  0
02E90:  CALL   1874
02E94:  MOVLW  09
02E96:  MOVWF  FEA
02E98:  MOVLW  0D
02E9A:  MOVWF  FE9
02E9C:  MOVFF  FF2,93D
02EA0:  BCF    FF2.7
02EA2:  MOVLW  00
02EA4:  CALL   07D8
02EA8:  TBLRD*-
02EAA:  TBLRD*+
02EAC:  MOVF   FF5,W
02EAE:  MOVWF  FEE
02EB0:  IORLW  00
02EB2:  BNZ   2EAA
02EB4:  MOVLB  9
02EB6:  BTFSC  x3D.7
02EB8:  BSF    FF2.7
02EBA:  MOVLW  19
02EBC:  MOVWF  x4E
02EBE:  MOVLW  01
02EC0:  MOVWF  x4F
02EC2:  MOVLW  09
02EC4:  MOVWF  x51
02EC6:  MOVLW  0D
02EC8:  MOVWF  x50
02ECA:  MOVLW  03
02ECC:  MOVWF  x52
02ECE:  CLRF   x53
02ED0:  MOVLB  0
02ED2:  CALL   1936
02ED6:  MOVFF  68F,93F
02EDA:  MOVLW  14
02EDC:  MOVLB  9
02EDE:  MOVWF  x40
02EE0:  MOVLW  1E
02EE2:  MOVWF  x41
02EE4:  MOVLW  01
02EE6:  MOVWF  x42
02EE8:  MOVLB  0
02EEA:  CALL   1D40
....................             displayContrasena(Contrasena[1],40,30,0);displayContrasena(Contrasena[2],60,30,0);displayContrasena(Contrasena[0],80,30,0); 
02EEE:  MOVFF  690,93F
02EF2:  MOVLW  28
02EF4:  MOVLB  9
02EF6:  MOVWF  x40
02EF8:  MOVLW  1E
02EFA:  MOVWF  x41
02EFC:  CLRF   x42
02EFE:  MOVLB  0
02F00:  CALL   1D40
02F04:  MOVFF  691,93F
02F08:  MOVLW  3C
02F0A:  MOVLB  9
02F0C:  MOVWF  x40
02F0E:  MOVLW  1E
02F10:  MOVWF  x41
02F12:  CLRF   x42
02F14:  MOVLB  0
02F16:  CALL   1D40
02F1A:  MOVFF  68F,93F
02F1E:  MOVLW  50
02F20:  MOVLB  9
02F22:  MOVWF  x40
02F24:  MOVLW  1E
02F26:  MOVWF  x41
02F28:  CLRF   x42
02F2A:  MOVLB  0
02F2C:  CALL   1D40
....................             Menu=MenuAnt;glcd_fillScreen(OFF);n=0; 
02F30:  MOVFF  936,638
02F34:  MOVLB  9
02F36:  CLRF   x3D
02F38:  MOVLB  0
02F3A:  CALL   14C0
02F3E:  MOVLB  6
02F40:  CLRF   x35
....................             return 0; 
02F42:  MOVLW  00
02F44:  MOVWF  01
02F46:  MOVLB  0
02F48:  BRA    2F4A
02F4A:  MOVLB  6
....................          } 
....................       } 
.................... } 
02F4C:  MOVLB  0
02F4E:  RETLW  00
....................  
....................  
.................... #int_TIMER1 
.................... void temp1s(void){ 
....................    //set_timer1(45612);  // 5 ms 5536 , Posiblemente cargar con 22144 debido a F=12MHz 
....................    set_timer1(40536); 
*
01360:  MOVLW  9E
01362:  MOVWF  FCF
01364:  MOVLW  58
01366:  MOVWF  FCE
....................    tiempos++; 
01368:  MOVLB  6
0136A:  INCF   x47,F
0136C:  BTFSC  FD8.2
0136E:  INCF   x48,F
....................    tiempos3++; 
01370:  INCF   x49,F
01372:  BTFSC  FD8.2
01374:  INCF   x4A,F
....................    tiempoctrl++; 
01376:  INCF   x4B,F
01378:  BTFSC  FD8.2
0137A:  INCF   x4C,F
....................     
....................    if(Control==1){ 
0137C:  DECFSZ x34,W
0137E:  BRA    13AC
....................       if(tiempoctrl>=Tc) // Si el tiempo de control es mayor al tiempo de ciclo se reinicia tiempo de control 
01380:  MOVF   x56,W
01382:  SUBWF  x4C,W
01384:  BNC   1392
01386:  BNZ   138E
01388:  MOVF   x55,W
0138A:  SUBWF  x4B,W
0138C:  BNC   1392
....................          tiempoctrl=0; 
0138E:  CLRF   x4C
01390:  CLRF   x4B
....................        // tiempoctrl incrementa una unidad cada 5ms, por eso se dividen los tiempos por 0.005. 
....................        
....................       if(tiempoctrl<=Tp) // Si el tiempo es menor o igual al tiempo de control se enciende la resistencia de lo contrario se apaga. 
01392:  MOVF   x4C,W
01394:  SUBWF  x54,W
01396:  BNC   13A6
01398:  BNZ   13A0
0139A:  MOVF   x4B,W
0139C:  SUBWF  x53,W
0139E:  BNC   13A6
....................          Resistencia_on;  
013A0:  BSF    F8B.0
013A2:  BCF    F94.0
....................       else          
013A4:  BRA    13AA
....................          Resistencia_off; 
013A6:  BCF    F8B.0
013A8:  BCF    F94.0
....................    }else{ 
013AA:  BRA    13B0
....................       Resistencia_off; 
013AC:  BCF    F8B.0
013AE:  BCF    F94.0
....................    } 
....................     
....................    if(tiempos3>=200){ 
013B0:  MOVF   x4A,F
013B2:  BNZ   13BA
013B4:  MOVF   x49,W
013B6:  SUBLW  C7
013B8:  BC    13CE
....................       Lectura2=1; 
013BA:  MOVLW  01
013BC:  MOVWF  x2A
....................       if(flagup) 
013BE:  BTFSS  x22.0
013C0:  BRA    13C4
....................          tiempoup++; 
013C2:  INCF   x2B,F
....................       if(flagdn) 
013C4:  BTFSS  x22.1
013C6:  BRA    13CA
....................          tiempodn++;    
013C8:  INCF   x2C,F
....................       tiempos3=0; 
013CA:  CLRF   x4A
013CC:  CLRF   x49
....................    } 
....................      
....................    if(tiempos>=200){  // 12000 para que incremente cada minuto, 200para que incremente cada segundo. 
013CE:  MOVF   x48,F
013D0:  BNZ   13D8
013D2:  MOVF   x47,W
013D4:  SUBLW  C7
013D6:  BC    140C
....................       tiempos=0;Lectura=1;tiemporeset++;TiempoControl++;tiemporecta++;mensaje=!mensaje; 
013D8:  CLRF   x48
013DA:  CLRF   x47
013DC:  BSF    x30.0
013DE:  INCF   x32,F
013E0:  INCF   x3E,F
013E2:  INCF   x28,F
013E4:  BTG    x22.3
....................     
....................       if(flag_setpoint==1) 
013E6:  BTFSS  x30.6
013E8:  BRA    13F0
....................          tiemposetpoint++; 
013EA:  INCF   x51,F
013EC:  BTFSC  FD8.2
013EE:  INCF   x52,F
....................        
....................       if(tiempo_esterilizacion==1 || tiempo_esterilizacion==2){                
013F0:  DECFSZ x40,W
013F2:  BRA    13F6
013F4:  BRA    13FC
013F6:  MOVF   x40,W
013F8:  SUBLW  02
013FA:  BNZ   1402
....................          tinicio++; 
013FC:  INCF   x4D,F
013FE:  BTFSC  FD8.2
01400:  INCF   x4E,F
....................       } 
....................           
....................       if(flag_tiempocalentamiento==1) 
01402:  BTFSS  x30.4
01404:  BRA    140C
....................          tiempocalentamiento++; 
01406:  INCF   x4F,F
01408:  BTFSC  FD8.2
0140A:  INCF   x50,F
....................    }         
.................... } 
....................  
0140C:  BCF    F9E.0
0140E:  MOVLB  0
01410:  GOTO   0058
.................... void main()  
.................... {  
*
06036:  CLRF   FF8
06038:  BCF    FD0.7
0603A:  BSF    07.7
0603C:  CLRF   FEA
0603E:  CLRF   FE9
06040:  MOVLB  4
06042:  CLRF   x37
06044:  CLRF   x38
06046:  CLRF   x39
06048:  MOVLB  6
0604A:  BCF    x22.0
0604C:  BCF    x22.1
0604E:  BCF    x22.2
06050:  BCF    x22.3
06052:  CLRF   x23
06054:  CLRF   x24
06056:  CLRF   x25
06058:  CLRF   x26
0605A:  MOVLW  0A
0605C:  MOVWF  x27
0605E:  CLRF   x28
06060:  CLRF   x29
06062:  CLRF   x2A
06064:  CLRF   x2B
06066:  CLRF   x2C
06068:  CLRF   x2D
0606A:  CLRF   x2E
0606C:  MOVLW  05
0606E:  MOVWF  x2F
06070:  BCF    x22.4
06072:  BCF    x22.5
06074:  BCF    x22.6
06076:  BSF    x22.7
06078:  BCF    x30.0
0607A:  BCF    x30.1
0607C:  BCF    x30.2
0607E:  BCF    x30.3
06080:  BCF    x30.4
06082:  BCF    x30.5
06084:  BCF    x30.6
06086:  BCF    x30.7
06088:  CLRF   x31
0608A:  CLRF   x32
0608C:  MOVLW  01
0608E:  MOVWF  x33
06090:  CLRF   x34
06092:  CLRF   x35
06094:  CLRF   x36
06096:  CLRF   x37
06098:  CLRF   x38
0609A:  MOVWF  x39
0609C:  CLRF   x3A
0609E:  MOVWF  x3B
060A0:  CLRF   x3C
060A2:  CLRF   x3D
060A4:  CLRF   x3E
060A6:  MOVWF  x3F
060A8:  CLRF   x40
060AA:  CLRF   x41
060AC:  MOVLW  0A
060AE:  MOVWF  x42
060B0:  CLRF   x43
060B2:  CLRF   x44
060B4:  CLRF   x45
060B6:  CLRF   x46
060B8:  CLRF   x48
060BA:  CLRF   x47
060BC:  CLRF   x4A
060BE:  CLRF   x49
060C0:  CLRF   x4C
060C2:  CLRF   x4B
060C4:  CLRF   x4E
060C6:  CLRF   x4D
060C8:  CLRF   x50
060CA:  CLRF   x4F
060CC:  CLRF   x52
060CE:  CLRF   x51
060D0:  CLRF   x54
060D2:  CLRF   x53
060D4:  CLRF   x56
060D6:  CLRF   x55
060D8:  CLRF   x58
060DA:  MOVLW  14
060DC:  MOVWF  x57
060DE:  CLRF   x5A
060E0:  CLRF   x59
060E2:  CLRF   x5E
060E4:  CLRF   x5D
060E6:  CLRF   x5C
060E8:  CLRF   x5B
060EA:  CLRF   x62
060EC:  CLRF   x61
060EE:  MOVLW  20
060F0:  MOVWF  x60
060F2:  MOVLW  83
060F4:  MOVWF  x5F
060F6:  CLRF   x66
060F8:  CLRF   x65
060FA:  CLRF   x64
060FC:  CLRF   x63
060FE:  CLRF   x6A
06100:  CLRF   x69
06102:  CLRF   x68
06104:  CLRF   x67
06106:  CLRF   x6E
06108:  CLRF   x6D
0610A:  CLRF   x6C
0610C:  CLRF   x6B
0610E:  CLRF   x72
06110:  CLRF   x71
06112:  CLRF   x70
06114:  CLRF   x6F
06116:  CLRF   x76
06118:  CLRF   x75
0611A:  CLRF   x74
0611C:  CLRF   x73
0611E:  CLRF   x7A
06120:  CLRF   x79
06122:  CLRF   x78
06124:  CLRF   x77
06126:  CLRF   x7E
06128:  CLRF   x7D
0612A:  CLRF   x7C
0612C:  CLRF   x7B
0612E:  CLRF   x82
06130:  CLRF   x81
06132:  CLRF   x80
06134:  CLRF   x7F
06136:  CLRF   x86
06138:  CLRF   x85
0613A:  CLRF   x84
0613C:  CLRF   x83
0613E:  CLRF   x9A
06140:  CLRF   x99
06142:  CLRF   x98
06144:  CLRF   x97
06146:  CLRF   x9E
06148:  CLRF   x9D
0614A:  MOVLW  20
0614C:  MOVWF  x9C
0614E:  MOVLW  82
06150:  MOVWF  x9B
06152:  CLRF   xA2
06154:  CLRF   xA1
06156:  CLRF   xA0
06158:  CLRF   x9F
0615A:  CLRF   xA6
0615C:  CLRF   xA5
0615E:  CLRF   xA4
06160:  CLRF   xA3
06162:  CLRF   xAA
06164:  CLRF   xA9
06166:  CLRF   xA8
06168:  CLRF   xA7
0616A:  CLRF   xAE
0616C:  CLRF   xAD
0616E:  CLRF   xAC
06170:  CLRF   xAB
06172:  CLRF   xB2
06174:  CLRF   xB1
06176:  CLRF   xB0
06178:  CLRF   xAF
0617A:  CLRF   xB6
0617C:  CLRF   xB5
0617E:  CLRF   xB4
06180:  CLRF   xB3
06182:  CLRF   xBA
06184:  CLRF   xB9
06186:  MOVLW  40
06188:  MOVWF  xB8
0618A:  MOVLW  80
0618C:  MOVWF  xB7
0618E:  CLRF   xBE
06190:  CLRF   xBD
06192:  MOVLW  40
06194:  MOVWF  xBC
06196:  MOVLW  80
06198:  MOVWF  xBB
0619A:  CLRF   xC2
0619C:  CLRF   xC1
0619E:  MOVLW  16
061A0:  MOVWF  xC0
061A2:  MOVLW  86
061A4:  MOVWF  xBF
061A6:  CLRF   xC6
061A8:  CLRF   xC5
061AA:  MOVLW  70
061AC:  MOVWF  xC4
061AE:  MOVLW  86
061B0:  MOVWF  xC3
061B2:  CLRF   xCA
061B4:  CLRF   xC9
061B6:  CLRF   xC8
061B8:  CLRF   xC7
061BA:  CLRF   xCE
061BC:  CLRF   xCD
061BE:  CLRF   xCC
061C0:  CLRF   xCB
061C2:  CLRF   xD2
061C4:  CLRF   xD1
061C6:  CLRF   xD0
061C8:  CLRF   xCF
061CA:  CLRF   xD6
061CC:  CLRF   xD5
061CE:  CLRF   xD4
061D0:  CLRF   xD3
061D2:  CLRF   xDA
061D4:  CLRF   xD9
061D6:  CLRF   xD8
061D8:  CLRF   xD7
061DA:  CLRF   xDE
061DC:  CLRF   xDD
061DE:  CLRF   xDC
061E0:  CLRF   xDB
061E2:  CLRF   xE2
061E4:  CLRF   xE1
061E6:  CLRF   xE0
061E8:  CLRF   xDF
061EA:  CLRF   xE6
061EC:  CLRF   xE5
061EE:  CLRF   xE4
061F0:  CLRF   xE3
061F2:  CLRF   xEA
061F4:  CLRF   xE9
061F6:  CLRF   xE8
061F8:  CLRF   xE7
061FA:  CLRF   xEE
061FC:  CLRF   xED
061FE:  CLRF   xEC
06200:  CLRF   xEB
06202:  CLRF   xF2
06204:  CLRF   xF1
06206:  CLRF   xF0
06208:  CLRF   xEF
0620A:  CLRF   xF6
0620C:  MOVLW  40
0620E:  MOVWF  xF5
06210:  MOVLW  1C
06212:  MOVWF  xF4
06214:  MOVLW  89
06216:  MOVWF  xF3
06218:  CLRF   xFA
0621A:  CLRF   xF9
0621C:  CLRF   xF8
0621E:  CLRF   xF7
06220:  CLRF   xFE
06222:  CLRF   xFD
06224:  MOVLW  48
06226:  MOVWF  xFC
06228:  MOVLW  84
0622A:  MOVWF  xFB
0622C:  MOVLB  7
0622E:  CLRF   x02
06230:  CLRF   x01
06232:  CLRF   x00
06234:  MOVLB  6
06236:  CLRF   xFF
06238:  MOVLB  7
0623A:  CLRF   x06
0623C:  CLRF   x05
0623E:  CLRF   x04
06240:  CLRF   x03
06242:  MOVLB  8
06244:  CLRF   xEA
06246:  CLRF   xE9
06248:  CLRF   xE8
0624A:  CLRF   xE7
0624C:  CLRF   xEE
0624E:  CLRF   xED
06250:  CLRF   xEC
06252:  CLRF   xEB
06254:  CLRF   xF2
06256:  CLRF   xF1
06258:  CLRF   xF0
0625A:  CLRF   xEF
0625C:  CLRF   xF6
0625E:  CLRF   xF5
06260:  CLRF   xF4
06262:  CLRF   xF3
06264:  CLRF   xFA
06266:  CLRF   xF9
06268:  CLRF   xF8
0626A:  CLRF   xF7
0626C:  CLRF   xFE
0626E:  CLRF   xFD
06270:  CLRF   xFC
06272:  CLRF   xFB
06274:  MOVLB  9
06276:  CLRF   x00
06278:  MOVLB  8
0627A:  CLRF   xFF
0627C:  MOVLB  9
0627E:  CLRF   x02
06280:  CLRF   x01
06282:  CLRF   x04
06284:  CLRF   x03
06286:  CLRF   x06
06288:  CLRF   x05
0628A:  CLRF   x08
0628C:  CLRF   x07
0628E:  CLRF   x0A
06290:  CLRF   x09
06292:  CLRF   x0C
06294:  MOVLW  01
06296:  MOVWF  x0B
06298:  MOVF   FC1,W
0629A:  ANDLW  C0
0629C:  IORLW  0F
0629E:  MOVWF  FC1
062A0:  MOVLW  07
062A2:  MOVWF  FB4
062A4:  MOVLB  4
062A6:  CLRF   x3A
062A8:  CLRF   x3B
062AA:  CLRF   x3C
062AC:  CLRF   x3D
062AE:  CLRF   x3E
062B0:  CLRF   x3F
062B2:  CLRF   x40
062B4:  CLRF   x41
062B6:  CLRF   x42
062B8:  CLRF   x43
062BA:  CLRF   x44
062BC:  CLRF   x45
062BE:  CLRF   x46
062C0:  CLRF   x47
062C2:  CLRF   x48
062C4:  CLRF   x49
062C6:  CLRF   x4A
062C8:  CLRF   x4B
062CA:  CLRF   x4C
062CC:  CLRF   x4D
062CE:  CLRF   x4E
062D0:  CLRF   x4F
062D2:  CLRF   x50
062D4:  CLRF   x51
062D6:  CLRF   x52
062D8:  CLRF   x53
062DA:  CLRF   x54
062DC:  CLRF   x55
062DE:  CLRF   x56
062E0:  CLRF   x57
062E2:  CLRF   x58
062E4:  CLRF   x59
062E6:  CLRF   x5A
062E8:  CLRF   x5B
062EA:  CLRF   x5C
062EC:  CLRF   x5D
062EE:  CLRF   x5E
062F0:  CLRF   x5F
062F2:  CLRF   x60
062F4:  CLRF   x61
062F6:  CLRF   x62
062F8:  CLRF   x63
062FA:  CLRF   x64
062FC:  CLRF   x65
062FE:  CLRF   x66
06300:  CLRF   x67
06302:  CLRF   x68
06304:  CLRF   x69
06306:  CLRF   x6A
06308:  CLRF   x6B
0630A:  CLRF   x6C
0630C:  CLRF   x6D
0630E:  CLRF   x6E
06310:  CLRF   x6F
06312:  CLRF   x70
06314:  CLRF   x71
06316:  CLRF   x72
06318:  CLRF   x73
0631A:  CLRF   x74
0631C:  CLRF   x75
0631E:  CLRF   x76
06320:  CLRF   x77
06322:  CLRF   x78
06324:  CLRF   x79
06326:  CLRF   x7A
06328:  CLRF   x7B
0632A:  CLRF   x7C
0632C:  CLRF   x7D
0632E:  CLRF   x7E
06330:  CLRF   x7F
06332:  CLRF   x80
06334:  CLRF   x81
06336:  CLRF   x82
06338:  CLRF   x83
0633A:  CLRF   x84
0633C:  CLRF   x85
0633E:  CLRF   x86
06340:  CLRF   x87
06342:  CLRF   x88
06344:  CLRF   x89
06346:  CLRF   x8A
06348:  CLRF   x8B
0634A:  CLRF   x8C
0634C:  CLRF   x8D
0634E:  CLRF   x8E
06350:  CLRF   x8F
06352:  CLRF   x90
06354:  CLRF   x91
06356:  CLRF   x92
06358:  CLRF   x93
0635A:  CLRF   x94
0635C:  CLRF   x95
0635E:  CLRF   x96
06360:  CLRF   x97
06362:  CLRF   x98
06364:  CLRF   x99
06366:  CLRF   x9A
06368:  CLRF   x9B
0636A:  CLRF   x9C
0636C:  CLRF   x9D
0636E:  CLRF   x9E
06370:  CLRF   x9F
06372:  CLRF   xA0
06374:  CLRF   xA1
06376:  CLRF   xA2
06378:  CLRF   xA3
0637A:  CLRF   xA4
0637C:  CLRF   xA5
0637E:  CLRF   xA6
06380:  CLRF   xA7
06382:  CLRF   xA8
06384:  CLRF   xA9
06386:  CLRF   xAA
06388:  CLRF   xAB
0638A:  CLRF   xAC
0638C:  CLRF   xAD
0638E:  CLRF   xAE
06390:  CLRF   xAF
06392:  CLRF   xB0
06394:  CLRF   xB1
06396:  CLRF   xB2
06398:  CLRF   xB3
0639A:  CLRF   xB4
0639C:  CLRF   xB5
0639E:  CLRF   xB6
063A0:  CLRF   xB7
063A2:  CLRF   xB8
063A4:  CLRF   xB9
063A6:  CLRF   xBA
063A8:  CLRF   xBB
063AA:  CLRF   xBC
063AC:  CLRF   xBD
063AE:  CLRF   xBE
063B0:  CLRF   xBF
063B2:  CLRF   xC0
063B4:  CLRF   xC1
063B6:  CLRF   xC2
063B8:  CLRF   xC3
063BA:  CLRF   xC4
063BC:  CLRF   xC5
063BE:  CLRF   xC6
063C0:  CLRF   xC7
063C2:  CLRF   xC8
063C4:  CLRF   xC9
063C6:  CLRF   xCA
063C8:  CLRF   xCB
063CA:  CLRF   xCC
063CC:  CLRF   xCD
063CE:  CLRF   xCE
063D0:  CLRF   xCF
063D2:  CLRF   xD0
063D4:  CLRF   xD1
063D6:  CLRF   xD2
063D8:  CLRF   xD3
063DA:  CLRF   xD4
063DC:  CLRF   xD5
063DE:  CLRF   xD6
063E0:  CLRF   xD7
063E2:  CLRF   xD8
063E4:  CLRF   xD9
063E6:  CLRF   xDA
063E8:  CLRF   xDB
063EA:  CLRF   xDC
063EC:  CLRF   xDD
063EE:  CLRF   xDE
063F0:  CLRF   xDF
063F2:  CLRF   xE0
063F4:  CLRF   xE1
063F6:  CLRF   xE2
063F8:  CLRF   xE3
063FA:  CLRF   xE4
063FC:  CLRF   xE5
063FE:  CLRF   xE6
06400:  CLRF   xE7
06402:  CLRF   xE8
06404:  CLRF   xE9
06406:  CLRF   xEA
06408:  CLRF   xEB
0640A:  CLRF   xEC
0640C:  CLRF   xED
0640E:  CLRF   xEE
06410:  CLRF   xEF
06412:  CLRF   xF0
06414:  CLRF   xF1
06416:  CLRF   xF2
06418:  CLRF   xF3
0641A:  CLRF   xF4
0641C:  CLRF   xF5
0641E:  CLRF   xF6
06420:  CLRF   xF7
06422:  CLRF   xF8
06424:  CLRF   xF9
06426:  CLRF   xFA
06428:  CLRF   xFB
0642A:  CLRF   xFC
0642C:  CLRF   xFD
0642E:  CLRF   xFE
06430:  CLRF   xFF
06432:  MOVLB  5
06434:  CLRF   x00
06436:  CLRF   x01
06438:  CLRF   x02
0643A:  CLRF   x03
0643C:  CLRF   x04
0643E:  CLRF   x05
06440:  CLRF   x06
06442:  CLRF   x07
06444:  CLRF   x08
06446:  CLRF   x09
06448:  CLRF   x0A
0644A:  CLRF   x0B
0644C:  CLRF   x0C
0644E:  CLRF   x0D
06450:  CLRF   x0E
06452:  CLRF   x0F
06454:  CLRF   x10
06456:  CLRF   x11
06458:  CLRF   x12
0645A:  CLRF   x13
0645C:  CLRF   x14
0645E:  CLRF   x15
06460:  CLRF   x16
06462:  CLRF   x17
06464:  CLRF   x18
06466:  CLRF   x19
06468:  CLRF   x1A
0646A:  CLRF   x1B
0646C:  CLRF   x1C
0646E:  CLRF   x1D
06470:  CLRF   x1E
06472:  CLRF   x1F
06474:  CLRF   x20
06476:  CLRF   x21
06478:  CLRF   x22
0647A:  CLRF   x23
0647C:  CLRF   x24
0647E:  CLRF   x25
06480:  CLRF   x26
06482:  CLRF   x27
06484:  CLRF   x28
06486:  CLRF   x29
06488:  CLRF   x2A
0648A:  CLRF   x2B
0648C:  CLRF   x2C
0648E:  CLRF   x2D
06490:  CLRF   x2E
06492:  CLRF   x2F
06494:  CLRF   x30
06496:  CLRF   x31
06498:  CLRF   x32
0649A:  CLRF   x33
0649C:  CLRF   x34
0649E:  CLRF   x35
064A0:  CLRF   x36
064A2:  CLRF   x37
064A4:  CLRF   x38
064A6:  CLRF   x39
064A8:  CLRF   x3A
064AA:  CLRF   x3B
064AC:  CLRF   x3C
064AE:  CLRF   x3D
064B0:  CLRF   x3E
064B2:  CLRF   x3F
064B4:  CLRF   x40
064B6:  CLRF   x41
064B8:  CLRF   x42
064BA:  CLRF   x43
064BC:  CLRF   x44
064BE:  CLRF   x45
064C0:  CLRF   x46
064C2:  CLRF   x47
064C4:  CLRF   x48
064C6:  CLRF   x49
064C8:  CLRF   x4A
064CA:  CLRF   x4B
064CC:  CLRF   x4C
064CE:  CLRF   x4D
064D0:  CLRF   x4E
064D2:  CLRF   x4F
064D4:  CLRF   x50
064D6:  CLRF   x51
064D8:  CLRF   x52
064DA:  CLRF   x53
064DC:  CLRF   x54
064DE:  CLRF   x55
064E0:  CLRF   x56
064E2:  CLRF   x57
064E4:  CLRF   x58
064E6:  CLRF   x59
064E8:  CLRF   x5A
064EA:  CLRF   x5B
064EC:  CLRF   x5C
064EE:  CLRF   x5D
064F0:  CLRF   x5E
064F2:  CLRF   x5F
064F4:  CLRF   x60
064F6:  CLRF   x61
064F8:  CLRF   x62
064FA:  CLRF   x63
064FC:  CLRF   x64
064FE:  CLRF   x65
06500:  CLRF   x66
06502:  CLRF   x67
06504:  CLRF   x68
06506:  CLRF   x69
06508:  CLRF   x6A
0650A:  CLRF   x6B
0650C:  CLRF   x6C
0650E:  CLRF   x6D
06510:  CLRF   x6E
06512:  CLRF   x6F
06514:  CLRF   x70
06516:  CLRF   x71
06518:  CLRF   x72
0651A:  CLRF   x73
0651C:  CLRF   x74
0651E:  CLRF   x75
06520:  CLRF   x76
06522:  CLRF   x77
06524:  CLRF   x78
06526:  CLRF   x79
06528:  CLRF   x7A
0652A:  CLRF   x7B
0652C:  CLRF   x7C
0652E:  CLRF   x7D
06530:  CLRF   x7E
06532:  CLRF   x7F
06534:  CLRF   x80
06536:  CLRF   x81
06538:  CLRF   x82
0653A:  CLRF   x83
0653C:  CLRF   x84
0653E:  CLRF   x85
06540:  CLRF   x86
06542:  CLRF   x87
06544:  CLRF   x88
06546:  CLRF   x89
06548:  CLRF   x8A
0654A:  CLRF   x8B
0654C:  CLRF   x8C
0654E:  CLRF   x8D
06550:  CLRF   x8E
06552:  CLRF   x8F
06554:  CLRF   x90
06556:  CLRF   x91
06558:  CLRF   x92
0655A:  CLRF   x93
0655C:  CLRF   x94
0655E:  CLRF   x95
06560:  CLRF   x96
06562:  CLRF   x97
06564:  CLRF   x98
06566:  CLRF   x99
06568:  CLRF   x9A
0656A:  CLRF   x9B
0656C:  CLRF   x9C
0656E:  CLRF   x9D
06570:  CLRF   x9E
06572:  CLRF   x9F
06574:  CLRF   xA0
06576:  CLRF   xA1
06578:  MOVLB  6
0657A:  CLRF   x1A
0657C:  CLRF   x1B
0657E:  CLRF   x1C
06580:  CLRF   x1D
06582:  CLRF   x1E
06584:  CLRF   x1F
06586:  CLRF   x20
06588:  CLRF   x21
0658A:  CLRF   x87
0658C:  CLRF   x88
0658E:  CLRF   x89
06590:  CLRF   x8A
06592:  CLRF   x8B
06594:  CLRF   x8C
06596:  CLRF   x8D
06598:  CLRF   x8E
0659A:  CLRF   x8F
0659C:  CLRF   x90
0659E:  CLRF   x91
065A0:  CLRF   x92
065A2:  CLRF   x93
065A4:  CLRF   x94
065A6:  CLRF   x95
065A8:  CLRF   x96
065AA:  MOVLB  9
065AC:  CLRF   x2B
065AE:  CLRF   x2C
....................    delay_ms(1000); 
065B0:  MOVLW  04
065B2:  MOVWF  x36
065B4:  MOVLW  FA
065B6:  MOVWF  x4C
065B8:  MOVLB  0
065BA:  CALL   1440
065BE:  MOVLB  9
065C0:  DECFSZ x36,F
065C2:  BRA    65B4
....................    ConfigInicial(); 
065C4:  MOVLB  0
065C6:  GOTO   1468
....................    for (posicion=0;posicion<0x10;posicion++){ 
065CA:  MOVLB  4
065CC:  CLRF   x39
065CE:  MOVF   x39,W
065D0:  SUBLW  0F
065D2:  BNC   65E8
....................       SlaveA0Tx[posicion] = 0x00; 
065D4:  CLRF   03
065D6:  MOVF   x39,W
065D8:  ADDLW  17
065DA:  MOVWF  FE9
065DC:  MOVLW  04
065DE:  ADDWFC 03,W
065E0:  MOVWF  FEA
065E2:  CLRF   FEF
....................    } 
065E4:  INCF   x39,F
065E6:  BRA    65CE
....................    Display_on; 
065E8:  BSF    F8A.1
065EA:  BCF    F93.1
....................    glcd_init(ON);             //Inicializa la glcd 
065EC:  MOVLW  01
065EE:  MOVLB  9
065F0:  MOVWF  x36
065F2:  MOVLB  0
065F4:  CALL   15D2
....................    glcd_fillScreen(OFF);      //Limpia la pantalla 
065F8:  MOVLB  9
065FA:  CLRF   x3D
065FC:  MOVLB  0
065FE:  CALL   14C0
....................    glcd_rect(0,61,127,63,YES,ON); 
06602:  MOVLB  9
06604:  CLRF   x4E
06606:  MOVLW  3D
06608:  MOVWF  x4F
0660A:  MOVLW  7F
0660C:  MOVWF  x50
0660E:  MOVLW  3F
06610:  MOVWF  x51
06612:  MOVLW  01
06614:  MOVWF  x52
06616:  MOVWF  x53
06618:  MOVLB  0
0661A:  CALL   1874
....................    strcpy(Menus.Letra,"JP Inglobal"); 
0661E:  MOVLW  09
06620:  MOVWF  FEA
06622:  MOVLW  0D
06624:  MOVWF  FE9
06626:  MOVFF  FF2,936
0662A:  BCF    FF2.7
0662C:  MOVLW  00
0662E:  CALL   084E
06632:  TBLRD*-
06634:  TBLRD*+
06636:  MOVF   FF5,W
06638:  MOVWF  FEE
0663A:  IORLW  00
0663C:  BNZ   6634
0663E:  MOVLB  9
06640:  BTFSC  x36.7
06642:  BSF    FF2.7
....................    displayMenu(Menus.Letra,0,0,0,2);      
06644:  MOVLW  09
06646:  MOVWF  x3E
06648:  MOVLW  0D
0664A:  MOVWF  x3D
0664C:  CLRF   x3F
0664E:  CLRF   x40
06650:  CLRF   x41
06652:  MOVLW  02
06654:  MOVWF  x42
06656:  MOVLB  0
06658:  CALL   1AEE
....................    strcpy(Menus.Letra,"    Mufla Digital"); 
0665C:  MOVLW  09
0665E:  MOVWF  FEA
06660:  MOVLW  0D
06662:  MOVWF  FE9
06664:  MOVFF  FF2,936
06668:  BCF    FF2.7
0666A:  MOVLW  00
0666C:  CALL   0878
06670:  TBLRD*-
06672:  TBLRD*+
06674:  MOVF   FF5,W
06676:  MOVWF  FEE
06678:  IORLW  00
0667A:  BNZ   6672
0667C:  MOVLB  9
0667E:  BTFSC  x36.7
06680:  BSF    FF2.7
....................    displayMenu(Menus.Letra,0,20,0,1);        
06682:  MOVLW  09
06684:  MOVWF  x3E
06686:  MOVLW  0D
06688:  MOVWF  x3D
0668A:  CLRF   x3F
0668C:  MOVLW  14
0668E:  MOVWF  x40
06690:  CLRF   x41
06692:  MOVLW  01
06694:  MOVWF  x42
06696:  MOVLB  0
06698:  CALL   1AEE
....................    strcpy(Menus.Letra,"     con Rampas"); 
0669C:  MOVLW  09
0669E:  MOVWF  FEA
066A0:  MOVLW  0D
066A2:  MOVWF  FE9
066A4:  MOVFF  FF2,936
066A8:  BCF    FF2.7
066AA:  MOVLW  00
066AC:  CALL   08A8
066B0:  TBLRD*-
066B2:  TBLRD*+
066B4:  MOVF   FF5,W
066B6:  MOVWF  FEE
066B8:  IORLW  00
066BA:  BNZ   66B2
066BC:  MOVLB  9
066BE:  BTFSC  x36.7
066C0:  BSF    FF2.7
....................    displayMenu(Menus.Letra,0,29,0,1);        
066C2:  MOVLW  09
066C4:  MOVWF  x3E
066C6:  MOVLW  0D
066C8:  MOVWF  x3D
066CA:  CLRF   x3F
066CC:  MOVLW  1D
066CE:  MOVWF  x40
066D0:  CLRF   x41
066D2:  MOVLW  01
066D4:  MOVWF  x42
066D6:  MOVLB  0
066D8:  CALL   1AEE
....................    strcpy(Menus.Letra,"     2.2L"); 
066DC:  MOVLW  09
066DE:  MOVWF  FEA
066E0:  MOVLW  0D
066E2:  MOVWF  FE9
066E4:  MOVFF  FF2,936
066E8:  BCF    FF2.7
066EA:  MOVLW  00
066EC:  CALL   08D6
066F0:  TBLRD*-
066F2:  TBLRD*+
066F4:  MOVF   FF5,W
066F6:  MOVWF  FEE
066F8:  IORLW  00
066FA:  BNZ   66F2
066FC:  MOVLB  9
066FE:  BTFSC  x36.7
06700:  BSF    FF2.7
....................    displayMenu(Menus.Letra,0,45,0,2); 
06702:  MOVLW  09
06704:  MOVWF  x3E
06706:  MOVLW  0D
06708:  MOVWF  x3D
0670A:  CLRF   x3F
0670C:  MOVLW  2D
0670E:  MOVWF  x40
06710:  CLRF   x41
06712:  MOVLW  02
06714:  MOVWF  x42
06716:  MOVLB  0
06718:  CALL   1AEE
....................    //delay_ms(1000); 
....................     
....................    Resistencia_off; 
0671C:  BCF    F8B.0
0671E:  BCF    F94.0
....................    glcd_fillScreen(OFF);      //Limpia la pantalla 
06720:  MOVLB  9
06722:  CLRF   x3D
06724:  MOVLB  0
06726:  CALL   14C0
....................    displayContrasena(Contrasena[0],20,30,1); 
0672A:  MOVFF  68F,93F
0672E:  MOVLW  14
06730:  MOVLB  9
06732:  MOVWF  x40
06734:  MOVLW  1E
06736:  MOVWF  x41
06738:  MOVLW  01
0673A:  MOVWF  x42
0673C:  MOVLB  0
0673E:  CALL   1D40
....................    displayContrasena(Contrasena[1],40,30,0); 
06742:  MOVFF  690,93F
06746:  MOVLW  28
06748:  MOVLB  9
0674A:  MOVWF  x40
0674C:  MOVLW  1E
0674E:  MOVWF  x41
06750:  CLRF   x42
06752:  MOVLB  0
06754:  CALL   1D40
....................    displayContrasena(Contrasena[2],60,30,0); 
06758:  MOVFF  691,93F
0675C:  MOVLW  3C
0675E:  MOVLB  9
06760:  MOVWF  x40
06762:  MOVLW  1E
06764:  MOVWF  x41
06766:  CLRF   x42
06768:  MOVLB  0
0676A:  CALL   1D40
....................    displayContrasena(Contrasena[3],80,30,0);  
0676E:  MOVFF  692,93F
06772:  MOVLW  50
06774:  MOVLB  9
06776:  MOVWF  x40
06778:  MOVLW  1E
0677A:  MOVWF  x41
0677C:  CLRF   x42
0677E:  MOVLB  0
06780:  CALL   1D40
....................    Menu=113; 
06784:  MOVLW  71
06786:  MOVLB  6
06788:  MOVWF  x38
....................    //LeeEEPROM(); 
....................    glcd_fillScreen(OFF);      //Limpia la pantalla 
0678A:  MOVLB  9
0678C:  CLRF   x3D
0678E:  MOVLB  0
06790:  CALL   14C0
....................    for(i=0;i<80;i++){ 
06794:  MOVLB  6
06796:  CLRF   x3A
06798:  MOVF   x3A,W
0679A:  SUBLW  4F
0679C:  BNC   67DA
....................       Temperatura=Leer_Sensor(MediaMovil); 
0679E:  MOVFF  627,936
067A2:  MOVLB  0
067A4:  CALL   2370
067A8:  MOVFF  03,6CE
067AC:  MOVFF  02,6CD
067B0:  MOVFF  01,6CC
067B4:  MOVFF  00,6CB
....................       ambiente=leeTemperatura(10); 
067B8:  MOVLW  0A
067BA:  MOVLB  9
067BC:  MOVWF  x36
067BE:  MOVLB  0
067C0:  CALL   2592
067C4:  MOVFF  03,686
067C8:  MOVFF  02,685
067CC:  MOVFF  01,684
067D0:  MOVFF  00,683
....................    } 
067D4:  MOVLB  6
067D6:  INCF   x3A,F
067D8:  BRA    6798
....................     
....................    //adcInf=(0.004*resistencia*1023)/5.0; 
....................    //adcSup=(0.02*resistencia*1023)/5.0; 
....................    //m=(Tsup-Tinf)/(adcSup-adcInf); 
....................    //b=Tsup-(m*adcSup); 
....................    //m=1.9233; 
....................    //b=-371.28; 
....................    //b=b*-1.0; 
....................    penInicial=penMufla; 
067DA:  MOVFF  6FE,706
067DE:  MOVFF  6FD,705
067E2:  MOVFF  6FC,704
067E6:  MOVFF  6FB,703
....................    while(TRUE)  
....................    {  
....................       ambiente=leeTemperatura(10); 
067EA:  MOVLW  0A
067EC:  MOVLB  9
067EE:  MOVWF  x36
067F0:  MOVLB  0
067F2:  CALL   2592
067F6:  MOVFF  03,686
067FA:  MOVFF  02,685
067FE:  MOVFF  01,684
06802:  MOVFF  00,683
....................       if(ambiente>30){ 
06806:  MOVLB  9
06808:  CLRF   x39
0680A:  CLRF   x38
0680C:  MOVLW  70
0680E:  MOVWF  x37
06810:  MOVLW  83
06812:  MOVWF  x36
06814:  MOVFF  686,93D
06818:  MOVFF  685,93C
0681C:  MOVFF  684,93B
06820:  MOVFF  683,93A
06824:  MOVLB  0
06826:  CALL   275A
0682A:  BNC   6836
....................          Vent1_on; 
0682C:  BCF    F8B.1
0682E:  BCF    F94.1
....................          Vent2_on; 
06830:  BCF    F8B.2
06832:  BCF    F94.2
....................       }else if(ambiente<25){ 
06834:  BRA    6864
06836:  MOVFF  686,939
0683A:  MOVFF  685,938
0683E:  MOVFF  684,937
06842:  MOVFF  683,936
06846:  MOVLB  9
06848:  CLRF   x3D
0684A:  CLRF   x3C
0684C:  MOVLW  48
0684E:  MOVWF  x3B
06850:  MOVLW  83
06852:  MOVWF  x3A
06854:  MOVLB  0
06856:  CALL   275A
0685A:  BNC   6864
....................          Vent1_off; 
0685C:  BSF    F8B.1
0685E:  BCF    F94.1
....................          Vent2_off; 
06860:  BSF    F8B.2
06862:  BCF    F94.2
....................       } 
....................       glcd_update();             
06864:  CALL   151A
....................       Envio_Esclavos(); 
06868:  GOTO   2920
.................... //_-------------------------------------------------------------------------------------------------------------------------------------------------------- 
....................       if(Menu==0){ //Menu de Contrasea. 
0686C:  MOVLB  6
0686E:  MOVF   x38,F
06870:  BTFSS  FD8.2
06872:  BRA    6E3C
....................        
....................       strcpy(Menus.Letra,"Clave"); 
06874:  MOVLW  09
06876:  MOVWF  FEA
06878:  MOVLW  0D
0687A:  MOVWF  FE9
0687C:  MOVFF  FF2,936
06880:  BCF    FF2.7
06882:  MOVLW  00
06884:  MOVLB  0
06886:  CALL   07D8
0688A:  TBLRD*-
0688C:  TBLRD*+
0688E:  MOVF   FF5,W
06890:  MOVWF  FEE
06892:  IORLW  00
06894:  BNZ   688C
06896:  MOVLB  9
06898:  BTFSC  x36.7
0689A:  BSF    FF2.7
....................       displayMenu(Menus.Letra,30,0,1,2);      
0689C:  MOVLW  09
0689E:  MOVWF  x3E
068A0:  MOVLW  0D
068A2:  MOVWF  x3D
068A4:  MOVLW  1E
068A6:  MOVWF  x3F
068A8:  CLRF   x40
068AA:  MOVLW  01
068AC:  MOVWF  x41
068AE:  MOVLW  02
068B0:  MOVWF  x42
068B2:  MOVLB  0
068B4:  CALL   1AEE
....................        
....................       if(UP)//Si oprime hacia arriba 
068B8:  BSF    F92.5
068BA:  BTFSC  F80.5
068BC:  BRA    69A0
....................       { 
....................          Buzz_on;delay_ms(10);Buzz_off; 
068BE:  BSF    F8B.5
068C0:  BCF    F94.5
068C2:  MOVLW  0A
068C4:  MOVLB  9
068C6:  MOVWF  x4C
068C8:  MOVLB  0
068CA:  CALL   1440
068CE:  BCF    F8B.5
068D0:  BCF    F94.5
....................          delay_ms(200); 
068D2:  MOVLW  C8
068D4:  MOVLB  9
068D6:  MOVWF  x4C
068D8:  MOVLB  0
068DA:  CALL   1440
....................          for(i=1;i<=4;i++) 
068DE:  MOVLW  01
068E0:  MOVLB  6
068E2:  MOVWF  x3A
068E4:  MOVF   x3A,W
068E6:  SUBLW  04
068E8:  BNC   699E
....................          { 
....................             if(unidad==i) 
068EA:  MOVF   x3A,W
068EC:  SUBWF  x39,W
068EE:  BNZ   6966
....................             { 
....................                Contrasena[i-1]++; 
068F0:  MOVLW  01
068F2:  SUBWF  x3A,W
068F4:  CLRF   03
068F6:  ADDLW  8F
068F8:  MOVWF  FE9
068FA:  MOVLW  06
068FC:  ADDWFC 03,W
068FE:  MOVWF  FEA
06900:  INCF   FEF,F
....................                if(Contrasena[i-1]>9)    
06902:  MOVLW  01
06904:  SUBWF  x3A,W
06906:  CLRF   03
06908:  ADDLW  8F
0690A:  MOVWF  FE9
0690C:  MOVLW  06
0690E:  ADDWFC 03,W
06910:  MOVWF  FEA
06912:  BTFSC  FEF.7
06914:  BRA    692E
06916:  MOVF   FEF,W
06918:  SUBLW  09
0691A:  BC    692E
....................                { 
....................                   Contrasena[i-1]=0; 
0691C:  MOVLW  01
0691E:  SUBWF  x3A,W
06920:  CLRF   03
06922:  ADDLW  8F
06924:  MOVWF  FE9
06926:  MOVLW  06
06928:  ADDWFC 03,W
0692A:  MOVWF  FEA
0692C:  CLRF   FEF
....................                } 
....................                displayContrasena(Contrasena[i-1],i*20,30,1); 
0692E:  MOVLW  01
06930:  SUBWF  x3A,W
06932:  CLRF   03
06934:  ADDLW  8F
06936:  MOVWF  FE9
06938:  MOVLW  06
0693A:  ADDWFC 03,W
0693C:  MOVWF  FEA
0693E:  MOVFF  FEF,936
06942:  MOVF   x3A,W
06944:  MULLW  14
06946:  MOVFF  FF3,937
0694A:  MOVLB  9
0694C:  MOVFF  936,93F
06950:  MOVFF  937,940
06954:  MOVLW  1E
06956:  MOVWF  x41
06958:  MOVLW  01
0695A:  MOVWF  x42
0695C:  MOVLB  0
0695E:  CALL   1D40
....................             } 
....................             else 
06962:  BRA    6998
06964:  MOVLB  6
....................             { 
....................                displayContrasena(Contrasena[i-1],i*20,30,0); 
06966:  MOVLW  01
06968:  SUBWF  x3A,W
0696A:  CLRF   03
0696C:  ADDLW  8F
0696E:  MOVWF  FE9
06970:  MOVLW  06
06972:  ADDWFC 03,W
06974:  MOVWF  FEA
06976:  MOVFF  FEF,936
0697A:  MOVF   x3A,W
0697C:  MULLW  14
0697E:  MOVFF  FF3,937
06982:  MOVLB  9
06984:  MOVFF  936,93F
06988:  MOVFF  937,940
0698C:  MOVLW  1E
0698E:  MOVWF  x41
06990:  CLRF   x42
06992:  MOVLB  0
06994:  CALL   1D40
....................             } 
....................          } 
06998:  MOVLB  6
0699A:  INCF   x3A,F
0699C:  BRA    68E4
0699E:  MOVLB  0
....................       } 
....................              
....................       if(DOWN)//Si oprime hacia abajo 
069A0:  BSF    F96.0
069A2:  BTFSC  F84.0
069A4:  BRA    6A86
....................       { 
....................          Buzz_on;delay_ms(10);Buzz_off; 
069A6:  BSF    F8B.5
069A8:  BCF    F94.5
069AA:  MOVLW  0A
069AC:  MOVLB  9
069AE:  MOVWF  x4C
069B0:  MOVLB  0
069B2:  CALL   1440
069B6:  BCF    F8B.5
069B8:  BCF    F94.5
....................          delay_ms(200); 
069BA:  MOVLW  C8
069BC:  MOVLB  9
069BE:  MOVWF  x4C
069C0:  MOVLB  0
069C2:  CALL   1440
....................          for(i=1;i<=4;i++) 
069C6:  MOVLW  01
069C8:  MOVLB  6
069CA:  MOVWF  x3A
069CC:  MOVF   x3A,W
069CE:  SUBLW  04
069D0:  BNC   6A84
....................          { 
....................             if(unidad==i) 
069D2:  MOVF   x3A,W
069D4:  SUBWF  x39,W
069D6:  BNZ   6A4C
....................             { 
....................                Contrasena[i-1]--; 
069D8:  MOVLW  01
069DA:  SUBWF  x3A,W
069DC:  CLRF   03
069DE:  ADDLW  8F
069E0:  MOVWF  FE9
069E2:  MOVLW  06
069E4:  ADDWFC 03,W
069E6:  MOVWF  FEA
069E8:  DECF   FEF,F
....................                if(Contrasena[i-1]<0) 
069EA:  MOVLW  01
069EC:  SUBWF  x3A,W
069EE:  CLRF   03
069F0:  ADDLW  8F
069F2:  MOVWF  FE9
069F4:  MOVLW  06
069F6:  ADDWFC 03,W
069F8:  MOVWF  FEA
069FA:  BTFSC  FEF.7
069FC:  BRA    6A00
069FE:  BRA    6A14
....................                   {Contrasena[i-1]=9;} 
06A00:  MOVLW  01
06A02:  SUBWF  x3A,W
06A04:  CLRF   03
06A06:  ADDLW  8F
06A08:  MOVWF  FE9
06A0A:  MOVLW  06
06A0C:  ADDWFC 03,W
06A0E:  MOVWF  FEA
06A10:  MOVLW  09
06A12:  MOVWF  FEF
....................                displayContrasena(Contrasena[i-1],i*20,30,1);} 
06A14:  MOVLW  01
06A16:  SUBWF  x3A,W
06A18:  CLRF   03
06A1A:  ADDLW  8F
06A1C:  MOVWF  FE9
06A1E:  MOVLW  06
06A20:  ADDWFC 03,W
06A22:  MOVWF  FEA
06A24:  MOVFF  FEF,936
06A28:  MOVF   x3A,W
06A2A:  MULLW  14
06A2C:  MOVFF  FF3,937
06A30:  MOVLB  9
06A32:  MOVFF  936,93F
06A36:  MOVFF  937,940
06A3A:  MOVLW  1E
06A3C:  MOVWF  x41
06A3E:  MOVLW  01
06A40:  MOVWF  x42
06A42:  MOVLB  0
06A44:  CALL   1D40
....................             else 
06A48:  BRA    6A7E
06A4A:  MOVLB  6
....................             {displayContrasena(Contrasena[i-1],i*20,30,0);} 
06A4C:  MOVLW  01
06A4E:  SUBWF  x3A,W
06A50:  CLRF   03
06A52:  ADDLW  8F
06A54:  MOVWF  FE9
06A56:  MOVLW  06
06A58:  ADDWFC 03,W
06A5A:  MOVWF  FEA
06A5C:  MOVFF  FEF,936
06A60:  MOVF   x3A,W
06A62:  MULLW  14
06A64:  MOVFF  FF3,937
06A68:  MOVLB  9
06A6A:  MOVFF  936,93F
06A6E:  MOVFF  937,940
06A72:  MOVLW  1E
06A74:  MOVWF  x41
06A76:  CLRF   x42
06A78:  MOVLB  0
06A7A:  CALL   1D40
....................          }         
06A7E:  MOVLB  6
06A80:  INCF   x3A,F
06A82:  BRA    69CC
06A84:  MOVLB  0
....................       } 
....................              
....................       if(RIGHT)//Si oprime RIGHT 
06A86:  BSF    F96.1
06A88:  BTFSC  F84.1
06A8A:  BRA    6B30
....................       { 
....................          Buzz_on;delay_ms(10);Buzz_off; 
06A8C:  BSF    F8B.5
06A8E:  BCF    F94.5
06A90:  MOVLW  0A
06A92:  MOVLB  9
06A94:  MOVWF  x4C
06A96:  MOVLB  0
06A98:  CALL   1440
06A9C:  BCF    F8B.5
06A9E:  BCF    F94.5
....................          delay_ms(200);unidad++; 
06AA0:  MOVLW  C8
06AA2:  MOVLB  9
06AA4:  MOVWF  x4C
06AA6:  MOVLB  0
06AA8:  CALL   1440
06AAC:  MOVLB  6
06AAE:  INCF   x39,F
....................          for(i=1;i<=4;i++) 
06AB0:  MOVLW  01
06AB2:  MOVWF  x3A
06AB4:  MOVF   x3A,W
06AB6:  SUBLW  04
06AB8:  BNC   6B30
....................          { 
....................             if(unidad==i) 
06ABA:  MOVF   x3A,W
06ABC:  SUBWF  x39,W
06ABE:  BNZ   6AF8
....................             {displayContrasena(Contrasena[i-1],i*20,30,1);} 
06AC0:  MOVLW  01
06AC2:  SUBWF  x3A,W
06AC4:  CLRF   03
06AC6:  ADDLW  8F
06AC8:  MOVWF  FE9
06ACA:  MOVLW  06
06ACC:  ADDWFC 03,W
06ACE:  MOVWF  FEA
06AD0:  MOVFF  FEF,936
06AD4:  MOVF   x3A,W
06AD6:  MULLW  14
06AD8:  MOVFF  FF3,937
06ADC:  MOVLB  9
06ADE:  MOVFF  936,93F
06AE2:  MOVFF  937,940
06AE6:  MOVLW  1E
06AE8:  MOVWF  x41
06AEA:  MOVLW  01
06AEC:  MOVWF  x42
06AEE:  MOVLB  0
06AF0:  CALL   1D40
....................             else 
06AF4:  BRA    6B2A
06AF6:  MOVLB  6
....................             {displayContrasena(Contrasena[i-1],i*20,30,0);} 
06AF8:  MOVLW  01
06AFA:  SUBWF  x3A,W
06AFC:  CLRF   03
06AFE:  ADDLW  8F
06B00:  MOVWF  FE9
06B02:  MOVLW  06
06B04:  ADDWFC 03,W
06B06:  MOVWF  FEA
06B08:  MOVFF  FEF,936
06B0C:  MOVF   x3A,W
06B0E:  MULLW  14
06B10:  MOVFF  FF3,937
06B14:  MOVLB  9
06B16:  MOVFF  936,93F
06B1A:  MOVFF  937,940
06B1E:  MOVLW  1E
06B20:  MOVWF  x41
06B22:  CLRF   x42
06B24:  MOVLB  0
06B26:  CALL   1D40
....................          } 
06B2A:  MOVLB  6
06B2C:  INCF   x3A,F
06B2E:  BRA    6AB4
....................       } 
....................      
....................       if(unidad>4) 
06B30:  MOVLB  6
06B32:  MOVF   x39,W
06B34:  SUBLW  04
06B36:  BTFSC  FD8.0
06B38:  BRA    6E3C
....................       {glcd_fillScreen(OFF);unidad=4; 
06B3A:  MOVLB  9
06B3C:  CLRF   x3D
06B3E:  MOVLB  0
06B40:  CALL   14C0
06B44:  MOVLW  04
06B46:  MOVLB  6
06B48:  MOVWF  x39
....................          if(Contrasena[0]==3&&Contrasena[1]==8&&Contrasena[2]==9&&Contrasena[3]==2) // Si Ingresa clave para reset general del sistema. 
06B4A:  MOVF   x8F,W
06B4C:  SUBLW  03
06B4E:  BTFSS  FD8.2
06B50:  BRA    6C4A
06B52:  MOVF   x90,W
06B54:  SUBLW  08
06B56:  BTFSS  FD8.2
06B58:  BRA    6C4A
06B5A:  MOVF   x91,W
06B5C:  SUBLW  09
06B5E:  BNZ   6C4A
06B60:  MOVF   x92,W
06B62:  SUBLW  02
06B64:  BNZ   6C4A
....................             {write_eeprom(460,0);delay_ms(20);write_eeprom(461,0);delay_ms(20);// Reestablece a contrasea de Fabrica y reinicia Programa. 
06B66:  MOVLW  01
06B68:  MOVWF  FAA
06B6A:  MOVLW  CC
06B6C:  MOVWF  FA9
06B6E:  CLRF   FA8
06B70:  BCF    FA6.6
06B72:  BCF    FA6.7
06B74:  BSF    FA6.2
06B76:  MOVF   FF2,W
06B78:  MOVWF  00
06B7A:  BCF    FF2.7
06B7C:  MOVLB  F
06B7E:  MOVLW  55
06B80:  MOVWF  FA7
06B82:  MOVLW  AA
06B84:  MOVWF  FA7
06B86:  BSF    FA6.1
06B88:  BTFSC  FA6.1
06B8A:  BRA    6B88
06B8C:  BCF    FA6.2
06B8E:  MOVF   00,W
06B90:  IORWF  FF2,F
06B92:  MOVLW  14
06B94:  MOVLB  9
06B96:  MOVWF  x4C
06B98:  MOVLB  0
06B9A:  CALL   1440
06B9E:  MOVLW  01
06BA0:  MOVWF  FAA
06BA2:  MOVLW  CD
06BA4:  MOVWF  FA9
06BA6:  CLRF   FA8
06BA8:  BCF    FA6.6
06BAA:  BCF    FA6.7
06BAC:  BSF    FA6.2
06BAE:  MOVF   FF2,W
06BB0:  MOVWF  00
06BB2:  BCF    FF2.7
06BB4:  MOVLB  F
06BB6:  MOVLW  55
06BB8:  MOVWF  FA7
06BBA:  MOVLW  AA
06BBC:  MOVWF  FA7
06BBE:  BSF    FA6.1
06BC0:  BTFSC  FA6.1
06BC2:  BRA    6BC0
06BC4:  BCF    FA6.2
06BC6:  MOVF   00,W
06BC8:  IORWF  FF2,F
06BCA:  MOVLW  14
06BCC:  MOVLB  9
06BCE:  MOVWF  x4C
06BD0:  MOVLB  0
06BD2:  CALL   1440
....................              write_eeprom(462,0);delay_ms(20);write_eeprom(463,0);delay_ms(20); 
06BD6:  MOVLW  01
06BD8:  MOVWF  FAA
06BDA:  MOVLW  CE
06BDC:  MOVWF  FA9
06BDE:  CLRF   FA8
06BE0:  BCF    FA6.6
06BE2:  BCF    FA6.7
06BE4:  BSF    FA6.2
06BE6:  MOVF   FF2,W
06BE8:  MOVWF  00
06BEA:  BCF    FF2.7
06BEC:  MOVLB  F
06BEE:  MOVLW  55
06BF0:  MOVWF  FA7
06BF2:  MOVLW  AA
06BF4:  MOVWF  FA7
06BF6:  BSF    FA6.1
06BF8:  BTFSC  FA6.1
06BFA:  BRA    6BF8
06BFC:  BCF    FA6.2
06BFE:  MOVF   00,W
06C00:  IORWF  FF2,F
06C02:  MOVLW  14
06C04:  MOVLB  9
06C06:  MOVWF  x4C
06C08:  MOVLB  0
06C0A:  CALL   1440
06C0E:  MOVLW  01
06C10:  MOVWF  FAA
06C12:  MOVLW  CF
06C14:  MOVWF  FA9
06C16:  CLRF   FA8
06C18:  BCF    FA6.6
06C1A:  BCF    FA6.7
06C1C:  BSF    FA6.2
06C1E:  MOVF   FF2,W
06C20:  MOVWF  00
06C22:  BCF    FF2.7
06C24:  MOVLB  F
06C26:  MOVLW  55
06C28:  MOVWF  FA7
06C2A:  MOVLW  AA
06C2C:  MOVWF  FA7
06C2E:  BSF    FA6.1
06C30:  BTFSC  FA6.1
06C32:  BRA    6C30
06C34:  BCF    FA6.2
06C36:  MOVF   00,W
06C38:  IORWF  FF2,F
06C3A:  MOVLW  14
06C3C:  MOVLB  9
06C3E:  MOVWF  x4C
06C40:  MOVLB  0
06C42:  CALL   1440
....................              reset_cpu();}         
06C46:  RESET
06C48:  MOVLB  6
....................           
....................          if((Contrasena[0]==Password[0])&&(Contrasena[1]==Password[1])&&(Contrasena[2]==Password[2])&&(Contrasena[3]==Password[3])) 
06C4A:  MOVF   x93,W
06C4C:  SUBWF  x8F,W
06C4E:  BNZ   6D20
06C50:  MOVF   x94,W
06C52:  SUBWF  x90,W
06C54:  BNZ   6D20
06C56:  MOVF   x95,W
06C58:  SUBWF  x91,W
06C5A:  BNZ   6D20
06C5C:  MOVF   x96,W
06C5E:  SUBWF  x92,W
06C60:  BNZ   6D20
....................          { 
....................             glcd_fillScreen(OFF); 
06C62:  MOVLB  9
06C64:  CLRF   x3D
06C66:  MOVLB  0
06C68:  CALL   14C0
....................             strcpy(Menus.Letra,"Clave"); 
06C6C:  MOVLW  09
06C6E:  MOVWF  FEA
06C70:  MOVLW  0D
06C72:  MOVWF  FE9
06C74:  MOVFF  FF2,936
06C78:  BCF    FF2.7
06C7A:  MOVLW  00
06C7C:  CALL   07D8
06C80:  TBLRD*-
06C82:  TBLRD*+
06C84:  MOVF   FF5,W
06C86:  MOVWF  FEE
06C88:  IORLW  00
06C8A:  BNZ   6C82
06C8C:  MOVLB  9
06C8E:  BTFSC  x36.7
06C90:  BSF    FF2.7
....................             displayMenu(Menus.Letra,30,0,0,2); 
06C92:  MOVLW  09
06C94:  MOVWF  x3E
06C96:  MOVLW  0D
06C98:  MOVWF  x3D
06C9A:  MOVLW  1E
06C9C:  MOVWF  x3F
06C9E:  CLRF   x40
06CA0:  CLRF   x41
06CA2:  MOVLW  02
06CA4:  MOVWF  x42
06CA6:  MOVLB  0
06CA8:  CALL   1AEE
....................             strcpy(Menus.Letra,"Correcta"); 
06CAC:  MOVLW  09
06CAE:  MOVWF  FEA
06CB0:  MOVLW  0D
06CB2:  MOVWF  FE9
06CB4:  MOVFF  FF2,936
06CB8:  BCF    FF2.7
06CBA:  MOVLW  00
06CBC:  CALL   07FC
06CC0:  TBLRD*-
06CC2:  TBLRD*+
06CC4:  MOVF   FF5,W
06CC6:  MOVWF  FEE
06CC8:  IORLW  00
06CCA:  BNZ   6CC2
06CCC:  MOVLB  9
06CCE:  BTFSC  x36.7
06CD0:  BSF    FF2.7
....................             displayMenu(Menus.Letra,15,30,0,2); 
06CD2:  MOVLW  09
06CD4:  MOVWF  x3E
06CD6:  MOVLW  0D
06CD8:  MOVWF  x3D
06CDA:  MOVLW  0F
06CDC:  MOVWF  x3F
06CDE:  MOVLW  1E
06CE0:  MOVWF  x40
06CE2:  CLRF   x41
06CE4:  MOVLW  02
06CE6:  MOVWF  x42
06CE8:  MOVLB  0
06CEA:  CALL   1AEE
....................             Menu=1;glcd_update();delay_ms(1000); 
06CEE:  MOVLW  01
06CF0:  MOVLB  6
06CF2:  MOVWF  x38
06CF4:  MOVLB  0
06CF6:  CALL   151A
06CFA:  MOVLW  04
06CFC:  MOVLB  9
06CFE:  MOVWF  x36
06D00:  MOVLW  FA
06D02:  MOVWF  x4C
06D04:  MOVLB  0
06D06:  CALL   1440
06D0A:  MOVLB  9
06D0C:  DECFSZ x36,F
06D0E:  BRA    6D00
....................             glcd_fillScreen(OFF);unidad=1; 
06D10:  CLRF   x3D
06D12:  MOVLB  0
06D14:  CALL   14C0
06D18:  MOVLW  01
06D1A:  MOVLB  6
06D1C:  MOVWF  x39
....................          }// Esta parte se puede agregar en el Menu 1 dependiendo de la ubicacin del vidrio. 
....................          else 
06D1E:  BRA    6E3C
....................          { 
....................             glcd_fillScreen(OFF); 
06D20:  MOVLB  9
06D22:  CLRF   x3D
06D24:  MOVLB  0
06D26:  CALL   14C0
....................             strcpy(Menus.Letra,"Clave"); 
06D2A:  MOVLW  09
06D2C:  MOVWF  FEA
06D2E:  MOVLW  0D
06D30:  MOVWF  FE9
06D32:  MOVFF  FF2,936
06D36:  BCF    FF2.7
06D38:  MOVLW  00
06D3A:  CALL   07D8
06D3E:  TBLRD*-
06D40:  TBLRD*+
06D42:  MOVF   FF5,W
06D44:  MOVWF  FEE
06D46:  IORLW  00
06D48:  BNZ   6D40
06D4A:  MOVLB  9
06D4C:  BTFSC  x36.7
06D4E:  BSF    FF2.7
....................             displayMenu(Menus.Letra,30,0,0,2); 
06D50:  MOVLW  09
06D52:  MOVWF  x3E
06D54:  MOVLW  0D
06D56:  MOVWF  x3D
06D58:  MOVLW  1E
06D5A:  MOVWF  x3F
06D5C:  CLRF   x40
06D5E:  CLRF   x41
06D60:  MOVLW  02
06D62:  MOVWF  x42
06D64:  MOVLB  0
06D66:  CALL   1AEE
....................             strcpy(Menus.Letra,"Incorrecta"); 
06D6A:  MOVLW  09
06D6C:  MOVWF  FEA
06D6E:  MOVLW  0D
06D70:  MOVWF  FE9
06D72:  MOVFF  FF2,936
06D76:  BCF    FF2.7
06D78:  MOVLW  00
06D7A:  CALL   0824
06D7E:  TBLRD*-
06D80:  TBLRD*+
06D82:  MOVF   FF5,W
06D84:  MOVWF  FEE
06D86:  IORLW  00
06D88:  BNZ   6D80
06D8A:  MOVLB  9
06D8C:  BTFSC  x36.7
06D8E:  BSF    FF2.7
....................             displayMenu(Menus.Letra,0,30,0,2); 
06D90:  MOVLW  09
06D92:  MOVWF  x3E
06D94:  MOVLW  0D
06D96:  MOVWF  x3D
06D98:  CLRF   x3F
06D9A:  MOVLW  1E
06D9C:  MOVWF  x40
06D9E:  CLRF   x41
06DA0:  MOVLW  02
06DA2:  MOVWF  x42
06DA4:  MOVLB  0
06DA6:  CALL   1AEE
....................             Menu=0;glcd_update();delay_ms(1000); 
06DAA:  MOVLB  6
06DAC:  CLRF   x38
06DAE:  MOVLB  0
06DB0:  CALL   151A
06DB4:  MOVLW  04
06DB6:  MOVLB  9
06DB8:  MOVWF  x36
06DBA:  MOVLW  FA
06DBC:  MOVWF  x4C
06DBE:  MOVLB  0
06DC0:  CALL   1440
06DC4:  MOVLB  9
06DC6:  DECFSZ x36,F
06DC8:  BRA    6DBA
....................             glcd_fillScreen(OFF);unidad=1; 
06DCA:  CLRF   x3D
06DCC:  MOVLB  0
06DCE:  CALL   14C0
06DD2:  MOVLW  01
06DD4:  MOVLB  6
06DD6:  MOVWF  x39
....................             Contrasena[0]=0;Contrasena[1]=0;Contrasena[2]=0;Contrasena[3]=0; 
06DD8:  CLRF   x8F
06DDA:  CLRF   x90
06DDC:  CLRF   x91
06DDE:  CLRF   x92
....................             displayContrasena(Contrasena[0],20,30,1); 
06DE0:  MOVFF  68F,93F
06DE4:  MOVLW  14
06DE6:  MOVLB  9
06DE8:  MOVWF  x40
06DEA:  MOVLW  1E
06DEC:  MOVWF  x41
06DEE:  MOVLW  01
06DF0:  MOVWF  x42
06DF2:  MOVLB  0
06DF4:  CALL   1D40
....................             displayContrasena(Contrasena[1],40,30,0); 
06DF8:  MOVFF  690,93F
06DFC:  MOVLW  28
06DFE:  MOVLB  9
06E00:  MOVWF  x40
06E02:  MOVLW  1E
06E04:  MOVWF  x41
06E06:  CLRF   x42
06E08:  MOVLB  0
06E0A:  CALL   1D40
....................             displayContrasena(Contrasena[2],60,30,0); 
06E0E:  MOVFF  691,93F
06E12:  MOVLW  3C
06E14:  MOVLB  9
06E16:  MOVWF  x40
06E18:  MOVLW  1E
06E1A:  MOVWF  x41
06E1C:  CLRF   x42
06E1E:  MOVLB  0
06E20:  CALL   1D40
....................             displayContrasena(Contrasena[3],80,30,0); 
06E24:  MOVFF  692,93F
06E28:  MOVLW  50
06E2A:  MOVLB  9
06E2C:  MOVWF  x40
06E2E:  MOVLW  1E
06E30:  MOVWF  x41
06E32:  CLRF   x42
06E34:  MOVLB  0
06E36:  CALL   1D40
06E3A:  MOVLB  6
....................          } 
....................       } 
....................     } 
.................... //_--------------------------------------------------------------------------------------------------------------------------------------------------------        
....................  
.................... //_-------------------------------------------------------------------------------------------------------------------------------------------------------- 
....................       if(Menu==1){ //Menu Principal.       
06E3C:  DECFSZ x38,W
06E3E:  BRA    7246
....................        
....................          if(Opcion>5) 
06E40:  MOVF   x3F,W
06E42:  SUBLW  05
06E44:  BC    6E4A
....................          {Opcion=1;} 
06E46:  MOVLW  01
06E48:  MOVWF  x3F
....................          if(Opcion<1) 
06E4A:  MOVF   x3F,F
06E4C:  BNZ   6E52
....................          {Opcion=5;} 
06E4E:  MOVLW  05
06E50:  MOVWF  x3F
....................           
....................          strcpy(Menus.Letra,"Menu"); 
06E52:  MOVLW  09
06E54:  MOVWF  FEA
06E56:  MOVLW  0D
06E58:  MOVWF  FE9
06E5A:  MOVFF  FF2,936
06E5E:  BCF    FF2.7
06E60:  MOVLW  00
06E62:  MOVLB  0
06E64:  CALL   08FE
06E68:  TBLRD*-
06E6A:  TBLRD*+
06E6C:  MOVF   FF5,W
06E6E:  MOVWF  FEE
06E70:  IORLW  00
06E72:  BNZ   6E6A
06E74:  MOVLB  9
06E76:  BTFSC  x36.7
06E78:  BSF    FF2.7
....................          displayMenu(Menus.Letra,30,0,1,2); 
06E7A:  MOVLW  09
06E7C:  MOVWF  x3E
06E7E:  MOVLW  0D
06E80:  MOVWF  x3D
06E82:  MOVLW  1E
06E84:  MOVWF  x3F
06E86:  CLRF   x40
06E88:  MOVLW  01
06E8A:  MOVWF  x41
06E8C:  MOVLW  02
06E8E:  MOVWF  x42
06E90:  MOVLB  0
06E92:  CALL   1AEE
....................        
....................          if(Opcion==1)    
06E96:  MOVLB  6
06E98:  DECFSZ x3F,W
06E9A:  BRA    6EE2
....................             {strcpy(Menus.Letra,"Iniciar Programa"); 
06E9C:  MOVLW  09
06E9E:  MOVWF  FEA
06EA0:  MOVLW  0D
06EA2:  MOVWF  FE9
06EA4:  MOVFF  FF2,936
06EA8:  BCF    FF2.7
06EAA:  MOVLW  00
06EAC:  MOVLB  0
06EAE:  CALL   0922
06EB2:  TBLRD*-
06EB4:  TBLRD*+
06EB6:  MOVF   FF5,W
06EB8:  MOVWF  FEE
06EBA:  IORLW  00
06EBC:  BNZ   6EB4
06EBE:  MOVLB  9
06EC0:  BTFSC  x36.7
06EC2:  BSF    FF2.7
....................             displayMenu(Menus.Letra,0,18,1,1);} 
06EC4:  MOVLW  09
06EC6:  MOVWF  x3E
06EC8:  MOVLW  0D
06ECA:  MOVWF  x3D
06ECC:  CLRF   x3F
06ECE:  MOVLW  12
06ED0:  MOVWF  x40
06ED2:  MOVLW  01
06ED4:  MOVWF  x41
06ED6:  MOVWF  x42
06ED8:  MOVLB  0
06EDA:  CALL   1AEE
....................          else 
06EDE:  BRA    6F24
06EE0:  MOVLB  6
....................             {strcpy(Menus.Letra,"Iniciar Programa"); 
06EE2:  MOVLW  09
06EE4:  MOVWF  FEA
06EE6:  MOVLW  0D
06EE8:  MOVWF  FE9
06EEA:  MOVFF  FF2,936
06EEE:  BCF    FF2.7
06EF0:  MOVLW  00
06EF2:  MOVLB  0
06EF4:  CALL   0922
06EF8:  TBLRD*-
06EFA:  TBLRD*+
06EFC:  MOVF   FF5,W
06EFE:  MOVWF  FEE
06F00:  IORLW  00
06F02:  BNZ   6EFA
06F04:  MOVLB  9
06F06:  BTFSC  x36.7
06F08:  BSF    FF2.7
....................             displayMenu(Menus.Letra,0,18,0,1);} 
06F0A:  MOVLW  09
06F0C:  MOVWF  x3E
06F0E:  MOVLW  0D
06F10:  MOVWF  x3D
06F12:  CLRF   x3F
06F14:  MOVLW  12
06F16:  MOVWF  x40
06F18:  CLRF   x41
06F1A:  MOVLW  01
06F1C:  MOVWF  x42
06F1E:  MOVLB  0
06F20:  CALL   1AEE
....................           
....................          if(Opcion==2)    
06F24:  MOVLB  6
06F26:  MOVF   x3F,W
06F28:  SUBLW  02
06F2A:  BNZ   6F72
....................             {strcpy(Menus.Letra,"Editar Programa"); 
06F2C:  MOVLW  09
06F2E:  MOVWF  FEA
06F30:  MOVLW  0D
06F32:  MOVWF  FE9
06F34:  MOVFF  FF2,936
06F38:  BCF    FF2.7
06F3A:  MOVLW  00
06F3C:  MOVLB  0
06F3E:  CALL   0952
06F42:  TBLRD*-
06F44:  TBLRD*+
06F46:  MOVF   FF5,W
06F48:  MOVWF  FEE
06F4A:  IORLW  00
06F4C:  BNZ   6F44
06F4E:  MOVLB  9
06F50:  BTFSC  x36.7
06F52:  BSF    FF2.7
....................             displayMenu(Menus.Letra,0,27,1,1);} 
06F54:  MOVLW  09
06F56:  MOVWF  x3E
06F58:  MOVLW  0D
06F5A:  MOVWF  x3D
06F5C:  CLRF   x3F
06F5E:  MOVLW  1B
06F60:  MOVWF  x40
06F62:  MOVLW  01
06F64:  MOVWF  x41
06F66:  MOVWF  x42
06F68:  MOVLB  0
06F6A:  CALL   1AEE
....................          else 
06F6E:  BRA    6FB4
06F70:  MOVLB  6
....................             {strcpy(Menus.Letra,"Editar Programa"); 
06F72:  MOVLW  09
06F74:  MOVWF  FEA
06F76:  MOVLW  0D
06F78:  MOVWF  FE9
06F7A:  MOVFF  FF2,936
06F7E:  BCF    FF2.7
06F80:  MOVLW  00
06F82:  MOVLB  0
06F84:  CALL   0952
06F88:  TBLRD*-
06F8A:  TBLRD*+
06F8C:  MOVF   FF5,W
06F8E:  MOVWF  FEE
06F90:  IORLW  00
06F92:  BNZ   6F8A
06F94:  MOVLB  9
06F96:  BTFSC  x36.7
06F98:  BSF    FF2.7
....................             displayMenu(Menus.Letra,0,27,0,1);} 
06F9A:  MOVLW  09
06F9C:  MOVWF  x3E
06F9E:  MOVLW  0D
06FA0:  MOVWF  x3D
06FA2:  CLRF   x3F
06FA4:  MOVLW  1B
06FA6:  MOVWF  x40
06FA8:  CLRF   x41
06FAA:  MOVLW  01
06FAC:  MOVWF  x42
06FAE:  MOVLB  0
06FB0:  CALL   1AEE
....................              
....................          if(Opcion==3)    
06FB4:  MOVLB  6
06FB6:  MOVF   x3F,W
06FB8:  SUBLW  03
06FBA:  BNZ   7002
....................             {strcpy(Menus.Letra,"Borrar Programa"); 
06FBC:  MOVLW  09
06FBE:  MOVWF  FEA
06FC0:  MOVLW  0D
06FC2:  MOVWF  FE9
06FC4:  MOVFF  FF2,936
06FC8:  BCF    FF2.7
06FCA:  MOVLW  00
06FCC:  MOVLB  0
06FCE:  CALL   0980
06FD2:  TBLRD*-
06FD4:  TBLRD*+
06FD6:  MOVF   FF5,W
06FD8:  MOVWF  FEE
06FDA:  IORLW  00
06FDC:  BNZ   6FD4
06FDE:  MOVLB  9
06FE0:  BTFSC  x36.7
06FE2:  BSF    FF2.7
....................             displayMenu(Menus.Letra,0,36,1,1);} 
06FE4:  MOVLW  09
06FE6:  MOVWF  x3E
06FE8:  MOVLW  0D
06FEA:  MOVWF  x3D
06FEC:  CLRF   x3F
06FEE:  MOVLW  24
06FF0:  MOVWF  x40
06FF2:  MOVLW  01
06FF4:  MOVWF  x41
06FF6:  MOVWF  x42
06FF8:  MOVLB  0
06FFA:  CALL   1AEE
....................          else 
06FFE:  BRA    7044
07000:  MOVLB  6
....................             {strcpy(Menus.Letra,"Borrar Programa"); 
07002:  MOVLW  09
07004:  MOVWF  FEA
07006:  MOVLW  0D
07008:  MOVWF  FE9
0700A:  MOVFF  FF2,936
0700E:  BCF    FF2.7
07010:  MOVLW  00
07012:  MOVLB  0
07014:  CALL   0980
07018:  TBLRD*-
0701A:  TBLRD*+
0701C:  MOVF   FF5,W
0701E:  MOVWF  FEE
07020:  IORLW  00
07022:  BNZ   701A
07024:  MOVLB  9
07026:  BTFSC  x36.7
07028:  BSF    FF2.7
....................             displayMenu(Menus.Letra,0,36,0,1);}    
0702A:  MOVLW  09
0702C:  MOVWF  x3E
0702E:  MOVLW  0D
07030:  MOVWF  x3D
07032:  CLRF   x3F
07034:  MOVLW  24
07036:  MOVWF  x40
07038:  CLRF   x41
0703A:  MOVLW  01
0703C:  MOVWF  x42
0703E:  MOVLB  0
07040:  CALL   1AEE
....................                          
....................          if(Opcion==4)    
07044:  MOVLB  6
07046:  MOVF   x3F,W
07048:  SUBLW  04
0704A:  BNZ   7092
....................             {strcpy(Menus.Letra,"Ajustes"); 
0704C:  MOVLW  09
0704E:  MOVWF  FEA
07050:  MOVLW  0D
07052:  MOVWF  FE9
07054:  MOVFF  FF2,936
07058:  BCF    FF2.7
0705A:  MOVLW  00
0705C:  MOVLB  0
0705E:  CALL   09AE
07062:  TBLRD*-
07064:  TBLRD*+
07066:  MOVF   FF5,W
07068:  MOVWF  FEE
0706A:  IORLW  00
0706C:  BNZ   7064
0706E:  MOVLB  9
07070:  BTFSC  x36.7
07072:  BSF    FF2.7
....................             displayMenu(Menus.Letra,0,45,1,1);} 
07074:  MOVLW  09
07076:  MOVWF  x3E
07078:  MOVLW  0D
0707A:  MOVWF  x3D
0707C:  CLRF   x3F
0707E:  MOVLW  2D
07080:  MOVWF  x40
07082:  MOVLW  01
07084:  MOVWF  x41
07086:  MOVWF  x42
07088:  MOVLB  0
0708A:  CALL   1AEE
....................          else 
0708E:  BRA    70D4
07090:  MOVLB  6
....................             {strcpy(Menus.Letra,"Ajustes"); 
07092:  MOVLW  09
07094:  MOVWF  FEA
07096:  MOVLW  0D
07098:  MOVWF  FE9
0709A:  MOVFF  FF2,936
0709E:  BCF    FF2.7
070A0:  MOVLW  00
070A2:  MOVLB  0
070A4:  CALL   09AE
070A8:  TBLRD*-
070AA:  TBLRD*+
070AC:  MOVF   FF5,W
070AE:  MOVWF  FEE
070B0:  IORLW  00
070B2:  BNZ   70AA
070B4:  MOVLB  9
070B6:  BTFSC  x36.7
070B8:  BSF    FF2.7
....................             displayMenu(Menus.Letra,0,45,0,1);}      
070BA:  MOVLW  09
070BC:  MOVWF  x3E
070BE:  MOVLW  0D
070C0:  MOVWF  x3D
070C2:  CLRF   x3F
070C4:  MOVLW  2D
070C6:  MOVWF  x40
070C8:  CLRF   x41
070CA:  MOVLW  01
070CC:  MOVWF  x42
070CE:  MOVLB  0
070D0:  CALL   1AEE
....................           
....................          if(Opcion==5)    
070D4:  MOVLB  6
070D6:  MOVF   x3F,W
070D8:  SUBLW  05
070DA:  BNZ   7122
....................             {strcpy(Menus.Letra,"Cambio Clave"); 
070DC:  MOVLW  09
070DE:  MOVWF  FEA
070E0:  MOVLW  0D
070E2:  MOVWF  FE9
070E4:  MOVFF  FF2,936
070E8:  BCF    FF2.7
070EA:  MOVLW  00
070EC:  MOVLB  0
070EE:  CALL   09D4
070F2:  TBLRD*-
070F4:  TBLRD*+
070F6:  MOVF   FF5,W
070F8:  MOVWF  FEE
070FA:  IORLW  00
070FC:  BNZ   70F4
070FE:  MOVLB  9
07100:  BTFSC  x36.7
07102:  BSF    FF2.7
....................             displayMenu(Menus.Letra,0,54,1,1);} 
07104:  MOVLW  09
07106:  MOVWF  x3E
07108:  MOVLW  0D
0710A:  MOVWF  x3D
0710C:  CLRF   x3F
0710E:  MOVLW  36
07110:  MOVWF  x40
07112:  MOVLW  01
07114:  MOVWF  x41
07116:  MOVWF  x42
07118:  MOVLB  0
0711A:  CALL   1AEE
....................          else 
0711E:  BRA    7164
07120:  MOVLB  6
....................             {strcpy(Menus.Letra,"Cambio Clave"); 
07122:  MOVLW  09
07124:  MOVWF  FEA
07126:  MOVLW  0D
07128:  MOVWF  FE9
0712A:  MOVFF  FF2,936
0712E:  BCF    FF2.7
07130:  MOVLW  00
07132:  MOVLB  0
07134:  CALL   09D4
07138:  TBLRD*-
0713A:  TBLRD*+
0713C:  MOVF   FF5,W
0713E:  MOVWF  FEE
07140:  IORLW  00
07142:  BNZ   713A
07144:  MOVLB  9
07146:  BTFSC  x36.7
07148:  BSF    FF2.7
....................             displayMenu(Menus.Letra,0,54,0,1);}      
0714A:  MOVLW  09
0714C:  MOVWF  x3E
0714E:  MOVLW  0D
07150:  MOVWF  x3D
07152:  CLRF   x3F
07154:  MOVLW  36
07156:  MOVWF  x40
07158:  CLRF   x41
0715A:  MOVLW  01
0715C:  MOVWF  x42
0715E:  MOVLB  0
07160:  CALL   1AEE
....................           
....................          if(UP)//Si oprime hacia arriba 
07164:  BSF    F92.5
07166:  BTFSC  F80.5
07168:  BRA    7184
....................          { 
....................             Buzz_on;delay_ms(30);Opcion--;Buzz_off; 
0716A:  BSF    F8B.5
0716C:  BCF    F94.5
0716E:  MOVLW  1E
07170:  MOVLB  9
07172:  MOVWF  x4C
07174:  MOVLB  0
07176:  CALL   1440
0717A:  MOVLB  6
0717C:  DECF   x3F,F
0717E:  BCF    F8B.5
07180:  BCF    F94.5
07182:  MOVLB  0
....................          } 
....................                    
....................          if(DOWN)//Si oprime hacia abajo 
07184:  BSF    F96.0
07186:  BTFSC  F84.0
07188:  BRA    71A4
....................          { 
....................             Buzz_on;delay_ms(30);Opcion++; Buzz_off; 
0718A:  BSF    F8B.5
0718C:  BCF    F94.5
0718E:  MOVLW  1E
07190:  MOVLB  9
07192:  MOVWF  x4C
07194:  MOVLB  0
07196:  CALL   1440
0719A:  MOVLB  6
0719C:  INCF   x3F,F
0719E:  BCF    F8B.5
071A0:  BCF    F94.5
071A2:  MOVLB  0
....................          } 
....................                 
....................          if(RIGHT)//Si oprime SET 
071A4:  BSF    F96.1
071A6:  BTFSC  F84.1
071A8:  BRA    7248
....................          {  
....................             Buzz_on;delay_ms(50);Menu=Opcion+3;Opcion=1;glcd_fillscreen(OFF);Buzz_off; 
071AA:  BSF    F8B.5
071AC:  BCF    F94.5
071AE:  MOVLW  32
071B0:  MOVLB  9
071B2:  MOVWF  x4C
071B4:  MOVLB  0
071B6:  CALL   1440
071BA:  MOVLW  03
071BC:  MOVLB  6
071BE:  ADDWF  x3F,W
071C0:  MOVWF  x38
071C2:  MOVLW  01
071C4:  MOVWF  x3F
071C6:  MOVLB  9
071C8:  CLRF   x3D
071CA:  MOVLB  0
071CC:  CALL   14C0
071D0:  BCF    F8B.5
071D2:  BCF    F94.5
....................             if(Menu==7){ 
071D4:  MOVLB  6
071D6:  MOVF   x38,W
071D8:  SUBLW  07
071DA:  BNZ   7246
....................                //Menu=100; 
....................             delay_ms(100); 
071DC:  MOVLW  64
071DE:  MOVLB  9
071E0:  MOVWF  x4C
071E2:  MOVLB  0
071E4:  CALL   1440
....................             glcd_fillScreen(OFF); 
071E8:  MOVLB  9
071EA:  CLRF   x3D
071EC:  MOVLB  0
071EE:  CALL   14C0
....................             while(!PidePassword(1,1,100,4,4,4,4)){ 
071F2:  MOVLW  01
071F4:  MOVLB  9
071F6:  MOVWF  x36
071F8:  MOVWF  x37
071FA:  MOVLW  64
071FC:  MOVWF  x38
071FE:  MOVLW  04
07200:  MOVWF  x39
07202:  MOVWF  x3A
07204:  MOVWF  x3B
07206:  MOVWF  x3C
07208:  MOVLB  0
0720A:  CALL   2962
0720E:  MOVF   01,F
07210:  BNZ   7234
....................                PidePassword(1,1,100,4,4,4,4);glcd_update(); 
07212:  MOVLW  01
07214:  MOVLB  9
07216:  MOVWF  x36
07218:  MOVWF  x37
0721A:  MOVLW  64
0721C:  MOVWF  x38
0721E:  MOVLW  04
07220:  MOVWF  x39
07222:  MOVWF  x3A
07224:  MOVWF  x3B
07226:  MOVWF  x3C
07228:  MOVLB  0
0722A:  CALL   2962
0722E:  CALL   151A
....................             }             
07232:  BRA    71F2
....................             glcd_fillScreen(OFF);Opcion=1;unidad=1; 
07234:  MOVLB  9
07236:  CLRF   x3D
07238:  MOVLB  0
0723A:  CALL   14C0
0723E:  MOVLW  01
07240:  MOVLB  6
07242:  MOVWF  x3F
07244:  MOVWF  x39
07246:  MOVLB  0
....................           
....................        
....................             } 
....................          } 
....................        
....................  
....................    } 
.................... //_--------------------------------------------------------------------------------------------------------------------------------------------------------        
....................  
.................... //_-------------------------------------------------------------------------------------------------------------------------------------------------------- 
....................       if(Menu==4){ //Menu de Continuar 
07248:  MOVLB  6
0724A:  MOVF   x38,W
0724C:  SUBLW  04
0724E:  BTFSS  FD8.2
07250:  BRA    79A6
....................        
....................       if(Opcion>5) 
07252:  MOVF   x3F,W
07254:  SUBLW  05
07256:  BC    725C
....................          Opcion=1; 
07258:  MOVLW  01
0725A:  MOVWF  x3F
....................           
....................       if(Opcion<1) 
0725C:  MOVF   x3F,F
0725E:  BNZ   7264
....................          Opcion=5; 
07260:  MOVLW  05
07262:  MOVWF  x3F
....................        
....................          strcpy(Menus.Letra,"Seleccione"); 
07264:  MOVLW  09
07266:  MOVWF  FEA
07268:  MOVLW  0D
0726A:  MOVWF  FE9
0726C:  MOVFF  FF2,936
07270:  BCF    FF2.7
07272:  MOVLW  00
07274:  MOVLB  0
07276:  CALL   0A00
0727A:  TBLRD*-
0727C:  TBLRD*+
0727E:  MOVF   FF5,W
07280:  MOVWF  FEE
07282:  IORLW  00
07284:  BNZ   727C
07286:  MOVLB  9
07288:  BTFSC  x36.7
0728A:  BSF    FF2.7
....................          displayMenu(Menus.Letra,0,0,1,2); 
0728C:  MOVLW  09
0728E:  MOVWF  x3E
07290:  MOVLW  0D
07292:  MOVWF  x3D
07294:  CLRF   x3F
07296:  CLRF   x40
07298:  MOVLW  01
0729A:  MOVWF  x41
0729C:  MOVLW  02
0729E:  MOVWF  x42
072A0:  MOVLB  0
072A2:  CALL   1AEE
....................           
....................          strcpy(Menus.Letra," Programa"); 
072A6:  MOVLW  09
072A8:  MOVWF  FEA
072AA:  MOVLW  0D
072AC:  MOVWF  FE9
072AE:  MOVFF  FF2,936
072B2:  BCF    FF2.7
072B4:  MOVLW  00
072B6:  CALL   0A2A
072BA:  TBLRD*-
072BC:  TBLRD*+
072BE:  MOVF   FF5,W
072C0:  MOVWF  FEE
072C2:  IORLW  00
072C4:  BNZ   72BC
072C6:  MOVLB  9
072C8:  BTFSC  x36.7
072CA:  BSF    FF2.7
....................          displayMenu(Menus.Letra,0,16,1,2); 
072CC:  MOVLW  09
072CE:  MOVWF  x3E
072D0:  MOVLW  0D
072D2:  MOVWF  x3D
072D4:  CLRF   x3F
072D6:  MOVLW  10
072D8:  MOVWF  x40
072DA:  MOVLW  01
072DC:  MOVWF  x41
072DE:  MOVLW  02
072E0:  MOVWF  x42
072E2:  MOVLB  0
072E4:  CALL   1AEE
....................            
....................           
....................          if(Opcion==1) 
072E8:  MOVLB  6
072EA:  DECFSZ x3F,W
072EC:  BRA    7332
....................          { 
....................             strcpy(Menus.Letra,"Programa 01"); 
072EE:  MOVLW  09
072F0:  MOVWF  FEA
072F2:  MOVLW  0D
072F4:  MOVWF  FE9
072F6:  MOVFF  FF2,936
072FA:  BCF    FF2.7
072FC:  MOVLW  00
072FE:  MOVLB  0
07300:  CALL   0A52
07304:  TBLRD*-
07306:  TBLRD*+
07308:  MOVF   FF5,W
0730A:  MOVWF  FEE
0730C:  IORLW  00
0730E:  BNZ   7306
07310:  MOVLB  9
07312:  BTFSC  x36.7
07314:  BSF    FF2.7
....................             displayMenu(Menus.Letra,0,38,0,2); 
07316:  MOVLW  09
07318:  MOVWF  x3E
0731A:  MOVLW  0D
0731C:  MOVWF  x3D
0731E:  CLRF   x3F
07320:  MOVLW  26
07322:  MOVWF  x40
07324:  CLRF   x41
07326:  MOVLW  02
07328:  MOVWF  x42
0732A:  MOVLB  0
0732C:  CALL   1AEE
07330:  MOVLB  6
....................          } 
....................           
....................          if(Opcion==2) 
07332:  MOVF   x3F,W
07334:  SUBLW  02
07336:  BNZ   737C
....................          { 
....................             strcpy(Menus.Letra,"Programa 02"); 
07338:  MOVLW  09
0733A:  MOVWF  FEA
0733C:  MOVLW  0D
0733E:  MOVWF  FE9
07340:  MOVFF  FF2,936
07344:  BCF    FF2.7
07346:  MOVLW  00
07348:  MOVLB  0
0734A:  CALL   0A7C
0734E:  TBLRD*-
07350:  TBLRD*+
07352:  MOVF   FF5,W
07354:  MOVWF  FEE
07356:  IORLW  00
07358:  BNZ   7350
0735A:  MOVLB  9
0735C:  BTFSC  x36.7
0735E:  BSF    FF2.7
....................             displayMenu(Menus.Letra,0,38,0,2); 
07360:  MOVLW  09
07362:  MOVWF  x3E
07364:  MOVLW  0D
07366:  MOVWF  x3D
07368:  CLRF   x3F
0736A:  MOVLW  26
0736C:  MOVWF  x40
0736E:  CLRF   x41
07370:  MOVLW  02
07372:  MOVWF  x42
07374:  MOVLB  0
07376:  CALL   1AEE
0737A:  MOVLB  6
....................          } 
....................           
....................          if(Opcion==3) 
0737C:  MOVF   x3F,W
0737E:  SUBLW  03
07380:  BNZ   73C6
....................          { 
....................             strcpy(Menus.Letra,"Programa 03"); 
07382:  MOVLW  09
07384:  MOVWF  FEA
07386:  MOVLW  0D
07388:  MOVWF  FE9
0738A:  MOVFF  FF2,936
0738E:  BCF    FF2.7
07390:  MOVLW  00
07392:  MOVLB  0
07394:  CALL   0AA6
07398:  TBLRD*-
0739A:  TBLRD*+
0739C:  MOVF   FF5,W
0739E:  MOVWF  FEE
073A0:  IORLW  00
073A2:  BNZ   739A
073A4:  MOVLB  9
073A6:  BTFSC  x36.7
073A8:  BSF    FF2.7
....................             displayMenu(Menus.Letra,0,38,0,2); 
073AA:  MOVLW  09
073AC:  MOVWF  x3E
073AE:  MOVLW  0D
073B0:  MOVWF  x3D
073B2:  CLRF   x3F
073B4:  MOVLW  26
073B6:  MOVWF  x40
073B8:  CLRF   x41
073BA:  MOVLW  02
073BC:  MOVWF  x42
073BE:  MOVLB  0
073C0:  CALL   1AEE
073C4:  MOVLB  6
....................          } 
....................           
....................          if(Opcion==4) 
073C6:  MOVF   x3F,W
073C8:  SUBLW  04
073CA:  BNZ   7410
....................          { 
....................             strcpy(Menus.Letra,"Programa 04"); 
073CC:  MOVLW  09
073CE:  MOVWF  FEA
073D0:  MOVLW  0D
073D2:  MOVWF  FE9
073D4:  MOVFF  FF2,936
073D8:  BCF    FF2.7
073DA:  MOVLW  00
073DC:  MOVLB  0
073DE:  CALL   0AD0
073E2:  TBLRD*-
073E4:  TBLRD*+
073E6:  MOVF   FF5,W
073E8:  MOVWF  FEE
073EA:  IORLW  00
073EC:  BNZ   73E4
073EE:  MOVLB  9
073F0:  BTFSC  x36.7
073F2:  BSF    FF2.7
....................             displayMenu(Menus.Letra,0,38,0,2); 
073F4:  MOVLW  09
073F6:  MOVWF  x3E
073F8:  MOVLW  0D
073FA:  MOVWF  x3D
073FC:  CLRF   x3F
073FE:  MOVLW  26
07400:  MOVWF  x40
07402:  CLRF   x41
07404:  MOVLW  02
07406:  MOVWF  x42
07408:  MOVLB  0
0740A:  CALL   1AEE
0740E:  MOVLB  6
....................          } 
....................           
....................          if(Opcion==5) 
07410:  MOVF   x3F,W
07412:  SUBLW  05
07414:  BNZ   745A
....................          { 
....................             strcpy(Menus.Letra,"Programa 05"); 
07416:  MOVLW  09
07418:  MOVWF  FEA
0741A:  MOVLW  0D
0741C:  MOVWF  FE9
0741E:  MOVFF  FF2,936
07422:  BCF    FF2.7
07424:  MOVLW  00
07426:  MOVLB  0
07428:  CALL   0AFA
0742C:  TBLRD*-
0742E:  TBLRD*+
07430:  MOVF   FF5,W
07432:  MOVWF  FEE
07434:  IORLW  00
07436:  BNZ   742E
07438:  MOVLB  9
0743A:  BTFSC  x36.7
0743C:  BSF    FF2.7
....................             displayMenu(Menus.Letra,0,38,0,2); 
0743E:  MOVLW  09
07440:  MOVWF  x3E
07442:  MOVLW  0D
07444:  MOVWF  x3D
07446:  CLRF   x3F
07448:  MOVLW  26
0744A:  MOVWF  x40
0744C:  CLRF   x41
0744E:  MOVLW  02
07450:  MOVWF  x42
07452:  MOVLB  0
07454:  CALL   1AEE
07458:  MOVLB  6
....................          } 
....................           
....................          
....................       if(UP)//Si oprime hacia arriba 
0745A:  BSF    F92.5
0745C:  BTFSC  F80.5
0745E:  BRA    7498
....................       { 
....................          Buzz_on;delay_ms(30);Opcion++;Buzz_off; 
07460:  BSF    F8B.5
07462:  BCF    F94.5
07464:  MOVLW  1E
07466:  MOVLB  9
07468:  MOVWF  x4C
0746A:  MOVLB  0
0746C:  CALL   1440
07470:  MOVLB  6
07472:  INCF   x3F,F
07474:  BCF    F8B.5
07476:  BCF    F94.5
....................          glcd_rect(40, 35, 85, 60, YES, OFF); 
07478:  MOVLW  28
0747A:  MOVLB  9
0747C:  MOVWF  x4E
0747E:  MOVLW  23
07480:  MOVWF  x4F
07482:  MOVLW  55
07484:  MOVWF  x50
07486:  MOVLW  3C
07488:  MOVWF  x51
0748A:  MOVLW  01
0748C:  MOVWF  x52
0748E:  CLRF   x53
07490:  MOVLB  0
07492:  CALL   1874
07496:  MOVLB  6
....................       } 
....................              
....................       if(DOWN)//Si oprime hacia abajo 
07498:  BSF    F96.0
0749A:  BTFSC  F84.0
0749C:  BRA    74D6
....................       {   
....................          Buzz_on;delay_ms(30);Opcion--;Buzz_off; 
0749E:  BSF    F8B.5
074A0:  BCF    F94.5
074A2:  MOVLW  1E
074A4:  MOVLB  9
074A6:  MOVWF  x4C
074A8:  MOVLB  0
074AA:  CALL   1440
074AE:  MOVLB  6
074B0:  DECF   x3F,F
074B2:  BCF    F8B.5
074B4:  BCF    F94.5
....................          glcd_rect(40, 35, 85, 60, YES, OFF); 
074B6:  MOVLW  28
074B8:  MOVLB  9
074BA:  MOVWF  x4E
074BC:  MOVLW  23
074BE:  MOVWF  x4F
074C0:  MOVLW  55
074C2:  MOVWF  x50
074C4:  MOVLW  3C
074C6:  MOVWF  x51
074C8:  MOVLW  01
074CA:  MOVWF  x52
074CC:  CLRF   x53
074CE:  MOVLB  0
074D0:  CALL   1874
074D4:  MOVLB  6
....................       } 
....................              
....................       if(RIGHT)//Si oprime SET 
074D6:  BSF    F96.1
074D8:  BTFSC  F84.1
074DA:  BRA    7970
....................       {   
....................          Menu=20;glcd_fillscreen(OFF); 
074DC:  MOVLW  14
074DE:  MOVWF  x38
074E0:  MOVLB  9
074E2:  CLRF   x3D
074E4:  MOVLB  0
074E6:  CALL   14C0
....................          for(i=0;i<Pasos;i++){ 
074EA:  MOVLB  6
074EC:  CLRF   x3A
074EE:  MOVF   x3A,W
074F0:  SUBLW  0F
074F2:  BNC   753C
....................             if(Temperatura1[i+((Opcion-1)*Pasos)]==0){ 
074F4:  MOVLW  01
074F6:  SUBWF  x3F,W
074F8:  MULLW  10
074FA:  MOVF   FF3,W
074FC:  ADDWF  x3A,W
074FE:  MOVWF  00
07500:  BCF    FD8.0
07502:  RLCF   00,F
07504:  MOVF   00,W
07506:  CLRF   03
07508:  ADDLW  07
0750A:  MOVWF  FE9
0750C:  MOVLW  07
0750E:  ADDWFC 03,W
07510:  MOVWF  FEA
07512:  MOVFF  FEC,937
07516:  MOVF   FED,F
07518:  MOVFF  FEF,936
0751C:  MOVLB  9
0751E:  MOVF   x36,F
07520:  BNZ   7532
07522:  MOVF   x37,F
07524:  BNZ   7532
....................                Segmentos=i; 
07526:  MOVFF  63A,62D
....................                break; 
0752A:  MOVLB  6
0752C:  BRA    753C
....................             } 
....................             else{ 
0752E:  BRA    7538
07530:  MOVLB  9
....................                Segmentos=Pasos-1; 
07532:  MOVLW  0F
07534:  MOVLB  6
07536:  MOVWF  x2D
....................             } 
....................             //Horas1[i+((Opcion-1)*10)]=0; 
....................             //Minutos1[i+((Opcion-1)*10)]=0; 
....................          } 
07538:  INCF   x3A,F
0753A:  BRA    74EE
....................          if(Segmentos>0){ 
0753C:  MOVF   x2D,F
0753E:  BTFSC  FD8.2
07540:  BRA    78B0
....................             ProgramaSeleccionado=Opcion-1; 
07542:  MOVLW  01
07544:  SUBWF  x3F,W
07546:  MOVWF  x41
....................             glcd_fillscreen(OFF); 
07548:  MOVLB  9
0754A:  CLRF   x3D
0754C:  MOVLB  0
0754E:  CALL   14C0
....................              
....................             strcpy(Menus.Letra," Segmentos"); 
07552:  MOVLW  09
07554:  MOVWF  FEA
07556:  MOVLW  0D
07558:  MOVWF  FE9
0755A:  MOVFF  FF2,936
0755E:  BCF    FF2.7
07560:  MOVLW  00
07562:  CALL   0B24
07566:  TBLRD*-
07568:  TBLRD*+
0756A:  MOVF   FF5,W
0756C:  MOVWF  FEE
0756E:  IORLW  00
07570:  BNZ   7568
07572:  MOVLB  9
07574:  BTFSC  x36.7
07576:  BSF    FF2.7
....................             displayMenu(Menus.Letra,0,0,0,2); 
07578:  MOVLW  09
0757A:  MOVWF  x3E
0757C:  MOVLW  0D
0757E:  MOVWF  x3D
07580:  CLRF   x3F
07582:  CLRF   x40
07584:  CLRF   x41
07586:  MOVLW  02
07588:  MOVWF  x42
0758A:  MOVLB  0
0758C:  CALL   1AEE
....................              
....................             displayTiempo(Segmentos,63,30,3,2); 
07590:  MOVFF  62D,939
07594:  MOVLW  3F
07596:  MOVLB  9
07598:  MOVWF  x3A
0759A:  MOVLW  1E
0759C:  MOVWF  x3B
0759E:  MOVLW  03
075A0:  MOVWF  x3C
075A2:  MOVLW  02
075A4:  MOVWF  x3D
075A6:  MOVLB  0
075A8:  CALL   2FD6
....................             delay_ms(2000); 
075AC:  MOVLW  08
075AE:  MOVLB  9
075B0:  MOVWF  x36
075B2:  MOVLW  FA
075B4:  MOVWF  x4C
075B6:  MOVLB  0
075B8:  CALL   1440
075BC:  MOVLB  9
075BE:  DECFSZ x36,F
075C0:  BRA    75B2
....................             glcd_fillscreen(OFF); 
075C2:  CLRF   x3D
075C4:  MOVLB  0
075C6:  CALL   14C0
....................             Opcion=1;visual=1;//Faltaa cuadrar esta parte 
075CA:  MOVLW  01
075CC:  MOVLB  6
075CE:  MOVWF  x3F
075D0:  BSF    x22.7
....................             TempeInicial=Temperatura; 
075D2:  MOVFF  6CE,662
075D6:  MOVFF  6CD,661
075DA:  MOVFF  6CC,660
075DE:  MOVFF  6CB,65F
....................             Ganancia=GananciaIn*(Setpoint/Coeficiente); 
075E2:  MOVFF  6DA,94E
075E6:  MOVFF  6D9,94D
075EA:  MOVFF  6D8,94C
075EE:  MOVFF  6D7,94B
075F2:  MOVFF  6C2,952
075F6:  MOVFF  6C1,951
075FA:  MOVFF  6C0,950
075FE:  MOVFF  6BF,94F
07602:  MOVLB  0
07604:  CALL   211C
07608:  MOVFF  6B6,95A
0760C:  MOVFF  6B5,959
07610:  MOVFF  6B4,958
07614:  MOVFF  6B3,957
07618:  MOVFF  03,95E
0761C:  MOVFF  02,95D
07620:  MOVFF  01,95C
07624:  MOVFF  00,95B
07628:  CALL   227A
0762C:  MOVFF  03,6BA
07630:  MOVFF  02,6B9
07634:  MOVFF  01,6B8
07638:  MOVFF  00,6B7
....................              
....................             Tiempo=(Horas1[ProgramaSeleccionado*Pasos]*3600)+(Minutos1[ProgramaSeleccionado*Pasos]*60);          
0763C:  MOVLB  6
0763E:  MOVF   x41,W
07640:  MULLW  10
07642:  MOVFF  FF3,00
07646:  BCF    FD8.0
07648:  RLCF   00,F
0764A:  MOVF   00,W
0764C:  CLRF   03
0764E:  ADDLW  A7
07650:  MOVWF  FE9
07652:  MOVLW  07
07654:  ADDWFC 03,W
07656:  MOVWF  FEA
07658:  MOVFF  FEC,937
0765C:  MOVF   FED,F
0765E:  MOVFF  FEF,936
07662:  MOVFF  937,93B
07666:  MOVFF  936,93A
0766A:  MOVLW  0E
0766C:  MOVLB  9
0766E:  MOVWF  x3D
07670:  MOVLW  10
07672:  MOVWF  x3C
07674:  MOVLB  0
07676:  CALL   319C
0767A:  MOVFF  02,937
0767E:  MOVFF  01,936
07682:  MOVLB  6
07684:  MOVF   x41,W
07686:  MULLW  10
07688:  MOVFF  FF3,00
0768C:  BCF    FD8.0
0768E:  RLCF   00,F
07690:  MOVF   00,W
07692:  CLRF   03
07694:  ADDLW  47
07696:  MOVWF  FE9
07698:  MOVLW  08
0769A:  ADDWFC 03,W
0769C:  MOVWF  FEA
0769E:  MOVFF  FEC,939
076A2:  MOVF   FED,F
076A4:  MOVFF  FEF,938
076A8:  MOVFF  939,93B
076AC:  MOVFF  938,93A
076B0:  MOVLB  9
076B2:  CLRF   x3D
076B4:  MOVLW  3C
076B6:  MOVWF  x3C
076B8:  MOVLB  0
076BA:  CALL   319C
076BE:  MOVFF  02,03
076C2:  MOVF   01,W
076C4:  MOVLB  9
076C6:  ADDWF  x36,W
076C8:  MOVWF  01
076CA:  MOVF   x37,W
076CC:  ADDWFC 03,F
076CE:  MOVFF  01,93A
076D2:  MOVFF  03,93B
076D6:  MOVLB  0
076D8:  CALL   31F0
076DC:  MOVFF  03,666
076E0:  MOVFF  02,665
076E4:  MOVFF  01,664
076E8:  MOVFF  00,663
....................             Setpoint=Temperatura1[(ProgramaSeleccionado*Pasos)+Segmento]; 
076EC:  MOVLB  6
076EE:  MOVF   x41,W
076F0:  MULLW  10
076F2:  MOVF   FF3,W
076F4:  ADDWF  x2E,W
076F6:  MOVWF  00
076F8:  BCF    FD8.0
076FA:  RLCF   00,F
076FC:  MOVF   00,W
076FE:  CLRF   03
07700:  ADDLW  07
07702:  MOVWF  FE9
07704:  MOVLW  07
07706:  ADDWFC 03,W
07708:  MOVWF  FEA
0770A:  MOVFF  FEC,03
0770E:  MOVF   FED,F
07710:  MOVFF  FEF,93A
07714:  MOVFF  03,93B
07718:  MOVLB  0
0771A:  CALL   31F0
0771E:  MOVFF  03,6DA
07722:  MOVFF  02,6D9
07726:  MOVFF  01,6D8
0772A:  MOVFF  00,6D7
....................             Pendiente=((Setpoint-TempeInicial)/Tiempo); 
0772E:  BSF    FD8.1
07730:  MOVFF  6DA,94C
07734:  MOVFF  6D9,94B
07738:  MOVFF  6D8,94A
0773C:  MOVFF  6D7,949
07740:  MOVFF  662,950
07744:  MOVFF  661,94F
07748:  MOVFF  660,94E
0774C:  MOVFF  65F,94D
07750:  CALL   1EA4
07754:  MOVFF  00,936
07758:  MOVFF  01,937
0775C:  MOVFF  02,938
07760:  MOVFF  03,939
07764:  MOVFF  03,94E
07768:  MOVFF  02,94D
0776C:  MOVFF  01,94C
07770:  MOVFF  00,94B
07774:  MOVFF  666,952
07778:  MOVFF  665,951
0777C:  MOVFF  664,950
07780:  MOVFF  663,94F
07784:  CALL   211C
07788:  MOVFF  03,6D2
0778C:  MOVFF  02,6D1
07790:  MOVFF  01,6D0
07794:  MOVFF  00,6CF
....................             Testerilizacionp[3]=(int8)Horas1[(ProgramaSeleccionado*Pasos)+Segmento]/10; 
07798:  MOVLB  6
0779A:  MOVF   x41,W
0779C:  MULLW  10
0779E:  MOVF   FF3,W
077A0:  ADDWF  x2E,W
077A2:  MOVWF  00
077A4:  BCF    FD8.0
077A6:  RLCF   00,F
077A8:  MOVF   00,W
077AA:  CLRF   03
077AC:  ADDLW  A7
077AE:  MOVWF  FE9
077B0:  MOVLW  07
077B2:  ADDWFC 03,W
077B4:  MOVWF  FEA
077B6:  MOVFF  FEF,952
077BA:  MOVLW  0A
077BC:  MOVLB  9
077BE:  MOVWF  x53
077C0:  MOVLB  0
077C2:  CALL   1C14
077C6:  MOVFF  01,68E
077CA:  MOVLB  6
....................             Testerilizacionp[2]=Horas1[(ProgramaSeleccionado*Pasos)+Segmento]-(Testerilizacionp[3]*10); 
077CC:  MOVF   x41,W
077CE:  MULLW  10
077D0:  MOVF   FF3,W
077D2:  ADDWF  x2E,W
077D4:  MOVWF  00
077D6:  BCF    FD8.0
077D8:  RLCF   00,F
077DA:  MOVF   00,W
077DC:  CLRF   03
077DE:  ADDLW  A7
077E0:  MOVWF  FE9
077E2:  MOVLW  07
077E4:  ADDWFC 03,W
077E6:  MOVWF  FEA
077E8:  MOVFF  FEC,937
077EC:  MOVF   FED,F
077EE:  MOVFF  FEF,936
077F2:  MOVFF  68E,957
077F6:  MOVLW  0A
077F8:  MOVLB  9
077FA:  MOVWF  x58
077FC:  MOVLB  0
077FE:  CALL   3240
07802:  MOVF   01,W
07804:  CLRF   03
07806:  MOVWF  00
07808:  BTFSC  FE8.7
0780A:  DECF   03,F
0780C:  MOVLB  9
0780E:  SUBWF  x36,W
07810:  MOVWF  00
07812:  MOVF   03,W
07814:  SUBWFB x37,W
07816:  MOVFF  00,68D
0781A:  MOVLB  6
....................             Testerilizacionp[1]=Minutos1[(ProgramaSeleccionado*Pasos)+Segmento]/10; 
0781C:  MOVF   x41,W
0781E:  MULLW  10
07820:  MOVF   FF3,W
07822:  ADDWF  x2E,W
07824:  MOVWF  00
07826:  BCF    FD8.0
07828:  RLCF   00,F
0782A:  MOVF   00,W
0782C:  CLRF   03
0782E:  ADDLW  47
07830:  MOVWF  FE9
07832:  MOVLW  08
07834:  ADDWFC 03,W
07836:  MOVWF  FEA
07838:  MOVFF  FEC,937
0783C:  MOVF   FED,F
0783E:  MOVFF  FEF,936
07842:  MOVFF  937,939
07846:  MOVFF  936,938
0784A:  MOVLB  9
0784C:  CLRF   x3B
0784E:  MOVLW  0A
07850:  MOVWF  x3A
07852:  MOVLB  0
07854:  CALL   328E
07858:  MOVFF  01,68C
0785C:  MOVLB  6
....................             Testerilizacionp[0]=Minutos1[(ProgramaSeleccionado*Pasos)+Segmento]-(Testerilizacionp[1]*10); 
0785E:  MOVF   x41,W
07860:  MULLW  10
07862:  MOVF   FF3,W
07864:  ADDWF  x2E,W
07866:  MOVWF  00
07868:  BCF    FD8.0
0786A:  RLCF   00,F
0786C:  MOVF   00,W
0786E:  CLRF   03
07870:  ADDLW  47
07872:  MOVWF  FE9
07874:  MOVLW  08
07876:  ADDWFC 03,W
07878:  MOVWF  FEA
0787A:  MOVFF  FEC,937
0787E:  MOVF   FED,F
07880:  MOVFF  FEF,936
07884:  MOVFF  68C,957
07888:  MOVLW  0A
0788A:  MOVLB  9
0788C:  MOVWF  x58
0788E:  MOVLB  0
07890:  CALL   3240
07894:  MOVF   01,W
07896:  CLRF   03
07898:  MOVWF  00
0789A:  BTFSC  FE8.7
0789C:  DECF   03,F
0789E:  MOVLB  9
078A0:  SUBWF  x36,W
078A2:  MOVWF  00
078A4:  MOVF   03,W
078A6:  SUBWFB x37,W
078A8:  MOVFF  00,68B
078AC:  MOVLB  6
....................              
....................          } 
....................          else{ 
078AE:  BRA    7970
....................             glcd_fillscreen(OFF); 
078B0:  MOVLB  9
078B2:  CLRF   x3D
078B4:  MOVLB  0
078B6:  CALL   14C0
....................             strcpy(Menus.Letra," !Programa"); 
078BA:  MOVLW  09
078BC:  MOVWF  FEA
078BE:  MOVLW  0D
078C0:  MOVWF  FE9
078C2:  MOVFF  FF2,936
078C6:  BCF    FF2.7
078C8:  MOVLW  00
078CA:  CALL   0B4E
078CE:  TBLRD*-
078D0:  TBLRD*+
078D2:  MOVF   FF5,W
078D4:  MOVWF  FEE
078D6:  IORLW  00
078D8:  BNZ   78D0
078DA:  MOVLB  9
078DC:  BTFSC  x36.7
078DE:  BSF    FF2.7
....................             displayMenu(Menus.Letra,0,0,0,2); 
078E0:  MOVLW  09
078E2:  MOVWF  x3E
078E4:  MOVLW  0D
078E6:  MOVWF  x3D
078E8:  CLRF   x3F
078EA:  CLRF   x40
078EC:  CLRF   x41
078EE:  MOVLW  02
078F0:  MOVWF  x42
078F2:  MOVLB  0
078F4:  CALL   1AEE
....................             strcpy(Menus.Letra,"    Vacio!"); 
078F8:  MOVLW  09
078FA:  MOVWF  FEA
078FC:  MOVLW  0D
078FE:  MOVWF  FE9
07900:  MOVFF  FF2,936
07904:  BCF    FF2.7
07906:  MOVLW  00
07908:  CALL   0B78
0790C:  TBLRD*-
0790E:  TBLRD*+
07910:  MOVF   FF5,W
07912:  MOVWF  FEE
07914:  IORLW  00
07916:  BNZ   790E
07918:  MOVLB  9
0791A:  BTFSC  x36.7
0791C:  BSF    FF2.7
....................             displayMenu(Menus.Letra,0,20,0,2); 
0791E:  MOVLW  09
07920:  MOVWF  x3E
07922:  MOVLW  0D
07924:  MOVWF  x3D
07926:  CLRF   x3F
07928:  MOVLW  14
0792A:  MOVWF  x40
0792C:  CLRF   x41
0792E:  MOVLW  02
07930:  MOVWF  x42
07932:  MOVLB  0
07934:  CALL   1AEE
....................             Opcion=1;Buzz_off;delay_ms(2000);Menu=1;glcd_fillscreen(OFF);Opcion=1;visual=1; 
07938:  MOVLW  01
0793A:  MOVLB  6
0793C:  MOVWF  x3F
0793E:  BCF    F8B.5
07940:  BCF    F94.5
07942:  MOVLW  08
07944:  MOVLB  9
07946:  MOVWF  x36
07948:  MOVLW  FA
0794A:  MOVWF  x4C
0794C:  MOVLB  0
0794E:  CALL   1440
07952:  MOVLB  9
07954:  DECFSZ x36,F
07956:  BRA    7948
07958:  MOVLW  01
0795A:  MOVLB  6
0795C:  MOVWF  x38
0795E:  MOVLB  9
07960:  CLRF   x3D
07962:  MOVLB  0
07964:  CALL   14C0
07968:  MOVLW  01
0796A:  MOVLB  6
0796C:  MOVWF  x3F
0796E:  BSF    x22.7
....................          } 
....................       }  
....................                    
....................       if(LEFT)//Si oprime boton de Toma. 
07970:  BSF    F96.2
07972:  BTFSC  F84.2
07974:  BRA    79A6
....................       { 
....................          Buzz_on;Opcion=1;Buzz_off;delay_ms(50);Menu=1;glcd_fillscreen(OFF);Opcion=1;visual=1; 
07976:  BSF    F8B.5
07978:  BCF    F94.5
0797A:  MOVLW  01
0797C:  MOVWF  x3F
0797E:  BCF    F8B.5
07980:  BCF    F94.5
07982:  MOVLW  32
07984:  MOVLB  9
07986:  MOVWF  x4C
07988:  MOVLB  0
0798A:  CALL   1440
0798E:  MOVLW  01
07990:  MOVLB  6
07992:  MOVWF  x38
07994:  MOVLB  9
07996:  CLRF   x3D
07998:  MOVLB  0
0799A:  CALL   14C0
0799E:  MOVLW  01
079A0:  MOVLB  6
079A2:  MOVWF  x3F
079A4:  BSF    x22.7
....................       }  
....................     } 
.................... //_--------------------------------------------------------------------------------------------------------------------------------------------------------        
....................  
.................... //_-------------------------------------------------------------------------------------------------------------------------------------------------------- 
....................       if(Menu==5){ //Menu Editar Programa 
079A6:  MOVF   x38,W
079A8:  SUBLW  05
079AA:  BTFSS  FD8.2
079AC:  BRA    7D76
....................        
....................          if(Opcion>5) 
079AE:  MOVF   x3F,W
079B0:  SUBLW  05
079B2:  BC    79B8
....................          {Opcion=1;} 
079B4:  MOVLW  01
079B6:  MOVWF  x3F
....................          if(Opcion<1) 
079B8:  MOVF   x3F,F
079BA:  BNZ   79C0
....................          {Opcion=5;} 
079BC:  MOVLW  05
079BE:  MOVWF  x3F
....................           
....................          strcpy(Menus.Letra,"Editar"); 
079C0:  MOVLW  09
079C2:  MOVWF  FEA
079C4:  MOVLW  0D
079C6:  MOVWF  FE9
079C8:  MOVFF  FF2,936
079CC:  BCF    FF2.7
079CE:  MOVLW  00
079D0:  MOVLB  0
079D2:  CALL   0BA2
079D6:  TBLRD*-
079D8:  TBLRD*+
079DA:  MOVF   FF5,W
079DC:  MOVWF  FEE
079DE:  IORLW  00
079E0:  BNZ   79D8
079E2:  MOVLB  9
079E4:  BTFSC  x36.7
079E6:  BSF    FF2.7
....................          displayMenu(Menus.Letra,30,0,1,2); 
079E8:  MOVLW  09
079EA:  MOVWF  x3E
079EC:  MOVLW  0D
079EE:  MOVWF  x3D
079F0:  MOVLW  1E
079F2:  MOVWF  x3F
079F4:  CLRF   x40
079F6:  MOVLW  01
079F8:  MOVWF  x41
079FA:  MOVLW  02
079FC:  MOVWF  x42
079FE:  MOVLB  0
07A00:  CALL   1AEE
....................        
....................          if(Opcion==1)    
07A04:  MOVLB  6
07A06:  DECFSZ x3F,W
07A08:  BRA    7A50
....................             {strcpy(Menus.Letra,"Programa 01"); 
07A0A:  MOVLW  09
07A0C:  MOVWF  FEA
07A0E:  MOVLW  0D
07A10:  MOVWF  FE9
07A12:  MOVFF  FF2,936
07A16:  BCF    FF2.7
07A18:  MOVLW  00
07A1A:  MOVLB  0
07A1C:  CALL   0A52
07A20:  TBLRD*-
07A22:  TBLRD*+
07A24:  MOVF   FF5,W
07A26:  MOVWF  FEE
07A28:  IORLW  00
07A2A:  BNZ   7A22
07A2C:  MOVLB  9
07A2E:  BTFSC  x36.7
07A30:  BSF    FF2.7
....................             displayMenu(Menus.Letra,0,18,1,1);} 
07A32:  MOVLW  09
07A34:  MOVWF  x3E
07A36:  MOVLW  0D
07A38:  MOVWF  x3D
07A3A:  CLRF   x3F
07A3C:  MOVLW  12
07A3E:  MOVWF  x40
07A40:  MOVLW  01
07A42:  MOVWF  x41
07A44:  MOVWF  x42
07A46:  MOVLB  0
07A48:  CALL   1AEE
....................          else 
07A4C:  BRA    7A92
07A4E:  MOVLB  6
....................             {strcpy(Menus.Letra,"Programa 01"); 
07A50:  MOVLW  09
07A52:  MOVWF  FEA
07A54:  MOVLW  0D
07A56:  MOVWF  FE9
07A58:  MOVFF  FF2,936
07A5C:  BCF    FF2.7
07A5E:  MOVLW  00
07A60:  MOVLB  0
07A62:  CALL   0A52
07A66:  TBLRD*-
07A68:  TBLRD*+
07A6A:  MOVF   FF5,W
07A6C:  MOVWF  FEE
07A6E:  IORLW  00
07A70:  BNZ   7A68
07A72:  MOVLB  9
07A74:  BTFSC  x36.7
07A76:  BSF    FF2.7
....................             displayMenu(Menus.Letra,0,18,0,1);} 
07A78:  MOVLW  09
07A7A:  MOVWF  x3E
07A7C:  MOVLW  0D
07A7E:  MOVWF  x3D
07A80:  CLRF   x3F
07A82:  MOVLW  12
07A84:  MOVWF  x40
07A86:  CLRF   x41
07A88:  MOVLW  01
07A8A:  MOVWF  x42
07A8C:  MOVLB  0
07A8E:  CALL   1AEE
....................           
....................          if(Opcion==2)    
07A92:  MOVLB  6
07A94:  MOVF   x3F,W
07A96:  SUBLW  02
07A98:  BNZ   7AE0
....................             {strcpy(Menus.Letra,"Programa 02"); 
07A9A:  MOVLW  09
07A9C:  MOVWF  FEA
07A9E:  MOVLW  0D
07AA0:  MOVWF  FE9
07AA2:  MOVFF  FF2,936
07AA6:  BCF    FF2.7
07AA8:  MOVLW  00
07AAA:  MOVLB  0
07AAC:  CALL   0A7C
07AB0:  TBLRD*-
07AB2:  TBLRD*+
07AB4:  MOVF   FF5,W
07AB6:  MOVWF  FEE
07AB8:  IORLW  00
07ABA:  BNZ   7AB2
07ABC:  MOVLB  9
07ABE:  BTFSC  x36.7
07AC0:  BSF    FF2.7
....................             displayMenu(Menus.Letra,0,27,1,1);} 
07AC2:  MOVLW  09
07AC4:  MOVWF  x3E
07AC6:  MOVLW  0D
07AC8:  MOVWF  x3D
07ACA:  CLRF   x3F
07ACC:  MOVLW  1B
07ACE:  MOVWF  x40
07AD0:  MOVLW  01
07AD2:  MOVWF  x41
07AD4:  MOVWF  x42
07AD6:  MOVLB  0
07AD8:  CALL   1AEE
....................          else 
07ADC:  BRA    7B22
07ADE:  MOVLB  6
....................             {strcpy(Menus.Letra,"Programa 02"); 
07AE0:  MOVLW  09
07AE2:  MOVWF  FEA
07AE4:  MOVLW  0D
07AE6:  MOVWF  FE9
07AE8:  MOVFF  FF2,936
07AEC:  BCF    FF2.7
07AEE:  MOVLW  00
07AF0:  MOVLB  0
07AF2:  CALL   0A7C
07AF6:  TBLRD*-
07AF8:  TBLRD*+
07AFA:  MOVF   FF5,W
07AFC:  MOVWF  FEE
07AFE:  IORLW  00
07B00:  BNZ   7AF8
07B02:  MOVLB  9
07B04:  BTFSC  x36.7
07B06:  BSF    FF2.7
....................             displayMenu(Menus.Letra,0,27,0,1);} 
07B08:  MOVLW  09
07B0A:  MOVWF  x3E
07B0C:  MOVLW  0D
07B0E:  MOVWF  x3D
07B10:  CLRF   x3F
07B12:  MOVLW  1B
07B14:  MOVWF  x40
07B16:  CLRF   x41
07B18:  MOVLW  01
07B1A:  MOVWF  x42
07B1C:  MOVLB  0
07B1E:  CALL   1AEE
....................              
....................          if(Opcion==3)    
07B22:  MOVLB  6
07B24:  MOVF   x3F,W
07B26:  SUBLW  03
07B28:  BNZ   7B70
....................             {strcpy(Menus.Letra,"Programa 03"); 
07B2A:  MOVLW  09
07B2C:  MOVWF  FEA
07B2E:  MOVLW  0D
07B30:  MOVWF  FE9
07B32:  MOVFF  FF2,936
07B36:  BCF    FF2.7
07B38:  MOVLW  00
07B3A:  MOVLB  0
07B3C:  CALL   0AA6
07B40:  TBLRD*-
07B42:  TBLRD*+
07B44:  MOVF   FF5,W
07B46:  MOVWF  FEE
07B48:  IORLW  00
07B4A:  BNZ   7B42
07B4C:  MOVLB  9
07B4E:  BTFSC  x36.7
07B50:  BSF    FF2.7
....................             displayMenu(Menus.Letra,0,36,1,1);} 
07B52:  MOVLW  09
07B54:  MOVWF  x3E
07B56:  MOVLW  0D
07B58:  MOVWF  x3D
07B5A:  CLRF   x3F
07B5C:  MOVLW  24
07B5E:  MOVWF  x40
07B60:  MOVLW  01
07B62:  MOVWF  x41
07B64:  MOVWF  x42
07B66:  MOVLB  0
07B68:  CALL   1AEE
....................          else 
07B6C:  BRA    7BB2
07B6E:  MOVLB  6
....................             {strcpy(Menus.Letra,"Programa 03"); 
07B70:  MOVLW  09
07B72:  MOVWF  FEA
07B74:  MOVLW  0D
07B76:  MOVWF  FE9
07B78:  MOVFF  FF2,936
07B7C:  BCF    FF2.7
07B7E:  MOVLW  00
07B80:  MOVLB  0
07B82:  CALL   0AA6
07B86:  TBLRD*-
07B88:  TBLRD*+
07B8A:  MOVF   FF5,W
07B8C:  MOVWF  FEE
07B8E:  IORLW  00
07B90:  BNZ   7B88
07B92:  MOVLB  9
07B94:  BTFSC  x36.7
07B96:  BSF    FF2.7
....................             displayMenu(Menus.Letra,0,36,0,1);}    
07B98:  MOVLW  09
07B9A:  MOVWF  x3E
07B9C:  MOVLW  0D
07B9E:  MOVWF  x3D
07BA0:  CLRF   x3F
07BA2:  MOVLW  24
07BA4:  MOVWF  x40
07BA6:  CLRF   x41
07BA8:  MOVLW  01
07BAA:  MOVWF  x42
07BAC:  MOVLB  0
07BAE:  CALL   1AEE
....................                          
....................          if(Opcion==4)    
07BB2:  MOVLB  6
07BB4:  MOVF   x3F,W
07BB6:  SUBLW  04
07BB8:  BNZ   7C00
....................             {strcpy(Menus.Letra,"Programa 04"); 
07BBA:  MOVLW  09
07BBC:  MOVWF  FEA
07BBE:  MOVLW  0D
07BC0:  MOVWF  FE9
07BC2:  MOVFF  FF2,936
07BC6:  BCF    FF2.7
07BC8:  MOVLW  00
07BCA:  MOVLB  0
07BCC:  CALL   0AD0
07BD0:  TBLRD*-
07BD2:  TBLRD*+
07BD4:  MOVF   FF5,W
07BD6:  MOVWF  FEE
07BD8:  IORLW  00
07BDA:  BNZ   7BD2
07BDC:  MOVLB  9
07BDE:  BTFSC  x36.7
07BE0:  BSF    FF2.7
....................             displayMenu(Menus.Letra,0,45,1,1);} 
07BE2:  MOVLW  09
07BE4:  MOVWF  x3E
07BE6:  MOVLW  0D
07BE8:  MOVWF  x3D
07BEA:  CLRF   x3F
07BEC:  MOVLW  2D
07BEE:  MOVWF  x40
07BF0:  MOVLW  01
07BF2:  MOVWF  x41
07BF4:  MOVWF  x42
07BF6:  MOVLB  0
07BF8:  CALL   1AEE
....................          else 
07BFC:  BRA    7C42
07BFE:  MOVLB  6
....................             {strcpy(Menus.Letra,"Programa 04"); 
07C00:  MOVLW  09
07C02:  MOVWF  FEA
07C04:  MOVLW  0D
07C06:  MOVWF  FE9
07C08:  MOVFF  FF2,936
07C0C:  BCF    FF2.7
07C0E:  MOVLW  00
07C10:  MOVLB  0
07C12:  CALL   0AD0
07C16:  TBLRD*-
07C18:  TBLRD*+
07C1A:  MOVF   FF5,W
07C1C:  MOVWF  FEE
07C1E:  IORLW  00
07C20:  BNZ   7C18
07C22:  MOVLB  9
07C24:  BTFSC  x36.7
07C26:  BSF    FF2.7
....................             displayMenu(Menus.Letra,0,45,0,1);}      
07C28:  MOVLW  09
07C2A:  MOVWF  x3E
07C2C:  MOVLW  0D
07C2E:  MOVWF  x3D
07C30:  CLRF   x3F
07C32:  MOVLW  2D
07C34:  MOVWF  x40
07C36:  CLRF   x41
07C38:  MOVLW  01
07C3A:  MOVWF  x42
07C3C:  MOVLB  0
07C3E:  CALL   1AEE
....................           
....................          if(Opcion==5)    
07C42:  MOVLB  6
07C44:  MOVF   x3F,W
07C46:  SUBLW  05
07C48:  BNZ   7C90
....................             {strcpy(Menus.Letra,"Programa 05"); 
07C4A:  MOVLW  09
07C4C:  MOVWF  FEA
07C4E:  MOVLW  0D
07C50:  MOVWF  FE9
07C52:  MOVFF  FF2,936
07C56:  BCF    FF2.7
07C58:  MOVLW  00
07C5A:  MOVLB  0
07C5C:  CALL   0AFA
07C60:  TBLRD*-
07C62:  TBLRD*+
07C64:  MOVF   FF5,W
07C66:  MOVWF  FEE
07C68:  IORLW  00
07C6A:  BNZ   7C62
07C6C:  MOVLB  9
07C6E:  BTFSC  x36.7
07C70:  BSF    FF2.7
....................             displayMenu(Menus.Letra,0,54,1,1);} 
07C72:  MOVLW  09
07C74:  MOVWF  x3E
07C76:  MOVLW  0D
07C78:  MOVWF  x3D
07C7A:  CLRF   x3F
07C7C:  MOVLW  36
07C7E:  MOVWF  x40
07C80:  MOVLW  01
07C82:  MOVWF  x41
07C84:  MOVWF  x42
07C86:  MOVLB  0
07C88:  CALL   1AEE
....................          else 
07C8C:  BRA    7CD2
07C8E:  MOVLB  6
....................             {strcpy(Menus.Letra,"Programa 05"); 
07C90:  MOVLW  09
07C92:  MOVWF  FEA
07C94:  MOVLW  0D
07C96:  MOVWF  FE9
07C98:  MOVFF  FF2,936
07C9C:  BCF    FF2.7
07C9E:  MOVLW  00
07CA0:  MOVLB  0
07CA2:  CALL   0AFA
07CA6:  TBLRD*-
07CA8:  TBLRD*+
07CAA:  MOVF   FF5,W
07CAC:  MOVWF  FEE
07CAE:  IORLW  00
07CB0:  BNZ   7CA8
07CB2:  MOVLB  9
07CB4:  BTFSC  x36.7
07CB6:  BSF    FF2.7
....................             displayMenu(Menus.Letra,0,54,0,1);}      
07CB8:  MOVLW  09
07CBA:  MOVWF  x3E
07CBC:  MOVLW  0D
07CBE:  MOVWF  x3D
07CC0:  CLRF   x3F
07CC2:  MOVLW  36
07CC4:  MOVWF  x40
07CC6:  CLRF   x41
07CC8:  MOVLW  01
07CCA:  MOVWF  x42
07CCC:  MOVLB  0
07CCE:  CALL   1AEE
....................           
....................          if(UP)//Si oprime hacia arriba 
07CD2:  BSF    F92.5
07CD4:  BTFSC  F80.5
07CD6:  BRA    7CF2
....................          { 
....................             Buzz_on;delay_ms(30);Opcion--;Buzz_off; 
07CD8:  BSF    F8B.5
07CDA:  BCF    F94.5
07CDC:  MOVLW  1E
07CDE:  MOVLB  9
07CE0:  MOVWF  x4C
07CE2:  MOVLB  0
07CE4:  CALL   1440
07CE8:  MOVLB  6
07CEA:  DECF   x3F,F
07CEC:  BCF    F8B.5
07CEE:  BCF    F94.5
07CF0:  MOVLB  0
....................          } 
....................                    
....................          if(DOWN)//Si oprime hacia abajo 
07CF2:  BSF    F96.0
07CF4:  BTFSC  F84.0
07CF6:  BRA    7D12
....................          { 
....................             Buzz_on;delay_ms(30);Opcion++; Buzz_off; 
07CF8:  BSF    F8B.5
07CFA:  BCF    F94.5
07CFC:  MOVLW  1E
07CFE:  MOVLB  9
07D00:  MOVWF  x4C
07D02:  MOVLB  0
07D04:  CALL   1440
07D08:  MOVLB  6
07D0A:  INCF   x3F,F
07D0C:  BCF    F8B.5
07D0E:  BCF    F94.5
07D10:  MOVLB  0
....................          } 
....................                 
....................          if(RIGHT)//Si oprime SET 
07D12:  BSF    F96.1
07D14:  BTFSC  F84.1
07D16:  BRA    7D48
....................          {  
....................             Buzz_on;delay_ms(50);Menu=Opcion+10;Opcion=1;glcd_fillscreen(OFF);Buzz_off;i=0; 
07D18:  BSF    F8B.5
07D1A:  BCF    F94.5
07D1C:  MOVLW  32
07D1E:  MOVLB  9
07D20:  MOVWF  x4C
07D22:  MOVLB  0
07D24:  CALL   1440
07D28:  MOVLW  0A
07D2A:  MOVLB  6
07D2C:  ADDWF  x3F,W
07D2E:  MOVWF  x38
07D30:  MOVLW  01
07D32:  MOVWF  x3F
07D34:  MOVLB  9
07D36:  CLRF   x3D
07D38:  MOVLB  0
07D3A:  CALL   14C0
07D3E:  BCF    F8B.5
07D40:  BCF    F94.5
07D42:  MOVLB  6
07D44:  CLRF   x3A
07D46:  MOVLB  0
....................          } 
....................           
....................          if(LEFT){ 
07D48:  BSF    F96.2
07D4A:  BTFSC  F84.2
07D4C:  BRA    7D74
....................             Buzz_on;delay_ms(50);Menu=1;Opcion=1;glcd_fillscreen(OFF);Buzz_off; 
07D4E:  BSF    F8B.5
07D50:  BCF    F94.5
07D52:  MOVLW  32
07D54:  MOVLB  9
07D56:  MOVWF  x4C
07D58:  MOVLB  0
07D5A:  CALL   1440
07D5E:  MOVLW  01
07D60:  MOVLB  6
07D62:  MOVWF  x38
07D64:  MOVWF  x3F
07D66:  MOVLB  9
07D68:  CLRF   x3D
07D6A:  MOVLB  0
07D6C:  CALL   14C0
07D70:  BCF    F8B.5
07D72:  BCF    F94.5
07D74:  MOVLB  6
....................          } 
....................    } 
.................... //_--------------------------------------------------------------------------------------------------------------------------------------------------------        
....................  
.................... //_-------------------------------------------------------------------------------------------------------------------------------------------------------- 
....................       if(Menu==6){ //Menu de Borrar Programa 
07D76:  MOVF   x38,W
07D78:  SUBLW  06
07D7A:  BTFSS  FD8.2
07D7C:  BRA    82E2
....................        
....................       if(Opcion>5) 
07D7E:  MOVF   x3F,W
07D80:  SUBLW  05
07D82:  BC    7D88
....................          Opcion=1; 
07D84:  MOVLW  01
07D86:  MOVWF  x3F
....................           
....................       if(Opcion<1) 
07D88:  MOVF   x3F,F
07D8A:  BNZ   7D90
....................          Opcion=5; 
07D8C:  MOVLW  05
07D8E:  MOVWF  x3F
....................        
....................          strcpy(Menus.Letra,"  Elimine"); 
07D90:  MOVLW  09
07D92:  MOVWF  FEA
07D94:  MOVLW  0D
07D96:  MOVWF  FE9
07D98:  MOVFF  FF2,936
07D9C:  BCF    FF2.7
07D9E:  MOVLW  00
07DA0:  MOVLB  0
07DA2:  CALL   0BC8
07DA6:  TBLRD*-
07DA8:  TBLRD*+
07DAA:  MOVF   FF5,W
07DAC:  MOVWF  FEE
07DAE:  IORLW  00
07DB0:  BNZ   7DA8
07DB2:  MOVLB  9
07DB4:  BTFSC  x36.7
07DB6:  BSF    FF2.7
....................          displayMenu(Menus.Letra,0,0,1,2); 
07DB8:  MOVLW  09
07DBA:  MOVWF  x3E
07DBC:  MOVLW  0D
07DBE:  MOVWF  x3D
07DC0:  CLRF   x3F
07DC2:  CLRF   x40
07DC4:  MOVLW  01
07DC6:  MOVWF  x41
07DC8:  MOVLW  02
07DCA:  MOVWF  x42
07DCC:  MOVLB  0
07DCE:  CALL   1AEE
....................           
....................          strcpy(Menus.Letra," Programa"); 
07DD2:  MOVLW  09
07DD4:  MOVWF  FEA
07DD6:  MOVLW  0D
07DD8:  MOVWF  FE9
07DDA:  MOVFF  FF2,936
07DDE:  BCF    FF2.7
07DE0:  MOVLW  00
07DE2:  CALL   0A2A
07DE6:  TBLRD*-
07DE8:  TBLRD*+
07DEA:  MOVF   FF5,W
07DEC:  MOVWF  FEE
07DEE:  IORLW  00
07DF0:  BNZ   7DE8
07DF2:  MOVLB  9
07DF4:  BTFSC  x36.7
07DF6:  BSF    FF2.7
....................          displayMenu(Menus.Letra,0,16,1,2); 
07DF8:  MOVLW  09
07DFA:  MOVWF  x3E
07DFC:  MOVLW  0D
07DFE:  MOVWF  x3D
07E00:  CLRF   x3F
07E02:  MOVLW  10
07E04:  MOVWF  x40
07E06:  MOVLW  01
07E08:  MOVWF  x41
07E0A:  MOVLW  02
07E0C:  MOVWF  x42
07E0E:  MOVLB  0
07E10:  CALL   1AEE
....................            
....................           
....................          if(Opcion==1) 
07E14:  MOVLB  6
07E16:  DECFSZ x3F,W
07E18:  BRA    7E5E
....................          { 
....................             strcpy(Menus.Letra,"Programa 01"); 
07E1A:  MOVLW  09
07E1C:  MOVWF  FEA
07E1E:  MOVLW  0D
07E20:  MOVWF  FE9
07E22:  MOVFF  FF2,936
07E26:  BCF    FF2.7
07E28:  MOVLW  00
07E2A:  MOVLB  0
07E2C:  CALL   0A52
07E30:  TBLRD*-
07E32:  TBLRD*+
07E34:  MOVF   FF5,W
07E36:  MOVWF  FEE
07E38:  IORLW  00
07E3A:  BNZ   7E32
07E3C:  MOVLB  9
07E3E:  BTFSC  x36.7
07E40:  BSF    FF2.7
....................             displayMenu(Menus.Letra,0,38,0,2); 
07E42:  MOVLW  09
07E44:  MOVWF  x3E
07E46:  MOVLW  0D
07E48:  MOVWF  x3D
07E4A:  CLRF   x3F
07E4C:  MOVLW  26
07E4E:  MOVWF  x40
07E50:  CLRF   x41
07E52:  MOVLW  02
07E54:  MOVWF  x42
07E56:  MOVLB  0
07E58:  CALL   1AEE
07E5C:  MOVLB  6
....................          } 
....................           
....................          if(Opcion==2) 
07E5E:  MOVF   x3F,W
07E60:  SUBLW  02
07E62:  BNZ   7EA8
....................          { 
....................             strcpy(Menus.Letra,"Programa 02"); 
07E64:  MOVLW  09
07E66:  MOVWF  FEA
07E68:  MOVLW  0D
07E6A:  MOVWF  FE9
07E6C:  MOVFF  FF2,936
07E70:  BCF    FF2.7
07E72:  MOVLW  00
07E74:  MOVLB  0
07E76:  CALL   0A7C
07E7A:  TBLRD*-
07E7C:  TBLRD*+
07E7E:  MOVF   FF5,W
07E80:  MOVWF  FEE
07E82:  IORLW  00
07E84:  BNZ   7E7C
07E86:  MOVLB  9
07E88:  BTFSC  x36.7
07E8A:  BSF    FF2.7
....................             displayMenu(Menus.Letra,0,38,0,2); 
07E8C:  MOVLW  09
07E8E:  MOVWF  x3E
07E90:  MOVLW  0D
07E92:  MOVWF  x3D
07E94:  CLRF   x3F
07E96:  MOVLW  26
07E98:  MOVWF  x40
07E9A:  CLRF   x41
07E9C:  MOVLW  02
07E9E:  MOVWF  x42
07EA0:  MOVLB  0
07EA2:  CALL   1AEE
07EA6:  MOVLB  6
....................          } 
....................           
....................          if(Opcion==3) 
07EA8:  MOVF   x3F,W
07EAA:  SUBLW  03
07EAC:  BNZ   7EF2
....................          { 
....................             strcpy(Menus.Letra,"Programa 03"); 
07EAE:  MOVLW  09
07EB0:  MOVWF  FEA
07EB2:  MOVLW  0D
07EB4:  MOVWF  FE9
07EB6:  MOVFF  FF2,936
07EBA:  BCF    FF2.7
07EBC:  MOVLW  00
07EBE:  MOVLB  0
07EC0:  CALL   0AA6
07EC4:  TBLRD*-
07EC6:  TBLRD*+
07EC8:  MOVF   FF5,W
07ECA:  MOVWF  FEE
07ECC:  IORLW  00
07ECE:  BNZ   7EC6
07ED0:  MOVLB  9
07ED2:  BTFSC  x36.7
07ED4:  BSF    FF2.7
....................             displayMenu(Menus.Letra,0,38,0,2); 
07ED6:  MOVLW  09
07ED8:  MOVWF  x3E
07EDA:  MOVLW  0D
07EDC:  MOVWF  x3D
07EDE:  CLRF   x3F
07EE0:  MOVLW  26
07EE2:  MOVWF  x40
07EE4:  CLRF   x41
07EE6:  MOVLW  02
07EE8:  MOVWF  x42
07EEA:  MOVLB  0
07EEC:  CALL   1AEE
07EF0:  MOVLB  6
....................          } 
....................           
....................          if(Opcion==4) 
07EF2:  MOVF   x3F,W
07EF4:  SUBLW  04
07EF6:  BNZ   7F3C
....................          { 
....................             strcpy(Menus.Letra,"Programa 04"); 
07EF8:  MOVLW  09
07EFA:  MOVWF  FEA
07EFC:  MOVLW  0D
07EFE:  MOVWF  FE9
07F00:  MOVFF  FF2,936
07F04:  BCF    FF2.7
07F06:  MOVLW  00
07F08:  MOVLB  0
07F0A:  CALL   0AD0
07F0E:  TBLRD*-
07F10:  TBLRD*+
07F12:  MOVF   FF5,W
07F14:  MOVWF  FEE
07F16:  IORLW  00
07F18:  BNZ   7F10
07F1A:  MOVLB  9
07F1C:  BTFSC  x36.7
07F1E:  BSF    FF2.7
....................             displayMenu(Menus.Letra,0,38,0,2); 
07F20:  MOVLW  09
07F22:  MOVWF  x3E
07F24:  MOVLW  0D
07F26:  MOVWF  x3D
07F28:  CLRF   x3F
07F2A:  MOVLW  26
07F2C:  MOVWF  x40
07F2E:  CLRF   x41
07F30:  MOVLW  02
07F32:  MOVWF  x42
07F34:  MOVLB  0
07F36:  CALL   1AEE
07F3A:  MOVLB  6
....................          } 
....................           
....................          if(Opcion==5) 
07F3C:  MOVF   x3F,W
07F3E:  SUBLW  05
07F40:  BNZ   7F86
....................          { 
....................             strcpy(Menus.Letra,"Programa 05"); 
07F42:  MOVLW  09
07F44:  MOVWF  FEA
07F46:  MOVLW  0D
07F48:  MOVWF  FE9
07F4A:  MOVFF  FF2,936
07F4E:  BCF    FF2.7
07F50:  MOVLW  00
07F52:  MOVLB  0
07F54:  CALL   0AFA
07F58:  TBLRD*-
07F5A:  TBLRD*+
07F5C:  MOVF   FF5,W
07F5E:  MOVWF  FEE
07F60:  IORLW  00
07F62:  BNZ   7F5A
07F64:  MOVLB  9
07F66:  BTFSC  x36.7
07F68:  BSF    FF2.7
....................             displayMenu(Menus.Letra,0,38,0,2); 
07F6A:  MOVLW  09
07F6C:  MOVWF  x3E
07F6E:  MOVLW  0D
07F70:  MOVWF  x3D
07F72:  CLRF   x3F
07F74:  MOVLW  26
07F76:  MOVWF  x40
07F78:  CLRF   x41
07F7A:  MOVLW  02
07F7C:  MOVWF  x42
07F7E:  MOVLB  0
07F80:  CALL   1AEE
07F84:  MOVLB  6
....................          } 
....................           
....................          
....................       if(UP)//Si oprime hacia arriba 
07F86:  BSF    F92.5
07F88:  BTFSC  F80.5
07F8A:  BRA    7FC4
....................       { 
....................          Buzz_on;delay_ms(30);Opcion++;Buzz_off; 
07F8C:  BSF    F8B.5
07F8E:  BCF    F94.5
07F90:  MOVLW  1E
07F92:  MOVLB  9
07F94:  MOVWF  x4C
07F96:  MOVLB  0
07F98:  CALL   1440
07F9C:  MOVLB  6
07F9E:  INCF   x3F,F
07FA0:  BCF    F8B.5
07FA2:  BCF    F94.5
....................          glcd_rect(40, 35, 85, 60, YES, OFF); 
07FA4:  MOVLW  28
07FA6:  MOVLB  9
07FA8:  MOVWF  x4E
07FAA:  MOVLW  23
07FAC:  MOVWF  x4F
07FAE:  MOVLW  55
07FB0:  MOVWF  x50
07FB2:  MOVLW  3C
07FB4:  MOVWF  x51
07FB6:  MOVLW  01
07FB8:  MOVWF  x52
07FBA:  CLRF   x53
07FBC:  MOVLB  0
07FBE:  CALL   1874
07FC2:  MOVLB  6
....................       } 
....................              
....................       if(DOWN)//Si oprime hacia abajo 
07FC4:  BSF    F96.0
07FC6:  BTFSC  F84.0
07FC8:  BRA    8002
....................       {   
....................          Buzz_on;delay_ms(30);Opcion--;Buzz_off; 
07FCA:  BSF    F8B.5
07FCC:  BCF    F94.5
07FCE:  MOVLW  1E
07FD0:  MOVLB  9
07FD2:  MOVWF  x4C
07FD4:  MOVLB  0
07FD6:  CALL   1440
07FDA:  MOVLB  6
07FDC:  DECF   x3F,F
07FDE:  BCF    F8B.5
07FE0:  BCF    F94.5
....................          glcd_rect(40, 35, 85, 60, YES, OFF); 
07FE2:  MOVLW  28
07FE4:  MOVLB  9
07FE6:  MOVWF  x4E
07FE8:  MOVLW  23
07FEA:  MOVWF  x4F
07FEC:  MOVLW  55
07FEE:  MOVWF  x50
07FF0:  MOVLW  3C
07FF2:  MOVWF  x51
07FF4:  MOVLW  01
07FF6:  MOVWF  x52
07FF8:  CLRF   x53
07FFA:  MOVLB  0
07FFC:  CALL   1874
08000:  MOVLB  6
....................       } 
....................              
....................       if(RIGHT)//Si oprime SET 
08002:  BSF    F96.1
08004:  BTFSC  F84.1
08006:  BRA    82A2
....................       {   
....................          Buzz_on; 
08008:  BSF    F8B.5
0800A:  BCF    F94.5
....................          for(i=0;i<Pasos;i++){ 
0800C:  CLRF   x3A
0800E:  MOVF   x3A,W
08010:  SUBLW  0F
08012:  BNC   8084
....................             Temperatura1[i+((Opcion-1)*Pasos)]=0; 
08014:  MOVLW  01
08016:  SUBWF  x3F,W
08018:  MULLW  10
0801A:  MOVF   FF3,W
0801C:  ADDWF  x3A,W
0801E:  MOVWF  00
08020:  BCF    FD8.0
08022:  RLCF   00,F
08024:  MOVF   00,W
08026:  CLRF   03
08028:  ADDLW  07
0802A:  MOVWF  FE9
0802C:  MOVLW  07
0802E:  ADDWFC 03,W
08030:  MOVWF  FEA
08032:  CLRF   FEC
08034:  MOVF   FED,F
08036:  CLRF   FEF
....................             Horas1[i+((Opcion-1)*Pasos)]=0; 
08038:  MOVLW  01
0803A:  SUBWF  x3F,W
0803C:  MULLW  10
0803E:  MOVF   FF3,W
08040:  ADDWF  x3A,W
08042:  MOVWF  00
08044:  BCF    FD8.0
08046:  RLCF   00,F
08048:  MOVF   00,W
0804A:  CLRF   03
0804C:  ADDLW  A7
0804E:  MOVWF  FE9
08050:  MOVLW  07
08052:  ADDWFC 03,W
08054:  MOVWF  FEA
08056:  CLRF   FEC
08058:  MOVF   FED,F
0805A:  CLRF   FEF
....................             Minutos1[i+((Opcion-1)*Pasos)]=0; 
0805C:  MOVLW  01
0805E:  SUBWF  x3F,W
08060:  MULLW  10
08062:  MOVF   FF3,W
08064:  ADDWF  x3A,W
08066:  MOVWF  00
08068:  BCF    FD8.0
0806A:  RLCF   00,F
0806C:  MOVF   00,W
0806E:  CLRF   03
08070:  ADDLW  47
08072:  MOVWF  FE9
08074:  MOVLW  08
08076:  ADDWFC 03,W
08078:  MOVWF  FEA
0807A:  CLRF   FEC
0807C:  MOVF   FED,F
0807E:  CLRF   FEF
....................          } 
08080:  INCF   x3A,F
08082:  BRA    800E
....................           
....................          for(i=0;i<Pasos;i++){ 
08084:  CLRF   x3A
08086:  MOVF   x3A,W
08088:  SUBLW  0F
0808A:  BTFSS  FD8.0
0808C:  BRA    81BE
....................             delay_ms(10);     
0808E:  MOVLW  0A
08090:  MOVLB  9
08092:  MOVWF  x4C
08094:  MOVLB  0
08096:  CALL   1440
....................             write_eeprom((i*2)+((Pasos*4)*(Opcion-1)),0); 
0809A:  BCF    FD8.0
0809C:  MOVLB  6
0809E:  RLCF   x3A,W
080A0:  MOVLB  9
080A2:  MOVWF  x36
080A4:  MOVLW  01
080A6:  MOVLB  6
080A8:  SUBWF  x3F,W
080AA:  MULLW  40
080AC:  MOVF   FF3,W
080AE:  MOVLB  9
080B0:  ADDWF  x36,F
080B2:  CLRF   FAA
080B4:  MOVFF  936,FA9
080B8:  CLRF   FA8
080BA:  BCF    FA6.6
080BC:  BCF    FA6.7
080BE:  BSF    FA6.2
080C0:  MOVF   FF2,W
080C2:  MOVWF  00
080C4:  BCF    FF2.7
080C6:  MOVLB  F
080C8:  MOVLW  55
080CA:  MOVWF  FA7
080CC:  MOVLW  AA
080CE:  MOVWF  FA7
080D0:  BSF    FA6.1
080D2:  BTFSC  FA6.1
080D4:  BRA    80D2
080D6:  BCF    FA6.2
080D8:  MOVF   00,W
080DA:  IORWF  FF2,F
....................             delay_ms(10);     
080DC:  MOVLW  0A
080DE:  MOVLB  9
080E0:  MOVWF  x4C
080E2:  MOVLB  0
080E4:  CALL   1440
....................             write_eeprom((i*2)+1+((Pasos*4)*(Opcion-1)),0); 
080E8:  BCF    FD8.0
080EA:  MOVLB  6
080EC:  RLCF   x3A,W
080EE:  ADDLW  01
080F0:  MOVLB  9
080F2:  MOVWF  x36
080F4:  MOVLW  01
080F6:  MOVLB  6
080F8:  SUBWF  x3F,W
080FA:  MULLW  40
080FC:  MOVF   FF3,W
080FE:  MOVLB  9
08100:  ADDWF  x36,F
08102:  CLRF   FAA
08104:  MOVFF  936,FA9
08108:  CLRF   FA8
0810A:  BCF    FA6.6
0810C:  BCF    FA6.7
0810E:  BSF    FA6.2
08110:  MOVF   FF2,W
08112:  MOVWF  00
08114:  BCF    FF2.7
08116:  MOVLB  F
08118:  MOVLW  55
0811A:  MOVWF  FA7
0811C:  MOVLW  AA
0811E:  MOVWF  FA7
08120:  BSF    FA6.1
08122:  BTFSC  FA6.1
08124:  BRA    8122
08126:  BCF    FA6.2
08128:  MOVF   00,W
0812A:  IORWF  FF2,F
....................             delay_ms(10);     
0812C:  MOVLW  0A
0812E:  MOVLB  9
08130:  MOVWF  x4C
08132:  MOVLB  0
08134:  CALL   1440
....................             write_eeprom(i+(((Pasos*4)*Opcion)-(Pasos*2)),0); 
08138:  MOVLB  6
0813A:  MOVF   x3F,W
0813C:  MULLW  40
0813E:  MOVF   FF3,W
08140:  ADDLW  E0
08142:  ADDWF  x3A,W
08144:  MOVLB  9
08146:  MOVWF  x36
08148:  CLRF   FAA
0814A:  MOVFF  936,FA9
0814E:  CLRF   FA8
08150:  BCF    FA6.6
08152:  BCF    FA6.7
08154:  BSF    FA6.2
08156:  MOVF   FF2,W
08158:  MOVWF  00
0815A:  BCF    FF2.7
0815C:  MOVLB  F
0815E:  MOVLW  55
08160:  MOVWF  FA7
08162:  MOVLW  AA
08164:  MOVWF  FA7
08166:  BSF    FA6.1
08168:  BTFSC  FA6.1
0816A:  BRA    8168
0816C:  BCF    FA6.2
0816E:  MOVF   00,W
08170:  IORWF  FF2,F
....................             delay_ms(10);     
08172:  MOVLW  0A
08174:  MOVLB  9
08176:  MOVWF  x4C
08178:  MOVLB  0
0817A:  CALL   1440
....................             write_eeprom(i+(((Pasos*4)*Opcion)-Pasos),0); 
0817E:  MOVLB  6
08180:  MOVF   x3F,W
08182:  MULLW  40
08184:  MOVF   FF3,W
08186:  ADDLW  F0
08188:  ADDWF  x3A,W
0818A:  MOVLB  9
0818C:  MOVWF  x36
0818E:  CLRF   FAA
08190:  MOVFF  936,FA9
08194:  CLRF   FA8
08196:  BCF    FA6.6
08198:  BCF    FA6.7
0819A:  BSF    FA6.2
0819C:  MOVF   FF2,W
0819E:  MOVWF  00
081A0:  BCF    FF2.7
081A2:  MOVLB  F
081A4:  MOVLW  55
081A6:  MOVWF  FA7
081A8:  MOVLW  AA
081AA:  MOVWF  FA7
081AC:  BSF    FA6.1
081AE:  BTFSC  FA6.1
081B0:  BRA    81AE
081B2:  BCF    FA6.2
081B4:  MOVF   00,W
081B6:  IORWF  FF2,F
....................          }  
081B8:  MOVLB  6
081BA:  INCF   x3A,F
081BC:  BRA    8086
....................           
....................          delay_ms(200);Buzz_off;Menu=1;glcd_fillscreen(OFF);Opcion=1;visual=1; 
081BE:  MOVLW  C8
081C0:  MOVLB  9
081C2:  MOVWF  x4C
081C4:  MOVLB  0
081C6:  CALL   1440
081CA:  BCF    F8B.5
081CC:  BCF    F94.5
081CE:  MOVLW  01
081D0:  MOVLB  6
081D2:  MOVWF  x38
081D4:  MOVLB  9
081D6:  CLRF   x3D
081D8:  MOVLB  0
081DA:  CALL   14C0
081DE:  MOVLW  01
081E0:  MOVLB  6
081E2:  MOVWF  x3F
081E4:  BSF    x22.7
....................          glcd_fillScreen(OFF); 
081E6:  MOVLB  9
081E8:  CLRF   x3D
081EA:  MOVLB  0
081EC:  CALL   14C0
....................          strcpy(Menus.Letra,"Programa"); 
081F0:  MOVLW  09
081F2:  MOVWF  FEA
081F4:  MOVLW  0D
081F6:  MOVWF  FE9
081F8:  MOVFF  FF2,936
081FC:  BCF    FF2.7
081FE:  MOVLW  00
08200:  CALL   0BF0
08204:  TBLRD*-
08206:  TBLRD*+
08208:  MOVF   FF5,W
0820A:  MOVWF  FEE
0820C:  IORLW  00
0820E:  BNZ   8206
08210:  MOVLB  9
08212:  BTFSC  x36.7
08214:  BSF    FF2.7
....................          displayMenu(Menus.Letra,15,0,0,2); 
08216:  MOVLW  09
08218:  MOVWF  x3E
0821A:  MOVLW  0D
0821C:  MOVWF  x3D
0821E:  MOVLW  0F
08220:  MOVWF  x3F
08222:  CLRF   x40
08224:  CLRF   x41
08226:  MOVLW  02
08228:  MOVWF  x42
0822A:  MOVLB  0
0822C:  CALL   1AEE
....................          strcpy(Menus.Letra,"Eliminado"); 
08230:  MOVLW  09
08232:  MOVWF  FEA
08234:  MOVLW  0D
08236:  MOVWF  FE9
08238:  MOVFF  FF2,936
0823C:  BCF    FF2.7
0823E:  MOVLW  00
08240:  CALL   0C18
08244:  TBLRD*-
08246:  TBLRD*+
08248:  MOVF   FF5,W
0824A:  MOVWF  FEE
0824C:  IORLW  00
0824E:  BNZ   8246
08250:  MOVLB  9
08252:  BTFSC  x36.7
08254:  BSF    FF2.7
....................          displayMenu(Menus.Letra,15,30,0,2); 
08256:  MOVLW  09
08258:  MOVWF  x3E
0825A:  MOVLW  0D
0825C:  MOVWF  x3D
0825E:  MOVLW  0F
08260:  MOVWF  x3F
08262:  MOVLW  1E
08264:  MOVWF  x40
08266:  CLRF   x41
08268:  MOVLW  02
0826A:  MOVWF  x42
0826C:  MOVLB  0
0826E:  CALL   1AEE
....................          Menu=1;glcd_update();delay_ms(1000); 
08272:  MOVLW  01
08274:  MOVLB  6
08276:  MOVWF  x38
08278:  MOVLB  0
0827A:  CALL   151A
0827E:  MOVLW  04
08280:  MOVLB  9
08282:  MOVWF  x36
08284:  MOVLW  FA
08286:  MOVWF  x4C
08288:  MOVLB  0
0828A:  CALL   1440
0828E:  MOVLB  9
08290:  DECFSZ x36,F
08292:  BRA    8284
....................          glcd_fillScreen(OFF);unidad=1; 
08294:  CLRF   x3D
08296:  MOVLB  0
08298:  CALL   14C0
0829C:  MOVLW  01
0829E:  MOVLB  6
082A0:  MOVWF  x39
....................       }  
....................                    
....................       if(LEFT)//Si oprime boton de Toma. 
082A2:  BSF    F96.2
082A4:  BTFSC  F84.2
082A6:  BRA    82E2
....................       { 
....................          Buzz_on;Opcion=1;Buzz_off;delay_ms(500);Menu=1;glcd_fillscreen(OFF);Opcion=1;visual=1; 
082A8:  BSF    F8B.5
082AA:  BCF    F94.5
082AC:  MOVLW  01
082AE:  MOVWF  x3F
082B0:  BCF    F8B.5
082B2:  BCF    F94.5
082B4:  MOVLW  02
082B6:  MOVLB  9
082B8:  MOVWF  x36
082BA:  MOVLW  FA
082BC:  MOVWF  x4C
082BE:  MOVLB  0
082C0:  CALL   1440
082C4:  MOVLB  9
082C6:  DECFSZ x36,F
082C8:  BRA    82BA
082CA:  MOVLW  01
082CC:  MOVLB  6
082CE:  MOVWF  x38
082D0:  MOVLB  9
082D2:  CLRF   x3D
082D4:  MOVLB  0
082D6:  CALL   14C0
082DA:  MOVLW  01
082DC:  MOVLB  6
082DE:  MOVWF  x3F
082E0:  BSF    x22.7
....................       }  
....................     } 
.................... //_--------------------------------------------------------------------------------------------------------------------------------------------------------        
....................  
.................... //_--------------------------------------------------------------------------------------------------------------------------------------------------------       
....................       if(Menu==8){ // Menu de Cambio de Contrasea 
082E2:  MOVF   x38,W
082E4:  SUBLW  08
082E6:  BTFSS  FD8.2
082E8:  BRA    87C6
....................          
....................       strcpy(Menus.Letra,"Clave"); 
082EA:  MOVLW  09
082EC:  MOVWF  FEA
082EE:  MOVLW  0D
082F0:  MOVWF  FE9
082F2:  MOVFF  FF2,936
082F6:  BCF    FF2.7
082F8:  MOVLW  00
082FA:  MOVLB  0
082FC:  CALL   07D8
08300:  TBLRD*-
08302:  TBLRD*+
08304:  MOVF   FF5,W
08306:  MOVWF  FEE
08308:  IORLW  00
0830A:  BNZ   8302
0830C:  MOVLB  9
0830E:  BTFSC  x36.7
08310:  BSF    FF2.7
....................       displayMenu(Menus.Letra,30,0,1,2);      
08312:  MOVLW  09
08314:  MOVWF  x3E
08316:  MOVLW  0D
08318:  MOVWF  x3D
0831A:  MOVLW  1E
0831C:  MOVWF  x3F
0831E:  CLRF   x40
08320:  MOVLW  01
08322:  MOVWF  x41
08324:  MOVLW  02
08326:  MOVWF  x42
08328:  MOVLB  0
0832A:  CALL   1AEE
....................        
....................       if(unidad==1) 
0832E:  MOVLB  6
08330:  DECFSZ x39,W
08332:  BRA    8392
....................       { 
....................          displayContrasena(Contrasena[0],20,30,1); 
08334:  MOVFF  68F,93F
08338:  MOVLW  14
0833A:  MOVLB  9
0833C:  MOVWF  x40
0833E:  MOVLW  1E
08340:  MOVWF  x41
08342:  MOVLW  01
08344:  MOVWF  x42
08346:  MOVLB  0
08348:  CALL   1D40
....................          displayContrasena(Contrasena[1],40,30,0); 
0834C:  MOVFF  690,93F
08350:  MOVLW  28
08352:  MOVLB  9
08354:  MOVWF  x40
08356:  MOVLW  1E
08358:  MOVWF  x41
0835A:  CLRF   x42
0835C:  MOVLB  0
0835E:  CALL   1D40
....................          displayContrasena(Contrasena[2],60,30,0); 
08362:  MOVFF  691,93F
08366:  MOVLW  3C
08368:  MOVLB  9
0836A:  MOVWF  x40
0836C:  MOVLW  1E
0836E:  MOVWF  x41
08370:  CLRF   x42
08372:  MOVLB  0
08374:  CALL   1D40
....................          displayContrasena(Contrasena[3],80,30,0); 
08378:  MOVFF  692,93F
0837C:  MOVLW  50
0837E:  MOVLB  9
08380:  MOVWF  x40
08382:  MOVLW  1E
08384:  MOVWF  x41
08386:  CLRF   x42
08388:  MOVLB  0
0838A:  CALL   1D40
....................       } 
....................       else 
0838E:  BRA    84BA
08390:  MOVLB  6
....................       { 
....................          if(unidad==2) 
08392:  MOVF   x39,W
08394:  SUBLW  02
08396:  BNZ   83F6
....................          { 
....................             displayContrasena(Contrasena[0],20,30,0); 
08398:  MOVFF  68F,93F
0839C:  MOVLW  14
0839E:  MOVLB  9
083A0:  MOVWF  x40
083A2:  MOVLW  1E
083A4:  MOVWF  x41
083A6:  CLRF   x42
083A8:  MOVLB  0
083AA:  CALL   1D40
....................             displayContrasena(Contrasena[1],40,30,1); 
083AE:  MOVFF  690,93F
083B2:  MOVLW  28
083B4:  MOVLB  9
083B6:  MOVWF  x40
083B8:  MOVLW  1E
083BA:  MOVWF  x41
083BC:  MOVLW  01
083BE:  MOVWF  x42
083C0:  MOVLB  0
083C2:  CALL   1D40
....................             displayContrasena(Contrasena[2],60,30,0); 
083C6:  MOVFF  691,93F
083CA:  MOVLW  3C
083CC:  MOVLB  9
083CE:  MOVWF  x40
083D0:  MOVLW  1E
083D2:  MOVWF  x41
083D4:  CLRF   x42
083D6:  MOVLB  0
083D8:  CALL   1D40
....................             displayContrasena(Contrasena[3],80,30,0); 
083DC:  MOVFF  692,93F
083E0:  MOVLW  50
083E2:  MOVLB  9
083E4:  MOVWF  x40
083E6:  MOVLW  1E
083E8:  MOVWF  x41
083EA:  CLRF   x42
083EC:  MOVLB  0
083EE:  CALL   1D40
....................          } 
....................          else 
083F2:  BRA    84BA
083F4:  MOVLB  6
....................          { 
....................             if(unidad==3) 
083F6:  MOVF   x39,W
083F8:  SUBLW  03
083FA:  BNZ   845A
....................             { 
....................                displayContrasena(Contrasena[0],20,30,0); 
083FC:  MOVFF  68F,93F
08400:  MOVLW  14
08402:  MOVLB  9
08404:  MOVWF  x40
08406:  MOVLW  1E
08408:  MOVWF  x41
0840A:  CLRF   x42
0840C:  MOVLB  0
0840E:  CALL   1D40
....................                displayContrasena(Contrasena[1],40,30,0); 
08412:  MOVFF  690,93F
08416:  MOVLW  28
08418:  MOVLB  9
0841A:  MOVWF  x40
0841C:  MOVLW  1E
0841E:  MOVWF  x41
08420:  CLRF   x42
08422:  MOVLB  0
08424:  CALL   1D40
....................                displayContrasena(Contrasena[2],60,30,1); 
08428:  MOVFF  691,93F
0842C:  MOVLW  3C
0842E:  MOVLB  9
08430:  MOVWF  x40
08432:  MOVLW  1E
08434:  MOVWF  x41
08436:  MOVLW  01
08438:  MOVWF  x42
0843A:  MOVLB  0
0843C:  CALL   1D40
....................                displayContrasena(Contrasena[3],80,30,0); 
08440:  MOVFF  692,93F
08444:  MOVLW  50
08446:  MOVLB  9
08448:  MOVWF  x40
0844A:  MOVLW  1E
0844C:  MOVWF  x41
0844E:  CLRF   x42
08450:  MOVLB  0
08452:  CALL   1D40
....................             } 
....................             else 
08456:  BRA    84BA
08458:  MOVLB  6
....................             { 
....................                if(unidad==4) 
0845A:  MOVF   x39,W
0845C:  SUBLW  04
0845E:  BNZ   84BC
....................                { 
....................                   displayContrasena(Contrasena[0],20,30,0); 
08460:  MOVFF  68F,93F
08464:  MOVLW  14
08466:  MOVLB  9
08468:  MOVWF  x40
0846A:  MOVLW  1E
0846C:  MOVWF  x41
0846E:  CLRF   x42
08470:  MOVLB  0
08472:  CALL   1D40
....................                   displayContrasena(Contrasena[1],40,30,0); 
08476:  MOVFF  690,93F
0847A:  MOVLW  28
0847C:  MOVLB  9
0847E:  MOVWF  x40
08480:  MOVLW  1E
08482:  MOVWF  x41
08484:  CLRF   x42
08486:  MOVLB  0
08488:  CALL   1D40
....................                   displayContrasena(Contrasena[2],60,30,0); 
0848C:  MOVFF  691,93F
08490:  MOVLW  3C
08492:  MOVLB  9
08494:  MOVWF  x40
08496:  MOVLW  1E
08498:  MOVWF  x41
0849A:  CLRF   x42
0849C:  MOVLB  0
0849E:  CALL   1D40
....................                   displayContrasena(Contrasena[3],80,30,1); 
084A2:  MOVFF  692,93F
084A6:  MOVLW  50
084A8:  MOVLB  9
084AA:  MOVWF  x40
084AC:  MOVLW  1E
084AE:  MOVWF  x41
084B0:  MOVLW  01
084B2:  MOVWF  x42
084B4:  MOVLB  0
084B6:  CALL   1D40
084BA:  MOVLB  6
....................                } 
....................             } 
....................          } 
....................       } 
....................        
....................       if(UP)//Si oprime hacia arriba 
084BC:  BSF    F92.5
084BE:  BTFSC  F80.5
084C0:  BRA    8536
....................       { 
....................          Buzz_on;delay_ms(10);Buzz_off; 
084C2:  BSF    F8B.5
084C4:  BCF    F94.5
084C6:  MOVLW  0A
084C8:  MOVLB  9
084CA:  MOVWF  x4C
084CC:  MOVLB  0
084CE:  CALL   1440
084D2:  BCF    F8B.5
084D4:  BCF    F94.5
....................          delay_ms(30); 
084D6:  MOVLW  1E
084D8:  MOVLB  9
084DA:  MOVWF  x4C
084DC:  MOVLB  0
084DE:  CALL   1440
....................          for(i=1;i<=4;i++) 
084E2:  MOVLW  01
084E4:  MOVLB  6
084E6:  MOVWF  x3A
084E8:  MOVF   x3A,W
084EA:  SUBLW  04
084EC:  BNC   8536
....................          { 
....................             if(unidad==i) 
084EE:  MOVF   x3A,W
084F0:  SUBWF  x39,W
084F2:  BNZ   8532
....................             { 
....................                Contrasena[i-1]++; 
084F4:  MOVLW  01
084F6:  SUBWF  x3A,W
084F8:  CLRF   03
084FA:  ADDLW  8F
084FC:  MOVWF  FE9
084FE:  MOVLW  06
08500:  ADDWFC 03,W
08502:  MOVWF  FEA
08504:  INCF   FEF,F
....................                if(Contrasena[i-1]>9)    
08506:  MOVLW  01
08508:  SUBWF  x3A,W
0850A:  CLRF   03
0850C:  ADDLW  8F
0850E:  MOVWF  FE9
08510:  MOVLW  06
08512:  ADDWFC 03,W
08514:  MOVWF  FEA
08516:  BTFSC  FEF.7
08518:  BRA    8532
0851A:  MOVF   FEF,W
0851C:  SUBLW  09
0851E:  BC    8532
....................                { 
....................                   Contrasena[i-1]=0; 
08520:  MOVLW  01
08522:  SUBWF  x3A,W
08524:  CLRF   03
08526:  ADDLW  8F
08528:  MOVWF  FE9
0852A:  MOVLW  06
0852C:  ADDWFC 03,W
0852E:  MOVWF  FEA
08530:  CLRF   FEF
....................                } 
....................             } 
....................          } 
08532:  INCF   x3A,F
08534:  BRA    84E8
....................       } 
....................              
....................       if(DOWN)//Si oprime hacia abajo 
08536:  BSF    F96.0
08538:  BTFSC  F84.0
0853A:  BRA    85AE
....................       { 
....................          Buzz_on;delay_ms(10);Buzz_off; 
0853C:  BSF    F8B.5
0853E:  BCF    F94.5
08540:  MOVLW  0A
08542:  MOVLB  9
08544:  MOVWF  x4C
08546:  MOVLB  0
08548:  CALL   1440
0854C:  BCF    F8B.5
0854E:  BCF    F94.5
....................          delay_ms(30); 
08550:  MOVLW  1E
08552:  MOVLB  9
08554:  MOVWF  x4C
08556:  MOVLB  0
08558:  CALL   1440
....................          for(i=1;i<=4;i++) 
0855C:  MOVLW  01
0855E:  MOVLB  6
08560:  MOVWF  x3A
08562:  MOVF   x3A,W
08564:  SUBLW  04
08566:  BNC   85AE
....................          { 
....................             if(unidad==i) 
08568:  MOVF   x3A,W
0856A:  SUBWF  x39,W
0856C:  BNZ   85AA
....................             {Contrasena[i-1]--;  
0856E:  MOVLW  01
08570:  SUBWF  x3A,W
08572:  CLRF   03
08574:  ADDLW  8F
08576:  MOVWF  FE9
08578:  MOVLW  06
0857A:  ADDWFC 03,W
0857C:  MOVWF  FEA
0857E:  DECF   FEF,F
....................             if(Contrasena[i-1]<0) 
08580:  MOVLW  01
08582:  SUBWF  x3A,W
08584:  CLRF   03
08586:  ADDLW  8F
08588:  MOVWF  FE9
0858A:  MOVLW  06
0858C:  ADDWFC 03,W
0858E:  MOVWF  FEA
08590:  BTFSC  FEF.7
08592:  BRA    8596
08594:  BRA    85AA
....................             {Contrasena[i-1]=9;} 
08596:  MOVLW  01
08598:  SUBWF  x3A,W
0859A:  CLRF   03
0859C:  ADDLW  8F
0859E:  MOVWF  FE9
085A0:  MOVLW  06
085A2:  ADDWFC 03,W
085A4:  MOVWF  FEA
085A6:  MOVLW  09
085A8:  MOVWF  FEF
....................             } 
....................          }   
085AA:  INCF   x3A,F
085AC:  BRA    8562
....................       } 
....................              
....................       if(RIGHT)//Si oprime RIGHT 
085AE:  BSF    F96.1
085B0:  BTFSC  F84.1
085B2:  BRA    85D8
....................       { 
....................          Buzz_on;delay_ms(10);Buzz_off;delay_ms(30);unidad++; 
085B4:  BSF    F8B.5
085B6:  BCF    F94.5
085B8:  MOVLW  0A
085BA:  MOVLB  9
085BC:  MOVWF  x4C
085BE:  MOVLB  0
085C0:  CALL   1440
085C4:  BCF    F8B.5
085C6:  BCF    F94.5
085C8:  MOVLW  1E
085CA:  MOVLB  9
085CC:  MOVWF  x4C
085CE:  MOVLB  0
085D0:  CALL   1440
085D4:  MOVLB  6
085D6:  INCF   x39,F
....................       } 
....................        
....................       if(LEFT)//Si oprime Izquierda 
085D8:  BSF    F96.2
085DA:  BTFSC  F84.2
085DC:  BRA    861A
....................       { 
....................          Buzz_on;delay_ms(10);Buzz_off;delay_ms(700);Menu=1;glcd_fillscreen(OFF); 
085DE:  BSF    F8B.5
085E0:  BCF    F94.5
085E2:  MOVLW  0A
085E4:  MOVLB  9
085E6:  MOVWF  x4C
085E8:  MOVLB  0
085EA:  CALL   1440
085EE:  BCF    F8B.5
085F0:  BCF    F94.5
085F2:  MOVLW  04
085F4:  MOVLB  9
085F6:  MOVWF  x36
085F8:  MOVLW  AF
085FA:  MOVWF  x4C
085FC:  MOVLB  0
085FE:  CALL   1440
08602:  MOVLB  9
08604:  DECFSZ x36,F
08606:  BRA    85F8
08608:  MOVLW  01
0860A:  MOVLB  6
0860C:  MOVWF  x38
0860E:  MOVLB  9
08610:  CLRF   x3D
08612:  MOVLB  0
08614:  CALL   14C0
08618:  MOVLB  6
....................       } 
....................        
....................       if(unidad>4) 
0861A:  MOVF   x39,W
0861C:  SUBLW  04
0861E:  BTFSC  FD8.0
08620:  BRA    87C6
....................       {glcd_fillScreen(OFF); 
08622:  MOVLB  9
08624:  CLRF   x3D
08626:  MOVLB  0
08628:  CALL   14C0
....................           
....................          if((Contrasena[0]==Password[0])&&(Contrasena[1]==Password[1])&&(Contrasena[2]==Password[2])&&(Contrasena[3]==Password[3])) 
0862C:  MOVLB  6
0862E:  MOVF   x93,W
08630:  SUBWF  x8F,W
08632:  BNZ   8704
08634:  MOVF   x94,W
08636:  SUBWF  x90,W
08638:  BNZ   8704
0863A:  MOVF   x95,W
0863C:  SUBWF  x91,W
0863E:  BNZ   8704
08640:  MOVF   x96,W
08642:  SUBWF  x92,W
08644:  BNZ   8704
....................          { 
....................             glcd_fillScreen(OFF); 
08646:  MOVLB  9
08648:  CLRF   x3D
0864A:  MOVLB  0
0864C:  CALL   14C0
....................             strcpy(Menus.Letra,"Clave"); 
08650:  MOVLW  09
08652:  MOVWF  FEA
08654:  MOVLW  0D
08656:  MOVWF  FE9
08658:  MOVFF  FF2,936
0865C:  BCF    FF2.7
0865E:  MOVLW  00
08660:  CALL   07D8
08664:  TBLRD*-
08666:  TBLRD*+
08668:  MOVF   FF5,W
0866A:  MOVWF  FEE
0866C:  IORLW  00
0866E:  BNZ   8666
08670:  MOVLB  9
08672:  BTFSC  x36.7
08674:  BSF    FF2.7
....................             displayMenu(Menus.Letra,30,0,0,2); 
08676:  MOVLW  09
08678:  MOVWF  x3E
0867A:  MOVLW  0D
0867C:  MOVWF  x3D
0867E:  MOVLW  1E
08680:  MOVWF  x3F
08682:  CLRF   x40
08684:  CLRF   x41
08686:  MOVLW  02
08688:  MOVWF  x42
0868A:  MOVLB  0
0868C:  CALL   1AEE
....................             strcpy(Menus.Letra,"Correcta"); 
08690:  MOVLW  09
08692:  MOVWF  FEA
08694:  MOVLW  0D
08696:  MOVWF  FE9
08698:  MOVFF  FF2,936
0869C:  BCF    FF2.7
0869E:  MOVLW  00
086A0:  CALL   07FC
086A4:  TBLRD*-
086A6:  TBLRD*+
086A8:  MOVF   FF5,W
086AA:  MOVWF  FEE
086AC:  IORLW  00
086AE:  BNZ   86A6
086B0:  MOVLB  9
086B2:  BTFSC  x36.7
086B4:  BSF    FF2.7
....................             displayMenu(Menus.Letra,15,30,0,2); 
086B6:  MOVLW  09
086B8:  MOVWF  x3E
086BA:  MOVLW  0D
086BC:  MOVWF  x3D
086BE:  MOVLW  0F
086C0:  MOVWF  x3F
086C2:  MOVLW  1E
086C4:  MOVWF  x40
086C6:  CLRF   x41
086C8:  MOVLW  02
086CA:  MOVWF  x42
086CC:  MOVLB  0
086CE:  CALL   1AEE
....................             Menu=91;glcd_update();delay_ms(1000); 
086D2:  MOVLW  5B
086D4:  MOVLB  6
086D6:  MOVWF  x38
086D8:  MOVLB  0
086DA:  CALL   151A
086DE:  MOVLW  04
086E0:  MOVLB  9
086E2:  MOVWF  x36
086E4:  MOVLW  FA
086E6:  MOVWF  x4C
086E8:  MOVLB  0
086EA:  CALL   1440
086EE:  MOVLB  9
086F0:  DECFSZ x36,F
086F2:  BRA    86E4
....................             glcd_fillScreen(OFF);unidad=1; 
086F4:  CLRF   x3D
086F6:  MOVLB  0
086F8:  CALL   14C0
086FC:  MOVLW  01
086FE:  MOVLB  6
08700:  MOVWF  x39
....................          }// Esta parte se puede agregar en el Menu 1 dependiendo de la ubicacin del vidrio. 
....................          else 
08702:  BRA    87C6
....................          { 
....................             glcd_fillScreen(OFF); 
08704:  MOVLB  9
08706:  CLRF   x3D
08708:  MOVLB  0
0870A:  CALL   14C0
....................             strcpy(Menus.Letra,"Clave"); 
0870E:  MOVLW  09
08710:  MOVWF  FEA
08712:  MOVLW  0D
08714:  MOVWF  FE9
08716:  MOVFF  FF2,936
0871A:  BCF    FF2.7
0871C:  MOVLW  00
0871E:  CALL   07D8
08722:  TBLRD*-
08724:  TBLRD*+
08726:  MOVF   FF5,W
08728:  MOVWF  FEE
0872A:  IORLW  00
0872C:  BNZ   8724
0872E:  MOVLB  9
08730:  BTFSC  x36.7
08732:  BSF    FF2.7
....................             displayMenu(Menus.Letra,30,0,0,2); 
08734:  MOVLW  09
08736:  MOVWF  x3E
08738:  MOVLW  0D
0873A:  MOVWF  x3D
0873C:  MOVLW  1E
0873E:  MOVWF  x3F
08740:  CLRF   x40
08742:  CLRF   x41
08744:  MOVLW  02
08746:  MOVWF  x42
08748:  MOVLB  0
0874A:  CALL   1AEE
....................             strcpy(Menus.Letra,"Incorrecta"); 
0874E:  MOVLW  09
08750:  MOVWF  FEA
08752:  MOVLW  0D
08754:  MOVWF  FE9
08756:  MOVFF  FF2,936
0875A:  BCF    FF2.7
0875C:  MOVLW  00
0875E:  CALL   0824
08762:  TBLRD*-
08764:  TBLRD*+
08766:  MOVF   FF5,W
08768:  MOVWF  FEE
0876A:  IORLW  00
0876C:  BNZ   8764
0876E:  MOVLB  9
08770:  BTFSC  x36.7
08772:  BSF    FF2.7
....................             displayMenu(Menus.Letra,0,30,0,2); 
08774:  MOVLW  09
08776:  MOVWF  x3E
08778:  MOVLW  0D
0877A:  MOVWF  x3D
0877C:  CLRF   x3F
0877E:  MOVLW  1E
08780:  MOVWF  x40
08782:  CLRF   x41
08784:  MOVLW  02
08786:  MOVWF  x42
08788:  MOVLB  0
0878A:  CALL   1AEE
....................             Menu=1;glcd_update();delay_ms(1000); 
0878E:  MOVLW  01
08790:  MOVLB  6
08792:  MOVWF  x38
08794:  MOVLB  0
08796:  CALL   151A
0879A:  MOVLW  04
0879C:  MOVLB  9
0879E:  MOVWF  x36
087A0:  MOVLW  FA
087A2:  MOVWF  x4C
087A4:  MOVLB  0
087A6:  CALL   1440
087AA:  MOVLB  9
087AC:  DECFSZ x36,F
087AE:  BRA    87A0
....................             glcd_fillScreen(OFF);unidad=1; 
087B0:  CLRF   x3D
087B2:  MOVLB  0
087B4:  CALL   14C0
087B8:  MOVLW  01
087BA:  MOVLB  6
087BC:  MOVWF  x39
....................             Contrasena[0]=0;Contrasena[1]=0;Contrasena[2]=0;Contrasena[3]=0; 
087BE:  CLRF   x8F
087C0:  CLRF   x90
087C2:  CLRF   x91
087C4:  CLRF   x92
....................          } 
....................       } 
....................     }     
.................... //_--------------------------------------------------------------------------------------------------------------------------------------------------------     
....................  
.................... //_--------------------------------------------------------------------------------------------------------------------------------------------------------       
....................       if(Menu==91){ // Menu de Cambio de Contrasea 
087C6:  MOVF   x38,W
087C8:  SUBLW  5B
087CA:  BTFSS  FD8.2
087CC:  BRA    8C08
....................          
....................       strcpy(Menus.Letra,"Clave Nueva"); 
087CE:  MOVLW  09
087D0:  MOVWF  FEA
087D2:  MOVLW  0D
087D4:  MOVWF  FE9
087D6:  MOVFF  FF2,936
087DA:  BCF    FF2.7
087DC:  MOVLW  00
087DE:  MOVLB  0
087E0:  CALL   0C40
087E4:  TBLRD*-
087E6:  TBLRD*+
087E8:  MOVF   FF5,W
087EA:  MOVWF  FEE
087EC:  IORLW  00
087EE:  BNZ   87E6
087F0:  MOVLB  9
087F2:  BTFSC  x36.7
087F4:  BSF    FF2.7
....................       displayMenu(Menus.Letra,0,0,1,2);      
087F6:  MOVLW  09
087F8:  MOVWF  x3E
087FA:  MOVLW  0D
087FC:  MOVWF  x3D
087FE:  CLRF   x3F
08800:  CLRF   x40
08802:  MOVLW  01
08804:  MOVWF  x41
08806:  MOVLW  02
08808:  MOVWF  x42
0880A:  MOVLB  0
0880C:  CALL   1AEE
....................        
....................       if(unidad==1) 
08810:  MOVLB  6
08812:  DECFSZ x39,W
08814:  BRA    8874
....................       { 
....................          displayContrasena(Password[0],20,30,1); 
08816:  MOVFF  693,93F
0881A:  MOVLW  14
0881C:  MOVLB  9
0881E:  MOVWF  x40
08820:  MOVLW  1E
08822:  MOVWF  x41
08824:  MOVLW  01
08826:  MOVWF  x42
08828:  MOVLB  0
0882A:  CALL   1D40
....................          displayContrasena(Password[1],40,30,0); 
0882E:  MOVFF  694,93F
08832:  MOVLW  28
08834:  MOVLB  9
08836:  MOVWF  x40
08838:  MOVLW  1E
0883A:  MOVWF  x41
0883C:  CLRF   x42
0883E:  MOVLB  0
08840:  CALL   1D40
....................          displayContrasena(Password[2],60,30,0); 
08844:  MOVFF  695,93F
08848:  MOVLW  3C
0884A:  MOVLB  9
0884C:  MOVWF  x40
0884E:  MOVLW  1E
08850:  MOVWF  x41
08852:  CLRF   x42
08854:  MOVLB  0
08856:  CALL   1D40
....................          displayContrasena(Password[3],80,30,0); 
0885A:  MOVFF  696,93F
0885E:  MOVLW  50
08860:  MOVLB  9
08862:  MOVWF  x40
08864:  MOVLW  1E
08866:  MOVWF  x41
08868:  CLRF   x42
0886A:  MOVLB  0
0886C:  CALL   1D40
....................       } 
....................       else 
08870:  BRA    899C
08872:  MOVLB  6
....................       { 
....................          if(unidad==2) 
08874:  MOVF   x39,W
08876:  SUBLW  02
08878:  BNZ   88D8
....................          { 
....................             displayContrasena(Password[0],20,30,0); 
0887A:  MOVFF  693,93F
0887E:  MOVLW  14
08880:  MOVLB  9
08882:  MOVWF  x40
08884:  MOVLW  1E
08886:  MOVWF  x41
08888:  CLRF   x42
0888A:  MOVLB  0
0888C:  CALL   1D40
....................             displayContrasena(Password[1],40,30,1); 
08890:  MOVFF  694,93F
08894:  MOVLW  28
08896:  MOVLB  9
08898:  MOVWF  x40
0889A:  MOVLW  1E
0889C:  MOVWF  x41
0889E:  MOVLW  01
088A0:  MOVWF  x42
088A2:  MOVLB  0
088A4:  CALL   1D40
....................             displayContrasena(Password[2],60,30,0); 
088A8:  MOVFF  695,93F
088AC:  MOVLW  3C
088AE:  MOVLB  9
088B0:  MOVWF  x40
088B2:  MOVLW  1E
088B4:  MOVWF  x41
088B6:  CLRF   x42
088B8:  MOVLB  0
088BA:  CALL   1D40
....................             displayContrasena(Password[3],80,30,0); 
088BE:  MOVFF  696,93F
088C2:  MOVLW  50
088C4:  MOVLB  9
088C6:  MOVWF  x40
088C8:  MOVLW  1E
088CA:  MOVWF  x41
088CC:  CLRF   x42
088CE:  MOVLB  0
088D0:  CALL   1D40
....................          } 
....................          else 
088D4:  BRA    899C
088D6:  MOVLB  6
....................          { 
....................             if(unidad==3) 
088D8:  MOVF   x39,W
088DA:  SUBLW  03
088DC:  BNZ   893C
....................             { 
....................                displayContrasena(Password[0],20,30,0); 
088DE:  MOVFF  693,93F
088E2:  MOVLW  14
088E4:  MOVLB  9
088E6:  MOVWF  x40
088E8:  MOVLW  1E
088EA:  MOVWF  x41
088EC:  CLRF   x42
088EE:  MOVLB  0
088F0:  CALL   1D40
....................                displayContrasena(Password[1],40,30,0); 
088F4:  MOVFF  694,93F
088F8:  MOVLW  28
088FA:  MOVLB  9
088FC:  MOVWF  x40
088FE:  MOVLW  1E
08900:  MOVWF  x41
08902:  CLRF   x42
08904:  MOVLB  0
08906:  CALL   1D40
....................                displayContrasena(Password[2],60,30,1); 
0890A:  MOVFF  695,93F
0890E:  MOVLW  3C
08910:  MOVLB  9
08912:  MOVWF  x40
08914:  MOVLW  1E
08916:  MOVWF  x41
08918:  MOVLW  01
0891A:  MOVWF  x42
0891C:  MOVLB  0
0891E:  CALL   1D40
....................                displayContrasena(Password[3],80,30,0); 
08922:  MOVFF  696,93F
08926:  MOVLW  50
08928:  MOVLB  9
0892A:  MOVWF  x40
0892C:  MOVLW  1E
0892E:  MOVWF  x41
08930:  CLRF   x42
08932:  MOVLB  0
08934:  CALL   1D40
....................             } 
....................             else 
08938:  BRA    899C
0893A:  MOVLB  6
....................             { 
....................                if(unidad==4) 
0893C:  MOVF   x39,W
0893E:  SUBLW  04
08940:  BNZ   899E
....................                { 
....................                   displayContrasena(Password[0],20,30,0); 
08942:  MOVFF  693,93F
08946:  MOVLW  14
08948:  MOVLB  9
0894A:  MOVWF  x40
0894C:  MOVLW  1E
0894E:  MOVWF  x41
08950:  CLRF   x42
08952:  MOVLB  0
08954:  CALL   1D40
....................                   displayContrasena(Password[1],40,30,0); 
08958:  MOVFF  694,93F
0895C:  MOVLW  28
0895E:  MOVLB  9
08960:  MOVWF  x40
08962:  MOVLW  1E
08964:  MOVWF  x41
08966:  CLRF   x42
08968:  MOVLB  0
0896A:  CALL   1D40
....................                   displayContrasena(Password[2],60,30,0); 
0896E:  MOVFF  695,93F
08972:  MOVLW  3C
08974:  MOVLB  9
08976:  MOVWF  x40
08978:  MOVLW  1E
0897A:  MOVWF  x41
0897C:  CLRF   x42
0897E:  MOVLB  0
08980:  CALL   1D40
....................                   displayContrasena(Password[3],80,30,1); 
08984:  MOVFF  696,93F
08988:  MOVLW  50
0898A:  MOVLB  9
0898C:  MOVWF  x40
0898E:  MOVLW  1E
08990:  MOVWF  x41
08992:  MOVLW  01
08994:  MOVWF  x42
08996:  MOVLB  0
08998:  CALL   1D40
0899C:  MOVLB  6
....................                } 
....................             } 
....................          } 
....................       } 
....................        
....................       if(UP)//Si oprime hacia arriba 
0899E:  BSF    F92.5
089A0:  BTFSC  F80.5
089A2:  BRA    8A18
....................       { 
....................          Buzz_on;delay_ms(10);Buzz_off; 
089A4:  BSF    F8B.5
089A6:  BCF    F94.5
089A8:  MOVLW  0A
089AA:  MOVLB  9
089AC:  MOVWF  x4C
089AE:  MOVLB  0
089B0:  CALL   1440
089B4:  BCF    F8B.5
089B6:  BCF    F94.5
....................          delay_ms(30); 
089B8:  MOVLW  1E
089BA:  MOVLB  9
089BC:  MOVWF  x4C
089BE:  MOVLB  0
089C0:  CALL   1440
....................          for(i=1;i<=4;i++) 
089C4:  MOVLW  01
089C6:  MOVLB  6
089C8:  MOVWF  x3A
089CA:  MOVF   x3A,W
089CC:  SUBLW  04
089CE:  BNC   8A18
....................          { 
....................             if(unidad==i) 
089D0:  MOVF   x3A,W
089D2:  SUBWF  x39,W
089D4:  BNZ   8A14
....................             { 
....................                Password[i-1]++; 
089D6:  MOVLW  01
089D8:  SUBWF  x3A,W
089DA:  CLRF   03
089DC:  ADDLW  93
089DE:  MOVWF  FE9
089E0:  MOVLW  06
089E2:  ADDWFC 03,W
089E4:  MOVWF  FEA
089E6:  INCF   FEF,F
....................                if(Password[i-1]>9)    
089E8:  MOVLW  01
089EA:  SUBWF  x3A,W
089EC:  CLRF   03
089EE:  ADDLW  93
089F0:  MOVWF  FE9
089F2:  MOVLW  06
089F4:  ADDWFC 03,W
089F6:  MOVWF  FEA
089F8:  BTFSC  FEF.7
089FA:  BRA    8A14
089FC:  MOVF   FEF,W
089FE:  SUBLW  09
08A00:  BC    8A14
....................                { 
....................                   Password[i-1]=0; 
08A02:  MOVLW  01
08A04:  SUBWF  x3A,W
08A06:  CLRF   03
08A08:  ADDLW  93
08A0A:  MOVWF  FE9
08A0C:  MOVLW  06
08A0E:  ADDWFC 03,W
08A10:  MOVWF  FEA
08A12:  CLRF   FEF
....................                } 
....................             } 
....................          } 
08A14:  INCF   x3A,F
08A16:  BRA    89CA
....................       } 
....................              
....................       if(DOWN)//Si oprime hacia abajo 
08A18:  BSF    F96.0
08A1A:  BTFSC  F84.0
08A1C:  BRA    8A90
....................       { 
....................          Buzz_on;delay_ms(10);Buzz_off; 
08A1E:  BSF    F8B.5
08A20:  BCF    F94.5
08A22:  MOVLW  0A
08A24:  MOVLB  9
08A26:  MOVWF  x4C
08A28:  MOVLB  0
08A2A:  CALL   1440
08A2E:  BCF    F8B.5
08A30:  BCF    F94.5
....................          delay_ms(30); 
08A32:  MOVLW  1E
08A34:  MOVLB  9
08A36:  MOVWF  x4C
08A38:  MOVLB  0
08A3A:  CALL   1440
....................          for(i=1;i<=4;i++) 
08A3E:  MOVLW  01
08A40:  MOVLB  6
08A42:  MOVWF  x3A
08A44:  MOVF   x3A,W
08A46:  SUBLW  04
08A48:  BNC   8A90
....................             { 
....................                if(unidad==i) 
08A4A:  MOVF   x3A,W
08A4C:  SUBWF  x39,W
08A4E:  BNZ   8A8C
....................                { 
....................                   Password[i-1]--; 
08A50:  MOVLW  01
08A52:  SUBWF  x3A,W
08A54:  CLRF   03
08A56:  ADDLW  93
08A58:  MOVWF  FE9
08A5A:  MOVLW  06
08A5C:  ADDWFC 03,W
08A5E:  MOVWF  FEA
08A60:  DECF   FEF,F
....................                   if(Password[i-1]<0) 
08A62:  MOVLW  01
08A64:  SUBWF  x3A,W
08A66:  CLRF   03
08A68:  ADDLW  93
08A6A:  MOVWF  FE9
08A6C:  MOVLW  06
08A6E:  ADDWFC 03,W
08A70:  MOVWF  FEA
08A72:  BTFSC  FEF.7
08A74:  BRA    8A78
08A76:  BRA    8A8C
....................                   { 
....................                      Password[i-1]=9; 
08A78:  MOVLW  01
08A7A:  SUBWF  x3A,W
08A7C:  CLRF   03
08A7E:  ADDLW  93
08A80:  MOVWF  FE9
08A82:  MOVLW  06
08A84:  ADDWFC 03,W
08A86:  MOVWF  FEA
08A88:  MOVLW  09
08A8A:  MOVWF  FEF
....................                   } 
....................                } 
....................             }        
08A8C:  INCF   x3A,F
08A8E:  BRA    8A44
....................       } 
....................              
....................       if(RIGHT)//Si oprime RIGHT 
08A90:  BSF    F96.1
08A92:  BTFSC  F84.1
08A94:  BRA    8ABA
....................       { 
....................          Buzz_on;delay_ms(10);Buzz_off;delay_ms(30);unidad++; 
08A96:  BSF    F8B.5
08A98:  BCF    F94.5
08A9A:  MOVLW  0A
08A9C:  MOVLB  9
08A9E:  MOVWF  x4C
08AA0:  MOVLB  0
08AA2:  CALL   1440
08AA6:  BCF    F8B.5
08AA8:  BCF    F94.5
08AAA:  MOVLW  1E
08AAC:  MOVLB  9
08AAE:  MOVWF  x4C
08AB0:  MOVLB  0
08AB2:  CALL   1440
08AB6:  MOVLB  6
08AB8:  INCF   x39,F
....................       } 
....................        
....................       if(LEFT)//Si oprime Izquierda 
08ABA:  BSF    F96.2
08ABC:  BTFSC  F84.2
08ABE:  BRA    8AFC
....................       { 
....................          Buzz_on;delay_ms(10);Buzz_off;delay_ms(700);Menu=1;glcd_fillscreen(OFF); 
08AC0:  BSF    F8B.5
08AC2:  BCF    F94.5
08AC4:  MOVLW  0A
08AC6:  MOVLB  9
08AC8:  MOVWF  x4C
08ACA:  MOVLB  0
08ACC:  CALL   1440
08AD0:  BCF    F8B.5
08AD2:  BCF    F94.5
08AD4:  MOVLW  04
08AD6:  MOVLB  9
08AD8:  MOVWF  x36
08ADA:  MOVLW  AF
08ADC:  MOVWF  x4C
08ADE:  MOVLB  0
08AE0:  CALL   1440
08AE4:  MOVLB  9
08AE6:  DECFSZ x36,F
08AE8:  BRA    8ADA
08AEA:  MOVLW  01
08AEC:  MOVLB  6
08AEE:  MOVWF  x38
08AF0:  MOVLB  9
08AF2:  CLRF   x3D
08AF4:  MOVLB  0
08AF6:  CALL   14C0
08AFA:  MOVLB  6
....................       } 
....................        
....................       if(unidad>4) 
08AFC:  MOVF   x39,W
08AFE:  SUBLW  04
08B00:  BTFSC  FD8.0
08B02:  BRA    8C08
....................       { 
....................          Opcion=1;unidad=1; 
08B04:  MOVLW  01
08B06:  MOVWF  x3F
08B08:  MOVWF  x39
....................          write_eeprom(460,Password[0]); 
08B0A:  MOVWF  FAA
08B0C:  MOVLW  CC
08B0E:  MOVWF  FA9
08B10:  MOVFF  693,FA8
08B14:  BCF    FA6.6
08B16:  BCF    FA6.7
08B18:  BSF    FA6.2
08B1A:  MOVF   FF2,W
08B1C:  MOVWF  00
08B1E:  BCF    FF2.7
08B20:  MOVLB  F
08B22:  MOVLW  55
08B24:  MOVWF  FA7
08B26:  MOVLW  AA
08B28:  MOVWF  FA7
08B2A:  BSF    FA6.1
08B2C:  BTFSC  FA6.1
08B2E:  BRA    8B2C
08B30:  BCF    FA6.2
08B32:  MOVF   00,W
08B34:  IORWF  FF2,F
....................          delay_ms(50);    
08B36:  MOVLW  32
08B38:  MOVLB  9
08B3A:  MOVWF  x4C
08B3C:  MOVLB  0
08B3E:  CALL   1440
....................          write_eeprom(461,Password[1]); 
08B42:  MOVLW  01
08B44:  MOVWF  FAA
08B46:  MOVLW  CD
08B48:  MOVWF  FA9
08B4A:  MOVFF  694,FA8
08B4E:  BCF    FA6.6
08B50:  BCF    FA6.7
08B52:  BSF    FA6.2
08B54:  MOVF   FF2,W
08B56:  MOVWF  00
08B58:  BCF    FF2.7
08B5A:  MOVLB  F
08B5C:  MOVLW  55
08B5E:  MOVWF  FA7
08B60:  MOVLW  AA
08B62:  MOVWF  FA7
08B64:  BSF    FA6.1
08B66:  BTFSC  FA6.1
08B68:  BRA    8B66
08B6A:  BCF    FA6.2
08B6C:  MOVF   00,W
08B6E:  IORWF  FF2,F
....................          delay_ms(50);    
08B70:  MOVLW  32
08B72:  MOVLB  9
08B74:  MOVWF  x4C
08B76:  MOVLB  0
08B78:  CALL   1440
....................          write_eeprom(462,Password[2]); 
08B7C:  MOVLW  01
08B7E:  MOVWF  FAA
08B80:  MOVLW  CE
08B82:  MOVWF  FA9
08B84:  MOVFF  695,FA8
08B88:  BCF    FA6.6
08B8A:  BCF    FA6.7
08B8C:  BSF    FA6.2
08B8E:  MOVF   FF2,W
08B90:  MOVWF  00
08B92:  BCF    FF2.7
08B94:  MOVLB  F
08B96:  MOVLW  55
08B98:  MOVWF  FA7
08B9A:  MOVLW  AA
08B9C:  MOVWF  FA7
08B9E:  BSF    FA6.1
08BA0:  BTFSC  FA6.1
08BA2:  BRA    8BA0
08BA4:  BCF    FA6.2
08BA6:  MOVF   00,W
08BA8:  IORWF  FF2,F
....................          delay_ms(50);    
08BAA:  MOVLW  32
08BAC:  MOVLB  9
08BAE:  MOVWF  x4C
08BB0:  MOVLB  0
08BB2:  CALL   1440
....................          write_eeprom(463,Password[3]); 
08BB6:  MOVLW  01
08BB8:  MOVWF  FAA
08BBA:  MOVLW  CF
08BBC:  MOVWF  FA9
08BBE:  MOVFF  696,FA8
08BC2:  BCF    FA6.6
08BC4:  BCF    FA6.7
08BC6:  BSF    FA6.2
08BC8:  MOVF   FF2,W
08BCA:  MOVWF  00
08BCC:  BCF    FF2.7
08BCE:  MOVLB  F
08BD0:  MOVLW  55
08BD2:  MOVWF  FA7
08BD4:  MOVLW  AA
08BD6:  MOVWF  FA7
08BD8:  BSF    FA6.1
08BDA:  BTFSC  FA6.1
08BDC:  BRA    8BDA
08BDE:  BCF    FA6.2
08BE0:  MOVF   00,W
08BE2:  IORWF  FF2,F
....................          delay_ms(1000);glcd_fillScreen(OFF);Menu=1; 
08BE4:  MOVLW  04
08BE6:  MOVLB  9
08BE8:  MOVWF  x36
08BEA:  MOVLW  FA
08BEC:  MOVWF  x4C
08BEE:  MOVLB  0
08BF0:  CALL   1440
08BF4:  MOVLB  9
08BF6:  DECFSZ x36,F
08BF8:  BRA    8BEA
08BFA:  CLRF   x3D
08BFC:  MOVLB  0
08BFE:  CALL   14C0
08C02:  MOVLW  01
08C04:  MOVLB  6
08C06:  MOVWF  x38
....................       } 
....................     }     
.................... //_--------------------------------------------------------------------------------------------------------------------------------------------------------     
....................  
.................... //_-------------------------------------------------------------------------------------------------------------------------------------------------------- 
....................       if(Menu>10 && Menu<16){ //Menu Editar Programa 01, Programa 02, Programa 03, Programa 04 y Programa 05 
08C08:  MOVF   x38,W
08C0A:  SUBLW  0A
08C0C:  BTFSC  FD8.0
08C0E:  BRA    8F02
08C10:  MOVF   x38,W
08C12:  SUBLW  0F
08C14:  BTFSS  FD8.0
08C16:  BRA    8F02
....................        
....................          if(Opcion>3) 
08C18:  MOVF   x3F,W
08C1A:  SUBLW  03
08C1C:  BC    8C2A
....................          { 
....................             Opcion=1; 
08C1E:  MOVLW  01
08C20:  MOVWF  x3F
....................             if(i<15){ 
08C22:  MOVF   x3A,W
08C24:  SUBLW  0E
08C26:  BNC   8C2A
....................                i++;   
08C28:  INCF   x3A,F
....................             } 
....................          } 
....................           
....................          if(Opcion<1) 
08C2A:  MOVF   x3F,F
08C2C:  BNZ   8C38
....................          { 
....................             if(i>0) 
08C2E:  MOVF   x3A,F
08C30:  BZ    8C34
....................                i--; 
08C32:  DECF   x3A,F
....................                 
....................             Opcion=3; 
08C34:  MOVLW  03
08C36:  MOVWF  x3F
....................          } 
....................           
....................          if(Menu==11) 
08C38:  MOVF   x38,W
08C3A:  SUBLW  0B
08C3C:  BNZ   8C42
....................             Programa=1; 
08C3E:  MOVLW  01
08C40:  MOVWF  x33
....................           
....................          if(Menu==12) 
08C42:  MOVF   x38,W
08C44:  SUBLW  0C
08C46:  BNZ   8C4C
....................             Programa=2; 
08C48:  MOVLW  02
08C4A:  MOVWF  x33
....................              
....................          if(Menu==13) 
08C4C:  MOVF   x38,W
08C4E:  SUBLW  0D
08C50:  BNZ   8C56
....................             Programa=3; 
08C52:  MOVLW  03
08C54:  MOVWF  x33
....................              
....................          if(Menu==14) 
08C56:  MOVF   x38,W
08C58:  SUBLW  0E
08C5A:  BNZ   8C60
....................             Programa=4; 
08C5C:  MOVLW  04
08C5E:  MOVWF  x33
....................              
....................          if(Menu==15) 
08C60:  MOVF   x38,W
08C62:  SUBLW  0F
08C64:  BNZ   8C6A
....................             Programa=5;    
08C66:  MOVLW  05
08C68:  MOVWF  x33
....................           
....................          MuestraSegmento(Opcion,i,Programa); 
08C6A:  MOVFF  63F,936
08C6E:  MOVFF  63A,937
08C72:  MOVFF  633,938
08C76:  MOVLB  0
08C78:  GOTO   3B9E
....................           
....................          if(RIGHT && LEFT){ 
08C7C:  BSF    F96.1
08C7E:  BTFSC  F84.1
08C80:  BRA    8EB0
08C82:  BSF    F96.2
08C84:  BTFSC  F84.2
08C86:  BRA    8EB0
....................             Buzz_on;Menu=5;Opcion=1;glcd_fillscreen(OFF);delay_ms(500);Buzz_off; 
08C88:  BSF    F8B.5
08C8A:  BCF    F94.5
08C8C:  MOVLW  05
08C8E:  MOVLB  6
08C90:  MOVWF  x38
08C92:  MOVLW  01
08C94:  MOVWF  x3F
08C96:  MOVLB  9
08C98:  CLRF   x3D
08C9A:  MOVLB  0
08C9C:  CALL   14C0
08CA0:  MOVLW  02
08CA2:  MOVLB  9
08CA4:  MOVWF  x36
08CA6:  MOVLW  FA
08CA8:  MOVWF  x4C
08CAA:  MOVLB  0
08CAC:  CALL   1440
08CB0:  MOVLB  9
08CB2:  DECFSZ x36,F
08CB4:  BRA    8CA6
08CB6:  BCF    F8B.5
08CB8:  BCF    F94.5
....................              
....................             for(i=0;i<Pasos;i++){ 
08CBA:  MOVLB  6
08CBC:  CLRF   x3A
08CBE:  MOVF   x3A,W
08CC0:  SUBLW  0F
08CC2:  BTFSS  FD8.0
08CC4:  BRA    8EAE
....................                delay_ms(10);     
08CC6:  MOVLW  0A
08CC8:  MOVLB  9
08CCA:  MOVWF  x4C
08CCC:  MOVLB  0
08CCE:  CALL   1440
....................                write_eeprom((i*2)+((Pasos*4)*(Programa-1)),make8(Temperatura1[i+((Programa-1)*Pasos)],0)); 
08CD2:  BCF    FD8.0
08CD4:  MOVLB  6
08CD6:  RLCF   x3A,W
08CD8:  MOVLB  9
08CDA:  MOVWF  x36
08CDC:  MOVLW  01
08CDE:  MOVLB  6
08CE0:  SUBWF  x33,W
08CE2:  MULLW  40
08CE4:  MOVF   FF3,W
08CE6:  MOVLB  9
08CE8:  ADDWF  x36,F
08CEA:  MOVLW  01
08CEC:  MOVLB  6
08CEE:  SUBWF  x33,W
08CF0:  MULLW  10
08CF2:  MOVF   FF3,W
08CF4:  ADDWF  x3A,W
08CF6:  MOVWF  00
08CF8:  BCF    FD8.0
08CFA:  RLCF   00,F
08CFC:  MOVF   00,W
08CFE:  CLRF   03
08D00:  ADDLW  07
08D02:  MOVWF  FE9
08D04:  MOVLW  07
08D06:  ADDWFC 03,W
08D08:  MOVWF  FEA
08D0A:  MOVFF  FEC,938
08D0E:  MOVF   FED,F
08D10:  MOVFF  FEF,937
08D14:  MOVFF  937,939
08D18:  CLRF   FAA
08D1A:  MOVFF  936,FA9
08D1E:  MOVFF  939,FA8
08D22:  BCF    FA6.6
08D24:  BCF    FA6.7
08D26:  BSF    FA6.2
08D28:  MOVF   FF2,W
08D2A:  MOVWF  00
08D2C:  BCF    FF2.7
08D2E:  MOVLB  F
08D30:  MOVLW  55
08D32:  MOVWF  FA7
08D34:  MOVLW  AA
08D36:  MOVWF  FA7
08D38:  BSF    FA6.1
08D3A:  BTFSC  FA6.1
08D3C:  BRA    8D3A
08D3E:  BCF    FA6.2
08D40:  MOVF   00,W
08D42:  IORWF  FF2,F
....................                delay_ms(10);     
08D44:  MOVLW  0A
08D46:  MOVLB  9
08D48:  MOVWF  x4C
08D4A:  MOVLB  0
08D4C:  CALL   1440
....................                write_eeprom((i*2)+1+((Pasos*4)*(Programa-1)),make8(Temperatura1[i+((Programa-1)*Pasos)],1)); 
08D50:  BCF    FD8.0
08D52:  MOVLB  6
08D54:  RLCF   x3A,W
08D56:  ADDLW  01
08D58:  MOVLB  9
08D5A:  MOVWF  x36
08D5C:  MOVLW  01
08D5E:  MOVLB  6
08D60:  SUBWF  x33,W
08D62:  MULLW  40
08D64:  MOVF   FF3,W
08D66:  MOVLB  9
08D68:  ADDWF  x36,F
08D6A:  MOVLW  01
08D6C:  MOVLB  6
08D6E:  SUBWF  x33,W
08D70:  MULLW  10
08D72:  MOVF   FF3,W
08D74:  ADDWF  x3A,W
08D76:  MOVWF  00
08D78:  BCF    FD8.0
08D7A:  RLCF   00,F
08D7C:  MOVF   00,W
08D7E:  CLRF   03
08D80:  ADDLW  07
08D82:  MOVWF  FE9
08D84:  MOVLW  07
08D86:  ADDWFC 03,W
08D88:  MOVWF  FEA
08D8A:  MOVFF  FEC,938
08D8E:  MOVF   FED,F
08D90:  MOVFF  FEF,937
08D94:  MOVFF  938,939
08D98:  CLRF   FAA
08D9A:  MOVFF  936,FA9
08D9E:  MOVFF  939,FA8
08DA2:  BCF    FA6.6
08DA4:  BCF    FA6.7
08DA6:  BSF    FA6.2
08DA8:  MOVF   FF2,W
08DAA:  MOVWF  00
08DAC:  BCF    FF2.7
08DAE:  MOVLB  F
08DB0:  MOVLW  55
08DB2:  MOVWF  FA7
08DB4:  MOVLW  AA
08DB6:  MOVWF  FA7
08DB8:  BSF    FA6.1
08DBA:  BTFSC  FA6.1
08DBC:  BRA    8DBA
08DBE:  BCF    FA6.2
08DC0:  MOVF   00,W
08DC2:  IORWF  FF2,F
....................                delay_ms(10);     
08DC4:  MOVLW  0A
08DC6:  MOVLB  9
08DC8:  MOVWF  x4C
08DCA:  MOVLB  0
08DCC:  CALL   1440
....................                write_eeprom(i+(((Pasos*4)*Programa)-((Pasos*2))),Horas1[i+((Programa-1)*Pasos)]); 
08DD0:  MOVLB  6
08DD2:  MOVF   x33,W
08DD4:  MULLW  40
08DD6:  MOVF   FF3,W
08DD8:  ADDLW  E0
08DDA:  ADDWF  x3A,W
08DDC:  MOVLB  9
08DDE:  MOVWF  x36
08DE0:  MOVLW  01
08DE2:  MOVLB  6
08DE4:  SUBWF  x33,W
08DE6:  MULLW  10
08DE8:  MOVF   FF3,W
08DEA:  ADDWF  x3A,W
08DEC:  MOVWF  00
08DEE:  BCF    FD8.0
08DF0:  RLCF   00,F
08DF2:  MOVF   00,W
08DF4:  CLRF   03
08DF6:  ADDLW  A7
08DF8:  MOVWF  FE9
08DFA:  MOVLW  07
08DFC:  ADDWFC 03,W
08DFE:  MOVWF  FEA
08E00:  MOVFF  FEC,938
08E04:  MOVF   FED,F
08E06:  MOVFF  FEF,937
08E0A:  CLRF   FAA
08E0C:  MOVFF  936,FA9
08E10:  MOVFF  937,FA8
08E14:  BCF    FA6.6
08E16:  BCF    FA6.7
08E18:  BSF    FA6.2
08E1A:  MOVF   FF2,W
08E1C:  MOVWF  00
08E1E:  BCF    FF2.7
08E20:  MOVLB  F
08E22:  MOVLW  55
08E24:  MOVWF  FA7
08E26:  MOVLW  AA
08E28:  MOVWF  FA7
08E2A:  BSF    FA6.1
08E2C:  BTFSC  FA6.1
08E2E:  BRA    8E2C
08E30:  BCF    FA6.2
08E32:  MOVF   00,W
08E34:  IORWF  FF2,F
....................                delay_ms(10);     
08E36:  MOVLW  0A
08E38:  MOVLB  9
08E3A:  MOVWF  x4C
08E3C:  MOVLB  0
08E3E:  CALL   1440
....................                write_eeprom(i+(((Pasos*4)*Programa)-Pasos),Minutos1[i+((Programa-1)*Pasos)]); 
08E42:  MOVLB  6
08E44:  MOVF   x33,W
08E46:  MULLW  40
08E48:  MOVF   FF3,W
08E4A:  ADDLW  F0
08E4C:  ADDWF  x3A,W
08E4E:  MOVLB  9
08E50:  MOVWF  x36
08E52:  MOVLW  01
08E54:  MOVLB  6
08E56:  SUBWF  x33,W
08E58:  MULLW  10
08E5A:  MOVF   FF3,W
08E5C:  ADDWF  x3A,W
08E5E:  MOVWF  00
08E60:  BCF    FD8.0
08E62:  RLCF   00,F
08E64:  MOVF   00,W
08E66:  CLRF   03
08E68:  ADDLW  47
08E6A:  MOVWF  FE9
08E6C:  MOVLW  08
08E6E:  ADDWFC 03,W
08E70:  MOVWF  FEA
08E72:  MOVFF  FEC,938
08E76:  MOVF   FED,F
08E78:  MOVFF  FEF,937
08E7C:  CLRF   FAA
08E7E:  MOVFF  936,FA9
08E82:  MOVFF  937,FA8
08E86:  BCF    FA6.6
08E88:  BCF    FA6.7
08E8A:  BSF    FA6.2
08E8C:  MOVF   FF2,W
08E8E:  MOVWF  00
08E90:  BCF    FF2.7
08E92:  MOVLB  F
08E94:  MOVLW  55
08E96:  MOVWF  FA7
08E98:  MOVLW  AA
08E9A:  MOVWF  FA7
08E9C:  BSF    FA6.1
08E9E:  BTFSC  FA6.1
08EA0:  BRA    8E9E
08EA2:  BCF    FA6.2
08EA4:  MOVF   00,W
08EA6:  IORWF  FF2,F
....................             }  
08EA8:  MOVLB  6
08EAA:  INCF   x3A,F
08EAC:  BRA    8CBE
08EAE:  MOVLB  0
....................          } 
....................           
....................          if(RIGHT)//Si oprime SET 
08EB0:  BSF    F96.1
08EB2:  BTFSC  F84.1
08EB4:  BRA    8ED8
....................          {  
....................             Buzz_on;delay_ms(50);Opcion++;glcd_fillscreen(OFF);Buzz_off; 
08EB6:  BSF    F8B.5
08EB8:  BCF    F94.5
08EBA:  MOVLW  32
08EBC:  MOVLB  9
08EBE:  MOVWF  x4C
08EC0:  MOVLB  0
08EC2:  CALL   1440
08EC6:  MOVLB  6
08EC8:  INCF   x3F,F
08ECA:  MOVLB  9
08ECC:  CLRF   x3D
08ECE:  MOVLB  0
08ED0:  CALL   14C0
08ED4:  BCF    F8B.5
08ED6:  BCF    F94.5
....................          } 
....................           
....................          if(LEFT){ 
08ED8:  BSF    F96.2
08EDA:  BTFSC  F84.2
08EDC:  BRA    8F00
....................             Buzz_on;delay_ms(50);Opcion--;glcd_fillscreen(OFF);Buzz_off; 
08EDE:  BSF    F8B.5
08EE0:  BCF    F94.5
08EE2:  MOVLW  32
08EE4:  MOVLB  9
08EE6:  MOVWF  x4C
08EE8:  MOVLB  0
08EEA:  CALL   1440
08EEE:  MOVLB  6
08EF0:  DECF   x3F,F
08EF2:  MOVLB  9
08EF4:  CLRF   x3D
08EF6:  MOVLB  0
08EF8:  CALL   14C0
08EFC:  BCF    F8B.5
08EFE:  BCF    F94.5
08F00:  MOVLB  6
....................          } 
....................    } 
.................... //_--------------------------------------------------------------------------------------------------------------------------------------------------------        
....................  
.................... //_-------------------------------------------------------------------------------------------------------------------------------------------------------- 
....................       if(Menu==20){ //Menu de Funcionamiento 
08F02:  MOVF   x38,W
08F04:  SUBLW  14
08F06:  BTFSS  FD8.2
08F08:  GOTO   A118
....................        
....................       // Muestra imagen de fondo en Display GLCD       
....................       glcd_imagen(5); 
08F0C:  MOVLW  05
08F0E:  MOVLB  9
08F10:  MOVWF  x36
08F12:  MOVLB  0
08F14:  GOTO   4858
....................       //flag_display=0; 
....................  
....................       if(UP && DOWN)//Si oprime hacia abajo 
08F18:  BSF    F92.5
08F1A:  BTFSC  F80.5
08F1C:  BRA    8F40
08F1E:  BSF    F96.0
08F20:  BTFSC  F84.0
08F22:  BRA    8F40
....................       { 
....................          glcd_init(ON);delay_ms(200);flag_display=!flag_display;          
08F24:  MOVLW  01
08F26:  MOVLB  9
08F28:  MOVWF  x36
08F2A:  MOVLB  0
08F2C:  CALL   15D2
08F30:  MOVLW  C8
08F32:  MOVLB  9
08F34:  MOVWF  x4C
08F36:  MOVLB  0
08F38:  CALL   1440
08F3C:  MOVLB  6
08F3E:  BTG    x30.5
....................       } 
....................  
....................       if(Temperatura>1250 || Temperatura<0) 
08F40:  MOVLB  9
08F42:  CLRF   x39
08F44:  MOVLW  40
08F46:  MOVWF  x38
08F48:  MOVLW  1C
08F4A:  MOVWF  x37
08F4C:  MOVLW  89
08F4E:  MOVWF  x36
08F50:  MOVFF  6CE,93D
08F54:  MOVFF  6CD,93C
08F58:  MOVFF  6CC,93B
08F5C:  MOVFF  6CB,93A
08F60:  MOVLB  0
08F62:  CALL   275A
08F66:  BC    8F8A
08F68:  MOVFF  6CE,939
08F6C:  MOVFF  6CD,938
08F70:  MOVFF  6CC,937
08F74:  MOVFF  6CB,936
08F78:  MOVLB  9
08F7A:  CLRF   x3D
08F7C:  CLRF   x3C
08F7E:  CLRF   x3B
08F80:  CLRF   x3A
08F82:  MOVLB  0
08F84:  CALL   275A
08F88:  BNC   902A
....................       { 
....................          glcd_rect(0, 55, 127, 63, YES, OFF); 
08F8A:  MOVLB  9
08F8C:  CLRF   x4E
08F8E:  MOVLW  37
08F90:  MOVWF  x4F
08F92:  MOVLW  7F
08F94:  MOVWF  x50
08F96:  MOVLW  3F
08F98:  MOVWF  x51
08F9A:  MOVLW  01
08F9C:  MOVWF  x52
08F9E:  CLRF   x53
08FA0:  MOVLB  0
08FA2:  CALL   1874
....................          strcpy(Menus.Letra,"Status:Sensor Descon."); 
08FA6:  MOVLW  09
08FA8:  MOVWF  FEA
08FAA:  MOVLW  0D
08FAC:  MOVWF  FE9
08FAE:  MOVFF  FF2,936
08FB2:  BCF    FF2.7
08FB4:  MOVLW  00
08FB6:  CALL   0C6A
08FBA:  TBLRD*-
08FBC:  TBLRD*+
08FBE:  MOVF   FF5,W
08FC0:  MOVWF  FEE
08FC2:  IORLW  00
08FC4:  BNZ   8FBC
08FC6:  MOVLB  9
08FC8:  BTFSC  x36.7
08FCA:  BSF    FF2.7
....................          displayMenu(Menus.Letra,0,55,2,1); 
08FCC:  MOVLW  09
08FCE:  MOVWF  x3E
08FD0:  MOVLW  0D
08FD2:  MOVWF  x3D
08FD4:  CLRF   x3F
08FD6:  MOVLW  37
08FD8:  MOVWF  x40
08FDA:  MOVLW  02
08FDC:  MOVWF  x41
08FDE:  MOVLW  01
08FE0:  MOVWF  x42
08FE2:  MOVLB  0
08FE4:  CALL   1AEE
....................          tiempo_esterilizacion=0; 
08FE8:  MOVLB  6
08FEA:  CLRF   x40
....................          Resistencia_off; 
08FEC:  BCF    F8B.0
08FEE:  BCF    F94.0
....................          Tpulso=0.0; 
08FF0:  CLRF   xA2
08FF2:  CLRF   xA1
08FF4:  CLRF   xA0
08FF6:  CLRF   x9F
....................          flag_tiempocalentamiento=0; 
08FF8:  BCF    x30.4
....................          Buzz_on; 
08FFA:  BSF    F8B.5
08FFC:  BCF    F94.5
....................          delay_ms(500); 
08FFE:  MOVLW  02
09000:  MOVLB  9
09002:  MOVWF  x36
09004:  MOVLW  FA
09006:  MOVWF  x4C
09008:  MOVLB  0
0900A:  CALL   1440
0900E:  MOVLB  9
09010:  DECFSZ x36,F
09012:  BRA    9004
....................          Buzz_off; 
09014:  BCF    F8B.5
09016:  BCF    F94.5
....................          delay_ms(250); 
09018:  MOVLW  FA
0901A:  MOVWF  x4C
0901C:  MOVLB  0
0901E:  CALL   1440
....................          Control=0; 
09022:  MOVLB  6
09024:  CLRF   x34
....................       } 
....................       else 
09026:  BRA    96AC
09028:  MOVLB  0
....................       { 
....................           
....................          if(Pausa==0 && !DOOR && !TERM) 
0902A:  MOVLB  6
0902C:  MOVF   x3C,F
0902E:  BTFSS  FD8.2
09030:  BRA    939C
09032:  BSF    F92.4
09034:  BTFSC  F80.4
09036:  BRA    939C
09038:  BSF    F92.3
0903A:  BTFSC  F80.3
0903C:  BRA    939C
....................          { 
....................             Control=1; 
0903E:  MOVLW  01
09040:  MOVWF  x34
....................              
....................             if(Temperatura>Setpoint+AlTem && AlTem>0){ 
09042:  MOVFF  658,94D
09046:  MOVFF  657,94C
0904A:  MOVLB  0
0904C:  CALL   1DF6
09050:  BCF    FD8.1
09052:  MOVFF  6DA,94C
09056:  MOVFF  6D9,94B
0905A:  MOVFF  6D8,94A
0905E:  MOVFF  6D7,949
09062:  MOVFF  03,950
09066:  MOVFF  02,94F
0906A:  MOVFF  01,94E
0906E:  MOVFF  00,94D
09072:  CALL   1EA4
09076:  MOVFF  03,939
0907A:  MOVFF  02,938
0907E:  MOVFF  01,937
09082:  MOVFF  00,936
09086:  MOVFF  6CE,93D
0908A:  MOVFF  6CD,93C
0908E:  MOVFF  6CC,93B
09092:  MOVFF  6CB,93A
09096:  CALL   275A
0909A:  BNC   90B4
0909C:  MOVLB  6
0909E:  MOVF   x57,F
090A0:  BNZ   90AC
090A2:  MOVF   x58,F
090A4:  BTFSS  FD8.2
090A6:  BRA    90AC
090A8:  MOVLB  0
090AA:  BRA    90B4
....................                Alarma=5; 
090AC:  MOVLW  05
090AE:  MOVWF  x42
....................             }else{   
090B0:  BRA    939C
090B2:  MOVLB  0
....................                Alarma=10; 
090B4:  MOVLW  0A
090B6:  MOVLB  6
090B8:  MOVWF  x42
....................                if((Temperatura>=Setpoint-10) && (Temperatura<Setpoint+50)) 
090BA:  BSF    FD8.1
090BC:  MOVFF  6DA,94C
090C0:  MOVFF  6D9,94B
090C4:  MOVFF  6D8,94A
090C8:  MOVFF  6D7,949
090CC:  MOVLB  9
090CE:  CLRF   x50
090D0:  CLRF   x4F
090D2:  MOVLW  20
090D4:  MOVWF  x4E
090D6:  MOVLW  82
090D8:  MOVWF  x4D
090DA:  MOVLB  0
090DC:  CALL   1EA4
090E0:  MOVFF  03,939
090E4:  MOVFF  02,938
090E8:  MOVFF  01,937
090EC:  MOVFF  00,936
090F0:  MOVFF  6CE,93D
090F4:  MOVFF  6CD,93C
090F8:  MOVFF  6CC,93B
090FC:  MOVFF  6CB,93A
09100:  CALL   275A
09104:  BC    910A
09106:  BTFSS  FD8.2
09108:  BRA    927E
0910A:  BCF    FD8.1
0910C:  MOVFF  6DA,94C
09110:  MOVFF  6D9,94B
09114:  MOVFF  6D8,94A
09118:  MOVFF  6D7,949
0911C:  MOVLB  9
0911E:  CLRF   x50
09120:  CLRF   x4F
09122:  MOVLW  48
09124:  MOVWF  x4E
09126:  MOVLW  84
09128:  MOVWF  x4D
0912A:  MOVLB  0
0912C:  CALL   1EA4
09130:  MOVFF  6CE,939
09134:  MOVFF  6CD,938
09138:  MOVFF  6CC,937
0913C:  MOVFF  6CB,936
09140:  MOVFF  03,93D
09144:  MOVFF  02,93C
09148:  MOVFF  01,93B
0914C:  MOVFF  00,93A
09150:  CALL   275A
09154:  BTFSS  FD8.0
09156:  BRA    927E
....................                { 
....................                   if(Pendiente!=0){ 
09158:  MOVFF  6D2,939
0915C:  MOVFF  6D1,938
09160:  MOVFF  6D0,937
09164:  MOVFF  6CF,936
09168:  MOVLB  9
0916A:  CLRF   x3D
0916C:  CLRF   x3C
0916E:  CLRF   x3B
09170:  CLRF   x3A
09172:  MOVLB  0
09174:  CALL   275A
09178:  BZ    91E2
....................                      tiempo_esterilizacion=1; 
0917A:  MOVLW  01
0917C:  MOVLB  6
0917E:  MOVWF  x40
....................                      if(flag_display==0){ 
09180:  BTFSC  x30.5
09182:  BRA    91E4
....................                         glcd_rect(0, 55, 127, 63, YES, OFF); 
09184:  MOVLB  9
09186:  CLRF   x4E
09188:  MOVLW  37
0918A:  MOVWF  x4F
0918C:  MOVLW  7F
0918E:  MOVWF  x50
09190:  MOVLW  3F
09192:  MOVWF  x51
09194:  MOVLW  01
09196:  MOVWF  x52
09198:  CLRF   x53
0919A:  MOVLB  0
0919C:  CALL   1874
....................                         strcpy(Menus.Letra,"Status:Controlando"); 
091A0:  MOVLW  09
091A2:  MOVWF  FEA
091A4:  MOVLW  0D
091A6:  MOVWF  FE9
091A8:  MOVFF  FF2,936
091AC:  BCF    FF2.7
091AE:  MOVLW  00
091B0:  CALL   0C9E
091B4:  TBLRD*-
091B6:  TBLRD*+
091B8:  MOVF   FF5,W
091BA:  MOVWF  FEE
091BC:  IORLW  00
091BE:  BNZ   91B6
091C0:  MOVLB  9
091C2:  BTFSC  x36.7
091C4:  BSF    FF2.7
....................                         displayMenu(Menus.Letra,0,55,2,1); 
091C6:  MOVLW  09
091C8:  MOVWF  x3E
091CA:  MOVLW  0D
091CC:  MOVWF  x3D
091CE:  CLRF   x3F
091D0:  MOVLW  37
091D2:  MOVWF  x40
091D4:  MOVLW  02
091D6:  MOVWF  x41
091D8:  MOVLW  01
091DA:  MOVWF  x42
091DC:  MOVLB  0
091DE:  CALL   1AEE
091E2:  MOVLB  6
....................                      } 
....................                   } 
....................                    
....................                   if(Pendiente==0){ 
091E4:  MOVFF  6D2,939
091E8:  MOVFF  6D1,938
091EC:  MOVFF  6D0,937
091F0:  MOVFF  6CF,936
091F4:  MOVLB  9
091F6:  CLRF   x3D
091F8:  CLRF   x3C
091FA:  CLRF   x3B
091FC:  CLRF   x3A
091FE:  MOVLB  0
09200:  CALL   275A
09204:  BNZ   9272
....................                      if(flag_display==0){ 
09206:  MOVLB  6
09208:  BTFSC  x30.5
0920A:  BRA    926C
....................                         glcd_rect(0, 55, 127, 63, YES, OFF); 
0920C:  MOVLB  9
0920E:  CLRF   x4E
09210:  MOVLW  37
09212:  MOVWF  x4F
09214:  MOVLW  7F
09216:  MOVWF  x50
09218:  MOVLW  3F
0921A:  MOVWF  x51
0921C:  MOVLW  01
0921E:  MOVWF  x52
09220:  CLRF   x53
09222:  MOVLB  0
09224:  CALL   1874
....................                         strcpy(Menus.Letra,"Status:Meseta  "); 
09228:  MOVLW  09
0922A:  MOVWF  FEA
0922C:  MOVLW  0D
0922E:  MOVWF  FE9
09230:  MOVFF  FF2,936
09234:  BCF    FF2.7
09236:  MOVLW  00
09238:  CALL   0CD0
0923C:  TBLRD*-
0923E:  TBLRD*+
09240:  MOVF   FF5,W
09242:  MOVWF  FEE
09244:  IORLW  00
09246:  BNZ   923E
09248:  MOVLB  9
0924A:  BTFSC  x36.7
0924C:  BSF    FF2.7
....................                         displayMenu(Menus.Letra,0,55,2,1); 
0924E:  MOVLW  09
09250:  MOVWF  x3E
09252:  MOVLW  0D
09254:  MOVWF  x3D
09256:  CLRF   x3F
09258:  MOVLW  37
0925A:  MOVWF  x40
0925C:  MOVLW  02
0925E:  MOVWF  x41
09260:  MOVLW  01
09262:  MOVWF  x42
09264:  MOVLB  0
09266:  CALL   1AEE
0926A:  MOVLB  6
....................                      } 
....................                      tiempo_esterilizacion=2; 
0926C:  MOVLW  02
0926E:  MOVWF  x40
09270:  MOVLB  0
....................                   } 
....................                   Controla(); 
09272:  CALL   4BE4
....................                   flag_tiempocalentamiento=0; 
09276:  MOVLB  6
09278:  BCF    x30.4
....................                } 
....................                else 
0927A:  BRA    939C
0927C:  MOVLB  0
....................                { 
....................                   if(Pendiente!=0){ 
0927E:  MOVFF  6D2,939
09282:  MOVFF  6D1,938
09286:  MOVFF  6D0,937
0928A:  MOVFF  6CF,936
0928E:  MOVLB  9
09290:  CLRF   x3D
09292:  CLRF   x3C
09294:  CLRF   x3B
09296:  CLRF   x3A
09298:  MOVLB  0
0929A:  CALL   275A
0929E:  BZ    9308
....................                      tiempo_esterilizacion=1; 
092A0:  MOVLW  01
092A2:  MOVLB  6
092A4:  MOVWF  x40
....................                      if(flag_display==0){ 
092A6:  BTFSC  x30.5
092A8:  BRA    930A
....................                         glcd_rect(0, 55, 127, 63, YES, OFF); 
092AA:  MOVLB  9
092AC:  CLRF   x4E
092AE:  MOVLW  37
092B0:  MOVWF  x4F
092B2:  MOVLW  7F
092B4:  MOVWF  x50
092B6:  MOVLW  3F
092B8:  MOVWF  x51
092BA:  MOVLW  01
092BC:  MOVWF  x52
092BE:  CLRF   x53
092C0:  MOVLB  0
092C2:  CALL   1874
....................                         strcpy(Menus.Letra,"Status:Rampa  "); 
092C6:  MOVLW  09
092C8:  MOVWF  FEA
092CA:  MOVLW  0D
092CC:  MOVWF  FE9
092CE:  MOVFF  FF2,936
092D2:  BCF    FF2.7
092D4:  MOVLW  00
092D6:  CALL   0CFE
092DA:  TBLRD*-
092DC:  TBLRD*+
092DE:  MOVF   FF5,W
092E0:  MOVWF  FEE
092E2:  IORLW  00
092E4:  BNZ   92DC
092E6:  MOVLB  9
092E8:  BTFSC  x36.7
092EA:  BSF    FF2.7
....................                         displayMenu(Menus.Letra,0,55,2,1); 
092EC:  MOVLW  09
092EE:  MOVWF  x3E
092F0:  MOVLW  0D
092F2:  MOVWF  x3D
092F4:  CLRF   x3F
092F6:  MOVLW  37
092F8:  MOVWF  x40
092FA:  MOVLW  02
092FC:  MOVWF  x41
092FE:  MOVLW  01
09300:  MOVWF  x42
09302:  MOVLB  0
09304:  CALL   1AEE
09308:  MOVLB  6
....................                      } 
....................                   } 
....................                    
....................                   if(Pendiente==0){ 
0930A:  MOVFF  6D2,939
0930E:  MOVFF  6D1,938
09312:  MOVFF  6D0,937
09316:  MOVFF  6CF,936
0931A:  MOVLB  9
0931C:  CLRF   x3D
0931E:  CLRF   x3C
09320:  CLRF   x3B
09322:  CLRF   x3A
09324:  MOVLB  0
09326:  CALL   275A
0932A:  BNZ   9396
....................                      if(flag_display==0){ 
0932C:  MOVLB  6
0932E:  BTFSC  x30.5
09330:  BRA    9392
....................                         glcd_rect(0, 55, 127, 63, YES, OFF); 
09332:  MOVLB  9
09334:  CLRF   x4E
09336:  MOVLW  37
09338:  MOVWF  x4F
0933A:  MOVLW  7F
0933C:  MOVWF  x50
0933E:  MOVLW  3F
09340:  MOVWF  x51
09342:  MOVLW  01
09344:  MOVWF  x52
09346:  CLRF   x53
09348:  MOVLB  0
0934A:  CALL   1874
....................                         strcpy(Menus.Letra,"Status:Calentando"); 
0934E:  MOVLW  09
09350:  MOVWF  FEA
09352:  MOVLW  0D
09354:  MOVWF  FE9
09356:  MOVFF  FF2,936
0935A:  BCF    FF2.7
0935C:  MOVLW  00
0935E:  CALL   0D2C
09362:  TBLRD*-
09364:  TBLRD*+
09366:  MOVF   FF5,W
09368:  MOVWF  FEE
0936A:  IORLW  00
0936C:  BNZ   9364
0936E:  MOVLB  9
09370:  BTFSC  x36.7
09372:  BSF    FF2.7
....................                         displayMenu(Menus.Letra,0,55,2,1); 
09374:  MOVLW  09
09376:  MOVWF  x3E
09378:  MOVLW  0D
0937A:  MOVWF  x3D
0937C:  CLRF   x3F
0937E:  MOVLW  37
09380:  MOVWF  x40
09382:  MOVLW  02
09384:  MOVWF  x41
09386:  MOVLW  01
09388:  MOVWF  x42
0938A:  MOVLB  0
0938C:  CALL   1AEE
09390:  MOVLB  6
....................                      } 
....................                      tiempo_esterilizacion=0; 
09392:  CLRF   x40
09394:  MOVLB  0
....................                   } 
....................                   Controla(); 
09396:  CALL   4BE4
0939A:  MOVLB  6
....................                } 
....................             } 
....................          } 
....................           
....................          if(Pausa==1 && !DOOR) 
0939C:  DECFSZ x3C,W
0939E:  BRA    93FE
093A0:  BSF    F92.4
093A2:  BTFSC  F80.4
093A4:  BRA    93FE
....................          { 
....................             flag_tiempocalentamiento=0; 
093A6:  BCF    x30.4
....................             strcpy(Menus.Letra,"Status:Pausado"); 
093A8:  MOVLW  09
093AA:  MOVWF  FEA
093AC:  MOVLW  0D
093AE:  MOVWF  FE9
093B0:  MOVFF  FF2,936
093B4:  BCF    FF2.7
093B6:  MOVLW  00
093B8:  MOVLB  0
093BA:  CALL   0D5C
093BE:  TBLRD*-
093C0:  TBLRD*+
093C2:  MOVF   FF5,W
093C4:  MOVWF  FEE
093C6:  IORLW  00
093C8:  BNZ   93C0
093CA:  MOVLB  9
093CC:  BTFSC  x36.7
093CE:  BSF    FF2.7
....................             displayMenu(Menus.Letra,0,55,2,1); 
093D0:  MOVLW  09
093D2:  MOVWF  x3E
093D4:  MOVLW  0D
093D6:  MOVWF  x3D
093D8:  CLRF   x3F
093DA:  MOVLW  37
093DC:  MOVWF  x40
093DE:  MOVLW  02
093E0:  MOVWF  x41
093E2:  MOVLW  01
093E4:  MOVWF  x42
093E6:  MOVLB  0
093E8:  CALL   1AEE
....................             tiempo_esterilizacion=0; 
093EC:  MOVLB  6
093EE:  CLRF   x40
....................             Control=0; 
093F0:  CLRF   x34
....................             Resistencia_off; 
093F2:  BCF    F8B.0
093F4:  BCF    F94.0
....................             Tpulso=0.0; 
093F6:  CLRF   xA2
093F8:  CLRF   xA1
093FA:  CLRF   xA0
093FC:  CLRF   x9F
....................          } 
....................           
....................          if(DOOR) 
093FE:  BSF    F92.4
09400:  BTFSS  F80.4
09402:  BRA    952E
....................          { 
....................             Control=0;             
09404:  CLRF   x34
....................             flag_tiempocalentamiento=0; 
09406:  BCF    x30.4
....................             tiempo_esterilizacion=0; 
09408:  CLRF   x40
....................             Resistencia_off; 
0940A:  BCF    F8B.0
0940C:  BCF    F94.0
....................             Tpulso=0.0; 
0940E:  CLRF   xA2
09410:  CLRF   xA1
09412:  CLRF   xA0
09414:  CLRF   x9F
....................             if(flag_clear2==0) 
09416:  BTFSC  x30.2
09418:  BRA    94B4
....................             { 
....................                //Ganancia=read_eeprom(90); 
....................                //Ganancia=Setpoint*(Ganancia/Coeficiente); 
....................                //glcd_fillScreen(OFF); 
....................                Ganancia=GananciaIn*(Setpoint/Coeficiente); 
0941A:  MOVFF  6DA,94E
0941E:  MOVFF  6D9,94D
09422:  MOVFF  6D8,94C
09426:  MOVFF  6D7,94B
0942A:  MOVFF  6C2,952
0942E:  MOVFF  6C1,951
09432:  MOVFF  6C0,950
09436:  MOVFF  6BF,94F
0943A:  MOVLB  0
0943C:  CALL   211C
09440:  MOVFF  6B6,95A
09444:  MOVFF  6B5,959
09448:  MOVFF  6B4,958
0944C:  MOVFF  6B3,957
09450:  MOVFF  03,95E
09454:  MOVFF  02,95D
09458:  MOVFF  01,95C
0945C:  MOVFF  00,95B
09460:  CALL   227A
09464:  MOVFF  03,6BA
09468:  MOVFF  02,6B9
0946C:  MOVFF  01,6B8
09470:  MOVFF  00,6B7
....................                glcd_fillScreen(OFF); 
09474:  MOVLB  9
09476:  CLRF   x3D
09478:  MOVLB  0
0947A:  CALL   14C0
....................                glcd_init(ON); 
0947E:  MOVLW  01
09480:  MOVLB  9
09482:  MOVWF  x36
09484:  MOVLB  0
09486:  CALL   15D2
....................                glcd_rect(0, 55, 127, 63, YES, OFF); 
0948A:  MOVLB  9
0948C:  CLRF   x4E
0948E:  MOVLW  37
09490:  MOVWF  x4F
09492:  MOVLW  7F
09494:  MOVWF  x50
09496:  MOVLW  3F
09498:  MOVWF  x51
0949A:  MOVLW  01
0949C:  MOVWF  x52
0949E:  CLRF   x53
094A0:  MOVLB  0
094A2:  CALL   1874
....................                Tpulso=0.0; 
094A6:  MOVLB  6
094A8:  CLRF   xA2
094AA:  CLRF   xA1
094AC:  CLRF   xA0
094AE:  CLRF   x9F
....................                flag_clear2=1; 
094B0:  BSF    x30.2
....................                flag_ganancia=0; 
094B2:  CLRF   x29
....................             } 
....................             strcpy(Menus.Letra,"Status:Puerta Abierta"); 
094B4:  MOVLW  09
094B6:  MOVWF  FEA
094B8:  MOVLW  0D
094BA:  MOVWF  FE9
094BC:  MOVFF  FF2,936
094C0:  BCF    FF2.7
094C2:  MOVLW  00
094C4:  MOVLB  0
094C6:  CALL   0D8A
094CA:  TBLRD*-
094CC:  TBLRD*+
094CE:  MOVF   FF5,W
094D0:  MOVWF  FEE
094D2:  IORLW  00
094D4:  BNZ   94CC
094D6:  MOVLB  9
094D8:  BTFSC  x36.7
094DA:  BSF    FF2.7
....................             displayMenu(Menus.Letra,0,55,2,1); 
094DC:  MOVLW  09
094DE:  MOVWF  x3E
094E0:  MOVLW  0D
094E2:  MOVWF  x3D
094E4:  CLRF   x3F
094E6:  MOVLW  37
094E8:  MOVWF  x40
094EA:  MOVLW  02
094EC:  MOVWF  x41
094EE:  MOVLW  01
094F0:  MOVWF  x42
094F2:  MOVLB  0
094F4:  CALL   1AEE
....................             Buzz_on; 
094F8:  BSF    F8B.5
094FA:  BCF    F94.5
....................             delay_ms(1000); 
094FC:  MOVLW  04
094FE:  MOVLB  9
09500:  MOVWF  x36
09502:  MOVLW  FA
09504:  MOVWF  x4C
09506:  MOVLB  0
09508:  CALL   1440
0950C:  MOVLB  9
0950E:  DECFSZ x36,F
09510:  BRA    9502
....................             Buzz_off; 
09512:  BCF    F8B.5
09514:  BCF    F94.5
....................             delay_ms(1000); 
09516:  MOVLW  04
09518:  MOVWF  x36
0951A:  MOVLW  FA
0951C:  MOVWF  x4C
0951E:  MOVLB  0
09520:  CALL   1440
09524:  MOVLB  9
09526:  DECFSZ x36,F
09528:  BRA    951A
....................          } 
....................          else 
0952A:  BRA    96AE
0952C:  MOVLB  6
....................          { 
....................             if(flag_clear2==1){ 
0952E:  BTFSS  x30.2
09530:  BRA    955C
....................                glcd_fillScreen(OFF); 
09532:  MOVLB  9
09534:  CLRF   x3D
09536:  MOVLB  0
09538:  CALL   14C0
....................                glcd_rect(0, 55, 127, 63, YES, OFF); 
0953C:  MOVLB  9
0953E:  CLRF   x4E
09540:  MOVLW  37
09542:  MOVWF  x4F
09544:  MOVLW  7F
09546:  MOVWF  x50
09548:  MOVLW  3F
0954A:  MOVWF  x51
0954C:  MOVLW  01
0954E:  MOVWF  x52
09550:  CLRF   x53
09552:  MOVLB  0
09554:  CALL   1874
....................                flag_clear2=0; 
09558:  MOVLB  6
0955A:  BCF    x30.2
....................             } 
....................             if(TERM || Alarma==5){ 
0955C:  BSF    F92.3
0955E:  BTFSC  F80.3
09560:  BRA    956A
09562:  MOVF   x42,W
09564:  SUBLW  05
09566:  BTFSS  FD8.2
09568:  BRA    9682
....................             Control=0;             
0956A:  CLRF   x34
....................             flag_tiempocalentamiento=0; 
0956C:  BCF    x30.4
....................             tiempo_esterilizacion=0; 
0956E:  CLRF   x40
....................             Resistencia_off; 
09570:  BCF    F8B.0
09572:  BCF    F94.0
....................             Tpulso=0.0; 
09574:  CLRF   xA2
09576:  CLRF   xA1
09578:  CLRF   xA0
0957A:  CLRF   x9F
....................             if(flag_clear3==0){ 
0957C:  BTFSC  x30.3
0957E:  BRA    95B0
....................                glcd_rect(0, 55, 127, 63, YES, OFF); 
09580:  MOVLB  9
09582:  CLRF   x4E
09584:  MOVLW  37
09586:  MOVWF  x4F
09588:  MOVLW  7F
0958A:  MOVWF  x50
0958C:  MOVLW  3F
0958E:  MOVWF  x51
09590:  MOVLW  01
09592:  MOVWF  x52
09594:  CLRF   x53
09596:  MOVLB  0
09598:  CALL   1874
....................                tiempo_esterilizacion=0; 
0959C:  MOVLB  6
0959E:  CLRF   x40
....................                Resistencia_off; 
095A0:  BCF    F8B.0
095A2:  BCF    F94.0
....................                Tpulso=0.0; 
095A4:  CLRF   xA2
095A6:  CLRF   xA1
095A8:  CLRF   xA0
095AA:  CLRF   x9F
....................                flag_clear3=1; 
095AC:  BSF    x30.3
....................                flag_ganancia=0; 
095AE:  CLRF   x29
....................             } 
....................             strcpy(Menus.Letra,"Status:Sobre Temp"); 
095B0:  MOVLW  09
095B2:  MOVWF  FEA
095B4:  MOVLW  0D
095B6:  MOVWF  FE9
095B8:  MOVFF  FF2,936
095BC:  BCF    FF2.7
095BE:  MOVLW  00
095C0:  MOVLB  0
095C2:  CALL   0DBE
095C6:  TBLRD*-
095C8:  TBLRD*+
095CA:  MOVF   FF5,W
095CC:  MOVWF  FEE
095CE:  IORLW  00
095D0:  BNZ   95C8
095D2:  MOVLB  9
095D4:  BTFSC  x36.7
095D6:  BSF    FF2.7
....................             displayMenu(Menus.Letra,0,55,2,1);  
095D8:  MOVLW  09
095DA:  MOVWF  x3E
095DC:  MOVLW  0D
095DE:  MOVWF  x3D
095E0:  CLRF   x3F
095E2:  MOVLW  37
095E4:  MOVWF  x40
095E6:  MOVLW  02
095E8:  MOVWF  x41
095EA:  MOVLW  01
095EC:  MOVWF  x42
095EE:  MOVLB  0
095F0:  CALL   1AEE
....................             Ganancia=gananciaIn*(Setpoint/150); 
095F4:  MOVFF  6DA,94E
095F8:  MOVFF  6D9,94D
095FC:  MOVFF  6D8,94C
09600:  MOVFF  6D7,94B
09604:  MOVLB  9
09606:  CLRF   x52
09608:  CLRF   x51
0960A:  MOVLW  16
0960C:  MOVWF  x50
0960E:  MOVLW  86
09610:  MOVWF  x4F
09612:  MOVLB  0
09614:  CALL   211C
09618:  MOVFF  6B6,95A
0961C:  MOVFF  6B5,959
09620:  MOVFF  6B4,958
09624:  MOVFF  6B3,957
09628:  MOVFF  03,95E
0962C:  MOVFF  02,95D
09630:  MOVFF  01,95C
09634:  MOVFF  00,95B
09638:  CALL   227A
0963C:  MOVFF  03,6BA
09640:  MOVFF  02,6B9
09644:  MOVFF  01,6B8
09648:  MOVFF  00,6B7
....................             Buzz_on; 
0964C:  BSF    F8B.5
0964E:  BCF    F94.5
....................             delay_ms(500); 
09650:  MOVLW  02
09652:  MOVLB  9
09654:  MOVWF  x36
09656:  MOVLW  FA
09658:  MOVWF  x4C
0965A:  MOVLB  0
0965C:  CALL   1440
09660:  MOVLB  9
09662:  DECFSZ x36,F
09664:  BRA    9656
....................             Buzz_off; 
09666:  BCF    F8B.5
09668:  BCF    F94.5
....................             delay_ms(500); 
0966A:  MOVLW  02
0966C:  MOVWF  x36
0966E:  MOVLW  FA
09670:  MOVWF  x4C
09672:  MOVLB  0
09674:  CALL   1440
09678:  MOVLB  9
0967A:  DECFSZ x36,F
0967C:  BRA    966E
....................          }else{ 
0967E:  BRA    96AE
09680:  MOVLB  6
....................             Alarma=0; 
09682:  CLRF   x42
....................             if(flag_clear3==1){ 
09684:  BTFSS  x30.3
09686:  BRA    96A8
....................                glcd_rect(0, 55, 127, 63, YES, OFF); 
09688:  MOVLB  9
0968A:  CLRF   x4E
0968C:  MOVLW  37
0968E:  MOVWF  x4F
09690:  MOVLW  7F
09692:  MOVWF  x50
09694:  MOVLW  3F
09696:  MOVWF  x51
09698:  MOVLW  01
0969A:  MOVWF  x52
0969C:  CLRF   x53
0969E:  MOVLB  0
096A0:  CALL   1874
....................                flag_clear3=0; 
096A4:  MOVLB  6
096A6:  BCF    x30.3
....................             } 
....................             Buzz_off; 
096A8:  BCF    F8B.5
096AA:  BCF    F94.5
096AC:  MOVLB  9
....................          }  
....................          } 
....................       } 
....................       /* 
....................       if(UP)//Si oprime hacia arriba 
....................       { 
....................          glcd_fillscreen(OFF); 
....................                glcd_line(27,0,27,55,ON); 
....................                glcd_line(27,55,127,55,ON); 
....................                 
....................                strcpy(Menus.Letra,"Grafica Rampas");displayMenu(Menus.Letra,0,0,1,1);  
....................                 
....................                glcd_line(24,55-10,27,55-10,ON); 
....................                strcpy(Menus.Letra,"300");displayMenu(Menus.Letra,0,55-15,2,1);  
....................                glcd_line(24,55-20,27,55-20,ON); 
....................                strcpy(Menus.Letra,"600");displayMenu(Menus.Letra,0,55-25,2,1);  
....................                glcd_line(24,55-30,27,55-30,ON); 
....................                strcpy(Menus.Letra,"900");displayMenu(Menus.Letra,0,55-35,2,1); 
....................                glcd_line(24,55-40,27,55-40,ON); 
....................                strcpy(Menus.Letra,"1200");displayMenu(Menus.Letra,0,55-45,2,1);  
....................                 
....................                glcd_line(27+0,55-TempeInicial/30,27+(100/Pasos),55-Temperatura1[ProgramaSeleccionado*Pasos]/30,ON); 
....................                for(i=1;i<Pasos;i++){ 
....................                   glcd_line(27+(i+1*(100/Pasos)),55-Temperatura1[(ProgramaSeleccionado*Pasos)+i]/30,27+(i+2*(100/Pasos)),55-Temperatura1[(ProgramaSeleccionado*Pasos)+i+1]/30,ON); 
....................                } 
....................                glcd_update(); 
....................                for(i=0;i<80;i++) 
....................                { 
....................                   Temperatura=Leer_Sensor(MediaMovil); 
....................                } 
....................             delay_ms(3000); 
....................             glcd_fillscreen(OFF); 
....................       } 
....................       */       
....................       if(DOWN)//Si oprime hacia abajo 
096AE:  BSF    F96.0
096B0:  BTFSC  F84.0
096B2:  BRA    96B4
....................       {   
....................       } 
....................        
....................       if(RIGHT)//Si oprime SET 
096B4:  BSF    F96.1
096B6:  BTFSC  F84.1
096B8:  BRA    9708
....................       {   
....................          if(Pausa!=2) 
096BA:  MOVLB  6
096BC:  MOVF   x3C,W
096BE:  SUBLW  02
096C0:  BZ    9708
....................          { 
....................             if(Pausa==0) 
096C2:  MOVF   x3C,F
096C4:  BNZ   96DA
....................             { 
....................                delay_ms(200);Pausa=1; 
096C6:  MOVLW  C8
096C8:  MOVLB  9
096CA:  MOVWF  x4C
096CC:  MOVLB  0
096CE:  CALL   1440
096D2:  MOVLW  01
096D4:  MOVLB  6
096D6:  MOVWF  x3C
....................             } 
....................             else 
096D8:  BRA    96EA
....................             { 
....................                delay_ms(200);Pausa=0; 
096DA:  MOVLW  C8
096DC:  MOVLB  9
096DE:  MOVWF  x4C
096E0:  MOVLB  0
096E2:  CALL   1440
096E6:  MOVLB  6
096E8:  CLRF   x3C
....................             } 
....................             glcd_rect(0, 55, 127, 63, YES, OFF); 
096EA:  MOVLB  9
096EC:  CLRF   x4E
096EE:  MOVLW  37
096F0:  MOVWF  x4F
096F2:  MOVLW  7F
096F4:  MOVWF  x50
096F6:  MOVLW  3F
096F8:  MOVWF  x51
096FA:  MOVLW  01
096FC:  MOVWF  x52
096FE:  CLRF   x53
09700:  MOVLB  0
09702:  CALL   1874
09706:  MOVLB  6
....................          } 
....................       } 
....................        
....................          
....................       if(Lectura==1)// Utilizado para visualizar la lectura de la temperatura 
09708:  MOVLB  6
0970A:  BTFSS  x30.0
0970C:  BRA    9DA4
....................       {                  
....................           
....................          Lectura=0; 
0970E:  BCF    x30.0
....................          Potencia=(100.0/Tciclo)*Tpulso; 
09710:  MOVLB  9
09712:  CLRF   x4E
09714:  CLRF   x4D
09716:  MOVLW  48
09718:  MOVWF  x4C
0971A:  MOVLW  85
0971C:  MOVWF  x4B
0971E:  MOVFF  69E,952
09722:  MOVFF  69D,951
09726:  MOVFF  69C,950
0972A:  MOVFF  69B,94F
0972E:  MOVLB  0
09730:  CALL   211C
09734:  MOVFF  00,936
09738:  MOVFF  01,937
0973C:  MOVFF  02,938
09740:  MOVFF  03,939
09744:  MOVFF  03,95A
09748:  MOVFF  02,959
0974C:  MOVFF  01,958
09750:  MOVFF  00,957
09754:  MOVFF  6A2,95E
09758:  MOVFF  6A1,95D
0975C:  MOVFF  6A0,95C
09760:  MOVFF  69F,95B
09764:  CALL   227A
09768:  MOVFF  03,67E
0976C:  MOVFF  02,67D
09770:  MOVFF  01,67C
09774:  MOVFF  00,67B
....................           
....................  //----------------Muestra Temperatura-------------------------- 
....................          if(Temperatura>1250 || Temperatura<0) 
09778:  MOVLB  9
0977A:  CLRF   x39
0977C:  MOVLW  40
0977E:  MOVWF  x38
09780:  MOVLW  1C
09782:  MOVWF  x37
09784:  MOVLW  89
09786:  MOVWF  x36
09788:  MOVFF  6CE,93D
0978C:  MOVFF  6CD,93C
09790:  MOVFF  6CC,93B
09794:  MOVFF  6CB,93A
09798:  MOVLB  0
0979A:  CALL   275A
0979E:  BC    97C2
097A0:  MOVFF  6CE,939
097A4:  MOVFF  6CD,938
097A8:  MOVFF  6CC,937
097AC:  MOVFF  6CB,936
097B0:  MOVLB  9
097B2:  CLRF   x3D
097B4:  CLRF   x3C
097B6:  CLRF   x3B
097B8:  CLRF   x3A
097BA:  MOVLB  0
097BC:  CALL   275A
097C0:  BNC   982C
....................          { 
....................             glcd_rect(15, 29, 69, 45, YES, OFF); 
097C2:  MOVLW  0F
097C4:  MOVLB  9
097C6:  MOVWF  x4E
097C8:  MOVLW  1D
097CA:  MOVWF  x4F
097CC:  MOVLW  45
097CE:  MOVWF  x50
097D0:  MOVLW  2D
097D2:  MOVWF  x51
097D4:  MOVLW  01
097D6:  MOVWF  x52
097D8:  CLRF   x53
097DA:  MOVLB  0
097DC:  CALL   1874
....................             strcpy(Menus.Letra,"-----");displayMenu(Menus.Letra,15,29,2,2); 
097E0:  MOVLW  09
097E2:  MOVWF  FEA
097E4:  MOVLW  0D
097E6:  MOVWF  FE9
097E8:  MOVFF  FF2,936
097EC:  BCF    FF2.7
097EE:  MOVLW  00
097F0:  CALL   0DEE
097F4:  TBLRD*-
097F6:  TBLRD*+
097F8:  MOVF   FF5,W
097FA:  MOVWF  FEE
097FC:  IORLW  00
097FE:  BNZ   97F6
09800:  MOVLB  9
09802:  BTFSC  x36.7
09804:  BSF    FF2.7
09806:  MOVLW  09
09808:  MOVWF  x3E
0980A:  MOVLW  0D
0980C:  MOVWF  x3D
0980E:  MOVLW  0F
09810:  MOVWF  x3F
09812:  MOVLW  1D
09814:  MOVWF  x40
09816:  MOVLW  02
09818:  MOVWF  x41
0981A:  MOVWF  x42
0981C:  MOVLB  0
0981E:  CALL   1AEE
....................             Desconectado=1; 
09822:  MOVLB  6
09824:  BSF    x22.2
....................             Control=0; 
09826:  CLRF   x34
....................          } 
....................          else 
09828:  BRA    98B2
0982A:  MOVLB  0
....................          { 
....................             if(Desconectado==1) 
0982C:  MOVLB  6
0982E:  BTFSS  x22.2
09830:  BRA    9876
....................             { 
....................                Desconectado=0; 
09832:  BCF    x22.2
....................                delay_ms(2000); 
09834:  MOVLW  08
09836:  MOVLB  9
09838:  MOVWF  x36
0983A:  MOVLW  FA
0983C:  MOVWF  x4C
0983E:  MOVLB  0
09840:  CALL   1440
09844:  MOVLB  9
09846:  DECFSZ x36,F
09848:  BRA    983A
....................                for(i=0;i<80;i++) 
0984A:  MOVLB  6
0984C:  CLRF   x3A
0984E:  MOVF   x3A,W
09850:  SUBLW  4F
09852:  BNC   9876
....................                { 
....................                   Temperatura=Leer_Sensor(80); 
09854:  MOVLW  50
09856:  MOVLB  9
09858:  MOVWF  x36
0985A:  MOVLB  0
0985C:  CALL   2370
09860:  MOVFF  03,6CE
09864:  MOVFF  02,6CD
09868:  MOVFF  01,6CC
0986C:  MOVFF  00,6CB
....................                } 
09870:  MOVLB  6
09872:  INCF   x3A,F
09874:  BRA    984E
....................             } 
....................              
....................                displayT(Temperatura,15,29,2); 
09876:  MOVFF  6CE,945
0987A:  MOVFF  6CD,944
0987E:  MOVFF  6CC,943
09882:  MOVFF  6CB,942
09886:  MOVLB  0
09888:  CALL   27D4
0988C:  MOVFF  02,937
09890:  MOVFF  01,936
09894:  MOVFF  02,939
09898:  MOVFF  01,938
0989C:  MOVLW  0F
0989E:  MOVLB  9
098A0:  MOVWF  x3A
098A2:  MOVLW  1D
098A4:  MOVWF  x3B
098A6:  MOVLW  02
098A8:  MOVWF  x3C
098AA:  MOVLB  0
098AC:  GOTO   5BDA
098B0:  MOVLB  6
....................              
....................             //displayTemperatura(Temperatura,15,29,0,2); 
....................          } 
....................  
....................          //displayT(Temperatura,15,29,2); 
....................             Dibuja=0; 
098B2:  BCF    x30.7
....................             glcd_circle(74,30,2,NO,ON); 
098B4:  MOVLW  4A
098B6:  MOVLB  9
098B8:  MOVWF  x4E
098BA:  MOVLW  1E
098BC:  MOVWF  x4F
098BE:  MOVLW  02
098C0:  MOVWF  x50
098C2:  CLRF   x51
098C4:  MOVLW  01
098C6:  MOVWF  x52
098C8:  MOVLB  0
098CA:  CALL   357C
....................             strcpy(Menus.Letra,"C");displayMenu(Menus.Letra,75,30,2,2); 
098CE:  MOVLW  09
098D0:  MOVWF  FEA
098D2:  MOVLW  0D
098D4:  MOVWF  FE9
098D6:  MOVFF  FF2,936
098DA:  BCF    FF2.7
098DC:  MOVLW  00
098DE:  CALL   06D2
098E2:  TBLRD*-
098E4:  TBLRD*+
098E6:  MOVF   FF5,W
098E8:  MOVWF  FEE
098EA:  IORLW  00
098EC:  BNZ   98E4
098EE:  MOVLB  9
098F0:  BTFSC  x36.7
098F2:  BSF    FF2.7
098F4:  MOVLW  09
098F6:  MOVWF  x3E
098F8:  MOVLW  0D
098FA:  MOVWF  x3D
098FC:  MOVLW  4B
098FE:  MOVWF  x3F
09900:  MOVLW  1E
09902:  MOVWF  x40
09904:  MOVLW  02
09906:  MOVWF  x41
09908:  MOVWF  x42
0990A:  MOVLB  0
0990C:  CALL   1AEE
....................              
....................             displayTemperatura(Setpoint,30,45,0,1); 
09910:  MOVFF  6DA,945
09914:  MOVFF  6D9,944
09918:  MOVFF  6D8,943
0991C:  MOVFF  6D7,942
09920:  CALL   27D4
09924:  MOVFF  02,937
09928:  MOVFF  01,936
0992C:  MOVFF  02,93C
09930:  MOVFF  01,93B
09934:  MOVLW  1E
09936:  MOVLB  9
09938:  MOVWF  x3D
0993A:  MOVLW  2D
0993C:  MOVWF  x3E
0993E:  CLRF   x3F
09940:  MOVLW  01
09942:  MOVWF  x40
09944:  MOVLB  0
09946:  CALL   33C4
....................             glcd_circle(60,47,1,NO,ON); 
0994A:  MOVLW  3C
0994C:  MOVLB  9
0994E:  MOVWF  x4E
09950:  MOVLW  2F
09952:  MOVWF  x4F
09954:  MOVLW  01
09956:  MOVWF  x50
09958:  CLRF   x51
0995A:  MOVWF  x52
0995C:  MOVLB  0
0995E:  CALL   357C
....................             strcpy(Menus.Letra,"C");displayMenu(Menus.Letra,63,45,2,1); 
09962:  MOVLW  09
09964:  MOVWF  FEA
09966:  MOVLW  0D
09968:  MOVWF  FE9
0996A:  MOVFF  FF2,936
0996E:  BCF    FF2.7
09970:  MOVLW  00
09972:  CALL   06D2
09976:  TBLRD*-
09978:  TBLRD*+
0997A:  MOVF   FF5,W
0997C:  MOVWF  FEE
0997E:  IORLW  00
09980:  BNZ   9978
09982:  MOVLB  9
09984:  BTFSC  x36.7
09986:  BSF    FF2.7
09988:  MOVLW  09
0998A:  MOVWF  x3E
0998C:  MOVLW  0D
0998E:  MOVWF  x3D
09990:  MOVLW  3F
09992:  MOVWF  x3F
09994:  MOVLW  2D
09996:  MOVWF  x40
09998:  MOVLW  02
0999A:  MOVWF  x41
0999C:  MOVLW  01
0999E:  MOVWF  x42
099A0:  MOVLB  0
099A2:  CALL   1AEE
....................             strcpy(Menus.Letra,"Temp:");displayMenu(Menus.Letra,0,45,2,1);  
099A6:  MOVLW  09
099A8:  MOVWF  FEA
099AA:  MOVLW  0D
099AC:  MOVWF  FE9
099AE:  MOVFF  FF2,936
099B2:  BCF    FF2.7
099B4:  MOVLW  00
099B6:  CALL   0E12
099BA:  TBLRD*-
099BC:  TBLRD*+
099BE:  MOVF   FF5,W
099C0:  MOVWF  FEE
099C2:  IORLW  00
099C4:  BNZ   99BC
099C6:  MOVLB  9
099C8:  BTFSC  x36.7
099CA:  BSF    FF2.7
099CC:  MOVLW  09
099CE:  MOVWF  x3E
099D0:  MOVLW  0D
099D2:  MOVWF  x3D
099D4:  CLRF   x3F
099D6:  MOVLW  2D
099D8:  MOVWF  x40
099DA:  MOVLW  02
099DC:  MOVWF  x41
099DE:  MOVLW  01
099E0:  MOVWF  x42
099E2:  MOVLB  0
099E4:  CALL   1AEE
....................              
....................             strcpy(Menus.Letra,"Power:");displayMenu(Menus.Letra,91,32,2,1); 
099E8:  MOVLW  09
099EA:  MOVWF  FEA
099EC:  MOVLW  0D
099EE:  MOVWF  FE9
099F0:  MOVFF  FF2,936
099F4:  BCF    FF2.7
099F6:  MOVLW  00
099F8:  CALL   0E36
099FC:  TBLRD*-
099FE:  TBLRD*+
09A00:  MOVF   FF5,W
09A02:  MOVWF  FEE
09A04:  IORLW  00
09A06:  BNZ   99FE
09A08:  MOVLB  9
09A0A:  BTFSC  x36.7
09A0C:  BSF    FF2.7
09A0E:  MOVLW  09
09A10:  MOVWF  x3E
09A12:  MOVLW  0D
09A14:  MOVWF  x3D
09A16:  MOVLW  5B
09A18:  MOVWF  x3F
09A1A:  MOVLW  20
09A1C:  MOVWF  x40
09A1E:  MOVLW  02
09A20:  MOVWF  x41
09A22:  MOVLW  01
09A24:  MOVWF  x42
09A26:  MOVLB  0
09A28:  CALL   1AEE
....................             displayTiempo(Potencia,97,42,3,1);strcpy(Menus.Letra,"%");displayMenu(Menus.Letra,115,42,2,1); 
09A2C:  MOVFF  67E,945
09A30:  MOVFF  67D,944
09A34:  MOVFF  67C,943
09A38:  MOVFF  67B,942
09A3C:  CALL   27D4
09A40:  MOVFF  01,936
09A44:  MOVFF  01,939
09A48:  MOVLW  61
09A4A:  MOVLB  9
09A4C:  MOVWF  x3A
09A4E:  MOVLW  2A
09A50:  MOVWF  x3B
09A52:  MOVLW  03
09A54:  MOVWF  x3C
09A56:  MOVLW  01
09A58:  MOVWF  x3D
09A5A:  MOVLB  0
09A5C:  CALL   2FD6
09A60:  MOVLW  09
09A62:  MOVWF  FEA
09A64:  MOVLW  0D
09A66:  MOVWF  FE9
09A68:  MOVFF  FF2,936
09A6C:  BCF    FF2.7
09A6E:  MOVLW  00
09A70:  CALL   0E5C
09A74:  TBLRD*-
09A76:  TBLRD*+
09A78:  MOVF   FF5,W
09A7A:  MOVWF  FEE
09A7C:  IORLW  00
09A7E:  BNZ   9A76
09A80:  MOVLB  9
09A82:  BTFSC  x36.7
09A84:  BSF    FF2.7
09A86:  MOVLW  09
09A88:  MOVWF  x3E
09A8A:  MOVLW  0D
09A8C:  MOVWF  x3D
09A8E:  MOVLW  73
09A90:  MOVWF  x3F
09A92:  MOVLW  2A
09A94:  MOVWF  x40
09A96:  MOVLW  02
09A98:  MOVWF  x41
09A9A:  MOVLW  01
09A9C:  MOVWF  x42
09A9E:  MOVLB  0
09AA0:  CALL   1AEE
....................             strcpy(Menus.Letra,"Segm.");displayMenu(Menus.Letra,95,10,2,1); 
09AA4:  MOVLW  09
09AA6:  MOVWF  FEA
09AA8:  MOVLW  0D
09AAA:  MOVWF  FE9
09AAC:  MOVFF  FF2,936
09AB0:  BCF    FF2.7
09AB2:  MOVLW  00
09AB4:  CALL   0E7C
09AB8:  TBLRD*-
09ABA:  TBLRD*+
09ABC:  MOVF   FF5,W
09ABE:  MOVWF  FEE
09AC0:  IORLW  00
09AC2:  BNZ   9ABA
09AC4:  MOVLB  9
09AC6:  BTFSC  x36.7
09AC8:  BSF    FF2.7
09ACA:  MOVLW  09
09ACC:  MOVWF  x3E
09ACE:  MOVLW  0D
09AD0:  MOVWF  x3D
09AD2:  MOVLW  5F
09AD4:  MOVWF  x3F
09AD6:  MOVLW  0A
09AD8:  MOVWF  x40
09ADA:  MOVLW  02
09ADC:  MOVWF  x41
09ADE:  MOVLW  01
09AE0:  MOVWF  x42
09AE2:  MOVLB  0
09AE4:  CALL   1AEE
....................             displayTiempo(Segmento,96,20,3,1); 
09AE8:  MOVFF  62E,939
09AEC:  MOVLW  60
09AEE:  MOVLB  9
09AF0:  MOVWF  x3A
09AF2:  MOVLW  14
09AF4:  MOVWF  x3B
09AF6:  MOVLW  03
09AF8:  MOVWF  x3C
09AFA:  MOVLW  01
09AFC:  MOVWF  x3D
09AFE:  MOVLB  0
09B00:  CALL   2FD6
....................             glcd_rect(90, 0, 127, 54, NO, ON); 
09B04:  MOVLW  5A
09B06:  MOVLB  9
09B08:  MOVWF  x4E
09B0A:  CLRF   x4F
09B0C:  MOVLW  7F
09B0E:  MOVWF  x50
09B10:  MOVLW  36
09B12:  MOVWF  x51
09B14:  CLRF   x52
09B16:  MOVLW  01
09B18:  MOVWF  x53
09B1A:  MOVLB  0
09B1C:  CALL   1874
....................              
....................          //displayTiempo(Tpulsomin*10,97,42,3,1);strcpy(Menus.Letra,"%");displayMenu(Menus.Letra,115,42,2,1); 
....................           
....................          if(flag_display==1){ 
09B20:  MOVLB  6
09B22:  BTFSS  x30.5
09B24:  BRA    9B9A
....................             displayTiempo(penMufla,97,1,3,1); 
09B26:  MOVFF  6FE,945
09B2A:  MOVFF  6FD,944
09B2E:  MOVFF  6FC,943
09B32:  MOVFF  6FB,942
09B36:  MOVLB  0
09B38:  CALL   27D4
09B3C:  MOVFF  01,936
09B40:  MOVFF  01,939
09B44:  MOVLW  61
09B46:  MOVLB  9
09B48:  MOVWF  x3A
09B4A:  MOVLW  01
09B4C:  MOVWF  x3B
09B4E:  MOVLW  03
09B50:  MOVWF  x3C
09B52:  MOVLW  01
09B54:  MOVWF  x3D
09B56:  MOVLB  0
09B58:  CALL   2FD6
....................             //displayTemperatura(Prom,97,13,0,1); 
....................             //displayFloat(Setpoint-TempeInicial,97,13,1); 
....................             displayFloat(sensores(0),97,10,1);} 
09B5C:  MOVLB  9
09B5E:  CLRF   x47
09B60:  MOVLB  0
09B62:  CALL   1E2C
09B66:  MOVFF  00,936
09B6A:  MOVFF  01,937
09B6E:  MOVFF  02,938
09B72:  MOVFF  03,939
09B76:  MOVFF  03,93D
09B7A:  MOVFF  02,93C
09B7E:  MOVFF  01,93B
09B82:  MOVFF  00,93A
09B86:  MOVLW  61
09B88:  MOVLB  9
09B8A:  MOVWF  x3E
09B8C:  MOVLW  0A
09B8E:  MOVWF  x3F
09B90:  MOVLW  01
09B92:  MOVWF  x40
09B94:  MOVLB  0
09B96:  CALL   5EC2
....................   //       else{ 
.................... //            glcd_rect(60, 46, 88, 52, YES, OFF); 
.................... //            glcd_rect(97, 13, 88, 52, YES, OFF); 
....................          //} 
....................           
....................          // Muestra Valor de esterilizacion Programado. 
....................             displayTiempo(Testerilizacion[3],20,2,0,2);displayTiempo(Testerilizacion[2],33,2,0,2); 
09B9A:  MOVFF  68A,939
09B9E:  MOVLW  14
09BA0:  MOVLB  9
09BA2:  MOVWF  x3A
09BA4:  MOVLW  02
09BA6:  MOVWF  x3B
09BA8:  CLRF   x3C
09BAA:  MOVWF  x3D
09BAC:  MOVLB  0
09BAE:  CALL   2FD6
09BB2:  MOVFF  689,939
09BB6:  MOVLW  21
09BB8:  MOVLB  9
09BBA:  MOVWF  x3A
09BBC:  MOVLW  02
09BBE:  MOVWF  x3B
09BC0:  CLRF   x3C
09BC2:  MOVWF  x3D
09BC4:  MOVLB  0
09BC6:  CALL   2FD6
....................             strcpy(Menus.Letra,":");displayMenu(Menus.Letra,46,2,2,2);  
09BCA:  MOVLW  09
09BCC:  MOVWF  FEA
09BCE:  MOVLW  0D
09BD0:  MOVWF  FE9
09BD2:  MOVFF  FF2,936
09BD6:  BCF    FF2.7
09BD8:  MOVLW  00
09BDA:  CALL   0EA0
09BDE:  TBLRD*-
09BE0:  TBLRD*+
09BE2:  MOVF   FF5,W
09BE4:  MOVWF  FEE
09BE6:  IORLW  00
09BE8:  BNZ   9BE0
09BEA:  MOVLB  9
09BEC:  BTFSC  x36.7
09BEE:  BSF    FF2.7
09BF0:  MOVLW  09
09BF2:  MOVWF  x3E
09BF4:  MOVLW  0D
09BF6:  MOVWF  x3D
09BF8:  MOVLW  2E
09BFA:  MOVWF  x3F
09BFC:  MOVLW  02
09BFE:  MOVWF  x40
09C00:  MOVWF  x41
09C02:  MOVWF  x42
09C04:  MOVLB  0
09C06:  CALL   1AEE
....................             displayTiempo(Testerilizacion[1],55,2,0,2);displayTiempo(Testerilizacion[0],68,2,0,2); 
09C0A:  MOVFF  688,939
09C0E:  MOVLW  37
09C10:  MOVLB  9
09C12:  MOVWF  x3A
09C14:  MOVLW  02
09C16:  MOVWF  x3B
09C18:  CLRF   x3C
09C1A:  MOVWF  x3D
09C1C:  MOVLB  0
09C1E:  CALL   2FD6
09C22:  MOVFF  687,939
09C26:  MOVLW  44
09C28:  MOVLB  9
09C2A:  MOVWF  x3A
09C2C:  MOVLW  02
09C2E:  MOVWF  x3B
09C30:  CLRF   x3C
09C32:  MOVWF  x3D
09C34:  MOVLB  0
09C36:  CALL   2FD6
....................              
....................             // Muestra Valor de esterilizacion actual. 
....................             strcpy(Menus.Letra,"Time:");displayMenu(Menus.Letra,0,18,2,1);  
09C3A:  MOVLW  09
09C3C:  MOVWF  FEA
09C3E:  MOVLW  0D
09C40:  MOVWF  FE9
09C42:  MOVFF  FF2,936
09C46:  BCF    FF2.7
09C48:  MOVLW  00
09C4A:  CALL   0EC0
09C4E:  TBLRD*-
09C50:  TBLRD*+
09C52:  MOVF   FF5,W
09C54:  MOVWF  FEE
09C56:  IORLW  00
09C58:  BNZ   9C50
09C5A:  MOVLB  9
09C5C:  BTFSC  x36.7
09C5E:  BSF    FF2.7
09C60:  MOVLW  09
09C62:  MOVWF  x3E
09C64:  MOVLW  0D
09C66:  MOVWF  x3D
09C68:  CLRF   x3F
09C6A:  MOVLW  12
09C6C:  MOVWF  x40
09C6E:  MOVLW  02
09C70:  MOVWF  x41
09C72:  MOVLW  01
09C74:  MOVWF  x42
09C76:  MOVLB  0
09C78:  CALL   1AEE
....................             //displayTiempos(Horas1[Segmento],30,18,2,1);//displayTiempo(Testerilizacionp[2],36,18,0,1); 
....................             displayTiempo(Testerilizacionp[3],30,18,0,1);displayTiempo(Testerilizacionp[2],36,18,0,1); 
09C7C:  MOVFF  68E,939
09C80:  MOVLW  1E
09C82:  MOVLB  9
09C84:  MOVWF  x3A
09C86:  MOVLW  12
09C88:  MOVWF  x3B
09C8A:  CLRF   x3C
09C8C:  MOVLW  01
09C8E:  MOVWF  x3D
09C90:  MOVLB  0
09C92:  CALL   2FD6
09C96:  MOVFF  68D,939
09C9A:  MOVLW  24
09C9C:  MOVLB  9
09C9E:  MOVWF  x3A
09CA0:  MOVLW  12
09CA2:  MOVWF  x3B
09CA4:  CLRF   x3C
09CA6:  MOVLW  01
09CA8:  MOVWF  x3D
09CAA:  MOVLB  0
09CAC:  CALL   2FD6
....................             strcpy(Menus.Letra,":");displayMenu(Menus.Letra,42,18,2,1);  
09CB0:  MOVLW  09
09CB2:  MOVWF  FEA
09CB4:  MOVLW  0D
09CB6:  MOVWF  FE9
09CB8:  MOVFF  FF2,936
09CBC:  BCF    FF2.7
09CBE:  MOVLW  00
09CC0:  CALL   0EA0
09CC4:  TBLRD*-
09CC6:  TBLRD*+
09CC8:  MOVF   FF5,W
09CCA:  MOVWF  FEE
09CCC:  IORLW  00
09CCE:  BNZ   9CC6
09CD0:  MOVLB  9
09CD2:  BTFSC  x36.7
09CD4:  BSF    FF2.7
09CD6:  MOVLW  09
09CD8:  MOVWF  x3E
09CDA:  MOVLW  0D
09CDC:  MOVWF  x3D
09CDE:  MOVLW  2A
09CE0:  MOVWF  x3F
09CE2:  MOVLW  12
09CE4:  MOVWF  x40
09CE6:  MOVLW  02
09CE8:  MOVWF  x41
09CEA:  MOVLW  01
09CEC:  MOVWF  x42
09CEE:  MOVLB  0
09CF0:  CALL   1AEE
....................             //displayTiempos(Minutos1[Segmento],48,18,2,1);//displayTiempo(Testerilizacionp[0],54,18,0,1); 
....................             displayTiempo(Testerilizacionp[1],48,18,0,1);displayTiempo(Testerilizacionp[0],54,18,0,1); 
09CF4:  MOVFF  68C,939
09CF8:  MOVLW  30
09CFA:  MOVLB  9
09CFC:  MOVWF  x3A
09CFE:  MOVLW  12
09D00:  MOVWF  x3B
09D02:  CLRF   x3C
09D04:  MOVLW  01
09D06:  MOVWF  x3D
09D08:  MOVLB  0
09D0A:  CALL   2FD6
09D0E:  MOVFF  68B,939
09D12:  MOVLW  36
09D14:  MOVLB  9
09D16:  MOVWF  x3A
09D18:  MOVLW  12
09D1A:  MOVWF  x3B
09D1C:  CLRF   x3C
09D1E:  MOVLW  01
09D20:  MOVWF  x3D
09D22:  MOVLB  0
09D24:  CALL   2FD6
....................             strcpy(Menus.Letra,"(H:M)");displayMenu(Menus.Letra,60,18,2,1);  
09D28:  MOVLW  09
09D2A:  MOVWF  FEA
09D2C:  MOVLW  0D
09D2E:  MOVWF  FE9
09D30:  MOVFF  FF2,936
09D34:  BCF    FF2.7
09D36:  MOVLW  00
09D38:  CALL   0EE4
09D3C:  TBLRD*-
09D3E:  TBLRD*+
09D40:  MOVF   FF5,W
09D42:  MOVWF  FEE
09D44:  IORLW  00
09D46:  BNZ   9D3E
09D48:  MOVLB  9
09D4A:  BTFSC  x36.7
09D4C:  BSF    FF2.7
09D4E:  MOVLW  09
09D50:  MOVWF  x3E
09D52:  MOVLW  0D
09D54:  MOVWF  x3D
09D56:  MOVLW  3C
09D58:  MOVWF  x3F
09D5A:  MOVLW  12
09D5C:  MOVWF  x40
09D5E:  MOVLW  02
09D60:  MOVWF  x41
09D62:  MOVLW  01
09D64:  MOVWF  x42
09D66:  MOVLB  0
09D68:  CALL   1AEE
....................           
....................             glcd_rect(0, 0, 89, 27, NO, ON); 
09D6C:  MOVLB  9
09D6E:  CLRF   x4E
09D70:  CLRF   x4F
09D72:  MOVLW  59
09D74:  MOVWF  x50
09D76:  MOVLW  1B
09D78:  MOVWF  x51
09D7A:  CLRF   x52
09D7C:  MOVLW  01
09D7E:  MOVWF  x53
09D80:  MOVLB  0
09D82:  CALL   1874
....................             glcd_rect(0, 27, 89, 54, NO, ON); 
09D86:  MOVLB  9
09D88:  CLRF   x4E
09D8A:  MOVLW  1B
09D8C:  MOVWF  x4F
09D8E:  MOVLW  59
09D90:  MOVWF  x50
09D92:  MOVLW  36
09D94:  MOVWF  x51
09D96:  CLRF   x52
09D98:  MOVLW  01
09D9A:  MOVWF  x53
09D9C:  MOVLB  0
09D9E:  CALL   1874
09DA2:  MOVLB  6
....................       }  
....................       
....................       // Si cumplio el tiempo de esterilizacin, Muestre ciclo finalizado y detenga control de temperatura. 
....................       if((Testerilizacion[0]>=Testerilizacionp[0])&&(Testerilizacion[1]>=Testerilizacionp[1])&&(Testerilizacion[2]>=Testerilizacionp[2])&&(Testerilizacion[3]>=Testerilizacionp[3]) && Pausa<3) 
09DA4:  MOVF   x8B,W
09DA6:  XORLW  80
09DA8:  MOVWF  00
09DAA:  MOVF   x87,W
09DAC:  XORLW  80
09DAE:  SUBWF  00,W
09DB0:  BZ    9DB6
09DB2:  BTFSC  FD8.0
09DB4:  BRA    9EB8
09DB6:  MOVF   x8C,W
09DB8:  XORLW  80
09DBA:  MOVWF  00
09DBC:  MOVF   x88,W
09DBE:  XORLW  80
09DC0:  SUBWF  00,W
09DC2:  BZ    9DC8
09DC4:  BTFSC  FD8.0
09DC6:  BRA    9EB8
09DC8:  MOVF   x8D,W
09DCA:  XORLW  80
09DCC:  MOVWF  00
09DCE:  MOVF   x89,W
09DD0:  XORLW  80
09DD2:  SUBWF  00,W
09DD4:  BZ    9DD8
09DD6:  BC    9EB8
09DD8:  MOVF   x8E,W
09DDA:  XORLW  80
09DDC:  MOVWF  00
09DDE:  MOVF   x8A,W
09DE0:  XORLW  80
09DE2:  SUBWF  00,W
09DE4:  BZ    9DE8
09DE6:  BC    9EB8
09DE8:  MOVF   x3C,W
09DEA:  SUBLW  02
09DEC:  BNC   9EB8
....................       { 
....................          flag_calcula=0; 
09DEE:  BCF    x30.1
....................          if(Segmento<Segmentos){ 
09DF0:  MOVF   x2D,W
09DF2:  SUBWF  x2E,W
09DF4:  BC    9E02
....................             Segmento++; 
09DF6:  INCF   x2E,F
....................             Testerilizacion[0]=0; 
09DF8:  CLRF   x87
....................             Testerilizacion[1]=0; 
09DFA:  CLRF   x88
....................             Testerilizacion[2]=0; 
09DFC:  CLRF   x89
....................             Testerilizacion[3]=0; 
09DFE:  CLRF   x8A
....................          } 
....................          else{ 
09E00:  BRA    9E06
....................             Pausa=3; 
09E02:  MOVLW  03
09E04:  MOVWF  x3C
....................          } 
....................          glcd_fillScreen(OFF); 
09E06:  MOVLB  9
09E08:  CLRF   x3D
09E0A:  MOVLB  0
09E0C:  CALL   14C0
....................          Buzz_on; 
09E10:  BSF    F8B.5
09E12:  BCF    F94.5
....................          delay_ms(1000); 
09E14:  MOVLW  04
09E16:  MOVLB  9
09E18:  MOVWF  x36
09E1A:  MOVLW  FA
09E1C:  MOVWF  x4C
09E1E:  MOVLB  0
09E20:  CALL   1440
09E24:  MOVLB  9
09E26:  DECFSZ x36,F
09E28:  BRA    9E1A
....................          Buzz_off; 
09E2A:  BCF    F8B.5
09E2C:  BCF    F94.5
....................          delay_ms(1000); 
09E2E:  MOVLW  04
09E30:  MOVWF  x36
09E32:  MOVLW  FA
09E34:  MOVWF  x4C
09E36:  MOVLB  0
09E38:  CALL   1440
09E3C:  MOVLB  9
09E3E:  DECFSZ x36,F
09E40:  BRA    9E32
....................          glcd_init(ON); 
09E42:  MOVLW  01
09E44:  MOVWF  x36
09E46:  MOVLB  0
09E48:  CALL   15D2
....................          strcpy(Menus.Letra,"Status:Cambio Seg."); 
09E4C:  MOVLW  09
09E4E:  MOVWF  FEA
09E50:  MOVLW  0D
09E52:  MOVWF  FE9
09E54:  MOVFF  FF2,936
09E58:  BCF    FF2.7
09E5A:  MOVLW  00
09E5C:  CALL   0F08
09E60:  TBLRD*-
09E62:  TBLRD*+
09E64:  MOVF   FF5,W
09E66:  MOVWF  FEE
09E68:  IORLW  00
09E6A:  BNZ   9E62
09E6C:  MOVLB  9
09E6E:  BTFSC  x36.7
09E70:  BSF    FF2.7
....................          displayMenu(Menus.Letra,0,55,2,1);          
09E72:  MOVLW  09
09E74:  MOVWF  x3E
09E76:  MOVLW  0D
09E78:  MOVWF  x3D
09E7A:  CLRF   x3F
09E7C:  MOVLW  37
09E7E:  MOVWF  x40
09E80:  MOVLW  02
09E82:  MOVWF  x41
09E84:  MOVLW  01
09E86:  MOVWF  x42
09E88:  MOVLB  0
09E8A:  CALL   1AEE
....................          delay_ms(500); 
09E8E:  MOVLW  02
09E90:  MOVLB  9
09E92:  MOVWF  x36
09E94:  MOVLW  FA
09E96:  MOVWF  x4C
09E98:  MOVLB  0
09E9A:  CALL   1440
09E9E:  MOVLB  9
09EA0:  DECFSZ x36,F
09EA2:  BRA    9E94
....................           
....................          if(Pausa==3){ 
09EA4:  MOVLB  6
09EA6:  MOVF   x3C,W
09EA8:  SUBLW  03
09EAA:  BNZ   9EB8
....................             glcd_fillScreen(OFF); 
09EAC:  MOVLB  9
09EAE:  CLRF   x3D
09EB0:  MOVLB  0
09EB2:  CALL   14C0
09EB6:  MOVLB  6
....................          } 
....................       }  
....................        
....................       if(tinicio>=60) 
09EB8:  MOVF   x4E,F
09EBA:  BNZ   9EC2
09EBC:  MOVF   x4D,W
09EBE:  SUBLW  3B
09EC0:  BC    9EFE
....................       { 
....................          tinicio=0; 
09EC2:  CLRF   x4E
09EC4:  CLRF   x4D
....................          Testerilizacion[0]++; 
09EC6:  INCF   x87,F
....................          if(Testerilizacion[0]>9) 
09EC8:  BTFSC  x87.7
09ECA:  BRA    9ED6
09ECC:  MOVF   x87,W
09ECE:  SUBLW  09
09ED0:  BC    9ED6
....................          { 
....................             Testerilizacion[0]=0; 
09ED2:  CLRF   x87
....................             Testerilizacion[1]++; 
09ED4:  INCF   x88,F
....................          } 
....................          if(Testerilizacion[1]>5) 
09ED6:  BTFSC  x88.7
09ED8:  BRA    9EE4
09EDA:  MOVF   x88,W
09EDC:  SUBLW  05
09EDE:  BC    9EE4
....................          { 
....................             Testerilizacion[1]=0; 
09EE0:  CLRF   x88
....................             Testerilizacion[2]++; 
09EE2:  INCF   x89,F
....................          } 
....................          if(Testerilizacion[2]>9) 
09EE4:  BTFSC  x89.7
09EE6:  BRA    9EF2
09EE8:  MOVF   x89,W
09EEA:  SUBLW  09
09EEC:  BC    9EF2
....................          { 
....................             Testerilizacion[2]=0; 
09EEE:  CLRF   x89
....................             Testerilizacion[3]++; 
09EF0:  INCF   x8A,F
....................          } 
....................          if(Testerilizacion[3]>9) 
09EF2:  BTFSC  x8A.7
09EF4:  BRA    9EFE
09EF6:  MOVF   x8A,W
09EF8:  SUBLW  09
09EFA:  BC    9EFE
....................          { 
....................             Testerilizacion[3]=0; 
09EFC:  CLRF   x8A
....................          } 
....................       } 
....................        
....................       if(LEFT)//Si oprime boton de Toma. 
09EFE:  BSF    F96.2
09F00:  BTFSC  F84.2
09F02:  BRA    9F42
....................       { 
....................          if(Pausa<3){ 
09F04:  MOVF   x3C,W
09F06:  SUBLW  02
09F08:  BNC   9F42
....................             if(Pausa!=2) 
09F0A:  MOVF   x3C,W
09F0C:  SUBLW  02
09F0E:  BZ    9F42
....................             { 
....................                delay_ms(500);Menu=30;glcd_fillscreen(OFF);Opcion=1;visual=1;Pausa=1;Menu=1; 
09F10:  MOVLW  02
09F12:  MOVLB  9
09F14:  MOVWF  x36
09F16:  MOVLW  FA
09F18:  MOVWF  x4C
09F1A:  MOVLB  0
09F1C:  CALL   1440
09F20:  MOVLB  9
09F22:  DECFSZ x36,F
09F24:  BRA    9F16
09F26:  MOVLW  1E
09F28:  MOVLB  6
09F2A:  MOVWF  x38
09F2C:  MOVLB  9
09F2E:  CLRF   x3D
09F30:  MOVLB  0
09F32:  CALL   14C0
09F36:  MOVLW  01
09F38:  MOVLB  6
09F3A:  MOVWF  x3F
09F3C:  BSF    x22.7
09F3E:  MOVWF  x3C
09F40:  MOVWF  x38
....................             } 
....................          } 
....................       } 
....................        
....................       if(Pausa==3 && !DOOR){          
09F42:  MOVF   x3C,W
09F44:  SUBLW  03
09F46:  BTFSS  FD8.2
09F48:  BRA    A118
09F4A:  BSF    F92.4
09F4C:  BTFSC  F80.4
09F4E:  BRA    A118
....................          //strcpy(Menus.Letra,"Status:Finalizado"); 
....................          if(Temperatura>80){ 
09F50:  MOVLB  9
09F52:  CLRF   x39
09F54:  CLRF   x38
09F56:  MOVLW  20
09F58:  MOVWF  x37
09F5A:  MOVLW  85
09F5C:  MOVWF  x36
09F5E:  MOVFF  6CE,93D
09F62:  MOVFF  6CD,93C
09F66:  MOVFF  6CC,93B
09F6A:  MOVFF  6CB,93A
09F6E:  MOVLB  0
09F70:  CALL   275A
09F74:  BNC   A03E
....................             if(mensaje){ 
09F76:  MOVLB  6
09F78:  BTFSS  x22.3
09F7A:  BRA    9FDE
....................                glcd_rect(0, 55, 127, 63, YES, OFF); 
09F7C:  MOVLB  9
09F7E:  CLRF   x4E
09F80:  MOVLW  37
09F82:  MOVWF  x4F
09F84:  MOVLW  7F
09F86:  MOVWF  x50
09F88:  MOVLW  3F
09F8A:  MOVWF  x51
09F8C:  MOVLW  01
09F8E:  MOVWF  x52
09F90:  CLRF   x53
09F92:  MOVLB  0
09F94:  CALL   1874
....................                strcpy(Menus.Letra,"NO APAGUE EL EQUIPO"); 
09F98:  MOVLW  09
09F9A:  MOVWF  FEA
09F9C:  MOVLW  0D
09F9E:  MOVWF  FE9
09FA0:  MOVFF  FF2,936
09FA4:  BCF    FF2.7
09FA6:  MOVLW  00
09FA8:  CALL   0F3A
09FAC:  TBLRD*-
09FAE:  TBLRD*+
09FB0:  MOVF   FF5,W
09FB2:  MOVWF  FEE
09FB4:  IORLW  00
09FB6:  BNZ   9FAE
09FB8:  MOVLB  9
09FBA:  BTFSC  x36.7
09FBC:  BSF    FF2.7
....................                displayMenu(Menus.Letra,0,55,2,1); 
09FBE:  MOVLW  09
09FC0:  MOVWF  x3E
09FC2:  MOVLW  0D
09FC4:  MOVWF  x3D
09FC6:  CLRF   x3F
09FC8:  MOVLW  37
09FCA:  MOVWF  x40
09FCC:  MOVLW  02
09FCE:  MOVWF  x41
09FD0:  MOVLW  01
09FD2:  MOVWF  x42
09FD4:  MOVLB  0
09FD6:  CALL   1AEE
....................             }else{ 
09FDA:  BRA    A03C
09FDC:  MOVLB  6
....................                glcd_rect(0, 55, 127, 63, YES, OFF); 
09FDE:  MOVLB  9
09FE0:  CLRF   x4E
09FE2:  MOVLW  37
09FE4:  MOVWF  x4F
09FE6:  MOVLW  7F
09FE8:  MOVWF  x50
09FEA:  MOVLW  3F
09FEC:  MOVWF  x51
09FEE:  MOVLW  01
09FF0:  MOVWF  x52
09FF2:  CLRF   x53
09FF4:  MOVLB  0
09FF6:  CALL   1874
....................                strcpy(Menus.Letra,"Status:Finalizado"); 
09FFA:  MOVLW  09
09FFC:  MOVWF  FEA
09FFE:  MOVLW  0D
0A000:  MOVWF  FE9
0A002:  MOVFF  FF2,936
0A006:  BCF    FF2.7
0A008:  MOVLW  00
0A00A:  CALL   0F6C
0A00E:  TBLRD*-
0A010:  TBLRD*+
0A012:  MOVF   FF5,W
0A014:  MOVWF  FEE
0A016:  IORLW  00
0A018:  BNZ   A010
0A01A:  MOVLB  9
0A01C:  BTFSC  x36.7
0A01E:  BSF    FF2.7
....................                displayMenu(Menus.Letra,0,55,2,1); 
0A020:  MOVLW  09
0A022:  MOVWF  x3E
0A024:  MOVLW  0D
0A026:  MOVWF  x3D
0A028:  CLRF   x3F
0A02A:  MOVLW  37
0A02C:  MOVWF  x40
0A02E:  MOVLW  02
0A030:  MOVWF  x41
0A032:  MOVLW  01
0A034:  MOVWF  x42
0A036:  MOVLB  0
0A038:  CALL   1AEE
....................             } 
....................          }else{ 
0A03C:  BRA    A104
....................             if(mensaje){ 
0A03E:  MOVLB  6
0A040:  BTFSS  x22.3
0A042:  BRA    A0A6
....................                glcd_rect(0, 55, 127, 63, YES, OFF); 
0A044:  MOVLB  9
0A046:  CLRF   x4E
0A048:  MOVLW  37
0A04A:  MOVWF  x4F
0A04C:  MOVLW  7F
0A04E:  MOVWF  x50
0A050:  MOVLW  3F
0A052:  MOVWF  x51
0A054:  MOVLW  01
0A056:  MOVWF  x52
0A058:  CLRF   x53
0A05A:  MOVLB  0
0A05C:  CALL   1874
....................                strcpy(Menus.Letra,"Puede apagar la Mufla"); 
0A060:  MOVLW  09
0A062:  MOVWF  FEA
0A064:  MOVLW  0D
0A066:  MOVWF  FE9
0A068:  MOVFF  FF2,936
0A06C:  BCF    FF2.7
0A06E:  MOVLW  00
0A070:  CALL   0F9C
0A074:  TBLRD*-
0A076:  TBLRD*+
0A078:  MOVF   FF5,W
0A07A:  MOVWF  FEE
0A07C:  IORLW  00
0A07E:  BNZ   A076
0A080:  MOVLB  9
0A082:  BTFSC  x36.7
0A084:  BSF    FF2.7
....................                displayMenu(Menus.Letra,0,55,2,1); 
0A086:  MOVLW  09
0A088:  MOVWF  x3E
0A08A:  MOVLW  0D
0A08C:  MOVWF  x3D
0A08E:  CLRF   x3F
0A090:  MOVLW  37
0A092:  MOVWF  x40
0A094:  MOVLW  02
0A096:  MOVWF  x41
0A098:  MOVLW  01
0A09A:  MOVWF  x42
0A09C:  MOVLB  0
0A09E:  CALL   1AEE
....................             }else{ 
0A0A2:  BRA    A104
0A0A4:  MOVLB  6
....................                glcd_rect(0, 55, 127, 63, YES, OFF); 
0A0A6:  MOVLB  9
0A0A8:  CLRF   x4E
0A0AA:  MOVLW  37
0A0AC:  MOVWF  x4F
0A0AE:  MOVLW  7F
0A0B0:  MOVWF  x50
0A0B2:  MOVLW  3F
0A0B4:  MOVWF  x51
0A0B6:  MOVLW  01
0A0B8:  MOVWF  x52
0A0BA:  CLRF   x53
0A0BC:  MOVLB  0
0A0BE:  CALL   1874
....................                strcpy(Menus.Letra,"Status:Finalizado"); 
0A0C2:  MOVLW  09
0A0C4:  MOVWF  FEA
0A0C6:  MOVLW  0D
0A0C8:  MOVWF  FE9
0A0CA:  MOVFF  FF2,936
0A0CE:  BCF    FF2.7
0A0D0:  MOVLW  00
0A0D2:  CALL   0F6C
0A0D6:  TBLRD*-
0A0D8:  TBLRD*+
0A0DA:  MOVF   FF5,W
0A0DC:  MOVWF  FEE
0A0DE:  IORLW  00
0A0E0:  BNZ   A0D8
0A0E2:  MOVLB  9
0A0E4:  BTFSC  x36.7
0A0E6:  BSF    FF2.7
....................                displayMenu(Menus.Letra,0,55,2,1); 
0A0E8:  MOVLW  09
0A0EA:  MOVWF  x3E
0A0EC:  MOVLW  0D
0A0EE:  MOVWF  x3D
0A0F0:  CLRF   x3F
0A0F2:  MOVLW  37
0A0F4:  MOVWF  x40
0A0F6:  MOVLW  02
0A0F8:  MOVWF  x41
0A0FA:  MOVLW  01
0A0FC:  MOVWF  x42
0A0FE:  MOVLB  0
0A100:  CALL   1AEE
....................             } 
....................          } 
....................          tiempo_esterilizacion=4; 
0A104:  MOVLW  04
0A106:  MOVLB  6
0A108:  MOVWF  x40
....................          Control=0; 
0A10A:  CLRF   x34
....................          Resistencia_off; 
0A10C:  BCF    F8B.0
0A10E:  BCF    F94.0
....................          Tpulso=0.0; 
0A110:  CLRF   xA2
0A112:  CLRF   xA1
0A114:  CLRF   xA0
0A116:  CLRF   x9F
....................       } 
....................          
....................     } 
.................... //_--------------------------------------------------------------------------------------------------------------------------------------------------------        
....................  
.................... //_-------------------------------------------------------------------------------------------------------------------------------------------------------- 
....................       if(Menu==100){ //Menu de Configuracin de Parametros de Control 
0A118:  MOVF   x38,W
0A11A:  SUBLW  64
0A11C:  BTFSS  FD8.2
0A11E:  GOTO   A988
....................        
....................       if(Opcion>13) 
0A122:  MOVF   x3F,W
0A124:  SUBLW  0D
0A126:  BC    A12C
....................       {Opcion=1;} 
0A128:  MOVLW  01
0A12A:  MOVWF  x3F
....................       if(Opcion<1) 
0A12C:  MOVF   x3F,F
0A12E:  BNZ   A134
....................       {Opcion=13;} 
0A130:  MOVLW  0D
0A132:  MOVWF  x3F
....................        
....................       if(Opcion<=6){ 
0A134:  MOVF   x3F,W
0A136:  SUBLW  06
0A138:  BTFSS  FD8.0
0A13A:  BRA    A498
....................          if(Opcion==1)    
0A13C:  DECFSZ x3F,W
0A13E:  BRA    A184
....................             {strcpy(Menus.Letra,"Proporcional"); 
0A140:  MOVLW  09
0A142:  MOVWF  FEA
0A144:  MOVLW  0D
0A146:  MOVWF  FE9
0A148:  MOVFF  FF2,936
0A14C:  BCF    FF2.7
0A14E:  MOVLW  00
0A150:  MOVLB  0
0A152:  CALL   0FD0
0A156:  TBLRD*-
0A158:  TBLRD*+
0A15A:  MOVF   FF5,W
0A15C:  MOVWF  FEE
0A15E:  IORLW  00
0A160:  BNZ   A158
0A162:  MOVLB  9
0A164:  BTFSC  x36.7
0A166:  BSF    FF2.7
....................             displayMenu(Menus.Letra,0,0,1,1);} 
0A168:  MOVLW  09
0A16A:  MOVWF  x3E
0A16C:  MOVLW  0D
0A16E:  MOVWF  x3D
0A170:  CLRF   x3F
0A172:  CLRF   x40
0A174:  MOVLW  01
0A176:  MOVWF  x41
0A178:  MOVWF  x42
0A17A:  MOVLB  0
0A17C:  CALL   1AEE
....................          else 
0A180:  BRA    A1C4
0A182:  MOVLB  6
....................             {strcpy(Menus.Letra,"Proporcional"); 
0A184:  MOVLW  09
0A186:  MOVWF  FEA
0A188:  MOVLW  0D
0A18A:  MOVWF  FE9
0A18C:  MOVFF  FF2,936
0A190:  BCF    FF2.7
0A192:  MOVLW  00
0A194:  MOVLB  0
0A196:  CALL   0FD0
0A19A:  TBLRD*-
0A19C:  TBLRD*+
0A19E:  MOVF   FF5,W
0A1A0:  MOVWF  FEE
0A1A2:  IORLW  00
0A1A4:  BNZ   A19C
0A1A6:  MOVLB  9
0A1A8:  BTFSC  x36.7
0A1AA:  BSF    FF2.7
....................             displayMenu(Menus.Letra,0,0,0,1);} 
0A1AC:  MOVLW  09
0A1AE:  MOVWF  x3E
0A1B0:  MOVLW  0D
0A1B2:  MOVWF  x3D
0A1B4:  CLRF   x3F
0A1B6:  CLRF   x40
0A1B8:  CLRF   x41
0A1BA:  MOVLW  01
0A1BC:  MOVWF  x42
0A1BE:  MOVLB  0
0A1C0:  CALL   1AEE
....................           
....................          if(Opcion==2)    
0A1C4:  MOVLB  6
0A1C6:  MOVF   x3F,W
0A1C8:  SUBLW  02
0A1CA:  BNZ   A212
....................             {strcpy(Menus.Letra,"Integral"); 
0A1CC:  MOVLW  09
0A1CE:  MOVWF  FEA
0A1D0:  MOVLW  0D
0A1D2:  MOVWF  FE9
0A1D4:  MOVFF  FF2,936
0A1D8:  BCF    FF2.7
0A1DA:  MOVLW  00
0A1DC:  MOVLB  0
0A1DE:  CALL   0FFC
0A1E2:  TBLRD*-
0A1E4:  TBLRD*+
0A1E6:  MOVF   FF5,W
0A1E8:  MOVWF  FEE
0A1EA:  IORLW  00
0A1EC:  BNZ   A1E4
0A1EE:  MOVLB  9
0A1F0:  BTFSC  x36.7
0A1F2:  BSF    FF2.7
....................             displayMenu(Menus.Letra,0,9,1,1);} 
0A1F4:  MOVLW  09
0A1F6:  MOVWF  x3E
0A1F8:  MOVLW  0D
0A1FA:  MOVWF  x3D
0A1FC:  CLRF   x3F
0A1FE:  MOVLW  09
0A200:  MOVWF  x40
0A202:  MOVLW  01
0A204:  MOVWF  x41
0A206:  MOVWF  x42
0A208:  MOVLB  0
0A20A:  CALL   1AEE
....................          else 
0A20E:  BRA    A254
0A210:  MOVLB  6
....................             {strcpy(Menus.Letra,"Integral"); 
0A212:  MOVLW  09
0A214:  MOVWF  FEA
0A216:  MOVLW  0D
0A218:  MOVWF  FE9
0A21A:  MOVFF  FF2,936
0A21E:  BCF    FF2.7
0A220:  MOVLW  00
0A222:  MOVLB  0
0A224:  CALL   0FFC
0A228:  TBLRD*-
0A22A:  TBLRD*+
0A22C:  MOVF   FF5,W
0A22E:  MOVWF  FEE
0A230:  IORLW  00
0A232:  BNZ   A22A
0A234:  MOVLB  9
0A236:  BTFSC  x36.7
0A238:  BSF    FF2.7
....................             displayMenu(Menus.Letra,0,9,0,1);} 
0A23A:  MOVLW  09
0A23C:  MOVWF  x3E
0A23E:  MOVLW  0D
0A240:  MOVWF  x3D
0A242:  CLRF   x3F
0A244:  MOVLW  09
0A246:  MOVWF  x40
0A248:  CLRF   x41
0A24A:  MOVLW  01
0A24C:  MOVWF  x42
0A24E:  MOVLB  0
0A250:  CALL   1AEE
....................              
....................          if(Opcion==3)    
0A254:  MOVLB  6
0A256:  MOVF   x3F,W
0A258:  SUBLW  03
0A25A:  BNZ   A2A2
....................             {strcpy(Menus.Letra,"Derivativo"); 
0A25C:  MOVLW  09
0A25E:  MOVWF  FEA
0A260:  MOVLW  0D
0A262:  MOVWF  FE9
0A264:  MOVFF  FF2,936
0A268:  BCF    FF2.7
0A26A:  MOVLW  00
0A26C:  MOVLB  0
0A26E:  CALL   1024
0A272:  TBLRD*-
0A274:  TBLRD*+
0A276:  MOVF   FF5,W
0A278:  MOVWF  FEE
0A27A:  IORLW  00
0A27C:  BNZ   A274
0A27E:  MOVLB  9
0A280:  BTFSC  x36.7
0A282:  BSF    FF2.7
....................             displayMenu(Menus.Letra,0,18,1,1);} 
0A284:  MOVLW  09
0A286:  MOVWF  x3E
0A288:  MOVLW  0D
0A28A:  MOVWF  x3D
0A28C:  CLRF   x3F
0A28E:  MOVLW  12
0A290:  MOVWF  x40
0A292:  MOVLW  01
0A294:  MOVWF  x41
0A296:  MOVWF  x42
0A298:  MOVLB  0
0A29A:  CALL   1AEE
....................          else 
0A29E:  BRA    A2E4
0A2A0:  MOVLB  6
....................             {strcpy(Menus.Letra,"Derivativo"); 
0A2A2:  MOVLW  09
0A2A4:  MOVWF  FEA
0A2A6:  MOVLW  0D
0A2A8:  MOVWF  FE9
0A2AA:  MOVFF  FF2,936
0A2AE:  BCF    FF2.7
0A2B0:  MOVLW  00
0A2B2:  MOVLB  0
0A2B4:  CALL   1024
0A2B8:  TBLRD*-
0A2BA:  TBLRD*+
0A2BC:  MOVF   FF5,W
0A2BE:  MOVWF  FEE
0A2C0:  IORLW  00
0A2C2:  BNZ   A2BA
0A2C4:  MOVLB  9
0A2C6:  BTFSC  x36.7
0A2C8:  BSF    FF2.7
....................             displayMenu(Menus.Letra,0,18,0,1);}    
0A2CA:  MOVLW  09
0A2CC:  MOVWF  x3E
0A2CE:  MOVLW  0D
0A2D0:  MOVWF  x3D
0A2D2:  CLRF   x3F
0A2D4:  MOVLW  12
0A2D6:  MOVWF  x40
0A2D8:  CLRF   x41
0A2DA:  MOVLW  01
0A2DC:  MOVWF  x42
0A2DE:  MOVLB  0
0A2E0:  CALL   1AEE
....................           
....................          if(Opcion==4)    
0A2E4:  MOVLB  6
0A2E6:  MOVF   x3F,W
0A2E8:  SUBLW  04
0A2EA:  BNZ   A332
....................             {strcpy(Menus.Letra,"Tciclo"); 
0A2EC:  MOVLW  09
0A2EE:  MOVWF  FEA
0A2F0:  MOVLW  0D
0A2F2:  MOVWF  FE9
0A2F4:  MOVFF  FF2,936
0A2F8:  BCF    FF2.7
0A2FA:  MOVLW  00
0A2FC:  MOVLB  0
0A2FE:  CALL   104E
0A302:  TBLRD*-
0A304:  TBLRD*+
0A306:  MOVF   FF5,W
0A308:  MOVWF  FEE
0A30A:  IORLW  00
0A30C:  BNZ   A304
0A30E:  MOVLB  9
0A310:  BTFSC  x36.7
0A312:  BSF    FF2.7
....................             displayMenu(Menus.Letra,0,27,1,1);} 
0A314:  MOVLW  09
0A316:  MOVWF  x3E
0A318:  MOVLW  0D
0A31A:  MOVWF  x3D
0A31C:  CLRF   x3F
0A31E:  MOVLW  1B
0A320:  MOVWF  x40
0A322:  MOVLW  01
0A324:  MOVWF  x41
0A326:  MOVWF  x42
0A328:  MOVLB  0
0A32A:  CALL   1AEE
....................          else 
0A32E:  BRA    A374
0A330:  MOVLB  6
....................             {strcpy(Menus.Letra,"Tciclo"); 
0A332:  MOVLW  09
0A334:  MOVWF  FEA
0A336:  MOVLW  0D
0A338:  MOVWF  FE9
0A33A:  MOVFF  FF2,936
0A33E:  BCF    FF2.7
0A340:  MOVLW  00
0A342:  MOVLB  0
0A344:  CALL   104E
0A348:  TBLRD*-
0A34A:  TBLRD*+
0A34C:  MOVF   FF5,W
0A34E:  MOVWF  FEE
0A350:  IORLW  00
0A352:  BNZ   A34A
0A354:  MOVLB  9
0A356:  BTFSC  x36.7
0A358:  BSF    FF2.7
....................             displayMenu(Menus.Letra,0,27,0,1);} 
0A35A:  MOVLW  09
0A35C:  MOVWF  x3E
0A35E:  MOVLW  0D
0A360:  MOVWF  x3D
0A362:  CLRF   x3F
0A364:  MOVLW  1B
0A366:  MOVWF  x40
0A368:  CLRF   x41
0A36A:  MOVLW  01
0A36C:  MOVWF  x42
0A36E:  MOVLB  0
0A370:  CALL   1AEE
....................              
....................          if(Opcion==5)    
0A374:  MOVLB  6
0A376:  MOVF   x3F,W
0A378:  SUBLW  05
0A37A:  BNZ   A3C2
....................             {strcpy(Menus.Letra,"Ajuste +"); 
0A37C:  MOVLW  09
0A37E:  MOVWF  FEA
0A380:  MOVLW  0D
0A382:  MOVWF  FE9
0A384:  MOVFF  FF2,936
0A388:  BCF    FF2.7
0A38A:  MOVLW  00
0A38C:  MOVLB  0
0A38E:  CALL   1074
0A392:  TBLRD*-
0A394:  TBLRD*+
0A396:  MOVF   FF5,W
0A398:  MOVWF  FEE
0A39A:  IORLW  00
0A39C:  BNZ   A394
0A39E:  MOVLB  9
0A3A0:  BTFSC  x36.7
0A3A2:  BSF    FF2.7
....................             displayMenu(Menus.Letra,0,36,1,1);} 
0A3A4:  MOVLW  09
0A3A6:  MOVWF  x3E
0A3A8:  MOVLW  0D
0A3AA:  MOVWF  x3D
0A3AC:  CLRF   x3F
0A3AE:  MOVLW  24
0A3B0:  MOVWF  x40
0A3B2:  MOVLW  01
0A3B4:  MOVWF  x41
0A3B6:  MOVWF  x42
0A3B8:  MOVLB  0
0A3BA:  CALL   1AEE
....................          else 
0A3BE:  BRA    A404
0A3C0:  MOVLB  6
....................             {strcpy(Menus.Letra,"Ajuste +"); 
0A3C2:  MOVLW  09
0A3C4:  MOVWF  FEA
0A3C6:  MOVLW  0D
0A3C8:  MOVWF  FE9
0A3CA:  MOVFF  FF2,936
0A3CE:  BCF    FF2.7
0A3D0:  MOVLW  00
0A3D2:  MOVLB  0
0A3D4:  CALL   1074
0A3D8:  TBLRD*-
0A3DA:  TBLRD*+
0A3DC:  MOVF   FF5,W
0A3DE:  MOVWF  FEE
0A3E0:  IORLW  00
0A3E2:  BNZ   A3DA
0A3E4:  MOVLB  9
0A3E6:  BTFSC  x36.7
0A3E8:  BSF    FF2.7
....................             displayMenu(Menus.Letra,0,36,0,1);}    
0A3EA:  MOVLW  09
0A3EC:  MOVWF  x3E
0A3EE:  MOVLW  0D
0A3F0:  MOVWF  x3D
0A3F2:  CLRF   x3F
0A3F4:  MOVLW  24
0A3F6:  MOVWF  x40
0A3F8:  CLRF   x41
0A3FA:  MOVLW  01
0A3FC:  MOVWF  x42
0A3FE:  MOVLB  0
0A400:  CALL   1AEE
....................                          
....................          if(Opcion==6)    
0A404:  MOVLB  6
0A406:  MOVF   x3F,W
0A408:  SUBLW  06
0A40A:  BNZ   A452
....................             {strcpy(Menus.Letra,"Ajuste -"); 
0A40C:  MOVLW  09
0A40E:  MOVWF  FEA
0A410:  MOVLW  0D
0A412:  MOVWF  FE9
0A414:  MOVFF  FF2,936
0A418:  BCF    FF2.7
0A41A:  MOVLW  00
0A41C:  MOVLB  0
0A41E:  CALL   109C
0A422:  TBLRD*-
0A424:  TBLRD*+
0A426:  MOVF   FF5,W
0A428:  MOVWF  FEE
0A42A:  IORLW  00
0A42C:  BNZ   A424
0A42E:  MOVLB  9
0A430:  BTFSC  x36.7
0A432:  BSF    FF2.7
....................             displayMenu(Menus.Letra,0,45,1,1);} 
0A434:  MOVLW  09
0A436:  MOVWF  x3E
0A438:  MOVLW  0D
0A43A:  MOVWF  x3D
0A43C:  CLRF   x3F
0A43E:  MOVLW  2D
0A440:  MOVWF  x40
0A442:  MOVLW  01
0A444:  MOVWF  x41
0A446:  MOVWF  x42
0A448:  MOVLB  0
0A44A:  CALL   1AEE
....................          else 
0A44E:  BRA    A494
0A450:  MOVLB  6
....................             {strcpy(Menus.Letra,"Ajuste -"); 
0A452:  MOVLW  09
0A454:  MOVWF  FEA
0A456:  MOVLW  0D
0A458:  MOVWF  FE9
0A45A:  MOVFF  FF2,936
0A45E:  BCF    FF2.7
0A460:  MOVLW  00
0A462:  MOVLB  0
0A464:  CALL   109C
0A468:  TBLRD*-
0A46A:  TBLRD*+
0A46C:  MOVF   FF5,W
0A46E:  MOVWF  FEE
0A470:  IORLW  00
0A472:  BNZ   A46A
0A474:  MOVLB  9
0A476:  BTFSC  x36.7
0A478:  BSF    FF2.7
....................             displayMenu(Menus.Letra,0,45,0,1);}      
0A47A:  MOVLW  09
0A47C:  MOVWF  x3E
0A47E:  MOVLW  0D
0A480:  MOVWF  x3D
0A482:  CLRF   x3F
0A484:  MOVLW  2D
0A486:  MOVWF  x40
0A488:  CLRF   x41
0A48A:  MOVLW  01
0A48C:  MOVWF  x42
0A48E:  MOVLB  0
0A490:  CALL   1AEE
....................       } 
....................       else{ 
0A494:  BRA    A882
0A496:  MOVLB  6
....................          if(Opcion==7)    
0A498:  MOVF   x3F,W
0A49A:  SUBLW  07
0A49C:  BNZ   A4E2
....................             {strcpy(Menus.Letra,"Media Movil"); 
0A49E:  MOVLW  09
0A4A0:  MOVWF  FEA
0A4A2:  MOVLW  0D
0A4A4:  MOVWF  FE9
0A4A6:  MOVFF  FF2,936
0A4AA:  BCF    FF2.7
0A4AC:  MOVLW  00
0A4AE:  MOVLB  0
0A4B0:  CALL   10C4
0A4B4:  TBLRD*-
0A4B6:  TBLRD*+
0A4B8:  MOVF   FF5,W
0A4BA:  MOVWF  FEE
0A4BC:  IORLW  00
0A4BE:  BNZ   A4B6
0A4C0:  MOVLB  9
0A4C2:  BTFSC  x36.7
0A4C4:  BSF    FF2.7
....................             displayMenu(Menus.Letra,0,0,1,1);} 
0A4C6:  MOVLW  09
0A4C8:  MOVWF  x3E
0A4CA:  MOVLW  0D
0A4CC:  MOVWF  x3D
0A4CE:  CLRF   x3F
0A4D0:  CLRF   x40
0A4D2:  MOVLW  01
0A4D4:  MOVWF  x41
0A4D6:  MOVWF  x42
0A4D8:  MOVLB  0
0A4DA:  CALL   1AEE
....................          else 
0A4DE:  BRA    A522
0A4E0:  MOVLB  6
....................             {strcpy(Menus.Letra,"Media Movil"); 
0A4E2:  MOVLW  09
0A4E4:  MOVWF  FEA
0A4E6:  MOVLW  0D
0A4E8:  MOVWF  FE9
0A4EA:  MOVFF  FF2,936
0A4EE:  BCF    FF2.7
0A4F0:  MOVLW  00
0A4F2:  MOVLB  0
0A4F4:  CALL   10C4
0A4F8:  TBLRD*-
0A4FA:  TBLRD*+
0A4FC:  MOVF   FF5,W
0A4FE:  MOVWF  FEE
0A500:  IORLW  00
0A502:  BNZ   A4FA
0A504:  MOVLB  9
0A506:  BTFSC  x36.7
0A508:  BSF    FF2.7
....................             displayMenu(Menus.Letra,0,0,0,1);}      
0A50A:  MOVLW  09
0A50C:  MOVWF  x3E
0A50E:  MOVLW  0D
0A510:  MOVWF  x3D
0A512:  CLRF   x3F
0A514:  CLRF   x40
0A516:  CLRF   x41
0A518:  MOVLW  01
0A51A:  MOVWF  x42
0A51C:  MOVLB  0
0A51E:  CALL   1AEE
....................              
....................          if(Opcion==8)    
0A522:  MOVLB  6
0A524:  MOVF   x3F,W
0A526:  SUBLW  08
0A528:  BNZ   A570
....................             {strcpy(Menus.Letra,"Coeficiente"); 
0A52A:  MOVLW  09
0A52C:  MOVWF  FEA
0A52E:  MOVLW  0D
0A530:  MOVWF  FE9
0A532:  MOVFF  FF2,936
0A536:  BCF    FF2.7
0A538:  MOVLW  00
0A53A:  MOVLB  0
0A53C:  CALL   10EE
0A540:  TBLRD*-
0A542:  TBLRD*+
0A544:  MOVF   FF5,W
0A546:  MOVWF  FEE
0A548:  IORLW  00
0A54A:  BNZ   A542
0A54C:  MOVLB  9
0A54E:  BTFSC  x36.7
0A550:  BSF    FF2.7
....................             displayMenu(Menus.Letra,0,9,1,1);} 
0A552:  MOVLW  09
0A554:  MOVWF  x3E
0A556:  MOVLW  0D
0A558:  MOVWF  x3D
0A55A:  CLRF   x3F
0A55C:  MOVLW  09
0A55E:  MOVWF  x40
0A560:  MOVLW  01
0A562:  MOVWF  x41
0A564:  MOVWF  x42
0A566:  MOVLB  0
0A568:  CALL   1AEE
....................          else 
0A56C:  BRA    A5B2
0A56E:  MOVLB  6
....................             {strcpy(Menus.Letra,"Coeficiente"); 
0A570:  MOVLW  09
0A572:  MOVWF  FEA
0A574:  MOVLW  0D
0A576:  MOVWF  FE9
0A578:  MOVFF  FF2,936
0A57C:  BCF    FF2.7
0A57E:  MOVLW  00
0A580:  MOVLB  0
0A582:  CALL   10EE
0A586:  TBLRD*-
0A588:  TBLRD*+
0A58A:  MOVF   FF5,W
0A58C:  MOVWF  FEE
0A58E:  IORLW  00
0A590:  BNZ   A588
0A592:  MOVLB  9
0A594:  BTFSC  x36.7
0A596:  BSF    FF2.7
....................             displayMenu(Menus.Letra,0,9,0,1);}   
0A598:  MOVLW  09
0A59A:  MOVWF  x3E
0A59C:  MOVLW  0D
0A59E:  MOVWF  x3D
0A5A0:  CLRF   x3F
0A5A2:  MOVLW  09
0A5A4:  MOVWF  x40
0A5A6:  CLRF   x41
0A5A8:  MOVLW  01
0A5AA:  MOVWF  x42
0A5AC:  MOVLB  0
0A5AE:  CALL   1AEE
....................              
....................          if(Opcion==9)    
0A5B2:  MOVLB  6
0A5B4:  MOVF   x3F,W
0A5B6:  SUBLW  09
0A5B8:  BNZ   A600
....................             {strcpy(Menus.Letra,"Alarma SobreT"); 
0A5BA:  MOVLW  09
0A5BC:  MOVWF  FEA
0A5BE:  MOVLW  0D
0A5C0:  MOVWF  FE9
0A5C2:  MOVFF  FF2,936
0A5C6:  BCF    FF2.7
0A5C8:  MOVLW  00
0A5CA:  MOVLB  0
0A5CC:  CALL   1118
0A5D0:  TBLRD*-
0A5D2:  TBLRD*+
0A5D4:  MOVF   FF5,W
0A5D6:  MOVWF  FEE
0A5D8:  IORLW  00
0A5DA:  BNZ   A5D2
0A5DC:  MOVLB  9
0A5DE:  BTFSC  x36.7
0A5E0:  BSF    FF2.7
....................             displayMenu(Menus.Letra,0,18,1,1);} 
0A5E2:  MOVLW  09
0A5E4:  MOVWF  x3E
0A5E6:  MOVLW  0D
0A5E8:  MOVWF  x3D
0A5EA:  CLRF   x3F
0A5EC:  MOVLW  12
0A5EE:  MOVWF  x40
0A5F0:  MOVLW  01
0A5F2:  MOVWF  x41
0A5F4:  MOVWF  x42
0A5F6:  MOVLB  0
0A5F8:  CALL   1AEE
....................          else 
0A5FC:  BRA    A642
0A5FE:  MOVLB  6
....................             {strcpy(Menus.Letra,"Alarma SobreT"); 
0A600:  MOVLW  09
0A602:  MOVWF  FEA
0A604:  MOVLW  0D
0A606:  MOVWF  FE9
0A608:  MOVFF  FF2,936
0A60C:  BCF    FF2.7
0A60E:  MOVLW  00
0A610:  MOVLB  0
0A612:  CALL   1118
0A616:  TBLRD*-
0A618:  TBLRD*+
0A61A:  MOVF   FF5,W
0A61C:  MOVWF  FEE
0A61E:  IORLW  00
0A620:  BNZ   A618
0A622:  MOVLB  9
0A624:  BTFSC  x36.7
0A626:  BSF    FF2.7
....................             displayMenu(Menus.Letra,0,18,0,1);}      
0A628:  MOVLW  09
0A62A:  MOVWF  x3E
0A62C:  MOVLW  0D
0A62E:  MOVWF  x3D
0A630:  CLRF   x3F
0A632:  MOVLW  12
0A634:  MOVWF  x40
0A636:  CLRF   x41
0A638:  MOVLW  01
0A63A:  MOVWF  x42
0A63C:  MOVLB  0
0A63E:  CALL   1AEE
....................              
....................          if(Opcion==10)    
0A642:  MOVLB  6
0A644:  MOVF   x3F,W
0A646:  SUBLW  0A
0A648:  BNZ   A690
....................             {strcpy(Menus.Letra,"Resistencia"); 
0A64A:  MOVLW  09
0A64C:  MOVWF  FEA
0A64E:  MOVLW  0D
0A650:  MOVWF  FE9
0A652:  MOVFF  FF2,936
0A656:  BCF    FF2.7
0A658:  MOVLW  00
0A65A:  MOVLB  0
0A65C:  CALL   1144
0A660:  TBLRD*-
0A662:  TBLRD*+
0A664:  MOVF   FF5,W
0A666:  MOVWF  FEE
0A668:  IORLW  00
0A66A:  BNZ   A662
0A66C:  MOVLB  9
0A66E:  BTFSC  x36.7
0A670:  BSF    FF2.7
....................             displayMenu(Menus.Letra,0,27,1,1);} 
0A672:  MOVLW  09
0A674:  MOVWF  x3E
0A676:  MOVLW  0D
0A678:  MOVWF  x3D
0A67A:  CLRF   x3F
0A67C:  MOVLW  1B
0A67E:  MOVWF  x40
0A680:  MOVLW  01
0A682:  MOVWF  x41
0A684:  MOVWF  x42
0A686:  MOVLB  0
0A688:  CALL   1AEE
....................          else 
0A68C:  BRA    A6D2
0A68E:  MOVLB  6
....................             {strcpy(Menus.Letra,"Resistencia"); 
0A690:  MOVLW  09
0A692:  MOVWF  FEA
0A694:  MOVLW  0D
0A696:  MOVWF  FE9
0A698:  MOVFF  FF2,936
0A69C:  BCF    FF2.7
0A69E:  MOVLW  00
0A6A0:  MOVLB  0
0A6A2:  CALL   1144
0A6A6:  TBLRD*-
0A6A8:  TBLRD*+
0A6AA:  MOVF   FF5,W
0A6AC:  MOVWF  FEE
0A6AE:  IORLW  00
0A6B0:  BNZ   A6A8
0A6B2:  MOVLB  9
0A6B4:  BTFSC  x36.7
0A6B6:  BSF    FF2.7
....................             displayMenu(Menus.Letra,0,27,0,1);}      
0A6B8:  MOVLW  09
0A6BA:  MOVWF  x3E
0A6BC:  MOVLW  0D
0A6BE:  MOVWF  x3D
0A6C0:  CLRF   x3F
0A6C2:  MOVLW  1B
0A6C4:  MOVWF  x40
0A6C6:  CLRF   x41
0A6C8:  MOVLW  01
0A6CA:  MOVWF  x42
0A6CC:  MOVLB  0
0A6CE:  CALL   1AEE
....................              
....................          if(Opcion==11)    
0A6D2:  MOVLB  6
0A6D4:  MOVF   x3F,W
0A6D6:  SUBLW  0B
0A6D8:  BNZ   A720
....................             {strcpy(Menus.Letra,"m Mufla"); 
0A6DA:  MOVLW  09
0A6DC:  MOVWF  FEA
0A6DE:  MOVLW  0D
0A6E0:  MOVWF  FE9
0A6E2:  MOVFF  FF2,936
0A6E6:  BCF    FF2.7
0A6E8:  MOVLW  00
0A6EA:  MOVLB  0
0A6EC:  CALL   116E
0A6F0:  TBLRD*-
0A6F2:  TBLRD*+
0A6F4:  MOVF   FF5,W
0A6F6:  MOVWF  FEE
0A6F8:  IORLW  00
0A6FA:  BNZ   A6F2
0A6FC:  MOVLB  9
0A6FE:  BTFSC  x36.7
0A700:  BSF    FF2.7
....................             displayMenu(Menus.Letra,0,36,1,1);} 
0A702:  MOVLW  09
0A704:  MOVWF  x3E
0A706:  MOVLW  0D
0A708:  MOVWF  x3D
0A70A:  CLRF   x3F
0A70C:  MOVLW  24
0A70E:  MOVWF  x40
0A710:  MOVLW  01
0A712:  MOVWF  x41
0A714:  MOVWF  x42
0A716:  MOVLB  0
0A718:  CALL   1AEE
....................          else 
0A71C:  BRA    A762
0A71E:  MOVLB  6
....................             {strcpy(Menus.Letra,"m Mufla"); 
0A720:  MOVLW  09
0A722:  MOVWF  FEA
0A724:  MOVLW  0D
0A726:  MOVWF  FE9
0A728:  MOVFF  FF2,936
0A72C:  BCF    FF2.7
0A72E:  MOVLW  00
0A730:  MOVLB  0
0A732:  CALL   116E
0A736:  TBLRD*-
0A738:  TBLRD*+
0A73A:  MOVF   FF5,W
0A73C:  MOVWF  FEE
0A73E:  IORLW  00
0A740:  BNZ   A738
0A742:  MOVLB  9
0A744:  BTFSC  x36.7
0A746:  BSF    FF2.7
....................             displayMenu(Menus.Letra,0,36,0,1);}      
0A748:  MOVLW  09
0A74A:  MOVWF  x3E
0A74C:  MOVLW  0D
0A74E:  MOVWF  x3D
0A750:  CLRF   x3F
0A752:  MOVLW  24
0A754:  MOVWF  x40
0A756:  CLRF   x41
0A758:  MOVLW  01
0A75A:  MOVWF  x42
0A75C:  MOVLB  0
0A75E:  CALL   1AEE
....................           
....................          if(Opcion==12) 
0A762:  MOVLB  6
0A764:  MOVF   x3F,W
0A766:  SUBLW  0C
0A768:  BNZ   A7B0
....................             {strcpy(Menus.Letra,"m"); 
0A76A:  MOVLW  09
0A76C:  MOVWF  FEA
0A76E:  MOVLW  0D
0A770:  MOVWF  FE9
0A772:  MOVFF  FF2,936
0A776:  BCF    FF2.7
0A778:  MOVLW  00
0A77A:  MOVLB  0
0A77C:  CALL   1194
0A780:  TBLRD*-
0A782:  TBLRD*+
0A784:  MOVF   FF5,W
0A786:  MOVWF  FEE
0A788:  IORLW  00
0A78A:  BNZ   A782
0A78C:  MOVLB  9
0A78E:  BTFSC  x36.7
0A790:  BSF    FF2.7
....................             displayMenu(Menus.Letra,0,45,1,1);} 
0A792:  MOVLW  09
0A794:  MOVWF  x3E
0A796:  MOVLW  0D
0A798:  MOVWF  x3D
0A79A:  CLRF   x3F
0A79C:  MOVLW  2D
0A79E:  MOVWF  x40
0A7A0:  MOVLW  01
0A7A2:  MOVWF  x41
0A7A4:  MOVWF  x42
0A7A6:  MOVLB  0
0A7A8:  CALL   1AEE
....................          else 
0A7AC:  BRA    A7F2
0A7AE:  MOVLB  6
....................             {strcpy(Menus.Letra,"m"); 
0A7B0:  MOVLW  09
0A7B2:  MOVWF  FEA
0A7B4:  MOVLW  0D
0A7B6:  MOVWF  FE9
0A7B8:  MOVFF  FF2,936
0A7BC:  BCF    FF2.7
0A7BE:  MOVLW  00
0A7C0:  MOVLB  0
0A7C2:  CALL   1194
0A7C6:  TBLRD*-
0A7C8:  TBLRD*+
0A7CA:  MOVF   FF5,W
0A7CC:  MOVWF  FEE
0A7CE:  IORLW  00
0A7D0:  BNZ   A7C8
0A7D2:  MOVLB  9
0A7D4:  BTFSC  x36.7
0A7D6:  BSF    FF2.7
....................             displayMenu(Menus.Letra,0,45,0,1);}        
0A7D8:  MOVLW  09
0A7DA:  MOVWF  x3E
0A7DC:  MOVLW  0D
0A7DE:  MOVWF  x3D
0A7E0:  CLRF   x3F
0A7E2:  MOVLW  2D
0A7E4:  MOVWF  x40
0A7E6:  CLRF   x41
0A7E8:  MOVLW  01
0A7EA:  MOVWF  x42
0A7EC:  MOVLB  0
0A7EE:  CALL   1AEE
....................           
....................          if(Opcion==13) 
0A7F2:  MOVLB  6
0A7F4:  MOVF   x3F,W
0A7F6:  SUBLW  0D
0A7F8:  BNZ   A840
....................             {strcpy(Menus.Letra,"Calib"); 
0A7FA:  MOVLW  09
0A7FC:  MOVWF  FEA
0A7FE:  MOVLW  0D
0A800:  MOVWF  FE9
0A802:  MOVFF  FF2,936
0A806:  BCF    FF2.7
0A808:  MOVLW  00
0A80A:  MOVLB  0
0A80C:  CALL   11B4
0A810:  TBLRD*-
0A812:  TBLRD*+
0A814:  MOVF   FF5,W
0A816:  MOVWF  FEE
0A818:  IORLW  00
0A81A:  BNZ   A812
0A81C:  MOVLB  9
0A81E:  BTFSC  x36.7
0A820:  BSF    FF2.7
....................             displayMenu(Menus.Letra,0,54,1,1);} 
0A822:  MOVLW  09
0A824:  MOVWF  x3E
0A826:  MOVLW  0D
0A828:  MOVWF  x3D
0A82A:  CLRF   x3F
0A82C:  MOVLW  36
0A82E:  MOVWF  x40
0A830:  MOVLW  01
0A832:  MOVWF  x41
0A834:  MOVWF  x42
0A836:  MOVLB  0
0A838:  CALL   1AEE
....................          else 
0A83C:  BRA    A882
0A83E:  MOVLB  6
....................             {strcpy(Menus.Letra,"Calib"); 
0A840:  MOVLW  09
0A842:  MOVWF  FEA
0A844:  MOVLW  0D
0A846:  MOVWF  FE9
0A848:  MOVFF  FF2,936
0A84C:  BCF    FF2.7
0A84E:  MOVLW  00
0A850:  MOVLB  0
0A852:  CALL   11B4
0A856:  TBLRD*-
0A858:  TBLRD*+
0A85A:  MOVF   FF5,W
0A85C:  MOVWF  FEE
0A85E:  IORLW  00
0A860:  BNZ   A858
0A862:  MOVLB  9
0A864:  BTFSC  x36.7
0A866:  BSF    FF2.7
....................             displayMenu(Menus.Letra,0,54,0,1);} 
0A868:  MOVLW  09
0A86A:  MOVWF  x3E
0A86C:  MOVLW  0D
0A86E:  MOVWF  x3D
0A870:  CLRF   x3F
0A872:  MOVLW  36
0A874:  MOVWF  x40
0A876:  CLRF   x41
0A878:  MOVLW  01
0A87A:  MOVWF  x42
0A87C:  MOVLB  0
0A87E:  CALL   1AEE
....................           
....................       }    
....................        
....................          if(UP)//Si oprime hacia arriba 
0A882:  BSF    F92.5
0A884:  BTFSC  F80.5
0A886:  BRA    A8B8
....................          { 
....................             Buzz_on;delay_ms(10);Buzz_off; 
0A888:  BSF    F8B.5
0A88A:  BCF    F94.5
0A88C:  MOVLW  0A
0A88E:  MOVLB  9
0A890:  MOVWF  x4C
0A892:  MOVLB  0
0A894:  CALL   1440
0A898:  BCF    F8B.5
0A89A:  BCF    F94.5
....................             if(Flanco == 0) 
0A89C:  MOVLB  6
0A89E:  BTFSC  x22.4
0A8A0:  BRA    A8B6
....................                {Flanco = 1;delay_ms(30);Opcion--;visual=1; 
0A8A2:  BSF    x22.4
0A8A4:  MOVLW  1E
0A8A6:  MOVLB  9
0A8A8:  MOVWF  x4C
0A8AA:  MOVLB  0
0A8AC:  CALL   1440
0A8B0:  MOVLB  6
0A8B2:  DECF   x3F,F
0A8B4:  BSF    x22.7
....................                } 
....................          } 
....................             else 
0A8B6:  BRA    A8BC
....................                {Flanco = 0;} 
0A8B8:  MOVLB  6
0A8BA:  BCF    x22.4
....................                    
....................          if(DOWN)//Si oprime hacia abajo 
0A8BC:  BSF    F96.0
0A8BE:  BTFSC  F84.0
0A8C0:  BRA    A8F2
....................          { 
....................             Buzz_on;delay_ms(10);Buzz_off; 
0A8C2:  BSF    F8B.5
0A8C4:  BCF    F94.5
0A8C6:  MOVLW  0A
0A8C8:  MOVLB  9
0A8CA:  MOVWF  x4C
0A8CC:  MOVLB  0
0A8CE:  CALL   1440
0A8D2:  BCF    F8B.5
0A8D4:  BCF    F94.5
....................             if(Flanco2 == 0) 
0A8D6:  MOVLB  6
0A8D8:  BTFSC  x22.6
0A8DA:  BRA    A8F0
....................                {Flanco2 = 1;delay_ms(30);Opcion++;visual=1; 
0A8DC:  BSF    x22.6
0A8DE:  MOVLW  1E
0A8E0:  MOVLB  9
0A8E2:  MOVWF  x4C
0A8E4:  MOVLB  0
0A8E6:  CALL   1440
0A8EA:  MOVLB  6
0A8EC:  INCF   x3F,F
0A8EE:  BSF    x22.7
....................                }      
....................          } 
....................             else 
0A8F0:  BRA    A8F4
....................                {Flanco2 = 0;}   
0A8F2:  BCF    x22.6
....................                 
....................          if(RIGHT)//Si oprime SET 
0A8F4:  BSF    F96.1
0A8F6:  BTFSC  F84.1
0A8F8:  BRA    A93E
....................          {   
....................             Buzz_on;delay_ms(10);Buzz_off; 
0A8FA:  BSF    F8B.5
0A8FC:  BCF    F94.5
0A8FE:  MOVLW  0A
0A900:  MOVLB  9
0A902:  MOVWF  x4C
0A904:  MOVLB  0
0A906:  CALL   1440
0A90A:  BCF    F8B.5
0A90C:  BCF    F94.5
....................             if(Flanco1 == 0) 
0A90E:  MOVLB  6
0A910:  BTFSC  x22.5
0A912:  BRA    A93C
....................                {Flanco1 = 1;delay_ms(30);Menu=Opcion+100;Opcion=1;glcd_fillscreen(OFF);visual=1; 
0A914:  BSF    x22.5
0A916:  MOVLW  1E
0A918:  MOVLB  9
0A91A:  MOVWF  x4C
0A91C:  MOVLB  0
0A91E:  CALL   1440
0A922:  MOVLW  64
0A924:  MOVLB  6
0A926:  ADDWF  x3F,W
0A928:  MOVWF  x38
0A92A:  MOVLW  01
0A92C:  MOVWF  x3F
0A92E:  MOVLB  9
0A930:  CLRF   x3D
0A932:  MOVLB  0
0A934:  CALL   14C0
0A938:  MOVLB  6
0A93A:  BSF    x22.7
....................                } 
....................          } 
....................             else 
0A93C:  BRA    A940
....................                {Flanco1 = 0;}  
0A93E:  BCF    x22.5
....................                 
....................          if(LEFT)//Si oprime boton de Toma. 
0A940:  BSF    F96.2
0A942:  BTFSC  F84.2
0A944:  BRA    A988
....................          { 
....................             Buzz_on;delay_ms(10);Buzz_off; 
0A946:  BSF    F8B.5
0A948:  BCF    F94.5
0A94A:  MOVLW  0A
0A94C:  MOVLB  9
0A94E:  MOVWF  x4C
0A950:  MOVLB  0
0A952:  CALL   1440
0A956:  BCF    F8B.5
0A958:  BCF    F94.5
....................             delay_ms(700);Menu=1;glcd_fillscreen(OFF);Opcion=1;visual=1;             
0A95A:  MOVLW  04
0A95C:  MOVLB  9
0A95E:  MOVWF  x36
0A960:  MOVLW  AF
0A962:  MOVWF  x4C
0A964:  MOVLB  0
0A966:  CALL   1440
0A96A:  MOVLB  9
0A96C:  DECFSZ x36,F
0A96E:  BRA    A960
0A970:  MOVLW  01
0A972:  MOVLB  6
0A974:  MOVWF  x38
0A976:  MOVLB  9
0A978:  CLRF   x3D
0A97A:  MOVLB  0
0A97C:  CALL   14C0
0A980:  MOVLW  01
0A982:  MOVLB  6
0A984:  MOVWF  x3F
0A986:  BSF    x22.7
....................          }       
....................          
....................     } 
.................... //_--------------------------------------------------------------------------------------------------------------------------------------------------------        
....................  
.................... //_--------------------------------------------------------------------------------------------------------------------------------------------------------       
....................       if(Menu==101){ // Menu de Ajuste de Ganancia 
0A988:  MOVF   x38,W
0A98A:  SUBLW  65
0A98C:  BTFSS  FD8.2
0A98E:  BRA    AC38
....................        
....................       if(Ganancia>40) 
0A990:  MOVLB  9
0A992:  CLRF   x39
0A994:  CLRF   x38
0A996:  MOVLW  20
0A998:  MOVWF  x37
0A99A:  MOVLW  84
0A99C:  MOVWF  x36
0A99E:  MOVFF  6BA,93D
0A9A2:  MOVFF  6B9,93C
0A9A6:  MOVFF  6B8,93B
0A9AA:  MOVFF  6B7,93A
0A9AE:  MOVLB  0
0A9B0:  CALL   275A
0A9B4:  BNC   A9C2
....................       { 
....................          Ganancia=2; 
0A9B6:  MOVLB  6
0A9B8:  CLRF   xBA
0A9BA:  CLRF   xB9
0A9BC:  CLRF   xB8
0A9BE:  MOVLW  80
0A9C0:  MOVWF  xB7
....................       } 
....................        
....................       if(visual==1) 
0A9C2:  MOVLB  6
0A9C4:  BTFSS  x22.7
0A9C6:  BRA    AA4E
....................       { 
....................          glcd_fillScreen(OFF); 
0A9C8:  MOVLB  9
0A9CA:  CLRF   x3D
0A9CC:  MOVLB  0
0A9CE:  CALL   14C0
....................          strcpy(Menus.Letra,"P"); 
0A9D2:  MOVLW  09
0A9D4:  MOVWF  FEA
0A9D6:  MOVLW  0D
0A9D8:  MOVWF  FE9
0A9DA:  MOVFF  FF2,936
0A9DE:  BCF    FF2.7
0A9E0:  MOVLW  00
0A9E2:  CALL   11D8
0A9E6:  TBLRD*-
0A9E8:  TBLRD*+
0A9EA:  MOVF   FF5,W
0A9EC:  MOVWF  FEE
0A9EE:  IORLW  00
0A9F0:  BNZ   A9E8
0A9F2:  MOVLB  9
0A9F4:  BTFSC  x36.7
0A9F6:  BSF    FF2.7
....................          displayMenu(Menus.Letra,0,0,1,2); 
0A9F8:  MOVLW  09
0A9FA:  MOVWF  x3E
0A9FC:  MOVLW  0D
0A9FE:  MOVWF  x3D
0AA00:  CLRF   x3F
0AA02:  CLRF   x40
0AA04:  MOVLW  01
0AA06:  MOVWF  x41
0AA08:  MOVLW  02
0AA0A:  MOVWF  x42
0AA0C:  MOVLB  0
0AA0E:  CALL   1AEE
....................           
....................          displayTemperatura(Ganancia,30,30,0,3); 
0AA12:  MOVFF  6BA,945
0AA16:  MOVFF  6B9,944
0AA1A:  MOVFF  6B8,943
0AA1E:  MOVFF  6B7,942
0AA22:  CALL   27D4
0AA26:  MOVFF  02,937
0AA2A:  MOVFF  01,936
0AA2E:  MOVFF  02,93C
0AA32:  MOVFF  01,93B
0AA36:  MOVLW  1E
0AA38:  MOVLB  9
0AA3A:  MOVWF  x3D
0AA3C:  MOVWF  x3E
0AA3E:  CLRF   x3F
0AA40:  MOVLW  03
0AA42:  MOVWF  x40
0AA44:  MOVLB  0
0AA46:  CALL   33C4
....................           
....................          visual=0; 
0AA4A:  MOVLB  6
0AA4C:  BCF    x22.7
....................       } 
....................        
....................          if(UP)//Si oprime hacia arriba 
0AA4E:  BSF    F92.5
0AA50:  BTFSC  F80.5
0AA52:  BRA    AAF4
....................          {   
....................             Buzz_on;delay_ms(10);Buzz_off; 
0AA54:  BSF    F8B.5
0AA56:  BCF    F94.5
0AA58:  MOVLW  0A
0AA5A:  MOVLB  9
0AA5C:  MOVWF  x4C
0AA5E:  MOVLB  0
0AA60:  CALL   1440
0AA64:  BCF    F8B.5
0AA66:  BCF    F94.5
....................             if(Ganancia>40) 
0AA68:  MOVLB  9
0AA6A:  CLRF   x39
0AA6C:  CLRF   x38
0AA6E:  MOVLW  20
0AA70:  MOVWF  x37
0AA72:  MOVLW  84
0AA74:  MOVWF  x36
0AA76:  MOVFF  6BA,93D
0AA7A:  MOVFF  6B9,93C
0AA7E:  MOVFF  6B8,93B
0AA82:  MOVFF  6B7,93A
0AA86:  MOVLB  0
0AA88:  CALL   275A
0AA8C:  BNC   AAB0
....................             { 
....................                Ganancia=40;delay_ms(100);visual=1; 
0AA8E:  MOVLB  6
0AA90:  CLRF   xBA
0AA92:  CLRF   xB9
0AA94:  MOVLW  20
0AA96:  MOVWF  xB8
0AA98:  MOVLW  84
0AA9A:  MOVWF  xB7
0AA9C:  MOVLW  64
0AA9E:  MOVLB  9
0AAA0:  MOVWF  x4C
0AAA2:  MOVLB  0
0AAA4:  CALL   1440
0AAA8:  MOVLB  6
0AAAA:  BSF    x22.7
....................             } 
....................             else 
0AAAC:  BRA    AAF4
0AAAE:  MOVLB  0
....................             { 
....................                delay_ms(30);Ganancia+=1.0;visual=1; 
0AAB0:  MOVLW  1E
0AAB2:  MOVLB  9
0AAB4:  MOVWF  x4C
0AAB6:  MOVLB  0
0AAB8:  CALL   1440
0AABC:  BCF    FD8.1
0AABE:  MOVFF  6BA,94C
0AAC2:  MOVFF  6B9,94B
0AAC6:  MOVFF  6B8,94A
0AACA:  MOVFF  6B7,949
0AACE:  MOVLB  9
0AAD0:  CLRF   x50
0AAD2:  CLRF   x4F
0AAD4:  CLRF   x4E
0AAD6:  MOVLW  7F
0AAD8:  MOVWF  x4D
0AADA:  MOVLB  0
0AADC:  CALL   1EA4
0AAE0:  MOVFF  03,6BA
0AAE4:  MOVFF  02,6B9
0AAE8:  MOVFF  01,6B8
0AAEC:  MOVFF  00,6B7
0AAF0:  MOVLB  6
0AAF2:  BSF    x22.7
....................             } 
....................          } 
....................                 
....................          if(DOWN)//Si oprime hacia abajo 
0AAF4:  BSF    F96.0
0AAF6:  BTFSC  F84.0
0AAF8:  BRA    AB76
....................          {   
....................             Buzz_on;delay_ms(10);Buzz_off; 
0AAFA:  BSF    F8B.5
0AAFC:  BCF    F94.5
0AAFE:  MOVLW  0A
0AB00:  MOVLB  9
0AB02:  MOVWF  x4C
0AB04:  MOVLB  0
0AB06:  CALL   1440
0AB0A:  BCF    F8B.5
0AB0C:  BCF    F94.5
....................             if(Ganancia>1) 
0AB0E:  MOVLB  9
0AB10:  CLRF   x39
0AB12:  CLRF   x38
0AB14:  CLRF   x37
0AB16:  MOVLW  7F
0AB18:  MOVWF  x36
0AB1A:  MOVFF  6BA,93D
0AB1E:  MOVFF  6B9,93C
0AB22:  MOVFF  6B8,93B
0AB26:  MOVFF  6B7,93A
0AB2A:  MOVLB  0
0AB2C:  CALL   275A
0AB30:  BNC   AB78
....................             { 
....................                delay_ms(30);Ganancia-=1.0;visual=1;      
0AB32:  MOVLW  1E
0AB34:  MOVLB  9
0AB36:  MOVWF  x4C
0AB38:  MOVLB  0
0AB3A:  CALL   1440
0AB3E:  BSF    FD8.1
0AB40:  MOVFF  6BA,94C
0AB44:  MOVFF  6B9,94B
0AB48:  MOVFF  6B8,94A
0AB4C:  MOVFF  6B7,949
0AB50:  MOVLB  9
0AB52:  CLRF   x50
0AB54:  CLRF   x4F
0AB56:  CLRF   x4E
0AB58:  MOVLW  7F
0AB5A:  MOVWF  x4D
0AB5C:  MOVLB  0
0AB5E:  CALL   1EA4
0AB62:  MOVFF  03,6BA
0AB66:  MOVFF  02,6B9
0AB6A:  MOVFF  01,6B8
0AB6E:  MOVFF  00,6B7
0AB72:  MOVLB  6
0AB74:  BSF    x22.7
0AB76:  MOVLB  0
....................             } 
....................          } 
....................                 
....................          if(RIGHT)//Si oprime SET 
0AB78:  BSF    F96.1
0AB7A:  BTFSC  F84.1
0AB7C:  BRA    ABA4
....................          {   
....................             Buzz_on;delay_ms(10);Buzz_off; 
0AB7E:  BSF    F8B.5
0AB80:  BCF    F94.5
0AB82:  MOVLW  0A
0AB84:  MOVLB  9
0AB86:  MOVWF  x4C
0AB88:  MOVLB  0
0AB8A:  CALL   1440
0AB8E:  BCF    F8B.5
0AB90:  BCF    F94.5
....................             delay_ms(30);visual=1; 
0AB92:  MOVLW  1E
0AB94:  MOVLB  9
0AB96:  MOVWF  x4C
0AB98:  MOVLB  0
0AB9A:  CALL   1440
0AB9E:  MOVLB  6
0ABA0:  BSF    x22.7
0ABA2:  MOVLB  0
....................          }  
....................                    
....................          if(LEFT)//Si oprime boton de Toma. 
0ABA4:  BSF    F96.2
0ABA6:  BTFSC  F84.2
0ABA8:  BRA    AC36
....................          { 
....................             Buzz_on;delay_ms(10);Buzz_off; 
0ABAA:  BSF    F8B.5
0ABAC:  BCF    F94.5
0ABAE:  MOVLW  0A
0ABB0:  MOVLB  9
0ABB2:  MOVWF  x4C
0ABB4:  MOVLB  0
0ABB6:  CALL   1440
0ABBA:  BCF    F8B.5
0ABBC:  BCF    F94.5
....................             delay_ms(700);Menu=100;glcd_fillscreen(OFF);Opcion=1;visual=1; 
0ABBE:  MOVLW  04
0ABC0:  MOVLB  9
0ABC2:  MOVWF  x36
0ABC4:  MOVLW  AF
0ABC6:  MOVWF  x4C
0ABC8:  MOVLB  0
0ABCA:  CALL   1440
0ABCE:  MOVLB  9
0ABD0:  DECFSZ x36,F
0ABD2:  BRA    ABC4
0ABD4:  MOVLW  64
0ABD6:  MOVLB  6
0ABD8:  MOVWF  x38
0ABDA:  MOVLB  9
0ABDC:  CLRF   x3D
0ABDE:  MOVLB  0
0ABE0:  CALL   14C0
0ABE4:  MOVLW  01
0ABE6:  MOVLB  6
0ABE8:  MOVWF  x3F
0ABEA:  BSF    x22.7
....................             write_eeprom(450,(int8)Ganancia); 
0ABEC:  MOVFF  6BA,945
0ABF0:  MOVFF  6B9,944
0ABF4:  MOVFF  6B8,943
0ABF8:  MOVFF  6B7,942
0ABFC:  MOVLB  0
0ABFE:  CALL   27D4
0AC02:  MOVFF  01,936
0AC06:  MOVLW  01
0AC08:  MOVWF  FAA
0AC0A:  MOVLW  C2
0AC0C:  MOVWF  FA9
0AC0E:  MOVFF  936,FA8
0AC12:  BCF    FA6.6
0AC14:  BCF    FA6.7
0AC16:  BSF    FA6.2
0AC18:  MOVF   FF2,W
0AC1A:  MOVWF  00
0AC1C:  BCF    FF2.7
0AC1E:  MOVLB  F
0AC20:  MOVLW  55
0AC22:  MOVWF  FA7
0AC24:  MOVLW  AA
0AC26:  MOVWF  FA7
0AC28:  BSF    FA6.1
0AC2A:  BTFSC  FA6.1
0AC2C:  BRA    AC2A
0AC2E:  BCF    FA6.2
0AC30:  MOVF   00,W
0AC32:  IORWF  FF2,F
0AC34:  MOVLB  0
0AC36:  MOVLB  6
....................          } 
....................      } 
.................... //_-------------------------------------------------------------------------------------------------------------------------------------------------------- 
....................  
.................... //_--------------------------------------------------------------------------------------------------------------------------------------------------------       
....................       if(Menu==102){ // Menu de Ajuste de Integral 
0AC38:  MOVF   x38,W
0AC3A:  SUBLW  66
0AC3C:  BTFSS  FD8.2
0AC3E:  BRA    AEE8
....................        
....................       if(Integral>40) 
0AC40:  MOVLB  9
0AC42:  CLRF   x39
0AC44:  CLRF   x38
0AC46:  MOVLW  20
0AC48:  MOVWF  x37
0AC4A:  MOVLW  84
0AC4C:  MOVWF  x36
0AC4E:  MOVFF  6DE,93D
0AC52:  MOVFF  6DD,93C
0AC56:  MOVFF  6DC,93B
0AC5A:  MOVFF  6DB,93A
0AC5E:  MOVLB  0
0AC60:  CALL   275A
0AC64:  BNC   AC72
....................       { 
....................          Integral=1; 
0AC66:  MOVLB  6
0AC68:  CLRF   xDE
0AC6A:  CLRF   xDD
0AC6C:  CLRF   xDC
0AC6E:  MOVLW  7F
0AC70:  MOVWF  xDB
....................       } 
....................        
....................       if(visual==1) 
0AC72:  MOVLB  6
0AC74:  BTFSS  x22.7
0AC76:  BRA    ACFE
....................       { 
....................          glcd_fillScreen(OFF); 
0AC78:  MOVLB  9
0AC7A:  CLRF   x3D
0AC7C:  MOVLB  0
0AC7E:  CALL   14C0
....................          strcpy(Menus.Letra,"I"); 
0AC82:  MOVLW  09
0AC84:  MOVWF  FEA
0AC86:  MOVLW  0D
0AC88:  MOVWF  FE9
0AC8A:  MOVFF  FF2,936
0AC8E:  BCF    FF2.7
0AC90:  MOVLW  00
0AC92:  CALL   11F8
0AC96:  TBLRD*-
0AC98:  TBLRD*+
0AC9A:  MOVF   FF5,W
0AC9C:  MOVWF  FEE
0AC9E:  IORLW  00
0ACA0:  BNZ   AC98
0ACA2:  MOVLB  9
0ACA4:  BTFSC  x36.7
0ACA6:  BSF    FF2.7
....................          displayMenu(Menus.Letra,0,0,1,2); 
0ACA8:  MOVLW  09
0ACAA:  MOVWF  x3E
0ACAC:  MOVLW  0D
0ACAE:  MOVWF  x3D
0ACB0:  CLRF   x3F
0ACB2:  CLRF   x40
0ACB4:  MOVLW  01
0ACB6:  MOVWF  x41
0ACB8:  MOVLW  02
0ACBA:  MOVWF  x42
0ACBC:  MOVLB  0
0ACBE:  CALL   1AEE
....................           
....................          displayTemperatura(Integral,30,30,0,3); 
0ACC2:  MOVFF  6DE,945
0ACC6:  MOVFF  6DD,944
0ACCA:  MOVFF  6DC,943
0ACCE:  MOVFF  6DB,942
0ACD2:  CALL   27D4
0ACD6:  MOVFF  02,937
0ACDA:  MOVFF  01,936
0ACDE:  MOVFF  02,93C
0ACE2:  MOVFF  01,93B
0ACE6:  MOVLW  1E
0ACE8:  MOVLB  9
0ACEA:  MOVWF  x3D
0ACEC:  MOVWF  x3E
0ACEE:  CLRF   x3F
0ACF0:  MOVLW  03
0ACF2:  MOVWF  x40
0ACF4:  MOVLB  0
0ACF6:  CALL   33C4
....................           
....................          visual=0; 
0ACFA:  MOVLB  6
0ACFC:  BCF    x22.7
....................       } 
....................        
....................          if(UP)//Si oprime hacia arriba 
0ACFE:  BSF    F92.5
0AD00:  BTFSC  F80.5
0AD02:  BRA    ADA4
....................          {   
....................             Buzz_on;delay_ms(10);Buzz_off; 
0AD04:  BSF    F8B.5
0AD06:  BCF    F94.5
0AD08:  MOVLW  0A
0AD0A:  MOVLB  9
0AD0C:  MOVWF  x4C
0AD0E:  MOVLB  0
0AD10:  CALL   1440
0AD14:  BCF    F8B.5
0AD16:  BCF    F94.5
....................             if(Integral>40) 
0AD18:  MOVLB  9
0AD1A:  CLRF   x39
0AD1C:  CLRF   x38
0AD1E:  MOVLW  20
0AD20:  MOVWF  x37
0AD22:  MOVLW  84
0AD24:  MOVWF  x36
0AD26:  MOVFF  6DE,93D
0AD2A:  MOVFF  6DD,93C
0AD2E:  MOVFF  6DC,93B
0AD32:  MOVFF  6DB,93A
0AD36:  MOVLB  0
0AD38:  CALL   275A
0AD3C:  BNC   AD60
....................             { 
....................                Integral=40;delay_ms(100);visual=1; 
0AD3E:  MOVLB  6
0AD40:  CLRF   xDE
0AD42:  CLRF   xDD
0AD44:  MOVLW  20
0AD46:  MOVWF  xDC
0AD48:  MOVLW  84
0AD4A:  MOVWF  xDB
0AD4C:  MOVLW  64
0AD4E:  MOVLB  9
0AD50:  MOVWF  x4C
0AD52:  MOVLB  0
0AD54:  CALL   1440
0AD58:  MOVLB  6
0AD5A:  BSF    x22.7
....................             } 
....................             else 
0AD5C:  BRA    ADA4
0AD5E:  MOVLB  0
....................             { 
....................                delay_ms(30);Integral+=1.0;visual=1; 
0AD60:  MOVLW  1E
0AD62:  MOVLB  9
0AD64:  MOVWF  x4C
0AD66:  MOVLB  0
0AD68:  CALL   1440
0AD6C:  BCF    FD8.1
0AD6E:  MOVFF  6DE,94C
0AD72:  MOVFF  6DD,94B
0AD76:  MOVFF  6DC,94A
0AD7A:  MOVFF  6DB,949
0AD7E:  MOVLB  9
0AD80:  CLRF   x50
0AD82:  CLRF   x4F
0AD84:  CLRF   x4E
0AD86:  MOVLW  7F
0AD88:  MOVWF  x4D
0AD8A:  MOVLB  0
0AD8C:  CALL   1EA4
0AD90:  MOVFF  03,6DE
0AD94:  MOVFF  02,6DD
0AD98:  MOVFF  01,6DC
0AD9C:  MOVFF  00,6DB
0ADA0:  MOVLB  6
0ADA2:  BSF    x22.7
....................             } 
....................          } 
....................                 
....................          if(DOWN)//Si oprime hacia abajo 
0ADA4:  BSF    F96.0
0ADA6:  BTFSC  F84.0
0ADA8:  BRA    AE26
....................          {   
....................             Buzz_on;delay_ms(10);Buzz_off; 
0ADAA:  BSF    F8B.5
0ADAC:  BCF    F94.5
0ADAE:  MOVLW  0A
0ADB0:  MOVLB  9
0ADB2:  MOVWF  x4C
0ADB4:  MOVLB  0
0ADB6:  CALL   1440
0ADBA:  BCF    F8B.5
0ADBC:  BCF    F94.5
....................             if(Integral>1) 
0ADBE:  MOVLB  9
0ADC0:  CLRF   x39
0ADC2:  CLRF   x38
0ADC4:  CLRF   x37
0ADC6:  MOVLW  7F
0ADC8:  MOVWF  x36
0ADCA:  MOVFF  6DE,93D
0ADCE:  MOVFF  6DD,93C
0ADD2:  MOVFF  6DC,93B
0ADD6:  MOVFF  6DB,93A
0ADDA:  MOVLB  0
0ADDC:  CALL   275A
0ADE0:  BNC   AE28
....................             { 
....................                delay_ms(30);Integral-=1.0;visual=1;      
0ADE2:  MOVLW  1E
0ADE4:  MOVLB  9
0ADE6:  MOVWF  x4C
0ADE8:  MOVLB  0
0ADEA:  CALL   1440
0ADEE:  BSF    FD8.1
0ADF0:  MOVFF  6DE,94C
0ADF4:  MOVFF  6DD,94B
0ADF8:  MOVFF  6DC,94A
0ADFC:  MOVFF  6DB,949
0AE00:  MOVLB  9
0AE02:  CLRF   x50
0AE04:  CLRF   x4F
0AE06:  CLRF   x4E
0AE08:  MOVLW  7F
0AE0A:  MOVWF  x4D
0AE0C:  MOVLB  0
0AE0E:  CALL   1EA4
0AE12:  MOVFF  03,6DE
0AE16:  MOVFF  02,6DD
0AE1A:  MOVFF  01,6DC
0AE1E:  MOVFF  00,6DB
0AE22:  MOVLB  6
0AE24:  BSF    x22.7
0AE26:  MOVLB  0
....................             } 
....................          } 
....................                 
....................          if(RIGHT)//Si oprime SET 
0AE28:  BSF    F96.1
0AE2A:  BTFSC  F84.1
0AE2C:  BRA    AE54
....................          {   
....................             Buzz_on;delay_ms(10);Buzz_off; 
0AE2E:  BSF    F8B.5
0AE30:  BCF    F94.5
0AE32:  MOVLW  0A
0AE34:  MOVLB  9
0AE36:  MOVWF  x4C
0AE38:  MOVLB  0
0AE3A:  CALL   1440
0AE3E:  BCF    F8B.5
0AE40:  BCF    F94.5
....................             delay_ms(30);visual=1; 
0AE42:  MOVLW  1E
0AE44:  MOVLB  9
0AE46:  MOVWF  x4C
0AE48:  MOVLB  0
0AE4A:  CALL   1440
0AE4E:  MOVLB  6
0AE50:  BSF    x22.7
0AE52:  MOVLB  0
....................          }  
....................                    
....................          if(LEFT)//Si oprime boton de Toma. 
0AE54:  BSF    F96.2
0AE56:  BTFSC  F84.2
0AE58:  BRA    AEE6
....................          { 
....................             Buzz_on;delay_ms(10);Buzz_off; 
0AE5A:  BSF    F8B.5
0AE5C:  BCF    F94.5
0AE5E:  MOVLW  0A
0AE60:  MOVLB  9
0AE62:  MOVWF  x4C
0AE64:  MOVLB  0
0AE66:  CALL   1440
0AE6A:  BCF    F8B.5
0AE6C:  BCF    F94.5
....................             delay_ms(700);Menu=100;glcd_fillscreen(OFF);Opcion=1;visual=1; 
0AE6E:  MOVLW  04
0AE70:  MOVLB  9
0AE72:  MOVWF  x36
0AE74:  MOVLW  AF
0AE76:  MOVWF  x4C
0AE78:  MOVLB  0
0AE7A:  CALL   1440
0AE7E:  MOVLB  9
0AE80:  DECFSZ x36,F
0AE82:  BRA    AE74
0AE84:  MOVLW  64
0AE86:  MOVLB  6
0AE88:  MOVWF  x38
0AE8A:  MOVLB  9
0AE8C:  CLRF   x3D
0AE8E:  MOVLB  0
0AE90:  CALL   14C0
0AE94:  MOVLW  01
0AE96:  MOVLB  6
0AE98:  MOVWF  x3F
0AE9A:  BSF    x22.7
....................             write_eeprom(470,(int8)Integral); 
0AE9C:  MOVFF  6DE,945
0AEA0:  MOVFF  6DD,944
0AEA4:  MOVFF  6DC,943
0AEA8:  MOVFF  6DB,942
0AEAC:  MOVLB  0
0AEAE:  CALL   27D4
0AEB2:  MOVFF  01,936
0AEB6:  MOVLW  01
0AEB8:  MOVWF  FAA
0AEBA:  MOVLW  D6
0AEBC:  MOVWF  FA9
0AEBE:  MOVFF  936,FA8
0AEC2:  BCF    FA6.6
0AEC4:  BCF    FA6.7
0AEC6:  BSF    FA6.2
0AEC8:  MOVF   FF2,W
0AECA:  MOVWF  00
0AECC:  BCF    FF2.7
0AECE:  MOVLB  F
0AED0:  MOVLW  55
0AED2:  MOVWF  FA7
0AED4:  MOVLW  AA
0AED6:  MOVWF  FA7
0AED8:  BSF    FA6.1
0AEDA:  BTFSC  FA6.1
0AEDC:  BRA    AEDA
0AEDE:  BCF    FA6.2
0AEE0:  MOVF   00,W
0AEE2:  IORWF  FF2,F
0AEE4:  MOVLB  0
0AEE6:  MOVLB  6
....................          } 
....................      } 
.................... //_-------------------------------------------------------------------------------------------------------------------------------------------------------- 
....................  
.................... //_--------------------------------------------------------------------------------------------------------------------------------------------------------       
....................       if(Menu==103){ // Menu de Ajuste de Derivativo 
0AEE8:  MOVF   x38,W
0AEEA:  SUBLW  67
0AEEC:  BTFSS  FD8.2
0AEEE:  BRA    B198
....................        
....................       if(Derivativo>200) 
0AEF0:  MOVLB  9
0AEF2:  CLRF   x39
0AEF4:  CLRF   x38
0AEF6:  MOVLW  48
0AEF8:  MOVWF  x37
0AEFA:  MOVLW  86
0AEFC:  MOVWF  x36
0AEFE:  MOVFF  6E2,93D
0AF02:  MOVFF  6E1,93C
0AF06:  MOVFF  6E0,93B
0AF0A:  MOVFF  6DF,93A
0AF0E:  MOVLB  0
0AF10:  CALL   275A
0AF14:  BNC   AF22
....................       { 
....................          Derivativo=2; 
0AF16:  MOVLB  6
0AF18:  CLRF   xE2
0AF1A:  CLRF   xE1
0AF1C:  CLRF   xE0
0AF1E:  MOVLW  80
0AF20:  MOVWF  xDF
....................       } 
....................        
....................       if(visual==1) 
0AF22:  MOVLB  6
0AF24:  BTFSS  x22.7
0AF26:  BRA    AFAE
....................       { 
....................          glcd_fillScreen(OFF); 
0AF28:  MOVLB  9
0AF2A:  CLRF   x3D
0AF2C:  MOVLB  0
0AF2E:  CALL   14C0
....................          strcpy(Menus.Letra,"D"); 
0AF32:  MOVLW  09
0AF34:  MOVWF  FEA
0AF36:  MOVLW  0D
0AF38:  MOVWF  FE9
0AF3A:  MOVFF  FF2,936
0AF3E:  BCF    FF2.7
0AF40:  MOVLW  00
0AF42:  CALL   1218
0AF46:  TBLRD*-
0AF48:  TBLRD*+
0AF4A:  MOVF   FF5,W
0AF4C:  MOVWF  FEE
0AF4E:  IORLW  00
0AF50:  BNZ   AF48
0AF52:  MOVLB  9
0AF54:  BTFSC  x36.7
0AF56:  BSF    FF2.7
....................          displayMenu(Menus.Letra,0,0,1,2); 
0AF58:  MOVLW  09
0AF5A:  MOVWF  x3E
0AF5C:  MOVLW  0D
0AF5E:  MOVWF  x3D
0AF60:  CLRF   x3F
0AF62:  CLRF   x40
0AF64:  MOVLW  01
0AF66:  MOVWF  x41
0AF68:  MOVLW  02
0AF6A:  MOVWF  x42
0AF6C:  MOVLB  0
0AF6E:  CALL   1AEE
....................           
....................          displayTemperatura(Derivativo,30,30,0,3); 
0AF72:  MOVFF  6E2,945
0AF76:  MOVFF  6E1,944
0AF7A:  MOVFF  6E0,943
0AF7E:  MOVFF  6DF,942
0AF82:  CALL   27D4
0AF86:  MOVFF  02,937
0AF8A:  MOVFF  01,936
0AF8E:  MOVFF  02,93C
0AF92:  MOVFF  01,93B
0AF96:  MOVLW  1E
0AF98:  MOVLB  9
0AF9A:  MOVWF  x3D
0AF9C:  MOVWF  x3E
0AF9E:  CLRF   x3F
0AFA0:  MOVLW  03
0AFA2:  MOVWF  x40
0AFA4:  MOVLB  0
0AFA6:  CALL   33C4
....................           
....................          visual=0; 
0AFAA:  MOVLB  6
0AFAC:  BCF    x22.7
....................       } 
....................        
....................          if(UP)//Si oprime hacia arriba 
0AFAE:  BSF    F92.5
0AFB0:  BTFSC  F80.5
0AFB2:  BRA    B054
....................          {   
....................             Buzz_on;delay_ms(10);Buzz_off; 
0AFB4:  BSF    F8B.5
0AFB6:  BCF    F94.5
0AFB8:  MOVLW  0A
0AFBA:  MOVLB  9
0AFBC:  MOVWF  x4C
0AFBE:  MOVLB  0
0AFC0:  CALL   1440
0AFC4:  BCF    F8B.5
0AFC6:  BCF    F94.5
....................             if(Derivativo>200) 
0AFC8:  MOVLB  9
0AFCA:  CLRF   x39
0AFCC:  CLRF   x38
0AFCE:  MOVLW  48
0AFD0:  MOVWF  x37
0AFD2:  MOVLW  86
0AFD4:  MOVWF  x36
0AFD6:  MOVFF  6E2,93D
0AFDA:  MOVFF  6E1,93C
0AFDE:  MOVFF  6E0,93B
0AFE2:  MOVFF  6DF,93A
0AFE6:  MOVLB  0
0AFE8:  CALL   275A
0AFEC:  BNC   B010
....................             { 
....................                Derivativo=200;delay_ms(100);visual=1; 
0AFEE:  MOVLB  6
0AFF0:  CLRF   xE2
0AFF2:  CLRF   xE1
0AFF4:  MOVLW  48
0AFF6:  MOVWF  xE0
0AFF8:  MOVLW  86
0AFFA:  MOVWF  xDF
0AFFC:  MOVLW  64
0AFFE:  MOVLB  9
0B000:  MOVWF  x4C
0B002:  MOVLB  0
0B004:  CALL   1440
0B008:  MOVLB  6
0B00A:  BSF    x22.7
....................             } 
....................             else 
0B00C:  BRA    B054
0B00E:  MOVLB  0
....................             { 
....................                delay_ms(30);Derivativo+=1.0;visual=1; 
0B010:  MOVLW  1E
0B012:  MOVLB  9
0B014:  MOVWF  x4C
0B016:  MOVLB  0
0B018:  CALL   1440
0B01C:  BCF    FD8.1
0B01E:  MOVFF  6E2,94C
0B022:  MOVFF  6E1,94B
0B026:  MOVFF  6E0,94A
0B02A:  MOVFF  6DF,949
0B02E:  MOVLB  9
0B030:  CLRF   x50
0B032:  CLRF   x4F
0B034:  CLRF   x4E
0B036:  MOVLW  7F
0B038:  MOVWF  x4D
0B03A:  MOVLB  0
0B03C:  CALL   1EA4
0B040:  MOVFF  03,6E2
0B044:  MOVFF  02,6E1
0B048:  MOVFF  01,6E0
0B04C:  MOVFF  00,6DF
0B050:  MOVLB  6
0B052:  BSF    x22.7
....................             } 
....................          } 
....................                 
....................          if(DOWN)//Si oprime hacia abajo 
0B054:  BSF    F96.0
0B056:  BTFSC  F84.0
0B058:  BRA    B0D6
....................          {   
....................             Buzz_on;delay_ms(10);Buzz_off; 
0B05A:  BSF    F8B.5
0B05C:  BCF    F94.5
0B05E:  MOVLW  0A
0B060:  MOVLB  9
0B062:  MOVWF  x4C
0B064:  MOVLB  0
0B066:  CALL   1440
0B06A:  BCF    F8B.5
0B06C:  BCF    F94.5
....................             if(Derivativo>1) 
0B06E:  MOVLB  9
0B070:  CLRF   x39
0B072:  CLRF   x38
0B074:  CLRF   x37
0B076:  MOVLW  7F
0B078:  MOVWF  x36
0B07A:  MOVFF  6E2,93D
0B07E:  MOVFF  6E1,93C
0B082:  MOVFF  6E0,93B
0B086:  MOVFF  6DF,93A
0B08A:  MOVLB  0
0B08C:  CALL   275A
0B090:  BNC   B0D8
....................             { 
....................                delay_ms(30);Derivativo-=1.0;visual=1;      
0B092:  MOVLW  1E
0B094:  MOVLB  9
0B096:  MOVWF  x4C
0B098:  MOVLB  0
0B09A:  CALL   1440
0B09E:  BSF    FD8.1
0B0A0:  MOVFF  6E2,94C
0B0A4:  MOVFF  6E1,94B
0B0A8:  MOVFF  6E0,94A
0B0AC:  MOVFF  6DF,949
0B0B0:  MOVLB  9
0B0B2:  CLRF   x50
0B0B4:  CLRF   x4F
0B0B6:  CLRF   x4E
0B0B8:  MOVLW  7F
0B0BA:  MOVWF  x4D
0B0BC:  MOVLB  0
0B0BE:  CALL   1EA4
0B0C2:  MOVFF  03,6E2
0B0C6:  MOVFF  02,6E1
0B0CA:  MOVFF  01,6E0
0B0CE:  MOVFF  00,6DF
0B0D2:  MOVLB  6
0B0D4:  BSF    x22.7
0B0D6:  MOVLB  0
....................             } 
....................          } 
....................                 
....................          if(RIGHT)//Si oprime SET 
0B0D8:  BSF    F96.1
0B0DA:  BTFSC  F84.1
0B0DC:  BRA    B104
....................          {   
....................             Buzz_on;delay_ms(10);Buzz_off; 
0B0DE:  BSF    F8B.5
0B0E0:  BCF    F94.5
0B0E2:  MOVLW  0A
0B0E4:  MOVLB  9
0B0E6:  MOVWF  x4C
0B0E8:  MOVLB  0
0B0EA:  CALL   1440
0B0EE:  BCF    F8B.5
0B0F0:  BCF    F94.5
....................             delay_ms(30);visual=1; 
0B0F2:  MOVLW  1E
0B0F4:  MOVLB  9
0B0F6:  MOVWF  x4C
0B0F8:  MOVLB  0
0B0FA:  CALL   1440
0B0FE:  MOVLB  6
0B100:  BSF    x22.7
0B102:  MOVLB  0
....................          }  
....................                    
....................          if(LEFT)//Si oprime boton de Toma. 
0B104:  BSF    F96.2
0B106:  BTFSC  F84.2
0B108:  BRA    B196
....................          { 
....................             Buzz_on;delay_ms(10);Buzz_off; 
0B10A:  BSF    F8B.5
0B10C:  BCF    F94.5
0B10E:  MOVLW  0A
0B110:  MOVLB  9
0B112:  MOVWF  x4C
0B114:  MOVLB  0
0B116:  CALL   1440
0B11A:  BCF    F8B.5
0B11C:  BCF    F94.5
....................             delay_ms(700);Menu=100;glcd_fillscreen(OFF);Opcion=1;visual=1; 
0B11E:  MOVLW  04
0B120:  MOVLB  9
0B122:  MOVWF  x36
0B124:  MOVLW  AF
0B126:  MOVWF  x4C
0B128:  MOVLB  0
0B12A:  CALL   1440
0B12E:  MOVLB  9
0B130:  DECFSZ x36,F
0B132:  BRA    B124
0B134:  MOVLW  64
0B136:  MOVLB  6
0B138:  MOVWF  x38
0B13A:  MOVLB  9
0B13C:  CLRF   x3D
0B13E:  MOVLB  0
0B140:  CALL   14C0
0B144:  MOVLW  01
0B146:  MOVLB  6
0B148:  MOVWF  x3F
0B14A:  BSF    x22.7
....................             write_eeprom(471,(int8)Derivativo); 
0B14C:  MOVFF  6E2,945
0B150:  MOVFF  6E1,944
0B154:  MOVFF  6E0,943
0B158:  MOVFF  6DF,942
0B15C:  MOVLB  0
0B15E:  CALL   27D4
0B162:  MOVFF  01,936
0B166:  MOVLW  01
0B168:  MOVWF  FAA
0B16A:  MOVLW  D7
0B16C:  MOVWF  FA9
0B16E:  MOVFF  936,FA8
0B172:  BCF    FA6.6
0B174:  BCF    FA6.7
0B176:  BSF    FA6.2
0B178:  MOVF   FF2,W
0B17A:  MOVWF  00
0B17C:  BCF    FF2.7
0B17E:  MOVLB  F
0B180:  MOVLW  55
0B182:  MOVWF  FA7
0B184:  MOVLW  AA
0B186:  MOVWF  FA7
0B188:  BSF    FA6.1
0B18A:  BTFSC  FA6.1
0B18C:  BRA    B18A
0B18E:  BCF    FA6.2
0B190:  MOVF   00,W
0B192:  IORWF  FF2,F
0B194:  MOVLB  0
0B196:  MOVLB  6
....................          } 
....................      } 
.................... //_-------------------------------------------------------------------------------------------------------------------------------------------------------- 
....................  
....................  
.................... //_--------------------------------------------------------------------------------------------------------------------------------------------------------       
....................       if(Menu==104){ // Menu de Ajuste de Ganancia2 
0B198:  MOVF   x38,W
0B19A:  SUBLW  68
0B19C:  BTFSS  FD8.2
0B19E:  BRA    B44A
....................        
....................       if(Tciclo>40) 
0B1A0:  MOVLB  9
0B1A2:  CLRF   x39
0B1A4:  CLRF   x38
0B1A6:  MOVLW  20
0B1A8:  MOVWF  x37
0B1AA:  MOVLW  84
0B1AC:  MOVWF  x36
0B1AE:  MOVFF  69E,93D
0B1B2:  MOVFF  69D,93C
0B1B6:  MOVFF  69C,93B
0B1BA:  MOVFF  69B,93A
0B1BE:  MOVLB  0
0B1C0:  CALL   275A
0B1C4:  BNC   B1D4
....................       { 
....................          Tciclo=40; 
0B1C6:  MOVLB  6
0B1C8:  CLRF   x9E
0B1CA:  CLRF   x9D
0B1CC:  MOVLW  20
0B1CE:  MOVWF  x9C
0B1D0:  MOVLW  84
0B1D2:  MOVWF  x9B
....................       } 
....................        
....................       if(visual==1) 
0B1D4:  MOVLB  6
0B1D6:  BTFSS  x22.7
0B1D8:  BRA    B260
....................       { 
....................          glcd_fillScreen(OFF); 
0B1DA:  MOVLB  9
0B1DC:  CLRF   x3D
0B1DE:  MOVLB  0
0B1E0:  CALL   14C0
....................          strcpy(Menus.Letra,"Tciclo"); 
0B1E4:  MOVLW  09
0B1E6:  MOVWF  FEA
0B1E8:  MOVLW  0D
0B1EA:  MOVWF  FE9
0B1EC:  MOVFF  FF2,936
0B1F0:  BCF    FF2.7
0B1F2:  MOVLW  00
0B1F4:  CALL   104E
0B1F8:  TBLRD*-
0B1FA:  TBLRD*+
0B1FC:  MOVF   FF5,W
0B1FE:  MOVWF  FEE
0B200:  IORLW  00
0B202:  BNZ   B1FA
0B204:  MOVLB  9
0B206:  BTFSC  x36.7
0B208:  BSF    FF2.7
....................          displayMenu(Menus.Letra,0,0,1,2); 
0B20A:  MOVLW  09
0B20C:  MOVWF  x3E
0B20E:  MOVLW  0D
0B210:  MOVWF  x3D
0B212:  CLRF   x3F
0B214:  CLRF   x40
0B216:  MOVLW  01
0B218:  MOVWF  x41
0B21A:  MOVLW  02
0B21C:  MOVWF  x42
0B21E:  MOVLB  0
0B220:  CALL   1AEE
....................           
....................          displayTemperatura(Tciclo,30,30,0,3); 
0B224:  MOVFF  69E,945
0B228:  MOVFF  69D,944
0B22C:  MOVFF  69C,943
0B230:  MOVFF  69B,942
0B234:  CALL   27D4
0B238:  MOVFF  02,937
0B23C:  MOVFF  01,936
0B240:  MOVFF  02,93C
0B244:  MOVFF  01,93B
0B248:  MOVLW  1E
0B24A:  MOVLB  9
0B24C:  MOVWF  x3D
0B24E:  MOVWF  x3E
0B250:  CLRF   x3F
0B252:  MOVLW  03
0B254:  MOVWF  x40
0B256:  MOVLB  0
0B258:  CALL   33C4
....................           
....................          visual=0; 
0B25C:  MOVLB  6
0B25E:  BCF    x22.7
....................       } 
....................        
....................          if(UP)//Si oprime hacia arriba 
0B260:  BSF    F92.5
0B262:  BTFSC  F80.5
0B264:  BRA    B306
....................          {   
....................             Buzz_on;delay_ms(10);Buzz_off; 
0B266:  BSF    F8B.5
0B268:  BCF    F94.5
0B26A:  MOVLW  0A
0B26C:  MOVLB  9
0B26E:  MOVWF  x4C
0B270:  MOVLB  0
0B272:  CALL   1440
0B276:  BCF    F8B.5
0B278:  BCF    F94.5
....................             if(Tciclo>40) 
0B27A:  MOVLB  9
0B27C:  CLRF   x39
0B27E:  CLRF   x38
0B280:  MOVLW  20
0B282:  MOVWF  x37
0B284:  MOVLW  84
0B286:  MOVWF  x36
0B288:  MOVFF  69E,93D
0B28C:  MOVFF  69D,93C
0B290:  MOVFF  69C,93B
0B294:  MOVFF  69B,93A
0B298:  MOVLB  0
0B29A:  CALL   275A
0B29E:  BNC   B2C2
....................             { 
....................                Tciclo=40;delay_ms(100);visual=1; 
0B2A0:  MOVLB  6
0B2A2:  CLRF   x9E
0B2A4:  CLRF   x9D
0B2A6:  MOVLW  20
0B2A8:  MOVWF  x9C
0B2AA:  MOVLW  84
0B2AC:  MOVWF  x9B
0B2AE:  MOVLW  64
0B2B0:  MOVLB  9
0B2B2:  MOVWF  x4C
0B2B4:  MOVLB  0
0B2B6:  CALL   1440
0B2BA:  MOVLB  6
0B2BC:  BSF    x22.7
....................             } 
....................             else 
0B2BE:  BRA    B306
0B2C0:  MOVLB  0
....................             { 
....................                delay_ms(30);Tciclo+=1.0;visual=1; 
0B2C2:  MOVLW  1E
0B2C4:  MOVLB  9
0B2C6:  MOVWF  x4C
0B2C8:  MOVLB  0
0B2CA:  CALL   1440
0B2CE:  BCF    FD8.1
0B2D0:  MOVFF  69E,94C
0B2D4:  MOVFF  69D,94B
0B2D8:  MOVFF  69C,94A
0B2DC:  MOVFF  69B,949
0B2E0:  MOVLB  9
0B2E2:  CLRF   x50
0B2E4:  CLRF   x4F
0B2E6:  CLRF   x4E
0B2E8:  MOVLW  7F
0B2EA:  MOVWF  x4D
0B2EC:  MOVLB  0
0B2EE:  CALL   1EA4
0B2F2:  MOVFF  03,69E
0B2F6:  MOVFF  02,69D
0B2FA:  MOVFF  01,69C
0B2FE:  MOVFF  00,69B
0B302:  MOVLB  6
0B304:  BSF    x22.7
....................             } 
....................          } 
....................                 
....................          if(DOWN)//Si oprime hacia abajo 
0B306:  BSF    F96.0
0B308:  BTFSC  F84.0
0B30A:  BRA    B388
....................          {   
....................             Buzz_on;delay_ms(10);Buzz_off; 
0B30C:  BSF    F8B.5
0B30E:  BCF    F94.5
0B310:  MOVLW  0A
0B312:  MOVLB  9
0B314:  MOVWF  x4C
0B316:  MOVLB  0
0B318:  CALL   1440
0B31C:  BCF    F8B.5
0B31E:  BCF    F94.5
....................             if(Tciclo>1) 
0B320:  MOVLB  9
0B322:  CLRF   x39
0B324:  CLRF   x38
0B326:  CLRF   x37
0B328:  MOVLW  7F
0B32A:  MOVWF  x36
0B32C:  MOVFF  69E,93D
0B330:  MOVFF  69D,93C
0B334:  MOVFF  69C,93B
0B338:  MOVFF  69B,93A
0B33C:  MOVLB  0
0B33E:  CALL   275A
0B342:  BNC   B38A
....................             { 
....................                delay_ms(30);Tciclo-=1.0;visual=1;      
0B344:  MOVLW  1E
0B346:  MOVLB  9
0B348:  MOVWF  x4C
0B34A:  MOVLB  0
0B34C:  CALL   1440
0B350:  BSF    FD8.1
0B352:  MOVFF  69E,94C
0B356:  MOVFF  69D,94B
0B35A:  MOVFF  69C,94A
0B35E:  MOVFF  69B,949
0B362:  MOVLB  9
0B364:  CLRF   x50
0B366:  CLRF   x4F
0B368:  CLRF   x4E
0B36A:  MOVLW  7F
0B36C:  MOVWF  x4D
0B36E:  MOVLB  0
0B370:  CALL   1EA4
0B374:  MOVFF  03,69E
0B378:  MOVFF  02,69D
0B37C:  MOVFF  01,69C
0B380:  MOVFF  00,69B
0B384:  MOVLB  6
0B386:  BSF    x22.7
0B388:  MOVLB  0
....................             } 
....................          } 
....................                 
....................          if(RIGHT)//Si oprime SET 
0B38A:  BSF    F96.1
0B38C:  BTFSC  F84.1
0B38E:  BRA    B3B6
....................          {   
....................             Buzz_on;delay_ms(10);Buzz_off; 
0B390:  BSF    F8B.5
0B392:  BCF    F94.5
0B394:  MOVLW  0A
0B396:  MOVLB  9
0B398:  MOVWF  x4C
0B39A:  MOVLB  0
0B39C:  CALL   1440
0B3A0:  BCF    F8B.5
0B3A2:  BCF    F94.5
....................             delay_ms(30);visual=1; 
0B3A4:  MOVLW  1E
0B3A6:  MOVLB  9
0B3A8:  MOVWF  x4C
0B3AA:  MOVLB  0
0B3AC:  CALL   1440
0B3B0:  MOVLB  6
0B3B2:  BSF    x22.7
0B3B4:  MOVLB  0
....................          }  
....................                    
....................          if(LEFT)//Si oprime boton de Toma. 
0B3B6:  BSF    F96.2
0B3B8:  BTFSC  F84.2
0B3BA:  BRA    B448
....................          { 
....................             Buzz_on;delay_ms(10);Buzz_off; 
0B3BC:  BSF    F8B.5
0B3BE:  BCF    F94.5
0B3C0:  MOVLW  0A
0B3C2:  MOVLB  9
0B3C4:  MOVWF  x4C
0B3C6:  MOVLB  0
0B3C8:  CALL   1440
0B3CC:  BCF    F8B.5
0B3CE:  BCF    F94.5
....................             delay_ms(700);Menu=100;glcd_fillscreen(OFF);Opcion=1;visual=1; 
0B3D0:  MOVLW  04
0B3D2:  MOVLB  9
0B3D4:  MOVWF  x36
0B3D6:  MOVLW  AF
0B3D8:  MOVWF  x4C
0B3DA:  MOVLB  0
0B3DC:  CALL   1440
0B3E0:  MOVLB  9
0B3E2:  DECFSZ x36,F
0B3E4:  BRA    B3D6
0B3E6:  MOVLW  64
0B3E8:  MOVLB  6
0B3EA:  MOVWF  x38
0B3EC:  MOVLB  9
0B3EE:  CLRF   x3D
0B3F0:  MOVLB  0
0B3F2:  CALL   14C0
0B3F6:  MOVLW  01
0B3F8:  MOVLB  6
0B3FA:  MOVWF  x3F
0B3FC:  BSF    x22.7
....................             write_eeprom(451,(int8)Tciclo); 
0B3FE:  MOVFF  69E,945
0B402:  MOVFF  69D,944
0B406:  MOVFF  69C,943
0B40A:  MOVFF  69B,942
0B40E:  MOVLB  0
0B410:  CALL   27D4
0B414:  MOVFF  01,936
0B418:  MOVLW  01
0B41A:  MOVWF  FAA
0B41C:  MOVLW  C3
0B41E:  MOVWF  FA9
0B420:  MOVFF  936,FA8
0B424:  BCF    FA6.6
0B426:  BCF    FA6.7
0B428:  BSF    FA6.2
0B42A:  MOVF   FF2,W
0B42C:  MOVWF  00
0B42E:  BCF    FF2.7
0B430:  MOVLB  F
0B432:  MOVLW  55
0B434:  MOVWF  FA7
0B436:  MOVLW  AA
0B438:  MOVWF  FA7
0B43A:  BSF    FA6.1
0B43C:  BTFSC  FA6.1
0B43E:  BRA    B43C
0B440:  BCF    FA6.2
0B442:  MOVF   00,W
0B444:  IORWF  FF2,F
0B446:  MOVLB  0
0B448:  MOVLB  6
....................          } 
....................      } 
.................... //_-------------------------------------------------------------------------------------------------------------------------------------------------------- 
....................  
.................... //_--------------------------------------------------------------------------------------------------------------------------------------------------------       
....................       if(Menu==105){ // Menu de Ajuste de Ajuste 
0B44A:  MOVF   x38,W
0B44C:  SUBLW  69
0B44E:  BTFSS  FD8.2
0B450:  BRA    B670
....................        
....................       if(Ajuste>100) 
0B452:  MOVF   x25,W
0B454:  SUBLW  64
0B456:  BC    B45A
....................       { 
....................          Ajuste=0; 
0B458:  CLRF   x25
....................       } 
....................        
....................       if(visual==1) 
0B45A:  BTFSS  x22.7
0B45C:  BRA    B4C6
....................       { 
....................          glcd_fillScreen(OFF); 
0B45E:  MOVLB  9
0B460:  CLRF   x3D
0B462:  MOVLB  0
0B464:  CALL   14C0
....................          strcpy(Menus.Letra,"Ajuste"); 
0B468:  MOVLW  09
0B46A:  MOVWF  FEA
0B46C:  MOVLW  0D
0B46E:  MOVWF  FE9
0B470:  MOVFF  FF2,936
0B474:  BCF    FF2.7
0B476:  MOVLW  00
0B478:  CALL   1238
0B47C:  TBLRD*-
0B47E:  TBLRD*+
0B480:  MOVF   FF5,W
0B482:  MOVWF  FEE
0B484:  IORLW  00
0B486:  BNZ   B47E
0B488:  MOVLB  9
0B48A:  BTFSC  x36.7
0B48C:  BSF    FF2.7
....................          displayMenu(Menus.Letra,0,0,1,2); 
0B48E:  MOVLW  09
0B490:  MOVWF  x3E
0B492:  MOVLW  0D
0B494:  MOVWF  x3D
0B496:  CLRF   x3F
0B498:  CLRF   x40
0B49A:  MOVLW  01
0B49C:  MOVWF  x41
0B49E:  MOVLW  02
0B4A0:  MOVWF  x42
0B4A2:  MOVLB  0
0B4A4:  CALL   1AEE
....................           
....................          displayTemperatura(Ajuste,30,30,0,3); 
0B4A8:  MOVLB  9
0B4AA:  CLRF   x3C
0B4AC:  MOVFF  625,93B
0B4B0:  MOVLW  1E
0B4B2:  MOVWF  x3D
0B4B4:  MOVWF  x3E
0B4B6:  CLRF   x3F
0B4B8:  MOVLW  03
0B4BA:  MOVWF  x40
0B4BC:  MOVLB  0
0B4BE:  CALL   33C4
....................           
....................          visual=0; 
0B4C2:  MOVLB  6
0B4C4:  BCF    x22.7
....................       } 
....................        
....................          if(UP)//Si oprime hacia arriba 
0B4C6:  BSF    F92.5
0B4C8:  BTFSC  F80.5
0B4CA:  BRA    B556
....................          {   
....................             Buzz_on;delay_ms(10);Buzz_off; 
0B4CC:  BSF    F8B.5
0B4CE:  BCF    F94.5
0B4D0:  MOVLW  0A
0B4D2:  MOVLB  9
0B4D4:  MOVWF  x4C
0B4D6:  MOVLB  0
0B4D8:  CALL   1440
0B4DC:  BCF    F8B.5
0B4DE:  BCF    F94.5
....................             if(Ajuste>100) 
0B4E0:  MOVLB  6
0B4E2:  MOVF   x25,W
0B4E4:  SUBLW  64
0B4E6:  BC    B4FC
....................             { 
....................                Ajuste=100;delay_ms(100);visual=1; 
0B4E8:  MOVLW  64
0B4EA:  MOVWF  x25
0B4EC:  MOVLB  9
0B4EE:  MOVWF  x4C
0B4F0:  MOVLB  0
0B4F2:  CALL   1440
0B4F6:  MOVLB  6
0B4F8:  BSF    x22.7
....................             } 
....................             else 
0B4FA:  BRA    B556
....................             { 
....................                delay_ms(30);Ajuste+=1.0;visual=1; 
0B4FC:  MOVLW  1E
0B4FE:  MOVLB  9
0B500:  MOVWF  x4C
0B502:  MOVLB  0
0B504:  CALL   1440
0B508:  MOVLB  9
0B50A:  CLRF   x4D
0B50C:  MOVFF  625,94C
0B510:  MOVLB  0
0B512:  CALL   1DF6
0B516:  BCF    FD8.1
0B518:  MOVFF  03,94C
0B51C:  MOVFF  02,94B
0B520:  MOVFF  01,94A
0B524:  MOVFF  00,949
0B528:  MOVLB  9
0B52A:  CLRF   x50
0B52C:  CLRF   x4F
0B52E:  CLRF   x4E
0B530:  MOVLW  7F
0B532:  MOVWF  x4D
0B534:  MOVLB  0
0B536:  CALL   1EA4
0B53A:  MOVFF  03,945
0B53E:  MOVFF  02,944
0B542:  MOVFF  01,943
0B546:  MOVFF  00,942
0B54A:  CALL   27D4
0B54E:  MOVFF  01,625
0B552:  MOVLB  6
0B554:  BSF    x22.7
....................             } 
....................          } 
....................                 
....................          if(DOWN)//Si oprime hacia abajo 
0B556:  BSF    F96.0
0B558:  BTFSC  F84.0
0B55A:  BRA    B5D0
....................          {   
....................             Buzz_on;delay_ms(10);Buzz_off; 
0B55C:  BSF    F8B.5
0B55E:  BCF    F94.5
0B560:  MOVLW  0A
0B562:  MOVLB  9
0B564:  MOVWF  x4C
0B566:  MOVLB  0
0B568:  CALL   1440
0B56C:  BCF    F8B.5
0B56E:  BCF    F94.5
....................             if(Ajuste>0) 
0B570:  MOVLB  6
0B572:  MOVF   x25,F
0B574:  BZ    B5D0
....................             { 
....................                delay_ms(30);Ajuste-=1.0;visual=1;      
0B576:  MOVLW  1E
0B578:  MOVLB  9
0B57A:  MOVWF  x4C
0B57C:  MOVLB  0
0B57E:  CALL   1440
0B582:  MOVLB  9
0B584:  CLRF   x4D
0B586:  MOVFF  625,94C
0B58A:  MOVLB  0
0B58C:  CALL   1DF6
0B590:  BSF    FD8.1
0B592:  MOVFF  03,94C
0B596:  MOVFF  02,94B
0B59A:  MOVFF  01,94A
0B59E:  MOVFF  00,949
0B5A2:  MOVLB  9
0B5A4:  CLRF   x50
0B5A6:  CLRF   x4F
0B5A8:  CLRF   x4E
0B5AA:  MOVLW  7F
0B5AC:  MOVWF  x4D
0B5AE:  MOVLB  0
0B5B0:  CALL   1EA4
0B5B4:  MOVFF  03,945
0B5B8:  MOVFF  02,944
0B5BC:  MOVFF  01,943
0B5C0:  MOVFF  00,942
0B5C4:  CALL   27D4
0B5C8:  MOVFF  01,625
0B5CC:  MOVLB  6
0B5CE:  BSF    x22.7
....................             } 
....................          } 
....................                 
....................          if(RIGHT)//Si oprime SET 
0B5D0:  BSF    F96.1
0B5D2:  BTFSC  F84.1
0B5D4:  BRA    B5FA
....................          {   
....................             Buzz_on;delay_ms(10);Buzz_off; 
0B5D6:  BSF    F8B.5
0B5D8:  BCF    F94.5
0B5DA:  MOVLW  0A
0B5DC:  MOVLB  9
0B5DE:  MOVWF  x4C
0B5E0:  MOVLB  0
0B5E2:  CALL   1440
0B5E6:  BCF    F8B.5
0B5E8:  BCF    F94.5
....................             delay_ms(30);visual=1; 
0B5EA:  MOVLW  1E
0B5EC:  MOVLB  9
0B5EE:  MOVWF  x4C
0B5F0:  MOVLB  0
0B5F2:  CALL   1440
0B5F6:  MOVLB  6
0B5F8:  BSF    x22.7
....................          }  
....................                    
....................          if(LEFT)//Si oprime boton de Toma. 
0B5FA:  BSF    F96.2
0B5FC:  BTFSC  F84.2
0B5FE:  BRA    B670
....................          { 
....................             Buzz_on;delay_ms(10);Buzz_off; 
0B600:  BSF    F8B.5
0B602:  BCF    F94.5
0B604:  MOVLW  0A
0B606:  MOVLB  9
0B608:  MOVWF  x4C
0B60A:  MOVLB  0
0B60C:  CALL   1440
0B610:  BCF    F8B.5
0B612:  BCF    F94.5
....................             delay_ms(700);Menu=100;glcd_fillscreen(OFF);Opcion=1;visual=1; 
0B614:  MOVLW  04
0B616:  MOVLB  9
0B618:  MOVWF  x36
0B61A:  MOVLW  AF
0B61C:  MOVWF  x4C
0B61E:  MOVLB  0
0B620:  CALL   1440
0B624:  MOVLB  9
0B626:  DECFSZ x36,F
0B628:  BRA    B61A
0B62A:  MOVLW  64
0B62C:  MOVLB  6
0B62E:  MOVWF  x38
0B630:  MOVLB  9
0B632:  CLRF   x3D
0B634:  MOVLB  0
0B636:  CALL   14C0
0B63A:  MOVLW  01
0B63C:  MOVLB  6
0B63E:  MOVWF  x3F
0B640:  BSF    x22.7
....................             write_eeprom(452,Ajuste); 
0B642:  MOVWF  FAA
0B644:  MOVLW  C4
0B646:  MOVWF  FA9
0B648:  MOVFF  625,FA8
0B64C:  BCF    FA6.6
0B64E:  BCF    FA6.7
0B650:  BSF    FA6.2
0B652:  MOVF   FF2,W
0B654:  MOVWF  00
0B656:  BCF    FF2.7
0B658:  MOVLB  F
0B65A:  MOVLW  55
0B65C:  MOVWF  FA7
0B65E:  MOVLW  AA
0B660:  MOVWF  FA7
0B662:  BSF    FA6.1
0B664:  BTFSC  FA6.1
0B666:  BRA    B664
0B668:  BCF    FA6.2
0B66A:  MOVF   00,W
0B66C:  IORWF  FF2,F
0B66E:  MOVLB  6
....................          } 
....................      } 
.................... //_-------------------------------------------------------------------------------------------------------------------------------------------------------- 
....................  
.................... //_--------------------------------------------------------------------------------------------------------------------------------------------------------       
....................       if(Menu==106){ // Menu de Ajuste de Ajusten 
0B670:  MOVF   x38,W
0B672:  SUBLW  6A
0B674:  BTFSS  FD8.2
0B676:  BRA    B896
....................        
....................       if(Ajusten>100) 
0B678:  MOVF   x26,W
0B67A:  SUBLW  64
0B67C:  BC    B680
....................       { 
....................          Ajusten=0; 
0B67E:  CLRF   x26
....................       } 
....................        
....................       if(visual==1) 
0B680:  BTFSS  x22.7
0B682:  BRA    B6EC
....................       { 
....................          glcd_fillScreen(OFF); 
0B684:  MOVLB  9
0B686:  CLRF   x3D
0B688:  MOVLB  0
0B68A:  CALL   14C0
....................          strcpy(Menus.Letra,"Ajusten"); 
0B68E:  MOVLW  09
0B690:  MOVWF  FEA
0B692:  MOVLW  0D
0B694:  MOVWF  FE9
0B696:  MOVFF  FF2,936
0B69A:  BCF    FF2.7
0B69C:  MOVLW  00
0B69E:  CALL   125E
0B6A2:  TBLRD*-
0B6A4:  TBLRD*+
0B6A6:  MOVF   FF5,W
0B6A8:  MOVWF  FEE
0B6AA:  IORLW  00
0B6AC:  BNZ   B6A4
0B6AE:  MOVLB  9
0B6B0:  BTFSC  x36.7
0B6B2:  BSF    FF2.7
....................          displayMenu(Menus.Letra,0,0,1,2); 
0B6B4:  MOVLW  09
0B6B6:  MOVWF  x3E
0B6B8:  MOVLW  0D
0B6BA:  MOVWF  x3D
0B6BC:  CLRF   x3F
0B6BE:  CLRF   x40
0B6C0:  MOVLW  01
0B6C2:  MOVWF  x41
0B6C4:  MOVLW  02
0B6C6:  MOVWF  x42
0B6C8:  MOVLB  0
0B6CA:  CALL   1AEE
....................           
....................          displayTemperatura(Ajusten,30,30,0,3); 
0B6CE:  MOVLB  9
0B6D0:  CLRF   x3C
0B6D2:  MOVFF  626,93B
0B6D6:  MOVLW  1E
0B6D8:  MOVWF  x3D
0B6DA:  MOVWF  x3E
0B6DC:  CLRF   x3F
0B6DE:  MOVLW  03
0B6E0:  MOVWF  x40
0B6E2:  MOVLB  0
0B6E4:  CALL   33C4
....................           
....................          visual=0; 
0B6E8:  MOVLB  6
0B6EA:  BCF    x22.7
....................       } 
....................        
....................          if(UP)//Si oprime hacia arriba 
0B6EC:  BSF    F92.5
0B6EE:  BTFSC  F80.5
0B6F0:  BRA    B77C
....................          {   
....................             Buzz_on;delay_ms(10);Buzz_off; 
0B6F2:  BSF    F8B.5
0B6F4:  BCF    F94.5
0B6F6:  MOVLW  0A
0B6F8:  MOVLB  9
0B6FA:  MOVWF  x4C
0B6FC:  MOVLB  0
0B6FE:  CALL   1440
0B702:  BCF    F8B.5
0B704:  BCF    F94.5
....................             if(Ajusten>100) 
0B706:  MOVLB  6
0B708:  MOVF   x26,W
0B70A:  SUBLW  64
0B70C:  BC    B722
....................             { 
....................                Ajusten=100;delay_ms(100);visual=1; 
0B70E:  MOVLW  64
0B710:  MOVWF  x26
0B712:  MOVLB  9
0B714:  MOVWF  x4C
0B716:  MOVLB  0
0B718:  CALL   1440
0B71C:  MOVLB  6
0B71E:  BSF    x22.7
....................             } 
....................             else 
0B720:  BRA    B77C
....................             { 
....................                delay_ms(30);Ajusten+=1.0;visual=1; 
0B722:  MOVLW  1E
0B724:  MOVLB  9
0B726:  MOVWF  x4C
0B728:  MOVLB  0
0B72A:  CALL   1440
0B72E:  MOVLB  9
0B730:  CLRF   x4D
0B732:  MOVFF  626,94C
0B736:  MOVLB  0
0B738:  CALL   1DF6
0B73C:  BCF    FD8.1
0B73E:  MOVFF  03,94C
0B742:  MOVFF  02,94B
0B746:  MOVFF  01,94A
0B74A:  MOVFF  00,949
0B74E:  MOVLB  9
0B750:  CLRF   x50
0B752:  CLRF   x4F
0B754:  CLRF   x4E
0B756:  MOVLW  7F
0B758:  MOVWF  x4D
0B75A:  MOVLB  0
0B75C:  CALL   1EA4
0B760:  MOVFF  03,945
0B764:  MOVFF  02,944
0B768:  MOVFF  01,943
0B76C:  MOVFF  00,942
0B770:  CALL   27D4
0B774:  MOVFF  01,626
0B778:  MOVLB  6
0B77A:  BSF    x22.7
....................             } 
....................          } 
....................                 
....................          if(DOWN)//Si oprime hacia abajo 
0B77C:  BSF    F96.0
0B77E:  BTFSC  F84.0
0B780:  BRA    B7F6
....................          {   
....................             Buzz_on;delay_ms(10);Buzz_off; 
0B782:  BSF    F8B.5
0B784:  BCF    F94.5
0B786:  MOVLW  0A
0B788:  MOVLB  9
0B78A:  MOVWF  x4C
0B78C:  MOVLB  0
0B78E:  CALL   1440
0B792:  BCF    F8B.5
0B794:  BCF    F94.5
....................             if(Ajusten>0) 
0B796:  MOVLB  6
0B798:  MOVF   x26,F
0B79A:  BZ    B7F6
....................             { 
....................                delay_ms(30);Ajusten-=1.0;visual=1;      
0B79C:  MOVLW  1E
0B79E:  MOVLB  9
0B7A0:  MOVWF  x4C
0B7A2:  MOVLB  0
0B7A4:  CALL   1440
0B7A8:  MOVLB  9
0B7AA:  CLRF   x4D
0B7AC:  MOVFF  626,94C
0B7B0:  MOVLB  0
0B7B2:  CALL   1DF6
0B7B6:  BSF    FD8.1
0B7B8:  MOVFF  03,94C
0B7BC:  MOVFF  02,94B
0B7C0:  MOVFF  01,94A
0B7C4:  MOVFF  00,949
0B7C8:  MOVLB  9
0B7CA:  CLRF   x50
0B7CC:  CLRF   x4F
0B7CE:  CLRF   x4E
0B7D0:  MOVLW  7F
0B7D2:  MOVWF  x4D
0B7D4:  MOVLB  0
0B7D6:  CALL   1EA4
0B7DA:  MOVFF  03,945
0B7DE:  MOVFF  02,944
0B7E2:  MOVFF  01,943
0B7E6:  MOVFF  00,942
0B7EA:  CALL   27D4
0B7EE:  MOVFF  01,626
0B7F2:  MOVLB  6
0B7F4:  BSF    x22.7
....................             } 
....................          } 
....................                 
....................          if(RIGHT)//Si oprime SET 
0B7F6:  BSF    F96.1
0B7F8:  BTFSC  F84.1
0B7FA:  BRA    B820
....................          {   
....................             Buzz_on;delay_ms(10);Buzz_off; 
0B7FC:  BSF    F8B.5
0B7FE:  BCF    F94.5
0B800:  MOVLW  0A
0B802:  MOVLB  9
0B804:  MOVWF  x4C
0B806:  MOVLB  0
0B808:  CALL   1440
0B80C:  BCF    F8B.5
0B80E:  BCF    F94.5
....................             delay_ms(30);visual=1; 
0B810:  MOVLW  1E
0B812:  MOVLB  9
0B814:  MOVWF  x4C
0B816:  MOVLB  0
0B818:  CALL   1440
0B81C:  MOVLB  6
0B81E:  BSF    x22.7
....................          }  
....................                    
....................          if(LEFT)//Si oprime boton de Toma. 
0B820:  BSF    F96.2
0B822:  BTFSC  F84.2
0B824:  BRA    B896
....................          { 
....................             Buzz_on;delay_ms(10);Buzz_off; 
0B826:  BSF    F8B.5
0B828:  BCF    F94.5
0B82A:  MOVLW  0A
0B82C:  MOVLB  9
0B82E:  MOVWF  x4C
0B830:  MOVLB  0
0B832:  CALL   1440
0B836:  BCF    F8B.5
0B838:  BCF    F94.5
....................             delay_ms(700);Menu=100;glcd_fillscreen(OFF);Opcion=1;visual=1; 
0B83A:  MOVLW  04
0B83C:  MOVLB  9
0B83E:  MOVWF  x36
0B840:  MOVLW  AF
0B842:  MOVWF  x4C
0B844:  MOVLB  0
0B846:  CALL   1440
0B84A:  MOVLB  9
0B84C:  DECFSZ x36,F
0B84E:  BRA    B840
0B850:  MOVLW  64
0B852:  MOVLB  6
0B854:  MOVWF  x38
0B856:  MOVLB  9
0B858:  CLRF   x3D
0B85A:  MOVLB  0
0B85C:  CALL   14C0
0B860:  MOVLW  01
0B862:  MOVLB  6
0B864:  MOVWF  x3F
0B866:  BSF    x22.7
....................             write_eeprom(453,Ajusten); 
0B868:  MOVWF  FAA
0B86A:  MOVLW  C5
0B86C:  MOVWF  FA9
0B86E:  MOVFF  626,FA8
0B872:  BCF    FA6.6
0B874:  BCF    FA6.7
0B876:  BSF    FA6.2
0B878:  MOVF   FF2,W
0B87A:  MOVWF  00
0B87C:  BCF    FF2.7
0B87E:  MOVLB  F
0B880:  MOVLW  55
0B882:  MOVWF  FA7
0B884:  MOVLW  AA
0B886:  MOVWF  FA7
0B888:  BSF    FA6.1
0B88A:  BTFSC  FA6.1
0B88C:  BRA    B88A
0B88E:  BCF    FA6.2
0B890:  MOVF   00,W
0B892:  IORWF  FF2,F
0B894:  MOVLB  6
....................          } 
....................      } 
.................... //_-------------------------------------------------------------------------------------------------------------------------------------------------------- 
....................  
.................... //_--------------------------------------------------------------------------------------------------------------------------------------------------------       
....................       if(Menu==107){ // Menu de Ajuste de Media Movil 
0B896:  MOVF   x38,W
0B898:  SUBLW  6B
0B89A:  BTFSS  FD8.2
0B89C:  BRA    BAC2
....................        
....................       if(MediaMovil>80) 
0B89E:  MOVF   x27,W
0B8A0:  SUBLW  50
0B8A2:  BC    B8A8
....................       { 
....................          MediaMovil=10; 
0B8A4:  MOVLW  0A
0B8A6:  MOVWF  x27
....................       } 
....................        
....................       if(visual==1) 
0B8A8:  BTFSS  x22.7
0B8AA:  BRA    B914
....................       { 
....................          glcd_fillScreen(OFF); 
0B8AC:  MOVLB  9
0B8AE:  CLRF   x3D
0B8B0:  MOVLB  0
0B8B2:  CALL   14C0
....................          strcpy(Menus.Letra,"Media"); 
0B8B6:  MOVLW  09
0B8B8:  MOVWF  FEA
0B8BA:  MOVLW  0D
0B8BC:  MOVWF  FE9
0B8BE:  MOVFF  FF2,936
0B8C2:  BCF    FF2.7
0B8C4:  MOVLW  00
0B8C6:  CALL   1284
0B8CA:  TBLRD*-
0B8CC:  TBLRD*+
0B8CE:  MOVF   FF5,W
0B8D0:  MOVWF  FEE
0B8D2:  IORLW  00
0B8D4:  BNZ   B8CC
0B8D6:  MOVLB  9
0B8D8:  BTFSC  x36.7
0B8DA:  BSF    FF2.7
....................          displayMenu(Menus.Letra,0,0,1,2); 
0B8DC:  MOVLW  09
0B8DE:  MOVWF  x3E
0B8E0:  MOVLW  0D
0B8E2:  MOVWF  x3D
0B8E4:  CLRF   x3F
0B8E6:  CLRF   x40
0B8E8:  MOVLW  01
0B8EA:  MOVWF  x41
0B8EC:  MOVLW  02
0B8EE:  MOVWF  x42
0B8F0:  MOVLB  0
0B8F2:  CALL   1AEE
....................           
....................          displayTemperatura(MediaMovil,30,30,0,3); 
0B8F6:  MOVLB  9
0B8F8:  CLRF   x3C
0B8FA:  MOVFF  627,93B
0B8FE:  MOVLW  1E
0B900:  MOVWF  x3D
0B902:  MOVWF  x3E
0B904:  CLRF   x3F
0B906:  MOVLW  03
0B908:  MOVWF  x40
0B90A:  MOVLB  0
0B90C:  CALL   33C4
....................           
....................          visual=0; 
0B910:  MOVLB  6
0B912:  BCF    x22.7
....................       } 
....................        
....................          if(UP)//Si oprime hacia arriba 
0B914:  BSF    F92.5
0B916:  BTFSC  F80.5
0B918:  BRA    B9A6
....................          {   
....................             Buzz_on;delay_ms(10);Buzz_off; 
0B91A:  BSF    F8B.5
0B91C:  BCF    F94.5
0B91E:  MOVLW  0A
0B920:  MOVLB  9
0B922:  MOVWF  x4C
0B924:  MOVLB  0
0B926:  CALL   1440
0B92A:  BCF    F8B.5
0B92C:  BCF    F94.5
....................             if(MediaMovil>79) 
0B92E:  MOVLB  6
0B930:  MOVF   x27,W
0B932:  SUBLW  4F
0B934:  BC    B94C
....................             { 
....................                MediaMovil=79;delay_ms(100);visual=1; 
0B936:  MOVLW  4F
0B938:  MOVWF  x27
0B93A:  MOVLW  64
0B93C:  MOVLB  9
0B93E:  MOVWF  x4C
0B940:  MOVLB  0
0B942:  CALL   1440
0B946:  MOVLB  6
0B948:  BSF    x22.7
....................             } 
....................             else 
0B94A:  BRA    B9A6
....................             { 
....................                delay_ms(30);MediaMovil+=1.0;visual=1; 
0B94C:  MOVLW  1E
0B94E:  MOVLB  9
0B950:  MOVWF  x4C
0B952:  MOVLB  0
0B954:  CALL   1440
0B958:  MOVLB  9
0B95A:  CLRF   x4D
0B95C:  MOVFF  627,94C
0B960:  MOVLB  0
0B962:  CALL   1DF6
0B966:  BCF    FD8.1
0B968:  MOVFF  03,94C
0B96C:  MOVFF  02,94B
0B970:  MOVFF  01,94A
0B974:  MOVFF  00,949
0B978:  MOVLB  9
0B97A:  CLRF   x50
0B97C:  CLRF   x4F
0B97E:  CLRF   x4E
0B980:  MOVLW  7F
0B982:  MOVWF  x4D
0B984:  MOVLB  0
0B986:  CALL   1EA4
0B98A:  MOVFF  03,945
0B98E:  MOVFF  02,944
0B992:  MOVFF  01,943
0B996:  MOVFF  00,942
0B99A:  CALL   27D4
0B99E:  MOVFF  01,627
0B9A2:  MOVLB  6
0B9A4:  BSF    x22.7
....................             } 
....................          } 
....................                 
....................          if(DOWN)//Si oprime hacia abajo 
0B9A6:  BSF    F96.0
0B9A8:  BTFSC  F84.0
0B9AA:  BRA    BA22
....................          {   
....................             Buzz_on;delay_ms(10);Buzz_off; 
0B9AC:  BSF    F8B.5
0B9AE:  BCF    F94.5
0B9B0:  MOVLW  0A
0B9B2:  MOVLB  9
0B9B4:  MOVWF  x4C
0B9B6:  MOVLB  0
0B9B8:  CALL   1440
0B9BC:  BCF    F8B.5
0B9BE:  BCF    F94.5
....................             if(MediaMovil>1) 
0B9C0:  MOVLB  6
0B9C2:  MOVF   x27,W
0B9C4:  SUBLW  01
0B9C6:  BC    BA22
....................             { 
....................                delay_ms(30);MediaMovil-=1.0;visual=1;      
0B9C8:  MOVLW  1E
0B9CA:  MOVLB  9
0B9CC:  MOVWF  x4C
0B9CE:  MOVLB  0
0B9D0:  CALL   1440
0B9D4:  MOVLB  9
0B9D6:  CLRF   x4D
0B9D8:  MOVFF  627,94C
0B9DC:  MOVLB  0
0B9DE:  CALL   1DF6
0B9E2:  BSF    FD8.1
0B9E4:  MOVFF  03,94C
0B9E8:  MOVFF  02,94B
0B9EC:  MOVFF  01,94A
0B9F0:  MOVFF  00,949
0B9F4:  MOVLB  9
0B9F6:  CLRF   x50
0B9F8:  CLRF   x4F
0B9FA:  CLRF   x4E
0B9FC:  MOVLW  7F
0B9FE:  MOVWF  x4D
0BA00:  MOVLB  0
0BA02:  CALL   1EA4
0BA06:  MOVFF  03,945
0BA0A:  MOVFF  02,944
0BA0E:  MOVFF  01,943
0BA12:  MOVFF  00,942
0BA16:  CALL   27D4
0BA1A:  MOVFF  01,627
0BA1E:  MOVLB  6
0BA20:  BSF    x22.7
....................             } 
....................          } 
....................                 
....................          if(RIGHT)//Si oprime SET 
0BA22:  BSF    F96.1
0BA24:  BTFSC  F84.1
0BA26:  BRA    BA4C
....................          {   
....................             Buzz_on;delay_ms(10);Buzz_off; 
0BA28:  BSF    F8B.5
0BA2A:  BCF    F94.5
0BA2C:  MOVLW  0A
0BA2E:  MOVLB  9
0BA30:  MOVWF  x4C
0BA32:  MOVLB  0
0BA34:  CALL   1440
0BA38:  BCF    F8B.5
0BA3A:  BCF    F94.5
....................             delay_ms(30);visual=1; 
0BA3C:  MOVLW  1E
0BA3E:  MOVLB  9
0BA40:  MOVWF  x4C
0BA42:  MOVLB  0
0BA44:  CALL   1440
0BA48:  MOVLB  6
0BA4A:  BSF    x22.7
....................          }  
....................                    
....................          if(LEFT)//Si oprime boton de Toma. 
0BA4C:  BSF    F96.2
0BA4E:  BTFSC  F84.2
0BA50:  BRA    BAC2
....................          { 
....................             Buzz_on;delay_ms(10);Buzz_off; 
0BA52:  BSF    F8B.5
0BA54:  BCF    F94.5
0BA56:  MOVLW  0A
0BA58:  MOVLB  9
0BA5A:  MOVWF  x4C
0BA5C:  MOVLB  0
0BA5E:  CALL   1440
0BA62:  BCF    F8B.5
0BA64:  BCF    F94.5
....................             delay_ms(700);Menu=100;glcd_fillscreen(OFF);Opcion=1;visual=1; 
0BA66:  MOVLW  04
0BA68:  MOVLB  9
0BA6A:  MOVWF  x36
0BA6C:  MOVLW  AF
0BA6E:  MOVWF  x4C
0BA70:  MOVLB  0
0BA72:  CALL   1440
0BA76:  MOVLB  9
0BA78:  DECFSZ x36,F
0BA7A:  BRA    BA6C
0BA7C:  MOVLW  64
0BA7E:  MOVLB  6
0BA80:  MOVWF  x38
0BA82:  MOVLB  9
0BA84:  CLRF   x3D
0BA86:  MOVLB  0
0BA88:  CALL   14C0
0BA8C:  MOVLW  01
0BA8E:  MOVLB  6
0BA90:  MOVWF  x3F
0BA92:  BSF    x22.7
....................             write_eeprom(454,(int8)MediaMovil); 
0BA94:  MOVWF  FAA
0BA96:  MOVLW  C6
0BA98:  MOVWF  FA9
0BA9A:  MOVFF  627,FA8
0BA9E:  BCF    FA6.6
0BAA0:  BCF    FA6.7
0BAA2:  BSF    FA6.2
0BAA4:  MOVF   FF2,W
0BAA6:  MOVWF  00
0BAA8:  BCF    FF2.7
0BAAA:  MOVLB  F
0BAAC:  MOVLW  55
0BAAE:  MOVWF  FA7
0BAB0:  MOVLW  AA
0BAB2:  MOVWF  FA7
0BAB4:  BSF    FA6.1
0BAB6:  BTFSC  FA6.1
0BAB8:  BRA    BAB6
0BABA:  BCF    FA6.2
0BABC:  MOVF   00,W
0BABE:  IORWF  FF2,F
0BAC0:  MOVLB  6
....................          } 
....................      } 
.................... //_-------------------------------------------------------------------------------------------------------------------------------------------------------- 
....................  
.................... //_--------------------------------------------------------------------------------------------------------------------------------------------------------       
....................       if(Menu==108){ // Menu de Ajuste de Coeficiente Regulador 
0BAC2:  MOVF   x38,W
0BAC4:  SUBLW  6C
0BAC6:  BTFSS  FD8.2
0BAC8:  BRA    BD74
....................        
....................       if(Coeficiente>250) 
0BACA:  MOVLB  9
0BACC:  CLRF   x39
0BACE:  CLRF   x38
0BAD0:  MOVLW  7A
0BAD2:  MOVWF  x37
0BAD4:  MOVLW  86
0BAD6:  MOVWF  x36
0BAD8:  MOVFF  6C2,93D
0BADC:  MOVFF  6C1,93C
0BAE0:  MOVFF  6C0,93B
0BAE4:  MOVFF  6BF,93A
0BAE8:  MOVLB  0
0BAEA:  CALL   275A
0BAEE:  BNC   BAFE
....................       { 
....................          Coeficiente=100; 
0BAF0:  MOVLB  6
0BAF2:  CLRF   xC2
0BAF4:  CLRF   xC1
0BAF6:  MOVLW  48
0BAF8:  MOVWF  xC0
0BAFA:  MOVLW  85
0BAFC:  MOVWF  xBF
....................       } 
....................        
....................       if(visual==1) 
0BAFE:  MOVLB  6
0BB00:  BTFSS  x22.7
0BB02:  BRA    BB8A
....................       { 
....................          glcd_fillScreen(OFF); 
0BB04:  MOVLB  9
0BB06:  CLRF   x3D
0BB08:  MOVLB  0
0BB0A:  CALL   14C0
....................          strcpy(Menus.Letra,"Coeficiente"); 
0BB0E:  MOVLW  09
0BB10:  MOVWF  FEA
0BB12:  MOVLW  0D
0BB14:  MOVWF  FE9
0BB16:  MOVFF  FF2,936
0BB1A:  BCF    FF2.7
0BB1C:  MOVLW  00
0BB1E:  CALL   10EE
0BB22:  TBLRD*-
0BB24:  TBLRD*+
0BB26:  MOVF   FF5,W
0BB28:  MOVWF  FEE
0BB2A:  IORLW  00
0BB2C:  BNZ   BB24
0BB2E:  MOVLB  9
0BB30:  BTFSC  x36.7
0BB32:  BSF    FF2.7
....................          displayMenu(Menus.Letra,0,0,1,2); 
0BB34:  MOVLW  09
0BB36:  MOVWF  x3E
0BB38:  MOVLW  0D
0BB3A:  MOVWF  x3D
0BB3C:  CLRF   x3F
0BB3E:  CLRF   x40
0BB40:  MOVLW  01
0BB42:  MOVWF  x41
0BB44:  MOVLW  02
0BB46:  MOVWF  x42
0BB48:  MOVLB  0
0BB4A:  CALL   1AEE
....................           
....................          displayTemperatura(Coeficiente,30,30,0,3); 
0BB4E:  MOVFF  6C2,945
0BB52:  MOVFF  6C1,944
0BB56:  MOVFF  6C0,943
0BB5A:  MOVFF  6BF,942
0BB5E:  CALL   27D4
0BB62:  MOVFF  02,937
0BB66:  MOVFF  01,936
0BB6A:  MOVFF  02,93C
0BB6E:  MOVFF  01,93B
0BB72:  MOVLW  1E
0BB74:  MOVLB  9
0BB76:  MOVWF  x3D
0BB78:  MOVWF  x3E
0BB7A:  CLRF   x3F
0BB7C:  MOVLW  03
0BB7E:  MOVWF  x40
0BB80:  MOVLB  0
0BB82:  CALL   33C4
....................           
....................          visual=0; 
0BB86:  MOVLB  6
0BB88:  BCF    x22.7
....................       } 
....................        
....................          if(UP)//Si oprime hacia arriba 
0BB8A:  BSF    F92.5
0BB8C:  BTFSC  F80.5
0BB8E:  BRA    BC30
....................          {   
....................             Buzz_on;delay_ms(10);Buzz_off; 
0BB90:  BSF    F8B.5
0BB92:  BCF    F94.5
0BB94:  MOVLW  0A
0BB96:  MOVLB  9
0BB98:  MOVWF  x4C
0BB9A:  MOVLB  0
0BB9C:  CALL   1440
0BBA0:  BCF    F8B.5
0BBA2:  BCF    F94.5
....................             if(Coeficiente>250) 
0BBA4:  MOVLB  9
0BBA6:  CLRF   x39
0BBA8:  CLRF   x38
0BBAA:  MOVLW  7A
0BBAC:  MOVWF  x37
0BBAE:  MOVLW  86
0BBB0:  MOVWF  x36
0BBB2:  MOVFF  6C2,93D
0BBB6:  MOVFF  6C1,93C
0BBBA:  MOVFF  6C0,93B
0BBBE:  MOVFF  6BF,93A
0BBC2:  MOVLB  0
0BBC4:  CALL   275A
0BBC8:  BNC   BBEC
....................             { 
....................                Coeficiente=250;delay_ms(100);visual=1; 
0BBCA:  MOVLB  6
0BBCC:  CLRF   xC2
0BBCE:  CLRF   xC1
0BBD0:  MOVLW  7A
0BBD2:  MOVWF  xC0
0BBD4:  MOVLW  86
0BBD6:  MOVWF  xBF
0BBD8:  MOVLW  64
0BBDA:  MOVLB  9
0BBDC:  MOVWF  x4C
0BBDE:  MOVLB  0
0BBE0:  CALL   1440
0BBE4:  MOVLB  6
0BBE6:  BSF    x22.7
....................             } 
....................             else 
0BBE8:  BRA    BC30
0BBEA:  MOVLB  0
....................             { 
....................                delay_ms(30);Coeficiente+=1.0;visual=1; 
0BBEC:  MOVLW  1E
0BBEE:  MOVLB  9
0BBF0:  MOVWF  x4C
0BBF2:  MOVLB  0
0BBF4:  CALL   1440
0BBF8:  BCF    FD8.1
0BBFA:  MOVFF  6C2,94C
0BBFE:  MOVFF  6C1,94B
0BC02:  MOVFF  6C0,94A
0BC06:  MOVFF  6BF,949
0BC0A:  MOVLB  9
0BC0C:  CLRF   x50
0BC0E:  CLRF   x4F
0BC10:  CLRF   x4E
0BC12:  MOVLW  7F
0BC14:  MOVWF  x4D
0BC16:  MOVLB  0
0BC18:  CALL   1EA4
0BC1C:  MOVFF  03,6C2
0BC20:  MOVFF  02,6C1
0BC24:  MOVFF  01,6C0
0BC28:  MOVFF  00,6BF
0BC2C:  MOVLB  6
0BC2E:  BSF    x22.7
....................             } 
....................          } 
....................                 
....................          if(DOWN)//Si oprime hacia abajo 
0BC30:  BSF    F96.0
0BC32:  BTFSC  F84.0
0BC34:  BRA    BCB2
....................          {   
....................             Buzz_on;delay_ms(10);Buzz_off; 
0BC36:  BSF    F8B.5
0BC38:  BCF    F94.5
0BC3A:  MOVLW  0A
0BC3C:  MOVLB  9
0BC3E:  MOVWF  x4C
0BC40:  MOVLB  0
0BC42:  CALL   1440
0BC46:  BCF    F8B.5
0BC48:  BCF    F94.5
....................             if(Coeficiente>1) 
0BC4A:  MOVLB  9
0BC4C:  CLRF   x39
0BC4E:  CLRF   x38
0BC50:  CLRF   x37
0BC52:  MOVLW  7F
0BC54:  MOVWF  x36
0BC56:  MOVFF  6C2,93D
0BC5A:  MOVFF  6C1,93C
0BC5E:  MOVFF  6C0,93B
0BC62:  MOVFF  6BF,93A
0BC66:  MOVLB  0
0BC68:  CALL   275A
0BC6C:  BNC   BCB4
....................             { 
....................                delay_ms(30);Coeficiente-=1.0;visual=1;      
0BC6E:  MOVLW  1E
0BC70:  MOVLB  9
0BC72:  MOVWF  x4C
0BC74:  MOVLB  0
0BC76:  CALL   1440
0BC7A:  BSF    FD8.1
0BC7C:  MOVFF  6C2,94C
0BC80:  MOVFF  6C1,94B
0BC84:  MOVFF  6C0,94A
0BC88:  MOVFF  6BF,949
0BC8C:  MOVLB  9
0BC8E:  CLRF   x50
0BC90:  CLRF   x4F
0BC92:  CLRF   x4E
0BC94:  MOVLW  7F
0BC96:  MOVWF  x4D
0BC98:  MOVLB  0
0BC9A:  CALL   1EA4
0BC9E:  MOVFF  03,6C2
0BCA2:  MOVFF  02,6C1
0BCA6:  MOVFF  01,6C0
0BCAA:  MOVFF  00,6BF
0BCAE:  MOVLB  6
0BCB0:  BSF    x22.7
0BCB2:  MOVLB  0
....................             } 
....................          } 
....................                 
....................          if(RIGHT)//Si oprime SET 
0BCB4:  BSF    F96.1
0BCB6:  BTFSC  F84.1
0BCB8:  BRA    BCE0
....................          {   
....................             Buzz_on;delay_ms(10);Buzz_off; 
0BCBA:  BSF    F8B.5
0BCBC:  BCF    F94.5
0BCBE:  MOVLW  0A
0BCC0:  MOVLB  9
0BCC2:  MOVWF  x4C
0BCC4:  MOVLB  0
0BCC6:  CALL   1440
0BCCA:  BCF    F8B.5
0BCCC:  BCF    F94.5
....................             delay_ms(30);visual=1; 
0BCCE:  MOVLW  1E
0BCD0:  MOVLB  9
0BCD2:  MOVWF  x4C
0BCD4:  MOVLB  0
0BCD6:  CALL   1440
0BCDA:  MOVLB  6
0BCDC:  BSF    x22.7
0BCDE:  MOVLB  0
....................          }  
....................                    
....................          if(LEFT)//Si oprime boton de Toma. 
0BCE0:  BSF    F96.2
0BCE2:  BTFSC  F84.2
0BCE4:  BRA    BD72
....................          { 
....................             Buzz_on;delay_ms(10);Buzz_off; 
0BCE6:  BSF    F8B.5
0BCE8:  BCF    F94.5
0BCEA:  MOVLW  0A
0BCEC:  MOVLB  9
0BCEE:  MOVWF  x4C
0BCF0:  MOVLB  0
0BCF2:  CALL   1440
0BCF6:  BCF    F8B.5
0BCF8:  BCF    F94.5
....................             delay_ms(700);Menu=100;glcd_fillscreen(OFF);Opcion=1;visual=1; 
0BCFA:  MOVLW  04
0BCFC:  MOVLB  9
0BCFE:  MOVWF  x36
0BD00:  MOVLW  AF
0BD02:  MOVWF  x4C
0BD04:  MOVLB  0
0BD06:  CALL   1440
0BD0A:  MOVLB  9
0BD0C:  DECFSZ x36,F
0BD0E:  BRA    BD00
0BD10:  MOVLW  64
0BD12:  MOVLB  6
0BD14:  MOVWF  x38
0BD16:  MOVLB  9
0BD18:  CLRF   x3D
0BD1A:  MOVLB  0
0BD1C:  CALL   14C0
0BD20:  MOVLW  01
0BD22:  MOVLB  6
0BD24:  MOVWF  x3F
0BD26:  BSF    x22.7
....................             write_eeprom(455,(int8)Coeficiente); 
0BD28:  MOVFF  6C2,945
0BD2C:  MOVFF  6C1,944
0BD30:  MOVFF  6C0,943
0BD34:  MOVFF  6BF,942
0BD38:  MOVLB  0
0BD3A:  CALL   27D4
0BD3E:  MOVFF  01,936
0BD42:  MOVLW  01
0BD44:  MOVWF  FAA
0BD46:  MOVLW  C7
0BD48:  MOVWF  FA9
0BD4A:  MOVFF  936,FA8
0BD4E:  BCF    FA6.6
0BD50:  BCF    FA6.7
0BD52:  BSF    FA6.2
0BD54:  MOVF   FF2,W
0BD56:  MOVWF  00
0BD58:  BCF    FF2.7
0BD5A:  MOVLB  F
0BD5C:  MOVLW  55
0BD5E:  MOVWF  FA7
0BD60:  MOVLW  AA
0BD62:  MOVWF  FA7
0BD64:  BSF    FA6.1
0BD66:  BTFSC  FA6.1
0BD68:  BRA    BD66
0BD6A:  BCF    FA6.2
0BD6C:  MOVF   00,W
0BD6E:  IORWF  FF2,F
0BD70:  MOVLB  0
0BD72:  MOVLB  6
....................          } 
....................      } 
.................... //_-------------------------------------------------------------------------------------------------------------------------------------------------------- 
....................  
.................... //_--------------------------------------------------------------------------------------------------------------------------------------------------------       
....................       if(Menu==109){ // Menu de Alarma Sobretemperatura 
0BD74:  MOVF   x38,W
0BD76:  SUBLW  6D
0BD78:  BTFSS  FD8.2
0BD7A:  BRA    C012
....................        
....................       if(AlTem>500) 
0BD7C:  MOVF   x58,W
0BD7E:  SUBLW  00
0BD80:  BC    BD94
0BD82:  XORLW  FF
0BD84:  BNZ   BD8C
0BD86:  MOVF   x57,W
0BD88:  SUBLW  F4
0BD8A:  BC    BD94
....................          AlTem=500; 
0BD8C:  MOVLW  01
0BD8E:  MOVWF  x58
0BD90:  MOVLW  F4
0BD92:  MOVWF  x57
....................        
....................        
....................       if(visual==1) 
0BD94:  BTFSS  x22.7
0BD96:  BRA    BE02
....................       { 
....................          glcd_fillScreen(OFF); 
0BD98:  MOVLB  9
0BD9A:  CLRF   x3D
0BD9C:  MOVLB  0
0BD9E:  CALL   14C0
....................          strcpy(Menus.Letra,"Alarma"); 
0BDA2:  MOVLW  09
0BDA4:  MOVWF  FEA
0BDA6:  MOVLW  0D
0BDA8:  MOVWF  FE9
0BDAA:  MOVFF  FF2,936
0BDAE:  BCF    FF2.7
0BDB0:  MOVLW  00
0BDB2:  CALL   12A8
0BDB6:  TBLRD*-
0BDB8:  TBLRD*+
0BDBA:  MOVF   FF5,W
0BDBC:  MOVWF  FEE
0BDBE:  IORLW  00
0BDC0:  BNZ   BDB8
0BDC2:  MOVLB  9
0BDC4:  BTFSC  x36.7
0BDC6:  BSF    FF2.7
....................          displayMenu(Menus.Letra,0,0,1,2); 
0BDC8:  MOVLW  09
0BDCA:  MOVWF  x3E
0BDCC:  MOVLW  0D
0BDCE:  MOVWF  x3D
0BDD0:  CLRF   x3F
0BDD2:  CLRF   x40
0BDD4:  MOVLW  01
0BDD6:  MOVWF  x41
0BDD8:  MOVLW  02
0BDDA:  MOVWF  x42
0BDDC:  MOVLB  0
0BDDE:  CALL   1AEE
....................           
....................          displayTemperatura(AlTem,30,30,0,3); 
0BDE2:  MOVFF  658,93C
0BDE6:  MOVFF  657,93B
0BDEA:  MOVLW  1E
0BDEC:  MOVLB  9
0BDEE:  MOVWF  x3D
0BDF0:  MOVWF  x3E
0BDF2:  CLRF   x3F
0BDF4:  MOVLW  03
0BDF6:  MOVWF  x40
0BDF8:  MOVLB  0
0BDFA:  CALL   33C4
....................           
....................          visual=0; 
0BDFE:  MOVLB  6
0BE00:  BCF    x22.7
....................       } 
....................        
....................          if(UP)//Si oprime hacia arriba 
0BE02:  BSF    F92.5
0BE04:  BTFSC  F80.5
0BE06:  BRA    BEA4
....................          {   
....................             Buzz_on;delay_ms(10);Buzz_off; 
0BE08:  BSF    F8B.5
0BE0A:  BCF    F94.5
0BE0C:  MOVLW  0A
0BE0E:  MOVLB  9
0BE10:  MOVWF  x4C
0BE12:  MOVLB  0
0BE14:  CALL   1440
0BE18:  BCF    F8B.5
0BE1A:  BCF    F94.5
....................             if(AlTem>500) 
0BE1C:  MOVLB  6
0BE1E:  MOVF   x58,W
0BE20:  SUBLW  00
0BE22:  BC    BE48
0BE24:  XORLW  FF
0BE26:  BNZ   BE2E
0BE28:  MOVF   x57,W
0BE2A:  SUBLW  F4
0BE2C:  BC    BE48
....................             { 
....................                AlTem=500;delay_ms(100);visual=1; 
0BE2E:  MOVLW  01
0BE30:  MOVWF  x58
0BE32:  MOVLW  F4
0BE34:  MOVWF  x57
0BE36:  MOVLW  64
0BE38:  MOVLB  9
0BE3A:  MOVWF  x4C
0BE3C:  MOVLB  0
0BE3E:  CALL   1440
0BE42:  MOVLB  6
0BE44:  BSF    x22.7
....................             } 
....................             else 
0BE46:  BRA    BEA4
....................             { 
....................                delay_ms(30);AlTem+=1.0;visual=1; 
0BE48:  MOVLW  1E
0BE4A:  MOVLB  9
0BE4C:  MOVWF  x4C
0BE4E:  MOVLB  0
0BE50:  CALL   1440
0BE54:  MOVFF  658,94D
0BE58:  MOVFF  657,94C
0BE5C:  CALL   1DF6
0BE60:  BCF    FD8.1
0BE62:  MOVFF  03,94C
0BE66:  MOVFF  02,94B
0BE6A:  MOVFF  01,94A
0BE6E:  MOVFF  00,949
0BE72:  MOVLB  9
0BE74:  CLRF   x50
0BE76:  CLRF   x4F
0BE78:  CLRF   x4E
0BE7A:  MOVLW  7F
0BE7C:  MOVWF  x4D
0BE7E:  MOVLB  0
0BE80:  CALL   1EA4
0BE84:  MOVFF  03,945
0BE88:  MOVFF  02,944
0BE8C:  MOVFF  01,943
0BE90:  MOVFF  00,942
0BE94:  CALL   27D4
0BE98:  MOVFF  02,658
0BE9C:  MOVFF  01,657
0BEA0:  MOVLB  6
0BEA2:  BSF    x22.7
....................             } 
....................          } 
....................                 
....................          if(DOWN)//Si oprime hacia abajo 
0BEA4:  BSF    F96.0
0BEA6:  BTFSC  F84.0
0BEA8:  BRA    BF24
....................          {   
....................             Buzz_on;delay_ms(10);Buzz_off; 
0BEAA:  BSF    F8B.5
0BEAC:  BCF    F94.5
0BEAE:  MOVLW  0A
0BEB0:  MOVLB  9
0BEB2:  MOVWF  x4C
0BEB4:  MOVLB  0
0BEB6:  CALL   1440
0BEBA:  BCF    F8B.5
0BEBC:  BCF    F94.5
....................             if(AlTem>0) 
0BEBE:  MOVLB  6
0BEC0:  MOVF   x57,F
0BEC2:  BNZ   BEC8
0BEC4:  MOVF   x58,F
0BEC6:  BZ    BF24
....................             { 
....................                delay_ms(30);AlTem-=1.0;visual=1;      
0BEC8:  MOVLW  1E
0BECA:  MOVLB  9
0BECC:  MOVWF  x4C
0BECE:  MOVLB  0
0BED0:  CALL   1440
0BED4:  MOVFF  658,94D
0BED8:  MOVFF  657,94C
0BEDC:  CALL   1DF6
0BEE0:  BSF    FD8.1
0BEE2:  MOVFF  03,94C
0BEE6:  MOVFF  02,94B
0BEEA:  MOVFF  01,94A
0BEEE:  MOVFF  00,949
0BEF2:  MOVLB  9
0BEF4:  CLRF   x50
0BEF6:  CLRF   x4F
0BEF8:  CLRF   x4E
0BEFA:  MOVLW  7F
0BEFC:  MOVWF  x4D
0BEFE:  MOVLB  0
0BF00:  CALL   1EA4
0BF04:  MOVFF  03,945
0BF08:  MOVFF  02,944
0BF0C:  MOVFF  01,943
0BF10:  MOVFF  00,942
0BF14:  CALL   27D4
0BF18:  MOVFF  02,658
0BF1C:  MOVFF  01,657
0BF20:  MOVLB  6
0BF22:  BSF    x22.7
....................             } 
....................          } 
....................                 
....................          if(RIGHT)//Si oprime SET 
0BF24:  BSF    F96.1
0BF26:  BTFSC  F84.1
0BF28:  BRA    BF4E
....................          {   
....................             Buzz_on;delay_ms(10);Buzz_off; 
0BF2A:  BSF    F8B.5
0BF2C:  BCF    F94.5
0BF2E:  MOVLW  0A
0BF30:  MOVLB  9
0BF32:  MOVWF  x4C
0BF34:  MOVLB  0
0BF36:  CALL   1440
0BF3A:  BCF    F8B.5
0BF3C:  BCF    F94.5
....................             delay_ms(30);visual=1; 
0BF3E:  MOVLW  1E
0BF40:  MOVLB  9
0BF42:  MOVWF  x4C
0BF44:  MOVLB  0
0BF46:  CALL   1440
0BF4A:  MOVLB  6
0BF4C:  BSF    x22.7
....................          }  
....................                    
....................          if(LEFT)//Si oprime boton de Toma. 
0BF4E:  BSF    F96.2
0BF50:  BTFSC  F84.2
0BF52:  BRA    C012
....................          { 
....................             Buzz_on;delay_ms(10);Buzz_off; 
0BF54:  BSF    F8B.5
0BF56:  BCF    F94.5
0BF58:  MOVLW  0A
0BF5A:  MOVLB  9
0BF5C:  MOVWF  x4C
0BF5E:  MOVLB  0
0BF60:  CALL   1440
0BF64:  BCF    F8B.5
0BF66:  BCF    F94.5
....................             delay_ms(700);Menu=100;glcd_fillscreen(OFF);Opcion=1;visual=1; 
0BF68:  MOVLW  04
0BF6A:  MOVLB  9
0BF6C:  MOVWF  x36
0BF6E:  MOVLW  AF
0BF70:  MOVWF  x4C
0BF72:  MOVLB  0
0BF74:  CALL   1440
0BF78:  MOVLB  9
0BF7A:  DECFSZ x36,F
0BF7C:  BRA    BF6E
0BF7E:  MOVLW  64
0BF80:  MOVLB  6
0BF82:  MOVWF  x38
0BF84:  MOVLB  9
0BF86:  CLRF   x3D
0BF88:  MOVLB  0
0BF8A:  CALL   14C0
0BF8E:  MOVLW  01
0BF90:  MOVLB  6
0BF92:  MOVWF  x3F
0BF94:  BSF    x22.7
....................             write_eeprom(472,make8(AlTem,0)); 
0BF96:  MOVFF  657,936
0BF9A:  MOVWF  FAA
0BF9C:  MOVLW  D8
0BF9E:  MOVWF  FA9
0BFA0:  MOVFF  936,FA8
0BFA4:  BCF    FA6.6
0BFA6:  BCF    FA6.7
0BFA8:  BSF    FA6.2
0BFAA:  MOVF   FF2,W
0BFAC:  MOVWF  00
0BFAE:  BCF    FF2.7
0BFB0:  MOVLB  F
0BFB2:  MOVLW  55
0BFB4:  MOVWF  FA7
0BFB6:  MOVLW  AA
0BFB8:  MOVWF  FA7
0BFBA:  BSF    FA6.1
0BFBC:  BTFSC  FA6.1
0BFBE:  BRA    BFBC
0BFC0:  BCF    FA6.2
0BFC2:  MOVF   00,W
0BFC4:  IORWF  FF2,F
....................             delay_ms(10); 
0BFC6:  MOVLW  0A
0BFC8:  MOVLB  9
0BFCA:  MOVWF  x4C
0BFCC:  MOVLB  0
0BFCE:  CALL   1440
....................             write_eeprom(473,make8(AlTem,1)); 
0BFD2:  MOVFF  658,936
0BFD6:  MOVLW  01
0BFD8:  MOVWF  FAA
0BFDA:  MOVLW  D9
0BFDC:  MOVWF  FA9
0BFDE:  MOVFF  936,FA8
0BFE2:  BCF    FA6.6
0BFE4:  BCF    FA6.7
0BFE6:  BSF    FA6.2
0BFE8:  MOVF   FF2,W
0BFEA:  MOVWF  00
0BFEC:  BCF    FF2.7
0BFEE:  MOVLB  F
0BFF0:  MOVLW  55
0BFF2:  MOVWF  FA7
0BFF4:  MOVLW  AA
0BFF6:  MOVWF  FA7
0BFF8:  BSF    FA6.1
0BFFA:  BTFSC  FA6.1
0BFFC:  BRA    BFFA
0BFFE:  BCF    FA6.2
0C000:  MOVF   00,W
0C002:  IORWF  FF2,F
....................             delay_ms(10); 
0C004:  MOVLW  0A
0C006:  MOVLB  9
0C008:  MOVWF  x4C
0C00A:  MOVLB  0
0C00C:  CALL   1440
0C010:  MOVLB  6
....................          } 
....................      } 
.................... //_-------------------------------------------------------------------------------------------------------------------------------------------------------- 
....................  
.................... //_--------------------------------------------------------------------------------------------------------------------------------------------------------       
....................       if(Menu==110){ // Menu de Resistencia conversora I/V 
0C012:  MOVF   x38,W
0C014:  SUBLW  6E
0C016:  BTFSS  FD8.2
0C018:  BRA    C4C6
....................        
....................       if(resistencia>260)       
0C01A:  MOVLB  9
0C01C:  CLRF   x39
0C01E:  CLRF   x38
0C020:  MOVLW  02
0C022:  MOVWF  x37
0C024:  MOVLW  87
0C026:  MOVWF  x36
0C028:  MOVFF  6C6,93D
0C02C:  MOVFF  6C5,93C
0C030:  MOVFF  6C4,93B
0C034:  MOVFF  6C3,93A
0C038:  MOVLB  0
0C03A:  CALL   275A
0C03E:  BNC   C050
....................          resistencia=240; 
0C040:  MOVLB  6
0C042:  CLRF   xC6
0C044:  CLRF   xC5
0C046:  MOVLW  70
0C048:  MOVWF  xC4
0C04A:  MOVLW  86
0C04C:  MOVWF  xC3
....................       else if(resistencia<230) 
0C04E:  BRA    C084
0C050:  MOVFF  6C6,939
0C054:  MOVFF  6C5,938
0C058:  MOVFF  6C4,937
0C05C:  MOVFF  6C3,936
0C060:  MOVLB  9
0C062:  CLRF   x3D
0C064:  CLRF   x3C
0C066:  MOVLW  66
0C068:  MOVWF  x3B
0C06A:  MOVLW  86
0C06C:  MOVWF  x3A
0C06E:  MOVLB  0
0C070:  CALL   275A
0C074:  BNC   C084
....................          resistencia=240; 
0C076:  MOVLB  6
0C078:  CLRF   xC6
0C07A:  CLRF   xC5
0C07C:  MOVLW  70
0C07E:  MOVWF  xC4
0C080:  MOVLW  86
0C082:  MOVWF  xC3
....................        
....................       if(visual==1){ 
0C084:  MOVLB  6
0C086:  BTFSS  x22.7
0C088:  BRA    C110
....................          glcd_fillScreen(OFF); 
0C08A:  MOVLB  9
0C08C:  CLRF   x3D
0C08E:  MOVLB  0
0C090:  CALL   14C0
....................          strcpy(Menus.Letra,"Resis."); 
0C094:  MOVLW  09
0C096:  MOVWF  FEA
0C098:  MOVLW  0D
0C09A:  MOVWF  FE9
0C09C:  MOVFF  FF2,936
0C0A0:  BCF    FF2.7
0C0A2:  MOVLW  00
0C0A4:  CALL   12CE
0C0A8:  TBLRD*-
0C0AA:  TBLRD*+
0C0AC:  MOVF   FF5,W
0C0AE:  MOVWF  FEE
0C0B0:  IORLW  00
0C0B2:  BNZ   C0AA
0C0B4:  MOVLB  9
0C0B6:  BTFSC  x36.7
0C0B8:  BSF    FF2.7
....................          displayMenu(Menus.Letra,0,0,1,2); 
0C0BA:  MOVLW  09
0C0BC:  MOVWF  x3E
0C0BE:  MOVLW  0D
0C0C0:  MOVWF  x3D
0C0C2:  CLRF   x3F
0C0C4:  CLRF   x40
0C0C6:  MOVLW  01
0C0C8:  MOVWF  x41
0C0CA:  MOVLW  02
0C0CC:  MOVWF  x42
0C0CE:  MOVLB  0
0C0D0:  CALL   1AEE
....................           
....................          displayTemperatura(resistencia,30,30,0,3); 
0C0D4:  MOVFF  6C6,945
0C0D8:  MOVFF  6C5,944
0C0DC:  MOVFF  6C4,943
0C0E0:  MOVFF  6C3,942
0C0E4:  CALL   27D4
0C0E8:  MOVFF  02,937
0C0EC:  MOVFF  01,936
0C0F0:  MOVFF  02,93C
0C0F4:  MOVFF  01,93B
0C0F8:  MOVLW  1E
0C0FA:  MOVLB  9
0C0FC:  MOVWF  x3D
0C0FE:  MOVWF  x3E
0C100:  CLRF   x3F
0C102:  MOVLW  03
0C104:  MOVWF  x40
0C106:  MOVLB  0
0C108:  CALL   33C4
....................           
....................          visual=0; 
0C10C:  MOVLB  6
0C10E:  BCF    x22.7
....................       } 
....................        
....................          if(UP)//Si oprime hacia arriba 
0C110:  BSF    F92.5
0C112:  BTFSC  F80.5
0C114:  BRA    C170
....................          {   
....................             Buzz_on;delay_ms(10);Buzz_off; 
0C116:  BSF    F8B.5
0C118:  BCF    F94.5
0C11A:  MOVLW  0A
0C11C:  MOVLB  9
0C11E:  MOVWF  x4C
0C120:  MOVLB  0
0C122:  CALL   1440
0C126:  BCF    F8B.5
0C128:  BCF    F94.5
....................             visual=1; 
0C12A:  MOVLB  6
0C12C:  BSF    x22.7
....................             resistencia+=1.0; 
0C12E:  BCF    FD8.1
0C130:  MOVFF  6C6,94C
0C134:  MOVFF  6C5,94B
0C138:  MOVFF  6C4,94A
0C13C:  MOVFF  6C3,949
0C140:  MOVLB  9
0C142:  CLRF   x50
0C144:  CLRF   x4F
0C146:  CLRF   x4E
0C148:  MOVLW  7F
0C14A:  MOVWF  x4D
0C14C:  MOVLB  0
0C14E:  CALL   1EA4
0C152:  MOVFF  03,6C6
0C156:  MOVFF  02,6C5
0C15A:  MOVFF  01,6C4
0C15E:  MOVFF  00,6C3
....................             delay_ms(30); 
0C162:  MOVLW  1E
0C164:  MOVLB  9
0C166:  MOVWF  x4C
0C168:  MOVLB  0
0C16A:  CALL   1440
0C16E:  MOVLB  6
....................          } 
....................                 
....................          if(DOWN)//Si oprime hacia abajo 
0C170:  BSF    F96.0
0C172:  BTFSC  F84.0
0C174:  BRA    C1D0
....................          {   
....................             Buzz_on;delay_ms(10);Buzz_off; 
0C176:  BSF    F8B.5
0C178:  BCF    F94.5
0C17A:  MOVLW  0A
0C17C:  MOVLB  9
0C17E:  MOVWF  x4C
0C180:  MOVLB  0
0C182:  CALL   1440
0C186:  BCF    F8B.5
0C188:  BCF    F94.5
....................             visual=1; 
0C18A:  MOVLB  6
0C18C:  BSF    x22.7
....................             resistencia-=1.0; 
0C18E:  BSF    FD8.1
0C190:  MOVFF  6C6,94C
0C194:  MOVFF  6C5,94B
0C198:  MOVFF  6C4,94A
0C19C:  MOVFF  6C3,949
0C1A0:  MOVLB  9
0C1A2:  CLRF   x50
0C1A4:  CLRF   x4F
0C1A6:  CLRF   x4E
0C1A8:  MOVLW  7F
0C1AA:  MOVWF  x4D
0C1AC:  MOVLB  0
0C1AE:  CALL   1EA4
0C1B2:  MOVFF  03,6C6
0C1B6:  MOVFF  02,6C5
0C1BA:  MOVFF  01,6C4
0C1BE:  MOVFF  00,6C3
....................             delay_ms(30); 
0C1C2:  MOVLW  1E
0C1C4:  MOVLB  9
0C1C6:  MOVWF  x4C
0C1C8:  MOVLB  0
0C1CA:  CALL   1440
0C1CE:  MOVLB  6
....................          } 
....................                 
....................          if(RIGHT)//Si oprime SET 
0C1D0:  BSF    F96.1
0C1D2:  BTFSC  F84.1
0C1D4:  BRA    C1FA
....................          {   
....................             Buzz_on;delay_ms(10);Buzz_off; 
0C1D6:  BSF    F8B.5
0C1D8:  BCF    F94.5
0C1DA:  MOVLW  0A
0C1DC:  MOVLB  9
0C1DE:  MOVWF  x4C
0C1E0:  MOVLB  0
0C1E2:  CALL   1440
0C1E6:  BCF    F8B.5
0C1E8:  BCF    F94.5
....................             delay_ms(30);visual=1; 
0C1EA:  MOVLW  1E
0C1EC:  MOVLB  9
0C1EE:  MOVWF  x4C
0C1F0:  MOVLB  0
0C1F2:  CALL   1440
0C1F6:  MOVLB  6
0C1F8:  BSF    x22.7
....................          }  
....................                    
....................          if(LEFT)//Si oprime boton de Toma. 
0C1FA:  BSF    F96.2
0C1FC:  BTFSC  F84.2
0C1FE:  BRA    C4C6
....................          { 
....................             Buzz_on;delay_ms(10);Buzz_off; 
0C200:  BSF    F8B.5
0C202:  BCF    F94.5
0C204:  MOVLW  0A
0C206:  MOVLB  9
0C208:  MOVWF  x4C
0C20A:  MOVLB  0
0C20C:  CALL   1440
0C210:  BCF    F8B.5
0C212:  BCF    F94.5
....................             delay_ms(700);Menu=100;glcd_fillscreen(OFF);Opcion=1;visual=1; 
0C214:  MOVLW  04
0C216:  MOVLB  9
0C218:  MOVWF  x36
0C21A:  MOVLW  AF
0C21C:  MOVWF  x4C
0C21E:  MOVLB  0
0C220:  CALL   1440
0C224:  MOVLB  9
0C226:  DECFSZ x36,F
0C228:  BRA    C21A
0C22A:  MOVLW  64
0C22C:  MOVLB  6
0C22E:  MOVWF  x38
0C230:  MOVLB  9
0C232:  CLRF   x3D
0C234:  MOVLB  0
0C236:  CALL   14C0
0C23A:  MOVLW  01
0C23C:  MOVLB  6
0C23E:  MOVWF  x3F
0C240:  BSF    x22.7
....................             write_eeprom(457,(int8)resistencia); 
0C242:  MOVFF  6C6,945
0C246:  MOVFF  6C5,944
0C24A:  MOVFF  6C4,943
0C24E:  MOVFF  6C3,942
0C252:  MOVLB  0
0C254:  CALL   27D4
0C258:  MOVFF  01,936
0C25C:  MOVLW  01
0C25E:  MOVWF  FAA
0C260:  MOVLW  C9
0C262:  MOVWF  FA9
0C264:  MOVFF  936,FA8
0C268:  BCF    FA6.6
0C26A:  BCF    FA6.7
0C26C:  BSF    FA6.2
0C26E:  MOVF   FF2,W
0C270:  MOVWF  00
0C272:  BCF    FF2.7
0C274:  MOVLB  F
0C276:  MOVLW  55
0C278:  MOVWF  FA7
0C27A:  MOVLW  AA
0C27C:  MOVWF  FA7
0C27E:  BSF    FA6.1
0C280:  BTFSC  FA6.1
0C282:  BRA    C280
0C284:  BCF    FA6.2
0C286:  MOVF   00,W
0C288:  IORWF  FF2,F
....................             delay_ms(10); 
0C28A:  MOVLW  0A
0C28C:  MOVLB  9
0C28E:  MOVWF  x4C
0C290:  MOVLB  0
0C292:  CALL   1440
....................             adcInf=(0.004*resistencia*1023)/5.0; 
0C296:  MOVLW  6F
0C298:  MOVLB  9
0C29A:  MOVWF  x5A
0C29C:  MOVLW  12
0C29E:  MOVWF  x59
0C2A0:  MOVLW  03
0C2A2:  MOVWF  x58
0C2A4:  MOVLW  77
0C2A6:  MOVWF  x57
0C2A8:  MOVFF  6C6,95E
0C2AC:  MOVFF  6C5,95D
0C2B0:  MOVFF  6C4,95C
0C2B4:  MOVFF  6C3,95B
0C2B8:  MOVLB  0
0C2BA:  CALL   227A
0C2BE:  MOVFF  00,936
0C2C2:  MOVFF  01,937
0C2C6:  MOVFF  02,938
0C2CA:  MOVFF  03,939
0C2CE:  MOVFF  03,95A
0C2D2:  MOVFF  02,959
0C2D6:  MOVFF  01,958
0C2DA:  MOVFF  00,957
0C2DE:  MOVLB  9
0C2E0:  CLRF   x5E
0C2E2:  MOVLW  C0
0C2E4:  MOVWF  x5D
0C2E6:  MOVLW  7F
0C2E8:  MOVWF  x5C
0C2EA:  MOVLW  88
0C2EC:  MOVWF  x5B
0C2EE:  MOVLB  0
0C2F0:  CALL   227A
0C2F4:  MOVFF  00,936
0C2F8:  MOVFF  01,937
0C2FC:  MOVFF  02,938
0C300:  MOVFF  03,939
0C304:  MOVFF  03,94E
0C308:  MOVFF  02,94D
0C30C:  MOVFF  01,94C
0C310:  MOVFF  00,94B
0C314:  MOVLB  9
0C316:  CLRF   x52
0C318:  CLRF   x51
0C31A:  MOVLW  20
0C31C:  MOVWF  x50
0C31E:  MOVLW  81
0C320:  MOVWF  x4F
0C322:  MOVLB  0
0C324:  CALL   211C
0C328:  MOVFF  03,6F2
0C32C:  MOVFF  02,6F1
0C330:  MOVFF  01,6F0
0C334:  MOVFF  00,6EF
....................             adcSup=(0.02*resistencia*1023)/5.0; 
0C338:  MOVLW  0A
0C33A:  MOVLB  9
0C33C:  MOVWF  x5A
0C33E:  MOVLW  D7
0C340:  MOVWF  x59
0C342:  MOVLW  23
0C344:  MOVWF  x58
0C346:  MOVLW  79
0C348:  MOVWF  x57
0C34A:  MOVFF  6C6,95E
0C34E:  MOVFF  6C5,95D
0C352:  MOVFF  6C4,95C
0C356:  MOVFF  6C3,95B
0C35A:  MOVLB  0
0C35C:  CALL   227A
0C360:  MOVFF  00,936
0C364:  MOVFF  01,937
0C368:  MOVFF  02,938
0C36C:  MOVFF  03,939
0C370:  MOVFF  03,95A
0C374:  MOVFF  02,959
0C378:  MOVFF  01,958
0C37C:  MOVFF  00,957
0C380:  MOVLB  9
0C382:  CLRF   x5E
0C384:  MOVLW  C0
0C386:  MOVWF  x5D
0C388:  MOVLW  7F
0C38A:  MOVWF  x5C
0C38C:  MOVLW  88
0C38E:  MOVWF  x5B
0C390:  MOVLB  0
0C392:  CALL   227A
0C396:  MOVFF  00,936
0C39A:  MOVFF  01,937
0C39E:  MOVFF  02,938
0C3A2:  MOVFF  03,939
0C3A6:  MOVFF  03,94E
0C3AA:  MOVFF  02,94D
0C3AE:  MOVFF  01,94C
0C3B2:  MOVFF  00,94B
0C3B6:  MOVLB  9
0C3B8:  CLRF   x52
0C3BA:  CLRF   x51
0C3BC:  MOVLW  20
0C3BE:  MOVWF  x50
0C3C0:  MOVLW  81
0C3C2:  MOVWF  x4F
0C3C4:  MOVLB  0
0C3C6:  CALL   211C
0C3CA:  MOVFF  03,6EE
0C3CE:  MOVFF  02,6ED
0C3D2:  MOVFF  01,6EC
0C3D6:  MOVFF  00,6EB
....................             m=(Tsup-Tinf)/(adcSup-adcInf); 
0C3DA:  BSF    FD8.1
0C3DC:  MOVFF  6F6,94C
0C3E0:  MOVFF  6F5,94B
0C3E4:  MOVFF  6F4,94A
0C3E8:  MOVFF  6F3,949
0C3EC:  MOVFF  6FA,950
0C3F0:  MOVFF  6F9,94F
0C3F4:  MOVFF  6F8,94E
0C3F8:  MOVFF  6F7,94D
0C3FC:  CALL   1EA4
0C400:  MOVFF  00,936
0C404:  MOVFF  01,937
0C408:  MOVFF  02,938
0C40C:  MOVFF  03,939
0C410:  BSF    FD8.1
0C412:  MOVFF  6EE,94C
0C416:  MOVFF  6ED,94B
0C41A:  MOVFF  6EC,94A
0C41E:  MOVFF  6EB,949
0C422:  MOVFF  6F2,950
0C426:  MOVFF  6F1,94F
0C42A:  MOVFF  6F0,94E
0C42E:  MOVFF  6EF,94D
0C432:  CALL   1EA4
0C436:  MOVFF  939,94E
0C43A:  MOVFF  938,94D
0C43E:  MOVFF  937,94C
0C442:  MOVFF  936,94B
0C446:  MOVFF  03,952
0C44A:  MOVFF  02,951
0C44E:  MOVFF  01,950
0C452:  MOVFF  00,94F
0C456:  CALL   211C
0C45A:  MOVFF  03,6E6
0C45E:  MOVFF  02,6E5
0C462:  MOVFF  01,6E4
0C466:  MOVFF  00,6E3
....................             b=Tsup-(m*adcSup); 
0C46A:  MOVFF  6E6,95A
0C46E:  MOVFF  6E5,959
0C472:  MOVFF  6E4,958
0C476:  MOVFF  6E3,957
0C47A:  MOVFF  6EE,95E
0C47E:  MOVFF  6ED,95D
0C482:  MOVFF  6EC,95C
0C486:  MOVFF  6EB,95B
0C48A:  CALL   227A
0C48E:  BSF    FD8.1
0C490:  MOVFF  6F6,94C
0C494:  MOVFF  6F5,94B
0C498:  MOVFF  6F4,94A
0C49C:  MOVFF  6F3,949
0C4A0:  MOVFF  03,950
0C4A4:  MOVFF  02,94F
0C4A8:  MOVFF  01,94E
0C4AC:  MOVFF  00,94D
0C4B0:  CALL   1EA4
0C4B4:  MOVFF  03,6EA
0C4B8:  MOVFF  02,6E9
0C4BC:  MOVFF  01,6E8
0C4C0:  MOVFF  00,6E7
0C4C4:  MOVLB  6
....................          } 
....................      } 
.................... //_-------------------------------------------------------------------------------------------------------------------------------------------------------- 
....................  
.................... //_--------------------------------------------------------------------------------------------------------------------------------------------------------       
....................       if(Menu==111){ // Menu de Pendiente de calentamiento de mufla 
0C4C6:  MOVF   x38,W
0C4C8:  SUBLW  6F
0C4CA:  BTFSS  FD8.2
0C4CC:  BRA    C748
....................        
....................       if(penMufla>255)       
0C4CE:  MOVLB  9
0C4D0:  CLRF   x39
0C4D2:  CLRF   x38
0C4D4:  MOVLW  7F
0C4D6:  MOVWF  x37
0C4D8:  MOVLW  86
0C4DA:  MOVWF  x36
0C4DC:  MOVFF  6FE,93D
0C4E0:  MOVFF  6FD,93C
0C4E4:  MOVFF  6FC,93B
0C4E8:  MOVFF  6FB,93A
0C4EC:  MOVLB  0
0C4EE:  CALL   275A
0C4F2:  BNC   C502
....................          penMufla=1; 
0C4F4:  MOVLB  6
0C4F6:  CLRF   xFE
0C4F8:  CLRF   xFD
0C4FA:  CLRF   xFC
0C4FC:  MOVLW  7F
0C4FE:  MOVWF  xFB
....................       else if(penMufla<1) 
0C500:  BRA    C534
0C502:  MOVFF  6FE,939
0C506:  MOVFF  6FD,938
0C50A:  MOVFF  6FC,937
0C50E:  MOVFF  6FB,936
0C512:  MOVLB  9
0C514:  CLRF   x3D
0C516:  CLRF   x3C
0C518:  CLRF   x3B
0C51A:  MOVLW  7F
0C51C:  MOVWF  x3A
0C51E:  MOVLB  0
0C520:  CALL   275A
0C524:  BNC   C534
....................          penMufla=255; 
0C526:  MOVLB  6
0C528:  CLRF   xFE
0C52A:  CLRF   xFD
0C52C:  MOVLW  7F
0C52E:  MOVWF  xFC
0C530:  MOVLW  86
0C532:  MOVWF  xFB
....................        
....................       if(visual==1){ 
0C534:  MOVLB  6
0C536:  BTFSS  x22.7
0C538:  BRA    C5C0
....................          glcd_fillScreen(OFF); 
0C53A:  MOVLB  9
0C53C:  CLRF   x3D
0C53E:  MOVLB  0
0C540:  CALL   14C0
....................          strcpy(Menus.Letra,"m Mufla"); 
0C544:  MOVLW  09
0C546:  MOVWF  FEA
0C548:  MOVLW  0D
0C54A:  MOVWF  FE9
0C54C:  MOVFF  FF2,936
0C550:  BCF    FF2.7
0C552:  MOVLW  00
0C554:  CALL   116E
0C558:  TBLRD*-
0C55A:  TBLRD*+
0C55C:  MOVF   FF5,W
0C55E:  MOVWF  FEE
0C560:  IORLW  00
0C562:  BNZ   C55A
0C564:  MOVLB  9
0C566:  BTFSC  x36.7
0C568:  BSF    FF2.7
....................          displayMenu(Menus.Letra,0,0,1,2); 
0C56A:  MOVLW  09
0C56C:  MOVWF  x3E
0C56E:  MOVLW  0D
0C570:  MOVWF  x3D
0C572:  CLRF   x3F
0C574:  CLRF   x40
0C576:  MOVLW  01
0C578:  MOVWF  x41
0C57A:  MOVLW  02
0C57C:  MOVWF  x42
0C57E:  MOVLB  0
0C580:  CALL   1AEE
....................           
....................          displayTemperatura(penMufla,30,30,0,3); 
0C584:  MOVFF  6FE,945
0C588:  MOVFF  6FD,944
0C58C:  MOVFF  6FC,943
0C590:  MOVFF  6FB,942
0C594:  CALL   27D4
0C598:  MOVFF  02,937
0C59C:  MOVFF  01,936
0C5A0:  MOVFF  02,93C
0C5A4:  MOVFF  01,93B
0C5A8:  MOVLW  1E
0C5AA:  MOVLB  9
0C5AC:  MOVWF  x3D
0C5AE:  MOVWF  x3E
0C5B0:  CLRF   x3F
0C5B2:  MOVLW  03
0C5B4:  MOVWF  x40
0C5B6:  MOVLB  0
0C5B8:  CALL   33C4
....................           
....................          visual=0; 
0C5BC:  MOVLB  6
0C5BE:  BCF    x22.7
....................       } 
....................        
....................          if(UP)//Si oprime hacia arriba 
0C5C0:  BSF    F92.5
0C5C2:  BTFSC  F80.5
0C5C4:  BRA    C620
....................          {   
....................             Buzz_on;delay_ms(10);Buzz_off; 
0C5C6:  BSF    F8B.5
0C5C8:  BCF    F94.5
0C5CA:  MOVLW  0A
0C5CC:  MOVLB  9
0C5CE:  MOVWF  x4C
0C5D0:  MOVLB  0
0C5D2:  CALL   1440
0C5D6:  BCF    F8B.5
0C5D8:  BCF    F94.5
....................             visual=1; 
0C5DA:  MOVLB  6
0C5DC:  BSF    x22.7
....................             penMufla+=1.0; 
0C5DE:  BCF    FD8.1
0C5E0:  MOVFF  6FE,94C
0C5E4:  MOVFF  6FD,94B
0C5E8:  MOVFF  6FC,94A
0C5EC:  MOVFF  6FB,949
0C5F0:  MOVLB  9
0C5F2:  CLRF   x50
0C5F4:  CLRF   x4F
0C5F6:  CLRF   x4E
0C5F8:  MOVLW  7F
0C5FA:  MOVWF  x4D
0C5FC:  MOVLB  0
0C5FE:  CALL   1EA4
0C602:  MOVFF  03,6FE
0C606:  MOVFF  02,6FD
0C60A:  MOVFF  01,6FC
0C60E:  MOVFF  00,6FB
....................             delay_ms(30); 
0C612:  MOVLW  1E
0C614:  MOVLB  9
0C616:  MOVWF  x4C
0C618:  MOVLB  0
0C61A:  CALL   1440
0C61E:  MOVLB  6
....................          } 
....................                 
....................          if(DOWN)//Si oprime hacia abajo 
0C620:  BSF    F96.0
0C622:  BTFSC  F84.0
0C624:  BRA    C680
....................          {   
....................             Buzz_on;delay_ms(10);Buzz_off; 
0C626:  BSF    F8B.5
0C628:  BCF    F94.5
0C62A:  MOVLW  0A
0C62C:  MOVLB  9
0C62E:  MOVWF  x4C
0C630:  MOVLB  0
0C632:  CALL   1440
0C636:  BCF    F8B.5
0C638:  BCF    F94.5
....................             visual=1; 
0C63A:  MOVLB  6
0C63C:  BSF    x22.7
....................             penMufla-=1.0; 
0C63E:  BSF    FD8.1
0C640:  MOVFF  6FE,94C
0C644:  MOVFF  6FD,94B
0C648:  MOVFF  6FC,94A
0C64C:  MOVFF  6FB,949
0C650:  MOVLB  9
0C652:  CLRF   x50
0C654:  CLRF   x4F
0C656:  CLRF   x4E
0C658:  MOVLW  7F
0C65A:  MOVWF  x4D
0C65C:  MOVLB  0
0C65E:  CALL   1EA4
0C662:  MOVFF  03,6FE
0C666:  MOVFF  02,6FD
0C66A:  MOVFF  01,6FC
0C66E:  MOVFF  00,6FB
....................             delay_ms(30); 
0C672:  MOVLW  1E
0C674:  MOVLB  9
0C676:  MOVWF  x4C
0C678:  MOVLB  0
0C67A:  CALL   1440
0C67E:  MOVLB  6
....................          } 
....................                 
....................          if(RIGHT)//Si oprime SET 
0C680:  BSF    F96.1
0C682:  BTFSC  F84.1
0C684:  BRA    C6AA
....................          {   
....................             Buzz_on;delay_ms(10);Buzz_off; 
0C686:  BSF    F8B.5
0C688:  BCF    F94.5
0C68A:  MOVLW  0A
0C68C:  MOVLB  9
0C68E:  MOVWF  x4C
0C690:  MOVLB  0
0C692:  CALL   1440
0C696:  BCF    F8B.5
0C698:  BCF    F94.5
....................             delay_ms(30);visual=1; 
0C69A:  MOVLW  1E
0C69C:  MOVLB  9
0C69E:  MOVWF  x4C
0C6A0:  MOVLB  0
0C6A2:  CALL   1440
0C6A6:  MOVLB  6
0C6A8:  BSF    x22.7
....................          }  
....................                    
....................          if(LEFT)//Si oprime boton de Toma. 
0C6AA:  BSF    F96.2
0C6AC:  BTFSC  F84.2
0C6AE:  BRA    C748
....................          { 
....................             Buzz_on;delay_ms(10);Buzz_off; 
0C6B0:  BSF    F8B.5
0C6B2:  BCF    F94.5
0C6B4:  MOVLW  0A
0C6B6:  MOVLB  9
0C6B8:  MOVWF  x4C
0C6BA:  MOVLB  0
0C6BC:  CALL   1440
0C6C0:  BCF    F8B.5
0C6C2:  BCF    F94.5
....................             delay_ms(700);Menu=100;glcd_fillscreen(OFF);Opcion=1;visual=1; 
0C6C4:  MOVLW  04
0C6C6:  MOVLB  9
0C6C8:  MOVWF  x36
0C6CA:  MOVLW  AF
0C6CC:  MOVWF  x4C
0C6CE:  MOVLB  0
0C6D0:  CALL   1440
0C6D4:  MOVLB  9
0C6D6:  DECFSZ x36,F
0C6D8:  BRA    C6CA
0C6DA:  MOVLW  64
0C6DC:  MOVLB  6
0C6DE:  MOVWF  x38
0C6E0:  MOVLB  9
0C6E2:  CLRF   x3D
0C6E4:  MOVLB  0
0C6E6:  CALL   14C0
0C6EA:  MOVLW  01
0C6EC:  MOVLB  6
0C6EE:  MOVWF  x3F
0C6F0:  BSF    x22.7
....................             write_eeprom(458,(int8)penMufla); 
0C6F2:  MOVFF  6FE,945
0C6F6:  MOVFF  6FD,944
0C6FA:  MOVFF  6FC,943
0C6FE:  MOVFF  6FB,942
0C702:  MOVLB  0
0C704:  CALL   27D4
0C708:  MOVFF  01,936
0C70C:  MOVLW  01
0C70E:  MOVWF  FAA
0C710:  MOVLW  CA
0C712:  MOVWF  FA9
0C714:  MOVFF  936,FA8
0C718:  BCF    FA6.6
0C71A:  BCF    FA6.7
0C71C:  BSF    FA6.2
0C71E:  MOVF   FF2,W
0C720:  MOVWF  00
0C722:  BCF    FF2.7
0C724:  MOVLB  F
0C726:  MOVLW  55
0C728:  MOVWF  FA7
0C72A:  MOVLW  AA
0C72C:  MOVWF  FA7
0C72E:  BSF    FA6.1
0C730:  BTFSC  FA6.1
0C732:  BRA    C730
0C734:  BCF    FA6.2
0C736:  MOVF   00,W
0C738:  IORWF  FF2,F
....................             delay_ms(10); 
0C73A:  MOVLW  0A
0C73C:  MOVLB  9
0C73E:  MOVWF  x4C
0C740:  MOVLB  0
0C742:  CALL   1440
0C746:  MOVLB  6
....................          } 
....................      } 
.................... //_-------------------------------------------------------------------------------------------------------------------------------------------------------- 
....................  
.................... //_--------------------------------------------------------------------------------------------------------------------------------------------------------       
....................       if(Menu==112){ // Menu de Pendiente de termocupla 
0C748:  MOVF   x38,W
0C74A:  SUBLW  70
0C74C:  BTFSS  FD8.2
0C74E:  BRA    CA1A
....................        
....................       if(m>2.0)       
0C750:  MOVLB  9
0C752:  CLRF   x39
0C754:  CLRF   x38
0C756:  CLRF   x37
0C758:  MOVLW  80
0C75A:  MOVWF  x36
0C75C:  MOVFF  6E6,93D
0C760:  MOVFF  6E5,93C
0C764:  MOVFF  6E4,93B
0C768:  MOVFF  6E3,93A
0C76C:  MOVLB  0
0C76E:  CALL   275A
0C772:  BNC   C788
....................          m=1.2; 
0C774:  MOVLW  9A
0C776:  MOVLB  6
0C778:  MOVWF  xE6
0C77A:  MOVLW  99
0C77C:  MOVWF  xE5
0C77E:  MOVLW  19
0C780:  MOVWF  xE4
0C782:  MOVLW  7F
0C784:  MOVWF  xE3
....................       else if(m<1.2) 
0C786:  BRA    C7BE
0C788:  MOVFF  6E6,939
0C78C:  MOVFF  6E5,938
0C790:  MOVFF  6E4,937
0C794:  MOVFF  6E3,936
0C798:  MOVLW  9A
0C79A:  MOVLB  9
0C79C:  MOVWF  x3D
0C79E:  MOVLW  99
0C7A0:  MOVWF  x3C
0C7A2:  MOVLW  19
0C7A4:  MOVWF  x3B
0C7A6:  MOVLW  7F
0C7A8:  MOVWF  x3A
0C7AA:  MOVLB  0
0C7AC:  CALL   275A
0C7B0:  BNC   C7BE
....................          m=2.0; 
0C7B2:  MOVLB  6
0C7B4:  CLRF   xE6
0C7B6:  CLRF   xE5
0C7B8:  CLRF   xE4
0C7BA:  MOVLW  80
0C7BC:  MOVWF  xE3
....................        
....................       if(visual==1){ 
0C7BE:  MOVLB  6
0C7C0:  BTFSS  x22.7
0C7C2:  BRA    C834
....................          glcd_fillScreen(OFF); 
0C7C4:  MOVLB  9
0C7C6:  CLRF   x3D
0C7C8:  MOVLB  0
0C7CA:  CALL   14C0
....................          strcpy(Menus.Letra,"m"); 
0C7CE:  MOVLW  09
0C7D0:  MOVWF  FEA
0C7D2:  MOVLW  0D
0C7D4:  MOVWF  FE9
0C7D6:  MOVFF  FF2,936
0C7DA:  BCF    FF2.7
0C7DC:  MOVLW  00
0C7DE:  CALL   1194
0C7E2:  TBLRD*-
0C7E4:  TBLRD*+
0C7E6:  MOVF   FF5,W
0C7E8:  MOVWF  FEE
0C7EA:  IORLW  00
0C7EC:  BNZ   C7E4
0C7EE:  MOVLB  9
0C7F0:  BTFSC  x36.7
0C7F2:  BSF    FF2.7
....................          displayMenu(Menus.Letra,0,0,1,2); 
0C7F4:  MOVLW  09
0C7F6:  MOVWF  x3E
0C7F8:  MOVLW  0D
0C7FA:  MOVWF  x3D
0C7FC:  CLRF   x3F
0C7FE:  CLRF   x40
0C800:  MOVLW  01
0C802:  MOVWF  x41
0C804:  MOVLW  02
0C806:  MOVWF  x42
0C808:  MOVLB  0
0C80A:  CALL   1AEE
....................           
....................          displayFloat(m,30,30,3); 
0C80E:  MOVFF  6E6,93D
0C812:  MOVFF  6E5,93C
0C816:  MOVFF  6E4,93B
0C81A:  MOVFF  6E3,93A
0C81E:  MOVLW  1E
0C820:  MOVLB  9
0C822:  MOVWF  x3E
0C824:  MOVWF  x3F
0C826:  MOVLW  03
0C828:  MOVWF  x40
0C82A:  MOVLB  0
0C82C:  CALL   5EC2
....................           
....................          visual=0; 
0C830:  MOVLB  6
0C832:  BCF    x22.7
....................       } 
....................        
....................          if(UP)//Si oprime hacia arriba 
0C834:  BSF    F92.5
0C836:  BTFSC  F80.5
0C838:  BRA    C89A
....................          {   
....................             Buzz_on;delay_ms(10);Buzz_off; 
0C83A:  BSF    F8B.5
0C83C:  BCF    F94.5
0C83E:  MOVLW  0A
0C840:  MOVLB  9
0C842:  MOVWF  x4C
0C844:  MOVLB  0
0C846:  CALL   1440
0C84A:  BCF    F8B.5
0C84C:  BCF    F94.5
....................             visual=1; 
0C84E:  MOVLB  6
0C850:  BSF    x22.7
....................             m+=0.01; 
0C852:  BCF    FD8.1
0C854:  MOVFF  6E6,94C
0C858:  MOVFF  6E5,94B
0C85C:  MOVFF  6E4,94A
0C860:  MOVFF  6E3,949
0C864:  MOVLW  0A
0C866:  MOVLB  9
0C868:  MOVWF  x50
0C86A:  MOVLW  D7
0C86C:  MOVWF  x4F
0C86E:  MOVLW  23
0C870:  MOVWF  x4E
0C872:  MOVLW  78
0C874:  MOVWF  x4D
0C876:  MOVLB  0
0C878:  CALL   1EA4
0C87C:  MOVFF  03,6E6
0C880:  MOVFF  02,6E5
0C884:  MOVFF  01,6E4
0C888:  MOVFF  00,6E3
....................             delay_ms(10); 
0C88C:  MOVLW  0A
0C88E:  MOVLB  9
0C890:  MOVWF  x4C
0C892:  MOVLB  0
0C894:  CALL   1440
0C898:  MOVLB  6
....................          } 
....................                 
....................          if(DOWN)//Si oprime hacia abajo 
0C89A:  BSF    F96.0
0C89C:  BTFSC  F84.0
0C89E:  BRA    C900
....................          {   
....................             Buzz_on;delay_ms(10);Buzz_off; 
0C8A0:  BSF    F8B.5
0C8A2:  BCF    F94.5
0C8A4:  MOVLW  0A
0C8A6:  MOVLB  9
0C8A8:  MOVWF  x4C
0C8AA:  MOVLB  0
0C8AC:  CALL   1440
0C8B0:  BCF    F8B.5
0C8B2:  BCF    F94.5
....................             visual=1; 
0C8B4:  MOVLB  6
0C8B6:  BSF    x22.7
....................             m-=0.01; 
0C8B8:  BSF    FD8.1
0C8BA:  MOVFF  6E6,94C
0C8BE:  MOVFF  6E5,94B
0C8C2:  MOVFF  6E4,94A
0C8C6:  MOVFF  6E3,949
0C8CA:  MOVLW  0A
0C8CC:  MOVLB  9
0C8CE:  MOVWF  x50
0C8D0:  MOVLW  D7
0C8D2:  MOVWF  x4F
0C8D4:  MOVLW  23
0C8D6:  MOVWF  x4E
0C8D8:  MOVLW  78
0C8DA:  MOVWF  x4D
0C8DC:  MOVLB  0
0C8DE:  CALL   1EA4
0C8E2:  MOVFF  03,6E6
0C8E6:  MOVFF  02,6E5
0C8EA:  MOVFF  01,6E4
0C8EE:  MOVFF  00,6E3
....................             delay_ms(10); 
0C8F2:  MOVLW  0A
0C8F4:  MOVLB  9
0C8F6:  MOVWF  x4C
0C8F8:  MOVLB  0
0C8FA:  CALL   1440
0C8FE:  MOVLB  6
....................          } 
....................                 
....................          if(RIGHT)//Si oprime SET 
0C900:  BSF    F96.1
0C902:  BTFSC  F84.1
0C904:  BRA    C92A
....................          {   
....................             Buzz_on;delay_ms(10);Buzz_off; 
0C906:  BSF    F8B.5
0C908:  BCF    F94.5
0C90A:  MOVLW  0A
0C90C:  MOVLB  9
0C90E:  MOVWF  x4C
0C910:  MOVLB  0
0C912:  CALL   1440
0C916:  BCF    F8B.5
0C918:  BCF    F94.5
....................             delay_ms(30);visual=1; 
0C91A:  MOVLW  1E
0C91C:  MOVLB  9
0C91E:  MOVWF  x4C
0C920:  MOVLB  0
0C922:  CALL   1440
0C926:  MOVLB  6
0C928:  BSF    x22.7
....................          }  
....................                    
....................          if(LEFT)//Si oprime boton de Toma. 
0C92A:  BSF    F96.2
0C92C:  BTFSC  F84.2
0C92E:  BRA    CA1A
....................          { 
....................             Buzz_on;delay_ms(10);Buzz_off; 
0C930:  BSF    F8B.5
0C932:  BCF    F94.5
0C934:  MOVLW  0A
0C936:  MOVLB  9
0C938:  MOVWF  x4C
0C93A:  MOVLB  0
0C93C:  CALL   1440
0C940:  BCF    F8B.5
0C942:  BCF    F94.5
....................             delay_ms(700);Menu=100;glcd_fillscreen(OFF);Opcion=1;visual=1; 
0C944:  MOVLW  04
0C946:  MOVLB  9
0C948:  MOVWF  x36
0C94A:  MOVLW  AF
0C94C:  MOVWF  x4C
0C94E:  MOVLB  0
0C950:  CALL   1440
0C954:  MOVLB  9
0C956:  DECFSZ x36,F
0C958:  BRA    C94A
0C95A:  MOVLW  64
0C95C:  MOVLB  6
0C95E:  MOVWF  x38
0C960:  MOVLB  9
0C962:  CLRF   x3D
0C964:  MOVLB  0
0C966:  CALL   14C0
0C96A:  MOVLW  01
0C96C:  MOVLB  6
0C96E:  MOVWF  x3F
0C970:  BSF    x22.7
....................             write_eeprom(490,(int8)m); 
0C972:  MOVFF  6E6,945
0C976:  MOVFF  6E5,944
0C97A:  MOVFF  6E4,943
0C97E:  MOVFF  6E3,942
0C982:  MOVLB  0
0C984:  CALL   27D4
0C988:  MOVFF  01,936
0C98C:  MOVLW  01
0C98E:  MOVWF  FAA
0C990:  MOVLW  EA
0C992:  MOVWF  FA9
0C994:  MOVFF  936,FA8
0C998:  BCF    FA6.6
0C99A:  BCF    FA6.7
0C99C:  BSF    FA6.2
0C99E:  MOVF   FF2,W
0C9A0:  MOVWF  00
0C9A2:  BCF    FF2.7
0C9A4:  MOVLB  F
0C9A6:  MOVLW  55
0C9A8:  MOVWF  FA7
0C9AA:  MOVLW  AA
0C9AC:  MOVWF  FA7
0C9AE:  BSF    FA6.1
0C9B0:  BTFSC  FA6.1
0C9B2:  BRA    C9B0
0C9B4:  BCF    FA6.2
0C9B6:  MOVF   00,W
0C9B8:  IORWF  FF2,F
....................             delay_ms(10); 
0C9BA:  MOVLW  0A
0C9BC:  MOVLB  9
0C9BE:  MOVWF  x4C
0C9C0:  MOVLB  0
0C9C2:  CALL   1440
....................             write_eeprom(491,extraeDecimal(m)); 
0C9C6:  MOVFF  6E6,939
0C9CA:  MOVFF  6E5,938
0C9CE:  MOVFF  6E4,937
0C9D2:  MOVFF  6E3,936
0C9D6:  GOTO   5F3A
0C9DA:  MOVFF  01,936
0C9DE:  MOVLW  01
0C9E0:  MOVWF  FAA
0C9E2:  MOVLW  EB
0C9E4:  MOVWF  FA9
0C9E6:  MOVFF  936,FA8
0C9EA:  BCF    FA6.6
0C9EC:  BCF    FA6.7
0C9EE:  BSF    FA6.2
0C9F0:  MOVF   FF2,W
0C9F2:  MOVWF  00
0C9F4:  BCF    FF2.7
0C9F6:  MOVLB  F
0C9F8:  MOVLW  55
0C9FA:  MOVWF  FA7
0C9FC:  MOVLW  AA
0C9FE:  MOVWF  FA7
0CA00:  BSF    FA6.1
0CA02:  BTFSC  FA6.1
0CA04:  BRA    CA02
0CA06:  BCF    FA6.2
0CA08:  MOVF   00,W
0CA0A:  IORWF  FF2,F
....................             delay_ms(10); 
0CA0C:  MOVLW  0A
0CA0E:  MOVLB  9
0CA10:  MOVWF  x4C
0CA12:  MOVLB  0
0CA14:  CALL   1440
0CA18:  MOVLB  6
....................          } 
....................      } 
.................... //_-------------------------------------------------------------------------------------------------------------------------------------------------------- 
....................  
.................... //_--------------------------------------------------------------------------------------------------------------------------------------------------------       
....................       if(Menu==113){ // Menu de b de termocupla 
0CA1A:  MOVF   x38,W
0CA1C:  SUBLW  71
0CA1E:  BTFSS  FD8.2
0CA20:  GOTO   E252
....................       /* 
....................       if(b>400)       
....................          b=300; 
....................       else if(b<300) 
....................          b=400; 
....................        
....................       if(visual==1){ 
....................          glcd_fillScreen(OFF); 
....................          strcpy(Menus.Letra,"b"); 
....................          displayMenu(Menus.Letra,0,0,1,2); 
....................           
....................          displayFloat(b,30,30,3); 
....................           
....................          visual=0; 
....................       } 
....................        
....................          if(UP)//Si oprime hacia arriba 
....................          {   
....................             Buzz_on;delay_ms(10);Buzz_off; 
....................             visual=1; 
....................             b+=0.1; 
....................             delay_ms(10); 
....................          } 
....................                 
....................          if(DOWN)//Si oprime hacia abajo 
....................          {   
....................             Buzz_on;delay_ms(10);Buzz_off; 
....................             visual=1; 
....................             b-=0.1; 
....................             delay_ms(10); 
....................          } 
....................                 
....................          if(RIGHT)//Si oprime SET 
....................          {   
....................             Buzz_on;delay_ms(10);Buzz_off; 
....................             delay_ms(30);visual=1; 
....................          }  
....................                    
....................          if(LEFT)//Si oprime boton de Toma. 
....................          { 
....................             Buzz_on;delay_ms(10);Buzz_off; 
....................             delay_ms(700);Menu=100;glcd_fillscreen(OFF);Opcion=1;visual=1; 
....................             b16=(int16)b; 
....................             write_eeprom(492,make8(b16,0)); 
....................             delay_ms(10); 
....................             write_eeprom(493,make8(b16,1)); 
....................             delay_ms(10); 
....................             write_eeprom(494,extraeDecimal(b)); 
....................             delay_ms(10); 
....................          } 
....................          */ 
....................          char voltage[9]; 
....................           
....................          if(RIGHT){ 
0CA24:  BSF    F96.1
0CA26:  BTFSC  F84.1
0CA28:  BRA    CA46
....................             calib++; 
0CA2A:  MOVLB  9
0CA2C:  INCF   x0B,F
0CA2E:  BTFSC  FD8.2
0CA30:  INCF   x0C,F
....................             delay_ms(300); 
0CA32:  MOVLW  02
0CA34:  MOVWF  x36
0CA36:  MOVLW  96
0CA38:  MOVWF  x4C
0CA3A:  MOVLB  0
0CA3C:  CALL   1440
0CA40:  MOVLB  9
0CA42:  DECFSZ x36,F
0CA44:  BRA    CA36
....................          } 
....................           
....................          m1=((float)control2-(float)control1)/((float)patron2-(float)patron1); 
0CA46:  MOVFF  902,94D
0CA4A:  MOVFF  901,94C
0CA4E:  MOVLB  0
0CA50:  CALL   1DF6
0CA54:  MOVFF  00,936
0CA58:  MOVFF  01,937
0CA5C:  MOVFF  02,938
0CA60:  MOVFF  03,939
0CA64:  MOVFF  900,94D
0CA68:  MOVFF  8FF,94C
0CA6C:  CALL   1DF6
0CA70:  BSF    FD8.1
0CA72:  MOVFF  939,94C
0CA76:  MOVFF  938,94B
0CA7A:  MOVFF  937,94A
0CA7E:  MOVFF  936,949
0CA82:  MOVFF  03,950
0CA86:  MOVFF  02,94F
0CA8A:  MOVFF  01,94E
0CA8E:  MOVFF  00,94D
0CA92:  CALL   1EA4
0CA96:  MOVFF  00,936
0CA9A:  MOVFF  01,937
0CA9E:  MOVFF  02,938
0CAA2:  MOVFF  03,939
0CAA6:  MOVFF  908,94D
0CAAA:  MOVFF  907,94C
0CAAE:  CALL   1DF6
0CAB2:  MOVFF  00,93A
0CAB6:  MOVFF  01,93B
0CABA:  MOVFF  02,93C
0CABE:  MOVFF  03,93D
0CAC2:  MOVFF  906,94D
0CAC6:  MOVFF  905,94C
0CACA:  CALL   1DF6
0CACE:  BSF    FD8.1
0CAD0:  MOVFF  93D,94C
0CAD4:  MOVFF  93C,94B
0CAD8:  MOVFF  93B,94A
0CADC:  MOVFF  93A,949
0CAE0:  MOVFF  03,950
0CAE4:  MOVFF  02,94F
0CAE8:  MOVFF  01,94E
0CAEC:  MOVFF  00,94D
0CAF0:  CALL   1EA4
0CAF4:  MOVFF  939,94E
0CAF8:  MOVFF  938,94D
0CAFC:  MOVFF  937,94C
0CB00:  MOVFF  936,94B
0CB04:  MOVFF  03,952
0CB08:  MOVFF  02,951
0CB0C:  MOVFF  01,950
0CB10:  MOVFF  00,94F
0CB14:  CALL   211C
0CB18:  MOVFF  03,8EA
0CB1C:  MOVFF  02,8E9
0CB20:  MOVFF  01,8E8
0CB24:  MOVFF  00,8E7
....................          b1=(float)control2-(m1*(float)patron2); 
0CB28:  MOVFF  902,94D
0CB2C:  MOVFF  901,94C
0CB30:  CALL   1DF6
0CB34:  MOVFF  00,936
0CB38:  MOVFF  01,937
0CB3C:  MOVFF  02,938
0CB40:  MOVFF  03,939
0CB44:  MOVFF  908,94D
0CB48:  MOVFF  907,94C
0CB4C:  CALL   1DF6
0CB50:  MOVFF  8EA,95A
0CB54:  MOVFF  8E9,959
0CB58:  MOVFF  8E8,958
0CB5C:  MOVFF  8E7,957
0CB60:  MOVFF  03,95E
0CB64:  MOVFF  02,95D
0CB68:  MOVFF  01,95C
0CB6C:  MOVFF  00,95B
0CB70:  CALL   227A
0CB74:  BSF    FD8.1
0CB76:  MOVFF  939,94C
0CB7A:  MOVFF  938,94B
0CB7E:  MOVFF  937,94A
0CB82:  MOVFF  936,949
0CB86:  MOVFF  03,950
0CB8A:  MOVFF  02,94F
0CB8E:  MOVFF  01,94E
0CB92:  MOVFF  00,94D
0CB96:  CALL   1EA4
0CB9A:  MOVFF  03,8F2
0CB9E:  MOVFF  02,8F1
0CBA2:  MOVFF  01,8F0
0CBA6:  MOVFF  00,8EF
....................          m2=((float)control3-(float)control2)/((float)patron3-(float)patron2); 
0CBAA:  MOVFF  904,94D
0CBAE:  MOVFF  903,94C
0CBB2:  CALL   1DF6
0CBB6:  MOVFF  00,936
0CBBA:  MOVFF  01,937
0CBBE:  MOVFF  02,938
0CBC2:  MOVFF  03,939
0CBC6:  MOVFF  902,94D
0CBCA:  MOVFF  901,94C
0CBCE:  CALL   1DF6
0CBD2:  BSF    FD8.1
0CBD4:  MOVFF  939,94C
0CBD8:  MOVFF  938,94B
0CBDC:  MOVFF  937,94A
0CBE0:  MOVFF  936,949
0CBE4:  MOVFF  03,950
0CBE8:  MOVFF  02,94F
0CBEC:  MOVFF  01,94E
0CBF0:  MOVFF  00,94D
0CBF4:  CALL   1EA4
0CBF8:  MOVFF  00,936
0CBFC:  MOVFF  01,937
0CC00:  MOVFF  02,938
0CC04:  MOVFF  03,939
0CC08:  MOVFF  90A,94D
0CC0C:  MOVFF  909,94C
0CC10:  CALL   1DF6
0CC14:  MOVFF  00,93A
0CC18:  MOVFF  01,93B
0CC1C:  MOVFF  02,93C
0CC20:  MOVFF  03,93D
0CC24:  MOVFF  908,94D
0CC28:  MOVFF  907,94C
0CC2C:  CALL   1DF6
0CC30:  BSF    FD8.1
0CC32:  MOVFF  93D,94C
0CC36:  MOVFF  93C,94B
0CC3A:  MOVFF  93B,94A
0CC3E:  MOVFF  93A,949
0CC42:  MOVFF  03,950
0CC46:  MOVFF  02,94F
0CC4A:  MOVFF  01,94E
0CC4E:  MOVFF  00,94D
0CC52:  CALL   1EA4
0CC56:  MOVFF  939,94E
0CC5A:  MOVFF  938,94D
0CC5E:  MOVFF  937,94C
0CC62:  MOVFF  936,94B
0CC66:  MOVFF  03,952
0CC6A:  MOVFF  02,951
0CC6E:  MOVFF  01,950
0CC72:  MOVFF  00,94F
0CC76:  CALL   211C
0CC7A:  MOVFF  03,8EE
0CC7E:  MOVFF  02,8ED
0CC82:  MOVFF  01,8EC
0CC86:  MOVFF  00,8EB
....................          b2=(float)control3-(m2*(float)patron3); 
0CC8A:  MOVFF  904,94D
0CC8E:  MOVFF  903,94C
0CC92:  CALL   1DF6
0CC96:  MOVFF  00,936
0CC9A:  MOVFF  01,937
0CC9E:  MOVFF  02,938
0CCA2:  MOVFF  03,939
0CCA6:  MOVFF  90A,94D
0CCAA:  MOVFF  909,94C
0CCAE:  CALL   1DF6
0CCB2:  MOVFF  8EE,95A
0CCB6:  MOVFF  8ED,959
0CCBA:  MOVFF  8EC,958
0CCBE:  MOVFF  8EB,957
0CCC2:  MOVFF  03,95E
0CCC6:  MOVFF  02,95D
0CCCA:  MOVFF  01,95C
0CCCE:  MOVFF  00,95B
0CCD2:  CALL   227A
0CCD6:  BSF    FD8.1
0CCD8:  MOVFF  939,94C
0CCDC:  MOVFF  938,94B
0CCE0:  MOVFF  937,94A
0CCE4:  MOVFF  936,949
0CCE8:  MOVFF  03,950
0CCEC:  MOVFF  02,94F
0CCF0:  MOVFF  01,94E
0CCF4:  MOVFF  00,94D
0CCF8:  CALL   1EA4
0CCFC:  MOVFF  03,8F6
0CD00:  MOVFF  02,8F5
0CD04:  MOVFF  01,8F4
0CD08:  MOVFF  00,8F3
....................          m3=(1200.0-(float)control3)/(1200.0-(float)patron3); 
0CD0C:  MOVFF  904,94D
0CD10:  MOVFF  903,94C
0CD14:  CALL   1DF6
0CD18:  BSF    FD8.1
0CD1A:  MOVLB  9
0CD1C:  CLRF   x4C
0CD1E:  CLRF   x4B
0CD20:  MOVLW  16
0CD22:  MOVWF  x4A
0CD24:  MOVLW  89
0CD26:  MOVWF  x49
0CD28:  MOVFF  03,950
0CD2C:  MOVFF  02,94F
0CD30:  MOVFF  01,94E
0CD34:  MOVFF  00,94D
0CD38:  MOVLB  0
0CD3A:  CALL   1EA4
0CD3E:  MOVFF  00,936
0CD42:  MOVFF  01,937
0CD46:  MOVFF  02,938
0CD4A:  MOVFF  03,939
0CD4E:  MOVFF  90A,94D
0CD52:  MOVFF  909,94C
0CD56:  CALL   1DF6
0CD5A:  BSF    FD8.1
0CD5C:  MOVLB  9
0CD5E:  CLRF   x4C
0CD60:  CLRF   x4B
0CD62:  MOVLW  16
0CD64:  MOVWF  x4A
0CD66:  MOVLW  89
0CD68:  MOVWF  x49
0CD6A:  MOVFF  03,950
0CD6E:  MOVFF  02,94F
0CD72:  MOVFF  01,94E
0CD76:  MOVFF  00,94D
0CD7A:  MOVLB  0
0CD7C:  CALL   1EA4
0CD80:  MOVFF  939,94E
0CD84:  MOVFF  938,94D
0CD88:  MOVFF  937,94C
0CD8C:  MOVFF  936,94B
0CD90:  MOVFF  03,952
0CD94:  MOVFF  02,951
0CD98:  MOVFF  01,950
0CD9C:  MOVFF  00,94F
0CDA0:  CALL   211C
0CDA4:  MOVFF  03,8FA
0CDA8:  MOVFF  02,8F9
0CDAC:  MOVFF  01,8F8
0CDB0:  MOVFF  00,8F7
....................          b3=1200.0-(m3*(float)patron3); 
0CDB4:  MOVFF  90A,94D
0CDB8:  MOVFF  909,94C
0CDBC:  CALL   1DF6
0CDC0:  MOVFF  8FA,95A
0CDC4:  MOVFF  8F9,959
0CDC8:  MOVFF  8F8,958
0CDCC:  MOVFF  8F7,957
0CDD0:  MOVFF  03,95E
0CDD4:  MOVFF  02,95D
0CDD8:  MOVFF  01,95C
0CDDC:  MOVFF  00,95B
0CDE0:  CALL   227A
0CDE4:  BSF    FD8.1
0CDE6:  MOVLB  9
0CDE8:  CLRF   x4C
0CDEA:  CLRF   x4B
0CDEC:  MOVLW  16
0CDEE:  MOVWF  x4A
0CDF0:  MOVLW  89
0CDF2:  MOVWF  x49
0CDF4:  MOVFF  03,950
0CDF8:  MOVFF  02,94F
0CDFC:  MOVFF  01,94E
0CE00:  MOVFF  00,94D
0CE04:  MOVLB  0
0CE06:  CALL   1EA4
0CE0A:  MOVFF  03,8FE
0CE0E:  MOVFF  02,8FD
0CE12:  MOVFF  01,8FC
0CE16:  MOVFF  00,8FB
....................           
....................          sprintf(Menus.Letra, "%02Lu  m1:%2.2f b1:%2.2f",calib,m1,b1); 
0CE1A:  MOVLW  09
0CE1C:  MOVLB  9
0CE1E:  MOVWF  x2C
0CE20:  MOVLW  0D
0CE22:  MOVWF  x2B
0CE24:  MOVLW  0B
0CE26:  MOVWF  FE9
0CE28:  MOVFF  90C,94D
0CE2C:  MOVFF  90B,94C
0CE30:  MOVLB  0
0CE32:  CALL   3306
0CE36:  MOVLW  19
0CE38:  MOVWF  FF6
0CE3A:  MOVLW  14
0CE3C:  MOVWF  FF7
0CE3E:  MOVLW  00
0CE40:  MOVWF  FF8
0CE42:  MOVLW  05
0CE44:  MOVLB  9
0CE46:  MOVWF  x36
0CE48:  MOVLB  0
0CE4A:  CALL   6004
0CE4E:  MOVLW  89
0CE50:  MOVWF  FE9
0CE52:  MOVFF  8EA,94D
0CE56:  MOVFF  8E9,94C
0CE5A:  MOVFF  8E8,94B
0CE5E:  MOVFF  8E7,94A
0CE62:  MOVLW  02
0CE64:  MOVLB  9
0CE66:  MOVWF  x4E
0CE68:  MOVLB  0
0CE6A:  CALL   5D0E
0CE6E:  MOVLW  23
0CE70:  MOVWF  FF6
0CE72:  MOVLW  14
0CE74:  MOVWF  FF7
0CE76:  MOVLW  00
0CE78:  MOVWF  FF8
0CE7A:  MOVLW  04
0CE7C:  MOVLB  9
0CE7E:  MOVWF  x36
0CE80:  MOVLB  0
0CE82:  CALL   6004
0CE86:  MOVLW  89
0CE88:  MOVWF  FE9
0CE8A:  MOVFF  8F2,94D
0CE8E:  MOVFF  8F1,94C
0CE92:  MOVFF  8F0,94B
0CE96:  MOVFF  8EF,94A
0CE9A:  MOVLW  02
0CE9C:  MOVLB  9
0CE9E:  MOVWF  x4E
0CEA0:  MOVLB  0
0CEA2:  CALL   5D0E
....................          displayMenu(Menus.Letra,0,0,1,1); 
0CEA6:  MOVLW  09
0CEA8:  MOVLB  9
0CEAA:  MOVWF  x3E
0CEAC:  MOVLW  0D
0CEAE:  MOVWF  x3D
0CEB0:  CLRF   x3F
0CEB2:  CLRF   x40
0CEB4:  MOVLW  01
0CEB6:  MOVWF  x41
0CEB8:  MOVWF  x42
0CEBA:  MOVLB  0
0CEBC:  CALL   1AEE
....................          sprintf(Menus.Letra, "m2:%2.2f b2:%2.2f",m2,b2); 
0CEC0:  MOVLW  09
0CEC2:  MOVLB  9
0CEC4:  MOVWF  x2C
0CEC6:  MOVLW  0D
0CEC8:  MOVWF  x2B
0CECA:  MOVLW  6D
0CECC:  MOVWF  x57
0CECE:  MOVLB  0
0CED0:  CALL   1C40
0CED4:  MOVLW  32
0CED6:  MOVLB  9
0CED8:  MOVWF  x57
0CEDA:  MOVLB  0
0CEDC:  CALL   1C40
0CEE0:  MOVLW  3A
0CEE2:  MOVLB  9
0CEE4:  MOVWF  x57
0CEE6:  MOVLB  0
0CEE8:  CALL   1C40
0CEEC:  MOVLW  89
0CEEE:  MOVWF  FE9
0CEF0:  MOVFF  8EE,94D
0CEF4:  MOVFF  8ED,94C
0CEF8:  MOVFF  8EC,94B
0CEFC:  MOVFF  8EB,94A
0CF00:  MOVLW  02
0CF02:  MOVLB  9
0CF04:  MOVWF  x4E
0CF06:  MOVLB  0
0CF08:  CALL   5D0E
0CF0C:  MOVLW  36
0CF0E:  MOVWF  FF6
0CF10:  MOVLW  14
0CF12:  MOVWF  FF7
0CF14:  MOVLW  00
0CF16:  MOVWF  FF8
0CF18:  MOVLW  04
0CF1A:  MOVLB  9
0CF1C:  MOVWF  x36
0CF1E:  MOVLB  0
0CF20:  CALL   6004
0CF24:  MOVLW  89
0CF26:  MOVWF  FE9
0CF28:  MOVFF  8F6,94D
0CF2C:  MOVFF  8F5,94C
0CF30:  MOVFF  8F4,94B
0CF34:  MOVFF  8F3,94A
0CF38:  MOVLW  02
0CF3A:  MOVLB  9
0CF3C:  MOVWF  x4E
0CF3E:  MOVLB  0
0CF40:  CALL   5D0E
....................          displayMenu(Menus.Letra,0,8,1,1); 
0CF44:  MOVLW  09
0CF46:  MOVLB  9
0CF48:  MOVWF  x3E
0CF4A:  MOVLW  0D
0CF4C:  MOVWF  x3D
0CF4E:  CLRF   x3F
0CF50:  MOVLW  08
0CF52:  MOVWF  x40
0CF54:  MOVLW  01
0CF56:  MOVWF  x41
0CF58:  MOVWF  x42
0CF5A:  MOVLB  0
0CF5C:  CALL   1AEE
....................           
....................          if(control1<20) 
0CF60:  MOVLB  9
0CF62:  MOVF   x00,F
0CF64:  BNZ   CF80
0CF66:  MOVLB  8
0CF68:  MOVF   xFF,W
0CF6A:  SUBLW  13
0CF6C:  BTFSC  FD8.0
0CF6E:  BRA    CF74
0CF70:  MOVLB  9
0CF72:  BRA    CF80
....................             control1=20; 
0CF74:  MOVLB  9
0CF76:  CLRF   x00
0CF78:  MOVLW  14
0CF7A:  MOVLB  8
0CF7C:  MOVWF  xFF
0CF7E:  MOVLB  9
....................          if(control1>100) 
0CF80:  MOVF   x00,F
0CF82:  BNZ   CF8E
0CF84:  MOVLB  8
0CF86:  MOVF   xFF,W
0CF88:  SUBLW  64
0CF8A:  BC    CF96
0CF8C:  MOVLB  9
....................             control1=100; 
0CF8E:  CLRF   x00
0CF90:  MOVLW  64
0CF92:  MOVLB  8
0CF94:  MOVWF  xFF
....................          if(patron1<20) 
0CF96:  MOVLB  9
0CF98:  MOVF   x06,F
0CF9A:  BNZ   CFA8
0CF9C:  MOVF   x05,W
0CF9E:  SUBLW  13
0CFA0:  BNC   CFA8
....................             patron1=20; 
0CFA2:  CLRF   x06
0CFA4:  MOVLW  14
0CFA6:  MOVWF  x05
....................          if(patron1>100) 
0CFA8:  MOVF   x06,F
0CFAA:  BNZ   CFB2
0CFAC:  MOVF   x05,W
0CFAE:  SUBLW  64
0CFB0:  BC    CFB8
....................             patron1=100; 
0CFB2:  CLRF   x06
0CFB4:  MOVLW  64
0CFB6:  MOVWF  x05
....................           
....................          if(control2<100) 
0CFB8:  MOVF   x02,F
0CFBA:  BNZ   CFC8
0CFBC:  MOVF   x01,W
0CFBE:  SUBLW  63
0CFC0:  BNC   CFC8
....................             control2=100; 
0CFC2:  CLRF   x02
0CFC4:  MOVLW  64
0CFC6:  MOVWF  x01
....................          if(control2>600) 
0CFC8:  MOVF   x02,W
0CFCA:  SUBLW  01
0CFCC:  BC    CFE0
0CFCE:  XORLW  FF
0CFD0:  BNZ   CFD8
0CFD2:  MOVF   x01,W
0CFD4:  SUBLW  58
0CFD6:  BC    CFE0
....................             control2=600; 
0CFD8:  MOVLW  02
0CFDA:  MOVWF  x02
0CFDC:  MOVLW  58
0CFDE:  MOVWF  x01
....................          if(patron2<100) 
0CFE0:  MOVF   x08,F
0CFE2:  BNZ   CFF0
0CFE4:  MOVF   x07,W
0CFE6:  SUBLW  63
0CFE8:  BNC   CFF0
....................             patron2=100; 
0CFEA:  CLRF   x08
0CFEC:  MOVLW  64
0CFEE:  MOVWF  x07
....................          if(patron2>600) 
0CFF0:  MOVF   x08,W
0CFF2:  SUBLW  01
0CFF4:  BC    D008
0CFF6:  XORLW  FF
0CFF8:  BNZ   D000
0CFFA:  MOVF   x07,W
0CFFC:  SUBLW  58
0CFFE:  BC    D008
....................             patron2=600; 
0D000:  MOVLW  02
0D002:  MOVWF  x08
0D004:  MOVLW  58
0D006:  MOVWF  x07
....................              
....................          if(control3<600) 
0D008:  MOVF   x04,W
0D00A:  SUBLW  02
0D00C:  BNC   D01E
0D00E:  BNZ   D016
0D010:  MOVF   x03,W
0D012:  SUBLW  57
0D014:  BNC   D01E
....................             control3=600; 
0D016:  MOVLW  02
0D018:  MOVWF  x04
0D01A:  MOVLW  58
0D01C:  MOVWF  x03
....................          if(control3>1200) 
0D01E:  MOVF   x04,W
0D020:  SUBLW  03
0D022:  BC    D036
0D024:  XORLW  FF
0D026:  BNZ   D02E
0D028:  MOVF   x03,W
0D02A:  SUBLW  B0
0D02C:  BC    D036
....................             control3=1200; 
0D02E:  MOVLW  04
0D030:  MOVWF  x04
0D032:  MOVLW  B0
0D034:  MOVWF  x03
....................          if(patron3<600) 
0D036:  MOVF   x0A,W
0D038:  SUBLW  02
0D03A:  BNC   D04C
0D03C:  BNZ   D044
0D03E:  MOVF   x09,W
0D040:  SUBLW  57
0D042:  BNC   D04C
....................             patron3=600; 
0D044:  MOVLW  02
0D046:  MOVWF  x0A
0D048:  MOVLW  58
0D04A:  MOVWF  x09
....................          if(patron3>1200) 
0D04C:  MOVF   x0A,W
0D04E:  SUBLW  03
0D050:  BC    D064
0D052:  XORLW  FF
0D054:  BNZ   D05C
0D056:  MOVF   x09,W
0D058:  SUBLW  B0
0D05A:  BC    D064
....................             patron3=1200; 
0D05C:  MOVLW  04
0D05E:  MOVWF  x0A
0D060:  MOVLW  B0
0D062:  MOVWF  x09
....................              
....................          if(calib>6) 
0D064:  MOVF   x0C,F
0D066:  BNZ   D06E
0D068:  MOVF   x0B,W
0D06A:  SUBLW  06
0D06C:  BC    D074
....................             calib=1; 
0D06E:  CLRF   x0C
0D070:  MOVLW  01
0D072:  MOVWF  x0B
....................              
....................          if(calib<1) 
0D074:  MOVF   x0B,F
0D076:  BNZ   D082
0D078:  MOVF   x0C,F
0D07A:  BNZ   D082
....................             calib=6;  
0D07C:  CLRF   x0C
0D07E:  MOVLW  06
0D080:  MOVWF  x0B
....................           
....................          if(calib==1){ 
0D082:  DECFSZ x0B,W
0D084:  BRA    D362
0D086:  MOVF   x0C,F
0D088:  BTFSS  FD8.2
0D08A:  BRA    D362
....................             sprintf(voltage, "%04LuC",control1); 
0D08C:  MOVLW  09
0D08E:  MOVWF  x2C
0D090:  MOVLW  2D
0D092:  MOVWF  x2B
0D094:  MOVLW  09
0D096:  MOVWF  FE9
0D098:  MOVFF  900,94D
0D09C:  MOVFF  8FF,94C
0D0A0:  MOVLB  0
0D0A2:  CALL   3306
0D0A6:  MOVLW  B0
0D0A8:  MOVLB  9
0D0AA:  MOVWF  x57
0D0AC:  MOVLB  0
0D0AE:  CALL   1C40
0D0B2:  MOVLW  43
0D0B4:  MOVLB  9
0D0B6:  MOVWF  x57
0D0B8:  MOVLB  0
0D0BA:  CALL   1C40
....................             glcd_rect(28,18,70,30,YES,ON); 
0D0BE:  MOVLW  1C
0D0C0:  MOVLB  9
0D0C2:  MOVWF  x4E
0D0C4:  MOVLW  12
0D0C6:  MOVWF  x4F
0D0C8:  MOVLW  46
0D0CA:  MOVWF  x50
0D0CC:  MOVLW  1E
0D0CE:  MOVWF  x51
0D0D0:  MOVLW  01
0D0D2:  MOVWF  x52
0D0D4:  MOVWF  x53
0D0D6:  MOVLB  0
0D0D8:  CALL   1874
....................             glcd_text57(30,20,voltage,1,0); 
0D0DC:  MOVLW  1E
0D0DE:  MOVLB  9
0D0E0:  MOVWF  x4E
0D0E2:  MOVLW  14
0D0E4:  MOVWF  x4F
0D0E6:  MOVLW  09
0D0E8:  MOVWF  x51
0D0EA:  MOVLW  2D
0D0EC:  MOVWF  x50
0D0EE:  MOVLW  01
0D0F0:  MOVWF  x52
0D0F2:  CLRF   x53
0D0F4:  MOVLB  0
0D0F6:  CALL   1936
....................              
....................             sprintf(voltage, "%04LuC",patron1); 
0D0FA:  MOVLW  09
0D0FC:  MOVLB  9
0D0FE:  MOVWF  x2C
0D100:  MOVLW  2D
0D102:  MOVWF  x2B
0D104:  MOVLW  09
0D106:  MOVWF  FE9
0D108:  MOVFF  906,94D
0D10C:  MOVFF  905,94C
0D110:  MOVLB  0
0D112:  CALL   3306
0D116:  MOVLW  B0
0D118:  MOVLB  9
0D11A:  MOVWF  x57
0D11C:  MOVLB  0
0D11E:  CALL   1C40
0D122:  MOVLW  43
0D124:  MOVLB  9
0D126:  MOVWF  x57
0D128:  MOVLB  0
0D12A:  CALL   1C40
....................             glcd_rect(78,18,120,30,YES,OFF); 
0D12E:  MOVLW  4E
0D130:  MOVLB  9
0D132:  MOVWF  x4E
0D134:  MOVLW  12
0D136:  MOVWF  x4F
0D138:  MOVLW  78
0D13A:  MOVWF  x50
0D13C:  MOVLW  1E
0D13E:  MOVWF  x51
0D140:  MOVLW  01
0D142:  MOVWF  x52
0D144:  CLRF   x53
0D146:  MOVLB  0
0D148:  CALL   1874
....................             glcd_text57(80,20,voltage,1,1);             
0D14C:  MOVLW  50
0D14E:  MOVLB  9
0D150:  MOVWF  x4E
0D152:  MOVLW  14
0D154:  MOVWF  x4F
0D156:  MOVLW  09
0D158:  MOVWF  x51
0D15A:  MOVLW  2D
0D15C:  MOVWF  x50
0D15E:  MOVLW  01
0D160:  MOVWF  x52
0D162:  MOVWF  x53
0D164:  MOVLB  0
0D166:  CALL   1936
....................              
....................             sprintf(voltage, "%04LuC",control2); 
0D16A:  MOVLW  09
0D16C:  MOVLB  9
0D16E:  MOVWF  x2C
0D170:  MOVLW  2D
0D172:  MOVWF  x2B
0D174:  MOVLW  09
0D176:  MOVWF  FE9
0D178:  MOVFF  902,94D
0D17C:  MOVFF  901,94C
0D180:  MOVLB  0
0D182:  CALL   3306
0D186:  MOVLW  B0
0D188:  MOVLB  9
0D18A:  MOVWF  x57
0D18C:  MOVLB  0
0D18E:  CALL   1C40
0D192:  MOVLW  43
0D194:  MOVLB  9
0D196:  MOVWF  x57
0D198:  MOVLB  0
0D19A:  CALL   1C40
....................             glcd_rect(28,33,70,45,YES,OFF); 
0D19E:  MOVLW  1C
0D1A0:  MOVLB  9
0D1A2:  MOVWF  x4E
0D1A4:  MOVLW  21
0D1A6:  MOVWF  x4F
0D1A8:  MOVLW  46
0D1AA:  MOVWF  x50
0D1AC:  MOVLW  2D
0D1AE:  MOVWF  x51
0D1B0:  MOVLW  01
0D1B2:  MOVWF  x52
0D1B4:  CLRF   x53
0D1B6:  MOVLB  0
0D1B8:  CALL   1874
....................             glcd_text57(30,35,voltage,1,1); 
0D1BC:  MOVLW  1E
0D1BE:  MOVLB  9
0D1C0:  MOVWF  x4E
0D1C2:  MOVLW  23
0D1C4:  MOVWF  x4F
0D1C6:  MOVLW  09
0D1C8:  MOVWF  x51
0D1CA:  MOVLW  2D
0D1CC:  MOVWF  x50
0D1CE:  MOVLW  01
0D1D0:  MOVWF  x52
0D1D2:  MOVWF  x53
0D1D4:  MOVLB  0
0D1D6:  CALL   1936
....................              
....................             sprintf(voltage, "%04LuC",patron2); 
0D1DA:  MOVLW  09
0D1DC:  MOVLB  9
0D1DE:  MOVWF  x2C
0D1E0:  MOVLW  2D
0D1E2:  MOVWF  x2B
0D1E4:  MOVLW  09
0D1E6:  MOVWF  FE9
0D1E8:  MOVFF  908,94D
0D1EC:  MOVFF  907,94C
0D1F0:  MOVLB  0
0D1F2:  CALL   3306
0D1F6:  MOVLW  B0
0D1F8:  MOVLB  9
0D1FA:  MOVWF  x57
0D1FC:  MOVLB  0
0D1FE:  CALL   1C40
0D202:  MOVLW  43
0D204:  MOVLB  9
0D206:  MOVWF  x57
0D208:  MOVLB  0
0D20A:  CALL   1C40
....................             glcd_rect(78,33,120,45,YES,OFF); 
0D20E:  MOVLW  4E
0D210:  MOVLB  9
0D212:  MOVWF  x4E
0D214:  MOVLW  21
0D216:  MOVWF  x4F
0D218:  MOVLW  78
0D21A:  MOVWF  x50
0D21C:  MOVLW  2D
0D21E:  MOVWF  x51
0D220:  MOVLW  01
0D222:  MOVWF  x52
0D224:  CLRF   x53
0D226:  MOVLB  0
0D228:  CALL   1874
....................             glcd_text57(80,35,voltage,1,1); 
0D22C:  MOVLW  50
0D22E:  MOVLB  9
0D230:  MOVWF  x4E
0D232:  MOVLW  23
0D234:  MOVWF  x4F
0D236:  MOVLW  09
0D238:  MOVWF  x51
0D23A:  MOVLW  2D
0D23C:  MOVWF  x50
0D23E:  MOVLW  01
0D240:  MOVWF  x52
0D242:  MOVWF  x53
0D244:  MOVLB  0
0D246:  CALL   1936
....................              
....................             sprintf(voltage, "%04LuC",control3); 
0D24A:  MOVLW  09
0D24C:  MOVLB  9
0D24E:  MOVWF  x2C
0D250:  MOVLW  2D
0D252:  MOVWF  x2B
0D254:  MOVLW  09
0D256:  MOVWF  FE9
0D258:  MOVFF  904,94D
0D25C:  MOVFF  903,94C
0D260:  MOVLB  0
0D262:  CALL   3306
0D266:  MOVLW  B0
0D268:  MOVLB  9
0D26A:  MOVWF  x57
0D26C:  MOVLB  0
0D26E:  CALL   1C40
0D272:  MOVLW  43
0D274:  MOVLB  9
0D276:  MOVWF  x57
0D278:  MOVLB  0
0D27A:  CALL   1C40
....................             glcd_rect(28,48,70,60,YES,OFF); 
0D27E:  MOVLW  1C
0D280:  MOVLB  9
0D282:  MOVWF  x4E
0D284:  MOVLW  30
0D286:  MOVWF  x4F
0D288:  MOVLW  46
0D28A:  MOVWF  x50
0D28C:  MOVLW  3C
0D28E:  MOVWF  x51
0D290:  MOVLW  01
0D292:  MOVWF  x52
0D294:  CLRF   x53
0D296:  MOVLB  0
0D298:  CALL   1874
....................             glcd_text57(30,50,voltage,1,1); 
0D29C:  MOVLW  1E
0D29E:  MOVLB  9
0D2A0:  MOVWF  x4E
0D2A2:  MOVLW  32
0D2A4:  MOVWF  x4F
0D2A6:  MOVLW  09
0D2A8:  MOVWF  x51
0D2AA:  MOVLW  2D
0D2AC:  MOVWF  x50
0D2AE:  MOVLW  01
0D2B0:  MOVWF  x52
0D2B2:  MOVWF  x53
0D2B4:  MOVLB  0
0D2B6:  CALL   1936
....................              
....................             sprintf(voltage, "%04LuC",patron3); 
0D2BA:  MOVLW  09
0D2BC:  MOVLB  9
0D2BE:  MOVWF  x2C
0D2C0:  MOVLW  2D
0D2C2:  MOVWF  x2B
0D2C4:  MOVLW  09
0D2C6:  MOVWF  FE9
0D2C8:  MOVFF  90A,94D
0D2CC:  MOVFF  909,94C
0D2D0:  MOVLB  0
0D2D2:  CALL   3306
0D2D6:  MOVLW  B0
0D2D8:  MOVLB  9
0D2DA:  MOVWF  x57
0D2DC:  MOVLB  0
0D2DE:  CALL   1C40
0D2E2:  MOVLW  43
0D2E4:  MOVLB  9
0D2E6:  MOVWF  x57
0D2E8:  MOVLB  0
0D2EA:  CALL   1C40
....................             glcd_rect(78,48,120,60,YES,OFF); 
0D2EE:  MOVLW  4E
0D2F0:  MOVLB  9
0D2F2:  MOVWF  x4E
0D2F4:  MOVLW  30
0D2F6:  MOVWF  x4F
0D2F8:  MOVLW  78
0D2FA:  MOVWF  x50
0D2FC:  MOVLW  3C
0D2FE:  MOVWF  x51
0D300:  MOVLW  01
0D302:  MOVWF  x52
0D304:  CLRF   x53
0D306:  MOVLB  0
0D308:  CALL   1874
....................             glcd_text57(80,50,voltage,1,1); 
0D30C:  MOVLW  50
0D30E:  MOVLB  9
0D310:  MOVWF  x4E
0D312:  MOVLW  32
0D314:  MOVWF  x4F
0D316:  MOVLW  09
0D318:  MOVWF  x51
0D31A:  MOVLW  2D
0D31C:  MOVWF  x50
0D31E:  MOVLW  01
0D320:  MOVWF  x52
0D322:  MOVWF  x53
0D324:  MOVLB  0
0D326:  CALL   1936
....................              
....................             glcd_update(); 
0D32A:  CALL   151A
....................              
....................             if(UP){ 
0D32E:  BSF    F92.5
0D330:  BTFSC  F80.5
0D332:  BRA    D344
....................                control1++; 
0D334:  MOVLB  8
0D336:  INCF   xFF,F
0D338:  BTFSS  FD8.2
0D33A:  BRA    D342
0D33C:  MOVLB  9
0D33E:  INCF   x00,F
0D340:  MOVLB  8
0D342:  MOVLB  0
....................             } 
....................              
....................             if(DOWN){ 
0D344:  BSF    F96.0
0D346:  BTFSC  F84.0
0D348:  BRA    D35C
....................                control1--; 
0D34A:  MOVLB  8
0D34C:  MOVF   xFF,W
0D34E:  BTFSS  FD8.2
0D350:  BRA    D358
0D352:  MOVLB  9
0D354:  DECF   x00,F
0D356:  MOVLB  8
0D358:  DECF   xFF,F
0D35A:  MOVLB  0
....................             } 
....................          }else if(calib==2){ 
0D35C:  GOTO   E190
0D360:  MOVLB  9
0D362:  MOVF   x0B,W
0D364:  SUBLW  02
0D366:  BTFSS  FD8.2
0D368:  BRA    D63A
0D36A:  MOVF   x0C,F
0D36C:  BTFSS  FD8.2
0D36E:  BRA    D63A
....................             sprintf(voltage, "%04LuC",control1); 
0D370:  MOVLW  09
0D372:  MOVWF  x2C
0D374:  MOVLW  2D
0D376:  MOVWF  x2B
0D378:  MOVLW  09
0D37A:  MOVWF  FE9
0D37C:  MOVFF  900,94D
0D380:  MOVFF  8FF,94C
0D384:  MOVLB  0
0D386:  CALL   3306
0D38A:  MOVLW  B0
0D38C:  MOVLB  9
0D38E:  MOVWF  x57
0D390:  MOVLB  0
0D392:  CALL   1C40
0D396:  MOVLW  43
0D398:  MOVLB  9
0D39A:  MOVWF  x57
0D39C:  MOVLB  0
0D39E:  CALL   1C40
....................             glcd_rect(28,18,70,30,YES,OFF); 
0D3A2:  MOVLW  1C
0D3A4:  MOVLB  9
0D3A6:  MOVWF  x4E
0D3A8:  MOVLW  12
0D3AA:  MOVWF  x4F
0D3AC:  MOVLW  46
0D3AE:  MOVWF  x50
0D3B0:  MOVLW  1E
0D3B2:  MOVWF  x51
0D3B4:  MOVLW  01
0D3B6:  MOVWF  x52
0D3B8:  CLRF   x53
0D3BA:  MOVLB  0
0D3BC:  CALL   1874
....................             glcd_text57(30,20,voltage,1,1); 
0D3C0:  MOVLW  1E
0D3C2:  MOVLB  9
0D3C4:  MOVWF  x4E
0D3C6:  MOVLW  14
0D3C8:  MOVWF  x4F
0D3CA:  MOVLW  09
0D3CC:  MOVWF  x51
0D3CE:  MOVLW  2D
0D3D0:  MOVWF  x50
0D3D2:  MOVLW  01
0D3D4:  MOVWF  x52
0D3D6:  MOVWF  x53
0D3D8:  MOVLB  0
0D3DA:  CALL   1936
....................              
....................             sprintf(voltage, "%04LuC",patron1); 
0D3DE:  MOVLW  09
0D3E0:  MOVLB  9
0D3E2:  MOVWF  x2C
0D3E4:  MOVLW  2D
0D3E6:  MOVWF  x2B
0D3E8:  MOVLW  09
0D3EA:  MOVWF  FE9
0D3EC:  MOVFF  906,94D
0D3F0:  MOVFF  905,94C
0D3F4:  MOVLB  0
0D3F6:  CALL   3306
0D3FA:  MOVLW  B0
0D3FC:  MOVLB  9
0D3FE:  MOVWF  x57
0D400:  MOVLB  0
0D402:  CALL   1C40
0D406:  MOVLW  43
0D408:  MOVLB  9
0D40A:  MOVWF  x57
0D40C:  MOVLB  0
0D40E:  CALL   1C40
....................             glcd_rect(78,18,120,30,YES,ON); 
0D412:  MOVLW  4E
0D414:  MOVLB  9
0D416:  MOVWF  x4E
0D418:  MOVLW  12
0D41A:  MOVWF  x4F
0D41C:  MOVLW  78
0D41E:  MOVWF  x50
0D420:  MOVLW  1E
0D422:  MOVWF  x51
0D424:  MOVLW  01
0D426:  MOVWF  x52
0D428:  MOVWF  x53
0D42A:  MOVLB  0
0D42C:  CALL   1874
....................             glcd_text57(80,20,voltage,1,0);             
0D430:  MOVLW  50
0D432:  MOVLB  9
0D434:  MOVWF  x4E
0D436:  MOVLW  14
0D438:  MOVWF  x4F
0D43A:  MOVLW  09
0D43C:  MOVWF  x51
0D43E:  MOVLW  2D
0D440:  MOVWF  x50
0D442:  MOVLW  01
0D444:  MOVWF  x52
0D446:  CLRF   x53
0D448:  MOVLB  0
0D44A:  CALL   1936
....................              
....................             sprintf(voltage, "%04LuC",control2); 
0D44E:  MOVLW  09
0D450:  MOVLB  9
0D452:  MOVWF  x2C
0D454:  MOVLW  2D
0D456:  MOVWF  x2B
0D458:  MOVLW  09
0D45A:  MOVWF  FE9
0D45C:  MOVFF  902,94D
0D460:  MOVFF  901,94C
0D464:  MOVLB  0
0D466:  CALL   3306
0D46A:  MOVLW  B0
0D46C:  MOVLB  9
0D46E:  MOVWF  x57
0D470:  MOVLB  0
0D472:  CALL   1C40
0D476:  MOVLW  43
0D478:  MOVLB  9
0D47A:  MOVWF  x57
0D47C:  MOVLB  0
0D47E:  CALL   1C40
....................             glcd_rect(28,33,70,45,YES,OFF); 
0D482:  MOVLW  1C
0D484:  MOVLB  9
0D486:  MOVWF  x4E
0D488:  MOVLW  21
0D48A:  MOVWF  x4F
0D48C:  MOVLW  46
0D48E:  MOVWF  x50
0D490:  MOVLW  2D
0D492:  MOVWF  x51
0D494:  MOVLW  01
0D496:  MOVWF  x52
0D498:  CLRF   x53
0D49A:  MOVLB  0
0D49C:  CALL   1874
....................             glcd_text57(30,35,voltage,1,1); 
0D4A0:  MOVLW  1E
0D4A2:  MOVLB  9
0D4A4:  MOVWF  x4E
0D4A6:  MOVLW  23
0D4A8:  MOVWF  x4F
0D4AA:  MOVLW  09
0D4AC:  MOVWF  x51
0D4AE:  MOVLW  2D
0D4B0:  MOVWF  x50
0D4B2:  MOVLW  01
0D4B4:  MOVWF  x52
0D4B6:  MOVWF  x53
0D4B8:  MOVLB  0
0D4BA:  CALL   1936
....................              
....................             sprintf(voltage, "%04LuC",patron2); 
0D4BE:  MOVLW  09
0D4C0:  MOVLB  9
0D4C2:  MOVWF  x2C
0D4C4:  MOVLW  2D
0D4C6:  MOVWF  x2B
0D4C8:  MOVLW  09
0D4CA:  MOVWF  FE9
0D4CC:  MOVFF  908,94D
0D4D0:  MOVFF  907,94C
0D4D4:  MOVLB  0
0D4D6:  CALL   3306
0D4DA:  MOVLW  B0
0D4DC:  MOVLB  9
0D4DE:  MOVWF  x57
0D4E0:  MOVLB  0
0D4E2:  CALL   1C40
0D4E6:  MOVLW  43
0D4E8:  MOVLB  9
0D4EA:  MOVWF  x57
0D4EC:  MOVLB  0
0D4EE:  CALL   1C40
....................             glcd_rect(78,33,120,45,YES,OFF); 
0D4F2:  MOVLW  4E
0D4F4:  MOVLB  9
0D4F6:  MOVWF  x4E
0D4F8:  MOVLW  21
0D4FA:  MOVWF  x4F
0D4FC:  MOVLW  78
0D4FE:  MOVWF  x50
0D500:  MOVLW  2D
0D502:  MOVWF  x51
0D504:  MOVLW  01
0D506:  MOVWF  x52
0D508:  CLRF   x53
0D50A:  MOVLB  0
0D50C:  CALL   1874
....................             glcd_text57(80,35,voltage,1,1); 
0D510:  MOVLW  50
0D512:  MOVLB  9
0D514:  MOVWF  x4E
0D516:  MOVLW  23
0D518:  MOVWF  x4F
0D51A:  MOVLW  09
0D51C:  MOVWF  x51
0D51E:  MOVLW  2D
0D520:  MOVWF  x50
0D522:  MOVLW  01
0D524:  MOVWF  x52
0D526:  MOVWF  x53
0D528:  MOVLB  0
0D52A:  CALL   1936
....................              
....................             sprintf(voltage, "%04LuC",control3); 
0D52E:  MOVLW  09
0D530:  MOVLB  9
0D532:  MOVWF  x2C
0D534:  MOVLW  2D
0D536:  MOVWF  x2B
0D538:  MOVLW  09
0D53A:  MOVWF  FE9
0D53C:  MOVFF  904,94D
0D540:  MOVFF  903,94C
0D544:  MOVLB  0
0D546:  CALL   3306
0D54A:  MOVLW  B0
0D54C:  MOVLB  9
0D54E:  MOVWF  x57
0D550:  MOVLB  0
0D552:  CALL   1C40
0D556:  MOVLW  43
0D558:  MOVLB  9
0D55A:  MOVWF  x57
0D55C:  MOVLB  0
0D55E:  CALL   1C40
....................             glcd_rect(28,48,70,60,YES,OFF); 
0D562:  MOVLW  1C
0D564:  MOVLB  9
0D566:  MOVWF  x4E
0D568:  MOVLW  30
0D56A:  MOVWF  x4F
0D56C:  MOVLW  46
0D56E:  MOVWF  x50
0D570:  MOVLW  3C
0D572:  MOVWF  x51
0D574:  MOVLW  01
0D576:  MOVWF  x52
0D578:  CLRF   x53
0D57A:  MOVLB  0
0D57C:  CALL   1874
....................             glcd_text57(30,50,voltage,1,1); 
0D580:  MOVLW  1E
0D582:  MOVLB  9
0D584:  MOVWF  x4E
0D586:  MOVLW  32
0D588:  MOVWF  x4F
0D58A:  MOVLW  09
0D58C:  MOVWF  x51
0D58E:  MOVLW  2D
0D590:  MOVWF  x50
0D592:  MOVLW  01
0D594:  MOVWF  x52
0D596:  MOVWF  x53
0D598:  MOVLB  0
0D59A:  CALL   1936
....................              
....................             sprintf(voltage, "%04LuC",patron3); 
0D59E:  MOVLW  09
0D5A0:  MOVLB  9
0D5A2:  MOVWF  x2C
0D5A4:  MOVLW  2D
0D5A6:  MOVWF  x2B
0D5A8:  MOVLW  09
0D5AA:  MOVWF  FE9
0D5AC:  MOVFF  90A,94D
0D5B0:  MOVFF  909,94C
0D5B4:  MOVLB  0
0D5B6:  CALL   3306
0D5BA:  MOVLW  B0
0D5BC:  MOVLB  9
0D5BE:  MOVWF  x57
0D5C0:  MOVLB  0
0D5C2:  CALL   1C40
0D5C6:  MOVLW  43
0D5C8:  MOVLB  9
0D5CA:  MOVWF  x57
0D5CC:  MOVLB  0
0D5CE:  CALL   1C40
....................             glcd_rect(78,48,120,60,YES,OFF); 
0D5D2:  MOVLW  4E
0D5D4:  MOVLB  9
0D5D6:  MOVWF  x4E
0D5D8:  MOVLW  30
0D5DA:  MOVWF  x4F
0D5DC:  MOVLW  78
0D5DE:  MOVWF  x50
0D5E0:  MOVLW  3C
0D5E2:  MOVWF  x51
0D5E4:  MOVLW  01
0D5E6:  MOVWF  x52
0D5E8:  CLRF   x53
0D5EA:  MOVLB  0
0D5EC:  CALL   1874
....................             glcd_text57(80,50,voltage,1,1); 
0D5F0:  MOVLW  50
0D5F2:  MOVLB  9
0D5F4:  MOVWF  x4E
0D5F6:  MOVLW  32
0D5F8:  MOVWF  x4F
0D5FA:  MOVLW  09
0D5FC:  MOVWF  x51
0D5FE:  MOVLW  2D
0D600:  MOVWF  x50
0D602:  MOVLW  01
0D604:  MOVWF  x52
0D606:  MOVWF  x53
0D608:  MOVLB  0
0D60A:  CALL   1936
....................              
....................             glcd_update(); 
0D60E:  CALL   151A
....................              
....................             if(UP){ 
0D612:  BSF    F92.5
0D614:  BTFSC  F80.5
0D616:  BRA    D622
....................                patron1++; 
0D618:  MOVLB  9
0D61A:  INCF   x05,F
0D61C:  BTFSC  FD8.2
0D61E:  INCF   x06,F
0D620:  MOVLB  0
....................             } 
....................              
....................             if(DOWN){ 
0D622:  BSF    F96.0
0D624:  BTFSC  F84.0
0D626:  BRA    D634
....................                patron1--; 
0D628:  MOVLB  9
0D62A:  MOVF   x05,W
0D62C:  BTFSC  FD8.2
0D62E:  DECF   x06,F
0D630:  DECF   x05,F
0D632:  MOVLB  0
....................             } 
....................          }else if(calib==3){ 
0D634:  GOTO   E190
0D638:  MOVLB  9
0D63A:  MOVF   x0B,W
0D63C:  SUBLW  03
0D63E:  BTFSS  FD8.2
0D640:  BRA    D912
0D642:  MOVF   x0C,F
0D644:  BTFSS  FD8.2
0D646:  BRA    D912
....................             sprintf(voltage, "%04LuC",control1); 
0D648:  MOVLW  09
0D64A:  MOVWF  x2C
0D64C:  MOVLW  2D
0D64E:  MOVWF  x2B
0D650:  MOVLW  09
0D652:  MOVWF  FE9
0D654:  MOVFF  900,94D
0D658:  MOVFF  8FF,94C
0D65C:  MOVLB  0
0D65E:  CALL   3306
0D662:  MOVLW  B0
0D664:  MOVLB  9
0D666:  MOVWF  x57
0D668:  MOVLB  0
0D66A:  CALL   1C40
0D66E:  MOVLW  43
0D670:  MOVLB  9
0D672:  MOVWF  x57
0D674:  MOVLB  0
0D676:  CALL   1C40
....................             glcd_rect(28,18,70,30,YES,OFF); 
0D67A:  MOVLW  1C
0D67C:  MOVLB  9
0D67E:  MOVWF  x4E
0D680:  MOVLW  12
0D682:  MOVWF  x4F
0D684:  MOVLW  46
0D686:  MOVWF  x50
0D688:  MOVLW  1E
0D68A:  MOVWF  x51
0D68C:  MOVLW  01
0D68E:  MOVWF  x52
0D690:  CLRF   x53
0D692:  MOVLB  0
0D694:  CALL   1874
....................             glcd_text57(30,20,voltage,1,1); 
0D698:  MOVLW  1E
0D69A:  MOVLB  9
0D69C:  MOVWF  x4E
0D69E:  MOVLW  14
0D6A0:  MOVWF  x4F
0D6A2:  MOVLW  09
0D6A4:  MOVWF  x51
0D6A6:  MOVLW  2D
0D6A8:  MOVWF  x50
0D6AA:  MOVLW  01
0D6AC:  MOVWF  x52
0D6AE:  MOVWF  x53
0D6B0:  MOVLB  0
0D6B2:  CALL   1936
....................              
....................             sprintf(voltage, "%04LuC",patron1); 
0D6B6:  MOVLW  09
0D6B8:  MOVLB  9
0D6BA:  MOVWF  x2C
0D6BC:  MOVLW  2D
0D6BE:  MOVWF  x2B
0D6C0:  MOVLW  09
0D6C2:  MOVWF  FE9
0D6C4:  MOVFF  906,94D
0D6C8:  MOVFF  905,94C
0D6CC:  MOVLB  0
0D6CE:  CALL   3306
0D6D2:  MOVLW  B0
0D6D4:  MOVLB  9
0D6D6:  MOVWF  x57
0D6D8:  MOVLB  0
0D6DA:  CALL   1C40
0D6DE:  MOVLW  43
0D6E0:  MOVLB  9
0D6E2:  MOVWF  x57
0D6E4:  MOVLB  0
0D6E6:  CALL   1C40
....................             glcd_rect(78,18,120,30,YES,OFF); 
0D6EA:  MOVLW  4E
0D6EC:  MOVLB  9
0D6EE:  MOVWF  x4E
0D6F0:  MOVLW  12
0D6F2:  MOVWF  x4F
0D6F4:  MOVLW  78
0D6F6:  MOVWF  x50
0D6F8:  MOVLW  1E
0D6FA:  MOVWF  x51
0D6FC:  MOVLW  01
0D6FE:  MOVWF  x52
0D700:  CLRF   x53
0D702:  MOVLB  0
0D704:  CALL   1874
....................             glcd_text57(80,20,voltage,1,1);             
0D708:  MOVLW  50
0D70A:  MOVLB  9
0D70C:  MOVWF  x4E
0D70E:  MOVLW  14
0D710:  MOVWF  x4F
0D712:  MOVLW  09
0D714:  MOVWF  x51
0D716:  MOVLW  2D
0D718:  MOVWF  x50
0D71A:  MOVLW  01
0D71C:  MOVWF  x52
0D71E:  MOVWF  x53
0D720:  MOVLB  0
0D722:  CALL   1936
....................              
....................             sprintf(voltage, "%04LuC",control2); 
0D726:  MOVLW  09
0D728:  MOVLB  9
0D72A:  MOVWF  x2C
0D72C:  MOVLW  2D
0D72E:  MOVWF  x2B
0D730:  MOVLW  09
0D732:  MOVWF  FE9
0D734:  MOVFF  902,94D
0D738:  MOVFF  901,94C
0D73C:  MOVLB  0
0D73E:  CALL   3306
0D742:  MOVLW  B0
0D744:  MOVLB  9
0D746:  MOVWF  x57
0D748:  MOVLB  0
0D74A:  CALL   1C40
0D74E:  MOVLW  43
0D750:  MOVLB  9
0D752:  MOVWF  x57
0D754:  MOVLB  0
0D756:  CALL   1C40
....................             glcd_rect(28,33,70,45,YES,ON); 
0D75A:  MOVLW  1C
0D75C:  MOVLB  9
0D75E:  MOVWF  x4E
0D760:  MOVLW  21
0D762:  MOVWF  x4F
0D764:  MOVLW  46
0D766:  MOVWF  x50
0D768:  MOVLW  2D
0D76A:  MOVWF  x51
0D76C:  MOVLW  01
0D76E:  MOVWF  x52
0D770:  MOVWF  x53
0D772:  MOVLB  0
0D774:  CALL   1874
....................             glcd_text57(30,35,voltage,1,0); 
0D778:  MOVLW  1E
0D77A:  MOVLB  9
0D77C:  MOVWF  x4E
0D77E:  MOVLW  23
0D780:  MOVWF  x4F
0D782:  MOVLW  09
0D784:  MOVWF  x51
0D786:  MOVLW  2D
0D788:  MOVWF  x50
0D78A:  MOVLW  01
0D78C:  MOVWF  x52
0D78E:  CLRF   x53
0D790:  MOVLB  0
0D792:  CALL   1936
....................              
....................             sprintf(voltage, "%04LuC",patron2); 
0D796:  MOVLW  09
0D798:  MOVLB  9
0D79A:  MOVWF  x2C
0D79C:  MOVLW  2D
0D79E:  MOVWF  x2B
0D7A0:  MOVLW  09
0D7A2:  MOVWF  FE9
0D7A4:  MOVFF  908,94D
0D7A8:  MOVFF  907,94C
0D7AC:  MOVLB  0
0D7AE:  CALL   3306
0D7B2:  MOVLW  B0
0D7B4:  MOVLB  9
0D7B6:  MOVWF  x57
0D7B8:  MOVLB  0
0D7BA:  CALL   1C40
0D7BE:  MOVLW  43
0D7C0:  MOVLB  9
0D7C2:  MOVWF  x57
0D7C4:  MOVLB  0
0D7C6:  CALL   1C40
....................             glcd_rect(78,33,120,45,YES,OFF); 
0D7CA:  MOVLW  4E
0D7CC:  MOVLB  9
0D7CE:  MOVWF  x4E
0D7D0:  MOVLW  21
0D7D2:  MOVWF  x4F
0D7D4:  MOVLW  78
0D7D6:  MOVWF  x50
0D7D8:  MOVLW  2D
0D7DA:  MOVWF  x51
0D7DC:  MOVLW  01
0D7DE:  MOVWF  x52
0D7E0:  CLRF   x53
0D7E2:  MOVLB  0
0D7E4:  CALL   1874
....................             glcd_text57(80,35,voltage,1,1); 
0D7E8:  MOVLW  50
0D7EA:  MOVLB  9
0D7EC:  MOVWF  x4E
0D7EE:  MOVLW  23
0D7F0:  MOVWF  x4F
0D7F2:  MOVLW  09
0D7F4:  MOVWF  x51
0D7F6:  MOVLW  2D
0D7F8:  MOVWF  x50
0D7FA:  MOVLW  01
0D7FC:  MOVWF  x52
0D7FE:  MOVWF  x53
0D800:  MOVLB  0
0D802:  CALL   1936
....................              
....................             sprintf(voltage, "%04LuC",control3); 
0D806:  MOVLW  09
0D808:  MOVLB  9
0D80A:  MOVWF  x2C
0D80C:  MOVLW  2D
0D80E:  MOVWF  x2B
0D810:  MOVLW  09
0D812:  MOVWF  FE9
0D814:  MOVFF  904,94D
0D818:  MOVFF  903,94C
0D81C:  MOVLB  0
0D81E:  CALL   3306
0D822:  MOVLW  B0
0D824:  MOVLB  9
0D826:  MOVWF  x57
0D828:  MOVLB  0
0D82A:  CALL   1C40
0D82E:  MOVLW  43
0D830:  MOVLB  9
0D832:  MOVWF  x57
0D834:  MOVLB  0
0D836:  CALL   1C40
....................             glcd_rect(28,48,70,60,YES,OFF); 
0D83A:  MOVLW  1C
0D83C:  MOVLB  9
0D83E:  MOVWF  x4E
0D840:  MOVLW  30
0D842:  MOVWF  x4F
0D844:  MOVLW  46
0D846:  MOVWF  x50
0D848:  MOVLW  3C
0D84A:  MOVWF  x51
0D84C:  MOVLW  01
0D84E:  MOVWF  x52
0D850:  CLRF   x53
0D852:  MOVLB  0
0D854:  CALL   1874
....................             glcd_text57(30,50,voltage,1,1); 
0D858:  MOVLW  1E
0D85A:  MOVLB  9
0D85C:  MOVWF  x4E
0D85E:  MOVLW  32
0D860:  MOVWF  x4F
0D862:  MOVLW  09
0D864:  MOVWF  x51
0D866:  MOVLW  2D
0D868:  MOVWF  x50
0D86A:  MOVLW  01
0D86C:  MOVWF  x52
0D86E:  MOVWF  x53
0D870:  MOVLB  0
0D872:  CALL   1936
....................              
....................             sprintf(voltage, "%04LuC",patron3); 
0D876:  MOVLW  09
0D878:  MOVLB  9
0D87A:  MOVWF  x2C
0D87C:  MOVLW  2D
0D87E:  MOVWF  x2B
0D880:  MOVLW  09
0D882:  MOVWF  FE9
0D884:  MOVFF  90A,94D
0D888:  MOVFF  909,94C
0D88C:  MOVLB  0
0D88E:  CALL   3306
0D892:  MOVLW  B0
0D894:  MOVLB  9
0D896:  MOVWF  x57
0D898:  MOVLB  0
0D89A:  CALL   1C40
0D89E:  MOVLW  43
0D8A0:  MOVLB  9
0D8A2:  MOVWF  x57
0D8A4:  MOVLB  0
0D8A6:  CALL   1C40
....................             glcd_rect(78,48,120,60,YES,OFF); 
0D8AA:  MOVLW  4E
0D8AC:  MOVLB  9
0D8AE:  MOVWF  x4E
0D8B0:  MOVLW  30
0D8B2:  MOVWF  x4F
0D8B4:  MOVLW  78
0D8B6:  MOVWF  x50
0D8B8:  MOVLW  3C
0D8BA:  MOVWF  x51
0D8BC:  MOVLW  01
0D8BE:  MOVWF  x52
0D8C0:  CLRF   x53
0D8C2:  MOVLB  0
0D8C4:  CALL   1874
....................             glcd_text57(80,50,voltage,1,1); 
0D8C8:  MOVLW  50
0D8CA:  MOVLB  9
0D8CC:  MOVWF  x4E
0D8CE:  MOVLW  32
0D8D0:  MOVWF  x4F
0D8D2:  MOVLW  09
0D8D4:  MOVWF  x51
0D8D6:  MOVLW  2D
0D8D8:  MOVWF  x50
0D8DA:  MOVLW  01
0D8DC:  MOVWF  x52
0D8DE:  MOVWF  x53
0D8E0:  MOVLB  0
0D8E2:  CALL   1936
....................             glcd_update(); 
0D8E6:  CALL   151A
....................              
....................             if(UP){ 
0D8EA:  BSF    F92.5
0D8EC:  BTFSC  F80.5
0D8EE:  BRA    D8FA
....................                control2++; 
0D8F0:  MOVLB  9
0D8F2:  INCF   x01,F
0D8F4:  BTFSC  FD8.2
0D8F6:  INCF   x02,F
0D8F8:  MOVLB  0
....................             } 
....................              
....................             if(DOWN){ 
0D8FA:  BSF    F96.0
0D8FC:  BTFSC  F84.0
0D8FE:  BRA    D90C
....................                control2--; 
0D900:  MOVLB  9
0D902:  MOVF   x01,W
0D904:  BTFSC  FD8.2
0D906:  DECF   x02,F
0D908:  DECF   x01,F
0D90A:  MOVLB  0
....................             } 
....................          }else if(calib==4){ 
0D90C:  GOTO   E190
0D910:  MOVLB  9
0D912:  MOVF   x0B,W
0D914:  SUBLW  04
0D916:  BTFSS  FD8.2
0D918:  BRA    DBE8
0D91A:  MOVF   x0C,F
0D91C:  BTFSS  FD8.2
0D91E:  BRA    DBE8
....................             sprintf(voltage, "%04LuC",control1); 
0D920:  MOVLW  09
0D922:  MOVWF  x2C
0D924:  MOVLW  2D
0D926:  MOVWF  x2B
0D928:  MOVLW  09
0D92A:  MOVWF  FE9
0D92C:  MOVFF  900,94D
0D930:  MOVFF  8FF,94C
0D934:  MOVLB  0
0D936:  CALL   3306
0D93A:  MOVLW  B0
0D93C:  MOVLB  9
0D93E:  MOVWF  x57
0D940:  MOVLB  0
0D942:  CALL   1C40
0D946:  MOVLW  43
0D948:  MOVLB  9
0D94A:  MOVWF  x57
0D94C:  MOVLB  0
0D94E:  CALL   1C40
....................             glcd_rect(28,18,70,30,YES,OFF); 
0D952:  MOVLW  1C
0D954:  MOVLB  9
0D956:  MOVWF  x4E
0D958:  MOVLW  12
0D95A:  MOVWF  x4F
0D95C:  MOVLW  46
0D95E:  MOVWF  x50
0D960:  MOVLW  1E
0D962:  MOVWF  x51
0D964:  MOVLW  01
0D966:  MOVWF  x52
0D968:  CLRF   x53
0D96A:  MOVLB  0
0D96C:  CALL   1874
....................             glcd_text57(30,20,voltage,1,1); 
0D970:  MOVLW  1E
0D972:  MOVLB  9
0D974:  MOVWF  x4E
0D976:  MOVLW  14
0D978:  MOVWF  x4F
0D97A:  MOVLW  09
0D97C:  MOVWF  x51
0D97E:  MOVLW  2D
0D980:  MOVWF  x50
0D982:  MOVLW  01
0D984:  MOVWF  x52
0D986:  MOVWF  x53
0D988:  MOVLB  0
0D98A:  CALL   1936
....................              
....................             sprintf(voltage, "%04LuC",patron1); 
0D98E:  MOVLW  09
0D990:  MOVLB  9
0D992:  MOVWF  x2C
0D994:  MOVLW  2D
0D996:  MOVWF  x2B
0D998:  MOVLW  09
0D99A:  MOVWF  FE9
0D99C:  MOVFF  906,94D
0D9A0:  MOVFF  905,94C
0D9A4:  MOVLB  0
0D9A6:  CALL   3306
0D9AA:  MOVLW  B0
0D9AC:  MOVLB  9
0D9AE:  MOVWF  x57
0D9B0:  MOVLB  0
0D9B2:  CALL   1C40
0D9B6:  MOVLW  43
0D9B8:  MOVLB  9
0D9BA:  MOVWF  x57
0D9BC:  MOVLB  0
0D9BE:  CALL   1C40
....................             glcd_rect(78,18,120,30,YES,OFF); 
0D9C2:  MOVLW  4E
0D9C4:  MOVLB  9
0D9C6:  MOVWF  x4E
0D9C8:  MOVLW  12
0D9CA:  MOVWF  x4F
0D9CC:  MOVLW  78
0D9CE:  MOVWF  x50
0D9D0:  MOVLW  1E
0D9D2:  MOVWF  x51
0D9D4:  MOVLW  01
0D9D6:  MOVWF  x52
0D9D8:  CLRF   x53
0D9DA:  MOVLB  0
0D9DC:  CALL   1874
....................             glcd_text57(80,20,voltage,1,1);             
0D9E0:  MOVLW  50
0D9E2:  MOVLB  9
0D9E4:  MOVWF  x4E
0D9E6:  MOVLW  14
0D9E8:  MOVWF  x4F
0D9EA:  MOVLW  09
0D9EC:  MOVWF  x51
0D9EE:  MOVLW  2D
0D9F0:  MOVWF  x50
0D9F2:  MOVLW  01
0D9F4:  MOVWF  x52
0D9F6:  MOVWF  x53
0D9F8:  MOVLB  0
0D9FA:  CALL   1936
....................              
....................             sprintf(voltage, "%04LuC",control2); 
0D9FE:  MOVLW  09
0DA00:  MOVLB  9
0DA02:  MOVWF  x2C
0DA04:  MOVLW  2D
0DA06:  MOVWF  x2B
0DA08:  MOVLW  09
0DA0A:  MOVWF  FE9
0DA0C:  MOVFF  902,94D
0DA10:  MOVFF  901,94C
0DA14:  MOVLB  0
0DA16:  CALL   3306
0DA1A:  MOVLW  B0
0DA1C:  MOVLB  9
0DA1E:  MOVWF  x57
0DA20:  MOVLB  0
0DA22:  CALL   1C40
0DA26:  MOVLW  43
0DA28:  MOVLB  9
0DA2A:  MOVWF  x57
0DA2C:  MOVLB  0
0DA2E:  CALL   1C40
....................             glcd_rect(28,33,70,45,YES,OFF); 
0DA32:  MOVLW  1C
0DA34:  MOVLB  9
0DA36:  MOVWF  x4E
0DA38:  MOVLW  21
0DA3A:  MOVWF  x4F
0DA3C:  MOVLW  46
0DA3E:  MOVWF  x50
0DA40:  MOVLW  2D
0DA42:  MOVWF  x51
0DA44:  MOVLW  01
0DA46:  MOVWF  x52
0DA48:  CLRF   x53
0DA4A:  MOVLB  0
0DA4C:  CALL   1874
....................             glcd_text57(30,35,voltage,1,1); 
0DA50:  MOVLW  1E
0DA52:  MOVLB  9
0DA54:  MOVWF  x4E
0DA56:  MOVLW  23
0DA58:  MOVWF  x4F
0DA5A:  MOVLW  09
0DA5C:  MOVWF  x51
0DA5E:  MOVLW  2D
0DA60:  MOVWF  x50
0DA62:  MOVLW  01
0DA64:  MOVWF  x52
0DA66:  MOVWF  x53
0DA68:  MOVLB  0
0DA6A:  CALL   1936
....................              
....................             sprintf(voltage, "%04LuC",patron2); 
0DA6E:  MOVLW  09
0DA70:  MOVLB  9
0DA72:  MOVWF  x2C
0DA74:  MOVLW  2D
0DA76:  MOVWF  x2B
0DA78:  MOVLW  09
0DA7A:  MOVWF  FE9
0DA7C:  MOVFF  908,94D
0DA80:  MOVFF  907,94C
0DA84:  MOVLB  0
0DA86:  CALL   3306
0DA8A:  MOVLW  B0
0DA8C:  MOVLB  9
0DA8E:  MOVWF  x57
0DA90:  MOVLB  0
0DA92:  CALL   1C40
0DA96:  MOVLW  43
0DA98:  MOVLB  9
0DA9A:  MOVWF  x57
0DA9C:  MOVLB  0
0DA9E:  CALL   1C40
....................             glcd_rect(78,33,120,45,YES,ON); 
0DAA2:  MOVLW  4E
0DAA4:  MOVLB  9
0DAA6:  MOVWF  x4E
0DAA8:  MOVLW  21
0DAAA:  MOVWF  x4F
0DAAC:  MOVLW  78
0DAAE:  MOVWF  x50
0DAB0:  MOVLW  2D
0DAB2:  MOVWF  x51
0DAB4:  MOVLW  01
0DAB6:  MOVWF  x52
0DAB8:  MOVWF  x53
0DABA:  MOVLB  0
0DABC:  CALL   1874
....................             glcd_text57(80,35,voltage,1,0); 
0DAC0:  MOVLW  50
0DAC2:  MOVLB  9
0DAC4:  MOVWF  x4E
0DAC6:  MOVLW  23
0DAC8:  MOVWF  x4F
0DACA:  MOVLW  09
0DACC:  MOVWF  x51
0DACE:  MOVLW  2D
0DAD0:  MOVWF  x50
0DAD2:  MOVLW  01
0DAD4:  MOVWF  x52
0DAD6:  CLRF   x53
0DAD8:  MOVLB  0
0DADA:  CALL   1936
....................              
....................             sprintf(voltage, "%04LuC",control3); 
0DADE:  MOVLW  09
0DAE0:  MOVLB  9
0DAE2:  MOVWF  x2C
0DAE4:  MOVLW  2D
0DAE6:  MOVWF  x2B
0DAE8:  MOVLW  09
0DAEA:  MOVWF  FE9
0DAEC:  MOVFF  904,94D
0DAF0:  MOVFF  903,94C
0DAF4:  MOVLB  0
0DAF6:  CALL   3306
0DAFA:  MOVLW  B0
0DAFC:  MOVLB  9
0DAFE:  MOVWF  x57
0DB00:  MOVLB  0
0DB02:  CALL   1C40
0DB06:  MOVLW  43
0DB08:  MOVLB  9
0DB0A:  MOVWF  x57
0DB0C:  MOVLB  0
0DB0E:  CALL   1C40
....................             glcd_rect(28,48,70,60,YES,OFF); 
0DB12:  MOVLW  1C
0DB14:  MOVLB  9
0DB16:  MOVWF  x4E
0DB18:  MOVLW  30
0DB1A:  MOVWF  x4F
0DB1C:  MOVLW  46
0DB1E:  MOVWF  x50
0DB20:  MOVLW  3C
0DB22:  MOVWF  x51
0DB24:  MOVLW  01
0DB26:  MOVWF  x52
0DB28:  CLRF   x53
0DB2A:  MOVLB  0
0DB2C:  CALL   1874
....................             glcd_text57(30,50,voltage,1,1); 
0DB30:  MOVLW  1E
0DB32:  MOVLB  9
0DB34:  MOVWF  x4E
0DB36:  MOVLW  32
0DB38:  MOVWF  x4F
0DB3A:  MOVLW  09
0DB3C:  MOVWF  x51
0DB3E:  MOVLW  2D
0DB40:  MOVWF  x50
0DB42:  MOVLW  01
0DB44:  MOVWF  x52
0DB46:  MOVWF  x53
0DB48:  MOVLB  0
0DB4A:  CALL   1936
....................              
....................             sprintf(voltage, "%04LuC",patron3); 
0DB4E:  MOVLW  09
0DB50:  MOVLB  9
0DB52:  MOVWF  x2C
0DB54:  MOVLW  2D
0DB56:  MOVWF  x2B
0DB58:  MOVLW  09
0DB5A:  MOVWF  FE9
0DB5C:  MOVFF  90A,94D
0DB60:  MOVFF  909,94C
0DB64:  MOVLB  0
0DB66:  CALL   3306
0DB6A:  MOVLW  B0
0DB6C:  MOVLB  9
0DB6E:  MOVWF  x57
0DB70:  MOVLB  0
0DB72:  CALL   1C40
0DB76:  MOVLW  43
0DB78:  MOVLB  9
0DB7A:  MOVWF  x57
0DB7C:  MOVLB  0
0DB7E:  CALL   1C40
....................             glcd_rect(78,48,120,60,YES,OFF); 
0DB82:  MOVLW  4E
0DB84:  MOVLB  9
0DB86:  MOVWF  x4E
0DB88:  MOVLW  30
0DB8A:  MOVWF  x4F
0DB8C:  MOVLW  78
0DB8E:  MOVWF  x50
0DB90:  MOVLW  3C
0DB92:  MOVWF  x51
0DB94:  MOVLW  01
0DB96:  MOVWF  x52
0DB98:  CLRF   x53
0DB9A:  MOVLB  0
0DB9C:  CALL   1874
....................             glcd_text57(80,50,voltage,1,1); 
0DBA0:  MOVLW  50
0DBA2:  MOVLB  9
0DBA4:  MOVWF  x4E
0DBA6:  MOVLW  32
0DBA8:  MOVWF  x4F
0DBAA:  MOVLW  09
0DBAC:  MOVWF  x51
0DBAE:  MOVLW  2D
0DBB0:  MOVWF  x50
0DBB2:  MOVLW  01
0DBB4:  MOVWF  x52
0DBB6:  MOVWF  x53
0DBB8:  MOVLB  0
0DBBA:  CALL   1936
....................             glcd_update(); 
0DBBE:  CALL   151A
....................              
....................             if(UP){ 
0DBC2:  BSF    F92.5
0DBC4:  BTFSC  F80.5
0DBC6:  BRA    DBD2
....................                patron2++; 
0DBC8:  MOVLB  9
0DBCA:  INCF   x07,F
0DBCC:  BTFSC  FD8.2
0DBCE:  INCF   x08,F
0DBD0:  MOVLB  0
....................             } 
....................              
....................             if(DOWN){ 
0DBD2:  BSF    F96.0
0DBD4:  BTFSC  F84.0
0DBD6:  BRA    DBE4
....................                patron2--; 
0DBD8:  MOVLB  9
0DBDA:  MOVF   x07,W
0DBDC:  BTFSC  FD8.2
0DBDE:  DECF   x08,F
0DBE0:  DECF   x07,F
0DBE2:  MOVLB  0
....................             } 
....................          }else if(calib==5){ 
0DBE4:  BRA    E190
0DBE6:  MOVLB  9
0DBE8:  MOVF   x0B,W
0DBEA:  SUBLW  05
0DBEC:  BTFSS  FD8.2
0DBEE:  BRA    DEBE
0DBF0:  MOVF   x0C,F
0DBF2:  BTFSS  FD8.2
0DBF4:  BRA    DEBE
....................             sprintf(voltage, "%04LuC",control1); 
0DBF6:  MOVLW  09
0DBF8:  MOVWF  x2C
0DBFA:  MOVLW  2D
0DBFC:  MOVWF  x2B
0DBFE:  MOVLW  09
0DC00:  MOVWF  FE9
0DC02:  MOVFF  900,94D
0DC06:  MOVFF  8FF,94C
0DC0A:  MOVLB  0
0DC0C:  CALL   3306
0DC10:  MOVLW  B0
0DC12:  MOVLB  9
0DC14:  MOVWF  x57
0DC16:  MOVLB  0
0DC18:  CALL   1C40
0DC1C:  MOVLW  43
0DC1E:  MOVLB  9
0DC20:  MOVWF  x57
0DC22:  MOVLB  0
0DC24:  CALL   1C40
....................             glcd_rect(28,18,70,30,YES,OFF); 
0DC28:  MOVLW  1C
0DC2A:  MOVLB  9
0DC2C:  MOVWF  x4E
0DC2E:  MOVLW  12
0DC30:  MOVWF  x4F
0DC32:  MOVLW  46
0DC34:  MOVWF  x50
0DC36:  MOVLW  1E
0DC38:  MOVWF  x51
0DC3A:  MOVLW  01
0DC3C:  MOVWF  x52
0DC3E:  CLRF   x53
0DC40:  MOVLB  0
0DC42:  CALL   1874
....................             glcd_text57(30,20,voltage,1,1); 
0DC46:  MOVLW  1E
0DC48:  MOVLB  9
0DC4A:  MOVWF  x4E
0DC4C:  MOVLW  14
0DC4E:  MOVWF  x4F
0DC50:  MOVLW  09
0DC52:  MOVWF  x51
0DC54:  MOVLW  2D
0DC56:  MOVWF  x50
0DC58:  MOVLW  01
0DC5A:  MOVWF  x52
0DC5C:  MOVWF  x53
0DC5E:  MOVLB  0
0DC60:  CALL   1936
....................              
....................             sprintf(voltage, "%04LuC",patron1); 
0DC64:  MOVLW  09
0DC66:  MOVLB  9
0DC68:  MOVWF  x2C
0DC6A:  MOVLW  2D
0DC6C:  MOVWF  x2B
0DC6E:  MOVLW  09
0DC70:  MOVWF  FE9
0DC72:  MOVFF  906,94D
0DC76:  MOVFF  905,94C
0DC7A:  MOVLB  0
0DC7C:  CALL   3306
0DC80:  MOVLW  B0
0DC82:  MOVLB  9
0DC84:  MOVWF  x57
0DC86:  MOVLB  0
0DC88:  CALL   1C40
0DC8C:  MOVLW  43
0DC8E:  MOVLB  9
0DC90:  MOVWF  x57
0DC92:  MOVLB  0
0DC94:  CALL   1C40
....................             glcd_rect(78,18,120,30,YES,OFF); 
0DC98:  MOVLW  4E
0DC9A:  MOVLB  9
0DC9C:  MOVWF  x4E
0DC9E:  MOVLW  12
0DCA0:  MOVWF  x4F
0DCA2:  MOVLW  78
0DCA4:  MOVWF  x50
0DCA6:  MOVLW  1E
0DCA8:  MOVWF  x51
0DCAA:  MOVLW  01
0DCAC:  MOVWF  x52
0DCAE:  CLRF   x53
0DCB0:  MOVLB  0
0DCB2:  CALL   1874
....................             glcd_text57(80,20,voltage,1,1);             
0DCB6:  MOVLW  50
0DCB8:  MOVLB  9
0DCBA:  MOVWF  x4E
0DCBC:  MOVLW  14
0DCBE:  MOVWF  x4F
0DCC0:  MOVLW  09
0DCC2:  MOVWF  x51
0DCC4:  MOVLW  2D
0DCC6:  MOVWF  x50
0DCC8:  MOVLW  01
0DCCA:  MOVWF  x52
0DCCC:  MOVWF  x53
0DCCE:  MOVLB  0
0DCD0:  CALL   1936
....................              
....................             sprintf(voltage, "%04LuC",control2); 
0DCD4:  MOVLW  09
0DCD6:  MOVLB  9
0DCD8:  MOVWF  x2C
0DCDA:  MOVLW  2D
0DCDC:  MOVWF  x2B
0DCDE:  MOVLW  09
0DCE0:  MOVWF  FE9
0DCE2:  MOVFF  902,94D
0DCE6:  MOVFF  901,94C
0DCEA:  MOVLB  0
0DCEC:  CALL   3306
0DCF0:  MOVLW  B0
0DCF2:  MOVLB  9
0DCF4:  MOVWF  x57
0DCF6:  MOVLB  0
0DCF8:  CALL   1C40
0DCFC:  MOVLW  43
0DCFE:  MOVLB  9
0DD00:  MOVWF  x57
0DD02:  MOVLB  0
0DD04:  CALL   1C40
....................             glcd_rect(28,33,70,45,YES,OFF); 
0DD08:  MOVLW  1C
0DD0A:  MOVLB  9
0DD0C:  MOVWF  x4E
0DD0E:  MOVLW  21
0DD10:  MOVWF  x4F
0DD12:  MOVLW  46
0DD14:  MOVWF  x50
0DD16:  MOVLW  2D
0DD18:  MOVWF  x51
0DD1A:  MOVLW  01
0DD1C:  MOVWF  x52
0DD1E:  CLRF   x53
0DD20:  MOVLB  0
0DD22:  CALL   1874
....................             glcd_text57(30,35,voltage,1,1); 
0DD26:  MOVLW  1E
0DD28:  MOVLB  9
0DD2A:  MOVWF  x4E
0DD2C:  MOVLW  23
0DD2E:  MOVWF  x4F
0DD30:  MOVLW  09
0DD32:  MOVWF  x51
0DD34:  MOVLW  2D
0DD36:  MOVWF  x50
0DD38:  MOVLW  01
0DD3A:  MOVWF  x52
0DD3C:  MOVWF  x53
0DD3E:  MOVLB  0
0DD40:  CALL   1936
....................              
....................             sprintf(voltage, "%04LuC",patron2); 
0DD44:  MOVLW  09
0DD46:  MOVLB  9
0DD48:  MOVWF  x2C
0DD4A:  MOVLW  2D
0DD4C:  MOVWF  x2B
0DD4E:  MOVLW  09
0DD50:  MOVWF  FE9
0DD52:  MOVFF  908,94D
0DD56:  MOVFF  907,94C
0DD5A:  MOVLB  0
0DD5C:  CALL   3306
0DD60:  MOVLW  B0
0DD62:  MOVLB  9
0DD64:  MOVWF  x57
0DD66:  MOVLB  0
0DD68:  CALL   1C40
0DD6C:  MOVLW  43
0DD6E:  MOVLB  9
0DD70:  MOVWF  x57
0DD72:  MOVLB  0
0DD74:  CALL   1C40
....................             glcd_rect(78,33,120,45,YES,OFF); 
0DD78:  MOVLW  4E
0DD7A:  MOVLB  9
0DD7C:  MOVWF  x4E
0DD7E:  MOVLW  21
0DD80:  MOVWF  x4F
0DD82:  MOVLW  78
0DD84:  MOVWF  x50
0DD86:  MOVLW  2D
0DD88:  MOVWF  x51
0DD8A:  MOVLW  01
0DD8C:  MOVWF  x52
0DD8E:  CLRF   x53
0DD90:  MOVLB  0
0DD92:  CALL   1874
....................             glcd_text57(80,35,voltage,1,1); 
0DD96:  MOVLW  50
0DD98:  MOVLB  9
0DD9A:  MOVWF  x4E
0DD9C:  MOVLW  23
0DD9E:  MOVWF  x4F
0DDA0:  MOVLW  09
0DDA2:  MOVWF  x51
0DDA4:  MOVLW  2D
0DDA6:  MOVWF  x50
0DDA8:  MOVLW  01
0DDAA:  MOVWF  x52
0DDAC:  MOVWF  x53
0DDAE:  MOVLB  0
0DDB0:  CALL   1936
....................              
....................             sprintf(voltage, "%04LuC",control3); 
0DDB4:  MOVLW  09
0DDB6:  MOVLB  9
0DDB8:  MOVWF  x2C
0DDBA:  MOVLW  2D
0DDBC:  MOVWF  x2B
0DDBE:  MOVLW  09
0DDC0:  MOVWF  FE9
0DDC2:  MOVFF  904,94D
0DDC6:  MOVFF  903,94C
0DDCA:  MOVLB  0
0DDCC:  CALL   3306
0DDD0:  MOVLW  B0
0DDD2:  MOVLB  9
0DDD4:  MOVWF  x57
0DDD6:  MOVLB  0
0DDD8:  CALL   1C40
0DDDC:  MOVLW  43
0DDDE:  MOVLB  9
0DDE0:  MOVWF  x57
0DDE2:  MOVLB  0
0DDE4:  CALL   1C40
....................             glcd_rect(28,48,70,60,YES,ON); 
0DDE8:  MOVLW  1C
0DDEA:  MOVLB  9
0DDEC:  MOVWF  x4E
0DDEE:  MOVLW  30
0DDF0:  MOVWF  x4F
0DDF2:  MOVLW  46
0DDF4:  MOVWF  x50
0DDF6:  MOVLW  3C
0DDF8:  MOVWF  x51
0DDFA:  MOVLW  01
0DDFC:  MOVWF  x52
0DDFE:  MOVWF  x53
0DE00:  MOVLB  0
0DE02:  CALL   1874
....................             glcd_text57(30,50,voltage,1,0); 
0DE06:  MOVLW  1E
0DE08:  MOVLB  9
0DE0A:  MOVWF  x4E
0DE0C:  MOVLW  32
0DE0E:  MOVWF  x4F
0DE10:  MOVLW  09
0DE12:  MOVWF  x51
0DE14:  MOVLW  2D
0DE16:  MOVWF  x50
0DE18:  MOVLW  01
0DE1A:  MOVWF  x52
0DE1C:  CLRF   x53
0DE1E:  MOVLB  0
0DE20:  CALL   1936
....................              
....................             sprintf(voltage, "%04LuC",patron3); 
0DE24:  MOVLW  09
0DE26:  MOVLB  9
0DE28:  MOVWF  x2C
0DE2A:  MOVLW  2D
0DE2C:  MOVWF  x2B
0DE2E:  MOVLW  09
0DE30:  MOVWF  FE9
0DE32:  MOVFF  90A,94D
0DE36:  MOVFF  909,94C
0DE3A:  MOVLB  0
0DE3C:  CALL   3306
0DE40:  MOVLW  B0
0DE42:  MOVLB  9
0DE44:  MOVWF  x57
0DE46:  MOVLB  0
0DE48:  CALL   1C40
0DE4C:  MOVLW  43
0DE4E:  MOVLB  9
0DE50:  MOVWF  x57
0DE52:  MOVLB  0
0DE54:  CALL   1C40
....................             glcd_rect(78,48,120,60,YES,OFF); 
0DE58:  MOVLW  4E
0DE5A:  MOVLB  9
0DE5C:  MOVWF  x4E
0DE5E:  MOVLW  30
0DE60:  MOVWF  x4F
0DE62:  MOVLW  78
0DE64:  MOVWF  x50
0DE66:  MOVLW  3C
0DE68:  MOVWF  x51
0DE6A:  MOVLW  01
0DE6C:  MOVWF  x52
0DE6E:  CLRF   x53
0DE70:  MOVLB  0
0DE72:  CALL   1874
....................             glcd_text57(80,50,voltage,1,1); 
0DE76:  MOVLW  50
0DE78:  MOVLB  9
0DE7A:  MOVWF  x4E
0DE7C:  MOVLW  32
0DE7E:  MOVWF  x4F
0DE80:  MOVLW  09
0DE82:  MOVWF  x51
0DE84:  MOVLW  2D
0DE86:  MOVWF  x50
0DE88:  MOVLW  01
0DE8A:  MOVWF  x52
0DE8C:  MOVWF  x53
0DE8E:  MOVLB  0
0DE90:  CALL   1936
....................             glcd_update(); 
0DE94:  CALL   151A
....................              
....................             if(UP){ 
0DE98:  BSF    F92.5
0DE9A:  BTFSC  F80.5
0DE9C:  BRA    DEA8
....................                control3++; 
0DE9E:  MOVLB  9
0DEA0:  INCF   x03,F
0DEA2:  BTFSC  FD8.2
0DEA4:  INCF   x04,F
0DEA6:  MOVLB  0
....................             } 
....................              
....................             if(DOWN){ 
0DEA8:  BSF    F96.0
0DEAA:  BTFSC  F84.0
0DEAC:  BRA    DEBA
....................                control3--; 
0DEAE:  MOVLB  9
0DEB0:  MOVF   x03,W
0DEB2:  BTFSC  FD8.2
0DEB4:  DECF   x04,F
0DEB6:  DECF   x03,F
0DEB8:  MOVLB  0
....................             } 
....................          }else if(calib==6){ 
0DEBA:  BRA    E190
0DEBC:  MOVLB  9
0DEBE:  MOVF   x0B,W
0DEC0:  SUBLW  06
0DEC2:  BTFSS  FD8.2
0DEC4:  BRA    E18E
0DEC6:  MOVF   x0C,F
0DEC8:  BTFSS  FD8.2
0DECA:  BRA    E18E
....................             sprintf(voltage, "%04LuC",control1); 
0DECC:  MOVLW  09
0DECE:  MOVWF  x2C
0DED0:  MOVLW  2D
0DED2:  MOVWF  x2B
0DED4:  MOVLW  09
0DED6:  MOVWF  FE9
0DED8:  MOVFF  900,94D
0DEDC:  MOVFF  8FF,94C
0DEE0:  MOVLB  0
0DEE2:  CALL   3306
0DEE6:  MOVLW  B0
0DEE8:  MOVLB  9
0DEEA:  MOVWF  x57
0DEEC:  MOVLB  0
0DEEE:  CALL   1C40
0DEF2:  MOVLW  43
0DEF4:  MOVLB  9
0DEF6:  MOVWF  x57
0DEF8:  MOVLB  0
0DEFA:  CALL   1C40
....................             glcd_rect(28,18,70,30,YES,OFF); 
0DEFE:  MOVLW  1C
0DF00:  MOVLB  9
0DF02:  MOVWF  x4E
0DF04:  MOVLW  12
0DF06:  MOVWF  x4F
0DF08:  MOVLW  46
0DF0A:  MOVWF  x50
0DF0C:  MOVLW  1E
0DF0E:  MOVWF  x51
0DF10:  MOVLW  01
0DF12:  MOVWF  x52
0DF14:  CLRF   x53
0DF16:  MOVLB  0
0DF18:  CALL   1874
....................             glcd_text57(30,20,voltage,1,1); 
0DF1C:  MOVLW  1E
0DF1E:  MOVLB  9
0DF20:  MOVWF  x4E
0DF22:  MOVLW  14
0DF24:  MOVWF  x4F
0DF26:  MOVLW  09
0DF28:  MOVWF  x51
0DF2A:  MOVLW  2D
0DF2C:  MOVWF  x50
0DF2E:  MOVLW  01
0DF30:  MOVWF  x52
0DF32:  MOVWF  x53
0DF34:  MOVLB  0
0DF36:  CALL   1936
....................              
....................             sprintf(voltage, "%04LuC",patron1); 
0DF3A:  MOVLW  09
0DF3C:  MOVLB  9
0DF3E:  MOVWF  x2C
0DF40:  MOVLW  2D
0DF42:  MOVWF  x2B
0DF44:  MOVLW  09
0DF46:  MOVWF  FE9
0DF48:  MOVFF  906,94D
0DF4C:  MOVFF  905,94C
0DF50:  MOVLB  0
0DF52:  CALL   3306
0DF56:  MOVLW  B0
0DF58:  MOVLB  9
0DF5A:  MOVWF  x57
0DF5C:  MOVLB  0
0DF5E:  CALL   1C40
0DF62:  MOVLW  43
0DF64:  MOVLB  9
0DF66:  MOVWF  x57
0DF68:  MOVLB  0
0DF6A:  CALL   1C40
....................             glcd_rect(78,18,120,30,YES,OFF); 
0DF6E:  MOVLW  4E
0DF70:  MOVLB  9
0DF72:  MOVWF  x4E
0DF74:  MOVLW  12
0DF76:  MOVWF  x4F
0DF78:  MOVLW  78
0DF7A:  MOVWF  x50
0DF7C:  MOVLW  1E
0DF7E:  MOVWF  x51
0DF80:  MOVLW  01
0DF82:  MOVWF  x52
0DF84:  CLRF   x53
0DF86:  MOVLB  0
0DF88:  CALL   1874
....................             glcd_text57(80,20,voltage,1,1);             
0DF8C:  MOVLW  50
0DF8E:  MOVLB  9
0DF90:  MOVWF  x4E
0DF92:  MOVLW  14
0DF94:  MOVWF  x4F
0DF96:  MOVLW  09
0DF98:  MOVWF  x51
0DF9A:  MOVLW  2D
0DF9C:  MOVWF  x50
0DF9E:  MOVLW  01
0DFA0:  MOVWF  x52
0DFA2:  MOVWF  x53
0DFA4:  MOVLB  0
0DFA6:  CALL   1936
....................              
....................             sprintf(voltage, "%04LuC",control2); 
0DFAA:  MOVLW  09
0DFAC:  MOVLB  9
0DFAE:  MOVWF  x2C
0DFB0:  MOVLW  2D
0DFB2:  MOVWF  x2B
0DFB4:  MOVLW  09
0DFB6:  MOVWF  FE9
0DFB8:  MOVFF  902,94D
0DFBC:  MOVFF  901,94C
0DFC0:  MOVLB  0
0DFC2:  CALL   3306
0DFC6:  MOVLW  B0
0DFC8:  MOVLB  9
0DFCA:  MOVWF  x57
0DFCC:  MOVLB  0
0DFCE:  CALL   1C40
0DFD2:  MOVLW  43
0DFD4:  MOVLB  9
0DFD6:  MOVWF  x57
0DFD8:  MOVLB  0
0DFDA:  CALL   1C40
....................             glcd_rect(28,33,70,45,YES,OFF); 
0DFDE:  MOVLW  1C
0DFE0:  MOVLB  9
0DFE2:  MOVWF  x4E
0DFE4:  MOVLW  21
0DFE6:  MOVWF  x4F
0DFE8:  MOVLW  46
0DFEA:  MOVWF  x50
0DFEC:  MOVLW  2D
0DFEE:  MOVWF  x51
0DFF0:  MOVLW  01
0DFF2:  MOVWF  x52
0DFF4:  CLRF   x53
0DFF6:  MOVLB  0
0DFF8:  CALL   1874
....................             glcd_text57(30,35,voltage,1,1); 
0DFFC:  MOVLW  1E
0DFFE:  MOVLB  9
0E000:  MOVWF  x4E
0E002:  MOVLW  23
0E004:  MOVWF  x4F
0E006:  MOVLW  09
0E008:  MOVWF  x51
0E00A:  MOVLW  2D
0E00C:  MOVWF  x50
0E00E:  MOVLW  01
0E010:  MOVWF  x52
0E012:  MOVWF  x53
0E014:  MOVLB  0
0E016:  CALL   1936
....................              
....................             sprintf(voltage, "%04LuC",patron2); 
0E01A:  MOVLW  09
0E01C:  MOVLB  9
0E01E:  MOVWF  x2C
0E020:  MOVLW  2D
0E022:  MOVWF  x2B
0E024:  MOVLW  09
0E026:  MOVWF  FE9
0E028:  MOVFF  908,94D
0E02C:  MOVFF  907,94C
0E030:  MOVLB  0
0E032:  CALL   3306
0E036:  MOVLW  B0
0E038:  MOVLB  9
0E03A:  MOVWF  x57
0E03C:  MOVLB  0
0E03E:  CALL   1C40
0E042:  MOVLW  43
0E044:  MOVLB  9
0E046:  MOVWF  x57
0E048:  MOVLB  0
0E04A:  CALL   1C40
....................             glcd_rect(78,33,120,45,YES,OFF); 
0E04E:  MOVLW  4E
0E050:  MOVLB  9
0E052:  MOVWF  x4E
0E054:  MOVLW  21
0E056:  MOVWF  x4F
0E058:  MOVLW  78
0E05A:  MOVWF  x50
0E05C:  MOVLW  2D
0E05E:  MOVWF  x51
0E060:  MOVLW  01
0E062:  MOVWF  x52
0E064:  CLRF   x53
0E066:  MOVLB  0
0E068:  CALL   1874
....................             glcd_text57(80,35,voltage,1,1); 
0E06C:  MOVLW  50
0E06E:  MOVLB  9
0E070:  MOVWF  x4E
0E072:  MOVLW  23
0E074:  MOVWF  x4F
0E076:  MOVLW  09
0E078:  MOVWF  x51
0E07A:  MOVLW  2D
0E07C:  MOVWF  x50
0E07E:  MOVLW  01
0E080:  MOVWF  x52
0E082:  MOVWF  x53
0E084:  MOVLB  0
0E086:  CALL   1936
....................              
....................             sprintf(voltage, "%04LuC",control3); 
0E08A:  MOVLW  09
0E08C:  MOVLB  9
0E08E:  MOVWF  x2C
0E090:  MOVLW  2D
0E092:  MOVWF  x2B
0E094:  MOVLW  09
0E096:  MOVWF  FE9
0E098:  MOVFF  904,94D
0E09C:  MOVFF  903,94C
0E0A0:  MOVLB  0
0E0A2:  CALL   3306
0E0A6:  MOVLW  B0
0E0A8:  MOVLB  9
0E0AA:  MOVWF  x57
0E0AC:  MOVLB  0
0E0AE:  CALL   1C40
0E0B2:  MOVLW  43
0E0B4:  MOVLB  9
0E0B6:  MOVWF  x57
0E0B8:  MOVLB  0
0E0BA:  CALL   1C40
....................             glcd_rect(28,48,70,60,YES,OFF); 
0E0BE:  MOVLW  1C
0E0C0:  MOVLB  9
0E0C2:  MOVWF  x4E
0E0C4:  MOVLW  30
0E0C6:  MOVWF  x4F
0E0C8:  MOVLW  46
0E0CA:  MOVWF  x50
0E0CC:  MOVLW  3C
0E0CE:  MOVWF  x51
0E0D0:  MOVLW  01
0E0D2:  MOVWF  x52
0E0D4:  CLRF   x53
0E0D6:  MOVLB  0
0E0D8:  CALL   1874
....................             glcd_text57(30,50,voltage,1,1); 
0E0DC:  MOVLW  1E
0E0DE:  MOVLB  9
0E0E0:  MOVWF  x4E
0E0E2:  MOVLW  32
0E0E4:  MOVWF  x4F
0E0E6:  MOVLW  09
0E0E8:  MOVWF  x51
0E0EA:  MOVLW  2D
0E0EC:  MOVWF  x50
0E0EE:  MOVLW  01
0E0F0:  MOVWF  x52
0E0F2:  MOVWF  x53
0E0F4:  MOVLB  0
0E0F6:  CALL   1936
....................              
....................             sprintf(voltage, "%04LuC",patron3); 
0E0FA:  MOVLW  09
0E0FC:  MOVLB  9
0E0FE:  MOVWF  x2C
0E100:  MOVLW  2D
0E102:  MOVWF  x2B
0E104:  MOVLW  09
0E106:  MOVWF  FE9
0E108:  MOVFF  90A,94D
0E10C:  MOVFF  909,94C
0E110:  MOVLB  0
0E112:  CALL   3306
0E116:  MOVLW  B0
0E118:  MOVLB  9
0E11A:  MOVWF  x57
0E11C:  MOVLB  0
0E11E:  CALL   1C40
0E122:  MOVLW  43
0E124:  MOVLB  9
0E126:  MOVWF  x57
0E128:  MOVLB  0
0E12A:  CALL   1C40
....................             glcd_rect(78,48,120,60,YES,ON); 
0E12E:  MOVLW  4E
0E130:  MOVLB  9
0E132:  MOVWF  x4E
0E134:  MOVLW  30
0E136:  MOVWF  x4F
0E138:  MOVLW  78
0E13A:  MOVWF  x50
0E13C:  MOVLW  3C
0E13E:  MOVWF  x51
0E140:  MOVLW  01
0E142:  MOVWF  x52
0E144:  MOVWF  x53
0E146:  MOVLB  0
0E148:  CALL   1874
....................             glcd_text57(80,50,voltage,1,0); 
0E14C:  MOVLW  50
0E14E:  MOVLB  9
0E150:  MOVWF  x4E
0E152:  MOVLW  32
0E154:  MOVWF  x4F
0E156:  MOVLW  09
0E158:  MOVWF  x51
0E15A:  MOVLW  2D
0E15C:  MOVWF  x50
0E15E:  MOVLW  01
0E160:  MOVWF  x52
0E162:  CLRF   x53
0E164:  MOVLB  0
0E166:  CALL   1936
....................             glcd_update(); 
0E16A:  CALL   151A
....................              
....................             if(UP){ 
0E16E:  BSF    F92.5
0E170:  BTFSC  F80.5
0E172:  BRA    E17E
....................                patron3++; 
0E174:  MOVLB  9
0E176:  INCF   x09,F
0E178:  BTFSC  FD8.2
0E17A:  INCF   x0A,F
0E17C:  MOVLB  0
....................             } 
....................              
....................             if(DOWN){ 
0E17E:  BSF    F96.0
0E180:  BTFSC  F84.0
0E182:  BRA    E190
....................                patron3--; 
0E184:  MOVLB  9
0E186:  MOVF   x09,W
0E188:  BTFSC  FD8.2
0E18A:  DECF   x0A,F
0E18C:  DECF   x09,F
0E18E:  MOVLB  0
....................             } 
....................          } 
....................           
....................          strcpy(Menus.Letra,"Cal1:"); 
0E190:  MOVLW  09
0E192:  MOVWF  FEA
0E194:  MOVLW  0D
0E196:  MOVWF  FE9
0E198:  MOVFF  FF2,936
0E19C:  BCF    FF2.7
0E19E:  MOVLW  00
0E1A0:  CALL   12F4
0E1A4:  TBLRD*-
0E1A6:  TBLRD*+
0E1A8:  MOVF   FF5,W
0E1AA:  MOVWF  FEE
0E1AC:  IORLW  00
0E1AE:  BNZ   E1A6
0E1B0:  MOVLB  9
0E1B2:  BTFSC  x36.7
0E1B4:  BSF    FF2.7
....................          glcd_text57(0,20,Menus.Letra,1,1); 
0E1B6:  CLRF   x4E
0E1B8:  MOVLW  14
0E1BA:  MOVWF  x4F
0E1BC:  MOVLW  09
0E1BE:  MOVWF  x51
0E1C0:  MOVLW  0D
0E1C2:  MOVWF  x50
0E1C4:  MOVLW  01
0E1C6:  MOVWF  x52
0E1C8:  MOVWF  x53
0E1CA:  MOVLB  0
0E1CC:  CALL   1936
....................           
....................          strcpy(Menus.Letra,"Cal2:"); 
0E1D0:  MOVLW  09
0E1D2:  MOVWF  FEA
0E1D4:  MOVLW  0D
0E1D6:  MOVWF  FE9
0E1D8:  MOVFF  FF2,936
0E1DC:  BCF    FF2.7
0E1DE:  MOVLW  00
0E1E0:  CALL   1318
0E1E4:  TBLRD*-
0E1E6:  TBLRD*+
0E1E8:  MOVF   FF5,W
0E1EA:  MOVWF  FEE
0E1EC:  IORLW  00
0E1EE:  BNZ   E1E6
0E1F0:  MOVLB  9
0E1F2:  BTFSC  x36.7
0E1F4:  BSF    FF2.7
....................          glcd_text57(0,35,Menus.Letra,1,1); 
0E1F6:  CLRF   x4E
0E1F8:  MOVLW  23
0E1FA:  MOVWF  x4F
0E1FC:  MOVLW  09
0E1FE:  MOVWF  x51
0E200:  MOVLW  0D
0E202:  MOVWF  x50
0E204:  MOVLW  01
0E206:  MOVWF  x52
0E208:  MOVWF  x53
0E20A:  MOVLB  0
0E20C:  CALL   1936
....................           
....................          strcpy(Menus.Letra,"Cal3:"); 
0E210:  MOVLW  09
0E212:  MOVWF  FEA
0E214:  MOVLW  0D
0E216:  MOVWF  FE9
0E218:  MOVFF  FF2,936
0E21C:  BCF    FF2.7
0E21E:  MOVLW  00
0E220:  CALL   133C
0E224:  TBLRD*-
0E226:  TBLRD*+
0E228:  MOVF   FF5,W
0E22A:  MOVWF  FEE
0E22C:  IORLW  00
0E22E:  BNZ   E226
0E230:  MOVLB  9
0E232:  BTFSC  x36.7
0E234:  BSF    FF2.7
....................          glcd_text57(0,50,Menus.Letra,1,1); 
0E236:  CLRF   x4E
0E238:  MOVLW  32
0E23A:  MOVWF  x4F
0E23C:  MOVLW  09
0E23E:  MOVWF  x51
0E240:  MOVLW  0D
0E242:  MOVWF  x50
0E244:  MOVLW  01
0E246:  MOVWF  x52
0E248:  MOVWF  x53
0E24A:  MOVLB  0
0E24C:  CALL   1936
0E250:  MOVLB  6
....................      } 
.................... //_-------------------------------------------------------------------------------------------------------------------------------------------------------- 
....................  
....................       if(Lectura2==1) 
0E252:  DECFSZ x2A,W
0E254:  BRA    E274
....................       { 
....................          Temperatura=Leer_Sensor(MediaMovil); 
0E256:  MOVFF  627,936
0E25A:  MOVLB  0
0E25C:  CALL   2370
0E260:  MOVFF  03,6CE
0E264:  MOVFF  02,6CD
0E268:  MOVFF  01,6CC
0E26C:  MOVFF  00,6CB
....................          Lectura2=0; 
0E270:  MOVLB  6
0E272:  CLRF   x2A
....................       }  
....................  
....................       if(tiemporeset>=60) 
0E274:  MOVF   x32,W
0E276:  SUBLW  3B
0E278:  BC    E294
....................       { 
....................          if(Menu!=0 && Menu<100){ 
0E27A:  MOVF   x38,F
0E27C:  BZ    E294
0E27E:  MOVF   x38,W
0E280:  SUBLW  63
0E282:  BNC   E294
....................             glcd_init(ON); 
0E284:  MOVLW  01
0E286:  MOVLB  9
0E288:  MOVWF  x36
0E28A:  MOVLB  0
0E28C:  CALL   15D2
....................             tiemporeset=0; 
0E290:  MOVLB  6
0E292:  CLRF   x32
....................          } 
....................       }  
....................  
....................  
....................    } 
0E294:  GOTO   67EA
.................... } 
0E298:  SLEEP 

Configuration Fuses:
   Word  1: 0200   HS NOIESO NOFCMEN
   Word  2: 1E1F   BROWNOUT NOWDT BORV20 NOPUT WDT32768
   Word  3: 0000   NOPBADEN NOLPT1OSC NOMCLR
   Word  4: 00B0   NOSTVREN NODEBUG NOLVP NOXINST BBSIZ4K
   Word  5: C03F   NOPROTECT NOCPD NOCPB
   Word  6: E03F   NOWRT NOWRTD NOWRTC NOWRTB
   Word  7: 403F   NOEBTR NOEBTRB
